{
 "array_types" :
 [
  {
   "alignment" : 4,
   "linker_set_key" : "_ZTIA0_i",
   "name" : "int [0]",
   "referenced_type" : "_ZTIi",
   "self_type" : "_ZTIA0_i",
   "source_file" : "/system/core/libcutils/include/cutils/native_handle.h"
  },
  {
   "alignment" : 1,
   "linker_set_key" : "_ZTIA16_h",
   "name" : "unsigned char [16]",
   "referenced_type" : "_ZTIh",
   "self_type" : "_ZTIA16_h",
   "size" : 16,
   "source_file" : "/system/libhidl/base/include/hidl/HidlSupport.h"
  },
  {
   "alignment" : 1,
   "linker_set_key" : "_ZTIA32_h",
   "name" : "unsigned char [32]",
   "referenced_type" : "_ZTIh",
   "self_type" : "_ZTIA32_h",
   "size" : 32,
   "source_file" : "/system/libhidl/base/include/hidl/HidlSupport.h"
  },
  {
   "alignment" : 1,
   "linker_set_key" : "_ZTIA3_h",
   "name" : "unsigned char [3]",
   "referenced_type" : "_ZTIh",
   "self_type" : "_ZTIA3_h",
   "size" : 3,
   "source_file" : "/system/libhidl/base/include/hidl/HidlSupport.h"
  },
  {
   "alignment" : 1,
   "linker_set_key" : "_ZTIA5121_h",
   "name" : "unsigned char [5121]",
   "referenced_type" : "_ZTIh",
   "self_type" : "_ZTIA5121_h",
   "size" : 5121,
   "source_file" : "/system/core/liblog/include/log/log_read.h"
  },
  {
   "alignment" : 4,
   "linker_set_key" : "_ZTIA64_N7android8hardware4gnss4V1_013IGnssCallback10GnssSvInfoE",
   "name" : "android::hardware::gnss::V1_0::IGnssCallback::GnssSvInfo [64]",
   "referenced_type" : "_ZTIN7android8hardware4gnss4V1_013IGnssCallback10GnssSvInfoE",
   "self_type" : "_ZTIA64_N7android8hardware4gnss4V1_013IGnssCallback10GnssSvInfoE",
   "size" : 1536,
   "source_file" : "/system/libhidl/base/include/hidl/HidlSupport.h"
  },
  {
   "alignment" : 8,
   "linker_set_key" : "_ZTIA64_N7android8hardware4gnss4V1_024IGnssMeasurementCallback15GnssMeasurementE",
   "name" : "android::hardware::gnss::V1_0::IGnssMeasurementCallback::GnssMeasurement [64]",
   "referenced_type" : "_ZTIN7android8hardware4gnss4V1_024IGnssMeasurementCallback15GnssMeasurementE",
   "self_type" : "_ZTIA64_N7android8hardware4gnss4V1_024IGnssMeasurementCallback15GnssMeasurementE",
   "size" : 9216,
   "source_file" : "/system/libhidl/base/include/hidl/HidlSupport.h"
  },
  {
   "alignment" : 1,
   "linker_set_key" : "_ZTIA64_c",
   "name" : "char [64]",
   "referenced_type" : "_ZTIc",
   "self_type" : "_ZTIA64_c",
   "size" : 64,
   "source_file" : "/system/libhidl/transport/include/hidl/ConcurrentMap.h"
  },
  {
   "alignment" : 1,
   "linker_set_key" : "_ZTIA7_h",
   "name" : "unsigned char [7]",
   "referenced_type" : "_ZTIh",
   "self_type" : "_ZTIA7_h",
   "size" : 7,
   "source_file" : "/system/libhidl/base/include/hidl/HidlSupport.h"
  },
  {
   "alignment" : 4,
   "linker_set_key" : "_ZTIA8_j",
   "name" : "unsigned int [8]",
   "referenced_type" : "_ZTIj",
   "self_type" : "_ZTIA8_j",
   "size" : 32,
   "source_file" : "/system/core/libsystem/include/system/graphics.h"
  },
  {
   "linker_set_key" : "_ZTIA_f",
   "name" : "float []",
   "referenced_type" : "_ZTIf",
   "self_type" : "_ZTIA_f",
   "source_file" : "/system/core/libsystem/include/system/graphics.h"
  }
 ],
 "builtin_types" :
 [
  {
   "alignment" : 2,
   "is_integral" : true,
   "is_unsigned" : true,
   "linker_set_key" : "_ZTIDs",
   "name" : "char16_t",
   "referenced_type" : "_ZTIDs",
   "self_type" : "_ZTIDs",
   "size" : 2
  },
  {
   "alignment" : 1,
   "is_integral" : true,
   "linker_set_key" : "_ZTIa",
   "name" : "signed char",
   "referenced_type" : "_ZTIa",
   "self_type" : "_ZTIa",
   "size" : 1
  },
  {
   "alignment" : 1,
   "is_integral" : true,
   "is_unsigned" : true,
   "linker_set_key" : "_ZTIb",
   "name" : "bool",
   "referenced_type" : "_ZTIb",
   "self_type" : "_ZTIb",
   "size" : 1
  },
  {
   "alignment" : 1,
   "is_integral" : true,
   "linker_set_key" : "_ZTIc",
   "name" : "char",
   "referenced_type" : "_ZTIc",
   "self_type" : "_ZTIc",
   "size" : 1
  },
  {
   "alignment" : 8,
   "linker_set_key" : "_ZTId",
   "name" : "double",
   "referenced_type" : "_ZTId",
   "self_type" : "_ZTId",
   "size" : 8
  },
  {
   "alignment" : 4,
   "linker_set_key" : "_ZTIf",
   "name" : "float",
   "referenced_type" : "_ZTIf",
   "self_type" : "_ZTIf",
   "size" : 4
  },
  {
   "alignment" : 1,
   "is_integral" : true,
   "is_unsigned" : true,
   "linker_set_key" : "_ZTIh",
   "name" : "unsigned char",
   "referenced_type" : "_ZTIh",
   "self_type" : "_ZTIh",
   "size" : 1
  },
  {
   "alignment" : 4,
   "is_integral" : true,
   "linker_set_key" : "_ZTIi",
   "name" : "int",
   "referenced_type" : "_ZTIi",
   "self_type" : "_ZTIi",
   "size" : 4
  },
  {
   "alignment" : 4,
   "is_integral" : true,
   "is_unsigned" : true,
   "linker_set_key" : "_ZTIj",
   "name" : "unsigned int",
   "referenced_type" : "_ZTIj",
   "self_type" : "_ZTIj",
   "size" : 4
  },
  {
   "alignment" : 8,
   "is_integral" : true,
   "linker_set_key" : "_ZTIl",
   "name" : "long",
   "referenced_type" : "_ZTIl",
   "self_type" : "_ZTIl",
   "size" : 8
  },
  {
   "alignment" : 8,
   "is_integral" : true,
   "is_unsigned" : true,
   "linker_set_key" : "_ZTIm",
   "name" : "unsigned long",
   "referenced_type" : "_ZTIm",
   "self_type" : "_ZTIm",
   "size" : 8
  },
  {
   "alignment" : 2,
   "is_integral" : true,
   "linker_set_key" : "_ZTIs",
   "name" : "short",
   "referenced_type" : "_ZTIs",
   "self_type" : "_ZTIs",
   "size" : 2
  },
  {
   "alignment" : 2,
   "is_integral" : true,
   "is_unsigned" : true,
   "linker_set_key" : "_ZTIt",
   "name" : "unsigned short",
   "referenced_type" : "_ZTIt",
   "self_type" : "_ZTIt",
   "size" : 2
  },
  {
   "linker_set_key" : "_ZTIv",
   "name" : "void",
   "referenced_type" : "_ZTIv",
   "self_type" : "_ZTIv"
  },
  {
   "alignment" : 8,
   "is_integral" : true,
   "linker_set_key" : "_ZTIx",
   "name" : "long long",
   "referenced_type" : "_ZTIx",
   "self_type" : "_ZTIx",
   "size" : 8
  },
  {
   "alignment" : 8,
   "is_integral" : true,
   "is_unsigned" : true,
   "linker_set_key" : "_ZTIy",
   "name" : "unsigned long long",
   "referenced_type" : "_ZTIy",
   "self_type" : "_ZTIy",
   "size" : 8
  }
 ],
 "elf_functions" :
 [
  {
   "binding" : "weak",
   "name" : "_ZN7android2spINS_8hardware4gnss23measurement_corrections4V1_123IMeasurementCorrectionsEEaSEOS6_"
  },
  {
   "binding" : "weak",
   "name" : "_ZN7android2spINS_8hardware4gnss4V2_116IGnssAntennaInfoEEaSEOS5_"
  },
  {
   "binding" : "weak",
   "name" : "_ZN7android2spINS_8hardware4gnss4V2_116IGnssMeasurementEEaSEOS5_"
  },
  {
   "binding" : "weak",
   "name" : "_ZN7android2spINS_8hardware4gnss4V2_118IGnssConfigurationEEaSEOS5_"
  },
  {
   "binding" : "weak",
   "name" : "_ZN7android8hardware10fromBinderINS0_4gnss23measurement_corrections4V1_123IMeasurementCorrectionsENS4_26BpHwMeasurementCorrectionsENS4_26BnHwMeasurementCorrectionsEEENS_2spIT_EERKNS8_INS0_7IBinderEEE"
  },
  {
   "binding" : "weak",
   "name" : "_ZN7android8hardware10fromBinderINS0_4gnss4V2_113IGnssCallbackENS3_16BpHwGnssCallbackENS3_16BnHwGnssCallbackEEENS_2spIT_EERKNS7_INS0_7IBinderEEE"
  },
  {
   "binding" : "weak",
   "name" : "_ZN7android8hardware10fromBinderINS0_4gnss4V2_116IGnssAntennaInfoENS3_19BpHwGnssAntennaInfoENS3_19BnHwGnssAntennaInfoEEENS_2spIT_EERKNS7_INS0_7IBinderEEE"
  },
  {
   "binding" : "weak",
   "name" : "_ZN7android8hardware10fromBinderINS0_4gnss4V2_116IGnssMeasurementENS3_19BpHwGnssMeasurementENS3_19BnHwGnssMeasurementEEENS_2spIT_EERKNS7_INS0_7IBinderEEE"
  },
  {
   "binding" : "weak",
   "name" : "_ZN7android8hardware10fromBinderINS0_4gnss4V2_118IGnssConfigurationENS3_21BpHwGnssConfigurationENS3_21BnHwGnssConfigurationEEENS_2spIT_EERKNS7_INS0_7IBinderEEE"
  },
  {
   "binding" : "weak",
   "name" : "_ZN7android8hardware10fromBinderINS0_4gnss4V2_124IGnssAntennaInfoCallbackENS3_27BpHwGnssAntennaInfoCallbackENS3_27BnHwGnssAntennaInfoCallbackEEENS_2spIT_EERKNS7_INS0_7IBinderEEE"
  },
  {
   "binding" : "weak",
   "name" : "_ZN7android8hardware10fromBinderINS0_4gnss4V2_124IGnssMeasurementCallbackENS3_27BpHwGnssMeasurementCallbackENS3_27BnHwGnssMeasurementCallbackEEENS_2spIT_EERKNS7_INS0_7IBinderEEE"
  },
  {
   "name" : "_ZN7android8hardware4gnss4V2_113IGnssCallback10getServiceERKNSt3__112basic_stringIcNS4_11char_traitsIcEENS4_9allocatorIcEEEEb"
  },
  {
   "name" : "_ZN7android8hardware4gnss4V2_113IGnssCallback11linkToDeathERKNS_2spINS0_20hidl_death_recipientEEEm"
  },
  {
   "name" : "_ZN7android8hardware4gnss4V2_113IGnssCallback12getDebugInfoENSt3__18functionIFvRKNS_4hidl4base4V1_09DebugInfoEEEE"
  },
  {
   "name" : "_ZN7android8hardware4gnss4V2_113IGnssCallback12getHashChainENSt3__18functionIFvRKNS0_8hidl_vecINS0_10hidl_arrayIhLm32EJEEEEEEEE"
  },
  {
   "name" : "_ZN7android8hardware4gnss4V2_113IGnssCallback13tryGetServiceERKNSt3__112basic_stringIcNS4_11char_traitsIcEENS4_9allocatorIcEEEEb"
  },
  {
   "name" : "_ZN7android8hardware4gnss4V2_113IGnssCallback13unlinkToDeathERKNS_2spINS0_20hidl_death_recipientEEE"
  },
  {
   "name" : "_ZN7android8hardware4gnss4V2_113IGnssCallback14interfaceChainENSt3__18functionIFvRKNS0_8hidl_vecINS0_11hidl_stringEEEEEE"
  },
  {
   "name" : "_ZN7android8hardware4gnss4V2_113IGnssCallback17registerAsServiceERKNSt3__112basic_stringIcNS4_11char_traitsIcEENS4_9allocatorIcEEEE"
  },
  {
   "name" : "_ZN7android8hardware4gnss4V2_113IGnssCallback19interfaceDescriptorENSt3__18functionIFvRKNS0_11hidl_stringEEEE"
  },
  {
   "name" : "_ZN7android8hardware4gnss4V2_113IGnssCallback21notifySyspropsChangedEv"
  },
  {
   "name" : "_ZN7android8hardware4gnss4V2_113IGnssCallback21setHALInstrumentationEv"
  },
  {
   "name" : "_ZN7android8hardware4gnss4V2_113IGnssCallback24registerForNotificationsERKNSt3__112basic_stringIcNS4_11char_traitsIcEENS4_9allocatorIcEEEERKNS_2spINS_4hidl7manager4V1_020IServiceNotificationEEE"
  },
  {
   "name" : "_ZN7android8hardware4gnss4V2_113IGnssCallback4pingEv"
  },
  {
   "name" : "_ZN7android8hardware4gnss4V2_113IGnssCallback5debugERKNS0_11hidl_handleERKNS0_8hidl_vecINS0_11hidl_stringEEE"
  },
  {
   "name" : "_ZN7android8hardware4gnss4V2_113IGnssCallback8castFromERKNS_2spINS1_4V1_013IGnssCallbackEEEb"
  },
  {
   "name" : "_ZN7android8hardware4gnss4V2_113IGnssCallback8castFromERKNS_2spINS1_4V1_113IGnssCallbackEEEb"
  },
  {
   "name" : "_ZN7android8hardware4gnss4V2_113IGnssCallback8castFromERKNS_2spINS1_4V2_013IGnssCallbackEEEb"
  },
  {
   "name" : "_ZN7android8hardware4gnss4V2_113IGnssCallback8castFromERKNS_2spINS_4hidl4base4V1_05IBaseEEEb"
  },
  {
   "name" : "_ZN7android8hardware4gnss4V2_113IGnssCallback8castFromERKNS_2spIS3_EEb"
  },
  {
   "name" : "_ZN7android8hardware4gnss4V2_114BsGnssCallback13addOnewayTaskENSt3__18functionIFvvEEE"
  },
  {
   "name" : "_ZN7android8hardware4gnss4V2_114BsGnssCallbackC1ENS_2spINS2_13IGnssCallbackEEE"
  },
  {
   "name" : "_ZN7android8hardware4gnss4V2_114BsGnssCallbackC2ENS_2spINS2_13IGnssCallbackEEE"
  },
  {
   "name" : "_ZN7android8hardware4gnss4V2_116BnHwGnssCallback10onTransactEjRKNS0_6ParcelEPS4_jNSt3__18functionIFvRS4_EEE"
  },
  {
   "name" : "_ZN7android8hardware4gnss4V2_116BnHwGnssCallback12getDebugInfoENSt3__18functionIFvRKNS_4hidl4base4V1_09DebugInfoEEEE"
  },
  {
   "name" : "_ZN7android8hardware4gnss4V2_116BnHwGnssCallback24_hidl_gnssSvStatusCb_2_1EPNS_4hidl4base4V1_08BnHwBaseERKNS0_6ParcelEPS9_NSt3__18functionIFvRS9_EEE"
  },
  {
   "name" : "_ZN7android8hardware4gnss4V2_116BnHwGnssCallback31_hidl_gnssSetCapabilitiesCb_2_1EPNS_4hidl4base4V1_08BnHwBaseERKNS0_6ParcelEPS9_NSt3__18functionIFvRS9_EEE"
  },
  {
   "name" : "_ZN7android8hardware4gnss4V2_116BnHwGnssCallback4pingEv"
  },
  {
   "name" : "_ZN7android8hardware4gnss4V2_116BnHwGnssCallbackC1ERKNS_2spINS2_13IGnssCallbackEEE"
  },
  {
   "name" : "_ZN7android8hardware4gnss4V2_116BnHwGnssCallbackC2ERKNS_2spINS2_13IGnssCallbackEEE"
  },
  {
   "name" : "_ZN7android8hardware4gnss4V2_116BnHwGnssCallbackD0Ev"
  },
  {
   "name" : "_ZN7android8hardware4gnss4V2_116BnHwGnssCallbackD1Ev"
  },
  {
   "name" : "_ZN7android8hardware4gnss4V2_116BnHwGnssCallbackD2Ev"
  },
  {
   "name" : "_ZN7android8hardware4gnss4V2_116BpHwGnssCallback10gnssNameCbERKNS0_11hidl_stringE"
  },
  {
   "name" : "_ZN7android8hardware4gnss4V2_116BpHwGnssCallback10gnssNmeaCbElRKNS0_11hidl_stringE"
  },
  {
   "name" : "_ZN7android8hardware4gnss4V2_116BpHwGnssCallback11linkToDeathERKNS_2spINS0_20hidl_death_recipientEEEm"
  },
  {
   "name" : "_ZN7android8hardware4gnss4V2_116BpHwGnssCallback12getDebugInfoENSt3__18functionIFvRKNS_4hidl4base4V1_09DebugInfoEEEE"
  },
  {
   "name" : "_ZN7android8hardware4gnss4V2_116BpHwGnssCallback12getHashChainENSt3__18functionIFvRKNS0_8hidl_vecINS0_10hidl_arrayIhLm32EJEEEEEEEE"
  },
  {
   "name" : "_ZN7android8hardware4gnss4V2_116BpHwGnssCallback12gnssStatusCbENS1_4V1_013IGnssCallback15GnssStatusValueE"
  },
  {
   "name" : "_ZN7android8hardware4gnss4V2_116BpHwGnssCallback13unlinkToDeathERKNS_2spINS0_20hidl_death_recipientEEE"
  },
  {
   "name" : "_ZN7android8hardware4gnss4V2_116BpHwGnssCallback14gnssLocationCbERKNS1_4V1_012GnssLocationE"
  },
  {
   "name" : "_ZN7android8hardware4gnss4V2_116BpHwGnssCallback14gnssSvStatusCbERKNS1_4V1_013IGnssCallback12GnssSvStatusE"
  },
  {
   "name" : "_ZN7android8hardware4gnss4V2_116BpHwGnssCallback14interfaceChainENSt3__18functionIFvRKNS0_8hidl_vecINS0_11hidl_stringEEEEEE"
  },
  {
   "name" : "_ZN7android8hardware4gnss4V2_116BpHwGnssCallback15onLastStrongRefEPKv"
  },
  {
   "name" : "_ZN7android8hardware4gnss4V2_116BpHwGnssCallback17gnssRequestTimeCbEv"
  },
  {
   "name" : "_ZN7android8hardware4gnss4V2_116BpHwGnssCallback18gnssLocationCb_2_0ERKNS1_4V2_012GnssLocationE"
  },
  {
   "name" : "_ZN7android8hardware4gnss4V2_116BpHwGnssCallback18gnssSvStatusCb_2_0ERKNS0_8hidl_vecINS1_4V2_013IGnssCallback10GnssSvInfoEEE"
  },
  {
   "name" : "_ZN7android8hardware4gnss4V2_116BpHwGnssCallback18gnssSvStatusCb_2_1ERKNS0_8hidl_vecINS2_13IGnssCallback10GnssSvInfoEEE"
  },
  {
   "name" : "_ZN7android8hardware4gnss4V2_116BpHwGnssCallback19gnssSetSystemInfoCbERKNS1_4V1_013IGnssCallback14GnssSystemInfoE"
  },
  {
   "name" : "_ZN7android8hardware4gnss4V2_116BpHwGnssCallback19interfaceDescriptorENSt3__18functionIFvRKNS0_11hidl_stringEEEE"
  },
  {
   "name" : "_ZN7android8hardware4gnss4V2_116BpHwGnssCallback20gnssSetCapabilitesCbEj"
  },
  {
   "name" : "_ZN7android8hardware4gnss4V2_116BpHwGnssCallback21gnssAcquireWakelockCbEv"
  },
  {
   "name" : "_ZN7android8hardware4gnss4V2_116BpHwGnssCallback21gnssReleaseWakelockCbEv"
  },
  {
   "name" : "_ZN7android8hardware4gnss4V2_116BpHwGnssCallback21gnssRequestLocationCbEb"
  },
  {
   "name" : "_ZN7android8hardware4gnss4V2_116BpHwGnssCallback21notifySyspropsChangedEv"
  },
  {
   "name" : "_ZN7android8hardware4gnss4V2_116BpHwGnssCallback21setHALInstrumentationEv"
  },
  {
   "name" : "_ZN7android8hardware4gnss4V2_116BpHwGnssCallback24_hidl_gnssSvStatusCb_2_1EPNS0_10IInterfaceEPNS0_7details16HidlInstrumentorERKNS0_8hidl_vecINS2_13IGnssCallback10GnssSvInfoEEE"
  },
  {
   "name" : "_ZN7android8hardware4gnss4V2_116BpHwGnssCallback25gnssRequestLocationCb_2_0Ebb"
  },
  {
   "name" : "_ZN7android8hardware4gnss4V2_116BpHwGnssCallback25gnssSetCapabilitiesCb_2_0Ej"
  },
  {
   "name" : "_ZN7android8hardware4gnss4V2_116BpHwGnssCallback25gnssSetCapabilitiesCb_2_1Ej"
  },
  {
   "name" : "_ZN7android8hardware4gnss4V2_116BpHwGnssCallback31_hidl_gnssSetCapabilitiesCb_2_1EPNS0_10IInterfaceEPNS0_7details16HidlInstrumentorEj"
  },
  {
   "name" : "_ZN7android8hardware4gnss4V2_116BpHwGnssCallback4pingEv"
  },
  {
   "name" : "_ZN7android8hardware4gnss4V2_116BpHwGnssCallback5debugERKNS0_11hidl_handleERKNS0_8hidl_vecINS0_11hidl_stringEEE"
  },
  {
   "name" : "_ZN7android8hardware4gnss4V2_116BpHwGnssCallbackC1ERKNS_2spINS0_7IBinderEEE"
  },
  {
   "name" : "_ZN7android8hardware4gnss4V2_116BpHwGnssCallbackC2ERKNS_2spINS0_7IBinderEEE"
  },
  {
   "name" : "_ZN7android8hardware4gnss4V2_116IGnssAntennaInfo10getServiceERKNSt3__112basic_stringIcNS4_11char_traitsIcEENS4_9allocatorIcEEEEb"
  },
  {
   "name" : "_ZN7android8hardware4gnss4V2_116IGnssAntennaInfo11linkToDeathERKNS_2spINS0_20hidl_death_recipientEEEm"
  },
  {
   "name" : "_ZN7android8hardware4gnss4V2_116IGnssAntennaInfo12getDebugInfoENSt3__18functionIFvRKNS_4hidl4base4V1_09DebugInfoEEEE"
  },
  {
   "name" : "_ZN7android8hardware4gnss4V2_116IGnssAntennaInfo12getHashChainENSt3__18functionIFvRKNS0_8hidl_vecINS0_10hidl_arrayIhLm32EJEEEEEEEE"
  },
  {
   "name" : "_ZN7android8hardware4gnss4V2_116IGnssAntennaInfo13tryGetServiceERKNSt3__112basic_stringIcNS4_11char_traitsIcEENS4_9allocatorIcEEEEb"
  },
  {
   "name" : "_ZN7android8hardware4gnss4V2_116IGnssAntennaInfo13unlinkToDeathERKNS_2spINS0_20hidl_death_recipientEEE"
  },
  {
   "name" : "_ZN7android8hardware4gnss4V2_116IGnssAntennaInfo14interfaceChainENSt3__18functionIFvRKNS0_8hidl_vecINS0_11hidl_stringEEEEEE"
  },
  {
   "name" : "_ZN7android8hardware4gnss4V2_116IGnssAntennaInfo17registerAsServiceERKNSt3__112basic_stringIcNS4_11char_traitsIcEENS4_9allocatorIcEEEE"
  },
  {
   "name" : "_ZN7android8hardware4gnss4V2_116IGnssAntennaInfo19interfaceDescriptorENSt3__18functionIFvRKNS0_11hidl_stringEEEE"
  },
  {
   "name" : "_ZN7android8hardware4gnss4V2_116IGnssAntennaInfo21notifySyspropsChangedEv"
  },
  {
   "name" : "_ZN7android8hardware4gnss4V2_116IGnssAntennaInfo21setHALInstrumentationEv"
  },
  {
   "name" : "_ZN7android8hardware4gnss4V2_116IGnssAntennaInfo24registerForNotificationsERKNSt3__112basic_stringIcNS4_11char_traitsIcEENS4_9allocatorIcEEEERKNS_2spINS_4hidl7manager4V1_020IServiceNotificationEEE"
  },
  {
   "name" : "_ZN7android8hardware4gnss4V2_116IGnssAntennaInfo4pingEv"
  },
  {
   "name" : "_ZN7android8hardware4gnss4V2_116IGnssAntennaInfo5debugERKNS0_11hidl_handleERKNS0_8hidl_vecINS0_11hidl_stringEEE"
  },
  {
   "name" : "_ZN7android8hardware4gnss4V2_116IGnssAntennaInfo8castFromERKNS_2spINS_4hidl4base4V1_05IBaseEEEb"
  },
  {
   "name" : "_ZN7android8hardware4gnss4V2_116IGnssAntennaInfo8castFromERKNS_2spIS3_EEb"
  },
  {
   "name" : "_ZN7android8hardware4gnss4V2_116IGnssMeasurement10getServiceERKNSt3__112basic_stringIcNS4_11char_traitsIcEENS4_9allocatorIcEEEEb"
  },
  {
   "name" : "_ZN7android8hardware4gnss4V2_116IGnssMeasurement11linkToDeathERKNS_2spINS0_20hidl_death_recipientEEEm"
  },
  {
   "name" : "_ZN7android8hardware4gnss4V2_116IGnssMeasurement12getDebugInfoENSt3__18functionIFvRKNS_4hidl4base4V1_09DebugInfoEEEE"
  },
  {
   "name" : "_ZN7android8hardware4gnss4V2_116IGnssMeasurement12getHashChainENSt3__18functionIFvRKNS0_8hidl_vecINS0_10hidl_arrayIhLm32EJEEEEEEEE"
  },
  {
   "name" : "_ZN7android8hardware4gnss4V2_116IGnssMeasurement13tryGetServiceERKNSt3__112basic_stringIcNS4_11char_traitsIcEENS4_9allocatorIcEEEEb"
  },
  {
   "name" : "_ZN7android8hardware4gnss4V2_116IGnssMeasurement13unlinkToDeathERKNS_2spINS0_20hidl_death_recipientEEE"
  },
  {
   "name" : "_ZN7android8hardware4gnss4V2_116IGnssMeasurement14interfaceChainENSt3__18functionIFvRKNS0_8hidl_vecINS0_11hidl_stringEEEEEE"
  },
  {
   "name" : "_ZN7android8hardware4gnss4V2_116IGnssMeasurement17registerAsServiceERKNSt3__112basic_stringIcNS4_11char_traitsIcEENS4_9allocatorIcEEEE"
  },
  {
   "name" : "_ZN7android8hardware4gnss4V2_116IGnssMeasurement19interfaceDescriptorENSt3__18functionIFvRKNS0_11hidl_stringEEEE"
  },
  {
   "name" : "_ZN7android8hardware4gnss4V2_116IGnssMeasurement21notifySyspropsChangedEv"
  },
  {
   "name" : "_ZN7android8hardware4gnss4V2_116IGnssMeasurement21setHALInstrumentationEv"
  },
  {
   "name" : "_ZN7android8hardware4gnss4V2_116IGnssMeasurement24registerForNotificationsERKNSt3__112basic_stringIcNS4_11char_traitsIcEENS4_9allocatorIcEEEERKNS_2spINS_4hidl7manager4V1_020IServiceNotificationEEE"
  },
  {
   "name" : "_ZN7android8hardware4gnss4V2_116IGnssMeasurement4pingEv"
  },
  {
   "name" : "_ZN7android8hardware4gnss4V2_116IGnssMeasurement5debugERKNS0_11hidl_handleERKNS0_8hidl_vecINS0_11hidl_stringEEE"
  },
  {
   "name" : "_ZN7android8hardware4gnss4V2_116IGnssMeasurement8castFromERKNS_2spINS1_4V1_016IGnssMeasurementEEEb"
  },
  {
   "name" : "_ZN7android8hardware4gnss4V2_116IGnssMeasurement8castFromERKNS_2spINS1_4V1_116IGnssMeasurementEEEb"
  },
  {
   "name" : "_ZN7android8hardware4gnss4V2_116IGnssMeasurement8castFromERKNS_2spINS1_4V2_016IGnssMeasurementEEEb"
  },
  {
   "name" : "_ZN7android8hardware4gnss4V2_116IGnssMeasurement8castFromERKNS_2spINS_4hidl4base4V1_05IBaseEEEb"
  },
  {
   "name" : "_ZN7android8hardware4gnss4V2_116IGnssMeasurement8castFromERKNS_2spIS3_EEb"
  },
  {
   "name" : "_ZN7android8hardware4gnss4V2_117BsGnssAntennaInfo13addOnewayTaskENSt3__18functionIFvvEEE"
  },
  {
   "name" : "_ZN7android8hardware4gnss4V2_117BsGnssAntennaInfoC1ENS_2spINS2_16IGnssAntennaInfoEEE"
  },
  {
   "name" : "_ZN7android8hardware4gnss4V2_117BsGnssAntennaInfoC2ENS_2spINS2_16IGnssAntennaInfoEEE"
  },
  {
   "name" : "_ZN7android8hardware4gnss4V2_117BsGnssMeasurement13addOnewayTaskENSt3__18functionIFvvEEE"
  },
  {
   "name" : "_ZN7android8hardware4gnss4V2_117BsGnssMeasurementC1ENS_2spINS2_16IGnssMeasurementEEE"
  },
  {
   "name" : "_ZN7android8hardware4gnss4V2_117BsGnssMeasurementC2ENS_2spINS2_16IGnssMeasurementEEE"
  },
  {
   "name" : "_ZN7android8hardware4gnss4V2_118IGnssConfiguration10getServiceERKNSt3__112basic_stringIcNS4_11char_traitsIcEENS4_9allocatorIcEEEEb"
  },
  {
   "name" : "_ZN7android8hardware4gnss4V2_118IGnssConfiguration11linkToDeathERKNS_2spINS0_20hidl_death_recipientEEEm"
  },
  {
   "name" : "_ZN7android8hardware4gnss4V2_118IGnssConfiguration12getDebugInfoENSt3__18functionIFvRKNS_4hidl4base4V1_09DebugInfoEEEE"
  },
  {
   "name" : "_ZN7android8hardware4gnss4V2_118IGnssConfiguration12getHashChainENSt3__18functionIFvRKNS0_8hidl_vecINS0_10hidl_arrayIhLm32EJEEEEEEEE"
  },
  {
   "name" : "_ZN7android8hardware4gnss4V2_118IGnssConfiguration13tryGetServiceERKNSt3__112basic_stringIcNS4_11char_traitsIcEENS4_9allocatorIcEEEEb"
  },
  {
   "name" : "_ZN7android8hardware4gnss4V2_118IGnssConfiguration13unlinkToDeathERKNS_2spINS0_20hidl_death_recipientEEE"
  },
  {
   "name" : "_ZN7android8hardware4gnss4V2_118IGnssConfiguration14interfaceChainENSt3__18functionIFvRKNS0_8hidl_vecINS0_11hidl_stringEEEEEE"
  },
  {
   "name" : "_ZN7android8hardware4gnss4V2_118IGnssConfiguration17registerAsServiceERKNSt3__112basic_stringIcNS4_11char_traitsIcEENS4_9allocatorIcEEEE"
  },
  {
   "name" : "_ZN7android8hardware4gnss4V2_118IGnssConfiguration19interfaceDescriptorENSt3__18functionIFvRKNS0_11hidl_stringEEEE"
  },
  {
   "name" : "_ZN7android8hardware4gnss4V2_118IGnssConfiguration21notifySyspropsChangedEv"
  },
  {
   "name" : "_ZN7android8hardware4gnss4V2_118IGnssConfiguration21setHALInstrumentationEv"
  },
  {
   "name" : "_ZN7android8hardware4gnss4V2_118IGnssConfiguration24registerForNotificationsERKNSt3__112basic_stringIcNS4_11char_traitsIcEENS4_9allocatorIcEEEERKNS_2spINS_4hidl7manager4V1_020IServiceNotificationEEE"
  },
  {
   "name" : "_ZN7android8hardware4gnss4V2_118IGnssConfiguration4pingEv"
  },
  {
   "name" : "_ZN7android8hardware4gnss4V2_118IGnssConfiguration5debugERKNS0_11hidl_handleERKNS0_8hidl_vecINS0_11hidl_stringEEE"
  },
  {
   "name" : "_ZN7android8hardware4gnss4V2_118IGnssConfiguration8castFromERKNS_2spINS1_4V1_018IGnssConfigurationEEEb"
  },
  {
   "name" : "_ZN7android8hardware4gnss4V2_118IGnssConfiguration8castFromERKNS_2spINS1_4V1_118IGnssConfigurationEEEb"
  },
  {
   "name" : "_ZN7android8hardware4gnss4V2_118IGnssConfiguration8castFromERKNS_2spINS1_4V2_018IGnssConfigurationEEEb"
  },
  {
   "name" : "_ZN7android8hardware4gnss4V2_118IGnssConfiguration8castFromERKNS_2spINS_4hidl4base4V1_05IBaseEEEb"
  },
  {
   "name" : "_ZN7android8hardware4gnss4V2_118IGnssConfiguration8castFromERKNS_2spIS3_EEb"
  },
  {
   "name" : "_ZN7android8hardware4gnss4V2_119BnHwGnssAntennaInfo10onTransactEjRKNS0_6ParcelEPS4_jNSt3__18functionIFvRS4_EEE"
  },
  {
   "name" : "_ZN7android8hardware4gnss4V2_119BnHwGnssAntennaInfo11_hidl_closeEPNS_4hidl4base4V1_08BnHwBaseERKNS0_6ParcelEPS9_NSt3__18functionIFvRS9_EEE"
  },
  {
   "name" : "_ZN7android8hardware4gnss4V2_119BnHwGnssAntennaInfo12getDebugInfoENSt3__18functionIFvRKNS_4hidl4base4V1_09DebugInfoEEEE"
  },
  {
   "name" : "_ZN7android8hardware4gnss4V2_119BnHwGnssAntennaInfo17_hidl_setCallbackEPNS_4hidl4base4V1_08BnHwBaseERKNS0_6ParcelEPS9_NSt3__18functionIFvRS9_EEE"
  },
  {
   "name" : "_ZN7android8hardware4gnss4V2_119BnHwGnssAntennaInfo4pingEv"
  },
  {
   "name" : "_ZN7android8hardware4gnss4V2_119BnHwGnssAntennaInfoC1ERKNS_2spINS2_16IGnssAntennaInfoEEE"
  },
  {
   "name" : "_ZN7android8hardware4gnss4V2_119BnHwGnssAntennaInfoC2ERKNS_2spINS2_16IGnssAntennaInfoEEE"
  },
  {
   "name" : "_ZN7android8hardware4gnss4V2_119BnHwGnssAntennaInfoD0Ev"
  },
  {
   "name" : "_ZN7android8hardware4gnss4V2_119BnHwGnssAntennaInfoD1Ev"
  },
  {
   "name" : "_ZN7android8hardware4gnss4V2_119BnHwGnssAntennaInfoD2Ev"
  },
  {
   "name" : "_ZN7android8hardware4gnss4V2_119BnHwGnssMeasurement10onTransactEjRKNS0_6ParcelEPS4_jNSt3__18functionIFvRS4_EEE"
  },
  {
   "name" : "_ZN7android8hardware4gnss4V2_119BnHwGnssMeasurement12getDebugInfoENSt3__18functionIFvRKNS_4hidl4base4V1_09DebugInfoEEEE"
  },
  {
   "name" : "_ZN7android8hardware4gnss4V2_119BnHwGnssMeasurement21_hidl_setCallback_2_1EPNS_4hidl4base4V1_08BnHwBaseERKNS0_6ParcelEPS9_NSt3__18functionIFvRS9_EEE"
  },
  {
   "name" : "_ZN7android8hardware4gnss4V2_119BnHwGnssMeasurement4pingEv"
  },
  {
   "name" : "_ZN7android8hardware4gnss4V2_119BnHwGnssMeasurementC1ERKNS_2spINS2_16IGnssMeasurementEEE"
  },
  {
   "name" : "_ZN7android8hardware4gnss4V2_119BnHwGnssMeasurementC2ERKNS_2spINS2_16IGnssMeasurementEEE"
  },
  {
   "name" : "_ZN7android8hardware4gnss4V2_119BnHwGnssMeasurementD0Ev"
  },
  {
   "name" : "_ZN7android8hardware4gnss4V2_119BnHwGnssMeasurementD1Ev"
  },
  {
   "name" : "_ZN7android8hardware4gnss4V2_119BnHwGnssMeasurementD2Ev"
  },
  {
   "name" : "_ZN7android8hardware4gnss4V2_119BpHwGnssAntennaInfo11_hidl_closeEPNS0_10IInterfaceEPNS0_7details16HidlInstrumentorE"
  },
  {
   "name" : "_ZN7android8hardware4gnss4V2_119BpHwGnssAntennaInfo11linkToDeathERKNS_2spINS0_20hidl_death_recipientEEEm"
  },
  {
   "name" : "_ZN7android8hardware4gnss4V2_119BpHwGnssAntennaInfo11setCallbackERKNS_2spINS2_24IGnssAntennaInfoCallbackEEE"
  },
  {
   "name" : "_ZN7android8hardware4gnss4V2_119BpHwGnssAntennaInfo12getDebugInfoENSt3__18functionIFvRKNS_4hidl4base4V1_09DebugInfoEEEE"
  },
  {
   "name" : "_ZN7android8hardware4gnss4V2_119BpHwGnssAntennaInfo12getHashChainENSt3__18functionIFvRKNS0_8hidl_vecINS0_10hidl_arrayIhLm32EJEEEEEEEE"
  },
  {
   "name" : "_ZN7android8hardware4gnss4V2_119BpHwGnssAntennaInfo13unlinkToDeathERKNS_2spINS0_20hidl_death_recipientEEE"
  },
  {
   "name" : "_ZN7android8hardware4gnss4V2_119BpHwGnssAntennaInfo14interfaceChainENSt3__18functionIFvRKNS0_8hidl_vecINS0_11hidl_stringEEEEEE"
  },
  {
   "name" : "_ZN7android8hardware4gnss4V2_119BpHwGnssAntennaInfo15onLastStrongRefEPKv"
  },
  {
   "name" : "_ZN7android8hardware4gnss4V2_119BpHwGnssAntennaInfo17_hidl_setCallbackEPNS0_10IInterfaceEPNS0_7details16HidlInstrumentorERKNS_2spINS2_24IGnssAntennaInfoCallbackEEE"
  },
  {
   "name" : "_ZN7android8hardware4gnss4V2_119BpHwGnssAntennaInfo19interfaceDescriptorENSt3__18functionIFvRKNS0_11hidl_stringEEEE"
  },
  {
   "name" : "_ZN7android8hardware4gnss4V2_119BpHwGnssAntennaInfo21notifySyspropsChangedEv"
  },
  {
   "name" : "_ZN7android8hardware4gnss4V2_119BpHwGnssAntennaInfo21setHALInstrumentationEv"
  },
  {
   "name" : "_ZN7android8hardware4gnss4V2_119BpHwGnssAntennaInfo4pingEv"
  },
  {
   "name" : "_ZN7android8hardware4gnss4V2_119BpHwGnssAntennaInfo5closeEv"
  },
  {
   "name" : "_ZN7android8hardware4gnss4V2_119BpHwGnssAntennaInfo5debugERKNS0_11hidl_handleERKNS0_8hidl_vecINS0_11hidl_stringEEE"
  },
  {
   "name" : "_ZN7android8hardware4gnss4V2_119BpHwGnssAntennaInfoC1ERKNS_2spINS0_7IBinderEEE"
  },
  {
   "name" : "_ZN7android8hardware4gnss4V2_119BpHwGnssAntennaInfoC2ERKNS_2spINS0_7IBinderEEE"
  },
  {
   "name" : "_ZN7android8hardware4gnss4V2_119BpHwGnssMeasurement11linkToDeathERKNS_2spINS0_20hidl_death_recipientEEEm"
  },
  {
   "name" : "_ZN7android8hardware4gnss4V2_119BpHwGnssMeasurement11setCallbackERKNS_2spINS1_4V1_024IGnssMeasurementCallbackEEE"
  },
  {
   "name" : "_ZN7android8hardware4gnss4V2_119BpHwGnssMeasurement12getDebugInfoENSt3__18functionIFvRKNS_4hidl4base4V1_09DebugInfoEEEE"
  },
  {
   "name" : "_ZN7android8hardware4gnss4V2_119BpHwGnssMeasurement12getHashChainENSt3__18functionIFvRKNS0_8hidl_vecINS0_10hidl_arrayIhLm32EJEEEEEEEE"
  },
  {
   "name" : "_ZN7android8hardware4gnss4V2_119BpHwGnssMeasurement13unlinkToDeathERKNS_2spINS0_20hidl_death_recipientEEE"
  },
  {
   "name" : "_ZN7android8hardware4gnss4V2_119BpHwGnssMeasurement14interfaceChainENSt3__18functionIFvRKNS0_8hidl_vecINS0_11hidl_stringEEEEEE"
  },
  {
   "name" : "_ZN7android8hardware4gnss4V2_119BpHwGnssMeasurement15onLastStrongRefEPKv"
  },
  {
   "name" : "_ZN7android8hardware4gnss4V2_119BpHwGnssMeasurement15setCallback_1_1ERKNS_2spINS1_4V1_124IGnssMeasurementCallbackEEEb"
  },
  {
   "name" : "_ZN7android8hardware4gnss4V2_119BpHwGnssMeasurement15setCallback_2_0ERKNS_2spINS1_4V2_024IGnssMeasurementCallbackEEEb"
  },
  {
   "name" : "_ZN7android8hardware4gnss4V2_119BpHwGnssMeasurement15setCallback_2_1ERKNS_2spINS2_24IGnssMeasurementCallbackEEEb"
  },
  {
   "name" : "_ZN7android8hardware4gnss4V2_119BpHwGnssMeasurement19interfaceDescriptorENSt3__18functionIFvRKNS0_11hidl_stringEEEE"
  },
  {
   "name" : "_ZN7android8hardware4gnss4V2_119BpHwGnssMeasurement21_hidl_setCallback_2_1EPNS0_10IInterfaceEPNS0_7details16HidlInstrumentorERKNS_2spINS2_24IGnssMeasurementCallbackEEEb"
  },
  {
   "name" : "_ZN7android8hardware4gnss4V2_119BpHwGnssMeasurement21notifySyspropsChangedEv"
  },
  {
   "name" : "_ZN7android8hardware4gnss4V2_119BpHwGnssMeasurement21setHALInstrumentationEv"
  },
  {
   "name" : "_ZN7android8hardware4gnss4V2_119BpHwGnssMeasurement4pingEv"
  },
  {
   "name" : "_ZN7android8hardware4gnss4V2_119BpHwGnssMeasurement5closeEv"
  },
  {
   "name" : "_ZN7android8hardware4gnss4V2_119BpHwGnssMeasurement5debugERKNS0_11hidl_handleERKNS0_8hidl_vecINS0_11hidl_stringEEE"
  },
  {
   "name" : "_ZN7android8hardware4gnss4V2_119BpHwGnssMeasurementC1ERKNS_2spINS0_7IBinderEEE"
  },
  {
   "name" : "_ZN7android8hardware4gnss4V2_119BpHwGnssMeasurementC2ERKNS_2spINS0_7IBinderEEE"
  },
  {
   "name" : "_ZN7android8hardware4gnss4V2_119BsGnssConfiguration13addOnewayTaskENSt3__18functionIFvvEEE"
  },
  {
   "name" : "_ZN7android8hardware4gnss4V2_119BsGnssConfigurationC1ENS_2spINS2_18IGnssConfigurationEEE"
  },
  {
   "name" : "_ZN7android8hardware4gnss4V2_119BsGnssConfigurationC2ENS_2spINS2_18IGnssConfigurationEEE"
  },
  {
   "name" : "_ZN7android8hardware4gnss4V2_121BnHwGnssConfiguration10onTransactEjRKNS0_6ParcelEPS4_jNSt3__18functionIFvRS4_EEE"
  },
  {
   "name" : "_ZN7android8hardware4gnss4V2_121BnHwGnssConfiguration12getDebugInfoENSt3__18functionIFvRKNS_4hidl4base4V1_09DebugInfoEEEE"
  },
  {
   "name" : "_ZN7android8hardware4gnss4V2_121BnHwGnssConfiguration22_hidl_setBlacklist_2_1EPNS_4hidl4base4V1_08BnHwBaseERKNS0_6ParcelEPS9_NSt3__18functionIFvRS9_EEE"
  },
  {
   "name" : "_ZN7android8hardware4gnss4V2_121BnHwGnssConfiguration4pingEv"
  },
  {
   "name" : "_ZN7android8hardware4gnss4V2_121BnHwGnssConfigurationC1ERKNS_2spINS2_18IGnssConfigurationEEE"
  },
  {
   "name" : "_ZN7android8hardware4gnss4V2_121BnHwGnssConfigurationC2ERKNS_2spINS2_18IGnssConfigurationEEE"
  },
  {
   "name" : "_ZN7android8hardware4gnss4V2_121BnHwGnssConfigurationD0Ev"
  },
  {
   "name" : "_ZN7android8hardware4gnss4V2_121BnHwGnssConfigurationD1Ev"
  },
  {
   "name" : "_ZN7android8hardware4gnss4V2_121BnHwGnssConfigurationD2Ev"
  },
  {
   "name" : "_ZN7android8hardware4gnss4V2_121BpHwGnssConfiguration10setGpsLockEh"
  },
  {
   "name" : "_ZN7android8hardware4gnss4V2_121BpHwGnssConfiguration11linkToDeathERKNS_2spINS0_20hidl_death_recipientEEEm"
  },
  {
   "name" : "_ZN7android8hardware4gnss4V2_121BpHwGnssConfiguration11setSuplModeEh"
  },
  {
   "name" : "_ZN7android8hardware4gnss4V2_121BpHwGnssConfiguration12getDebugInfoENSt3__18functionIFvRKNS_4hidl4base4V1_09DebugInfoEEEE"
  },
  {
   "name" : "_ZN7android8hardware4gnss4V2_121BpHwGnssConfiguration12getHashChainENSt3__18functionIFvRKNS0_8hidl_vecINS0_10hidl_arrayIhLm32EJEEEEEEEE"
  },
  {
   "name" : "_ZN7android8hardware4gnss4V2_121BpHwGnssConfiguration12setBlacklistERKNS0_8hidl_vecINS1_4V1_118IGnssConfiguration17BlacklistedSourceEEE"
  },
  {
   "name" : "_ZN7android8hardware4gnss4V2_121BpHwGnssConfiguration13setLppProfileEh"
  },
  {
   "name" : "_ZN7android8hardware4gnss4V2_121BpHwGnssConfiguration13unlinkToDeathERKNS_2spINS0_20hidl_death_recipientEEE"
  },
  {
   "name" : "_ZN7android8hardware4gnss4V2_121BpHwGnssConfiguration14interfaceChainENSt3__18functionIFvRKNS0_8hidl_vecINS0_11hidl_stringEEEEEE"
  },
  {
   "name" : "_ZN7android8hardware4gnss4V2_121BpHwGnssConfiguration14setSuplVersionEj"
  },
  {
   "name" : "_ZN7android8hardware4gnss4V2_121BpHwGnssConfiguration15onLastStrongRefEPKv"
  },
  {
   "name" : "_ZN7android8hardware4gnss4V2_121BpHwGnssConfiguration16setBlacklist_2_1ERKNS0_8hidl_vecINS2_18IGnssConfiguration17BlacklistedSourceEEE"
  },
  {
   "name" : "_ZN7android8hardware4gnss4V2_121BpHwGnssConfiguration17setEsExtensionSecEj"
  },
  {
   "name" : "_ZN7android8hardware4gnss4V2_121BpHwGnssConfiguration19interfaceDescriptorENSt3__18functionIFvRKNS0_11hidl_stringEEEE"
  },
  {
   "name" : "_ZN7android8hardware4gnss4V2_121BpHwGnssConfiguration19setEmergencySuplPdnEb"
  },
  {
   "name" : "_ZN7android8hardware4gnss4V2_121BpHwGnssConfiguration21notifySyspropsChangedEv"
  },
  {
   "name" : "_ZN7android8hardware4gnss4V2_121BpHwGnssConfiguration21setHALInstrumentationEv"
  },
  {
   "name" : "_ZN7android8hardware4gnss4V2_121BpHwGnssConfiguration22_hidl_setBlacklist_2_1EPNS0_10IInterfaceEPNS0_7details16HidlInstrumentorERKNS0_8hidl_vecINS2_18IGnssConfiguration17BlacklistedSourceEEE"
  },
  {
   "name" : "_ZN7android8hardware4gnss4V2_121BpHwGnssConfiguration29setGlonassPositioningProtocolEh"
  },
  {
   "name" : "_ZN7android8hardware4gnss4V2_121BpHwGnssConfiguration4pingEv"
  },
  {
   "name" : "_ZN7android8hardware4gnss4V2_121BpHwGnssConfiguration5debugERKNS0_11hidl_handleERKNS0_8hidl_vecINS0_11hidl_stringEEE"
  },
  {
   "name" : "_ZN7android8hardware4gnss4V2_121BpHwGnssConfiguration9setSuplEsEb"
  },
  {
   "name" : "_ZN7android8hardware4gnss4V2_121BpHwGnssConfigurationC1ERKNS_2spINS0_7IBinderEEE"
  },
  {
   "name" : "_ZN7android8hardware4gnss4V2_121BpHwGnssConfigurationC2ERKNS_2spINS0_7IBinderEEE"
  },
  {
   "name" : "_ZN7android8hardware4gnss4V2_121writeEmbeddedToParcelERKNS2_14GnssSignalTypeEPNS0_6ParcelEmm"
  },
  {
   "name" : "_ZN7android8hardware4gnss4V2_121writeEmbeddedToParcelERKNS2_24IGnssAntennaInfoCallback15GnssAntennaInfoEPNS0_6ParcelEmm"
  },
  {
   "name" : "_ZN7android8hardware4gnss4V2_121writeEmbeddedToParcelERKNS2_24IGnssAntennaInfoCallback3RowEPNS0_6ParcelEmm"
  },
  {
   "name" : "_ZN7android8hardware4gnss4V2_121writeEmbeddedToParcelERKNS2_24IGnssMeasurementCallback15GnssMeasurementEPNS0_6ParcelEmm"
  },
  {
   "name" : "_ZN7android8hardware4gnss4V2_121writeEmbeddedToParcelERKNS2_24IGnssMeasurementCallback8GnssDataEPNS0_6ParcelEmm"
  },
  {
   "name" : "_ZN7android8hardware4gnss4V2_121writeEmbeddedToParcelERKNS2_24IGnssMeasurementCallback9GnssClockEPNS0_6ParcelEmm"
  },
  {
   "name" : "_ZN7android8hardware4gnss4V2_122readEmbeddedFromParcelERKNS2_14GnssSignalTypeERKNS0_6ParcelEmm"
  },
  {
   "name" : "_ZN7android8hardware4gnss4V2_122readEmbeddedFromParcelERKNS2_24IGnssAntennaInfoCallback15GnssAntennaInfoERKNS0_6ParcelEmm"
  },
  {
   "name" : "_ZN7android8hardware4gnss4V2_122readEmbeddedFromParcelERKNS2_24IGnssAntennaInfoCallback3RowERKNS0_6ParcelEmm"
  },
  {
   "name" : "_ZN7android8hardware4gnss4V2_122readEmbeddedFromParcelERKNS2_24IGnssMeasurementCallback15GnssMeasurementERKNS0_6ParcelEmm"
  },
  {
   "name" : "_ZN7android8hardware4gnss4V2_122readEmbeddedFromParcelERKNS2_24IGnssMeasurementCallback8GnssDataERKNS0_6ParcelEmm"
  },
  {
   "name" : "_ZN7android8hardware4gnss4V2_122readEmbeddedFromParcelERKNS2_24IGnssMeasurementCallback9GnssClockERKNS0_6ParcelEmm"
  },
  {
   "name" : "_ZN7android8hardware4gnss4V2_124IGnssAntennaInfoCallback10getServiceERKNSt3__112basic_stringIcNS4_11char_traitsIcEENS4_9allocatorIcEEEEb"
  },
  {
   "name" : "_ZN7android8hardware4gnss4V2_124IGnssAntennaInfoCallback11linkToDeathERKNS_2spINS0_20hidl_death_recipientEEEm"
  },
  {
   "name" : "_ZN7android8hardware4gnss4V2_124IGnssAntennaInfoCallback12getDebugInfoENSt3__18functionIFvRKNS_4hidl4base4V1_09DebugInfoEEEE"
  },
  {
   "name" : "_ZN7android8hardware4gnss4V2_124IGnssAntennaInfoCallback12getHashChainENSt3__18functionIFvRKNS0_8hidl_vecINS0_10hidl_arrayIhLm32EJEEEEEEEE"
  },
  {
   "name" : "_ZN7android8hardware4gnss4V2_124IGnssAntennaInfoCallback13tryGetServiceERKNSt3__112basic_stringIcNS4_11char_traitsIcEENS4_9allocatorIcEEEEb"
  },
  {
   "name" : "_ZN7android8hardware4gnss4V2_124IGnssAntennaInfoCallback13unlinkToDeathERKNS_2spINS0_20hidl_death_recipientEEE"
  },
  {
   "name" : "_ZN7android8hardware4gnss4V2_124IGnssAntennaInfoCallback14interfaceChainENSt3__18functionIFvRKNS0_8hidl_vecINS0_11hidl_stringEEEEEE"
  },
  {
   "name" : "_ZN7android8hardware4gnss4V2_124IGnssAntennaInfoCallback17registerAsServiceERKNSt3__112basic_stringIcNS4_11char_traitsIcEENS4_9allocatorIcEEEE"
  },
  {
   "name" : "_ZN7android8hardware4gnss4V2_124IGnssAntennaInfoCallback19interfaceDescriptorENSt3__18functionIFvRKNS0_11hidl_stringEEEE"
  },
  {
   "name" : "_ZN7android8hardware4gnss4V2_124IGnssAntennaInfoCallback21notifySyspropsChangedEv"
  },
  {
   "name" : "_ZN7android8hardware4gnss4V2_124IGnssAntennaInfoCallback21setHALInstrumentationEv"
  },
  {
   "name" : "_ZN7android8hardware4gnss4V2_124IGnssAntennaInfoCallback24registerForNotificationsERKNSt3__112basic_stringIcNS4_11char_traitsIcEENS4_9allocatorIcEEEERKNS_2spINS_4hidl7manager4V1_020IServiceNotificationEEE"
  },
  {
   "name" : "_ZN7android8hardware4gnss4V2_124IGnssAntennaInfoCallback4pingEv"
  },
  {
   "name" : "_ZN7android8hardware4gnss4V2_124IGnssAntennaInfoCallback5debugERKNS0_11hidl_handleERKNS0_8hidl_vecINS0_11hidl_stringEEE"
  },
  {
   "name" : "_ZN7android8hardware4gnss4V2_124IGnssAntennaInfoCallback8castFromERKNS_2spINS_4hidl4base4V1_05IBaseEEEb"
  },
  {
   "name" : "_ZN7android8hardware4gnss4V2_124IGnssAntennaInfoCallback8castFromERKNS_2spIS3_EEb"
  },
  {
   "name" : "_ZN7android8hardware4gnss4V2_124IGnssMeasurementCallback10getServiceERKNSt3__112basic_stringIcNS4_11char_traitsIcEENS4_9allocatorIcEEEEb"
  },
  {
   "name" : "_ZN7android8hardware4gnss4V2_124IGnssMeasurementCallback11linkToDeathERKNS_2spINS0_20hidl_death_recipientEEEm"
  },
  {
   "name" : "_ZN7android8hardware4gnss4V2_124IGnssMeasurementCallback12getDebugInfoENSt3__18functionIFvRKNS_4hidl4base4V1_09DebugInfoEEEE"
  },
  {
   "name" : "_ZN7android8hardware4gnss4V2_124IGnssMeasurementCallback12getHashChainENSt3__18functionIFvRKNS0_8hidl_vecINS0_10hidl_arrayIhLm32EJEEEEEEEE"
  },
  {
   "name" : "_ZN7android8hardware4gnss4V2_124IGnssMeasurementCallback13tryGetServiceERKNSt3__112basic_stringIcNS4_11char_traitsIcEENS4_9allocatorIcEEEEb"
  },
  {
   "name" : "_ZN7android8hardware4gnss4V2_124IGnssMeasurementCallback13unlinkToDeathERKNS_2spINS0_20hidl_death_recipientEEE"
  },
  {
   "name" : "_ZN7android8hardware4gnss4V2_124IGnssMeasurementCallback14interfaceChainENSt3__18functionIFvRKNS0_8hidl_vecINS0_11hidl_stringEEEEEE"
  },
  {
   "name" : "_ZN7android8hardware4gnss4V2_124IGnssMeasurementCallback17registerAsServiceERKNSt3__112basic_stringIcNS4_11char_traitsIcEENS4_9allocatorIcEEEE"
  },
  {
   "name" : "_ZN7android8hardware4gnss4V2_124IGnssMeasurementCallback19interfaceDescriptorENSt3__18functionIFvRKNS0_11hidl_stringEEEE"
  },
  {
   "name" : "_ZN7android8hardware4gnss4V2_124IGnssMeasurementCallback21notifySyspropsChangedEv"
  },
  {
   "name" : "_ZN7android8hardware4gnss4V2_124IGnssMeasurementCallback21setHALInstrumentationEv"
  },
  {
   "name" : "_ZN7android8hardware4gnss4V2_124IGnssMeasurementCallback24registerForNotificationsERKNSt3__112basic_stringIcNS4_11char_traitsIcEENS4_9allocatorIcEEEERKNS_2spINS_4hidl7manager4V1_020IServiceNotificationEEE"
  },
  {
   "name" : "_ZN7android8hardware4gnss4V2_124IGnssMeasurementCallback4pingEv"
  },
  {
   "name" : "_ZN7android8hardware4gnss4V2_124IGnssMeasurementCallback5debugERKNS0_11hidl_handleERKNS0_8hidl_vecINS0_11hidl_stringEEE"
  },
  {
   "name" : "_ZN7android8hardware4gnss4V2_124IGnssMeasurementCallback8castFromERKNS_2spINS1_4V1_024IGnssMeasurementCallbackEEEb"
  },
  {
   "name" : "_ZN7android8hardware4gnss4V2_124IGnssMeasurementCallback8castFromERKNS_2spINS1_4V1_124IGnssMeasurementCallbackEEEb"
  },
  {
   "name" : "_ZN7android8hardware4gnss4V2_124IGnssMeasurementCallback8castFromERKNS_2spINS1_4V2_024IGnssMeasurementCallbackEEEb"
  },
  {
   "name" : "_ZN7android8hardware4gnss4V2_124IGnssMeasurementCallback8castFromERKNS_2spINS_4hidl4base4V1_05IBaseEEEb"
  },
  {
   "name" : "_ZN7android8hardware4gnss4V2_124IGnssMeasurementCallback8castFromERKNS_2spIS3_EEb"
  },
  {
   "name" : "_ZN7android8hardware4gnss4V2_125BsGnssAntennaInfoCallback13addOnewayTaskENSt3__18functionIFvvEEE"
  },
  {
   "name" : "_ZN7android8hardware4gnss4V2_125BsGnssAntennaInfoCallbackC1ENS_2spINS2_24IGnssAntennaInfoCallbackEEE"
  },
  {
   "name" : "_ZN7android8hardware4gnss4V2_125BsGnssAntennaInfoCallbackC2ENS_2spINS2_24IGnssAntennaInfoCallbackEEE"
  },
  {
   "name" : "_ZN7android8hardware4gnss4V2_125BsGnssMeasurementCallback13addOnewayTaskENSt3__18functionIFvvEEE"
  },
  {
   "name" : "_ZN7android8hardware4gnss4V2_125BsGnssMeasurementCallbackC1ENS_2spINS2_24IGnssMeasurementCallbackEEE"
  },
  {
   "name" : "_ZN7android8hardware4gnss4V2_125BsGnssMeasurementCallbackC2ENS_2spINS2_24IGnssMeasurementCallbackEEE"
  },
  {
   "name" : "_ZN7android8hardware4gnss4V2_127BnHwGnssAntennaInfoCallback10onTransactEjRKNS0_6ParcelEPS4_jNSt3__18functionIFvRS4_EEE"
  },
  {
   "name" : "_ZN7android8hardware4gnss4V2_127BnHwGnssAntennaInfoCallback12getDebugInfoENSt3__18functionIFvRKNS_4hidl4base4V1_09DebugInfoEEEE"
  },
  {
   "name" : "_ZN7android8hardware4gnss4V2_127BnHwGnssAntennaInfoCallback23_hidl_gnssAntennaInfoCbEPNS_4hidl4base4V1_08BnHwBaseERKNS0_6ParcelEPS9_NSt3__18functionIFvRS9_EEE"
  },
  {
   "name" : "_ZN7android8hardware4gnss4V2_127BnHwGnssAntennaInfoCallback4pingEv"
  },
  {
   "name" : "_ZN7android8hardware4gnss4V2_127BnHwGnssAntennaInfoCallbackC1ERKNS_2spINS2_24IGnssAntennaInfoCallbackEEE"
  },
  {
   "name" : "_ZN7android8hardware4gnss4V2_127BnHwGnssAntennaInfoCallbackC2ERKNS_2spINS2_24IGnssAntennaInfoCallbackEEE"
  },
  {
   "name" : "_ZN7android8hardware4gnss4V2_127BnHwGnssAntennaInfoCallbackD0Ev"
  },
  {
   "name" : "_ZN7android8hardware4gnss4V2_127BnHwGnssAntennaInfoCallbackD1Ev"
  },
  {
   "name" : "_ZN7android8hardware4gnss4V2_127BnHwGnssAntennaInfoCallbackD2Ev"
  },
  {
   "name" : "_ZN7android8hardware4gnss4V2_127BnHwGnssMeasurementCallback10onTransactEjRKNS0_6ParcelEPS4_jNSt3__18functionIFvRS4_EEE"
  },
  {
   "name" : "_ZN7android8hardware4gnss4V2_127BnHwGnssMeasurementCallback12getDebugInfoENSt3__18functionIFvRKNS_4hidl4base4V1_09DebugInfoEEEE"
  },
  {
   "name" : "_ZN7android8hardware4gnss4V2_127BnHwGnssMeasurementCallback27_hidl_gnssMeasurementCb_2_1EPNS_4hidl4base4V1_08BnHwBaseERKNS0_6ParcelEPS9_NSt3__18functionIFvRS9_EEE"
  },
  {
   "name" : "_ZN7android8hardware4gnss4V2_127BnHwGnssMeasurementCallback4pingEv"
  },
  {
   "name" : "_ZN7android8hardware4gnss4V2_127BnHwGnssMeasurementCallbackC1ERKNS_2spINS2_24IGnssMeasurementCallbackEEE"
  },
  {
   "name" : "_ZN7android8hardware4gnss4V2_127BnHwGnssMeasurementCallbackC2ERKNS_2spINS2_24IGnssMeasurementCallbackEEE"
  },
  {
   "name" : "_ZN7android8hardware4gnss4V2_127BnHwGnssMeasurementCallbackD0Ev"
  },
  {
   "name" : "_ZN7android8hardware4gnss4V2_127BnHwGnssMeasurementCallbackD1Ev"
  },
  {
   "name" : "_ZN7android8hardware4gnss4V2_127BnHwGnssMeasurementCallbackD2Ev"
  },
  {
   "name" : "_ZN7android8hardware4gnss4V2_127BpHwGnssAntennaInfoCallback11linkToDeathERKNS_2spINS0_20hidl_death_recipientEEEm"
  },
  {
   "name" : "_ZN7android8hardware4gnss4V2_127BpHwGnssAntennaInfoCallback12getDebugInfoENSt3__18functionIFvRKNS_4hidl4base4V1_09DebugInfoEEEE"
  },
  {
   "name" : "_ZN7android8hardware4gnss4V2_127BpHwGnssAntennaInfoCallback12getHashChainENSt3__18functionIFvRKNS0_8hidl_vecINS0_10hidl_arrayIhLm32EJEEEEEEEE"
  },
  {
   "name" : "_ZN7android8hardware4gnss4V2_127BpHwGnssAntennaInfoCallback13unlinkToDeathERKNS_2spINS0_20hidl_death_recipientEEE"
  },
  {
   "name" : "_ZN7android8hardware4gnss4V2_127BpHwGnssAntennaInfoCallback14interfaceChainENSt3__18functionIFvRKNS0_8hidl_vecINS0_11hidl_stringEEEEEE"
  },
  {
   "name" : "_ZN7android8hardware4gnss4V2_127BpHwGnssAntennaInfoCallback15onLastStrongRefEPKv"
  },
  {
   "name" : "_ZN7android8hardware4gnss4V2_127BpHwGnssAntennaInfoCallback17gnssAntennaInfoCbERKNS0_8hidl_vecINS2_24IGnssAntennaInfoCallback15GnssAntennaInfoEEE"
  },
  {
   "name" : "_ZN7android8hardware4gnss4V2_127BpHwGnssAntennaInfoCallback19interfaceDescriptorENSt3__18functionIFvRKNS0_11hidl_stringEEEE"
  },
  {
   "name" : "_ZN7android8hardware4gnss4V2_127BpHwGnssAntennaInfoCallback21notifySyspropsChangedEv"
  },
  {
   "name" : "_ZN7android8hardware4gnss4V2_127BpHwGnssAntennaInfoCallback21setHALInstrumentationEv"
  },
  {
   "name" : "_ZN7android8hardware4gnss4V2_127BpHwGnssAntennaInfoCallback23_hidl_gnssAntennaInfoCbEPNS0_10IInterfaceEPNS0_7details16HidlInstrumentorERKNS0_8hidl_vecINS2_24IGnssAntennaInfoCallback15GnssAntennaInfoEEE"
  },
  {
   "name" : "_ZN7android8hardware4gnss4V2_127BpHwGnssAntennaInfoCallback4pingEv"
  },
  {
   "name" : "_ZN7android8hardware4gnss4V2_127BpHwGnssAntennaInfoCallback5debugERKNS0_11hidl_handleERKNS0_8hidl_vecINS0_11hidl_stringEEE"
  },
  {
   "name" : "_ZN7android8hardware4gnss4V2_127BpHwGnssAntennaInfoCallbackC1ERKNS_2spINS0_7IBinderEEE"
  },
  {
   "name" : "_ZN7android8hardware4gnss4V2_127BpHwGnssAntennaInfoCallbackC2ERKNS_2spINS0_7IBinderEEE"
  },
  {
   "name" : "_ZN7android8hardware4gnss4V2_127BpHwGnssMeasurementCallback11linkToDeathERKNS_2spINS0_20hidl_death_recipientEEEm"
  },
  {
   "name" : "_ZN7android8hardware4gnss4V2_127BpHwGnssMeasurementCallback12getDebugInfoENSt3__18functionIFvRKNS_4hidl4base4V1_09DebugInfoEEEE"
  },
  {
   "name" : "_ZN7android8hardware4gnss4V2_127BpHwGnssMeasurementCallback12getHashChainENSt3__18functionIFvRKNS0_8hidl_vecINS0_10hidl_arrayIhLm32EJEEEEEEEE"
  },
  {
   "name" : "_ZN7android8hardware4gnss4V2_127BpHwGnssMeasurementCallback13unlinkToDeathERKNS_2spINS0_20hidl_death_recipientEEE"
  },
  {
   "name" : "_ZN7android8hardware4gnss4V2_127BpHwGnssMeasurementCallback14interfaceChainENSt3__18functionIFvRKNS0_8hidl_vecINS0_11hidl_stringEEEEEE"
  },
  {
   "name" : "_ZN7android8hardware4gnss4V2_127BpHwGnssMeasurementCallback15onLastStrongRefEPKv"
  },
  {
   "name" : "_ZN7android8hardware4gnss4V2_127BpHwGnssMeasurementCallback17GnssMeasurementCbERKNS1_4V1_024IGnssMeasurementCallback8GnssDataE"
  },
  {
   "name" : "_ZN7android8hardware4gnss4V2_127BpHwGnssMeasurementCallback17gnssMeasurementCbERKNS1_4V1_124IGnssMeasurementCallback8GnssDataE"
  },
  {
   "name" : "_ZN7android8hardware4gnss4V2_127BpHwGnssMeasurementCallback19interfaceDescriptorENSt3__18functionIFvRKNS0_11hidl_stringEEEE"
  },
  {
   "name" : "_ZN7android8hardware4gnss4V2_127BpHwGnssMeasurementCallback21gnssMeasurementCb_2_0ERKNS1_4V2_024IGnssMeasurementCallback8GnssDataE"
  },
  {
   "name" : "_ZN7android8hardware4gnss4V2_127BpHwGnssMeasurementCallback21gnssMeasurementCb_2_1ERKNS2_24IGnssMeasurementCallback8GnssDataE"
  },
  {
   "name" : "_ZN7android8hardware4gnss4V2_127BpHwGnssMeasurementCallback21notifySyspropsChangedEv"
  },
  {
   "name" : "_ZN7android8hardware4gnss4V2_127BpHwGnssMeasurementCallback21setHALInstrumentationEv"
  },
  {
   "name" : "_ZN7android8hardware4gnss4V2_127BpHwGnssMeasurementCallback27_hidl_gnssMeasurementCb_2_1EPNS0_10IInterfaceEPNS0_7details16HidlInstrumentorERKNS2_24IGnssMeasurementCallback8GnssDataE"
  },
  {
   "name" : "_ZN7android8hardware4gnss4V2_127BpHwGnssMeasurementCallback4pingEv"
  },
  {
   "name" : "_ZN7android8hardware4gnss4V2_127BpHwGnssMeasurementCallback5debugERKNS0_11hidl_handleERKNS0_8hidl_vecINS0_11hidl_stringEEE"
  },
  {
   "name" : "_ZN7android8hardware4gnss4V2_127BpHwGnssMeasurementCallbackC1ERKNS_2spINS0_7IBinderEEE"
  },
  {
   "name" : "_ZN7android8hardware4gnss4V2_127BpHwGnssMeasurementCallbackC2ERKNS_2spINS0_7IBinderEEE"
  },
  {
   "name" : "_ZN7android8hardware4gnss4V2_15IGnss10getServiceERKNSt3__112basic_stringIcNS4_11char_traitsIcEENS4_9allocatorIcEEEEb"
  },
  {
   "name" : "_ZN7android8hardware4gnss4V2_15IGnss11linkToDeathERKNS_2spINS0_20hidl_death_recipientEEEm"
  },
  {
   "name" : "_ZN7android8hardware4gnss4V2_15IGnss12getDebugInfoENSt3__18functionIFvRKNS_4hidl4base4V1_09DebugInfoEEEE"
  },
  {
   "name" : "_ZN7android8hardware4gnss4V2_15IGnss12getHashChainENSt3__18functionIFvRKNS0_8hidl_vecINS0_10hidl_arrayIhLm32EJEEEEEEEE"
  },
  {
   "name" : "_ZN7android8hardware4gnss4V2_15IGnss13tryGetServiceERKNSt3__112basic_stringIcNS4_11char_traitsIcEENS4_9allocatorIcEEEEb"
  },
  {
   "name" : "_ZN7android8hardware4gnss4V2_15IGnss13unlinkToDeathERKNS_2spINS0_20hidl_death_recipientEEE"
  },
  {
   "name" : "_ZN7android8hardware4gnss4V2_15IGnss14interfaceChainENSt3__18functionIFvRKNS0_8hidl_vecINS0_11hidl_stringEEEEEE"
  },
  {
   "name" : "_ZN7android8hardware4gnss4V2_15IGnss17registerAsServiceERKNSt3__112basic_stringIcNS4_11char_traitsIcEENS4_9allocatorIcEEEE"
  },
  {
   "name" : "_ZN7android8hardware4gnss4V2_15IGnss19interfaceDescriptorENSt3__18functionIFvRKNS0_11hidl_stringEEEE"
  },
  {
   "name" : "_ZN7android8hardware4gnss4V2_15IGnss21notifySyspropsChangedEv"
  },
  {
   "name" : "_ZN7android8hardware4gnss4V2_15IGnss21setHALInstrumentationEv"
  },
  {
   "name" : "_ZN7android8hardware4gnss4V2_15IGnss24registerForNotificationsERKNSt3__112basic_stringIcNS4_11char_traitsIcEENS4_9allocatorIcEEEERKNS_2spINS_4hidl7manager4V1_020IServiceNotificationEEE"
  },
  {
   "name" : "_ZN7android8hardware4gnss4V2_15IGnss4pingEv"
  },
  {
   "name" : "_ZN7android8hardware4gnss4V2_15IGnss5debugERKNS0_11hidl_handleERKNS0_8hidl_vecINS0_11hidl_stringEEE"
  },
  {
   "name" : "_ZN7android8hardware4gnss4V2_15IGnss8castFromERKNS_2spINS1_4V1_05IGnssEEEb"
  },
  {
   "name" : "_ZN7android8hardware4gnss4V2_15IGnss8castFromERKNS_2spINS1_4V1_15IGnssEEEb"
  },
  {
   "name" : "_ZN7android8hardware4gnss4V2_15IGnss8castFromERKNS_2spINS1_4V2_05IGnssEEEb"
  },
  {
   "name" : "_ZN7android8hardware4gnss4V2_15IGnss8castFromERKNS_2spINS_4hidl4base4V1_05IBaseEEEb"
  },
  {
   "name" : "_ZN7android8hardware4gnss4V2_15IGnss8castFromERKNS_2spIS3_EEb"
  },
  {
   "name" : "_ZN7android8hardware4gnss4V2_16BsGnss13addOnewayTaskENSt3__18functionIFvvEEE"
  },
  {
   "name" : "_ZN7android8hardware4gnss4V2_16BsGnssC1ENS_2spINS2_5IGnssEEE"
  },
  {
   "name" : "_ZN7android8hardware4gnss4V2_16BsGnssC2ENS_2spINS2_5IGnssEEE"
  },
  {
   "name" : "_ZN7android8hardware4gnss4V2_18BnHwGnss10onTransactEjRKNS0_6ParcelEPS4_jNSt3__18functionIFvRS4_EEE"
  },
  {
   "name" : "_ZN7android8hardware4gnss4V2_18BnHwGnss12getDebugInfoENSt3__18functionIFvRKNS_4hidl4base4V1_09DebugInfoEEEE"
  },
  {
   "name" : "_ZN7android8hardware4gnss4V2_18BnHwGnss21_hidl_setCallback_2_1EPNS_4hidl4base4V1_08BnHwBaseERKNS0_6ParcelEPS9_NSt3__18functionIFvRS9_EEE"
  },
  {
   "name" : "_ZN7android8hardware4gnss4V2_18BnHwGnss33_hidl_getExtensionGnssAntennaInfoEPNS_4hidl4base4V1_08BnHwBaseERKNS0_6ParcelEPS9_NSt3__18functionIFvRS9_EEE"
  },
  {
   "name" : "_ZN7android8hardware4gnss4V2_18BnHwGnss37_hidl_getExtensionGnssMeasurement_2_1EPNS_4hidl4base4V1_08BnHwBaseERKNS0_6ParcelEPS9_NSt3__18functionIFvRS9_EEE"
  },
  {
   "name" : "_ZN7android8hardware4gnss4V2_18BnHwGnss39_hidl_getExtensionGnssConfiguration_2_1EPNS_4hidl4base4V1_08BnHwBaseERKNS0_6ParcelEPS9_NSt3__18functionIFvRS9_EEE"
  },
  {
   "name" : "_ZN7android8hardware4gnss4V2_18BnHwGnss44_hidl_getExtensionMeasurementCorrections_1_1EPNS_4hidl4base4V1_08BnHwBaseERKNS0_6ParcelEPS9_NSt3__18functionIFvRS9_EEE"
  },
  {
   "name" : "_ZN7android8hardware4gnss4V2_18BnHwGnss4pingEv"
  },
  {
   "name" : "_ZN7android8hardware4gnss4V2_18BnHwGnssC1ERKNS_2spINS2_5IGnssEEE"
  },
  {
   "name" : "_ZN7android8hardware4gnss4V2_18BnHwGnssC2ERKNS_2spINS2_5IGnssEEE"
  },
  {
   "name" : "_ZN7android8hardware4gnss4V2_18BnHwGnssD0Ev"
  },
  {
   "name" : "_ZN7android8hardware4gnss4V2_18BnHwGnssD1Ev"
  },
  {
   "name" : "_ZN7android8hardware4gnss4V2_18BnHwGnssD2Ev"
  },
  {
   "name" : "_ZN7android8hardware4gnss4V2_18BpHwGnss10injectTimeElli"
  },
  {
   "name" : "_ZN7android8hardware4gnss4V2_18BpHwGnss11linkToDeathERKNS_2spINS0_20hidl_death_recipientEEEm"
  },
  {
   "name" : "_ZN7android8hardware4gnss4V2_18BpHwGnss11setCallbackERKNS_2spINS1_4V1_013IGnssCallbackEEE"
  },
  {
   "name" : "_ZN7android8hardware4gnss4V2_18BpHwGnss12getDebugInfoENSt3__18functionIFvRKNS_4hidl4base4V1_09DebugInfoEEEE"
  },
  {
   "name" : "_ZN7android8hardware4gnss4V2_18BpHwGnss12getHashChainENSt3__18functionIFvRKNS0_8hidl_vecINS0_10hidl_arrayIhLm32EJEEEEEEEE"
  },
  {
   "name" : "_ZN7android8hardware4gnss4V2_18BpHwGnss13unlinkToDeathERKNS_2spINS0_20hidl_death_recipientEEE"
  },
  {
   "name" : "_ZN7android8hardware4gnss4V2_18BpHwGnss14injectLocationEddf"
  },
  {
   "name" : "_ZN7android8hardware4gnss4V2_18BpHwGnss14interfaceChainENSt3__18functionIFvRKNS0_8hidl_vecINS0_11hidl_stringEEEEEE"
  },
  {
   "name" : "_ZN7android8hardware4gnss4V2_18BpHwGnss15onLastStrongRefEPKv"
  },
  {
   "name" : "_ZN7android8hardware4gnss4V2_18BpHwGnss15setCallback_1_1ERKNS_2spINS1_4V1_113IGnssCallbackEEE"
  },
  {
   "name" : "_ZN7android8hardware4gnss4V2_18BpHwGnss15setCallback_2_0ERKNS_2spINS1_4V2_013IGnssCallbackEEE"
  },
  {
   "name" : "_ZN7android8hardware4gnss4V2_18BpHwGnss15setCallback_2_1ERKNS_2spINS2_13IGnssCallbackEEE"
  },
  {
   "name" : "_ZN7android8hardware4gnss4V2_18BpHwGnss15setPositionModeENS1_4V1_05IGnss16GnssPositionModeENS5_22GnssPositionRecurrenceEjjj"
  },
  {
   "name" : "_ZN7android8hardware4gnss4V2_18BpHwGnss16deleteAidingDataENS1_4V1_05IGnss14GnssAidingDataE"
  },
  {
   "name" : "_ZN7android8hardware4gnss4V2_18BpHwGnss16getExtensionXtraEv"
  },
  {
   "name" : "_ZN7android8hardware4gnss4V2_18BpHwGnss17getExtensionAGnssEv"
  },
  {
   "name" : "_ZN7android8hardware4gnss4V2_18BpHwGnss18getExtensionGnssNiEv"
  },
  {
   "name" : "_ZN7android8hardware4gnss4V2_18BpHwGnss18injectBestLocationERKNS1_4V1_012GnssLocationE"
  },
  {
   "name" : "_ZN7android8hardware4gnss4V2_18BpHwGnss19interfaceDescriptorENSt3__18functionIFvRKNS0_11hidl_stringEEEE"
  },
  {
   "name" : "_ZN7android8hardware4gnss4V2_18BpHwGnss19setPositionMode_1_1ENS1_4V1_05IGnss16GnssPositionModeENS5_22GnssPositionRecurrenceEjjjb"
  },
  {
   "name" : "_ZN7android8hardware4gnss4V2_18BpHwGnss20getExtensionAGnssRilEv"
  },
  {
   "name" : "_ZN7android8hardware4gnss4V2_18BpHwGnss21_hidl_setCallback_2_1EPNS0_10IInterfaceEPNS0_7details16HidlInstrumentorERKNS_2spINS2_13IGnssCallbackEEE"
  },
  {
   "name" : "_ZN7android8hardware4gnss4V2_18BpHwGnss21getExtensionAGnss_2_0Ev"
  },
  {
   "name" : "_ZN7android8hardware4gnss4V2_18BpHwGnss21getExtensionGnssDebugEv"
  },
  {
   "name" : "_ZN7android8hardware4gnss4V2_18BpHwGnss21notifySyspropsChangedEv"
  },
  {
   "name" : "_ZN7android8hardware4gnss4V2_18BpHwGnss21setHALInstrumentationEv"
  },
  {
   "name" : "_ZN7android8hardware4gnss4V2_18BpHwGnss22injectBestLocation_2_0ERKNS1_4V2_012GnssLocationE"
  },
  {
   "name" : "_ZN7android8hardware4gnss4V2_18BpHwGnss24getExtensionAGnssRil_2_0Ev"
  },
  {
   "name" : "_ZN7android8hardware4gnss4V2_18BpHwGnss24getExtensionGnssBatchingEv"
  },
  {
   "name" : "_ZN7android8hardware4gnss4V2_18BpHwGnss25getExtensionGnssDebug_2_0Ev"
  },
  {
   "name" : "_ZN7android8hardware4gnss4V2_18BpHwGnss26getExtensionGnssGeofencingEv"
  },
  {
   "name" : "_ZN7android8hardware4gnss4V2_18BpHwGnss27getExtensionGnssAntennaInfoEv"
  },
  {
   "name" : "_ZN7android8hardware4gnss4V2_18BpHwGnss27getExtensionGnssMeasurementEv"
  },
  {
   "name" : "_ZN7android8hardware4gnss4V2_18BpHwGnss28getExtensionGnssBatching_2_0Ev"
  },
  {
   "name" : "_ZN7android8hardware4gnss4V2_18BpHwGnss29getExtensionGnssConfigurationEv"
  },
  {
   "name" : "_ZN7android8hardware4gnss4V2_18BpHwGnss29getExtensionVisibilityControlEv"
  },
  {
   "name" : "_ZN7android8hardware4gnss4V2_18BpHwGnss31getExtensionGnssMeasurement_1_1Ev"
  },
  {
   "name" : "_ZN7android8hardware4gnss4V2_18BpHwGnss31getExtensionGnssMeasurement_2_0Ev"
  },
  {
   "name" : "_ZN7android8hardware4gnss4V2_18BpHwGnss31getExtensionGnssMeasurement_2_1Ev"
  },
  {
   "name" : "_ZN7android8hardware4gnss4V2_18BpHwGnss33_hidl_getExtensionGnssAntennaInfoEPNS0_10IInterfaceEPNS0_7details16HidlInstrumentorE"
  },
  {
   "name" : "_ZN7android8hardware4gnss4V2_18BpHwGnss33getExtensionGnssConfiguration_1_1Ev"
  },
  {
   "name" : "_ZN7android8hardware4gnss4V2_18BpHwGnss33getExtensionGnssConfiguration_2_0Ev"
  },
  {
   "name" : "_ZN7android8hardware4gnss4V2_18BpHwGnss33getExtensionGnssConfiguration_2_1Ev"
  },
  {
   "name" : "_ZN7android8hardware4gnss4V2_18BpHwGnss33getExtensionGnssNavigationMessageEv"
  },
  {
   "name" : "_ZN7android8hardware4gnss4V2_18BpHwGnss34getExtensionMeasurementCorrectionsEv"
  },
  {
   "name" : "_ZN7android8hardware4gnss4V2_18BpHwGnss37_hidl_getExtensionGnssMeasurement_2_1EPNS0_10IInterfaceEPNS0_7details16HidlInstrumentorE"
  },
  {
   "name" : "_ZN7android8hardware4gnss4V2_18BpHwGnss38getExtensionMeasurementCorrections_1_1Ev"
  },
  {
   "name" : "_ZN7android8hardware4gnss4V2_18BpHwGnss39_hidl_getExtensionGnssConfiguration_2_1EPNS0_10IInterfaceEPNS0_7details16HidlInstrumentorE"
  },
  {
   "name" : "_ZN7android8hardware4gnss4V2_18BpHwGnss44_hidl_getExtensionMeasurementCorrections_1_1EPNS0_10IInterfaceEPNS0_7details16HidlInstrumentorE"
  },
  {
   "name" : "_ZN7android8hardware4gnss4V2_18BpHwGnss4pingEv"
  },
  {
   "name" : "_ZN7android8hardware4gnss4V2_18BpHwGnss4stopEv"
  },
  {
   "name" : "_ZN7android8hardware4gnss4V2_18BpHwGnss5debugERKNS0_11hidl_handleERKNS0_8hidl_vecINS0_11hidl_stringEEE"
  },
  {
   "name" : "_ZN7android8hardware4gnss4V2_18BpHwGnss5startEv"
  },
  {
   "name" : "_ZN7android8hardware4gnss4V2_18BpHwGnss7cleanupEv"
  },
  {
   "name" : "_ZN7android8hardware4gnss4V2_18BpHwGnssC1ERKNS_2spINS0_7IBinderEEE"
  },
  {
   "name" : "_ZN7android8hardware4gnss4V2_18BpHwGnssC2ERKNS_2spINS0_7IBinderEEE"
  },
  {
   "binding" : "weak",
   "name" : "_ZN7android8hardware7details13castInterfaceINS0_4gnss4V2_113IGnssCallbackENS3_4V1_013IGnssCallbackENS4_16BpHwGnssCallbackEEENS0_6ReturnINS_2spIT_EEEENSA_IT0_EEPKcb"
  },
  {
   "binding" : "weak",
   "name" : "_ZN7android8hardware7details13castInterfaceINS0_4gnss4V2_113IGnssCallbackENS3_4V1_113IGnssCallbackENS4_16BpHwGnssCallbackEEENS0_6ReturnINS_2spIT_EEEENSA_IT0_EEPKcb"
  },
  {
   "binding" : "weak",
   "name" : "_ZN7android8hardware7details13castInterfaceINS0_4gnss4V2_113IGnssCallbackENS3_4V2_013IGnssCallbackENS4_16BpHwGnssCallbackEEENS0_6ReturnINS_2spIT_EEEENSA_IT0_EEPKcb"
  },
  {
   "binding" : "weak",
   "name" : "_ZN7android8hardware7details13castInterfaceINS0_4gnss4V2_113IGnssCallbackENS_4hidl4base4V1_05IBaseENS4_16BpHwGnssCallbackEEENS0_6ReturnINS_2spIT_EEEENSC_IT0_EEPKcb"
  },
  {
   "binding" : "weak",
   "name" : "_ZN7android8hardware7details13castInterfaceINS0_4gnss4V2_116IGnssAntennaInfoENS_4hidl4base4V1_05IBaseENS4_19BpHwGnssAntennaInfoEEENS0_6ReturnINS_2spIT_EEEENSC_IT0_EEPKcb"
  },
  {
   "binding" : "weak",
   "name" : "_ZN7android8hardware7details13castInterfaceINS0_4gnss4V2_116IGnssMeasurementENS3_4V1_016IGnssMeasurementENS4_19BpHwGnssMeasurementEEENS0_6ReturnINS_2spIT_EEEENSA_IT0_EEPKcb"
  },
  {
   "binding" : "weak",
   "name" : "_ZN7android8hardware7details13castInterfaceINS0_4gnss4V2_116IGnssMeasurementENS3_4V1_116IGnssMeasurementENS4_19BpHwGnssMeasurementEEENS0_6ReturnINS_2spIT_EEEENSA_IT0_EEPKcb"
  },
  {
   "binding" : "weak",
   "name" : "_ZN7android8hardware7details13castInterfaceINS0_4gnss4V2_116IGnssMeasurementENS3_4V2_016IGnssMeasurementENS4_19BpHwGnssMeasurementEEENS0_6ReturnINS_2spIT_EEEENSA_IT0_EEPKcb"
  },
  {
   "binding" : "weak",
   "name" : "_ZN7android8hardware7details13castInterfaceINS0_4gnss4V2_116IGnssMeasurementENS_4hidl4base4V1_05IBaseENS4_19BpHwGnssMeasurementEEENS0_6ReturnINS_2spIT_EEEENSC_IT0_EEPKcb"
  },
  {
   "binding" : "weak",
   "name" : "_ZN7android8hardware7details13castInterfaceINS0_4gnss4V2_118IGnssConfigurationENS3_4V1_018IGnssConfigurationENS4_21BpHwGnssConfigurationEEENS0_6ReturnINS_2spIT_EEEENSA_IT0_EEPKcb"
  },
  {
   "binding" : "weak",
   "name" : "_ZN7android8hardware7details13castInterfaceINS0_4gnss4V2_118IGnssConfigurationENS3_4V1_118IGnssConfigurationENS4_21BpHwGnssConfigurationEEENS0_6ReturnINS_2spIT_EEEENSA_IT0_EEPKcb"
  },
  {
   "binding" : "weak",
   "name" : "_ZN7android8hardware7details13castInterfaceINS0_4gnss4V2_118IGnssConfigurationENS3_4V2_018IGnssConfigurationENS4_21BpHwGnssConfigurationEEENS0_6ReturnINS_2spIT_EEEENSA_IT0_EEPKcb"
  },
  {
   "binding" : "weak",
   "name" : "_ZN7android8hardware7details13castInterfaceINS0_4gnss4V2_118IGnssConfigurationENS_4hidl4base4V1_05IBaseENS4_21BpHwGnssConfigurationEEENS0_6ReturnINS_2spIT_EEEENSC_IT0_EEPKcb"
  },
  {
   "binding" : "weak",
   "name" : "_ZN7android8hardware7details13castInterfaceINS0_4gnss4V2_124IGnssAntennaInfoCallbackENS_4hidl4base4V1_05IBaseENS4_27BpHwGnssAntennaInfoCallbackEEENS0_6ReturnINS_2spIT_EEEENSC_IT0_EEPKcb"
  },
  {
   "binding" : "weak",
   "name" : "_ZN7android8hardware7details13castInterfaceINS0_4gnss4V2_124IGnssMeasurementCallbackENS3_4V1_024IGnssMeasurementCallbackENS4_27BpHwGnssMeasurementCallbackEEENS0_6ReturnINS_2spIT_EEEENSA_IT0_EEPKcb"
  },
  {
   "binding" : "weak",
   "name" : "_ZN7android8hardware7details13castInterfaceINS0_4gnss4V2_124IGnssMeasurementCallbackENS3_4V1_124IGnssMeasurementCallbackENS4_27BpHwGnssMeasurementCallbackEEENS0_6ReturnINS_2spIT_EEEENSA_IT0_EEPKcb"
  },
  {
   "binding" : "weak",
   "name" : "_ZN7android8hardware7details13castInterfaceINS0_4gnss4V2_124IGnssMeasurementCallbackENS3_4V2_024IGnssMeasurementCallbackENS4_27BpHwGnssMeasurementCallbackEEENS0_6ReturnINS_2spIT_EEEENSA_IT0_EEPKcb"
  },
  {
   "binding" : "weak",
   "name" : "_ZN7android8hardware7details13castInterfaceINS0_4gnss4V2_124IGnssMeasurementCallbackENS_4hidl4base4V1_05IBaseENS4_27BpHwGnssMeasurementCallbackEEENS0_6ReturnINS_2spIT_EEEENSC_IT0_EEPKcb"
  },
  {
   "binding" : "weak",
   "name" : "_ZN7android8hardware7details13castInterfaceINS0_4gnss4V2_15IGnssENS3_4V1_05IGnssENS4_8BpHwGnssEEENS0_6ReturnINS_2spIT_EEEENSA_IT0_EEPKcb"
  },
  {
   "binding" : "weak",
   "name" : "_ZN7android8hardware7details13castInterfaceINS0_4gnss4V2_15IGnssENS3_4V1_15IGnssENS4_8BpHwGnssEEENS0_6ReturnINS_2spIT_EEEENSA_IT0_EEPKcb"
  },
  {
   "binding" : "weak",
   "name" : "_ZN7android8hardware7details13castInterfaceINS0_4gnss4V2_15IGnssENS3_4V2_05IGnssENS4_8BpHwGnssEEENS0_6ReturnINS_2spIT_EEEENSA_IT0_EEPKcb"
  },
  {
   "binding" : "weak",
   "name" : "_ZN7android8hardware7details13castInterfaceINS0_4gnss4V2_15IGnssENS_4hidl4base4V1_05IBaseENS4_8BpHwGnssEEENS0_6ReturnINS_2spIT_EEEENSC_IT0_EEPKcb"
  },
  {
   "binding" : "weak",
   "name" : "_ZN7android8hardware7details15wrapPassthroughINS0_4gnss18visibility_control4V1_022IGnssVisibilityControlEvEENS_2spIT_EES9_"
  },
  {
   "binding" : "weak",
   "name" : "_ZN7android8hardware7details15wrapPassthroughINS0_4gnss23measurement_corrections4V1_023IMeasurementCorrectionsEvEENS_2spIT_EES9_"
  },
  {
   "binding" : "weak",
   "name" : "_ZN7android8hardware7details15wrapPassthroughINS0_4gnss23measurement_corrections4V1_123IMeasurementCorrectionsEvEENS_2spIT_EES9_"
  },
  {
   "binding" : "weak",
   "name" : "_ZN7android8hardware7details15wrapPassthroughINS0_4gnss4V1_010IGnssDebugEvEENS_2spIT_EES8_"
  },
  {
   "binding" : "weak",
   "name" : "_ZN7android8hardware7details15wrapPassthroughINS0_4gnss4V1_013IGnssBatchingEvEENS_2spIT_EES8_"
  },
  {
   "binding" : "weak",
   "name" : "_ZN7android8hardware7details15wrapPassthroughINS0_4gnss4V1_013IGnssCallbackEvEENS_2spIT_EES8_"
  },
  {
   "binding" : "weak",
   "name" : "_ZN7android8hardware7details15wrapPassthroughINS0_4gnss4V1_015IGnssGeofencingEvEENS_2spIT_EES8_"
  },
  {
   "binding" : "weak",
   "name" : "_ZN7android8hardware7details15wrapPassthroughINS0_4gnss4V1_016IGnssMeasurementEvEENS_2spIT_EES8_"
  },
  {
   "binding" : "weak",
   "name" : "_ZN7android8hardware7details15wrapPassthroughINS0_4gnss4V1_018IGnssConfigurationEvEENS_2spIT_EES8_"
  },
  {
   "binding" : "weak",
   "name" : "_ZN7android8hardware7details15wrapPassthroughINS0_4gnss4V1_022IGnssNavigationMessageEvEENS_2spIT_EES8_"
  },
  {
   "binding" : "weak",
   "name" : "_ZN7android8hardware7details15wrapPassthroughINS0_4gnss4V1_024IGnssMeasurementCallbackEvEENS_2spIT_EES8_"
  },
  {
   "binding" : "weak",
   "name" : "_ZN7android8hardware7details15wrapPassthroughINS0_4gnss4V1_06IAGnssEvEENS_2spIT_EES8_"
  },
  {
   "binding" : "weak",
   "name" : "_ZN7android8hardware7details15wrapPassthroughINS0_4gnss4V1_07IGnssNiEvEENS_2spIT_EES8_"
  },
  {
   "binding" : "weak",
   "name" : "_ZN7android8hardware7details15wrapPassthroughINS0_4gnss4V1_09IAGnssRilEvEENS_2spIT_EES8_"
  },
  {
   "binding" : "weak",
   "name" : "_ZN7android8hardware7details15wrapPassthroughINS0_4gnss4V1_09IGnssXtraEvEENS_2spIT_EES8_"
  },
  {
   "binding" : "weak",
   "name" : "_ZN7android8hardware7details15wrapPassthroughINS0_4gnss4V1_113IGnssCallbackEvEENS_2spIT_EES8_"
  },
  {
   "binding" : "weak",
   "name" : "_ZN7android8hardware7details15wrapPassthroughINS0_4gnss4V1_116IGnssMeasurementEvEENS_2spIT_EES8_"
  },
  {
   "binding" : "weak",
   "name" : "_ZN7android8hardware7details15wrapPassthroughINS0_4gnss4V1_118IGnssConfigurationEvEENS_2spIT_EES8_"
  },
  {
   "binding" : "weak",
   "name" : "_ZN7android8hardware7details15wrapPassthroughINS0_4gnss4V1_124IGnssMeasurementCallbackEvEENS_2spIT_EES8_"
  },
  {
   "binding" : "weak",
   "name" : "_ZN7android8hardware7details15wrapPassthroughINS0_4gnss4V2_010IGnssDebugEvEENS_2spIT_EES8_"
  },
  {
   "binding" : "weak",
   "name" : "_ZN7android8hardware7details15wrapPassthroughINS0_4gnss4V2_013IGnssBatchingEvEENS_2spIT_EES8_"
  },
  {
   "binding" : "weak",
   "name" : "_ZN7android8hardware7details15wrapPassthroughINS0_4gnss4V2_013IGnssCallbackEvEENS_2spIT_EES8_"
  },
  {
   "binding" : "weak",
   "name" : "_ZN7android8hardware7details15wrapPassthroughINS0_4gnss4V2_016IGnssMeasurementEvEENS_2spIT_EES8_"
  },
  {
   "binding" : "weak",
   "name" : "_ZN7android8hardware7details15wrapPassthroughINS0_4gnss4V2_018IGnssConfigurationEvEENS_2spIT_EES8_"
  },
  {
   "binding" : "weak",
   "name" : "_ZN7android8hardware7details15wrapPassthroughINS0_4gnss4V2_024IGnssMeasurementCallbackEvEENS_2spIT_EES8_"
  },
  {
   "binding" : "weak",
   "name" : "_ZN7android8hardware7details15wrapPassthroughINS0_4gnss4V2_06IAGnssEvEENS_2spIT_EES8_"
  },
  {
   "binding" : "weak",
   "name" : "_ZN7android8hardware7details15wrapPassthroughINS0_4gnss4V2_09IAGnssRilEvEENS_2spIT_EES8_"
  },
  {
   "binding" : "weak",
   "name" : "_ZN7android8hardware7details15wrapPassthroughINS0_4gnss4V2_113IGnssCallbackEvEENS_2spIT_EES8_"
  },
  {
   "binding" : "weak",
   "name" : "_ZN7android8hardware7details15wrapPassthroughINS0_4gnss4V2_116IGnssAntennaInfoEvEENS_2spIT_EES8_"
  },
  {
   "binding" : "weak",
   "name" : "_ZN7android8hardware7details15wrapPassthroughINS0_4gnss4V2_116IGnssMeasurementEvEENS_2spIT_EES8_"
  },
  {
   "binding" : "weak",
   "name" : "_ZN7android8hardware7details15wrapPassthroughINS0_4gnss4V2_118IGnssConfigurationEvEENS_2spIT_EES8_"
  },
  {
   "binding" : "weak",
   "name" : "_ZN7android8hardware7details15wrapPassthroughINS0_4gnss4V2_124IGnssAntennaInfoCallbackEvEENS_2spIT_EES8_"
  },
  {
   "binding" : "weak",
   "name" : "_ZN7android8hardware7details15wrapPassthroughINS0_4gnss4V2_124IGnssMeasurementCallbackEvEENS_2spIT_EES8_"
  },
  {
   "binding" : "weak",
   "name" : "_ZN7android8hardware7details18getServiceInternalINS0_4gnss4V2_116BpHwGnssCallbackENS4_13IGnssCallbackEvvEENS_2spIT0_EERKNSt3__112basic_stringIcNSA_11char_traitsIcEENSA_9allocatorIcEEEEbb"
  },
  {
   "binding" : "weak",
   "name" : "_ZN7android8hardware7details18getServiceInternalINS0_4gnss4V2_119BpHwGnssAntennaInfoENS4_16IGnssAntennaInfoEvvEENS_2spIT0_EERKNSt3__112basic_stringIcNSA_11char_traitsIcEENSA_9allocatorIcEEEEbb"
  },
  {
   "binding" : "weak",
   "name" : "_ZN7android8hardware7details18getServiceInternalINS0_4gnss4V2_119BpHwGnssMeasurementENS4_16IGnssMeasurementEvvEENS_2spIT0_EERKNSt3__112basic_stringIcNSA_11char_traitsIcEENSA_9allocatorIcEEEEbb"
  },
  {
   "binding" : "weak",
   "name" : "_ZN7android8hardware7details18getServiceInternalINS0_4gnss4V2_121BpHwGnssConfigurationENS4_18IGnssConfigurationEvvEENS_2spIT0_EERKNSt3__112basic_stringIcNSA_11char_traitsIcEENSA_9allocatorIcEEEEbb"
  },
  {
   "binding" : "weak",
   "name" : "_ZN7android8hardware7details18getServiceInternalINS0_4gnss4V2_127BpHwGnssAntennaInfoCallbackENS4_24IGnssAntennaInfoCallbackEvvEENS_2spIT0_EERKNSt3__112basic_stringIcNSA_11char_traitsIcEENSA_9allocatorIcEEEEbb"
  },
  {
   "binding" : "weak",
   "name" : "_ZN7android8hardware7details18getServiceInternalINS0_4gnss4V2_127BpHwGnssMeasurementCallbackENS4_24IGnssMeasurementCallbackEvvEENS_2spIT0_EERKNSt3__112basic_stringIcNSA_11char_traitsIcEENSA_9allocatorIcEEEEbb"
  },
  {
   "binding" : "weak",
   "name" : "_ZN7android8hardware7details18getServiceInternalINS0_4gnss4V2_18BpHwGnssENS4_5IGnssEvvEENS_2spIT0_EERKNSt3__112basic_stringIcNSA_11char_traitsIcEENSA_9allocatorIcEEEEbb"
  },
  {
   "binding" : "weak",
   "name" : "_ZNKSt3__18functionIFvN7android8hardware7details16HidlInstrumentor20InstrumentationEventEPKcS7_S7_S7_PNS_6vectorIPvNS_9allocatorIS9_EEEEEEclES5_S7_S7_S7_S7_SD_"
  },
  {
   "binding" : "weak",
   "name" : "_ZNSt3__113__tree_removeIPNS_16__tree_node_baseIPvEEEEvT_S5_"
  },
  {
   "binding" : "weak",
   "name" : "_ZNSt3__127__tree_balance_after_insertIPNS_16__tree_node_baseIPvEEEEvT_S5_"
  },
  {
   "binding" : "weak",
   "name" : "_ZNSt3__16__treeINS_12__value_typeINS_12basic_stringIcNS_11char_traitsIcEENS_9allocatorIcEEEENS_8functionIFN7android2spINS9_4hidl4base4V1_05IBaseEEEPvEEEEENS_19__map_value_compareIS7_SJ_NS_4lessIS7_EELb1EEENS5_ISJ_EEE12__find_equalIS7_EERPNS_16__tree_node_baseISG_EERPNS_15__tree_end_nodeIST_EERKT_"
  },
  {
   "binding" : "weak",
   "name" : "_ZNSt3__16__treeINS_12__value_typeINS_12basic_stringIcNS_11char_traitsIcEENS_9allocatorIcEEEENS_8functionIFN7android2spINS9_4hidl4base4V1_05IBaseEEEPvEEEEENS_19__map_value_compareIS7_SJ_NS_4lessIS7_EELb1EEENS5_ISJ_EEE4findIS7_EENS_15__tree_iteratorISJ_PNS_11__tree_nodeISJ_SG_EElEERKT_"
  },
  {
   "binding" : "weak",
   "name" : "_ZNSt3__16__treeINS_12__value_typeINS_12basic_stringIcNS_11char_traitsIcEENS_9allocatorIcEEEENS_8functionIFN7android2spINS9_4hidl4base4V1_05IBaseEEEPvEEEEENS_19__map_value_compareIS7_SJ_NS_4lessIS7_EELb1EEENS5_ISJ_EEE5eraseENS_21__tree_const_iteratorISJ_PNS_11__tree_nodeISJ_SG_EElEE"
  },
  {
   "binding" : "weak",
   "name" : "_ZNSt3__16__treeINS_12__value_typeINS_12basic_stringIcNS_11char_traitsIcEENS_9allocatorIcEEEENS_8functionIFN7android2spINS9_8hardware7IBinderEEEPvEEEEENS_19__map_value_compareIS7_SH_NS_4lessIS7_EELb1EEENS5_ISH_EEE12__find_equalIS7_EERPNS_16__tree_node_baseISE_EERPNS_15__tree_end_nodeISR_EERKT_"
  },
  {
   "binding" : "weak",
   "name" : "_ZNSt3__16__treeINS_12__value_typeINS_12basic_stringIcNS_11char_traitsIcEENS_9allocatorIcEEEENS_8functionIFN7android2spINS9_8hardware7IBinderEEEPvEEEEENS_19__map_value_compareIS7_SH_NS_4lessIS7_EELb1EEENS5_ISH_EEE4findIS7_EENS_15__tree_iteratorISH_PNS_11__tree_nodeISH_SE_EElEERKT_"
  },
  {
   "binding" : "weak",
   "name" : "_ZNSt3__16__treeINS_12__value_typeINS_12basic_stringIcNS_11char_traitsIcEENS_9allocatorIcEEEENS_8functionIFN7android2spINS9_8hardware7IBinderEEEPvEEEEENS_19__map_value_compareIS7_SH_NS_4lessIS7_EELb1EEENS5_ISH_EEE5eraseENS_21__tree_const_iteratorISH_PNS_11__tree_nodeISH_SE_EElEE"
  },
  {
   "binding" : "weak",
   "name" : "_ZNSt3__16vectorIN7android2spINS1_8hardware27hidl_binder_death_recipientEEENS_9allocatorIS5_EEE21__push_back_slow_pathIS5_EEvOT_"
  },
  {
   "binding" : "weak",
   "name" : "_ZNSt3__16vectorINS_8functionIFvN7android8hardware7details16HidlInstrumentor20InstrumentationEventEPKcS8_S8_S8_PNS0_IPvNS_9allocatorIS9_EEEEEEENSA_ISF_EEEC2ERKSH_"
  },
  {
   "binding" : "weak",
   "name" : "_ZNSt3__16vectorIPvNS_9allocatorIS1_EEE21__push_back_slow_pathIS1_EEvOT_"
  },
  {
   "name" : "_ZThn16_N7android8hardware4gnss4V2_116BpHwGnssCallback15onLastStrongRefEPKv"
  },
  {
   "name" : "_ZThn16_N7android8hardware4gnss4V2_119BpHwGnssAntennaInfo15onLastStrongRefEPKv"
  },
  {
   "name" : "_ZThn16_N7android8hardware4gnss4V2_119BpHwGnssMeasurement15onLastStrongRefEPKv"
  },
  {
   "name" : "_ZThn16_N7android8hardware4gnss4V2_121BpHwGnssConfiguration15onLastStrongRefEPKv"
  },
  {
   "name" : "_ZThn16_N7android8hardware4gnss4V2_127BpHwGnssAntennaInfoCallback15onLastStrongRefEPKv"
  },
  {
   "name" : "_ZThn16_N7android8hardware4gnss4V2_127BpHwGnssMeasurementCallback15onLastStrongRefEPKv"
  },
  {
   "name" : "_ZThn16_N7android8hardware4gnss4V2_18BpHwGnss15onLastStrongRefEPKv"
  },
  {
   "name" : "_ZThn32_N7android8hardware4gnss4V2_116BnHwGnssCallbackD0Ev"
  },
  {
   "name" : "_ZThn32_N7android8hardware4gnss4V2_116BnHwGnssCallbackD1Ev"
  },
  {
   "name" : "_ZThn32_N7android8hardware4gnss4V2_119BnHwGnssAntennaInfoD0Ev"
  },
  {
   "name" : "_ZThn32_N7android8hardware4gnss4V2_119BnHwGnssAntennaInfoD1Ev"
  },
  {
   "name" : "_ZThn32_N7android8hardware4gnss4V2_119BnHwGnssMeasurementD0Ev"
  },
  {
   "name" : "_ZThn32_N7android8hardware4gnss4V2_119BnHwGnssMeasurementD1Ev"
  },
  {
   "name" : "_ZThn32_N7android8hardware4gnss4V2_121BnHwGnssConfigurationD0Ev"
  },
  {
   "name" : "_ZThn32_N7android8hardware4gnss4V2_121BnHwGnssConfigurationD1Ev"
  },
  {
   "name" : "_ZThn32_N7android8hardware4gnss4V2_127BnHwGnssAntennaInfoCallbackD0Ev"
  },
  {
   "name" : "_ZThn32_N7android8hardware4gnss4V2_127BnHwGnssAntennaInfoCallbackD1Ev"
  },
  {
   "name" : "_ZThn32_N7android8hardware4gnss4V2_127BnHwGnssMeasurementCallbackD0Ev"
  },
  {
   "name" : "_ZThn32_N7android8hardware4gnss4V2_127BnHwGnssMeasurementCallbackD1Ev"
  },
  {
   "name" : "_ZThn32_N7android8hardware4gnss4V2_18BnHwGnssD0Ev"
  },
  {
   "name" : "_ZThn32_N7android8hardware4gnss4V2_18BnHwGnssD1Ev"
  },
  {
   "name" : "_ZTv0_n24_N7android8hardware4gnss4V2_116BnHwGnssCallbackD0Ev"
  },
  {
   "name" : "_ZTv0_n24_N7android8hardware4gnss4V2_116BnHwGnssCallbackD1Ev"
  },
  {
   "name" : "_ZTv0_n24_N7android8hardware4gnss4V2_119BnHwGnssAntennaInfoD0Ev"
  },
  {
   "name" : "_ZTv0_n24_N7android8hardware4gnss4V2_119BnHwGnssAntennaInfoD1Ev"
  },
  {
   "name" : "_ZTv0_n24_N7android8hardware4gnss4V2_119BnHwGnssMeasurementD0Ev"
  },
  {
   "name" : "_ZTv0_n24_N7android8hardware4gnss4V2_119BnHwGnssMeasurementD1Ev"
  },
  {
   "name" : "_ZTv0_n24_N7android8hardware4gnss4V2_121BnHwGnssConfigurationD0Ev"
  },
  {
   "name" : "_ZTv0_n24_N7android8hardware4gnss4V2_121BnHwGnssConfigurationD1Ev"
  },
  {
   "name" : "_ZTv0_n24_N7android8hardware4gnss4V2_127BnHwGnssAntennaInfoCallbackD0Ev"
  },
  {
   "name" : "_ZTv0_n24_N7android8hardware4gnss4V2_127BnHwGnssAntennaInfoCallbackD1Ev"
  },
  {
   "name" : "_ZTv0_n24_N7android8hardware4gnss4V2_127BnHwGnssMeasurementCallbackD0Ev"
  },
  {
   "name" : "_ZTv0_n24_N7android8hardware4gnss4V2_127BnHwGnssMeasurementCallbackD1Ev"
  },
  {
   "name" : "_ZTv0_n24_N7android8hardware4gnss4V2_18BnHwGnssD0Ev"
  },
  {
   "name" : "_ZTv0_n24_N7android8hardware4gnss4V2_18BnHwGnssD1Ev"
  },
  {
   "name" : "_ZTv0_n40_N7android8hardware4gnss4V2_116BpHwGnssCallback15onLastStrongRefEPKv"
  },
  {
   "name" : "_ZTv0_n40_N7android8hardware4gnss4V2_119BpHwGnssAntennaInfo15onLastStrongRefEPKv"
  },
  {
   "name" : "_ZTv0_n40_N7android8hardware4gnss4V2_119BpHwGnssMeasurement15onLastStrongRefEPKv"
  },
  {
   "name" : "_ZTv0_n40_N7android8hardware4gnss4V2_121BpHwGnssConfiguration15onLastStrongRefEPKv"
  },
  {
   "name" : "_ZTv0_n40_N7android8hardware4gnss4V2_127BpHwGnssAntennaInfoCallback15onLastStrongRefEPKv"
  },
  {
   "name" : "_ZTv0_n40_N7android8hardware4gnss4V2_127BpHwGnssMeasurementCallback15onLastStrongRefEPKv"
  },
  {
   "name" : "_ZTv0_n40_N7android8hardware4gnss4V2_18BpHwGnss15onLastStrongRefEPKv"
  }
 ],
 "elf_objects" :
 [
  {
   "name" : "_ZN7android8hardware4gnss4V2_113IGnssCallback10descriptorE"
  },
  {
   "name" : "_ZN7android8hardware4gnss4V2_116IGnssAntennaInfo10descriptorE"
  },
  {
   "name" : "_ZN7android8hardware4gnss4V2_116IGnssMeasurement10descriptorE"
  },
  {
   "name" : "_ZN7android8hardware4gnss4V2_118IGnssConfiguration10descriptorE"
  },
  {
   "name" : "_ZN7android8hardware4gnss4V2_124IGnssAntennaInfoCallback10descriptorE"
  },
  {
   "name" : "_ZN7android8hardware4gnss4V2_124IGnssMeasurementCallback10descriptorE"
  },
  {
   "name" : "_ZN7android8hardware4gnss4V2_15IGnss10descriptorE"
  },
  {
   "name" : "_ZTCN7android8hardware4gnss4V2_113IGnssCallbackE0_NS1_4V1_013IGnssCallbackE"
  },
  {
   "name" : "_ZTCN7android8hardware4gnss4V2_113IGnssCallbackE0_NS1_4V1_113IGnssCallbackE"
  },
  {
   "name" : "_ZTCN7android8hardware4gnss4V2_113IGnssCallbackE0_NS1_4V2_013IGnssCallbackE"
  },
  {
   "name" : "_ZTCN7android8hardware4gnss4V2_113IGnssCallbackE0_NS_4hidl4base4V1_05IBaseE"
  },
  {
   "binding" : "weak",
   "name" : "_ZTCN7android8hardware4gnss4V2_114BsGnssCallbackE0_NS2_13IGnssCallbackE"
  },
  {
   "name" : "_ZTCN7android8hardware4gnss4V2_116BnHwGnssCallbackE0_NS0_7IBinderE"
  },
  {
   "name" : "_ZTCN7android8hardware4gnss4V2_116BnHwGnssCallbackE0_NS0_9BHwBinderE"
  },
  {
   "name" : "_ZTCN7android8hardware4gnss4V2_116BnHwGnssCallbackE0_NS_4hidl4base4V1_08BnHwBaseE"
  },
  {
   "name" : "_ZTCN7android8hardware4gnss4V2_116BpHwGnssCallbackE0_NS0_11BpInterfaceINS2_13IGnssCallbackEEE"
  },
  {
   "name" : "_ZTCN7android8hardware4gnss4V2_116BpHwGnssCallbackE0_NS1_4V1_013IGnssCallbackE"
  },
  {
   "name" : "_ZTCN7android8hardware4gnss4V2_116BpHwGnssCallbackE0_NS1_4V1_113IGnssCallbackE"
  },
  {
   "name" : "_ZTCN7android8hardware4gnss4V2_116BpHwGnssCallbackE0_NS1_4V2_013IGnssCallbackE"
  },
  {
   "name" : "_ZTCN7android8hardware4gnss4V2_116BpHwGnssCallbackE0_NS2_13IGnssCallbackE"
  },
  {
   "name" : "_ZTCN7android8hardware4gnss4V2_116BpHwGnssCallbackE0_NS_4hidl4base4V1_05IBaseE"
  },
  {
   "name" : "_ZTCN7android8hardware4gnss4V2_116BpHwGnssCallbackE16_NS0_11BpHwRefBaseE"
  },
  {
   "name" : "_ZTCN7android8hardware4gnss4V2_116BpHwGnssCallbackE8_NS0_10IInterfaceE"
  },
  {
   "name" : "_ZTCN7android8hardware4gnss4V2_116IGnssAntennaInfoE0_NS_4hidl4base4V1_05IBaseE"
  },
  {
   "name" : "_ZTCN7android8hardware4gnss4V2_116IGnssMeasurementE0_NS1_4V1_016IGnssMeasurementE"
  },
  {
   "name" : "_ZTCN7android8hardware4gnss4V2_116IGnssMeasurementE0_NS1_4V1_116IGnssMeasurementE"
  },
  {
   "name" : "_ZTCN7android8hardware4gnss4V2_116IGnssMeasurementE0_NS1_4V2_016IGnssMeasurementE"
  },
  {
   "name" : "_ZTCN7android8hardware4gnss4V2_116IGnssMeasurementE0_NS_4hidl4base4V1_05IBaseE"
  },
  {
   "binding" : "weak",
   "name" : "_ZTCN7android8hardware4gnss4V2_117BsGnssAntennaInfoE0_NS2_16IGnssAntennaInfoE"
  },
  {
   "binding" : "weak",
   "name" : "_ZTCN7android8hardware4gnss4V2_117BsGnssMeasurementE0_NS2_16IGnssMeasurementE"
  },
  {
   "name" : "_ZTCN7android8hardware4gnss4V2_118IGnssConfigurationE0_NS1_4V1_018IGnssConfigurationE"
  },
  {
   "name" : "_ZTCN7android8hardware4gnss4V2_118IGnssConfigurationE0_NS1_4V1_118IGnssConfigurationE"
  },
  {
   "name" : "_ZTCN7android8hardware4gnss4V2_118IGnssConfigurationE0_NS1_4V2_018IGnssConfigurationE"
  },
  {
   "name" : "_ZTCN7android8hardware4gnss4V2_118IGnssConfigurationE0_NS_4hidl4base4V1_05IBaseE"
  },
  {
   "name" : "_ZTCN7android8hardware4gnss4V2_119BnHwGnssAntennaInfoE0_NS0_7IBinderE"
  },
  {
   "name" : "_ZTCN7android8hardware4gnss4V2_119BnHwGnssAntennaInfoE0_NS0_9BHwBinderE"
  },
  {
   "name" : "_ZTCN7android8hardware4gnss4V2_119BnHwGnssAntennaInfoE0_NS_4hidl4base4V1_08BnHwBaseE"
  },
  {
   "name" : "_ZTCN7android8hardware4gnss4V2_119BnHwGnssMeasurementE0_NS0_7IBinderE"
  },
  {
   "name" : "_ZTCN7android8hardware4gnss4V2_119BnHwGnssMeasurementE0_NS0_9BHwBinderE"
  },
  {
   "name" : "_ZTCN7android8hardware4gnss4V2_119BnHwGnssMeasurementE0_NS_4hidl4base4V1_08BnHwBaseE"
  },
  {
   "name" : "_ZTCN7android8hardware4gnss4V2_119BpHwGnssAntennaInfoE0_NS0_11BpInterfaceINS2_16IGnssAntennaInfoEEE"
  },
  {
   "name" : "_ZTCN7android8hardware4gnss4V2_119BpHwGnssAntennaInfoE0_NS2_16IGnssAntennaInfoE"
  },
  {
   "name" : "_ZTCN7android8hardware4gnss4V2_119BpHwGnssAntennaInfoE0_NS_4hidl4base4V1_05IBaseE"
  },
  {
   "name" : "_ZTCN7android8hardware4gnss4V2_119BpHwGnssAntennaInfoE16_NS0_11BpHwRefBaseE"
  },
  {
   "name" : "_ZTCN7android8hardware4gnss4V2_119BpHwGnssAntennaInfoE8_NS0_10IInterfaceE"
  },
  {
   "name" : "_ZTCN7android8hardware4gnss4V2_119BpHwGnssMeasurementE0_NS0_11BpInterfaceINS2_16IGnssMeasurementEEE"
  },
  {
   "name" : "_ZTCN7android8hardware4gnss4V2_119BpHwGnssMeasurementE0_NS1_4V1_016IGnssMeasurementE"
  },
  {
   "name" : "_ZTCN7android8hardware4gnss4V2_119BpHwGnssMeasurementE0_NS1_4V1_116IGnssMeasurementE"
  },
  {
   "name" : "_ZTCN7android8hardware4gnss4V2_119BpHwGnssMeasurementE0_NS1_4V2_016IGnssMeasurementE"
  },
  {
   "name" : "_ZTCN7android8hardware4gnss4V2_119BpHwGnssMeasurementE0_NS2_16IGnssMeasurementE"
  },
  {
   "name" : "_ZTCN7android8hardware4gnss4V2_119BpHwGnssMeasurementE0_NS_4hidl4base4V1_05IBaseE"
  },
  {
   "name" : "_ZTCN7android8hardware4gnss4V2_119BpHwGnssMeasurementE16_NS0_11BpHwRefBaseE"
  },
  {
   "name" : "_ZTCN7android8hardware4gnss4V2_119BpHwGnssMeasurementE8_NS0_10IInterfaceE"
  },
  {
   "binding" : "weak",
   "name" : "_ZTCN7android8hardware4gnss4V2_119BsGnssConfigurationE0_NS2_18IGnssConfigurationE"
  },
  {
   "name" : "_ZTCN7android8hardware4gnss4V2_121BnHwGnssConfigurationE0_NS0_7IBinderE"
  },
  {
   "name" : "_ZTCN7android8hardware4gnss4V2_121BnHwGnssConfigurationE0_NS0_9BHwBinderE"
  },
  {
   "name" : "_ZTCN7android8hardware4gnss4V2_121BnHwGnssConfigurationE0_NS_4hidl4base4V1_08BnHwBaseE"
  },
  {
   "name" : "_ZTCN7android8hardware4gnss4V2_121BpHwGnssConfigurationE0_NS0_11BpInterfaceINS2_18IGnssConfigurationEEE"
  },
  {
   "name" : "_ZTCN7android8hardware4gnss4V2_121BpHwGnssConfigurationE0_NS1_4V1_018IGnssConfigurationE"
  },
  {
   "name" : "_ZTCN7android8hardware4gnss4V2_121BpHwGnssConfigurationE0_NS1_4V1_118IGnssConfigurationE"
  },
  {
   "name" : "_ZTCN7android8hardware4gnss4V2_121BpHwGnssConfigurationE0_NS1_4V2_018IGnssConfigurationE"
  },
  {
   "name" : "_ZTCN7android8hardware4gnss4V2_121BpHwGnssConfigurationE0_NS2_18IGnssConfigurationE"
  },
  {
   "name" : "_ZTCN7android8hardware4gnss4V2_121BpHwGnssConfigurationE0_NS_4hidl4base4V1_05IBaseE"
  },
  {
   "name" : "_ZTCN7android8hardware4gnss4V2_121BpHwGnssConfigurationE16_NS0_11BpHwRefBaseE"
  },
  {
   "name" : "_ZTCN7android8hardware4gnss4V2_121BpHwGnssConfigurationE8_NS0_10IInterfaceE"
  },
  {
   "name" : "_ZTCN7android8hardware4gnss4V2_124IGnssAntennaInfoCallbackE0_NS_4hidl4base4V1_05IBaseE"
  },
  {
   "name" : "_ZTCN7android8hardware4gnss4V2_124IGnssMeasurementCallbackE0_NS1_4V1_024IGnssMeasurementCallbackE"
  },
  {
   "name" : "_ZTCN7android8hardware4gnss4V2_124IGnssMeasurementCallbackE0_NS1_4V1_124IGnssMeasurementCallbackE"
  },
  {
   "name" : "_ZTCN7android8hardware4gnss4V2_124IGnssMeasurementCallbackE0_NS1_4V2_024IGnssMeasurementCallbackE"
  },
  {
   "name" : "_ZTCN7android8hardware4gnss4V2_124IGnssMeasurementCallbackE0_NS_4hidl4base4V1_05IBaseE"
  },
  {
   "binding" : "weak",
   "name" : "_ZTCN7android8hardware4gnss4V2_125BsGnssAntennaInfoCallbackE0_NS2_24IGnssAntennaInfoCallbackE"
  },
  {
   "binding" : "weak",
   "name" : "_ZTCN7android8hardware4gnss4V2_125BsGnssMeasurementCallbackE0_NS2_24IGnssMeasurementCallbackE"
  },
  {
   "name" : "_ZTCN7android8hardware4gnss4V2_127BnHwGnssAntennaInfoCallbackE0_NS0_7IBinderE"
  },
  {
   "name" : "_ZTCN7android8hardware4gnss4V2_127BnHwGnssAntennaInfoCallbackE0_NS0_9BHwBinderE"
  },
  {
   "name" : "_ZTCN7android8hardware4gnss4V2_127BnHwGnssAntennaInfoCallbackE0_NS_4hidl4base4V1_08BnHwBaseE"
  },
  {
   "name" : "_ZTCN7android8hardware4gnss4V2_127BnHwGnssMeasurementCallbackE0_NS0_7IBinderE"
  },
  {
   "name" : "_ZTCN7android8hardware4gnss4V2_127BnHwGnssMeasurementCallbackE0_NS0_9BHwBinderE"
  },
  {
   "name" : "_ZTCN7android8hardware4gnss4V2_127BnHwGnssMeasurementCallbackE0_NS_4hidl4base4V1_08BnHwBaseE"
  },
  {
   "name" : "_ZTCN7android8hardware4gnss4V2_127BpHwGnssAntennaInfoCallbackE0_NS0_11BpInterfaceINS2_24IGnssAntennaInfoCallbackEEE"
  },
  {
   "name" : "_ZTCN7android8hardware4gnss4V2_127BpHwGnssAntennaInfoCallbackE0_NS2_24IGnssAntennaInfoCallbackE"
  },
  {
   "name" : "_ZTCN7android8hardware4gnss4V2_127BpHwGnssAntennaInfoCallbackE0_NS_4hidl4base4V1_05IBaseE"
  },
  {
   "name" : "_ZTCN7android8hardware4gnss4V2_127BpHwGnssAntennaInfoCallbackE16_NS0_11BpHwRefBaseE"
  },
  {
   "name" : "_ZTCN7android8hardware4gnss4V2_127BpHwGnssAntennaInfoCallbackE8_NS0_10IInterfaceE"
  },
  {
   "name" : "_ZTCN7android8hardware4gnss4V2_127BpHwGnssMeasurementCallbackE0_NS0_11BpInterfaceINS2_24IGnssMeasurementCallbackEEE"
  },
  {
   "name" : "_ZTCN7android8hardware4gnss4V2_127BpHwGnssMeasurementCallbackE0_NS1_4V1_024IGnssMeasurementCallbackE"
  },
  {
   "name" : "_ZTCN7android8hardware4gnss4V2_127BpHwGnssMeasurementCallbackE0_NS1_4V1_124IGnssMeasurementCallbackE"
  },
  {
   "name" : "_ZTCN7android8hardware4gnss4V2_127BpHwGnssMeasurementCallbackE0_NS1_4V2_024IGnssMeasurementCallbackE"
  },
  {
   "name" : "_ZTCN7android8hardware4gnss4V2_127BpHwGnssMeasurementCallbackE0_NS2_24IGnssMeasurementCallbackE"
  },
  {
   "name" : "_ZTCN7android8hardware4gnss4V2_127BpHwGnssMeasurementCallbackE0_NS_4hidl4base4V1_05IBaseE"
  },
  {
   "name" : "_ZTCN7android8hardware4gnss4V2_127BpHwGnssMeasurementCallbackE16_NS0_11BpHwRefBaseE"
  },
  {
   "name" : "_ZTCN7android8hardware4gnss4V2_127BpHwGnssMeasurementCallbackE8_NS0_10IInterfaceE"
  },
  {
   "name" : "_ZTCN7android8hardware4gnss4V2_15IGnssE0_NS1_4V1_05IGnssE"
  },
  {
   "name" : "_ZTCN7android8hardware4gnss4V2_15IGnssE0_NS1_4V1_15IGnssE"
  },
  {
   "name" : "_ZTCN7android8hardware4gnss4V2_15IGnssE0_NS1_4V2_05IGnssE"
  },
  {
   "name" : "_ZTCN7android8hardware4gnss4V2_15IGnssE0_NS_4hidl4base4V1_05IBaseE"
  },
  {
   "binding" : "weak",
   "name" : "_ZTCN7android8hardware4gnss4V2_16BsGnssE0_NS2_5IGnssE"
  },
  {
   "name" : "_ZTCN7android8hardware4gnss4V2_18BnHwGnssE0_NS0_7IBinderE"
  },
  {
   "name" : "_ZTCN7android8hardware4gnss4V2_18BnHwGnssE0_NS0_9BHwBinderE"
  },
  {
   "name" : "_ZTCN7android8hardware4gnss4V2_18BnHwGnssE0_NS_4hidl4base4V1_08BnHwBaseE"
  },
  {
   "name" : "_ZTCN7android8hardware4gnss4V2_18BpHwGnssE0_NS0_11BpInterfaceINS2_5IGnssEEE"
  },
  {
   "name" : "_ZTCN7android8hardware4gnss4V2_18BpHwGnssE0_NS1_4V1_05IGnssE"
  },
  {
   "name" : "_ZTCN7android8hardware4gnss4V2_18BpHwGnssE0_NS1_4V1_15IGnssE"
  },
  {
   "name" : "_ZTCN7android8hardware4gnss4V2_18BpHwGnssE0_NS1_4V2_05IGnssE"
  },
  {
   "name" : "_ZTCN7android8hardware4gnss4V2_18BpHwGnssE0_NS2_5IGnssE"
  },
  {
   "name" : "_ZTCN7android8hardware4gnss4V2_18BpHwGnssE0_NS_4hidl4base4V1_05IBaseE"
  },
  {
   "name" : "_ZTCN7android8hardware4gnss4V2_18BpHwGnssE16_NS0_11BpHwRefBaseE"
  },
  {
   "name" : "_ZTCN7android8hardware4gnss4V2_18BpHwGnssE8_NS0_10IInterfaceE"
  },
  {
   "name" : "_ZTTN7android8hardware4gnss4V2_113IGnssCallbackE"
  },
  {
   "name" : "_ZTTN7android8hardware4gnss4V2_116BnHwGnssCallbackE"
  },
  {
   "name" : "_ZTTN7android8hardware4gnss4V2_116BpHwGnssCallbackE"
  },
  {
   "name" : "_ZTTN7android8hardware4gnss4V2_116IGnssAntennaInfoE"
  },
  {
   "name" : "_ZTTN7android8hardware4gnss4V2_116IGnssMeasurementE"
  },
  {
   "name" : "_ZTTN7android8hardware4gnss4V2_118IGnssConfigurationE"
  },
  {
   "name" : "_ZTTN7android8hardware4gnss4V2_119BnHwGnssAntennaInfoE"
  },
  {
   "name" : "_ZTTN7android8hardware4gnss4V2_119BnHwGnssMeasurementE"
  },
  {
   "name" : "_ZTTN7android8hardware4gnss4V2_119BpHwGnssAntennaInfoE"
  },
  {
   "name" : "_ZTTN7android8hardware4gnss4V2_119BpHwGnssMeasurementE"
  },
  {
   "name" : "_ZTTN7android8hardware4gnss4V2_121BnHwGnssConfigurationE"
  },
  {
   "name" : "_ZTTN7android8hardware4gnss4V2_121BpHwGnssConfigurationE"
  },
  {
   "name" : "_ZTTN7android8hardware4gnss4V2_124IGnssAntennaInfoCallbackE"
  },
  {
   "name" : "_ZTTN7android8hardware4gnss4V2_124IGnssMeasurementCallbackE"
  },
  {
   "name" : "_ZTTN7android8hardware4gnss4V2_127BnHwGnssAntennaInfoCallbackE"
  },
  {
   "name" : "_ZTTN7android8hardware4gnss4V2_127BnHwGnssMeasurementCallbackE"
  },
  {
   "name" : "_ZTTN7android8hardware4gnss4V2_127BpHwGnssAntennaInfoCallbackE"
  },
  {
   "name" : "_ZTTN7android8hardware4gnss4V2_127BpHwGnssMeasurementCallbackE"
  },
  {
   "name" : "_ZTTN7android8hardware4gnss4V2_15IGnssE"
  },
  {
   "name" : "_ZTTN7android8hardware4gnss4V2_18BnHwGnssE"
  },
  {
   "name" : "_ZTTN7android8hardware4gnss4V2_18BpHwGnssE"
  },
  {
   "name" : "_ZTVN7android8hardware4gnss4V2_113IGnssCallbackE"
  },
  {
   "binding" : "weak",
   "name" : "_ZTVN7android8hardware4gnss4V2_114BsGnssCallbackE"
  },
  {
   "name" : "_ZTVN7android8hardware4gnss4V2_116BnHwGnssCallbackE"
  },
  {
   "name" : "_ZTVN7android8hardware4gnss4V2_116BpHwGnssCallbackE"
  },
  {
   "name" : "_ZTVN7android8hardware4gnss4V2_116IGnssAntennaInfoE"
  },
  {
   "name" : "_ZTVN7android8hardware4gnss4V2_116IGnssMeasurementE"
  },
  {
   "binding" : "weak",
   "name" : "_ZTVN7android8hardware4gnss4V2_117BsGnssAntennaInfoE"
  },
  {
   "binding" : "weak",
   "name" : "_ZTVN7android8hardware4gnss4V2_117BsGnssMeasurementE"
  },
  {
   "name" : "_ZTVN7android8hardware4gnss4V2_118IGnssConfigurationE"
  },
  {
   "name" : "_ZTVN7android8hardware4gnss4V2_119BnHwGnssAntennaInfoE"
  },
  {
   "name" : "_ZTVN7android8hardware4gnss4V2_119BnHwGnssMeasurementE"
  },
  {
   "name" : "_ZTVN7android8hardware4gnss4V2_119BpHwGnssAntennaInfoE"
  },
  {
   "name" : "_ZTVN7android8hardware4gnss4V2_119BpHwGnssMeasurementE"
  },
  {
   "binding" : "weak",
   "name" : "_ZTVN7android8hardware4gnss4V2_119BsGnssConfigurationE"
  },
  {
   "name" : "_ZTVN7android8hardware4gnss4V2_121BnHwGnssConfigurationE"
  },
  {
   "name" : "_ZTVN7android8hardware4gnss4V2_121BpHwGnssConfigurationE"
  },
  {
   "name" : "_ZTVN7android8hardware4gnss4V2_124IGnssAntennaInfoCallbackE"
  },
  {
   "name" : "_ZTVN7android8hardware4gnss4V2_124IGnssMeasurementCallbackE"
  },
  {
   "binding" : "weak",
   "name" : "_ZTVN7android8hardware4gnss4V2_125BsGnssAntennaInfoCallbackE"
  },
  {
   "binding" : "weak",
   "name" : "_ZTVN7android8hardware4gnss4V2_125BsGnssMeasurementCallbackE"
  },
  {
   "name" : "_ZTVN7android8hardware4gnss4V2_127BnHwGnssAntennaInfoCallbackE"
  },
  {
   "name" : "_ZTVN7android8hardware4gnss4V2_127BnHwGnssMeasurementCallbackE"
  },
  {
   "name" : "_ZTVN7android8hardware4gnss4V2_127BpHwGnssAntennaInfoCallbackE"
  },
  {
   "name" : "_ZTVN7android8hardware4gnss4V2_127BpHwGnssMeasurementCallbackE"
  },
  {
   "name" : "_ZTVN7android8hardware4gnss4V2_15IGnssE"
  },
  {
   "binding" : "weak",
   "name" : "_ZTVN7android8hardware4gnss4V2_16BsGnssE"
  },
  {
   "name" : "_ZTVN7android8hardware4gnss4V2_18BnHwGnssE"
  },
  {
   "name" : "_ZTVN7android8hardware4gnss4V2_18BpHwGnssE"
  }
 ],
 "enum_types" :
 [
  {
   "alignment" : 4,
   "enum_fields" :
   [
    {
     "enum_field_value" : 1,
     "name" : "HAL_HDR_DOLBY_VISION"
    },
    {
     "enum_field_value" : 2,
     "name" : "HAL_HDR_HDR10"
    },
    {
     "enum_field_value" : 3,
     "name" : "HAL_HDR_HLG"
    }
   ],
   "linker_set_key" : "_ZTI13android_hdr_t",
   "name" : "android_hdr_t",
   "referenced_type" : "_ZTI13android_hdr_t",
   "self_type" : "_ZTI13android_hdr_t",
   "size" : 4,
   "source_file" : "/system/core/libsystem/include/system/graphics-base-v1.0.h",
   "underlying_type" : "_ZTIj"
  },
  {
   "alignment" : 4,
   "enum_fields" :
   [
    {
     "enum_field_value" : 4,
     "name" : "HAL_HDR_HDR10_PLUS"
    }
   ],
   "linker_set_key" : "_ZTI18android_hdr_v1_2_t",
   "name" : "android_hdr_v1_2_t",
   "referenced_type" : "_ZTI18android_hdr_v1_2_t",
   "self_type" : "_ZTI18android_hdr_v1_2_t",
   "size" : 4,
   "source_file" : "/system/core/libsystem/include/system/graphics-base-v1.2.h",
   "underlying_type" : "_ZTIj"
  },
  {
   "alignment" : 4,
   "enum_fields" :
   [
    {
     "enum_field_value" : 0,
     "name" : "ANDROID_LOG_UNKNOWN"
    },
    {
     "enum_field_value" : 1,
     "name" : "ANDROID_LOG_DEFAULT"
    },
    {
     "enum_field_value" : 2,
     "name" : "ANDROID_LOG_VERBOSE"
    },
    {
     "enum_field_value" : 3,
     "name" : "ANDROID_LOG_DEBUG"
    },
    {
     "enum_field_value" : 4,
     "name" : "ANDROID_LOG_INFO"
    },
    {
     "enum_field_value" : 5,
     "name" : "ANDROID_LOG_WARN"
    },
    {
     "enum_field_value" : 6,
     "name" : "ANDROID_LOG_ERROR"
    },
    {
     "enum_field_value" : 7,
     "name" : "ANDROID_LOG_FATAL"
    },
    {
     "enum_field_value" : 8,
     "name" : "ANDROID_LOG_SILENT"
    }
   ],
   "linker_set_key" : "_ZTI19android_LogPriority",
   "name" : "android_LogPriority",
   "referenced_type" : "_ZTI19android_LogPriority",
   "self_type" : "_ZTI19android_LogPriority",
   "size" : 4,
   "source_file" : "/system/core/liblog/include/android/log.h",
   "underlying_type" : "_ZTIj"
  },
  {
   "alignment" : 4,
   "enum_fields" :
   [
    {
     "enum_field_value" : 0,
     "name" : "HAL_DATASPACE_UNKNOWN"
    },
    {
     "enum_field_value" : 1,
     "name" : "HAL_DATASPACE_ARBITRARY"
    },
    {
     "enum_field_value" : 16,
     "name" : "HAL_DATASPACE_STANDARD_SHIFT"
    },
    {
     "enum_field_value" : 4128768,
     "name" : "HAL_DATASPACE_STANDARD_MASK"
    },
    {
     "enum_field_value" : 0,
     "name" : "HAL_DATASPACE_STANDARD_UNSPECIFIED"
    },
    {
     "enum_field_value" : 65536,
     "name" : "HAL_DATASPACE_STANDARD_BT709"
    },
    {
     "enum_field_value" : 131072,
     "name" : "HAL_DATASPACE_STANDARD_BT601_625"
    },
    {
     "enum_field_value" : 196608,
     "name" : "HAL_DATASPACE_STANDARD_BT601_625_UNADJUSTED"
    },
    {
     "enum_field_value" : 262144,
     "name" : "HAL_DATASPACE_STANDARD_BT601_525"
    },
    {
     "enum_field_value" : 327680,
     "name" : "HAL_DATASPACE_STANDARD_BT601_525_UNADJUSTED"
    },
    {
     "enum_field_value" : 393216,
     "name" : "HAL_DATASPACE_STANDARD_BT2020"
    },
    {
     "enum_field_value" : 458752,
     "name" : "HAL_DATASPACE_STANDARD_BT2020_CONSTANT_LUMINANCE"
    },
    {
     "enum_field_value" : 524288,
     "name" : "HAL_DATASPACE_STANDARD_BT470M"
    },
    {
     "enum_field_value" : 589824,
     "name" : "HAL_DATASPACE_STANDARD_FILM"
    },
    {
     "enum_field_value" : 655360,
     "name" : "HAL_DATASPACE_STANDARD_DCI_P3"
    },
    {
     "enum_field_value" : 720896,
     "name" : "HAL_DATASPACE_STANDARD_ADOBE_RGB"
    },
    {
     "enum_field_value" : 22,
     "name" : "HAL_DATASPACE_TRANSFER_SHIFT"
    },
    {
     "enum_field_value" : 130023424,
     "name" : "HAL_DATASPACE_TRANSFER_MASK"
    },
    {
     "enum_field_value" : 0,
     "name" : "HAL_DATASPACE_TRANSFER_UNSPECIFIED"
    },
    {
     "enum_field_value" : 4194304,
     "name" : "HAL_DATASPACE_TRANSFER_LINEAR"
    },
    {
     "enum_field_value" : 8388608,
     "name" : "HAL_DATASPACE_TRANSFER_SRGB"
    },
    {
     "enum_field_value" : 12582912,
     "name" : "HAL_DATASPACE_TRANSFER_SMPTE_170M"
    },
    {
     "enum_field_value" : 16777216,
     "name" : "HAL_DATASPACE_TRANSFER_GAMMA2_2"
    },
    {
     "enum_field_value" : 20971520,
     "name" : "HAL_DATASPACE_TRANSFER_GAMMA2_6"
    },
    {
     "enum_field_value" : 25165824,
     "name" : "HAL_DATASPACE_TRANSFER_GAMMA2_8"
    },
    {
     "enum_field_value" : 29360128,
     "name" : "HAL_DATASPACE_TRANSFER_ST2084"
    },
    {
     "enum_field_value" : 33554432,
     "name" : "HAL_DATASPACE_TRANSFER_HLG"
    },
    {
     "enum_field_value" : 27,
     "name" : "HAL_DATASPACE_RANGE_SHIFT"
    },
    {
     "enum_field_value" : 939524096,
     "name" : "HAL_DATASPACE_RANGE_MASK"
    },
    {
     "enum_field_value" : 0,
     "name" : "HAL_DATASPACE_RANGE_UNSPECIFIED"
    },
    {
     "enum_field_value" : 134217728,
     "name" : "HAL_DATASPACE_RANGE_FULL"
    },
    {
     "enum_field_value" : 268435456,
     "name" : "HAL_DATASPACE_RANGE_LIMITED"
    },
    {
     "enum_field_value" : 402653184,
     "name" : "HAL_DATASPACE_RANGE_EXTENDED"
    },
    {
     "enum_field_value" : 512,
     "name" : "HAL_DATASPACE_SRGB_LINEAR"
    },
    {
     "enum_field_value" : 138477568,
     "name" : "HAL_DATASPACE_V0_SRGB_LINEAR"
    },
    {
     "enum_field_value" : 406913024,
     "name" : "HAL_DATASPACE_V0_SCRGB_LINEAR"
    },
    {
     "enum_field_value" : 513,
     "name" : "HAL_DATASPACE_SRGB"
    },
    {
     "enum_field_value" : 142671872,
     "name" : "HAL_DATASPACE_V0_SRGB"
    },
    {
     "enum_field_value" : 411107328,
     "name" : "HAL_DATASPACE_V0_SCRGB"
    },
    {
     "enum_field_value" : 257,
     "name" : "HAL_DATASPACE_JFIF"
    },
    {
     "enum_field_value" : 146931712,
     "name" : "HAL_DATASPACE_V0_JFIF"
    },
    {
     "enum_field_value" : 258,
     "name" : "HAL_DATASPACE_BT601_625"
    },
    {
     "enum_field_value" : 281149440,
     "name" : "HAL_DATASPACE_V0_BT601_625"
    },
    {
     "enum_field_value" : 259,
     "name" : "HAL_DATASPACE_BT601_525"
    },
    {
     "enum_field_value" : 281280512,
     "name" : "HAL_DATASPACE_V0_BT601_525"
    },
    {
     "enum_field_value" : 260,
     "name" : "HAL_DATASPACE_BT709"
    },
    {
     "enum_field_value" : 281083904,
     "name" : "HAL_DATASPACE_V0_BT709"
    },
    {
     "enum_field_value" : 139067392,
     "name" : "HAL_DATASPACE_DCI_P3_LINEAR"
    },
    {
     "enum_field_value" : 155844608,
     "name" : "HAL_DATASPACE_DCI_P3"
    },
    {
     "enum_field_value" : 139067392,
     "name" : "HAL_DATASPACE_DISPLAY_P3_LINEAR"
    },
    {
     "enum_field_value" : 143261696,
     "name" : "HAL_DATASPACE_DISPLAY_P3"
    },
    {
     "enum_field_value" : 151715840,
     "name" : "HAL_DATASPACE_ADOBE_RGB"
    },
    {
     "enum_field_value" : 138805248,
     "name" : "HAL_DATASPACE_BT2020_LINEAR"
    },
    {
     "enum_field_value" : 147193856,
     "name" : "HAL_DATASPACE_BT2020"
    },
    {
     "enum_field_value" : 163971072,
     "name" : "HAL_DATASPACE_BT2020_PQ"
    },
    {
     "enum_field_value" : 4096,
     "name" : "HAL_DATASPACE_DEPTH"
    },
    {
     "enum_field_value" : 4097,
     "name" : "HAL_DATASPACE_SENSOR"
    }
   ],
   "linker_set_key" : "_ZTI19android_dataspace_t",
   "name" : "android_dataspace_t",
   "referenced_type" : "_ZTI19android_dataspace_t",
   "self_type" : "_ZTI19android_dataspace_t",
   "size" : 4,
   "source_file" : "/system/core/libsystem/include/system/graphics-base-v1.0.h",
   "underlying_type" : "_ZTIj"
  },
  {
   "alignment" : 4,
   "enum_fields" :
   [
    {
     "enum_field_value" : 0,
     "name" : "FLEX_FORMAT_INVALID"
    },
    {
     "enum_field_value" : 1,
     "name" : "FLEX_FORMAT_Y"
    },
    {
     "enum_field_value" : 7,
     "name" : "FLEX_FORMAT_YCbCr"
    },
    {
     "enum_field_value" : 1073741831,
     "name" : "FLEX_FORMAT_YCbCrA"
    },
    {
     "enum_field_value" : 7168,
     "name" : "FLEX_FORMAT_RGB"
    },
    {
     "enum_field_value" : 1073748992,
     "name" : "FLEX_FORMAT_RGBA"
    }
   ],
   "linker_set_key" : "_ZTI19android_flex_format",
   "name" : "android_flex_format",
   "referenced_type" : "_ZTI19android_flex_format",
   "self_type" : "_ZTI19android_flex_format",
   "size" : 4,
   "source_file" : "/system/core/libsystem/include/system/graphics.h",
   "underlying_type" : "_ZTIj"
  },
  {
   "alignment" : 4,
   "enum_fields" :
   [
    {
     "enum_field_value" : 1,
     "name" : "HAL_TRANSFORM_FLIP_H"
    },
    {
     "enum_field_value" : 2,
     "name" : "HAL_TRANSFORM_FLIP_V"
    },
    {
     "enum_field_value" : 4,
     "name" : "HAL_TRANSFORM_ROT_90"
    },
    {
     "enum_field_value" : 3,
     "name" : "HAL_TRANSFORM_ROT_180"
    },
    {
     "enum_field_value" : 7,
     "name" : "HAL_TRANSFORM_ROT_270"
    }
   ],
   "linker_set_key" : "_ZTI19android_transform_t",
   "name" : "android_transform_t",
   "referenced_type" : "_ZTI19android_transform_t",
   "self_type" : "_ZTI19android_transform_t",
   "size" : 4,
   "source_file" : "/system/core/libsystem/include/system/graphics-base-v1.0.h",
   "underlying_type" : "_ZTIj"
  },
  {
   "alignment" : 4,
   "enum_fields" :
   [
    {
     "enum_field_value" : 0,
     "name" : "HAL_COLOR_MODE_NATIVE"
    },
    {
     "enum_field_value" : 1,
     "name" : "HAL_COLOR_MODE_STANDARD_BT601_625"
    },
    {
     "enum_field_value" : 2,
     "name" : "HAL_COLOR_MODE_STANDARD_BT601_625_UNADJUSTED"
    },
    {
     "enum_field_value" : 3,
     "name" : "HAL_COLOR_MODE_STANDARD_BT601_525"
    },
    {
     "enum_field_value" : 4,
     "name" : "HAL_COLOR_MODE_STANDARD_BT601_525_UNADJUSTED"
    },
    {
     "enum_field_value" : 5,
     "name" : "HAL_COLOR_MODE_STANDARD_BT709"
    },
    {
     "enum_field_value" : 6,
     "name" : "HAL_COLOR_MODE_DCI_P3"
    },
    {
     "enum_field_value" : 7,
     "name" : "HAL_COLOR_MODE_SRGB"
    },
    {
     "enum_field_value" : 8,
     "name" : "HAL_COLOR_MODE_ADOBE_RGB"
    },
    {
     "enum_field_value" : 9,
     "name" : "HAL_COLOR_MODE_DISPLAY_P3"
    }
   ],
   "linker_set_key" : "_ZTI20android_color_mode_t",
   "name" : "android_color_mode_t",
   "referenced_type" : "_ZTI20android_color_mode_t",
   "self_type" : "_ZTI20android_color_mode_t",
   "size" : 4,
   "source_file" : "/system/core/libsystem/include/system/graphics-base-v1.0.h",
   "underlying_type" : "_ZTIj"
  },
  {
   "alignment" : 4,
   "enum_fields" :
   [
    {
     "enum_field_value" : 0,
     "name" : "SYSTEM_TIME_REALTIME"
    },
    {
     "enum_field_value" : 1,
     "name" : "SYSTEM_TIME_MONOTONIC"
    },
    {
     "enum_field_value" : 2,
     "name" : "SYSTEM_TIME_PROCESS"
    },
    {
     "enum_field_value" : 3,
     "name" : "SYSTEM_TIME_THREAD"
    },
    {
     "enum_field_value" : 4,
     "name" : "SYSTEM_TIME_BOOTTIME"
    }
   ],
   "linker_set_key" : "_ZTI21$SYSTEM_TIME_BOOTTIME",
   "name" : "(anonymous enum at system/core/libutils/include/utils/Timers.h:79:1)",
   "referenced_type" : "_ZTI21$SYSTEM_TIME_BOOTTIME",
   "self_type" : "_ZTI21$SYSTEM_TIME_BOOTTIME",
   "size" : 4,
   "source_file" : "/system/core/libutils/include/utils/Timers.h",
   "underlying_type" : "_ZTIj"
  },
  {
   "alignment" : 4,
   "enum_fields" :
   [
    {
     "enum_field_value" : 1,
     "name" : "FLEX_COMPONENT_Y"
    },
    {
     "enum_field_value" : 2,
     "name" : "FLEX_COMPONENT_Cb"
    },
    {
     "enum_field_value" : 4,
     "name" : "FLEX_COMPONENT_Cr"
    },
    {
     "enum_field_value" : 1024,
     "name" : "FLEX_COMPONENT_R"
    },
    {
     "enum_field_value" : 2048,
     "name" : "FLEX_COMPONENT_G"
    },
    {
     "enum_field_value" : 4096,
     "name" : "FLEX_COMPONENT_B"
    },
    {
     "enum_field_value" : 1073741824,
     "name" : "FLEX_COMPONENT_A"
    }
   ],
   "linker_set_key" : "_ZTI22android_flex_component",
   "name" : "android_flex_component",
   "referenced_type" : "_ZTI22android_flex_component",
   "self_type" : "_ZTI22android_flex_component",
   "size" : 4,
   "source_file" : "/system/core/libsystem/include/system/graphics.h",
   "underlying_type" : "_ZTIj"
  },
  {
   "alignment" : 4,
   "enum_fields" :
   [
    {
     "enum_field_value" : 1,
     "name" : "HAL_PIXEL_FORMAT_RGBA_8888"
    },
    {
     "enum_field_value" : 2,
     "name" : "HAL_PIXEL_FORMAT_RGBX_8888"
    },
    {
     "enum_field_value" : 3,
     "name" : "HAL_PIXEL_FORMAT_RGB_888"
    },
    {
     "enum_field_value" : 4,
     "name" : "HAL_PIXEL_FORMAT_RGB_565"
    },
    {
     "enum_field_value" : 5,
     "name" : "HAL_PIXEL_FORMAT_BGRA_8888"
    },
    {
     "enum_field_value" : 16,
     "name" : "HAL_PIXEL_FORMAT_YCBCR_422_SP"
    },
    {
     "enum_field_value" : 17,
     "name" : "HAL_PIXEL_FORMAT_YCRCB_420_SP"
    },
    {
     "enum_field_value" : 20,
     "name" : "HAL_PIXEL_FORMAT_YCBCR_422_I"
    },
    {
     "enum_field_value" : 22,
     "name" : "HAL_PIXEL_FORMAT_RGBA_FP16"
    },
    {
     "enum_field_value" : 32,
     "name" : "HAL_PIXEL_FORMAT_RAW16"
    },
    {
     "enum_field_value" : 33,
     "name" : "HAL_PIXEL_FORMAT_BLOB"
    },
    {
     "enum_field_value" : 34,
     "name" : "HAL_PIXEL_FORMAT_IMPLEMENTATION_DEFINED"
    },
    {
     "enum_field_value" : 35,
     "name" : "HAL_PIXEL_FORMAT_YCBCR_420_888"
    },
    {
     "enum_field_value" : 36,
     "name" : "HAL_PIXEL_FORMAT_RAW_OPAQUE"
    },
    {
     "enum_field_value" : 37,
     "name" : "HAL_PIXEL_FORMAT_RAW10"
    },
    {
     "enum_field_value" : 38,
     "name" : "HAL_PIXEL_FORMAT_RAW12"
    },
    {
     "enum_field_value" : 43,
     "name" : "HAL_PIXEL_FORMAT_RGBA_1010102"
    },
    {
     "enum_field_value" : 538982489,
     "name" : "HAL_PIXEL_FORMAT_Y8"
    },
    {
     "enum_field_value" : 540422489,
     "name" : "HAL_PIXEL_FORMAT_Y16"
    },
    {
     "enum_field_value" : 842094169,
     "name" : "HAL_PIXEL_FORMAT_YV12"
    }
   ],
   "linker_set_key" : "_ZTI22android_pixel_format_t",
   "name" : "android_pixel_format_t",
   "referenced_type" : "_ZTI22android_pixel_format_t",
   "self_type" : "_ZTI22android_pixel_format_t",
   "size" : 4,
   "source_file" : "/system/core/libsystem/include/system/graphics-base-v1.0.h",
   "underlying_type" : "_ZTIj"
  },
  {
   "alignment" : 4,
   "enum_fields" :
   [
    {
     "enum_field_value" : 19,
     "name" : "ANDROID_PRIORITY_LOWEST"
    },
    {
     "enum_field_value" : 10,
     "name" : "ANDROID_PRIORITY_BACKGROUND"
    },
    {
     "enum_field_value" : 0,
     "name" : "ANDROID_PRIORITY_NORMAL"
    },
    {
     "enum_field_value" : -2,
     "name" : "ANDROID_PRIORITY_FOREGROUND"
    },
    {
     "enum_field_value" : -4,
     "name" : "ANDROID_PRIORITY_DISPLAY"
    },
    {
     "enum_field_value" : -8,
     "name" : "ANDROID_PRIORITY_URGENT_DISPLAY"
    },
    {
     "enum_field_value" : -10,
     "name" : "ANDROID_PRIORITY_VIDEO"
    },
    {
     "enum_field_value" : -16,
     "name" : "ANDROID_PRIORITY_AUDIO"
    },
    {
     "enum_field_value" : -19,
     "name" : "ANDROID_PRIORITY_URGENT_AUDIO"
    },
    {
     "enum_field_value" : -20,
     "name" : "ANDROID_PRIORITY_HIGHEST"
    },
    {
     "enum_field_value" : 0,
     "name" : "ANDROID_PRIORITY_DEFAULT"
    },
    {
     "enum_field_value" : -1,
     "name" : "ANDROID_PRIORITY_MORE_FAVORABLE"
    },
    {
     "enum_field_value" : 1,
     "name" : "ANDROID_PRIORITY_LESS_FAVORABLE"
    }
   ],
   "linker_set_key" : "_ZTI23$ANDROID_PRIORITY_AUDIO",
   "name" : "(anonymous enum at system/core/libsystem/include/system/thread_defs.h:26:1)",
   "referenced_type" : "_ZTI23$ANDROID_PRIORITY_AUDIO",
   "self_type" : "_ZTI23$ANDROID_PRIORITY_AUDIO",
   "size" : 4,
   "source_file" : "/system/core/libsystem/include/system/thread_defs.h",
   "underlying_type" : "_ZTIi"
  },
  {
   "alignment" : 4,
   "enum_fields" :
   [
    {
     "enum_field_value" : 281411584,
     "name" : "HAL_DATASPACE_BT2020_ITU"
    },
    {
     "enum_field_value" : 298188800,
     "name" : "HAL_DATASPACE_BT2020_ITU_PQ"
    },
    {
     "enum_field_value" : 302383104,
     "name" : "HAL_DATASPACE_BT2020_ITU_HLG"
    },
    {
     "enum_field_value" : 168165376,
     "name" : "HAL_DATASPACE_BT2020_HLG"
    }
   ],
   "linker_set_key" : "_ZTI24android_dataspace_v1_1_t",
   "name" : "android_dataspace_v1_1_t",
   "referenced_type" : "_ZTI24android_dataspace_v1_1_t",
   "self_type" : "_ZTI24android_dataspace_v1_1_t",
   "size" : 4,
   "source_file" : "/system/core/libsystem/include/system/graphics-base-v1.1.h",
   "underlying_type" : "_ZTIj"
  },
  {
   "alignment" : 4,
   "enum_fields" :
   [
    {
     "enum_field_value" : 142999552,
     "name" : "HAL_DATASPACE_DISPLAY_BT2020"
    },
    {
     "enum_field_value" : 4098,
     "name" : "HAL_DATASPACE_DYNAMIC_DEPTH"
    },
    {
     "enum_field_value" : 4099,
     "name" : "HAL_DATASPACE_JPEG_APP_SEGMENTS"
    },
    {
     "enum_field_value" : 4100,
     "name" : "HAL_DATASPACE_HEIF"
    }
   ],
   "linker_set_key" : "_ZTI24android_dataspace_v1_2_t",
   "name" : "android_dataspace_v1_2_t",
   "referenced_type" : "_ZTI24android_dataspace_v1_2_t",
   "self_type" : "_ZTI24android_dataspace_v1_2_t",
   "size" : 4,
   "source_file" : "/system/core/libsystem/include/system/graphics-base-v1.2.h",
   "underlying_type" : "_ZTIj"
  },
  {
   "alignment" : 4,
   "enum_fields" :
   [
    {
     "enum_field_value" : 10,
     "name" : "HAL_COLOR_MODE_BT2020"
    },
    {
     "enum_field_value" : 11,
     "name" : "HAL_COLOR_MODE_BT2100_PQ"
    },
    {
     "enum_field_value" : 12,
     "name" : "HAL_COLOR_MODE_BT2100_HLG"
    }
   ],
   "linker_set_key" : "_ZTI25android_color_mode_v1_1_t",
   "name" : "android_color_mode_v1_1_t",
   "referenced_type" : "_ZTI25android_color_mode_v1_1_t",
   "self_type" : "_ZTI25android_color_mode_v1_1_t",
   "size" : 4,
   "source_file" : "/system/core/libsystem/include/system/graphics-base-v1.1.h",
   "underlying_type" : "_ZTIj"
  },
  {
   "alignment" : 4,
   "enum_fields" :
   [
    {
     "enum_field_value" : 0,
     "name" : "HAL_COLOR_TRANSFORM_IDENTITY"
    },
    {
     "enum_field_value" : 1,
     "name" : "HAL_COLOR_TRANSFORM_ARBITRARY_MATRIX"
    },
    {
     "enum_field_value" : 2,
     "name" : "HAL_COLOR_TRANSFORM_VALUE_INVERSE"
    },
    {
     "enum_field_value" : 3,
     "name" : "HAL_COLOR_TRANSFORM_GRAYSCALE"
    },
    {
     "enum_field_value" : 4,
     "name" : "HAL_COLOR_TRANSFORM_CORRECT_PROTANOPIA"
    },
    {
     "enum_field_value" : 5,
     "name" : "HAL_COLOR_TRANSFORM_CORRECT_DEUTERANOPIA"
    },
    {
     "enum_field_value" : 6,
     "name" : "HAL_COLOR_TRANSFORM_CORRECT_TRITANOPIA"
    }
   ],
   "linker_set_key" : "_ZTI25android_color_transform_t",
   "name" : "android_color_transform_t",
   "referenced_type" : "_ZTI25android_color_transform_t",
   "self_type" : "_ZTI25android_color_transform_t",
   "size" : 4,
   "source_file" : "/system/core/libsystem/include/system/graphics-base-v1.0.h",
   "underlying_type" : "_ZTIj"
  },
  {
   "alignment" : 4,
   "enum_fields" :
   [
    {
     "enum_field_value" : 39,
     "name" : "HAL_PIXEL_FORMAT_YCBCR_422_888"
    },
    {
     "enum_field_value" : 40,
     "name" : "HAL_PIXEL_FORMAT_YCBCR_444_888"
    },
    {
     "enum_field_value" : 41,
     "name" : "HAL_PIXEL_FORMAT_FLEX_RGB_888"
    },
    {
     "enum_field_value" : 42,
     "name" : "HAL_PIXEL_FORMAT_FLEX_RGBA_8888"
    }
   ],
   "linker_set_key" : "_ZTI25android_pixel_format_sw_t",
   "name" : "android_pixel_format_sw_t",
   "referenced_type" : "_ZTI25android_pixel_format_sw_t",
   "self_type" : "_ZTI25android_pixel_format_sw_t",
   "size" : 4,
   "source_file" : "/system/core/libsystem/include/system/graphics-sw.h",
   "underlying_type" : "_ZTIj"
  },
  {
   "alignment" : 4,
   "enum_fields" :
   [
    {
     "enum_field_value" : 48,
     "name" : "HAL_PIXEL_FORMAT_DEPTH_16"
    },
    {
     "enum_field_value" : 49,
     "name" : "HAL_PIXEL_FORMAT_DEPTH_24"
    },
    {
     "enum_field_value" : 50,
     "name" : "HAL_PIXEL_FORMAT_DEPTH_24_STENCIL_8"
    },
    {
     "enum_field_value" : 51,
     "name" : "HAL_PIXEL_FORMAT_DEPTH_32F"
    },
    {
     "enum_field_value" : 52,
     "name" : "HAL_PIXEL_FORMAT_DEPTH_32F_STENCIL_8"
    },
    {
     "enum_field_value" : 53,
     "name" : "HAL_PIXEL_FORMAT_STENCIL_8"
    },
    {
     "enum_field_value" : 54,
     "name" : "HAL_PIXEL_FORMAT_YCBCR_P010"
    }
   ],
   "linker_set_key" : "_ZTI27android_pixel_format_v1_1_t",
   "name" : "android_pixel_format_v1_1_t",
   "referenced_type" : "_ZTI27android_pixel_format_v1_1_t",
   "self_type" : "_ZTI27android_pixel_format_v1_1_t",
   "size" : 4,
   "source_file" : "/system/core/libsystem/include/system/graphics-base-v1.1.h",
   "underlying_type" : "_ZTIj"
  },
  {
   "alignment" : 4,
   "enum_fields" :
   [
    {
     "enum_field_value" : 55,
     "name" : "HAL_PIXEL_FORMAT_HSV_888"
    }
   ],
   "linker_set_key" : "_ZTI27android_pixel_format_v1_2_t",
   "name" : "android_pixel_format_v1_2_t",
   "referenced_type" : "_ZTI27android_pixel_format_v1_2_t",
   "self_type" : "_ZTI27android_pixel_format_v1_2_t",
   "size" : 4,
   "source_file" : "/system/core/libsystem/include/system/graphics-base-v1.2.h",
   "underlying_type" : "_ZTIj"
  },
  {
   "alignment" : 4,
   "enum_fields" :
   [
    {
     "enum_field_value" : 0,
     "name" : "HAL_RENDER_INTENT_COLORIMETRIC"
    },
    {
     "enum_field_value" : 1,
     "name" : "HAL_RENDER_INTENT_ENHANCE"
    },
    {
     "enum_field_value" : 2,
     "name" : "HAL_RENDER_INTENT_TONE_MAP_COLORIMETRIC"
    },
    {
     "enum_field_value" : 3,
     "name" : "HAL_RENDER_INTENT_TONE_MAP_ENHANCE"
    }
   ],
   "linker_set_key" : "_ZTI28android_render_intent_v1_1_t",
   "name" : "android_render_intent_v1_1_t",
   "referenced_type" : "_ZTI28android_render_intent_v1_1_t",
   "self_type" : "_ZTI28android_render_intent_v1_1_t",
   "size" : 4,
   "source_file" : "/system/core/libsystem/include/system/graphics-base-v1.1.h",
   "underlying_type" : "_ZTIj"
  },
  {
   "alignment" : 4,
   "enum_fields" :
   [
    {
     "enum_field_value" : 0,
     "name" : "LOG_ID_MIN"
    },
    {
     "enum_field_value" : 0,
     "name" : "LOG_ID_MAIN"
    },
    {
     "enum_field_value" : 1,
     "name" : "LOG_ID_RADIO"
    },
    {
     "enum_field_value" : 2,
     "name" : "LOG_ID_EVENTS"
    },
    {
     "enum_field_value" : 3,
     "name" : "LOG_ID_SYSTEM"
    },
    {
     "enum_field_value" : 4,
     "name" : "LOG_ID_CRASH"
    },
    {
     "enum_field_value" : 5,
     "name" : "LOG_ID_STATS"
    },
    {
     "enum_field_value" : 6,
     "name" : "LOG_ID_SECURITY"
    },
    {
     "enum_field_value" : 7,
     "name" : "LOG_ID_KERNEL"
    },
    {
     "enum_field_value" : 8,
     "name" : "LOG_ID_MAX"
    },
    {
     "enum_field_value" : 2147483647,
     "name" : "LOG_ID_DEFAULT"
    }
   ],
   "linker_set_key" : "_ZTI6log_id",
   "name" : "log_id",
   "referenced_type" : "_ZTI6log_id",
   "self_type" : "_ZTI6log_id",
   "size" : 4,
   "source_file" : "/system/core/liblog/include/android/log.h",
   "underlying_type" : "_ZTIj"
  },
  {
   "alignment" : 4,
   "enum_fields" :
   [
    {
     "enum_field_value" : 1,
     "name" : "android::VectorImpl::HAS_TRIVIAL_CTOR"
    },
    {
     "enum_field_value" : 2,
     "name" : "android::VectorImpl::HAS_TRIVIAL_DTOR"
    },
    {
     "enum_field_value" : 4,
     "name" : "android::VectorImpl::HAS_TRIVIAL_COPY"
    }
   ],
   "linker_set_key" : "_ZTIN7android10VectorImpl17$HAS_TRIVIAL_COPYE",
   "name" : "android::VectorImpl::(anonymous enum at system/core/libutils/include/utils/VectorImpl.h:43:5)",
   "referenced_type" : "_ZTIN7android10VectorImpl17$HAS_TRIVIAL_COPYE",
   "self_type" : "_ZTIN7android10VectorImpl17$HAS_TRIVIAL_COPYE",
   "size" : 4,
   "source_file" : "/system/core/libutils/include/utils/VectorImpl.h",
   "underlying_type" : "_ZTIj"
  },
  {
   "alignment" : 4,
   "enum_fields" :
   [
    {
     "enum_field_value" : 0,
     "name" : "android::OK"
    },
    {
     "enum_field_value" : 0,
     "name" : "android::NO_ERROR"
    },
    {
     "enum_field_value" : -2147483648,
     "name" : "android::UNKNOWN_ERROR"
    },
    {
     "enum_field_value" : -12,
     "name" : "android::NO_MEMORY"
    },
    {
     "enum_field_value" : -38,
     "name" : "android::INVALID_OPERATION"
    },
    {
     "enum_field_value" : -22,
     "name" : "android::BAD_VALUE"
    },
    {
     "enum_field_value" : -2147483647,
     "name" : "android::BAD_TYPE"
    },
    {
     "enum_field_value" : -2,
     "name" : "android::NAME_NOT_FOUND"
    },
    {
     "enum_field_value" : -1,
     "name" : "android::PERMISSION_DENIED"
    },
    {
     "enum_field_value" : -19,
     "name" : "android::NO_INIT"
    },
    {
     "enum_field_value" : -17,
     "name" : "android::ALREADY_EXISTS"
    },
    {
     "enum_field_value" : -32,
     "name" : "android::DEAD_OBJECT"
    },
    {
     "enum_field_value" : -2147483646,
     "name" : "android::FAILED_TRANSACTION"
    },
    {
     "enum_field_value" : -75,
     "name" : "android::BAD_INDEX"
    },
    {
     "enum_field_value" : -61,
     "name" : "android::NOT_ENOUGH_DATA"
    },
    {
     "enum_field_value" : -11,
     "name" : "android::WOULD_BLOCK"
    },
    {
     "enum_field_value" : -110,
     "name" : "android::TIMED_OUT"
    },
    {
     "enum_field_value" : -74,
     "name" : "android::UNKNOWN_TRANSACTION"
    },
    {
     "enum_field_value" : -2147483641,
     "name" : "android::FDS_NOT_ALLOWED"
    },
    {
     "enum_field_value" : -2147483640,
     "name" : "android::UNEXPECTED_NULL"
    }
   ],
   "linker_set_key" : "_ZTIN7android15$ALREADY_EXISTSE",
   "name" : "android::(anonymous enum at system/core/libutils/include/utils/Errors.h:43:1)",
   "referenced_type" : "_ZTIN7android15$ALREADY_EXISTSE",
   "self_type" : "_ZTIN7android15$ALREADY_EXISTSE",
   "size" : 4,
   "source_file" : "/system/core/libutils/include/utils/Errors.h",
   "underlying_type" : "_ZTIi"
  },
  {
   "alignment" : 4,
   "enum_fields" :
   [
    {
     "enum_field_value" : 19,
     "name" : "android::PRIORITY_LOWEST"
    },
    {
     "enum_field_value" : 10,
     "name" : "android::PRIORITY_BACKGROUND"
    },
    {
     "enum_field_value" : 0,
     "name" : "android::PRIORITY_NORMAL"
    },
    {
     "enum_field_value" : -2,
     "name" : "android::PRIORITY_FOREGROUND"
    },
    {
     "enum_field_value" : -4,
     "name" : "android::PRIORITY_DISPLAY"
    },
    {
     "enum_field_value" : -8,
     "name" : "android::PRIORITY_URGENT_DISPLAY"
    },
    {
     "enum_field_value" : -16,
     "name" : "android::PRIORITY_AUDIO"
    },
    {
     "enum_field_value" : -19,
     "name" : "android::PRIORITY_URGENT_AUDIO"
    },
    {
     "enum_field_value" : -20,
     "name" : "android::PRIORITY_HIGHEST"
    },
    {
     "enum_field_value" : 0,
     "name" : "android::PRIORITY_DEFAULT"
    },
    {
     "enum_field_value" : -1,
     "name" : "android::PRIORITY_MORE_FAVORABLE"
    },
    {
     "enum_field_value" : 1,
     "name" : "android::PRIORITY_LESS_FAVORABLE"
    }
   ],
   "linker_set_key" : "_ZTIN7android15$PRIORITY_AUDIOE",
   "name" : "android::(anonymous enum at system/core/libutils/include/utils/ThreadDefs.h:53:1)",
   "referenced_type" : "_ZTIN7android15$PRIORITY_AUDIOE",
   "self_type" : "_ZTIN7android15$PRIORITY_AUDIOE",
   "size" : 4,
   "source_file" : "/system/core/libutils/include/utils/ThreadDefs.h",
   "underlying_type" : "_ZTIi"
  },
  {
   "alignment" : 4,
   "enum_fields" :
   [
    {
     "enum_field_value" : 1,
     "name" : "android::trait_trivial_copy<bool>::value"
    }
   ],
   "linker_set_key" : "_ZTIN7android18trait_trivial_copyIbE6$valueE",
   "name" : "android::trait_trivial_copy<bool>::(anonymous enum at system/core/libutils/include/utils/TypeHelpers.h:98:1)",
   "referenced_type" : "_ZTIN7android18trait_trivial_copyIbE6$valueE",
   "self_type" : "_ZTIN7android18trait_trivial_copyIbE6$valueE",
   "size" : 4,
   "source_file" : "/system/core/libutils/include/utils/TypeHelpers.h",
   "underlying_type" : "_ZTIj"
  },
  {
   "alignment" : 4,
   "enum_fields" :
   [
    {
     "enum_field_value" : 1,
     "name" : "android::trait_trivial_copy<char>::value"
    }
   ],
   "linker_set_key" : "_ZTIN7android18trait_trivial_copyIcE6$valueE",
   "name" : "android::trait_trivial_copy<char>::(anonymous enum at system/core/libutils/include/utils/TypeHelpers.h:99:1)",
   "referenced_type" : "_ZTIN7android18trait_trivial_copyIcE6$valueE",
   "self_type" : "_ZTIN7android18trait_trivial_copyIcE6$valueE",
   "size" : 4,
   "source_file" : "/system/core/libutils/include/utils/TypeHelpers.h",
   "underlying_type" : "_ZTIj"
  },
  {
   "alignment" : 4,
   "enum_fields" :
   [
    {
     "enum_field_value" : 1,
     "name" : "android::trait_trivial_copy<double>::value"
    }
   ],
   "linker_set_key" : "_ZTIN7android18trait_trivial_copyIdE6$valueE",
   "name" : "android::trait_trivial_copy<double>::(anonymous enum at system/core/libutils/include/utils/TypeHelpers.h:110:1)",
   "referenced_type" : "_ZTIN7android18trait_trivial_copyIdE6$valueE",
   "self_type" : "_ZTIN7android18trait_trivial_copyIdE6$valueE",
   "size" : 4,
   "source_file" : "/system/core/libutils/include/utils/TypeHelpers.h",
   "underlying_type" : "_ZTIj"
  },
  {
   "alignment" : 4,
   "enum_fields" :
   [
    {
     "enum_field_value" : 1,
     "name" : "android::trait_trivial_copy<float>::value"
    }
   ],
   "linker_set_key" : "_ZTIN7android18trait_trivial_copyIfE6$valueE",
   "name" : "android::trait_trivial_copy<float>::(anonymous enum at system/core/libutils/include/utils/TypeHelpers.h:109:1)",
   "referenced_type" : "_ZTIN7android18trait_trivial_copyIfE6$valueE",
   "self_type" : "_ZTIN7android18trait_trivial_copyIfE6$valueE",
   "size" : 4,
   "source_file" : "/system/core/libutils/include/utils/TypeHelpers.h",
   "underlying_type" : "_ZTIj"
  },
  {
   "alignment" : 4,
   "enum_fields" :
   [
    {
     "enum_field_value" : 1,
     "name" : "android::trait_trivial_copy<unsigned char>::value"
    }
   ],
   "linker_set_key" : "_ZTIN7android18trait_trivial_copyIhE6$valueE",
   "name" : "android::trait_trivial_copy<unsigned char>::(anonymous enum at system/core/libutils/include/utils/TypeHelpers.h:100:1)",
   "referenced_type" : "_ZTIN7android18trait_trivial_copyIhE6$valueE",
   "self_type" : "_ZTIN7android18trait_trivial_copyIhE6$valueE",
   "size" : 4,
   "source_file" : "/system/core/libutils/include/utils/TypeHelpers.h",
   "underlying_type" : "_ZTIj"
  },
  {
   "alignment" : 4,
   "enum_fields" :
   [
    {
     "enum_field_value" : 1,
     "name" : "android::trait_trivial_copy<int>::value"
    }
   ],
   "linker_set_key" : "_ZTIN7android18trait_trivial_copyIiE6$valueE",
   "name" : "android::trait_trivial_copy<int>::(anonymous enum at system/core/libutils/include/utils/TypeHelpers.h:103:1)",
   "referenced_type" : "_ZTIN7android18trait_trivial_copyIiE6$valueE",
   "self_type" : "_ZTIN7android18trait_trivial_copyIiE6$valueE",
   "size" : 4,
   "source_file" : "/system/core/libutils/include/utils/TypeHelpers.h",
   "underlying_type" : "_ZTIj"
  },
  {
   "alignment" : 4,
   "enum_fields" :
   [
    {
     "enum_field_value" : 1,
     "name" : "android::trait_trivial_copy<unsigned int>::value"
    }
   ],
   "linker_set_key" : "_ZTIN7android18trait_trivial_copyIjE6$valueE",
   "name" : "android::trait_trivial_copy<unsigned int>::(anonymous enum at system/core/libutils/include/utils/TypeHelpers.h:104:1)",
   "referenced_type" : "_ZTIN7android18trait_trivial_copyIjE6$valueE",
   "self_type" : "_ZTIN7android18trait_trivial_copyIjE6$valueE",
   "size" : 4,
   "source_file" : "/system/core/libutils/include/utils/TypeHelpers.h",
   "underlying_type" : "_ZTIj"
  },
  {
   "alignment" : 4,
   "enum_fields" :
   [
    {
     "enum_field_value" : 1,
     "name" : "android::trait_trivial_copy<long>::value"
    }
   ],
   "linker_set_key" : "_ZTIN7android18trait_trivial_copyIlE6$valueE",
   "name" : "android::trait_trivial_copy<long>::(anonymous enum at system/core/libutils/include/utils/TypeHelpers.h:105:1)",
   "referenced_type" : "_ZTIN7android18trait_trivial_copyIlE6$valueE",
   "self_type" : "_ZTIN7android18trait_trivial_copyIlE6$valueE",
   "size" : 4,
   "source_file" : "/system/core/libutils/include/utils/TypeHelpers.h",
   "underlying_type" : "_ZTIj"
  },
  {
   "alignment" : 4,
   "enum_fields" :
   [
    {
     "enum_field_value" : 1,
     "name" : "android::trait_trivial_copy<unsigned long>::value"
    }
   ],
   "linker_set_key" : "_ZTIN7android18trait_trivial_copyImE6$valueE",
   "name" : "android::trait_trivial_copy<unsigned long>::(anonymous enum at system/core/libutils/include/utils/TypeHelpers.h:106:1)",
   "referenced_type" : "_ZTIN7android18trait_trivial_copyImE6$valueE",
   "self_type" : "_ZTIN7android18trait_trivial_copyImE6$valueE",
   "size" : 4,
   "source_file" : "/system/core/libutils/include/utils/TypeHelpers.h",
   "underlying_type" : "_ZTIj"
  },
  {
   "alignment" : 4,
   "enum_fields" :
   [
    {
     "enum_field_value" : 1,
     "name" : "android::trait_trivial_copy<short>::value"
    }
   ],
   "linker_set_key" : "_ZTIN7android18trait_trivial_copyIsE6$valueE",
   "name" : "android::trait_trivial_copy<short>::(anonymous enum at system/core/libutils/include/utils/TypeHelpers.h:101:1)",
   "referenced_type" : "_ZTIN7android18trait_trivial_copyIsE6$valueE",
   "self_type" : "_ZTIN7android18trait_trivial_copyIsE6$valueE",
   "size" : 4,
   "source_file" : "/system/core/libutils/include/utils/TypeHelpers.h",
   "underlying_type" : "_ZTIj"
  },
  {
   "alignment" : 4,
   "enum_fields" :
   [
    {
     "enum_field_value" : 1,
     "name" : "android::trait_trivial_copy<unsigned short>::value"
    }
   ],
   "linker_set_key" : "_ZTIN7android18trait_trivial_copyItE6$valueE",
   "name" : "android::trait_trivial_copy<unsigned short>::(anonymous enum at system/core/libutils/include/utils/TypeHelpers.h:102:1)",
   "referenced_type" : "_ZTIN7android18trait_trivial_copyItE6$valueE",
   "self_type" : "_ZTIN7android18trait_trivial_copyItE6$valueE",
   "size" : 4,
   "source_file" : "/system/core/libutils/include/utils/TypeHelpers.h",
   "underlying_type" : "_ZTIj"
  },
  {
   "alignment" : 4,
   "enum_fields" :
   [
    {
     "enum_field_value" : 1,
     "name" : "android::trait_trivial_copy<void>::value"
    }
   ],
   "linker_set_key" : "_ZTIN7android18trait_trivial_copyIvE6$valueE",
   "name" : "android::trait_trivial_copy<void>::(anonymous enum at system/core/libutils/include/utils/TypeHelpers.h:97:1)",
   "referenced_type" : "_ZTIN7android18trait_trivial_copyIvE6$valueE",
   "self_type" : "_ZTIN7android18trait_trivial_copyIvE6$valueE",
   "size" : 4,
   "source_file" : "/system/core/libutils/include/utils/TypeHelpers.h",
   "underlying_type" : "_ZTIj"
  },
  {
   "alignment" : 4,
   "enum_fields" :
   [
    {
     "enum_field_value" : 1,
     "name" : "android::trait_trivial_copy<long long>::value"
    }
   ],
   "linker_set_key" : "_ZTIN7android18trait_trivial_copyIxE6$valueE",
   "name" : "android::trait_trivial_copy<long long>::(anonymous enum at system/core/libutils/include/utils/TypeHelpers.h:107:1)",
   "referenced_type" : "_ZTIN7android18trait_trivial_copyIxE6$valueE",
   "self_type" : "_ZTIN7android18trait_trivial_copyIxE6$valueE",
   "size" : 4,
   "source_file" : "/system/core/libutils/include/utils/TypeHelpers.h",
   "underlying_type" : "_ZTIj"
  },
  {
   "alignment" : 4,
   "enum_fields" :
   [
    {
     "enum_field_value" : 1,
     "name" : "android::trait_trivial_copy<unsigned long long>::value"
    }
   ],
   "linker_set_key" : "_ZTIN7android18trait_trivial_copyIyE6$valueE",
   "name" : "android::trait_trivial_copy<unsigned long long>::(anonymous enum at system/core/libutils/include/utils/TypeHelpers.h:108:1)",
   "referenced_type" : "_ZTIN7android18trait_trivial_copyIyE6$valueE",
   "self_type" : "_ZTIN7android18trait_trivial_copyIyE6$valueE",
   "size" : 4,
   "source_file" : "/system/core/libutils/include/utils/TypeHelpers.h",
   "underlying_type" : "_ZTIj"
  },
  {
   "alignment" : 4,
   "enum_fields" :
   [
    {
     "enum_field_value" : 1,
     "name" : "android::trait_trivial_ctor<bool>::value"
    }
   ],
   "linker_set_key" : "_ZTIN7android18trait_trivial_ctorIbE6$valueE",
   "name" : "android::trait_trivial_ctor<bool>::(anonymous enum at system/core/libutils/include/utils/TypeHelpers.h:98:1)",
   "referenced_type" : "_ZTIN7android18trait_trivial_ctorIbE6$valueE",
   "self_type" : "_ZTIN7android18trait_trivial_ctorIbE6$valueE",
   "size" : 4,
   "source_file" : "/system/core/libutils/include/utils/TypeHelpers.h",
   "underlying_type" : "_ZTIj"
  },
  {
   "alignment" : 4,
   "enum_fields" :
   [
    {
     "enum_field_value" : 1,
     "name" : "android::trait_trivial_ctor<char>::value"
    }
   ],
   "linker_set_key" : "_ZTIN7android18trait_trivial_ctorIcE6$valueE",
   "name" : "android::trait_trivial_ctor<char>::(anonymous enum at system/core/libutils/include/utils/TypeHelpers.h:99:1)",
   "referenced_type" : "_ZTIN7android18trait_trivial_ctorIcE6$valueE",
   "self_type" : "_ZTIN7android18trait_trivial_ctorIcE6$valueE",
   "size" : 4,
   "source_file" : "/system/core/libutils/include/utils/TypeHelpers.h",
   "underlying_type" : "_ZTIj"
  },
  {
   "alignment" : 4,
   "enum_fields" :
   [
    {
     "enum_field_value" : 1,
     "name" : "android::trait_trivial_ctor<double>::value"
    }
   ],
   "linker_set_key" : "_ZTIN7android18trait_trivial_ctorIdE6$valueE",
   "name" : "android::trait_trivial_ctor<double>::(anonymous enum at system/core/libutils/include/utils/TypeHelpers.h:110:1)",
   "referenced_type" : "_ZTIN7android18trait_trivial_ctorIdE6$valueE",
   "self_type" : "_ZTIN7android18trait_trivial_ctorIdE6$valueE",
   "size" : 4,
   "source_file" : "/system/core/libutils/include/utils/TypeHelpers.h",
   "underlying_type" : "_ZTIj"
  },
  {
   "alignment" : 4,
   "enum_fields" :
   [
    {
     "enum_field_value" : 1,
     "name" : "android::trait_trivial_ctor<float>::value"
    }
   ],
   "linker_set_key" : "_ZTIN7android18trait_trivial_ctorIfE6$valueE",
   "name" : "android::trait_trivial_ctor<float>::(anonymous enum at system/core/libutils/include/utils/TypeHelpers.h:109:1)",
   "referenced_type" : "_ZTIN7android18trait_trivial_ctorIfE6$valueE",
   "self_type" : "_ZTIN7android18trait_trivial_ctorIfE6$valueE",
   "size" : 4,
   "source_file" : "/system/core/libutils/include/utils/TypeHelpers.h",
   "underlying_type" : "_ZTIj"
  },
  {
   "alignment" : 4,
   "enum_fields" :
   [
    {
     "enum_field_value" : 1,
     "name" : "android::trait_trivial_ctor<unsigned char>::value"
    }
   ],
   "linker_set_key" : "_ZTIN7android18trait_trivial_ctorIhE6$valueE",
   "name" : "android::trait_trivial_ctor<unsigned char>::(anonymous enum at system/core/libutils/include/utils/TypeHelpers.h:100:1)",
   "referenced_type" : "_ZTIN7android18trait_trivial_ctorIhE6$valueE",
   "self_type" : "_ZTIN7android18trait_trivial_ctorIhE6$valueE",
   "size" : 4,
   "source_file" : "/system/core/libutils/include/utils/TypeHelpers.h",
   "underlying_type" : "_ZTIj"
  },
  {
   "alignment" : 4,
   "enum_fields" :
   [
    {
     "enum_field_value" : 1,
     "name" : "android::trait_trivial_ctor<int>::value"
    }
   ],
   "linker_set_key" : "_ZTIN7android18trait_trivial_ctorIiE6$valueE",
   "name" : "android::trait_trivial_ctor<int>::(anonymous enum at system/core/libutils/include/utils/TypeHelpers.h:103:1)",
   "referenced_type" : "_ZTIN7android18trait_trivial_ctorIiE6$valueE",
   "self_type" : "_ZTIN7android18trait_trivial_ctorIiE6$valueE",
   "size" : 4,
   "source_file" : "/system/core/libutils/include/utils/TypeHelpers.h",
   "underlying_type" : "_ZTIj"
  },
  {
   "alignment" : 4,
   "enum_fields" :
   [
    {
     "enum_field_value" : 1,
     "name" : "android::trait_trivial_ctor<unsigned int>::value"
    }
   ],
   "linker_set_key" : "_ZTIN7android18trait_trivial_ctorIjE6$valueE",
   "name" : "android::trait_trivial_ctor<unsigned int>::(anonymous enum at system/core/libutils/include/utils/TypeHelpers.h:104:1)",
   "referenced_type" : "_ZTIN7android18trait_trivial_ctorIjE6$valueE",
   "self_type" : "_ZTIN7android18trait_trivial_ctorIjE6$valueE",
   "size" : 4,
   "source_file" : "/system/core/libutils/include/utils/TypeHelpers.h",
   "underlying_type" : "_ZTIj"
  },
  {
   "alignment" : 4,
   "enum_fields" :
   [
    {
     "enum_field_value" : 1,
     "name" : "android::trait_trivial_ctor<long>::value"
    }
   ],
   "linker_set_key" : "_ZTIN7android18trait_trivial_ctorIlE6$valueE",
   "name" : "android::trait_trivial_ctor<long>::(anonymous enum at system/core/libutils/include/utils/TypeHelpers.h:105:1)",
   "referenced_type" : "_ZTIN7android18trait_trivial_ctorIlE6$valueE",
   "self_type" : "_ZTIN7android18trait_trivial_ctorIlE6$valueE",
   "size" : 4,
   "source_file" : "/system/core/libutils/include/utils/TypeHelpers.h",
   "underlying_type" : "_ZTIj"
  },
  {
   "alignment" : 4,
   "enum_fields" :
   [
    {
     "enum_field_value" : 1,
     "name" : "android::trait_trivial_ctor<unsigned long>::value"
    }
   ],
   "linker_set_key" : "_ZTIN7android18trait_trivial_ctorImE6$valueE",
   "name" : "android::trait_trivial_ctor<unsigned long>::(anonymous enum at system/core/libutils/include/utils/TypeHelpers.h:106:1)",
   "referenced_type" : "_ZTIN7android18trait_trivial_ctorImE6$valueE",
   "self_type" : "_ZTIN7android18trait_trivial_ctorImE6$valueE",
   "size" : 4,
   "source_file" : "/system/core/libutils/include/utils/TypeHelpers.h",
   "underlying_type" : "_ZTIj"
  },
  {
   "alignment" : 4,
   "enum_fields" :
   [
    {
     "enum_field_value" : 1,
     "name" : "android::trait_trivial_ctor<short>::value"
    }
   ],
   "linker_set_key" : "_ZTIN7android18trait_trivial_ctorIsE6$valueE",
   "name" : "android::trait_trivial_ctor<short>::(anonymous enum at system/core/libutils/include/utils/TypeHelpers.h:101:1)",
   "referenced_type" : "_ZTIN7android18trait_trivial_ctorIsE6$valueE",
   "self_type" : "_ZTIN7android18trait_trivial_ctorIsE6$valueE",
   "size" : 4,
   "source_file" : "/system/core/libutils/include/utils/TypeHelpers.h",
   "underlying_type" : "_ZTIj"
  },
  {
   "alignment" : 4,
   "enum_fields" :
   [
    {
     "enum_field_value" : 1,
     "name" : "android::trait_trivial_ctor<unsigned short>::value"
    }
   ],
   "linker_set_key" : "_ZTIN7android18trait_trivial_ctorItE6$valueE",
   "name" : "android::trait_trivial_ctor<unsigned short>::(anonymous enum at system/core/libutils/include/utils/TypeHelpers.h:102:1)",
   "referenced_type" : "_ZTIN7android18trait_trivial_ctorItE6$valueE",
   "self_type" : "_ZTIN7android18trait_trivial_ctorItE6$valueE",
   "size" : 4,
   "source_file" : "/system/core/libutils/include/utils/TypeHelpers.h",
   "underlying_type" : "_ZTIj"
  },
  {
   "alignment" : 4,
   "enum_fields" :
   [
    {
     "enum_field_value" : 1,
     "name" : "android::trait_trivial_ctor<void>::value"
    }
   ],
   "linker_set_key" : "_ZTIN7android18trait_trivial_ctorIvE6$valueE",
   "name" : "android::trait_trivial_ctor<void>::(anonymous enum at system/core/libutils/include/utils/TypeHelpers.h:97:1)",
   "referenced_type" : "_ZTIN7android18trait_trivial_ctorIvE6$valueE",
   "self_type" : "_ZTIN7android18trait_trivial_ctorIvE6$valueE",
   "size" : 4,
   "source_file" : "/system/core/libutils/include/utils/TypeHelpers.h",
   "underlying_type" : "_ZTIj"
  },
  {
   "alignment" : 4,
   "enum_fields" :
   [
    {
     "enum_field_value" : 1,
     "name" : "android::trait_trivial_ctor<long long>::value"
    }
   ],
   "linker_set_key" : "_ZTIN7android18trait_trivial_ctorIxE6$valueE",
   "name" : "android::trait_trivial_ctor<long long>::(anonymous enum at system/core/libutils/include/utils/TypeHelpers.h:107:1)",
   "referenced_type" : "_ZTIN7android18trait_trivial_ctorIxE6$valueE",
   "self_type" : "_ZTIN7android18trait_trivial_ctorIxE6$valueE",
   "size" : 4,
   "source_file" : "/system/core/libutils/include/utils/TypeHelpers.h",
   "underlying_type" : "_ZTIj"
  },
  {
   "alignment" : 4,
   "enum_fields" :
   [
    {
     "enum_field_value" : 1,
     "name" : "android::trait_trivial_ctor<unsigned long long>::value"
    }
   ],
   "linker_set_key" : "_ZTIN7android18trait_trivial_ctorIyE6$valueE",
   "name" : "android::trait_trivial_ctor<unsigned long long>::(anonymous enum at system/core/libutils/include/utils/TypeHelpers.h:108:1)",
   "referenced_type" : "_ZTIN7android18trait_trivial_ctorIyE6$valueE",
   "self_type" : "_ZTIN7android18trait_trivial_ctorIyE6$valueE",
   "size" : 4,
   "source_file" : "/system/core/libutils/include/utils/TypeHelpers.h",
   "underlying_type" : "_ZTIj"
  },
  {
   "alignment" : 4,
   "enum_fields" :
   [
    {
     "enum_field_value" : 1,
     "name" : "android::trait_trivial_dtor<bool>::value"
    }
   ],
   "linker_set_key" : "_ZTIN7android18trait_trivial_dtorIbE6$valueE",
   "name" : "android::trait_trivial_dtor<bool>::(anonymous enum at system/core/libutils/include/utils/TypeHelpers.h:98:1)",
   "referenced_type" : "_ZTIN7android18trait_trivial_dtorIbE6$valueE",
   "self_type" : "_ZTIN7android18trait_trivial_dtorIbE6$valueE",
   "size" : 4,
   "source_file" : "/system/core/libutils/include/utils/TypeHelpers.h",
   "underlying_type" : "_ZTIj"
  },
  {
   "alignment" : 4,
   "enum_fields" :
   [
    {
     "enum_field_value" : 1,
     "name" : "android::trait_trivial_dtor<char>::value"
    }
   ],
   "linker_set_key" : "_ZTIN7android18trait_trivial_dtorIcE6$valueE",
   "name" : "android::trait_trivial_dtor<char>::(anonymous enum at system/core/libutils/include/utils/TypeHelpers.h:99:1)",
   "referenced_type" : "_ZTIN7android18trait_trivial_dtorIcE6$valueE",
   "self_type" : "_ZTIN7android18trait_trivial_dtorIcE6$valueE",
   "size" : 4,
   "source_file" : "/system/core/libutils/include/utils/TypeHelpers.h",
   "underlying_type" : "_ZTIj"
  },
  {
   "alignment" : 4,
   "enum_fields" :
   [
    {
     "enum_field_value" : 1,
     "name" : "android::trait_trivial_dtor<double>::value"
    }
   ],
   "linker_set_key" : "_ZTIN7android18trait_trivial_dtorIdE6$valueE",
   "name" : "android::trait_trivial_dtor<double>::(anonymous enum at system/core/libutils/include/utils/TypeHelpers.h:110:1)",
   "referenced_type" : "_ZTIN7android18trait_trivial_dtorIdE6$valueE",
   "self_type" : "_ZTIN7android18trait_trivial_dtorIdE6$valueE",
   "size" : 4,
   "source_file" : "/system/core/libutils/include/utils/TypeHelpers.h",
   "underlying_type" : "_ZTIj"
  },
  {
   "alignment" : 4,
   "enum_fields" :
   [
    {
     "enum_field_value" : 1,
     "name" : "android::trait_trivial_dtor<float>::value"
    }
   ],
   "linker_set_key" : "_ZTIN7android18trait_trivial_dtorIfE6$valueE",
   "name" : "android::trait_trivial_dtor<float>::(anonymous enum at system/core/libutils/include/utils/TypeHelpers.h:109:1)",
   "referenced_type" : "_ZTIN7android18trait_trivial_dtorIfE6$valueE",
   "self_type" : "_ZTIN7android18trait_trivial_dtorIfE6$valueE",
   "size" : 4,
   "source_file" : "/system/core/libutils/include/utils/TypeHelpers.h",
   "underlying_type" : "_ZTIj"
  },
  {
   "alignment" : 4,
   "enum_fields" :
   [
    {
     "enum_field_value" : 1,
     "name" : "android::trait_trivial_dtor<unsigned char>::value"
    }
   ],
   "linker_set_key" : "_ZTIN7android18trait_trivial_dtorIhE6$valueE",
   "name" : "android::trait_trivial_dtor<unsigned char>::(anonymous enum at system/core/libutils/include/utils/TypeHelpers.h:100:1)",
   "referenced_type" : "_ZTIN7android18trait_trivial_dtorIhE6$valueE",
   "self_type" : "_ZTIN7android18trait_trivial_dtorIhE6$valueE",
   "size" : 4,
   "source_file" : "/system/core/libutils/include/utils/TypeHelpers.h",
   "underlying_type" : "_ZTIj"
  },
  {
   "alignment" : 4,
   "enum_fields" :
   [
    {
     "enum_field_value" : 1,
     "name" : "android::trait_trivial_dtor<int>::value"
    }
   ],
   "linker_set_key" : "_ZTIN7android18trait_trivial_dtorIiE6$valueE",
   "name" : "android::trait_trivial_dtor<int>::(anonymous enum at system/core/libutils/include/utils/TypeHelpers.h:103:1)",
   "referenced_type" : "_ZTIN7android18trait_trivial_dtorIiE6$valueE",
   "self_type" : "_ZTIN7android18trait_trivial_dtorIiE6$valueE",
   "size" : 4,
   "source_file" : "/system/core/libutils/include/utils/TypeHelpers.h",
   "underlying_type" : "_ZTIj"
  },
  {
   "alignment" : 4,
   "enum_fields" :
   [
    {
     "enum_field_value" : 1,
     "name" : "android::trait_trivial_dtor<unsigned int>::value"
    }
   ],
   "linker_set_key" : "_ZTIN7android18trait_trivial_dtorIjE6$valueE",
   "name" : "android::trait_trivial_dtor<unsigned int>::(anonymous enum at system/core/libutils/include/utils/TypeHelpers.h:104:1)",
   "referenced_type" : "_ZTIN7android18trait_trivial_dtorIjE6$valueE",
   "self_type" : "_ZTIN7android18trait_trivial_dtorIjE6$valueE",
   "size" : 4,
   "source_file" : "/system/core/libutils/include/utils/TypeHelpers.h",
   "underlying_type" : "_ZTIj"
  },
  {
   "alignment" : 4,
   "enum_fields" :
   [
    {
     "enum_field_value" : 1,
     "name" : "android::trait_trivial_dtor<long>::value"
    }
   ],
   "linker_set_key" : "_ZTIN7android18trait_trivial_dtorIlE6$valueE",
   "name" : "android::trait_trivial_dtor<long>::(anonymous enum at system/core/libutils/include/utils/TypeHelpers.h:105:1)",
   "referenced_type" : "_ZTIN7android18trait_trivial_dtorIlE6$valueE",
   "self_type" : "_ZTIN7android18trait_trivial_dtorIlE6$valueE",
   "size" : 4,
   "source_file" : "/system/core/libutils/include/utils/TypeHelpers.h",
   "underlying_type" : "_ZTIj"
  },
  {
   "alignment" : 4,
   "enum_fields" :
   [
    {
     "enum_field_value" : 1,
     "name" : "android::trait_trivial_dtor<unsigned long>::value"
    }
   ],
   "linker_set_key" : "_ZTIN7android18trait_trivial_dtorImE6$valueE",
   "name" : "android::trait_trivial_dtor<unsigned long>::(anonymous enum at system/core/libutils/include/utils/TypeHelpers.h:106:1)",
   "referenced_type" : "_ZTIN7android18trait_trivial_dtorImE6$valueE",
   "self_type" : "_ZTIN7android18trait_trivial_dtorImE6$valueE",
   "size" : 4,
   "source_file" : "/system/core/libutils/include/utils/TypeHelpers.h",
   "underlying_type" : "_ZTIj"
  },
  {
   "alignment" : 4,
   "enum_fields" :
   [
    {
     "enum_field_value" : 1,
     "name" : "android::trait_trivial_dtor<short>::value"
    }
   ],
   "linker_set_key" : "_ZTIN7android18trait_trivial_dtorIsE6$valueE",
   "name" : "android::trait_trivial_dtor<short>::(anonymous enum at system/core/libutils/include/utils/TypeHelpers.h:101:1)",
   "referenced_type" : "_ZTIN7android18trait_trivial_dtorIsE6$valueE",
   "self_type" : "_ZTIN7android18trait_trivial_dtorIsE6$valueE",
   "size" : 4,
   "source_file" : "/system/core/libutils/include/utils/TypeHelpers.h",
   "underlying_type" : "_ZTIj"
  },
  {
   "alignment" : 4,
   "enum_fields" :
   [
    {
     "enum_field_value" : 1,
     "name" : "android::trait_trivial_dtor<unsigned short>::value"
    }
   ],
   "linker_set_key" : "_ZTIN7android18trait_trivial_dtorItE6$valueE",
   "name" : "android::trait_trivial_dtor<unsigned short>::(anonymous enum at system/core/libutils/include/utils/TypeHelpers.h:102:1)",
   "referenced_type" : "_ZTIN7android18trait_trivial_dtorItE6$valueE",
   "self_type" : "_ZTIN7android18trait_trivial_dtorItE6$valueE",
   "size" : 4,
   "source_file" : "/system/core/libutils/include/utils/TypeHelpers.h",
   "underlying_type" : "_ZTIj"
  },
  {
   "alignment" : 4,
   "enum_fields" :
   [
    {
     "enum_field_value" : 1,
     "name" : "android::trait_trivial_dtor<void>::value"
    }
   ],
   "linker_set_key" : "_ZTIN7android18trait_trivial_dtorIvE6$valueE",
   "name" : "android::trait_trivial_dtor<void>::(anonymous enum at system/core/libutils/include/utils/TypeHelpers.h:97:1)",
   "referenced_type" : "_ZTIN7android18trait_trivial_dtorIvE6$valueE",
   "self_type" : "_ZTIN7android18trait_trivial_dtorIvE6$valueE",
   "size" : 4,
   "source_file" : "/system/core/libutils/include/utils/TypeHelpers.h",
   "underlying_type" : "_ZTIj"
  },
  {
   "alignment" : 4,
   "enum_fields" :
   [
    {
     "enum_field_value" : 1,
     "name" : "android::trait_trivial_dtor<long long>::value"
    }
   ],
   "linker_set_key" : "_ZTIN7android18trait_trivial_dtorIxE6$valueE",
   "name" : "android::trait_trivial_dtor<long long>::(anonymous enum at system/core/libutils/include/utils/TypeHelpers.h:107:1)",
   "referenced_type" : "_ZTIN7android18trait_trivial_dtorIxE6$valueE",
   "self_type" : "_ZTIN7android18trait_trivial_dtorIxE6$valueE",
   "size" : 4,
   "source_file" : "/system/core/libutils/include/utils/TypeHelpers.h",
   "underlying_type" : "_ZTIj"
  },
  {
   "alignment" : 4,
   "enum_fields" :
   [
    {
     "enum_field_value" : 1,
     "name" : "android::trait_trivial_dtor<unsigned long long>::value"
    }
   ],
   "linker_set_key" : "_ZTIN7android18trait_trivial_dtorIyE6$valueE",
   "name" : "android::trait_trivial_dtor<unsigned long long>::(anonymous enum at system/core/libutils/include/utils/TypeHelpers.h:108:1)",
   "referenced_type" : "_ZTIN7android18trait_trivial_dtorIyE6$valueE",
   "self_type" : "_ZTIN7android18trait_trivial_dtorIyE6$valueE",
   "size" : 4,
   "source_file" : "/system/core/libutils/include/utils/TypeHelpers.h",
   "underlying_type" : "_ZTIj"
  },
  {
   "alignment" : 4,
   "enum_fields" :
   [
    {
     "enum_field_value" : 1,
     "name" : "android::trait_trivial_move<android::String8>::value"
    }
   ],
   "linker_set_key" : "_ZTIN7android18trait_trivial_moveINS_7String8EE6$valueE",
   "name" : "android::trait_trivial_move<String8>::(anonymous enum at system/core/libutils/include/utils/String8.h:242:1)",
   "referenced_type" : "_ZTIN7android18trait_trivial_moveINS_7String8EE6$valueE",
   "self_type" : "_ZTIN7android18trait_trivial_moveINS_7String8EE6$valueE",
   "size" : 4,
   "source_file" : "/system/core/libutils/include/utils/String8.h",
   "underlying_type" : "_ZTIj"
  },
  {
   "alignment" : 4,
   "enum_fields" :
   [
    {
     "enum_field_value" : 1,
     "name" : "android::trait_trivial_move<android::String16>::value"
    }
   ],
   "linker_set_key" : "_ZTIN7android18trait_trivial_moveINS_8String16EE6$valueE",
   "name" : "android::trait_trivial_move<String16>::(anonymous enum at system/core/libutils/include/utils/String16.h:197:1)",
   "referenced_type" : "_ZTIN7android18trait_trivial_moveINS_8String16EE6$valueE",
   "self_type" : "_ZTIN7android18trait_trivial_moveINS_8String16EE6$valueE",
   "size" : 4,
   "source_file" : "/system/core/libutils/include/utils/String16.h",
   "underlying_type" : "_ZTIj"
  },
  {
   "alignment" : 4,
   "enum_fields" :
   [
    {
     "enum_field_value" : 1,
     "name" : "android::trait_trivial_move<bool>::value"
    }
   ],
   "linker_set_key" : "_ZTIN7android18trait_trivial_moveIbE6$valueE",
   "name" : "android::trait_trivial_move<bool>::(anonymous enum at system/core/libutils/include/utils/TypeHelpers.h:98:1)",
   "referenced_type" : "_ZTIN7android18trait_trivial_moveIbE6$valueE",
   "self_type" : "_ZTIN7android18trait_trivial_moveIbE6$valueE",
   "size" : 4,
   "source_file" : "/system/core/libutils/include/utils/TypeHelpers.h",
   "underlying_type" : "_ZTIj"
  },
  {
   "alignment" : 4,
   "enum_fields" :
   [
    {
     "enum_field_value" : 1,
     "name" : "android::trait_trivial_move<char>::value"
    }
   ],
   "linker_set_key" : "_ZTIN7android18trait_trivial_moveIcE6$valueE",
   "name" : "android::trait_trivial_move<char>::(anonymous enum at system/core/libutils/include/utils/TypeHelpers.h:99:1)",
   "referenced_type" : "_ZTIN7android18trait_trivial_moveIcE6$valueE",
   "self_type" : "_ZTIN7android18trait_trivial_moveIcE6$valueE",
   "size" : 4,
   "source_file" : "/system/core/libutils/include/utils/TypeHelpers.h",
   "underlying_type" : "_ZTIj"
  },
  {
   "alignment" : 4,
   "enum_fields" :
   [
    {
     "enum_field_value" : 1,
     "name" : "android::trait_trivial_move<double>::value"
    }
   ],
   "linker_set_key" : "_ZTIN7android18trait_trivial_moveIdE6$valueE",
   "name" : "android::trait_trivial_move<double>::(anonymous enum at system/core/libutils/include/utils/TypeHelpers.h:110:1)",
   "referenced_type" : "_ZTIN7android18trait_trivial_moveIdE6$valueE",
   "self_type" : "_ZTIN7android18trait_trivial_moveIdE6$valueE",
   "size" : 4,
   "source_file" : "/system/core/libutils/include/utils/TypeHelpers.h",
   "underlying_type" : "_ZTIj"
  },
  {
   "alignment" : 4,
   "enum_fields" :
   [
    {
     "enum_field_value" : 1,
     "name" : "android::trait_trivial_move<float>::value"
    }
   ],
   "linker_set_key" : "_ZTIN7android18trait_trivial_moveIfE6$valueE",
   "name" : "android::trait_trivial_move<float>::(anonymous enum at system/core/libutils/include/utils/TypeHelpers.h:109:1)",
   "referenced_type" : "_ZTIN7android18trait_trivial_moveIfE6$valueE",
   "self_type" : "_ZTIN7android18trait_trivial_moveIfE6$valueE",
   "size" : 4,
   "source_file" : "/system/core/libutils/include/utils/TypeHelpers.h",
   "underlying_type" : "_ZTIj"
  },
  {
   "alignment" : 4,
   "enum_fields" :
   [
    {
     "enum_field_value" : 1,
     "name" : "android::trait_trivial_move<unsigned char>::value"
    }
   ],
   "linker_set_key" : "_ZTIN7android18trait_trivial_moveIhE6$valueE",
   "name" : "android::trait_trivial_move<unsigned char>::(anonymous enum at system/core/libutils/include/utils/TypeHelpers.h:100:1)",
   "referenced_type" : "_ZTIN7android18trait_trivial_moveIhE6$valueE",
   "self_type" : "_ZTIN7android18trait_trivial_moveIhE6$valueE",
   "size" : 4,
   "source_file" : "/system/core/libutils/include/utils/TypeHelpers.h",
   "underlying_type" : "_ZTIj"
  },
  {
   "alignment" : 4,
   "enum_fields" :
   [
    {
     "enum_field_value" : 1,
     "name" : "android::trait_trivial_move<int>::value"
    }
   ],
   "linker_set_key" : "_ZTIN7android18trait_trivial_moveIiE6$valueE",
   "name" : "android::trait_trivial_move<int>::(anonymous enum at system/core/libutils/include/utils/TypeHelpers.h:103:1)",
   "referenced_type" : "_ZTIN7android18trait_trivial_moveIiE6$valueE",
   "self_type" : "_ZTIN7android18trait_trivial_moveIiE6$valueE",
   "size" : 4,
   "source_file" : "/system/core/libutils/include/utils/TypeHelpers.h",
   "underlying_type" : "_ZTIj"
  },
  {
   "alignment" : 4,
   "enum_fields" :
   [
    {
     "enum_field_value" : 1,
     "name" : "android::trait_trivial_move<unsigned int>::value"
    }
   ],
   "linker_set_key" : "_ZTIN7android18trait_trivial_moveIjE6$valueE",
   "name" : "android::trait_trivial_move<unsigned int>::(anonymous enum at system/core/libutils/include/utils/TypeHelpers.h:104:1)",
   "referenced_type" : "_ZTIN7android18trait_trivial_moveIjE6$valueE",
   "self_type" : "_ZTIN7android18trait_trivial_moveIjE6$valueE",
   "size" : 4,
   "source_file" : "/system/core/libutils/include/utils/TypeHelpers.h",
   "underlying_type" : "_ZTIj"
  },
  {
   "alignment" : 4,
   "enum_fields" :
   [
    {
     "enum_field_value" : 1,
     "name" : "android::trait_trivial_move<long>::value"
    }
   ],
   "linker_set_key" : "_ZTIN7android18trait_trivial_moveIlE6$valueE",
   "name" : "android::trait_trivial_move<long>::(anonymous enum at system/core/libutils/include/utils/TypeHelpers.h:105:1)",
   "referenced_type" : "_ZTIN7android18trait_trivial_moveIlE6$valueE",
   "self_type" : "_ZTIN7android18trait_trivial_moveIlE6$valueE",
   "size" : 4,
   "source_file" : "/system/core/libutils/include/utils/TypeHelpers.h",
   "underlying_type" : "_ZTIj"
  },
  {
   "alignment" : 4,
   "enum_fields" :
   [
    {
     "enum_field_value" : 1,
     "name" : "android::trait_trivial_move<unsigned long>::value"
    }
   ],
   "linker_set_key" : "_ZTIN7android18trait_trivial_moveImE6$valueE",
   "name" : "android::trait_trivial_move<unsigned long>::(anonymous enum at system/core/libutils/include/utils/TypeHelpers.h:106:1)",
   "referenced_type" : "_ZTIN7android18trait_trivial_moveImE6$valueE",
   "self_type" : "_ZTIN7android18trait_trivial_moveImE6$valueE",
   "size" : 4,
   "source_file" : "/system/core/libutils/include/utils/TypeHelpers.h",
   "underlying_type" : "_ZTIj"
  },
  {
   "alignment" : 4,
   "enum_fields" :
   [
    {
     "enum_field_value" : 1,
     "name" : "android::trait_trivial_move<short>::value"
    }
   ],
   "linker_set_key" : "_ZTIN7android18trait_trivial_moveIsE6$valueE",
   "name" : "android::trait_trivial_move<short>::(anonymous enum at system/core/libutils/include/utils/TypeHelpers.h:101:1)",
   "referenced_type" : "_ZTIN7android18trait_trivial_moveIsE6$valueE",
   "self_type" : "_ZTIN7android18trait_trivial_moveIsE6$valueE",
   "size" : 4,
   "source_file" : "/system/core/libutils/include/utils/TypeHelpers.h",
   "underlying_type" : "_ZTIj"
  },
  {
   "alignment" : 4,
   "enum_fields" :
   [
    {
     "enum_field_value" : 1,
     "name" : "android::trait_trivial_move<unsigned short>::value"
    }
   ],
   "linker_set_key" : "_ZTIN7android18trait_trivial_moveItE6$valueE",
   "name" : "android::trait_trivial_move<unsigned short>::(anonymous enum at system/core/libutils/include/utils/TypeHelpers.h:102:1)",
   "referenced_type" : "_ZTIN7android18trait_trivial_moveItE6$valueE",
   "self_type" : "_ZTIN7android18trait_trivial_moveItE6$valueE",
   "size" : 4,
   "source_file" : "/system/core/libutils/include/utils/TypeHelpers.h",
   "underlying_type" : "_ZTIj"
  },
  {
   "alignment" : 4,
   "enum_fields" :
   [
    {
     "enum_field_value" : 1,
     "name" : "android::trait_trivial_move<void>::value"
    }
   ],
   "linker_set_key" : "_ZTIN7android18trait_trivial_moveIvE6$valueE",
   "name" : "android::trait_trivial_move<void>::(anonymous enum at system/core/libutils/include/utils/TypeHelpers.h:97:1)",
   "referenced_type" : "_ZTIN7android18trait_trivial_moveIvE6$valueE",
   "self_type" : "_ZTIN7android18trait_trivial_moveIvE6$valueE",
   "size" : 4,
   "source_file" : "/system/core/libutils/include/utils/TypeHelpers.h",
   "underlying_type" : "_ZTIj"
  },
  {
   "alignment" : 4,
   "enum_fields" :
   [
    {
     "enum_field_value" : 1,
     "name" : "android::trait_trivial_move<long long>::value"
    }
   ],
   "linker_set_key" : "_ZTIN7android18trait_trivial_moveIxE6$valueE",
   "name" : "android::trait_trivial_move<long long>::(anonymous enum at system/core/libutils/include/utils/TypeHelpers.h:107:1)",
   "referenced_type" : "_ZTIN7android18trait_trivial_moveIxE6$valueE",
   "self_type" : "_ZTIN7android18trait_trivial_moveIxE6$valueE",
   "size" : 4,
   "source_file" : "/system/core/libutils/include/utils/TypeHelpers.h",
   "underlying_type" : "_ZTIj"
  },
  {
   "alignment" : 4,
   "enum_fields" :
   [
    {
     "enum_field_value" : 1,
     "name" : "android::trait_trivial_move<unsigned long long>::value"
    }
   ],
   "linker_set_key" : "_ZTIN7android18trait_trivial_moveIyE6$valueE",
   "name" : "android::trait_trivial_move<unsigned long long>::(anonymous enum at system/core/libutils/include/utils/TypeHelpers.h:108:1)",
   "referenced_type" : "_ZTIN7android18trait_trivial_moveIyE6$valueE",
   "self_type" : "_ZTIN7android18trait_trivial_moveIyE6$valueE",
   "size" : 4,
   "source_file" : "/system/core/libutils/include/utils/TypeHelpers.h",
   "underlying_type" : "_ZTIj"
  },
  {
   "alignment" : 4,
   "enum_fields" :
   [
    {
     "enum_field_value" : 0,
     "name" : "android::hidl::base::V1_0::DebugInfo::Architecture::UNKNOWN"
    },
    {
     "enum_field_value" : 1,
     "name" : "android::hidl::base::V1_0::DebugInfo::Architecture::IS_64BIT"
    },
    {
     "enum_field_value" : 2,
     "name" : "android::hidl::base::V1_0::DebugInfo::Architecture::IS_32BIT"
    }
   ],
   "linker_set_key" : "_ZTIN7android4hidl4base4V1_09DebugInfo12ArchitectureE",
   "name" : "android::hidl::base::V1_0::DebugInfo::Architecture",
   "referenced_type" : "_ZTIN7android4hidl4base4V1_09DebugInfo12ArchitectureE",
   "self_type" : "_ZTIN7android4hidl4base4V1_09DebugInfo12ArchitectureE",
   "size" : 4,
   "source_file" : "/out/soong/.intermediates/system/libhidl/transport/base/1.0/android.hidl.base@1.0_genc++_headers/gen/android/hidl/base/1.0/types.h",
   "underlying_type" : "_ZTIi"
  },
  {
   "alignment" : 4,
   "enum_fields" :
   [
    {
     "enum_field_value" : -1,
     "name" : "android::hidl::manager::V1_0::IServiceManager::PidConstant::NO_PID"
    }
   ],
   "linker_set_key" : "_ZTIN7android4hidl7manager4V1_015IServiceManager11PidConstantE",
   "name" : "android::hidl::manager::V1_0::IServiceManager::PidConstant",
   "referenced_type" : "_ZTIN7android4hidl7manager4V1_015IServiceManager11PidConstantE",
   "self_type" : "_ZTIN7android4hidl7manager4V1_015IServiceManager11PidConstantE",
   "size" : 4,
   "source_file" : "/out/soong/.intermediates/system/libhidl/transport/manager/1.0/android.hidl.manager@1.0_genc++_headers/gen/android/hidl/manager/1.0/IServiceManager.h",
   "underlying_type" : "_ZTIi"
  },
  {
   "alignment" : 1,
   "enum_fields" :
   [
    {
     "enum_field_value" : 0,
     "name" : "android::hidl::manager::V1_0::IServiceManager::Transport::EMPTY"
    },
    {
     "enum_field_value" : 1,
     "name" : "android::hidl::manager::V1_0::IServiceManager::Transport::HWBINDER"
    },
    {
     "enum_field_value" : 2,
     "name" : "android::hidl::manager::V1_0::IServiceManager::Transport::PASSTHROUGH"
    }
   ],
   "linker_set_key" : "_ZTIN7android4hidl7manager4V1_015IServiceManager9TransportE",
   "name" : "android::hidl::manager::V1_0::IServiceManager::Transport",
   "referenced_type" : "_ZTIN7android4hidl7manager4V1_015IServiceManager9TransportE",
   "self_type" : "_ZTIN7android4hidl7manager4V1_015IServiceManager9TransportE",
   "size" : 1,
   "source_file" : "/out/soong/.intermediates/system/libhidl/transport/manager/1.0/android.hidl.manager@1.0_genc++_headers/gen/android/hidl/manager/1.0/IServiceManager.h",
   "underlying_type" : "_ZTIh"
  },
  {
   "alignment" : 4,
   "enum_fields" :
   [
    {
     "enum_field_value" : 0,
     "name" : "android::Mutex::PRIVATE"
    },
    {
     "enum_field_value" : 1,
     "name" : "android::Mutex::SHARED"
    }
   ],
   "linker_set_key" : "_ZTIN7android5Mutex8$PRIVATEE",
   "name" : "android::Mutex::(anonymous enum at system/core/libutils/include/utils/Mutex.h:96:5)",
   "referenced_type" : "_ZTIN7android5Mutex8$PRIVATEE",
   "self_type" : "_ZTIN7android5Mutex8$PRIVATEE",
   "size" : 4,
   "source_file" : "/system/core/libutils/include/utils/Mutex.h",
   "underlying_type" : "_ZTIj"
  },
  {
   "alignment" : 4,
   "enum_fields" :
   [
    {
     "enum_field_value" : 0,
     "name" : "android::RWLock::PRIVATE"
    },
    {
     "enum_field_value" : 1,
     "name" : "android::RWLock::SHARED"
    }
   ],
   "linker_set_key" : "_ZTIN7android6RWLock8$PRIVATEE",
   "name" : "android::RWLock::(anonymous enum at system/core/libutils/include/utils/RWLock.h:44:5)",
   "referenced_type" : "_ZTIN7android6RWLock8$PRIVATEE",
   "self_type" : "_ZTIN7android6RWLock8$PRIVATEE",
   "size" : 4,
   "source_file" : "/system/core/libutils/include/utils/RWLock.h",
   "underlying_type" : "_ZTIj"
  },
  {
   "access" : "protected",
   "alignment" : 4,
   "enum_fields" :
   [
    {
     "enum_field_value" : 1,
     "name" : "android::RefBase::FIRST_INC_STRONG"
    }
   ],
   "linker_set_key" : "_ZTIN7android7RefBase17$FIRST_INC_STRONGE",
   "name" : "android::RefBase::(anonymous enum at system/core/libutils/include/utils/RefBase.h:313:5)",
   "referenced_type" : "_ZTIN7android7RefBase17$FIRST_INC_STRONGE",
   "self_type" : "_ZTIN7android7RefBase17$FIRST_INC_STRONGE",
   "size" : 4,
   "source_file" : "/system/core/libutils/include/utils/RefBase.h",
   "underlying_type" : "_ZTIj"
  },
  {
   "access" : "protected",
   "alignment" : 4,
   "enum_fields" :
   [
    {
     "enum_field_value" : 0,
     "name" : "android::RefBase::OBJECT_LIFETIME_STRONG"
    },
    {
     "enum_field_value" : 1,
     "name" : "android::RefBase::OBJECT_LIFETIME_WEAK"
    },
    {
     "enum_field_value" : 1,
     "name" : "android::RefBase::OBJECT_LIFETIME_MASK"
    }
   ],
   "linker_set_key" : "_ZTIN7android7RefBase21$OBJECT_LIFETIME_MASKE",
   "name" : "android::RefBase::(anonymous enum at system/core/libutils/include/utils/RefBase.h:304:5)",
   "referenced_type" : "_ZTIN7android7RefBase21$OBJECT_LIFETIME_MASKE",
   "self_type" : "_ZTIN7android7RefBase21$OBJECT_LIFETIME_MASKE",
   "size" : 4,
   "source_file" : "/system/core/libutils/include/utils/RefBase.h",
   "underlying_type" : "_ZTIj"
  },
  {
   "alignment" : 4,
   "enum_fields" :
   [
    {
     "enum_field_value" : 0,
     "name" : "android::String8::kEmptyString"
    }
   ],
   "linker_set_key" : "_ZTIN7android7String813StaticLinkageE",
   "name" : "android::String8::StaticLinkage",
   "referenced_type" : "_ZTIN7android7String813StaticLinkageE",
   "self_type" : "_ZTIN7android7String813StaticLinkageE",
   "size" : 4,
   "source_file" : "/system/core/libutils/include/utils/String8.h",
   "underlying_type" : "_ZTIj"
  },
  {
   "alignment" : 4,
   "enum_fields" :
   [
    {
     "enum_field_value" : 0,
     "name" : "android::String16::kEmptyString"
    }
   ],
   "linker_set_key" : "_ZTIN7android8String1613StaticLinkageE",
   "name" : "android::String16::StaticLinkage",
   "referenced_type" : "_ZTIN7android8String1613StaticLinkageE",
   "self_type" : "_ZTIN7android8String1613StaticLinkageE",
   "size" : 4,
   "source_file" : "/system/core/libutils/include/utils/String16.h",
   "underlying_type" : "_ZTIj"
  },
  {
   "alignment" : 4,
   "enum_fields" :
   [
    {
     "enum_field_value" : 0,
     "name" : "android::hardware::MQDescriptor<char, android::hardware::kSynchronizedReadWrite>::READPTRPOS"
    },
    {
     "enum_field_value" : 1,
     "name" : "android::hardware::MQDescriptor<char, android::hardware::kSynchronizedReadWrite>::WRITEPTRPOS"
    },
    {
     "enum_field_value" : 2,
     "name" : "android::hardware::MQDescriptor<char, android::hardware::kSynchronizedReadWrite>::DATAPTRPOS"
    },
    {
     "enum_field_value" : 3,
     "name" : "android::hardware::MQDescriptor<char, android::hardware::kSynchronizedReadWrite>::EVFLAGWORDPOS"
    }
   ],
   "linker_set_key" : "_ZTIN7android8hardware12MQDescriptorIcLNS0_8MQFlavorE1EE11GrantorTypeE",
   "name" : "android::hardware::MQDescriptor<char, android::hardware::kSynchronizedReadWrite>::GrantorType",
   "referenced_type" : "_ZTIN7android8hardware12MQDescriptorIcLNS0_8MQFlavorE1EE11GrantorTypeE",
   "self_type" : "_ZTIN7android8hardware12MQDescriptorIcLNS0_8MQFlavorE1EE11GrantorTypeE",
   "size" : 4,
   "source_file" : "/system/libhidl/base/include/hidl/MQDescriptor.h",
   "underlying_type" : "_ZTIi"
  },
  {
   "alignment" : 4,
   "enum_fields" :
   [
    {
     "enum_field_value" : 0,
     "name" : "android::hardware::ProcessState::CallRestriction::NONE"
    },
    {
     "enum_field_value" : 1,
     "name" : "android::hardware::ProcessState::CallRestriction::ERROR_IF_NOT_ONEWAY"
    },
    {
     "enum_field_value" : 2,
     "name" : "android::hardware::ProcessState::CallRestriction::FATAL_IF_NOT_ONEWAY"
    }
   ],
   "linker_set_key" : "_ZTIN7android8hardware12ProcessState15CallRestrictionE",
   "name" : "android::hardware::ProcessState::CallRestriction",
   "referenced_type" : "_ZTIN7android8hardware12ProcessState15CallRestrictionE",
   "self_type" : "_ZTIN7android8hardware12ProcessState15CallRestrictionE",
   "size" : 4,
   "source_file" : "/system/libhwbinder/include/hwbinder/ProcessState.h",
   "underlying_type" : "_ZTIi"
  },
  {
   "alignment" : 4,
   "enum_fields" :
   [
    {
     "enum_field_value" : 0,
     "name" : "android::hardware::HidlReturnRestriction::NONE"
    },
    {
     "enum_field_value" : 1,
     "name" : "android::hardware::HidlReturnRestriction::ERROR_IF_UNCHECKED"
    },
    {
     "enum_field_value" : 2,
     "name" : "android::hardware::HidlReturnRestriction::FATAL_IF_UNCHECKED"
    }
   ],
   "linker_set_key" : "_ZTIN7android8hardware21HidlReturnRestrictionE",
   "name" : "android::hardware::HidlReturnRestriction",
   "referenced_type" : "_ZTIN7android8hardware21HidlReturnRestrictionE",
   "self_type" : "_ZTIN7android8hardware21HidlReturnRestrictionE",
   "size" : 4,
   "source_file" : "/system/libhidl/base/include/hidl/Status.h",
   "underlying_type" : "_ZTIi"
  },
  {
   "alignment" : 1,
   "enum_fields" :
   [
    {
     "enum_field_value" : 0,
     "name" : "android::hardware::gnss::visibility_control::V1_0::IGnssVisibilityControlCallback::NfwRequestor::CARRIER"
    },
    {
     "enum_field_value" : 10,
     "name" : "android::hardware::gnss::visibility_control::V1_0::IGnssVisibilityControlCallback::NfwRequestor::OEM"
    },
    {
     "enum_field_value" : 11,
     "name" : "android::hardware::gnss::visibility_control::V1_0::IGnssVisibilityControlCallback::NfwRequestor::MODEM_CHIPSET_VENDOR"
    },
    {
     "enum_field_value" : 12,
     "name" : "android::hardware::gnss::visibility_control::V1_0::IGnssVisibilityControlCallback::NfwRequestor::GNSS_CHIPSET_VENDOR"
    },
    {
     "enum_field_value" : 13,
     "name" : "android::hardware::gnss::visibility_control::V1_0::IGnssVisibilityControlCallback::NfwRequestor::OTHER_CHIPSET_VENDOR"
    },
    {
     "enum_field_value" : 20,
     "name" : "android::hardware::gnss::visibility_control::V1_0::IGnssVisibilityControlCallback::NfwRequestor::AUTOMOBILE_CLIENT"
    },
    {
     "enum_field_value" : 100,
     "name" : "android::hardware::gnss::visibility_control::V1_0::IGnssVisibilityControlCallback::NfwRequestor::OTHER_REQUESTOR"
    }
   ],
   "linker_set_key" : "_ZTIN7android8hardware4gnss18visibility_control4V1_030IGnssVisibilityControlCallback12NfwRequestorE",
   "name" : "android::hardware::gnss::visibility_control::V1_0::IGnssVisibilityControlCallback::NfwRequestor",
   "referenced_type" : "_ZTIN7android8hardware4gnss18visibility_control4V1_030IGnssVisibilityControlCallback12NfwRequestorE",
   "self_type" : "_ZTIN7android8hardware4gnss18visibility_control4V1_030IGnssVisibilityControlCallback12NfwRequestorE",
   "size" : 1,
   "source_file" : "/out/soong/.intermediates/hardware/interfaces/gnss/visibility_control/1.0/android.hardware.gnss.visibility_control@1.0_genc++_headers/gen/android/hardware/gnss/visibility_control/1.0/IGnssVisibilityControlCallback.h",
   "underlying_type" : "_ZTIh"
  },
  {
   "alignment" : 1,
   "enum_fields" :
   [
    {
     "enum_field_value" : 0,
     "name" : "android::hardware::gnss::visibility_control::V1_0::IGnssVisibilityControlCallback::NfwResponseType::REJECTED"
    },
    {
     "enum_field_value" : 1,
     "name" : "android::hardware::gnss::visibility_control::V1_0::IGnssVisibilityControlCallback::NfwResponseType::ACCEPTED_NO_LOCATION_PROVIDED"
    },
    {
     "enum_field_value" : 2,
     "name" : "android::hardware::gnss::visibility_control::V1_0::IGnssVisibilityControlCallback::NfwResponseType::ACCEPTED_LOCATION_PROVIDED"
    }
   ],
   "linker_set_key" : "_ZTIN7android8hardware4gnss18visibility_control4V1_030IGnssVisibilityControlCallback15NfwResponseTypeE",
   "name" : "android::hardware::gnss::visibility_control::V1_0::IGnssVisibilityControlCallback::NfwResponseType",
   "referenced_type" : "_ZTIN7android8hardware4gnss18visibility_control4V1_030IGnssVisibilityControlCallback15NfwResponseTypeE",
   "self_type" : "_ZTIN7android8hardware4gnss18visibility_control4V1_030IGnssVisibilityControlCallback15NfwResponseTypeE",
   "size" : 1,
   "source_file" : "/out/soong/.intermediates/hardware/interfaces/gnss/visibility_control/1.0/android.hardware.gnss.visibility_control@1.0_genc++_headers/gen/android/hardware/gnss/visibility_control/1.0/IGnssVisibilityControlCallback.h",
   "underlying_type" : "_ZTIh"
  },
  {
   "alignment" : 1,
   "enum_fields" :
   [
    {
     "enum_field_value" : 0,
     "name" : "android::hardware::gnss::visibility_control::V1_0::IGnssVisibilityControlCallback::NfwProtocolStack::CTRL_PLANE"
    },
    {
     "enum_field_value" : 1,
     "name" : "android::hardware::gnss::visibility_control::V1_0::IGnssVisibilityControlCallback::NfwProtocolStack::SUPL"
    },
    {
     "enum_field_value" : 10,
     "name" : "android::hardware::gnss::visibility_control::V1_0::IGnssVisibilityControlCallback::NfwProtocolStack::IMS"
    },
    {
     "enum_field_value" : 11,
     "name" : "android::hardware::gnss::visibility_control::V1_0::IGnssVisibilityControlCallback::NfwProtocolStack::SIM"
    },
    {
     "enum_field_value" : 100,
     "name" : "android::hardware::gnss::visibility_control::V1_0::IGnssVisibilityControlCallback::NfwProtocolStack::OTHER_PROTOCOL_STACK"
    }
   ],
   "linker_set_key" : "_ZTIN7android8hardware4gnss18visibility_control4V1_030IGnssVisibilityControlCallback16NfwProtocolStackE",
   "name" : "android::hardware::gnss::visibility_control::V1_0::IGnssVisibilityControlCallback::NfwProtocolStack",
   "referenced_type" : "_ZTIN7android8hardware4gnss18visibility_control4V1_030IGnssVisibilityControlCallback16NfwProtocolStackE",
   "self_type" : "_ZTIN7android8hardware4gnss18visibility_control4V1_030IGnssVisibilityControlCallback16NfwProtocolStackE",
   "size" : 1,
   "source_file" : "/out/soong/.intermediates/hardware/interfaces/gnss/visibility_control/1.0/android.hardware.gnss.visibility_control@1.0_genc++_headers/gen/android/hardware/gnss/visibility_control/1.0/IGnssVisibilityControlCallback.h",
   "underlying_type" : "_ZTIh"
  },
  {
   "alignment" : 2,
   "enum_fields" :
   [
    {
     "enum_field_value" : 1,
     "name" : "android::hardware::gnss::measurement_corrections::V1_0::GnssSingleSatCorrectionFlags::HAS_SAT_IS_LOS_PROBABILITY"
    },
    {
     "enum_field_value" : 2,
     "name" : "android::hardware::gnss::measurement_corrections::V1_0::GnssSingleSatCorrectionFlags::HAS_EXCESS_PATH_LENGTH"
    },
    {
     "enum_field_value" : 4,
     "name" : "android::hardware::gnss::measurement_corrections::V1_0::GnssSingleSatCorrectionFlags::HAS_EXCESS_PATH_LENGTH_UNC"
    },
    {
     "enum_field_value" : 8,
     "name" : "android::hardware::gnss::measurement_corrections::V1_0::GnssSingleSatCorrectionFlags::HAS_REFLECTING_PLANE"
    }
   ],
   "linker_set_key" : "_ZTIN7android8hardware4gnss23measurement_corrections4V1_028GnssSingleSatCorrectionFlagsE",
   "name" : "android::hardware::gnss::measurement_corrections::V1_0::GnssSingleSatCorrectionFlags",
   "referenced_type" : "_ZTIN7android8hardware4gnss23measurement_corrections4V1_028GnssSingleSatCorrectionFlagsE",
   "self_type" : "_ZTIN7android8hardware4gnss23measurement_corrections4V1_028GnssSingleSatCorrectionFlagsE",
   "size" : 2,
   "source_file" : "/out/soong/.intermediates/hardware/interfaces/gnss/measurement_corrections/1.0/android.hardware.gnss.measurement_corrections@1.0_genc++_headers/gen/android/hardware/gnss/measurement_corrections/1.0/types.h",
   "underlying_type" : "_ZTIt"
  },
  {
   "alignment" : 4,
   "enum_fields" :
   [
    {
     "enum_field_value" : 1,
     "name" : "android::hardware::gnss::measurement_corrections::V1_0::IMeasurementCorrectionsCallback::Capabilities::LOS_SATS"
    },
    {
     "enum_field_value" : 2,
     "name" : "android::hardware::gnss::measurement_corrections::V1_0::IMeasurementCorrectionsCallback::Capabilities::EXCESS_PATH_LENGTH"
    },
    {
     "enum_field_value" : 4,
     "name" : "android::hardware::gnss::measurement_corrections::V1_0::IMeasurementCorrectionsCallback::Capabilities::REFLECTING_PLANE"
    }
   ],
   "linker_set_key" : "_ZTIN7android8hardware4gnss23measurement_corrections4V1_031IMeasurementCorrectionsCallback12CapabilitiesE",
   "name" : "android::hardware::gnss::measurement_corrections::V1_0::IMeasurementCorrectionsCallback::Capabilities",
   "referenced_type" : "_ZTIN7android8hardware4gnss23measurement_corrections4V1_031IMeasurementCorrectionsCallback12CapabilitiesE",
   "self_type" : "_ZTIN7android8hardware4gnss23measurement_corrections4V1_031IMeasurementCorrectionsCallback12CapabilitiesE",
   "size" : 4,
   "source_file" : "/out/soong/.intermediates/hardware/interfaces/gnss/measurement_corrections/1.0/android.hardware.gnss.measurement_corrections@1.0_genc++_headers/gen/android/hardware/gnss/measurement_corrections/1.0/IMeasurementCorrectionsCallback.h",
   "underlying_type" : "_ZTIj"
  },
  {
   "alignment" : 1,
   "enum_fields" :
   [
    {
     "enum_field_value" : 0,
     "name" : "android::hardware::gnss::V1_0::IGnssDebug::SatelliteEphemerisType::EPHEMERIS"
    },
    {
     "enum_field_value" : 1,
     "name" : "android::hardware::gnss::V1_0::IGnssDebug::SatelliteEphemerisType::ALMANAC_ONLY"
    },
    {
     "enum_field_value" : 2,
     "name" : "android::hardware::gnss::V1_0::IGnssDebug::SatelliteEphemerisType::NOT_AVAILABLE"
    }
   ],
   "linker_set_key" : "_ZTIN7android8hardware4gnss4V1_010IGnssDebug22SatelliteEphemerisTypeE",
   "name" : "android::hardware::gnss::V1_0::IGnssDebug::SatelliteEphemerisType",
   "referenced_type" : "_ZTIN7android8hardware4gnss4V1_010IGnssDebug22SatelliteEphemerisTypeE",
   "self_type" : "_ZTIN7android8hardware4gnss4V1_010IGnssDebug22SatelliteEphemerisTypeE",
   "size" : 1,
   "source_file" : "/out/soong/.intermediates/hardware/interfaces/gnss/1.0/android.hardware.gnss@1.0_genc++_headers/gen/android/hardware/gnss/1.0/IGnssDebug.h",
   "underlying_type" : "_ZTIh"
  },
  {
   "alignment" : 1,
   "enum_fields" :
   [
    {
     "enum_field_value" : 0,
     "name" : "android::hardware::gnss::V1_0::IGnssDebug::SatelliteEphemerisHealth::GOOD"
    },
    {
     "enum_field_value" : 1,
     "name" : "android::hardware::gnss::V1_0::IGnssDebug::SatelliteEphemerisHealth::BAD"
    },
    {
     "enum_field_value" : 2,
     "name" : "android::hardware::gnss::V1_0::IGnssDebug::SatelliteEphemerisHealth::UNKNOWN"
    }
   ],
   "linker_set_key" : "_ZTIN7android8hardware4gnss4V1_010IGnssDebug24SatelliteEphemerisHealthE",
   "name" : "android::hardware::gnss::V1_0::IGnssDebug::SatelliteEphemerisHealth",
   "referenced_type" : "_ZTIN7android8hardware4gnss4V1_010IGnssDebug24SatelliteEphemerisHealthE",
   "self_type" : "_ZTIN7android8hardware4gnss4V1_010IGnssDebug24SatelliteEphemerisHealthE",
   "size" : 1,
   "source_file" : "/out/soong/.intermediates/hardware/interfaces/gnss/1.0/android.hardware.gnss@1.0_genc++_headers/gen/android/hardware/gnss/1.0/IGnssDebug.h",
   "underlying_type" : "_ZTIh"
  },
  {
   "alignment" : 1,
   "enum_fields" :
   [
    {
     "enum_field_value" : 0,
     "name" : "android::hardware::gnss::V1_0::IGnssDebug::SatelliteEphemerisSource::DEMODULATED"
    },
    {
     "enum_field_value" : 1,
     "name" : "android::hardware::gnss::V1_0::IGnssDebug::SatelliteEphemerisSource::SUPL_PROVIDED"
    },
    {
     "enum_field_value" : 2,
     "name" : "android::hardware::gnss::V1_0::IGnssDebug::SatelliteEphemerisSource::OTHER_SERVER_PROVIDED"
    },
    {
     "enum_field_value" : 3,
     "name" : "android::hardware::gnss::V1_0::IGnssDebug::SatelliteEphemerisSource::OTHER"
    }
   ],
   "linker_set_key" : "_ZTIN7android8hardware4gnss4V1_010IGnssDebug24SatelliteEphemerisSourceE",
   "name" : "android::hardware::gnss::V1_0::IGnssDebug::SatelliteEphemerisSource",
   "referenced_type" : "_ZTIN7android8hardware4gnss4V1_010IGnssDebug24SatelliteEphemerisSourceE",
   "self_type" : "_ZTIN7android8hardware4gnss4V1_010IGnssDebug24SatelliteEphemerisSourceE",
   "size" : 1,
   "source_file" : "/out/soong/.intermediates/hardware/interfaces/gnss/1.0/android.hardware.gnss@1.0_genc++_headers/gen/android/hardware/gnss/1.0/IGnssDebug.h",
   "underlying_type" : "_ZTIh"
  },
  {
   "alignment" : 1,
   "enum_fields" :
   [
    {
     "enum_field_value" : 1,
     "name" : "android::hardware::gnss::V1_0::IGnssBatching::Flag::WAKEUP_ON_FIFO_FULL"
    }
   ],
   "linker_set_key" : "_ZTIN7android8hardware4gnss4V1_013IGnssBatching4FlagE",
   "name" : "android::hardware::gnss::V1_0::IGnssBatching::Flag",
   "referenced_type" : "_ZTIN7android8hardware4gnss4V1_013IGnssBatching4FlagE",
   "self_type" : "_ZTIN7android8hardware4gnss4V1_013IGnssBatching4FlagE",
   "size" : 1,
   "source_file" : "/out/soong/.intermediates/hardware/interfaces/gnss/1.0/android.hardware.gnss@1.0_genc++_headers/gen/android/hardware/gnss/1.0/IGnssBatching.h",
   "underlying_type" : "_ZTIh"
  },
  {
   "alignment" : 1,
   "enum_fields" :
   [
    {
     "enum_field_value" : 0,
     "name" : "android::hardware::gnss::V1_0::IGnssCallback::GnssSvFlags::NONE"
    },
    {
     "enum_field_value" : 1,
     "name" : "android::hardware::gnss::V1_0::IGnssCallback::GnssSvFlags::HAS_EPHEMERIS_DATA"
    },
    {
     "enum_field_value" : 2,
     "name" : "android::hardware::gnss::V1_0::IGnssCallback::GnssSvFlags::HAS_ALMANAC_DATA"
    },
    {
     "enum_field_value" : 4,
     "name" : "android::hardware::gnss::V1_0::IGnssCallback::GnssSvFlags::USED_IN_FIX"
    },
    {
     "enum_field_value" : 8,
     "name" : "android::hardware::gnss::V1_0::IGnssCallback::GnssSvFlags::HAS_CARRIER_FREQUENCY"
    }
   ],
   "linker_set_key" : "_ZTIN7android8hardware4gnss4V1_013IGnssCallback11GnssSvFlagsE",
   "name" : "android::hardware::gnss::V1_0::IGnssCallback::GnssSvFlags",
   "referenced_type" : "_ZTIN7android8hardware4gnss4V1_013IGnssCallback11GnssSvFlagsE",
   "self_type" : "_ZTIN7android8hardware4gnss4V1_013IGnssCallback11GnssSvFlagsE",
   "size" : 1,
   "source_file" : "/out/soong/.intermediates/hardware/interfaces/gnss/1.0/android.hardware.gnss@1.0_genc++_headers/gen/android/hardware/gnss/1.0/IGnssCallback.h",
   "underlying_type" : "_ZTIh"
  },
  {
   "alignment" : 4,
   "enum_fields" :
   [
    {
     "enum_field_value" : 1,
     "name" : "android::hardware::gnss::V1_0::IGnssCallback::Capabilities::SCHEDULING"
    },
    {
     "enum_field_value" : 2,
     "name" : "android::hardware::gnss::V1_0::IGnssCallback::Capabilities::MSB"
    },
    {
     "enum_field_value" : 4,
     "name" : "android::hardware::gnss::V1_0::IGnssCallback::Capabilities::MSA"
    },
    {
     "enum_field_value" : 8,
     "name" : "android::hardware::gnss::V1_0::IGnssCallback::Capabilities::SINGLE_SHOT"
    },
    {
     "enum_field_value" : 16,
     "name" : "android::hardware::gnss::V1_0::IGnssCallback::Capabilities::ON_DEMAND_TIME"
    },
    {
     "enum_field_value" : 32,
     "name" : "android::hardware::gnss::V1_0::IGnssCallback::Capabilities::GEOFENCING"
    },
    {
     "enum_field_value" : 64,
     "name" : "android::hardware::gnss::V1_0::IGnssCallback::Capabilities::MEASUREMENTS"
    },
    {
     "enum_field_value" : 128,
     "name" : "android::hardware::gnss::V1_0::IGnssCallback::Capabilities::NAV_MESSAGES"
    }
   ],
   "linker_set_key" : "_ZTIN7android8hardware4gnss4V1_013IGnssCallback12CapabilitiesE",
   "name" : "android::hardware::gnss::V1_0::IGnssCallback::Capabilities",
   "referenced_type" : "_ZTIN7android8hardware4gnss4V1_013IGnssCallback12CapabilitiesE",
   "self_type" : "_ZTIN7android8hardware4gnss4V1_013IGnssCallback12CapabilitiesE",
   "size" : 4,
   "source_file" : "/out/soong/.intermediates/hardware/interfaces/gnss/1.0/android.hardware.gnss@1.0_genc++_headers/gen/android/hardware/gnss/1.0/IGnssCallback.h",
   "underlying_type" : "_ZTIj"
  },
  {
   "alignment" : 1,
   "enum_fields" :
   [
    {
     "enum_field_value" : 0,
     "name" : "android::hardware::gnss::V1_0::IGnssCallback::GnssStatusValue::NONE"
    },
    {
     "enum_field_value" : 1,
     "name" : "android::hardware::gnss::V1_0::IGnssCallback::GnssStatusValue::SESSION_BEGIN"
    },
    {
     "enum_field_value" : 2,
     "name" : "android::hardware::gnss::V1_0::IGnssCallback::GnssStatusValue::SESSION_END"
    },
    {
     "enum_field_value" : 3,
     "name" : "android::hardware::gnss::V1_0::IGnssCallback::GnssStatusValue::ENGINE_ON"
    },
    {
     "enum_field_value" : 4,
     "name" : "android::hardware::gnss::V1_0::IGnssCallback::GnssStatusValue::ENGINE_OFF"
    }
   ],
   "linker_set_key" : "_ZTIN7android8hardware4gnss4V1_013IGnssCallback15GnssStatusValueE",
   "name" : "android::hardware::gnss::V1_0::IGnssCallback::GnssStatusValue",
   "referenced_type" : "_ZTIN7android8hardware4gnss4V1_013IGnssCallback15GnssStatusValueE",
   "self_type" : "_ZTIN7android8hardware4gnss4V1_013IGnssCallback15GnssStatusValueE",
   "size" : 1,
   "source_file" : "/out/soong/.intermediates/hardware/interfaces/gnss/1.0/android.hardware.gnss@1.0_genc++_headers/gen/android/hardware/gnss/1.0/IGnssCallback.h",
   "underlying_type" : "_ZTIh"
  },
  {
   "alignment" : 1,
   "enum_fields" :
   [
    {
     "enum_field_value" : 1,
     "name" : "android::hardware::gnss::V1_0::IAGnssCallback::AGnssStatusValue::REQUEST_AGNSS_DATA_CONN"
    },
    {
     "enum_field_value" : 2,
     "name" : "android::hardware::gnss::V1_0::IAGnssCallback::AGnssStatusValue::RELEASE_AGNSS_DATA_CONN"
    },
    {
     "enum_field_value" : 3,
     "name" : "android::hardware::gnss::V1_0::IAGnssCallback::AGnssStatusValue::AGNSS_DATA_CONNECTED"
    },
    {
     "enum_field_value" : 4,
     "name" : "android::hardware::gnss::V1_0::IAGnssCallback::AGnssStatusValue::AGNSS_DATA_CONN_DONE"
    },
    {
     "enum_field_value" : 5,
     "name" : "android::hardware::gnss::V1_0::IAGnssCallback::AGnssStatusValue::AGNSS_DATA_CONN_FAILED"
    }
   ],
   "linker_set_key" : "_ZTIN7android8hardware4gnss4V1_014IAGnssCallback16AGnssStatusValueE",
   "name" : "android::hardware::gnss::V1_0::IAGnssCallback::AGnssStatusValue",
   "referenced_type" : "_ZTIN7android8hardware4gnss4V1_014IAGnssCallback16AGnssStatusValueE",
   "self_type" : "_ZTIN7android8hardware4gnss4V1_014IAGnssCallback16AGnssStatusValueE",
   "size" : 1,
   "source_file" : "/out/soong/.intermediates/hardware/interfaces/gnss/1.0/android.hardware.gnss@1.0_genc++_headers/gen/android/hardware/gnss/1.0/IAGnssCallback.h",
   "underlying_type" : "_ZTIh"
  },
  {
   "alignment" : 1,
   "enum_fields" :
   [
    {
     "enum_field_value" : 1,
     "name" : "android::hardware::gnss::V1_0::IAGnssCallback::AGnssType::TYPE_SUPL"
    },
    {
     "enum_field_value" : 2,
     "name" : "android::hardware::gnss::V1_0::IAGnssCallback::AGnssType::TYPE_C2K"
    }
   ],
   "linker_set_key" : "_ZTIN7android8hardware4gnss4V1_014IAGnssCallback9AGnssTypeE",
   "name" : "android::hardware::gnss::V1_0::IAGnssCallback::AGnssType",
   "referenced_type" : "_ZTIN7android8hardware4gnss4V1_014IAGnssCallback9AGnssTypeE",
   "self_type" : "_ZTIN7android8hardware4gnss4V1_014IAGnssCallback9AGnssTypeE",
   "size" : 1,
   "source_file" : "/out/soong/.intermediates/hardware/interfaces/gnss/1.0/android.hardware.gnss@1.0_genc++_headers/gen/android/hardware/gnss/1.0/IAGnssCallback.h",
   "underlying_type" : "_ZTIh"
  },
  {
   "alignment" : 1,
   "enum_fields" :
   [
    {
     "enum_field_value" : 1,
     "name" : "android::hardware::gnss::V1_0::IGnssNiCallback::GnssNiType::VOICE"
    },
    {
     "enum_field_value" : 2,
     "name" : "android::hardware::gnss::V1_0::IGnssNiCallback::GnssNiType::UMTS_SUPL"
    },
    {
     "enum_field_value" : 3,
     "name" : "android::hardware::gnss::V1_0::IGnssNiCallback::GnssNiType::UMTS_CTRL_PLANE"
    },
    {
     "enum_field_value" : 4,
     "name" : "android::hardware::gnss::V1_0::IGnssNiCallback::GnssNiType::EMERGENCY_SUPL"
    }
   ],
   "linker_set_key" : "_ZTIN7android8hardware4gnss4V1_015IGnssNiCallback10GnssNiTypeE",
   "name" : "android::hardware::gnss::V1_0::IGnssNiCallback::GnssNiType",
   "referenced_type" : "_ZTIN7android8hardware4gnss4V1_015IGnssNiCallback10GnssNiTypeE",
   "self_type" : "_ZTIN7android8hardware4gnss4V1_015IGnssNiCallback10GnssNiTypeE",
   "size" : 1,
   "source_file" : "/out/soong/.intermediates/hardware/interfaces/gnss/1.0/android.hardware.gnss@1.0_genc++_headers/gen/android/hardware/gnss/1.0/IGnssNiCallback.h",
   "underlying_type" : "_ZTIh"
  },
  {
   "alignment" : 4,
   "enum_fields" :
   [
    {
     "enum_field_value" : 1,
     "name" : "android::hardware::gnss::V1_0::IGnssNiCallback::GnssNiNotifyFlags::NEED_NOTIFY"
    },
    {
     "enum_field_value" : 2,
     "name" : "android::hardware::gnss::V1_0::IGnssNiCallback::GnssNiNotifyFlags::NEED_VERIFY"
    },
    {
     "enum_field_value" : 4,
     "name" : "android::hardware::gnss::V1_0::IGnssNiCallback::GnssNiNotifyFlags::PRIVACY_OVERRIDE"
    }
   ],
   "linker_set_key" : "_ZTIN7android8hardware4gnss4V1_015IGnssNiCallback17GnssNiNotifyFlagsE",
   "name" : "android::hardware::gnss::V1_0::IGnssNiCallback::GnssNiNotifyFlags",
   "referenced_type" : "_ZTIN7android8hardware4gnss4V1_015IGnssNiCallback17GnssNiNotifyFlagsE",
   "self_type" : "_ZTIN7android8hardware4gnss4V1_015IGnssNiCallback17GnssNiNotifyFlagsE",
   "size" : 4,
   "source_file" : "/out/soong/.intermediates/hardware/interfaces/gnss/1.0/android.hardware.gnss@1.0_genc++_headers/gen/android/hardware/gnss/1.0/IGnssNiCallback.h",
   "underlying_type" : "_ZTIj"
  },
  {
   "alignment" : 4,
   "enum_fields" :
   [
    {
     "enum_field_value" : 0,
     "name" : "android::hardware::gnss::V1_0::IGnssNiCallback::GnssNiEncodingType::ENC_NONE"
    },
    {
     "enum_field_value" : 1,
     "name" : "android::hardware::gnss::V1_0::IGnssNiCallback::GnssNiEncodingType::ENC_SUPL_GSM_DEFAULT"
    },
    {
     "enum_field_value" : 2,
     "name" : "android::hardware::gnss::V1_0::IGnssNiCallback::GnssNiEncodingType::ENC_SUPL_UTF8"
    },
    {
     "enum_field_value" : 3,
     "name" : "android::hardware::gnss::V1_0::IGnssNiCallback::GnssNiEncodingType::ENC_SUPL_UCS2"
    },
    {
     "enum_field_value" : -1,
     "name" : "android::hardware::gnss::V1_0::IGnssNiCallback::GnssNiEncodingType::ENC_UNKNOWN"
    }
   ],
   "linker_set_key" : "_ZTIN7android8hardware4gnss4V1_015IGnssNiCallback18GnssNiEncodingTypeE",
   "name" : "android::hardware::gnss::V1_0::IGnssNiCallback::GnssNiEncodingType",
   "referenced_type" : "_ZTIN7android8hardware4gnss4V1_015IGnssNiCallback18GnssNiEncodingTypeE",
   "self_type" : "_ZTIN7android8hardware4gnss4V1_015IGnssNiCallback18GnssNiEncodingTypeE",
   "size" : 4,
   "source_file" : "/out/soong/.intermediates/hardware/interfaces/gnss/1.0/android.hardware.gnss@1.0_genc++_headers/gen/android/hardware/gnss/1.0/IGnssNiCallback.h",
   "underlying_type" : "_ZTIi"
  },
  {
   "alignment" : 1,
   "enum_fields" :
   [
    {
     "enum_field_value" : 1,
     "name" : "android::hardware::gnss::V1_0::IGnssNiCallback::GnssUserResponseType::RESPONSE_ACCEPT"
    },
    {
     "enum_field_value" : 2,
     "name" : "android::hardware::gnss::V1_0::IGnssNiCallback::GnssUserResponseType::RESPONSE_DENY"
    },
    {
     "enum_field_value" : 3,
     "name" : "android::hardware::gnss::V1_0::IGnssNiCallback::GnssUserResponseType::RESPONSE_NORESP"
    }
   ],
   "linker_set_key" : "_ZTIN7android8hardware4gnss4V1_015IGnssNiCallback20GnssUserResponseTypeE",
   "name" : "android::hardware::gnss::V1_0::IGnssNiCallback::GnssUserResponseType",
   "referenced_type" : "_ZTIN7android8hardware4gnss4V1_015IGnssNiCallback20GnssUserResponseTypeE",
   "self_type" : "_ZTIN7android8hardware4gnss4V1_015IGnssNiCallback20GnssUserResponseTypeE",
   "size" : 1,
   "source_file" : "/out/soong/.intermediates/hardware/interfaces/gnss/1.0/android.hardware.gnss@1.0_genc++_headers/gen/android/hardware/gnss/1.0/IGnssNiCallback.h",
   "underlying_type" : "_ZTIh"
  },
  {
   "alignment" : 4,
   "enum_fields" :
   [
    {
     "enum_field_value" : 0,
     "name" : "android::hardware::gnss::V1_0::IGnssMeasurement::GnssMeasurementStatus::SUCCESS"
    },
    {
     "enum_field_value" : -100,
     "name" : "android::hardware::gnss::V1_0::IGnssMeasurement::GnssMeasurementStatus::ERROR_ALREADY_INIT"
    },
    {
     "enum_field_value" : -101,
     "name" : "android::hardware::gnss::V1_0::IGnssMeasurement::GnssMeasurementStatus::ERROR_GENERIC"
    }
   ],
   "linker_set_key" : "_ZTIN7android8hardware4gnss4V1_016IGnssMeasurement21GnssMeasurementStatusE",
   "name" : "android::hardware::gnss::V1_0::IGnssMeasurement::GnssMeasurementStatus",
   "referenced_type" : "_ZTIN7android8hardware4gnss4V1_016IGnssMeasurement21GnssMeasurementStatusE",
   "self_type" : "_ZTIN7android8hardware4gnss4V1_016IGnssMeasurement21GnssMeasurementStatusE",
   "size" : 4,
   "source_file" : "/out/soong/.intermediates/hardware/interfaces/gnss/1.0/android.hardware.gnss@1.0_genc++_headers/gen/android/hardware/gnss/1.0/IGnssMeasurement.h",
   "underlying_type" : "_ZTIi"
  },
  {
   "alignment" : 2,
   "enum_fields" :
   [
    {
     "enum_field_value" : 1,
     "name" : "android::hardware::gnss::V1_0::GnssLocationFlags::HAS_LAT_LONG"
    },
    {
     "enum_field_value" : 2,
     "name" : "android::hardware::gnss::V1_0::GnssLocationFlags::HAS_ALTITUDE"
    },
    {
     "enum_field_value" : 4,
     "name" : "android::hardware::gnss::V1_0::GnssLocationFlags::HAS_SPEED"
    },
    {
     "enum_field_value" : 8,
     "name" : "android::hardware::gnss::V1_0::GnssLocationFlags::HAS_BEARING"
    },
    {
     "enum_field_value" : 16,
     "name" : "android::hardware::gnss::V1_0::GnssLocationFlags::HAS_HORIZONTAL_ACCURACY"
    },
    {
     "enum_field_value" : 32,
     "name" : "android::hardware::gnss::V1_0::GnssLocationFlags::HAS_VERTICAL_ACCURACY"
    },
    {
     "enum_field_value" : 64,
     "name" : "android::hardware::gnss::V1_0::GnssLocationFlags::HAS_SPEED_ACCURACY"
    },
    {
     "enum_field_value" : 128,
     "name" : "android::hardware::gnss::V1_0::GnssLocationFlags::HAS_BEARING_ACCURACY"
    }
   ],
   "linker_set_key" : "_ZTIN7android8hardware4gnss4V1_017GnssLocationFlagsE",
   "name" : "android::hardware::gnss::V1_0::GnssLocationFlags",
   "referenced_type" : "_ZTIN7android8hardware4gnss4V1_017GnssLocationFlagsE",
   "self_type" : "_ZTIN7android8hardware4gnss4V1_017GnssLocationFlagsE",
   "size" : 2,
   "source_file" : "/out/soong/.intermediates/hardware/interfaces/gnss/1.0/android.hardware.gnss@1.0_genc++_headers/gen/android/hardware/gnss/1.0/types.h",
   "underlying_type" : "_ZTIt"
  },
  {
   "alignment" : 4,
   "enum_fields" :
   [
    {
     "enum_field_value" : 1,
     "name" : "android::hardware::gnss::V1_0::IAGnssRilCallback::ID::IMSI"
    },
    {
     "enum_field_value" : 2,
     "name" : "android::hardware::gnss::V1_0::IAGnssRilCallback::ID::MSISDN"
    }
   ],
   "linker_set_key" : "_ZTIN7android8hardware4gnss4V1_017IAGnssRilCallback2IDE",
   "name" : "android::hardware::gnss::V1_0::IAGnssRilCallback::ID",
   "referenced_type" : "_ZTIN7android8hardware4gnss4V1_017IAGnssRilCallback2IDE",
   "self_type" : "_ZTIN7android8hardware4gnss4V1_017IAGnssRilCallback2IDE",
   "size" : 4,
   "source_file" : "/out/soong/.intermediates/hardware/interfaces/gnss/1.0/android.hardware.gnss@1.0_genc++_headers/gen/android/hardware/gnss/1.0/IAGnssRilCallback.h",
   "underlying_type" : "_ZTIj"
  },
  {
   "alignment" : 1,
   "enum_fields" :
   [
    {
     "enum_field_value" : 1,
     "name" : "android::hardware::gnss::V1_0::IGnssConfiguration::LppProfile::USER_PLANE"
    },
    {
     "enum_field_value" : 2,
     "name" : "android::hardware::gnss::V1_0::IGnssConfiguration::LppProfile::CONTROL_PLANE"
    }
   ],
   "linker_set_key" : "_ZTIN7android8hardware4gnss4V1_018IGnssConfiguration10LppProfileE",
   "name" : "android::hardware::gnss::V1_0::IGnssConfiguration::LppProfile",
   "referenced_type" : "_ZTIN7android8hardware4gnss4V1_018IGnssConfiguration10LppProfileE",
   "self_type" : "_ZTIN7android8hardware4gnss4V1_018IGnssConfiguration10LppProfileE",
   "size" : 1,
   "source_file" : "/out/soong/.intermediates/hardware/interfaces/gnss/1.0/android.hardware.gnss@1.0_genc++_headers/gen/android/hardware/gnss/1.0/IGnssConfiguration.h",
   "underlying_type" : "_ZTIh"
  },
  {
   "alignment" : 1,
   "enum_fields" :
   [
    {
     "enum_field_value" : 1,
     "name" : "android::hardware::gnss::V1_0::IGnssConfiguration::GlonassPosProtocol::RRC_CPLANE"
    },
    {
     "enum_field_value" : 2,
     "name" : "android::hardware::gnss::V1_0::IGnssConfiguration::GlonassPosProtocol::RRLP_CPLANE"
    },
    {
     "enum_field_value" : 4,
     "name" : "android::hardware::gnss::V1_0::IGnssConfiguration::GlonassPosProtocol::LPP_UPLANE"
    }
   ],
   "linker_set_key" : "_ZTIN7android8hardware4gnss4V1_018IGnssConfiguration18GlonassPosProtocolE",
   "name" : "android::hardware::gnss::V1_0::IGnssConfiguration::GlonassPosProtocol",
   "referenced_type" : "_ZTIN7android8hardware4gnss4V1_018IGnssConfiguration18GlonassPosProtocolE",
   "self_type" : "_ZTIN7android8hardware4gnss4V1_018IGnssConfiguration18GlonassPosProtocolE",
   "size" : 1,
   "source_file" : "/out/soong/.intermediates/hardware/interfaces/gnss/1.0/android.hardware.gnss@1.0_genc++_headers/gen/android/hardware/gnss/1.0/IGnssConfiguration.h",
   "underlying_type" : "_ZTIh"
  },
  {
   "alignment" : 1,
   "enum_fields" :
   [
    {
     "enum_field_value" : 1,
     "name" : "android::hardware::gnss::V1_0::IGnssConfiguration::GpsLock::MO"
    },
    {
     "enum_field_value" : 2,
     "name" : "android::hardware::gnss::V1_0::IGnssConfiguration::GpsLock::NI"
    }
   ],
   "linker_set_key" : "_ZTIN7android8hardware4gnss4V1_018IGnssConfiguration7GpsLockE",
   "name" : "android::hardware::gnss::V1_0::IGnssConfiguration::GpsLock",
   "referenced_type" : "_ZTIN7android8hardware4gnss4V1_018IGnssConfiguration7GpsLockE",
   "self_type" : "_ZTIN7android8hardware4gnss4V1_018IGnssConfiguration7GpsLockE",
   "size" : 1,
   "source_file" : "/out/soong/.intermediates/hardware/interfaces/gnss/1.0/android.hardware.gnss@1.0_genc++_headers/gen/android/hardware/gnss/1.0/IGnssConfiguration.h",
   "underlying_type" : "_ZTIh"
  },
  {
   "alignment" : 1,
   "enum_fields" :
   [
    {
     "enum_field_value" : 1,
     "name" : "android::hardware::gnss::V1_0::IGnssConfiguration::SuplMode::MSB"
    },
    {
     "enum_field_value" : 2,
     "name" : "android::hardware::gnss::V1_0::IGnssConfiguration::SuplMode::MSA"
    }
   ],
   "linker_set_key" : "_ZTIN7android8hardware4gnss4V1_018IGnssConfiguration8SuplModeE",
   "name" : "android::hardware::gnss::V1_0::IGnssConfiguration::SuplMode",
   "referenced_type" : "_ZTIN7android8hardware4gnss4V1_018IGnssConfiguration8SuplModeE",
   "self_type" : "_ZTIN7android8hardware4gnss4V1_018IGnssConfiguration8SuplModeE",
   "size" : 1,
   "source_file" : "/out/soong/.intermediates/hardware/interfaces/gnss/1.0/android.hardware.gnss@1.0_genc++_headers/gen/android/hardware/gnss/1.0/IGnssConfiguration.h",
   "underlying_type" : "_ZTIh"
  },
  {
   "alignment" : 1,
   "enum_fields" :
   [
    {
     "enum_field_value" : 0,
     "name" : "android::hardware::gnss::V1_0::GnssConstellationType::UNKNOWN"
    },
    {
     "enum_field_value" : 1,
     "name" : "android::hardware::gnss::V1_0::GnssConstellationType::GPS"
    },
    {
     "enum_field_value" : 2,
     "name" : "android::hardware::gnss::V1_0::GnssConstellationType::SBAS"
    },
    {
     "enum_field_value" : 3,
     "name" : "android::hardware::gnss::V1_0::GnssConstellationType::GLONASS"
    },
    {
     "enum_field_value" : 4,
     "name" : "android::hardware::gnss::V1_0::GnssConstellationType::QZSS"
    },
    {
     "enum_field_value" : 5,
     "name" : "android::hardware::gnss::V1_0::GnssConstellationType::BEIDOU"
    },
    {
     "enum_field_value" : 6,
     "name" : "android::hardware::gnss::V1_0::GnssConstellationType::GALILEO"
    }
   ],
   "linker_set_key" : "_ZTIN7android8hardware4gnss4V1_021GnssConstellationTypeE",
   "name" : "android::hardware::gnss::V1_0::GnssConstellationType",
   "referenced_type" : "_ZTIN7android8hardware4gnss4V1_021GnssConstellationTypeE",
   "self_type" : "_ZTIN7android8hardware4gnss4V1_021GnssConstellationTypeE",
   "size" : 1,
   "source_file" : "/out/soong/.intermediates/hardware/interfaces/gnss/1.0/android.hardware.gnss@1.0_genc++_headers/gen/android/hardware/gnss/1.0/types.h",
   "underlying_type" : "_ZTIh"
  },
  {
   "alignment" : 4,
   "enum_fields" :
   [
    {
     "enum_field_value" : 0,
     "name" : "android::hardware::gnss::V1_0::IGnssGeofenceCallback::GeofenceStatus::OPERATION_SUCCESS"
    },
    {
     "enum_field_value" : -100,
     "name" : "android::hardware::gnss::V1_0::IGnssGeofenceCallback::GeofenceStatus::ERROR_TOO_MANY_GEOFENCES"
    },
    {
     "enum_field_value" : -101,
     "name" : "android::hardware::gnss::V1_0::IGnssGeofenceCallback::GeofenceStatus::ERROR_ID_EXISTS"
    },
    {
     "enum_field_value" : -102,
     "name" : "android::hardware::gnss::V1_0::IGnssGeofenceCallback::GeofenceStatus::ERROR_ID_UNKNOWN"
    },
    {
     "enum_field_value" : -103,
     "name" : "android::hardware::gnss::V1_0::IGnssGeofenceCallback::GeofenceStatus::ERROR_INVALID_TRANSITION"
    },
    {
     "enum_field_value" : -149,
     "name" : "android::hardware::gnss::V1_0::IGnssGeofenceCallback::GeofenceStatus::ERROR_GENERIC"
    }
   ],
   "linker_set_key" : "_ZTIN7android8hardware4gnss4V1_021IGnssGeofenceCallback14GeofenceStatusE",
   "name" : "android::hardware::gnss::V1_0::IGnssGeofenceCallback::GeofenceStatus",
   "referenced_type" : "_ZTIN7android8hardware4gnss4V1_021IGnssGeofenceCallback14GeofenceStatusE",
   "self_type" : "_ZTIN7android8hardware4gnss4V1_021IGnssGeofenceCallback14GeofenceStatusE",
   "size" : 4,
   "source_file" : "/out/soong/.intermediates/hardware/interfaces/gnss/1.0/android.hardware.gnss@1.0_genc++_headers/gen/android/hardware/gnss/1.0/IGnssGeofenceCallback.h",
   "underlying_type" : "_ZTIi"
  },
  {
   "alignment" : 4,
   "enum_fields" :
   [
    {
     "enum_field_value" : 1,
     "name" : "android::hardware::gnss::V1_0::IGnssGeofenceCallback::GeofenceTransition::ENTERED"
    },
    {
     "enum_field_value" : 2,
     "name" : "android::hardware::gnss::V1_0::IGnssGeofenceCallback::GeofenceTransition::EXITED"
    },
    {
     "enum_field_value" : 4,
     "name" : "android::hardware::gnss::V1_0::IGnssGeofenceCallback::GeofenceTransition::UNCERTAIN"
    }
   ],
   "linker_set_key" : "_ZTIN7android8hardware4gnss4V1_021IGnssGeofenceCallback18GeofenceTransitionE",
   "name" : "android::hardware::gnss::V1_0::IGnssGeofenceCallback::GeofenceTransition",
   "referenced_type" : "_ZTIN7android8hardware4gnss4V1_021IGnssGeofenceCallback18GeofenceTransitionE",
   "self_type" : "_ZTIN7android8hardware4gnss4V1_021IGnssGeofenceCallback18GeofenceTransitionE",
   "size" : 4,
   "source_file" : "/out/soong/.intermediates/hardware/interfaces/gnss/1.0/android.hardware.gnss@1.0_genc++_headers/gen/android/hardware/gnss/1.0/IGnssGeofenceCallback.h",
   "underlying_type" : "_ZTIi"
  },
  {
   "alignment" : 4,
   "enum_fields" :
   [
    {
     "enum_field_value" : 1,
     "name" : "android::hardware::gnss::V1_0::IGnssGeofenceCallback::GeofenceAvailability::UNAVAILABLE"
    },
    {
     "enum_field_value" : 2,
     "name" : "android::hardware::gnss::V1_0::IGnssGeofenceCallback::GeofenceAvailability::AVAILABLE"
    }
   ],
   "linker_set_key" : "_ZTIN7android8hardware4gnss4V1_021IGnssGeofenceCallback20GeofenceAvailabilityE",
   "name" : "android::hardware::gnss::V1_0::IGnssGeofenceCallback::GeofenceAvailability",
   "referenced_type" : "_ZTIN7android8hardware4gnss4V1_021IGnssGeofenceCallback20GeofenceAvailabilityE",
   "self_type" : "_ZTIN7android8hardware4gnss4V1_021IGnssGeofenceCallback20GeofenceAvailabilityE",
   "size" : 4,
   "source_file" : "/out/soong/.intermediates/hardware/interfaces/gnss/1.0/android.hardware.gnss@1.0_genc++_headers/gen/android/hardware/gnss/1.0/IGnssGeofenceCallback.h",
   "underlying_type" : "_ZTIi"
  },
  {
   "alignment" : 4,
   "enum_fields" :
   [
    {
     "enum_field_value" : 0,
     "name" : "android::hardware::gnss::V1_0::IGnssNavigationMessage::GnssNavigationMessageStatus::SUCCESS"
    },
    {
     "enum_field_value" : -100,
     "name" : "android::hardware::gnss::V1_0::IGnssNavigationMessage::GnssNavigationMessageStatus::ERROR_ALREADY_INIT"
    },
    {
     "enum_field_value" : -101,
     "name" : "android::hardware::gnss::V1_0::IGnssNavigationMessage::GnssNavigationMessageStatus::ERROR_GENERIC"
    }
   ],
   "linker_set_key" : "_ZTIN7android8hardware4gnss4V1_022IGnssNavigationMessage27GnssNavigationMessageStatusE",
   "name" : "android::hardware::gnss::V1_0::IGnssNavigationMessage::GnssNavigationMessageStatus",
   "referenced_type" : "_ZTIN7android8hardware4gnss4V1_022IGnssNavigationMessage27GnssNavigationMessageStatusE",
   "self_type" : "_ZTIN7android8hardware4gnss4V1_022IGnssNavigationMessage27GnssNavigationMessageStatusE",
   "size" : 4,
   "source_file" : "/out/soong/.intermediates/hardware/interfaces/gnss/1.0/android.hardware.gnss@1.0_genc++_headers/gen/android/hardware/gnss/1.0/IGnssNavigationMessage.h",
   "underlying_type" : "_ZTIi"
  },
  {
   "alignment" : 2,
   "enum_fields" :
   [
    {
     "enum_field_value" : 1,
     "name" : "android::hardware::gnss::V1_0::IGnssMeasurementCallback::GnssClockFlags::HAS_LEAP_SECOND"
    },
    {
     "enum_field_value" : 2,
     "name" : "android::hardware::gnss::V1_0::IGnssMeasurementCallback::GnssClockFlags::HAS_TIME_UNCERTAINTY"
    },
    {
     "enum_field_value" : 4,
     "name" : "android::hardware::gnss::V1_0::IGnssMeasurementCallback::GnssClockFlags::HAS_FULL_BIAS"
    },
    {
     "enum_field_value" : 8,
     "name" : "android::hardware::gnss::V1_0::IGnssMeasurementCallback::GnssClockFlags::HAS_BIAS"
    },
    {
     "enum_field_value" : 16,
     "name" : "android::hardware::gnss::V1_0::IGnssMeasurementCallback::GnssClockFlags::HAS_BIAS_UNCERTAINTY"
    },
    {
     "enum_field_value" : 32,
     "name" : "android::hardware::gnss::V1_0::IGnssMeasurementCallback::GnssClockFlags::HAS_DRIFT"
    },
    {
     "enum_field_value" : 64,
     "name" : "android::hardware::gnss::V1_0::IGnssMeasurementCallback::GnssClockFlags::HAS_DRIFT_UNCERTAINTY"
    }
   ],
   "linker_set_key" : "_ZTIN7android8hardware4gnss4V1_024IGnssMeasurementCallback14GnssClockFlagsE",
   "name" : "android::hardware::gnss::V1_0::IGnssMeasurementCallback::GnssClockFlags",
   "referenced_type" : "_ZTIN7android8hardware4gnss4V1_024IGnssMeasurementCallback14GnssClockFlagsE",
   "self_type" : "_ZTIN7android8hardware4gnss4V1_024IGnssMeasurementCallback14GnssClockFlagsE",
   "size" : 2,
   "source_file" : "/out/soong/.intermediates/hardware/interfaces/gnss/1.0/android.hardware.gnss@1.0_genc++_headers/gen/android/hardware/gnss/1.0/IGnssMeasurementCallback.h",
   "underlying_type" : "_ZTIt"
  },
  {
   "alignment" : 4,
   "enum_fields" :
   [
    {
     "enum_field_value" : 1,
     "name" : "android::hardware::gnss::V1_0::IGnssMeasurementCallback::GnssMeasurementFlags::HAS_SNR"
    },
    {
     "enum_field_value" : 512,
     "name" : "android::hardware::gnss::V1_0::IGnssMeasurementCallback::GnssMeasurementFlags::HAS_CARRIER_FREQUENCY"
    },
    {
     "enum_field_value" : 1024,
     "name" : "android::hardware::gnss::V1_0::IGnssMeasurementCallback::GnssMeasurementFlags::HAS_CARRIER_CYCLES"
    },
    {
     "enum_field_value" : 2048,
     "name" : "android::hardware::gnss::V1_0::IGnssMeasurementCallback::GnssMeasurementFlags::HAS_CARRIER_PHASE"
    },
    {
     "enum_field_value" : 4096,
     "name" : "android::hardware::gnss::V1_0::IGnssMeasurementCallback::GnssMeasurementFlags::HAS_CARRIER_PHASE_UNCERTAINTY"
    },
    {
     "enum_field_value" : 8192,
     "name" : "android::hardware::gnss::V1_0::IGnssMeasurementCallback::GnssMeasurementFlags::HAS_AUTOMATIC_GAIN_CONTROL"
    }
   ],
   "linker_set_key" : "_ZTIN7android8hardware4gnss4V1_024IGnssMeasurementCallback20GnssMeasurementFlagsE",
   "name" : "android::hardware::gnss::V1_0::IGnssMeasurementCallback::GnssMeasurementFlags",
   "referenced_type" : "_ZTIN7android8hardware4gnss4V1_024IGnssMeasurementCallback20GnssMeasurementFlagsE",
   "self_type" : "_ZTIN7android8hardware4gnss4V1_024IGnssMeasurementCallback20GnssMeasurementFlagsE",
   "size" : 4,
   "source_file" : "/out/soong/.intermediates/hardware/interfaces/gnss/1.0/android.hardware.gnss@1.0_genc++_headers/gen/android/hardware/gnss/1.0/IGnssMeasurementCallback.h",
   "underlying_type" : "_ZTIj"
  },
  {
   "alignment" : 4,
   "enum_fields" :
   [
    {
     "enum_field_value" : 0,
     "name" : "android::hardware::gnss::V1_0::IGnssMeasurementCallback::GnssMeasurementState::STATE_UNKNOWN"
    },
    {
     "enum_field_value" : 1,
     "name" : "android::hardware::gnss::V1_0::IGnssMeasurementCallback::GnssMeasurementState::STATE_CODE_LOCK"
    },
    {
     "enum_field_value" : 2,
     "name" : "android::hardware::gnss::V1_0::IGnssMeasurementCallback::GnssMeasurementState::STATE_BIT_SYNC"
    },
    {
     "enum_field_value" : 4,
     "name" : "android::hardware::gnss::V1_0::IGnssMeasurementCallback::GnssMeasurementState::STATE_SUBFRAME_SYNC"
    },
    {
     "enum_field_value" : 8,
     "name" : "android::hardware::gnss::V1_0::IGnssMeasurementCallback::GnssMeasurementState::STATE_TOW_DECODED"
    },
    {
     "enum_field_value" : 16,
     "name" : "android::hardware::gnss::V1_0::IGnssMeasurementCallback::GnssMeasurementState::STATE_MSEC_AMBIGUOUS"
    },
    {
     "enum_field_value" : 32,
     "name" : "android::hardware::gnss::V1_0::IGnssMeasurementCallback::GnssMeasurementState::STATE_SYMBOL_SYNC"
    },
    {
     "enum_field_value" : 64,
     "name" : "android::hardware::gnss::V1_0::IGnssMeasurementCallback::GnssMeasurementState::STATE_GLO_STRING_SYNC"
    },
    {
     "enum_field_value" : 128,
     "name" : "android::hardware::gnss::V1_0::IGnssMeasurementCallback::GnssMeasurementState::STATE_GLO_TOD_DECODED"
    },
    {
     "enum_field_value" : 256,
     "name" : "android::hardware::gnss::V1_0::IGnssMeasurementCallback::GnssMeasurementState::STATE_BDS_D2_BIT_SYNC"
    },
    {
     "enum_field_value" : 512,
     "name" : "android::hardware::gnss::V1_0::IGnssMeasurementCallback::GnssMeasurementState::STATE_BDS_D2_SUBFRAME_SYNC"
    },
    {
     "enum_field_value" : 1024,
     "name" : "android::hardware::gnss::V1_0::IGnssMeasurementCallback::GnssMeasurementState::STATE_GAL_E1BC_CODE_LOCK"
    },
    {
     "enum_field_value" : 2048,
     "name" : "android::hardware::gnss::V1_0::IGnssMeasurementCallback::GnssMeasurementState::STATE_GAL_E1C_2ND_CODE_LOCK"
    },
    {
     "enum_field_value" : 4096,
     "name" : "android::hardware::gnss::V1_0::IGnssMeasurementCallback::GnssMeasurementState::STATE_GAL_E1B_PAGE_SYNC"
    },
    {
     "enum_field_value" : 8192,
     "name" : "android::hardware::gnss::V1_0::IGnssMeasurementCallback::GnssMeasurementState::STATE_SBAS_SYNC"
    },
    {
     "enum_field_value" : 16384,
     "name" : "android::hardware::gnss::V1_0::IGnssMeasurementCallback::GnssMeasurementState::STATE_TOW_KNOWN"
    },
    {
     "enum_field_value" : 32768,
     "name" : "android::hardware::gnss::V1_0::IGnssMeasurementCallback::GnssMeasurementState::STATE_GLO_TOD_KNOWN"
    }
   ],
   "linker_set_key" : "_ZTIN7android8hardware4gnss4V1_024IGnssMeasurementCallback20GnssMeasurementStateE",
   "name" : "android::hardware::gnss::V1_0::IGnssMeasurementCallback::GnssMeasurementState",
   "referenced_type" : "_ZTIN7android8hardware4gnss4V1_024IGnssMeasurementCallback20GnssMeasurementStateE",
   "self_type" : "_ZTIN7android8hardware4gnss4V1_024IGnssMeasurementCallback20GnssMeasurementStateE",
   "size" : 4,
   "source_file" : "/out/soong/.intermediates/hardware/interfaces/gnss/1.0/android.hardware.gnss@1.0_genc++_headers/gen/android/hardware/gnss/1.0/IGnssMeasurementCallback.h",
   "underlying_type" : "_ZTIj"
  },
  {
   "alignment" : 1,
   "enum_fields" :
   [
    {
     "enum_field_value" : 0,
     "name" : "android::hardware::gnss::V1_0::IGnssMeasurementCallback::GnssMultipathIndicator::INDICATOR_UNKNOWN"
    },
    {
     "enum_field_value" : 1,
     "name" : "android::hardware::gnss::V1_0::IGnssMeasurementCallback::GnssMultipathIndicator::INDICATOR_PRESENT"
    },
    {
     "enum_field_value" : 2,
     "name" : "android::hardware::gnss::V1_0::IGnssMeasurementCallback::GnssMultipathIndicator::INDICATIOR_NOT_PRESENT"
    }
   ],
   "linker_set_key" : "_ZTIN7android8hardware4gnss4V1_024IGnssMeasurementCallback22GnssMultipathIndicatorE",
   "name" : "android::hardware::gnss::V1_0::IGnssMeasurementCallback::GnssMultipathIndicator",
   "referenced_type" : "_ZTIN7android8hardware4gnss4V1_024IGnssMeasurementCallback22GnssMultipathIndicatorE",
   "self_type" : "_ZTIN7android8hardware4gnss4V1_024IGnssMeasurementCallback22GnssMultipathIndicatorE",
   "size" : 1,
   "source_file" : "/out/soong/.intermediates/hardware/interfaces/gnss/1.0/android.hardware.gnss@1.0_genc++_headers/gen/android/hardware/gnss/1.0/IGnssMeasurementCallback.h",
   "underlying_type" : "_ZTIh"
  },
  {
   "alignment" : 2,
   "enum_fields" :
   [
    {
     "enum_field_value" : 0,
     "name" : "android::hardware::gnss::V1_0::IGnssMeasurementCallback::GnssAccumulatedDeltaRangeState::ADR_STATE_UNKNOWN"
    },
    {
     "enum_field_value" : 1,
     "name" : "android::hardware::gnss::V1_0::IGnssMeasurementCallback::GnssAccumulatedDeltaRangeState::ADR_STATE_VALID"
    },
    {
     "enum_field_value" : 2,
     "name" : "android::hardware::gnss::V1_0::IGnssMeasurementCallback::GnssAccumulatedDeltaRangeState::ADR_STATE_RESET"
    },
    {
     "enum_field_value" : 4,
     "name" : "android::hardware::gnss::V1_0::IGnssMeasurementCallback::GnssAccumulatedDeltaRangeState::ADR_STATE_CYCLE_SLIP"
    }
   ],
   "linker_set_key" : "_ZTIN7android8hardware4gnss4V1_024IGnssMeasurementCallback30GnssAccumulatedDeltaRangeStateE",
   "name" : "android::hardware::gnss::V1_0::IGnssMeasurementCallback::GnssAccumulatedDeltaRangeState",
   "referenced_type" : "_ZTIN7android8hardware4gnss4V1_024IGnssMeasurementCallback30GnssAccumulatedDeltaRangeStateE",
   "self_type" : "_ZTIN7android8hardware4gnss4V1_024IGnssMeasurementCallback30GnssAccumulatedDeltaRangeStateE",
   "size" : 2,
   "source_file" : "/out/soong/.intermediates/hardware/interfaces/gnss/1.0/android.hardware.gnss@1.0_genc++_headers/gen/android/hardware/gnss/1.0/IGnssMeasurementCallback.h",
   "underlying_type" : "_ZTIt"
  },
  {
   "alignment" : 2,
   "enum_fields" :
   [
    {
     "enum_field_value" : 1,
     "name" : "android::hardware::gnss::V1_0::IGnssNavigationMessageCallback::NavigationMessageStatus::PARITY_PASSED"
    },
    {
     "enum_field_value" : 2,
     "name" : "android::hardware::gnss::V1_0::IGnssNavigationMessageCallback::NavigationMessageStatus::PARITY_REBUILT"
    },
    {
     "enum_field_value" : 0,
     "name" : "android::hardware::gnss::V1_0::IGnssNavigationMessageCallback::NavigationMessageStatus::UNKNOWN"
    }
   ],
   "linker_set_key" : "_ZTIN7android8hardware4gnss4V1_030IGnssNavigationMessageCallback23NavigationMessageStatusE",
   "name" : "android::hardware::gnss::V1_0::IGnssNavigationMessageCallback::NavigationMessageStatus",
   "referenced_type" : "_ZTIN7android8hardware4gnss4V1_030IGnssNavigationMessageCallback23NavigationMessageStatusE",
   "self_type" : "_ZTIN7android8hardware4gnss4V1_030IGnssNavigationMessageCallback23NavigationMessageStatusE",
   "size" : 2,
   "source_file" : "/out/soong/.intermediates/hardware/interfaces/gnss/1.0/android.hardware.gnss@1.0_genc++_headers/gen/android/hardware/gnss/1.0/IGnssNavigationMessageCallback.h",
   "underlying_type" : "_ZTIt"
  },
  {
   "alignment" : 2,
   "enum_fields" :
   [
    {
     "enum_field_value" : 0,
     "name" : "android::hardware::gnss::V1_0::IGnssNavigationMessageCallback::GnssNavigationMessageType::UNKNOWN"
    },
    {
     "enum_field_value" : 257,
     "name" : "android::hardware::gnss::V1_0::IGnssNavigationMessageCallback::GnssNavigationMessageType::GPS_L1CA"
    },
    {
     "enum_field_value" : 258,
     "name" : "android::hardware::gnss::V1_0::IGnssNavigationMessageCallback::GnssNavigationMessageType::GPS_L2CNAV"
    },
    {
     "enum_field_value" : 259,
     "name" : "android::hardware::gnss::V1_0::IGnssNavigationMessageCallback::GnssNavigationMessageType::GPS_L5CNAV"
    },
    {
     "enum_field_value" : 260,
     "name" : "android::hardware::gnss::V1_0::IGnssNavigationMessageCallback::GnssNavigationMessageType::GPS_CNAV2"
    },
    {
     "enum_field_value" : 769,
     "name" : "android::hardware::gnss::V1_0::IGnssNavigationMessageCallback::GnssNavigationMessageType::GLO_L1CA"
    },
    {
     "enum_field_value" : 1281,
     "name" : "android::hardware::gnss::V1_0::IGnssNavigationMessageCallback::GnssNavigationMessageType::BDS_D1"
    },
    {
     "enum_field_value" : 1282,
     "name" : "android::hardware::gnss::V1_0::IGnssNavigationMessageCallback::GnssNavigationMessageType::BDS_D2"
    },
    {
     "enum_field_value" : 1537,
     "name" : "android::hardware::gnss::V1_0::IGnssNavigationMessageCallback::GnssNavigationMessageType::GAL_I"
    },
    {
     "enum_field_value" : 1538,
     "name" : "android::hardware::gnss::V1_0::IGnssNavigationMessageCallback::GnssNavigationMessageType::GAL_F"
    }
   ],
   "linker_set_key" : "_ZTIN7android8hardware4gnss4V1_030IGnssNavigationMessageCallback25GnssNavigationMessageTypeE",
   "name" : "android::hardware::gnss::V1_0::IGnssNavigationMessageCallback::GnssNavigationMessageType",
   "referenced_type" : "_ZTIN7android8hardware4gnss4V1_030IGnssNavigationMessageCallback25GnssNavigationMessageTypeE",
   "self_type" : "_ZTIN7android8hardware4gnss4V1_030IGnssNavigationMessageCallback25GnssNavigationMessageTypeE",
   "size" : 2,
   "source_file" : "/out/soong/.intermediates/hardware/interfaces/gnss/1.0/android.hardware.gnss@1.0_genc++_headers/gen/android/hardware/gnss/1.0/IGnssNavigationMessageCallback.h",
   "underlying_type" : "_ZTIs"
  },
  {
   "alignment" : 2,
   "enum_fields" :
   [
    {
     "enum_field_value" : 1,
     "name" : "android::hardware::gnss::V1_0::IGnss::GnssAidingData::DELETE_EPHEMERIS"
    },
    {
     "enum_field_value" : 2,
     "name" : "android::hardware::gnss::V1_0::IGnss::GnssAidingData::DELETE_ALMANAC"
    },
    {
     "enum_field_value" : 4,
     "name" : "android::hardware::gnss::V1_0::IGnss::GnssAidingData::DELETE_POSITION"
    },
    {
     "enum_field_value" : 8,
     "name" : "android::hardware::gnss::V1_0::IGnss::GnssAidingData::DELETE_TIME"
    },
    {
     "enum_field_value" : 16,
     "name" : "android::hardware::gnss::V1_0::IGnss::GnssAidingData::DELETE_IONO"
    },
    {
     "enum_field_value" : 32,
     "name" : "android::hardware::gnss::V1_0::IGnss::GnssAidingData::DELETE_UTC"
    },
    {
     "enum_field_value" : 64,
     "name" : "android::hardware::gnss::V1_0::IGnss::GnssAidingData::DELETE_HEALTH"
    },
    {
     "enum_field_value" : 128,
     "name" : "android::hardware::gnss::V1_0::IGnss::GnssAidingData::DELETE_SVDIR"
    },
    {
     "enum_field_value" : 256,
     "name" : "android::hardware::gnss::V1_0::IGnss::GnssAidingData::DELETE_SVSTEER"
    },
    {
     "enum_field_value" : 512,
     "name" : "android::hardware::gnss::V1_0::IGnss::GnssAidingData::DELETE_SADATA"
    },
    {
     "enum_field_value" : 1024,
     "name" : "android::hardware::gnss::V1_0::IGnss::GnssAidingData::DELETE_RTI"
    },
    {
     "enum_field_value" : 32768,
     "name" : "android::hardware::gnss::V1_0::IGnss::GnssAidingData::DELETE_CELLDB_INFO"
    },
    {
     "enum_field_value" : 65535,
     "name" : "android::hardware::gnss::V1_0::IGnss::GnssAidingData::DELETE_ALL"
    }
   ],
   "linker_set_key" : "_ZTIN7android8hardware4gnss4V1_05IGnss14GnssAidingDataE",
   "name" : "android::hardware::gnss::V1_0::IGnss::GnssAidingData",
   "referenced_type" : "_ZTIN7android8hardware4gnss4V1_05IGnss14GnssAidingDataE",
   "self_type" : "_ZTIN7android8hardware4gnss4V1_05IGnss14GnssAidingDataE",
   "size" : 2,
   "source_file" : "/out/soong/.intermediates/hardware/interfaces/gnss/1.0/android.hardware.gnss@1.0_genc++_headers/gen/android/hardware/gnss/1.0/IGnss.h",
   "underlying_type" : "_ZTIt"
  },
  {
   "alignment" : 1,
   "enum_fields" :
   [
    {
     "enum_field_value" : 0,
     "name" : "android::hardware::gnss::V1_0::IGnss::GnssPositionMode::STANDALONE"
    },
    {
     "enum_field_value" : 1,
     "name" : "android::hardware::gnss::V1_0::IGnss::GnssPositionMode::MS_BASED"
    },
    {
     "enum_field_value" : 2,
     "name" : "android::hardware::gnss::V1_0::IGnss::GnssPositionMode::MS_ASSISTED"
    }
   ],
   "linker_set_key" : "_ZTIN7android8hardware4gnss4V1_05IGnss16GnssPositionModeE",
   "name" : "android::hardware::gnss::V1_0::IGnss::GnssPositionMode",
   "referenced_type" : "_ZTIN7android8hardware4gnss4V1_05IGnss16GnssPositionModeE",
   "self_type" : "_ZTIN7android8hardware4gnss4V1_05IGnss16GnssPositionModeE",
   "size" : 1,
   "source_file" : "/out/soong/.intermediates/hardware/interfaces/gnss/1.0/android.hardware.gnss@1.0_genc++_headers/gen/android/hardware/gnss/1.0/IGnss.h",
   "underlying_type" : "_ZTIh"
  },
  {
   "alignment" : 4,
   "enum_fields" :
   [
    {
     "enum_field_value" : 0,
     "name" : "android::hardware::gnss::V1_0::IGnss::GnssPositionRecurrence::RECURRENCE_PERIODIC"
    },
    {
     "enum_field_value" : 1,
     "name" : "android::hardware::gnss::V1_0::IGnss::GnssPositionRecurrence::RECURRENCE_SINGLE"
    }
   ],
   "linker_set_key" : "_ZTIN7android8hardware4gnss4V1_05IGnss22GnssPositionRecurrenceE",
   "name" : "android::hardware::gnss::V1_0::IGnss::GnssPositionRecurrence",
   "referenced_type" : "_ZTIN7android8hardware4gnss4V1_05IGnss22GnssPositionRecurrenceE",
   "self_type" : "_ZTIN7android8hardware4gnss4V1_05IGnss22GnssPositionRecurrenceE",
   "size" : 4,
   "source_file" : "/out/soong/.intermediates/hardware/interfaces/gnss/1.0/android.hardware.gnss@1.0_genc++_headers/gen/android/hardware/gnss/1.0/IGnss.h",
   "underlying_type" : "_ZTIj"
  },
  {
   "alignment" : 1,
   "enum_fields" :
   [
    {
     "enum_field_value" : 0,
     "name" : "android::hardware::gnss::V1_0::IAGnss::ApnIpType::INVALID"
    },
    {
     "enum_field_value" : 1,
     "name" : "android::hardware::gnss::V1_0::IAGnss::ApnIpType::IPV4"
    },
    {
     "enum_field_value" : 2,
     "name" : "android::hardware::gnss::V1_0::IAGnss::ApnIpType::IPV6"
    },
    {
     "enum_field_value" : 3,
     "name" : "android::hardware::gnss::V1_0::IAGnss::ApnIpType::IPV4V6"
    }
   ],
   "linker_set_key" : "_ZTIN7android8hardware4gnss4V1_06IAGnss9ApnIpTypeE",
   "name" : "android::hardware::gnss::V1_0::IAGnss::ApnIpType",
   "referenced_type" : "_ZTIN7android8hardware4gnss4V1_06IAGnss9ApnIpTypeE",
   "self_type" : "_ZTIN7android8hardware4gnss4V1_06IAGnss9ApnIpTypeE",
   "size" : 1,
   "source_file" : "/out/soong/.intermediates/hardware/interfaces/gnss/1.0/android.hardware.gnss@1.0_genc++_headers/gen/android/hardware/gnss/1.0/IAGnss.h",
   "underlying_type" : "_ZTIh"
  },
  {
   "alignment" : 4,
   "enum_fields" :
   [
    {
     "enum_field_value" : 64,
     "name" : "android::hardware::gnss::V1_0::GnssMax::SVS_COUNT"
    }
   ],
   "linker_set_key" : "_ZTIN7android8hardware4gnss4V1_07GnssMaxE",
   "name" : "android::hardware::gnss::V1_0::GnssMax",
   "referenced_type" : "_ZTIN7android8hardware4gnss4V1_07GnssMaxE",
   "self_type" : "_ZTIN7android8hardware4gnss4V1_07GnssMaxE",
   "size" : 4,
   "source_file" : "/out/soong/.intermediates/hardware/interfaces/gnss/1.0/android.hardware.gnss@1.0_genc++_headers/gen/android/hardware/gnss/1.0/types.h",
   "underlying_type" : "_ZTIj"
  },
  {
   "alignment" : 1,
   "enum_fields" :
   [
    {
     "enum_field_value" : 0,
     "name" : "android::hardware::gnss::V1_0::IAGnssRil::NetworkType::MOBILE"
    },
    {
     "enum_field_value" : 1,
     "name" : "android::hardware::gnss::V1_0::IAGnssRil::NetworkType::WIFI"
    },
    {
     "enum_field_value" : 2,
     "name" : "android::hardware::gnss::V1_0::IAGnssRil::NetworkType::MMS"
    },
    {
     "enum_field_value" : 3,
     "name" : "android::hardware::gnss::V1_0::IAGnssRil::NetworkType::SUPL"
    },
    {
     "enum_field_value" : 4,
     "name" : "android::hardware::gnss::V1_0::IAGnssRil::NetworkType::DUN"
    },
    {
     "enum_field_value" : 5,
     "name" : "android::hardware::gnss::V1_0::IAGnssRil::NetworkType::HIPRI"
    },
    {
     "enum_field_value" : 6,
     "name" : "android::hardware::gnss::V1_0::IAGnssRil::NetworkType::WIMAX"
    }
   ],
   "linker_set_key" : "_ZTIN7android8hardware4gnss4V1_09IAGnssRil11NetworkTypeE",
   "name" : "android::hardware::gnss::V1_0::IAGnssRil::NetworkType",
   "referenced_type" : "_ZTIN7android8hardware4gnss4V1_09IAGnssRil11NetworkTypeE",
   "self_type" : "_ZTIN7android8hardware4gnss4V1_09IAGnssRil11NetworkTypeE",
   "size" : 1,
   "source_file" : "/out/soong/.intermediates/hardware/interfaces/gnss/1.0/android.hardware.gnss@1.0_genc++_headers/gen/android/hardware/gnss/1.0/IAGnssRil.h",
   "underlying_type" : "_ZTIh"
  },
  {
   "alignment" : 1,
   "enum_fields" :
   [
    {
     "enum_field_value" : 1,
     "name" : "android::hardware::gnss::V1_0::IAGnssRil::AGnssRefLocationType::GSM_CELLID"
    },
    {
     "enum_field_value" : 2,
     "name" : "android::hardware::gnss::V1_0::IAGnssRil::AGnssRefLocationType::UMTS_CELLID"
    },
    {
     "enum_field_value" : 4,
     "name" : "android::hardware::gnss::V1_0::IAGnssRil::AGnssRefLocationType::LTE_CELLID"
    }
   ],
   "linker_set_key" : "_ZTIN7android8hardware4gnss4V1_09IAGnssRil20AGnssRefLocationTypeE",
   "name" : "android::hardware::gnss::V1_0::IAGnssRil::AGnssRefLocationType",
   "referenced_type" : "_ZTIN7android8hardware4gnss4V1_09IAGnssRil20AGnssRefLocationTypeE",
   "self_type" : "_ZTIN7android8hardware4gnss4V1_09IAGnssRil20AGnssRefLocationTypeE",
   "size" : 1,
   "source_file" : "/out/soong/.intermediates/hardware/interfaces/gnss/1.0/android.hardware.gnss@1.0_genc++_headers/gen/android/hardware/gnss/1.0/IAGnssRil.h",
   "underlying_type" : "_ZTIh"
  },
  {
   "alignment" : 1,
   "enum_fields" :
   [
    {
     "enum_field_value" : 0,
     "name" : "android::hardware::gnss::V1_0::IAGnssRil::SetIDType::NONE"
    },
    {
     "enum_field_value" : 1,
     "name" : "android::hardware::gnss::V1_0::IAGnssRil::SetIDType::IMSI"
    },
    {
     "enum_field_value" : 2,
     "name" : "android::hardware::gnss::V1_0::IAGnssRil::SetIDType::MSISDM"
    }
   ],
   "linker_set_key" : "_ZTIN7android8hardware4gnss4V1_09IAGnssRil9SetIDTypeE",
   "name" : "android::hardware::gnss::V1_0::IAGnssRil::SetIDType",
   "referenced_type" : "_ZTIN7android8hardware4gnss4V1_09IAGnssRil9SetIDTypeE",
   "self_type" : "_ZTIN7android8hardware4gnss4V1_09IAGnssRil9SetIDTypeE",
   "size" : 1,
   "source_file" : "/out/soong/.intermediates/hardware/interfaces/gnss/1.0/android.hardware.gnss@1.0_genc++_headers/gen/android/hardware/gnss/1.0/IAGnssRil.h",
   "underlying_type" : "_ZTIh"
  },
  {
   "alignment" : 2,
   "enum_fields" :
   [
    {
     "enum_field_value" : 0,
     "name" : "android::hardware::gnss::V1_1::IGnssMeasurementCallback::GnssAccumulatedDeltaRangeState::ADR_STATE_UNKNOWN"
    },
    {
     "enum_field_value" : 1,
     "name" : "android::hardware::gnss::V1_1::IGnssMeasurementCallback::GnssAccumulatedDeltaRangeState::ADR_STATE_VALID"
    },
    {
     "enum_field_value" : 2,
     "name" : "android::hardware::gnss::V1_1::IGnssMeasurementCallback::GnssAccumulatedDeltaRangeState::ADR_STATE_RESET"
    },
    {
     "enum_field_value" : 4,
     "name" : "android::hardware::gnss::V1_1::IGnssMeasurementCallback::GnssAccumulatedDeltaRangeState::ADR_STATE_CYCLE_SLIP"
    },
    {
     "enum_field_value" : 8,
     "name" : "android::hardware::gnss::V1_1::IGnssMeasurementCallback::GnssAccumulatedDeltaRangeState::ADR_STATE_HALF_CYCLE_RESOLVED"
    }
   ],
   "linker_set_key" : "_ZTIN7android8hardware4gnss4V1_124IGnssMeasurementCallback30GnssAccumulatedDeltaRangeStateE",
   "name" : "android::hardware::gnss::V1_1::IGnssMeasurementCallback::GnssAccumulatedDeltaRangeState",
   "referenced_type" : "_ZTIN7android8hardware4gnss4V1_124IGnssMeasurementCallback30GnssAccumulatedDeltaRangeStateE",
   "self_type" : "_ZTIN7android8hardware4gnss4V1_124IGnssMeasurementCallback30GnssAccumulatedDeltaRangeStateE",
   "size" : 2,
   "source_file" : "/out/soong/.intermediates/hardware/interfaces/gnss/1.1/android.hardware.gnss@1.1_genc++_headers/gen/android/hardware/gnss/1.1/IGnssMeasurementCallback.h",
   "underlying_type" : "_ZTIt"
  },
  {
   "alignment" : 4,
   "enum_fields" :
   [
    {
     "enum_field_value" : 1,
     "name" : "android::hardware::gnss::V2_0::IGnssCallback::Capabilities::SCHEDULING"
    },
    {
     "enum_field_value" : 2,
     "name" : "android::hardware::gnss::V2_0::IGnssCallback::Capabilities::MSB"
    },
    {
     "enum_field_value" : 4,
     "name" : "android::hardware::gnss::V2_0::IGnssCallback::Capabilities::MSA"
    },
    {
     "enum_field_value" : 8,
     "name" : "android::hardware::gnss::V2_0::IGnssCallback::Capabilities::SINGLE_SHOT"
    },
    {
     "enum_field_value" : 16,
     "name" : "android::hardware::gnss::V2_0::IGnssCallback::Capabilities::ON_DEMAND_TIME"
    },
    {
     "enum_field_value" : 32,
     "name" : "android::hardware::gnss::V2_0::IGnssCallback::Capabilities::GEOFENCING"
    },
    {
     "enum_field_value" : 64,
     "name" : "android::hardware::gnss::V2_0::IGnssCallback::Capabilities::MEASUREMENTS"
    },
    {
     "enum_field_value" : 128,
     "name" : "android::hardware::gnss::V2_0::IGnssCallback::Capabilities::NAV_MESSAGES"
    },
    {
     "enum_field_value" : 256,
     "name" : "android::hardware::gnss::V2_0::IGnssCallback::Capabilities::LOW_POWER_MODE"
    },
    {
     "enum_field_value" : 512,
     "name" : "android::hardware::gnss::V2_0::IGnssCallback::Capabilities::SATELLITE_BLACKLIST"
    },
    {
     "enum_field_value" : 1024,
     "name" : "android::hardware::gnss::V2_0::IGnssCallback::Capabilities::MEASUREMENT_CORRECTIONS"
    }
   ],
   "linker_set_key" : "_ZTIN7android8hardware4gnss4V2_013IGnssCallback12CapabilitiesE",
   "name" : "android::hardware::gnss::V2_0::IGnssCallback::Capabilities",
   "referenced_type" : "_ZTIN7android8hardware4gnss4V2_013IGnssCallback12CapabilitiesE",
   "self_type" : "_ZTIN7android8hardware4gnss4V2_013IGnssCallback12CapabilitiesE",
   "size" : 4,
   "source_file" : "/out/soong/.intermediates/hardware/interfaces/gnss/2.0/android.hardware.gnss@2.0_genc++_headers/gen/android/hardware/gnss/2.0/IGnssCallback.h",
   "underlying_type" : "_ZTIj"
  },
  {
   "alignment" : 1,
   "enum_fields" :
   [
    {
     "enum_field_value" : 1,
     "name" : "android::hardware::gnss::V2_0::IAGnssCallback::AGnssStatusValue::REQUEST_AGNSS_DATA_CONN"
    },
    {
     "enum_field_value" : 2,
     "name" : "android::hardware::gnss::V2_0::IAGnssCallback::AGnssStatusValue::RELEASE_AGNSS_DATA_CONN"
    },
    {
     "enum_field_value" : 3,
     "name" : "android::hardware::gnss::V2_0::IAGnssCallback::AGnssStatusValue::AGNSS_DATA_CONNECTED"
    },
    {
     "enum_field_value" : 4,
     "name" : "android::hardware::gnss::V2_0::IAGnssCallback::AGnssStatusValue::AGNSS_DATA_CONN_DONE"
    },
    {
     "enum_field_value" : 5,
     "name" : "android::hardware::gnss::V2_0::IAGnssCallback::AGnssStatusValue::AGNSS_DATA_CONN_FAILED"
    }
   ],
   "linker_set_key" : "_ZTIN7android8hardware4gnss4V2_014IAGnssCallback16AGnssStatusValueE",
   "name" : "android::hardware::gnss::V2_0::IAGnssCallback::AGnssStatusValue",
   "referenced_type" : "_ZTIN7android8hardware4gnss4V2_014IAGnssCallback16AGnssStatusValueE",
   "self_type" : "_ZTIN7android8hardware4gnss4V2_014IAGnssCallback16AGnssStatusValueE",
   "size" : 1,
   "source_file" : "/out/soong/.intermediates/hardware/interfaces/gnss/2.0/android.hardware.gnss@2.0_genc++_headers/gen/android/hardware/gnss/2.0/IAGnssCallback.h",
   "underlying_type" : "_ZTIh"
  },
  {
   "alignment" : 1,
   "enum_fields" :
   [
    {
     "enum_field_value" : 1,
     "name" : "android::hardware::gnss::V2_0::IAGnssCallback::AGnssType::SUPL"
    },
    {
     "enum_field_value" : 2,
     "name" : "android::hardware::gnss::V2_0::IAGnssCallback::AGnssType::C2K"
    },
    {
     "enum_field_value" : 3,
     "name" : "android::hardware::gnss::V2_0::IAGnssCallback::AGnssType::SUPL_EIMS"
    },
    {
     "enum_field_value" : 4,
     "name" : "android::hardware::gnss::V2_0::IAGnssCallback::AGnssType::SUPL_IMS"
    }
   ],
   "linker_set_key" : "_ZTIN7android8hardware4gnss4V2_014IAGnssCallback9AGnssTypeE",
   "name" : "android::hardware::gnss::V2_0::IAGnssCallback::AGnssType",
   "referenced_type" : "_ZTIN7android8hardware4gnss4V2_014IAGnssCallback9AGnssTypeE",
   "self_type" : "_ZTIN7android8hardware4gnss4V2_014IAGnssCallback9AGnssTypeE",
   "size" : 1,
   "source_file" : "/out/soong/.intermediates/hardware/interfaces/gnss/2.0/android.hardware.gnss@2.0_genc++_headers/gen/android/hardware/gnss/2.0/IAGnssCallback.h",
   "underlying_type" : "_ZTIh"
  },
  {
   "alignment" : 2,
   "enum_fields" :
   [
    {
     "enum_field_value" : 1,
     "name" : "android::hardware::gnss::V2_0::ElapsedRealtimeFlags::HAS_TIMESTAMP_NS"
    },
    {
     "enum_field_value" : 2,
     "name" : "android::hardware::gnss::V2_0::ElapsedRealtimeFlags::HAS_TIME_UNCERTAINTY_NS"
    }
   ],
   "linker_set_key" : "_ZTIN7android8hardware4gnss4V2_020ElapsedRealtimeFlagsE",
   "name" : "android::hardware::gnss::V2_0::ElapsedRealtimeFlags",
   "referenced_type" : "_ZTIN7android8hardware4gnss4V2_020ElapsedRealtimeFlagsE",
   "self_type" : "_ZTIN7android8hardware4gnss4V2_020ElapsedRealtimeFlagsE",
   "size" : 2,
   "source_file" : "/out/soong/.intermediates/hardware/interfaces/gnss/2.0/android.hardware.gnss@2.0_genc++_headers/gen/android/hardware/gnss/2.0/types.h",
   "underlying_type" : "_ZTIt"
  },
  {
   "alignment" : 1,
   "enum_fields" :
   [
    {
     "enum_field_value" : 0,
     "name" : "android::hardware::gnss::V2_0::GnssConstellationType::UNKNOWN"
    },
    {
     "enum_field_value" : 1,
     "name" : "android::hardware::gnss::V2_0::GnssConstellationType::GPS"
    },
    {
     "enum_field_value" : 2,
     "name" : "android::hardware::gnss::V2_0::GnssConstellationType::SBAS"
    },
    {
     "enum_field_value" : 3,
     "name" : "android::hardware::gnss::V2_0::GnssConstellationType::GLONASS"
    },
    {
     "enum_field_value" : 4,
     "name" : "android::hardware::gnss::V2_0::GnssConstellationType::QZSS"
    },
    {
     "enum_field_value" : 5,
     "name" : "android::hardware::gnss::V2_0::GnssConstellationType::BEIDOU"
    },
    {
     "enum_field_value" : 6,
     "name" : "android::hardware::gnss::V2_0::GnssConstellationType::GALILEO"
    },
    {
     "enum_field_value" : 7,
     "name" : "android::hardware::gnss::V2_0::GnssConstellationType::IRNSS"
    }
   ],
   "linker_set_key" : "_ZTIN7android8hardware4gnss4V2_021GnssConstellationTypeE",
   "name" : "android::hardware::gnss::V2_0::GnssConstellationType",
   "referenced_type" : "_ZTIN7android8hardware4gnss4V2_021GnssConstellationTypeE",
   "self_type" : "_ZTIN7android8hardware4gnss4V2_021GnssConstellationTypeE",
   "size" : 1,
   "source_file" : "/out/soong/.intermediates/hardware/interfaces/gnss/2.0/android.hardware.gnss@2.0_genc++_headers/gen/android/hardware/gnss/2.0/types.h",
   "underlying_type" : "_ZTIh"
  },
  {
   "alignment" : 4,
   "enum_fields" :
   [
    {
     "enum_field_value" : 0,
     "name" : "android::hardware::gnss::V2_0::IGnssMeasurementCallback::GnssMeasurementState::STATE_UNKNOWN"
    },
    {
     "enum_field_value" : 1,
     "name" : "android::hardware::gnss::V2_0::IGnssMeasurementCallback::GnssMeasurementState::STATE_CODE_LOCK"
    },
    {
     "enum_field_value" : 2,
     "name" : "android::hardware::gnss::V2_0::IGnssMeasurementCallback::GnssMeasurementState::STATE_BIT_SYNC"
    },
    {
     "enum_field_value" : 4,
     "name" : "android::hardware::gnss::V2_0::IGnssMeasurementCallback::GnssMeasurementState::STATE_SUBFRAME_SYNC"
    },
    {
     "enum_field_value" : 8,
     "name" : "android::hardware::gnss::V2_0::IGnssMeasurementCallback::GnssMeasurementState::STATE_TOW_DECODED"
    },
    {
     "enum_field_value" : 16,
     "name" : "android::hardware::gnss::V2_0::IGnssMeasurementCallback::GnssMeasurementState::STATE_MSEC_AMBIGUOUS"
    },
    {
     "enum_field_value" : 32,
     "name" : "android::hardware::gnss::V2_0::IGnssMeasurementCallback::GnssMeasurementState::STATE_SYMBOL_SYNC"
    },
    {
     "enum_field_value" : 64,
     "name" : "android::hardware::gnss::V2_0::IGnssMeasurementCallback::GnssMeasurementState::STATE_GLO_STRING_SYNC"
    },
    {
     "enum_field_value" : 128,
     "name" : "android::hardware::gnss::V2_0::IGnssMeasurementCallback::GnssMeasurementState::STATE_GLO_TOD_DECODED"
    },
    {
     "enum_field_value" : 256,
     "name" : "android::hardware::gnss::V2_0::IGnssMeasurementCallback::GnssMeasurementState::STATE_BDS_D2_BIT_SYNC"
    },
    {
     "enum_field_value" : 512,
     "name" : "android::hardware::gnss::V2_0::IGnssMeasurementCallback::GnssMeasurementState::STATE_BDS_D2_SUBFRAME_SYNC"
    },
    {
     "enum_field_value" : 1024,
     "name" : "android::hardware::gnss::V2_0::IGnssMeasurementCallback::GnssMeasurementState::STATE_GAL_E1BC_CODE_LOCK"
    },
    {
     "enum_field_value" : 2048,
     "name" : "android::hardware::gnss::V2_0::IGnssMeasurementCallback::GnssMeasurementState::STATE_GAL_E1C_2ND_CODE_LOCK"
    },
    {
     "enum_field_value" : 4096,
     "name" : "android::hardware::gnss::V2_0::IGnssMeasurementCallback::GnssMeasurementState::STATE_GAL_E1B_PAGE_SYNC"
    },
    {
     "enum_field_value" : 8192,
     "name" : "android::hardware::gnss::V2_0::IGnssMeasurementCallback::GnssMeasurementState::STATE_SBAS_SYNC"
    },
    {
     "enum_field_value" : 16384,
     "name" : "android::hardware::gnss::V2_0::IGnssMeasurementCallback::GnssMeasurementState::STATE_TOW_KNOWN"
    },
    {
     "enum_field_value" : 32768,
     "name" : "android::hardware::gnss::V2_0::IGnssMeasurementCallback::GnssMeasurementState::STATE_GLO_TOD_KNOWN"
    },
    {
     "enum_field_value" : 65536,
     "name" : "android::hardware::gnss::V2_0::IGnssMeasurementCallback::GnssMeasurementState::STATE_2ND_CODE_LOCK"
    }
   ],
   "linker_set_key" : "_ZTIN7android8hardware4gnss4V2_024IGnssMeasurementCallback20GnssMeasurementStateE",
   "name" : "android::hardware::gnss::V2_0::IGnssMeasurementCallback::GnssMeasurementState",
   "referenced_type" : "_ZTIN7android8hardware4gnss4V2_024IGnssMeasurementCallback20GnssMeasurementStateE",
   "self_type" : "_ZTIN7android8hardware4gnss4V2_024IGnssMeasurementCallback20GnssMeasurementStateE",
   "size" : 4,
   "source_file" : "/out/soong/.intermediates/hardware/interfaces/gnss/2.0/android.hardware.gnss@2.0_genc++_headers/gen/android/hardware/gnss/2.0/IGnssMeasurementCallback.h",
   "underlying_type" : "_ZTIj"
  },
  {
   "alignment" : 1,
   "enum_fields" :
   [
    {
     "enum_field_value" : 0,
     "name" : "android::hardware::gnss::V2_0::IAGnss::ApnIpType::INVALID"
    },
    {
     "enum_field_value" : 1,
     "name" : "android::hardware::gnss::V2_0::IAGnss::ApnIpType::IPV4"
    },
    {
     "enum_field_value" : 2,
     "name" : "android::hardware::gnss::V2_0::IAGnss::ApnIpType::IPV6"
    },
    {
     "enum_field_value" : 3,
     "name" : "android::hardware::gnss::V2_0::IAGnss::ApnIpType::IPV4V6"
    }
   ],
   "linker_set_key" : "_ZTIN7android8hardware4gnss4V2_06IAGnss9ApnIpTypeE",
   "name" : "android::hardware::gnss::V2_0::IAGnss::ApnIpType",
   "referenced_type" : "_ZTIN7android8hardware4gnss4V2_06IAGnss9ApnIpTypeE",
   "self_type" : "_ZTIN7android8hardware4gnss4V2_06IAGnss9ApnIpTypeE",
   "size" : 1,
   "source_file" : "/out/soong/.intermediates/hardware/interfaces/gnss/2.0/android.hardware.gnss@2.0_genc++_headers/gen/android/hardware/gnss/2.0/IAGnss.h",
   "underlying_type" : "_ZTIh"
  },
  {
   "alignment" : 2,
   "enum_fields" :
   [
    {
     "enum_field_value" : 1,
     "name" : "android::hardware::gnss::V2_0::IAGnssRil::NetworkCapability::NOT_METERED"
    },
    {
     "enum_field_value" : 2,
     "name" : "android::hardware::gnss::V2_0::IAGnssRil::NetworkCapability::NOT_ROAMING"
    }
   ],
   "linker_set_key" : "_ZTIN7android8hardware4gnss4V2_09IAGnssRil17NetworkCapabilityE",
   "name" : "android::hardware::gnss::V2_0::IAGnssRil::NetworkCapability",
   "referenced_type" : "_ZTIN7android8hardware4gnss4V2_09IAGnssRil17NetworkCapabilityE",
   "self_type" : "_ZTIN7android8hardware4gnss4V2_09IAGnssRil17NetworkCapabilityE",
   "size" : 2,
   "source_file" : "/out/soong/.intermediates/hardware/interfaces/gnss/2.0/android.hardware.gnss@2.0_genc++_headers/gen/android/hardware/gnss/2.0/IAGnssRil.h",
   "underlying_type" : "_ZTIt"
  },
  {
   "alignment" : 4,
   "enum_fields" :
   [
    {
     "enum_field_value" : 1,
     "name" : "android::hardware::gnss::V2_1::IGnssCallback::Capabilities::SCHEDULING"
    },
    {
     "enum_field_value" : 2,
     "name" : "android::hardware::gnss::V2_1::IGnssCallback::Capabilities::MSB"
    },
    {
     "enum_field_value" : 4,
     "name" : "android::hardware::gnss::V2_1::IGnssCallback::Capabilities::MSA"
    },
    {
     "enum_field_value" : 8,
     "name" : "android::hardware::gnss::V2_1::IGnssCallback::Capabilities::SINGLE_SHOT"
    },
    {
     "enum_field_value" : 16,
     "name" : "android::hardware::gnss::V2_1::IGnssCallback::Capabilities::ON_DEMAND_TIME"
    },
    {
     "enum_field_value" : 32,
     "name" : "android::hardware::gnss::V2_1::IGnssCallback::Capabilities::GEOFENCING"
    },
    {
     "enum_field_value" : 64,
     "name" : "android::hardware::gnss::V2_1::IGnssCallback::Capabilities::MEASUREMENTS"
    },
    {
     "enum_field_value" : 128,
     "name" : "android::hardware::gnss::V2_1::IGnssCallback::Capabilities::NAV_MESSAGES"
    },
    {
     "enum_field_value" : 256,
     "name" : "android::hardware::gnss::V2_1::IGnssCallback::Capabilities::LOW_POWER_MODE"
    },
    {
     "enum_field_value" : 512,
     "name" : "android::hardware::gnss::V2_1::IGnssCallback::Capabilities::SATELLITE_BLACKLIST"
    },
    {
     "enum_field_value" : 1024,
     "name" : "android::hardware::gnss::V2_1::IGnssCallback::Capabilities::MEASUREMENT_CORRECTIONS"
    },
    {
     "enum_field_value" : 2048,
     "name" : "android::hardware::gnss::V2_1::IGnssCallback::Capabilities::ANTENNA_INFO"
    }
   ],
   "linker_set_key" : "_ZTIN7android8hardware4gnss4V2_113IGnssCallback12CapabilitiesE",
   "name" : "android::hardware::gnss::V2_1::IGnssCallback::Capabilities",
   "referenced_type" : "_ZTIN7android8hardware4gnss4V2_113IGnssCallback12CapabilitiesE",
   "self_type" : "_ZTIN7android8hardware4gnss4V2_113IGnssCallback12CapabilitiesE",
   "size" : 4,
   "source_file" : "/out/soong/.intermediates/hardware/interfaces/gnss/2.1/android.hardware.gnss@2.1_genc++_headers/gen/android/hardware/gnss/2.1/IGnssCallback.h",
   "underlying_type" : "_ZTIj"
  },
  {
   "alignment" : 4,
   "enum_fields" :
   [
    {
     "enum_field_value" : 0,
     "name" : "android::hardware::gnss::V2_1::IGnssAntennaInfo::GnssAntennaInfoStatus::SUCCESS"
    },
    {
     "enum_field_value" : -100,
     "name" : "android::hardware::gnss::V2_1::IGnssAntennaInfo::GnssAntennaInfoStatus::ERROR_ALREADY_INIT"
    },
    {
     "enum_field_value" : -101,
     "name" : "android::hardware::gnss::V2_1::IGnssAntennaInfo::GnssAntennaInfoStatus::ERROR_GENERIC"
    }
   ],
   "linker_set_key" : "_ZTIN7android8hardware4gnss4V2_116IGnssAntennaInfo21GnssAntennaInfoStatusE",
   "name" : "android::hardware::gnss::V2_1::IGnssAntennaInfo::GnssAntennaInfoStatus",
   "referenced_type" : "_ZTIN7android8hardware4gnss4V2_116IGnssAntennaInfo21GnssAntennaInfoStatusE",
   "self_type" : "_ZTIN7android8hardware4gnss4V2_116IGnssAntennaInfo21GnssAntennaInfoStatusE",
   "size" : 4,
   "source_file" : "/out/soong/.intermediates/hardware/interfaces/gnss/2.1/android.hardware.gnss@2.1_genc++_headers/gen/android/hardware/gnss/2.1/IGnssAntennaInfo.h",
   "underlying_type" : "_ZTIi"
  },
  {
   "alignment" : 4,
   "enum_fields" :
   [
    {
     "enum_field_value" : 1,
     "name" : "android::hardware::gnss::V2_1::IGnssMeasurementCallback::GnssMeasurementFlags::HAS_SNR"
    },
    {
     "enum_field_value" : 512,
     "name" : "android::hardware::gnss::V2_1::IGnssMeasurementCallback::GnssMeasurementFlags::HAS_CARRIER_FREQUENCY"
    },
    {
     "enum_field_value" : 1024,
     "name" : "android::hardware::gnss::V2_1::IGnssMeasurementCallback::GnssMeasurementFlags::HAS_CARRIER_CYCLES"
    },
    {
     "enum_field_value" : 2048,
     "name" : "android::hardware::gnss::V2_1::IGnssMeasurementCallback::GnssMeasurementFlags::HAS_CARRIER_PHASE"
    },
    {
     "enum_field_value" : 4096,
     "name" : "android::hardware::gnss::V2_1::IGnssMeasurementCallback::GnssMeasurementFlags::HAS_CARRIER_PHASE_UNCERTAINTY"
    },
    {
     "enum_field_value" : 8192,
     "name" : "android::hardware::gnss::V2_1::IGnssMeasurementCallback::GnssMeasurementFlags::HAS_AUTOMATIC_GAIN_CONTROL"
    },
    {
     "enum_field_value" : 65536,
     "name" : "android::hardware::gnss::V2_1::IGnssMeasurementCallback::GnssMeasurementFlags::HAS_FULL_ISB"
    },
    {
     "enum_field_value" : 131072,
     "name" : "android::hardware::gnss::V2_1::IGnssMeasurementCallback::GnssMeasurementFlags::HAS_FULL_ISB_UNCERTAINTY"
    },
    {
     "enum_field_value" : 262144,
     "name" : "android::hardware::gnss::V2_1::IGnssMeasurementCallback::GnssMeasurementFlags::HAS_SATELLITE_ISB"
    },
    {
     "enum_field_value" : 524288,
     "name" : "android::hardware::gnss::V2_1::IGnssMeasurementCallback::GnssMeasurementFlags::HAS_SATELLITE_ISB_UNCERTAINTY"
    }
   ],
   "linker_set_key" : "_ZTIN7android8hardware4gnss4V2_124IGnssMeasurementCallback20GnssMeasurementFlagsE",
   "name" : "android::hardware::gnss::V2_1::IGnssMeasurementCallback::GnssMeasurementFlags",
   "referenced_type" : "_ZTIN7android8hardware4gnss4V2_124IGnssMeasurementCallback20GnssMeasurementFlagsE",
   "self_type" : "_ZTIN7android8hardware4gnss4V2_124IGnssMeasurementCallback20GnssMeasurementFlagsE",
   "size" : 4,
   "source_file" : "/out/soong/.intermediates/hardware/interfaces/gnss/2.1/android.hardware.gnss@2.1_genc++_headers/gen/android/hardware/gnss/2.1/IGnssMeasurementCallback.h",
   "underlying_type" : "_ZTIj"
  },
  {
   "alignment" : 4,
   "enum_fields" :
   [
    {
     "enum_field_value" : 0,
     "name" : "android::hardware::Status::EX_NONE"
    },
    {
     "enum_field_value" : -1,
     "name" : "android::hardware::Status::EX_SECURITY"
    },
    {
     "enum_field_value" : -2,
     "name" : "android::hardware::Status::EX_BAD_PARCELABLE"
    },
    {
     "enum_field_value" : -3,
     "name" : "android::hardware::Status::EX_ILLEGAL_ARGUMENT"
    },
    {
     "enum_field_value" : -4,
     "name" : "android::hardware::Status::EX_NULL_POINTER"
    },
    {
     "enum_field_value" : -5,
     "name" : "android::hardware::Status::EX_ILLEGAL_STATE"
    },
    {
     "enum_field_value" : -6,
     "name" : "android::hardware::Status::EX_NETWORK_MAIN_THREAD"
    },
    {
     "enum_field_value" : -7,
     "name" : "android::hardware::Status::EX_UNSUPPORTED_OPERATION"
    },
    {
     "enum_field_value" : -128,
     "name" : "android::hardware::Status::EX_HAS_REPLY_HEADER"
    },
    {
     "enum_field_value" : -129,
     "name" : "android::hardware::Status::EX_TRANSACTION_FAILED"
    }
   ],
   "linker_set_key" : "_ZTIN7android8hardware6Status9ExceptionE",
   "name" : "android::hardware::Status::Exception",
   "referenced_type" : "_ZTIN7android8hardware6Status9ExceptionE",
   "self_type" : "_ZTIN7android8hardware6Status9ExceptionE",
   "size" : 4,
   "source_file" : "/system/libhidl/base/include/hidl/Status.h",
   "underlying_type" : "_ZTIi"
  },
  {
   "alignment" : 4,
   "enum_fields" :
   [
    {
     "enum_field_value" : 1,
     "name" : "android::hardware::IBinder::FLAG_ONEWAY"
    }
   ],
   "linker_set_key" : "_ZTIN7android8hardware7IBinder12$FLAG_ONEWAYE",
   "name" : "android::hardware::IBinder::(anonymous enum at system/libhwbinder/include/hwbinder/IBinder.h:47:5)",
   "referenced_type" : "_ZTIN7android8hardware7IBinder12$FLAG_ONEWAYE",
   "self_type" : "_ZTIN7android8hardware7IBinder12$FLAG_ONEWAYE",
   "size" : 4,
   "source_file" : "/system/libhwbinder/include/hwbinder/IBinder.h",
   "underlying_type" : "_ZTIj"
  },
  {
   "alignment" : 4,
   "enum_fields" :
   [
    {
     "enum_field_value" : 0,
     "name" : "android::hardware::details::HidlInstrumentor::SERVER_API_ENTRY"
    },
    {
     "enum_field_value" : 1,
     "name" : "android::hardware::details::HidlInstrumentor::SERVER_API_EXIT"
    },
    {
     "enum_field_value" : 2,
     "name" : "android::hardware::details::HidlInstrumentor::CLIENT_API_ENTRY"
    },
    {
     "enum_field_value" : 3,
     "name" : "android::hardware::details::HidlInstrumentor::CLIENT_API_EXIT"
    },
    {
     "enum_field_value" : 4,
     "name" : "android::hardware::details::HidlInstrumentor::SYNC_CALLBACK_ENTRY"
    },
    {
     "enum_field_value" : 5,
     "name" : "android::hardware::details::HidlInstrumentor::SYNC_CALLBACK_EXIT"
    },
    {
     "enum_field_value" : 6,
     "name" : "android::hardware::details::HidlInstrumentor::ASYNC_CALLBACK_ENTRY"
    },
    {
     "enum_field_value" : 7,
     "name" : "android::hardware::details::HidlInstrumentor::ASYNC_CALLBACK_EXIT"
    },
    {
     "enum_field_value" : 8,
     "name" : "android::hardware::details::HidlInstrumentor::PASSTHROUGH_ENTRY"
    },
    {
     "enum_field_value" : 9,
     "name" : "android::hardware::details::HidlInstrumentor::PASSTHROUGH_EXIT"
    }
   ],
   "linker_set_key" : "_ZTIN7android8hardware7details16HidlInstrumentor20InstrumentationEventE",
   "name" : "android::hardware::details::HidlInstrumentor::InstrumentationEvent",
   "referenced_type" : "_ZTIN7android8hardware7details16HidlInstrumentor20InstrumentationEventE",
   "self_type" : "_ZTIN7android8hardware7details16HidlInstrumentor20InstrumentationEventE",
   "size" : 4,
   "source_file" : "/system/libhidl/base/include/hidl/HidlInternal.h",
   "underlying_type" : "_ZTIj"
  },
  {
   "alignment" : 4,
   "enum_fields" :
   [
    {
     "enum_field_value" : 1,
     "name" : "android::hardware::kSynchronizedReadWrite"
    },
    {
     "enum_field_value" : 2,
     "name" : "android::hardware::kUnsynchronizedWrite"
    }
   ],
   "linker_set_key" : "_ZTIN7android8hardware8MQFlavorE",
   "name" : "android::hardware::MQFlavor",
   "referenced_type" : "_ZTIN7android8hardware8MQFlavorE",
   "self_type" : "_ZTIN7android8hardware8MQFlavorE",
   "size" : 4,
   "source_file" : "/system/libhidl/base/include/hidl/MQDescriptor.h",
   "underlying_type" : "_ZTIj"
  },
  {
   "alignment" : 4,
   "enum_fields" :
   [
    {
     "enum_field_value" : 0,
     "name" : "android::Condition::WAKE_UP_ONE"
    },
    {
     "enum_field_value" : 1,
     "name" : "android::Condition::WAKE_UP_ALL"
    }
   ],
   "linker_set_key" : "_ZTIN7android9Condition10WakeUpTypeE",
   "name" : "android::Condition::WakeUpType",
   "referenced_type" : "_ZTIN7android9Condition10WakeUpTypeE",
   "self_type" : "_ZTIN7android9Condition10WakeUpTypeE",
   "size" : 4,
   "source_file" : "/system/core/libutils/include/utils/Condition.h",
   "underlying_type" : "_ZTIj"
  },
  {
   "alignment" : 4,
   "enum_fields" :
   [
    {
     "enum_field_value" : 0,
     "name" : "android::Condition::PRIVATE"
    },
    {
     "enum_field_value" : 1,
     "name" : "android::Condition::SHARED"
    }
   ],
   "linker_set_key" : "_ZTIN7android9Condition8$PRIVATEE",
   "name" : "android::Condition::(anonymous enum at system/core/libutils/include/utils/Condition.h:54:5)",
   "referenced_type" : "_ZTIN7android9Condition8$PRIVATEE",
   "self_type" : "_ZTIN7android9Condition8$PRIVATEE",
   "size" : 4,
   "source_file" : "/system/core/libutils/include/utils/Condition.h",
   "underlying_type" : "_ZTIj"
  }
 ],
 "function_types" :
 [
  {
   "alignment" : 4,
   "linker_set_key" : "_ZTIFbRKN7android8String16ERKNS_2spINS_8hardware7IBinderEEEPvE",
   "name" : "bool (const android::String16 &, const android::sp<android::hardware::IBinder> &, void *)",
   "parameters" :
   [
    {
     "referenced_type" : "_ZTIRKN7android8String16E"
    },
    {
     "referenced_type" : "_ZTIRKN7android2spINS_8hardware7IBinderEEE"
    },
    {
     "referenced_type" : "_ZTIPv"
    }
   ],
   "referenced_type" : "_ZTIFbRKN7android8String16ERKNS_2spINS_8hardware7IBinderEEEPvE",
   "return_type" : "_ZTIb",
   "self_type" : "_ZTIFbRKN7android8String16ERKNS_2spINS_8hardware7IBinderEEEPvE",
   "source_file" : "/system/libhwbinder/include/hwbinder/ProcessState.h"
  },
  {
   "alignment" : 4,
   "linker_set_key" : "_ZTIFiPvE",
   "name" : "int (void *)",
   "parameters" :
   [
    {
     "referenced_type" : "_ZTIPv"
    }
   ],
   "referenced_type" : "_ZTIFiPvE",
   "return_type" : "_ZTIi",
   "self_type" : "_ZTIFiPvE",
   "source_file" : "/system/core/libutils/include/utils/AndroidThreads.h"
  },
  {
   "alignment" : 4,
   "linker_set_key" : "_ZTIFvPN7android8hardware6ParcelEPKhmPKymPvE",
   "name" : "void (android::hardware::Parcel *, const unsigned char *, unsigned long, const unsigned long long *, unsigned long, void *)",
   "parameters" :
   [
    {
     "referenced_type" : "_ZTIPN7android8hardware6ParcelE"
    },
    {
     "referenced_type" : "_ZTIPKh"
    },
    {
     "referenced_type" : "_ZTIm"
    },
    {
     "referenced_type" : "_ZTIPKy"
    },
    {
     "referenced_type" : "_ZTIm"
    },
    {
     "referenced_type" : "_ZTIPv"
    }
   ],
   "referenced_type" : "_ZTIFvPN7android8hardware6ParcelEPKhmPKymPvE",
   "return_type" : "_ZTIv",
   "self_type" : "_ZTIFvPN7android8hardware6ParcelEPKhmPKymPvE",
   "source_file" : "/system/libhwbinder/include/hwbinder/Parcel.h"
  }
 ],
 "functions" :
 [
  {
   "function_name" : "android::sp<android::hardware::gnss::measurement_corrections::V1_1::IMeasurementCorrections>::operator=",
   "linker_set_key" : "_ZN7android2spINS_8hardware4gnss23measurement_corrections4V1_123IMeasurementCorrectionsEEaSEOS6_",
   "parameters" :
   [
    {
     "is_this_ptr" : true,
     "referenced_type" : "_ZTIPN7android2spINS_8hardware4gnss23measurement_corrections4V1_123IMeasurementCorrectionsEEE"
    },
    {
     "referenced_type" : "_ZTION7android2spINS_8hardware4gnss23measurement_corrections4V1_123IMeasurementCorrectionsEEE"
    }
   ],
   "return_type" : "_ZTIRN7android2spINS_8hardware4gnss23measurement_corrections4V1_123IMeasurementCorrectionsEEE",
   "source_file" : "/system/core/libutils/include/utils/StrongPointer.h"
  },
  {
   "function_name" : "android::sp<android::hardware::gnss::V2_1::IGnssAntennaInfo>::operator=",
   "linker_set_key" : "_ZN7android2spINS_8hardware4gnss4V2_116IGnssAntennaInfoEEaSEOS5_",
   "parameters" :
   [
    {
     "is_this_ptr" : true,
     "referenced_type" : "_ZTIPN7android2spINS_8hardware4gnss4V2_116IGnssAntennaInfoEEE"
    },
    {
     "referenced_type" : "_ZTION7android2spINS_8hardware4gnss4V2_116IGnssAntennaInfoEEE"
    }
   ],
   "return_type" : "_ZTIRN7android2spINS_8hardware4gnss4V2_116IGnssAntennaInfoEEE",
   "source_file" : "/system/core/libutils/include/utils/StrongPointer.h"
  },
  {
   "function_name" : "android::sp<android::hardware::gnss::V2_1::IGnssMeasurement>::operator=",
   "linker_set_key" : "_ZN7android2spINS_8hardware4gnss4V2_116IGnssMeasurementEEaSEOS5_",
   "parameters" :
   [
    {
     "is_this_ptr" : true,
     "referenced_type" : "_ZTIPN7android2spINS_8hardware4gnss4V2_116IGnssMeasurementEEE"
    },
    {
     "referenced_type" : "_ZTION7android2spINS_8hardware4gnss4V2_116IGnssMeasurementEEE"
    }
   ],
   "return_type" : "_ZTIRN7android2spINS_8hardware4gnss4V2_116IGnssMeasurementEEE",
   "source_file" : "/system/core/libutils/include/utils/StrongPointer.h"
  },
  {
   "function_name" : "android::sp<android::hardware::gnss::V2_1::IGnssConfiguration>::operator=",
   "linker_set_key" : "_ZN7android2spINS_8hardware4gnss4V2_118IGnssConfigurationEEaSEOS5_",
   "parameters" :
   [
    {
     "is_this_ptr" : true,
     "referenced_type" : "_ZTIPN7android2spINS_8hardware4gnss4V2_118IGnssConfigurationEEE"
    },
    {
     "referenced_type" : "_ZTION7android2spINS_8hardware4gnss4V2_118IGnssConfigurationEEE"
    }
   ],
   "return_type" : "_ZTIRN7android2spINS_8hardware4gnss4V2_118IGnssConfigurationEEE",
   "source_file" : "/system/core/libutils/include/utils/StrongPointer.h"
  },
  {
   "function_name" : "android::hardware::fromBinder",
   "linker_set_key" : "_ZN7android8hardware10fromBinderINS0_4gnss23measurement_corrections4V1_123IMeasurementCorrectionsENS4_26BpHwMeasurementCorrectionsENS4_26BnHwMeasurementCorrectionsEEENS_2spIT_EERKNS8_INS0_7IBinderEEE",
   "parameters" :
   [
    {
     "referenced_type" : "_ZTIRKN7android2spINS_8hardware7IBinderEEE"
    }
   ],
   "return_type" : "_ZTIN7android2spINS_8hardware4gnss23measurement_corrections4V1_123IMeasurementCorrectionsEEE",
   "source_file" : "/system/libhidl/transport/include/hidl/HidlBinderSupport.h",
   "template_args" :
   [
    "_ZTIN7android8hardware4gnss23measurement_corrections4V1_123IMeasurementCorrectionsE",
    "_ZTIN7android8hardware4gnss23measurement_corrections4V1_126BpHwMeasurementCorrectionsE",
    "_ZTIN7android8hardware4gnss23measurement_corrections4V1_126BnHwMeasurementCorrectionsE"
   ]
  },
  {
   "function_name" : "android::hardware::fromBinder",
   "linker_set_key" : "_ZN7android8hardware10fromBinderINS0_4gnss4V2_113IGnssCallbackENS3_16BpHwGnssCallbackENS3_16BnHwGnssCallbackEEENS_2spIT_EERKNS7_INS0_7IBinderEEE",
   "parameters" :
   [
    {
     "referenced_type" : "_ZTIRKN7android2spINS_8hardware7IBinderEEE"
    }
   ],
   "return_type" : "_ZTIN7android2spINS_8hardware4gnss4V2_113IGnssCallbackEEE",
   "source_file" : "/system/libhidl/transport/include/hidl/HidlBinderSupport.h",
   "template_args" :
   [
    "_ZTIN7android8hardware4gnss4V2_113IGnssCallbackE",
    "_ZTIN7android8hardware4gnss4V2_116BpHwGnssCallbackE",
    "_ZTIN7android8hardware4gnss4V2_116BnHwGnssCallbackE"
   ]
  },
  {
   "function_name" : "android::hardware::fromBinder",
   "linker_set_key" : "_ZN7android8hardware10fromBinderINS0_4gnss4V2_116IGnssAntennaInfoENS3_19BpHwGnssAntennaInfoENS3_19BnHwGnssAntennaInfoEEENS_2spIT_EERKNS7_INS0_7IBinderEEE",
   "parameters" :
   [
    {
     "referenced_type" : "_ZTIRKN7android2spINS_8hardware7IBinderEEE"
    }
   ],
   "return_type" : "_ZTIN7android2spINS_8hardware4gnss4V2_116IGnssAntennaInfoEEE",
   "source_file" : "/system/libhidl/transport/include/hidl/HidlBinderSupport.h",
   "template_args" :
   [
    "_ZTIN7android8hardware4gnss4V2_116IGnssAntennaInfoE",
    "_ZTIN7android8hardware4gnss4V2_119BpHwGnssAntennaInfoE",
    "_ZTIN7android8hardware4gnss4V2_119BnHwGnssAntennaInfoE"
   ]
  },
  {
   "function_name" : "android::hardware::fromBinder",
   "linker_set_key" : "_ZN7android8hardware10fromBinderINS0_4gnss4V2_116IGnssMeasurementENS3_19BpHwGnssMeasurementENS3_19BnHwGnssMeasurementEEENS_2spIT_EERKNS7_INS0_7IBinderEEE",
   "parameters" :
   [
    {
     "referenced_type" : "_ZTIRKN7android2spINS_8hardware7IBinderEEE"
    }
   ],
   "return_type" : "_ZTIN7android2spINS_8hardware4gnss4V2_116IGnssMeasurementEEE",
   "source_file" : "/system/libhidl/transport/include/hidl/HidlBinderSupport.h",
   "template_args" :
   [
    "_ZTIN7android8hardware4gnss4V2_116IGnssMeasurementE",
    "_ZTIN7android8hardware4gnss4V2_119BpHwGnssMeasurementE",
    "_ZTIN7android8hardware4gnss4V2_119BnHwGnssMeasurementE"
   ]
  },
  {
   "function_name" : "android::hardware::fromBinder",
   "linker_set_key" : "_ZN7android8hardware10fromBinderINS0_4gnss4V2_118IGnssConfigurationENS3_21BpHwGnssConfigurationENS3_21BnHwGnssConfigurationEEENS_2spIT_EERKNS7_INS0_7IBinderEEE",
   "parameters" :
   [
    {
     "referenced_type" : "_ZTIRKN7android2spINS_8hardware7IBinderEEE"
    }
   ],
   "return_type" : "_ZTIN7android2spINS_8hardware4gnss4V2_118IGnssConfigurationEEE",
   "source_file" : "/system/libhidl/transport/include/hidl/HidlBinderSupport.h",
   "template_args" :
   [
    "_ZTIN7android8hardware4gnss4V2_118IGnssConfigurationE",
    "_ZTIN7android8hardware4gnss4V2_121BpHwGnssConfigurationE",
    "_ZTIN7android8hardware4gnss4V2_121BnHwGnssConfigurationE"
   ]
  },
  {
   "function_name" : "android::hardware::fromBinder",
   "linker_set_key" : "_ZN7android8hardware10fromBinderINS0_4gnss4V2_124IGnssAntennaInfoCallbackENS3_27BpHwGnssAntennaInfoCallbackENS3_27BnHwGnssAntennaInfoCallbackEEENS_2spIT_EERKNS7_INS0_7IBinderEEE",
   "parameters" :
   [
    {
     "referenced_type" : "_ZTIRKN7android2spINS_8hardware7IBinderEEE"
    }
   ],
   "return_type" : "_ZTIN7android2spINS_8hardware4gnss4V2_124IGnssAntennaInfoCallbackEEE",
   "source_file" : "/system/libhidl/transport/include/hidl/HidlBinderSupport.h",
   "template_args" :
   [
    "_ZTIN7android8hardware4gnss4V2_124IGnssAntennaInfoCallbackE",
    "_ZTIN7android8hardware4gnss4V2_127BpHwGnssAntennaInfoCallbackE",
    "_ZTIN7android8hardware4gnss4V2_127BnHwGnssAntennaInfoCallbackE"
   ]
  },
  {
   "function_name" : "android::hardware::fromBinder",
   "linker_set_key" : "_ZN7android8hardware10fromBinderINS0_4gnss4V2_124IGnssMeasurementCallbackENS3_27BpHwGnssMeasurementCallbackENS3_27BnHwGnssMeasurementCallbackEEENS_2spIT_EERKNS7_INS0_7IBinderEEE",
   "parameters" :
   [
    {
     "referenced_type" : "_ZTIRKN7android2spINS_8hardware7IBinderEEE"
    }
   ],
   "return_type" : "_ZTIN7android2spINS_8hardware4gnss4V2_124IGnssMeasurementCallbackEEE",
   "source_file" : "/system/libhidl/transport/include/hidl/HidlBinderSupport.h",
   "template_args" :
   [
    "_ZTIN7android8hardware4gnss4V2_124IGnssMeasurementCallbackE",
    "_ZTIN7android8hardware4gnss4V2_127BpHwGnssMeasurementCallbackE",
    "_ZTIN7android8hardware4gnss4V2_127BnHwGnssMeasurementCallbackE"
   ]
  },
  {
   "function_name" : "android::hardware::gnss::V2_1::IGnssCallback::getService",
   "linker_set_key" : "_ZN7android8hardware4gnss4V2_113IGnssCallback10getServiceERKNSt3__112basic_stringIcNS4_11char_traitsIcEENS4_9allocatorIcEEEEb",
   "parameters" :
   [
    {
     "default_arg" : true,
     "referenced_type" : "_ZTIRKNSt3__112basic_stringIcNS_11char_traitsIcEENS_9allocatorIcEEEE"
    },
    {
     "default_arg" : true,
     "referenced_type" : "_ZTIb"
    }
   ],
   "return_type" : "_ZTIN7android2spINS_8hardware4gnss4V2_113IGnssCallbackEEE",
   "source_file" : "/out/soong/.intermediates/hardware/interfaces/gnss/2.1/android.hardware.gnss@2.1_genc++_headers/gen/android/hardware/gnss/2.1/IGnssCallback.h"
  },
  {
   "function_name" : "android::hardware::gnss::V2_1::IGnssCallback::linkToDeath",
   "linker_set_key" : "_ZN7android8hardware4gnss4V2_113IGnssCallback11linkToDeathERKNS_2spINS0_20hidl_death_recipientEEEm",
   "parameters" :
   [
    {
     "is_this_ptr" : true,
     "referenced_type" : "_ZTIPN7android8hardware4gnss4V2_113IGnssCallbackE"
    },
    {
     "referenced_type" : "_ZTIRKN7android2spINS_8hardware20hidl_death_recipientEEE"
    },
    {
     "referenced_type" : "_ZTIm"
    }
   ],
   "return_type" : "_ZTIN7android8hardware6ReturnIbEE",
   "source_file" : "/out/soong/.intermediates/hardware/interfaces/gnss/2.1/android.hardware.gnss@2.1_genc++_headers/gen/android/hardware/gnss/2.1/IGnssCallback.h"
  },
  {
   "function_name" : "android::hardware::gnss::V2_1::IGnssCallback::getDebugInfo",
   "linker_set_key" : "_ZN7android8hardware4gnss4V2_113IGnssCallback12getDebugInfoENSt3__18functionIFvRKNS_4hidl4base4V1_09DebugInfoEEEE",
   "parameters" :
   [
    {
     "is_this_ptr" : true,
     "referenced_type" : "_ZTIPN7android8hardware4gnss4V2_113IGnssCallbackE"
    },
    {
     "referenced_type" : "_ZTINSt3__18functionIFvRKN7android4hidl4base4V1_09DebugInfoEEEE"
    }
   ],
   "return_type" : "_ZTIN7android8hardware6ReturnIvEE",
   "source_file" : "/out/soong/.intermediates/hardware/interfaces/gnss/2.1/android.hardware.gnss@2.1_genc++_headers/gen/android/hardware/gnss/2.1/IGnssCallback.h"
  },
  {
   "function_name" : "android::hardware::gnss::V2_1::IGnssCallback::getHashChain",
   "linker_set_key" : "_ZN7android8hardware4gnss4V2_113IGnssCallback12getHashChainENSt3__18functionIFvRKNS0_8hidl_vecINS0_10hidl_arrayIhLm32EJEEEEEEEE",
   "parameters" :
   [
    {
     "is_this_ptr" : true,
     "referenced_type" : "_ZTIPN7android8hardware4gnss4V2_113IGnssCallbackE"
    },
    {
     "referenced_type" : "_ZTINSt3__18functionIFvRKN7android8hardware8hidl_vecINS2_10hidl_arrayIhLm32EJEEEEEEEE"
    }
   ],
   "return_type" : "_ZTIN7android8hardware6ReturnIvEE",
   "source_file" : "/out/soong/.intermediates/hardware/interfaces/gnss/2.1/android.hardware.gnss@2.1_genc++_headers/gen/android/hardware/gnss/2.1/IGnssCallback.h"
  },
  {
   "function_name" : "android::hardware::gnss::V2_1::IGnssCallback::tryGetService",
   "linker_set_key" : "_ZN7android8hardware4gnss4V2_113IGnssCallback13tryGetServiceERKNSt3__112basic_stringIcNS4_11char_traitsIcEENS4_9allocatorIcEEEEb",
   "parameters" :
   [
    {
     "default_arg" : true,
     "referenced_type" : "_ZTIRKNSt3__112basic_stringIcNS_11char_traitsIcEENS_9allocatorIcEEEE"
    },
    {
     "default_arg" : true,
     "referenced_type" : "_ZTIb"
    }
   ],
   "return_type" : "_ZTIN7android2spINS_8hardware4gnss4V2_113IGnssCallbackEEE",
   "source_file" : "/out/soong/.intermediates/hardware/interfaces/gnss/2.1/android.hardware.gnss@2.1_genc++_headers/gen/android/hardware/gnss/2.1/IGnssCallback.h"
  },
  {
   "function_name" : "android::hardware::gnss::V2_1::IGnssCallback::unlinkToDeath",
   "linker_set_key" : "_ZN7android8hardware4gnss4V2_113IGnssCallback13unlinkToDeathERKNS_2spINS0_20hidl_death_recipientEEE",
   "parameters" :
   [
    {
     "is_this_ptr" : true,
     "referenced_type" : "_ZTIPN7android8hardware4gnss4V2_113IGnssCallbackE"
    },
    {
     "referenced_type" : "_ZTIRKN7android2spINS_8hardware20hidl_death_recipientEEE"
    }
   ],
   "return_type" : "_ZTIN7android8hardware6ReturnIbEE",
   "source_file" : "/out/soong/.intermediates/hardware/interfaces/gnss/2.1/android.hardware.gnss@2.1_genc++_headers/gen/android/hardware/gnss/2.1/IGnssCallback.h"
  },
  {
   "function_name" : "android::hardware::gnss::V2_1::IGnssCallback::interfaceChain",
   "linker_set_key" : "_ZN7android8hardware4gnss4V2_113IGnssCallback14interfaceChainENSt3__18functionIFvRKNS0_8hidl_vecINS0_11hidl_stringEEEEEE",
   "parameters" :
   [
    {
     "is_this_ptr" : true,
     "referenced_type" : "_ZTIPN7android8hardware4gnss4V2_113IGnssCallbackE"
    },
    {
     "referenced_type" : "_ZTINSt3__18functionIFvRKN7android8hardware8hidl_vecINS2_11hidl_stringEEEEEE"
    }
   ],
   "return_type" : "_ZTIN7android8hardware6ReturnIvEE",
   "source_file" : "/out/soong/.intermediates/hardware/interfaces/gnss/2.1/android.hardware.gnss@2.1_genc++_headers/gen/android/hardware/gnss/2.1/IGnssCallback.h"
  },
  {
   "function_name" : "android::hardware::gnss::V2_1::IGnssCallback::registerAsService",
   "linker_set_key" : "_ZN7android8hardware4gnss4V2_113IGnssCallback17registerAsServiceERKNSt3__112basic_stringIcNS4_11char_traitsIcEENS4_9allocatorIcEEEE",
   "parameters" :
   [
    {
     "is_this_ptr" : true,
     "referenced_type" : "_ZTIPN7android8hardware4gnss4V2_113IGnssCallbackE"
    },
    {
     "default_arg" : true,
     "referenced_type" : "_ZTIRKNSt3__112basic_stringIcNS_11char_traitsIcEENS_9allocatorIcEEEE"
    }
   ],
   "return_type" : "_ZTIi",
   "source_file" : "/out/soong/.intermediates/hardware/interfaces/gnss/2.1/android.hardware.gnss@2.1_genc++_headers/gen/android/hardware/gnss/2.1/IGnssCallback.h"
  },
  {
   "function_name" : "android::hardware::gnss::V2_1::IGnssCallback::interfaceDescriptor",
   "linker_set_key" : "_ZN7android8hardware4gnss4V2_113IGnssCallback19interfaceDescriptorENSt3__18functionIFvRKNS0_11hidl_stringEEEE",
   "parameters" :
   [
    {
     "is_this_ptr" : true,
     "referenced_type" : "_ZTIPN7android8hardware4gnss4V2_113IGnssCallbackE"
    },
    {
     "referenced_type" : "_ZTINSt3__18functionIFvRKN7android8hardware11hidl_stringEEEE"
    }
   ],
   "return_type" : "_ZTIN7android8hardware6ReturnIvEE",
   "source_file" : "/out/soong/.intermediates/hardware/interfaces/gnss/2.1/android.hardware.gnss@2.1_genc++_headers/gen/android/hardware/gnss/2.1/IGnssCallback.h"
  },
  {
   "function_name" : "android::hardware::gnss::V2_1::IGnssCallback::notifySyspropsChanged",
   "linker_set_key" : "_ZN7android8hardware4gnss4V2_113IGnssCallback21notifySyspropsChangedEv",
   "parameters" :
   [
    {
     "is_this_ptr" : true,
     "referenced_type" : "_ZTIPN7android8hardware4gnss4V2_113IGnssCallbackE"
    }
   ],
   "return_type" : "_ZTIN7android8hardware6ReturnIvEE",
   "source_file" : "/out/soong/.intermediates/hardware/interfaces/gnss/2.1/android.hardware.gnss@2.1_genc++_headers/gen/android/hardware/gnss/2.1/IGnssCallback.h"
  },
  {
   "function_name" : "android::hardware::gnss::V2_1::IGnssCallback::setHALInstrumentation",
   "linker_set_key" : "_ZN7android8hardware4gnss4V2_113IGnssCallback21setHALInstrumentationEv",
   "parameters" :
   [
    {
     "is_this_ptr" : true,
     "referenced_type" : "_ZTIPN7android8hardware4gnss4V2_113IGnssCallbackE"
    }
   ],
   "return_type" : "_ZTIN7android8hardware6ReturnIvEE",
   "source_file" : "/out/soong/.intermediates/hardware/interfaces/gnss/2.1/android.hardware.gnss@2.1_genc++_headers/gen/android/hardware/gnss/2.1/IGnssCallback.h"
  },
  {
   "function_name" : "android::hardware::gnss::V2_1::IGnssCallback::registerForNotifications",
   "linker_set_key" : "_ZN7android8hardware4gnss4V2_113IGnssCallback24registerForNotificationsERKNSt3__112basic_stringIcNS4_11char_traitsIcEENS4_9allocatorIcEEEERKNS_2spINS_4hidl7manager4V1_020IServiceNotificationEEE",
   "parameters" :
   [
    {
     "referenced_type" : "_ZTIRKNSt3__112basic_stringIcNS_11char_traitsIcEENS_9allocatorIcEEEE"
    },
    {
     "referenced_type" : "_ZTIRKN7android2spINS_4hidl7manager4V1_020IServiceNotificationEEE"
    }
   ],
   "return_type" : "_ZTIb",
   "source_file" : "/out/soong/.intermediates/hardware/interfaces/gnss/2.1/android.hardware.gnss@2.1_genc++_headers/gen/android/hardware/gnss/2.1/IGnssCallback.h"
  },
  {
   "function_name" : "android::hardware::gnss::V2_1::IGnssCallback::ping",
   "linker_set_key" : "_ZN7android8hardware4gnss4V2_113IGnssCallback4pingEv",
   "parameters" :
   [
    {
     "is_this_ptr" : true,
     "referenced_type" : "_ZTIPN7android8hardware4gnss4V2_113IGnssCallbackE"
    }
   ],
   "return_type" : "_ZTIN7android8hardware6ReturnIvEE",
   "source_file" : "/out/soong/.intermediates/hardware/interfaces/gnss/2.1/android.hardware.gnss@2.1_genc++_headers/gen/android/hardware/gnss/2.1/IGnssCallback.h"
  },
  {
   "function_name" : "android::hardware::gnss::V2_1::IGnssCallback::debug",
   "linker_set_key" : "_ZN7android8hardware4gnss4V2_113IGnssCallback5debugERKNS0_11hidl_handleERKNS0_8hidl_vecINS0_11hidl_stringEEE",
   "parameters" :
   [
    {
     "is_this_ptr" : true,
     "referenced_type" : "_ZTIPN7android8hardware4gnss4V2_113IGnssCallbackE"
    },
    {
     "referenced_type" : "_ZTIRKN7android8hardware11hidl_handleE"
    },
    {
     "referenced_type" : "_ZTIRKN7android8hardware8hidl_vecINS0_11hidl_stringEEE"
    }
   ],
   "return_type" : "_ZTIN7android8hardware6ReturnIvEE",
   "source_file" : "/out/soong/.intermediates/hardware/interfaces/gnss/2.1/android.hardware.gnss@2.1_genc++_headers/gen/android/hardware/gnss/2.1/IGnssCallback.h"
  },
  {
   "function_name" : "android::hardware::gnss::V2_1::IGnssCallback::castFrom",
   "linker_set_key" : "_ZN7android8hardware4gnss4V2_113IGnssCallback8castFromERKNS_2spINS1_4V1_013IGnssCallbackEEEb",
   "parameters" :
   [
    {
     "referenced_type" : "_ZTIRKN7android2spINS_8hardware4gnss4V1_013IGnssCallbackEEE"
    },
    {
     "default_arg" : true,
     "referenced_type" : "_ZTIb"
    }
   ],
   "return_type" : "_ZTIN7android8hardware6ReturnINS_2spINS0_4gnss4V2_113IGnssCallbackEEEEE",
   "source_file" : "/out/soong/.intermediates/hardware/interfaces/gnss/2.1/android.hardware.gnss@2.1_genc++_headers/gen/android/hardware/gnss/2.1/IGnssCallback.h"
  },
  {
   "function_name" : "android::hardware::gnss::V2_1::IGnssCallback::castFrom",
   "linker_set_key" : "_ZN7android8hardware4gnss4V2_113IGnssCallback8castFromERKNS_2spINS1_4V1_113IGnssCallbackEEEb",
   "parameters" :
   [
    {
     "referenced_type" : "_ZTIRKN7android2spINS_8hardware4gnss4V1_113IGnssCallbackEEE"
    },
    {
     "default_arg" : true,
     "referenced_type" : "_ZTIb"
    }
   ],
   "return_type" : "_ZTIN7android8hardware6ReturnINS_2spINS0_4gnss4V2_113IGnssCallbackEEEEE",
   "source_file" : "/out/soong/.intermediates/hardware/interfaces/gnss/2.1/android.hardware.gnss@2.1_genc++_headers/gen/android/hardware/gnss/2.1/IGnssCallback.h"
  },
  {
   "function_name" : "android::hardware::gnss::V2_1::IGnssCallback::castFrom",
   "linker_set_key" : "_ZN7android8hardware4gnss4V2_113IGnssCallback8castFromERKNS_2spINS1_4V2_013IGnssCallbackEEEb",
   "parameters" :
   [
    {
     "referenced_type" : "_ZTIRKN7android2spINS_8hardware4gnss4V2_013IGnssCallbackEEE"
    },
    {
     "default_arg" : true,
     "referenced_type" : "_ZTIb"
    }
   ],
   "return_type" : "_ZTIN7android8hardware6ReturnINS_2spINS0_4gnss4V2_113IGnssCallbackEEEEE",
   "source_file" : "/out/soong/.intermediates/hardware/interfaces/gnss/2.1/android.hardware.gnss@2.1_genc++_headers/gen/android/hardware/gnss/2.1/IGnssCallback.h"
  },
  {
   "function_name" : "android::hardware::gnss::V2_1::IGnssCallback::castFrom",
   "linker_set_key" : "_ZN7android8hardware4gnss4V2_113IGnssCallback8castFromERKNS_2spINS_4hidl4base4V1_05IBaseEEEb",
   "parameters" :
   [
    {
     "referenced_type" : "_ZTIRKN7android2spINS_4hidl4base4V1_05IBaseEEE"
    },
    {
     "default_arg" : true,
     "referenced_type" : "_ZTIb"
    }
   ],
   "return_type" : "_ZTIN7android8hardware6ReturnINS_2spINS0_4gnss4V2_113IGnssCallbackEEEEE",
   "source_file" : "/out/soong/.intermediates/hardware/interfaces/gnss/2.1/android.hardware.gnss@2.1_genc++_headers/gen/android/hardware/gnss/2.1/IGnssCallback.h"
  },
  {
   "function_name" : "android::hardware::gnss::V2_1::IGnssCallback::castFrom",
   "linker_set_key" : "_ZN7android8hardware4gnss4V2_113IGnssCallback8castFromERKNS_2spIS3_EEb",
   "parameters" :
   [
    {
     "referenced_type" : "_ZTIRKN7android2spINS_8hardware4gnss4V2_113IGnssCallbackEEE"
    },
    {
     "default_arg" : true,
     "referenced_type" : "_ZTIb"
    }
   ],
   "return_type" : "_ZTIN7android8hardware6ReturnINS_2spINS0_4gnss4V2_113IGnssCallbackEEEEE",
   "source_file" : "/out/soong/.intermediates/hardware/interfaces/gnss/2.1/android.hardware.gnss@2.1_genc++_headers/gen/android/hardware/gnss/2.1/IGnssCallback.h"
  },
  {
   "access" : "private",
   "function_name" : "android::hardware::gnss::V2_1::BsGnssCallback::addOnewayTask",
   "linker_set_key" : "_ZN7android8hardware4gnss4V2_114BsGnssCallback13addOnewayTaskENSt3__18functionIFvvEEE",
   "parameters" :
   [
    {
     "is_this_ptr" : true,
     "referenced_type" : "_ZTIPN7android8hardware4gnss4V2_114BsGnssCallbackE"
    },
    {
     "referenced_type" : "_ZTINSt3__18functionIFvvEEE"
    }
   ],
   "return_type" : "_ZTIN7android8hardware6ReturnIvEE",
   "source_file" : "/out/soong/.intermediates/hardware/interfaces/gnss/2.1/android.hardware.gnss@2.1_genc++_headers/gen/android/hardware/gnss/2.1/BsGnssCallback.h"
  },
  {
   "function_name" : "android::hardware::gnss::V2_1::BsGnssCallback::BsGnssCallback",
   "linker_set_key" : "_ZN7android8hardware4gnss4V2_114BsGnssCallbackC1ENS_2spINS2_13IGnssCallbackEEE",
   "parameters" :
   [
    {
     "is_this_ptr" : true,
     "referenced_type" : "_ZTIPN7android8hardware4gnss4V2_114BsGnssCallbackE"
    },
    {
     "referenced_type" : "_ZTIKN7android2spINS_8hardware4gnss4V2_113IGnssCallbackEEE"
    }
   ],
   "return_type" : "_ZTIv",
   "source_file" : "/out/soong/.intermediates/hardware/interfaces/gnss/2.1/android.hardware.gnss@2.1_genc++_headers/gen/android/hardware/gnss/2.1/BsGnssCallback.h"
  },
  {
   "function_name" : "android::hardware::gnss::V2_1::BsGnssCallback::BsGnssCallback",
   "linker_set_key" : "_ZN7android8hardware4gnss4V2_114BsGnssCallbackC2ENS_2spINS2_13IGnssCallbackEEE",
   "parameters" :
   [
    {
     "is_this_ptr" : true,
     "referenced_type" : "_ZTIPN7android8hardware4gnss4V2_114BsGnssCallbackE"
    },
    {
     "referenced_type" : "_ZTIKN7android2spINS_8hardware4gnss4V2_113IGnssCallbackEEE"
    }
   ],
   "return_type" : "_ZTIv",
   "source_file" : "/out/soong/.intermediates/hardware/interfaces/gnss/2.1/android.hardware.gnss@2.1_genc++_headers/gen/android/hardware/gnss/2.1/BsGnssCallback.h"
  },
  {
   "function_name" : "android::hardware::gnss::V2_1::BnHwGnssCallback::onTransact",
   "linker_set_key" : "_ZN7android8hardware4gnss4V2_116BnHwGnssCallback10onTransactEjRKNS0_6ParcelEPS4_jNSt3__18functionIFvRS4_EEE",
   "parameters" :
   [
    {
     "is_this_ptr" : true,
     "referenced_type" : "_ZTIPN7android8hardware4gnss4V2_116BnHwGnssCallbackE"
    },
    {
     "referenced_type" : "_ZTIj"
    },
    {
     "referenced_type" : "_ZTIRKN7android8hardware6ParcelE"
    },
    {
     "referenced_type" : "_ZTIPN7android8hardware6ParcelE"
    },
    {
     "default_arg" : true,
     "referenced_type" : "_ZTIj"
    },
    {
     "default_arg" : true,
     "referenced_type" : "_ZTINSt3__18functionIFvRN7android8hardware6ParcelEEEE"
    }
   ],
   "return_type" : "_ZTIi",
   "source_file" : "/out/soong/.intermediates/hardware/interfaces/gnss/2.1/android.hardware.gnss@2.1_genc++_headers/gen/android/hardware/gnss/2.1/BnHwGnssCallback.h"
  },
  {
   "access" : "private",
   "function_name" : "android::hardware::gnss::V2_1::BnHwGnssCallback::getDebugInfo",
   "linker_set_key" : "_ZN7android8hardware4gnss4V2_116BnHwGnssCallback12getDebugInfoENSt3__18functionIFvRKNS_4hidl4base4V1_09DebugInfoEEEE",
   "parameters" :
   [
    {
     "is_this_ptr" : true,
     "referenced_type" : "_ZTIPN7android8hardware4gnss4V2_116BnHwGnssCallbackE"
    },
    {
     "referenced_type" : "_ZTINSt3__18functionIFvRKN7android4hidl4base4V1_09DebugInfoEEEE"
    }
   ],
   "return_type" : "_ZTIN7android8hardware6ReturnIvEE",
   "source_file" : "/out/soong/.intermediates/hardware/interfaces/gnss/2.1/android.hardware.gnss@2.1_genc++_headers/gen/android/hardware/gnss/2.1/BnHwGnssCallback.h"
  },
  {
   "function_name" : "android::hardware::gnss::V2_1::BnHwGnssCallback::_hidl_gnssSvStatusCb_2_1",
   "linker_set_key" : "_ZN7android8hardware4gnss4V2_116BnHwGnssCallback24_hidl_gnssSvStatusCb_2_1EPNS_4hidl4base4V1_08BnHwBaseERKNS0_6ParcelEPS9_NSt3__18functionIFvRS9_EEE",
   "parameters" :
   [
    {
     "referenced_type" : "_ZTIPN7android4hidl4base4V1_08BnHwBaseE"
    },
    {
     "referenced_type" : "_ZTIRKN7android8hardware6ParcelE"
    },
    {
     "referenced_type" : "_ZTIPN7android8hardware6ParcelE"
    },
    {
     "referenced_type" : "_ZTINSt3__18functionIFvRN7android8hardware6ParcelEEEE"
    }
   ],
   "return_type" : "_ZTIi",
   "source_file" : "/out/soong/.intermediates/hardware/interfaces/gnss/2.1/android.hardware.gnss@2.1_genc++_headers/gen/android/hardware/gnss/2.1/BnHwGnssCallback.h"
  },
  {
   "function_name" : "android::hardware::gnss::V2_1::BnHwGnssCallback::_hidl_gnssSetCapabilitiesCb_2_1",
   "linker_set_key" : "_ZN7android8hardware4gnss4V2_116BnHwGnssCallback31_hidl_gnssSetCapabilitiesCb_2_1EPNS_4hidl4base4V1_08BnHwBaseERKNS0_6ParcelEPS9_NSt3__18functionIFvRS9_EEE",
   "parameters" :
   [
    {
     "referenced_type" : "_ZTIPN7android4hidl4base4V1_08BnHwBaseE"
    },
    {
     "referenced_type" : "_ZTIRKN7android8hardware6ParcelE"
    },
    {
     "referenced_type" : "_ZTIPN7android8hardware6ParcelE"
    },
    {
     "referenced_type" : "_ZTINSt3__18functionIFvRN7android8hardware6ParcelEEEE"
    }
   ],
   "return_type" : "_ZTIi",
   "source_file" : "/out/soong/.intermediates/hardware/interfaces/gnss/2.1/android.hardware.gnss@2.1_genc++_headers/gen/android/hardware/gnss/2.1/BnHwGnssCallback.h"
  },
  {
   "access" : "private",
   "function_name" : "android::hardware::gnss::V2_1::BnHwGnssCallback::ping",
   "linker_set_key" : "_ZN7android8hardware4gnss4V2_116BnHwGnssCallback4pingEv",
   "parameters" :
   [
    {
     "is_this_ptr" : true,
     "referenced_type" : "_ZTIPN7android8hardware4gnss4V2_116BnHwGnssCallbackE"
    }
   ],
   "return_type" : "_ZTIN7android8hardware6ReturnIvEE",
   "source_file" : "/out/soong/.intermediates/hardware/interfaces/gnss/2.1/android.hardware.gnss@2.1_genc++_headers/gen/android/hardware/gnss/2.1/BnHwGnssCallback.h"
  },
  {
   "function_name" : "android::hardware::gnss::V2_1::BnHwGnssCallback::BnHwGnssCallback",
   "linker_set_key" : "_ZN7android8hardware4gnss4V2_116BnHwGnssCallbackC1ERKNS_2spINS2_13IGnssCallbackEEE",
   "parameters" :
   [
    {
     "is_this_ptr" : true,
     "referenced_type" : "_ZTIPN7android8hardware4gnss4V2_116BnHwGnssCallbackE"
    },
    {
     "referenced_type" : "_ZTIRKN7android2spINS_8hardware4gnss4V2_113IGnssCallbackEEE"
    }
   ],
   "return_type" : "_ZTIv",
   "source_file" : "/out/soong/.intermediates/hardware/interfaces/gnss/2.1/android.hardware.gnss@2.1_genc++_headers/gen/android/hardware/gnss/2.1/BnHwGnssCallback.h"
  },
  {
   "function_name" : "android::hardware::gnss::V2_1::BnHwGnssCallback::BnHwGnssCallback",
   "linker_set_key" : "_ZN7android8hardware4gnss4V2_116BnHwGnssCallbackC2ERKNS_2spINS2_13IGnssCallbackEEE",
   "parameters" :
   [
    {
     "is_this_ptr" : true,
     "referenced_type" : "_ZTIPN7android8hardware4gnss4V2_116BnHwGnssCallbackE"
    },
    {
     "referenced_type" : "_ZTIRKN7android2spINS_8hardware4gnss4V2_113IGnssCallbackEEE"
    }
   ],
   "return_type" : "_ZTIv",
   "source_file" : "/out/soong/.intermediates/hardware/interfaces/gnss/2.1/android.hardware.gnss@2.1_genc++_headers/gen/android/hardware/gnss/2.1/BnHwGnssCallback.h"
  },
  {
   "function_name" : "android::hardware::gnss::V2_1::BnHwGnssCallback::~BnHwGnssCallback",
   "linker_set_key" : "_ZN7android8hardware4gnss4V2_116BnHwGnssCallbackD0Ev",
   "parameters" :
   [
    {
     "is_this_ptr" : true,
     "referenced_type" : "_ZTIPN7android8hardware4gnss4V2_116BnHwGnssCallbackE"
    }
   ],
   "return_type" : "_ZTIv",
   "source_file" : "/out/soong/.intermediates/hardware/interfaces/gnss/2.1/android.hardware.gnss@2.1_genc++_headers/gen/android/hardware/gnss/2.1/BnHwGnssCallback.h"
  },
  {
   "function_name" : "android::hardware::gnss::V2_1::BnHwGnssCallback::~BnHwGnssCallback",
   "linker_set_key" : "_ZN7android8hardware4gnss4V2_116BnHwGnssCallbackD1Ev",
   "parameters" :
   [
    {
     "is_this_ptr" : true,
     "referenced_type" : "_ZTIPN7android8hardware4gnss4V2_116BnHwGnssCallbackE"
    }
   ],
   "return_type" : "_ZTIv",
   "source_file" : "/out/soong/.intermediates/hardware/interfaces/gnss/2.1/android.hardware.gnss@2.1_genc++_headers/gen/android/hardware/gnss/2.1/BnHwGnssCallback.h"
  },
  {
   "function_name" : "android::hardware::gnss::V2_1::BnHwGnssCallback::~BnHwGnssCallback",
   "linker_set_key" : "_ZN7android8hardware4gnss4V2_116BnHwGnssCallbackD2Ev",
   "parameters" :
   [
    {
     "is_this_ptr" : true,
     "referenced_type" : "_ZTIPN7android8hardware4gnss4V2_116BnHwGnssCallbackE"
    }
   ],
   "return_type" : "_ZTIv",
   "source_file" : "/out/soong/.intermediates/hardware/interfaces/gnss/2.1/android.hardware.gnss@2.1_genc++_headers/gen/android/hardware/gnss/2.1/BnHwGnssCallback.h"
  },
  {
   "function_name" : "android::hardware::gnss::V2_1::BpHwGnssCallback::gnssNameCb",
   "linker_set_key" : "_ZN7android8hardware4gnss4V2_116BpHwGnssCallback10gnssNameCbERKNS0_11hidl_stringE",
   "parameters" :
   [
    {
     "is_this_ptr" : true,
     "referenced_type" : "_ZTIPN7android8hardware4gnss4V2_116BpHwGnssCallbackE"
    },
    {
     "referenced_type" : "_ZTIRKN7android8hardware11hidl_stringE"
    }
   ],
   "return_type" : "_ZTIN7android8hardware6ReturnIvEE",
   "source_file" : "/out/soong/.intermediates/hardware/interfaces/gnss/2.1/android.hardware.gnss@2.1_genc++_headers/gen/android/hardware/gnss/2.1/BpHwGnssCallback.h"
  },
  {
   "function_name" : "android::hardware::gnss::V2_1::BpHwGnssCallback::gnssNmeaCb",
   "linker_set_key" : "_ZN7android8hardware4gnss4V2_116BpHwGnssCallback10gnssNmeaCbElRKNS0_11hidl_stringE",
   "parameters" :
   [
    {
     "is_this_ptr" : true,
     "referenced_type" : "_ZTIPN7android8hardware4gnss4V2_116BpHwGnssCallbackE"
    },
    {
     "referenced_type" : "_ZTIl"
    },
    {
     "referenced_type" : "_ZTIRKN7android8hardware11hidl_stringE"
    }
   ],
   "return_type" : "_ZTIN7android8hardware6ReturnIvEE",
   "source_file" : "/out/soong/.intermediates/hardware/interfaces/gnss/2.1/android.hardware.gnss@2.1_genc++_headers/gen/android/hardware/gnss/2.1/BpHwGnssCallback.h"
  },
  {
   "function_name" : "android::hardware::gnss::V2_1::BpHwGnssCallback::linkToDeath",
   "linker_set_key" : "_ZN7android8hardware4gnss4V2_116BpHwGnssCallback11linkToDeathERKNS_2spINS0_20hidl_death_recipientEEEm",
   "parameters" :
   [
    {
     "is_this_ptr" : true,
     "referenced_type" : "_ZTIPN7android8hardware4gnss4V2_116BpHwGnssCallbackE"
    },
    {
     "referenced_type" : "_ZTIRKN7android2spINS_8hardware20hidl_death_recipientEEE"
    },
    {
     "referenced_type" : "_ZTIm"
    }
   ],
   "return_type" : "_ZTIN7android8hardware6ReturnIbEE",
   "source_file" : "/out/soong/.intermediates/hardware/interfaces/gnss/2.1/android.hardware.gnss@2.1_genc++_headers/gen/android/hardware/gnss/2.1/BpHwGnssCallback.h"
  },
  {
   "function_name" : "android::hardware::gnss::V2_1::BpHwGnssCallback::getDebugInfo",
   "linker_set_key" : "_ZN7android8hardware4gnss4V2_116BpHwGnssCallback12getDebugInfoENSt3__18functionIFvRKNS_4hidl4base4V1_09DebugInfoEEEE",
   "parameters" :
   [
    {
     "is_this_ptr" : true,
     "referenced_type" : "_ZTIPN7android8hardware4gnss4V2_116BpHwGnssCallbackE"
    },
    {
     "referenced_type" : "_ZTINSt3__18functionIFvRKN7android4hidl4base4V1_09DebugInfoEEEE"
    }
   ],
   "return_type" : "_ZTIN7android8hardware6ReturnIvEE",
   "source_file" : "/out/soong/.intermediates/hardware/interfaces/gnss/2.1/android.hardware.gnss@2.1_genc++_headers/gen/android/hardware/gnss/2.1/BpHwGnssCallback.h"
  },
  {
   "function_name" : "android::hardware::gnss::V2_1::BpHwGnssCallback::getHashChain",
   "linker_set_key" : "_ZN7android8hardware4gnss4V2_116BpHwGnssCallback12getHashChainENSt3__18functionIFvRKNS0_8hidl_vecINS0_10hidl_arrayIhLm32EJEEEEEEEE",
   "parameters" :
   [
    {
     "is_this_ptr" : true,
     "referenced_type" : "_ZTIPN7android8hardware4gnss4V2_116BpHwGnssCallbackE"
    },
    {
     "referenced_type" : "_ZTINSt3__18functionIFvRKN7android8hardware8hidl_vecINS2_10hidl_arrayIhLm32EJEEEEEEEE"
    }
   ],
   "return_type" : "_ZTIN7android8hardware6ReturnIvEE",
   "source_file" : "/out/soong/.intermediates/hardware/interfaces/gnss/2.1/android.hardware.gnss@2.1_genc++_headers/gen/android/hardware/gnss/2.1/BpHwGnssCallback.h"
  },
  {
   "function_name" : "android::hardware::gnss::V2_1::BpHwGnssCallback::gnssStatusCb",
   "linker_set_key" : "_ZN7android8hardware4gnss4V2_116BpHwGnssCallback12gnssStatusCbENS1_4V1_013IGnssCallback15GnssStatusValueE",
   "parameters" :
   [
    {
     "is_this_ptr" : true,
     "referenced_type" : "_ZTIPN7android8hardware4gnss4V2_116BpHwGnssCallbackE"
    },
    {
     "referenced_type" : "_ZTIN7android8hardware4gnss4V1_013IGnssCallback15GnssStatusValueE"
    }
   ],
   "return_type" : "_ZTIN7android8hardware6ReturnIvEE",
   "source_file" : "/out/soong/.intermediates/hardware/interfaces/gnss/2.1/android.hardware.gnss@2.1_genc++_headers/gen/android/hardware/gnss/2.1/BpHwGnssCallback.h"
  },
  {
   "function_name" : "android::hardware::gnss::V2_1::BpHwGnssCallback::unlinkToDeath",
   "linker_set_key" : "_ZN7android8hardware4gnss4V2_116BpHwGnssCallback13unlinkToDeathERKNS_2spINS0_20hidl_death_recipientEEE",
   "parameters" :
   [
    {
     "is_this_ptr" : true,
     "referenced_type" : "_ZTIPN7android8hardware4gnss4V2_116BpHwGnssCallbackE"
    },
    {
     "referenced_type" : "_ZTIRKN7android2spINS_8hardware20hidl_death_recipientEEE"
    }
   ],
   "return_type" : "_ZTIN7android8hardware6ReturnIbEE",
   "source_file" : "/out/soong/.intermediates/hardware/interfaces/gnss/2.1/android.hardware.gnss@2.1_genc++_headers/gen/android/hardware/gnss/2.1/BpHwGnssCallback.h"
  },
  {
   "function_name" : "android::hardware::gnss::V2_1::BpHwGnssCallback::gnssLocationCb",
   "linker_set_key" : "_ZN7android8hardware4gnss4V2_116BpHwGnssCallback14gnssLocationCbERKNS1_4V1_012GnssLocationE",
   "parameters" :
   [
    {
     "is_this_ptr" : true,
     "referenced_type" : "_ZTIPN7android8hardware4gnss4V2_116BpHwGnssCallbackE"
    },
    {
     "referenced_type" : "_ZTIRKN7android8hardware4gnss4V1_012GnssLocationE"
    }
   ],
   "return_type" : "_ZTIN7android8hardware6ReturnIvEE",
   "source_file" : "/out/soong/.intermediates/hardware/interfaces/gnss/2.1/android.hardware.gnss@2.1_genc++_headers/gen/android/hardware/gnss/2.1/BpHwGnssCallback.h"
  },
  {
   "function_name" : "android::hardware::gnss::V2_1::BpHwGnssCallback::gnssSvStatusCb",
   "linker_set_key" : "_ZN7android8hardware4gnss4V2_116BpHwGnssCallback14gnssSvStatusCbERKNS1_4V1_013IGnssCallback12GnssSvStatusE",
   "parameters" :
   [
    {
     "is_this_ptr" : true,
     "referenced_type" : "_ZTIPN7android8hardware4gnss4V2_116BpHwGnssCallbackE"
    },
    {
     "referenced_type" : "_ZTIRKN7android8hardware4gnss4V1_013IGnssCallback12GnssSvStatusE"
    }
   ],
   "return_type" : "_ZTIN7android8hardware6ReturnIvEE",
   "source_file" : "/out/soong/.intermediates/hardware/interfaces/gnss/2.1/android.hardware.gnss@2.1_genc++_headers/gen/android/hardware/gnss/2.1/BpHwGnssCallback.h"
  },
  {
   "function_name" : "android::hardware::gnss::V2_1::BpHwGnssCallback::interfaceChain",
   "linker_set_key" : "_ZN7android8hardware4gnss4V2_116BpHwGnssCallback14interfaceChainENSt3__18functionIFvRKNS0_8hidl_vecINS0_11hidl_stringEEEEEE",
   "parameters" :
   [
    {
     "is_this_ptr" : true,
     "referenced_type" : "_ZTIPN7android8hardware4gnss4V2_116BpHwGnssCallbackE"
    },
    {
     "referenced_type" : "_ZTINSt3__18functionIFvRKN7android8hardware8hidl_vecINS2_11hidl_stringEEEEEE"
    }
   ],
   "return_type" : "_ZTIN7android8hardware6ReturnIvEE",
   "source_file" : "/out/soong/.intermediates/hardware/interfaces/gnss/2.1/android.hardware.gnss@2.1_genc++_headers/gen/android/hardware/gnss/2.1/BpHwGnssCallback.h"
  },
  {
   "function_name" : "android::hardware::gnss::V2_1::BpHwGnssCallback::onLastStrongRef",
   "linker_set_key" : "_ZN7android8hardware4gnss4V2_116BpHwGnssCallback15onLastStrongRefEPKv",
   "parameters" :
   [
    {
     "is_this_ptr" : true,
     "referenced_type" : "_ZTIPN7android8hardware4gnss4V2_116BpHwGnssCallbackE"
    },
    {
     "referenced_type" : "_ZTIPKv"
    }
   ],
   "return_type" : "_ZTIv",
   "source_file" : "/out/soong/.intermediates/hardware/interfaces/gnss/2.1/android.hardware.gnss@2.1_genc++_headers/gen/android/hardware/gnss/2.1/BpHwGnssCallback.h"
  },
  {
   "function_name" : "android::hardware::gnss::V2_1::BpHwGnssCallback::gnssRequestTimeCb",
   "linker_set_key" : "_ZN7android8hardware4gnss4V2_116BpHwGnssCallback17gnssRequestTimeCbEv",
   "parameters" :
   [
    {
     "is_this_ptr" : true,
     "referenced_type" : "_ZTIPN7android8hardware4gnss4V2_116BpHwGnssCallbackE"
    }
   ],
   "return_type" : "_ZTIN7android8hardware6ReturnIvEE",
   "source_file" : "/out/soong/.intermediates/hardware/interfaces/gnss/2.1/android.hardware.gnss@2.1_genc++_headers/gen/android/hardware/gnss/2.1/BpHwGnssCallback.h"
  },
  {
   "function_name" : "android::hardware::gnss::V2_1::BpHwGnssCallback::gnssLocationCb_2_0",
   "linker_set_key" : "_ZN7android8hardware4gnss4V2_116BpHwGnssCallback18gnssLocationCb_2_0ERKNS1_4V2_012GnssLocationE",
   "parameters" :
   [
    {
     "is_this_ptr" : true,
     "referenced_type" : "_ZTIPN7android8hardware4gnss4V2_116BpHwGnssCallbackE"
    },
    {
     "referenced_type" : "_ZTIRKN7android8hardware4gnss4V2_012GnssLocationE"
    }
   ],
   "return_type" : "_ZTIN7android8hardware6ReturnIvEE",
   "source_file" : "/out/soong/.intermediates/hardware/interfaces/gnss/2.1/android.hardware.gnss@2.1_genc++_headers/gen/android/hardware/gnss/2.1/BpHwGnssCallback.h"
  },
  {
   "function_name" : "android::hardware::gnss::V2_1::BpHwGnssCallback::gnssSvStatusCb_2_0",
   "linker_set_key" : "_ZN7android8hardware4gnss4V2_116BpHwGnssCallback18gnssSvStatusCb_2_0ERKNS0_8hidl_vecINS1_4V2_013IGnssCallback10GnssSvInfoEEE",
   "parameters" :
   [
    {
     "is_this_ptr" : true,
     "referenced_type" : "_ZTIPN7android8hardware4gnss4V2_116BpHwGnssCallbackE"
    },
    {
     "referenced_type" : "_ZTIRKN7android8hardware8hidl_vecINS0_4gnss4V2_013IGnssCallback10GnssSvInfoEEE"
    }
   ],
   "return_type" : "_ZTIN7android8hardware6ReturnIvEE",
   "source_file" : "/out/soong/.intermediates/hardware/interfaces/gnss/2.1/android.hardware.gnss@2.1_genc++_headers/gen/android/hardware/gnss/2.1/BpHwGnssCallback.h"
  },
  {
   "function_name" : "android::hardware::gnss::V2_1::BpHwGnssCallback::gnssSvStatusCb_2_1",
   "linker_set_key" : "_ZN7android8hardware4gnss4V2_116BpHwGnssCallback18gnssSvStatusCb_2_1ERKNS0_8hidl_vecINS2_13IGnssCallback10GnssSvInfoEEE",
   "parameters" :
   [
    {
     "is_this_ptr" : true,
     "referenced_type" : "_ZTIPN7android8hardware4gnss4V2_116BpHwGnssCallbackE"
    },
    {
     "referenced_type" : "_ZTIRKN7android8hardware8hidl_vecINS0_4gnss4V2_113IGnssCallback10GnssSvInfoEEE"
    }
   ],
   "return_type" : "_ZTIN7android8hardware6ReturnIvEE",
   "source_file" : "/out/soong/.intermediates/hardware/interfaces/gnss/2.1/android.hardware.gnss@2.1_genc++_headers/gen/android/hardware/gnss/2.1/BpHwGnssCallback.h"
  },
  {
   "function_name" : "android::hardware::gnss::V2_1::BpHwGnssCallback::gnssSetSystemInfoCb",
   "linker_set_key" : "_ZN7android8hardware4gnss4V2_116BpHwGnssCallback19gnssSetSystemInfoCbERKNS1_4V1_013IGnssCallback14GnssSystemInfoE",
   "parameters" :
   [
    {
     "is_this_ptr" : true,
     "referenced_type" : "_ZTIPN7android8hardware4gnss4V2_116BpHwGnssCallbackE"
    },
    {
     "referenced_type" : "_ZTIRKN7android8hardware4gnss4V1_013IGnssCallback14GnssSystemInfoE"
    }
   ],
   "return_type" : "_ZTIN7android8hardware6ReturnIvEE",
   "source_file" : "/out/soong/.intermediates/hardware/interfaces/gnss/2.1/android.hardware.gnss@2.1_genc++_headers/gen/android/hardware/gnss/2.1/BpHwGnssCallback.h"
  },
  {
   "function_name" : "android::hardware::gnss::V2_1::BpHwGnssCallback::interfaceDescriptor",
   "linker_set_key" : "_ZN7android8hardware4gnss4V2_116BpHwGnssCallback19interfaceDescriptorENSt3__18functionIFvRKNS0_11hidl_stringEEEE",
   "parameters" :
   [
    {
     "is_this_ptr" : true,
     "referenced_type" : "_ZTIPN7android8hardware4gnss4V2_116BpHwGnssCallbackE"
    },
    {
     "referenced_type" : "_ZTINSt3__18functionIFvRKN7android8hardware11hidl_stringEEEE"
    }
   ],
   "return_type" : "_ZTIN7android8hardware6ReturnIvEE",
   "source_file" : "/out/soong/.intermediates/hardware/interfaces/gnss/2.1/android.hardware.gnss@2.1_genc++_headers/gen/android/hardware/gnss/2.1/BpHwGnssCallback.h"
  },
  {
   "function_name" : "android::hardware::gnss::V2_1::BpHwGnssCallback::gnssSetCapabilitesCb",
   "linker_set_key" : "_ZN7android8hardware4gnss4V2_116BpHwGnssCallback20gnssSetCapabilitesCbEj",
   "parameters" :
   [
    {
     "is_this_ptr" : true,
     "referenced_type" : "_ZTIPN7android8hardware4gnss4V2_116BpHwGnssCallbackE"
    },
    {
     "referenced_type" : "_ZTIj"
    }
   ],
   "return_type" : "_ZTIN7android8hardware6ReturnIvEE",
   "source_file" : "/out/soong/.intermediates/hardware/interfaces/gnss/2.1/android.hardware.gnss@2.1_genc++_headers/gen/android/hardware/gnss/2.1/BpHwGnssCallback.h"
  },
  {
   "function_name" : "android::hardware::gnss::V2_1::BpHwGnssCallback::gnssAcquireWakelockCb",
   "linker_set_key" : "_ZN7android8hardware4gnss4V2_116BpHwGnssCallback21gnssAcquireWakelockCbEv",
   "parameters" :
   [
    {
     "is_this_ptr" : true,
     "referenced_type" : "_ZTIPN7android8hardware4gnss4V2_116BpHwGnssCallbackE"
    }
   ],
   "return_type" : "_ZTIN7android8hardware6ReturnIvEE",
   "source_file" : "/out/soong/.intermediates/hardware/interfaces/gnss/2.1/android.hardware.gnss@2.1_genc++_headers/gen/android/hardware/gnss/2.1/BpHwGnssCallback.h"
  },
  {
   "function_name" : "android::hardware::gnss::V2_1::BpHwGnssCallback::gnssReleaseWakelockCb",
   "linker_set_key" : "_ZN7android8hardware4gnss4V2_116BpHwGnssCallback21gnssReleaseWakelockCbEv",
   "parameters" :
   [
    {
     "is_this_ptr" : true,
     "referenced_type" : "_ZTIPN7android8hardware4gnss4V2_116BpHwGnssCallbackE"
    }
   ],
   "return_type" : "_ZTIN7android8hardware6ReturnIvEE",
   "source_file" : "/out/soong/.intermediates/hardware/interfaces/gnss/2.1/android.hardware.gnss@2.1_genc++_headers/gen/android/hardware/gnss/2.1/BpHwGnssCallback.h"
  },
  {
   "function_name" : "android::hardware::gnss::V2_1::BpHwGnssCallback::gnssRequestLocationCb",
   "linker_set_key" : "_ZN7android8hardware4gnss4V2_116BpHwGnssCallback21gnssRequestLocationCbEb",
   "parameters" :
   [
    {
     "is_this_ptr" : true,
     "referenced_type" : "_ZTIPN7android8hardware4gnss4V2_116BpHwGnssCallbackE"
    },
    {
     "referenced_type" : "_ZTIb"
    }
   ],
   "return_type" : "_ZTIN7android8hardware6ReturnIvEE",
   "source_file" : "/out/soong/.intermediates/hardware/interfaces/gnss/2.1/android.hardware.gnss@2.1_genc++_headers/gen/android/hardware/gnss/2.1/BpHwGnssCallback.h"
  },
  {
   "function_name" : "android::hardware::gnss::V2_1::BpHwGnssCallback::notifySyspropsChanged",
   "linker_set_key" : "_ZN7android8hardware4gnss4V2_116BpHwGnssCallback21notifySyspropsChangedEv",
   "parameters" :
   [
    {
     "is_this_ptr" : true,
     "referenced_type" : "_ZTIPN7android8hardware4gnss4V2_116BpHwGnssCallbackE"
    }
   ],
   "return_type" : "_ZTIN7android8hardware6ReturnIvEE",
   "source_file" : "/out/soong/.intermediates/hardware/interfaces/gnss/2.1/android.hardware.gnss@2.1_genc++_headers/gen/android/hardware/gnss/2.1/BpHwGnssCallback.h"
  },
  {
   "function_name" : "android::hardware::gnss::V2_1::BpHwGnssCallback::setHALInstrumentation",
   "linker_set_key" : "_ZN7android8hardware4gnss4V2_116BpHwGnssCallback21setHALInstrumentationEv",
   "parameters" :
   [
    {
     "is_this_ptr" : true,
     "referenced_type" : "_ZTIPN7android8hardware4gnss4V2_116BpHwGnssCallbackE"
    }
   ],
   "return_type" : "_ZTIN7android8hardware6ReturnIvEE",
   "source_file" : "/out/soong/.intermediates/hardware/interfaces/gnss/2.1/android.hardware.gnss@2.1_genc++_headers/gen/android/hardware/gnss/2.1/BpHwGnssCallback.h"
  },
  {
   "function_name" : "android::hardware::gnss::V2_1::BpHwGnssCallback::_hidl_gnssSvStatusCb_2_1",
   "linker_set_key" : "_ZN7android8hardware4gnss4V2_116BpHwGnssCallback24_hidl_gnssSvStatusCb_2_1EPNS0_10IInterfaceEPNS0_7details16HidlInstrumentorERKNS0_8hidl_vecINS2_13IGnssCallback10GnssSvInfoEEE",
   "parameters" :
   [
    {
     "referenced_type" : "_ZTIPN7android8hardware10IInterfaceE"
    },
    {
     "referenced_type" : "_ZTIPN7android8hardware7details16HidlInstrumentorE"
    },
    {
     "referenced_type" : "_ZTIRKN7android8hardware8hidl_vecINS0_4gnss4V2_113IGnssCallback10GnssSvInfoEEE"
    }
   ],
   "return_type" : "_ZTIN7android8hardware6ReturnIvEE",
   "source_file" : "/out/soong/.intermediates/hardware/interfaces/gnss/2.1/android.hardware.gnss@2.1_genc++_headers/gen/android/hardware/gnss/2.1/BpHwGnssCallback.h"
  },
  {
   "function_name" : "android::hardware::gnss::V2_1::BpHwGnssCallback::gnssRequestLocationCb_2_0",
   "linker_set_key" : "_ZN7android8hardware4gnss4V2_116BpHwGnssCallback25gnssRequestLocationCb_2_0Ebb",
   "parameters" :
   [
    {
     "is_this_ptr" : true,
     "referenced_type" : "_ZTIPN7android8hardware4gnss4V2_116BpHwGnssCallbackE"
    },
    {
     "referenced_type" : "_ZTIb"
    },
    {
     "referenced_type" : "_ZTIb"
    }
   ],
   "return_type" : "_ZTIN7android8hardware6ReturnIvEE",
   "source_file" : "/out/soong/.intermediates/hardware/interfaces/gnss/2.1/android.hardware.gnss@2.1_genc++_headers/gen/android/hardware/gnss/2.1/BpHwGnssCallback.h"
  },
  {
   "function_name" : "android::hardware::gnss::V2_1::BpHwGnssCallback::gnssSetCapabilitiesCb_2_0",
   "linker_set_key" : "_ZN7android8hardware4gnss4V2_116BpHwGnssCallback25gnssSetCapabilitiesCb_2_0Ej",
   "parameters" :
   [
    {
     "is_this_ptr" : true,
     "referenced_type" : "_ZTIPN7android8hardware4gnss4V2_116BpHwGnssCallbackE"
    },
    {
     "referenced_type" : "_ZTIj"
    }
   ],
   "return_type" : "_ZTIN7android8hardware6ReturnIvEE",
   "source_file" : "/out/soong/.intermediates/hardware/interfaces/gnss/2.1/android.hardware.gnss@2.1_genc++_headers/gen/android/hardware/gnss/2.1/BpHwGnssCallback.h"
  },
  {
   "function_name" : "android::hardware::gnss::V2_1::BpHwGnssCallback::gnssSetCapabilitiesCb_2_1",
   "linker_set_key" : "_ZN7android8hardware4gnss4V2_116BpHwGnssCallback25gnssSetCapabilitiesCb_2_1Ej",
   "parameters" :
   [
    {
     "is_this_ptr" : true,
     "referenced_type" : "_ZTIPN7android8hardware4gnss4V2_116BpHwGnssCallbackE"
    },
    {
     "referenced_type" : "_ZTIj"
    }
   ],
   "return_type" : "_ZTIN7android8hardware6ReturnIvEE",
   "source_file" : "/out/soong/.intermediates/hardware/interfaces/gnss/2.1/android.hardware.gnss@2.1_genc++_headers/gen/android/hardware/gnss/2.1/BpHwGnssCallback.h"
  },
  {
   "function_name" : "android::hardware::gnss::V2_1::BpHwGnssCallback::_hidl_gnssSetCapabilitiesCb_2_1",
   "linker_set_key" : "_ZN7android8hardware4gnss4V2_116BpHwGnssCallback31_hidl_gnssSetCapabilitiesCb_2_1EPNS0_10IInterfaceEPNS0_7details16HidlInstrumentorEj",
   "parameters" :
   [
    {
     "referenced_type" : "_ZTIPN7android8hardware10IInterfaceE"
    },
    {
     "referenced_type" : "_ZTIPN7android8hardware7details16HidlInstrumentorE"
    },
    {
     "referenced_type" : "_ZTIj"
    }
   ],
   "return_type" : "_ZTIN7android8hardware6ReturnIvEE",
   "source_file" : "/out/soong/.intermediates/hardware/interfaces/gnss/2.1/android.hardware.gnss@2.1_genc++_headers/gen/android/hardware/gnss/2.1/BpHwGnssCallback.h"
  },
  {
   "function_name" : "android::hardware::gnss::V2_1::BpHwGnssCallback::ping",
   "linker_set_key" : "_ZN7android8hardware4gnss4V2_116BpHwGnssCallback4pingEv",
   "parameters" :
   [
    {
     "is_this_ptr" : true,
     "referenced_type" : "_ZTIPN7android8hardware4gnss4V2_116BpHwGnssCallbackE"
    }
   ],
   "return_type" : "_ZTIN7android8hardware6ReturnIvEE",
   "source_file" : "/out/soong/.intermediates/hardware/interfaces/gnss/2.1/android.hardware.gnss@2.1_genc++_headers/gen/android/hardware/gnss/2.1/BpHwGnssCallback.h"
  },
  {
   "function_name" : "android::hardware::gnss::V2_1::BpHwGnssCallback::debug",
   "linker_set_key" : "_ZN7android8hardware4gnss4V2_116BpHwGnssCallback5debugERKNS0_11hidl_handleERKNS0_8hidl_vecINS0_11hidl_stringEEE",
   "parameters" :
   [
    {
     "is_this_ptr" : true,
     "referenced_type" : "_ZTIPN7android8hardware4gnss4V2_116BpHwGnssCallbackE"
    },
    {
     "referenced_type" : "_ZTIRKN7android8hardware11hidl_handleE"
    },
    {
     "referenced_type" : "_ZTIRKN7android8hardware8hidl_vecINS0_11hidl_stringEEE"
    }
   ],
   "return_type" : "_ZTIN7android8hardware6ReturnIvEE",
   "source_file" : "/out/soong/.intermediates/hardware/interfaces/gnss/2.1/android.hardware.gnss@2.1_genc++_headers/gen/android/hardware/gnss/2.1/BpHwGnssCallback.h"
  },
  {
   "function_name" : "android::hardware::gnss::V2_1::BpHwGnssCallback::BpHwGnssCallback",
   "linker_set_key" : "_ZN7android8hardware4gnss4V2_116BpHwGnssCallbackC1ERKNS_2spINS0_7IBinderEEE",
   "parameters" :
   [
    {
     "is_this_ptr" : true,
     "referenced_type" : "_ZTIPN7android8hardware4gnss4V2_116BpHwGnssCallbackE"
    },
    {
     "referenced_type" : "_ZTIRKN7android2spINS_8hardware7IBinderEEE"
    }
   ],
   "return_type" : "_ZTIv",
   "source_file" : "/out/soong/.intermediates/hardware/interfaces/gnss/2.1/android.hardware.gnss@2.1_genc++_headers/gen/android/hardware/gnss/2.1/BpHwGnssCallback.h"
  },
  {
   "function_name" : "android::hardware::gnss::V2_1::BpHwGnssCallback::BpHwGnssCallback",
   "linker_set_key" : "_ZN7android8hardware4gnss4V2_116BpHwGnssCallbackC2ERKNS_2spINS0_7IBinderEEE",
   "parameters" :
   [
    {
     "is_this_ptr" : true,
     "referenced_type" : "_ZTIPN7android8hardware4gnss4V2_116BpHwGnssCallbackE"
    },
    {
     "referenced_type" : "_ZTIRKN7android2spINS_8hardware7IBinderEEE"
    }
   ],
   "return_type" : "_ZTIv",
   "source_file" : "/out/soong/.intermediates/hardware/interfaces/gnss/2.1/android.hardware.gnss@2.1_genc++_headers/gen/android/hardware/gnss/2.1/BpHwGnssCallback.h"
  },
  {
   "function_name" : "android::hardware::gnss::V2_1::IGnssAntennaInfo::getService",
   "linker_set_key" : "_ZN7android8hardware4gnss4V2_116IGnssAntennaInfo10getServiceERKNSt3__112basic_stringIcNS4_11char_traitsIcEENS4_9allocatorIcEEEEb",
   "parameters" :
   [
    {
     "default_arg" : true,
     "referenced_type" : "_ZTIRKNSt3__112basic_stringIcNS_11char_traitsIcEENS_9allocatorIcEEEE"
    },
    {
     "default_arg" : true,
     "referenced_type" : "_ZTIb"
    }
   ],
   "return_type" : "_ZTIN7android2spINS_8hardware4gnss4V2_116IGnssAntennaInfoEEE",
   "source_file" : "/out/soong/.intermediates/hardware/interfaces/gnss/2.1/android.hardware.gnss@2.1_genc++_headers/gen/android/hardware/gnss/2.1/IGnssAntennaInfo.h"
  },
  {
   "function_name" : "android::hardware::gnss::V2_1::IGnssAntennaInfo::linkToDeath",
   "linker_set_key" : "_ZN7android8hardware4gnss4V2_116IGnssAntennaInfo11linkToDeathERKNS_2spINS0_20hidl_death_recipientEEEm",
   "parameters" :
   [
    {
     "is_this_ptr" : true,
     "referenced_type" : "_ZTIPN7android8hardware4gnss4V2_116IGnssAntennaInfoE"
    },
    {
     "referenced_type" : "_ZTIRKN7android2spINS_8hardware20hidl_death_recipientEEE"
    },
    {
     "referenced_type" : "_ZTIm"
    }
   ],
   "return_type" : "_ZTIN7android8hardware6ReturnIbEE",
   "source_file" : "/out/soong/.intermediates/hardware/interfaces/gnss/2.1/android.hardware.gnss@2.1_genc++_headers/gen/android/hardware/gnss/2.1/IGnssAntennaInfo.h"
  },
  {
   "function_name" : "android::hardware::gnss::V2_1::IGnssAntennaInfo::getDebugInfo",
   "linker_set_key" : "_ZN7android8hardware4gnss4V2_116IGnssAntennaInfo12getDebugInfoENSt3__18functionIFvRKNS_4hidl4base4V1_09DebugInfoEEEE",
   "parameters" :
   [
    {
     "is_this_ptr" : true,
     "referenced_type" : "_ZTIPN7android8hardware4gnss4V2_116IGnssAntennaInfoE"
    },
    {
     "referenced_type" : "_ZTINSt3__18functionIFvRKN7android4hidl4base4V1_09DebugInfoEEEE"
    }
   ],
   "return_type" : "_ZTIN7android8hardware6ReturnIvEE",
   "source_file" : "/out/soong/.intermediates/hardware/interfaces/gnss/2.1/android.hardware.gnss@2.1_genc++_headers/gen/android/hardware/gnss/2.1/IGnssAntennaInfo.h"
  },
  {
   "function_name" : "android::hardware::gnss::V2_1::IGnssAntennaInfo::getHashChain",
   "linker_set_key" : "_ZN7android8hardware4gnss4V2_116IGnssAntennaInfo12getHashChainENSt3__18functionIFvRKNS0_8hidl_vecINS0_10hidl_arrayIhLm32EJEEEEEEEE",
   "parameters" :
   [
    {
     "is_this_ptr" : true,
     "referenced_type" : "_ZTIPN7android8hardware4gnss4V2_116IGnssAntennaInfoE"
    },
    {
     "referenced_type" : "_ZTINSt3__18functionIFvRKN7android8hardware8hidl_vecINS2_10hidl_arrayIhLm32EJEEEEEEEE"
    }
   ],
   "return_type" : "_ZTIN7android8hardware6ReturnIvEE",
   "source_file" : "/out/soong/.intermediates/hardware/interfaces/gnss/2.1/android.hardware.gnss@2.1_genc++_headers/gen/android/hardware/gnss/2.1/IGnssAntennaInfo.h"
  },
  {
   "function_name" : "android::hardware::gnss::V2_1::IGnssAntennaInfo::tryGetService",
   "linker_set_key" : "_ZN7android8hardware4gnss4V2_116IGnssAntennaInfo13tryGetServiceERKNSt3__112basic_stringIcNS4_11char_traitsIcEENS4_9allocatorIcEEEEb",
   "parameters" :
   [
    {
     "default_arg" : true,
     "referenced_type" : "_ZTIRKNSt3__112basic_stringIcNS_11char_traitsIcEENS_9allocatorIcEEEE"
    },
    {
     "default_arg" : true,
     "referenced_type" : "_ZTIb"
    }
   ],
   "return_type" : "_ZTIN7android2spINS_8hardware4gnss4V2_116IGnssAntennaInfoEEE",
   "source_file" : "/out/soong/.intermediates/hardware/interfaces/gnss/2.1/android.hardware.gnss@2.1_genc++_headers/gen/android/hardware/gnss/2.1/IGnssAntennaInfo.h"
  },
  {
   "function_name" : "android::hardware::gnss::V2_1::IGnssAntennaInfo::unlinkToDeath",
   "linker_set_key" : "_ZN7android8hardware4gnss4V2_116IGnssAntennaInfo13unlinkToDeathERKNS_2spINS0_20hidl_death_recipientEEE",
   "parameters" :
   [
    {
     "is_this_ptr" : true,
     "referenced_type" : "_ZTIPN7android8hardware4gnss4V2_116IGnssAntennaInfoE"
    },
    {
     "referenced_type" : "_ZTIRKN7android2spINS_8hardware20hidl_death_recipientEEE"
    }
   ],
   "return_type" : "_ZTIN7android8hardware6ReturnIbEE",
   "source_file" : "/out/soong/.intermediates/hardware/interfaces/gnss/2.1/android.hardware.gnss@2.1_genc++_headers/gen/android/hardware/gnss/2.1/IGnssAntennaInfo.h"
  },
  {
   "function_name" : "android::hardware::gnss::V2_1::IGnssAntennaInfo::interfaceChain",
   "linker_set_key" : "_ZN7android8hardware4gnss4V2_116IGnssAntennaInfo14interfaceChainENSt3__18functionIFvRKNS0_8hidl_vecINS0_11hidl_stringEEEEEE",
   "parameters" :
   [
    {
     "is_this_ptr" : true,
     "referenced_type" : "_ZTIPN7android8hardware4gnss4V2_116IGnssAntennaInfoE"
    },
    {
     "referenced_type" : "_ZTINSt3__18functionIFvRKN7android8hardware8hidl_vecINS2_11hidl_stringEEEEEE"
    }
   ],
   "return_type" : "_ZTIN7android8hardware6ReturnIvEE",
   "source_file" : "/out/soong/.intermediates/hardware/interfaces/gnss/2.1/android.hardware.gnss@2.1_genc++_headers/gen/android/hardware/gnss/2.1/IGnssAntennaInfo.h"
  },
  {
   "function_name" : "android::hardware::gnss::V2_1::IGnssAntennaInfo::registerAsService",
   "linker_set_key" : "_ZN7android8hardware4gnss4V2_116IGnssAntennaInfo17registerAsServiceERKNSt3__112basic_stringIcNS4_11char_traitsIcEENS4_9allocatorIcEEEE",
   "parameters" :
   [
    {
     "is_this_ptr" : true,
     "referenced_type" : "_ZTIPN7android8hardware4gnss4V2_116IGnssAntennaInfoE"
    },
    {
     "default_arg" : true,
     "referenced_type" : "_ZTIRKNSt3__112basic_stringIcNS_11char_traitsIcEENS_9allocatorIcEEEE"
    }
   ],
   "return_type" : "_ZTIi",
   "source_file" : "/out/soong/.intermediates/hardware/interfaces/gnss/2.1/android.hardware.gnss@2.1_genc++_headers/gen/android/hardware/gnss/2.1/IGnssAntennaInfo.h"
  },
  {
   "function_name" : "android::hardware::gnss::V2_1::IGnssAntennaInfo::interfaceDescriptor",
   "linker_set_key" : "_ZN7android8hardware4gnss4V2_116IGnssAntennaInfo19interfaceDescriptorENSt3__18functionIFvRKNS0_11hidl_stringEEEE",
   "parameters" :
   [
    {
     "is_this_ptr" : true,
     "referenced_type" : "_ZTIPN7android8hardware4gnss4V2_116IGnssAntennaInfoE"
    },
    {
     "referenced_type" : "_ZTINSt3__18functionIFvRKN7android8hardware11hidl_stringEEEE"
    }
   ],
   "return_type" : "_ZTIN7android8hardware6ReturnIvEE",
   "source_file" : "/out/soong/.intermediates/hardware/interfaces/gnss/2.1/android.hardware.gnss@2.1_genc++_headers/gen/android/hardware/gnss/2.1/IGnssAntennaInfo.h"
  },
  {
   "function_name" : "android::hardware::gnss::V2_1::IGnssAntennaInfo::notifySyspropsChanged",
   "linker_set_key" : "_ZN7android8hardware4gnss4V2_116IGnssAntennaInfo21notifySyspropsChangedEv",
   "parameters" :
   [
    {
     "is_this_ptr" : true,
     "referenced_type" : "_ZTIPN7android8hardware4gnss4V2_116IGnssAntennaInfoE"
    }
   ],
   "return_type" : "_ZTIN7android8hardware6ReturnIvEE",
   "source_file" : "/out/soong/.intermediates/hardware/interfaces/gnss/2.1/android.hardware.gnss@2.1_genc++_headers/gen/android/hardware/gnss/2.1/IGnssAntennaInfo.h"
  },
  {
   "function_name" : "android::hardware::gnss::V2_1::IGnssAntennaInfo::setHALInstrumentation",
   "linker_set_key" : "_ZN7android8hardware4gnss4V2_116IGnssAntennaInfo21setHALInstrumentationEv",
   "parameters" :
   [
    {
     "is_this_ptr" : true,
     "referenced_type" : "_ZTIPN7android8hardware4gnss4V2_116IGnssAntennaInfoE"
    }
   ],
   "return_type" : "_ZTIN7android8hardware6ReturnIvEE",
   "source_file" : "/out/soong/.intermediates/hardware/interfaces/gnss/2.1/android.hardware.gnss@2.1_genc++_headers/gen/android/hardware/gnss/2.1/IGnssAntennaInfo.h"
  },
  {
   "function_name" : "android::hardware::gnss::V2_1::IGnssAntennaInfo::registerForNotifications",
   "linker_set_key" : "_ZN7android8hardware4gnss4V2_116IGnssAntennaInfo24registerForNotificationsERKNSt3__112basic_stringIcNS4_11char_traitsIcEENS4_9allocatorIcEEEERKNS_2spINS_4hidl7manager4V1_020IServiceNotificationEEE",
   "parameters" :
   [
    {
     "referenced_type" : "_ZTIRKNSt3__112basic_stringIcNS_11char_traitsIcEENS_9allocatorIcEEEE"
    },
    {
     "referenced_type" : "_ZTIRKN7android2spINS_4hidl7manager4V1_020IServiceNotificationEEE"
    }
   ],
   "return_type" : "_ZTIb",
   "source_file" : "/out/soong/.intermediates/hardware/interfaces/gnss/2.1/android.hardware.gnss@2.1_genc++_headers/gen/android/hardware/gnss/2.1/IGnssAntennaInfo.h"
  },
  {
   "function_name" : "android::hardware::gnss::V2_1::IGnssAntennaInfo::ping",
   "linker_set_key" : "_ZN7android8hardware4gnss4V2_116IGnssAntennaInfo4pingEv",
   "parameters" :
   [
    {
     "is_this_ptr" : true,
     "referenced_type" : "_ZTIPN7android8hardware4gnss4V2_116IGnssAntennaInfoE"
    }
   ],
   "return_type" : "_ZTIN7android8hardware6ReturnIvEE",
   "source_file" : "/out/soong/.intermediates/hardware/interfaces/gnss/2.1/android.hardware.gnss@2.1_genc++_headers/gen/android/hardware/gnss/2.1/IGnssAntennaInfo.h"
  },
  {
   "function_name" : "android::hardware::gnss::V2_1::IGnssAntennaInfo::debug",
   "linker_set_key" : "_ZN7android8hardware4gnss4V2_116IGnssAntennaInfo5debugERKNS0_11hidl_handleERKNS0_8hidl_vecINS0_11hidl_stringEEE",
   "parameters" :
   [
    {
     "is_this_ptr" : true,
     "referenced_type" : "_ZTIPN7android8hardware4gnss4V2_116IGnssAntennaInfoE"
    },
    {
     "referenced_type" : "_ZTIRKN7android8hardware11hidl_handleE"
    },
    {
     "referenced_type" : "_ZTIRKN7android8hardware8hidl_vecINS0_11hidl_stringEEE"
    }
   ],
   "return_type" : "_ZTIN7android8hardware6ReturnIvEE",
   "source_file" : "/out/soong/.intermediates/hardware/interfaces/gnss/2.1/android.hardware.gnss@2.1_genc++_headers/gen/android/hardware/gnss/2.1/IGnssAntennaInfo.h"
  },
  {
   "function_name" : "android::hardware::gnss::V2_1::IGnssAntennaInfo::castFrom",
   "linker_set_key" : "_ZN7android8hardware4gnss4V2_116IGnssAntennaInfo8castFromERKNS_2spINS_4hidl4base4V1_05IBaseEEEb",
   "parameters" :
   [
    {
     "referenced_type" : "_ZTIRKN7android2spINS_4hidl4base4V1_05IBaseEEE"
    },
    {
     "default_arg" : true,
     "referenced_type" : "_ZTIb"
    }
   ],
   "return_type" : "_ZTIN7android8hardware6ReturnINS_2spINS0_4gnss4V2_116IGnssAntennaInfoEEEEE",
   "source_file" : "/out/soong/.intermediates/hardware/interfaces/gnss/2.1/android.hardware.gnss@2.1_genc++_headers/gen/android/hardware/gnss/2.1/IGnssAntennaInfo.h"
  },
  {
   "function_name" : "android::hardware::gnss::V2_1::IGnssAntennaInfo::castFrom",
   "linker_set_key" : "_ZN7android8hardware4gnss4V2_116IGnssAntennaInfo8castFromERKNS_2spIS3_EEb",
   "parameters" :
   [
    {
     "referenced_type" : "_ZTIRKN7android2spINS_8hardware4gnss4V2_116IGnssAntennaInfoEEE"
    },
    {
     "default_arg" : true,
     "referenced_type" : "_ZTIb"
    }
   ],
   "return_type" : "_ZTIN7android8hardware6ReturnINS_2spINS0_4gnss4V2_116IGnssAntennaInfoEEEEE",
   "source_file" : "/out/soong/.intermediates/hardware/interfaces/gnss/2.1/android.hardware.gnss@2.1_genc++_headers/gen/android/hardware/gnss/2.1/IGnssAntennaInfo.h"
  },
  {
   "function_name" : "android::hardware::gnss::V2_1::IGnssMeasurement::getService",
   "linker_set_key" : "_ZN7android8hardware4gnss4V2_116IGnssMeasurement10getServiceERKNSt3__112basic_stringIcNS4_11char_traitsIcEENS4_9allocatorIcEEEEb",
   "parameters" :
   [
    {
     "default_arg" : true,
     "referenced_type" : "_ZTIRKNSt3__112basic_stringIcNS_11char_traitsIcEENS_9allocatorIcEEEE"
    },
    {
     "default_arg" : true,
     "referenced_type" : "_ZTIb"
    }
   ],
   "return_type" : "_ZTIN7android2spINS_8hardware4gnss4V2_116IGnssMeasurementEEE",
   "source_file" : "/out/soong/.intermediates/hardware/interfaces/gnss/2.1/android.hardware.gnss@2.1_genc++_headers/gen/android/hardware/gnss/2.1/IGnssMeasurement.h"
  },
  {
   "function_name" : "android::hardware::gnss::V2_1::IGnssMeasurement::linkToDeath",
   "linker_set_key" : "_ZN7android8hardware4gnss4V2_116IGnssMeasurement11linkToDeathERKNS_2spINS0_20hidl_death_recipientEEEm",
   "parameters" :
   [
    {
     "is_this_ptr" : true,
     "referenced_type" : "_ZTIPN7android8hardware4gnss4V2_116IGnssMeasurementE"
    },
    {
     "referenced_type" : "_ZTIRKN7android2spINS_8hardware20hidl_death_recipientEEE"
    },
    {
     "referenced_type" : "_ZTIm"
    }
   ],
   "return_type" : "_ZTIN7android8hardware6ReturnIbEE",
   "source_file" : "/out/soong/.intermediates/hardware/interfaces/gnss/2.1/android.hardware.gnss@2.1_genc++_headers/gen/android/hardware/gnss/2.1/IGnssMeasurement.h"
  },
  {
   "function_name" : "android::hardware::gnss::V2_1::IGnssMeasurement::getDebugInfo",
   "linker_set_key" : "_ZN7android8hardware4gnss4V2_116IGnssMeasurement12getDebugInfoENSt3__18functionIFvRKNS_4hidl4base4V1_09DebugInfoEEEE",
   "parameters" :
   [
    {
     "is_this_ptr" : true,
     "referenced_type" : "_ZTIPN7android8hardware4gnss4V2_116IGnssMeasurementE"
    },
    {
     "referenced_type" : "_ZTINSt3__18functionIFvRKN7android4hidl4base4V1_09DebugInfoEEEE"
    }
   ],
   "return_type" : "_ZTIN7android8hardware6ReturnIvEE",
   "source_file" : "/out/soong/.intermediates/hardware/interfaces/gnss/2.1/android.hardware.gnss@2.1_genc++_headers/gen/android/hardware/gnss/2.1/IGnssMeasurement.h"
  },
  {
   "function_name" : "android::hardware::gnss::V2_1::IGnssMeasurement::getHashChain",
   "linker_set_key" : "_ZN7android8hardware4gnss4V2_116IGnssMeasurement12getHashChainENSt3__18functionIFvRKNS0_8hidl_vecINS0_10hidl_arrayIhLm32EJEEEEEEEE",
   "parameters" :
   [
    {
     "is_this_ptr" : true,
     "referenced_type" : "_ZTIPN7android8hardware4gnss4V2_116IGnssMeasurementE"
    },
    {
     "referenced_type" : "_ZTINSt3__18functionIFvRKN7android8hardware8hidl_vecINS2_10hidl_arrayIhLm32EJEEEEEEEE"
    }
   ],
   "return_type" : "_ZTIN7android8hardware6ReturnIvEE",
   "source_file" : "/out/soong/.intermediates/hardware/interfaces/gnss/2.1/android.hardware.gnss@2.1_genc++_headers/gen/android/hardware/gnss/2.1/IGnssMeasurement.h"
  },
  {
   "function_name" : "android::hardware::gnss::V2_1::IGnssMeasurement::tryGetService",
   "linker_set_key" : "_ZN7android8hardware4gnss4V2_116IGnssMeasurement13tryGetServiceERKNSt3__112basic_stringIcNS4_11char_traitsIcEENS4_9allocatorIcEEEEb",
   "parameters" :
   [
    {
     "default_arg" : true,
     "referenced_type" : "_ZTIRKNSt3__112basic_stringIcNS_11char_traitsIcEENS_9allocatorIcEEEE"
    },
    {
     "default_arg" : true,
     "referenced_type" : "_ZTIb"
    }
   ],
   "return_type" : "_ZTIN7android2spINS_8hardware4gnss4V2_116IGnssMeasurementEEE",
   "source_file" : "/out/soong/.intermediates/hardware/interfaces/gnss/2.1/android.hardware.gnss@2.1_genc++_headers/gen/android/hardware/gnss/2.1/IGnssMeasurement.h"
  },
  {
   "function_name" : "android::hardware::gnss::V2_1::IGnssMeasurement::unlinkToDeath",
   "linker_set_key" : "_ZN7android8hardware4gnss4V2_116IGnssMeasurement13unlinkToDeathERKNS_2spINS0_20hidl_death_recipientEEE",
   "parameters" :
   [
    {
     "is_this_ptr" : true,
     "referenced_type" : "_ZTIPN7android8hardware4gnss4V2_116IGnssMeasurementE"
    },
    {
     "referenced_type" : "_ZTIRKN7android2spINS_8hardware20hidl_death_recipientEEE"
    }
   ],
   "return_type" : "_ZTIN7android8hardware6ReturnIbEE",
   "source_file" : "/out/soong/.intermediates/hardware/interfaces/gnss/2.1/android.hardware.gnss@2.1_genc++_headers/gen/android/hardware/gnss/2.1/IGnssMeasurement.h"
  },
  {
   "function_name" : "android::hardware::gnss::V2_1::IGnssMeasurement::interfaceChain",
   "linker_set_key" : "_ZN7android8hardware4gnss4V2_116IGnssMeasurement14interfaceChainENSt3__18functionIFvRKNS0_8hidl_vecINS0_11hidl_stringEEEEEE",
   "parameters" :
   [
    {
     "is_this_ptr" : true,
     "referenced_type" : "_ZTIPN7android8hardware4gnss4V2_116IGnssMeasurementE"
    },
    {
     "referenced_type" : "_ZTINSt3__18functionIFvRKN7android8hardware8hidl_vecINS2_11hidl_stringEEEEEE"
    }
   ],
   "return_type" : "_ZTIN7android8hardware6ReturnIvEE",
   "source_file" : "/out/soong/.intermediates/hardware/interfaces/gnss/2.1/android.hardware.gnss@2.1_genc++_headers/gen/android/hardware/gnss/2.1/IGnssMeasurement.h"
  },
  {
   "function_name" : "android::hardware::gnss::V2_1::IGnssMeasurement::registerAsService",
   "linker_set_key" : "_ZN7android8hardware4gnss4V2_116IGnssMeasurement17registerAsServiceERKNSt3__112basic_stringIcNS4_11char_traitsIcEENS4_9allocatorIcEEEE",
   "parameters" :
   [
    {
     "is_this_ptr" : true,
     "referenced_type" : "_ZTIPN7android8hardware4gnss4V2_116IGnssMeasurementE"
    },
    {
     "default_arg" : true,
     "referenced_type" : "_ZTIRKNSt3__112basic_stringIcNS_11char_traitsIcEENS_9allocatorIcEEEE"
    }
   ],
   "return_type" : "_ZTIi",
   "source_file" : "/out/soong/.intermediates/hardware/interfaces/gnss/2.1/android.hardware.gnss@2.1_genc++_headers/gen/android/hardware/gnss/2.1/IGnssMeasurement.h"
  },
  {
   "function_name" : "android::hardware::gnss::V2_1::IGnssMeasurement::interfaceDescriptor",
   "linker_set_key" : "_ZN7android8hardware4gnss4V2_116IGnssMeasurement19interfaceDescriptorENSt3__18functionIFvRKNS0_11hidl_stringEEEE",
   "parameters" :
   [
    {
     "is_this_ptr" : true,
     "referenced_type" : "_ZTIPN7android8hardware4gnss4V2_116IGnssMeasurementE"
    },
    {
     "referenced_type" : "_ZTINSt3__18functionIFvRKN7android8hardware11hidl_stringEEEE"
    }
   ],
   "return_type" : "_ZTIN7android8hardware6ReturnIvEE",
   "source_file" : "/out/soong/.intermediates/hardware/interfaces/gnss/2.1/android.hardware.gnss@2.1_genc++_headers/gen/android/hardware/gnss/2.1/IGnssMeasurement.h"
  },
  {
   "function_name" : "android::hardware::gnss::V2_1::IGnssMeasurement::notifySyspropsChanged",
   "linker_set_key" : "_ZN7android8hardware4gnss4V2_116IGnssMeasurement21notifySyspropsChangedEv",
   "parameters" :
   [
    {
     "is_this_ptr" : true,
     "referenced_type" : "_ZTIPN7android8hardware4gnss4V2_116IGnssMeasurementE"
    }
   ],
   "return_type" : "_ZTIN7android8hardware6ReturnIvEE",
   "source_file" : "/out/soong/.intermediates/hardware/interfaces/gnss/2.1/android.hardware.gnss@2.1_genc++_headers/gen/android/hardware/gnss/2.1/IGnssMeasurement.h"
  },
  {
   "function_name" : "android::hardware::gnss::V2_1::IGnssMeasurement::setHALInstrumentation",
   "linker_set_key" : "_ZN7android8hardware4gnss4V2_116IGnssMeasurement21setHALInstrumentationEv",
   "parameters" :
   [
    {
     "is_this_ptr" : true,
     "referenced_type" : "_ZTIPN7android8hardware4gnss4V2_116IGnssMeasurementE"
    }
   ],
   "return_type" : "_ZTIN7android8hardware6ReturnIvEE",
   "source_file" : "/out/soong/.intermediates/hardware/interfaces/gnss/2.1/android.hardware.gnss@2.1_genc++_headers/gen/android/hardware/gnss/2.1/IGnssMeasurement.h"
  },
  {
   "function_name" : "android::hardware::gnss::V2_1::IGnssMeasurement::registerForNotifications",
   "linker_set_key" : "_ZN7android8hardware4gnss4V2_116IGnssMeasurement24registerForNotificationsERKNSt3__112basic_stringIcNS4_11char_traitsIcEENS4_9allocatorIcEEEERKNS_2spINS_4hidl7manager4V1_020IServiceNotificationEEE",
   "parameters" :
   [
    {
     "referenced_type" : "_ZTIRKNSt3__112basic_stringIcNS_11char_traitsIcEENS_9allocatorIcEEEE"
    },
    {
     "referenced_type" : "_ZTIRKN7android2spINS_4hidl7manager4V1_020IServiceNotificationEEE"
    }
   ],
   "return_type" : "_ZTIb",
   "source_file" : "/out/soong/.intermediates/hardware/interfaces/gnss/2.1/android.hardware.gnss@2.1_genc++_headers/gen/android/hardware/gnss/2.1/IGnssMeasurement.h"
  },
  {
   "function_name" : "android::hardware::gnss::V2_1::IGnssMeasurement::ping",
   "linker_set_key" : "_ZN7android8hardware4gnss4V2_116IGnssMeasurement4pingEv",
   "parameters" :
   [
    {
     "is_this_ptr" : true,
     "referenced_type" : "_ZTIPN7android8hardware4gnss4V2_116IGnssMeasurementE"
    }
   ],
   "return_type" : "_ZTIN7android8hardware6ReturnIvEE",
   "source_file" : "/out/soong/.intermediates/hardware/interfaces/gnss/2.1/android.hardware.gnss@2.1_genc++_headers/gen/android/hardware/gnss/2.1/IGnssMeasurement.h"
  },
  {
   "function_name" : "android::hardware::gnss::V2_1::IGnssMeasurement::debug",
   "linker_set_key" : "_ZN7android8hardware4gnss4V2_116IGnssMeasurement5debugERKNS0_11hidl_handleERKNS0_8hidl_vecINS0_11hidl_stringEEE",
   "parameters" :
   [
    {
     "is_this_ptr" : true,
     "referenced_type" : "_ZTIPN7android8hardware4gnss4V2_116IGnssMeasurementE"
    },
    {
     "referenced_type" : "_ZTIRKN7android8hardware11hidl_handleE"
    },
    {
     "referenced_type" : "_ZTIRKN7android8hardware8hidl_vecINS0_11hidl_stringEEE"
    }
   ],
   "return_type" : "_ZTIN7android8hardware6ReturnIvEE",
   "source_file" : "/out/soong/.intermediates/hardware/interfaces/gnss/2.1/android.hardware.gnss@2.1_genc++_headers/gen/android/hardware/gnss/2.1/IGnssMeasurement.h"
  },
  {
   "function_name" : "android::hardware::gnss::V2_1::IGnssMeasurement::castFrom",
   "linker_set_key" : "_ZN7android8hardware4gnss4V2_116IGnssMeasurement8castFromERKNS_2spINS1_4V1_016IGnssMeasurementEEEb",
   "parameters" :
   [
    {
     "referenced_type" : "_ZTIRKN7android2spINS_8hardware4gnss4V1_016IGnssMeasurementEEE"
    },
    {
     "default_arg" : true,
     "referenced_type" : "_ZTIb"
    }
   ],
   "return_type" : "_ZTIN7android8hardware6ReturnINS_2spINS0_4gnss4V2_116IGnssMeasurementEEEEE",
   "source_file" : "/out/soong/.intermediates/hardware/interfaces/gnss/2.1/android.hardware.gnss@2.1_genc++_headers/gen/android/hardware/gnss/2.1/IGnssMeasurement.h"
  },
  {
   "function_name" : "android::hardware::gnss::V2_1::IGnssMeasurement::castFrom",
   "linker_set_key" : "_ZN7android8hardware4gnss4V2_116IGnssMeasurement8castFromERKNS_2spINS1_4V1_116IGnssMeasurementEEEb",
   "parameters" :
   [
    {
     "referenced_type" : "_ZTIRKN7android2spINS_8hardware4gnss4V1_116IGnssMeasurementEEE"
    },
    {
     "default_arg" : true,
     "referenced_type" : "_ZTIb"
    }
   ],
   "return_type" : "_ZTIN7android8hardware6ReturnINS_2spINS0_4gnss4V2_116IGnssMeasurementEEEEE",
   "source_file" : "/out/soong/.intermediates/hardware/interfaces/gnss/2.1/android.hardware.gnss@2.1_genc++_headers/gen/android/hardware/gnss/2.1/IGnssMeasurement.h"
  },
  {
   "function_name" : "android::hardware::gnss::V2_1::IGnssMeasurement::castFrom",
   "linker_set_key" : "_ZN7android8hardware4gnss4V2_116IGnssMeasurement8castFromERKNS_2spINS1_4V2_016IGnssMeasurementEEEb",
   "parameters" :
   [
    {
     "referenced_type" : "_ZTIRKN7android2spINS_8hardware4gnss4V2_016IGnssMeasurementEEE"
    },
    {
     "default_arg" : true,
     "referenced_type" : "_ZTIb"
    }
   ],
   "return_type" : "_ZTIN7android8hardware6ReturnINS_2spINS0_4gnss4V2_116IGnssMeasurementEEEEE",
   "source_file" : "/out/soong/.intermediates/hardware/interfaces/gnss/2.1/android.hardware.gnss@2.1_genc++_headers/gen/android/hardware/gnss/2.1/IGnssMeasurement.h"
  },
  {
   "function_name" : "android::hardware::gnss::V2_1::IGnssMeasurement::castFrom",
   "linker_set_key" : "_ZN7android8hardware4gnss4V2_116IGnssMeasurement8castFromERKNS_2spINS_4hidl4base4V1_05IBaseEEEb",
   "parameters" :
   [
    {
     "referenced_type" : "_ZTIRKN7android2spINS_4hidl4base4V1_05IBaseEEE"
    },
    {
     "default_arg" : true,
     "referenced_type" : "_ZTIb"
    }
   ],
   "return_type" : "_ZTIN7android8hardware6ReturnINS_2spINS0_4gnss4V2_116IGnssMeasurementEEEEE",
   "source_file" : "/out/soong/.intermediates/hardware/interfaces/gnss/2.1/android.hardware.gnss@2.1_genc++_headers/gen/android/hardware/gnss/2.1/IGnssMeasurement.h"
  },
  {
   "function_name" : "android::hardware::gnss::V2_1::IGnssMeasurement::castFrom",
   "linker_set_key" : "_ZN7android8hardware4gnss4V2_116IGnssMeasurement8castFromERKNS_2spIS3_EEb",
   "parameters" :
   [
    {
     "referenced_type" : "_ZTIRKN7android2spINS_8hardware4gnss4V2_116IGnssMeasurementEEE"
    },
    {
     "default_arg" : true,
     "referenced_type" : "_ZTIb"
    }
   ],
   "return_type" : "_ZTIN7android8hardware6ReturnINS_2spINS0_4gnss4V2_116IGnssMeasurementEEEEE",
   "source_file" : "/out/soong/.intermediates/hardware/interfaces/gnss/2.1/android.hardware.gnss@2.1_genc++_headers/gen/android/hardware/gnss/2.1/IGnssMeasurement.h"
  },
  {
   "access" : "private",
   "function_name" : "android::hardware::gnss::V2_1::BsGnssAntennaInfo::addOnewayTask",
   "linker_set_key" : "_ZN7android8hardware4gnss4V2_117BsGnssAntennaInfo13addOnewayTaskENSt3__18functionIFvvEEE",
   "parameters" :
   [
    {
     "is_this_ptr" : true,
     "referenced_type" : "_ZTIPN7android8hardware4gnss4V2_117BsGnssAntennaInfoE"
    },
    {
     "referenced_type" : "_ZTINSt3__18functionIFvvEEE"
    }
   ],
   "return_type" : "_ZTIN7android8hardware6ReturnIvEE",
   "source_file" : "/out/soong/.intermediates/hardware/interfaces/gnss/2.1/android.hardware.gnss@2.1_genc++_headers/gen/android/hardware/gnss/2.1/BsGnssAntennaInfo.h"
  },
  {
   "function_name" : "android::hardware::gnss::V2_1::BsGnssAntennaInfo::BsGnssAntennaInfo",
   "linker_set_key" : "_ZN7android8hardware4gnss4V2_117BsGnssAntennaInfoC1ENS_2spINS2_16IGnssAntennaInfoEEE",
   "parameters" :
   [
    {
     "is_this_ptr" : true,
     "referenced_type" : "_ZTIPN7android8hardware4gnss4V2_117BsGnssAntennaInfoE"
    },
    {
     "referenced_type" : "_ZTIKN7android2spINS_8hardware4gnss4V2_116IGnssAntennaInfoEEE"
    }
   ],
   "return_type" : "_ZTIv",
   "source_file" : "/out/soong/.intermediates/hardware/interfaces/gnss/2.1/android.hardware.gnss@2.1_genc++_headers/gen/android/hardware/gnss/2.1/BsGnssAntennaInfo.h"
  },
  {
   "function_name" : "android::hardware::gnss::V2_1::BsGnssAntennaInfo::BsGnssAntennaInfo",
   "linker_set_key" : "_ZN7android8hardware4gnss4V2_117BsGnssAntennaInfoC2ENS_2spINS2_16IGnssAntennaInfoEEE",
   "parameters" :
   [
    {
     "is_this_ptr" : true,
     "referenced_type" : "_ZTIPN7android8hardware4gnss4V2_117BsGnssAntennaInfoE"
    },
    {
     "referenced_type" : "_ZTIKN7android2spINS_8hardware4gnss4V2_116IGnssAntennaInfoEEE"
    }
   ],
   "return_type" : "_ZTIv",
   "source_file" : "/out/soong/.intermediates/hardware/interfaces/gnss/2.1/android.hardware.gnss@2.1_genc++_headers/gen/android/hardware/gnss/2.1/BsGnssAntennaInfo.h"
  },
  {
   "access" : "private",
   "function_name" : "android::hardware::gnss::V2_1::BsGnssMeasurement::addOnewayTask",
   "linker_set_key" : "_ZN7android8hardware4gnss4V2_117BsGnssMeasurement13addOnewayTaskENSt3__18functionIFvvEEE",
   "parameters" :
   [
    {
     "is_this_ptr" : true,
     "referenced_type" : "_ZTIPN7android8hardware4gnss4V2_117BsGnssMeasurementE"
    },
    {
     "referenced_type" : "_ZTINSt3__18functionIFvvEEE"
    }
   ],
   "return_type" : "_ZTIN7android8hardware6ReturnIvEE",
   "source_file" : "/out/soong/.intermediates/hardware/interfaces/gnss/2.1/android.hardware.gnss@2.1_genc++_headers/gen/android/hardware/gnss/2.1/BsGnssMeasurement.h"
  },
  {
   "function_name" : "android::hardware::gnss::V2_1::BsGnssMeasurement::BsGnssMeasurement",
   "linker_set_key" : "_ZN7android8hardware4gnss4V2_117BsGnssMeasurementC1ENS_2spINS2_16IGnssMeasurementEEE",
   "parameters" :
   [
    {
     "is_this_ptr" : true,
     "referenced_type" : "_ZTIPN7android8hardware4gnss4V2_117BsGnssMeasurementE"
    },
    {
     "referenced_type" : "_ZTIKN7android2spINS_8hardware4gnss4V2_116IGnssMeasurementEEE"
    }
   ],
   "return_type" : "_ZTIv",
   "source_file" : "/out/soong/.intermediates/hardware/interfaces/gnss/2.1/android.hardware.gnss@2.1_genc++_headers/gen/android/hardware/gnss/2.1/BsGnssMeasurement.h"
  },
  {
   "function_name" : "android::hardware::gnss::V2_1::BsGnssMeasurement::BsGnssMeasurement",
   "linker_set_key" : "_ZN7android8hardware4gnss4V2_117BsGnssMeasurementC2ENS_2spINS2_16IGnssMeasurementEEE",
   "parameters" :
   [
    {
     "is_this_ptr" : true,
     "referenced_type" : "_ZTIPN7android8hardware4gnss4V2_117BsGnssMeasurementE"
    },
    {
     "referenced_type" : "_ZTIKN7android2spINS_8hardware4gnss4V2_116IGnssMeasurementEEE"
    }
   ],
   "return_type" : "_ZTIv",
   "source_file" : "/out/soong/.intermediates/hardware/interfaces/gnss/2.1/android.hardware.gnss@2.1_genc++_headers/gen/android/hardware/gnss/2.1/BsGnssMeasurement.h"
  },
  {
   "function_name" : "android::hardware::gnss::V2_1::IGnssConfiguration::getService",
   "linker_set_key" : "_ZN7android8hardware4gnss4V2_118IGnssConfiguration10getServiceERKNSt3__112basic_stringIcNS4_11char_traitsIcEENS4_9allocatorIcEEEEb",
   "parameters" :
   [
    {
     "default_arg" : true,
     "referenced_type" : "_ZTIRKNSt3__112basic_stringIcNS_11char_traitsIcEENS_9allocatorIcEEEE"
    },
    {
     "default_arg" : true,
     "referenced_type" : "_ZTIb"
    }
   ],
   "return_type" : "_ZTIN7android2spINS_8hardware4gnss4V2_118IGnssConfigurationEEE",
   "source_file" : "/out/soong/.intermediates/hardware/interfaces/gnss/2.1/android.hardware.gnss@2.1_genc++_headers/gen/android/hardware/gnss/2.1/IGnssConfiguration.h"
  },
  {
   "function_name" : "android::hardware::gnss::V2_1::IGnssConfiguration::linkToDeath",
   "linker_set_key" : "_ZN7android8hardware4gnss4V2_118IGnssConfiguration11linkToDeathERKNS_2spINS0_20hidl_death_recipientEEEm",
   "parameters" :
   [
    {
     "is_this_ptr" : true,
     "referenced_type" : "_ZTIPN7android8hardware4gnss4V2_118IGnssConfigurationE"
    },
    {
     "referenced_type" : "_ZTIRKN7android2spINS_8hardware20hidl_death_recipientEEE"
    },
    {
     "referenced_type" : "_ZTIm"
    }
   ],
   "return_type" : "_ZTIN7android8hardware6ReturnIbEE",
   "source_file" : "/out/soong/.intermediates/hardware/interfaces/gnss/2.1/android.hardware.gnss@2.1_genc++_headers/gen/android/hardware/gnss/2.1/IGnssConfiguration.h"
  },
  {
   "function_name" : "android::hardware::gnss::V2_1::IGnssConfiguration::getDebugInfo",
   "linker_set_key" : "_ZN7android8hardware4gnss4V2_118IGnssConfiguration12getDebugInfoENSt3__18functionIFvRKNS_4hidl4base4V1_09DebugInfoEEEE",
   "parameters" :
   [
    {
     "is_this_ptr" : true,
     "referenced_type" : "_ZTIPN7android8hardware4gnss4V2_118IGnssConfigurationE"
    },
    {
     "referenced_type" : "_ZTINSt3__18functionIFvRKN7android4hidl4base4V1_09DebugInfoEEEE"
    }
   ],
   "return_type" : "_ZTIN7android8hardware6ReturnIvEE",
   "source_file" : "/out/soong/.intermediates/hardware/interfaces/gnss/2.1/android.hardware.gnss@2.1_genc++_headers/gen/android/hardware/gnss/2.1/IGnssConfiguration.h"
  },
  {
   "function_name" : "android::hardware::gnss::V2_1::IGnssConfiguration::getHashChain",
   "linker_set_key" : "_ZN7android8hardware4gnss4V2_118IGnssConfiguration12getHashChainENSt3__18functionIFvRKNS0_8hidl_vecINS0_10hidl_arrayIhLm32EJEEEEEEEE",
   "parameters" :
   [
    {
     "is_this_ptr" : true,
     "referenced_type" : "_ZTIPN7android8hardware4gnss4V2_118IGnssConfigurationE"
    },
    {
     "referenced_type" : "_ZTINSt3__18functionIFvRKN7android8hardware8hidl_vecINS2_10hidl_arrayIhLm32EJEEEEEEEE"
    }
   ],
   "return_type" : "_ZTIN7android8hardware6ReturnIvEE",
   "source_file" : "/out/soong/.intermediates/hardware/interfaces/gnss/2.1/android.hardware.gnss@2.1_genc++_headers/gen/android/hardware/gnss/2.1/IGnssConfiguration.h"
  },
  {
   "function_name" : "android::hardware::gnss::V2_1::IGnssConfiguration::tryGetService",
   "linker_set_key" : "_ZN7android8hardware4gnss4V2_118IGnssConfiguration13tryGetServiceERKNSt3__112basic_stringIcNS4_11char_traitsIcEENS4_9allocatorIcEEEEb",
   "parameters" :
   [
    {
     "default_arg" : true,
     "referenced_type" : "_ZTIRKNSt3__112basic_stringIcNS_11char_traitsIcEENS_9allocatorIcEEEE"
    },
    {
     "default_arg" : true,
     "referenced_type" : "_ZTIb"
    }
   ],
   "return_type" : "_ZTIN7android2spINS_8hardware4gnss4V2_118IGnssConfigurationEEE",
   "source_file" : "/out/soong/.intermediates/hardware/interfaces/gnss/2.1/android.hardware.gnss@2.1_genc++_headers/gen/android/hardware/gnss/2.1/IGnssConfiguration.h"
  },
  {
   "function_name" : "android::hardware::gnss::V2_1::IGnssConfiguration::unlinkToDeath",
   "linker_set_key" : "_ZN7android8hardware4gnss4V2_118IGnssConfiguration13unlinkToDeathERKNS_2spINS0_20hidl_death_recipientEEE",
   "parameters" :
   [
    {
     "is_this_ptr" : true,
     "referenced_type" : "_ZTIPN7android8hardware4gnss4V2_118IGnssConfigurationE"
    },
    {
     "referenced_type" : "_ZTIRKN7android2spINS_8hardware20hidl_death_recipientEEE"
    }
   ],
   "return_type" : "_ZTIN7android8hardware6ReturnIbEE",
   "source_file" : "/out/soong/.intermediates/hardware/interfaces/gnss/2.1/android.hardware.gnss@2.1_genc++_headers/gen/android/hardware/gnss/2.1/IGnssConfiguration.h"
  },
  {
   "function_name" : "android::hardware::gnss::V2_1::IGnssConfiguration::interfaceChain",
   "linker_set_key" : "_ZN7android8hardware4gnss4V2_118IGnssConfiguration14interfaceChainENSt3__18functionIFvRKNS0_8hidl_vecINS0_11hidl_stringEEEEEE",
   "parameters" :
   [
    {
     "is_this_ptr" : true,
     "referenced_type" : "_ZTIPN7android8hardware4gnss4V2_118IGnssConfigurationE"
    },
    {
     "referenced_type" : "_ZTINSt3__18functionIFvRKN7android8hardware8hidl_vecINS2_11hidl_stringEEEEEE"
    }
   ],
   "return_type" : "_ZTIN7android8hardware6ReturnIvEE",
   "source_file" : "/out/soong/.intermediates/hardware/interfaces/gnss/2.1/android.hardware.gnss@2.1_genc++_headers/gen/android/hardware/gnss/2.1/IGnssConfiguration.h"
  },
  {
   "function_name" : "android::hardware::gnss::V2_1::IGnssConfiguration::registerAsService",
   "linker_set_key" : "_ZN7android8hardware4gnss4V2_118IGnssConfiguration17registerAsServiceERKNSt3__112basic_stringIcNS4_11char_traitsIcEENS4_9allocatorIcEEEE",
   "parameters" :
   [
    {
     "is_this_ptr" : true,
     "referenced_type" : "_ZTIPN7android8hardware4gnss4V2_118IGnssConfigurationE"
    },
    {
     "default_arg" : true,
     "referenced_type" : "_ZTIRKNSt3__112basic_stringIcNS_11char_traitsIcEENS_9allocatorIcEEEE"
    }
   ],
   "return_type" : "_ZTIi",
   "source_file" : "/out/soong/.intermediates/hardware/interfaces/gnss/2.1/android.hardware.gnss@2.1_genc++_headers/gen/android/hardware/gnss/2.1/IGnssConfiguration.h"
  },
  {
   "function_name" : "android::hardware::gnss::V2_1::IGnssConfiguration::interfaceDescriptor",
   "linker_set_key" : "_ZN7android8hardware4gnss4V2_118IGnssConfiguration19interfaceDescriptorENSt3__18functionIFvRKNS0_11hidl_stringEEEE",
   "parameters" :
   [
    {
     "is_this_ptr" : true,
     "referenced_type" : "_ZTIPN7android8hardware4gnss4V2_118IGnssConfigurationE"
    },
    {
     "referenced_type" : "_ZTINSt3__18functionIFvRKN7android8hardware11hidl_stringEEEE"
    }
   ],
   "return_type" : "_ZTIN7android8hardware6ReturnIvEE",
   "source_file" : "/out/soong/.intermediates/hardware/interfaces/gnss/2.1/android.hardware.gnss@2.1_genc++_headers/gen/android/hardware/gnss/2.1/IGnssConfiguration.h"
  },
  {
   "function_name" : "android::hardware::gnss::V2_1::IGnssConfiguration::notifySyspropsChanged",
   "linker_set_key" : "_ZN7android8hardware4gnss4V2_118IGnssConfiguration21notifySyspropsChangedEv",
   "parameters" :
   [
    {
     "is_this_ptr" : true,
     "referenced_type" : "_ZTIPN7android8hardware4gnss4V2_118IGnssConfigurationE"
    }
   ],
   "return_type" : "_ZTIN7android8hardware6ReturnIvEE",
   "source_file" : "/out/soong/.intermediates/hardware/interfaces/gnss/2.1/android.hardware.gnss@2.1_genc++_headers/gen/android/hardware/gnss/2.1/IGnssConfiguration.h"
  },
  {
   "function_name" : "android::hardware::gnss::V2_1::IGnssConfiguration::setHALInstrumentation",
   "linker_set_key" : "_ZN7android8hardware4gnss4V2_118IGnssConfiguration21setHALInstrumentationEv",
   "parameters" :
   [
    {
     "is_this_ptr" : true,
     "referenced_type" : "_ZTIPN7android8hardware4gnss4V2_118IGnssConfigurationE"
    }
   ],
   "return_type" : "_ZTIN7android8hardware6ReturnIvEE",
   "source_file" : "/out/soong/.intermediates/hardware/interfaces/gnss/2.1/android.hardware.gnss@2.1_genc++_headers/gen/android/hardware/gnss/2.1/IGnssConfiguration.h"
  },
  {
   "function_name" : "android::hardware::gnss::V2_1::IGnssConfiguration::registerForNotifications",
   "linker_set_key" : "_ZN7android8hardware4gnss4V2_118IGnssConfiguration24registerForNotificationsERKNSt3__112basic_stringIcNS4_11char_traitsIcEENS4_9allocatorIcEEEERKNS_2spINS_4hidl7manager4V1_020IServiceNotificationEEE",
   "parameters" :
   [
    {
     "referenced_type" : "_ZTIRKNSt3__112basic_stringIcNS_11char_traitsIcEENS_9allocatorIcEEEE"
    },
    {
     "referenced_type" : "_ZTIRKN7android2spINS_4hidl7manager4V1_020IServiceNotificationEEE"
    }
   ],
   "return_type" : "_ZTIb",
   "source_file" : "/out/soong/.intermediates/hardware/interfaces/gnss/2.1/android.hardware.gnss@2.1_genc++_headers/gen/android/hardware/gnss/2.1/IGnssConfiguration.h"
  },
  {
   "function_name" : "android::hardware::gnss::V2_1::IGnssConfiguration::ping",
   "linker_set_key" : "_ZN7android8hardware4gnss4V2_118IGnssConfiguration4pingEv",
   "parameters" :
   [
    {
     "is_this_ptr" : true,
     "referenced_type" : "_ZTIPN7android8hardware4gnss4V2_118IGnssConfigurationE"
    }
   ],
   "return_type" : "_ZTIN7android8hardware6ReturnIvEE",
   "source_file" : "/out/soong/.intermediates/hardware/interfaces/gnss/2.1/android.hardware.gnss@2.1_genc++_headers/gen/android/hardware/gnss/2.1/IGnssConfiguration.h"
  },
  {
   "function_name" : "android::hardware::gnss::V2_1::IGnssConfiguration::debug",
   "linker_set_key" : "_ZN7android8hardware4gnss4V2_118IGnssConfiguration5debugERKNS0_11hidl_handleERKNS0_8hidl_vecINS0_11hidl_stringEEE",
   "parameters" :
   [
    {
     "is_this_ptr" : true,
     "referenced_type" : "_ZTIPN7android8hardware4gnss4V2_118IGnssConfigurationE"
    },
    {
     "referenced_type" : "_ZTIRKN7android8hardware11hidl_handleE"
    },
    {
     "referenced_type" : "_ZTIRKN7android8hardware8hidl_vecINS0_11hidl_stringEEE"
    }
   ],
   "return_type" : "_ZTIN7android8hardware6ReturnIvEE",
   "source_file" : "/out/soong/.intermediates/hardware/interfaces/gnss/2.1/android.hardware.gnss@2.1_genc++_headers/gen/android/hardware/gnss/2.1/IGnssConfiguration.h"
  },
  {
   "function_name" : "android::hardware::gnss::V2_1::IGnssConfiguration::castFrom",
   "linker_set_key" : "_ZN7android8hardware4gnss4V2_118IGnssConfiguration8castFromERKNS_2spINS1_4V1_018IGnssConfigurationEEEb",
   "parameters" :
   [
    {
     "referenced_type" : "_ZTIRKN7android2spINS_8hardware4gnss4V1_018IGnssConfigurationEEE"
    },
    {
     "default_arg" : true,
     "referenced_type" : "_ZTIb"
    }
   ],
   "return_type" : "_ZTIN7android8hardware6ReturnINS_2spINS0_4gnss4V2_118IGnssConfigurationEEEEE",
   "source_file" : "/out/soong/.intermediates/hardware/interfaces/gnss/2.1/android.hardware.gnss@2.1_genc++_headers/gen/android/hardware/gnss/2.1/IGnssConfiguration.h"
  },
  {
   "function_name" : "android::hardware::gnss::V2_1::IGnssConfiguration::castFrom",
   "linker_set_key" : "_ZN7android8hardware4gnss4V2_118IGnssConfiguration8castFromERKNS_2spINS1_4V1_118IGnssConfigurationEEEb",
   "parameters" :
   [
    {
     "referenced_type" : "_ZTIRKN7android2spINS_8hardware4gnss4V1_118IGnssConfigurationEEE"
    },
    {
     "default_arg" : true,
     "referenced_type" : "_ZTIb"
    }
   ],
   "return_type" : "_ZTIN7android8hardware6ReturnINS_2spINS0_4gnss4V2_118IGnssConfigurationEEEEE",
   "source_file" : "/out/soong/.intermediates/hardware/interfaces/gnss/2.1/android.hardware.gnss@2.1_genc++_headers/gen/android/hardware/gnss/2.1/IGnssConfiguration.h"
  },
  {
   "function_name" : "android::hardware::gnss::V2_1::IGnssConfiguration::castFrom",
   "linker_set_key" : "_ZN7android8hardware4gnss4V2_118IGnssConfiguration8castFromERKNS_2spINS1_4V2_018IGnssConfigurationEEEb",
   "parameters" :
   [
    {
     "referenced_type" : "_ZTIRKN7android2spINS_8hardware4gnss4V2_018IGnssConfigurationEEE"
    },
    {
     "default_arg" : true,
     "referenced_type" : "_ZTIb"
    }
   ],
   "return_type" : "_ZTIN7android8hardware6ReturnINS_2spINS0_4gnss4V2_118IGnssConfigurationEEEEE",
   "source_file" : "/out/soong/.intermediates/hardware/interfaces/gnss/2.1/android.hardware.gnss@2.1_genc++_headers/gen/android/hardware/gnss/2.1/IGnssConfiguration.h"
  },
  {
   "function_name" : "android::hardware::gnss::V2_1::IGnssConfiguration::castFrom",
   "linker_set_key" : "_ZN7android8hardware4gnss4V2_118IGnssConfiguration8castFromERKNS_2spINS_4hidl4base4V1_05IBaseEEEb",
   "parameters" :
   [
    {
     "referenced_type" : "_ZTIRKN7android2spINS_4hidl4base4V1_05IBaseEEE"
    },
    {
     "default_arg" : true,
     "referenced_type" : "_ZTIb"
    }
   ],
   "return_type" : "_ZTIN7android8hardware6ReturnINS_2spINS0_4gnss4V2_118IGnssConfigurationEEEEE",
   "source_file" : "/out/soong/.intermediates/hardware/interfaces/gnss/2.1/android.hardware.gnss@2.1_genc++_headers/gen/android/hardware/gnss/2.1/IGnssConfiguration.h"
  },
  {
   "function_name" : "android::hardware::gnss::V2_1::IGnssConfiguration::castFrom",
   "linker_set_key" : "_ZN7android8hardware4gnss4V2_118IGnssConfiguration8castFromERKNS_2spIS3_EEb",
   "parameters" :
   [
    {
     "referenced_type" : "_ZTIRKN7android2spINS_8hardware4gnss4V2_118IGnssConfigurationEEE"
    },
    {
     "default_arg" : true,
     "referenced_type" : "_ZTIb"
    }
   ],
   "return_type" : "_ZTIN7android8hardware6ReturnINS_2spINS0_4gnss4V2_118IGnssConfigurationEEEEE",
   "source_file" : "/out/soong/.intermediates/hardware/interfaces/gnss/2.1/android.hardware.gnss@2.1_genc++_headers/gen/android/hardware/gnss/2.1/IGnssConfiguration.h"
  },
  {
   "function_name" : "android::hardware::gnss::V2_1::BnHwGnssAntennaInfo::onTransact",
   "linker_set_key" : "_ZN7android8hardware4gnss4V2_119BnHwGnssAntennaInfo10onTransactEjRKNS0_6ParcelEPS4_jNSt3__18functionIFvRS4_EEE",
   "parameters" :
   [
    {
     "is_this_ptr" : true,
     "referenced_type" : "_ZTIPN7android8hardware4gnss4V2_119BnHwGnssAntennaInfoE"
    },
    {
     "referenced_type" : "_ZTIj"
    },
    {
     "referenced_type" : "_ZTIRKN7android8hardware6ParcelE"
    },
    {
     "referenced_type" : "_ZTIPN7android8hardware6ParcelE"
    },
    {
     "default_arg" : true,
     "referenced_type" : "_ZTIj"
    },
    {
     "default_arg" : true,
     "referenced_type" : "_ZTINSt3__18functionIFvRN7android8hardware6ParcelEEEE"
    }
   ],
   "return_type" : "_ZTIi",
   "source_file" : "/out/soong/.intermediates/hardware/interfaces/gnss/2.1/android.hardware.gnss@2.1_genc++_headers/gen/android/hardware/gnss/2.1/BnHwGnssAntennaInfo.h"
  },
  {
   "function_name" : "android::hardware::gnss::V2_1::BnHwGnssAntennaInfo::_hidl_close",
   "linker_set_key" : "_ZN7android8hardware4gnss4V2_119BnHwGnssAntennaInfo11_hidl_closeEPNS_4hidl4base4V1_08BnHwBaseERKNS0_6ParcelEPS9_NSt3__18functionIFvRS9_EEE",
   "parameters" :
   [
    {
     "referenced_type" : "_ZTIPN7android4hidl4base4V1_08BnHwBaseE"
    },
    {
     "referenced_type" : "_ZTIRKN7android8hardware6ParcelE"
    },
    {
     "referenced_type" : "_ZTIPN7android8hardware6ParcelE"
    },
    {
     "referenced_type" : "_ZTINSt3__18functionIFvRN7android8hardware6ParcelEEEE"
    }
   ],
   "return_type" : "_ZTIi",
   "source_file" : "/out/soong/.intermediates/hardware/interfaces/gnss/2.1/android.hardware.gnss@2.1_genc++_headers/gen/android/hardware/gnss/2.1/BnHwGnssAntennaInfo.h"
  },
  {
   "access" : "private",
   "function_name" : "android::hardware::gnss::V2_1::BnHwGnssAntennaInfo::getDebugInfo",
   "linker_set_key" : "_ZN7android8hardware4gnss4V2_119BnHwGnssAntennaInfo12getDebugInfoENSt3__18functionIFvRKNS_4hidl4base4V1_09DebugInfoEEEE",
   "parameters" :
   [
    {
     "is_this_ptr" : true,
     "referenced_type" : "_ZTIPN7android8hardware4gnss4V2_119BnHwGnssAntennaInfoE"
    },
    {
     "referenced_type" : "_ZTINSt3__18functionIFvRKN7android4hidl4base4V1_09DebugInfoEEEE"
    }
   ],
   "return_type" : "_ZTIN7android8hardware6ReturnIvEE",
   "source_file" : "/out/soong/.intermediates/hardware/interfaces/gnss/2.1/android.hardware.gnss@2.1_genc++_headers/gen/android/hardware/gnss/2.1/BnHwGnssAntennaInfo.h"
  },
  {
   "function_name" : "android::hardware::gnss::V2_1::BnHwGnssAntennaInfo::_hidl_setCallback",
   "linker_set_key" : "_ZN7android8hardware4gnss4V2_119BnHwGnssAntennaInfo17_hidl_setCallbackEPNS_4hidl4base4V1_08BnHwBaseERKNS0_6ParcelEPS9_NSt3__18functionIFvRS9_EEE",
   "parameters" :
   [
    {
     "referenced_type" : "_ZTIPN7android4hidl4base4V1_08BnHwBaseE"
    },
    {
     "referenced_type" : "_ZTIRKN7android8hardware6ParcelE"
    },
    {
     "referenced_type" : "_ZTIPN7android8hardware6ParcelE"
    },
    {
     "referenced_type" : "_ZTINSt3__18functionIFvRN7android8hardware6ParcelEEEE"
    }
   ],
   "return_type" : "_ZTIi",
   "source_file" : "/out/soong/.intermediates/hardware/interfaces/gnss/2.1/android.hardware.gnss@2.1_genc++_headers/gen/android/hardware/gnss/2.1/BnHwGnssAntennaInfo.h"
  },
  {
   "access" : "private",
   "function_name" : "android::hardware::gnss::V2_1::BnHwGnssAntennaInfo::ping",
   "linker_set_key" : "_ZN7android8hardware4gnss4V2_119BnHwGnssAntennaInfo4pingEv",
   "parameters" :
   [
    {
     "is_this_ptr" : true,
     "referenced_type" : "_ZTIPN7android8hardware4gnss4V2_119BnHwGnssAntennaInfoE"
    }
   ],
   "return_type" : "_ZTIN7android8hardware6ReturnIvEE",
   "source_file" : "/out/soong/.intermediates/hardware/interfaces/gnss/2.1/android.hardware.gnss@2.1_genc++_headers/gen/android/hardware/gnss/2.1/BnHwGnssAntennaInfo.h"
  },
  {
   "function_name" : "android::hardware::gnss::V2_1::BnHwGnssAntennaInfo::BnHwGnssAntennaInfo",
   "linker_set_key" : "_ZN7android8hardware4gnss4V2_119BnHwGnssAntennaInfoC1ERKNS_2spINS2_16IGnssAntennaInfoEEE",
   "parameters" :
   [
    {
     "is_this_ptr" : true,
     "referenced_type" : "_ZTIPN7android8hardware4gnss4V2_119BnHwGnssAntennaInfoE"
    },
    {
     "referenced_type" : "_ZTIRKN7android2spINS_8hardware4gnss4V2_116IGnssAntennaInfoEEE"
    }
   ],
   "return_type" : "_ZTIv",
   "source_file" : "/out/soong/.intermediates/hardware/interfaces/gnss/2.1/android.hardware.gnss@2.1_genc++_headers/gen/android/hardware/gnss/2.1/BnHwGnssAntennaInfo.h"
  },
  {
   "function_name" : "android::hardware::gnss::V2_1::BnHwGnssAntennaInfo::BnHwGnssAntennaInfo",
   "linker_set_key" : "_ZN7android8hardware4gnss4V2_119BnHwGnssAntennaInfoC2ERKNS_2spINS2_16IGnssAntennaInfoEEE",
   "parameters" :
   [
    {
     "is_this_ptr" : true,
     "referenced_type" : "_ZTIPN7android8hardware4gnss4V2_119BnHwGnssAntennaInfoE"
    },
    {
     "referenced_type" : "_ZTIRKN7android2spINS_8hardware4gnss4V2_116IGnssAntennaInfoEEE"
    }
   ],
   "return_type" : "_ZTIv",
   "source_file" : "/out/soong/.intermediates/hardware/interfaces/gnss/2.1/android.hardware.gnss@2.1_genc++_headers/gen/android/hardware/gnss/2.1/BnHwGnssAntennaInfo.h"
  },
  {
   "function_name" : "android::hardware::gnss::V2_1::BnHwGnssAntennaInfo::~BnHwGnssAntennaInfo",
   "linker_set_key" : "_ZN7android8hardware4gnss4V2_119BnHwGnssAntennaInfoD0Ev",
   "parameters" :
   [
    {
     "is_this_ptr" : true,
     "referenced_type" : "_ZTIPN7android8hardware4gnss4V2_119BnHwGnssAntennaInfoE"
    }
   ],
   "return_type" : "_ZTIv",
   "source_file" : "/out/soong/.intermediates/hardware/interfaces/gnss/2.1/android.hardware.gnss@2.1_genc++_headers/gen/android/hardware/gnss/2.1/BnHwGnssAntennaInfo.h"
  },
  {
   "function_name" : "android::hardware::gnss::V2_1::BnHwGnssAntennaInfo::~BnHwGnssAntennaInfo",
   "linker_set_key" : "_ZN7android8hardware4gnss4V2_119BnHwGnssAntennaInfoD1Ev",
   "parameters" :
   [
    {
     "is_this_ptr" : true,
     "referenced_type" : "_ZTIPN7android8hardware4gnss4V2_119BnHwGnssAntennaInfoE"
    }
   ],
   "return_type" : "_ZTIv",
   "source_file" : "/out/soong/.intermediates/hardware/interfaces/gnss/2.1/android.hardware.gnss@2.1_genc++_headers/gen/android/hardware/gnss/2.1/BnHwGnssAntennaInfo.h"
  },
  {
   "function_name" : "android::hardware::gnss::V2_1::BnHwGnssAntennaInfo::~BnHwGnssAntennaInfo",
   "linker_set_key" : "_ZN7android8hardware4gnss4V2_119BnHwGnssAntennaInfoD2Ev",
   "parameters" :
   [
    {
     "is_this_ptr" : true,
     "referenced_type" : "_ZTIPN7android8hardware4gnss4V2_119BnHwGnssAntennaInfoE"
    }
   ],
   "return_type" : "_ZTIv",
   "source_file" : "/out/soong/.intermediates/hardware/interfaces/gnss/2.1/android.hardware.gnss@2.1_genc++_headers/gen/android/hardware/gnss/2.1/BnHwGnssAntennaInfo.h"
  },
  {
   "function_name" : "android::hardware::gnss::V2_1::BnHwGnssMeasurement::onTransact",
   "linker_set_key" : "_ZN7android8hardware4gnss4V2_119BnHwGnssMeasurement10onTransactEjRKNS0_6ParcelEPS4_jNSt3__18functionIFvRS4_EEE",
   "parameters" :
   [
    {
     "is_this_ptr" : true,
     "referenced_type" : "_ZTIPN7android8hardware4gnss4V2_119BnHwGnssMeasurementE"
    },
    {
     "referenced_type" : "_ZTIj"
    },
    {
     "referenced_type" : "_ZTIRKN7android8hardware6ParcelE"
    },
    {
     "referenced_type" : "_ZTIPN7android8hardware6ParcelE"
    },
    {
     "default_arg" : true,
     "referenced_type" : "_ZTIj"
    },
    {
     "default_arg" : true,
     "referenced_type" : "_ZTINSt3__18functionIFvRN7android8hardware6ParcelEEEE"
    }
   ],
   "return_type" : "_ZTIi",
   "source_file" : "/out/soong/.intermediates/hardware/interfaces/gnss/2.1/android.hardware.gnss@2.1_genc++_headers/gen/android/hardware/gnss/2.1/BnHwGnssMeasurement.h"
  },
  {
   "access" : "private",
   "function_name" : "android::hardware::gnss::V2_1::BnHwGnssMeasurement::getDebugInfo",
   "linker_set_key" : "_ZN7android8hardware4gnss4V2_119BnHwGnssMeasurement12getDebugInfoENSt3__18functionIFvRKNS_4hidl4base4V1_09DebugInfoEEEE",
   "parameters" :
   [
    {
     "is_this_ptr" : true,
     "referenced_type" : "_ZTIPN7android8hardware4gnss4V2_119BnHwGnssMeasurementE"
    },
    {
     "referenced_type" : "_ZTINSt3__18functionIFvRKN7android4hidl4base4V1_09DebugInfoEEEE"
    }
   ],
   "return_type" : "_ZTIN7android8hardware6ReturnIvEE",
   "source_file" : "/out/soong/.intermediates/hardware/interfaces/gnss/2.1/android.hardware.gnss@2.1_genc++_headers/gen/android/hardware/gnss/2.1/BnHwGnssMeasurement.h"
  },
  {
   "function_name" : "android::hardware::gnss::V2_1::BnHwGnssMeasurement::_hidl_setCallback_2_1",
   "linker_set_key" : "_ZN7android8hardware4gnss4V2_119BnHwGnssMeasurement21_hidl_setCallback_2_1EPNS_4hidl4base4V1_08BnHwBaseERKNS0_6ParcelEPS9_NSt3__18functionIFvRS9_EEE",
   "parameters" :
   [
    {
     "referenced_type" : "_ZTIPN7android4hidl4base4V1_08BnHwBaseE"
    },
    {
     "referenced_type" : "_ZTIRKN7android8hardware6ParcelE"
    },
    {
     "referenced_type" : "_ZTIPN7android8hardware6ParcelE"
    },
    {
     "referenced_type" : "_ZTINSt3__18functionIFvRN7android8hardware6ParcelEEEE"
    }
   ],
   "return_type" : "_ZTIi",
   "source_file" : "/out/soong/.intermediates/hardware/interfaces/gnss/2.1/android.hardware.gnss@2.1_genc++_headers/gen/android/hardware/gnss/2.1/BnHwGnssMeasurement.h"
  },
  {
   "access" : "private",
   "function_name" : "android::hardware::gnss::V2_1::BnHwGnssMeasurement::ping",
   "linker_set_key" : "_ZN7android8hardware4gnss4V2_119BnHwGnssMeasurement4pingEv",
   "parameters" :
   [
    {
     "is_this_ptr" : true,
     "referenced_type" : "_ZTIPN7android8hardware4gnss4V2_119BnHwGnssMeasurementE"
    }
   ],
   "return_type" : "_ZTIN7android8hardware6ReturnIvEE",
   "source_file" : "/out/soong/.intermediates/hardware/interfaces/gnss/2.1/android.hardware.gnss@2.1_genc++_headers/gen/android/hardware/gnss/2.1/BnHwGnssMeasurement.h"
  },
  {
   "function_name" : "android::hardware::gnss::V2_1::BnHwGnssMeasurement::BnHwGnssMeasurement",
   "linker_set_key" : "_ZN7android8hardware4gnss4V2_119BnHwGnssMeasurementC1ERKNS_2spINS2_16IGnssMeasurementEEE",
   "parameters" :
   [
    {
     "is_this_ptr" : true,
     "referenced_type" : "_ZTIPN7android8hardware4gnss4V2_119BnHwGnssMeasurementE"
    },
    {
     "referenced_type" : "_ZTIRKN7android2spINS_8hardware4gnss4V2_116IGnssMeasurementEEE"
    }
   ],
   "return_type" : "_ZTIv",
   "source_file" : "/out/soong/.intermediates/hardware/interfaces/gnss/2.1/android.hardware.gnss@2.1_genc++_headers/gen/android/hardware/gnss/2.1/BnHwGnssMeasurement.h"
  },
  {
   "function_name" : "android::hardware::gnss::V2_1::BnHwGnssMeasurement::BnHwGnssMeasurement",
   "linker_set_key" : "_ZN7android8hardware4gnss4V2_119BnHwGnssMeasurementC2ERKNS_2spINS2_16IGnssMeasurementEEE",
   "parameters" :
   [
    {
     "is_this_ptr" : true,
     "referenced_type" : "_ZTIPN7android8hardware4gnss4V2_119BnHwGnssMeasurementE"
    },
    {
     "referenced_type" : "_ZTIRKN7android2spINS_8hardware4gnss4V2_116IGnssMeasurementEEE"
    }
   ],
   "return_type" : "_ZTIv",
   "source_file" : "/out/soong/.intermediates/hardware/interfaces/gnss/2.1/android.hardware.gnss@2.1_genc++_headers/gen/android/hardware/gnss/2.1/BnHwGnssMeasurement.h"
  },
  {
   "function_name" : "android::hardware::gnss::V2_1::BnHwGnssMeasurement::~BnHwGnssMeasurement",
   "linker_set_key" : "_ZN7android8hardware4gnss4V2_119BnHwGnssMeasurementD0Ev",
   "parameters" :
   [
    {
     "is_this_ptr" : true,
     "referenced_type" : "_ZTIPN7android8hardware4gnss4V2_119BnHwGnssMeasurementE"
    }
   ],
   "return_type" : "_ZTIv",
   "source_file" : "/out/soong/.intermediates/hardware/interfaces/gnss/2.1/android.hardware.gnss@2.1_genc++_headers/gen/android/hardware/gnss/2.1/BnHwGnssMeasurement.h"
  },
  {
   "function_name" : "android::hardware::gnss::V2_1::BnHwGnssMeasurement::~BnHwGnssMeasurement",
   "linker_set_key" : "_ZN7android8hardware4gnss4V2_119BnHwGnssMeasurementD1Ev",
   "parameters" :
   [
    {
     "is_this_ptr" : true,
     "referenced_type" : "_ZTIPN7android8hardware4gnss4V2_119BnHwGnssMeasurementE"
    }
   ],
   "return_type" : "_ZTIv",
   "source_file" : "/out/soong/.intermediates/hardware/interfaces/gnss/2.1/android.hardware.gnss@2.1_genc++_headers/gen/android/hardware/gnss/2.1/BnHwGnssMeasurement.h"
  },
  {
   "function_name" : "android::hardware::gnss::V2_1::BnHwGnssMeasurement::~BnHwGnssMeasurement",
   "linker_set_key" : "_ZN7android8hardware4gnss4V2_119BnHwGnssMeasurementD2Ev",
   "parameters" :
   [
    {
     "is_this_ptr" : true,
     "referenced_type" : "_ZTIPN7android8hardware4gnss4V2_119BnHwGnssMeasurementE"
    }
   ],
   "return_type" : "_ZTIv",
   "source_file" : "/out/soong/.intermediates/hardware/interfaces/gnss/2.1/android.hardware.gnss@2.1_genc++_headers/gen/android/hardware/gnss/2.1/BnHwGnssMeasurement.h"
  },
  {
   "function_name" : "android::hardware::gnss::V2_1::BpHwGnssAntennaInfo::_hidl_close",
   "linker_set_key" : "_ZN7android8hardware4gnss4V2_119BpHwGnssAntennaInfo11_hidl_closeEPNS0_10IInterfaceEPNS0_7details16HidlInstrumentorE",
   "parameters" :
   [
    {
     "referenced_type" : "_ZTIPN7android8hardware10IInterfaceE"
    },
    {
     "referenced_type" : "_ZTIPN7android8hardware7details16HidlInstrumentorE"
    }
   ],
   "return_type" : "_ZTIN7android8hardware6ReturnIvEE",
   "source_file" : "/out/soong/.intermediates/hardware/interfaces/gnss/2.1/android.hardware.gnss@2.1_genc++_headers/gen/android/hardware/gnss/2.1/BpHwGnssAntennaInfo.h"
  },
  {
   "function_name" : "android::hardware::gnss::V2_1::BpHwGnssAntennaInfo::linkToDeath",
   "linker_set_key" : "_ZN7android8hardware4gnss4V2_119BpHwGnssAntennaInfo11linkToDeathERKNS_2spINS0_20hidl_death_recipientEEEm",
   "parameters" :
   [
    {
     "is_this_ptr" : true,
     "referenced_type" : "_ZTIPN7android8hardware4gnss4V2_119BpHwGnssAntennaInfoE"
    },
    {
     "referenced_type" : "_ZTIRKN7android2spINS_8hardware20hidl_death_recipientEEE"
    },
    {
     "referenced_type" : "_ZTIm"
    }
   ],
   "return_type" : "_ZTIN7android8hardware6ReturnIbEE",
   "source_file" : "/out/soong/.intermediates/hardware/interfaces/gnss/2.1/android.hardware.gnss@2.1_genc++_headers/gen/android/hardware/gnss/2.1/BpHwGnssAntennaInfo.h"
  },
  {
   "function_name" : "android::hardware::gnss::V2_1::BpHwGnssAntennaInfo::setCallback",
   "linker_set_key" : "_ZN7android8hardware4gnss4V2_119BpHwGnssAntennaInfo11setCallbackERKNS_2spINS2_24IGnssAntennaInfoCallbackEEE",
   "parameters" :
   [
    {
     "is_this_ptr" : true,
     "referenced_type" : "_ZTIPN7android8hardware4gnss4V2_119BpHwGnssAntennaInfoE"
    },
    {
     "referenced_type" : "_ZTIRKN7android2spINS_8hardware4gnss4V2_124IGnssAntennaInfoCallbackEEE"
    }
   ],
   "return_type" : "_ZTIN7android8hardware6ReturnINS0_4gnss4V2_116IGnssAntennaInfo21GnssAntennaInfoStatusEEE",
   "source_file" : "/out/soong/.intermediates/hardware/interfaces/gnss/2.1/android.hardware.gnss@2.1_genc++_headers/gen/android/hardware/gnss/2.1/BpHwGnssAntennaInfo.h"
  },
  {
   "function_name" : "android::hardware::gnss::V2_1::BpHwGnssAntennaInfo::getDebugInfo",
   "linker_set_key" : "_ZN7android8hardware4gnss4V2_119BpHwGnssAntennaInfo12getDebugInfoENSt3__18functionIFvRKNS_4hidl4base4V1_09DebugInfoEEEE",
   "parameters" :
   [
    {
     "is_this_ptr" : true,
     "referenced_type" : "_ZTIPN7android8hardware4gnss4V2_119BpHwGnssAntennaInfoE"
    },
    {
     "referenced_type" : "_ZTINSt3__18functionIFvRKN7android4hidl4base4V1_09DebugInfoEEEE"
    }
   ],
   "return_type" : "_ZTIN7android8hardware6ReturnIvEE",
   "source_file" : "/out/soong/.intermediates/hardware/interfaces/gnss/2.1/android.hardware.gnss@2.1_genc++_headers/gen/android/hardware/gnss/2.1/BpHwGnssAntennaInfo.h"
  },
  {
   "function_name" : "android::hardware::gnss::V2_1::BpHwGnssAntennaInfo::getHashChain",
   "linker_set_key" : "_ZN7android8hardware4gnss4V2_119BpHwGnssAntennaInfo12getHashChainENSt3__18functionIFvRKNS0_8hidl_vecINS0_10hidl_arrayIhLm32EJEEEEEEEE",
   "parameters" :
   [
    {
     "is_this_ptr" : true,
     "referenced_type" : "_ZTIPN7android8hardware4gnss4V2_119BpHwGnssAntennaInfoE"
    },
    {
     "referenced_type" : "_ZTINSt3__18functionIFvRKN7android8hardware8hidl_vecINS2_10hidl_arrayIhLm32EJEEEEEEEE"
    }
   ],
   "return_type" : "_ZTIN7android8hardware6ReturnIvEE",
   "source_file" : "/out/soong/.intermediates/hardware/interfaces/gnss/2.1/android.hardware.gnss@2.1_genc++_headers/gen/android/hardware/gnss/2.1/BpHwGnssAntennaInfo.h"
  },
  {
   "function_name" : "android::hardware::gnss::V2_1::BpHwGnssAntennaInfo::unlinkToDeath",
   "linker_set_key" : "_ZN7android8hardware4gnss4V2_119BpHwGnssAntennaInfo13unlinkToDeathERKNS_2spINS0_20hidl_death_recipientEEE",
   "parameters" :
   [
    {
     "is_this_ptr" : true,
     "referenced_type" : "_ZTIPN7android8hardware4gnss4V2_119BpHwGnssAntennaInfoE"
    },
    {
     "referenced_type" : "_ZTIRKN7android2spINS_8hardware20hidl_death_recipientEEE"
    }
   ],
   "return_type" : "_ZTIN7android8hardware6ReturnIbEE",
   "source_file" : "/out/soong/.intermediates/hardware/interfaces/gnss/2.1/android.hardware.gnss@2.1_genc++_headers/gen/android/hardware/gnss/2.1/BpHwGnssAntennaInfo.h"
  },
  {
   "function_name" : "android::hardware::gnss::V2_1::BpHwGnssAntennaInfo::interfaceChain",
   "linker_set_key" : "_ZN7android8hardware4gnss4V2_119BpHwGnssAntennaInfo14interfaceChainENSt3__18functionIFvRKNS0_8hidl_vecINS0_11hidl_stringEEEEEE",
   "parameters" :
   [
    {
     "is_this_ptr" : true,
     "referenced_type" : "_ZTIPN7android8hardware4gnss4V2_119BpHwGnssAntennaInfoE"
    },
    {
     "referenced_type" : "_ZTINSt3__18functionIFvRKN7android8hardware8hidl_vecINS2_11hidl_stringEEEEEE"
    }
   ],
   "return_type" : "_ZTIN7android8hardware6ReturnIvEE",
   "source_file" : "/out/soong/.intermediates/hardware/interfaces/gnss/2.1/android.hardware.gnss@2.1_genc++_headers/gen/android/hardware/gnss/2.1/BpHwGnssAntennaInfo.h"
  },
  {
   "function_name" : "android::hardware::gnss::V2_1::BpHwGnssAntennaInfo::onLastStrongRef",
   "linker_set_key" : "_ZN7android8hardware4gnss4V2_119BpHwGnssAntennaInfo15onLastStrongRefEPKv",
   "parameters" :
   [
    {
     "is_this_ptr" : true,
     "referenced_type" : "_ZTIPN7android8hardware4gnss4V2_119BpHwGnssAntennaInfoE"
    },
    {
     "referenced_type" : "_ZTIPKv"
    }
   ],
   "return_type" : "_ZTIv",
   "source_file" : "/out/soong/.intermediates/hardware/interfaces/gnss/2.1/android.hardware.gnss@2.1_genc++_headers/gen/android/hardware/gnss/2.1/BpHwGnssAntennaInfo.h"
  },
  {
   "function_name" : "android::hardware::gnss::V2_1::BpHwGnssAntennaInfo::_hidl_setCallback",
   "linker_set_key" : "_ZN7android8hardware4gnss4V2_119BpHwGnssAntennaInfo17_hidl_setCallbackEPNS0_10IInterfaceEPNS0_7details16HidlInstrumentorERKNS_2spINS2_24IGnssAntennaInfoCallbackEEE",
   "parameters" :
   [
    {
     "referenced_type" : "_ZTIPN7android8hardware10IInterfaceE"
    },
    {
     "referenced_type" : "_ZTIPN7android8hardware7details16HidlInstrumentorE"
    },
    {
     "referenced_type" : "_ZTIRKN7android2spINS_8hardware4gnss4V2_124IGnssAntennaInfoCallbackEEE"
    }
   ],
   "return_type" : "_ZTIN7android8hardware6ReturnINS0_4gnss4V2_116IGnssAntennaInfo21GnssAntennaInfoStatusEEE",
   "source_file" : "/out/soong/.intermediates/hardware/interfaces/gnss/2.1/android.hardware.gnss@2.1_genc++_headers/gen/android/hardware/gnss/2.1/BpHwGnssAntennaInfo.h"
  },
  {
   "function_name" : "android::hardware::gnss::V2_1::BpHwGnssAntennaInfo::interfaceDescriptor",
   "linker_set_key" : "_ZN7android8hardware4gnss4V2_119BpHwGnssAntennaInfo19interfaceDescriptorENSt3__18functionIFvRKNS0_11hidl_stringEEEE",
   "parameters" :
   [
    {
     "is_this_ptr" : true,
     "referenced_type" : "_ZTIPN7android8hardware4gnss4V2_119BpHwGnssAntennaInfoE"
    },
    {
     "referenced_type" : "_ZTINSt3__18functionIFvRKN7android8hardware11hidl_stringEEEE"
    }
   ],
   "return_type" : "_ZTIN7android8hardware6ReturnIvEE",
   "source_file" : "/out/soong/.intermediates/hardware/interfaces/gnss/2.1/android.hardware.gnss@2.1_genc++_headers/gen/android/hardware/gnss/2.1/BpHwGnssAntennaInfo.h"
  },
  {
   "function_name" : "android::hardware::gnss::V2_1::BpHwGnssAntennaInfo::notifySyspropsChanged",
   "linker_set_key" : "_ZN7android8hardware4gnss4V2_119BpHwGnssAntennaInfo21notifySyspropsChangedEv",
   "parameters" :
   [
    {
     "is_this_ptr" : true,
     "referenced_type" : "_ZTIPN7android8hardware4gnss4V2_119BpHwGnssAntennaInfoE"
    }
   ],
   "return_type" : "_ZTIN7android8hardware6ReturnIvEE",
   "source_file" : "/out/soong/.intermediates/hardware/interfaces/gnss/2.1/android.hardware.gnss@2.1_genc++_headers/gen/android/hardware/gnss/2.1/BpHwGnssAntennaInfo.h"
  },
  {
   "function_name" : "android::hardware::gnss::V2_1::BpHwGnssAntennaInfo::setHALInstrumentation",
   "linker_set_key" : "_ZN7android8hardware4gnss4V2_119BpHwGnssAntennaInfo21setHALInstrumentationEv",
   "parameters" :
   [
    {
     "is_this_ptr" : true,
     "referenced_type" : "_ZTIPN7android8hardware4gnss4V2_119BpHwGnssAntennaInfoE"
    }
   ],
   "return_type" : "_ZTIN7android8hardware6ReturnIvEE",
   "source_file" : "/out/soong/.intermediates/hardware/interfaces/gnss/2.1/android.hardware.gnss@2.1_genc++_headers/gen/android/hardware/gnss/2.1/BpHwGnssAntennaInfo.h"
  },
  {
   "function_name" : "android::hardware::gnss::V2_1::BpHwGnssAntennaInfo::ping",
   "linker_set_key" : "_ZN7android8hardware4gnss4V2_119BpHwGnssAntennaInfo4pingEv",
   "parameters" :
   [
    {
     "is_this_ptr" : true,
     "referenced_type" : "_ZTIPN7android8hardware4gnss4V2_119BpHwGnssAntennaInfoE"
    }
   ],
   "return_type" : "_ZTIN7android8hardware6ReturnIvEE",
   "source_file" : "/out/soong/.intermediates/hardware/interfaces/gnss/2.1/android.hardware.gnss@2.1_genc++_headers/gen/android/hardware/gnss/2.1/BpHwGnssAntennaInfo.h"
  },
  {
   "function_name" : "android::hardware::gnss::V2_1::BpHwGnssAntennaInfo::close",
   "linker_set_key" : "_ZN7android8hardware4gnss4V2_119BpHwGnssAntennaInfo5closeEv",
   "parameters" :
   [
    {
     "is_this_ptr" : true,
     "referenced_type" : "_ZTIPN7android8hardware4gnss4V2_119BpHwGnssAntennaInfoE"
    }
   ],
   "return_type" : "_ZTIN7android8hardware6ReturnIvEE",
   "source_file" : "/out/soong/.intermediates/hardware/interfaces/gnss/2.1/android.hardware.gnss@2.1_genc++_headers/gen/android/hardware/gnss/2.1/BpHwGnssAntennaInfo.h"
  },
  {
   "function_name" : "android::hardware::gnss::V2_1::BpHwGnssAntennaInfo::debug",
   "linker_set_key" : "_ZN7android8hardware4gnss4V2_119BpHwGnssAntennaInfo5debugERKNS0_11hidl_handleERKNS0_8hidl_vecINS0_11hidl_stringEEE",
   "parameters" :
   [
    {
     "is_this_ptr" : true,
     "referenced_type" : "_ZTIPN7android8hardware4gnss4V2_119BpHwGnssAntennaInfoE"
    },
    {
     "referenced_type" : "_ZTIRKN7android8hardware11hidl_handleE"
    },
    {
     "referenced_type" : "_ZTIRKN7android8hardware8hidl_vecINS0_11hidl_stringEEE"
    }
   ],
   "return_type" : "_ZTIN7android8hardware6ReturnIvEE",
   "source_file" : "/out/soong/.intermediates/hardware/interfaces/gnss/2.1/android.hardware.gnss@2.1_genc++_headers/gen/android/hardware/gnss/2.1/BpHwGnssAntennaInfo.h"
  },
  {
   "function_name" : "android::hardware::gnss::V2_1::BpHwGnssAntennaInfo::BpHwGnssAntennaInfo",
   "linker_set_key" : "_ZN7android8hardware4gnss4V2_119BpHwGnssAntennaInfoC1ERKNS_2spINS0_7IBinderEEE",
   "parameters" :
   [
    {
     "is_this_ptr" : true,
     "referenced_type" : "_ZTIPN7android8hardware4gnss4V2_119BpHwGnssAntennaInfoE"
    },
    {
     "referenced_type" : "_ZTIRKN7android2spINS_8hardware7IBinderEEE"
    }
   ],
   "return_type" : "_ZTIv",
   "source_file" : "/out/soong/.intermediates/hardware/interfaces/gnss/2.1/android.hardware.gnss@2.1_genc++_headers/gen/android/hardware/gnss/2.1/BpHwGnssAntennaInfo.h"
  },
  {
   "function_name" : "android::hardware::gnss::V2_1::BpHwGnssAntennaInfo::BpHwGnssAntennaInfo",
   "linker_set_key" : "_ZN7android8hardware4gnss4V2_119BpHwGnssAntennaInfoC2ERKNS_2spINS0_7IBinderEEE",
   "parameters" :
   [
    {
     "is_this_ptr" : true,
     "referenced_type" : "_ZTIPN7android8hardware4gnss4V2_119BpHwGnssAntennaInfoE"
    },
    {
     "referenced_type" : "_ZTIRKN7android2spINS_8hardware7IBinderEEE"
    }
   ],
   "return_type" : "_ZTIv",
   "source_file" : "/out/soong/.intermediates/hardware/interfaces/gnss/2.1/android.hardware.gnss@2.1_genc++_headers/gen/android/hardware/gnss/2.1/BpHwGnssAntennaInfo.h"
  },
  {
   "function_name" : "android::hardware::gnss::V2_1::BpHwGnssMeasurement::linkToDeath",
   "linker_set_key" : "_ZN7android8hardware4gnss4V2_119BpHwGnssMeasurement11linkToDeathERKNS_2spINS0_20hidl_death_recipientEEEm",
   "parameters" :
   [
    {
     "is_this_ptr" : true,
     "referenced_type" : "_ZTIPN7android8hardware4gnss4V2_119BpHwGnssMeasurementE"
    },
    {
     "referenced_type" : "_ZTIRKN7android2spINS_8hardware20hidl_death_recipientEEE"
    },
    {
     "referenced_type" : "_ZTIm"
    }
   ],
   "return_type" : "_ZTIN7android8hardware6ReturnIbEE",
   "source_file" : "/out/soong/.intermediates/hardware/interfaces/gnss/2.1/android.hardware.gnss@2.1_genc++_headers/gen/android/hardware/gnss/2.1/BpHwGnssMeasurement.h"
  },
  {
   "function_name" : "android::hardware::gnss::V2_1::BpHwGnssMeasurement::setCallback",
   "linker_set_key" : "_ZN7android8hardware4gnss4V2_119BpHwGnssMeasurement11setCallbackERKNS_2spINS1_4V1_024IGnssMeasurementCallbackEEE",
   "parameters" :
   [
    {
     "is_this_ptr" : true,
     "referenced_type" : "_ZTIPN7android8hardware4gnss4V2_119BpHwGnssMeasurementE"
    },
    {
     "referenced_type" : "_ZTIRKN7android2spINS_8hardware4gnss4V1_024IGnssMeasurementCallbackEEE"
    }
   ],
   "return_type" : "_ZTIN7android8hardware6ReturnINS0_4gnss4V1_016IGnssMeasurement21GnssMeasurementStatusEEE",
   "source_file" : "/out/soong/.intermediates/hardware/interfaces/gnss/2.1/android.hardware.gnss@2.1_genc++_headers/gen/android/hardware/gnss/2.1/BpHwGnssMeasurement.h"
  },
  {
   "function_name" : "android::hardware::gnss::V2_1::BpHwGnssMeasurement::getDebugInfo",
   "linker_set_key" : "_ZN7android8hardware4gnss4V2_119BpHwGnssMeasurement12getDebugInfoENSt3__18functionIFvRKNS_4hidl4base4V1_09DebugInfoEEEE",
   "parameters" :
   [
    {
     "is_this_ptr" : true,
     "referenced_type" : "_ZTIPN7android8hardware4gnss4V2_119BpHwGnssMeasurementE"
    },
    {
     "referenced_type" : "_ZTINSt3__18functionIFvRKN7android4hidl4base4V1_09DebugInfoEEEE"
    }
   ],
   "return_type" : "_ZTIN7android8hardware6ReturnIvEE",
   "source_file" : "/out/soong/.intermediates/hardware/interfaces/gnss/2.1/android.hardware.gnss@2.1_genc++_headers/gen/android/hardware/gnss/2.1/BpHwGnssMeasurement.h"
  },
  {
   "function_name" : "android::hardware::gnss::V2_1::BpHwGnssMeasurement::getHashChain",
   "linker_set_key" : "_ZN7android8hardware4gnss4V2_119BpHwGnssMeasurement12getHashChainENSt3__18functionIFvRKNS0_8hidl_vecINS0_10hidl_arrayIhLm32EJEEEEEEEE",
   "parameters" :
   [
    {
     "is_this_ptr" : true,
     "referenced_type" : "_ZTIPN7android8hardware4gnss4V2_119BpHwGnssMeasurementE"
    },
    {
     "referenced_type" : "_ZTINSt3__18functionIFvRKN7android8hardware8hidl_vecINS2_10hidl_arrayIhLm32EJEEEEEEEE"
    }
   ],
   "return_type" : "_ZTIN7android8hardware6ReturnIvEE",
   "source_file" : "/out/soong/.intermediates/hardware/interfaces/gnss/2.1/android.hardware.gnss@2.1_genc++_headers/gen/android/hardware/gnss/2.1/BpHwGnssMeasurement.h"
  },
  {
   "function_name" : "android::hardware::gnss::V2_1::BpHwGnssMeasurement::unlinkToDeath",
   "linker_set_key" : "_ZN7android8hardware4gnss4V2_119BpHwGnssMeasurement13unlinkToDeathERKNS_2spINS0_20hidl_death_recipientEEE",
   "parameters" :
   [
    {
     "is_this_ptr" : true,
     "referenced_type" : "_ZTIPN7android8hardware4gnss4V2_119BpHwGnssMeasurementE"
    },
    {
     "referenced_type" : "_ZTIRKN7android2spINS_8hardware20hidl_death_recipientEEE"
    }
   ],
   "return_type" : "_ZTIN7android8hardware6ReturnIbEE",
   "source_file" : "/out/soong/.intermediates/hardware/interfaces/gnss/2.1/android.hardware.gnss@2.1_genc++_headers/gen/android/hardware/gnss/2.1/BpHwGnssMeasurement.h"
  },
  {
   "function_name" : "android::hardware::gnss::V2_1::BpHwGnssMeasurement::interfaceChain",
   "linker_set_key" : "_ZN7android8hardware4gnss4V2_119BpHwGnssMeasurement14interfaceChainENSt3__18functionIFvRKNS0_8hidl_vecINS0_11hidl_stringEEEEEE",
   "parameters" :
   [
    {
     "is_this_ptr" : true,
     "referenced_type" : "_ZTIPN7android8hardware4gnss4V2_119BpHwGnssMeasurementE"
    },
    {
     "referenced_type" : "_ZTINSt3__18functionIFvRKN7android8hardware8hidl_vecINS2_11hidl_stringEEEEEE"
    }
   ],
   "return_type" : "_ZTIN7android8hardware6ReturnIvEE",
   "source_file" : "/out/soong/.intermediates/hardware/interfaces/gnss/2.1/android.hardware.gnss@2.1_genc++_headers/gen/android/hardware/gnss/2.1/BpHwGnssMeasurement.h"
  },
  {
   "function_name" : "android::hardware::gnss::V2_1::BpHwGnssMeasurement::onLastStrongRef",
   "linker_set_key" : "_ZN7android8hardware4gnss4V2_119BpHwGnssMeasurement15onLastStrongRefEPKv",
   "parameters" :
   [
    {
     "is_this_ptr" : true,
     "referenced_type" : "_ZTIPN7android8hardware4gnss4V2_119BpHwGnssMeasurementE"
    },
    {
     "referenced_type" : "_ZTIPKv"
    }
   ],
   "return_type" : "_ZTIv",
   "source_file" : "/out/soong/.intermediates/hardware/interfaces/gnss/2.1/android.hardware.gnss@2.1_genc++_headers/gen/android/hardware/gnss/2.1/BpHwGnssMeasurement.h"
  },
  {
   "function_name" : "android::hardware::gnss::V2_1::BpHwGnssMeasurement::setCallback_1_1",
   "linker_set_key" : "_ZN7android8hardware4gnss4V2_119BpHwGnssMeasurement15setCallback_1_1ERKNS_2spINS1_4V1_124IGnssMeasurementCallbackEEEb",
   "parameters" :
   [
    {
     "is_this_ptr" : true,
     "referenced_type" : "_ZTIPN7android8hardware4gnss4V2_119BpHwGnssMeasurementE"
    },
    {
     "referenced_type" : "_ZTIRKN7android2spINS_8hardware4gnss4V1_124IGnssMeasurementCallbackEEE"
    },
    {
     "referenced_type" : "_ZTIb"
    }
   ],
   "return_type" : "_ZTIN7android8hardware6ReturnINS0_4gnss4V1_016IGnssMeasurement21GnssMeasurementStatusEEE",
   "source_file" : "/out/soong/.intermediates/hardware/interfaces/gnss/2.1/android.hardware.gnss@2.1_genc++_headers/gen/android/hardware/gnss/2.1/BpHwGnssMeasurement.h"
  },
  {
   "function_name" : "android::hardware::gnss::V2_1::BpHwGnssMeasurement::setCallback_2_0",
   "linker_set_key" : "_ZN7android8hardware4gnss4V2_119BpHwGnssMeasurement15setCallback_2_0ERKNS_2spINS1_4V2_024IGnssMeasurementCallbackEEEb",
   "parameters" :
   [
    {
     "is_this_ptr" : true,
     "referenced_type" : "_ZTIPN7android8hardware4gnss4V2_119BpHwGnssMeasurementE"
    },
    {
     "referenced_type" : "_ZTIRKN7android2spINS_8hardware4gnss4V2_024IGnssMeasurementCallbackEEE"
    },
    {
     "referenced_type" : "_ZTIb"
    }
   ],
   "return_type" : "_ZTIN7android8hardware6ReturnINS0_4gnss4V1_016IGnssMeasurement21GnssMeasurementStatusEEE",
   "source_file" : "/out/soong/.intermediates/hardware/interfaces/gnss/2.1/android.hardware.gnss@2.1_genc++_headers/gen/android/hardware/gnss/2.1/BpHwGnssMeasurement.h"
  },
  {
   "function_name" : "android::hardware::gnss::V2_1::BpHwGnssMeasurement::setCallback_2_1",
   "linker_set_key" : "_ZN7android8hardware4gnss4V2_119BpHwGnssMeasurement15setCallback_2_1ERKNS_2spINS2_24IGnssMeasurementCallbackEEEb",
   "parameters" :
   [
    {
     "is_this_ptr" : true,
     "referenced_type" : "_ZTIPN7android8hardware4gnss4V2_119BpHwGnssMeasurementE"
    },
    {
     "referenced_type" : "_ZTIRKN7android2spINS_8hardware4gnss4V2_124IGnssMeasurementCallbackEEE"
    },
    {
     "referenced_type" : "_ZTIb"
    }
   ],
   "return_type" : "_ZTIN7android8hardware6ReturnINS0_4gnss4V1_016IGnssMeasurement21GnssMeasurementStatusEEE",
   "source_file" : "/out/soong/.intermediates/hardware/interfaces/gnss/2.1/android.hardware.gnss@2.1_genc++_headers/gen/android/hardware/gnss/2.1/BpHwGnssMeasurement.h"
  },
  {
   "function_name" : "android::hardware::gnss::V2_1::BpHwGnssMeasurement::interfaceDescriptor",
   "linker_set_key" : "_ZN7android8hardware4gnss4V2_119BpHwGnssMeasurement19interfaceDescriptorENSt3__18functionIFvRKNS0_11hidl_stringEEEE",
   "parameters" :
   [
    {
     "is_this_ptr" : true,
     "referenced_type" : "_ZTIPN7android8hardware4gnss4V2_119BpHwGnssMeasurementE"
    },
    {
     "referenced_type" : "_ZTINSt3__18functionIFvRKN7android8hardware11hidl_stringEEEE"
    }
   ],
   "return_type" : "_ZTIN7android8hardware6ReturnIvEE",
   "source_file" : "/out/soong/.intermediates/hardware/interfaces/gnss/2.1/android.hardware.gnss@2.1_genc++_headers/gen/android/hardware/gnss/2.1/BpHwGnssMeasurement.h"
  },
  {
   "function_name" : "android::hardware::gnss::V2_1::BpHwGnssMeasurement::_hidl_setCallback_2_1",
   "linker_set_key" : "_ZN7android8hardware4gnss4V2_119BpHwGnssMeasurement21_hidl_setCallback_2_1EPNS0_10IInterfaceEPNS0_7details16HidlInstrumentorERKNS_2spINS2_24IGnssMeasurementCallbackEEEb",
   "parameters" :
   [
    {
     "referenced_type" : "_ZTIPN7android8hardware10IInterfaceE"
    },
    {
     "referenced_type" : "_ZTIPN7android8hardware7details16HidlInstrumentorE"
    },
    {
     "referenced_type" : "_ZTIRKN7android2spINS_8hardware4gnss4V2_124IGnssMeasurementCallbackEEE"
    },
    {
     "referenced_type" : "_ZTIb"
    }
   ],
   "return_type" : "_ZTIN7android8hardware6ReturnINS0_4gnss4V1_016IGnssMeasurement21GnssMeasurementStatusEEE",
   "source_file" : "/out/soong/.intermediates/hardware/interfaces/gnss/2.1/android.hardware.gnss@2.1_genc++_headers/gen/android/hardware/gnss/2.1/BpHwGnssMeasurement.h"
  },
  {
   "function_name" : "android::hardware::gnss::V2_1::BpHwGnssMeasurement::notifySyspropsChanged",
   "linker_set_key" : "_ZN7android8hardware4gnss4V2_119BpHwGnssMeasurement21notifySyspropsChangedEv",
   "parameters" :
   [
    {
     "is_this_ptr" : true,
     "referenced_type" : "_ZTIPN7android8hardware4gnss4V2_119BpHwGnssMeasurementE"
    }
   ],
   "return_type" : "_ZTIN7android8hardware6ReturnIvEE",
   "source_file" : "/out/soong/.intermediates/hardware/interfaces/gnss/2.1/android.hardware.gnss@2.1_genc++_headers/gen/android/hardware/gnss/2.1/BpHwGnssMeasurement.h"
  },
  {
   "function_name" : "android::hardware::gnss::V2_1::BpHwGnssMeasurement::setHALInstrumentation",
   "linker_set_key" : "_ZN7android8hardware4gnss4V2_119BpHwGnssMeasurement21setHALInstrumentationEv",
   "parameters" :
   [
    {
     "is_this_ptr" : true,
     "referenced_type" : "_ZTIPN7android8hardware4gnss4V2_119BpHwGnssMeasurementE"
    }
   ],
   "return_type" : "_ZTIN7android8hardware6ReturnIvEE",
   "source_file" : "/out/soong/.intermediates/hardware/interfaces/gnss/2.1/android.hardware.gnss@2.1_genc++_headers/gen/android/hardware/gnss/2.1/BpHwGnssMeasurement.h"
  },
  {
   "function_name" : "android::hardware::gnss::V2_1::BpHwGnssMeasurement::ping",
   "linker_set_key" : "_ZN7android8hardware4gnss4V2_119BpHwGnssMeasurement4pingEv",
   "parameters" :
   [
    {
     "is_this_ptr" : true,
     "referenced_type" : "_ZTIPN7android8hardware4gnss4V2_119BpHwGnssMeasurementE"
    }
   ],
   "return_type" : "_ZTIN7android8hardware6ReturnIvEE",
   "source_file" : "/out/soong/.intermediates/hardware/interfaces/gnss/2.1/android.hardware.gnss@2.1_genc++_headers/gen/android/hardware/gnss/2.1/BpHwGnssMeasurement.h"
  },
  {
   "function_name" : "android::hardware::gnss::V2_1::BpHwGnssMeasurement::close",
   "linker_set_key" : "_ZN7android8hardware4gnss4V2_119BpHwGnssMeasurement5closeEv",
   "parameters" :
   [
    {
     "is_this_ptr" : true,
     "referenced_type" : "_ZTIPN7android8hardware4gnss4V2_119BpHwGnssMeasurementE"
    }
   ],
   "return_type" : "_ZTIN7android8hardware6ReturnIvEE",
   "source_file" : "/out/soong/.intermediates/hardware/interfaces/gnss/2.1/android.hardware.gnss@2.1_genc++_headers/gen/android/hardware/gnss/2.1/BpHwGnssMeasurement.h"
  },
  {
   "function_name" : "android::hardware::gnss::V2_1::BpHwGnssMeasurement::debug",
   "linker_set_key" : "_ZN7android8hardware4gnss4V2_119BpHwGnssMeasurement5debugERKNS0_11hidl_handleERKNS0_8hidl_vecINS0_11hidl_stringEEE",
   "parameters" :
   [
    {
     "is_this_ptr" : true,
     "referenced_type" : "_ZTIPN7android8hardware4gnss4V2_119BpHwGnssMeasurementE"
    },
    {
     "referenced_type" : "_ZTIRKN7android8hardware11hidl_handleE"
    },
    {
     "referenced_type" : "_ZTIRKN7android8hardware8hidl_vecINS0_11hidl_stringEEE"
    }
   ],
   "return_type" : "_ZTIN7android8hardware6ReturnIvEE",
   "source_file" : "/out/soong/.intermediates/hardware/interfaces/gnss/2.1/android.hardware.gnss@2.1_genc++_headers/gen/android/hardware/gnss/2.1/BpHwGnssMeasurement.h"
  },
  {
   "function_name" : "android::hardware::gnss::V2_1::BpHwGnssMeasurement::BpHwGnssMeasurement",
   "linker_set_key" : "_ZN7android8hardware4gnss4V2_119BpHwGnssMeasurementC1ERKNS_2spINS0_7IBinderEEE",
   "parameters" :
   [
    {
     "is_this_ptr" : true,
     "referenced_type" : "_ZTIPN7android8hardware4gnss4V2_119BpHwGnssMeasurementE"
    },
    {
     "referenced_type" : "_ZTIRKN7android2spINS_8hardware7IBinderEEE"
    }
   ],
   "return_type" : "_ZTIv",
   "source_file" : "/out/soong/.intermediates/hardware/interfaces/gnss/2.1/android.hardware.gnss@2.1_genc++_headers/gen/android/hardware/gnss/2.1/BpHwGnssMeasurement.h"
  },
  {
   "function_name" : "android::hardware::gnss::V2_1::BpHwGnssMeasurement::BpHwGnssMeasurement",
   "linker_set_key" : "_ZN7android8hardware4gnss4V2_119BpHwGnssMeasurementC2ERKNS_2spINS0_7IBinderEEE",
   "parameters" :
   [
    {
     "is_this_ptr" : true,
     "referenced_type" : "_ZTIPN7android8hardware4gnss4V2_119BpHwGnssMeasurementE"
    },
    {
     "referenced_type" : "_ZTIRKN7android2spINS_8hardware7IBinderEEE"
    }
   ],
   "return_type" : "_ZTIv",
   "source_file" : "/out/soong/.intermediates/hardware/interfaces/gnss/2.1/android.hardware.gnss@2.1_genc++_headers/gen/android/hardware/gnss/2.1/BpHwGnssMeasurement.h"
  },
  {
   "access" : "private",
   "function_name" : "android::hardware::gnss::V2_1::BsGnssConfiguration::addOnewayTask",
   "linker_set_key" : "_ZN7android8hardware4gnss4V2_119BsGnssConfiguration13addOnewayTaskENSt3__18functionIFvvEEE",
   "parameters" :
   [
    {
     "is_this_ptr" : true,
     "referenced_type" : "_ZTIPN7android8hardware4gnss4V2_119BsGnssConfigurationE"
    },
    {
     "referenced_type" : "_ZTINSt3__18functionIFvvEEE"
    }
   ],
   "return_type" : "_ZTIN7android8hardware6ReturnIvEE",
   "source_file" : "/out/soong/.intermediates/hardware/interfaces/gnss/2.1/android.hardware.gnss@2.1_genc++_headers/gen/android/hardware/gnss/2.1/BsGnssConfiguration.h"
  },
  {
   "function_name" : "android::hardware::gnss::V2_1::BsGnssConfiguration::BsGnssConfiguration",
   "linker_set_key" : "_ZN7android8hardware4gnss4V2_119BsGnssConfigurationC1ENS_2spINS2_18IGnssConfigurationEEE",
   "parameters" :
   [
    {
     "is_this_ptr" : true,
     "referenced_type" : "_ZTIPN7android8hardware4gnss4V2_119BsGnssConfigurationE"
    },
    {
     "referenced_type" : "_ZTIKN7android2spINS_8hardware4gnss4V2_118IGnssConfigurationEEE"
    }
   ],
   "return_type" : "_ZTIv",
   "source_file" : "/out/soong/.intermediates/hardware/interfaces/gnss/2.1/android.hardware.gnss@2.1_genc++_headers/gen/android/hardware/gnss/2.1/BsGnssConfiguration.h"
  },
  {
   "function_name" : "android::hardware::gnss::V2_1::BsGnssConfiguration::BsGnssConfiguration",
   "linker_set_key" : "_ZN7android8hardware4gnss4V2_119BsGnssConfigurationC2ENS_2spINS2_18IGnssConfigurationEEE",
   "parameters" :
   [
    {
     "is_this_ptr" : true,
     "referenced_type" : "_ZTIPN7android8hardware4gnss4V2_119BsGnssConfigurationE"
    },
    {
     "referenced_type" : "_ZTIKN7android2spINS_8hardware4gnss4V2_118IGnssConfigurationEEE"
    }
   ],
   "return_type" : "_ZTIv",
   "source_file" : "/out/soong/.intermediates/hardware/interfaces/gnss/2.1/android.hardware.gnss@2.1_genc++_headers/gen/android/hardware/gnss/2.1/BsGnssConfiguration.h"
  },
  {
   "function_name" : "android::hardware::gnss::V2_1::BnHwGnssConfiguration::onTransact",
   "linker_set_key" : "_ZN7android8hardware4gnss4V2_121BnHwGnssConfiguration10onTransactEjRKNS0_6ParcelEPS4_jNSt3__18functionIFvRS4_EEE",
   "parameters" :
   [
    {
     "is_this_ptr" : true,
     "referenced_type" : "_ZTIPN7android8hardware4gnss4V2_121BnHwGnssConfigurationE"
    },
    {
     "referenced_type" : "_ZTIj"
    },
    {
     "referenced_type" : "_ZTIRKN7android8hardware6ParcelE"
    },
    {
     "referenced_type" : "_ZTIPN7android8hardware6ParcelE"
    },
    {
     "default_arg" : true,
     "referenced_type" : "_ZTIj"
    },
    {
     "default_arg" : true,
     "referenced_type" : "_ZTINSt3__18functionIFvRN7android8hardware6ParcelEEEE"
    }
   ],
   "return_type" : "_ZTIi",
   "source_file" : "/out/soong/.intermediates/hardware/interfaces/gnss/2.1/android.hardware.gnss@2.1_genc++_headers/gen/android/hardware/gnss/2.1/BnHwGnssConfiguration.h"
  },
  {
   "access" : "private",
   "function_name" : "android::hardware::gnss::V2_1::BnHwGnssConfiguration::getDebugInfo",
   "linker_set_key" : "_ZN7android8hardware4gnss4V2_121BnHwGnssConfiguration12getDebugInfoENSt3__18functionIFvRKNS_4hidl4base4V1_09DebugInfoEEEE",
   "parameters" :
   [
    {
     "is_this_ptr" : true,
     "referenced_type" : "_ZTIPN7android8hardware4gnss4V2_121BnHwGnssConfigurationE"
    },
    {
     "referenced_type" : "_ZTINSt3__18functionIFvRKN7android4hidl4base4V1_09DebugInfoEEEE"
    }
   ],
   "return_type" : "_ZTIN7android8hardware6ReturnIvEE",
   "source_file" : "/out/soong/.intermediates/hardware/interfaces/gnss/2.1/android.hardware.gnss@2.1_genc++_headers/gen/android/hardware/gnss/2.1/BnHwGnssConfiguration.h"
  },
  {
   "function_name" : "android::hardware::gnss::V2_1::BnHwGnssConfiguration::_hidl_setBlacklist_2_1",
   "linker_set_key" : "_ZN7android8hardware4gnss4V2_121BnHwGnssConfiguration22_hidl_setBlacklist_2_1EPNS_4hidl4base4V1_08BnHwBaseERKNS0_6ParcelEPS9_NSt3__18functionIFvRS9_EEE",
   "parameters" :
   [
    {
     "referenced_type" : "_ZTIPN7android4hidl4base4V1_08BnHwBaseE"
    },
    {
     "referenced_type" : "_ZTIRKN7android8hardware6ParcelE"
    },
    {
     "referenced_type" : "_ZTIPN7android8hardware6ParcelE"
    },
    {
     "referenced_type" : "_ZTINSt3__18functionIFvRN7android8hardware6ParcelEEEE"
    }
   ],
   "return_type" : "_ZTIi",
   "source_file" : "/out/soong/.intermediates/hardware/interfaces/gnss/2.1/android.hardware.gnss@2.1_genc++_headers/gen/android/hardware/gnss/2.1/BnHwGnssConfiguration.h"
  },
  {
   "access" : "private",
   "function_name" : "android::hardware::gnss::V2_1::BnHwGnssConfiguration::ping",
   "linker_set_key" : "_ZN7android8hardware4gnss4V2_121BnHwGnssConfiguration4pingEv",
   "parameters" :
   [
    {
     "is_this_ptr" : true,
     "referenced_type" : "_ZTIPN7android8hardware4gnss4V2_121BnHwGnssConfigurationE"
    }
   ],
   "return_type" : "_ZTIN7android8hardware6ReturnIvEE",
   "source_file" : "/out/soong/.intermediates/hardware/interfaces/gnss/2.1/android.hardware.gnss@2.1_genc++_headers/gen/android/hardware/gnss/2.1/BnHwGnssConfiguration.h"
  },
  {
   "function_name" : "android::hardware::gnss::V2_1::BnHwGnssConfiguration::BnHwGnssConfiguration",
   "linker_set_key" : "_ZN7android8hardware4gnss4V2_121BnHwGnssConfigurationC1ERKNS_2spINS2_18IGnssConfigurationEEE",
   "parameters" :
   [
    {
     "is_this_ptr" : true,
     "referenced_type" : "_ZTIPN7android8hardware4gnss4V2_121BnHwGnssConfigurationE"
    },
    {
     "referenced_type" : "_ZTIRKN7android2spINS_8hardware4gnss4V2_118IGnssConfigurationEEE"
    }
   ],
   "return_type" : "_ZTIv",
   "source_file" : "/out/soong/.intermediates/hardware/interfaces/gnss/2.1/android.hardware.gnss@2.1_genc++_headers/gen/android/hardware/gnss/2.1/BnHwGnssConfiguration.h"
  },
  {
   "function_name" : "android::hardware::gnss::V2_1::BnHwGnssConfiguration::BnHwGnssConfiguration",
   "linker_set_key" : "_ZN7android8hardware4gnss4V2_121BnHwGnssConfigurationC2ERKNS_2spINS2_18IGnssConfigurationEEE",
   "parameters" :
   [
    {
     "is_this_ptr" : true,
     "referenced_type" : "_ZTIPN7android8hardware4gnss4V2_121BnHwGnssConfigurationE"
    },
    {
     "referenced_type" : "_ZTIRKN7android2spINS_8hardware4gnss4V2_118IGnssConfigurationEEE"
    }
   ],
   "return_type" : "_ZTIv",
   "source_file" : "/out/soong/.intermediates/hardware/interfaces/gnss/2.1/android.hardware.gnss@2.1_genc++_headers/gen/android/hardware/gnss/2.1/BnHwGnssConfiguration.h"
  },
  {
   "function_name" : "android::hardware::gnss::V2_1::BnHwGnssConfiguration::~BnHwGnssConfiguration",
   "linker_set_key" : "_ZN7android8hardware4gnss4V2_121BnHwGnssConfigurationD0Ev",
   "parameters" :
   [
    {
     "is_this_ptr" : true,
     "referenced_type" : "_ZTIPN7android8hardware4gnss4V2_121BnHwGnssConfigurationE"
    }
   ],
   "return_type" : "_ZTIv",
   "source_file" : "/out/soong/.intermediates/hardware/interfaces/gnss/2.1/android.hardware.gnss@2.1_genc++_headers/gen/android/hardware/gnss/2.1/BnHwGnssConfiguration.h"
  },
  {
   "function_name" : "android::hardware::gnss::V2_1::BnHwGnssConfiguration::~BnHwGnssConfiguration",
   "linker_set_key" : "_ZN7android8hardware4gnss4V2_121BnHwGnssConfigurationD1Ev",
   "parameters" :
   [
    {
     "is_this_ptr" : true,
     "referenced_type" : "_ZTIPN7android8hardware4gnss4V2_121BnHwGnssConfigurationE"
    }
   ],
   "return_type" : "_ZTIv",
   "source_file" : "/out/soong/.intermediates/hardware/interfaces/gnss/2.1/android.hardware.gnss@2.1_genc++_headers/gen/android/hardware/gnss/2.1/BnHwGnssConfiguration.h"
  },
  {
   "function_name" : "android::hardware::gnss::V2_1::BnHwGnssConfiguration::~BnHwGnssConfiguration",
   "linker_set_key" : "_ZN7android8hardware4gnss4V2_121BnHwGnssConfigurationD2Ev",
   "parameters" :
   [
    {
     "is_this_ptr" : true,
     "referenced_type" : "_ZTIPN7android8hardware4gnss4V2_121BnHwGnssConfigurationE"
    }
   ],
   "return_type" : "_ZTIv",
   "source_file" : "/out/soong/.intermediates/hardware/interfaces/gnss/2.1/android.hardware.gnss@2.1_genc++_headers/gen/android/hardware/gnss/2.1/BnHwGnssConfiguration.h"
  },
  {
   "function_name" : "android::hardware::gnss::V2_1::BpHwGnssConfiguration::setGpsLock",
   "linker_set_key" : "_ZN7android8hardware4gnss4V2_121BpHwGnssConfiguration10setGpsLockEh",
   "parameters" :
   [
    {
     "is_this_ptr" : true,
     "referenced_type" : "_ZTIPN7android8hardware4gnss4V2_121BpHwGnssConfigurationE"
    },
    {
     "referenced_type" : "_ZTIh"
    }
   ],
   "return_type" : "_ZTIN7android8hardware6ReturnIbEE",
   "source_file" : "/out/soong/.intermediates/hardware/interfaces/gnss/2.1/android.hardware.gnss@2.1_genc++_headers/gen/android/hardware/gnss/2.1/BpHwGnssConfiguration.h"
  },
  {
   "function_name" : "android::hardware::gnss::V2_1::BpHwGnssConfiguration::linkToDeath",
   "linker_set_key" : "_ZN7android8hardware4gnss4V2_121BpHwGnssConfiguration11linkToDeathERKNS_2spINS0_20hidl_death_recipientEEEm",
   "parameters" :
   [
    {
     "is_this_ptr" : true,
     "referenced_type" : "_ZTIPN7android8hardware4gnss4V2_121BpHwGnssConfigurationE"
    },
    {
     "referenced_type" : "_ZTIRKN7android2spINS_8hardware20hidl_death_recipientEEE"
    },
    {
     "referenced_type" : "_ZTIm"
    }
   ],
   "return_type" : "_ZTIN7android8hardware6ReturnIbEE",
   "source_file" : "/out/soong/.intermediates/hardware/interfaces/gnss/2.1/android.hardware.gnss@2.1_genc++_headers/gen/android/hardware/gnss/2.1/BpHwGnssConfiguration.h"
  },
  {
   "function_name" : "android::hardware::gnss::V2_1::BpHwGnssConfiguration::setSuplMode",
   "linker_set_key" : "_ZN7android8hardware4gnss4V2_121BpHwGnssConfiguration11setSuplModeEh",
   "parameters" :
   [
    {
     "is_this_ptr" : true,
     "referenced_type" : "_ZTIPN7android8hardware4gnss4V2_121BpHwGnssConfigurationE"
    },
    {
     "referenced_type" : "_ZTIh"
    }
   ],
   "return_type" : "_ZTIN7android8hardware6ReturnIbEE",
   "source_file" : "/out/soong/.intermediates/hardware/interfaces/gnss/2.1/android.hardware.gnss@2.1_genc++_headers/gen/android/hardware/gnss/2.1/BpHwGnssConfiguration.h"
  },
  {
   "function_name" : "android::hardware::gnss::V2_1::BpHwGnssConfiguration::getDebugInfo",
   "linker_set_key" : "_ZN7android8hardware4gnss4V2_121BpHwGnssConfiguration12getDebugInfoENSt3__18functionIFvRKNS_4hidl4base4V1_09DebugInfoEEEE",
   "parameters" :
   [
    {
     "is_this_ptr" : true,
     "referenced_type" : "_ZTIPN7android8hardware4gnss4V2_121BpHwGnssConfigurationE"
    },
    {
     "referenced_type" : "_ZTINSt3__18functionIFvRKN7android4hidl4base4V1_09DebugInfoEEEE"
    }
   ],
   "return_type" : "_ZTIN7android8hardware6ReturnIvEE",
   "source_file" : "/out/soong/.intermediates/hardware/interfaces/gnss/2.1/android.hardware.gnss@2.1_genc++_headers/gen/android/hardware/gnss/2.1/BpHwGnssConfiguration.h"
  },
  {
   "function_name" : "android::hardware::gnss::V2_1::BpHwGnssConfiguration::getHashChain",
   "linker_set_key" : "_ZN7android8hardware4gnss4V2_121BpHwGnssConfiguration12getHashChainENSt3__18functionIFvRKNS0_8hidl_vecINS0_10hidl_arrayIhLm32EJEEEEEEEE",
   "parameters" :
   [
    {
     "is_this_ptr" : true,
     "referenced_type" : "_ZTIPN7android8hardware4gnss4V2_121BpHwGnssConfigurationE"
    },
    {
     "referenced_type" : "_ZTINSt3__18functionIFvRKN7android8hardware8hidl_vecINS2_10hidl_arrayIhLm32EJEEEEEEEE"
    }
   ],
   "return_type" : "_ZTIN7android8hardware6ReturnIvEE",
   "source_file" : "/out/soong/.intermediates/hardware/interfaces/gnss/2.1/android.hardware.gnss@2.1_genc++_headers/gen/android/hardware/gnss/2.1/BpHwGnssConfiguration.h"
  },
  {
   "function_name" : "android::hardware::gnss::V2_1::BpHwGnssConfiguration::setBlacklist",
   "linker_set_key" : "_ZN7android8hardware4gnss4V2_121BpHwGnssConfiguration12setBlacklistERKNS0_8hidl_vecINS1_4V1_118IGnssConfiguration17BlacklistedSourceEEE",
   "parameters" :
   [
    {
     "is_this_ptr" : true,
     "referenced_type" : "_ZTIPN7android8hardware4gnss4V2_121BpHwGnssConfigurationE"
    },
    {
     "referenced_type" : "_ZTIRKN7android8hardware8hidl_vecINS0_4gnss4V1_118IGnssConfiguration17BlacklistedSourceEEE"
    }
   ],
   "return_type" : "_ZTIN7android8hardware6ReturnIbEE",
   "source_file" : "/out/soong/.intermediates/hardware/interfaces/gnss/2.1/android.hardware.gnss@2.1_genc++_headers/gen/android/hardware/gnss/2.1/BpHwGnssConfiguration.h"
  },
  {
   "function_name" : "android::hardware::gnss::V2_1::BpHwGnssConfiguration::setLppProfile",
   "linker_set_key" : "_ZN7android8hardware4gnss4V2_121BpHwGnssConfiguration13setLppProfileEh",
   "parameters" :
   [
    {
     "is_this_ptr" : true,
     "referenced_type" : "_ZTIPN7android8hardware4gnss4V2_121BpHwGnssConfigurationE"
    },
    {
     "referenced_type" : "_ZTIh"
    }
   ],
   "return_type" : "_ZTIN7android8hardware6ReturnIbEE",
   "source_file" : "/out/soong/.intermediates/hardware/interfaces/gnss/2.1/android.hardware.gnss@2.1_genc++_headers/gen/android/hardware/gnss/2.1/BpHwGnssConfiguration.h"
  },
  {
   "function_name" : "android::hardware::gnss::V2_1::BpHwGnssConfiguration::unlinkToDeath",
   "linker_set_key" : "_ZN7android8hardware4gnss4V2_121BpHwGnssConfiguration13unlinkToDeathERKNS_2spINS0_20hidl_death_recipientEEE",
   "parameters" :
   [
    {
     "is_this_ptr" : true,
     "referenced_type" : "_ZTIPN7android8hardware4gnss4V2_121BpHwGnssConfigurationE"
    },
    {
     "referenced_type" : "_ZTIRKN7android2spINS_8hardware20hidl_death_recipientEEE"
    }
   ],
   "return_type" : "_ZTIN7android8hardware6ReturnIbEE",
   "source_file" : "/out/soong/.intermediates/hardware/interfaces/gnss/2.1/android.hardware.gnss@2.1_genc++_headers/gen/android/hardware/gnss/2.1/BpHwGnssConfiguration.h"
  },
  {
   "function_name" : "android::hardware::gnss::V2_1::BpHwGnssConfiguration::interfaceChain",
   "linker_set_key" : "_ZN7android8hardware4gnss4V2_121BpHwGnssConfiguration14interfaceChainENSt3__18functionIFvRKNS0_8hidl_vecINS0_11hidl_stringEEEEEE",
   "parameters" :
   [
    {
     "is_this_ptr" : true,
     "referenced_type" : "_ZTIPN7android8hardware4gnss4V2_121BpHwGnssConfigurationE"
    },
    {
     "referenced_type" : "_ZTINSt3__18functionIFvRKN7android8hardware8hidl_vecINS2_11hidl_stringEEEEEE"
    }
   ],
   "return_type" : "_ZTIN7android8hardware6ReturnIvEE",
   "source_file" : "/out/soong/.intermediates/hardware/interfaces/gnss/2.1/android.hardware.gnss@2.1_genc++_headers/gen/android/hardware/gnss/2.1/BpHwGnssConfiguration.h"
  },
  {
   "function_name" : "android::hardware::gnss::V2_1::BpHwGnssConfiguration::setSuplVersion",
   "linker_set_key" : "_ZN7android8hardware4gnss4V2_121BpHwGnssConfiguration14setSuplVersionEj",
   "parameters" :
   [
    {
     "is_this_ptr" : true,
     "referenced_type" : "_ZTIPN7android8hardware4gnss4V2_121BpHwGnssConfigurationE"
    },
    {
     "referenced_type" : "_ZTIj"
    }
   ],
   "return_type" : "_ZTIN7android8hardware6ReturnIbEE",
   "source_file" : "/out/soong/.intermediates/hardware/interfaces/gnss/2.1/android.hardware.gnss@2.1_genc++_headers/gen/android/hardware/gnss/2.1/BpHwGnssConfiguration.h"
  },
  {
   "function_name" : "android::hardware::gnss::V2_1::BpHwGnssConfiguration::onLastStrongRef",
   "linker_set_key" : "_ZN7android8hardware4gnss4V2_121BpHwGnssConfiguration15onLastStrongRefEPKv",
   "parameters" :
   [
    {
     "is_this_ptr" : true,
     "referenced_type" : "_ZTIPN7android8hardware4gnss4V2_121BpHwGnssConfigurationE"
    },
    {
     "referenced_type" : "_ZTIPKv"
    }
   ],
   "return_type" : "_ZTIv",
   "source_file" : "/out/soong/.intermediates/hardware/interfaces/gnss/2.1/android.hardware.gnss@2.1_genc++_headers/gen/android/hardware/gnss/2.1/BpHwGnssConfiguration.h"
  },
  {
   "function_name" : "android::hardware::gnss::V2_1::BpHwGnssConfiguration::setBlacklist_2_1",
   "linker_set_key" : "_ZN7android8hardware4gnss4V2_121BpHwGnssConfiguration16setBlacklist_2_1ERKNS0_8hidl_vecINS2_18IGnssConfiguration17BlacklistedSourceEEE",
   "parameters" :
   [
    {
     "is_this_ptr" : true,
     "referenced_type" : "_ZTIPN7android8hardware4gnss4V2_121BpHwGnssConfigurationE"
    },
    {
     "referenced_type" : "_ZTIRKN7android8hardware8hidl_vecINS0_4gnss4V2_118IGnssConfiguration17BlacklistedSourceEEE"
    }
   ],
   "return_type" : "_ZTIN7android8hardware6ReturnIbEE",
   "source_file" : "/out/soong/.intermediates/hardware/interfaces/gnss/2.1/android.hardware.gnss@2.1_genc++_headers/gen/android/hardware/gnss/2.1/BpHwGnssConfiguration.h"
  },
  {
   "function_name" : "android::hardware::gnss::V2_1::BpHwGnssConfiguration::setEsExtensionSec",
   "linker_set_key" : "_ZN7android8hardware4gnss4V2_121BpHwGnssConfiguration17setEsExtensionSecEj",
   "parameters" :
   [
    {
     "is_this_ptr" : true,
     "referenced_type" : "_ZTIPN7android8hardware4gnss4V2_121BpHwGnssConfigurationE"
    },
    {
     "referenced_type" : "_ZTIj"
    }
   ],
   "return_type" : "_ZTIN7android8hardware6ReturnIbEE",
   "source_file" : "/out/soong/.intermediates/hardware/interfaces/gnss/2.1/android.hardware.gnss@2.1_genc++_headers/gen/android/hardware/gnss/2.1/BpHwGnssConfiguration.h"
  },
  {
   "function_name" : "android::hardware::gnss::V2_1::BpHwGnssConfiguration::interfaceDescriptor",
   "linker_set_key" : "_ZN7android8hardware4gnss4V2_121BpHwGnssConfiguration19interfaceDescriptorENSt3__18functionIFvRKNS0_11hidl_stringEEEE",
   "parameters" :
   [
    {
     "is_this_ptr" : true,
     "referenced_type" : "_ZTIPN7android8hardware4gnss4V2_121BpHwGnssConfigurationE"
    },
    {
     "referenced_type" : "_ZTINSt3__18functionIFvRKN7android8hardware11hidl_stringEEEE"
    }
   ],
   "return_type" : "_ZTIN7android8hardware6ReturnIvEE",
   "source_file" : "/out/soong/.intermediates/hardware/interfaces/gnss/2.1/android.hardware.gnss@2.1_genc++_headers/gen/android/hardware/gnss/2.1/BpHwGnssConfiguration.h"
  },
  {
   "function_name" : "android::hardware::gnss::V2_1::BpHwGnssConfiguration::setEmergencySuplPdn",
   "linker_set_key" : "_ZN7android8hardware4gnss4V2_121BpHwGnssConfiguration19setEmergencySuplPdnEb",
   "parameters" :
   [
    {
     "is_this_ptr" : true,
     "referenced_type" : "_ZTIPN7android8hardware4gnss4V2_121BpHwGnssConfigurationE"
    },
    {
     "referenced_type" : "_ZTIb"
    }
   ],
   "return_type" : "_ZTIN7android8hardware6ReturnIbEE",
   "source_file" : "/out/soong/.intermediates/hardware/interfaces/gnss/2.1/android.hardware.gnss@2.1_genc++_headers/gen/android/hardware/gnss/2.1/BpHwGnssConfiguration.h"
  },
  {
   "function_name" : "android::hardware::gnss::V2_1::BpHwGnssConfiguration::notifySyspropsChanged",
   "linker_set_key" : "_ZN7android8hardware4gnss4V2_121BpHwGnssConfiguration21notifySyspropsChangedEv",
   "parameters" :
   [
    {
     "is_this_ptr" : true,
     "referenced_type" : "_ZTIPN7android8hardware4gnss4V2_121BpHwGnssConfigurationE"
    }
   ],
   "return_type" : "_ZTIN7android8hardware6ReturnIvEE",
   "source_file" : "/out/soong/.intermediates/hardware/interfaces/gnss/2.1/android.hardware.gnss@2.1_genc++_headers/gen/android/hardware/gnss/2.1/BpHwGnssConfiguration.h"
  },
  {
   "function_name" : "android::hardware::gnss::V2_1::BpHwGnssConfiguration::setHALInstrumentation",
   "linker_set_key" : "_ZN7android8hardware4gnss4V2_121BpHwGnssConfiguration21setHALInstrumentationEv",
   "parameters" :
   [
    {
     "is_this_ptr" : true,
     "referenced_type" : "_ZTIPN7android8hardware4gnss4V2_121BpHwGnssConfigurationE"
    }
   ],
   "return_type" : "_ZTIN7android8hardware6ReturnIvEE",
   "source_file" : "/out/soong/.intermediates/hardware/interfaces/gnss/2.1/android.hardware.gnss@2.1_genc++_headers/gen/android/hardware/gnss/2.1/BpHwGnssConfiguration.h"
  },
  {
   "function_name" : "android::hardware::gnss::V2_1::BpHwGnssConfiguration::_hidl_setBlacklist_2_1",
   "linker_set_key" : "_ZN7android8hardware4gnss4V2_121BpHwGnssConfiguration22_hidl_setBlacklist_2_1EPNS0_10IInterfaceEPNS0_7details16HidlInstrumentorERKNS0_8hidl_vecINS2_18IGnssConfiguration17BlacklistedSourceEEE",
   "parameters" :
   [
    {
     "referenced_type" : "_ZTIPN7android8hardware10IInterfaceE"
    },
    {
     "referenced_type" : "_ZTIPN7android8hardware7details16HidlInstrumentorE"
    },
    {
     "referenced_type" : "_ZTIRKN7android8hardware8hidl_vecINS0_4gnss4V2_118IGnssConfiguration17BlacklistedSourceEEE"
    }
   ],
   "return_type" : "_ZTIN7android8hardware6ReturnIbEE",
   "source_file" : "/out/soong/.intermediates/hardware/interfaces/gnss/2.1/android.hardware.gnss@2.1_genc++_headers/gen/android/hardware/gnss/2.1/BpHwGnssConfiguration.h"
  },
  {
   "function_name" : "android::hardware::gnss::V2_1::BpHwGnssConfiguration::setGlonassPositioningProtocol",
   "linker_set_key" : "_ZN7android8hardware4gnss4V2_121BpHwGnssConfiguration29setGlonassPositioningProtocolEh",
   "parameters" :
   [
    {
     "is_this_ptr" : true,
     "referenced_type" : "_ZTIPN7android8hardware4gnss4V2_121BpHwGnssConfigurationE"
    },
    {
     "referenced_type" : "_ZTIh"
    }
   ],
   "return_type" : "_ZTIN7android8hardware6ReturnIbEE",
   "source_file" : "/out/soong/.intermediates/hardware/interfaces/gnss/2.1/android.hardware.gnss@2.1_genc++_headers/gen/android/hardware/gnss/2.1/BpHwGnssConfiguration.h"
  },
  {
   "function_name" : "android::hardware::gnss::V2_1::BpHwGnssConfiguration::ping",
   "linker_set_key" : "_ZN7android8hardware4gnss4V2_121BpHwGnssConfiguration4pingEv",
   "parameters" :
   [
    {
     "is_this_ptr" : true,
     "referenced_type" : "_ZTIPN7android8hardware4gnss4V2_121BpHwGnssConfigurationE"
    }
   ],
   "return_type" : "_ZTIN7android8hardware6ReturnIvEE",
   "source_file" : "/out/soong/.intermediates/hardware/interfaces/gnss/2.1/android.hardware.gnss@2.1_genc++_headers/gen/android/hardware/gnss/2.1/BpHwGnssConfiguration.h"
  },
  {
   "function_name" : "android::hardware::gnss::V2_1::BpHwGnssConfiguration::debug",
   "linker_set_key" : "_ZN7android8hardware4gnss4V2_121BpHwGnssConfiguration5debugERKNS0_11hidl_handleERKNS0_8hidl_vecINS0_11hidl_stringEEE",
   "parameters" :
   [
    {
     "is_this_ptr" : true,
     "referenced_type" : "_ZTIPN7android8hardware4gnss4V2_121BpHwGnssConfigurationE"
    },
    {
     "referenced_type" : "_ZTIRKN7android8hardware11hidl_handleE"
    },
    {
     "referenced_type" : "_ZTIRKN7android8hardware8hidl_vecINS0_11hidl_stringEEE"
    }
   ],
   "return_type" : "_ZTIN7android8hardware6ReturnIvEE",
   "source_file" : "/out/soong/.intermediates/hardware/interfaces/gnss/2.1/android.hardware.gnss@2.1_genc++_headers/gen/android/hardware/gnss/2.1/BpHwGnssConfiguration.h"
  },
  {
   "function_name" : "android::hardware::gnss::V2_1::BpHwGnssConfiguration::setSuplEs",
   "linker_set_key" : "_ZN7android8hardware4gnss4V2_121BpHwGnssConfiguration9setSuplEsEb",
   "parameters" :
   [
    {
     "is_this_ptr" : true,
     "referenced_type" : "_ZTIPN7android8hardware4gnss4V2_121BpHwGnssConfigurationE"
    },
    {
     "referenced_type" : "_ZTIb"
    }
   ],
   "return_type" : "_ZTIN7android8hardware6ReturnIbEE",
   "source_file" : "/out/soong/.intermediates/hardware/interfaces/gnss/2.1/android.hardware.gnss@2.1_genc++_headers/gen/android/hardware/gnss/2.1/BpHwGnssConfiguration.h"
  },
  {
   "function_name" : "android::hardware::gnss::V2_1::BpHwGnssConfiguration::BpHwGnssConfiguration",
   "linker_set_key" : "_ZN7android8hardware4gnss4V2_121BpHwGnssConfigurationC1ERKNS_2spINS0_7IBinderEEE",
   "parameters" :
   [
    {
     "is_this_ptr" : true,
     "referenced_type" : "_ZTIPN7android8hardware4gnss4V2_121BpHwGnssConfigurationE"
    },
    {
     "referenced_type" : "_ZTIRKN7android2spINS_8hardware7IBinderEEE"
    }
   ],
   "return_type" : "_ZTIv",
   "source_file" : "/out/soong/.intermediates/hardware/interfaces/gnss/2.1/android.hardware.gnss@2.1_genc++_headers/gen/android/hardware/gnss/2.1/BpHwGnssConfiguration.h"
  },
  {
   "function_name" : "android::hardware::gnss::V2_1::BpHwGnssConfiguration::BpHwGnssConfiguration",
   "linker_set_key" : "_ZN7android8hardware4gnss4V2_121BpHwGnssConfigurationC2ERKNS_2spINS0_7IBinderEEE",
   "parameters" :
   [
    {
     "is_this_ptr" : true,
     "referenced_type" : "_ZTIPN7android8hardware4gnss4V2_121BpHwGnssConfigurationE"
    },
    {
     "referenced_type" : "_ZTIRKN7android2spINS_8hardware7IBinderEEE"
    }
   ],
   "return_type" : "_ZTIv",
   "source_file" : "/out/soong/.intermediates/hardware/interfaces/gnss/2.1/android.hardware.gnss@2.1_genc++_headers/gen/android/hardware/gnss/2.1/BpHwGnssConfiguration.h"
  },
  {
   "function_name" : "android::hardware::gnss::V2_1::writeEmbeddedToParcel",
   "linker_set_key" : "_ZN7android8hardware4gnss4V2_121writeEmbeddedToParcelERKNS2_14GnssSignalTypeEPNS0_6ParcelEmm",
   "parameters" :
   [
    {
     "referenced_type" : "_ZTIRKN7android8hardware4gnss4V2_114GnssSignalTypeE"
    },
    {
     "referenced_type" : "_ZTIPN7android8hardware6ParcelE"
    },
    {
     "referenced_type" : "_ZTIm"
    },
    {
     "referenced_type" : "_ZTIm"
    }
   ],
   "return_type" : "_ZTIi",
   "source_file" : "/out/soong/.intermediates/hardware/interfaces/gnss/2.1/android.hardware.gnss@2.1_genc++_headers/gen/android/hardware/gnss/2.1/hwtypes.h"
  },
  {
   "function_name" : "android::hardware::gnss::V2_1::writeEmbeddedToParcel",
   "linker_set_key" : "_ZN7android8hardware4gnss4V2_121writeEmbeddedToParcelERKNS2_24IGnssAntennaInfoCallback15GnssAntennaInfoEPNS0_6ParcelEmm",
   "parameters" :
   [
    {
     "referenced_type" : "_ZTIRKN7android8hardware4gnss4V2_124IGnssAntennaInfoCallback15GnssAntennaInfoE"
    },
    {
     "referenced_type" : "_ZTIPN7android8hardware6ParcelE"
    },
    {
     "referenced_type" : "_ZTIm"
    },
    {
     "referenced_type" : "_ZTIm"
    }
   ],
   "return_type" : "_ZTIi",
   "source_file" : "/out/soong/.intermediates/hardware/interfaces/gnss/2.1/android.hardware.gnss@2.1_genc++_headers/gen/android/hardware/gnss/2.1/IHwGnssAntennaInfoCallback.h"
  },
  {
   "function_name" : "android::hardware::gnss::V2_1::writeEmbeddedToParcel",
   "linker_set_key" : "_ZN7android8hardware4gnss4V2_121writeEmbeddedToParcelERKNS2_24IGnssAntennaInfoCallback3RowEPNS0_6ParcelEmm",
   "parameters" :
   [
    {
     "referenced_type" : "_ZTIRKN7android8hardware4gnss4V2_124IGnssAntennaInfoCallback3RowE"
    },
    {
     "referenced_type" : "_ZTIPN7android8hardware6ParcelE"
    },
    {
     "referenced_type" : "_ZTIm"
    },
    {
     "referenced_type" : "_ZTIm"
    }
   ],
   "return_type" : "_ZTIi",
   "source_file" : "/out/soong/.intermediates/hardware/interfaces/gnss/2.1/android.hardware.gnss@2.1_genc++_headers/gen/android/hardware/gnss/2.1/IHwGnssAntennaInfoCallback.h"
  },
  {
   "function_name" : "android::hardware::gnss::V2_1::writeEmbeddedToParcel",
   "linker_set_key" : "_ZN7android8hardware4gnss4V2_121writeEmbeddedToParcelERKNS2_24IGnssMeasurementCallback15GnssMeasurementEPNS0_6ParcelEmm",
   "parameters" :
   [
    {
     "referenced_type" : "_ZTIRKN7android8hardware4gnss4V2_124IGnssMeasurementCallback15GnssMeasurementE"
    },
    {
     "referenced_type" : "_ZTIPN7android8hardware6ParcelE"
    },
    {
     "referenced_type" : "_ZTIm"
    },
    {
     "referenced_type" : "_ZTIm"
    }
   ],
   "return_type" : "_ZTIi",
   "source_file" : "/out/soong/.intermediates/hardware/interfaces/gnss/2.1/android.hardware.gnss@2.1_genc++_headers/gen/android/hardware/gnss/2.1/IHwGnssMeasurementCallback.h"
  },
  {
   "function_name" : "android::hardware::gnss::V2_1::writeEmbeddedToParcel",
   "linker_set_key" : "_ZN7android8hardware4gnss4V2_121writeEmbeddedToParcelERKNS2_24IGnssMeasurementCallback8GnssDataEPNS0_6ParcelEmm",
   "parameters" :
   [
    {
     "referenced_type" : "_ZTIRKN7android8hardware4gnss4V2_124IGnssMeasurementCallback8GnssDataE"
    },
    {
     "referenced_type" : "_ZTIPN7android8hardware6ParcelE"
    },
    {
     "referenced_type" : "_ZTIm"
    },
    {
     "referenced_type" : "_ZTIm"
    }
   ],
   "return_type" : "_ZTIi",
   "source_file" : "/out/soong/.intermediates/hardware/interfaces/gnss/2.1/android.hardware.gnss@2.1_genc++_headers/gen/android/hardware/gnss/2.1/IHwGnssMeasurementCallback.h"
  },
  {
   "function_name" : "android::hardware::gnss::V2_1::writeEmbeddedToParcel",
   "linker_set_key" : "_ZN7android8hardware4gnss4V2_121writeEmbeddedToParcelERKNS2_24IGnssMeasurementCallback9GnssClockEPNS0_6ParcelEmm",
   "parameters" :
   [
    {
     "referenced_type" : "_ZTIRKN7android8hardware4gnss4V2_124IGnssMeasurementCallback9GnssClockE"
    },
    {
     "referenced_type" : "_ZTIPN7android8hardware6ParcelE"
    },
    {
     "referenced_type" : "_ZTIm"
    },
    {
     "referenced_type" : "_ZTIm"
    }
   ],
   "return_type" : "_ZTIi",
   "source_file" : "/out/soong/.intermediates/hardware/interfaces/gnss/2.1/android.hardware.gnss@2.1_genc++_headers/gen/android/hardware/gnss/2.1/IHwGnssMeasurementCallback.h"
  },
  {
   "function_name" : "android::hardware::gnss::V2_1::readEmbeddedFromParcel",
   "linker_set_key" : "_ZN7android8hardware4gnss4V2_122readEmbeddedFromParcelERKNS2_14GnssSignalTypeERKNS0_6ParcelEmm",
   "parameters" :
   [
    {
     "referenced_type" : "_ZTIRKN7android8hardware4gnss4V2_114GnssSignalTypeE"
    },
    {
     "referenced_type" : "_ZTIRKN7android8hardware6ParcelE"
    },
    {
     "referenced_type" : "_ZTIm"
    },
    {
     "referenced_type" : "_ZTIm"
    }
   ],
   "return_type" : "_ZTIi",
   "source_file" : "/out/soong/.intermediates/hardware/interfaces/gnss/2.1/android.hardware.gnss@2.1_genc++_headers/gen/android/hardware/gnss/2.1/hwtypes.h"
  },
  {
   "function_name" : "android::hardware::gnss::V2_1::readEmbeddedFromParcel",
   "linker_set_key" : "_ZN7android8hardware4gnss4V2_122readEmbeddedFromParcelERKNS2_24IGnssAntennaInfoCallback15GnssAntennaInfoERKNS0_6ParcelEmm",
   "parameters" :
   [
    {
     "referenced_type" : "_ZTIRKN7android8hardware4gnss4V2_124IGnssAntennaInfoCallback15GnssAntennaInfoE"
    },
    {
     "referenced_type" : "_ZTIRKN7android8hardware6ParcelE"
    },
    {
     "referenced_type" : "_ZTIm"
    },
    {
     "referenced_type" : "_ZTIm"
    }
   ],
   "return_type" : "_ZTIi",
   "source_file" : "/out/soong/.intermediates/hardware/interfaces/gnss/2.1/android.hardware.gnss@2.1_genc++_headers/gen/android/hardware/gnss/2.1/IHwGnssAntennaInfoCallback.h"
  },
  {
   "function_name" : "android::hardware::gnss::V2_1::readEmbeddedFromParcel",
   "linker_set_key" : "_ZN7android8hardware4gnss4V2_122readEmbeddedFromParcelERKNS2_24IGnssAntennaInfoCallback3RowERKNS0_6ParcelEmm",
   "parameters" :
   [
    {
     "referenced_type" : "_ZTIRKN7android8hardware4gnss4V2_124IGnssAntennaInfoCallback3RowE"
    },
    {
     "referenced_type" : "_ZTIRKN7android8hardware6ParcelE"
    },
    {
     "referenced_type" : "_ZTIm"
    },
    {
     "referenced_type" : "_ZTIm"
    }
   ],
   "return_type" : "_ZTIi",
   "source_file" : "/out/soong/.intermediates/hardware/interfaces/gnss/2.1/android.hardware.gnss@2.1_genc++_headers/gen/android/hardware/gnss/2.1/IHwGnssAntennaInfoCallback.h"
  },
  {
   "function_name" : "android::hardware::gnss::V2_1::readEmbeddedFromParcel",
   "linker_set_key" : "_ZN7android8hardware4gnss4V2_122readEmbeddedFromParcelERKNS2_24IGnssMeasurementCallback15GnssMeasurementERKNS0_6ParcelEmm",
   "parameters" :
   [
    {
     "referenced_type" : "_ZTIRKN7android8hardware4gnss4V2_124IGnssMeasurementCallback15GnssMeasurementE"
    },
    {
     "referenced_type" : "_ZTIRKN7android8hardware6ParcelE"
    },
    {
     "referenced_type" : "_ZTIm"
    },
    {
     "referenced_type" : "_ZTIm"
    }
   ],
   "return_type" : "_ZTIi",
   "source_file" : "/out/soong/.intermediates/hardware/interfaces/gnss/2.1/android.hardware.gnss@2.1_genc++_headers/gen/android/hardware/gnss/2.1/IHwGnssMeasurementCallback.h"
  },
  {
   "function_name" : "android::hardware::gnss::V2_1::readEmbeddedFromParcel",
   "linker_set_key" : "_ZN7android8hardware4gnss4V2_122readEmbeddedFromParcelERKNS2_24IGnssMeasurementCallback8GnssDataERKNS0_6ParcelEmm",
   "parameters" :
   [
    {
     "referenced_type" : "_ZTIRKN7android8hardware4gnss4V2_124IGnssMeasurementCallback8GnssDataE"
    },
    {
     "referenced_type" : "_ZTIRKN7android8hardware6ParcelE"
    },
    {
     "referenced_type" : "_ZTIm"
    },
    {
     "referenced_type" : "_ZTIm"
    }
   ],
   "return_type" : "_ZTIi",
   "source_file" : "/out/soong/.intermediates/hardware/interfaces/gnss/2.1/android.hardware.gnss@2.1_genc++_headers/gen/android/hardware/gnss/2.1/IHwGnssMeasurementCallback.h"
  },
  {
   "function_name" : "android::hardware::gnss::V2_1::readEmbeddedFromParcel",
   "linker_set_key" : "_ZN7android8hardware4gnss4V2_122readEmbeddedFromParcelERKNS2_24IGnssMeasurementCallback9GnssClockERKNS0_6ParcelEmm",
   "parameters" :
   [
    {
     "referenced_type" : "_ZTIRKN7android8hardware4gnss4V2_124IGnssMeasurementCallback9GnssClockE"
    },
    {
     "referenced_type" : "_ZTIRKN7android8hardware6ParcelE"
    },
    {
     "referenced_type" : "_ZTIm"
    },
    {
     "referenced_type" : "_ZTIm"
    }
   ],
   "return_type" : "_ZTIi",
   "source_file" : "/out/soong/.intermediates/hardware/interfaces/gnss/2.1/android.hardware.gnss@2.1_genc++_headers/gen/android/hardware/gnss/2.1/IHwGnssMeasurementCallback.h"
  },
  {
   "function_name" : "android::hardware::gnss::V2_1::IGnssAntennaInfoCallback::getService",
   "linker_set_key" : "_ZN7android8hardware4gnss4V2_124IGnssAntennaInfoCallback10getServiceERKNSt3__112basic_stringIcNS4_11char_traitsIcEENS4_9allocatorIcEEEEb",
   "parameters" :
   [
    {
     "default_arg" : true,
     "referenced_type" : "_ZTIRKNSt3__112basic_stringIcNS_11char_traitsIcEENS_9allocatorIcEEEE"
    },
    {
     "default_arg" : true,
     "referenced_type" : "_ZTIb"
    }
   ],
   "return_type" : "_ZTIN7android2spINS_8hardware4gnss4V2_124IGnssAntennaInfoCallbackEEE",
   "source_file" : "/out/soong/.intermediates/hardware/interfaces/gnss/2.1/android.hardware.gnss@2.1_genc++_headers/gen/android/hardware/gnss/2.1/IGnssAntennaInfoCallback.h"
  },
  {
   "function_name" : "android::hardware::gnss::V2_1::IGnssAntennaInfoCallback::linkToDeath",
   "linker_set_key" : "_ZN7android8hardware4gnss4V2_124IGnssAntennaInfoCallback11linkToDeathERKNS_2spINS0_20hidl_death_recipientEEEm",
   "parameters" :
   [
    {
     "is_this_ptr" : true,
     "referenced_type" : "_ZTIPN7android8hardware4gnss4V2_124IGnssAntennaInfoCallbackE"
    },
    {
     "referenced_type" : "_ZTIRKN7android2spINS_8hardware20hidl_death_recipientEEE"
    },
    {
     "referenced_type" : "_ZTIm"
    }
   ],
   "return_type" : "_ZTIN7android8hardware6ReturnIbEE",
   "source_file" : "/out/soong/.intermediates/hardware/interfaces/gnss/2.1/android.hardware.gnss@2.1_genc++_headers/gen/android/hardware/gnss/2.1/IGnssAntennaInfoCallback.h"
  },
  {
   "function_name" : "android::hardware::gnss::V2_1::IGnssAntennaInfoCallback::getDebugInfo",
   "linker_set_key" : "_ZN7android8hardware4gnss4V2_124IGnssAntennaInfoCallback12getDebugInfoENSt3__18functionIFvRKNS_4hidl4base4V1_09DebugInfoEEEE",
   "parameters" :
   [
    {
     "is_this_ptr" : true,
     "referenced_type" : "_ZTIPN7android8hardware4gnss4V2_124IGnssAntennaInfoCallbackE"
    },
    {
     "referenced_type" : "_ZTINSt3__18functionIFvRKN7android4hidl4base4V1_09DebugInfoEEEE"
    }
   ],
   "return_type" : "_ZTIN7android8hardware6ReturnIvEE",
   "source_file" : "/out/soong/.intermediates/hardware/interfaces/gnss/2.1/android.hardware.gnss@2.1_genc++_headers/gen/android/hardware/gnss/2.1/IGnssAntennaInfoCallback.h"
  },
  {
   "function_name" : "android::hardware::gnss::V2_1::IGnssAntennaInfoCallback::getHashChain",
   "linker_set_key" : "_ZN7android8hardware4gnss4V2_124IGnssAntennaInfoCallback12getHashChainENSt3__18functionIFvRKNS0_8hidl_vecINS0_10hidl_arrayIhLm32EJEEEEEEEE",
   "parameters" :
   [
    {
     "is_this_ptr" : true,
     "referenced_type" : "_ZTIPN7android8hardware4gnss4V2_124IGnssAntennaInfoCallbackE"
    },
    {
     "referenced_type" : "_ZTINSt3__18functionIFvRKN7android8hardware8hidl_vecINS2_10hidl_arrayIhLm32EJEEEEEEEE"
    }
   ],
   "return_type" : "_ZTIN7android8hardware6ReturnIvEE",
   "source_file" : "/out/soong/.intermediates/hardware/interfaces/gnss/2.1/android.hardware.gnss@2.1_genc++_headers/gen/android/hardware/gnss/2.1/IGnssAntennaInfoCallback.h"
  },
  {
   "function_name" : "android::hardware::gnss::V2_1::IGnssAntennaInfoCallback::tryGetService",
   "linker_set_key" : "_ZN7android8hardware4gnss4V2_124IGnssAntennaInfoCallback13tryGetServiceERKNSt3__112basic_stringIcNS4_11char_traitsIcEENS4_9allocatorIcEEEEb",
   "parameters" :
   [
    {
     "default_arg" : true,
     "referenced_type" : "_ZTIRKNSt3__112basic_stringIcNS_11char_traitsIcEENS_9allocatorIcEEEE"
    },
    {
     "default_arg" : true,
     "referenced_type" : "_ZTIb"
    }
   ],
   "return_type" : "_ZTIN7android2spINS_8hardware4gnss4V2_124IGnssAntennaInfoCallbackEEE",
   "source_file" : "/out/soong/.intermediates/hardware/interfaces/gnss/2.1/android.hardware.gnss@2.1_genc++_headers/gen/android/hardware/gnss/2.1/IGnssAntennaInfoCallback.h"
  },
  {
   "function_name" : "android::hardware::gnss::V2_1::IGnssAntennaInfoCallback::unlinkToDeath",
   "linker_set_key" : "_ZN7android8hardware4gnss4V2_124IGnssAntennaInfoCallback13unlinkToDeathERKNS_2spINS0_20hidl_death_recipientEEE",
   "parameters" :
   [
    {
     "is_this_ptr" : true,
     "referenced_type" : "_ZTIPN7android8hardware4gnss4V2_124IGnssAntennaInfoCallbackE"
    },
    {
     "referenced_type" : "_ZTIRKN7android2spINS_8hardware20hidl_death_recipientEEE"
    }
   ],
   "return_type" : "_ZTIN7android8hardware6ReturnIbEE",
   "source_file" : "/out/soong/.intermediates/hardware/interfaces/gnss/2.1/android.hardware.gnss@2.1_genc++_headers/gen/android/hardware/gnss/2.1/IGnssAntennaInfoCallback.h"
  },
  {
   "function_name" : "android::hardware::gnss::V2_1::IGnssAntennaInfoCallback::interfaceChain",
   "linker_set_key" : "_ZN7android8hardware4gnss4V2_124IGnssAntennaInfoCallback14interfaceChainENSt3__18functionIFvRKNS0_8hidl_vecINS0_11hidl_stringEEEEEE",
   "parameters" :
   [
    {
     "is_this_ptr" : true,
     "referenced_type" : "_ZTIPN7android8hardware4gnss4V2_124IGnssAntennaInfoCallbackE"
    },
    {
     "referenced_type" : "_ZTINSt3__18functionIFvRKN7android8hardware8hidl_vecINS2_11hidl_stringEEEEEE"
    }
   ],
   "return_type" : "_ZTIN7android8hardware6ReturnIvEE",
   "source_file" : "/out/soong/.intermediates/hardware/interfaces/gnss/2.1/android.hardware.gnss@2.1_genc++_headers/gen/android/hardware/gnss/2.1/IGnssAntennaInfoCallback.h"
  },
  {
   "function_name" : "android::hardware::gnss::V2_1::IGnssAntennaInfoCallback::registerAsService",
   "linker_set_key" : "_ZN7android8hardware4gnss4V2_124IGnssAntennaInfoCallback17registerAsServiceERKNSt3__112basic_stringIcNS4_11char_traitsIcEENS4_9allocatorIcEEEE",
   "parameters" :
   [
    {
     "is_this_ptr" : true,
     "referenced_type" : "_ZTIPN7android8hardware4gnss4V2_124IGnssAntennaInfoCallbackE"
    },
    {
     "default_arg" : true,
     "referenced_type" : "_ZTIRKNSt3__112basic_stringIcNS_11char_traitsIcEENS_9allocatorIcEEEE"
    }
   ],
   "return_type" : "_ZTIi",
   "source_file" : "/out/soong/.intermediates/hardware/interfaces/gnss/2.1/android.hardware.gnss@2.1_genc++_headers/gen/android/hardware/gnss/2.1/IGnssAntennaInfoCallback.h"
  },
  {
   "function_name" : "android::hardware::gnss::V2_1::IGnssAntennaInfoCallback::interfaceDescriptor",
   "linker_set_key" : "_ZN7android8hardware4gnss4V2_124IGnssAntennaInfoCallback19interfaceDescriptorENSt3__18functionIFvRKNS0_11hidl_stringEEEE",
   "parameters" :
   [
    {
     "is_this_ptr" : true,
     "referenced_type" : "_ZTIPN7android8hardware4gnss4V2_124IGnssAntennaInfoCallbackE"
    },
    {
     "referenced_type" : "_ZTINSt3__18functionIFvRKN7android8hardware11hidl_stringEEEE"
    }
   ],
   "return_type" : "_ZTIN7android8hardware6ReturnIvEE",
   "source_file" : "/out/soong/.intermediates/hardware/interfaces/gnss/2.1/android.hardware.gnss@2.1_genc++_headers/gen/android/hardware/gnss/2.1/IGnssAntennaInfoCallback.h"
  },
  {
   "function_name" : "android::hardware::gnss::V2_1::IGnssAntennaInfoCallback::notifySyspropsChanged",
   "linker_set_key" : "_ZN7android8hardware4gnss4V2_124IGnssAntennaInfoCallback21notifySyspropsChangedEv",
   "parameters" :
   [
    {
     "is_this_ptr" : true,
     "referenced_type" : "_ZTIPN7android8hardware4gnss4V2_124IGnssAntennaInfoCallbackE"
    }
   ],
   "return_type" : "_ZTIN7android8hardware6ReturnIvEE",
   "source_file" : "/out/soong/.intermediates/hardware/interfaces/gnss/2.1/android.hardware.gnss@2.1_genc++_headers/gen/android/hardware/gnss/2.1/IGnssAntennaInfoCallback.h"
  },
  {
   "function_name" : "android::hardware::gnss::V2_1::IGnssAntennaInfoCallback::setHALInstrumentation",
   "linker_set_key" : "_ZN7android8hardware4gnss4V2_124IGnssAntennaInfoCallback21setHALInstrumentationEv",
   "parameters" :
   [
    {
     "is_this_ptr" : true,
     "referenced_type" : "_ZTIPN7android8hardware4gnss4V2_124IGnssAntennaInfoCallbackE"
    }
   ],
   "return_type" : "_ZTIN7android8hardware6ReturnIvEE",
   "source_file" : "/out/soong/.intermediates/hardware/interfaces/gnss/2.1/android.hardware.gnss@2.1_genc++_headers/gen/android/hardware/gnss/2.1/IGnssAntennaInfoCallback.h"
  },
  {
   "function_name" : "android::hardware::gnss::V2_1::IGnssAntennaInfoCallback::registerForNotifications",
   "linker_set_key" : "_ZN7android8hardware4gnss4V2_124IGnssAntennaInfoCallback24registerForNotificationsERKNSt3__112basic_stringIcNS4_11char_traitsIcEENS4_9allocatorIcEEEERKNS_2spINS_4hidl7manager4V1_020IServiceNotificationEEE",
   "parameters" :
   [
    {
     "referenced_type" : "_ZTIRKNSt3__112basic_stringIcNS_11char_traitsIcEENS_9allocatorIcEEEE"
    },
    {
     "referenced_type" : "_ZTIRKN7android2spINS_4hidl7manager4V1_020IServiceNotificationEEE"
    }
   ],
   "return_type" : "_ZTIb",
   "source_file" : "/out/soong/.intermediates/hardware/interfaces/gnss/2.1/android.hardware.gnss@2.1_genc++_headers/gen/android/hardware/gnss/2.1/IGnssAntennaInfoCallback.h"
  },
  {
   "function_name" : "android::hardware::gnss::V2_1::IGnssAntennaInfoCallback::ping",
   "linker_set_key" : "_ZN7android8hardware4gnss4V2_124IGnssAntennaInfoCallback4pingEv",
   "parameters" :
   [
    {
     "is_this_ptr" : true,
     "referenced_type" : "_ZTIPN7android8hardware4gnss4V2_124IGnssAntennaInfoCallbackE"
    }
   ],
   "return_type" : "_ZTIN7android8hardware6ReturnIvEE",
   "source_file" : "/out/soong/.intermediates/hardware/interfaces/gnss/2.1/android.hardware.gnss@2.1_genc++_headers/gen/android/hardware/gnss/2.1/IGnssAntennaInfoCallback.h"
  },
  {
   "function_name" : "android::hardware::gnss::V2_1::IGnssAntennaInfoCallback::debug",
   "linker_set_key" : "_ZN7android8hardware4gnss4V2_124IGnssAntennaInfoCallback5debugERKNS0_11hidl_handleERKNS0_8hidl_vecINS0_11hidl_stringEEE",
   "parameters" :
   [
    {
     "is_this_ptr" : true,
     "referenced_type" : "_ZTIPN7android8hardware4gnss4V2_124IGnssAntennaInfoCallbackE"
    },
    {
     "referenced_type" : "_ZTIRKN7android8hardware11hidl_handleE"
    },
    {
     "referenced_type" : "_ZTIRKN7android8hardware8hidl_vecINS0_11hidl_stringEEE"
    }
   ],
   "return_type" : "_ZTIN7android8hardware6ReturnIvEE",
   "source_file" : "/out/soong/.intermediates/hardware/interfaces/gnss/2.1/android.hardware.gnss@2.1_genc++_headers/gen/android/hardware/gnss/2.1/IGnssAntennaInfoCallback.h"
  },
  {
   "function_name" : "android::hardware::gnss::V2_1::IGnssAntennaInfoCallback::castFrom",
   "linker_set_key" : "_ZN7android8hardware4gnss4V2_124IGnssAntennaInfoCallback8castFromERKNS_2spINS_4hidl4base4V1_05IBaseEEEb",
   "parameters" :
   [
    {
     "referenced_type" : "_ZTIRKN7android2spINS_4hidl4base4V1_05IBaseEEE"
    },
    {
     "default_arg" : true,
     "referenced_type" : "_ZTIb"
    }
   ],
   "return_type" : "_ZTIN7android8hardware6ReturnINS_2spINS0_4gnss4V2_124IGnssAntennaInfoCallbackEEEEE",
   "source_file" : "/out/soong/.intermediates/hardware/interfaces/gnss/2.1/android.hardware.gnss@2.1_genc++_headers/gen/android/hardware/gnss/2.1/IGnssAntennaInfoCallback.h"
  },
  {
   "function_name" : "android::hardware::gnss::V2_1::IGnssAntennaInfoCallback::castFrom",
   "linker_set_key" : "_ZN7android8hardware4gnss4V2_124IGnssAntennaInfoCallback8castFromERKNS_2spIS3_EEb",
   "parameters" :
   [
    {
     "referenced_type" : "_ZTIRKN7android2spINS_8hardware4gnss4V2_124IGnssAntennaInfoCallbackEEE"
    },
    {
     "default_arg" : true,
     "referenced_type" : "_ZTIb"
    }
   ],
   "return_type" : "_ZTIN7android8hardware6ReturnINS_2spINS0_4gnss4V2_124IGnssAntennaInfoCallbackEEEEE",
   "source_file" : "/out/soong/.intermediates/hardware/interfaces/gnss/2.1/android.hardware.gnss@2.1_genc++_headers/gen/android/hardware/gnss/2.1/IGnssAntennaInfoCallback.h"
  },
  {
   "function_name" : "android::hardware::gnss::V2_1::IGnssMeasurementCallback::getService",
   "linker_set_key" : "_ZN7android8hardware4gnss4V2_124IGnssMeasurementCallback10getServiceERKNSt3__112basic_stringIcNS4_11char_traitsIcEENS4_9allocatorIcEEEEb",
   "parameters" :
   [
    {
     "default_arg" : true,
     "referenced_type" : "_ZTIRKNSt3__112basic_stringIcNS_11char_traitsIcEENS_9allocatorIcEEEE"
    },
    {
     "default_arg" : true,
     "referenced_type" : "_ZTIb"
    }
   ],
   "return_type" : "_ZTIN7android2spINS_8hardware4gnss4V2_124IGnssMeasurementCallbackEEE",
   "source_file" : "/out/soong/.intermediates/hardware/interfaces/gnss/2.1/android.hardware.gnss@2.1_genc++_headers/gen/android/hardware/gnss/2.1/IGnssMeasurementCallback.h"
  },
  {
   "function_name" : "android::hardware::gnss::V2_1::IGnssMeasurementCallback::linkToDeath",
   "linker_set_key" : "_ZN7android8hardware4gnss4V2_124IGnssMeasurementCallback11linkToDeathERKNS_2spINS0_20hidl_death_recipientEEEm",
   "parameters" :
   [
    {
     "is_this_ptr" : true,
     "referenced_type" : "_ZTIPN7android8hardware4gnss4V2_124IGnssMeasurementCallbackE"
    },
    {
     "referenced_type" : "_ZTIRKN7android2spINS_8hardware20hidl_death_recipientEEE"
    },
    {
     "referenced_type" : "_ZTIm"
    }
   ],
   "return_type" : "_ZTIN7android8hardware6ReturnIbEE",
   "source_file" : "/out/soong/.intermediates/hardware/interfaces/gnss/2.1/android.hardware.gnss@2.1_genc++_headers/gen/android/hardware/gnss/2.1/IGnssMeasurementCallback.h"
  },
  {
   "function_name" : "android::hardware::gnss::V2_1::IGnssMeasurementCallback::getDebugInfo",
   "linker_set_key" : "_ZN7android8hardware4gnss4V2_124IGnssMeasurementCallback12getDebugInfoENSt3__18functionIFvRKNS_4hidl4base4V1_09DebugInfoEEEE",
   "parameters" :
   [
    {
     "is_this_ptr" : true,
     "referenced_type" : "_ZTIPN7android8hardware4gnss4V2_124IGnssMeasurementCallbackE"
    },
    {
     "referenced_type" : "_ZTINSt3__18functionIFvRKN7android4hidl4base4V1_09DebugInfoEEEE"
    }
   ],
   "return_type" : "_ZTIN7android8hardware6ReturnIvEE",
   "source_file" : "/out/soong/.intermediates/hardware/interfaces/gnss/2.1/android.hardware.gnss@2.1_genc++_headers/gen/android/hardware/gnss/2.1/IGnssMeasurementCallback.h"
  },
  {
   "function_name" : "android::hardware::gnss::V2_1::IGnssMeasurementCallback::getHashChain",
   "linker_set_key" : "_ZN7android8hardware4gnss4V2_124IGnssMeasurementCallback12getHashChainENSt3__18functionIFvRKNS0_8hidl_vecINS0_10hidl_arrayIhLm32EJEEEEEEEE",
   "parameters" :
   [
    {
     "is_this_ptr" : true,
     "referenced_type" : "_ZTIPN7android8hardware4gnss4V2_124IGnssMeasurementCallbackE"
    },
    {
     "referenced_type" : "_ZTINSt3__18functionIFvRKN7android8hardware8hidl_vecINS2_10hidl_arrayIhLm32EJEEEEEEEE"
    }
   ],
   "return_type" : "_ZTIN7android8hardware6ReturnIvEE",
   "source_file" : "/out/soong/.intermediates/hardware/interfaces/gnss/2.1/android.hardware.gnss@2.1_genc++_headers/gen/android/hardware/gnss/2.1/IGnssMeasurementCallback.h"
  },
  {
   "function_name" : "android::hardware::gnss::V2_1::IGnssMeasurementCallback::tryGetService",
   "linker_set_key" : "_ZN7android8hardware4gnss4V2_124IGnssMeasurementCallback13tryGetServiceERKNSt3__112basic_stringIcNS4_11char_traitsIcEENS4_9allocatorIcEEEEb",
   "parameters" :
   [
    {
     "default_arg" : true,
     "referenced_type" : "_ZTIRKNSt3__112basic_stringIcNS_11char_traitsIcEENS_9allocatorIcEEEE"
    },
    {
     "default_arg" : true,
     "referenced_type" : "_ZTIb"
    }
   ],
   "return_type" : "_ZTIN7android2spINS_8hardware4gnss4V2_124IGnssMeasurementCallbackEEE",
   "source_file" : "/out/soong/.intermediates/hardware/interfaces/gnss/2.1/android.hardware.gnss@2.1_genc++_headers/gen/android/hardware/gnss/2.1/IGnssMeasurementCallback.h"
  },
  {
   "function_name" : "android::hardware::gnss::V2_1::IGnssMeasurementCallback::unlinkToDeath",
   "linker_set_key" : "_ZN7android8hardware4gnss4V2_124IGnssMeasurementCallback13unlinkToDeathERKNS_2spINS0_20hidl_death_recipientEEE",
   "parameters" :
   [
    {
     "is_this_ptr" : true,
     "referenced_type" : "_ZTIPN7android8hardware4gnss4V2_124IGnssMeasurementCallbackE"
    },
    {
     "referenced_type" : "_ZTIRKN7android2spINS_8hardware20hidl_death_recipientEEE"
    }
   ],
   "return_type" : "_ZTIN7android8hardware6ReturnIbEE",
   "source_file" : "/out/soong/.intermediates/hardware/interfaces/gnss/2.1/android.hardware.gnss@2.1_genc++_headers/gen/android/hardware/gnss/2.1/IGnssMeasurementCallback.h"
  },
  {
   "function_name" : "android::hardware::gnss::V2_1::IGnssMeasurementCallback::interfaceChain",
   "linker_set_key" : "_ZN7android8hardware4gnss4V2_124IGnssMeasurementCallback14interfaceChainENSt3__18functionIFvRKNS0_8hidl_vecINS0_11hidl_stringEEEEEE",
   "parameters" :
   [
    {
     "is_this_ptr" : true,
     "referenced_type" : "_ZTIPN7android8hardware4gnss4V2_124IGnssMeasurementCallbackE"
    },
    {
     "referenced_type" : "_ZTINSt3__18functionIFvRKN7android8hardware8hidl_vecINS2_11hidl_stringEEEEEE"
    }
   ],
   "return_type" : "_ZTIN7android8hardware6ReturnIvEE",
   "source_file" : "/out/soong/.intermediates/hardware/interfaces/gnss/2.1/android.hardware.gnss@2.1_genc++_headers/gen/android/hardware/gnss/2.1/IGnssMeasurementCallback.h"
  },
  {
   "function_name" : "android::hardware::gnss::V2_1::IGnssMeasurementCallback::registerAsService",
   "linker_set_key" : "_ZN7android8hardware4gnss4V2_124IGnssMeasurementCallback17registerAsServiceERKNSt3__112basic_stringIcNS4_11char_traitsIcEENS4_9allocatorIcEEEE",
   "parameters" :
   [
    {
     "is_this_ptr" : true,
     "referenced_type" : "_ZTIPN7android8hardware4gnss4V2_124IGnssMeasurementCallbackE"
    },
    {
     "default_arg" : true,
     "referenced_type" : "_ZTIRKNSt3__112basic_stringIcNS_11char_traitsIcEENS_9allocatorIcEEEE"
    }
   ],
   "return_type" : "_ZTIi",
   "source_file" : "/out/soong/.intermediates/hardware/interfaces/gnss/2.1/android.hardware.gnss@2.1_genc++_headers/gen/android/hardware/gnss/2.1/IGnssMeasurementCallback.h"
  },
  {
   "function_name" : "android::hardware::gnss::V2_1::IGnssMeasurementCallback::interfaceDescriptor",
   "linker_set_key" : "_ZN7android8hardware4gnss4V2_124IGnssMeasurementCallback19interfaceDescriptorENSt3__18functionIFvRKNS0_11hidl_stringEEEE",
   "parameters" :
   [
    {
     "is_this_ptr" : true,
     "referenced_type" : "_ZTIPN7android8hardware4gnss4V2_124IGnssMeasurementCallbackE"
    },
    {
     "referenced_type" : "_ZTINSt3__18functionIFvRKN7android8hardware11hidl_stringEEEE"
    }
   ],
   "return_type" : "_ZTIN7android8hardware6ReturnIvEE",
   "source_file" : "/out/soong/.intermediates/hardware/interfaces/gnss/2.1/android.hardware.gnss@2.1_genc++_headers/gen/android/hardware/gnss/2.1/IGnssMeasurementCallback.h"
  },
  {
   "function_name" : "android::hardware::gnss::V2_1::IGnssMeasurementCallback::notifySyspropsChanged",
   "linker_set_key" : "_ZN7android8hardware4gnss4V2_124IGnssMeasurementCallback21notifySyspropsChangedEv",
   "parameters" :
   [
    {
     "is_this_ptr" : true,
     "referenced_type" : "_ZTIPN7android8hardware4gnss4V2_124IGnssMeasurementCallbackE"
    }
   ],
   "return_type" : "_ZTIN7android8hardware6ReturnIvEE",
   "source_file" : "/out/soong/.intermediates/hardware/interfaces/gnss/2.1/android.hardware.gnss@2.1_genc++_headers/gen/android/hardware/gnss/2.1/IGnssMeasurementCallback.h"
  },
  {
   "function_name" : "android::hardware::gnss::V2_1::IGnssMeasurementCallback::setHALInstrumentation",
   "linker_set_key" : "_ZN7android8hardware4gnss4V2_124IGnssMeasurementCallback21setHALInstrumentationEv",
   "parameters" :
   [
    {
     "is_this_ptr" : true,
     "referenced_type" : "_ZTIPN7android8hardware4gnss4V2_124IGnssMeasurementCallbackE"
    }
   ],
   "return_type" : "_ZTIN7android8hardware6ReturnIvEE",
   "source_file" : "/out/soong/.intermediates/hardware/interfaces/gnss/2.1/android.hardware.gnss@2.1_genc++_headers/gen/android/hardware/gnss/2.1/IGnssMeasurementCallback.h"
  },
  {
   "function_name" : "android::hardware::gnss::V2_1::IGnssMeasurementCallback::registerForNotifications",
   "linker_set_key" : "_ZN7android8hardware4gnss4V2_124IGnssMeasurementCallback24registerForNotificationsERKNSt3__112basic_stringIcNS4_11char_traitsIcEENS4_9allocatorIcEEEERKNS_2spINS_4hidl7manager4V1_020IServiceNotificationEEE",
   "parameters" :
   [
    {
     "referenced_type" : "_ZTIRKNSt3__112basic_stringIcNS_11char_traitsIcEENS_9allocatorIcEEEE"
    },
    {
     "referenced_type" : "_ZTIRKN7android2spINS_4hidl7manager4V1_020IServiceNotificationEEE"
    }
   ],
   "return_type" : "_ZTIb",
   "source_file" : "/out/soong/.intermediates/hardware/interfaces/gnss/2.1/android.hardware.gnss@2.1_genc++_headers/gen/android/hardware/gnss/2.1/IGnssMeasurementCallback.h"
  },
  {
   "function_name" : "android::hardware::gnss::V2_1::IGnssMeasurementCallback::ping",
   "linker_set_key" : "_ZN7android8hardware4gnss4V2_124IGnssMeasurementCallback4pingEv",
   "parameters" :
   [
    {
     "is_this_ptr" : true,
     "referenced_type" : "_ZTIPN7android8hardware4gnss4V2_124IGnssMeasurementCallbackE"
    }
   ],
   "return_type" : "_ZTIN7android8hardware6ReturnIvEE",
   "source_file" : "/out/soong/.intermediates/hardware/interfaces/gnss/2.1/android.hardware.gnss@2.1_genc++_headers/gen/android/hardware/gnss/2.1/IGnssMeasurementCallback.h"
  },
  {
   "function_name" : "android::hardware::gnss::V2_1::IGnssMeasurementCallback::debug",
   "linker_set_key" : "_ZN7android8hardware4gnss4V2_124IGnssMeasurementCallback5debugERKNS0_11hidl_handleERKNS0_8hidl_vecINS0_11hidl_stringEEE",
   "parameters" :
   [
    {
     "is_this_ptr" : true,
     "referenced_type" : "_ZTIPN7android8hardware4gnss4V2_124IGnssMeasurementCallbackE"
    },
    {
     "referenced_type" : "_ZTIRKN7android8hardware11hidl_handleE"
    },
    {
     "referenced_type" : "_ZTIRKN7android8hardware8hidl_vecINS0_11hidl_stringEEE"
    }
   ],
   "return_type" : "_ZTIN7android8hardware6ReturnIvEE",
   "source_file" : "/out/soong/.intermediates/hardware/interfaces/gnss/2.1/android.hardware.gnss@2.1_genc++_headers/gen/android/hardware/gnss/2.1/IGnssMeasurementCallback.h"
  },
  {
   "function_name" : "android::hardware::gnss::V2_1::IGnssMeasurementCallback::castFrom",
   "linker_set_key" : "_ZN7android8hardware4gnss4V2_124IGnssMeasurementCallback8castFromERKNS_2spINS1_4V1_024IGnssMeasurementCallbackEEEb",
   "parameters" :
   [
    {
     "referenced_type" : "_ZTIRKN7android2spINS_8hardware4gnss4V1_024IGnssMeasurementCallbackEEE"
    },
    {
     "default_arg" : true,
     "referenced_type" : "_ZTIb"
    }
   ],
   "return_type" : "_ZTIN7android8hardware6ReturnINS_2spINS0_4gnss4V2_124IGnssMeasurementCallbackEEEEE",
   "source_file" : "/out/soong/.intermediates/hardware/interfaces/gnss/2.1/android.hardware.gnss@2.1_genc++_headers/gen/android/hardware/gnss/2.1/IGnssMeasurementCallback.h"
  },
  {
   "function_name" : "android::hardware::gnss::V2_1::IGnssMeasurementCallback::castFrom",
   "linker_set_key" : "_ZN7android8hardware4gnss4V2_124IGnssMeasurementCallback8castFromERKNS_2spINS1_4V1_124IGnssMeasurementCallbackEEEb",
   "parameters" :
   [
    {
     "referenced_type" : "_ZTIRKN7android2spINS_8hardware4gnss4V1_124IGnssMeasurementCallbackEEE"
    },
    {
     "default_arg" : true,
     "referenced_type" : "_ZTIb"
    }
   ],
   "return_type" : "_ZTIN7android8hardware6ReturnINS_2spINS0_4gnss4V2_124IGnssMeasurementCallbackEEEEE",
   "source_file" : "/out/soong/.intermediates/hardware/interfaces/gnss/2.1/android.hardware.gnss@2.1_genc++_headers/gen/android/hardware/gnss/2.1/IGnssMeasurementCallback.h"
  },
  {
   "function_name" : "android::hardware::gnss::V2_1::IGnssMeasurementCallback::castFrom",
   "linker_set_key" : "_ZN7android8hardware4gnss4V2_124IGnssMeasurementCallback8castFromERKNS_2spINS1_4V2_024IGnssMeasurementCallbackEEEb",
   "parameters" :
   [
    {
     "referenced_type" : "_ZTIRKN7android2spINS_8hardware4gnss4V2_024IGnssMeasurementCallbackEEE"
    },
    {
     "default_arg" : true,
     "referenced_type" : "_ZTIb"
    }
   ],
   "return_type" : "_ZTIN7android8hardware6ReturnINS_2spINS0_4gnss4V2_124IGnssMeasurementCallbackEEEEE",
   "source_file" : "/out/soong/.intermediates/hardware/interfaces/gnss/2.1/android.hardware.gnss@2.1_genc++_headers/gen/android/hardware/gnss/2.1/IGnssMeasurementCallback.h"
  },
  {
   "function_name" : "android::hardware::gnss::V2_1::IGnssMeasurementCallback::castFrom",
   "linker_set_key" : "_ZN7android8hardware4gnss4V2_124IGnssMeasurementCallback8castFromERKNS_2spINS_4hidl4base4V1_05IBaseEEEb",
   "parameters" :
   [
    {
     "referenced_type" : "_ZTIRKN7android2spINS_4hidl4base4V1_05IBaseEEE"
    },
    {
     "default_arg" : true,
     "referenced_type" : "_ZTIb"
    }
   ],
   "return_type" : "_ZTIN7android8hardware6ReturnINS_2spINS0_4gnss4V2_124IGnssMeasurementCallbackEEEEE",
   "source_file" : "/out/soong/.intermediates/hardware/interfaces/gnss/2.1/android.hardware.gnss@2.1_genc++_headers/gen/android/hardware/gnss/2.1/IGnssMeasurementCallback.h"
  },
  {
   "function_name" : "android::hardware::gnss::V2_1::IGnssMeasurementCallback::castFrom",
   "linker_set_key" : "_ZN7android8hardware4gnss4V2_124IGnssMeasurementCallback8castFromERKNS_2spIS3_EEb",
   "parameters" :
   [
    {
     "referenced_type" : "_ZTIRKN7android2spINS_8hardware4gnss4V2_124IGnssMeasurementCallbackEEE"
    },
    {
     "default_arg" : true,
     "referenced_type" : "_ZTIb"
    }
   ],
   "return_type" : "_ZTIN7android8hardware6ReturnINS_2spINS0_4gnss4V2_124IGnssMeasurementCallbackEEEEE",
   "source_file" : "/out/soong/.intermediates/hardware/interfaces/gnss/2.1/android.hardware.gnss@2.1_genc++_headers/gen/android/hardware/gnss/2.1/IGnssMeasurementCallback.h"
  },
  {
   "access" : "private",
   "function_name" : "android::hardware::gnss::V2_1::BsGnssAntennaInfoCallback::addOnewayTask",
   "linker_set_key" : "_ZN7android8hardware4gnss4V2_125BsGnssAntennaInfoCallback13addOnewayTaskENSt3__18functionIFvvEEE",
   "parameters" :
   [
    {
     "is_this_ptr" : true,
     "referenced_type" : "_ZTIPN7android8hardware4gnss4V2_125BsGnssAntennaInfoCallbackE"
    },
    {
     "referenced_type" : "_ZTINSt3__18functionIFvvEEE"
    }
   ],
   "return_type" : "_ZTIN7android8hardware6ReturnIvEE",
   "source_file" : "/out/soong/.intermediates/hardware/interfaces/gnss/2.1/android.hardware.gnss@2.1_genc++_headers/gen/android/hardware/gnss/2.1/BsGnssAntennaInfoCallback.h"
  },
  {
   "function_name" : "android::hardware::gnss::V2_1::BsGnssAntennaInfoCallback::BsGnssAntennaInfoCallback",
   "linker_set_key" : "_ZN7android8hardware4gnss4V2_125BsGnssAntennaInfoCallbackC1ENS_2spINS2_24IGnssAntennaInfoCallbackEEE",
   "parameters" :
   [
    {
     "is_this_ptr" : true,
     "referenced_type" : "_ZTIPN7android8hardware4gnss4V2_125BsGnssAntennaInfoCallbackE"
    },
    {
     "referenced_type" : "_ZTIKN7android2spINS_8hardware4gnss4V2_124IGnssAntennaInfoCallbackEEE"
    }
   ],
   "return_type" : "_ZTIv",
   "source_file" : "/out/soong/.intermediates/hardware/interfaces/gnss/2.1/android.hardware.gnss@2.1_genc++_headers/gen/android/hardware/gnss/2.1/BsGnssAntennaInfoCallback.h"
  },
  {
   "function_name" : "android::hardware::gnss::V2_1::BsGnssAntennaInfoCallback::BsGnssAntennaInfoCallback",
   "linker_set_key" : "_ZN7android8hardware4gnss4V2_125BsGnssAntennaInfoCallbackC2ENS_2spINS2_24IGnssAntennaInfoCallbackEEE",
   "parameters" :
   [
    {
     "is_this_ptr" : true,
     "referenced_type" : "_ZTIPN7android8hardware4gnss4V2_125BsGnssAntennaInfoCallbackE"
    },
    {
     "referenced_type" : "_ZTIKN7android2spINS_8hardware4gnss4V2_124IGnssAntennaInfoCallbackEEE"
    }
   ],
   "return_type" : "_ZTIv",
   "source_file" : "/out/soong/.intermediates/hardware/interfaces/gnss/2.1/android.hardware.gnss@2.1_genc++_headers/gen/android/hardware/gnss/2.1/BsGnssAntennaInfoCallback.h"
  },
  {
   "access" : "private",
   "function_name" : "android::hardware::gnss::V2_1::BsGnssMeasurementCallback::addOnewayTask",
   "linker_set_key" : "_ZN7android8hardware4gnss4V2_125BsGnssMeasurementCallback13addOnewayTaskENSt3__18functionIFvvEEE",
   "parameters" :
   [
    {
     "is_this_ptr" : true,
     "referenced_type" : "_ZTIPN7android8hardware4gnss4V2_125BsGnssMeasurementCallbackE"
    },
    {
     "referenced_type" : "_ZTINSt3__18functionIFvvEEE"
    }
   ],
   "return_type" : "_ZTIN7android8hardware6ReturnIvEE",
   "source_file" : "/out/soong/.intermediates/hardware/interfaces/gnss/2.1/android.hardware.gnss@2.1_genc++_headers/gen/android/hardware/gnss/2.1/BsGnssMeasurementCallback.h"
  },
  {
   "function_name" : "android::hardware::gnss::V2_1::BsGnssMeasurementCallback::BsGnssMeasurementCallback",
   "linker_set_key" : "_ZN7android8hardware4gnss4V2_125BsGnssMeasurementCallbackC1ENS_2spINS2_24IGnssMeasurementCallbackEEE",
   "parameters" :
   [
    {
     "is_this_ptr" : true,
     "referenced_type" : "_ZTIPN7android8hardware4gnss4V2_125BsGnssMeasurementCallbackE"
    },
    {
     "referenced_type" : "_ZTIKN7android2spINS_8hardware4gnss4V2_124IGnssMeasurementCallbackEEE"
    }
   ],
   "return_type" : "_ZTIv",
   "source_file" : "/out/soong/.intermediates/hardware/interfaces/gnss/2.1/android.hardware.gnss@2.1_genc++_headers/gen/android/hardware/gnss/2.1/BsGnssMeasurementCallback.h"
  },
  {
   "function_name" : "android::hardware::gnss::V2_1::BsGnssMeasurementCallback::BsGnssMeasurementCallback",
   "linker_set_key" : "_ZN7android8hardware4gnss4V2_125BsGnssMeasurementCallbackC2ENS_2spINS2_24IGnssMeasurementCallbackEEE",
   "parameters" :
   [
    {
     "is_this_ptr" : true,
     "referenced_type" : "_ZTIPN7android8hardware4gnss4V2_125BsGnssMeasurementCallbackE"
    },
    {
     "referenced_type" : "_ZTIKN7android2spINS_8hardware4gnss4V2_124IGnssMeasurementCallbackEEE"
    }
   ],
   "return_type" : "_ZTIv",
   "source_file" : "/out/soong/.intermediates/hardware/interfaces/gnss/2.1/android.hardware.gnss@2.1_genc++_headers/gen/android/hardware/gnss/2.1/BsGnssMeasurementCallback.h"
  },
  {
   "function_name" : "android::hardware::gnss::V2_1::BnHwGnssAntennaInfoCallback::onTransact",
   "linker_set_key" : "_ZN7android8hardware4gnss4V2_127BnHwGnssAntennaInfoCallback10onTransactEjRKNS0_6ParcelEPS4_jNSt3__18functionIFvRS4_EEE",
   "parameters" :
   [
    {
     "is_this_ptr" : true,
     "referenced_type" : "_ZTIPN7android8hardware4gnss4V2_127BnHwGnssAntennaInfoCallbackE"
    },
    {
     "referenced_type" : "_ZTIj"
    },
    {
     "referenced_type" : "_ZTIRKN7android8hardware6ParcelE"
    },
    {
     "referenced_type" : "_ZTIPN7android8hardware6ParcelE"
    },
    {
     "default_arg" : true,
     "referenced_type" : "_ZTIj"
    },
    {
     "default_arg" : true,
     "referenced_type" : "_ZTINSt3__18functionIFvRN7android8hardware6ParcelEEEE"
    }
   ],
   "return_type" : "_ZTIi",
   "source_file" : "/out/soong/.intermediates/hardware/interfaces/gnss/2.1/android.hardware.gnss@2.1_genc++_headers/gen/android/hardware/gnss/2.1/BnHwGnssAntennaInfoCallback.h"
  },
  {
   "access" : "private",
   "function_name" : "android::hardware::gnss::V2_1::BnHwGnssAntennaInfoCallback::getDebugInfo",
   "linker_set_key" : "_ZN7android8hardware4gnss4V2_127BnHwGnssAntennaInfoCallback12getDebugInfoENSt3__18functionIFvRKNS_4hidl4base4V1_09DebugInfoEEEE",
   "parameters" :
   [
    {
     "is_this_ptr" : true,
     "referenced_type" : "_ZTIPN7android8hardware4gnss4V2_127BnHwGnssAntennaInfoCallbackE"
    },
    {
     "referenced_type" : "_ZTINSt3__18functionIFvRKN7android4hidl4base4V1_09DebugInfoEEEE"
    }
   ],
   "return_type" : "_ZTIN7android8hardware6ReturnIvEE",
   "source_file" : "/out/soong/.intermediates/hardware/interfaces/gnss/2.1/android.hardware.gnss@2.1_genc++_headers/gen/android/hardware/gnss/2.1/BnHwGnssAntennaInfoCallback.h"
  },
  {
   "function_name" : "android::hardware::gnss::V2_1::BnHwGnssAntennaInfoCallback::_hidl_gnssAntennaInfoCb",
   "linker_set_key" : "_ZN7android8hardware4gnss4V2_127BnHwGnssAntennaInfoCallback23_hidl_gnssAntennaInfoCbEPNS_4hidl4base4V1_08BnHwBaseERKNS0_6ParcelEPS9_NSt3__18functionIFvRS9_EEE",
   "parameters" :
   [
    {
     "referenced_type" : "_ZTIPN7android4hidl4base4V1_08BnHwBaseE"
    },
    {
     "referenced_type" : "_ZTIRKN7android8hardware6ParcelE"
    },
    {
     "referenced_type" : "_ZTIPN7android8hardware6ParcelE"
    },
    {
     "referenced_type" : "_ZTINSt3__18functionIFvRN7android8hardware6ParcelEEEE"
    }
   ],
   "return_type" : "_ZTIi",
   "source_file" : "/out/soong/.intermediates/hardware/interfaces/gnss/2.1/android.hardware.gnss@2.1_genc++_headers/gen/android/hardware/gnss/2.1/BnHwGnssAntennaInfoCallback.h"
  },
  {
   "access" : "private",
   "function_name" : "android::hardware::gnss::V2_1::BnHwGnssAntennaInfoCallback::ping",
   "linker_set_key" : "_ZN7android8hardware4gnss4V2_127BnHwGnssAntennaInfoCallback4pingEv",
   "parameters" :
   [
    {
     "is_this_ptr" : true,
     "referenced_type" : "_ZTIPN7android8hardware4gnss4V2_127BnHwGnssAntennaInfoCallbackE"
    }
   ],
   "return_type" : "_ZTIN7android8hardware6ReturnIvEE",
   "source_file" : "/out/soong/.intermediates/hardware/interfaces/gnss/2.1/android.hardware.gnss@2.1_genc++_headers/gen/android/hardware/gnss/2.1/BnHwGnssAntennaInfoCallback.h"
  },
  {
   "function_name" : "android::hardware::gnss::V2_1::BnHwGnssAntennaInfoCallback::BnHwGnssAntennaInfoCallback",
   "linker_set_key" : "_ZN7android8hardware4gnss4V2_127BnHwGnssAntennaInfoCallbackC1ERKNS_2spINS2_24IGnssAntennaInfoCallbackEEE",
   "parameters" :
   [
    {
     "is_this_ptr" : true,
     "referenced_type" : "_ZTIPN7android8hardware4gnss4V2_127BnHwGnssAntennaInfoCallbackE"
    },
    {
     "referenced_type" : "_ZTIRKN7android2spINS_8hardware4gnss4V2_124IGnssAntennaInfoCallbackEEE"
    }
   ],
   "return_type" : "_ZTIv",
   "source_file" : "/out/soong/.intermediates/hardware/interfaces/gnss/2.1/android.hardware.gnss@2.1_genc++_headers/gen/android/hardware/gnss/2.1/BnHwGnssAntennaInfoCallback.h"
  },
  {
   "function_name" : "android::hardware::gnss::V2_1::BnHwGnssAntennaInfoCallback::BnHwGnssAntennaInfoCallback",
   "linker_set_key" : "_ZN7android8hardware4gnss4V2_127BnHwGnssAntennaInfoCallbackC2ERKNS_2spINS2_24IGnssAntennaInfoCallbackEEE",
   "parameters" :
   [
    {
     "is_this_ptr" : true,
     "referenced_type" : "_ZTIPN7android8hardware4gnss4V2_127BnHwGnssAntennaInfoCallbackE"
    },
    {
     "referenced_type" : "_ZTIRKN7android2spINS_8hardware4gnss4V2_124IGnssAntennaInfoCallbackEEE"
    }
   ],
   "return_type" : "_ZTIv",
   "source_file" : "/out/soong/.intermediates/hardware/interfaces/gnss/2.1/android.hardware.gnss@2.1_genc++_headers/gen/android/hardware/gnss/2.1/BnHwGnssAntennaInfoCallback.h"
  },
  {
   "function_name" : "android::hardware::gnss::V2_1::BnHwGnssAntennaInfoCallback::~BnHwGnssAntennaInfoCallback",
   "linker_set_key" : "_ZN7android8hardware4gnss4V2_127BnHwGnssAntennaInfoCallbackD0Ev",
   "parameters" :
   [
    {
     "is_this_ptr" : true,
     "referenced_type" : "_ZTIPN7android8hardware4gnss4V2_127BnHwGnssAntennaInfoCallbackE"
    }
   ],
   "return_type" : "_ZTIv",
   "source_file" : "/out/soong/.intermediates/hardware/interfaces/gnss/2.1/android.hardware.gnss@2.1_genc++_headers/gen/android/hardware/gnss/2.1/BnHwGnssAntennaInfoCallback.h"
  },
  {
   "function_name" : "android::hardware::gnss::V2_1::BnHwGnssAntennaInfoCallback::~BnHwGnssAntennaInfoCallback",
   "linker_set_key" : "_ZN7android8hardware4gnss4V2_127BnHwGnssAntennaInfoCallbackD1Ev",
   "parameters" :
   [
    {
     "is_this_ptr" : true,
     "referenced_type" : "_ZTIPN7android8hardware4gnss4V2_127BnHwGnssAntennaInfoCallbackE"
    }
   ],
   "return_type" : "_ZTIv",
   "source_file" : "/out/soong/.intermediates/hardware/interfaces/gnss/2.1/android.hardware.gnss@2.1_genc++_headers/gen/android/hardware/gnss/2.1/BnHwGnssAntennaInfoCallback.h"
  },
  {
   "function_name" : "android::hardware::gnss::V2_1::BnHwGnssAntennaInfoCallback::~BnHwGnssAntennaInfoCallback",
   "linker_set_key" : "_ZN7android8hardware4gnss4V2_127BnHwGnssAntennaInfoCallbackD2Ev",
   "parameters" :
   [
    {
     "is_this_ptr" : true,
     "referenced_type" : "_ZTIPN7android8hardware4gnss4V2_127BnHwGnssAntennaInfoCallbackE"
    }
   ],
   "return_type" : "_ZTIv",
   "source_file" : "/out/soong/.intermediates/hardware/interfaces/gnss/2.1/android.hardware.gnss@2.1_genc++_headers/gen/android/hardware/gnss/2.1/BnHwGnssAntennaInfoCallback.h"
  },
  {
   "function_name" : "android::hardware::gnss::V2_1::BnHwGnssMeasurementCallback::onTransact",
   "linker_set_key" : "_ZN7android8hardware4gnss4V2_127BnHwGnssMeasurementCallback10onTransactEjRKNS0_6ParcelEPS4_jNSt3__18functionIFvRS4_EEE",
   "parameters" :
   [
    {
     "is_this_ptr" : true,
     "referenced_type" : "_ZTIPN7android8hardware4gnss4V2_127BnHwGnssMeasurementCallbackE"
    },
    {
     "referenced_type" : "_ZTIj"
    },
    {
     "referenced_type" : "_ZTIRKN7android8hardware6ParcelE"
    },
    {
     "referenced_type" : "_ZTIPN7android8hardware6ParcelE"
    },
    {
     "default_arg" : true,
     "referenced_type" : "_ZTIj"
    },
    {
     "default_arg" : true,
     "referenced_type" : "_ZTINSt3__18functionIFvRN7android8hardware6ParcelEEEE"
    }
   ],
   "return_type" : "_ZTIi",
   "source_file" : "/out/soong/.intermediates/hardware/interfaces/gnss/2.1/android.hardware.gnss@2.1_genc++_headers/gen/android/hardware/gnss/2.1/BnHwGnssMeasurementCallback.h"
  },
  {
   "access" : "private",
   "function_name" : "android::hardware::gnss::V2_1::BnHwGnssMeasurementCallback::getDebugInfo",
   "linker_set_key" : "_ZN7android8hardware4gnss4V2_127BnHwGnssMeasurementCallback12getDebugInfoENSt3__18functionIFvRKNS_4hidl4base4V1_09DebugInfoEEEE",
   "parameters" :
   [
    {
     "is_this_ptr" : true,
     "referenced_type" : "_ZTIPN7android8hardware4gnss4V2_127BnHwGnssMeasurementCallbackE"
    },
    {
     "referenced_type" : "_ZTINSt3__18functionIFvRKN7android4hidl4base4V1_09DebugInfoEEEE"
    }
   ],
   "return_type" : "_ZTIN7android8hardware6ReturnIvEE",
   "source_file" : "/out/soong/.intermediates/hardware/interfaces/gnss/2.1/android.hardware.gnss@2.1_genc++_headers/gen/android/hardware/gnss/2.1/BnHwGnssMeasurementCallback.h"
  },
  {
   "function_name" : "android::hardware::gnss::V2_1::BnHwGnssMeasurementCallback::_hidl_gnssMeasurementCb_2_1",
   "linker_set_key" : "_ZN7android8hardware4gnss4V2_127BnHwGnssMeasurementCallback27_hidl_gnssMeasurementCb_2_1EPNS_4hidl4base4V1_08BnHwBaseERKNS0_6ParcelEPS9_NSt3__18functionIFvRS9_EEE",
   "parameters" :
   [
    {
     "referenced_type" : "_ZTIPN7android4hidl4base4V1_08BnHwBaseE"
    },
    {
     "referenced_type" : "_ZTIRKN7android8hardware6ParcelE"
    },
    {
     "referenced_type" : "_ZTIPN7android8hardware6ParcelE"
    },
    {
     "referenced_type" : "_ZTINSt3__18functionIFvRN7android8hardware6ParcelEEEE"
    }
   ],
   "return_type" : "_ZTIi",
   "source_file" : "/out/soong/.intermediates/hardware/interfaces/gnss/2.1/android.hardware.gnss@2.1_genc++_headers/gen/android/hardware/gnss/2.1/BnHwGnssMeasurementCallback.h"
  },
  {
   "access" : "private",
   "function_name" : "android::hardware::gnss::V2_1::BnHwGnssMeasurementCallback::ping",
   "linker_set_key" : "_ZN7android8hardware4gnss4V2_127BnHwGnssMeasurementCallback4pingEv",
   "parameters" :
   [
    {
     "is_this_ptr" : true,
     "referenced_type" : "_ZTIPN7android8hardware4gnss4V2_127BnHwGnssMeasurementCallbackE"
    }
   ],
   "return_type" : "_ZTIN7android8hardware6ReturnIvEE",
   "source_file" : "/out/soong/.intermediates/hardware/interfaces/gnss/2.1/android.hardware.gnss@2.1_genc++_headers/gen/android/hardware/gnss/2.1/BnHwGnssMeasurementCallback.h"
  },
  {
   "function_name" : "android::hardware::gnss::V2_1::BnHwGnssMeasurementCallback::BnHwGnssMeasurementCallback",
   "linker_set_key" : "_ZN7android8hardware4gnss4V2_127BnHwGnssMeasurementCallbackC1ERKNS_2spINS2_24IGnssMeasurementCallbackEEE",
   "parameters" :
   [
    {
     "is_this_ptr" : true,
     "referenced_type" : "_ZTIPN7android8hardware4gnss4V2_127BnHwGnssMeasurementCallbackE"
    },
    {
     "referenced_type" : "_ZTIRKN7android2spINS_8hardware4gnss4V2_124IGnssMeasurementCallbackEEE"
    }
   ],
   "return_type" : "_ZTIv",
   "source_file" : "/out/soong/.intermediates/hardware/interfaces/gnss/2.1/android.hardware.gnss@2.1_genc++_headers/gen/android/hardware/gnss/2.1/BnHwGnssMeasurementCallback.h"
  },
  {
   "function_name" : "android::hardware::gnss::V2_1::BnHwGnssMeasurementCallback::BnHwGnssMeasurementCallback",
   "linker_set_key" : "_ZN7android8hardware4gnss4V2_127BnHwGnssMeasurementCallbackC2ERKNS_2spINS2_24IGnssMeasurementCallbackEEE",
   "parameters" :
   [
    {
     "is_this_ptr" : true,
     "referenced_type" : "_ZTIPN7android8hardware4gnss4V2_127BnHwGnssMeasurementCallbackE"
    },
    {
     "referenced_type" : "_ZTIRKN7android2spINS_8hardware4gnss4V2_124IGnssMeasurementCallbackEEE"
    }
   ],
   "return_type" : "_ZTIv",
   "source_file" : "/out/soong/.intermediates/hardware/interfaces/gnss/2.1/android.hardware.gnss@2.1_genc++_headers/gen/android/hardware/gnss/2.1/BnHwGnssMeasurementCallback.h"
  },
  {
   "function_name" : "android::hardware::gnss::V2_1::BnHwGnssMeasurementCallback::~BnHwGnssMeasurementCallback",
   "linker_set_key" : "_ZN7android8hardware4gnss4V2_127BnHwGnssMeasurementCallbackD0Ev",
   "parameters" :
   [
    {
     "is_this_ptr" : true,
     "referenced_type" : "_ZTIPN7android8hardware4gnss4V2_127BnHwGnssMeasurementCallbackE"
    }
   ],
   "return_type" : "_ZTIv",
   "source_file" : "/out/soong/.intermediates/hardware/interfaces/gnss/2.1/android.hardware.gnss@2.1_genc++_headers/gen/android/hardware/gnss/2.1/BnHwGnssMeasurementCallback.h"
  },
  {
   "function_name" : "android::hardware::gnss::V2_1::BnHwGnssMeasurementCallback::~BnHwGnssMeasurementCallback",
   "linker_set_key" : "_ZN7android8hardware4gnss4V2_127BnHwGnssMeasurementCallbackD1Ev",
   "parameters" :
   [
    {
     "is_this_ptr" : true,
     "referenced_type" : "_ZTIPN7android8hardware4gnss4V2_127BnHwGnssMeasurementCallbackE"
    }
   ],
   "return_type" : "_ZTIv",
   "source_file" : "/out/soong/.intermediates/hardware/interfaces/gnss/2.1/android.hardware.gnss@2.1_genc++_headers/gen/android/hardware/gnss/2.1/BnHwGnssMeasurementCallback.h"
  },
  {
   "function_name" : "android::hardware::gnss::V2_1::BnHwGnssMeasurementCallback::~BnHwGnssMeasurementCallback",
   "linker_set_key" : "_ZN7android8hardware4gnss4V2_127BnHwGnssMeasurementCallbackD2Ev",
   "parameters" :
   [
    {
     "is_this_ptr" : true,
     "referenced_type" : "_ZTIPN7android8hardware4gnss4V2_127BnHwGnssMeasurementCallbackE"
    }
   ],
   "return_type" : "_ZTIv",
   "source_file" : "/out/soong/.intermediates/hardware/interfaces/gnss/2.1/android.hardware.gnss@2.1_genc++_headers/gen/android/hardware/gnss/2.1/BnHwGnssMeasurementCallback.h"
  },
  {
   "function_name" : "android::hardware::gnss::V2_1::BpHwGnssAntennaInfoCallback::linkToDeath",
   "linker_set_key" : "_ZN7android8hardware4gnss4V2_127BpHwGnssAntennaInfoCallback11linkToDeathERKNS_2spINS0_20hidl_death_recipientEEEm",
   "parameters" :
   [
    {
     "is_this_ptr" : true,
     "referenced_type" : "_ZTIPN7android8hardware4gnss4V2_127BpHwGnssAntennaInfoCallbackE"
    },
    {
     "referenced_type" : "_ZTIRKN7android2spINS_8hardware20hidl_death_recipientEEE"
    },
    {
     "referenced_type" : "_ZTIm"
    }
   ],
   "return_type" : "_ZTIN7android8hardware6ReturnIbEE",
   "source_file" : "/out/soong/.intermediates/hardware/interfaces/gnss/2.1/android.hardware.gnss@2.1_genc++_headers/gen/android/hardware/gnss/2.1/BpHwGnssAntennaInfoCallback.h"
  },
  {
   "function_name" : "android::hardware::gnss::V2_1::BpHwGnssAntennaInfoCallback::getDebugInfo",
   "linker_set_key" : "_ZN7android8hardware4gnss4V2_127BpHwGnssAntennaInfoCallback12getDebugInfoENSt3__18functionIFvRKNS_4hidl4base4V1_09DebugInfoEEEE",
   "parameters" :
   [
    {
     "is_this_ptr" : true,
     "referenced_type" : "_ZTIPN7android8hardware4gnss4V2_127BpHwGnssAntennaInfoCallbackE"
    },
    {
     "referenced_type" : "_ZTINSt3__18functionIFvRKN7android4hidl4base4V1_09DebugInfoEEEE"
    }
   ],
   "return_type" : "_ZTIN7android8hardware6ReturnIvEE",
   "source_file" : "/out/soong/.intermediates/hardware/interfaces/gnss/2.1/android.hardware.gnss@2.1_genc++_headers/gen/android/hardware/gnss/2.1/BpHwGnssAntennaInfoCallback.h"
  },
  {
   "function_name" : "android::hardware::gnss::V2_1::BpHwGnssAntennaInfoCallback::getHashChain",
   "linker_set_key" : "_ZN7android8hardware4gnss4V2_127BpHwGnssAntennaInfoCallback12getHashChainENSt3__18functionIFvRKNS0_8hidl_vecINS0_10hidl_arrayIhLm32EJEEEEEEEE",
   "parameters" :
   [
    {
     "is_this_ptr" : true,
     "referenced_type" : "_ZTIPN7android8hardware4gnss4V2_127BpHwGnssAntennaInfoCallbackE"
    },
    {
     "referenced_type" : "_ZTINSt3__18functionIFvRKN7android8hardware8hidl_vecINS2_10hidl_arrayIhLm32EJEEEEEEEE"
    }
   ],
   "return_type" : "_ZTIN7android8hardware6ReturnIvEE",
   "source_file" : "/out/soong/.intermediates/hardware/interfaces/gnss/2.1/android.hardware.gnss@2.1_genc++_headers/gen/android/hardware/gnss/2.1/BpHwGnssAntennaInfoCallback.h"
  },
  {
   "function_name" : "android::hardware::gnss::V2_1::BpHwGnssAntennaInfoCallback::unlinkToDeath",
   "linker_set_key" : "_ZN7android8hardware4gnss4V2_127BpHwGnssAntennaInfoCallback13unlinkToDeathERKNS_2spINS0_20hidl_death_recipientEEE",
   "parameters" :
   [
    {
     "is_this_ptr" : true,
     "referenced_type" : "_ZTIPN7android8hardware4gnss4V2_127BpHwGnssAntennaInfoCallbackE"
    },
    {
     "referenced_type" : "_ZTIRKN7android2spINS_8hardware20hidl_death_recipientEEE"
    }
   ],
   "return_type" : "_ZTIN7android8hardware6ReturnIbEE",
   "source_file" : "/out/soong/.intermediates/hardware/interfaces/gnss/2.1/android.hardware.gnss@2.1_genc++_headers/gen/android/hardware/gnss/2.1/BpHwGnssAntennaInfoCallback.h"
  },
  {
   "function_name" : "android::hardware::gnss::V2_1::BpHwGnssAntennaInfoCallback::interfaceChain",
   "linker_set_key" : "_ZN7android8hardware4gnss4V2_127BpHwGnssAntennaInfoCallback14interfaceChainENSt3__18functionIFvRKNS0_8hidl_vecINS0_11hidl_stringEEEEEE",
   "parameters" :
   [
    {
     "is_this_ptr" : true,
     "referenced_type" : "_ZTIPN7android8hardware4gnss4V2_127BpHwGnssAntennaInfoCallbackE"
    },
    {
     "referenced_type" : "_ZTINSt3__18functionIFvRKN7android8hardware8hidl_vecINS2_11hidl_stringEEEEEE"
    }
   ],
   "return_type" : "_ZTIN7android8hardware6ReturnIvEE",
   "source_file" : "/out/soong/.intermediates/hardware/interfaces/gnss/2.1/android.hardware.gnss@2.1_genc++_headers/gen/android/hardware/gnss/2.1/BpHwGnssAntennaInfoCallback.h"
  },
  {
   "function_name" : "android::hardware::gnss::V2_1::BpHwGnssAntennaInfoCallback::onLastStrongRef",
   "linker_set_key" : "_ZN7android8hardware4gnss4V2_127BpHwGnssAntennaInfoCallback15onLastStrongRefEPKv",
   "parameters" :
   [
    {
     "is_this_ptr" : true,
     "referenced_type" : "_ZTIPN7android8hardware4gnss4V2_127BpHwGnssAntennaInfoCallbackE"
    },
    {
     "referenced_type" : "_ZTIPKv"
    }
   ],
   "return_type" : "_ZTIv",
   "source_file" : "/out/soong/.intermediates/hardware/interfaces/gnss/2.1/android.hardware.gnss@2.1_genc++_headers/gen/android/hardware/gnss/2.1/BpHwGnssAntennaInfoCallback.h"
  },
  {
   "function_name" : "android::hardware::gnss::V2_1::BpHwGnssAntennaInfoCallback::gnssAntennaInfoCb",
   "linker_set_key" : "_ZN7android8hardware4gnss4V2_127BpHwGnssAntennaInfoCallback17gnssAntennaInfoCbERKNS0_8hidl_vecINS2_24IGnssAntennaInfoCallback15GnssAntennaInfoEEE",
   "parameters" :
   [
    {
     "is_this_ptr" : true,
     "referenced_type" : "_ZTIPN7android8hardware4gnss4V2_127BpHwGnssAntennaInfoCallbackE"
    },
    {
     "referenced_type" : "_ZTIRKN7android8hardware8hidl_vecINS0_4gnss4V2_124IGnssAntennaInfoCallback15GnssAntennaInfoEEE"
    }
   ],
   "return_type" : "_ZTIN7android8hardware6ReturnIvEE",
   "source_file" : "/out/soong/.intermediates/hardware/interfaces/gnss/2.1/android.hardware.gnss@2.1_genc++_headers/gen/android/hardware/gnss/2.1/BpHwGnssAntennaInfoCallback.h"
  },
  {
   "function_name" : "android::hardware::gnss::V2_1::BpHwGnssAntennaInfoCallback::interfaceDescriptor",
   "linker_set_key" : "_ZN7android8hardware4gnss4V2_127BpHwGnssAntennaInfoCallback19interfaceDescriptorENSt3__18functionIFvRKNS0_11hidl_stringEEEE",
   "parameters" :
   [
    {
     "is_this_ptr" : true,
     "referenced_type" : "_ZTIPN7android8hardware4gnss4V2_127BpHwGnssAntennaInfoCallbackE"
    },
    {
     "referenced_type" : "_ZTINSt3__18functionIFvRKN7android8hardware11hidl_stringEEEE"
    }
   ],
   "return_type" : "_ZTIN7android8hardware6ReturnIvEE",
   "source_file" : "/out/soong/.intermediates/hardware/interfaces/gnss/2.1/android.hardware.gnss@2.1_genc++_headers/gen/android/hardware/gnss/2.1/BpHwGnssAntennaInfoCallback.h"
  },
  {
   "function_name" : "android::hardware::gnss::V2_1::BpHwGnssAntennaInfoCallback::notifySyspropsChanged",
   "linker_set_key" : "_ZN7android8hardware4gnss4V2_127BpHwGnssAntennaInfoCallback21notifySyspropsChangedEv",
   "parameters" :
   [
    {
     "is_this_ptr" : true,
     "referenced_type" : "_ZTIPN7android8hardware4gnss4V2_127BpHwGnssAntennaInfoCallbackE"
    }
   ],
   "return_type" : "_ZTIN7android8hardware6ReturnIvEE",
   "source_file" : "/out/soong/.intermediates/hardware/interfaces/gnss/2.1/android.hardware.gnss@2.1_genc++_headers/gen/android/hardware/gnss/2.1/BpHwGnssAntennaInfoCallback.h"
  },
  {
   "function_name" : "android::hardware::gnss::V2_1::BpHwGnssAntennaInfoCallback::setHALInstrumentation",
   "linker_set_key" : "_ZN7android8hardware4gnss4V2_127BpHwGnssAntennaInfoCallback21setHALInstrumentationEv",
   "parameters" :
   [
    {
     "is_this_ptr" : true,
     "referenced_type" : "_ZTIPN7android8hardware4gnss4V2_127BpHwGnssAntennaInfoCallbackE"
    }
   ],
   "return_type" : "_ZTIN7android8hardware6ReturnIvEE",
   "source_file" : "/out/soong/.intermediates/hardware/interfaces/gnss/2.1/android.hardware.gnss@2.1_genc++_headers/gen/android/hardware/gnss/2.1/BpHwGnssAntennaInfoCallback.h"
  },
  {
   "function_name" : "android::hardware::gnss::V2_1::BpHwGnssAntennaInfoCallback::_hidl_gnssAntennaInfoCb",
   "linker_set_key" : "_ZN7android8hardware4gnss4V2_127BpHwGnssAntennaInfoCallback23_hidl_gnssAntennaInfoCbEPNS0_10IInterfaceEPNS0_7details16HidlInstrumentorERKNS0_8hidl_vecINS2_24IGnssAntennaInfoCallback15GnssAntennaInfoEEE",
   "parameters" :
   [
    {
     "referenced_type" : "_ZTIPN7android8hardware10IInterfaceE"
    },
    {
     "referenced_type" : "_ZTIPN7android8hardware7details16HidlInstrumentorE"
    },
    {
     "referenced_type" : "_ZTIRKN7android8hardware8hidl_vecINS0_4gnss4V2_124IGnssAntennaInfoCallback15GnssAntennaInfoEEE"
    }
   ],
   "return_type" : "_ZTIN7android8hardware6ReturnIvEE",
   "source_file" : "/out/soong/.intermediates/hardware/interfaces/gnss/2.1/android.hardware.gnss@2.1_genc++_headers/gen/android/hardware/gnss/2.1/BpHwGnssAntennaInfoCallback.h"
  },
  {
   "function_name" : "android::hardware::gnss::V2_1::BpHwGnssAntennaInfoCallback::ping",
   "linker_set_key" : "_ZN7android8hardware4gnss4V2_127BpHwGnssAntennaInfoCallback4pingEv",
   "parameters" :
   [
    {
     "is_this_ptr" : true,
     "referenced_type" : "_ZTIPN7android8hardware4gnss4V2_127BpHwGnssAntennaInfoCallbackE"
    }
   ],
   "return_type" : "_ZTIN7android8hardware6ReturnIvEE",
   "source_file" : "/out/soong/.intermediates/hardware/interfaces/gnss/2.1/android.hardware.gnss@2.1_genc++_headers/gen/android/hardware/gnss/2.1/BpHwGnssAntennaInfoCallback.h"
  },
  {
   "function_name" : "android::hardware::gnss::V2_1::BpHwGnssAntennaInfoCallback::debug",
   "linker_set_key" : "_ZN7android8hardware4gnss4V2_127BpHwGnssAntennaInfoCallback5debugERKNS0_11hidl_handleERKNS0_8hidl_vecINS0_11hidl_stringEEE",
   "parameters" :
   [
    {
     "is_this_ptr" : true,
     "referenced_type" : "_ZTIPN7android8hardware4gnss4V2_127BpHwGnssAntennaInfoCallbackE"
    },
    {
     "referenced_type" : "_ZTIRKN7android8hardware11hidl_handleE"
    },
    {
     "referenced_type" : "_ZTIRKN7android8hardware8hidl_vecINS0_11hidl_stringEEE"
    }
   ],
   "return_type" : "_ZTIN7android8hardware6ReturnIvEE",
   "source_file" : "/out/soong/.intermediates/hardware/interfaces/gnss/2.1/android.hardware.gnss@2.1_genc++_headers/gen/android/hardware/gnss/2.1/BpHwGnssAntennaInfoCallback.h"
  },
  {
   "function_name" : "android::hardware::gnss::V2_1::BpHwGnssAntennaInfoCallback::BpHwGnssAntennaInfoCallback",
   "linker_set_key" : "_ZN7android8hardware4gnss4V2_127BpHwGnssAntennaInfoCallbackC1ERKNS_2spINS0_7IBinderEEE",
   "parameters" :
   [
    {
     "is_this_ptr" : true,
     "referenced_type" : "_ZTIPN7android8hardware4gnss4V2_127BpHwGnssAntennaInfoCallbackE"
    },
    {
     "referenced_type" : "_ZTIRKN7android2spINS_8hardware7IBinderEEE"
    }
   ],
   "return_type" : "_ZTIv",
   "source_file" : "/out/soong/.intermediates/hardware/interfaces/gnss/2.1/android.hardware.gnss@2.1_genc++_headers/gen/android/hardware/gnss/2.1/BpHwGnssAntennaInfoCallback.h"
  },
  {
   "function_name" : "android::hardware::gnss::V2_1::BpHwGnssAntennaInfoCallback::BpHwGnssAntennaInfoCallback",
   "linker_set_key" : "_ZN7android8hardware4gnss4V2_127BpHwGnssAntennaInfoCallbackC2ERKNS_2spINS0_7IBinderEEE",
   "parameters" :
   [
    {
     "is_this_ptr" : true,
     "referenced_type" : "_ZTIPN7android8hardware4gnss4V2_127BpHwGnssAntennaInfoCallbackE"
    },
    {
     "referenced_type" : "_ZTIRKN7android2spINS_8hardware7IBinderEEE"
    }
   ],
   "return_type" : "_ZTIv",
   "source_file" : "/out/soong/.intermediates/hardware/interfaces/gnss/2.1/android.hardware.gnss@2.1_genc++_headers/gen/android/hardware/gnss/2.1/BpHwGnssAntennaInfoCallback.h"
  },
  {
   "function_name" : "android::hardware::gnss::V2_1::BpHwGnssMeasurementCallback::linkToDeath",
   "linker_set_key" : "_ZN7android8hardware4gnss4V2_127BpHwGnssMeasurementCallback11linkToDeathERKNS_2spINS0_20hidl_death_recipientEEEm",
   "parameters" :
   [
    {
     "is_this_ptr" : true,
     "referenced_type" : "_ZTIPN7android8hardware4gnss4V2_127BpHwGnssMeasurementCallbackE"
    },
    {
     "referenced_type" : "_ZTIRKN7android2spINS_8hardware20hidl_death_recipientEEE"
    },
    {
     "referenced_type" : "_ZTIm"
    }
   ],
   "return_type" : "_ZTIN7android8hardware6ReturnIbEE",
   "source_file" : "/out/soong/.intermediates/hardware/interfaces/gnss/2.1/android.hardware.gnss@2.1_genc++_headers/gen/android/hardware/gnss/2.1/BpHwGnssMeasurementCallback.h"
  },
  {
   "function_name" : "android::hardware::gnss::V2_1::BpHwGnssMeasurementCallback::getDebugInfo",
   "linker_set_key" : "_ZN7android8hardware4gnss4V2_127BpHwGnssMeasurementCallback12getDebugInfoENSt3__18functionIFvRKNS_4hidl4base4V1_09DebugInfoEEEE",
   "parameters" :
   [
    {
     "is_this_ptr" : true,
     "referenced_type" : "_ZTIPN7android8hardware4gnss4V2_127BpHwGnssMeasurementCallbackE"
    },
    {
     "referenced_type" : "_ZTINSt3__18functionIFvRKN7android4hidl4base4V1_09DebugInfoEEEE"
    }
   ],
   "return_type" : "_ZTIN7android8hardware6ReturnIvEE",
   "source_file" : "/out/soong/.intermediates/hardware/interfaces/gnss/2.1/android.hardware.gnss@2.1_genc++_headers/gen/android/hardware/gnss/2.1/BpHwGnssMeasurementCallback.h"
  },
  {
   "function_name" : "android::hardware::gnss::V2_1::BpHwGnssMeasurementCallback::getHashChain",
   "linker_set_key" : "_ZN7android8hardware4gnss4V2_127BpHwGnssMeasurementCallback12getHashChainENSt3__18functionIFvRKNS0_8hidl_vecINS0_10hidl_arrayIhLm32EJEEEEEEEE",
   "parameters" :
   [
    {
     "is_this_ptr" : true,
     "referenced_type" : "_ZTIPN7android8hardware4gnss4V2_127BpHwGnssMeasurementCallbackE"
    },
    {
     "referenced_type" : "_ZTINSt3__18functionIFvRKN7android8hardware8hidl_vecINS2_10hidl_arrayIhLm32EJEEEEEEEE"
    }
   ],
   "return_type" : "_ZTIN7android8hardware6ReturnIvEE",
   "source_file" : "/out/soong/.intermediates/hardware/interfaces/gnss/2.1/android.hardware.gnss@2.1_genc++_headers/gen/android/hardware/gnss/2.1/BpHwGnssMeasurementCallback.h"
  },
  {
   "function_name" : "android::hardware::gnss::V2_1::BpHwGnssMeasurementCallback::unlinkToDeath",
   "linker_set_key" : "_ZN7android8hardware4gnss4V2_127BpHwGnssMeasurementCallback13unlinkToDeathERKNS_2spINS0_20hidl_death_recipientEEE",
   "parameters" :
   [
    {
     "is_this_ptr" : true,
     "referenced_type" : "_ZTIPN7android8hardware4gnss4V2_127BpHwGnssMeasurementCallbackE"
    },
    {
     "referenced_type" : "_ZTIRKN7android2spINS_8hardware20hidl_death_recipientEEE"
    }
   ],
   "return_type" : "_ZTIN7android8hardware6ReturnIbEE",
   "source_file" : "/out/soong/.intermediates/hardware/interfaces/gnss/2.1/android.hardware.gnss@2.1_genc++_headers/gen/android/hardware/gnss/2.1/BpHwGnssMeasurementCallback.h"
  },
  {
   "function_name" : "android::hardware::gnss::V2_1::BpHwGnssMeasurementCallback::interfaceChain",
   "linker_set_key" : "_ZN7android8hardware4gnss4V2_127BpHwGnssMeasurementCallback14interfaceChainENSt3__18functionIFvRKNS0_8hidl_vecINS0_11hidl_stringEEEEEE",
   "parameters" :
   [
    {
     "is_this_ptr" : true,
     "referenced_type" : "_ZTIPN7android8hardware4gnss4V2_127BpHwGnssMeasurementCallbackE"
    },
    {
     "referenced_type" : "_ZTINSt3__18functionIFvRKN7android8hardware8hidl_vecINS2_11hidl_stringEEEEEE"
    }
   ],
   "return_type" : "_ZTIN7android8hardware6ReturnIvEE",
   "source_file" : "/out/soong/.intermediates/hardware/interfaces/gnss/2.1/android.hardware.gnss@2.1_genc++_headers/gen/android/hardware/gnss/2.1/BpHwGnssMeasurementCallback.h"
  },
  {
   "function_name" : "android::hardware::gnss::V2_1::BpHwGnssMeasurementCallback::onLastStrongRef",
   "linker_set_key" : "_ZN7android8hardware4gnss4V2_127BpHwGnssMeasurementCallback15onLastStrongRefEPKv",
   "parameters" :
   [
    {
     "is_this_ptr" : true,
     "referenced_type" : "_ZTIPN7android8hardware4gnss4V2_127BpHwGnssMeasurementCallbackE"
    },
    {
     "referenced_type" : "_ZTIPKv"
    }
   ],
   "return_type" : "_ZTIv",
   "source_file" : "/out/soong/.intermediates/hardware/interfaces/gnss/2.1/android.hardware.gnss@2.1_genc++_headers/gen/android/hardware/gnss/2.1/BpHwGnssMeasurementCallback.h"
  },
  {
   "function_name" : "android::hardware::gnss::V2_1::BpHwGnssMeasurementCallback::GnssMeasurementCb",
   "linker_set_key" : "_ZN7android8hardware4gnss4V2_127BpHwGnssMeasurementCallback17GnssMeasurementCbERKNS1_4V1_024IGnssMeasurementCallback8GnssDataE",
   "parameters" :
   [
    {
     "is_this_ptr" : true,
     "referenced_type" : "_ZTIPN7android8hardware4gnss4V2_127BpHwGnssMeasurementCallbackE"
    },
    {
     "referenced_type" : "_ZTIRKN7android8hardware4gnss4V1_024IGnssMeasurementCallback8GnssDataE"
    }
   ],
   "return_type" : "_ZTIN7android8hardware6ReturnIvEE",
   "source_file" : "/out/soong/.intermediates/hardware/interfaces/gnss/2.1/android.hardware.gnss@2.1_genc++_headers/gen/android/hardware/gnss/2.1/BpHwGnssMeasurementCallback.h"
  },
  {
   "function_name" : "android::hardware::gnss::V2_1::BpHwGnssMeasurementCallback::gnssMeasurementCb",
   "linker_set_key" : "_ZN7android8hardware4gnss4V2_127BpHwGnssMeasurementCallback17gnssMeasurementCbERKNS1_4V1_124IGnssMeasurementCallback8GnssDataE",
   "parameters" :
   [
    {
     "is_this_ptr" : true,
     "referenced_type" : "_ZTIPN7android8hardware4gnss4V2_127BpHwGnssMeasurementCallbackE"
    },
    {
     "referenced_type" : "_ZTIRKN7android8hardware4gnss4V1_124IGnssMeasurementCallback8GnssDataE"
    }
   ],
   "return_type" : "_ZTIN7android8hardware6ReturnIvEE",
   "source_file" : "/out/soong/.intermediates/hardware/interfaces/gnss/2.1/android.hardware.gnss@2.1_genc++_headers/gen/android/hardware/gnss/2.1/BpHwGnssMeasurementCallback.h"
  },
  {
   "function_name" : "android::hardware::gnss::V2_1::BpHwGnssMeasurementCallback::interfaceDescriptor",
   "linker_set_key" : "_ZN7android8hardware4gnss4V2_127BpHwGnssMeasurementCallback19interfaceDescriptorENSt3__18functionIFvRKNS0_11hidl_stringEEEE",
   "parameters" :
   [
    {
     "is_this_ptr" : true,
     "referenced_type" : "_ZTIPN7android8hardware4gnss4V2_127BpHwGnssMeasurementCallbackE"
    },
    {
     "referenced_type" : "_ZTINSt3__18functionIFvRKN7android8hardware11hidl_stringEEEE"
    }
   ],
   "return_type" : "_ZTIN7android8hardware6ReturnIvEE",
   "source_file" : "/out/soong/.intermediates/hardware/interfaces/gnss/2.1/android.hardware.gnss@2.1_genc++_headers/gen/android/hardware/gnss/2.1/BpHwGnssMeasurementCallback.h"
  },
  {
   "function_name" : "android::hardware::gnss::V2_1::BpHwGnssMeasurementCallback::gnssMeasurementCb_2_0",
   "linker_set_key" : "_ZN7android8hardware4gnss4V2_127BpHwGnssMeasurementCallback21gnssMeasurementCb_2_0ERKNS1_4V2_024IGnssMeasurementCallback8GnssDataE",
   "parameters" :
   [
    {
     "is_this_ptr" : true,
     "referenced_type" : "_ZTIPN7android8hardware4gnss4V2_127BpHwGnssMeasurementCallbackE"
    },
    {
     "referenced_type" : "_ZTIRKN7android8hardware4gnss4V2_024IGnssMeasurementCallback8GnssDataE"
    }
   ],
   "return_type" : "_ZTIN7android8hardware6ReturnIvEE",
   "source_file" : "/out/soong/.intermediates/hardware/interfaces/gnss/2.1/android.hardware.gnss@2.1_genc++_headers/gen/android/hardware/gnss/2.1/BpHwGnssMeasurementCallback.h"
  },
  {
   "function_name" : "android::hardware::gnss::V2_1::BpHwGnssMeasurementCallback::gnssMeasurementCb_2_1",
   "linker_set_key" : "_ZN7android8hardware4gnss4V2_127BpHwGnssMeasurementCallback21gnssMeasurementCb_2_1ERKNS2_24IGnssMeasurementCallback8GnssDataE",
   "parameters" :
   [
    {
     "is_this_ptr" : true,
     "referenced_type" : "_ZTIPN7android8hardware4gnss4V2_127BpHwGnssMeasurementCallbackE"
    },
    {
     "referenced_type" : "_ZTIRKN7android8hardware4gnss4V2_124IGnssMeasurementCallback8GnssDataE"
    }
   ],
   "return_type" : "_ZTIN7android8hardware6ReturnIvEE",
   "source_file" : "/out/soong/.intermediates/hardware/interfaces/gnss/2.1/android.hardware.gnss@2.1_genc++_headers/gen/android/hardware/gnss/2.1/BpHwGnssMeasurementCallback.h"
  },
  {
   "function_name" : "android::hardware::gnss::V2_1::BpHwGnssMeasurementCallback::notifySyspropsChanged",
   "linker_set_key" : "_ZN7android8hardware4gnss4V2_127BpHwGnssMeasurementCallback21notifySyspropsChangedEv",
   "parameters" :
   [
    {
     "is_this_ptr" : true,
     "referenced_type" : "_ZTIPN7android8hardware4gnss4V2_127BpHwGnssMeasurementCallbackE"
    }
   ],
   "return_type" : "_ZTIN7android8hardware6ReturnIvEE",
   "source_file" : "/out/soong/.intermediates/hardware/interfaces/gnss/2.1/android.hardware.gnss@2.1_genc++_headers/gen/android/hardware/gnss/2.1/BpHwGnssMeasurementCallback.h"
  },
  {
   "function_name" : "android::hardware::gnss::V2_1::BpHwGnssMeasurementCallback::setHALInstrumentation",
   "linker_set_key" : "_ZN7android8hardware4gnss4V2_127BpHwGnssMeasurementCallback21setHALInstrumentationEv",
   "parameters" :
   [
    {
     "is_this_ptr" : true,
     "referenced_type" : "_ZTIPN7android8hardware4gnss4V2_127BpHwGnssMeasurementCallbackE"
    }
   ],
   "return_type" : "_ZTIN7android8hardware6ReturnIvEE",
   "source_file" : "/out/soong/.intermediates/hardware/interfaces/gnss/2.1/android.hardware.gnss@2.1_genc++_headers/gen/android/hardware/gnss/2.1/BpHwGnssMeasurementCallback.h"
  },
  {
   "function_name" : "android::hardware::gnss::V2_1::BpHwGnssMeasurementCallback::_hidl_gnssMeasurementCb_2_1",
   "linker_set_key" : "_ZN7android8hardware4gnss4V2_127BpHwGnssMeasurementCallback27_hidl_gnssMeasurementCb_2_1EPNS0_10IInterfaceEPNS0_7details16HidlInstrumentorERKNS2_24IGnssMeasurementCallback8GnssDataE",
   "parameters" :
   [
    {
     "referenced_type" : "_ZTIPN7android8hardware10IInterfaceE"
    },
    {
     "referenced_type" : "_ZTIPN7android8hardware7details16HidlInstrumentorE"
    },
    {
     "referenced_type" : "_ZTIRKN7android8hardware4gnss4V2_124IGnssMeasurementCallback8GnssDataE"
    }
   ],
   "return_type" : "_ZTIN7android8hardware6ReturnIvEE",
   "source_file" : "/out/soong/.intermediates/hardware/interfaces/gnss/2.1/android.hardware.gnss@2.1_genc++_headers/gen/android/hardware/gnss/2.1/BpHwGnssMeasurementCallback.h"
  },
  {
   "function_name" : "android::hardware::gnss::V2_1::BpHwGnssMeasurementCallback::ping",
   "linker_set_key" : "_ZN7android8hardware4gnss4V2_127BpHwGnssMeasurementCallback4pingEv",
   "parameters" :
   [
    {
     "is_this_ptr" : true,
     "referenced_type" : "_ZTIPN7android8hardware4gnss4V2_127BpHwGnssMeasurementCallbackE"
    }
   ],
   "return_type" : "_ZTIN7android8hardware6ReturnIvEE",
   "source_file" : "/out/soong/.intermediates/hardware/interfaces/gnss/2.1/android.hardware.gnss@2.1_genc++_headers/gen/android/hardware/gnss/2.1/BpHwGnssMeasurementCallback.h"
  },
  {
   "function_name" : "android::hardware::gnss::V2_1::BpHwGnssMeasurementCallback::debug",
   "linker_set_key" : "_ZN7android8hardware4gnss4V2_127BpHwGnssMeasurementCallback5debugERKNS0_11hidl_handleERKNS0_8hidl_vecINS0_11hidl_stringEEE",
   "parameters" :
   [
    {
     "is_this_ptr" : true,
     "referenced_type" : "_ZTIPN7android8hardware4gnss4V2_127BpHwGnssMeasurementCallbackE"
    },
    {
     "referenced_type" : "_ZTIRKN7android8hardware11hidl_handleE"
    },
    {
     "referenced_type" : "_ZTIRKN7android8hardware8hidl_vecINS0_11hidl_stringEEE"
    }
   ],
   "return_type" : "_ZTIN7android8hardware6ReturnIvEE",
   "source_file" : "/out/soong/.intermediates/hardware/interfaces/gnss/2.1/android.hardware.gnss@2.1_genc++_headers/gen/android/hardware/gnss/2.1/BpHwGnssMeasurementCallback.h"
  },
  {
   "function_name" : "android::hardware::gnss::V2_1::BpHwGnssMeasurementCallback::BpHwGnssMeasurementCallback",
   "linker_set_key" : "_ZN7android8hardware4gnss4V2_127BpHwGnssMeasurementCallbackC1ERKNS_2spINS0_7IBinderEEE",
   "parameters" :
   [
    {
     "is_this_ptr" : true,
     "referenced_type" : "_ZTIPN7android8hardware4gnss4V2_127BpHwGnssMeasurementCallbackE"
    },
    {
     "referenced_type" : "_ZTIRKN7android2spINS_8hardware7IBinderEEE"
    }
   ],
   "return_type" : "_ZTIv",
   "source_file" : "/out/soong/.intermediates/hardware/interfaces/gnss/2.1/android.hardware.gnss@2.1_genc++_headers/gen/android/hardware/gnss/2.1/BpHwGnssMeasurementCallback.h"
  },
  {
   "function_name" : "android::hardware::gnss::V2_1::BpHwGnssMeasurementCallback::BpHwGnssMeasurementCallback",
   "linker_set_key" : "_ZN7android8hardware4gnss4V2_127BpHwGnssMeasurementCallbackC2ERKNS_2spINS0_7IBinderEEE",
   "parameters" :
   [
    {
     "is_this_ptr" : true,
     "referenced_type" : "_ZTIPN7android8hardware4gnss4V2_127BpHwGnssMeasurementCallbackE"
    },
    {
     "referenced_type" : "_ZTIRKN7android2spINS_8hardware7IBinderEEE"
    }
   ],
   "return_type" : "_ZTIv",
   "source_file" : "/out/soong/.intermediates/hardware/interfaces/gnss/2.1/android.hardware.gnss@2.1_genc++_headers/gen/android/hardware/gnss/2.1/BpHwGnssMeasurementCallback.h"
  },
  {
   "function_name" : "android::hardware::gnss::V2_1::IGnss::getService",
   "linker_set_key" : "_ZN7android8hardware4gnss4V2_15IGnss10getServiceERKNSt3__112basic_stringIcNS4_11char_traitsIcEENS4_9allocatorIcEEEEb",
   "parameters" :
   [
    {
     "default_arg" : true,
     "referenced_type" : "_ZTIRKNSt3__112basic_stringIcNS_11char_traitsIcEENS_9allocatorIcEEEE"
    },
    {
     "default_arg" : true,
     "referenced_type" : "_ZTIb"
    }
   ],
   "return_type" : "_ZTIN7android2spINS_8hardware4gnss4V2_15IGnssEEE",
   "source_file" : "/out/soong/.intermediates/hardware/interfaces/gnss/2.1/android.hardware.gnss@2.1_genc++_headers/gen/android/hardware/gnss/2.1/IGnss.h"
  },
  {
   "function_name" : "android::hardware::gnss::V2_1::IGnss::linkToDeath",
   "linker_set_key" : "_ZN7android8hardware4gnss4V2_15IGnss11linkToDeathERKNS_2spINS0_20hidl_death_recipientEEEm",
   "parameters" :
   [
    {
     "is_this_ptr" : true,
     "referenced_type" : "_ZTIPN7android8hardware4gnss4V2_15IGnssE"
    },
    {
     "referenced_type" : "_ZTIRKN7android2spINS_8hardware20hidl_death_recipientEEE"
    },
    {
     "referenced_type" : "_ZTIm"
    }
   ],
   "return_type" : "_ZTIN7android8hardware6ReturnIbEE",
   "source_file" : "/out/soong/.intermediates/hardware/interfaces/gnss/2.1/android.hardware.gnss@2.1_genc++_headers/gen/android/hardware/gnss/2.1/IGnss.h"
  },
  {
   "function_name" : "android::hardware::gnss::V2_1::IGnss::getDebugInfo",
   "linker_set_key" : "_ZN7android8hardware4gnss4V2_15IGnss12getDebugInfoENSt3__18functionIFvRKNS_4hidl4base4V1_09DebugInfoEEEE",
   "parameters" :
   [
    {
     "is_this_ptr" : true,
     "referenced_type" : "_ZTIPN7android8hardware4gnss4V2_15IGnssE"
    },
    {
     "referenced_type" : "_ZTINSt3__18functionIFvRKN7android4hidl4base4V1_09DebugInfoEEEE"
    }
   ],
   "return_type" : "_ZTIN7android8hardware6ReturnIvEE",
   "source_file" : "/out/soong/.intermediates/hardware/interfaces/gnss/2.1/android.hardware.gnss@2.1_genc++_headers/gen/android/hardware/gnss/2.1/IGnss.h"
  },
  {
   "function_name" : "android::hardware::gnss::V2_1::IGnss::getHashChain",
   "linker_set_key" : "_ZN7android8hardware4gnss4V2_15IGnss12getHashChainENSt3__18functionIFvRKNS0_8hidl_vecINS0_10hidl_arrayIhLm32EJEEEEEEEE",
   "parameters" :
   [
    {
     "is_this_ptr" : true,
     "referenced_type" : "_ZTIPN7android8hardware4gnss4V2_15IGnssE"
    },
    {
     "referenced_type" : "_ZTINSt3__18functionIFvRKN7android8hardware8hidl_vecINS2_10hidl_arrayIhLm32EJEEEEEEEE"
    }
   ],
   "return_type" : "_ZTIN7android8hardware6ReturnIvEE",
   "source_file" : "/out/soong/.intermediates/hardware/interfaces/gnss/2.1/android.hardware.gnss@2.1_genc++_headers/gen/android/hardware/gnss/2.1/IGnss.h"
  },
  {
   "function_name" : "android::hardware::gnss::V2_1::IGnss::tryGetService",
   "linker_set_key" : "_ZN7android8hardware4gnss4V2_15IGnss13tryGetServiceERKNSt3__112basic_stringIcNS4_11char_traitsIcEENS4_9allocatorIcEEEEb",
   "parameters" :
   [
    {
     "default_arg" : true,
     "referenced_type" : "_ZTIRKNSt3__112basic_stringIcNS_11char_traitsIcEENS_9allocatorIcEEEE"
    },
    {
     "default_arg" : true,
     "referenced_type" : "_ZTIb"
    }
   ],
   "return_type" : "_ZTIN7android2spINS_8hardware4gnss4V2_15IGnssEEE",
   "source_file" : "/out/soong/.intermediates/hardware/interfaces/gnss/2.1/android.hardware.gnss@2.1_genc++_headers/gen/android/hardware/gnss/2.1/IGnss.h"
  },
  {
   "function_name" : "android::hardware::gnss::V2_1::IGnss::unlinkToDeath",
   "linker_set_key" : "_ZN7android8hardware4gnss4V2_15IGnss13unlinkToDeathERKNS_2spINS0_20hidl_death_recipientEEE",
   "parameters" :
   [
    {
     "is_this_ptr" : true,
     "referenced_type" : "_ZTIPN7android8hardware4gnss4V2_15IGnssE"
    },
    {
     "referenced_type" : "_ZTIRKN7android2spINS_8hardware20hidl_death_recipientEEE"
    }
   ],
   "return_type" : "_ZTIN7android8hardware6ReturnIbEE",
   "source_file" : "/out/soong/.intermediates/hardware/interfaces/gnss/2.1/android.hardware.gnss@2.1_genc++_headers/gen/android/hardware/gnss/2.1/IGnss.h"
  },
  {
   "function_name" : "android::hardware::gnss::V2_1::IGnss::interfaceChain",
   "linker_set_key" : "_ZN7android8hardware4gnss4V2_15IGnss14interfaceChainENSt3__18functionIFvRKNS0_8hidl_vecINS0_11hidl_stringEEEEEE",
   "parameters" :
   [
    {
     "is_this_ptr" : true,
     "referenced_type" : "_ZTIPN7android8hardware4gnss4V2_15IGnssE"
    },
    {
     "referenced_type" : "_ZTINSt3__18functionIFvRKN7android8hardware8hidl_vecINS2_11hidl_stringEEEEEE"
    }
   ],
   "return_type" : "_ZTIN7android8hardware6ReturnIvEE",
   "source_file" : "/out/soong/.intermediates/hardware/interfaces/gnss/2.1/android.hardware.gnss@2.1_genc++_headers/gen/android/hardware/gnss/2.1/IGnss.h"
  },
  {
   "function_name" : "android::hardware::gnss::V2_1::IGnss::registerAsService",
   "linker_set_key" : "_ZN7android8hardware4gnss4V2_15IGnss17registerAsServiceERKNSt3__112basic_stringIcNS4_11char_traitsIcEENS4_9allocatorIcEEEE",
   "parameters" :
   [
    {
     "is_this_ptr" : true,
     "referenced_type" : "_ZTIPN7android8hardware4gnss4V2_15IGnssE"
    },
    {
     "default_arg" : true,
     "referenced_type" : "_ZTIRKNSt3__112basic_stringIcNS_11char_traitsIcEENS_9allocatorIcEEEE"
    }
   ],
   "return_type" : "_ZTIi",
   "source_file" : "/out/soong/.intermediates/hardware/interfaces/gnss/2.1/android.hardware.gnss@2.1_genc++_headers/gen/android/hardware/gnss/2.1/IGnss.h"
  },
  {
   "function_name" : "android::hardware::gnss::V2_1::IGnss::interfaceDescriptor",
   "linker_set_key" : "_ZN7android8hardware4gnss4V2_15IGnss19interfaceDescriptorENSt3__18functionIFvRKNS0_11hidl_stringEEEE",
   "parameters" :
   [
    {
     "is_this_ptr" : true,
     "referenced_type" : "_ZTIPN7android8hardware4gnss4V2_15IGnssE"
    },
    {
     "referenced_type" : "_ZTINSt3__18functionIFvRKN7android8hardware11hidl_stringEEEE"
    }
   ],
   "return_type" : "_ZTIN7android8hardware6ReturnIvEE",
   "source_file" : "/out/soong/.intermediates/hardware/interfaces/gnss/2.1/android.hardware.gnss@2.1_genc++_headers/gen/android/hardware/gnss/2.1/IGnss.h"
  },
  {
   "function_name" : "android::hardware::gnss::V2_1::IGnss::notifySyspropsChanged",
   "linker_set_key" : "_ZN7android8hardware4gnss4V2_15IGnss21notifySyspropsChangedEv",
   "parameters" :
   [
    {
     "is_this_ptr" : true,
     "referenced_type" : "_ZTIPN7android8hardware4gnss4V2_15IGnssE"
    }
   ],
   "return_type" : "_ZTIN7android8hardware6ReturnIvEE",
   "source_file" : "/out/soong/.intermediates/hardware/interfaces/gnss/2.1/android.hardware.gnss@2.1_genc++_headers/gen/android/hardware/gnss/2.1/IGnss.h"
  },
  {
   "function_name" : "android::hardware::gnss::V2_1::IGnss::setHALInstrumentation",
   "linker_set_key" : "_ZN7android8hardware4gnss4V2_15IGnss21setHALInstrumentationEv",
   "parameters" :
   [
    {
     "is_this_ptr" : true,
     "referenced_type" : "_ZTIPN7android8hardware4gnss4V2_15IGnssE"
    }
   ],
   "return_type" : "_ZTIN7android8hardware6ReturnIvEE",
   "source_file" : "/out/soong/.intermediates/hardware/interfaces/gnss/2.1/android.hardware.gnss@2.1_genc++_headers/gen/android/hardware/gnss/2.1/IGnss.h"
  },
  {
   "function_name" : "android::hardware::gnss::V2_1::IGnss::registerForNotifications",
   "linker_set_key" : "_ZN7android8hardware4gnss4V2_15IGnss24registerForNotificationsERKNSt3__112basic_stringIcNS4_11char_traitsIcEENS4_9allocatorIcEEEERKNS_2spINS_4hidl7manager4V1_020IServiceNotificationEEE",
   "parameters" :
   [
    {
     "referenced_type" : "_ZTIRKNSt3__112basic_stringIcNS_11char_traitsIcEENS_9allocatorIcEEEE"
    },
    {
     "referenced_type" : "_ZTIRKN7android2spINS_4hidl7manager4V1_020IServiceNotificationEEE"
    }
   ],
   "return_type" : "_ZTIb",
   "source_file" : "/out/soong/.intermediates/hardware/interfaces/gnss/2.1/android.hardware.gnss@2.1_genc++_headers/gen/android/hardware/gnss/2.1/IGnss.h"
  },
  {
   "function_name" : "android::hardware::gnss::V2_1::IGnss::ping",
   "linker_set_key" : "_ZN7android8hardware4gnss4V2_15IGnss4pingEv",
   "parameters" :
   [
    {
     "is_this_ptr" : true,
     "referenced_type" : "_ZTIPN7android8hardware4gnss4V2_15IGnssE"
    }
   ],
   "return_type" : "_ZTIN7android8hardware6ReturnIvEE",
   "source_file" : "/out/soong/.intermediates/hardware/interfaces/gnss/2.1/android.hardware.gnss@2.1_genc++_headers/gen/android/hardware/gnss/2.1/IGnss.h"
  },
  {
   "function_name" : "android::hardware::gnss::V2_1::IGnss::debug",
   "linker_set_key" : "_ZN7android8hardware4gnss4V2_15IGnss5debugERKNS0_11hidl_handleERKNS0_8hidl_vecINS0_11hidl_stringEEE",
   "parameters" :
   [
    {
     "is_this_ptr" : true,
     "referenced_type" : "_ZTIPN7android8hardware4gnss4V2_15IGnssE"
    },
    {
     "referenced_type" : "_ZTIRKN7android8hardware11hidl_handleE"
    },
    {
     "referenced_type" : "_ZTIRKN7android8hardware8hidl_vecINS0_11hidl_stringEEE"
    }
   ],
   "return_type" : "_ZTIN7android8hardware6ReturnIvEE",
   "source_file" : "/out/soong/.intermediates/hardware/interfaces/gnss/2.1/android.hardware.gnss@2.1_genc++_headers/gen/android/hardware/gnss/2.1/IGnss.h"
  },
  {
   "function_name" : "android::hardware::gnss::V2_1::IGnss::castFrom",
   "linker_set_key" : "_ZN7android8hardware4gnss4V2_15IGnss8castFromERKNS_2spINS1_4V1_05IGnssEEEb",
   "parameters" :
   [
    {
     "referenced_type" : "_ZTIRKN7android2spINS_8hardware4gnss4V1_05IGnssEEE"
    },
    {
     "default_arg" : true,
     "referenced_type" : "_ZTIb"
    }
   ],
   "return_type" : "_ZTIN7android8hardware6ReturnINS_2spINS0_4gnss4V2_15IGnssEEEEE",
   "source_file" : "/out/soong/.intermediates/hardware/interfaces/gnss/2.1/android.hardware.gnss@2.1_genc++_headers/gen/android/hardware/gnss/2.1/IGnss.h"
  },
  {
   "function_name" : "android::hardware::gnss::V2_1::IGnss::castFrom",
   "linker_set_key" : "_ZN7android8hardware4gnss4V2_15IGnss8castFromERKNS_2spINS1_4V1_15IGnssEEEb",
   "parameters" :
   [
    {
     "referenced_type" : "_ZTIRKN7android2spINS_8hardware4gnss4V1_15IGnssEEE"
    },
    {
     "default_arg" : true,
     "referenced_type" : "_ZTIb"
    }
   ],
   "return_type" : "_ZTIN7android8hardware6ReturnINS_2spINS0_4gnss4V2_15IGnssEEEEE",
   "source_file" : "/out/soong/.intermediates/hardware/interfaces/gnss/2.1/android.hardware.gnss@2.1_genc++_headers/gen/android/hardware/gnss/2.1/IGnss.h"
  },
  {
   "function_name" : "android::hardware::gnss::V2_1::IGnss::castFrom",
   "linker_set_key" : "_ZN7android8hardware4gnss4V2_15IGnss8castFromERKNS_2spINS1_4V2_05IGnssEEEb",
   "parameters" :
   [
    {
     "referenced_type" : "_ZTIRKN7android2spINS_8hardware4gnss4V2_05IGnssEEE"
    },
    {
     "default_arg" : true,
     "referenced_type" : "_ZTIb"
    }
   ],
   "return_type" : "_ZTIN7android8hardware6ReturnINS_2spINS0_4gnss4V2_15IGnssEEEEE",
   "source_file" : "/out/soong/.intermediates/hardware/interfaces/gnss/2.1/android.hardware.gnss@2.1_genc++_headers/gen/android/hardware/gnss/2.1/IGnss.h"
  },
  {
   "function_name" : "android::hardware::gnss::V2_1::IGnss::castFrom",
   "linker_set_key" : "_ZN7android8hardware4gnss4V2_15IGnss8castFromERKNS_2spINS_4hidl4base4V1_05IBaseEEEb",
   "parameters" :
   [
    {
     "referenced_type" : "_ZTIRKN7android2spINS_4hidl4base4V1_05IBaseEEE"
    },
    {
     "default_arg" : true,
     "referenced_type" : "_ZTIb"
    }
   ],
   "return_type" : "_ZTIN7android8hardware6ReturnINS_2spINS0_4gnss4V2_15IGnssEEEEE",
   "source_file" : "/out/soong/.intermediates/hardware/interfaces/gnss/2.1/android.hardware.gnss@2.1_genc++_headers/gen/android/hardware/gnss/2.1/IGnss.h"
  },
  {
   "function_name" : "android::hardware::gnss::V2_1::IGnss::castFrom",
   "linker_set_key" : "_ZN7android8hardware4gnss4V2_15IGnss8castFromERKNS_2spIS3_EEb",
   "parameters" :
   [
    {
     "referenced_type" : "_ZTIRKN7android2spINS_8hardware4gnss4V2_15IGnssEEE"
    },
    {
     "default_arg" : true,
     "referenced_type" : "_ZTIb"
    }
   ],
   "return_type" : "_ZTIN7android8hardware6ReturnINS_2spINS0_4gnss4V2_15IGnssEEEEE",
   "source_file" : "/out/soong/.intermediates/hardware/interfaces/gnss/2.1/android.hardware.gnss@2.1_genc++_headers/gen/android/hardware/gnss/2.1/IGnss.h"
  },
  {
   "access" : "private",
   "function_name" : "android::hardware::gnss::V2_1::BsGnss::addOnewayTask",
   "linker_set_key" : "_ZN7android8hardware4gnss4V2_16BsGnss13addOnewayTaskENSt3__18functionIFvvEEE",
   "parameters" :
   [
    {
     "is_this_ptr" : true,
     "referenced_type" : "_ZTIPN7android8hardware4gnss4V2_16BsGnssE"
    },
    {
     "referenced_type" : "_ZTINSt3__18functionIFvvEEE"
    }
   ],
   "return_type" : "_ZTIN7android8hardware6ReturnIvEE",
   "source_file" : "/out/soong/.intermediates/hardware/interfaces/gnss/2.1/android.hardware.gnss@2.1_genc++_headers/gen/android/hardware/gnss/2.1/BsGnss.h"
  },
  {
   "function_name" : "android::hardware::gnss::V2_1::BsGnss::BsGnss",
   "linker_set_key" : "_ZN7android8hardware4gnss4V2_16BsGnssC1ENS_2spINS2_5IGnssEEE",
   "parameters" :
   [
    {
     "is_this_ptr" : true,
     "referenced_type" : "_ZTIPN7android8hardware4gnss4V2_16BsGnssE"
    },
    {
     "referenced_type" : "_ZTIKN7android2spINS_8hardware4gnss4V2_15IGnssEEE"
    }
   ],
   "return_type" : "_ZTIv",
   "source_file" : "/out/soong/.intermediates/hardware/interfaces/gnss/2.1/android.hardware.gnss@2.1_genc++_headers/gen/android/hardware/gnss/2.1/BsGnss.h"
  },
  {
   "function_name" : "android::hardware::gnss::V2_1::BsGnss::BsGnss",
   "linker_set_key" : "_ZN7android8hardware4gnss4V2_16BsGnssC2ENS_2spINS2_5IGnssEEE",
   "parameters" :
   [
    {
     "is_this_ptr" : true,
     "referenced_type" : "_ZTIPN7android8hardware4gnss4V2_16BsGnssE"
    },
    {
     "referenced_type" : "_ZTIKN7android2spINS_8hardware4gnss4V2_15IGnssEEE"
    }
   ],
   "return_type" : "_ZTIv",
   "source_file" : "/out/soong/.intermediates/hardware/interfaces/gnss/2.1/android.hardware.gnss@2.1_genc++_headers/gen/android/hardware/gnss/2.1/BsGnss.h"
  },
  {
   "function_name" : "android::hardware::gnss::V2_1::BnHwGnss::onTransact",
   "linker_set_key" : "_ZN7android8hardware4gnss4V2_18BnHwGnss10onTransactEjRKNS0_6ParcelEPS4_jNSt3__18functionIFvRS4_EEE",
   "parameters" :
   [
    {
     "is_this_ptr" : true,
     "referenced_type" : "_ZTIPN7android8hardware4gnss4V2_18BnHwGnssE"
    },
    {
     "referenced_type" : "_ZTIj"
    },
    {
     "referenced_type" : "_ZTIRKN7android8hardware6ParcelE"
    },
    {
     "referenced_type" : "_ZTIPN7android8hardware6ParcelE"
    },
    {
     "default_arg" : true,
     "referenced_type" : "_ZTIj"
    },
    {
     "default_arg" : true,
     "referenced_type" : "_ZTINSt3__18functionIFvRN7android8hardware6ParcelEEEE"
    }
   ],
   "return_type" : "_ZTIi",
   "source_file" : "/out/soong/.intermediates/hardware/interfaces/gnss/2.1/android.hardware.gnss@2.1_genc++_headers/gen/android/hardware/gnss/2.1/BnHwGnss.h"
  },
  {
   "access" : "private",
   "function_name" : "android::hardware::gnss::V2_1::BnHwGnss::getDebugInfo",
   "linker_set_key" : "_ZN7android8hardware4gnss4V2_18BnHwGnss12getDebugInfoENSt3__18functionIFvRKNS_4hidl4base4V1_09DebugInfoEEEE",
   "parameters" :
   [
    {
     "is_this_ptr" : true,
     "referenced_type" : "_ZTIPN7android8hardware4gnss4V2_18BnHwGnssE"
    },
    {
     "referenced_type" : "_ZTINSt3__18functionIFvRKN7android4hidl4base4V1_09DebugInfoEEEE"
    }
   ],
   "return_type" : "_ZTIN7android8hardware6ReturnIvEE",
   "source_file" : "/out/soong/.intermediates/hardware/interfaces/gnss/2.1/android.hardware.gnss@2.1_genc++_headers/gen/android/hardware/gnss/2.1/BnHwGnss.h"
  },
  {
   "function_name" : "android::hardware::gnss::V2_1::BnHwGnss::_hidl_setCallback_2_1",
   "linker_set_key" : "_ZN7android8hardware4gnss4V2_18BnHwGnss21_hidl_setCallback_2_1EPNS_4hidl4base4V1_08BnHwBaseERKNS0_6ParcelEPS9_NSt3__18functionIFvRS9_EEE",
   "parameters" :
   [
    {
     "referenced_type" : "_ZTIPN7android4hidl4base4V1_08BnHwBaseE"
    },
    {
     "referenced_type" : "_ZTIRKN7android8hardware6ParcelE"
    },
    {
     "referenced_type" : "_ZTIPN7android8hardware6ParcelE"
    },
    {
     "referenced_type" : "_ZTINSt3__18functionIFvRN7android8hardware6ParcelEEEE"
    }
   ],
   "return_type" : "_ZTIi",
   "source_file" : "/out/soong/.intermediates/hardware/interfaces/gnss/2.1/android.hardware.gnss@2.1_genc++_headers/gen/android/hardware/gnss/2.1/BnHwGnss.h"
  },
  {
   "function_name" : "android::hardware::gnss::V2_1::BnHwGnss::_hidl_getExtensionGnssAntennaInfo",
   "linker_set_key" : "_ZN7android8hardware4gnss4V2_18BnHwGnss33_hidl_getExtensionGnssAntennaInfoEPNS_4hidl4base4V1_08BnHwBaseERKNS0_6ParcelEPS9_NSt3__18functionIFvRS9_EEE",
   "parameters" :
   [
    {
     "referenced_type" : "_ZTIPN7android4hidl4base4V1_08BnHwBaseE"
    },
    {
     "referenced_type" : "_ZTIRKN7android8hardware6ParcelE"
    },
    {
     "referenced_type" : "_ZTIPN7android8hardware6ParcelE"
    },
    {
     "referenced_type" : "_ZTINSt3__18functionIFvRN7android8hardware6ParcelEEEE"
    }
   ],
   "return_type" : "_ZTIi",
   "source_file" : "/out/soong/.intermediates/hardware/interfaces/gnss/2.1/android.hardware.gnss@2.1_genc++_headers/gen/android/hardware/gnss/2.1/BnHwGnss.h"
  },
  {
   "function_name" : "android::hardware::gnss::V2_1::BnHwGnss::_hidl_getExtensionGnssMeasurement_2_1",
   "linker_set_key" : "_ZN7android8hardware4gnss4V2_18BnHwGnss37_hidl_getExtensionGnssMeasurement_2_1EPNS_4hidl4base4V1_08BnHwBaseERKNS0_6ParcelEPS9_NSt3__18functionIFvRS9_EEE",
   "parameters" :
   [
    {
     "referenced_type" : "_ZTIPN7android4hidl4base4V1_08BnHwBaseE"
    },
    {
     "referenced_type" : "_ZTIRKN7android8hardware6ParcelE"
    },
    {
     "referenced_type" : "_ZTIPN7android8hardware6ParcelE"
    },
    {
     "referenced_type" : "_ZTINSt3__18functionIFvRN7android8hardware6ParcelEEEE"
    }
   ],
   "return_type" : "_ZTIi",
   "source_file" : "/out/soong/.intermediates/hardware/interfaces/gnss/2.1/android.hardware.gnss@2.1_genc++_headers/gen/android/hardware/gnss/2.1/BnHwGnss.h"
  },
  {
   "function_name" : "android::hardware::gnss::V2_1::BnHwGnss::_hidl_getExtensionGnssConfiguration_2_1",
   "linker_set_key" : "_ZN7android8hardware4gnss4V2_18BnHwGnss39_hidl_getExtensionGnssConfiguration_2_1EPNS_4hidl4base4V1_08BnHwBaseERKNS0_6ParcelEPS9_NSt3__18functionIFvRS9_EEE",
   "parameters" :
   [
    {
     "referenced_type" : "_ZTIPN7android4hidl4base4V1_08BnHwBaseE"
    },
    {
     "referenced_type" : "_ZTIRKN7android8hardware6ParcelE"
    },
    {
     "referenced_type" : "_ZTIPN7android8hardware6ParcelE"
    },
    {
     "referenced_type" : "_ZTINSt3__18functionIFvRN7android8hardware6ParcelEEEE"
    }
   ],
   "return_type" : "_ZTIi",
   "source_file" : "/out/soong/.intermediates/hardware/interfaces/gnss/2.1/android.hardware.gnss@2.1_genc++_headers/gen/android/hardware/gnss/2.1/BnHwGnss.h"
  },
  {
   "function_name" : "android::hardware::gnss::V2_1::BnHwGnss::_hidl_getExtensionMeasurementCorrections_1_1",
   "linker_set_key" : "_ZN7android8hardware4gnss4V2_18BnHwGnss44_hidl_getExtensionMeasurementCorrections_1_1EPNS_4hidl4base4V1_08BnHwBaseERKNS0_6ParcelEPS9_NSt3__18functionIFvRS9_EEE",
   "parameters" :
   [
    {
     "referenced_type" : "_ZTIPN7android4hidl4base4V1_08BnHwBaseE"
    },
    {
     "referenced_type" : "_ZTIRKN7android8hardware6ParcelE"
    },
    {
     "referenced_type" : "_ZTIPN7android8hardware6ParcelE"
    },
    {
     "referenced_type" : "_ZTINSt3__18functionIFvRN7android8hardware6ParcelEEEE"
    }
   ],
   "return_type" : "_ZTIi",
   "source_file" : "/out/soong/.intermediates/hardware/interfaces/gnss/2.1/android.hardware.gnss@2.1_genc++_headers/gen/android/hardware/gnss/2.1/BnHwGnss.h"
  },
  {
   "access" : "private",
   "function_name" : "android::hardware::gnss::V2_1::BnHwGnss::ping",
   "linker_set_key" : "_ZN7android8hardware4gnss4V2_18BnHwGnss4pingEv",
   "parameters" :
   [
    {
     "is_this_ptr" : true,
     "referenced_type" : "_ZTIPN7android8hardware4gnss4V2_18BnHwGnssE"
    }
   ],
   "return_type" : "_ZTIN7android8hardware6ReturnIvEE",
   "source_file" : "/out/soong/.intermediates/hardware/interfaces/gnss/2.1/android.hardware.gnss@2.1_genc++_headers/gen/android/hardware/gnss/2.1/BnHwGnss.h"
  },
  {
   "function_name" : "android::hardware::gnss::V2_1::BnHwGnss::BnHwGnss",
   "linker_set_key" : "_ZN7android8hardware4gnss4V2_18BnHwGnssC1ERKNS_2spINS2_5IGnssEEE",
   "parameters" :
   [
    {
     "is_this_ptr" : true,
     "referenced_type" : "_ZTIPN7android8hardware4gnss4V2_18BnHwGnssE"
    },
    {
     "referenced_type" : "_ZTIRKN7android2spINS_8hardware4gnss4V2_15IGnssEEE"
    }
   ],
   "return_type" : "_ZTIv",
   "source_file" : "/out/soong/.intermediates/hardware/interfaces/gnss/2.1/android.hardware.gnss@2.1_genc++_headers/gen/android/hardware/gnss/2.1/BnHwGnss.h"
  },
  {
   "function_name" : "android::hardware::gnss::V2_1::BnHwGnss::BnHwGnss",
   "linker_set_key" : "_ZN7android8hardware4gnss4V2_18BnHwGnssC2ERKNS_2spINS2_5IGnssEEE",
