{
 "array_types" :
 [
  {
   "linker_set_key" : "_ZTIA_N7android13TypeConverterINS_13DefaultTraitsI12audio_mode_tEEE5TableE",
   "name" : "android::TypeConverter<android::DefaultTraits<audio_mode_t> >::Table []",
   "referenced_type" : "_ZTIN7android13TypeConverterINS_13DefaultTraitsI12audio_mode_tEEE5TableE",
   "self_type" : "_ZTIA_N7android13TypeConverterINS_13DefaultTraitsI12audio_mode_tEEE5TableE",
   "source_file" : "/frameworks/av/media/libmediahelper/include/media/TypeConverter.h"
  },
  {
   "linker_set_key" : "_ZTIA_N7android13TypeConverterINS_13DefaultTraitsI13audio_usage_tEEE5TableE",
   "name" : "android::TypeConverter<android::DefaultTraits<audio_usage_t> >::Table []",
   "referenced_type" : "_ZTIN7android13TypeConverterINS_13DefaultTraitsI13audio_usage_tEEE5TableE",
   "self_type" : "_ZTIA_N7android13TypeConverterINS_13DefaultTraitsI13audio_usage_tEEE5TableE",
   "source_file" : "/frameworks/av/media/libmediahelper/include/media/TypeConverter.h"
  },
  {
   "linker_set_key" : "_ZTIA_N7android13TypeConverterINS_13DefaultTraitsI14audio_format_tEEE5TableE",
   "name" : "android::TypeConverter<android::DefaultTraits<audio_format_t> >::Table []",
   "referenced_type" : "_ZTIN7android13TypeConverterINS_13DefaultTraitsI14audio_format_tEEE5TableE",
   "self_type" : "_ZTIA_N7android13TypeConverterINS_13DefaultTraitsI14audio_format_tEEE5TableE",
   "source_file" : "/frameworks/av/media/libmediahelper/include/media/TypeConverter.h"
  },
  {
   "linker_set_key" : "_ZTIA_N7android13TypeConverterINS_13DefaultTraitsI14audio_source_tEEE5TableE",
   "name" : "android::TypeConverter<android::DefaultTraits<audio_source_t> >::Table []",
   "referenced_type" : "_ZTIN7android13TypeConverterINS_13DefaultTraitsI14audio_source_tEEE5TableE",
   "self_type" : "_ZTIA_N7android13TypeConverterINS_13DefaultTraitsI14audio_source_tEEE5TableE",
   "source_file" : "/frameworks/av/media/libmediahelper/include/media/TypeConverter.h"
  },
  {
   "linker_set_key" : "_ZTIA_N7android13TypeConverterINS_13DefaultTraitsI19audio_input_flags_tEEE5TableE",
   "name" : "android::TypeConverter<android::DefaultTraits<audio_input_flags_t> >::Table []",
   "referenced_type" : "_ZTIN7android13TypeConverterINS_13DefaultTraitsI19audio_input_flags_tEEE5TableE",
   "self_type" : "_ZTIA_N7android13TypeConverterINS_13DefaultTraitsI19audio_input_flags_tEEE5TableE",
   "source_file" : "/frameworks/av/media/libmediahelper/include/media/TypeConverter.h"
  },
  {
   "linker_set_key" : "_ZTIA_N7android13TypeConverterINS_13DefaultTraitsI19audio_stream_type_tEEE5TableE",
   "name" : "android::TypeConverter<android::DefaultTraits<audio_stream_type_t> >::Table []",
   "referenced_type" : "_ZTIN7android13TypeConverterINS_13DefaultTraitsI19audio_stream_type_tEEE5TableE",
   "self_type" : "_ZTIA_N7android13TypeConverterINS_13DefaultTraitsI19audio_stream_type_tEEE5TableE",
   "source_file" : "/frameworks/av/media/libmediahelper/include/media/TypeConverter.h"
  },
  {
   "linker_set_key" : "_ZTIA_N7android13TypeConverterINS_13DefaultTraitsI20audio_content_type_tEEE5TableE",
   "name" : "android::TypeConverter<android::DefaultTraits<audio_content_type_t> >::Table []",
   "referenced_type" : "_ZTIN7android13TypeConverterINS_13DefaultTraitsI20audio_content_type_tEEE5TableE",
   "self_type" : "_ZTIA_N7android13TypeConverterINS_13DefaultTraitsI20audio_content_type_tEEE5TableE",
   "source_file" : "/frameworks/av/media/libmediahelper/include/media/TypeConverter.h"
  },
  {
   "linker_set_key" : "_ZTIA_N7android13TypeConverterINS_13DefaultTraitsI20audio_output_flags_tEEE5TableE",
   "name" : "android::TypeConverter<android::DefaultTraits<audio_output_flags_t> >::Table []",
   "referenced_type" : "_ZTIN7android13TypeConverterINS_13DefaultTraitsI20audio_output_flags_tEEE5TableE",
   "self_type" : "_ZTIA_N7android13TypeConverterINS_13DefaultTraitsI20audio_output_flags_tEEE5TableE",
   "source_file" : "/frameworks/av/media/libmediahelper/include/media/TypeConverter.h"
  },
  {
   "linker_set_key" : "_ZTIA_N7android13TypeConverterINS_13DefaultTraitsIjEEE5TableE",
   "name" : "android::TypeConverter<android::DefaultTraits<unsigned int> >::Table []",
   "referenced_type" : "_ZTIN7android13TypeConverterINS_13DefaultTraitsIjEEE5TableE",
   "self_type" : "_ZTIA_N7android13TypeConverterINS_13DefaultTraitsIjEEE5TableE",
   "source_file" : "/frameworks/av/media/libmediahelper/include/media/TypeConverter.h"
  },
  {
   "linker_set_key" : "_ZTIA_N7android13TypeConverterINS_15AudioFlagTraitsEE5TableE",
   "name" : "android::TypeConverter<android::AudioFlagTraits>::Table []",
   "referenced_type" : "_ZTIN7android13TypeConverterINS_15AudioFlagTraitsEE5TableE",
   "self_type" : "_ZTIA_N7android13TypeConverterINS_15AudioFlagTraitsEE5TableE",
   "source_file" : "/frameworks/av/media/libmediahelper/include/media/TypeConverter.h"
  },
  {
   "linker_set_key" : "_ZTIA_N7android13TypeConverterINS_17InputDeviceTraitsEE5TableE",
   "name" : "android::TypeConverter<android::InputDeviceTraits>::Table []",
   "referenced_type" : "_ZTIN7android13TypeConverterINS_17InputDeviceTraitsEE5TableE",
   "self_type" : "_ZTIA_N7android13TypeConverterINS_17InputDeviceTraitsEE5TableE",
   "source_file" : "/frameworks/av/media/libmediahelper/include/media/TypeConverter.h"
  },
  {
   "linker_set_key" : "_ZTIA_N7android13TypeConverterINS_18ChannelIndexTraitsEE5TableE",
   "name" : "android::TypeConverter<android::ChannelIndexTraits>::Table []",
   "referenced_type" : "_ZTIN7android13TypeConverterINS_18ChannelIndexTraitsEE5TableE",
   "self_type" : "_ZTIA_N7android13TypeConverterINS_18ChannelIndexTraitsEE5TableE",
   "source_file" : "/frameworks/av/media/libmediahelper/include/media/TypeConverter.h"
  },
  {
   "linker_set_key" : "_ZTIA_N7android13TypeConverterINS_18InputChannelTraitsEE5TableE",
   "name" : "android::TypeConverter<android::InputChannelTraits>::Table []",
   "referenced_type" : "_ZTIN7android13TypeConverterINS_18InputChannelTraitsEE5TableE",
   "self_type" : "_ZTIA_N7android13TypeConverterINS_18InputChannelTraitsEE5TableE",
   "source_file" : "/frameworks/av/media/libmediahelper/include/media/TypeConverter.h"
  },
  {
   "linker_set_key" : "_ZTIA_N7android13TypeConverterINS_18OutputDeviceTraitsEE5TableE",
   "name" : "android::TypeConverter<android::OutputDeviceTraits>::Table []",
   "referenced_type" : "_ZTIN7android13TypeConverterINS_18OutputDeviceTraitsEE5TableE",
   "self_type" : "_ZTIA_N7android13TypeConverterINS_18OutputDeviceTraitsEE5TableE",
   "source_file" : "/frameworks/av/media/libmediahelper/include/media/TypeConverter.h"
  },
  {
   "linker_set_key" : "_ZTIA_N7android13TypeConverterINS_19OutputChannelTraitsEE5TableE",
   "name" : "android::TypeConverter<android::OutputChannelTraits>::Table []",
   "referenced_type" : "_ZTIN7android13TypeConverterINS_19OutputChannelTraitsEE5TableE",
   "self_type" : "_ZTIA_N7android13TypeConverterINS_19OutputChannelTraitsEE5TableE",
   "source_file" : "/frameworks/av/media/libmediahelper/include/media/TypeConverter.h"
  }
 ],
 "builtin_types" :
 [
  {
   "alignment" : 1,
   "is_integral" : true,
   "is_unsigned" : true,
   "linker_set_key" : "_ZTIb",
   "name" : "bool",
   "referenced_type" : "_ZTIb",
   "self_type" : "_ZTIb",
   "size" : 1
  },
  {
   "alignment" : 1,
   "is_integral" : true,
   "linker_set_key" : "_ZTIc",
   "name" : "char",
   "referenced_type" : "_ZTIc",
   "self_type" : "_ZTIc",
   "size" : 1
  },
  {
   "alignment" : 8,
   "linker_set_key" : "_ZTId",
   "name" : "double",
   "referenced_type" : "_ZTId",
   "self_type" : "_ZTId",
   "size" : 8
  },
  {
   "alignment" : 4,
   "linker_set_key" : "_ZTIf",
   "name" : "float",
   "referenced_type" : "_ZTIf",
   "self_type" : "_ZTIf",
   "size" : 4
  },
  {
   "alignment" : 4,
   "is_integral" : true,
   "linker_set_key" : "_ZTIi",
   "name" : "int",
   "referenced_type" : "_ZTIi",
   "self_type" : "_ZTIi",
   "size" : 4
  },
  {
   "alignment" : 4,
   "is_integral" : true,
   "is_unsigned" : true,
   "linker_set_key" : "_ZTIj",
   "name" : "unsigned int",
   "referenced_type" : "_ZTIj",
   "self_type" : "_ZTIj",
   "size" : 4
  },
  {
   "alignment" : 8,
   "is_integral" : true,
   "linker_set_key" : "_ZTIl",
   "name" : "long",
   "referenced_type" : "_ZTIl",
   "self_type" : "_ZTIl",
   "size" : 8
  },
  {
   "alignment" : 8,
   "is_integral" : true,
   "is_unsigned" : true,
   "linker_set_key" : "_ZTIm",
   "name" : "unsigned long",
   "referenced_type" : "_ZTIm",
   "self_type" : "_ZTIm",
   "size" : 8
  },
  {
   "alignment" : 2,
   "is_integral" : true,
   "linker_set_key" : "_ZTIs",
   "name" : "short",
   "referenced_type" : "_ZTIs",
   "self_type" : "_ZTIs",
   "size" : 2
  },
  {
   "alignment" : 2,
   "is_integral" : true,
   "is_unsigned" : true,
   "linker_set_key" : "_ZTIt",
   "name" : "unsigned short",
   "referenced_type" : "_ZTIt",
   "self_type" : "_ZTIt",
   "size" : 2
  },
  {
   "linker_set_key" : "_ZTIv",
   "name" : "void",
   "referenced_type" : "_ZTIv",
   "self_type" : "_ZTIv"
  }
 ],
 "elf_functions" :
 [
  {
   "binding" : "weak",
   "name" : "_ZN7android13TypeConverterINS_13DefaultTraitsI12audio_mode_tEEE10fromStringERKNSt3__112basic_stringIcNS5_11char_traitsIcEENS5_9allocatorIcEEEERS2_"
  },
  {
   "binding" : "weak",
   "name" : "_ZN7android13TypeConverterINS_13DefaultTraitsI12audio_mode_tEEE12maskToStringEjRNSt3__112basic_stringIcNS5_11char_traitsIcEENS5_9allocatorIcEEEEPKc"
  },
  {
   "binding" : "weak",
   "name" : "_ZN7android13TypeConverterINS_13DefaultTraitsI12audio_mode_tEEE14maskFromStringERKNSt3__112basic_stringIcNS5_11char_traitsIcEENS5_9allocatorIcEEEEPKc"
  },
  {
   "binding" : "weak",
   "name" : "_ZN7android13TypeConverterINS_13DefaultTraitsI12audio_mode_tEEE20collectionFromStringERKNSt3__112basic_stringIcNS5_11char_traitsIcEENS5_9allocatorIcEEEERNS5_6vectorIS2_NS9_IS2_EEEEPKc"
  },
  {
   "binding" : "weak",
   "name" : "_ZN7android13TypeConverterINS_13DefaultTraitsI12audio_mode_tEEE8toStringERKS2_RNSt3__112basic_stringIcNS7_11char_traitsIcEENS7_9allocatorIcEEEE"
  },
  {
   "binding" : "weak",
   "name" : "_ZN7android13TypeConverterINS_13DefaultTraitsI13audio_usage_tEEE10fromStringERKNSt3__112basic_stringIcNS5_11char_traitsIcEENS5_9allocatorIcEEEERS2_"
  },
  {
   "binding" : "weak",
   "name" : "_ZN7android13TypeConverterINS_13DefaultTraitsI13audio_usage_tEEE12maskToStringEjRNSt3__112basic_stringIcNS5_11char_traitsIcEENS5_9allocatorIcEEEEPKc"
  },
  {
   "binding" : "weak",
   "name" : "_ZN7android13TypeConverterINS_13DefaultTraitsI13audio_usage_tEEE14maskFromStringERKNSt3__112basic_stringIcNS5_11char_traitsIcEENS5_9allocatorIcEEEEPKc"
  },
  {
   "binding" : "weak",
   "name" : "_ZN7android13TypeConverterINS_13DefaultTraitsI13audio_usage_tEEE20collectionFromStringERKNSt3__112basic_stringIcNS5_11char_traitsIcEENS5_9allocatorIcEEEERNS5_6vectorIS2_NS9_IS2_EEEEPKc"
  },
  {
   "binding" : "weak",
   "name" : "_ZN7android13TypeConverterINS_13DefaultTraitsI13audio_usage_tEEE8toStringERKS2_RNSt3__112basic_stringIcNS7_11char_traitsIcEENS7_9allocatorIcEEEE"
  },
  {
   "binding" : "weak",
   "name" : "_ZN7android13TypeConverterINS_13DefaultTraitsI14audio_format_tEEE10fromStringERKNSt3__112basic_stringIcNS5_11char_traitsIcEENS5_9allocatorIcEEEERS2_"
  },
  {
   "binding" : "weak",
   "name" : "_ZN7android13TypeConverterINS_13DefaultTraitsI14audio_format_tEEE12maskToStringEjRNSt3__112basic_stringIcNS5_11char_traitsIcEENS5_9allocatorIcEEEEPKc"
  },
  {
   "binding" : "weak",
   "name" : "_ZN7android13TypeConverterINS_13DefaultTraitsI14audio_format_tEEE14maskFromStringERKNSt3__112basic_stringIcNS5_11char_traitsIcEENS5_9allocatorIcEEEEPKc"
  },
  {
   "binding" : "weak",
   "name" : "_ZN7android13TypeConverterINS_13DefaultTraitsI14audio_format_tEEE20collectionFromStringERKNSt3__112basic_stringIcNS5_11char_traitsIcEENS5_9allocatorIcEEEERNS5_6vectorIS2_NS9_IS2_EEEEPKc"
  },
  {
   "binding" : "weak",
   "name" : "_ZN7android13TypeConverterINS_13DefaultTraitsI14audio_format_tEEE8toStringERKS2_RNSt3__112basic_stringIcNS7_11char_traitsIcEENS7_9allocatorIcEEEE"
  },
  {
   "binding" : "weak",
   "name" : "_ZN7android13TypeConverterINS_13DefaultTraitsI14audio_source_tEEE10fromStringERKNSt3__112basic_stringIcNS5_11char_traitsIcEENS5_9allocatorIcEEEERS2_"
  },
  {
   "binding" : "weak",
   "name" : "_ZN7android13TypeConverterINS_13DefaultTraitsI14audio_source_tEEE12maskToStringEjRNSt3__112basic_stringIcNS5_11char_traitsIcEENS5_9allocatorIcEEEEPKc"
  },
  {
   "binding" : "weak",
   "name" : "_ZN7android13TypeConverterINS_13DefaultTraitsI14audio_source_tEEE14maskFromStringERKNSt3__112basic_stringIcNS5_11char_traitsIcEENS5_9allocatorIcEEEEPKc"
  },
  {
   "binding" : "weak",
   "name" : "_ZN7android13TypeConverterINS_13DefaultTraitsI14audio_source_tEEE20collectionFromStringERKNSt3__112basic_stringIcNS5_11char_traitsIcEENS5_9allocatorIcEEEERNS5_6vectorIS2_NS9_IS2_EEEEPKc"
  },
  {
   "binding" : "weak",
   "name" : "_ZN7android13TypeConverterINS_13DefaultTraitsI14audio_source_tEEE8toStringERKS2_RNSt3__112basic_stringIcNS7_11char_traitsIcEENS7_9allocatorIcEEEE"
  },
  {
   "binding" : "weak",
   "name" : "_ZN7android13TypeConverterINS_13DefaultTraitsI19audio_input_flags_tEEE10fromStringERKNSt3__112basic_stringIcNS5_11char_traitsIcEENS5_9allocatorIcEEEERS2_"
  },
  {
   "binding" : "weak",
   "name" : "_ZN7android13TypeConverterINS_13DefaultTraitsI19audio_input_flags_tEEE12maskToStringEjRNSt3__112basic_stringIcNS5_11char_traitsIcEENS5_9allocatorIcEEEEPKc"
  },
  {
   "binding" : "weak",
   "name" : "_ZN7android13TypeConverterINS_13DefaultTraitsI19audio_input_flags_tEEE14maskFromStringERKNSt3__112basic_stringIcNS5_11char_traitsIcEENS5_9allocatorIcEEEEPKc"
  },
  {
   "binding" : "weak",
   "name" : "_ZN7android13TypeConverterINS_13DefaultTraitsI19audio_input_flags_tEEE20collectionFromStringERKNSt3__112basic_stringIcNS5_11char_traitsIcEENS5_9allocatorIcEEEERNS5_6vectorIS2_NS9_IS2_EEEEPKc"
  },
  {
   "binding" : "weak",
   "name" : "_ZN7android13TypeConverterINS_13DefaultTraitsI19audio_input_flags_tEEE8toStringERKS2_RNSt3__112basic_stringIcNS7_11char_traitsIcEENS7_9allocatorIcEEEE"
  },
  {
   "binding" : "weak",
   "name" : "_ZN7android13TypeConverterINS_13DefaultTraitsI19audio_stream_type_tEEE10fromStringERKNSt3__112basic_stringIcNS5_11char_traitsIcEENS5_9allocatorIcEEEERS2_"
  },
  {
   "binding" : "weak",
   "name" : "_ZN7android13TypeConverterINS_13DefaultTraitsI19audio_stream_type_tEEE12maskToStringEjRNSt3__112basic_stringIcNS5_11char_traitsIcEENS5_9allocatorIcEEEEPKc"
  },
  {
   "binding" : "weak",
   "name" : "_ZN7android13TypeConverterINS_13DefaultTraitsI19audio_stream_type_tEEE14maskFromStringERKNSt3__112basic_stringIcNS5_11char_traitsIcEENS5_9allocatorIcEEEEPKc"
  },
  {
   "binding" : "weak",
   "name" : "_ZN7android13TypeConverterINS_13DefaultTraitsI19audio_stream_type_tEEE20collectionFromStringERKNSt3__112basic_stringIcNS5_11char_traitsIcEENS5_9allocatorIcEEEERNS5_6vectorIS2_NS9_IS2_EEEEPKc"
  },
  {
   "binding" : "weak",
   "name" : "_ZN7android13TypeConverterINS_13DefaultTraitsI19audio_stream_type_tEEE8toStringERKS2_RNSt3__112basic_stringIcNS7_11char_traitsIcEENS7_9allocatorIcEEEE"
  },
  {
   "binding" : "weak",
   "name" : "_ZN7android13TypeConverterINS_13DefaultTraitsI20audio_output_flags_tEEE10fromStringERKNSt3__112basic_stringIcNS5_11char_traitsIcEENS5_9allocatorIcEEEERS2_"
  },
  {
   "binding" : "weak",
   "name" : "_ZN7android13TypeConverterINS_13DefaultTraitsI20audio_output_flags_tEEE12maskToStringEjRNSt3__112basic_stringIcNS5_11char_traitsIcEENS5_9allocatorIcEEEEPKc"
  },
  {
   "binding" : "weak",
   "name" : "_ZN7android13TypeConverterINS_13DefaultTraitsI20audio_output_flags_tEEE14maskFromStringERKNSt3__112basic_stringIcNS5_11char_traitsIcEENS5_9allocatorIcEEEEPKc"
  },
  {
   "binding" : "weak",
   "name" : "_ZN7android13TypeConverterINS_13DefaultTraitsI20audio_output_flags_tEEE20collectionFromStringERKNSt3__112basic_stringIcNS5_11char_traitsIcEENS5_9allocatorIcEEEERNS5_6vectorIS2_NS9_IS2_EEEEPKc"
  },
  {
   "binding" : "weak",
   "name" : "_ZN7android13TypeConverterINS_13DefaultTraitsI20audio_output_flags_tEEE8toStringERKS2_RNSt3__112basic_stringIcNS7_11char_traitsIcEENS7_9allocatorIcEEEE"
  },
  {
   "binding" : "weak",
   "name" : "_ZN7android13TypeConverterINS_13DefaultTraitsIjEEE10fromStringERKNSt3__112basic_stringIcNS4_11char_traitsIcEENS4_9allocatorIcEEEERj"
  },
  {
   "binding" : "weak",
   "name" : "_ZN7android13TypeConverterINS_13DefaultTraitsIjEEE12maskToStringEjRNSt3__112basic_stringIcNS4_11char_traitsIcEENS4_9allocatorIcEEEEPKc"
  },
  {
   "binding" : "weak",
   "name" : "_ZN7android13TypeConverterINS_13DefaultTraitsIjEEE14maskFromStringERKNSt3__112basic_stringIcNS4_11char_traitsIcEENS4_9allocatorIcEEEEPKc"
  },
  {
   "binding" : "weak",
   "name" : "_ZN7android13TypeConverterINS_13DefaultTraitsIjEEE20collectionFromStringERKNSt3__112basic_stringIcNS4_11char_traitsIcEENS4_9allocatorIcEEEERNS4_6vectorIjNS8_IjEEEEPKc"
  },
  {
   "binding" : "weak",
   "name" : "_ZN7android13TypeConverterINS_13DefaultTraitsIjEEE8toStringERKjRNSt3__112basic_stringIcNS6_11char_traitsIcEENS6_9allocatorIcEEEE"
  },
  {
   "binding" : "weak",
   "name" : "_ZN7android13TypeConverterINS_15AudioFlagTraitsEE10fromStringERKNSt3__112basic_stringIcNS3_11char_traitsIcEENS3_9allocatorIcEEEERj"
  },
  {
   "binding" : "weak",
   "name" : "_ZN7android13TypeConverterINS_15AudioFlagTraitsEE12maskToStringEjRNSt3__112basic_stringIcNS3_11char_traitsIcEENS3_9allocatorIcEEEEPKc"
  },
  {
   "binding" : "weak",
   "name" : "_ZN7android13TypeConverterINS_15AudioFlagTraitsEE14maskFromStringERKNSt3__112basic_stringIcNS3_11char_traitsIcEENS3_9allocatorIcEEEEPKc"
  },
  {
   "binding" : "weak",
   "name" : "_ZN7android13TypeConverterINS_15AudioFlagTraitsEE20collectionFromStringERKNSt3__112basic_stringIcNS3_11char_traitsIcEENS3_9allocatorIcEEEERNS3_6vectorIjNS7_IjEEEEPKc"
  },
  {
   "binding" : "weak",
   "name" : "_ZN7android13TypeConverterINS_15AudioFlagTraitsEE8toStringERKjRNSt3__112basic_stringIcNS5_11char_traitsIcEENS5_9allocatorIcEEEE"
  },
  {
   "binding" : "weak",
   "name" : "_ZN7android13TypeConverterINS_17InputDeviceTraitsEE10fromStringERKNSt3__112basic_stringIcNS3_11char_traitsIcEENS3_9allocatorIcEEEERj"
  },
  {
   "binding" : "weak",
   "name" : "_ZN7android13TypeConverterINS_17InputDeviceTraitsEE12maskToStringEjRNSt3__112basic_stringIcNS3_11char_traitsIcEENS3_9allocatorIcEEEEPKc"
  },
  {
   "binding" : "weak",
   "name" : "_ZN7android13TypeConverterINS_17InputDeviceTraitsEE14maskFromStringERKNSt3__112basic_stringIcNS3_11char_traitsIcEENS3_9allocatorIcEEEEPKc"
  },
  {
   "binding" : "weak",
   "name" : "_ZN7android13TypeConverterINS_17InputDeviceTraitsEE20collectionFromStringERKNSt3__112basic_stringIcNS3_11char_traitsIcEENS3_9allocatorIcEEEERNS3_6vectorIjNS7_IjEEEEPKc"
  },
  {
   "binding" : "weak",
   "name" : "_ZN7android13TypeConverterINS_17InputDeviceTraitsEE8toStringERKjRNSt3__112basic_stringIcNS5_11char_traitsIcEENS5_9allocatorIcEEEE"
  },
  {
   "binding" : "weak",
   "name" : "_ZN7android13TypeConverterINS_18ChannelIndexTraitsEE10fromStringERKNSt3__112basic_stringIcNS3_11char_traitsIcEENS3_9allocatorIcEEEERj"
  },
  {
   "binding" : "weak",
   "name" : "_ZN7android13TypeConverterINS_18ChannelIndexTraitsEE12maskToStringEjRNSt3__112basic_stringIcNS3_11char_traitsIcEENS3_9allocatorIcEEEEPKc"
  },
  {
   "binding" : "weak",
   "name" : "_ZN7android13TypeConverterINS_18ChannelIndexTraitsEE14maskFromStringERKNSt3__112basic_stringIcNS3_11char_traitsIcEENS3_9allocatorIcEEEEPKc"
  },
  {
   "binding" : "weak",
   "name" : "_ZN7android13TypeConverterINS_18ChannelIndexTraitsEE20collectionFromStringERKNSt3__112basic_stringIcNS3_11char_traitsIcEENS3_9allocatorIcEEEERNS3_3setIjNS3_4lessIjEENS7_IjEEEEPKc"
  },
  {
   "binding" : "weak",
   "name" : "_ZN7android13TypeConverterINS_18ChannelIndexTraitsEE8toStringERKjRNSt3__112basic_stringIcNS5_11char_traitsIcEENS5_9allocatorIcEEEE"
  },
  {
   "binding" : "weak",
   "name" : "_ZN7android13TypeConverterINS_18InputChannelTraitsEE10fromStringERKNSt3__112basic_stringIcNS3_11char_traitsIcEENS3_9allocatorIcEEEERj"
  },
  {
   "binding" : "weak",
   "name" : "_ZN7android13TypeConverterINS_18InputChannelTraitsEE12maskToStringEjRNSt3__112basic_stringIcNS3_11char_traitsIcEENS3_9allocatorIcEEEEPKc"
  },
  {
   "binding" : "weak",
   "name" : "_ZN7android13TypeConverterINS_18InputChannelTraitsEE14maskFromStringERKNSt3__112basic_stringIcNS3_11char_traitsIcEENS3_9allocatorIcEEEEPKc"
  },
  {
   "binding" : "weak",
   "name" : "_ZN7android13TypeConverterINS_18InputChannelTraitsEE20collectionFromStringERKNSt3__112basic_stringIcNS3_11char_traitsIcEENS3_9allocatorIcEEEERNS3_3setIjNS3_4lessIjEENS7_IjEEEEPKc"
  },
  {
   "binding" : "weak",
   "name" : "_ZN7android13TypeConverterINS_18InputChannelTraitsEE8toStringERKjRNSt3__112basic_stringIcNS5_11char_traitsIcEENS5_9allocatorIcEEEE"
  },
  {
   "binding" : "weak",
   "name" : "_ZN7android13TypeConverterINS_18OutputDeviceTraitsEE10fromStringERKNSt3__112basic_stringIcNS3_11char_traitsIcEENS3_9allocatorIcEEEERj"
  },
  {
   "binding" : "weak",
   "name" : "_ZN7android13TypeConverterINS_18OutputDeviceTraitsEE12maskToStringEjRNSt3__112basic_stringIcNS3_11char_traitsIcEENS3_9allocatorIcEEEEPKc"
  },
  {
   "binding" : "weak",
   "name" : "_ZN7android13TypeConverterINS_18OutputDeviceTraitsEE14maskFromStringERKNSt3__112basic_stringIcNS3_11char_traitsIcEENS3_9allocatorIcEEEEPKc"
  },
  {
   "binding" : "weak",
   "name" : "_ZN7android13TypeConverterINS_18OutputDeviceTraitsEE20collectionFromStringERKNSt3__112basic_stringIcNS3_11char_traitsIcEENS3_9allocatorIcEEEERNS3_6vectorIjNS7_IjEEEEPKc"
  },
  {
   "binding" : "weak",
   "name" : "_ZN7android13TypeConverterINS_18OutputDeviceTraitsEE8toStringERKjRNSt3__112basic_stringIcNS5_11char_traitsIcEENS5_9allocatorIcEEEE"
  },
  {
   "binding" : "weak",
   "name" : "_ZN7android13TypeConverterINS_19OutputChannelTraitsEE10fromStringERKNSt3__112basic_stringIcNS3_11char_traitsIcEENS3_9allocatorIcEEEERj"
  },
  {
   "binding" : "weak",
   "name" : "_ZN7android13TypeConverterINS_19OutputChannelTraitsEE12maskToStringEjRNSt3__112basic_stringIcNS3_11char_traitsIcEENS3_9allocatorIcEEEEPKc"
  },
  {
   "binding" : "weak",
   "name" : "_ZN7android13TypeConverterINS_19OutputChannelTraitsEE14maskFromStringERKNSt3__112basic_stringIcNS3_11char_traitsIcEENS3_9allocatorIcEEEEPKc"
  },
  {
   "binding" : "weak",
   "name" : "_ZN7android13TypeConverterINS_19OutputChannelTraitsEE20collectionFromStringERKNSt3__112basic_stringIcNS3_11char_traitsIcEENS3_9allocatorIcEEEERNS3_3setIjNS3_4lessIjEENS7_IjEEEEPKc"
  },
  {
   "binding" : "weak",
   "name" : "_ZN7android13TypeConverterINS_19OutputChannelTraitsEE8toStringERKjRNSt3__112basic_stringIcNS5_11char_traitsIcEENS5_9allocatorIcEEEE"
  },
  {
   "name" : "_ZN7android14AudioParameter3addERKNS_7String8ES3_"
  },
  {
   "name" : "_ZN7android14AudioParameter6addIntERKNS_7String8Ei"
  },
  {
   "name" : "_ZN7android14AudioParameter6addKeyERKNS_7String8E"
  },
  {
   "name" : "_ZN7android14AudioParameter6removeERKNS_7String8E"
  },
  {
   "name" : "_ZN7android14AudioParameter8addFloatERKNS_7String8Ef"
  },
  {
   "name" : "_ZN7android14AudioParameterC1ERKNS_7String8E"
  },
  {
   "name" : "_ZN7android14AudioParameterC2ERKNS_7String8E"
  },
  {
   "name" : "_ZN7android14AudioParameterD0Ev"
  },
  {
   "name" : "_ZN7android14AudioParameterD1Ev"
  },
  {
   "name" : "_ZN7android14AudioParameterD2Ev"
  },
  {
   "name" : "_ZN7android16deviceFromStringERKNSt3__112basic_stringIcNS0_11char_traitsIcEENS0_9allocatorIcEEEERj"
  },
  {
   "name" : "_ZN7android16formatFromStringERKNSt3__112basic_stringIcNS0_11char_traitsIcEENS0_9allocatorIcEEEE14audio_format_t"
  },
  {
   "name" : "_ZN7android17formatsFromStringERKNSt3__112basic_stringIcNS0_11char_traitsIcEENS0_9allocatorIcEEEEPKc"
  },
  {
   "name" : "_ZN7android21channelMaskFromStringERKNSt3__112basic_stringIcNS0_11char_traitsIcEENS0_9allocatorIcEEEE"
  },
  {
   "name" : "_ZN7android22channelMasksFromStringERKNSt3__112basic_stringIcNS0_11char_traitsIcEENS0_9allocatorIcEEEEPKc"
  },
  {
   "name" : "_ZN7android23samplingRatesFromStringERKNSt3__112basic_stringIcNS0_11char_traitsIcEENS0_9allocatorIcEEEEPKc"
  },
  {
   "name" : "_ZN7android27inputChannelMasksFromStringERKNSt3__112basic_stringIcNS0_11char_traitsIcEENS0_9allocatorIcEEEEPKc"
  },
  {
   "name" : "_ZN7android28outputChannelMasksFromStringERKNSt3__112basic_stringIcNS0_11char_traitsIcEENS0_9allocatorIcEEEEPKc"
  },
  {
   "binding" : "weak",
   "name" : "_ZNK7android12SortedVectorINS_16key_value_pair_tINS_7String8ES2_EEE10do_compareEPKvS6_"
  },
  {
   "binding" : "weak",
   "name" : "_ZNK7android12SortedVectorINS_16key_value_pair_tINS_7String8ES2_EEE10do_destroyEPvm"
  },
  {
   "binding" : "weak",
   "name" : "_ZNK7android12SortedVectorINS_16key_value_pair_tINS_7String8ES2_EEE12do_constructEPvm"
  },
  {
   "binding" : "weak",
   "name" : "_ZNK7android12SortedVectorINS_16key_value_pair_tINS_7String8ES2_EEE15do_move_forwardEPvPKvm"
  },
  {
   "binding" : "weak",
   "name" : "_ZNK7android12SortedVectorINS_16key_value_pair_tINS_7String8ES2_EEE16do_move_backwardEPvPKvm"
  },
  {
   "binding" : "weak",
   "name" : "_ZNK7android12SortedVectorINS_16key_value_pair_tINS_7String8ES2_EEE7do_copyEPvPKvm"
  },
  {
   "binding" : "weak",
   "name" : "_ZNK7android12SortedVectorINS_16key_value_pair_tINS_7String8ES2_EEE8do_splatEPvPKvm"
  },
  {
   "name" : "_ZNK7android14AudioParameter12toStringImplEb"
  },
  {
   "name" : "_ZNK7android14AudioParameter3getERKNS_7String8ERS1_"
  },
  {
   "name" : "_ZNK7android14AudioParameter5getAtEmRNS_7String8E"
  },
  {
   "name" : "_ZNK7android14AudioParameter5getAtEmRNS_7String8ES2_"
  },
  {
   "name" : "_ZNK7android14AudioParameter6getIntERKNS_7String8ERi"
  },
  {
   "name" : "_ZNK7android14AudioParameter8getFloatERKNS_7String8ERf"
  },
  {
   "binding" : "weak",
   "name" : "_ZNSt3__115basic_stringbufIcNS_11char_traitsIcEENS_9allocatorIcEEE3strERKNS_12basic_stringIcS2_S4_EE"
  },
  {
   "binding" : "weak",
   "name" : "_ZNSt3__115basic_stringbufIcNS_11char_traitsIcEENS_9allocatorIcEEE7seekoffExNS_8ios_base7seekdirEj"
  },
  {
   "binding" : "weak",
   "name" : "_ZNSt3__115basic_stringbufIcNS_11char_traitsIcEENS_9allocatorIcEEE8overflowEi"
  },
  {
   "binding" : "weak",
   "name" : "_ZNSt3__115basic_stringbufIcNS_11char_traitsIcEENS_9allocatorIcEEE9pbackfailEi"
  },
  {
   "binding" : "weak",
   "name" : "_ZNSt3__115basic_stringbufIcNS_11char_traitsIcEENS_9allocatorIcEEE9underflowEv"
  },
  {
   "binding" : "weak",
   "name" : "_ZNSt3__127__tree_balance_after_insertIPNS_16__tree_node_baseIPvEEEEvT_S5_"
  },
  {
   "binding" : "weak",
   "name" : "_ZNSt3__16vectorI12audio_mode_tNS_9allocatorIS1_EEE21__push_back_slow_pathIRKS1_EEvOT_"
  },
  {
   "binding" : "weak",
   "name" : "_ZNSt3__16vectorI13audio_usage_tNS_9allocatorIS1_EEE21__push_back_slow_pathIRKS1_EEvOT_"
  },
  {
   "binding" : "weak",
   "name" : "_ZNSt3__16vectorI14audio_format_tNS_9allocatorIS1_EEE21__push_back_slow_pathIRKS1_EEvOT_"
  },
  {
   "binding" : "weak",
   "name" : "_ZNSt3__16vectorI14audio_source_tNS_9allocatorIS1_EEE21__push_back_slow_pathIRKS1_EEvOT_"
  },
  {
   "binding" : "weak",
   "name" : "_ZNSt3__16vectorI19audio_input_flags_tNS_9allocatorIS1_EEE21__push_back_slow_pathIRKS1_EEvOT_"
  },
  {
   "binding" : "weak",
   "name" : "_ZNSt3__16vectorI19audio_stream_type_tNS_9allocatorIS1_EEE21__push_back_slow_pathIRKS1_EEvOT_"
  },
  {
   "binding" : "weak",
   "name" : "_ZNSt3__16vectorI20audio_output_flags_tNS_9allocatorIS1_EEE21__push_back_slow_pathIRKS1_EEvOT_"
  },
  {
   "binding" : "weak",
   "name" : "_ZNSt3__16vectorIjNS_9allocatorIjEEE21__push_back_slow_pathIRKjEEvOT_"
  }
 ],
 "elf_objects" :
 [
  {
   "name" : "_ZN7android13TypeConverterINS_13DefaultTraitsI12audio_mode_tEEE6mTableE"
  },
  {
   "name" : "_ZN7android13TypeConverterINS_13DefaultTraitsI13audio_usage_tEEE6mTableE"
  },
  {
   "name" : "_ZN7android13TypeConverterINS_13DefaultTraitsI14audio_format_tEEE6mTableE"
  },
  {
   "name" : "_ZN7android13TypeConverterINS_13DefaultTraitsI14audio_source_tEEE6mTableE"
  },
  {
   "name" : "_ZN7android13TypeConverterINS_13DefaultTraitsI19audio_input_flags_tEEE6mTableE"
  },
  {
   "name" : "_ZN7android13TypeConverterINS_13DefaultTraitsI19audio_stream_type_tEEE6mTableE"
  },
  {
   "name" : "_ZN7android13TypeConverterINS_13DefaultTraitsI20audio_content_type_tEEE6mTableE"
  },
  {
   "name" : "_ZN7android13TypeConverterINS_13DefaultTraitsI20audio_output_flags_tEEE6mTableE"
  },
  {
   "name" : "_ZN7android13TypeConverterINS_13DefaultTraitsIjEEE6mTableE"
  },
  {
   "name" : "_ZN7android13TypeConverterINS_15AudioFlagTraitsEE6mTableE"
  },
  {
   "name" : "_ZN7android13TypeConverterINS_17InputDeviceTraitsEE6mTableE"
  },
  {
   "name" : "_ZN7android13TypeConverterINS_18ChannelIndexTraitsEE6mTableE"
  },
  {
   "name" : "_ZN7android13TypeConverterINS_18InputChannelTraitsEE6mTableE"
  },
  {
   "name" : "_ZN7android13TypeConverterINS_18OutputDeviceTraitsEE6mTableE"
  },
  {
   "name" : "_ZN7android13TypeConverterINS_19OutputChannelTraitsEE6mTableE"
  },
  {
   "name" : "_ZN7android14AudioParameter10keyRoutingE"
  },
  {
   "name" : "_ZN7android14AudioParameter11keyChannelsE"
  },
  {
   "name" : "_ZN7android14AudioParameter11keyHwAvSyncE"
  },
  {
   "name" : "_ZN7android14AudioParameter12keyProgramIdE"
  },
  {
   "name" : "_ZN7android14AudioParameter13keyFrameCountE"
  },
  {
   "name" : "_ZN7android14AudioParameter13keyMonoOutputE"
  },
  {
   "name" : "_ZN7android14AudioParameter14keyInputSourceE"
  },
  {
   "name" : "_ZN7android14AudioParameter14keyScreenStateE"
  },
  {
   "name" : "_ZN7android14AudioParameter15keyReconfigA2dpE"
  },
  {
   "name" : "_ZN7android14AudioParameter15keySamplingRateE"
  },
  {
   "name" : "_ZN7android14AudioParameter16keyDeviceConnectE"
  },
  {
   "name" : "_ZN7android14AudioParameter16keyStreamConnectE"
  },
  {
   "name" : "_ZN7android14AudioParameter17keyPresentationIdE"
  },
  {
   "name" : "_ZN7android14AudioParameter17keyStreamHwAvSyncE"
  },
  {
   "name" : "_ZN7android14AudioParameter18valueListSeparatorE"
  },
  {
   "name" : "_ZN7android14AudioParameter19keyDeviceDisconnectE"
  },
  {
   "name" : "_ZN7android14AudioParameter19keyStreamDisconnectE"
  },
  {
   "name" : "_ZN7android14AudioParameter24keyReconfigA2dpSupportedE"
  },
  {
   "name" : "_ZN7android14AudioParameter25keyAudioLanguagePreferredE"
  },
  {
   "name" : "_ZN7android14AudioParameter25keyStreamSupportedFormatsE"
  },
  {
   "name" : "_ZN7android14AudioParameter26keyStreamSupportedChannelsE"
  },
  {
   "name" : "_ZN7android14AudioParameter31keyStreamSupportedSamplingRatesE"
  },
  {
   "name" : "_ZN7android14AudioParameter7valueOnE"
  },
  {
   "name" : "_ZN7android14AudioParameter8valueOffE"
  },
  {
   "name" : "_ZN7android14AudioParameter9keyBtNrecE"
  },
  {
   "name" : "_ZN7android14AudioParameter9keyFormatE"
  },
  {
   "binding" : "weak",
   "name" : "_ZTCNSt3__118basic_stringstreamIcNS_11char_traitsIcEENS_9allocatorIcEEEE0_NS_13basic_istreamIcS2_EE"
  },
  {
   "binding" : "weak",
   "name" : "_ZTCNSt3__118basic_stringstreamIcNS_11char_traitsIcEENS_9allocatorIcEEEE0_NS_14basic_iostreamIcS2_EE"
  },
  {
   "binding" : "weak",
   "name" : "_ZTCNSt3__118basic_stringstreamIcNS_11char_traitsIcEENS_9allocatorIcEEEE16_NS_13basic_ostreamIcS2_EE"
  },
  {
   "binding" : "weak",
   "name" : "_ZTTNSt3__118basic_stringstreamIcNS_11char_traitsIcEENS_9allocatorIcEEEE"
  },
  {
   "binding" : "weak",
   "name" : "_ZTVN7android12SortedVectorINS_16key_value_pair_tINS_7String8ES2_EEEE"
  },
  {
   "name" : "_ZTVN7android14AudioParameterE"
  },
  {
   "binding" : "weak",
   "name" : "_ZTVNSt3__115basic_stringbufIcNS_11char_traitsIcEENS_9allocatorIcEEEE"
  },
  {
   "binding" : "weak",
   "name" : "_ZTVNSt3__118basic_stringstreamIcNS_11char_traitsIcEENS_9allocatorIcEEEE"
  }
 ],
 "enum_types" : [],
 "function_types" : [],
 "functions" :
 [
  {
   "function_name" : "android::AudioParameter::add",
   "linker_set_key" : "_ZN7android14AudioParameter3addERKNS_7String8ES3_",
   "parameters" :
   [
    {
     "is_this_ptr" : true,
     "referenced_type" : "_ZTIPN7android14AudioParameterE"
    },
    {
     "referenced_type" : "_ZTIRKN7android7String8E"
    },
    {
     "referenced_type" : "_ZTIRKN7android7String8E"
    }
   ],
   "return_type" : "_ZTIi",
   "source_file" : "/frameworks/av/media/libmediahelper/include/media/AudioParameter.h"
  },
  {
   "function_name" : "android::AudioParameter::addInt",
   "linker_set_key" : "_ZN7android14AudioParameter6addIntERKNS_7String8Ei",
   "parameters" :
   [
    {
     "is_this_ptr" : true,
     "referenced_type" : "_ZTIPN7android14AudioParameterE"
    },
    {
     "referenced_type" : "_ZTIRKN7android7String8E"
    },
    {
     "referenced_type" : "_ZTIKi"
    }
   ],
   "return_type" : "_ZTIi",
   "source_file" : "/frameworks/av/media/libmediahelper/include/media/AudioParameter.h"
  },
  {
   "function_name" : "android::AudioParameter::addKey",
   "linker_set_key" : "_ZN7android14AudioParameter6addKeyERKNS_7String8E",
   "parameters" :
   [
    {
     "is_this_ptr" : true,
     "referenced_type" : "_ZTIPN7android14AudioParameterE"
    },
    {
     "referenced_type" : "_ZTIRKN7android7String8E"
    }
   ],
   "return_type" : "_ZTIi",
   "source_file" : "/frameworks/av/media/libmediahelper/include/media/AudioParameter.h"
  },
  {
   "function_name" : "android::AudioParameter::remove",
   "linker_set_key" : "_ZN7android14AudioParameter6removeERKNS_7String8E",
   "parameters" :
   [
    {
     "is_this_ptr" : true,
     "referenced_type" : "_ZTIPN7android14AudioParameterE"
    },
    {
     "referenced_type" : "_ZTIRKN7android7String8E"
    }
   ],
   "return_type" : "_ZTIi",
   "source_file" : "/frameworks/av/media/libmediahelper/include/media/AudioParameter.h"
  },
  {
   "function_name" : "android::AudioParameter::addFloat",
   "linker_set_key" : "_ZN7android14AudioParameter8addFloatERKNS_7String8Ef",
   "parameters" :
   [
    {
     "is_this_ptr" : true,
     "referenced_type" : "_ZTIPN7android14AudioParameterE"
    },
    {
     "referenced_type" : "_ZTIRKN7android7String8E"
    },
    {
     "referenced_type" : "_ZTIKf"
    }
   ],
   "return_type" : "_ZTIi",
   "source_file" : "/frameworks/av/media/libmediahelper/include/media/AudioParameter.h"
  },
  {
   "function_name" : "android::AudioParameter::AudioParameter",
   "linker_set_key" : "_ZN7android14AudioParameterC1ERKNS_7String8E",
   "parameters" :
   [
    {
     "is_this_ptr" : true,
     "referenced_type" : "_ZTIPN7android14AudioParameterE"
    },
    {
     "referenced_type" : "_ZTIRKN7android7String8E"
    }
   ],
   "return_type" : "_ZTIv",
   "source_file" : "/frameworks/av/media/libmediahelper/include/media/AudioParameter.h"
  },
  {
   "function_name" : "android::AudioParameter::AudioParameter",
   "linker_set_key" : "_ZN7android14AudioParameterC2ERKNS_7String8E",
   "parameters" :
   [
    {
     "is_this_ptr" : true,
     "referenced_type" : "_ZTIPN7android14AudioParameterE"
    },
    {
     "referenced_type" : "_ZTIRKN7android7String8E"
    }
   ],
   "return_type" : "_ZTIv",
   "source_file" : "/frameworks/av/media/libmediahelper/include/media/AudioParameter.h"
  },
  {
   "function_name" : "android::AudioParameter::~AudioParameter",
   "linker_set_key" : "_ZN7android14AudioParameterD0Ev",
   "parameters" :
   [
    {
     "is_this_ptr" : true,
     "referenced_type" : "_ZTIPN7android14AudioParameterE"
    }
   ],
   "return_type" : "_ZTIv",
   "source_file" : "/frameworks/av/media/libmediahelper/include/media/AudioParameter.h"
  },
  {
   "function_name" : "android::AudioParameter::~AudioParameter",
   "linker_set_key" : "_ZN7android14AudioParameterD1Ev",
   "parameters" :
   [
    {
     "is_this_ptr" : true,
     "referenced_type" : "_ZTIPN7android14AudioParameterE"
    }
   ],
   "return_type" : "_ZTIv",
   "source_file" : "/frameworks/av/media/libmediahelper/include/media/AudioParameter.h"
  },
  {
   "function_name" : "android::AudioParameter::~AudioParameter",
   "linker_set_key" : "_ZN7android14AudioParameterD2Ev",
   "parameters" :
   [
    {
     "is_this_ptr" : true,
     "referenced_type" : "_ZTIPN7android14AudioParameterE"
    }
   ],
   "return_type" : "_ZTIv",
   "source_file" : "/frameworks/av/media/libmediahelper/include/media/AudioParameter.h"
  },
  {
   "function_name" : "android::deviceFromString",
   "linker_set_key" : "_ZN7android16deviceFromStringERKNSt3__112basic_stringIcNS0_11char_traitsIcEENS0_9allocatorIcEEEERj",
   "parameters" :
   [
    {
     "referenced_type" : "_ZTIRKNSt3__112basic_stringIcNS_11char_traitsIcEENS_9allocatorIcEEEE"
    },
    {
     "referenced_type" : "_ZTIRj"
    }
   ],
   "return_type" : "_ZTIb",
   "source_file" : "/frameworks/av/media/libmediahelper/include/media/TypeConverter.h"
  },
  {
   "function_name" : "android::formatFromString",
   "linker_set_key" : "_ZN7android16formatFromStringERKNSt3__112basic_stringIcNS0_11char_traitsIcEENS0_9allocatorIcEEEE14audio_format_t",
   "parameters" :
   [
    {
     "referenced_type" : "_ZTIRKNSt3__112basic_stringIcNS_11char_traitsIcEENS_9allocatorIcEEEE"
    },
    {
     "default_arg" : true,
     "referenced_type" : "_ZTI14audio_format_t"
    }
   ],
   "return_type" : "_ZTI14audio_format_t",
   "source_file" : "/frameworks/av/media/libmediahelper/include/media/TypeConverter.h"
  },
  {
   "function_name" : "android::formatsFromString",
   "linker_set_key" : "_ZN7android17formatsFromStringERKNSt3__112basic_stringIcNS0_11char_traitsIcEENS0_9allocatorIcEEEEPKc",
   "parameters" :
   [
    {
     "referenced_type" : "_ZTIRKNSt3__112basic_stringIcNS_11char_traitsIcEENS_9allocatorIcEEEE"
    },
    {
     "default_arg" : true,
     "referenced_type" : "_ZTIPKc"
    }
   ],
   "return_type" : "_ZTINSt3__16vectorI14audio_format_tNS_9allocatorIS1_EEEE",
   "source_file" : "/frameworks/av/media/libmediahelper/include/media/TypeConverter.h"
  },
  {
   "function_name" : "android::channelMaskFromString",
   "linker_set_key" : "_ZN7android21channelMaskFromStringERKNSt3__112basic_stringIcNS0_11char_traitsIcEENS0_9allocatorIcEEEE",
   "parameters" :
   [
    {
     "referenced_type" : "_ZTIRKNSt3__112basic_stringIcNS_11char_traitsIcEENS_9allocatorIcEEEE"
    }
   ],
   "return_type" : "_ZTIj",
   "source_file" : "/frameworks/av/media/libmediahelper/include/media/TypeConverter.h"
  },
  {
   "function_name" : "android::channelMasksFromString",
   "linker_set_key" : "_ZN7android22channelMasksFromStringERKNSt3__112basic_stringIcNS0_11char_traitsIcEENS0_9allocatorIcEEEEPKc",
   "parameters" :
   [
    {
     "referenced_type" : "_ZTIRKNSt3__112basic_stringIcNS_11char_traitsIcEENS_9allocatorIcEEEE"
    },
    {
     "default_arg" : true,
     "referenced_type" : "_ZTIPKc"
    }
   ],
   "return_type" : "_ZTINSt3__13setIjNS_4lessIjEENS_9allocatorIjEEEE",
   "source_file" : "/frameworks/av/media/libmediahelper/include/media/TypeConverter.h"
  },
  {
   "function_name" : "android::samplingRatesFromString",
   "linker_set_key" : "_ZN7android23samplingRatesFromStringERKNSt3__112basic_stringIcNS0_11char_traitsIcEENS0_9allocatorIcEEEEPKc",
   "parameters" :
   [
    {
     "referenced_type" : "_ZTIRKNSt3__112basic_stringIcNS_11char_traitsIcEENS_9allocatorIcEEEE"
    },
    {
     "default_arg" : true,
     "referenced_type" : "_ZTIPKc"
    }
   ],
   "return_type" : "_ZTINSt3__13setIjNS_4lessIjEENS_9allocatorIjEEEE",
   "source_file" : "/frameworks/av/media/libmediahelper/include/media/TypeConverter.h"
  },
  {
   "function_name" : "android::inputChannelMasksFromString",
   "linker_set_key" : "_ZN7android27inputChannelMasksFromStringERKNSt3__112basic_stringIcNS0_11char_traitsIcEENS0_9allocatorIcEEEEPKc",
   "parameters" :
   [
    {
     "referenced_type" : "_ZTIRKNSt3__112basic_stringIcNS_11char_traitsIcEENS_9allocatorIcEEEE"
    },
    {
     "default_arg" : true,
     "referenced_type" : "_ZTIPKc"
    }
   ],
   "return_type" : "_ZTINSt3__13setIjNS_4lessIjEENS_9allocatorIjEEEE",
   "source_file" : "/frameworks/av/media/libmediahelper/include/media/TypeConverter.h"
  },
  {
   "function_name" : "android::outputChannelMasksFromString",
   "linker_set_key" : "_ZN7android28outputChannelMasksFromStringERKNSt3__112basic_stringIcNS0_11char_traitsIcEENS0_9allocatorIcEEEEPKc",
   "parameters" :
   [
    {
     "referenced_type" : "_ZTIRKNSt3__112basic_stringIcNS_11char_traitsIcEENS_9allocatorIcEEEE"
    },
    {
     "default_arg" : true,
     "referenced_type" : "_ZTIPKc"
    }
   ],
   "return_type" : "_ZTINSt3__13setIjNS_4lessIjEENS_9allocatorIjEEEE",
   "source_file" : "/frameworks/av/media/libmediahelper/include/media/TypeConverter.h"
  },
  {
   "access" : "private",
   "function_name" : "android::AudioParameter::toStringImpl",
   "linker_set_key" : "_ZNK7android14AudioParameter12toStringImplEb",
   "parameters" :
   [
    {
     "is_this_ptr" : true,
     "referenced_type" : "_ZTIPKN7android14AudioParameterE"
    },
    {
     "referenced_type" : "_ZTIb"
    }
   ],
   "return_type" : "_ZTIN7android7String8E",
   "source_file" : "/frameworks/av/media/libmediahelper/include/media/AudioParameter.h"
  },
  {
   "function_name" : "android::AudioParameter::get",
   "linker_set_key" : "_ZNK7android14AudioParameter3getERKNS_7String8ERS1_",
   "parameters" :
   [
    {
     "is_this_ptr" : true,
     "referenced_type" : "_ZTIPKN7android14AudioParameterE"
    },
    {
     "referenced_type" : "_ZTIRKN7android7String8E"
    },
    {
     "referenced_type" : "_ZTIRN7android7String8E"
    }
   ],
   "return_type" : "_ZTIi",
   "source_file" : "/frameworks/av/media/libmediahelper/include/media/AudioParameter.h"
  },
  {
   "function_name" : "android::AudioParameter::getAt",
   "linker_set_key" : "_ZNK7android14AudioParameter5getAtEmRNS_7String8E",
   "parameters" :
   [
    {
     "is_this_ptr" : true,
     "referenced_type" : "_ZTIPKN7android14AudioParameterE"
    },
    {
     "referenced_type" : "_ZTIm"
    },
    {
     "referenced_type" : "_ZTIRN7android7String8E"
    }
   ],
   "return_type" : "_ZTIi",
   "source_file" : "/frameworks/av/media/libmediahelper/include/media/AudioParameter.h"
  },
  {
   "function_name" : "android::AudioParameter::getAt",
   "linker_set_key" : "_ZNK7android14AudioParameter5getAtEmRNS_7String8ES2_",
   "parameters" :
   [
    {
     "is_this_ptr" : true,
     "referenced_type" : "_ZTIPKN7android14AudioParameterE"
    },
    {
     "referenced_type" : "_ZTIm"
    },
    {
     "referenced_type" : "_ZTIRN7android7String8E"
    },
    {
     "referenced_type" : "_ZTIRN7android7String8E"
    }
   ],
   "return_type" : "_ZTIi",
   "source_file" : "/frameworks/av/media/libmediahelper/include/media/AudioParameter.h"
  },
  {
   "function_name" : "android::AudioParameter::getInt",
   "linker_set_key" : "_ZNK7android14AudioParameter6getIntERKNS_7String8ERi",
   "parameters" :
   [
    {
     "is_this_ptr" : true,
     "referenced_type" : "_ZTIPKN7android14AudioParameterE"
    },
    {
     "referenced_type" : "_ZTIRKN7android7String8E"
    },
    {
     "referenced_type" : "_ZTIRi"
    }
   ],
   "return_type" : "_ZTIi",
   "source_file" : "/frameworks/av/media/libmediahelper/include/media/AudioParameter.h"
  },
  {
   "function_name" : "android::AudioParameter::getFloat",
   "linker_set_key" : "_ZNK7android14AudioParameter8getFloatERKNS_7String8ERf",
   "parameters" :
   [
    {
     "is_this_ptr" : true,
     "referenced_type" : "_ZTIPKN7android14AudioParameterE"
    },
    {
     "referenced_type" : "_ZTIRKN7android7String8E"
    },
    {
     "referenced_type" : "_ZTIRf"
    }
   ],
   "return_type" : "_ZTIi",
   "source_file" : "/frameworks/av/media/libmediahelper/include/media/AudioParameter.h"
  }
 ],
 "global_vars" :
 [
  {
   "access" : "protected",
   "linker_set_key" : "_ZN7android13TypeConverterINS_13DefaultTraitsI12audio_mode_tEEE6mTableE",
   "name" : "android::TypeConverter<android::DefaultTraits<audio_mode_t> >::mTable",
   "referenced_type" : "_ZTIA_KN7android13TypeConverterINS_13DefaultTraitsI12audio_mode_tEEE5TableE",
   "source_file" : "/frameworks/av/media/libmediahelper/include/media/TypeConverter.h"
  },
  {
   "access" : "protected",
   "linker_set_key" : "_ZN7android13TypeConverterINS_13DefaultTraitsI13audio_usage_tEEE6mTableE",
   "name" : "android::TypeConverter<android::DefaultTraits<audio_usage_t> >::mTable",
   "referenced_type" : "_ZTIA_KN7android13TypeConverterINS_13DefaultTraitsI13audio_usage_tEEE5TableE",
   "source_file" : "/frameworks/av/media/libmediahelper/include/media/TypeConverter.h"
  },
  {
   "access" : "protected",
   "linker_set_key" : "_ZN7android13TypeConverterINS_13DefaultTraitsI14audio_format_tEEE6mTableE",
   "name" : "android::TypeConverter<android::DefaultTraits<audio_format_t> >::mTable",
   "referenced_type" : "_ZTIA_KN7android13TypeConverterINS_13DefaultTraitsI14audio_format_tEEE5TableE",
   "source_file" : "/frameworks/av/media/libmediahelper/include/media/TypeConverter.h"
  },
  {
   "access" : "protected",
   "linker_set_key" : "_ZN7android13TypeConverterINS_13DefaultTraitsI14audio_source_tEEE6mTableE",
   "name" : "android::TypeConverter<android::DefaultTraits<audio_source_t> >::mTable",
   "referenced_type" : "_ZTIA_KN7android13TypeConverterINS_13DefaultTraitsI14audio_source_tEEE5TableE",
   "source_file" : "/frameworks/av/media/libmediahelper/include/media/TypeConverter.h"
  },
  {
   "access" : "protected",
   "linker_set_key" : "_ZN7android13TypeConverterINS_13DefaultTraitsI19audio_input_flags_tEEE6mTableE",
   "name" : "android::TypeConverter<android::DefaultTraits<audio_input_flags_t> >::mTable",
   "referenced_type" : "_ZTIA_KN7android13TypeConverterINS_13DefaultTraitsI19audio_input_flags_tEEE5TableE",
   "source_file" : "/frameworks/av/media/libmediahelper/include/media/TypeConverter.h"
  },
  {
   "access" : "protected",
   "linker_set_key" : "_ZN7android13TypeConverterINS_13DefaultTraitsI19audio_stream_type_tEEE6mTableE",
   "name" : "android::TypeConverter<android::DefaultTraits<audio_stream_type_t> >::mTable",
   "referenced_type" : "_ZTIA_KN7android13TypeConverterINS_13DefaultTraitsI19audio_stream_type_tEEE5TableE",
   "source_file" : "/frameworks/av/media/libmediahelper/include/media/TypeConverter.h"
  },
  {
   "access" : "protected",
   "linker_set_key" : "_ZN7android13TypeConverterINS_13DefaultTraitsI20audio_content_type_tEEE6mTableE",
   "name" : "android::TypeConverter<android::DefaultTraits<audio_content_type_t> >::mTable",
   "referenced_type" : "_ZTIA_KN7android13TypeConverterINS_13DefaultTraitsI20audio_content_type_tEEE5TableE",
   "source_file" : "/frameworks/av/media/libmediahelper/include/media/TypeConverter.h"
  },
  {
   "access" : "protected",
   "linker_set_key" : "_ZN7android13TypeConverterINS_13DefaultTraitsI20audio_output_flags_tEEE6mTableE",
   "name" : "android::TypeConverter<android::DefaultTraits<audio_output_flags_t> >::mTable",
   "referenced_type" : "_ZTIA_KN7android13TypeConverterINS_13DefaultTraitsI20audio_output_flags_tEEE5TableE",
   "source_file" : "/frameworks/av/media/libmediahelper/include/media/TypeConverter.h"
  },
  {
   "access" : "protected",
   "linker_set_key" : "_ZN7android13TypeConverterINS_13DefaultTraitsIjEEE6mTableE",
   "name" : "android::TypeConverter<android::DefaultTraits<unsigned int> >::mTable",
   "referenced_type" : "_ZTIA_KN7android13TypeConverterINS_13DefaultTraitsIjEEE5TableE",
   "source_file" : "/frameworks/av/media/libmediahelper/include/media/TypeConverter.h"
  },
  {
   "access" : "protected",
   "linker_set_key" : "_ZN7android13TypeConverterINS_15AudioFlagTraitsEE6mTableE",
   "name" : "android::TypeConverter<android::AudioFlagTraits>::mTable",
   "referenced_type" : "_ZTIA_KN7android13TypeConverterINS_15AudioFlagTraitsEE5TableE",
   "source_file" : "/frameworks/av/media/libmediahelper/include/media/TypeConverter.h"
  },
  {
   "access" : "protected",
   "linker_set_key" : "_ZN7android13TypeConverterINS_17InputDeviceTraitsEE6mTableE",
   "name" : "android::TypeConverter<android::InputDeviceTraits>::mTable",
   "referenced_type" : "_ZTIA_KN7android13TypeConverterINS_17InputDeviceTraitsEE5TableE",
   "source_file" : "/frameworks/av/media/libmediahelper/include/media/TypeConverter.h"
  },
  {
   "access" : "protected",
   "linker_set_key" : "_ZN7android13TypeConverterINS_18ChannelIndexTraitsEE6mTableE",
   "name" : "android::TypeConverter<android::ChannelIndexTraits>::mTable",
   "referenced_type" : "_ZTIA_KN7android13TypeConverterINS_18ChannelIndexTraitsEE5TableE",
   "source_file" : "/frameworks/av/media/libmediahelper/include/media/TypeConverter.h"
  },
  {
   "access" : "protected",
   "linker_set_key" : "_ZN7android13TypeConverterINS_18InputChannelTraitsEE6mTableE",
   "name" : "android::TypeConverter<android::InputChannelTraits>::mTable",
   "referenced_type" : "_ZTIA_KN7android13TypeConverterINS_18InputChannelTraitsEE5TableE",
   "source_file" : "/frameworks/av/media/libmediahelper/include/media/TypeConverter.h"
  },
  {
   "access" : "protected",
   "linker_set_key" : "_ZN7android13TypeConverterINS_18OutputDeviceTraitsEE6mTableE",
   "name" : "android::TypeConverter<android::OutputDeviceTraits>::mTable",
   "referenced_type" : "_ZTIA_KN7android13TypeConverterINS_18OutputDeviceTraitsEE5TableE",
   "source_file" : "/frameworks/av/media/libmediahelper/include/media/TypeConverter.h"
  },
  {
   "access" : "protected",
   "linker_set_key" : "_ZN7android13TypeConverterINS_19OutputChannelTraitsEE6mTableE",
   "name" : "android::TypeConverter<android::OutputChannelTraits>::mTable",
   "referenced_type" : "_ZTIA_KN7android13TypeConverterINS_19OutputChannelTraitsEE5TableE",
   "source_file" : "/frameworks/av/media/libmediahelper/include/media/TypeConverter.h"
  },
  {
   "linker_set_key" : "_ZN7android14AudioParameter10keyRoutingE",
   "name" : "android::AudioParameter::keyRouting",
   "referenced_type" : "_ZTIKPKc",
   "source_file" : "/frameworks/av/media/libmediahelper/include/media/AudioParameter.h"
  },
  {
   "linker_set_key" : "_ZN7android14AudioParameter11keyChannelsE",
   "name" : "android::AudioParameter::keyChannels",
   "referenced_type" : "_ZTIKPKc",
   "source_file" : "/frameworks/av/media/libmediahelper/include/media/AudioParameter.h"
  },
  {
   "linker_set_key" : "_ZN7android14AudioParameter11keyHwAvSyncE",
   "name" : "android::AudioParameter::keyHwAvSync",
   "referenced_type" : "_ZTIKPKc",
   "source_file" : "/frameworks/av/media/libmediahelper/include/media/AudioParameter.h"
  },
  {
   "linker_set_key" : "_ZN7android14AudioParameter12keyProgramIdE",
   "name" : "android::AudioParameter::keyProgramId",
   "referenced_type" : "_ZTIKPKc",
   "source_file" : "/frameworks/av/media/libmediahelper/include/media/AudioParameter.h"
  },
  {
   "linker_set_key" : "_ZN7android14AudioParameter13keyFrameCountE",
   "name" : "android::AudioParameter::keyFrameCount",
   "referenced_type" : "_ZTIKPKc",
   "source_file" : "/frameworks/av/media/libmediahelper/include/media/AudioParameter.h"
  },
  {
   "linker_set_key" : "_ZN7android14AudioParameter13keyMonoOutputE",
   "name" : "android::AudioParameter::keyMonoOutput",
   "referenced_type" : "_ZTIKPKc",
   "source_file" : "/frameworks/av/media/libmediahelper/include/media/AudioParameter.h"
  },
  {
   "linker_set_key" : "_ZN7android14AudioParameter14keyInputSourceE",
   "name" : "android::AudioParameter::keyInputSource",
   "referenced_type" : "_ZTIKPKc",
   "source_file" : "/frameworks/av/media/libmediahelper/include/media/AudioParameter.h"
  },
  {
   "linker_set_key" : "_ZN7android14AudioParameter14keyScreenStateE",
   "name" : "android::AudioParameter::keyScreenState",
   "referenced_type" : "_ZTIKPKc",
   "source_file" : "/frameworks/av/media/libmediahelper/include/media/AudioParameter.h"
  },
  {
   "linker_set_key" : "_ZN7android14AudioParameter15keyReconfigA2dpE",
   "name" : "android::AudioParameter::keyReconfigA2dp",
   "referenced_type" : "_ZTIKPKc",
   "source_file" : "/frameworks/av/media/libmediahelper/include/media/AudioParameter.h"
  },
  {
   "linker_set_key" : "_ZN7android14AudioParameter15keySamplingRateE",
   "name" : "android::AudioParameter::keySamplingRate",
   "referenced_type" : "_ZTIKPKc",
   "source_file" : "/frameworks/av/media/libmediahelper/include/media/AudioParameter.h"
  },
  {
   "linker_set_key" : "_ZN7android14AudioParameter16keyDeviceConnectE",
   "name" : "android::AudioParameter::keyDeviceConnect",
   "referenced_type" : "_ZTIKPKc",
   "source_file" : "/frameworks/av/media/libmediahelper/include/media/AudioParameter.h"
  },
  {
   "linker_set_key" : "_ZN7android14AudioParameter16keyStreamConnectE",
   "name" : "android::AudioParameter::keyStreamConnect",
   "referenced_type" : "_ZTIKPKc",
   "source_file" : "/frameworks/av/media/libmediahelper/include/media/AudioParameter.h"
  },
  {
   "linker_set_key" : "_ZN7android14AudioParameter17keyPresentationIdE",
   "name" : "android::AudioParameter::keyPresentationId",
   "referenced_type" : "_ZTIKPKc",
   "source_file" : "/frameworks/av/media/libmediahelper/include/media/AudioParameter.h"
  },
  {
   "linker_set_key" : "_ZN7android14AudioParameter17keyStreamHwAvSyncE",
   "name" : "android::AudioParameter::keyStreamHwAvSync",
   "referenced_type" : "_ZTIKPKc",
   "source_file" : "/frameworks/av/media/libmediahelper/include/media/AudioParameter.h"
  },
  {
   "linker_set_key" : "_ZN7android14AudioParameter18valueListSeparatorE",
   "name" : "android::AudioParameter::valueListSeparator",
   "referenced_type" : "_ZTIKPKc",
   "source_file" : "/frameworks/av/media/libmediahelper/include/media/AudioParameter.h"
  },
  {
   "linker_set_key" : "_ZN7android14AudioParameter19keyDeviceDisconnectE",
   "name" : "android::AudioParameter::keyDeviceDisconnect",
   "referenced_type" : "_ZTIKPKc",
   "source_file" : "/frameworks/av/media/libmediahelper/include/media/AudioParameter.h"
  },
  {
   "linker_set_key" : "_ZN7android14AudioParameter19keyStreamDisconnectE",
   "name" : "android::AudioParameter::keyStreamDisconnect",
   "referenced_type" : "_ZTIKPKc",
   "source_file" : "/frameworks/av/media/libmediahelper/include/media/AudioParameter.h"
  },
  {
   "linker_set_key" : "_ZN7android14AudioParameter24keyReconfigA2dpSupportedE",
   "name" : "android::AudioParameter::keyReconfigA2dpSupported",
   "referenced_type" : "_ZTIKPKc",
   "source_file" : "/frameworks/av/media/libmediahelper/include/media/AudioParameter.h"
  },
  {
   "linker_set_key" : "_ZN7android14AudioParameter25keyAudioLanguagePreferredE",
   "name" : "android::AudioParameter::keyAudioLanguagePreferred",
   "referenced_type" : "_ZTIKPKc",
   "source_file" : "/frameworks/av/media/libmediahelper/include/media/AudioParameter.h"
  },
  {
   "linker_set_key" : "_ZN7android14AudioParameter25keyStreamSupportedFormatsE",
   "name" : "android::AudioParameter::keyStreamSupportedFormats",
   "referenced_type" : "_ZTIKPKc",
   "source_file" : "/frameworks/av/media/libmediahelper/include/media/AudioParameter.h"
  },
  {
   "linker_set_key" : "_ZN7android14AudioParameter26keyStreamSupportedChannelsE",
   "name" : "android::AudioParameter::keyStreamSupportedChannels",
   "referenced_type" : "_ZTIKPKc",
   "source_file" : "/frameworks/av/media/libmediahelper/include/media/AudioParameter.h"
  },
  {
   "linker_set_key" : "_ZN7android14AudioParameter31keyStreamSupportedSamplingRatesE",
   "name" : "android::AudioParameter::keyStreamSupportedSamplingRates",
   "referenced_type" : "_ZTIKPKc",
   "source_file" : "/frameworks/av/media/libmediahelper/include/media/AudioParameter.h"
  },
  {
   "linker_set_key" : "_ZN7android14AudioParameter7valueOnE",
   "name" : "android::AudioParameter::valueOn",
   "referenced_type" : "_ZTIKPKc",
   "source_file" : "/frameworks/av/media/libmediahelper/include/media/AudioParameter.h"
  },
  {
   "linker_set_key" : "_ZN7android14AudioParameter8valueOffE",
   "name" : "android::AudioParameter::valueOff",
   "referenced_type" : "_ZTIKPKc",
   "source_file" : "/frameworks/av/media/libmediahelper/include/media/AudioParameter.h"
  },
  {
   "linker_set_key" : "_ZN7android14AudioParameter9keyBtNrecE",
   "name" : "android::AudioParameter::keyBtNrec",
   "referenced_type" : "_ZTIKPKc",
   "source_file" : "/frameworks/av/media/libmediahelper/include/media/AudioParameter.h"
  },
  {
   "linker_set_key" : "_ZN7android14AudioParameter9keyFormatE",
   "name" : "android::AudioParameter::keyFormat",
   "referenced_type" : "_ZTIKPKc",
   "source_file" : "/frameworks/av/media/libmediahelper/include/media/AudioParameter.h"
  }
 ],
 "lvalue_reference_types" :
 [
  {
   "alignment" : 8,
   "linker_set_key" : "_ZTIRK20audio_content_type_t",
   "name" : "const audio_content_type_t &",
   "referenced_type" : "_ZTIK20audio_content_type_t",
   "self_type" : "_ZTIRK20audio_content_type_t",
   "size" : 8,
   "source_file" : "/frameworks/av/media/libmediahelper/include/media/TypeConverter.h"
  },
  {
   "alignment" : 8,
   "linker_set_key" : "_ZTIRKN7android7String8E",
   "name" : "const android::String8 &",
   "referenced_type" : "_ZTIKN7android7String8E",
   "self_type" : "_ZTIRKN7android7String8E",
   "size" : 8,
   "source_file" : "/frameworks/av/media/libmediahelper/include/media/AudioParameter.h"
  },
  {
   "alignment" : 8,
   "linker_set_key" : "_ZTIRKNSt3__112basic_stringIcNS_11char_traitsIcEENS_9allocatorIcEEEE",
   "name" : "const std::basic_string<char, std::char_traits<char>, std::allocator<char> > &",
   "referenced_type" : "_ZTIKNSt3__112basic_stringIcNS_11char_traitsIcEENS_9allocatorIcEEEE",
   "self_type" : "_ZTIRKNSt3__112basic_stringIcNS_11char_traitsIcEENS_9allocatorIcEEEE",
   "size" : 8,
   "source_file" : "/frameworks/av/media/libmediahelper/include/media/convert.h"
  },
  {
   "alignment" : 8,
   "linker_set_key" : "_ZTIRN7android7String8E",
   "name" : "android::String8 &",
   "referenced_type" : "_ZTIN7android7String8E",
   "self_type" : "_ZTIRN7android7String8E",
   "size" : 8,
   "source_file" : "/frameworks/av/media/libmediahelper/include/media/AudioParameter.h"
  },
  {
   "alignment" : 8,
   "linker_set_key" : "_ZTIRNSt3__112basic_stringIcNS_11char_traitsIcEENS_9allocatorIcEEEE",
   "name" : "std::basic_string<char, std::char_traits<char>, std::allocator<char> > &",
   "referenced_type" : "_ZTINSt3__112basic_stringIcNS_11char_traitsIcEENS_9allocatorIcEEEE",
   "self_type" : "_ZTIRNSt3__112basic_stringIcNS_11char_traitsIcEENS_9allocatorIcEEEE",
   "size" : 8,
   "source_file" : "/frameworks/av/media/libmediahelper/include/media/TypeConverter.h"
  },
  {
   "alignment" : 8,
   "linker_set_key" : "_ZTIRNSt3__13setIjNS_4lessIjEENS_9allocatorIjEEEE",
   "name" : "std::set<unsigned int, std::less<unsigned int>, std::allocator<unsigned int> > &",
   "referenced_type" : "_ZTINSt3__13setIjNS_4lessIjEENS_9allocatorIjEEEE",
   "self_type" : "_ZTIRNSt3__13setIjNS_4lessIjEENS_9allocatorIjEEEE",
   "size" : 8,
   "source_file" : "/frameworks/av/media/libmediahelper/include/media/TypeConverter.h"
  },
  {
   "alignment" : 8,
   "linker_set_key" : "_ZTIRNSt3__16vectorI12audio_mode_tNS_9allocatorIS1_EEEE",
   "name" : "std::vector<audio_mode_t, std::allocator<audio_mode_t> > &",
   "referenced_type" : "_ZTINSt3__16vectorI12audio_mode_tNS_9allocatorIS1_EEEE",
   "self_type" : "_ZTIRNSt3__16vectorI12audio_mode_tNS_9allocatorIS1_EEEE",
   "size" : 8,
   "source_file" : "/frameworks/av/media/libmediahelper/include/media/TypeConverter.h"
  },
  {
   "alignment" : 8,
   "linker_set_key" : "_ZTIRNSt3__16vectorI13audio_usage_tNS_9allocatorIS1_EEEE",
   "name" : "std::vector<audio_usage_t, std::allocator<audio_usage_t> > &",
   "referenced_type" : "_ZTINSt3__16vectorI13audio_usage_tNS_9allocatorIS1_EEEE",
   "self_type" : "_ZTIRNSt3__16vectorI13audio_usage_tNS_9allocatorIS1_EEEE",
   "size" : 8,
   "source_file" : "/frameworks/av/media/libmediahelper/include/media/TypeConverter.h"
  },
  {
   "alignment" : 8,
   "linker_set_key" : "_ZTIRNSt3__16vectorI14audio_format_tNS_9allocatorIS1_EEEE",
   "name" : "std::vector<audio_format_t, std::allocator<audio_format_t> > &",
   "referenced_type" : "_ZTINSt3__16vectorI14audio_format_tNS_9allocatorIS1_EEEE",
   "self_type" : "_ZTIRNSt3__16vectorI14audio_format_tNS_9allocatorIS1_EEEE",
   "size" : 8,
   "source_file" : "/frameworks/av/media/libmediahelper/include/media/TypeConverter.h"
  },
  {
   "alignment" : 8,
   "linker_set_key" : "_ZTIRNSt3__16vectorI14audio_source_tNS_9allocatorIS1_EEEE",
   "name" : "std::vector<audio_source_t, std::allocator<audio_source_t> > &",
   "referenced_type" : "_ZTINSt3__16vectorI14audio_source_tNS_9allocatorIS1_EEEE",
   "self_type" : "_ZTIRNSt3__16vectorI14audio_source_tNS_9allocatorIS1_EEEE",
   "size" : 8,
   "source_file" : "/frameworks/av/media/libmediahelper/include/media/TypeConverter.h"
  },
  {
   "alignment" : 8,
   "linker_set_key" : "_ZTIRNSt3__16vectorI19audio_input_flags_tNS_9allocatorIS1_EEEE",
   "name" : "std::vector<audio_input_flags_t, std::allocator<audio_input_flags_t> > &",
   "referenced_type" : "_ZTINSt3__16vectorI19audio_input_flags_tNS_9allocatorIS1_EEEE",
   "self_type" : "_ZTIRNSt3__16vectorI19audio_input_flags_tNS_9allocatorIS1_EEEE",
   "size" : 8,
   "source_file" : "/frameworks/av/media/libmediahelper/include/media/TypeConverter.h"
  },
  {
   "alignment" : 8,
   "linker_set_key" : "_ZTIRNSt3__16vectorI19audio_stream_type_tNS_9allocatorIS1_EEEE",
   "name" : "std::vector<audio_stream_type_t, std::allocator<audio_stream_type_t> > &",
   "referenced_type" : "_ZTINSt3__16vectorI19audio_stream_type_tNS_9allocatorIS1_EEEE",
   "self_type" : "_ZTIRNSt3__16vectorI19audio_stream_type_tNS_9allocatorIS1_EEEE",
   "size" : 8,
   "source_file" : "/frameworks/av/media/libmediahelper/include/media/TypeConverter.h"
  },
  {
   "alignment" : 8,
   "linker_set_key" : "_ZTIRNSt3__16vectorI20audio_output_flags_tNS_9allocatorIS1_EEEE",
   "name" : "std::vector<audio_output_flags_t, std::allocator<audio_output_flags_t> > &",
   "referenced_type" : "_ZTINSt3__16vectorI20audio_output_flags_tNS_9allocatorIS1_EEEE",
   "self_type" : "_ZTIRNSt3__16vectorI20audio_output_flags_tNS_9allocatorIS1_EEEE",
   "size" : 8,
   "source_file" : "/frameworks/av/media/libmediahelper/include/media/TypeConverter.h"
  },
  {
   "alignment" : 8,
   "linker_set_key" : "_ZTIRNSt3__16vectorIjNS_9allocatorIjEEEE",
   "name" : "std::vector<unsigned int, std::allocator<unsigned int> > &",
   "referenced_type" : "_ZTINSt3__16vectorIjNS_9allocatorIjEEEE",
   "self_type" : "_ZTIRNSt3__16vectorIjNS_9allocatorIjEEEE",
   "size" : 8,
   "source_file" : "/frameworks/av/media/libmediahelper/include/media/TypeConverter.h"
  },
  {
   "alignment" : 8,
   "linker_set_key" : "_ZTIRd",
   "name" : "double &",
   "referenced_type" : "_ZTId",
   "self_type" : "_ZTIRd",
   "size" : 8,
   "source_file" : "/frameworks/av/media/libmediahelper/include/media/convert.h"
  },
  {
   "alignment" : 8,
   "linker_set_key" : "_ZTIRf",
   "name" : "float &",
   "referenced_type" : "_ZTIf",
   "self_type" : "_ZTIRf",
   "size" : 8,
   "source_file" : "/frameworks/av/media/libmediahelper/include/media/AudioParameter.h"
  },
  {
   "alignment" : 8,
   "linker_set_key" : "_ZTIRi",
   "name" : "int &",
   "referenced_type" : "_ZTIi",
   "self_type" : "_ZTIRi",
   "size" : 8,
   "source_file" : "/frameworks/av/media/libmediahelper/include/media/AudioParameter.h"
  },
  {
   "alignment" : 8,
   "linker_set_key" : "_ZTIRj",
   "name" : "unsigned int &",
   "referenced_type" : "_ZTIj",
   "self_type" : "_ZTIRj",
   "size" : 8,
   "source_file" : "/frameworks/av/media/libmediahelper/include/media/convert.h"
  },
  {
   "alignment" : 8,
   "linker_set_key" : "_ZTIRl",
   "name" : "long &",
   "referenced_type" : "_ZTIl",
   "self_type" : "_ZTIRl",
   "size" : 8,
   "source_file" : "/frameworks/av/media/libmediahelper/include/media/convert.h"
  }
 ],
 "pointer_types" :
 [
  {
   "alignment" : 8,
   "linker_set_key" : "_ZTIPKN7android14AudioParameterE",
   "name" : "const android::AudioParameter *",
   "referenced_type" : "_ZTIKN7android14AudioParameterE",
   "self_type" : "_ZTIPKN7android14AudioParameterE",
   "size" : 8,
   "source_file" : "/frameworks/av/media/libmediahelper/include/media/AudioParameter.h"
  },
  {
   "alignment" : 8,
   "linker_set_key" : "_ZTIPKc",
   "name" : "const char *",
   "referenced_type" : "_ZTIKc",
   "self_type" : "_ZTIPKc",
   "size" : 8,
   "source_file" : "/frameworks/av/media/libmediahelper/include/media/AudioParameter.h"
  },
  {
   "alignment" : 8,
   "linker_set_key" : "_ZTIPN7android14AudioParameterE",
   "name" : "android::AudioParameter *",
   "referenced_type" : "_ZTIN7android14AudioParameterE",
   "self_type" : "_ZTIPN7android14AudioParameterE",
   "size" : 8,
   "source_file" : "/frameworks/av/media/libmediahelper/include/media/AudioParameter.h"
  }
 ],
 "qualified_types" :
 [
  {
   "is_const" : true,
   "linker_set_key" : "_ZTIA_KN7android13TypeConverterINS_13DefaultTraitsI12audio_mode_tEEE5TableE",
   "name" : "android::TypeConverter<android::DefaultTraits<audio_mode_t> >::Table const[]",
   "referenced_type" : "_ZTIA_N7android13TypeConverterINS_13DefaultTraitsI12audio_mode_tEEE5TableE",
   "self_type" : "_ZTIA_KN7android13TypeConverterINS_13DefaultTraitsI12audio_mode_tEEE5TableE",
   "source_file" : "/frameworks/av/media/libmediahelper/include/media/TypeConverter.h"
  },
  {
   "is_const" : true,
   "linker_set_key" : "_ZTIA_KN7android13TypeConverterINS_13DefaultTraitsI13audio_usage_tEEE5TableE",
   "name" : "android::TypeConverter<android::DefaultTraits<audio_usage_t> >::Table const[]",
   "referenced_type" : "_ZTIA_N7android13TypeConverterINS_13DefaultTraitsI13audio_usage_tEEE5TableE",
   "self_type" : "_ZTIA_KN7android13TypeConverterINS_13DefaultTraitsI13audio_usage_tEEE5TableE",
   "source_file" : "/frameworks/av/media/libmediahelper/include/media/TypeConverter.h"
  },
  {
   "is_const" : true,
   "linker_set_key" : "_ZTIA_KN7android13TypeConverterINS_13DefaultTraitsI14audio_format_tEEE5TableE",
   "name" : "android::TypeConverter<android::DefaultTraits<audio_format_t> >::Table const[]",
   "referenced_type" : "_ZTIA_N7android13TypeConverterINS_13DefaultTraitsI14audio_format_tEEE5TableE",
   "self_type" : "_ZTIA_KN7android13TypeConverterINS_13DefaultTraitsI14audio_format_tEEE5TableE",
   "source_file" : "/frameworks/av/media/libmediahelper/include/media/TypeConverter.h"
  },
  {
   "is_const" : true,
   "linker_set_key" : "_ZTIA_KN7android13TypeConverterINS_13DefaultTraitsI14audio_source_tEEE5TableE",
   "name" : "android::TypeConverter<android::DefaultTraits<audio_source_t> >::Table const[]",
   "referenced_type" : "_ZTIA_N7android13TypeConverterINS_13DefaultTraitsI14audio_source_tEEE5TableE",
   "self_type" : "_ZTIA_KN7android13TypeConverterINS_13DefaultTraitsI14audio_source_tEEE5TableE",
   "source_file" : "/frameworks/av/media/libmediahelper/include/media/TypeConverter.h"
  },
  {
   "is_const" : true,
   "linker_set_key" : "_ZTIA_KN7android13TypeConverterINS_13DefaultTraitsI19audio_input_flags_tEEE5TableE",
   "name" : "android::TypeConverter<android::DefaultTraits<audio_input_flags_t> >::Table const[]",
   "referenced_type" : "_ZTIA_N7android13TypeConverterINS_13DefaultTraitsI19audio_input_flags_tEEE5TableE",
   "self_type" : "_ZTIA_KN7android13TypeConverterINS_13DefaultTraitsI19audio_input_flags_tEEE5TableE",
   "source_file" : "/frameworks/av/media/libmediahelper/include/media/TypeConverter.h"
  },
  {
   "is_const" : true,
   "linker_set_key" : "_ZTIA_KN7android13TypeConverterINS_13DefaultTraitsI19audio_stream_type_tEEE5TableE",
   "name" : "android::TypeConverter<android::DefaultTraits<audio_stream_type_t> >::Table const[]",
   "referenced_type" : "_ZTIA_N7android13TypeConverterINS_13DefaultTraitsI19audio_stream_type_tEEE5TableE",
   "self_type" : "_ZTIA_KN7android13TypeConverterINS_13DefaultTraitsI19audio_stream_type_tEEE5TableE",
   "source_file" : "/frameworks/av/media/libmediahelper/include/media/TypeConverter.h"
  },
  {
   "is_const" : true,
   "linker_set_key" : "_ZTIA_KN7android13TypeConverterINS_13DefaultTraitsI20audio_content_type_tEEE5TableE",
   "name" : "android::TypeConverter<android::DefaultTraits<audio_content_type_t> >::Table const[]",
   "referenced_type" : "_ZTIA_N7android13TypeConverterINS_13DefaultTraitsI20audio_content_type_tEEE5TableE",
   "self_type" : "_ZTIA_KN7android13TypeConverterINS_13DefaultTraitsI20audio_content_type_tEEE5TableE",
   "source_file" : "/frameworks/av/media/libmediahelper/include/media/TypeConverter.h"
  },
  {
   "is_const" : true,
   "linker_set_key" : "_ZTIA_KN7android13TypeConverterINS_13DefaultTraitsI20audio_output_flags_tEEE5TableE",
   "name" : "android::TypeConverter<android::DefaultTraits<audio_output_flags_t> >::Table const[]",
   "referenced_type" : "_ZTIA_N7android13TypeConverterINS_13DefaultTraitsI20audio_output_flags_tEEE5TableE",
   "self_type" : "_ZTIA_KN7android13TypeConverterINS_13DefaultTraitsI20audio_output_flags_tEEE5TableE",
   "source_file" : "/frameworks/av/media/libmediahelper/include/media/TypeConverter.h"
  },
  {
   "is_const" : true,
   "linker_set_key" : "_ZTIA_KN7android13TypeConverterINS_13DefaultTraitsIjEEE5TableE",
   "name" : "android::TypeConverter<android::DefaultTraits<unsigned int> >::Table const[]",
   "referenced_type" : "_ZTIA_N7android13TypeConverterINS_13DefaultTraitsIjEEE5TableE",
   "self_type" : "_ZTIA_KN7android13TypeConverterINS_13DefaultTraitsIjEEE5TableE",
   "source_file" : "/frameworks/av/media/libmediahelper/include/media/TypeConverter.h"
  },
  {
   "is_const" : true,
   "linker_set_key" : "_ZTIA_KN7android13TypeConverterINS_15AudioFlagTraitsEE5TableE",
   "name" : "android::TypeConverter<android::AudioFlagTraits>::Table const[]",
   "referenced_type" : "_ZTIA_N7android13TypeConverterINS_15AudioFlagTraitsEE5TableE",
   "self_type" : "_ZTIA_KN7android13TypeConverterINS_15AudioFlagTraitsEE5TableE",
   "source_file" : "/frameworks/av/media/libmediahelper/include/media/TypeConverter.h"
  },
  {
   "is_const" : true,
   "linker_set_key" : "_ZTIA_KN7android13TypeConverterINS_17InputDeviceTraitsEE5TableE",
   "name" : "android::TypeConverter<android::InputDeviceTraits>::Table const[]",
   "referenced_type" : "_ZTIA_N7android13TypeConverterINS_17InputDeviceTraitsEE5TableE",
   "self_type" : "_ZTIA_KN7android13TypeConverterINS_17InputDeviceTraitsEE5TableE",
   "source_file" : "/frameworks/av/media/libmediahelper/include/media/TypeConverter.h"
  },
  {
   "is_const" : true,
   "linker_set_key" : "_ZTIA_KN7android13TypeConverterINS_18ChannelIndexTraitsEE5TableE",
   "name" : "android::TypeConverter<android::ChannelIndexTraits>::Table const[]",
   "referenced_type" : "_ZTIA_N7android13TypeConverterINS_18ChannelIndexTraitsEE5TableE",
   "self_type" : "_ZTIA_KN7android13TypeConverterINS_18ChannelIndexTraitsEE5TableE",
   "source_file" : "/frameworks/av/media/libmediahelper/include/media/TypeConverter.h"
  },
  {
   "is_const" : true,
   "linker_set_key" : "_ZTIA_KN7android13TypeConverterINS_18InputChannelTraitsEE5TableE",
   "name" : "android::TypeConverter<android::InputChannelTraits>::Table const[]",
   "referenced_type" : "_ZTIA_N7android13TypeConverterINS_18InputChannelTraitsEE5TableE",
   "self_type" : "_ZTIA_KN7android13TypeConverterINS_18InputChannelTraitsEE5TableE",
   "source_file" : "/frameworks/av/media/libmediahelper/include/media/TypeConverter.h"
  },
  {
   "is_const" : true,
   "linker_set_key" : "_ZTIA_KN7android13TypeConverterINS_18OutputDeviceTraitsEE5TableE",
   "name" : "android::TypeConverter<android::OutputDeviceTraits>::Table const[]",
   "referenced_type" : "_ZTIA_N7android13TypeConverterINS_18OutputDeviceTraitsEE5TableE",
   "self_type" : "_ZTIA_KN7android13TypeConverterINS_18OutputDeviceTraitsEE5TableE",
   "source_file" : "/frameworks/av/media/libmediahelper/include/media/TypeConverter.h"
  },
  {
   "is_const" : true,
   "linker_set_key" : "_ZTIA_KN7android13TypeConverterINS_19OutputChannelTraitsEE5TableE",
   "name" : "android::TypeConverter<android::OutputChannelTraits>::Table const[]",
   "referenced_type" : "_ZTIA_N7android13TypeConverterINS_19OutputChannelTraitsEE5TableE",
   "self_type" : "_ZTIA_KN7android13TypeConverterINS_19OutputChannelTraitsEE5TableE",
   "source_file" : "/frameworks/av/media/libmediahelper/include/media/TypeConverter.h"
  },
  {
   "alignment" : 4,
   "is_const" : true,
   "linker_set_key" : "_ZTIK20audio_content_type_t",
   "name" : "const audio_content_type_t",
   "referenced_type" : "_ZTI20audio_content_type_t",
   "self_type" : "_ZTIK20audio_content_type_t",
   "size" : 4,
   "source_file" : "/frameworks/av/media/libmediahelper/include/media/TypeConverter.h"
  },
  {
   "alignment" : 8,
   "is_const" : true,
   "linker_set_key" : "_ZTIKN7android14AudioParameterE",
   "name" : "const android::AudioParameter",
   "referenced_type" : "_ZTIN7android14AudioParameterE",
   "self_type" : "_ZTIKN7android14AudioParameterE",
   "size" : 56,
   "source_file" : "/frameworks/av/media/libmediahelper/include/media/AudioParameter.h"
  },
  {
   "alignment" : 8,
   "is_const" : true,
   "linker_set_key" : "_ZTIKN7android7String8E",
   "name" : "const android::String8",
   "referenced_type" : "_ZTIN7android7String8E",
   "self_type" : "_ZTIKN7android7String8E",
   "size" : 8,
   "source_file" : "/frameworks/av/media/libmediahelper/include/media/AudioParameter.h"
  },
  {
   "alignment" : 8,
   "is_const" : true,
   "linker_set_key" : "_ZTIKNSt3__112basic_stringIcNS_11char_traitsIcEENS_9allocatorIcEEEE",
   "name" : "const std::basic_string<char, std::char_traits<char>, std::allocator<char> >",
   "referenced_type" : "_ZTINSt3__112basic_stringIcNS_11char_traitsIcEENS_9allocatorIcEEEE",
   "self_type" : "_ZTIKNSt3__112basic_stringIcNS_11char_traitsIcEENS_9allocatorIcEEEE",
   "size" : 24,
   "source_file" : "/frameworks/av/media/libmediahelper/include/media/convert.h"
  },
  {
   "alignment" : 8,
   "is_const" : true,
   "linker_set_key" : "_ZTIKPKc",
   "name" : "const char *const",
   "referenced_type" : "_ZTIPKc",
   "self_type" : "_ZTIKPKc",
   "size" : 8,
   "source_file" : "/frameworks/av/media/libmediahelper/include/media/AudioParameter.h"
  },
  {
   "alignment" : 1,
   "is_const" : true,
   "linker_set_key" : "_ZTIKc",
   "name" : "const char",
   "referenced_type" : "_ZTIc",
   "self_type" : "_ZTIKc",
   "size" : 1,
   "source_file" : "/frameworks/av/media/libmediahelper/include/media/AudioParameter.h"
  },
  {
   "alignment" : 4,
   "is_const" : true,
   "linker_set_key" : "_ZTIKf",
   "name" : "const float",
   "referenced_type" : "_ZTIf",
   "self_type" : "_ZTIKf",
   "size" : 4,
   "source_file" : "/frameworks/av/media/libmediahelper/include/media/AudioParameter.h"
  },
  {
   "alignment" : 4,
   "is_const" : true,
   "linker_set_key" : "_ZTIKi",
   "name" : "const int",
   "referenced_type" : "_ZTIi",
   "self_type" : "_ZTIKi",
   "size" : 4,
   "source_file" : "/frameworks/av/media/libmediahelper/include/media/AudioParameter.h"
  },
  {
   "alignment" : 4,
   "is_const" : true,
   "linker_set_key" : "_ZTIKj",
   "name" : "const unsigned int",
   "referenced_type" : "_ZTIj",
   "self_type" : "_ZTIKj",
   "size" : 4,
   "source_file" : "/frameworks/av/media/libmediahelper/include/media/convert.h"
  }
 ],
 "record_types" :
 [
  {
   "alignment" : 1,
   "linker_set_key" : "_ZTIN7android13DefaultTraitsI12audio_mode_tEE",
   "name" : "android::DefaultTraits<audio_mode_t>",
   "referenced_type" : "_ZTIN7android13DefaultTraitsI12audio_mode_tEE",
   "self_type" : "_ZTIN7android13DefaultTraitsI12audio_mode_tEE",
   "size" : 1,
   "source_file" : "/frameworks/av/media/libmediahelper/include/media/TypeConverter.h",
   "template_args" : [ "_ZTI12audio_mode_t" ]
  },
  {
   "alignment" : 1,
   "linker_set_key" : "_ZTIN7android13DefaultTraitsI13audio_usage_tEE",
   "name" : "android::DefaultTraits<audio_usage_t>",
   "referenced_type" : "_ZTIN7android13DefaultTraitsI13audio_usage_tEE",
   "self_type" : "_ZTIN7android13DefaultTraitsI13audio_usage_tEE",
   "size" : 1,
   "source_file" : "/frameworks/av/media/libmediahelper/include/media/TypeConverter.h",
   "template_args" : [ "_ZTI13audio_usage_t" ]
  },
  {
   "alignment" : 1,
   "linker_set_key" : "_ZTIN7android13DefaultTraitsI14audio_format_tEE",
   "name" : "android::DefaultTraits<audio_format_t>",
   "referenced_type" : "_ZTIN7android13DefaultTraitsI14audio_format_tEE",
   "self_type" : "_ZTIN7android13DefaultTraitsI14audio_format_tEE",
   "size" : 1,
   "source_file" : "/frameworks/av/media/libmediahelper/include/media/TypeConverter.h",
   "template_args" : [ "_ZTI14audio_format_t" ]
  },
  {
   "alignment" : 1,
   "linker_set_key" : "_ZTIN7android13DefaultTraitsI14audio_source_tEE",
   "name" : "android::DefaultTraits<audio_source_t>",
   "referenced_type" : "_ZTIN7android13DefaultTraitsI14audio_source_tEE",
   "self_type" : "_ZTIN7android13DefaultTraitsI14audio_source_tEE",
   "size" : 1,
   "source_file" : "/frameworks/av/media/libmediahelper/include/media/TypeConverter.h",
   "template_args" : [ "_ZTI14audio_source_t" ]
  },
  {
   "alignment" : 1,
   "linker_set_key" : "_ZTIN7android13DefaultTraitsI19audio_input_flags_tEE",
   "name" : "android::DefaultTraits<audio_input_flags_t>",
   "referenced_type" : "_ZTIN7android13DefaultTraitsI19audio_input_flags_tEE",
   "self_type" : "_ZTIN7android13DefaultTraitsI19audio_input_flags_tEE",
   "size" : 1,
   "source_file" : "/frameworks/av/media/libmediahelper/include/media/TypeConverter.h",
   "template_args" : [ "_ZTI19audio_input_flags_t" ]
  },
  {
   "alignment" : 1,
   "linker_set_key" : "_ZTIN7android13DefaultTraitsI19audio_stream_type_tEE",
   "name" : "android::DefaultTraits<audio_stream_type_t>",
   "referenced_type" : "_ZTIN7android13DefaultTraitsI19audio_stream_type_tEE",
   "self_type" : "_ZTIN7android13DefaultTraitsI19audio_stream_type_tEE",
   "size" : 1,
   "source_file" : "/frameworks/av/media/libmediahelper/include/media/TypeConverter.h",
   "template_args" : [ "_ZTI19audio_stream_type_t" ]
  },
  {
   "alignment" : 1,
   "linker_set_key" : "_ZTIN7android13DefaultTraitsI20audio_content_type_tEE",
   "name" : "android::DefaultTraits<audio_content_type_t>",
   "referenced_type" : "_ZTIN7android13DefaultTraitsI20audio_content_type_tEE",
   "self_type" : "_ZTIN7android13DefaultTraitsI20audio_content_type_tEE",
   "size" : 1,
   "source_file" : "/frameworks/av/media/libmediahelper/include/media/TypeConverter.h",
   "template_args" : [ "_ZTI20audio_content_type_t" ]
  },
  {
   "alignment" : 1,
   "linker_set_key" : "_ZTIN7android13DefaultTraitsI20audio_output_flags_tEE",
   "name" : "android::DefaultTraits<audio_output_flags_t>",
   "referenced_type" : "_ZTIN7android13DefaultTraitsI20audio_output_flags_tEE",
   "self_type" : "_ZTIN7android13DefaultTraitsI20audio_output_flags_tEE",
   "size" : 1,
   "source_file" : "/frameworks/av/media/libmediahelper/include/media/TypeConverter.h",
   "template_args" : [ "_ZTI20audio_output_flags_t" ]
  },
  {
   "alignment" : 1,
   "linker_set_key" : "_ZTIN7android13DefaultTraitsIjEE",
   "name" : "android::DefaultTraits<unsigned int>",
   "referenced_type" : "_ZTIN7android13DefaultTraitsIjEE",
   "self_type" : "_ZTIN7android13DefaultTraitsIjEE",
   "size" : 1,
   "source_file" : "/frameworks/av/media/libmediahelper/include/media/TypeConverter.h",
   "template_args" : [ "_ZTIj" ]
  },
  {
   "access" : "protected",
   "alignment" : 8,
   "fields" :
   [
    {
     "field_name" : "literal",
     "referenced_type" : "_ZTIPKc"
    },
    {
     "field_name" : "value",
     "field_offset" : 64,
     "referenced_type" : "_ZTI20audio_content_type_t"
    }
   ],
   "linker_set_key" : "_ZTIN7android13TypeConverterINS_13DefaultTraitsI20audio_content_type_tEEE5TableE",
   "name" : "android::TypeConverter<DefaultTraits<audio_content_type_t> >::Table",
   "referenced_type" : "_ZTIN7android13TypeConverterINS_13DefaultTraitsI20audio_content_type_tEEE5TableE",
   "self_type" : "_ZTIN7android13TypeConverterINS_13DefaultTraitsI20audio_content_type_tEEE5TableE",
   "size" : 16,
   "source_file" : "/frameworks/av/media/libmediahelper/include/media/TypeConverter.h"
  },
  {
   "alignment" : 1,
   "linker_set_key" : "_ZTIN7android13TypeConverterINS_13DefaultTraitsI20audio_content_type_tEEEE",
   "name" : "android::TypeConverter<android::DefaultTraits<audio_content_type_t> >",
   "record_kind" : "class",
   "referenced_type" : "_ZTIN7android13TypeConverterINS_13DefaultTraitsI20audio_content_type_tEEEE",
   "self_type" : "_ZTIN7android13TypeConverterINS_13DefaultTraitsI20audio_content_type_tEEEE",
   "size" : 1,
   "source_file" : "/frameworks/av/media/libmediahelper/include/media/TypeConverter.h",
   "template_args" : [ "_ZTIN7android13DefaultTraitsI20audio_content_type_tEE" ]
  },
  {
   "alignment" : 8,
   "fields" :
   [
    {
     "access" : "private",
     "field_name" : "mKeyValuePairs",
     "field_offset" : 64,
     "referenced_type" : "_ZTIN7android7String8E"
    },
    {
     "access" : "private",
     "field_name" : "mParameters",
     "field_offset" : 128,
     "referenced_type" : "_ZTIN7android11KeyedVectorINS_7String8ES1_EE"
    }
   ],
   "linker_set_key" : "_ZTIN7android14AudioParameterE",
   "name" : "android::AudioParameter",
   "record_kind" : "class",
   "referenced_type" : "_ZTIN7android14AudioParameterE",
   "self_type" : "_ZTIN7android14AudioParameterE",
   "size" : 56,
   "source_file" : "/frameworks/av/media/libmediahelper/include/media/AudioParameter.h",
   "vtable_components" :
   [
    {
     "kind" : "offset_to_top"
    },
    {
     "kind" : "rtti",
     "mangled_component_name" : "_ZTIN7android14AudioParameterE"
    },
    {
     "kind" : "complete_dtor_pointer",
     "mangled_component_name" : "_ZN7android14AudioParameterD1Ev"
    },
    {
     "kind" : "deleting_dtor_pointer",
     "mangled_component_name" : "_ZN7android14AudioParameterD0Ev"
    }
   ]
  },
  {
   "alignment" : 1,
   "base_specifiers" :
   [
    {
     "referenced_type" : "_ZTIN7android13DefaultTraitsIjEE"
    }
   ],
   "linker_set_key" : "_ZTIN7android15AudioFlagTraitsE",
   "name" : "android::AudioFlagTraits",
   "referenced_type" : "_ZTIN7android15AudioFlagTraitsE",
   "self_type" : "_ZTIN7android15AudioFlagTraitsE",
   "size" : 1,
   "source_file" : "/frameworks/av/media/libmediahelper/include/media/TypeConverter.h"
  },
  {
   "alignment" : 1,
   "base_specifiers" :
   [
    {
     "referenced_type" : "_ZTIN7android13DefaultTraitsIjEE"
    }
   ],
   "linker_set_key" : "_ZTIN7android17InputDeviceTraitsE",
   "name" : "android::InputDeviceTraits",
   "referenced_type" : "_ZTIN7android17InputDeviceTraitsE",
   "self_type" : "_ZTIN7android17InputDeviceTraitsE",
   "size" : 1,
   "source_file" : "/frameworks/av/media/libmediahelper/include/media/TypeConverter.h"
  },
  {
   "alignment" : 1,
   "base_specifiers" :
   [
    {
     "referenced_type" : "_ZTIN7android9SetTraitsIjEE"
    }
   ],
   "linker_set_key" : "_ZTIN7android18ChannelIndexTraitsE",
   "name" : "android::ChannelIndexTraits",
   "referenced_type" : "_ZTIN7android18ChannelIndexTraitsE",
   "self_type" : "_ZTIN7android18ChannelIndexTraitsE",
   "size" : 1,
   "source_file" : "/frameworks/av/media/libmediahelper/include/media/TypeConverter.h"
  },
  {
   "alignment" : 1,
   "base_specifiers" :
   [
    {
     "referenced_type" : "_ZTIN7android9SetTraitsIjEE"
    }
   ],
   "linker_set_key" : "_ZTIN7android18InputChannelTraitsE",
   "name" : "android::InputChannelTraits",
   "referenced_type" : "_ZTIN7android18InputChannelTraitsE",
   "self_type" : "_ZTIN7android18InputChannelTraitsE",
   "size" : 1,
   "source_file" : "/frameworks/av/media/libmediahelper/include/media/TypeConverter.h"
  },
  {
   "alignment" : 1,
   "base_specifiers" :
   [
    {
     "referenced_type" : "_ZTIN7android13DefaultTraitsIjEE"
    }
   ],
   "linker_set_key" : "_ZTIN7android18OutputDeviceTraitsE",
   "name" : "android::OutputDeviceTraits",
   "referenced_type" : "_ZTIN7android18OutputDeviceTraitsE",
   "self_type" : "_ZTIN7android18OutputDeviceTraitsE",
   "size" : 1,
   "source_file" : "/frameworks/av/media/libmediahelper/include/media/TypeConverter.h"
  },
  {
   "alignment" : 1,
   "base_specifiers" :
   [
    {
     "referenced_type" : "_ZTIN7android9SetTraitsIjEE"
    }
   ],
   "linker_set_key" : "_ZTIN7android19OutputChannelTraitsE",
   "name" : "android::OutputChannelTraits",
   "referenced_type" : "_ZTIN7android19OutputChannelTraitsE",
   "self_type" : "_ZTIN7android19OutputChannelTraitsE",
   "size" : 1,
   "source_file" : "/frameworks/av/media/libmediahelper/include/media/TypeConverter.h"
  },
  {
   "alignment" : 1,
   "linker_set_key" : "_ZTIN7android9SetTraitsIjEE",
   "name" : "android::SetTraits<unsigned int>",
   "referenced_type" : "_ZTIN7android9SetTraitsIjEE",
   "self_type" : "_ZTIN7android9SetTraitsIjEE",
   "size" : 1,
   "source_file" : "/frameworks/av/media/libmediahelper/include/media/TypeConverter.h",
   "template_args" : [ "_ZTIj" ]
  },
  {
   "alignment" : 1,
   "linker_set_key" : "_ZTIN7android9utilities7details25ConversionToStringAllowedIdEE",
   "name" : "android::utilities::details::ConversionToStringAllowed<double>",
   "referenced_type" : "_ZTIN7android9utilities7details25ConversionToStringAllowedIdEE",
   "self_type" : "_ZTIN7android9utilities7details25ConversionToStringAllowedIdEE",
   "size" : 1,
   "source_file" : "/frameworks/av/media/libmediahelper/include/media/convert.h",
   "template_args" : [ "_ZTId" ]
  },
  {
   "alignment" : 1,
   "linker_set_key" : "_ZTIN7android9utilities7details25ConversionToStringAllowedIfEE",
   "name" : "android::utilities::details::ConversionToStringAllowed<float>",
   "referenced_type" : "_ZTIN7android9utilities7details25ConversionToStringAllowedIfEE",
   "self_type" : "_ZTIN7android9utilities7details25ConversionToStringAllowedIfEE",
   "size" : 1,
   "source_file" : "/frameworks/av/media/libmediahelper/include/media/convert.h",
   "template_args" : [ "_ZTIf" ]
  },
  {
   "alignment" : 1,
   "linker_set_key" : "_ZTIN7android9utilities7details25ConversionToStringAllowedIiEE",
   "name" : "android::utilities::details::ConversionToStringAllowed<int32_t>",
   "referenced_type" : "_ZTIN7android9utilities7details25ConversionToStringAllowedIiEE",
   "self_type" : "_ZTIN7android9utilities7details25ConversionToStringAllowedIiEE",
   "size" : 1,
   "source_file" : "/frameworks/av/media/libmediahelper/include/media/convert.h",
   "template_args" : [ "_ZTIi" ]
  },
  {
   "alignment" : 1,
   "linker_set_key" : "_ZTIN7android9utilities7details25ConversionToStringAllowedIjEE",
   "name" : "android::utilities::details::ConversionToStringAllowed<uint32_t>",
   "referenced_type" : "_ZTIN7android9utilities7details25ConversionToStringAllowedIjEE",
   "self_type" : "_ZTIN7android9utilities7details25ConversionToStringAllowedIjEE",
   "size" : 1,
   "source_file" : "/frameworks/av/media/libmediahelper/include/media/convert.h",
   "template_args" : [ "_ZTIj" ]
  },
  {
   "alignment" : 1,
   "linker_set_key" : "_ZTIN7android9utilities7details25ConversionToStringAllowedIlEE",
   "name" : "android::utilities::details::ConversionToStringAllowed<int64_t>",
   "referenced_type" : "_ZTIN7android9utilities7details25ConversionToStringAllowedIlEE",
   "self_type" : "_ZTIN7android9utilities7details25ConversionToStringAllowedIlEE",
   "size" : 1,
   "source_file" : "/frameworks/av/media/libmediahelper/include/media/convert.h",
   "template_args" : [ "_ZTIl" ]
  },
  {
   "alignment" : 1,
   "linker_set_key" : "_ZTIN7android9utilities7details25ConversionToStringAllowedImEE",
   "name" : "android::utilities::details::ConversionToStringAllowed<uint64_t>",
   "referenced_type" : "_ZTIN7android9utilities7details25ConversionToStringAllowedImEE",
   "self_type" : "_ZTIN7android9utilities7details25ConversionToStringAllowedImEE",
   "size" : 1,
   "source_file" : "/frameworks/av/media/libmediahelper/include/media/convert.h",
   "template_args" : [ "_ZTIm" ]
  },
  {
   "alignment" : 1,
   "linker_set_key" : "_ZTIN7android9utilities7details27ConversionFromStringAllowedIbEE",
   "name" : "android::utilities::details::ConversionFromStringAllowed<bool>",
   "referenced_type" : "_ZTIN7android9utilities7details27ConversionFromStringAllowedIbEE",
   "self_type" : "_ZTIN7android9utilities7details27ConversionFromStringAllowedIbEE",
   "size" : 1,
   "source_file" : "/frameworks/av/media/libmediahelper/include/media/convert.h",
   "template_args" : [ "_ZTIb" ]
  },
  {
   "alignment" : 1,
   "linker_set_key" : "_ZTIN7android9utilities7details27ConversionFromStringAllowedIdEE",
   "name" : "android::utilities::details::ConversionFromStringAllowed<double>",
   "referenced_type" : "_ZTIN7android9utilities7details27ConversionFromStringAllowedIdEE",
   "self_type" : "_ZTIN7android9utilities7details27ConversionFromStringAllowedIdEE",
   "size" : 1,
   "source_file" : "/frameworks/av/media/libmediahelper/include/media/convert.h",
   "template_args" : [ "_ZTId" ]
  },
  {
   "alignment" : 1,
   "linker_set_key" : "_ZTIN7android9utilities7details27ConversionFromStringAllowedIfEE",
   "name" : "android::utilities::details::ConversionFromStringAllowed<float>",
   "referenced_type" : "_ZTIN7android9utilities7details27ConversionFromStringAllowedIfEE",
   "self_type" : "_ZTIN7android9utilities7details27ConversionFromStringAllowedIfEE",
   "size" : 1,
   "source_file" : "/frameworks/av/media/libmediahelper/include/media/convert.h",
   "template_args" : [ "_ZTIf" ]
  },
  {
   "alignment" : 1,
   "linker_set_key" : "_ZTIN7android9utilities7details27ConversionFromStringAllowedIiEE",
   "name" : "android::utilities::details::ConversionFromStringAllowed<int32_t>",
   "referenced_type" : "_ZTIN7android9utilities7details27ConversionFromStringAllowedIiEE",
   "self_type" : "_ZTIN7android9utilities7details27ConversionFromStringAllowedIiEE",
   "size" : 1,
   "source_file" : "/frameworks/av/media/libmediahelper/include/media/convert.h",
   "template_args" : [ "_ZTIi" ]
  },
  {
   "alignment" : 1,
   "linker_set_key" : "_ZTIN7android9utilities7details27ConversionFromStringAllowedIjEE",
   "name" : "android::utilities::details::ConversionFromStringAllowed<uint32_t>",
   "referenced_type" : "_ZTIN7android9utilities7details27ConversionFromStringAllowedIjEE",
   "self_type" : "_ZTIN7android9utilities7details27ConversionFromStringAllowedIjEE",
   "size" : 1,
   "source_file" : "/frameworks/av/media/libmediahelper/include/media/convert.h",
   "template_args" : [ "_ZTIj" ]
  },
  {
   "alignment" : 1,
   "linker_set_key" : "_ZTIN7android9utilities7details27ConversionFromStringAllowedIlEE",
   "name" : "android::utilities::details::ConversionFromStringAllowed<int64_t>",
   "referenced_type" : "_ZTIN7android9utilities7details27ConversionFromStringAllowedIlEE",
   "self_type" : "_ZTIN7android9utilities7details27ConversionFromStringAllowedIlEE",
   "size" : 1,
   "source_file" : "/frameworks/av/media/libmediahelper/include/media/convert.h",
   "template_args" : [ "_ZTIl" ]
  },
  {
   "alignment" : 1,
   "linker_set_key" : "_ZTIN7android9utilities7details27ConversionFromStringAllowedImEE",
   "name" : "android::utilities::details::ConversionFromStringAllowed<uint64_t>",
   "referenced_type" : "_ZTIN7android9utilities7details27ConversionFromStringAllowedImEE",
   "self_type" : "_ZTIN7android9utilities7details27ConversionFromStringAllowedImEE",
   "size" : 1,
   "source_file" : "/frameworks/av/media/libmediahelper/include/media/convert.h",
   "template_args" : [ "_ZTIm" ]
  },
  {
   "alignment" : 1,
   "linker_set_key" : "_ZTIN7android9utilities7details27ConversionFromStringAllowedIsEE",
   "name" : "android::utilities::details::ConversionFromStringAllowed<int16_t>",
   "referenced_type" : "_ZTIN7android9utilities7details27ConversionFromStringAllowedIsEE",
   "self_type" : "_ZTIN7android9utilities7details27ConversionFromStringAllowedIsEE",
   "size" : 1,
   "source_file" : "/frameworks/av/media/libmediahelper/include/media/convert.h",
   "template_args" : [ "_ZTIs" ]
  },
  {
   "alignment" : 1,
   "linker_set_key" : "_ZTIN7android9utilities7details27ConversionFromStringAllowedItEE",
   "name" : "android::utilities::details::ConversionFromStringAllowed<uint16_t>",
   "referenced_type" : "_ZTIN7android9utilities7details27ConversionFromStringAllowedItEE",
   "self_type" : "_ZTIN7android9utilities7details27ConversionFromStringAllowedItEE",
   "size" : 1,
   "source_file" : "/frameworks/av/media/libmediahelper/include/media/convert.h",
   "template_args" : [ "_ZTIt" ]
  },
  {
   "alignment" : 1,
   "linker_set_key" : "_ZTIN7android9utilities7details9ConverterINSt3__112basic_stringIcNS3_11char_traitsIcEENS3_9allocatorIcEEEEdEE",
   "name" : "android::utilities::details::Converter<std::basic_string<char, std::char_traits<char>, std::allocator<char> >, double>",
   "record_kind" : "class",
   "referenced_type" : "_ZTIN7android9utilities7details9ConverterINSt3__112basic_stringIcNS3_11char_traitsIcEENS3_9allocatorIcEEEEdEE",
   "self_type" : "_ZTIN7android9utilities7details9ConverterINSt3__112basic_stringIcNS3_11char_traitsIcEENS3_9allocatorIcEEEEdEE",
   "size" : 1,
   "source_file" : "/frameworks/av/media/libmediahelper/include/media/convert.h",
   "template_args" :
   [
    "_ZTINSt3__112basic_stringIcNS_11char_traitsIcEENS_9allocatorIcEEEE",
    "_ZTId"
   ]
  },
  {
   "alignment" : 1,
   "linker_set_key" : "_ZTIN7android9utilities7details9ConverterINSt3__112basic_stringIcNS3_11char_traitsIcEENS3_9allocatorIcEEEEfEE",
   "name" : "android::utilities::details::Converter<std::basic_string<char, std::char_traits<char>, std::allocator<char> >, float>",
   "record_kind" : "class",
   "referenced_type" : "_ZTIN7android9utilities7details9ConverterINSt3__112basic_stringIcNS3_11char_traitsIcEENS3_9allocatorIcEEEEfEE",
   "self_type" : "_ZTIN7android9utilities7details9ConverterINSt3__112basic_stringIcNS3_11char_traitsIcEENS3_9allocatorIcEEEEfEE",
   "size" : 1,
   "source_file" : "/frameworks/av/media/libmediahelper/include/media/convert.h",
   "template_args" :
   [
    "_ZTINSt3__112basic_stringIcNS_11char_traitsIcEENS_9allocatorIcEEEE",
    "_ZTIf"
   ]
  },
  {
   "alignment" : 1,
   "linker_set_key" : "_ZTIN7android9utilities7details9ConverterINSt3__112basic_stringIcNS3_11char_traitsIcEENS3_9allocatorIcEEEEjEE",
   "name" : "android::utilities::details::Converter<std::basic_string<char, std::char_traits<char>, std::allocator<char> >, unsigned int>",
   "record_kind" : "class",
   "referenced_type" : "_ZTIN7android9utilities7details9ConverterINSt3__112basic_stringIcNS3_11char_traitsIcEENS3_9allocatorIcEEEEjEE",
   "self_type" : "_ZTIN7android9utilities7details9ConverterINSt3__112basic_stringIcNS3_11char_traitsIcEENS3_9allocatorIcEEEEjEE",
   "size" : 1,
   "source_file" : "/frameworks/av/media/libmediahelper/include/media/convert.h",
   "template_args" :
   [
    "_ZTINSt3__112basic_stringIcNS_11char_traitsIcEENS_9allocatorIcEEEE",
    "_ZTIj"
   ]
  },
  {
   "alignment" : 1,
   "linker_set_key" : "_ZTIN7android9utilities7details9ConverterINSt3__112basic_stringIcNS3_11char_traitsIcEENS3_9allocatorIcEEEElEE",
   "name" : "android::utilities::details::Converter<std::basic_string<char, std::char_traits<char>, std::allocator<char> >, long>",
   "record_kind" : "class",
   "referenced_type" : "_ZTIN7android9utilities7details9ConverterINSt3__112basic_stringIcNS3_11char_traitsIcEENS3_9allocatorIcEEEElEE",
   "self_type" : "_ZTIN7android9utilities7details9ConverterINSt3__112basic_stringIcNS3_11char_traitsIcEENS3_9allocatorIcEEEElEE",
   "size" : 1,
   "source_file" : "/frameworks/av/media/libmediahelper/include/media/convert.h",
   "template_args" :
   [
    "_ZTINSt3__112basic_stringIcNS_11char_traitsIcEENS_9allocatorIcEEEE",
    "_ZTIl"
   ]
  }
 ],
 "rvalue_reference_types" : []
}
