{
 "array_types" :
 [
  {
   "alignment" : 1,
   "linker_set_key" : "_ZTIA1024_c",
   "name" : "char [1024]",
   "referenced_type" : "_ZTIc",
   "self_type" : "_ZTIA1024_c",
   "size" : 1024,
   "source_file" : "/system/core/base/include/android-base/file.h"
  },
  {
   "alignment" : 4,
   "linker_set_key" : "_ZTIA10_j",
   "name" : "unsigned int [10]",
   "referenced_type" : "_ZTIj",
   "self_type" : "_ZTIA10_j",
   "size" : 40,
   "source_file" : "/external/fmtlib/include/fmt/format-inl.h"
  },
  {
   "alignment" : 1,
   "linker_set_key" : "_ZTIA12_c",
   "name" : "char [12]",
   "referenced_type" : "_ZTIc",
   "self_type" : "_ZTIA12_c",
   "size" : 12,
   "source_file" : "/external/fmtlib/include/fmt/core.h"
  },
  {
   "alignment" : 1,
   "linker_set_key" : "_ZTIA17_c",
   "name" : "char [17]",
   "referenced_type" : "_ZTIc",
   "self_type" : "_ZTIA17_c",
   "size" : 17,
   "source_file" : "/external/fmtlib/include/fmt/format-inl.h"
  },
  {
   "alignment" : 4,
   "linker_set_key" : "_ZTIA1_N3fmt2v68internal5valueINS0_20basic_format_contextINSt3__120back_insert_iteratorINS1_6bufferIcEEEEcEEEE",
   "name" : "fmt::v6::internal::value<fmt::v6::basic_format_context<std::__1::back_insert_iterator<fmt::v6::internal::buffer<char> >, char> > [1]",
   "referenced_type" : "_ZTIN3fmt2v68internal5valueINS0_20basic_format_contextINSt3__120back_insert_iteratorINS1_6bufferIcEEEEcEEEE",
   "self_type" : "_ZTIA1_N3fmt2v68internal5valueINS0_20basic_format_contextINSt3__120back_insert_iteratorINS1_6bufferIcEEEEcEEEE",
   "size" : 8,
   "source_file" : "/external/fmtlib/include/fmt/core.h"
  },
  {
   "alignment" : 1,
   "linker_set_key" : "_ZTIA201_c",
   "name" : "char [201]",
   "referenced_type" : "_ZTIc",
   "self_type" : "_ZTIA201_c",
   "size" : 201,
   "source_file" : "/external/fmtlib/include/fmt/format-inl.h"
  },
  {
   "alignment" : 4,
   "linker_set_key" : "_ZTIA20_y",
   "name" : "unsigned long long [20]",
   "referenced_type" : "_ZTIy",
   "self_type" : "_ZTIA20_y",
   "size" : 160,
   "source_file" : "/external/fmtlib/include/fmt/format-inl.h"
  },
  {
   "alignment" : 1,
   "linker_set_key" : "_ZTIA22_c",
   "name" : "char [22]",
   "referenced_type" : "_ZTIc",
   "self_type" : "_ZTIA22_c",
   "size" : 22,
   "source_file" : "/external/fmtlib/include/fmt/format.h"
  },
  {
   "alignment" : 1,
   "linker_set_key" : "_ZTIA28_c",
   "name" : "char [28]",
   "referenced_type" : "_ZTIc",
   "self_type" : "_ZTIA28_c",
   "size" : 28,
   "source_file" : "/external/fmtlib/include/fmt/core.h"
  },
  {
   "alignment" : 4,
   "linker_set_key" : "_ZTIA32_j",
   "name" : "unsigned int [32]",
   "referenced_type" : "_ZTIj",
   "self_type" : "_ZTIA32_j",
   "size" : 128,
   "source_file" : "/external/fmtlib/include/fmt/format.h"
  },
  {
   "alignment" : 4,
   "linker_set_key" : "_ZTIA3_N3fmt2v68internal5valueINS0_20basic_format_contextINSt3__120back_insert_iteratorINS1_6bufferIcEEEEcEEEE",
   "name" : "fmt::v6::internal::value<fmt::v6::basic_format_context<std::__1::back_insert_iterator<fmt::v6::internal::buffer<char> >, char> > [3]",
   "referenced_type" : "_ZTIN3fmt2v68internal5valueINS0_20basic_format_contextINSt3__120back_insert_iteratorINS1_6bufferIcEEEEcEEEE",
   "self_type" : "_ZTIA3_N3fmt2v68internal5valueINS0_20basic_format_contextINSt3__120back_insert_iteratorINS1_6bufferIcEEEEcEEEE",
   "size" : 24,
   "source_file" : "/external/fmtlib/include/fmt/core.h"
  },
  {
   "alignment" : 1,
   "linker_set_key" : "_ZTIA3_c",
   "name" : "char [3]",
   "referenced_type" : "_ZTIc",
   "self_type" : "_ZTIA3_c",
   "size" : 3,
   "source_file" : "/external/fmtlib/include/fmt/format-inl.h"
  },
  {
   "alignment" : 1,
   "linker_set_key" : "_ZTIA4_c",
   "name" : "char [4]",
   "referenced_type" : "_ZTIc",
   "self_type" : "_ZTIA4_c",
   "size" : 4,
   "source_file" : "/external/fmtlib/include/fmt/core.h"
  },
  {
   "alignment" : 1,
   "linker_set_key" : "_ZTIA4_h",
   "name" : "unsigned char [4]",
   "referenced_type" : "_ZTIh",
   "self_type" : "_ZTIA4_h",
   "size" : 4,
   "source_file" : "/external/fmtlib/include/fmt/format.h"
  },
  {
   "alignment" : 1,
   "linker_set_key" : "_ZTIA500_c",
   "name" : "char [500]",
   "referenced_type" : "_ZTIc",
   "self_type" : "_ZTIA500_c",
   "size" : 500,
   "source_file" : "/external/fmtlib/include/fmt/format.h"
  },
  {
   "alignment" : 4,
   "linker_set_key" : "_ZTIA500_w",
   "name" : "wchar_t [500]",
   "referenced_type" : "_ZTIw",
   "self_type" : "_ZTIA500_w",
   "size" : 2000,
   "source_file" : "/external/fmtlib/include/fmt/format.h"
  },
  {
   "alignment" : 1,
   "linker_set_key" : "_ZTIA5_c",
   "name" : "char [5]",
   "referenced_type" : "_ZTIc",
   "self_type" : "_ZTIA5_c",
   "size" : 5,
   "source_file" : "/external/fmtlib/include/fmt/core.h"
  },
  {
   "alignment" : 4,
   "linker_set_key" : "_ZTIA5_w",
   "name" : "wchar_t [5]",
   "referenced_type" : "_ZTIw",
   "self_type" : "_ZTIA5_w",
   "size" : 20,
   "source_file" : "/external/fmtlib/include/fmt/format.h"
  },
  {
   "alignment" : 1,
   "linker_set_key" : "_ZTIA6_c",
   "name" : "char [6]",
   "referenced_type" : "_ZTIc",
   "self_type" : "_ZTIA6_c",
   "size" : 6,
   "source_file" : "/external/fmtlib/include/fmt/format.h"
  },
  {
   "alignment" : 4,
   "linker_set_key" : "_ZTIA6_w",
   "name" : "wchar_t [6]",
   "referenced_type" : "_ZTIw",
   "self_type" : "_ZTIA6_w",
   "size" : 24,
   "source_file" : "/external/fmtlib/include/fmt/format.h"
  },
  {
   "alignment" : 1,
   "linker_set_key" : "_ZTIA7_c",
   "name" : "char [7]",
   "referenced_type" : "_ZTIc",
   "self_type" : "_ZTIA7_c",
   "size" : 7,
   "source_file" : "/external/fmtlib/include/fmt/core.h"
  },
  {
   "alignment" : 2,
   "linker_set_key" : "_ZTIA87_s",
   "name" : "short [87]",
   "referenced_type" : "_ZTIs",
   "self_type" : "_ZTIA87_s",
   "size" : 174,
   "source_file" : "/external/fmtlib/include/fmt/format-inl.h"
  },
  {
   "alignment" : 4,
   "linker_set_key" : "_ZTIA87_y",
   "name" : "unsigned long long [87]",
   "referenced_type" : "_ZTIy",
   "self_type" : "_ZTIA87_y",
   "size" : 696,
   "source_file" : "/external/fmtlib/include/fmt/format-inl.h"
  },
  {
   "alignment" : 1,
   "linker_set_key" : "_ZTIA8_c",
   "name" : "char [8]",
   "referenced_type" : "_ZTIc",
   "self_type" : "_ZTIA8_c",
   "size" : 8,
   "source_file" : "/external/fmtlib/include/fmt/format-inl.h"
  },
  {
   "alignment" : 1,
   "linker_set_key" : "_ZTIA92_c",
   "name" : "char [92]",
   "referenced_type" : "_ZTIc",
   "self_type" : "_ZTIA92_c",
   "size" : 92,
   "source_file" : "/system/core/base/include/android-base/properties.h"
  },
  {
   "linker_set_key" : "_ZTIA_c",
   "name" : "char []",
   "referenced_type" : "_ZTIc",
   "self_type" : "_ZTIA_c",
   "source_file" : "/external/fmtlib/include/fmt/format.h"
  },
  {
   "linker_set_key" : "_ZTIA_j",
   "name" : "unsigned int []",
   "referenced_type" : "_ZTIj",
   "self_type" : "_ZTIA_j",
   "source_file" : "/external/fmtlib/include/fmt/format.h"
  },
  {
   "linker_set_key" : "_ZTIA_s",
   "name" : "short []",
   "referenced_type" : "_ZTIs",
   "self_type" : "_ZTIA_s",
   "source_file" : "/external/fmtlib/include/fmt/format.h"
  },
  {
   "linker_set_key" : "_ZTIA_y",
   "name" : "unsigned long long []",
   "referenced_type" : "_ZTIy",
   "self_type" : "_ZTIA_y",
   "source_file" : "/external/fmtlib/include/fmt/format.h"
  }
 ],
 "builtin_types" :
 [
  {
   "alignment" : 4,
   "is_integral" : true,
   "is_unsigned" : true,
   "linker_set_key" : "_ZTIDi",
   "name" : "char32_t",
   "referenced_type" : "_ZTIDi",
   "self_type" : "_ZTIDi",
   "size" : 4
  },
  {
   "alignment" : 2,
   "is_integral" : true,
   "is_unsigned" : true,
   "linker_set_key" : "_ZTIDs",
   "name" : "char16_t",
   "referenced_type" : "_ZTIDs",
   "self_type" : "_ZTIDs",
   "size" : 2
  },
  {
   "alignment" : 1,
   "is_integral" : true,
   "linker_set_key" : "_ZTIa",
   "name" : "signed char",
   "referenced_type" : "_ZTIa",
   "self_type" : "_ZTIa",
   "size" : 1
  },
  {
   "alignment" : 1,
   "is_integral" : true,
   "is_unsigned" : true,
   "linker_set_key" : "_ZTIb",
   "name" : "bool",
   "referenced_type" : "_ZTIb",
   "self_type" : "_ZTIb",
   "size" : 1
  },
  {
   "alignment" : 1,
   "is_integral" : true,
   "linker_set_key" : "_ZTIc",
   "name" : "char",
   "referenced_type" : "_ZTIc",
   "self_type" : "_ZTIc",
   "size" : 1
  },
  {
   "alignment" : 4,
   "linker_set_key" : "_ZTId",
   "name" : "double",
   "referenced_type" : "_ZTId",
   "self_type" : "_ZTId",
   "size" : 8
  },
  {
   "alignment" : 4,
   "linker_set_key" : "_ZTIe",
   "name" : "long double",
   "referenced_type" : "_ZTIe",
   "self_type" : "_ZTIe",
   "size" : 8
  },
  {
   "alignment" : 4,
   "linker_set_key" : "_ZTIf",
   "name" : "float",
   "referenced_type" : "_ZTIf",
   "self_type" : "_ZTIf",
   "size" : 4
  },
  {
   "alignment" : 1,
   "is_integral" : true,
   "is_unsigned" : true,
   "linker_set_key" : "_ZTIh",
   "name" : "unsigned char",
   "referenced_type" : "_ZTIh",
   "self_type" : "_ZTIh",
   "size" : 1
  },
  {
   "alignment" : 4,
   "is_integral" : true,
   "linker_set_key" : "_ZTIi",
   "name" : "int",
   "referenced_type" : "_ZTIi",
   "self_type" : "_ZTIi",
   "size" : 4
  },
  {
   "alignment" : 4,
   "is_integral" : true,
   "is_unsigned" : true,
   "linker_set_key" : "_ZTIj",
   "name" : "unsigned int",
   "referenced_type" : "_ZTIj",
   "self_type" : "_ZTIj",
   "size" : 4
  },
  {
   "alignment" : 4,
   "is_integral" : true,
   "linker_set_key" : "_ZTIl",
   "name" : "long",
   "referenced_type" : "_ZTIl",
   "self_type" : "_ZTIl",
   "size" : 4
  },
  {
   "alignment" : 4,
   "is_integral" : true,
   "is_unsigned" : true,
   "linker_set_key" : "_ZTIm",
   "name" : "unsigned long",
   "referenced_type" : "_ZTIm",
   "self_type" : "_ZTIm",
   "size" : 4
  },
  {
   "alignment" : 2,
   "is_integral" : true,
   "linker_set_key" : "_ZTIs",
   "name" : "short",
   "referenced_type" : "_ZTIs",
   "self_type" : "_ZTIs",
   "size" : 2
  },
  {
   "alignment" : 2,
   "is_integral" : true,
   "is_unsigned" : true,
   "linker_set_key" : "_ZTIt",
   "name" : "unsigned short",
   "referenced_type" : "_ZTIt",
   "self_type" : "_ZTIt",
   "size" : 2
  },
  {
   "linker_set_key" : "_ZTIv",
   "name" : "void",
   "referenced_type" : "_ZTIv",
   "self_type" : "_ZTIv"
  },
  {
   "alignment" : 4,
   "is_integral" : true,
   "linker_set_key" : "_ZTIw",
   "name" : "wchar_t",
   "referenced_type" : "_ZTIw",
   "self_type" : "_ZTIw",
   "size" : 4
  },
  {
   "alignment" : 4,
   "is_integral" : true,
   "linker_set_key" : "_ZTIx",
   "name" : "long long",
   "referenced_type" : "_ZTIx",
   "self_type" : "_ZTIx",
   "size" : 8
  },
  {
   "alignment" : 4,
   "is_integral" : true,
   "is_unsigned" : true,
   "linker_set_key" : "_ZTIy",
   "name" : "unsigned long long",
   "referenced_type" : "_ZTIy",
   "self_type" : "_ZTIy",
   "size" : 8
  }
 ],
 "elf_functions" :
 [
  {
   "name" : "_ZN10MappedFile6FromFdEixmi"
  },
  {
   "name" : "_ZN12TemporaryDir4initERKNSt3__112basic_stringIcNS0_11char_traitsIcEENS0_9allocatorIcEEEE"
  },
  {
   "name" : "_ZN12TemporaryDirC1Ev"
  },
  {
   "name" : "_ZN12TemporaryDirC2Ev"
  },
  {
   "name" : "_ZN12TemporaryDirD1Ev"
  },
  {
   "name" : "_ZN12TemporaryDirD2Ev"
  },
  {
   "name" : "_ZN13CapturedStdFd3strEv"
  },
  {
   "name" : "_ZN13CapturedStdFd4StopEv"
  },
  {
   "name" : "_ZN13CapturedStdFd5ResetEv"
  },
  {
   "name" : "_ZN13CapturedStdFd5StartEv"
  },
  {
   "name" : "_ZN13CapturedStdFdC1Ei"
  },
  {
   "name" : "_ZN13CapturedStdFdC2Ei"
  },
  {
   "name" : "_ZN13CapturedStdFdD1Ev"
  },
  {
   "name" : "_ZN13CapturedStdFdD2Ev"
  },
  {
   "name" : "_ZN13TemporaryFile4initERKNSt3__112basic_stringIcNS0_11char_traitsIcEENS0_9allocatorIcEEEE"
  },
  {
   "name" : "_ZN13TemporaryFile7releaseEv"
  },
  {
   "name" : "_ZN13TemporaryFileC1ERKNSt3__112basic_stringIcNS0_11char_traitsIcEENS0_9allocatorIcEEEE"
  },
  {
   "name" : "_ZN13TemporaryFileC1Ev"
  },
  {
   "name" : "_ZN13TemporaryFileC2ERKNSt3__112basic_stringIcNS0_11char_traitsIcEENS0_9allocatorIcEEEE"
  },
  {
   "name" : "_ZN13TemporaryFileC2Ev"
  },
  {
   "name" : "_ZN13TemporaryFileD1Ev"
  },
  {
   "name" : "_ZN13TemporaryFileD2Ev"
  },
  {
   "name" : "_ZN3fmt2v612format_errorD0Ev"
  },
  {
   "name" : "_ZN3fmt2v612format_errorD1Ev"
  },
  {
   "name" : "_ZN3fmt2v612format_errorD2Ev"
  },
  {
   "name" : "_ZN3fmt2v612system_error4initEiNS0_17basic_string_viewIcEENS0_11format_argsE"
  },
  {
   "name" : "_ZN3fmt2v612system_errorD0Ev"
  },
  {
   "name" : "_ZN3fmt2v612system_errorD1Ev"
  },
  {
   "name" : "_ZN3fmt2v612system_errorD2Ev"
  },
  {
   "binding" : "weak",
   "name" : "_ZN3fmt2v619basic_memory_bufferIcLj500ENSt3__19allocatorIcEEE4growEj"
  },
  {
   "binding" : "weak",
   "name" : "_ZN3fmt2v619basic_memory_bufferIjLj32ENSt3__19allocatorIjEEE4growEj"
  },
  {
   "binding" : "weak",
   "name" : "_ZN3fmt2v619basic_memory_bufferIwLj500ENSt3__19allocatorIwEEE4growEj"
  },
  {
   "name" : "_ZN3fmt2v619format_system_errorERNS0_8internal6bufferIcEEiNS0_17basic_string_viewIcEE"
  },
  {
   "name" : "_ZN3fmt2v619report_system_errorEiNS0_17basic_string_viewIcEE"
  },
  {
   "binding" : "weak",
   "name" : "_ZN3fmt2v620basic_format_contextINSt3__120back_insert_iteratorINS0_8internal6bufferIcEEEEcE3argENS0_17basic_string_viewIcEE"
  },
  {
   "binding" : "weak",
   "name" : "_ZN3fmt2v620basic_format_contextINSt3__120back_insert_iteratorINS0_8internal6bufferIwEEEEwE3argENS0_17basic_string_viewIwEE"
  },
  {
   "name" : "_ZN3fmt2v66vprintENS0_17basic_string_viewIcEENS0_11format_argsE"
  },
  {
   "name" : "_ZN3fmt2v66vprintEP7__sFILENS0_17basic_string_viewIcEENS0_11format_argsE"
  },
  {
   "binding" : "weak",
   "name" : "_ZN3fmt2v68internal10locale_refC1INSt3__16localeEEERKT_"
  },
  {
   "binding" : "weak",
   "name" : "_ZN3fmt2v68internal10locale_refC2INSt3__16localeEEERKT_"
  },
  {
   "binding" : "weak",
   "name" : "_ZN3fmt2v68internal10vformat_toIcEENS0_20basic_format_contextINSt3__120back_insert_iteratorINS1_6bufferIT_EEEES7_E8iteratorERS8_NS0_17basic_string_viewIS7_EENS0_17basic_format_argsISA_EE"
  },
  {
   "name" : "_ZN3fmt2v68internal11assert_failEPKciS3_"
  },
  {
   "name" : "_ZN3fmt2v68internal12count_digitsILj4ENS1_16fallback_uintptrEEEiT0_"
  },
  {
   "binding" : "weak",
   "name" : "_ZN3fmt2v68internal12format_floatIdEEiT_iNS1_11float_specsERNS1_6bufferIcEE"
  },
  {
   "binding" : "weak",
   "name" : "_ZN3fmt2v68internal12format_floatIeEEiT_iNS1_11float_specsERNS1_6bufferIcEE"
  },
  {
   "name" : "_ZN3fmt2v68internal12fwrite_fullyEPKvjjP7__sFILE"
  },
  {
   "name" : "_ZN3fmt2v68internal12report_errorEPFvRNS1_6bufferIcEEiNS0_17basic_string_viewIcEEEiS6_"
  },
  {
   "name" : "_ZN3fmt2v68internal13error_handler8on_errorEPKc"
  },
  {
   "binding" : "weak",
   "name" : "_ZN3fmt2v68internal13grouping_implIcEENSt3__112basic_stringIcNS3_11char_traitsIcEENS3_9allocatorIcEEEENS1_10locale_refE"
  },
  {
   "binding" : "weak",
   "name" : "_ZN3fmt2v68internal13grouping_implIwEENSt3__112basic_stringIcNS3_11char_traitsIcEENS3_9allocatorIcEEEENS1_10locale_refE"
  },
  {
   "name" : "_ZN3fmt2v68internal13safe_strerrorEiRPcj"
  },
  {
   "binding" : "weak",
   "name" : "_ZN3fmt2v68internal14snprintf_floatIdEEiT_iNS1_11float_specsERNS1_6bufferIcEE"
  },
  {
   "binding" : "weak",
   "name" : "_ZN3fmt2v68internal14snprintf_floatIeEEiT_iNS1_11float_specsERNS1_6bufferIcEE"
  },
  {
   "binding" : "weak",
   "name" : "_ZN3fmt2v68internal14write_exponentIcNS1_17counting_iteratorEEET0_iS4_"
  },
  {
   "binding" : "weak",
   "name" : "_ZN3fmt2v68internal14write_exponentIwNS1_17counting_iteratorEEET0_iS4_"
  },
  {
   "binding" : "weak",
   "name" : "_ZN3fmt2v68internal15fallback_formatIdEEvT_RNS1_6bufferIcEERi"
  },
  {
   "binding" : "weak",
   "name" : "_ZN3fmt2v68internal15fallback_formatIeEEvT_RNS1_6bufferIcEERi"
  },
  {
   "name" : "_ZN3fmt2v68internal16get_cached_powerEiRi"
  },
  {
   "name" : "_ZN3fmt2v68internal17format_error_codeERNS1_6bufferIcEEiNS0_17basic_string_viewIcEE"
  },
  {
   "binding" : "weak",
   "name" : "_ZN3fmt2v68internal18decimal_point_implIcEET_NS1_10locale_refE"
  },
  {
   "binding" : "weak",
   "name" : "_ZN3fmt2v68internal18decimal_point_implIwEET_NS1_10locale_refE"
  },
  {
   "binding" : "weak",
   "name" : "_ZN3fmt2v68internal18thousands_sep_implIcEET_NS1_10locale_refE"
  },
  {
   "binding" : "weak",
   "name" : "_ZN3fmt2v68internal18thousands_sep_implIwEET_NS1_10locale_refE"
  },
  {
   "binding" : "weak",
   "name" : "_ZN3fmt2v68internal6bufferIcE6appendIcEEvPKT_S7_"
  },
  {
   "binding" : "weak",
   "name" : "_ZN3fmt2v68internal6bufferIwE6appendIwEEvPKT_S7_"
  },
  {
   "binding" : "weak",
   "name" : "_ZN3fmt2v68internal7arg_mapINS0_20basic_format_contextINSt3__120back_insert_iteratorINS1_6bufferIcEEEEcEEE4initERKNS0_17basic_format_argsIS9_EE"
  },
  {
   "binding" : "weak",
   "name" : "_ZN3fmt2v68internal7arg_mapINS0_20basic_format_contextINSt3__120back_insert_iteratorINS1_6bufferIwEEEEwEEE4initERKNS0_17basic_format_argsIS9_EE"
  },
  {
   "binding" : "weak",
   "name" : "_ZN3fmt2v68internal7vformatIcEENSt3__112basic_stringIT_NS3_11char_traitsIS5_EENS3_9allocatorIS5_EEEENS0_17basic_string_viewIS5_EENS0_17basic_format_argsINS0_20basic_format_contextINS3_20back_insert_iteratorINS1_6bufferIS5_EEEES5_EEEE"
  },
  {
   "binding" : "weak",
   "name" : "_ZN3fmt2v68internal7vformatIwEENSt3__112basic_stringIT_NS3_11char_traitsIS5_EENS3_9allocatorIS5_EEEENS0_17basic_string_viewIS5_EENS0_17basic_format_argsINS0_20basic_format_contextINS3_20back_insert_iteratorINS1_6bufferIS5_EEEES5_EEEE"
  },
  {
   "name" : "_ZN7android4base10LogMessage6streamEv"
  },
  {
   "name" : "_ZN7android4base10LogMessage7LogLineEPKcjNS0_11LogSeverityES3_S3_"
  },
  {
   "name" : "_ZN7android4base10LogMessageC1EPKcjNS0_11LogSeverityES3_i"
  },
  {
   "name" : "_ZN7android4base10LogMessageC1EPKcjNS0_5LogIdENS0_11LogSeverityES3_i"
  },
  {
   "name" : "_ZN7android4base10LogMessageC2EPKcjNS0_11LogSeverityES3_i"
  },
  {
   "name" : "_ZN7android4base10LogMessageC2EPKcjNS0_5LogIdENS0_11LogSeverityES3_i"
  },
  {
   "name" : "_ZN7android4base10LogMessageD1Ev"
  },
  {
   "name" : "_ZN7android4base10LogMessageD2Ev"
  },
  {
   "name" : "_ZN7android4base10LogdLoggerC1ENS0_5LogIdE"
  },
  {
   "name" : "_ZN7android4base10LogdLoggerC2ENS0_5LogIdE"
  },
  {
   "name" : "_ZN7android4base10LogdLoggerclENS0_5LogIdENS0_11LogSeverityEPKcS5_jS5_"
  },
  {
   "name" : "_ZN7android4base10MappedFile12FromOsHandleEixji"
  },
  {
   "name" : "_ZN7android4base10MappedFile5CloseEv"
  },
  {
   "name" : "_ZN7android4base10MappedFile6FromFdENS0_11borrowed_fdExji"
  },
  {
   "name" : "_ZN7android4base10MappedFileC1EOS1_"
  },
  {
   "name" : "_ZN7android4base10MappedFileC2EOS1_"
  },
  {
   "name" : "_ZN7android4base10MappedFileD1Ev"
  },
  {
   "name" : "_ZN7android4base10MappedFileD2Ev"
  },
  {
   "name" : "_ZN7android4base10MappedFileaSEOS1_"
  },
  {
   "name" : "_ZN7android4base10SetAborterEONSt3__18functionIFvPKcEEE"
  },
  {
   "name" : "_ZN7android4base10StartsWithENSt3__117basic_string_viewIcNS1_11char_traitsIcEEEES5_"
  },
  {
   "name" : "_ZN7android4base10StartsWithENSt3__117basic_string_viewIcNS1_11char_traitsIcEEEEc"
  },
  {
   "name" : "_ZN7android4base10WriteFullyENS0_11borrowed_fdEPKvj"
  },
  {
   "name" : "_ZN7android4base10WriteFullyEiPKvj"
  },
  {
   "name" : "_ZN7android4base10boot_clock3nowEv"
  },
  {
   "name" : "_ZN7android4base11GetPropertyERKNSt3__112basic_stringIcNS1_11char_traitsIcEENS1_9allocatorIcEEEES9_"
  },
  {
   "name" : "_ZN7android4base11GetThreadIdEv"
  },
  {
   "name" : "_ZN7android4base11InitLoggingEPPcONSt3__18functionIFvNS0_5LogIdENS0_11LogSeverityEPKcS8_jS8_EEEONS4_IFvS8_EEE"
  },
  {
   "name" : "_ZN7android4base11SetPropertyERKNSt3__112basic_stringIcNS1_11char_traitsIcEENS1_9allocatorIcEEEES9_"
  },
  {
   "name" : "_ZN7android4base11StdioLoggerENS0_5LogIdENS0_11LogSeverityEPKcS4_jS4_"
  },
  {
   "name" : "_ZN7android4base12KernelLoggerENS0_5LogIdENS0_11LogSeverityEPKcS4_jS4_"
  },
  {
   "name" : "_ZN7android4base12StderrLoggerENS0_5LogIdENS0_11LogSeverityEPKcS4_jS4_"
  },
  {
   "name" : "_ZN7android4base12StringPrintfEPKcz"
  },
  {
   "name" : "_ZN7android4base13SetDefaultTagERKNSt3__112basic_stringIcNS1_11char_traitsIcEENS1_9allocatorIcEEEE"
  },
  {
   "name" : "_ZN7android4base13StringAppendFEPNSt3__112basic_stringIcNS1_11char_traitsIcEENS1_9allocatorIcEEEEPKcz"
  },
  {
   "name" : "_ZN7android4base13StringAppendVEPNSt3__112basic_stringIcNS1_11char_traitsIcEENS1_9allocatorIcEEEEPKcPc"
  },
  {
   "name" : "_ZN7android4base13StringReplaceENSt3__117basic_string_viewIcNS1_11char_traitsIcEEEES5_S5_b"
  },
  {
   "name" : "_ZN7android4base14CachedProperty3GetEPb"
  },
  {
   "name" : "_ZN7android4base14CachedPropertyC1EPKc"
  },
  {
   "name" : "_ZN7android4base14CachedPropertyC2EPKc"
  },
  {
   "name" : "_ZN7android4base14DefaultAborterEPKc"
  },
  {
   "binding" : "weak",
   "name" : "_ZN7android4base14GetIntPropertyIaEET_RKNSt3__112basic_stringIcNS3_11char_traitsIcEENS3_9allocatorIcEEEES2_S2_S2_"
  },
  {
   "binding" : "weak",
   "name" : "_ZN7android4base14GetIntPropertyIiEET_RKNSt3__112basic_stringIcNS3_11char_traitsIcEENS3_9allocatorIcEEEES2_S2_S2_"
  },
  {
   "binding" : "weak",
   "name" : "_ZN7android4base14GetIntPropertyIsEET_RKNSt3__112basic_stringIcNS3_11char_traitsIcEENS3_9allocatorIcEEEES2_S2_S2_"
  },
  {
   "binding" : "weak",
   "name" : "_ZN7android4base14GetIntPropertyIxEET_RKNSt3__112basic_stringIcNS3_11char_traitsIcEENS3_9allocatorIcEEEES2_S2_S2_"
  },
  {
   "name" : "_ZN7android4base14ReadFdToStringENS0_11borrowed_fdEPNSt3__112basic_stringIcNS2_11char_traitsIcEENS2_9allocatorIcEEEE"
  },
  {
   "name" : "_ZN7android4base14ReadFdToStringEiPNSt3__112basic_stringIcNS1_11char_traitsIcEENS1_9allocatorIcEEEE"
  },
  {
   "name" : "_ZN7android4base15GetBoolPropertyERKNSt3__112basic_stringIcNS1_11char_traitsIcEENS1_9allocatorIcEEEEb"
  },
  {
   "binding" : "weak",
   "name" : "_ZN7android4base15GetUintPropertyIhEET_RKNSt3__112basic_stringIcNS3_11char_traitsIcEENS3_9allocatorIcEEEES2_S2_"
  },
  {
   "binding" : "weak",
   "name" : "_ZN7android4base15GetUintPropertyIjEET_RKNSt3__112basic_stringIcNS3_11char_traitsIcEENS3_9allocatorIcEEEES2_S2_"
  },
  {
   "binding" : "weak",
   "name" : "_ZN7android4base15GetUintPropertyItEET_RKNSt3__112basic_stringIcNS3_11char_traitsIcEENS3_9allocatorIcEEEES2_S2_"
  },
  {
   "binding" : "weak",
   "name" : "_ZN7android4base15GetUintPropertyIyEET_RKNSt3__112basic_stringIcNS3_11char_traitsIcEENS3_9allocatorIcEEEES2_S2_"
  },
  {
   "name" : "_ZN7android4base15ParseNetAddressERKNSt3__112basic_stringIcNS1_11char_traitsIcEENS1_9allocatorIcEEEEPS7_PiSA_SA_"
  },
  {
   "name" : "_ZN7android4base15WaitForPropertyERKNSt3__112basic_stringIcNS1_11char_traitsIcEENS1_9allocatorIcEEEES9_NS1_6chrono8durationIxNS1_5ratioILx1ELx1000EEEEE"
  },
  {
   "name" : "_ZN7android4base15WriteStringToFdERKNSt3__112basic_stringIcNS1_11char_traitsIcEENS1_9allocatorIcEEEENS0_11borrowed_fdE"
  },
  {
   "name" : "_ZN7android4base15WriteStringToFdERKNSt3__112basic_stringIcNS1_11char_traitsIcEENS1_9allocatorIcEEEEi"
  },
  {
   "name" : "_ZN7android4base16EqualsIgnoreCaseENSt3__117basic_string_viewIcNS1_11char_traitsIcEEEES5_"
  },
  {
   "name" : "_ZN7android4base16ReadFileToStringERKNSt3__112basic_stringIcNS1_11char_traitsIcEENS1_9allocatorIcEEEEPS7_b"
  },
  {
   "name" : "_ZN7android4base17GetExecutablePathEv"
  },
  {
   "name" : "_ZN7android4base17ReadFullyAtOffsetENS0_11borrowed_fdEPvjx"
  },
  {
   "name" : "_ZN7android4base17ReadFullyAtOffsetEiPvjx"
  },
  {
   "name" : "_ZN7android4base17ScopedLogSeverityC1ENS0_11LogSeverityE"
  },
  {
   "name" : "_ZN7android4base17ScopedLogSeverityC2ENS0_11LogSeverityE"
  },
  {
   "name" : "_ZN7android4base17ScopedLogSeverityD1Ev"
  },
  {
   "name" : "_ZN7android4base17ScopedLogSeverityD2Ev"
  },
  {
   "name" : "_ZN7android4base17WriteStringToFileERKNSt3__112basic_stringIcNS1_11char_traitsIcEENS1_9allocatorIcEEEES9_b"
  },
  {
   "name" : "_ZN7android4base17WriteStringToFileERKNSt3__112basic_stringIcNS1_11char_traitsIcEENS1_9allocatorIcEEEES9_tjjb"
  },
  {
   "name" : "_ZN7android4base18EndsWithIgnoreCaseENSt3__117basic_string_viewIcNS1_11char_traitsIcEEEES5_"
  },
  {
   "name" : "_ZN7android4base18GetLibLogFunctionsEv"
  },
  {
   "name" : "_ZN7android4base18RemoveFileIfExistsERKNSt3__112basic_stringIcNS1_11char_traitsIcEENS1_9allocatorIcEEEEPS7_"
  },
  {
   "name" : "_ZN7android4base20StartsWithIgnoreCaseENSt3__117basic_string_viewIcNS1_11char_traitsIcEEEES5_"
  },
  {
   "name" : "_ZN7android4base21GetMinimumLogSeverityEv"
  },
  {
   "name" : "_ZN7android4base21SetMinimumLogSeverityENS0_11LogSeverityE"
  },
  {
   "name" : "_ZN7android4base22GetExecutableDirectoryEv"
  },
  {
   "name" : "_ZN7android4base23SystemErrorCodeToStringEi"
  },
  {
   "name" : "_ZN7android4base23WaitForPropertyCreationERKNSt3__112basic_stringIcNS1_11char_traitsIcEENS1_9allocatorIcEEEENS1_6chrono8durationIxNS1_5ratioILx1ELx1000EEEEE"
  },
  {
   "name" : "_ZN7android4base24SendFileDescriptorVectorENS0_11borrowed_fdEPKvjRKNSt3__16vectorIiNS4_9allocatorIiEEEE"
  },
  {
   "name" : "_ZN7android4base24SendFileDescriptorVectorEiPKvjRKNSt3__16vectorIiNS3_9allocatorIiEEEE"
  },
  {
   "name" : "_ZN7android4base27ReceiveFileDescriptorVectorENS0_11borrowed_fdEPvjjPNSt3__16vectorINS0_14unique_fd_implINS0_13DefaultCloserEEENS3_9allocatorIS7_EEEE"
  },
  {
   "name" : "_ZN7android4base27ReceiveFileDescriptorVectorEiPvjjPNSt3__16vectorINS0_14unique_fd_implINS0_13DefaultCloserEEENS2_9allocatorIS6_EEEE"
  },
  {
   "binding" : "weak",
   "name" : "_ZN7android4base4JoinINSt3__16vectorINS2_12basic_stringIcNS2_11char_traitsIcEENS2_9allocatorIcEEEENS7_IS9_EEEERKS9_EES9_RKT_T0_"
  },
  {
   "binding" : "weak",
   "name" : "_ZN7android4base4JoinINSt3__16vectorINS2_12basic_stringIcNS2_11char_traitsIcEENS2_9allocatorIcEEEENS7_IS9_EEEEcEES9_RKT_T0_"
  },
  {
   "binding" : "weak",
   "name" : "_ZN7android4base4JoinINSt3__16vectorIPKcNS2_9allocatorIS5_EEEERKNS2_12basic_stringIcNS2_11char_traitsIcEENS6_IcEEEEEESD_RKT_T0_"
  },
  {
   "binding" : "weak",
   "name" : "_ZN7android4base4JoinINSt3__16vectorIPKcNS2_9allocatorIS5_EEEEcEENS2_12basic_stringIcNS2_11char_traitsIcEENS6_IcEEEERKT_T0_"
  },
  {
   "name" : "_ZN7android4base4TrimERKNSt3__112basic_stringIcNS1_11char_traitsIcEENS1_9allocatorIcEEEE"
  },
  {
   "name" : "_ZN7android4base5SplitERKNSt3__112basic_stringIcNS1_11char_traitsIcEENS1_9allocatorIcEEEES9_"
  },
  {
   "name" : "_ZN7android4base7AllPids11PidIterator9IncrementEv"
  },
  {
   "name" : "_ZN7android4base7DirnameERKNSt3__112basic_stringIcNS1_11char_traitsIcEENS1_9allocatorIcEEEE"
  },
  {
   "name" : "_ZN7android4base8BasenameERKNSt3__112basic_stringIcNS1_11char_traitsIcEENS1_9allocatorIcEEEE"
  },
  {
   "name" : "_ZN7android4base8EndsWithENSt3__117basic_string_viewIcNS1_11char_traitsIcEEEES5_"
  },
  {
   "name" : "_ZN7android4base8EndsWithENSt3__117basic_string_viewIcNS1_11char_traitsIcEEEEc"
  },
  {
   "name" : "_ZN7android4base8ReadlinkERKNSt3__112basic_stringIcNS1_11char_traitsIcEENS1_9allocatorIcEEEEPS7_"
  },
  {
   "name" : "_ZN7android4base8RealpathERKNSt3__112basic_stringIcNS1_11char_traitsIcEENS1_9allocatorIcEEEEPS7_"
  },
  {
   "name" : "_ZN7android4base9ParseBoolENSt3__117basic_string_viewIcNS1_11char_traitsIcEEEE"
  },
  {
   "binding" : "weak",
   "name" : "_ZN7android4base9ParseUintIhEEbPKcPT_S4_b"
  },
  {
   "binding" : "weak",
   "name" : "_ZN7android4base9ParseUintIjEEbPKcPT_S4_b"
  },
  {
   "binding" : "weak",
   "name" : "_ZN7android4base9ParseUintItEEbPKcPT_S4_b"
  },
  {
   "name" : "_ZN7android4base9ReadFullyENS0_11borrowed_fdEPvj"
  },
  {
   "name" : "_ZN7android4base9ReadFullyEiPvj"
  },
  {
   "name" : "_ZN7android4base9SetLoggerEONSt3__18functionIFvNS0_5LogIdENS0_11LogSeverityEPKcS6_jS6_EEE"
  },
  {
   "name" : "_ZN7android4base9ShouldLogENS0_11LogSeverityEPKc"
  },
  {
   "name" : "_ZN7android4baselsERNSt3__113basic_ostreamIcNS1_11char_traitsIcEEEERKNS0_5TimerE"
  },
  {
   "name" : "_ZNK13CapturedStdFd2fdEv"
  },
  {
   "binding" : "weak",
   "name" : "_ZNK3fmt2v68internal10locale_ref3getINSt3__16localeEEET_v"
  },
  {
   "binding" : "weak",
   "name" : "_ZNKSt3__110__function6__funcIN7android4base10LogdLoggerENS_9allocatorIS4_EEFvNS3_5LogIdENS3_11LogSeverityEPKcSA_jSA_EE7__cloneEPNS0_6__baseISB_EE"
  },
  {
   "binding" : "weak",
   "name" : "_ZNKSt3__110__function6__funcIN7android4base10LogdLoggerENS_9allocatorIS4_EEFvNS3_5LogIdENS3_11LogSeverityEPKcSA_jSA_EE7__cloneEv"
  },
  {
   "binding" : "weak",
   "name" : "_ZNKSt3__110__function6__funcIPFvPKcENS_9allocatorIS5_EES4_E7__cloneEPNS0_6__baseIS4_EE"
  },
  {
   "binding" : "weak",
   "name" : "_ZNKSt3__110__function6__funcIPFvPKcENS_9allocatorIS5_EES4_E7__cloneEv"
  },
  {
   "binding" : "weak",
   "name" : "_ZNKSt3__115basic_stringbufIcNS_11char_traitsIcEENS_9allocatorIcEEE3strEv"
  },
  {
   "binding" : "weak",
   "name" : "_ZNSt3__110__function6__funcIN7android4base10LogdLoggerENS_9allocatorIS4_EEFvNS3_5LogIdENS3_11LogSeverityEPKcSA_jSA_EE18destroy_deallocateEv"
  },
  {
   "binding" : "weak",
   "name" : "_ZNSt3__110__function6__funcIN7android4base10LogdLoggerENS_9allocatorIS4_EEFvNS3_5LogIdENS3_11LogSeverityEPKcSA_jSA_EE7destroyEv"
  },
  {
   "binding" : "weak",
   "name" : "_ZNSt3__110__function6__funcIN7android4base10LogdLoggerENS_9allocatorIS4_EEFvNS3_5LogIdENS3_11LogSeverityEPKcSA_jSA_EEclEOS7_OS8_OSA_SF_OjSF_"
  },
  {
   "binding" : "weak",
   "name" : "_ZNSt3__110__function6__funcIPFvPKcENS_9allocatorIS5_EES4_E18destroy_deallocateEv"
  },
  {
   "binding" : "weak",
   "name" : "_ZNSt3__110__function6__funcIPFvPKcENS_9allocatorIS5_EES4_E7destroyEv"
  },
  {
   "binding" : "weak",
   "name" : "_ZNSt3__110__function6__funcIPFvPKcENS_9allocatorIS5_EES4_EclEOS3_"
  },
  {
   "binding" : "weak",
   "name" : "_ZNSt3__115basic_stringbufIcNS_11char_traitsIcEENS_9allocatorIcEEE7seekoffExNS_8ios_base7seekdirEj"
  },
  {
   "binding" : "weak",
   "name" : "_ZNSt3__115basic_stringbufIcNS_11char_traitsIcEENS_9allocatorIcEEE8overflowEi"
  },
  {
   "binding" : "weak",
   "name" : "_ZNSt3__115basic_stringbufIcNS_11char_traitsIcEENS_9allocatorIcEEE9pbackfailEi"
  },
  {
   "binding" : "weak",
   "name" : "_ZNSt3__115basic_stringbufIcNS_11char_traitsIcEENS_9allocatorIcEEE9underflowEv"
  },
  {
   "binding" : "weak",
   "name" : "_ZNSt3__124__put_character_sequenceIcNS_11char_traitsIcEEEERNS_13basic_ostreamIT_T0_EES7_PKS4_j"
  },
  {
   "binding" : "weak",
   "name" : "_ZNSt3__16vectorIN7android4base14unique_fd_implINS2_13DefaultCloserEEENS_9allocatorIS5_EEE13__vdeallocateEv"
  },
  {
   "binding" : "weak",
   "name" : "_ZNSt3__16vectorIN7android4base14unique_fd_implINS2_13DefaultCloserEEENS_9allocatorIS5_EEE24__emplace_back_slow_pathIJRiEEEvDpOT_"
  },
  {
   "binding" : "weak",
   "name" : "_ZNSt3__16vectorIN7android4base14unique_fd_implINS2_13DefaultCloserEEENS_9allocatorIS5_EEE26__swap_out_circular_bufferERNS_14__split_bufferIS5_RS7_EE"
  },
  {
   "binding" : "weak",
   "name" : "_ZNSt3__16vectorINS_12basic_stringIcNS_11char_traitsIcEENS_9allocatorIcEEEENS4_IS6_EEE21__push_back_slow_pathIS6_EEvOT_"
  },
  {
   "binding" : "weak",
   "name" : "_ZNSt3__16vectorIcNS_9allocatorIcEEE8__appendEj"
  },
  {
   "binding" : "weak",
   "name" : "_ZNSt3__1lsIcNS_11char_traitsIcEENS_9allocatorIcEEEERNS_13basic_ostreamIT_T0_EES9_RKNS_12basic_stringIS6_S7_T1_EE"
  }
 ],
 "elf_objects" :
 [
  {
   "name" : "_ZN3fmt2v624instantiate_format_floatE"
  },
  {
   "binding" : "weak",
   "name" : "_ZN3fmt2v68internal10basic_dataIvE10hex_digitsE"
  },
  {
   "binding" : "weak",
   "name" : "_ZN3fmt2v68internal10basic_dataIvE11reset_colorE"
  },
  {
   "binding" : "weak",
   "name" : "_ZN3fmt2v68internal10basic_dataIvE12wreset_colorE"
  },
  {
   "binding" : "weak",
   "name" : "_ZN3fmt2v68internal10basic_dataIvE15pow10_exponentsE"
  },
  {
   "binding" : "weak",
   "name" : "_ZN3fmt2v68internal10basic_dataIvE15powers_of_10_64E"
  },
  {
   "binding" : "weak",
   "name" : "_ZN3fmt2v68internal10basic_dataIvE16background_colorE"
  },
  {
   "binding" : "weak",
   "name" : "_ZN3fmt2v68internal10basic_dataIvE16foreground_colorE"
  },
  {
   "binding" : "weak",
   "name" : "_ZN3fmt2v68internal10basic_dataIvE18pow10_significandsE"
  },
  {
   "binding" : "weak",
   "name" : "_ZN3fmt2v68internal10basic_dataIvE23zero_or_powers_of_10_32E"
  },
  {
   "binding" : "weak",
   "name" : "_ZN3fmt2v68internal10basic_dataIvE23zero_or_powers_of_10_64E"
  },
  {
   "binding" : "weak",
   "name" : "_ZN3fmt2v68internal10basic_dataIvE5signsE"
  },
  {
   "binding" : "weak",
   "name" : "_ZN3fmt2v68internal10basic_dataIvE6digitsE"
  },
  {
   "binding" : "weak",
   "name" : "_ZTCNSt3__119basic_ostringstreamIcNS_11char_traitsIcEENS_9allocatorIcEEEE0_NS_13basic_ostreamIcS2_EE"
  },
  {
   "binding" : "weak",
   "name" : "_ZTTNSt3__119basic_ostringstreamIcNS_11char_traitsIcEENS_9allocatorIcEEEE"
  },
  {
   "name" : "_ZTVN3fmt2v612format_errorE"
  },
  {
   "name" : "_ZTVN3fmt2v612system_errorE"
  },
  {
   "binding" : "weak",
   "name" : "_ZTVN3fmt2v619basic_memory_bufferIcLj500ENSt3__19allocatorIcEEEE"
  },
  {
   "binding" : "weak",
   "name" : "_ZTVN3fmt2v619basic_memory_bufferIjLj32ENSt3__19allocatorIjEEEE"
  },
  {
   "binding" : "weak",
   "name" : "_ZTVN3fmt2v619basic_memory_bufferIwLj500ENSt3__19allocatorIwEEEE"
  },
  {
   "binding" : "weak",
   "name" : "_ZTVNSt3__110__function6__funcIN7android4base10LogdLoggerENS_9allocatorIS4_EEFvNS3_5LogIdENS3_11LogSeverityEPKcSA_jSA_EEE"
  },
  {
   "binding" : "weak",
   "name" : "_ZTVNSt3__110__function6__funcIPFvPKcENS_9allocatorIS5_EES4_EE"
  },
  {
   "binding" : "weak",
   "name" : "_ZTVNSt3__115basic_stringbufIcNS_11char_traitsIcEENS_9allocatorIcEEEE"
  },
  {
   "binding" : "weak",
   "name" : "_ZTVNSt3__119basic_ostringstreamIcNS_11char_traitsIcEENS_9allocatorIcEEEE"
  }
 ],
 "enum_types" :
 [
  {
   "access" : "private",
   "alignment" : 4,
   "enum_fields" :
   [
    {
     "enum_field_value" : 22,
     "name" : "fmt::v6::format_int::buffer_size"
    }
   ],
   "linker_set_key" : "_ZTIN3fmt2v610format_int12$buffer_sizeE",
   "name" : "fmt::format_int::(anonymous enum at external/fmtlib/include/fmt/format.h:2875:3)",
   "referenced_type" : "_ZTIN3fmt2v610format_int12$buffer_sizeE",
   "self_type" : "_ZTIN3fmt2v610format_int12$buffer_sizeE",
   "size" : 4,
   "source_file" : "/external/fmtlib/include/fmt/format.h",
   "underlying_type" : "_ZTIj"
  },
  {
   "alignment" : 4,
   "enum_fields" :
   [
    {
     "enum_field_value" : 500,
     "name" : "fmt::v6::inline_buffer_size"
    }
   ],
   "linker_set_key" : "_ZTIN3fmt2v619$inline_buffer_sizeE",
   "name" : "fmt::(anonymous enum at external/fmtlib/include/fmt/format.h:565:1)",
   "referenced_type" : "_ZTIN3fmt2v619$inline_buffer_sizeE",
   "self_type" : "_ZTIN3fmt2v619$inline_buffer_sizeE",
   "size" : 4,
   "source_file" : "/external/fmtlib/include/fmt/format.h",
   "underlying_type" : "_ZTIj"
  },
  {
   "alignment" : 4,
   "enum_fields" :
   [
    {
     "enum_field_value" : 0,
     "name" : "fmt::v6::sign::none"
    },
    {
     "enum_field_value" : 1,
     "name" : "fmt::v6::sign::minus"
    },
    {
     "enum_field_value" : 2,
     "name" : "fmt::v6::sign::plus"
    },
    {
     "enum_field_value" : 3,
     "name" : "fmt::v6::sign::space"
    }
   ],
   "linker_set_key" : "_ZTIN3fmt2v64sign4typeE",
   "name" : "fmt::sign::type",
   "referenced_type" : "_ZTIN3fmt2v64sign4typeE",
   "self_type" : "_ZTIN3fmt2v64sign4typeE",
   "size" : 4,
   "source_file" : "/external/fmtlib/include/fmt/format.h",
   "underlying_type" : "_ZTIj"
  },
  {
   "alignment" : 4,
   "enum_fields" :
   [
    {
     "enum_field_value" : 0,
     "name" : "fmt::v6::align::none"
    },
    {
     "enum_field_value" : 1,
     "name" : "fmt::v6::align::left"
    },
    {
     "enum_field_value" : 2,
     "name" : "fmt::v6::align::right"
    },
    {
     "enum_field_value" : 3,
     "name" : "fmt::v6::align::center"
    },
    {
     "enum_field_value" : 4,
     "name" : "fmt::v6::align::numeric"
    }
   ],
   "linker_set_key" : "_ZTIN3fmt2v65align4typeE",
   "name" : "fmt::align::type",
   "referenced_type" : "_ZTIN3fmt2v65align4typeE",
   "self_type" : "_ZTIN3fmt2v65align4typeE",
   "size" : 4,
   "source_file" : "/external/fmtlib/include/fmt/format.h",
   "underlying_type" : "_ZTIj"
  },
  {
   "alignment" : 1,
   "linker_set_key" : "_ZTIN3fmt2v67char8_tE",
   "name" : "fmt::char8_t",
   "referenced_type" : "_ZTIN3fmt2v67char8_tE",
   "self_type" : "_ZTIN3fmt2v67char8_tE",
   "size" : 1,
   "source_file" : "/external/fmtlib/include/fmt/core.h",
   "underlying_type" : "_ZTIh"
  },
  {
   "alignment" : 4,
   "enum_fields" :
   [
    {
     "enum_field_value" : 1,
     "name" : "fmt::v6::internal::long_short"
    }
   ],
   "linker_set_key" : "_ZTIN3fmt2v68internal11$long_shortE",
   "name" : "fmt::internal::(anonymous enum at external/fmtlib/include/fmt/core.h:827:1)",
   "referenced_type" : "_ZTIN3fmt2v68internal11$long_shortE",
   "self_type" : "_ZTIN3fmt2v68internal11$long_shortE",
   "size" : 4,
   "source_file" : "/external/fmtlib/include/fmt/core.h",
   "underlying_type" : "_ZTIj"
  },
  {
   "alignment" : 4,
   "enum_fields" :
   [
    {
     "enum_field_value" : 0,
     "name" : "fmt::v6::internal::arg_id_kind::none"
    },
    {
     "enum_field_value" : 1,
     "name" : "fmt::v6::internal::arg_id_kind::index"
    },
    {
     "enum_field_value" : 2,
     "name" : "fmt::v6::internal::arg_id_kind::name"
    }
   ],
   "linker_set_key" : "_ZTIN3fmt2v68internal11arg_id_kindE",
   "name" : "fmt::internal::arg_id_kind",
   "referenced_type" : "_ZTIN3fmt2v68internal11arg_id_kindE",
   "self_type" : "_ZTIN3fmt2v68internal11arg_id_kindE",
   "size" : 4,
   "source_file" : "/external/fmtlib/include/fmt/format.h",
   "underlying_type" : "_ZTIi"
  },
  {
   "alignment" : 4,
   "enum_fields" :
   [
    {
     "enum_field_value" : 1,
     "name" : "fmt::v6::internal::basic_writer<fmt::v6::buffer_range<char> >::int_writer<char, fmt::v6::basic_format_specs<char> >::sep_size"
    }
   ],
   "linker_set_key" : "_ZTIN3fmt2v68internal12basic_writerINS0_12buffer_rangeIcEEE10int_writerIcNS0_18basic_format_specsIcEEE9$sep_sizeE",
   "name" : "fmt::internal::basic_writer<buffer_range<char> >::int_writer<char, basic_format_specs<char> >::(anonymous enum at external/fmtlib/include/fmt/format.h:1591:5)",
   "referenced_type" : "_ZTIN3fmt2v68internal12basic_writerINS0_12buffer_rangeIcEEE10int_writerIcNS0_18basic_format_specsIcEEE9$sep_sizeE",
   "self_type" : "_ZTIN3fmt2v68internal12basic_writerINS0_12buffer_rangeIcEEE10int_writerIcNS0_18basic_format_specsIcEEE9$sep_sizeE",
   "size" : 4,
   "source_file" : "/external/fmtlib/include/fmt/format.h",
   "underlying_type" : "_ZTIj"
  },
  {
   "alignment" : 4,
   "enum_fields" :
   [
    {
     "enum_field_value" : 1,
     "name" : "fmt::v6::internal::basic_writer<fmt::v6::buffer_range<char> >::int_writer<int, fmt::v6::basic_format_specs<char> >::sep_size"
    }
   ],
   "linker_set_key" : "_ZTIN3fmt2v68internal12basic_writerINS0_12buffer_rangeIcEEE10int_writerIiNS0_18basic_format_specsIcEEE9$sep_sizeE",
   "name" : "fmt::internal::basic_writer<buffer_range<char> >::int_writer<int, basic_format_specs<char> >::(anonymous enum at external/fmtlib/include/fmt/format.h:1591:5)",
   "referenced_type" : "_ZTIN3fmt2v68internal12basic_writerINS0_12buffer_rangeIcEEE10int_writerIiNS0_18basic_format_specsIcEEE9$sep_sizeE",
   "self_type" : "_ZTIN3fmt2v68internal12basic_writerINS0_12buffer_rangeIcEEE10int_writerIiNS0_18basic_format_specsIcEEE9$sep_sizeE",
   "size" : 4,
   "source_file" : "/external/fmtlib/include/fmt/format.h",
   "underlying_type" : "_ZTIj"
  },
  {
   "alignment" : 4,
   "enum_fields" :
   [
    {
     "enum_field_value" : 1,
     "name" : "fmt::v6::internal::basic_writer<fmt::v6::buffer_range<char> >::int_writer<unsigned int, fmt::v6::basic_format_specs<char> >::sep_size"
    }
   ],
   "linker_set_key" : "_ZTIN3fmt2v68internal12basic_writerINS0_12buffer_rangeIcEEE10int_writerIjNS0_18basic_format_specsIcEEE9$sep_sizeE",
   "name" : "fmt::internal::basic_writer<buffer_range<char> >::int_writer<unsigned int, basic_format_specs<char> >::(anonymous enum at external/fmtlib/include/fmt/format.h:1591:5)",
   "referenced_type" : "_ZTIN3fmt2v68internal12basic_writerINS0_12buffer_rangeIcEEE10int_writerIjNS0_18basic_format_specsIcEEE9$sep_sizeE",
   "self_type" : "_ZTIN3fmt2v68internal12basic_writerINS0_12buffer_rangeIcEEE10int_writerIjNS0_18basic_format_specsIcEEE9$sep_sizeE",
   "size" : 4,
   "source_file" : "/external/fmtlib/include/fmt/format.h",
   "underlying_type" : "_ZTIj"
  },
  {
   "alignment" : 4,
   "enum_fields" :
   [
    {
     "enum_field_value" : 1,
     "name" : "fmt::v6::internal::basic_writer<fmt::v6::buffer_range<char> >::int_writer<long long, fmt::v6::basic_format_specs<char> >::sep_size"
    }
   ],
   "linker_set_key" : "_ZTIN3fmt2v68internal12basic_writerINS0_12buffer_rangeIcEEE10int_writerIxNS0_18basic_format_specsIcEEE9$sep_sizeE",
   "name" : "fmt::internal::basic_writer<buffer_range<char> >::int_writer<long long, basic_format_specs<char> >::(anonymous enum at external/fmtlib/include/fmt/format.h:1591:5)",
   "referenced_type" : "_ZTIN3fmt2v68internal12basic_writerINS0_12buffer_rangeIcEEE10int_writerIxNS0_18basic_format_specsIcEEE9$sep_sizeE",
   "self_type" : "_ZTIN3fmt2v68internal12basic_writerINS0_12buffer_rangeIcEEE10int_writerIxNS0_18basic_format_specsIcEEE9$sep_sizeE",
   "size" : 4,
   "source_file" : "/external/fmtlib/include/fmt/format.h",
   "underlying_type" : "_ZTIj"
  },
  {
   "alignment" : 4,
   "enum_fields" :
   [
    {
     "enum_field_value" : 1,
     "name" : "fmt::v6::internal::basic_writer<fmt::v6::buffer_range<char> >::int_writer<unsigned long long, fmt::v6::basic_format_specs<char> >::sep_size"
    }
   ],
   "linker_set_key" : "_ZTIN3fmt2v68internal12basic_writerINS0_12buffer_rangeIcEEE10int_writerIyNS0_18basic_format_specsIcEEE9$sep_sizeE",
   "name" : "fmt::internal::basic_writer<buffer_range<char> >::int_writer<unsigned long long, basic_format_specs<char> >::(anonymous enum at external/fmtlib/include/fmt/format.h:1591:5)",
   "referenced_type" : "_ZTIN3fmt2v68internal12basic_writerINS0_12buffer_rangeIcEEE10int_writerIyNS0_18basic_format_specsIcEEE9$sep_sizeE",
   "self_type" : "_ZTIN3fmt2v68internal12basic_writerINS0_12buffer_rangeIcEEE10int_writerIyNS0_18basic_format_specsIcEEE9$sep_sizeE",
   "size" : 4,
   "source_file" : "/external/fmtlib/include/fmt/format.h",
   "underlying_type" : "_ZTIj"
  },
  {
   "alignment" : 4,
   "enum_fields" :
   [
    {
     "enum_field_value" : 1,
     "name" : "fmt::v6::internal::basic_writer<fmt::v6::buffer_range<wchar_t> >::int_writer<int, fmt::v6::basic_format_specs<wchar_t> >::sep_size"
    }
   ],
   "linker_set_key" : "_ZTIN3fmt2v68internal12basic_writerINS0_12buffer_rangeIwEEE10int_writerIiNS0_18basic_format_specsIwEEE9$sep_sizeE",
   "name" : "fmt::internal::basic_writer<buffer_range<wchar_t> >::int_writer<int, basic_format_specs<wchar_t> >::(anonymous enum at external/fmtlib/include/fmt/format.h:1591:5)",
   "referenced_type" : "_ZTIN3fmt2v68internal12basic_writerINS0_12buffer_rangeIwEEE10int_writerIiNS0_18basic_format_specsIwEEE9$sep_sizeE",
   "self_type" : "_ZTIN3fmt2v68internal12basic_writerINS0_12buffer_rangeIwEEE10int_writerIiNS0_18basic_format_specsIwEEE9$sep_sizeE",
   "size" : 4,
   "source_file" : "/external/fmtlib/include/fmt/format.h",
   "underlying_type" : "_ZTIj"
  },
  {
   "alignment" : 4,
   "enum_fields" :
   [
    {
     "enum_field_value" : 1,
     "name" : "fmt::v6::internal::basic_writer<fmt::v6::buffer_range<wchar_t> >::int_writer<unsigned int, fmt::v6::basic_format_specs<wchar_t> >::sep_size"
    }
   ],
   "linker_set_key" : "_ZTIN3fmt2v68internal12basic_writerINS0_12buffer_rangeIwEEE10int_writerIjNS0_18basic_format_specsIwEEE9$sep_sizeE",
   "name" : "fmt::internal::basic_writer<buffer_range<wchar_t> >::int_writer<unsigned int, basic_format_specs<wchar_t> >::(anonymous enum at external/fmtlib/include/fmt/format.h:1591:5)",
   "referenced_type" : "_ZTIN3fmt2v68internal12basic_writerINS0_12buffer_rangeIwEEE10int_writerIjNS0_18basic_format_specsIwEEE9$sep_sizeE",
   "self_type" : "_ZTIN3fmt2v68internal12basic_writerINS0_12buffer_rangeIwEEE10int_writerIjNS0_18basic_format_specsIwEEE9$sep_sizeE",
   "size" : 4,
   "source_file" : "/external/fmtlib/include/fmt/format.h",
   "underlying_type" : "_ZTIj"
  },
  {
   "alignment" : 4,
   "enum_fields" :
   [
    {
     "enum_field_value" : 1,
     "name" : "fmt::v6::internal::basic_writer<fmt::v6::buffer_range<wchar_t> >::int_writer<wchar_t, fmt::v6::basic_format_specs<wchar_t> >::sep_size"
    }
   ],
   "linker_set_key" : "_ZTIN3fmt2v68internal12basic_writerINS0_12buffer_rangeIwEEE10int_writerIwNS0_18basic_format_specsIwEEE9$sep_sizeE",
   "name" : "fmt::internal::basic_writer<buffer_range<wchar_t> >::int_writer<wchar_t, basic_format_specs<wchar_t> >::(anonymous enum at external/fmtlib/include/fmt/format.h:1591:5)",
   "referenced_type" : "_ZTIN3fmt2v68internal12basic_writerINS0_12buffer_rangeIwEEE10int_writerIwNS0_18basic_format_specsIwEEE9$sep_sizeE",
   "self_type" : "_ZTIN3fmt2v68internal12basic_writerINS0_12buffer_rangeIwEEE10int_writerIwNS0_18basic_format_specsIwEEE9$sep_sizeE",
   "size" : 4,
   "source_file" : "/external/fmtlib/include/fmt/format.h",
   "underlying_type" : "_ZTIj"
  },
  {
   "alignment" : 4,
   "enum_fields" :
   [
    {
     "enum_field_value" : 1,
     "name" : "fmt::v6::internal::basic_writer<fmt::v6::buffer_range<wchar_t> >::int_writer<long long, fmt::v6::basic_format_specs<wchar_t> >::sep_size"
    }
   ],
   "linker_set_key" : "_ZTIN3fmt2v68internal12basic_writerINS0_12buffer_rangeIwEEE10int_writerIxNS0_18basic_format_specsIwEEE9$sep_sizeE",
   "name" : "fmt::internal::basic_writer<buffer_range<wchar_t> >::int_writer<long long, basic_format_specs<wchar_t> >::(anonymous enum at external/fmtlib/include/fmt/format.h:1591:5)",
   "referenced_type" : "_ZTIN3fmt2v68internal12basic_writerINS0_12buffer_rangeIwEEE10int_writerIxNS0_18basic_format_specsIwEEE9$sep_sizeE",
   "self_type" : "_ZTIN3fmt2v68internal12basic_writerINS0_12buffer_rangeIwEEE10int_writerIxNS0_18basic_format_specsIwEEE9$sep_sizeE",
   "size" : 4,
   "source_file" : "/external/fmtlib/include/fmt/format.h",
   "underlying_type" : "_ZTIj"
  },
  {
   "alignment" : 4,
   "enum_fields" :
   [
    {
     "enum_field_value" : 1,
     "name" : "fmt::v6::internal::basic_writer<fmt::v6::buffer_range<wchar_t> >::int_writer<unsigned long long, fmt::v6::basic_format_specs<wchar_t> >::sep_size"
    }
   ],
   "linker_set_key" : "_ZTIN3fmt2v68internal12basic_writerINS0_12buffer_rangeIwEEE10int_writerIyNS0_18basic_format_specsIwEEE9$sep_sizeE",
   "name" : "fmt::internal::basic_writer<buffer_range<wchar_t> >::int_writer<unsigned long long, basic_format_specs<wchar_t> >::(anonymous enum at external/fmtlib/include/fmt/format.h:1591:5)",
   "referenced_type" : "_ZTIN3fmt2v68internal12basic_writerINS0_12buffer_rangeIwEEE10int_writerIyNS0_18basic_format_specsIwEEE9$sep_sizeE",
   "self_type" : "_ZTIN3fmt2v68internal12basic_writerINS0_12buffer_rangeIwEEE10int_writerIyNS0_18basic_format_specsIwEEE9$sep_sizeE",
   "size" : 4,
   "source_file" : "/external/fmtlib/include/fmt/format.h",
   "underlying_type" : "_ZTIj"
  },
  {
   "alignment" : 1,
   "enum_fields" :
   [
    {
     "enum_field_value" : 0,
     "name" : "fmt::v6::internal::float_format::general"
    },
    {
     "enum_field_value" : 1,
     "name" : "fmt::v6::internal::float_format::exp"
    },
    {
     "enum_field_value" : 2,
     "name" : "fmt::v6::internal::float_format::fixed"
    },
    {
     "enum_field_value" : 3,
     "name" : "fmt::v6::internal::float_format::hex"
    }
   ],
   "linker_set_key" : "_ZTIN3fmt2v68internal12float_formatE",
   "name" : "fmt::internal::float_format",
   "referenced_type" : "_ZTIN3fmt2v68internal12float_formatE",
   "self_type" : "_ZTIN3fmt2v68internal12float_formatE",
   "size" : 1,
   "source_file" : "/external/fmtlib/include/fmt/format.h",
   "underlying_type" : "_ZTIh"
  },
  {
   "alignment" : 4,
   "enum_fields" :
   [
    {
     "enum_field_value" : 0,
     "name" : "fmt::v6::internal::unknown"
    },
    {
     "enum_field_value" : 1,
     "name" : "fmt::v6::internal::up"
    },
    {
     "enum_field_value" : 2,
     "name" : "fmt::v6::internal::down"
    }
   ],
   "linker_set_key" : "_ZTIN3fmt2v68internal15round_directionE",
   "name" : "fmt::internal::round_direction",
   "referenced_type" : "_ZTIN3fmt2v68internal15round_directionE",
   "self_type" : "_ZTIN3fmt2v68internal15round_directionE",
   "size" : 4,
   "source_file" : "/external/fmtlib/include/fmt/format-inl.h",
   "underlying_type" : "_ZTIj"
  },
  {
   "alignment" : 4,
   "enum_fields" :
   [
    {
     "enum_field_value" : 0,
     "name" : "fmt::v6::internal::is_unpacked_bit"
    }
   ],
   "linker_set_key" : "_ZTIN3fmt2v68internal16$is_unpacked_bitE",
   "name" : "fmt::internal::(anonymous enum at external/fmtlib/include/fmt/core.h:942:1)",
   "referenced_type" : "_ZTIN3fmt2v68internal16$is_unpacked_bitE",
   "self_type" : "_ZTIN3fmt2v68internal16$is_unpacked_bitE",
   "size" : 8,
   "source_file" : "/external/fmtlib/include/fmt/core.h",
   "underlying_type" : "_ZTIy"
  },
  {
   "alignment" : 4,
   "enum_fields" :
   [
    {
     "enum_field_value" : 12,
     "name" : "fmt::v6::internal::max_packed_args"
    }
   ],
   "linker_set_key" : "_ZTIN3fmt2v68internal16$max_packed_argsE",
   "name" : "fmt::internal::(anonymous enum at external/fmtlib/include/fmt/core.h:941:1)",
   "referenced_type" : "_ZTIN3fmt2v68internal16$max_packed_argsE",
   "self_type" : "_ZTIN3fmt2v68internal16$max_packed_argsE",
   "size" : 4,
   "source_file" : "/external/fmtlib/include/fmt/core.h",
   "underlying_type" : "_ZTIj"
  },
  {
   "alignment" : 4,
   "enum_fields" :
   [
    {
     "enum_field_value" : 5,
     "name" : "fmt::v6::internal::packed_arg_bits"
    }
   ],
   "linker_set_key" : "_ZTIN3fmt2v68internal16$packed_arg_bitsE",
   "name" : "fmt::internal::(anonymous enum at external/fmtlib/include/fmt/core.h:939:1)",
   "referenced_type" : "_ZTIN3fmt2v68internal16$packed_arg_bitsE",
   "self_type" : "_ZTIN3fmt2v68internal16$packed_arg_bitsE",
   "size" : 4,
   "source_file" : "/external/fmtlib/include/fmt/core.h",
   "underlying_type" : "_ZTIj"
  },
  {
   "alignment" : 4,
   "enum_fields" :
   [
    {
     "enum_field_value" : 0,
     "name" : "fmt::v6::internal::none_type"
    },
    {
     "enum_field_value" : 1,
     "name" : "fmt::v6::internal::named_arg_type"
    },
    {
     "enum_field_value" : 2,
     "name" : "fmt::v6::internal::int_type"
    },
    {
     "enum_field_value" : 3,
     "name" : "fmt::v6::internal::uint_type"
    },
    {
     "enum_field_value" : 4,
     "name" : "fmt::v6::internal::long_long_type"
    },
    {
     "enum_field_value" : 5,
     "name" : "fmt::v6::internal::ulong_long_type"
    },
    {
     "enum_field_value" : 6,
     "name" : "fmt::v6::internal::int128_type"
    },
    {
     "enum_field_value" : 7,
     "name" : "fmt::v6::internal::uint128_type"
    },
    {
     "enum_field_value" : 8,
     "name" : "fmt::v6::internal::bool_type"
    },
    {
     "enum_field_value" : 9,
     "name" : "fmt::v6::internal::char_type"
    },
    {
     "enum_field_value" : 9,
     "name" : "fmt::v6::internal::last_integer_type"
    },
    {
     "enum_field_value" : 10,
     "name" : "fmt::v6::internal::float_type"
    },
    {
     "enum_field_value" : 11,
     "name" : "fmt::v6::internal::double_type"
    },
    {
     "enum_field_value" : 12,
     "name" : "fmt::v6::internal::long_double_type"
    },
    {
     "enum_field_value" : 12,
     "name" : "fmt::v6::internal::last_numeric_type"
    },
    {
     "enum_field_value" : 13,
     "name" : "fmt::v6::internal::cstring_type"
    },
    {
     "enum_field_value" : 14,
     "name" : "fmt::v6::internal::string_type"
    },
    {
     "enum_field_value" : 15,
     "name" : "fmt::v6::internal::pointer_type"
    },
    {
     "enum_field_value" : 16,
     "name" : "fmt::v6::internal::custom_type"
    }
   ],
   "linker_set_key" : "_ZTIN3fmt2v68internal4typeE",
   "name" : "fmt::internal::type",
   "referenced_type" : "_ZTIN3fmt2v68internal4typeE",
   "self_type" : "_ZTIN3fmt2v68internal4typeE",
   "size" : 4,
   "source_file" : "/external/fmtlib/include/fmt/core.h",
   "underlying_type" : "_ZTIj"
  },
  {
   "access" : "private",
   "alignment" : 4,
   "enum_fields" :
   [
    {
     "enum_field_value" : 32,
     "name" : "fmt::v6::internal::bigint::bigits_capacity"
    }
   ],
   "linker_set_key" : "_ZTIN3fmt2v68internal6bigint16$bigits_capacityE",
   "name" : "fmt::internal::bigint::(anonymous enum at external/fmtlib/include/fmt/format-inl.h:525:3)",
   "referenced_type" : "_ZTIN3fmt2v68internal6bigint16$bigits_capacityE",
   "self_type" : "_ZTIN3fmt2v68internal6bigint16$bigits_capacityE",
   "size" : 4,
   "source_file" : "/external/fmtlib/include/fmt/format-inl.h",
   "underlying_type" : "_ZTIj"
  },
  {
   "alignment" : 4,
   "enum_fields" :
   [
    {
     "enum_field_value" : 0,
     "name" : "fmt::v6::internal::digits::more"
    },
    {
     "enum_field_value" : 1,
     "name" : "fmt::v6::internal::digits::done"
    },
    {
     "enum_field_value" : 2,
     "name" : "fmt::v6::internal::digits::error"
    }
   ],
   "linker_set_key" : "_ZTIN3fmt2v68internal6digits6resultE",
   "name" : "fmt::internal::digits::result",
   "referenced_type" : "_ZTIN3fmt2v68internal6digits6resultE",
   "self_type" : "_ZTIN3fmt2v68internal6digits6resultE",
   "size" : 4,
   "source_file" : "/external/fmtlib/include/fmt/format-inl.h",
   "underlying_type" : "_ZTIj"
  },
  {
   "alignment" : 4,
   "enum_fields" :
   [
    {
     "enum_field_value" : 0,
     "name" : "android::base::VERBOSE"
    },
    {
     "enum_field_value" : 1,
     "name" : "android::base::DEBUG"
    },
    {
     "enum_field_value" : 2,
     "name" : "android::base::INFO"
    },
    {
     "enum_field_value" : 3,
     "name" : "android::base::WARNING"
    },
    {
     "enum_field_value" : 4,
     "name" : "android::base::ERROR"
    },
    {
     "enum_field_value" : 5,
     "name" : "android::base::FATAL_WITHOUT_ABORT"
    },
    {
     "enum_field_value" : 6,
     "name" : "android::base::FATAL"
    }
   ],
   "linker_set_key" : "_ZTIN7android4base11LogSeverityE",
   "name" : "android::base::LogSeverity",
   "referenced_type" : "_ZTIN7android4base11LogSeverityE",
   "self_type" : "_ZTIN7android4base11LogSeverityE",
   "size" : 4,
   "source_file" : "/system/core/base/include/android-base/logging.h",
   "underlying_type" : "_ZTIj"
  },
  {
   "alignment" : 4,
   "enum_fields" :
   [
    {
     "enum_field_value" : 0,
     "name" : "android::base::ParseBoolResult::kError"
    },
    {
     "enum_field_value" : 1,
     "name" : "android::base::ParseBoolResult::kFalse"
    },
    {
     "enum_field_value" : 2,
     "name" : "android::base::ParseBoolResult::kTrue"
    }
   ],
   "linker_set_key" : "_ZTIN7android4base15ParseBoolResultE",
   "name" : "android::base::ParseBoolResult",
   "referenced_type" : "_ZTIN7android4base15ParseBoolResultE",
   "self_type" : "_ZTIN7android4base15ParseBoolResultE",
   "size" : 4,
   "source_file" : "/system/core/base/include/android-base/parsebool.h",
   "underlying_type" : "_ZTIi"
  },
  {
   "alignment" : 4,
   "enum_fields" :
   [
    {
     "enum_field_value" : 0,
     "name" : "android::base::DEFAULT"
    },
    {
     "enum_field_value" : 1,
     "name" : "android::base::MAIN"
    },
    {
     "enum_field_value" : 2,
     "name" : "android::base::SYSTEM"
    },
    {
     "enum_field_value" : 3,
     "name" : "android::base::RADIO"
    },
    {
     "enum_field_value" : 4,
     "name" : "android::base::CRASH"
    }
   ],
   "linker_set_key" : "_ZTIN7android4base5LogIdE",
   "name" : "android::base::LogId",
   "referenced_type" : "_ZTIN7android4base5LogIdE",
   "self_type" : "_ZTIN7android4base5LogIdE",
   "size" : 4,
   "source_file" : "/system/core/base/include/android-base/logging.h",
   "underlying_type" : "_ZTIj"
  },
  {
   "alignment" : 4,
   "enum_fields" :
   [
    {
     "enum_field_value" : 10,
     "name" : "fmt::v6::internal::format_decimal(char *, unsigned int, int, (lambda at external/fmtlib/include/fmt/format.h:1607:13))::max_size"
    }
   ],
   "linker_set_key" : "_ZTIZN3fmt2v68internal14format_decimalIcjPcZNKS1_12basic_writerINS0_12buffer_rangeIcEEE10int_writerIcNS0_18basic_format_specsIcEEE10num_writerclIRS3_EEvOT_EUlSE_E_EET1_SI_T0_iT2_E9$max_size",
   "name" : "(anonymous enum at external/fmtlib/include/fmt/format.h:932:3)",
   "referenced_type" : "_ZTIZN3fmt2v68internal14format_decimalIcjPcZNKS1_12basic_writerINS0_12buffer_rangeIcEEE10int_writerIcNS0_18basic_format_specsIcEEE10num_writerclIRS3_EEvOT_EUlSE_E_EET1_SI_T0_iT2_E9$max_size",
   "self_type" : "_ZTIZN3fmt2v68internal14format_decimalIcjPcZNKS1_12basic_writerINS0_12buffer_rangeIcEEE10int_writerIcNS0_18basic_format_specsIcEEE10num_writerclIRS3_EEvOT_EUlSE_E_EET1_SI_T0_iT2_E9$max_size",
   "size" : 4,
   "source_file" : "/external/fmtlib/include/fmt/format.h",
   "underlying_type" : "_ZTIj"
  },
  {
   "alignment" : 4,
   "enum_fields" :
   [
    {
     "enum_field_value" : 10,
     "name" : "fmt::v6::internal::format_decimal(char *, unsigned int, int, (lambda at external/fmtlib/include/fmt/format.h:1607:13))::max_size"
    }
   ],
   "linker_set_key" : "_ZTIZN3fmt2v68internal14format_decimalIcjPcZNKS1_12basic_writerINS0_12buffer_rangeIcEEE10int_writerIiNS0_18basic_format_specsIcEEE10num_writerclIRS3_EEvOT_EUlSE_E_EET1_SI_T0_iT2_E9$max_size",
   "name" : "(anonymous enum at external/fmtlib/include/fmt/format.h:932:3)",
   "referenced_type" : "_ZTIZN3fmt2v68internal14format_decimalIcjPcZNKS1_12basic_writerINS0_12buffer_rangeIcEEE10int_writerIiNS0_18basic_format_specsIcEEE10num_writerclIRS3_EEvOT_EUlSE_E_EET1_SI_T0_iT2_E9$max_size",
   "self_type" : "_ZTIZN3fmt2v68internal14format_decimalIcjPcZNKS1_12basic_writerINS0_12buffer_rangeIcEEE10int_writerIiNS0_18basic_format_specsIcEEE10num_writerclIRS3_EEvOT_EUlSE_E_EET1_SI_T0_iT2_E9$max_size",
   "size" : 4,
   "source_file" : "/external/fmtlib/include/fmt/format.h",
   "underlying_type" : "_ZTIj"
  },
  {
   "alignment" : 4,
   "enum_fields" :
   [
    {
     "enum_field_value" : 10,
     "name" : "fmt::v6::internal::format_decimal(char *, unsigned int, int, (lambda at external/fmtlib/include/fmt/format.h:1607:13))::max_size"
    }
   ],
   "linker_set_key" : "_ZTIZN3fmt2v68internal14format_decimalIcjPcZNKS1_12basic_writerINS0_12buffer_rangeIcEEE10int_writerIjNS0_18basic_format_specsIcEEE10num_writerclIRS3_EEvOT_EUlSE_E_EET1_SI_T0_iT2_E9$max_size",
   "name" : "(anonymous enum at external/fmtlib/include/fmt/format.h:932:3)",
   "referenced_type" : "_ZTIZN3fmt2v68internal14format_decimalIcjPcZNKS1_12basic_writerINS0_12buffer_rangeIcEEE10int_writerIjNS0_18basic_format_specsIcEEE10num_writerclIRS3_EEvOT_EUlSE_E_EET1_SI_T0_iT2_E9$max_size",
   "self_type" : "_ZTIZN3fmt2v68internal14format_decimalIcjPcZNKS1_12basic_writerINS0_12buffer_rangeIcEEE10int_writerIjNS0_18basic_format_specsIcEEE10num_writerclIRS3_EEvOT_EUlSE_E_EET1_SI_T0_iT2_E9$max_size",
   "size" : 4,
   "source_file" : "/external/fmtlib/include/fmt/format.h",
   "underlying_type" : "_ZTIj"
  },
  {
   "alignment" : 4,
   "enum_fields" :
   [
    {
     "enum_field_value" : 10,
     "name" : "fmt::v6::internal::format_decimal(char *, unsigned int, int, (lambda at external/fmtlib/include/fmt/format.h:940:55))::max_size"
    }
   ],
   "linker_set_key" : "_ZTIZN3fmt2v68internal14format_decimalIcjPcZNS1_14format_decimalIcS3_jEET0_S5_T1_iEUlS3_E_EES6_S6_S5_iT2_E9$max_size",
   "name" : "(anonymous enum at external/fmtlib/include/fmt/format.h:932:3)",
   "referenced_type" : "_ZTIZN3fmt2v68internal14format_decimalIcjPcZNS1_14format_decimalIcS3_jEET0_S5_T1_iEUlS3_E_EES6_S6_S5_iT2_E9$max_size",
   "self_type" : "_ZTIZN3fmt2v68internal14format_decimalIcjPcZNS1_14format_decimalIcS3_jEET0_S5_T1_iEUlS3_E_EES6_S6_S5_iT2_E9$max_size",
   "size" : 4,
   "source_file" : "/external/fmtlib/include/fmt/format.h",
   "underlying_type" : "_ZTIj"
  },
  {
   "alignment" : 4,
   "enum_fields" :
   [
    {
     "enum_field_value" : 20,
     "name" : "fmt::v6::internal::format_decimal(char *, unsigned long long, int, (lambda at external/fmtlib/include/fmt/format.h:1607:13))::max_size"
    }
   ],
   "linker_set_key" : "_ZTIZN3fmt2v68internal14format_decimalIcyPcZNKS1_12basic_writerINS0_12buffer_rangeIcEEE10int_writerIxNS0_18basic_format_specsIcEEE10num_writerclIRS3_EEvOT_EUlSE_E_EET1_SI_T0_iT2_E9$max_size",
   "name" : "(anonymous enum at external/fmtlib/include/fmt/format.h:932:3)",
   "referenced_type" : "_ZTIZN3fmt2v68internal14format_decimalIcyPcZNKS1_12basic_writerINS0_12buffer_rangeIcEEE10int_writerIxNS0_18basic_format_specsIcEEE10num_writerclIRS3_EEvOT_EUlSE_E_EET1_SI_T0_iT2_E9$max_size",
   "self_type" : "_ZTIZN3fmt2v68internal14format_decimalIcyPcZNKS1_12basic_writerINS0_12buffer_rangeIcEEE10int_writerIxNS0_18basic_format_specsIcEEE10num_writerclIRS3_EEvOT_EUlSE_E_EET1_SI_T0_iT2_E9$max_size",
   "size" : 4,
   "source_file" : "/external/fmtlib/include/fmt/format.h",
   "underlying_type" : "_ZTIj"
  },
  {
   "alignment" : 4,
   "enum_fields" :
   [
    {
     "enum_field_value" : 20,
     "name" : "fmt::v6::internal::format_decimal(char *, unsigned long long, int, (lambda at external/fmtlib/include/fmt/format.h:1607:13))::max_size"
    }
   ],
   "linker_set_key" : "_ZTIZN3fmt2v68internal14format_decimalIcyPcZNKS1_12basic_writerINS0_12buffer_rangeIcEEE10int_writerIyNS0_18basic_format_specsIcEEE10num_writerclIRS3_EEvOT_EUlSE_E_EET1_SI_T0_iT2_E9$max_size",
   "name" : "(anonymous enum at external/fmtlib/include/fmt/format.h:932:3)",
   "referenced_type" : "_ZTIZN3fmt2v68internal14format_decimalIcyPcZNKS1_12basic_writerINS0_12buffer_rangeIcEEE10int_writerIyNS0_18basic_format_specsIcEEE10num_writerclIRS3_EEvOT_EUlSE_E_EET1_SI_T0_iT2_E9$max_size",
   "self_type" : "_ZTIZN3fmt2v68internal14format_decimalIcyPcZNKS1_12basic_writerINS0_12buffer_rangeIcEEE10int_writerIyNS0_18basic_format_specsIcEEE10num_writerclIRS3_EEvOT_EUlSE_E_EET1_SI_T0_iT2_E9$max_size",
   "size" : 4,
   "source_file" : "/external/fmtlib/include/fmt/format.h",
   "underlying_type" : "_ZTIj"
  },
  {
   "alignment" : 4,
   "enum_fields" :
   [
    {
     "enum_field_value" : 20,
     "name" : "fmt::v6::internal::format_decimal(char *, unsigned long long, int, (lambda at external/fmtlib/include/fmt/format.h:940:55))::max_size"
    }
   ],
   "linker_set_key" : "_ZTIZN3fmt2v68internal14format_decimalIcyPcZNS1_14format_decimalIcS3_yEET0_S5_T1_iEUlS3_E_EES6_S6_S5_iT2_E9$max_size",
   "name" : "(anonymous enum at external/fmtlib/include/fmt/format.h:932:3)",
   "referenced_type" : "_ZTIZN3fmt2v68internal14format_decimalIcyPcZNS1_14format_decimalIcS3_yEET0_S5_T1_iEUlS3_E_EES6_S6_S5_iT2_E9$max_size",
   "self_type" : "_ZTIZN3fmt2v68internal14format_decimalIcyPcZNS1_14format_decimalIcS3_yEET0_S5_T1_iEUlS3_E_EES6_S6_S5_iT2_E9$max_size",
   "size" : 4,
   "source_file" : "/external/fmtlib/include/fmt/format.h",
   "underlying_type" : "_ZTIj"
  },
  {
   "alignment" : 4,
   "enum_fields" :
   [
    {
     "enum_field_value" : 10,
     "name" : "fmt::v6::internal::format_decimal(wchar_t *, unsigned int, int, (lambda at external/fmtlib/include/fmt/format.h:1607:13))::max_size"
    }
   ],
   "linker_set_key" : "_ZTIZN3fmt2v68internal14format_decimalIwjPwZNKS1_12basic_writerINS0_12buffer_rangeIwEEE10int_writerIiNS0_18basic_format_specsIwEEE10num_writerclIRS3_EEvOT_EUlSE_E_EET1_SI_T0_iT2_E9$max_size",
   "name" : "(anonymous enum at external/fmtlib/include/fmt/format.h:932:3)",
   "referenced_type" : "_ZTIZN3fmt2v68internal14format_decimalIwjPwZNKS1_12basic_writerINS0_12buffer_rangeIwEEE10int_writerIiNS0_18basic_format_specsIwEEE10num_writerclIRS3_EEvOT_EUlSE_E_EET1_SI_T0_iT2_E9$max_size",
   "self_type" : "_ZTIZN3fmt2v68internal14format_decimalIwjPwZNKS1_12basic_writerINS0_12buffer_rangeIwEEE10int_writerIiNS0_18basic_format_specsIwEEE10num_writerclIRS3_EEvOT_EUlSE_E_EET1_SI_T0_iT2_E9$max_size",
   "size" : 4,
   "source_file" : "/external/fmtlib/include/fmt/format.h",
   "underlying_type" : "_ZTIj"
  },
  {
   "alignment" : 4,
   "enum_fields" :
   [
    {
     "enum_field_value" : 10,
     "name" : "fmt::v6::internal::format_decimal(wchar_t *, unsigned int, int, (lambda at external/fmtlib/include/fmt/format.h:1607:13))::max_size"
    }
   ],
   "linker_set_key" : "_ZTIZN3fmt2v68internal14format_decimalIwjPwZNKS1_12basic_writerINS0_12buffer_rangeIwEEE10int_writerIjNS0_18basic_format_specsIwEEE10num_writerclIRS3_EEvOT_EUlSE_E_EET1_SI_T0_iT2_E9$max_size",
   "name" : "(anonymous enum at external/fmtlib/include/fmt/format.h:932:3)",
   "referenced_type" : "_ZTIZN3fmt2v68internal14format_decimalIwjPwZNKS1_12basic_writerINS0_12buffer_rangeIwEEE10int_writerIjNS0_18basic_format_specsIwEEE10num_writerclIRS3_EEvOT_EUlSE_E_EET1_SI_T0_iT2_E9$max_size",
   "self_type" : "_ZTIZN3fmt2v68internal14format_decimalIwjPwZNKS1_12basic_writerINS0_12buffer_rangeIwEEE10int_writerIjNS0_18basic_format_specsIwEEE10num_writerclIRS3_EEvOT_EUlSE_E_EET1_SI_T0_iT2_E9$max_size",
   "size" : 4,
   "source_file" : "/external/fmtlib/include/fmt/format.h",
   "underlying_type" : "_ZTIj"
  },
  {
   "alignment" : 4,
   "enum_fields" :
   [
    {
     "enum_field_value" : 10,
     "name" : "fmt::v6::internal::format_decimal(wchar_t *, unsigned int, int, (lambda at external/fmtlib/include/fmt/format.h:1607:13))::max_size"
    }
   ],
   "linker_set_key" : "_ZTIZN3fmt2v68internal14format_decimalIwjPwZNKS1_12basic_writerINS0_12buffer_rangeIwEEE10int_writerIwNS0_18basic_format_specsIwEEE10num_writerclIRS3_EEvOT_EUlSE_E_EET1_SI_T0_iT2_E9$max_size",
   "name" : "(anonymous enum at external/fmtlib/include/fmt/format.h:932:3)",
   "referenced_type" : "_ZTIZN3fmt2v68internal14format_decimalIwjPwZNKS1_12basic_writerINS0_12buffer_rangeIwEEE10int_writerIwNS0_18basic_format_specsIwEEE10num_writerclIRS3_EEvOT_EUlSE_E_EET1_SI_T0_iT2_E9$max_size",
   "self_type" : "_ZTIZN3fmt2v68internal14format_decimalIwjPwZNKS1_12basic_writerINS0_12buffer_rangeIwEEE10int_writerIwNS0_18basic_format_specsIwEEE10num_writerclIRS3_EEvOT_EUlSE_E_EET1_SI_T0_iT2_E9$max_size",
   "size" : 4,
   "source_file" : "/external/fmtlib/include/fmt/format.h",
   "underlying_type" : "_ZTIj"
  },
  {
   "alignment" : 4,
   "enum_fields" :
   [
    {
     "enum_field_value" : 10,
     "name" : "fmt::v6::internal::format_decimal(wchar_t *, unsigned int, int, (lambda at external/fmtlib/include/fmt/format.h:940:55))::max_size"
    }
   ],
   "linker_set_key" : "_ZTIZN3fmt2v68internal14format_decimalIwjPwZNS1_14format_decimalIwS3_jEET0_S5_T1_iEUlS3_E_EES6_S6_S5_iT2_E9$max_size",
   "name" : "(anonymous enum at external/fmtlib/include/fmt/format.h:932:3)",
   "referenced_type" : "_ZTIZN3fmt2v68internal14format_decimalIwjPwZNS1_14format_decimalIwS3_jEET0_S5_T1_iEUlS3_E_EES6_S6_S5_iT2_E9$max_size",
   "self_type" : "_ZTIZN3fmt2v68internal14format_decimalIwjPwZNS1_14format_decimalIwS3_jEET0_S5_T1_iEUlS3_E_EES6_S6_S5_iT2_E9$max_size",
   "size" : 4,
   "source_file" : "/external/fmtlib/include/fmt/format.h",
   "underlying_type" : "_ZTIj"
  },
  {
   "alignment" : 4,
   "enum_fields" :
   [
    {
     "enum_field_value" : 20,
     "name" : "fmt::v6::internal::format_decimal(wchar_t *, unsigned long long, int, (lambda at external/fmtlib/include/fmt/format.h:1607:13))::max_size"
    }
   ],
   "linker_set_key" : "_ZTIZN3fmt2v68internal14format_decimalIwyPwZNKS1_12basic_writerINS0_12buffer_rangeIwEEE10int_writerIxNS0_18basic_format_specsIwEEE10num_writerclIRS3_EEvOT_EUlSE_E_EET1_SI_T0_iT2_E9$max_size",
   "name" : "(anonymous enum at external/fmtlib/include/fmt/format.h:932:3)",
   "referenced_type" : "_ZTIZN3fmt2v68internal14format_decimalIwyPwZNKS1_12basic_writerINS0_12buffer_rangeIwEEE10int_writerIxNS0_18basic_format_specsIwEEE10num_writerclIRS3_EEvOT_EUlSE_E_EET1_SI_T0_iT2_E9$max_size",
   "self_type" : "_ZTIZN3fmt2v68internal14format_decimalIwyPwZNKS1_12basic_writerINS0_12buffer_rangeIwEEE10int_writerIxNS0_18basic_format_specsIwEEE10num_writerclIRS3_EEvOT_EUlSE_E_EET1_SI_T0_iT2_E9$max_size",
   "size" : 4,
   "source_file" : "/external/fmtlib/include/fmt/format.h",
   "underlying_type" : "_ZTIj"
  },
  {
   "alignment" : 4,
   "enum_fields" :
   [
    {
     "enum_field_value" : 20,
     "name" : "fmt::v6::internal::format_decimal(wchar_t *, unsigned long long, int, (lambda at external/fmtlib/include/fmt/format.h:1607:13))::max_size"
    }
   ],
   "linker_set_key" : "_ZTIZN3fmt2v68internal14format_decimalIwyPwZNKS1_12basic_writerINS0_12buffer_rangeIwEEE10int_writerIyNS0_18basic_format_specsIwEEE10num_writerclIRS3_EEvOT_EUlSE_E_EET1_SI_T0_iT2_E9$max_size",
   "name" : "(anonymous enum at external/fmtlib/include/fmt/format.h:932:3)",
   "referenced_type" : "_ZTIZN3fmt2v68internal14format_decimalIwyPwZNKS1_12basic_writerINS0_12buffer_rangeIwEEE10int_writerIyNS0_18basic_format_specsIwEEE10num_writerclIRS3_EEvOT_EUlSE_E_EET1_SI_T0_iT2_E9$max_size",
   "self_type" : "_ZTIZN3fmt2v68internal14format_decimalIwyPwZNKS1_12basic_writerINS0_12buffer_rangeIwEEE10int_writerIyNS0_18basic_format_specsIwEEE10num_writerclIRS3_EEvOT_EUlSE_E_EET1_SI_T0_iT2_E9$max_size",
   "size" : 4,
   "source_file" : "/external/fmtlib/include/fmt/format.h",
   "underlying_type" : "_ZTIj"
  },
  {
   "alignment" : 4,
   "enum_fields" :
   [
    {
     "enum_field_value" : 20,
     "name" : "fmt::v6::internal::format_decimal(wchar_t *, unsigned long long, int, (lambda at external/fmtlib/include/fmt/format.h:940:55))::max_size"
    }
   ],
   "linker_set_key" : "_ZTIZN3fmt2v68internal14format_decimalIwyPwZNS1_14format_decimalIwS3_yEET0_S5_T1_iEUlS3_E_EES6_S6_S5_iT2_E9$max_size",
   "name" : "(anonymous enum at external/fmtlib/include/fmt/format.h:932:3)",
   "referenced_type" : "_ZTIZN3fmt2v68internal14format_decimalIwyPwZNS1_14format_decimalIwS3_yEET0_S5_T1_iEUlS3_E_EES6_S6_S5_iT2_E9$max_size",
   "self_type" : "_ZTIZN3fmt2v68internal14format_decimalIwyPwZNS1_14format_decimalIwS3_yEET0_S5_T1_iEUlS3_E_EES6_S6_S5_iT2_E9$max_size",
   "size" : 4,
   "source_file" : "/external/fmtlib/include/fmt/format.h",
   "underlying_type" : "_ZTIj"
  },
  {
   "alignment" : 4,
   "enum_fields" :
   [
    {
     "enum_field_value" : 7,
     "name" : "fmt::v6::internal::snprintf_float(double, int, fmt::v6::internal::float_specs, buffer<char> &)::max_format_size"
    }
   ],
   "linker_set_key" : "_ZTIZN3fmt2v68internal14snprintf_floatIdEEiT_iNS1_11float_specsERNS1_6bufferIcEEE16$max_format_size",
   "name" : "(anonymous enum at external/fmtlib/include/fmt/format-inl.h:1130:3)",
   "referenced_type" : "_ZTIZN3fmt2v68internal14snprintf_floatIdEEiT_iNS1_11float_specsERNS1_6bufferIcEEE16$max_format_size",
   "self_type" : "_ZTIZN3fmt2v68internal14snprintf_floatIdEEiT_iNS1_11float_specsERNS1_6bufferIcEEE16$max_format_size",
   "size" : 4,
   "source_file" : "/external/fmtlib/include/fmt/format-inl.h",
   "underlying_type" : "_ZTIj"
  },
  {
   "alignment" : 4,
   "enum_fields" :
   [
    {
     "enum_field_value" : 7,
     "name" : "fmt::v6::internal::snprintf_float(long double, int, fmt::v6::internal::float_specs, buffer<char> &)::max_format_size"
    }
   ],
   "linker_set_key" : "_ZTIZN3fmt2v68internal14snprintf_floatIeEEiT_iNS1_11float_specsERNS1_6bufferIcEEE16$max_format_size",
   "name" : "(anonymous enum at external/fmtlib/include/fmt/format-inl.h:1130:3)",
   "referenced_type" : "_ZTIZN3fmt2v68internal14snprintf_floatIeEEiT_iNS1_11float_specsERNS1_6bufferIcEEE16$max_format_size",
   "self_type" : "_ZTIZN3fmt2v68internal14snprintf_floatIeEEiT_iNS1_11float_specsERNS1_6bufferIcEEE16$max_format_size",
   "size" : 4,
   "source_file" : "/external/fmtlib/include/fmt/format-inl.h",
   "underlying_type" : "_ZTIj"
  }
 ],
 "function_types" :
 [
  {
   "alignment" : 4,
   "linker_set_key" : "_ZTIFvPKvRN3fmt2v626basic_format_parse_contextIcNS2_8internal13error_handlerEEERNS2_20basic_format_contextINSt3__120back_insert_iteratorINS4_6bufferIcEEEEcEEE",
   "name" : "void (const void *, fmt::v6::basic_format_parse_context<char, fmt::v6::internal::error_handler> &, fmt::v6::basic_format_context<std::__1::back_insert_iterator<fmt::v6::internal::buffer<char> >, char> &)",
   "parameters" :
   [
    {
     "referenced_type" : "_ZTIPKv"
    },
    {
     "referenced_type" : "_ZTIRN3fmt2v626basic_format_parse_contextIcNS0_8internal13error_handlerEEE"
    },
    {
     "referenced_type" : "_ZTIRN3fmt2v620basic_format_contextINSt3__120back_insert_iteratorINS0_8internal6bufferIcEEEEcEE"
    }
   ],
   "referenced_type" : "_ZTIFvPKvRN3fmt2v626basic_format_parse_contextIcNS2_8internal13error_handlerEEERNS2_20basic_format_contextINSt3__120back_insert_iteratorINS4_6bufferIcEEEEcEEE",
   "return_type" : "_ZTIv",
   "self_type" : "_ZTIFvPKvRN3fmt2v626basic_format_parse_contextIcNS2_8internal13error_handlerEEERNS2_20basic_format_contextINSt3__120back_insert_iteratorINS4_6bufferIcEEEEcEEE",
   "source_file" : "/external/fmtlib/include/fmt/core.h"
  },
  {
   "alignment" : 4,
   "linker_set_key" : "_ZTIFvPKvRN3fmt2v626basic_format_parse_contextIwNS2_8internal13error_handlerEEERNS2_20basic_format_contextINSt3__120back_insert_iteratorINS4_6bufferIwEEEEwEEE",
   "name" : "void (const void *, fmt::v6::basic_format_parse_context<wchar_t, fmt::v6::internal::error_handler> &, fmt::v6::basic_format_context<std::__1::back_insert_iterator<fmt::v6::internal::buffer<wchar_t> >, wchar_t> &)",
   "parameters" :
   [
    {
     "referenced_type" : "_ZTIPKv"
    },
    {
     "referenced_type" : "_ZTIRN3fmt2v626basic_format_parse_contextIwNS0_8internal13error_handlerEEE"
    },
    {
     "referenced_type" : "_ZTIRN3fmt2v620basic_format_contextINSt3__120back_insert_iteratorINS0_8internal6bufferIwEEEEwEE"
    }
   ],
   "referenced_type" : "_ZTIFvPKvRN3fmt2v626basic_format_parse_contextIwNS2_8internal13error_handlerEEERNS2_20basic_format_contextINSt3__120back_insert_iteratorINS4_6bufferIwEEEEwEEE",
   "return_type" : "_ZTIv",
   "self_type" : "_ZTIFvPKvRN3fmt2v626basic_format_parse_contextIwNS2_8internal13error_handlerEEERNS2_20basic_format_contextINSt3__120back_insert_iteratorINS4_6bufferIwEEEEwEEE",
   "source_file" : "/external/fmtlib/include/fmt/core.h"
  },
  {
   "alignment" : 4,
   "linker_set_key" : "_ZTIFvRN3fmt2v68internal6bufferIcEEiNS0_17basic_string_viewIcEEE",
   "name" : "void (fmt::v6::internal::buffer<char> &, int, fmt::v6::basic_string_view<char>)",
   "parameters" :
   [
    {
     "referenced_type" : "_ZTIRN3fmt2v68internal6bufferIcEE"
    },
    {
     "referenced_type" : "_ZTIi"
    },
    {
     "referenced_type" : "_ZTIN3fmt2v617basic_string_viewIcEE"
    }
   ],
   "referenced_type" : "_ZTIFvRN3fmt2v68internal6bufferIcEEiNS0_17basic_string_viewIcEEE",
   "return_type" : "_ZTIv",
   "self_type" : "_ZTIFvRN3fmt2v68internal6bufferIcEEiNS0_17basic_string_viewIcEEE",
   "source_file" : "/external/fmtlib/include/fmt/format-inl.h"
  }
 ],
 "functions" :
 [
  {
   "access" : "private",
   "function_name" : "TemporaryDir::init",
   "linker_set_key" : "_ZN12TemporaryDir4initERKNSt3__112basic_stringIcNS0_11char_traitsIcEENS0_9allocatorIcEEEE",
   "parameters" :
   [
    {
     "is_this_ptr" : true,
     "referenced_type" : "_ZTIP12TemporaryDir"
    },
    {
     "referenced_type" : "_ZTIRKNSt3__112basic_stringIcNS_11char_traitsIcEENS_9allocatorIcEEEE"
    }
   ],
   "return_type" : "_ZTIb",
   "source_file" : "/system/core/base/include/android-base/file.h"
  },
  {
   "function_name" : "TemporaryDir::TemporaryDir",
   "linker_set_key" : "_ZN12TemporaryDirC1Ev",
   "parameters" :
   [
    {
     "is_this_ptr" : true,
     "referenced_type" : "_ZTIP12TemporaryDir"
    }
   ],
   "return_type" : "_ZTIv",
   "source_file" : "/system/core/base/include/android-base/file.h"
  },
  {
   "function_name" : "TemporaryDir::TemporaryDir",
   "linker_set_key" : "_ZN12TemporaryDirC2Ev",
   "parameters" :
   [
    {
     "is_this_ptr" : true,
     "referenced_type" : "_ZTIP12TemporaryDir"
    }
   ],
   "return_type" : "_ZTIv",
   "source_file" : "/system/core/base/include/android-base/file.h"
  },
  {
   "function_name" : "TemporaryDir::~TemporaryDir",
   "linker_set_key" : "_ZN12TemporaryDirD1Ev",
   "parameters" :
   [
    {
     "is_this_ptr" : true,
     "referenced_type" : "_ZTIP12TemporaryDir"
    }
   ],
   "return_type" : "_ZTIv",
   "source_file" : "/system/core/base/include/android-base/file.h"
  },
  {
   "function_name" : "TemporaryDir::~TemporaryDir",
   "linker_set_key" : "_ZN12TemporaryDirD2Ev",
   "parameters" :
   [
    {
     "is_this_ptr" : true,
     "referenced_type" : "_ZTIP12TemporaryDir"
    }
   ],
   "return_type" : "_ZTIv",
   "source_file" : "/system/core/base/include/android-base/file.h"
  },
  {
   "function_name" : "CapturedStdFd::str",
   "linker_set_key" : "_ZN13CapturedStdFd3strEv",
   "parameters" :
   [
    {
     "is_this_ptr" : true,
     "referenced_type" : "_ZTIP13CapturedStdFd"
    }
   ],
   "return_type" : "_ZTINSt3__112basic_stringIcNS_11char_traitsIcEENS_9allocatorIcEEEE",
   "source_file" : "/system/core/base/include/android-base/test_utils.h"
  },
  {
   "function_name" : "CapturedStdFd::Stop",
   "linker_set_key" : "_ZN13CapturedStdFd4StopEv",
   "parameters" :
   [
    {
     "is_this_ptr" : true,
     "referenced_type" : "_ZTIP13CapturedStdFd"
    }
   ],
   "return_type" : "_ZTIv",
   "source_file" : "/system/core/base/include/android-base/test_utils.h"
  },
  {
   "function_name" : "CapturedStdFd::Reset",
   "linker_set_key" : "_ZN13CapturedStdFd5ResetEv",
   "parameters" :
   [
    {
     "is_this_ptr" : true,
     "referenced_type" : "_ZTIP13CapturedStdFd"
    }
   ],
   "return_type" : "_ZTIv",
   "source_file" : "/system/core/base/include/android-base/test_utils.h"
  },
  {
   "function_name" : "CapturedStdFd::Start",
   "linker_set_key" : "_ZN13CapturedStdFd5StartEv",
   "parameters" :
   [
    {
     "is_this_ptr" : true,
     "referenced_type" : "_ZTIP13CapturedStdFd"
    }
   ],
   "return_type" : "_ZTIv",
   "source_file" : "/system/core/base/include/android-base/test_utils.h"
  },
  {
   "function_name" : "CapturedStdFd::CapturedStdFd",
   "linker_set_key" : "_ZN13CapturedStdFdC1Ei",
   "parameters" :
   [
    {
     "is_this_ptr" : true,
     "referenced_type" : "_ZTIP13CapturedStdFd"
    },
    {
     "referenced_type" : "_ZTIi"
    }
   ],
   "return_type" : "_ZTIv",
   "source_file" : "/system/core/base/include/android-base/test_utils.h"
  },
  {
   "function_name" : "CapturedStdFd::CapturedStdFd",
   "linker_set_key" : "_ZN13CapturedStdFdC2Ei",
   "parameters" :
   [
    {
     "is_this_ptr" : true,
     "referenced_type" : "_ZTIP13CapturedStdFd"
    },
    {
     "referenced_type" : "_ZTIi"
    }
   ],
   "return_type" : "_ZTIv",
   "source_file" : "/system/core/base/include/android-base/test_utils.h"
  },
  {
   "function_name" : "CapturedStdFd::~CapturedStdFd",
   "linker_set_key" : "_ZN13CapturedStdFdD1Ev",
   "parameters" :
   [
    {
     "is_this_ptr" : true,
     "referenced_type" : "_ZTIP13CapturedStdFd"
    }
   ],
   "return_type" : "_ZTIv",
   "source_file" : "/system/core/base/include/android-base/test_utils.h"
  },
  {
   "function_name" : "CapturedStdFd::~CapturedStdFd",
   "linker_set_key" : "_ZN13CapturedStdFdD2Ev",
   "parameters" :
   [
    {
     "is_this_ptr" : true,
     "referenced_type" : "_ZTIP13CapturedStdFd"
    }
   ],
   "return_type" : "_ZTIv",
   "source_file" : "/system/core/base/include/android-base/test_utils.h"
  },
  {
   "access" : "private",
   "function_name" : "TemporaryFile::init",
   "linker_set_key" : "_ZN13TemporaryFile4initERKNSt3__112basic_stringIcNS0_11char_traitsIcEENS0_9allocatorIcEEEE",
   "parameters" :
   [
    {
     "is_this_ptr" : true,
     "referenced_type" : "_ZTIP13TemporaryFile"
    },
    {
     "referenced_type" : "_ZTIRKNSt3__112basic_stringIcNS_11char_traitsIcEENS_9allocatorIcEEEE"
    }
   ],
   "return_type" : "_ZTIv",
   "source_file" : "/system/core/base/include/android-base/file.h"
  },
  {
   "function_name" : "TemporaryFile::release",
   "linker_set_key" : "_ZN13TemporaryFile7releaseEv",
   "parameters" :
   [
    {
     "is_this_ptr" : true,
     "referenced_type" : "_ZTIP13TemporaryFile"
    }
   ],
   "return_type" : "_ZTIi",
   "source_file" : "/system/core/base/include/android-base/file.h"
  },
  {
   "function_name" : "TemporaryFile::TemporaryFile",
   "linker_set_key" : "_ZN13TemporaryFileC1ERKNSt3__112basic_stringIcNS0_11char_traitsIcEENS0_9allocatorIcEEEE",
   "parameters" :
   [
    {
     "is_this_ptr" : true,
     "referenced_type" : "_ZTIP13TemporaryFile"
    },
    {
     "referenced_type" : "_ZTIRKNSt3__112basic_stringIcNS_11char_traitsIcEENS_9allocatorIcEEEE"
    }
   ],
   "return_type" : "_ZTIv",
   "source_file" : "/system/core/base/include/android-base/file.h"
  },
  {
   "function_name" : "TemporaryFile::TemporaryFile",
   "linker_set_key" : "_ZN13TemporaryFileC1Ev",
   "parameters" :
   [
    {
     "is_this_ptr" : true,
     "referenced_type" : "_ZTIP13TemporaryFile"
    }
   ],
   "return_type" : "_ZTIv",
   "source_file" : "/system/core/base/include/android-base/file.h"
  },
  {
   "function_name" : "TemporaryFile::TemporaryFile",
   "linker_set_key" : "_ZN13TemporaryFileC2ERKNSt3__112basic_stringIcNS0_11char_traitsIcEENS0_9allocatorIcEEEE",
   "parameters" :
   [
    {
     "is_this_ptr" : true,
     "referenced_type" : "_ZTIP13TemporaryFile"
    },
    {
     "referenced_type" : "_ZTIRKNSt3__112basic_stringIcNS_11char_traitsIcEENS_9allocatorIcEEEE"
    }
   ],
   "return_type" : "_ZTIv",
   "source_file" : "/system/core/base/include/android-base/file.h"
  },
  {
   "function_name" : "TemporaryFile::TemporaryFile",
   "linker_set_key" : "_ZN13TemporaryFileC2Ev",
   "parameters" :
   [
    {
     "is_this_ptr" : true,
     "referenced_type" : "_ZTIP13TemporaryFile"
    }
   ],
   "return_type" : "_ZTIv",
   "source_file" : "/system/core/base/include/android-base/file.h"
  },
  {
   "function_name" : "TemporaryFile::~TemporaryFile",
   "linker_set_key" : "_ZN13TemporaryFileD1Ev",
   "parameters" :
   [
    {
     "is_this_ptr" : true,
     "referenced_type" : "_ZTIP13TemporaryFile"
    }
   ],
   "return_type" : "_ZTIv",
   "source_file" : "/system/core/base/include/android-base/file.h"
  },
  {
   "function_name" : "TemporaryFile::~TemporaryFile",
   "linker_set_key" : "_ZN13TemporaryFileD2Ev",
   "parameters" :
   [
    {
     "is_this_ptr" : true,
     "referenced_type" : "_ZTIP13TemporaryFile"
    }
   ],
   "return_type" : "_ZTIv",
   "source_file" : "/system/core/base/include/android-base/file.h"
  },
  {
   "function_name" : "fmt::v6::format_error::~format_error",
   "linker_set_key" : "_ZN3fmt2v612format_errorD0Ev",
   "parameters" :
   [
    {
     "is_this_ptr" : true,
     "referenced_type" : "_ZTIPN3fmt2v612format_errorE"
    }
   ],
   "return_type" : "_ZTIv",
   "source_file" : "/external/fmtlib/include/fmt/format.h"
  },
  {
   "function_name" : "fmt::v6::format_error::~format_error",
   "linker_set_key" : "_ZN3fmt2v612format_errorD1Ev",
   "parameters" :
   [
    {
     "is_this_ptr" : true,
     "referenced_type" : "_ZTIPN3fmt2v612format_errorE"
    }
   ],
   "return_type" : "_ZTIv",
   "source_file" : "/external/fmtlib/include/fmt/format.h"
  },
  {
   "function_name" : "fmt::v6::format_error::~format_error",
   "linker_set_key" : "_ZN3fmt2v612format_errorD2Ev",
   "parameters" :
   [
    {
     "is_this_ptr" : true,
     "referenced_type" : "_ZTIPN3fmt2v612format_errorE"
    }
   ],
   "return_type" : "_ZTIv",
   "source_file" : "/external/fmtlib/include/fmt/format.h"
  },
  {
   "access" : "private",
   "function_name" : "fmt::v6::system_error::init",
   "linker_set_key" : "_ZN3fmt2v612system_error4initEiNS0_17basic_string_viewIcEENS0_11format_argsE",
   "parameters" :
   [
    {
     "is_this_ptr" : true,
     "referenced_type" : "_ZTIPN3fmt2v612system_errorE"
    },
    {
     "referenced_type" : "_ZTIi"
    },
    {
     "referenced_type" : "_ZTIN3fmt2v617basic_string_viewIcEE"
    },
    {
     "referenced_type" : "_ZTIN3fmt2v611format_argsE"
    }
   ],
   "return_type" : "_ZTIv",
   "source_file" : "/external/fmtlib/include/fmt/format.h"
  },
  {
   "function_name" : "fmt::v6::system_error::~system_error",
   "linker_set_key" : "_ZN3fmt2v612system_errorD0Ev",
   "parameters" :
   [
    {
     "is_this_ptr" : true,
     "referenced_type" : "_ZTIPN3fmt2v612system_errorE"
    }
   ],
   "return_type" : "_ZTIv",
   "source_file" : "/external/fmtlib/include/fmt/format.h"
  },
  {
   "function_name" : "fmt::v6::system_error::~system_error",
   "linker_set_key" : "_ZN3fmt2v612system_errorD1Ev",
   "parameters" :
   [
    {
     "is_this_ptr" : true,
     "referenced_type" : "_ZTIPN3fmt2v612system_errorE"
    }
   ],
   "return_type" : "_ZTIv",
   "source_file" : "/external/fmtlib/include/fmt/format.h"
  },
  {
   "function_name" : "fmt::v6::system_error::~system_error",
   "linker_set_key" : "_ZN3fmt2v612system_errorD2Ev",
   "parameters" :
   [
    {
     "is_this_ptr" : true,
     "referenced_type" : "_ZTIPN3fmt2v612system_errorE"
    }
   ],
   "return_type" : "_ZTIv",
   "source_file" : "/external/fmtlib/include/fmt/format.h"
  },
  {
   "access" : "protected",
   "function_name" : "fmt::v6::basic_memory_buffer<char, 500, std::__1::allocator<char> >::grow",
   "linker_set_key" : "_ZN3fmt2v619basic_memory_bufferIcLj500ENSt3__19allocatorIcEEE4growEj",
   "parameters" :
   [
    {
     "is_this_ptr" : true,
     "referenced_type" : "_ZTIPN3fmt2v619basic_memory_bufferIcLj500ENSt3__19allocatorIcEEEE"
    },
    {
     "referenced_type" : "_ZTIj"
    }
   ],
   "return_type" : "_ZTIv",
   "source_file" : "/external/fmtlib/include/fmt/format.h"
  },
  {
   "access" : "protected",
   "function_name" : "fmt::v6::basic_memory_buffer<unsigned int, 32, std::__1::allocator<unsigned int> >::grow",
   "linker_set_key" : "_ZN3fmt2v619basic_memory_bufferIjLj32ENSt3__19allocatorIjEEE4growEj",
   "parameters" :
   [
    {
     "is_this_ptr" : true,
     "referenced_type" : "_ZTIPN3fmt2v619basic_memory_bufferIjLj32ENSt3__19allocatorIjEEEE"
    },
    {
     "referenced_type" : "_ZTIj"
    }
   ],
   "return_type" : "_ZTIv",
   "source_file" : "/external/fmtlib/include/fmt/format.h"
  },
  {
   "access" : "protected",
   "function_name" : "fmt::v6::basic_memory_buffer<wchar_t, 500, std::__1::allocator<wchar_t> >::grow",
   "linker_set_key" : "_ZN3fmt2v619basic_memory_bufferIwLj500ENSt3__19allocatorIwEEE4growEj",
   "parameters" :
   [
    {
     "is_this_ptr" : true,
     "referenced_type" : "_ZTIPN3fmt2v619basic_memory_bufferIwLj500ENSt3__19allocatorIwEEEE"
    },
    {
     "referenced_type" : "_ZTIj"
    }
   ],
   "return_type" : "_ZTIv",
   "source_file" : "/external/fmtlib/include/fmt/format.h"
  },
  {
   "function_name" : "fmt::v6::format_system_error",
   "linker_set_key" : "_ZN3fmt2v619format_system_errorERNS0_8internal6bufferIcEEiNS0_17basic_string_viewIcEE",
   "parameters" :
   [
    {
     "referenced_type" : "_ZTIRN3fmt2v68internal6bufferIcEE"
    },
    {
     "referenced_type" : "_ZTIi"
    },
    {
     "referenced_type" : "_ZTIN3fmt2v617basic_string_viewIcEE"
    }
   ],
   "return_type" : "_ZTIv",
   "source_file" : "/external/fmtlib/include/fmt/format.h"
  },
  {
   "function_name" : "fmt::v6::report_system_error",
   "linker_set_key" : "_ZN3fmt2v619report_system_errorEiNS0_17basic_string_viewIcEE",
   "parameters" :
   [
    {
     "referenced_type" : "_ZTIi"
    },
    {
     "referenced_type" : "_ZTIN3fmt2v617basic_string_viewIcEE"
    }
   ],
   "return_type" : "_ZTIv",
   "source_file" : "/external/fmtlib/include/fmt/format.h"
  },
  {
   "function_name" : "fmt::v6::basic_format_context<std::__1::back_insert_iterator<fmt::v6::internal::buffer<char> >, char>::arg",
   "linker_set_key" : "_ZN3fmt2v620basic_format_contextINSt3__120back_insert_iteratorINS0_8internal6bufferIcEEEEcE3argENS0_17basic_string_viewIcEE",
   "parameters" :
   [
    {
     "is_this_ptr" : true,
     "referenced_type" : "_ZTIPN3fmt2v620basic_format_contextINSt3__120back_insert_iteratorINS0_8internal6bufferIcEEEEcEE"
    },
    {
     "referenced_type" : "_ZTIN3fmt2v617basic_string_viewIcEE"
    }
   ],
   "return_type" : "_ZTIN3fmt2v616basic_format_argINS0_20basic_format_contextINSt3__120back_insert_iteratorINS0_8internal6bufferIcEEEEcEEEE",
   "source_file" : "/external/fmtlib/include/fmt/core.h"
  },
  {
   "function_name" : "fmt::v6::basic_format_context<std::__1::back_insert_iterator<fmt::v6::internal::buffer<wchar_t> >, wchar_t>::arg",
   "linker_set_key" : "_ZN3fmt2v620basic_format_contextINSt3__120back_insert_iteratorINS0_8internal6bufferIwEEEEwE3argENS0_17basic_string_viewIwEE",
   "parameters" :
   [
    {
     "is_this_ptr" : true,
     "referenced_type" : "_ZTIPN3fmt2v620basic_format_contextINSt3__120back_insert_iteratorINS0_8internal6bufferIwEEEEwEE"
    },
    {
     "referenced_type" : "_ZTIN3fmt2v617basic_string_viewIwEE"
    }
   ],
   "return_type" : "_ZTIN3fmt2v616basic_format_argINS0_20basic_format_contextINSt3__120back_insert_iteratorINS0_8internal6bufferIwEEEEwEEEE",
   "source_file" : "/external/fmtlib/include/fmt/core.h"
  },
  {
   "function_name" : "fmt::v6::vprint",
   "linker_set_key" : "_ZN3fmt2v66vprintENS0_17basic_string_viewIcEENS0_11format_argsE",
   "parameters" :
   [
    {
     "referenced_type" : "_ZTIN3fmt2v617basic_string_viewIcEE"
    },
    {
     "referenced_type" : "_ZTIN3fmt2v611format_argsE"
    }
   ],
   "return_type" : "_ZTIv",
   "source_file" : "/external/fmtlib/include/fmt/core.h"
  },
  {
   "function_name" : "fmt::v6::vprint",
   "linker_set_key" : "_ZN3fmt2v66vprintEP7__sFILENS0_17basic_string_viewIcEENS0_11format_argsE",
   "parameters" :
   [
    {
     "referenced_type" : "_ZTIP7__sFILE"
    },
    {
     "referenced_type" : "_ZTIN3fmt2v617basic_string_viewIcEE"
    },
    {
     "referenced_type" : "_ZTIN3fmt2v611format_argsE"
    }
   ],
   "return_type" : "_ZTIv",
   "source_file" : "/external/fmtlib/include/fmt/core.h"
  },
  {
   "function_name" : "fmt::v6::internal::locale_ref::locale_ref",
   "linker_set_key" : "_ZN3fmt2v68internal10locale_refC1INSt3__16localeEEERKT_",
   "parameters" :
   [
    {
     "is_this_ptr" : true,
     "referenced_type" : "_ZTIPN3fmt2v68internal10locale_refE"
    },
    {
     "referenced_type" : "_ZTIRKNSt3__16localeE"
    }
   ],
   "return_type" : "_ZTIv",
   "source_file" : "/external/fmtlib/include/fmt/format-inl.h",
   "template_args" : [ "_ZTINSt3__16localeE" ]
  },
  {
   "function_name" : "fmt::v6::internal::locale_ref::locale_ref",
   "linker_set_key" : "_ZN3fmt2v68internal10locale_refC2INSt3__16localeEEERKT_",
   "parameters" :
   [
    {
     "is_this_ptr" : true,
     "referenced_type" : "_ZTIPN3fmt2v68internal10locale_refE"
    },
    {
     "referenced_type" : "_ZTIRKNSt3__16localeE"
    }
   ],
   "return_type" : "_ZTIv",
   "source_file" : "/external/fmtlib/include/fmt/format-inl.h",
   "template_args" : [ "_ZTINSt3__16localeE" ]
  },
  {
   "function_name" : "fmt::v6::internal::vformat_to",
   "linker_set_key" : "_ZN3fmt2v68internal10vformat_toIcEENS0_20basic_format_contextINSt3__120back_insert_iteratorINS1_6bufferIT_EEEES7_E8iteratorERS8_NS0_17basic_string_viewIS7_EENS0_17basic_format_argsISA_EE",
   "parameters" :
   [
    {
     "referenced_type" : "_ZTIRN3fmt2v68internal6bufferIcEE"
    },
    {
     "referenced_type" : "_ZTIN3fmt2v617basic_string_viewIcEE"
    },
    {
     "referenced_type" : "_ZTIN3fmt2v617basic_format_argsINS0_20basic_format_contextINSt3__120back_insert_iteratorINS0_8internal6bufferIcEEEEcEEEE"
    }
   ],
   "return_type" : "_ZTINSt3__120back_insert_iteratorIN3fmt2v68internal6bufferIcEEEE",
   "source_file" : "/external/fmtlib/include/fmt/format.h",
   "template_args" : [ "_ZTIc" ]
  },
  {
   "function_name" : "fmt::v6::internal::assert_fail",
   "linker_set_key" : "_ZN3fmt2v68internal11assert_failEPKciS3_",
   "parameters" :
   [
    {
     "referenced_type" : "_ZTIPKc"
    },
    {
     "referenced_type" : "_ZTIi"
    },
    {
     "referenced_type" : "_ZTIPKc"
    }
   ],
   "return_type" : "_ZTIv",
   "source_file" : "/external/fmtlib/include/fmt/core.h"
  },
  {
   "function_name" : "fmt::v6::internal::count_digits",
   "linker_set_key" : "_ZN3fmt2v68internal12count_digitsILj4ENS1_16fallback_uintptrEEEiT0_",
   "parameters" :
   [
    {
     "referenced_type" : "_ZTIN3fmt2v68internal16fallback_uintptrE"
    }
   ],
   "return_type" : "_ZTIi",
   "source_file" : "/external/fmtlib/include/fmt/format.h",
   "template_args" : [ "_ZTIN3fmt2v68internal16fallback_uintptrE" ]
  },
  {
   "function_name" : "fmt::v6::internal::format_float",
   "linker_set_key" : "_ZN3fmt2v68internal12format_floatIdEEiT_iNS1_11float_specsERNS1_6bufferIcEE",
   "parameters" :
   [
    {
     "referenced_type" : "_ZTId"
    },
    {
     "referenced_type" : "_ZTIi"
    },
    {
     "referenced_type" : "_ZTIN3fmt2v68internal11float_specsE"
    },
    {
     "referenced_type" : "_ZTIRN3fmt2v68internal6bufferIcEE"
    }
   ],
   "return_type" : "_ZTIi",
   "source_file" : "/external/fmtlib/include/fmt/format-inl.h",
   "template_args" : [ "_ZTId" ]
  },
  {
   "function_name" : "fmt::v6::internal::format_float",
   "linker_set_key" : "_ZN3fmt2v68internal12format_floatIeEEiT_iNS1_11float_specsERNS1_6bufferIcEE",
   "parameters" :
   [
    {
     "referenced_type" : "_ZTIe"
    },
    {
     "referenced_type" : "_ZTIi"
    },
    {
     "referenced_type" : "_ZTIN3fmt2v68internal11float_specsE"
    },
    {
     "referenced_type" : "_ZTIRN3fmt2v68internal6bufferIcEE"
    }
   ],
   "return_type" : "_ZTIi",
   "source_file" : "/external/fmtlib/include/fmt/format-inl.h",
   "template_args" : [ "_ZTIe" ]
  },
  {
   "function_name" : "fmt::v6::internal::fwrite_fully",
   "linker_set_key" : "_ZN3fmt2v68internal12fwrite_fullyEPKvjjP7__sFILE",
   "parameters" :
   [
    {
     "referenced_type" : "_ZTIPKv"
    },
    {
     "referenced_type" : "_ZTIj"
    },
    {
     "referenced_type" : "_ZTIj"
    },
    {
     "referenced_type" : "_ZTIP7__sFILE"
    }
   ],
   "return_type" : "_ZTIv",
   "source_file" : "/external/fmtlib/include/fmt/format-inl.h"
  },
  {
   "function_name" : "fmt::v6::internal::report_error",
   "linker_set_key" : "_ZN3fmt2v68internal12report_errorEPFvRNS1_6bufferIcEEiNS0_17basic_string_viewIcEEEiS6_",
   "parameters" :
   [
    {
     "referenced_type" : "_ZTIPFvRN3fmt2v68internal6bufferIcEEiNS0_17basic_string_viewIcEEE"
    },
    {
     "referenced_type" : "_ZTIi"
    },
    {
     "referenced_type" : "_ZTIN3fmt2v617basic_string_viewIcEE"
    }
   ],
   "return_type" : "_ZTIv",
   "source_file" : "/external/fmtlib/include/fmt/format-inl.h"
  },
  {
   "function_name" : "fmt::v6::internal::error_handler::on_error",
   "linker_set_key" : "_ZN3fmt2v68internal13error_handler8on_errorEPKc",
   "parameters" :
   [
    {
     "is_this_ptr" : true,
     "referenced_type" : "_ZTIPN3fmt2v68internal13error_handlerE"
    },
    {
     "referenced_type" : "_ZTIPKc"
    }
   ],
   "return_type" : "_ZTIv",
   "source_file" : "/external/fmtlib/include/fmt/core.h"
  },
  {
   "function_name" : "fmt::v6::internal::grouping_impl",
   "linker_set_key" : "_ZN3fmt2v68internal13grouping_implIcEENSt3__112basic_stringIcNS3_11char_traitsIcEENS3_9allocatorIcEEEENS1_10locale_refE",
   "parameters" :
   [
    {
     "referenced_type" : "_ZTIN3fmt2v68internal10locale_refE"
    }
   ],
   "return_type" : "_ZTINSt3__112basic_stringIcNS_11char_traitsIcEENS_9allocatorIcEEEE",
   "source_file" : "/external/fmtlib/include/fmt/format.h",
   "template_args" : [ "_ZTIc" ]
  },
  {
   "function_name" : "fmt::v6::internal::grouping_impl",
   "linker_set_key" : "_ZN3fmt2v68internal13grouping_implIwEENSt3__112basic_stringIcNS3_11char_traitsIcEENS3_9allocatorIcEEEENS1_10locale_refE",
   "parameters" :
   [
    {
     "referenced_type" : "_ZTIN3fmt2v68internal10locale_refE"
    }
   ],
   "return_type" : "_ZTINSt3__112basic_stringIcNS_11char_traitsIcEENS_9allocatorIcEEEE",
   "source_file" : "/external/fmtlib/include/fmt/format.h",
   "template_args" : [ "_ZTIw" ]
  },
  {
   "function_name" : "fmt::v6::internal::safe_strerror",
   "linker_set_key" : "_ZN3fmt2v68internal13safe_strerrorEiRPcj",
   "parameters" :
   [
    {
     "referenced_type" : "_ZTIi"
    },
    {
     "referenced_type" : "_ZTIRPc"
    },
    {
     "referenced_type" : "_ZTIj"
    }
   ],
   "return_type" : "_ZTIi",
   "source_file" : "/external/fmtlib/include/fmt/format-inl.h"
  },
  {
   "function_name" : "fmt::v6::internal::snprintf_float",
   "linker_set_key" : "_ZN3fmt2v68internal14snprintf_floatIdEEiT_iNS1_11float_specsERNS1_6bufferIcEE",
   "parameters" :
   [
    {
     "referenced_type" : "_ZTId"
    },
    {
     "referenced_type" : "_ZTIi"
    },
    {
     "referenced_type" : "_ZTIN3fmt2v68internal11float_specsE"
    },
    {
     "referenced_type" : "_ZTIRN3fmt2v68internal6bufferIcEE"
    }
   ],
   "return_type" : "_ZTIi",
   "source_file" : "/external/fmtlib/include/fmt/format-inl.h",
   "template_args" : [ "_ZTId" ]
  },
  {
   "function_name" : "fmt::v6::internal::snprintf_float",
   "linker_set_key" : "_ZN3fmt2v68internal14snprintf_floatIeEEiT_iNS1_11float_specsERNS1_6bufferIcEE",
   "parameters" :
   [
    {
     "referenced_type" : "_ZTIe"
    },
    {
     "referenced_type" : "_ZTIi"
    },
    {
     "referenced_type" : "_ZTIN3fmt2v68internal11float_specsE"
    },
    {
     "referenced_type" : "_ZTIRN3fmt2v68internal6bufferIcEE"
    }
   ],
   "return_type" : "_ZTIi",
   "source_file" : "/external/fmtlib/include/fmt/format-inl.h",
   "template_args" : [ "_ZTIe" ]
  },
  {
   "function_name" : "fmt::v6::internal::write_exponent",
   "linker_set_key" : "_ZN3fmt2v68internal14write_exponentIcNS1_17counting_iteratorEEET0_iS4_",
   "parameters" :
   [
    {
     "referenced_type" : "_ZTIi"
    },
    {
     "referenced_type" : "_ZTIN3fmt2v68internal17counting_iteratorE"
    }
   ],
   "return_type" : "_ZTIN3fmt2v68internal17counting_iteratorE",
   "source_file" : "/external/fmtlib/include/fmt/format.h",
   "template_args" : [ "_ZTIc", "_ZTIN3fmt2v68internal17counting_iteratorE" ]
  },
  {
   "function_name" : "fmt::v6::internal::write_exponent",
   "linker_set_key" : "_ZN3fmt2v68internal14write_exponentIwNS1_17counting_iteratorEEET0_iS4_",
   "parameters" :
   [
    {
     "referenced_type" : "_ZTIi"
    },
    {
     "referenced_type" : "_ZTIN3fmt2v68internal17counting_iteratorE"
    }
   ],
   "return_type" : "_ZTIN3fmt2v68internal17counting_iteratorE",
   "source_file" : "/external/fmtlib/include/fmt/format.h",
   "template_args" : [ "_ZTIw", "_ZTIN3fmt2v68internal17counting_iteratorE" ]
  },
  {
   "function_name" : "fmt::v6::internal::fallback_format",
   "linker_set_key" : "_ZN3fmt2v68internal15fallback_formatIdEEvT_RNS1_6bufferIcEERi",
   "parameters" :
   [
    {
     "referenced_type" : "_ZTId"
    },
    {
     "referenced_type" : "_ZTIRN3fmt2v68internal6bufferIcEE"
    },
    {
     "referenced_type" : "_ZTIRi"
    }
   ],
   "return_type" : "_ZTIv",
   "source_file" : "/external/fmtlib/include/fmt/format-inl.h",
   "template_args" : [ "_ZTId" ]
  },
  {
   "function_name" : "fmt::v6::internal::fallback_format",
   "linker_set_key" : "_ZN3fmt2v68internal15fallback_formatIeEEvT_RNS1_6bufferIcEERi",
   "parameters" :
   [
    {
     "referenced_type" : "_ZTIe"
    },
    {
     "referenced_type" : "_ZTIRN3fmt2v68internal6bufferIcEE"
    },
    {
     "referenced_type" : "_ZTIRi"
    }
   ],
   "return_type" : "_ZTIv",
   "source_file" : "/external/fmtlib/include/fmt/format-inl.h",
   "template_args" : [ "_ZTIe" ]
  },
  {
   "function_name" : "fmt::v6::internal::get_cached_power",
   "linker_set_key" : "_ZN3fmt2v68internal16get_cached_powerEiRi",
   "parameters" :
   [
    {
     "referenced_type" : "_ZTIi"
    },
    {
     "referenced_type" : "_ZTIRi"
    }
   ],
   "return_type" : "_ZTIN3fmt2v68internal2fpE",
   "source_file" : "/external/fmtlib/include/fmt/format-inl.h"
  },
  {
   "function_name" : "fmt::v6::internal::format_error_code",
   "linker_set_key" : "_ZN3fmt2v68internal17format_error_codeERNS1_6bufferIcEEiNS0_17basic_string_viewIcEE",
   "parameters" :
   [
    {
     "referenced_type" : "_ZTIRN3fmt2v68internal6bufferIcEE"
    },
    {
     "referenced_type" : "_ZTIi"
    },
    {
     "referenced_type" : "_ZTIN3fmt2v617basic_string_viewIcEE"
    }
   ],
   "return_type" : "_ZTIv",
   "source_file" : "/external/fmtlib/include/fmt/format-inl.h"
  },
  {
   "function_name" : "fmt::v6::internal::decimal_point_impl",
   "linker_set_key" : "_ZN3fmt2v68internal18decimal_point_implIcEET_NS1_10locale_refE",
   "parameters" :
   [
    {
     "referenced_type" : "_ZTIN3fmt2v68internal10locale_refE"
    }
   ],
   "return_type" : "_ZTIc",
   "source_file" : "/external/fmtlib/include/fmt/format.h",
   "template_args" : [ "_ZTIc" ]
  },
  {
   "function_name" : "fmt::v6::internal::decimal_point_impl",
   "linker_set_key" : "_ZN3fmt2v68internal18decimal_point_implIwEET_NS1_10locale_refE",
   "parameters" :
   [
    {
     "referenced_type" : "_ZTIN3fmt2v68internal10locale_refE"
    }
   ],
   "return_type" : "_ZTIw",
   "source_file" : "/external/fmtlib/include/fmt/format.h",
   "template_args" : [ "_ZTIw" ]
  },
  {
   "function_name" : "fmt::v6::internal::thousands_sep_impl",
   "linker_set_key" : "_ZN3fmt2v68internal18thousands_sep_implIcEET_NS1_10locale_refE",
   "parameters" :
   [
    {
     "referenced_type" : "_ZTIN3fmt2v68internal10locale_refE"
    }
   ],
   "return_type" : "_ZTIc",
   "source_file" : "/external/fmtlib/include/fmt/format.h",
   "template_args" : [ "_ZTIc" ]
  },
  {
   "function_name" : "fmt::v6::internal::thousands_sep_impl",
   "linker_set_key" : "_ZN3fmt2v68internal18thousands_sep_implIwEET_NS1_10locale_refE",
   "parameters" :
   [
    {
     "referenced_type" : "_ZTIN3fmt2v68internal10locale_refE"
    }
   ],
   "return_type" : "_ZTIw",
   "source_file" : "/external/fmtlib/include/fmt/format.h",
   "template_args" : [ "_ZTIw" ]
  },
  {
   "function_name" : "fmt::v6::internal::buffer<char>::append",
   "linker_set_key" : "_ZN3fmt2v68internal6bufferIcE6appendIcEEvPKT_S7_",
   "parameters" :
   [
    {
     "is_this_ptr" : true,
     "referenced_type" : "_ZTIPN3fmt2v68internal6bufferIcEE"
    },
    {
     "referenced_type" : "_ZTIPKc"
    },
    {
     "referenced_type" : "_ZTIPKc"
    }
   ],
   "return_type" : "_ZTIv",
   "source_file" : "/external/fmtlib/include/fmt/core.h",
   "template_args" : [ "_ZTIc" ]
  },
  {
   "function_name" : "fmt::v6::internal::buffer<wchar_t>::append",
   "linker_set_key" : "_ZN3fmt2v68internal6bufferIwE6appendIwEEvPKT_S7_",
   "parameters" :
   [
    {
     "is_this_ptr" : true,
     "referenced_type" : "_ZTIPN3fmt2v68internal6bufferIwEE"
    },
    {
     "referenced_type" : "_ZTIPKw"
    },
    {
     "referenced_type" : "_ZTIPKw"
    }
   ],
   "return_type" : "_ZTIv",
   "source_file" : "/external/fmtlib/include/fmt/core.h",
   "template_args" : [ "_ZTIw" ]
  },
  {
   "function_name" : "fmt::v6::internal::arg_map<fmt::v6::basic_format_context<std::__1::back_insert_iterator<fmt::v6::internal::buffer<char> >, char> >::init",
   "linker_set_key" : "_ZN3fmt2v68internal7arg_mapINS0_20basic_format_contextINSt3__120back_insert_iteratorINS1_6bufferIcEEEEcEEE4initERKNS0_17basic_format_argsIS9_EE",
   "parameters" :
   [
    {
     "is_this_ptr" : true,
     "referenced_type" : "_ZTIPN3fmt2v68internal7arg_mapINS0_20basic_format_contextINSt3__120back_insert_iteratorINS1_6bufferIcEEEEcEEEE"
    },
    {
     "referenced_type" : "_ZTIRKN3fmt2v617basic_format_argsINS0_20basic_format_contextINSt3__120back_insert_iteratorINS0_8internal6bufferIcEEEEcEEEE"
    }
   ],
   "return_type" : "_ZTIv",
   "source_file" : "/external/fmtlib/include/fmt/core.h"
  },
  {
   "function_name" : "fmt::v6::internal::arg_map<fmt::v6::basic_format_context<std::__1::back_insert_iterator<fmt::v6::internal::buffer<wchar_t> >, wchar_t> >::init",
   "linker_set_key" : "_ZN3fmt2v68internal7arg_mapINS0_20basic_format_contextINSt3__120back_insert_iteratorINS1_6bufferIwEEEEwEEE4initERKNS0_17basic_format_argsIS9_EE",
   "parameters" :
   [
    {
     "is_this_ptr" : true,
     "referenced_type" : "_ZTIPN3fmt2v68internal7arg_mapINS0_20basic_format_contextINSt3__120back_insert_iteratorINS1_6bufferIwEEEEwEEEE"
    },
    {
     "referenced_type" : "_ZTIRKN3fmt2v617basic_format_argsINS0_20basic_format_contextINSt3__120back_insert_iteratorINS0_8internal6bufferIwEEEEwEEEE"
    }
   ],
   "return_type" : "_ZTIv",
   "source_file" : "/external/fmtlib/include/fmt/core.h"
  },
  {
   "function_name" : "fmt::v6::internal::vformat",
   "linker_set_key" : "_ZN3fmt2v68internal7vformatIcEENSt3__112basic_stringIT_NS3_11char_traitsIS5_EENS3_9allocatorIS5_EEEENS0_17basic_string_viewIS5_EENS0_17basic_format_argsINS0_20basic_format_contextINS3_20back_insert_iteratorINS1_6bufferIS5_EEEES5_EEEE",
   "parameters" :
   [
    {
     "referenced_type" : "_ZTIN3fmt2v617basic_string_viewIcEE"
    },
    {
     "referenced_type" : "_ZTIN3fmt2v617basic_format_argsINS0_20basic_format_contextINSt3__120back_insert_iteratorINS0_8internal6bufferIcEEEEcEEEE"
    }
   ],
   "return_type" : "_ZTINSt3__112basic_stringIcNS_11char_traitsIcEENS_9allocatorIcEEEE",
   "source_file" : "/external/fmtlib/include/fmt/format.h",
   "template_args" : [ "_ZTIc" ]
  },
  {
   "function_name" : "fmt::v6::internal::vformat",
   "linker_set_key" : "_ZN3fmt2v68internal7vformatIwEENSt3__112basic_stringIT_NS3_11char_traitsIS5_EENS3_9allocatorIS5_EEEENS0_17basic_string_viewIS5_EENS0_17basic_format_argsINS0_20basic_format_contextINS3_20back_insert_iteratorINS1_6bufferIS5_EEEES5_EEEE",
   "parameters" :
   [
    {
     "referenced_type" : "_ZTIN3fmt2v617basic_string_viewIwEE"
    },
    {
     "referenced_type" : "_ZTIN3fmt2v617basic_format_argsINS0_20basic_format_contextINSt3__120back_insert_iteratorINS0_8internal6bufferIwEEEEwEEEE"
    }
   ],
   "return_type" : "_ZTINSt3__112basic_stringIwNS_11char_traitsIwEENS_9allocatorIwEEEE",
   "source_file" : "/external/fmtlib/include/fmt/format.h",
   "template_args" : [ "_ZTIw" ]
  },
  {
   "function_name" : "android::base::LogMessage::stream",
   "linker_set_key" : "_ZN7android4base10LogMessage6streamEv",
   "parameters" :
   [
    {
     "is_this_ptr" : true,
     "referenced_type" : "_ZTIPN7android4base10LogMessageE"
    }
   ],
   "return_type" : "_ZTIRNSt3__113basic_ostreamIcNS_11char_traitsIcEEEE",
   "source_file" : "/system/core/base/include/android-base/logging.h"
  },
  {
   "function_name" : "android::base::LogMessage::LogLine",
   "linker_set_key" : "_ZN7android4base10LogMessage7LogLineEPKcjNS0_11LogSeverityES3_S3_",
   "parameters" :
   [
    {
     "referenced_type" : "_ZTIPKc"
    },
    {
     "referenced_type" : "_ZTIj"
    },
    {
     "referenced_type" : "_ZTIN7android4base11LogSeverityE"
    },
    {
     "referenced_type" : "_ZTIPKc"
    },
    {
     "referenced_type" : "_ZTIPKc"
    }
   ],
   "return_type" : "_ZTIv",
   "source_file" : "/system/core/base/include/android-base/logging.h"
  },
  {
   "function_name" : "android::base::LogMessage::LogMessage",
   "linker_set_key" : "_ZN7android4base10LogMessageC1EPKcjNS0_11LogSeverityES3_i",
   "parameters" :
   [
    {
     "is_this_ptr" : true,
     "referenced_type" : "_ZTIPN7android4base10LogMessageE"
    },
    {
     "referenced_type" : "_ZTIPKc"
    },
    {
     "referenced_type" : "_ZTIj"
    },
    {
     "referenced_type" : "_ZTIN7android4base11LogSeverityE"
    },
    {
     "referenced_type" : "_ZTIPKc"
    },
    {
     "referenced_type" : "_ZTIi"
    }
   ],
   "return_type" : "_ZTIv",
   "source_file" : "/system/core/base/include/android-base/logging.h"
  },
  {
   "function_name" : "android::base::LogMessage::LogMessage",
   "linker_set_key" : "_ZN7android4base10LogMessageC1EPKcjNS0_5LogIdENS0_11LogSeverityES3_i",
   "parameters" :
   [
    {
     "is_this_ptr" : true,
     "referenced_type" : "_ZTIPN7android4base10LogMessageE"
    },
    {
     "referenced_type" : "_ZTIPKc"
    },
    {
     "referenced_type" : "_ZTIj"
    },
    {
     "referenced_type" : "_ZTIN7android4base5LogIdE"
    },
    {
     "referenced_type" : "_ZTIN7android4base11LogSeverityE"
    },
    {
     "referenced_type" : "_ZTIPKc"
    },
    {
     "referenced_type" : "_ZTIi"
    }
   ],
   "return_type" : "_ZTIv",
   "source_file" : "/system/core/base/include/android-base/logging.h"
  },
  {
   "function_name" : "android::base::LogMessage::LogMessage",
   "linker_set_key" : "_ZN7android4base10LogMessageC2EPKcjNS0_11LogSeverityES3_i",
   "parameters" :
   [
    {
     "is_this_ptr" : true,
     "referenced_type" : "_ZTIPN7android4base10LogMessageE"
    },
    {
     "referenced_type" : "_ZTIPKc"
    },
    {
     "referenced_type" : "_ZTIj"
    },
    {
     "referenced_type" : "_ZTIN7android4base11LogSeverityE"
    },
    {
     "referenced_type" : "_ZTIPKc"
    },
    {
     "referenced_type" : "_ZTIi"
    }
   ],
   "return_type" : "_ZTIv",
   "source_file" : "/system/core/base/include/android-base/logging.h"
  },
  {
   "function_name" : "android::base::LogMessage::LogMessage",
   "linker_set_key" : "_ZN7android4base10LogMessageC2EPKcjNS0_5LogIdENS0_11LogSeverityES3_i",
   "parameters" :
   [
    {
     "is_this_ptr" : true,
     "referenced_type" : "_ZTIPN7android4base10LogMessageE"
    },
    {
     "referenced_type" : "_ZTIPKc"
    },
    {
     "referenced_type" : "_ZTIj"
    },
    {
     "referenced_type" : "_ZTIN7android4base5LogIdE"
    },
    {
     "referenced_type" : "_ZTIN7android4base11LogSeverityE"
    },
    {
     "referenced_type" : "_ZTIPKc"
    },
    {
     "referenced_type" : "_ZTIi"
    }
   ],
   "return_type" : "_ZTIv",
   "source_file" : "/system/core/base/include/android-base/logging.h"
  },
  {
   "function_name" : "android::base::LogMessage::~LogMessage",
   "linker_set_key" : "_ZN7android4base10LogMessageD1Ev",
   "parameters" :
   [
    {
     "is_this_ptr" : true,
     "referenced_type" : "_ZTIPN7android4base10LogMessageE"
    }
   ],
   "return_type" : "_ZTIv",
   "source_file" : "/system/core/base/include/android-base/logging.h"
  },
  {
   "function_name" : "android::base::LogMessage::~LogMessage",
   "linker_set_key" : "_ZN7android4base10LogMessageD2Ev",
   "parameters" :
   [
    {
     "is_this_ptr" : true,
     "referenced_type" : "_ZTIPN7android4base10LogMessageE"
    }
   ],
   "return_type" : "_ZTIv",
   "source_file" : "/system/core/base/include/android-base/logging.h"
  },
  {
   "function_name" : "android::base::LogdLogger::LogdLogger",
   "linker_set_key" : "_ZN7android4base10LogdLoggerC1ENS0_5LogIdE",
   "parameters" :
   [
    {
     "is_this_ptr" : true,
     "referenced_type" : "_ZTIPN7android4base10LogdLoggerE"
    },
    {
     "default_arg" : true,
     "referenced_type" : "_ZTIN7android4base5LogIdE"
    }
   ],
   "return_type" : "_ZTIv",
   "source_file" : "/system/core/base/include/android-base/logging.h"
  },
  {
   "function_name" : "android::base::LogdLogger::LogdLogger",
   "linker_set_key" : "_ZN7android4base10LogdLoggerC2ENS0_5LogIdE",
   "parameters" :
   [
    {
     "is_this_ptr" : true,
     "referenced_type" : "_ZTIPN7android4base10LogdLoggerE"
    },
    {
     "default_arg" : true,
     "referenced_type" : "_ZTIN7android4base5LogIdE"
    }
   ],
   "return_type" : "_ZTIv",
   "source_file" : "/system/core/base/include/android-base/logging.h"
  },
  {
   "function_name" : "android::base::LogdLogger::operator()",
   "linker_set_key" : "_ZN7android4base10LogdLoggerclENS0_5LogIdENS0_11LogSeverityEPKcS5_jS5_",
   "parameters" :
   [
    {
     "is_this_ptr" : true,
     "referenced_type" : "_ZTIPN7android4base10LogdLoggerE"
    },
    {
     "referenced_type" : "_ZTIN7android4base5LogIdE"
    },
    {
     "referenced_type" : "_ZTIN7android4base11LogSeverityE"
    },
    {
     "referenced_type" : "_ZTIPKc"
    },
    {
     "referenced_type" : "_ZTIPKc"
    },
    {
     "referenced_type" : "_ZTIj"
    },
    {
     "referenced_type" : "_ZTIPKc"
    }
   ],
   "return_type" : "_ZTIv",
   "source_file" : "/system/core/base/include/android-base/logging.h"
  },
  {
   "function_name" : "android::base::MappedFile::FromOsHandle",
   "linker_set_key" : "_ZN7android4base10MappedFile12FromOsHandleEixji",
   "parameters" :
   [
    {
     "referenced_type" : "_ZTIi"
    },
    {
     "referenced_type" : "_ZTIx"
    },
    {
     "referenced_type" : "_ZTIj"
    },
    {
     "referenced_type" : "_ZTIi"
    }
   ],
   "return_type" : "_ZTINSt3__110unique_ptrIN7android4base10MappedFileENS_14default_deleteIS3_EEEE",
   "source_file" : "/system/core/base/include/android-base/mapped_file.h"
  },
  {
   "access" : "private",
   "function_name" : "android::base::MappedFile::Close",
   "linker_set_key" : "_ZN7android4base10MappedFile5CloseEv",
   "parameters" :
   [
    {
     "is_this_ptr" : true,
     "referenced_type" : "_ZTIPN7android4base10MappedFileE"
    }
   ],
   "return_type" : "_ZTIv",
   "source_file" : "/system/core/base/include/android-base/mapped_file.h"
  },
  {
   "function_name" : "android::base::MappedFile::FromFd",
   "linker_set_key" : "_ZN7android4base10MappedFile6FromFdENS0_11borrowed_fdExji",
   "parameters" :
   [
    {
     "referenced_type" : "_ZTIN7android4base11borrowed_fdE"
    },
    {
     "referenced_type" : "_ZTIx"
    },
    {
     "referenced_type" : "_ZTIj"
    },
    {
     "referenced_type" : "_ZTIi"
    }
   ],
   "return_type" : "_ZTINSt3__110unique_ptrIN7android4base10MappedFileENS_14default_deleteIS3_EEEE",
   "source_file" : "/system/core/base/include/android-base/mapped_file.h"
  },
  {
   "function_name" : "android::base::MappedFile::MappedFile",
   "linker_set_key" : "_ZN7android4base10MappedFileC1EOS1_",
   "parameters" :
   [
    {
     "is_this_ptr" : true,
     "referenced_type" : "_ZTIPN7android4base10MappedFileE"
    },
    {
     "referenced_type" : "_ZTION7android4base10MappedFileE"
    }
   ],
   "return_type" : "_ZTIv",
   "source_file" : "/system/core/base/include/android-base/mapped_file.h"
  },
  {
   "function_name" : "android::base::MappedFile::MappedFile",
   "linker_set_key" : "_ZN7android4base10MappedFileC2EOS1_",
   "parameters" :
   [
    {
     "is_this_ptr" : true,
     "referenced_type" : "_ZTIPN7android4base10MappedFileE"
    },
    {
     "referenced_type" : "_ZTION7android4base10MappedFileE"
    }
   ],
   "return_type" : "_ZTIv",
   "source_file" : "/system/core/base/include/android-base/mapped_file.h"
  },
  {
   "function_name" : "android::base::MappedFile::~MappedFile",
   "linker_set_key" : "_ZN7android4base10MappedFileD1Ev",
   "parameters" :
   [
    {
     "is_this_ptr" : true,
     "referenced_type" : "_ZTIPN7android4base10MappedFileE"
    }
   ],
   "return_type" : "_ZTIv",
   "source_file" : "/system/core/base/include/android-base/mapped_file.h"
  },
  {
   "function_name" : "android::base::MappedFile::~MappedFile",
   "linker_set_key" : "_ZN7android4base10MappedFileD2Ev",
   "parameters" :
   [
    {
     "is_this_ptr" : true,
     "referenced_type" : "_ZTIPN7android4base10MappedFileE"
    }
   ],
   "return_type" : "_ZTIv",
   "source_file" : "/system/core/base/include/android-base/mapped_file.h"
  },
  {
   "function_name" : "android::base::MappedFile::operator=",
   "linker_set_key" : "_ZN7android4base10MappedFileaSEOS1_",
   "parameters" :
   [
    {
     "is_this_ptr" : true,
     "referenced_type" : "_ZTIPN7android4base10MappedFileE"
    },
    {
     "referenced_type" : "_ZTION7android4base10MappedFileE"
    }
   ],
   "return_type" : "_ZTIRN7android4base10MappedFileE",
   "source_file" : "/system/core/base/include/android-base/mapped_file.h"
  },
  {
   "function_name" : "android::base::SetAborter",
   "linker_set_key" : "_ZN7android4base10SetAborterEONSt3__18functionIFvPKcEEE",
   "parameters" :
   [
    {
     "referenced_type" : "_ZTIONSt3__18functionIFvPKcEEE"
    }
   ],
   "return_type" : "_ZTIv",
   "source_file" : "/system/core/base/include/android-base/logging.h"
  },
  {
   "function_name" : "android::base::StartsWith",
   "linker_set_key" : "_ZN7android4base10StartsWithENSt3__117basic_string_viewIcNS1_11char_traitsIcEEEES5_",
   "parameters" :
   [
    {
     "referenced_type" : "_ZTINSt3__117basic_string_viewIcNS_11char_traitsIcEEEE"
    },
    {
     "referenced_type" : "_ZTINSt3__117basic_string_viewIcNS_11char_traitsIcEEEE"
    }
   ],
   "return_type" : "_ZTIb",
   "source_file" : "/system/core/base/include/android-base/strings.h"
  },
  {
   "function_name" : "android::base::StartsWith",
   "linker_set_key" : "_ZN7android4base10StartsWithENSt3__117basic_string_viewIcNS1_11char_traitsIcEEEEc",
   "parameters" :
   [
    {
     "referenced_type" : "_ZTINSt3__117basic_string_viewIcNS_11char_traitsIcEEEE"
    },
    {
     "referenced_type" : "_ZTIc"
    }
   ],
   "return_type" : "_ZTIb",
   "source_file" : "/system/core/base/include/android-base/strings.h"
  },
  {
   "function_name" : "android::base::WriteFully",
   "linker_set_key" : "_ZN7android4base10WriteFullyENS0_11borrowed_fdEPKvj",
   "parameters" :
   [
    {
     "referenced_type" : "_ZTIN7android4base11borrowed_fdE"
    },
    {
     "referenced_type" : "_ZTIPKv"
    },
    {
     "referenced_type" : "_ZTIj"
    }
   ],
   "return_type" : "_ZTIb",
   "source_file" : "/system/core/base/include/android-base/file.h"
  },
  {
   "function_name" : "android::base::boot_clock::now",
   "linker_set_key" : "_ZN7android4base10boot_clock3nowEv",
   "return_type" : "_ZTINSt3__16chrono10time_pointIN7android4base10boot_clockENS0_8durationIxNS_5ratioILx1ELx1000000000EEEEEEE",
   "source_file" : "/system/core/base/include/android-base/chrono_utils.h"
  },
  {
   "function_name" : "android::base::GetProperty",
   "linker_set_key" : "_ZN7android4base11GetPropertyERKNSt3__112basic_stringIcNS1_11char_traitsIcEENS1_9allocatorIcEEEES9_",
   "parameters" :
   [
    {
     "referenced_type" : "_ZTIRKNSt3__112basic_stringIcNS_11char_traitsIcEENS_9allocatorIcEEEE"
    },
    {
     "referenced_type" : "_ZTIRKNSt3__112basic_stringIcNS_11char_traitsIcEENS_9allocatorIcEEEE"
    }
   ],
   "return_type" : "_ZTINSt3__112basic_stringIcNS_11char_traitsIcEENS_9allocatorIcEEEE",
   "source_file" : "/system/core/base/include/android-base/properties.h"
  },
  {
   "function_name" : "android::base::GetThreadId",
   "linker_set_key" : "_ZN7android4base11GetThreadIdEv",
   "return_type" : "_ZTIy",
   "source_file" : "/system/core/base/include/android-base/threads.h"
  },
  {
   "function_name" : "android::base::InitLogging",
   "linker_set_key" : "_ZN7android4base11InitLoggingEPPcONSt3__18functionIFvNS0_5LogIdENS0_11LogSeverityEPKcS8_jS8_EEEONS4_IFvS8_EEE",
   "parameters" :
   [
    {
     "referenced_type" : "_ZTIPPc"
    },
    {
     "default_arg" : true,
     "referenced_type" : "_ZTIONSt3__18functionIFvN7android4base5LogIdENS2_11LogSeverityEPKcS6_jS6_EEE"
    },
    {
     "default_arg" : true,
     "referenced_type" : "_ZTIONSt3__18functionIFvPKcEEE"
    }
   ],
   "return_type" : "_ZTIv",
   "source_file" : "/system/core/base/include/android-base/logging.h"
  },
  {
   "function_name" : "android::base::SetProperty",
   "linker_set_key" : "_ZN7android4base11SetPropertyERKNSt3__112basic_stringIcNS1_11char_traitsIcEENS1_9allocatorIcEEEES9_",
   "parameters" :
   [
    {
     "referenced_type" : "_ZTIRKNSt3__112basic_stringIcNS_11char_traitsIcEENS_9allocatorIcEEEE"
    },
    {
     "referenced_type" : "_ZTIRKNSt3__112basic_stringIcNS_11char_traitsIcEENS_9allocatorIcEEEE"
    }
   ],
   "return_type" : "_ZTIb",
   "source_file" : "/system/core/base/include/android-base/properties.h"
  },
  {
   "function_name" : "android::base::StdioLogger",
   "linker_set_key" : "_ZN7android4base11StdioLoggerENS0_5LogIdENS0_11LogSeverityEPKcS4_jS4_",
   "parameters" :
   [
    {
     "referenced_type" : "_ZTIN7android4base5LogIdE"
    },
    {
     "referenced_type" : "_ZTIN7android4base11LogSeverityE"
    },
    {
     "referenced_type" : "_ZTIPKc"
    },
    {
     "referenced_type" : "_ZTIPKc"
    },
    {
     "referenced_type" : "_ZTIj"
    },
    {
     "referenced_type" : "_ZTIPKc"
    }
   ],
   "return_type" : "_ZTIv",
   "source_file" : "/system/core/base/include/android-base/logging.h"
  },
  {
   "function_name" : "android::base::KernelLogger",
   "linker_set_key" : "_ZN7android4base12KernelLoggerENS0_5LogIdENS0_11LogSeverityEPKcS4_jS4_",
   "parameters" :
   [
    {
     "referenced_type" : "_ZTIN7android4base5LogIdE"
    },
    {
     "referenced_type" : "_ZTIN7android4base11LogSeverityE"
    },
    {
     "referenced_type" : "_ZTIPKc"
    },
    {
     "referenced_type" : "_ZTIPKc"
    },
    {
     "referenced_type" : "_ZTIj"
    },
    {
     "referenced_type" : "_ZTIPKc"
    }
   ],
   "return_type" : "_ZTIv",
   "source_file" : "/system/core/base/include/android-base/logging.h"
  },
  {
   "function_name" : "android::base::StderrLogger",
   "linker_set_key" : "_ZN7android4base12StderrLoggerENS0_5LogIdENS0_11LogSeverityEPKcS4_jS4_",
   "parameters" :
   [
    {
     "referenced_type" : "_ZTIN7android4base5LogIdE"
    },
    {
     "referenced_type" : "_ZTIN7android4base11LogSeverityE"
    },
    {
     "referenced_type" : "_ZTIPKc"
    },
    {
     "referenced_type" : "_ZTIPKc"
    },
    {
     "referenced_type" : "_ZTIj"
    },
    {
     "referenced_type" : "_ZTIPKc"
    }
   ],
   "return_type" : "_ZTIv",
   "source_file" : "/system/core/base/include/android-base/logging.h"
  },
  {
   "function_name" : "android::base::StringPrintf",
   "linker_set_key" : "_ZN7android4base12StringPrintfEPKcz",
   "parameters" :
   [
    {
     "referenced_type" : "_ZTIPKc"
    }
   ],
   "return_type" : "_ZTINSt3__112basic_stringIcNS_11char_traitsIcEENS_9allocatorIcEEEE",
   "source_file" : "/system/core/base/include/android-base/stringprintf.h"
  },
  {
   "function_name" : "android::base::SetDefaultTag",
   "linker_set_key" : "_ZN7android4base13SetDefaultTagERKNSt3__112basic_stringIcNS1_11char_traitsIcEENS1_9allocatorIcEEEE",
   "parameters" :
   [
    {
     "referenced_type" : "_ZTIRKNSt3__112basic_stringIcNS_11char_traitsIcEENS_9allocatorIcEEEE"
    }
   ],
   "return_type" : "_ZTIv",
   "source_file" : "/system/core/base/include/android-base/logging.h"
  },
  {
   "function_name" : "android::base::StringAppendF",
   "linker_set_key" : "_ZN7android4base13StringAppendFEPNSt3__112basic_stringIcNS1_11char_traitsIcEENS1_9allocatorIcEEEEPKcz",
   "parameters" :
   [
    {
     "referenced_type" : "_ZTIPNSt3__112basic_stringIcNS_11char_traitsIcEENS_9allocatorIcEEEE"
    },
    {
     "referenced_type" : "_ZTIPKc"
    }
   ],
   "return_type" : "_ZTIv",
   "source_file" : "/system/core/base/include/android-base/stringprintf.h"
  },
  {
   "function_name" : "android::base::StringAppendV",
   "linker_set_key" : "_ZN7android4base13StringAppendVEPNSt3__112basic_stringIcNS1_11char_traitsIcEENS1_9allocatorIcEEEEPKcPc",
   "parameters" :
   [
    {
     "referenced_type" : "_ZTIPNSt3__112basic_stringIcNS_11char_traitsIcEENS_9allocatorIcEEEE"
    },
    {
     "referenced_type" : "_ZTIPKc"
    },
    {
     "referenced_type" : "_ZTIPc"
    }
   ],
   "return_type" : "_ZTIv",
   "source_file" : "/system/core/base/include/android-base/stringprintf.h"
  },
  {
   "function_name" : "android::base::StringReplace",
   "linker_set_key" : "_ZN7android4base13StringReplaceENSt3__117basic_string_viewIcNS1_11char_traitsIcEEEES5_S5_b",
   "parameters" :
   [
    {
     "referenced_type" : "_ZTINSt3__117basic_string_viewIcNS_11char_traitsIcEEEE"
    },
    {
     "referenced_type" : "_ZTINSt3__117basic_string_viewIcNS_11char_traitsIcEEEE"
    },
    {
     "referenced_type" : "_ZTINSt3__117basic_string_viewIcNS_11char_traitsIcEEEE"
    },
    {
     "referenced_type" : "_ZTIb"
    }
   ],
   "return_type" : "_ZTINSt3__112basic_stringIcNS_11char_traitsIcEENS_9allocatorIcEEEE",
   "source_file" : "/system/core/base/include/android-base/strings.h"
  },
  {
   "function_name" : "android::base::CachedProperty::Get",
   "linker_set_key" : "_ZN7android4base14CachedProperty3GetEPb",
   "parameters" :
   [
    {
     "is_this_ptr" : true,
     "referenced_type" : "_ZTIPN7android4base14CachedPropertyE"
    },
    {
     "default_arg" : true,
     "referenced_type" : "_ZTIPb"
    }
   ],
   "return_type" : "_ZTIPKc",
   "source_file" : "/system/core/base/include/android-base/properties.h"
  },
  {
   "function_name" : "android::base::CachedProperty::CachedProperty",
   "linker_set_key" : "_ZN7android4base14CachedPropertyC1EPKc",
   "parameters" :
   [
    {
     "is_this_ptr" : true,
     "referenced_type" : "_ZTIPN7android4base14CachedPropertyE"
    },
    {
     "referenced_type" : "_ZTIPKc"
    }
   ],
   "return_type" : "_ZTIv",
   "source_file" : "/system/core/base/include/android-base/properties.h"
  },
  {
   "function_name" : "android::base::CachedProperty::CachedProperty",
   "linker_set_key" : "_ZN7android4base14CachedPropertyC2EPKc",
   "parameters" :
   [
    {
     "is_this_ptr" : true,
     "referenced_type" : "_ZTIPN7android4base14CachedPropertyE"
    },
    {
     "referenced_type" : "_ZTIPKc"
    }
   ],
   "return_type" : "_ZTIv",
   "source_file" : "/system/core/base/include/android-base/properties.h"
  },
  {
   "function_name" : "android::base::DefaultAborter",
   "linker_set_key" : "_ZN7android4base14DefaultAborterEPKc",
   "parameters" :
   [
    {
     "referenced_type" : "_ZTIPKc"
    }
   ],
   "return_type" : "_ZTIv",
   "source_file" : "/system/core/base/include/android-base/logging.h"
  },
  {
   "function_name" : "android::base::ReadFdToString",
   "linker_set_key" : "_ZN7android4base14ReadFdToStringENS0_11borrowed_fdEPNSt3__112basic_stringIcNS2_11char_traitsIcEENS2_9allocatorIcEEEE",
   "parameters" :
   [
    {
     "referenced_type" : "_ZTIN7android4base11borrowed_fdE"
    },
    {
     "referenced_type" : "_ZTIPNSt3__112basic_stringIcNS_11char_traitsIcEENS_9allocatorIcEEEE"
    }
   ],
   "return_type" : "_ZTIb",
   "source_file" : "/system/core/base/include/android-base/file.h"
  },
  {
   "function_name" : "android::base::GetBoolProperty",
   "linker_set_key" : "_ZN7android4base15GetBoolPropertyERKNSt3__112basic_stringIcNS1_11char_traitsIcEENS1_9allocatorIcEEEEb",
   "parameters" :
   [
    {
     "referenced_type" : "_ZTIRKNSt3__112basic_stringIcNS_11char_traitsIcEENS_9allocatorIcEEEE"
    },
    {
     "referenced_type" : "_ZTIb"
    }
   ],
   "return_type" : "_ZTIb",
   "source_file" : "/system/core/base/include/android-base/properties.h"
  },
  {
   "function_name" : "android::base::ParseNetAddress",
   "linker_set_key" : "_ZN7android4base15ParseNetAddressERKNSt3__112basic_stringIcNS1_11char_traitsIcEENS1_9allocatorIcEEEEPS7_PiSA_SA_",
   "parameters" :
   [
    {
     "referenced_type" : "_ZTIRKNSt3__112basic_stringIcNS_11char_traitsIcEENS_9allocatorIcEEEE"
    },
    {
     "referenced_type" : "_ZTIPNSt3__112basic_stringIcNS_11char_traitsIcEENS_9allocatorIcEEEE"
    },
    {
     "referenced_type" : "_ZTIPi"
    },
    {
     "referenced_type" : "_ZTIPNSt3__112basic_stringIcNS_11char_traitsIcEENS_9allocatorIcEEEE"
    },
    {
     "referenced_type" : "_ZTIPNSt3__112basic_stringIcNS_11char_traitsIcEENS_9allocatorIcEEEE"
    }
   ],
   "return_type" : "_ZTIb",
   "source_file" : "/system/core/base/include/android-base/parsenetaddress.h"
  },
  {
   "function_name" : "android::base::WaitForProperty",
   "linker_set_key" : "_ZN7android4base15WaitForPropertyERKNSt3__112basic_stringIcNS1_11char_traitsIcEENS1_9allocatorIcEEEES9_NS1_6chrono8durationIxNS1_5ratioILx1ELx1000EEEEE",
   "parameters" :
   [
    {
     "referenced_type" : "_ZTIRKNSt3__112basic_stringIcNS_11char_traitsIcEENS_9allocatorIcEEEE"
    },
    {
     "referenced_type" : "_ZTIRKNSt3__112basic_stringIcNS_11char_traitsIcEENS_9allocatorIcEEEE"
    },
    {
     "default_arg" : true,
     "referenced_type" : "_ZTINSt3__16chrono8durationIxNS_5ratioILx1ELx1000EEEEE"
    }
   ],
   "return_type" : "_ZTIb",
   "source_file" : "/system/core/base/include/android-base/properties.h"
  },
  {
   "function_name" : "android::base::WriteStringToFd",
   "linker_set_key" : "_ZN7android4base15WriteStringToFdERKNSt3__112basic_stringIcNS1_11char_traitsIcEENS1_9allocatorIcEEEENS0_11borrowed_fdE",
   "parameters" :
   [
    {
     "referenced_type" : "_ZTIRKNSt3__112basic_stringIcNS_11char_traitsIcEENS_9allocatorIcEEEE"
    },
    {
     "referenced_type" : "_ZTIN7android4base11borrowed_fdE"
    }
   ],
   "return_type" : "_ZTIb",
   "source_file" : "/system/core/base/include/android-base/file.h"
  },
  {
   "function_name" : "android::base::EqualsIgnoreCase",
   "linker_set_key" : "_ZN7android4base16EqualsIgnoreCaseENSt3__117basic_string_viewIcNS1_11char_traitsIcEEEES5_",
   "parameters" :
   [
    {
     "referenced_type" : "_ZTINSt3__117basic_string_viewIcNS_11char_traitsIcEEEE"
    },
    {
     "referenced_type" : "_ZTINSt3__117basic_string_viewIcNS_11char_traitsIcEEEE"
    }
   ],
   "return_type" : "_ZTIb",
   "source_file" : "/system/core/base/include/android-base/strings.h"
  },
  {
   "function_name" : "android::base::ReadFileToString",
   "linker_set_key" : "_ZN7android4base16ReadFileToStringERKNSt3__112basic_stringIcNS1_11char_traitsIcEENS1_9allocatorIcEEEEPS7_b",
   "parameters" :
   [
    {
     "referenced_type" : "_ZTIRKNSt3__112basic_stringIcNS_11char_traitsIcEENS_9allocatorIcEEEE"
    },
    {
     "referenced_type" : "_ZTIPNSt3__112basic_stringIcNS_11char_traitsIcEENS_9allocatorIcEEEE"
    },
    {
     "default_arg" : true,
     "referenced_type" : "_ZTIb"
    }
   ],
   "return_type" : "_ZTIb",
   "source_file" : "/system/core/base/include/android-base/file.h"
  },
  {
   "function_name" : "android::base::GetExecutablePath",
   "linker_set_key" : "_ZN7android4base17GetExecutablePathEv",
   "return_type" : "_ZTINSt3__112basic_stringIcNS_11char_traitsIcEENS_9allocatorIcEEEE",
   "source_file" : "/system/core/base/include/android-base/file.h"
  },
  {
   "function_name" : "android::base::ReadFullyAtOffset",
   "linker_set_key" : "_ZN7android4base17ReadFullyAtOffsetENS0_11borrowed_fdEPvjx",
   "parameters" :
   [
    {
     "referenced_type" : "_ZTIN7android4base11borrowed_fdE"
    },
    {
     "referenced_type" : "_ZTIPv"
    },
    {
     "referenced_type" : "_ZTIj"
    },
    {
     "referenced_type" : "_ZTIx"
    }
   ],
   "return_type" : "_ZTIb",
   "source_file" : "/system/core/base/include/android-base/file.h"
  },
  {
   "function_name" : "android::base::ScopedLogSeverity::ScopedLogSeverity",
   "linker_set_key" : "_ZN7android4base17ScopedLogSeverityC1ENS0_11LogSeverityE",
   "parameters" :
   [
    {
     "is_this_ptr" : true,
     "referenced_type" : "_ZTIPN7android4base17ScopedLogSeverityE"
    },
    {
     "referenced_type" : "_ZTIN7android4base11LogSeverityE"
    }
   ],
   "return_type" : "_ZTIv",
   "source_file" : "/system/core/base/include/android-base/logging.h"
  },
  {
   "function_name" : "android::base::ScopedLogSeverity::ScopedLogSeverity",
   "linker_set_key" : "_ZN7android4base17ScopedLogSeverityC2ENS0_11LogSeverityE",
   "parameters" :
   [
    {
     "is_this_ptr" : true,
     "referenced_type" : "_ZTIPN7android4base17ScopedLogSeverityE"
    },
    {
     "referenced_type" : "_ZTIN7android4base11LogSeverityE"
    }
   ],
   "return_type" : "_ZTIv",
   "source_file" : "/system/core/base/include/android-base/logging.h"
  },
  {
   "function_name" : "android::base::ScopedLogSeverity::~ScopedLogSeverity",
   "linker_set_key" : "_ZN7android4base17ScopedLogSeverityD1Ev",
   "parameters" :
   [
    {
     "is_this_ptr" : true,
     "referenced_type" : "_ZTIPN7android4base17ScopedLogSeverityE"
    }
   ],
   "return_type" : "_ZTIv",
   "source_file" : "/system/core/base/include/android-base/logging.h"
  },
  {
   "function_name" : "android::base::ScopedLogSeverity::~ScopedLogSeverity",
   "linker_set_key" : "_ZN7android4base17ScopedLogSeverityD2Ev",
   "parameters" :
   [
    {
     "is_this_ptr" : true,
     "referenced_type" : "_ZTIPN7android4base17ScopedLogSeverityE"
    }
   ],
   "return_type" : "_ZTIv",
   "source_file" : "/system/core/base/include/android-base/logging.h"
  },
  {
   "function_name" : "android::base::WriteStringToFile",
   "linker_set_key" : "_ZN7android4base17WriteStringToFileERKNSt3__112basic_stringIcNS1_11char_traitsIcEENS1_9allocatorIcEEEES9_b",
   "parameters" :
   [
    {
     "referenced_type" : "_ZTIRKNSt3__112basic_stringIcNS_11char_traitsIcEENS_9allocatorIcEEEE"
    },
    {
     "referenced_type" : "_ZTIRKNSt3__112basic_stringIcNS_11char_traitsIcEENS_9allocatorIcEEEE"
    },
    {
     "default_arg" : true,
     "referenced_type" : "_ZTIb"
    }
   ],
   "return_type" : "_ZTIb",
   "source_file" : "/system/core/base/include/android-base/file.h"
  },
  {
   "function_name" : "android::base::WriteStringToFile",
   "linker_set_key" : "_ZN7android4base17WriteStringToFileERKNSt3__112basic_stringIcNS1_11char_traitsIcEENS1_9allocatorIcEEEES9_tjjb",
   "parameters" :
   [
    {
     "referenced_type" : "_ZTIRKNSt3__112basic_stringIcNS_11char_traitsIcEENS_9allocatorIcEEEE"
    },
    {
     "referenced_type" : "_ZTIRKNSt3__112basic_stringIcNS_11char_traitsIcEENS_9allocatorIcEEEE"
    },
    {
     "referenced_type" : "_ZTIt"
    },
    {
     "referenced_type" : "_ZTIj"
    },
    {
     "referenced_type" : "_ZTIj"
    },
    {
     "default_arg" : true,
     "referenced_type" : "_ZTIb"
    }
   ],
   "return_type" : "_ZTIb",
   "source_file" : "/system/core/base/include/android-base/file.h"
  },
  {
   "function_name" : "android::base::EndsWithIgnoreCase",
   "linker_set_key" : "_ZN7android4base18EndsWithIgnoreCaseENSt3__117basic_string_viewIcNS1_11char_traitsIcEEEES5_",
   "parameters" :
   [
    {
     "referenced_type" : "_ZTINSt3__117basic_string_viewIcNS_11char_traitsIcEEEE"
    },
    {
     "referenced_type" : "_ZTINSt3__117basic_string_viewIcNS_11char_traitsIcEEEE"
    }
   ],
   "return_type" : "_ZTIb",
   "source_file" : "/system/core/base/include/android-base/strings.h"
  },
  {
   "function_name" : "android::base::RemoveFileIfExists",
   "linker_set_key" : "_ZN7android4base18RemoveFileIfExistsERKNSt3__112basic_stringIcNS1_11char_traitsIcEENS1_9allocatorIcEEEEPS7_",
   "parameters" :
   [
    {
     "referenced_type" : "_ZTIRKNSt3__112basic_stringIcNS_11char_traitsIcEENS_9allocatorIcEEEE"
    },
    {
     "default_arg" : true,
     "referenced_type" : "_ZTIPNSt3__112basic_stringIcNS_11char_traitsIcEENS_9allocatorIcEEEE"
    }
   ],
   "return_type" : "_ZTIb",
   "source_file" : "/system/core/base/include/android-base/file.h"
  },
  {
   "function_name" : "android::base::StartsWithIgnoreCase",
   "linker_set_key" : "_ZN7android4base20StartsWithIgnoreCaseENSt3__117basic_string_viewIcNS1_11char_traitsIcEEEES5_",
   "parameters" :
   [
    {
     "referenced_type" : "_ZTINSt3__117basic_string_viewIcNS_11char_traitsIcEEEE"
    },
    {
     "referenced_type" : "_ZTINSt3__117basic_string_viewIcNS_11char_traitsIcEEEE"
    }
   ],
   "return_type" : "_ZTIb",
   "source_file" : "/system/core/base/include/android-base/strings.h"
  },
  {
   "function_name" : "android::base::GetMinimumLogSeverity",
   "linker_set_key" : "_ZN7android4base21GetMinimumLogSeverityEv",
   "return_type" : "_ZTIN7android4base11LogSeverityE",
   "source_file" : "/system/core/base/include/android-base/logging.h"
  },
  {
   "function_name" : "android::base::SetMinimumLogSeverity",
   "linker_set_key" : "_ZN7android4base21SetMinimumLogSeverityENS0_11LogSeverityE",
   "parameters" :
   [
    {
     "referenced_type" : "_ZTIN7android4base11LogSeverityE"
    }
   ],
   "return_type" : "_ZTIN7android4base11LogSeverityE",
   "source_file" : "/system/core/base/include/android-base/logging.h"
  },
  {
   "function_name" : "android::base::GetExecutableDirectory",
   "linker_set_key" : "_ZN7android4base22GetExecutableDirectoryEv",
   "return_type" : "_ZTINSt3__112basic_stringIcNS_11char_traitsIcEENS_9allocatorIcEEEE",
   "source_file" : "/system/core/base/include/android-base/file.h"
  },
  {
   "function_name" : "android::base::SystemErrorCodeToString",
   "linker_set_key" : "_ZN7android4base23SystemErrorCodeToStringEi",
   "parameters" :
   [
    {
     "referenced_type" : "_ZTIi"
    }
   ],
   "return_type" : "_ZTINSt3__112basic_stringIcNS_11char_traitsIcEENS_9allocatorIcEEEE",
   "source_file" : "/system/core/base/include/android-base/errors.h"
  },
  {
   "function_name" : "android::base::WaitForPropertyCreation",
   "linker_set_key" : "_ZN7android4base23WaitForPropertyCreationERKNSt3__112basic_stringIcNS1_11char_traitsIcEENS1_9allocatorIcEEEENS1_6chrono8durationIxNS1_5ratioILx1ELx1000EEEEE",
   "parameters" :
   [
    {
     "referenced_type" : "_ZTIRKNSt3__112basic_stringIcNS_11char_traitsIcEENS_9allocatorIcEEEE"
    },
    {
     "default_arg" : true,
     "referenced_type" : "_ZTINSt3__16chrono8durationIxNS_5ratioILx1ELx1000EEEEE"
    }
   ],
   "return_type" : "_ZTIb",
   "source_file" : "/system/core/base/include/android-base/properties.h"
  },
  {
   "function_name" : "android::base::SendFileDescriptorVector",
   "linker_set_key" : "_ZN7android4base24SendFileDescriptorVectorENS0_11borrowed_fdEPKvjRKNSt3__16vectorIiNS4_9allocatorIiEEEE",
   "parameters" :
   [
    {
     "referenced_type" : "_ZTIN7android4base11borrowed_fdE"
    },
    {
     "referenced_type" : "_ZTIPKv"
    },
    {
     "referenced_type" : "_ZTIj"
    },
    {
     "referenced_type" : "_ZTIRKNSt3__16vectorIiNS_9allocatorIiEEEE"
    }
   ],
   "return_type" : "_ZTIi",
   "source_file" : "/system/core/base/include/android-base/cmsg.h"
  },
  {
   "function_name" : "android::base::ReceiveFileDescriptorVector",
   "linker_set_key" : "_ZN7android4base27ReceiveFileDescriptorVectorENS0_11borrowed_fdEPvjjPNSt3__16vectorINS0_14unique_fd_implINS0_13DefaultCloserEEENS3_9allocatorIS7_EEEE",
   "parameters" :
   [
    {
     "referenced_type" : "_ZTIN7android4base11borrowed_fdE"
    },
    {
     "referenced_type" : "_ZTIPv"
    },
    {
     "referenced_type" : "_ZTIj"
    },
    {
     "referenced_type" : "_ZTIj"
    },
    {
     "referenced_type" : "_ZTIPNSt3__16vectorIN7android4base14unique_fd_implINS2_13DefaultCloserEEENS_9allocatorIS5_EEEE"
    }
   ],
   "return_type" : "_ZTIi",
   "source_file" : "/system/core/base/include/android-base/cmsg.h"
  },
  {
   "function_name" : "android::base::Join",
   "linker_set_key" : "_ZN7android4base4JoinINSt3__16vectorINS2_12basic_stringIcNS2_11char_traitsIcEENS2_9allocatorIcEEEENS7_IS9_EEEERKS9_EES9_RKT_T0_",
   "parameters" :
   [
    {
     "referenced_type" : "_ZTIRKNSt3__16vectorINS_12basic_stringIcNS_11char_traitsIcEENS_9allocatorIcEEEENS4_IS6_EEEE"
    },
    {
     "referenced_type" : "_ZTIRKNSt3__112basic_stringIcNS_11char_traitsIcEENS_9allocatorIcEEEE"
    }
   ],
   "return_type" : "_ZTINSt3__112basic_stringIcNS_11char_traitsIcEENS_9allocatorIcEEEE",
   "source_file" : "/system/core/base/include/android-base/strings.h",
   "template_args" :
   [
    "_ZTINSt3__16vectorINS_12basic_stringIcNS_11char_traitsIcEENS_9allocatorIcEEEENS4_IS6_EEEE",
    "_ZTIRKNSt3__112basic_stringIcNS_11char_traitsIcEENS_9allocatorIcEEEE"
   ]
  },
  {
   "function_name" : "android::base::Join",
   "linker_set_key" : "_ZN7android4base4JoinINSt3__16vectorINS2_12basic_stringIcNS2_11char_traitsIcEENS2_9allocatorIcEEEENS7_IS9_EEEEcEES9_RKT_T0_",
   "parameters" :
   [
    {
     "referenced_type" : "_ZTIRKNSt3__16vectorINS_12basic_stringIcNS_11char_traitsIcEENS_9allocatorIcEEEENS4_IS6_EEEE"
    },
    {
     "referenced_type" : "_ZTIc"
    }
   ],
   "return_type" : "_ZTINSt3__112basic_stringIcNS_11char_traitsIcEENS_9allocatorIcEEEE",
   "source_file" : "/system/core/base/include/android-base/strings.h",
   "template_args" :
   [
    "_ZTINSt3__16vectorINS_12basic_stringIcNS_11char_traitsIcEENS_9allocatorIcEEEENS4_IS6_EEEE",
    "_ZTIc"
   ]
  },
  {
   "function_name" : "android::base::Join",
   "linker_set_key" : "_ZN7android4base4JoinINSt3__16vectorIPKcNS2_9allocatorIS5_EEEERKNS2_12basic_stringIcNS2_11char_traitsIcEENS6_IcEEEEEESD_RKT_T0_",
   "parameters" :
   [
    {
     "referenced_type" : "_ZTIRKNSt3__16vectorIPKcNS_9allocatorIS2_EEEE"
    },
    {
     "referenced_type" : "_ZTIRKNSt3__112basic_stringIcNS_11char_traitsIcEENS_9allocatorIcEEEE"
    }
   ],
   "return_type" : "_ZTINSt3__112basic_stringIcNS_11char_traitsIcEENS_9allocatorIcEEEE",
   "source_file" : "/system/core/base/include/android-base/strings.h",
   "template_args" :
   [
    "_ZTINSt3__16vectorIPKcNS_9allocatorIS2_EEEE",
    "_ZTIRKNSt3__112basic_stringIcNS_11char_traitsIcEENS_9allocatorIcEEEE"
   ]
  },
  {
   "function_name" : "android::base::Join",
   "linker_set_key" : "_ZN7android4base4JoinINSt3__16vectorIPKcNS2_9allocatorIS5_EEEEcEENS2_12basic_stringIcNS2_11char_traitsIcEENS6_IcEEEERKT_T0_",
   "parameters" :
   [
    {
     "referenced_type" : "_ZTIRKNSt3__16vectorIPKcNS_9allocatorIS2_EEEE"
    },
    {
     "referenced_type" : "_ZTIc"
    }
   ],
   "return_type" : "_ZTINSt3__112basic_stringIcNS_11char_traitsIcEENS_9allocatorIcEEEE",
   "source_file" : "/system/core/base/include/android-base/strings.h",
   "template_args" : [ "_ZTINSt3__16vectorIPKcNS_9allocatorIS2_EEEE", "_ZTIc" ]
  },
  {
   "function_name" : "android::base::Trim",
   "linker_set_key" : "_ZN7android4base4TrimERKNSt3__112basic_stringIcNS1_11char_traitsIcEENS1_9allocatorIcEEEE",
   "parameters" :
   [
    {
     "referenced_type" : "_ZTIRKNSt3__112basic_stringIcNS_11char_traitsIcEENS_9allocatorIcEEEE"
    }
   ],
   "return_type" : "_ZTINSt3__112basic_stringIcNS_11char_traitsIcEENS_9allocatorIcEEEE",
   "source_file" : "/system/core/base/include/android-base/strings.h"
  },
  {
   "function_name" : "android::base::Split",
   "linker_set_key" : "_ZN7android4base5SplitERKNSt3__112basic_stringIcNS1_11char_traitsIcEENS1_9allocatorIcEEEES9_",
   "parameters" :
   [
    {
     "referenced_type" : "_ZTIRKNSt3__112basic_stringIcNS_11char_traitsIcEENS_9allocatorIcEEEE"
    },
    {
     "referenced_type" : "_ZTIRKNSt3__112basic_stringIcNS_11char_traitsIcEENS_9allocatorIcEEEE"
    }
   ],
   "return_type" : "_ZTINSt3__16vectorINS_12basic_stringIcNS_11char_traitsIcEENS_9allocatorIcEEEENS4_IS6_EEEE",
   "source_file" : "/system/core/base/include/android-base/strings.h"
  },
  {
   "access" : "private",
   "function_name" : "android::base::AllPids::PidIterator::Increment",
   "linker_set_key" : "_ZN7android4base7AllPids11PidIterator9IncrementEv",
   "parameters" :
   [
    {
     "is_this_ptr" : true,
     "referenced_type" : "_ZTIPN7android4base7AllPids11PidIteratorE"
    }
   ],
   "return_type" : "_ZTIv",
   "source_file" : "/system/core/base/include/android-base/process.h"
  },
  {
   "function_name" : "android::base::Dirname",
   "linker_set_key" : "_ZN7android4base7DirnameERKNSt3__112basic_stringIcNS1_11char_traitsIcEENS1_9allocatorIcEEEE",
   "parameters" :
   [
    {
     "referenced_type" : "_ZTIRKNSt3__112basic_stringIcNS_11char_traitsIcEENS_9allocatorIcEEEE"
    }
   ],
   "return_type" : "_ZTINSt3__112basic_stringIcNS_11char_traitsIcEENS_9allocatorIcEEEE",
   "source_file" : "/system/core/base/include/android-base/file.h"
  },
  {
   "function_name" : "android::base::Basename",
   "linker_set_key" : "_ZN7android4base8BasenameERKNSt3__112basic_stringIcNS1_11char_traitsIcEENS1_9allocatorIcEEEE",
   "parameters" :
   [
    {
     "referenced_type" : "_ZTIRKNSt3__112basic_stringIcNS_11char_traitsIcEENS_9allocatorIcEEEE"
    }
   ],
   "return_type" : "_ZTINSt3__112basic_stringIcNS_11char_traitsIcEENS_9allocatorIcEEEE",
   "source_file" : "/system/core/base/include/android-base/file.h"
  },
  {
   "function_name" : "android::base::EndsWith",
   "linker_set_key" : "_ZN7android4base8EndsWithENSt3__117basic_string_viewIcNS1_11char_traitsIcEEEES5_",
   "parameters" :
   [
    {
     "referenced_type" : "_ZTINSt3__117basic_string_viewIcNS_11char_traitsIcEEEE"
    },
    {
     "referenced_type" : "_ZTINSt3__117basic_string_viewIcNS_11char_traitsIcEEEE"
    }
   ],
   "return_type" : "_ZTIb",
   "source_file" : "/system/core/base/include/android-base/strings.h"
  },
  {
   "function_name" : "android::base::EndsWith",
   "linker_set_key" : "_ZN7android4base8EndsWithENSt3__117basic_string_viewIcNS1_11char_traitsIcEEEEc",
   "parameters" :
   [
    {
     "referenced_type" : "_ZTINSt3__117basic_string_viewIcNS_11char_traitsIcEEEE"
    },
    {
     "referenced_type" : "_ZTIc"
    }
   ],
   "return_type" : "_ZTIb",
   "source_file" : "/system/core/base/include/android-base/strings.h"
  },
  {
   "function_name" : "android::base::Readlink",
   "linker_set_key" : "_ZN7android4base8ReadlinkERKNSt3__112basic_stringIcNS1_11char_traitsIcEENS1_9allocatorIcEEEEPS7_",
   "parameters" :
   [
    {
     "referenced_type" : "_ZTIRKNSt3__112basic_stringIcNS_11char_traitsIcEENS_9allocatorIcEEEE"
    },
    {
     "referenced_type" : "_ZTIPNSt3__112basic_stringIcNS_11char_traitsIcEENS_9allocatorIcEEEE"
    }
   ],
   "return_type" : "_ZTIb",
   "source_file" : "/system/core/base/include/android-base/file.h"
  },
  {
   "function_name" : "android::base::Realpath",
   "linker_set_key" : "_ZN7android4base8RealpathERKNSt3__112basic_stringIcNS1_11char_traitsIcEENS1_9allocatorIcEEEEPS7_",
   "parameters" :
   [
    {
     "referenced_type" : "_ZTIRKNSt3__112basic_stringIcNS_11char_traitsIcEENS_9allocatorIcEEEE"
    },
    {
     "referenced_type" : "_ZTIPNSt3__112basic_stringIcNS_11char_traitsIcEENS_9allocatorIcEEEE"
    }
   ],
   "return_type" : "_ZTIb",
   "source_file" : "/system/core/base/include/android-base/file.h"
  },
  {
   "function_name" : "android::base::ParseBool",
   "linker_set_key" : "_ZN7android4base9ParseBoolENSt3__117basic_string_viewIcNS1_11char_traitsIcEEEE",
   "parameters" :
   [
    {
     "referenced_type" : "_ZTINSt3__117basic_string_viewIcNS_11char_traitsIcEEEE"
    }
   ],
   "return_type" : "_ZTIN7android4base15ParseBoolResultE",
   "source_file" : "/system/core/base/include/android-base/parsebool.h"
  },
  {
   "function_name" : "android::base::ParseUint",
   "linker_set_key" : "_ZN7android4base9ParseUintIhEEbPKcPT_S4_b",
   "parameters" :
   [
    {
     "referenced_type" : "_ZTIPKc"
    },
    {
     "referenced_type" : "_ZTIPh"
    },
    {
     "default_arg" : true,
     "referenced_type" : "_ZTIh"
    },
    {
     "default_arg" : true,
     "referenced_type" : "_ZTIb"
    }
   ],
   "return_type" : "_ZTIb",
   "source_file" : "/system/core/base/include/android-base/parseint.h",
   "template_args" : [ "_ZTIh" ]
  },
  {
   "function_name" : "android::base::ParseUint",
   "linker_set_key" : "_ZN7android4base9ParseUintIjEEbPKcPT_S4_b",
   "parameters" :
   [
    {
     "referenced_type" : "_ZTIPKc"
    },
    {
     "referenced_type" : "_ZTIPj"
    },
    {
     "default_arg" : true,
     "referenced_type" : "_ZTIj"
    },
    {
     "default_arg" : true,
     "referenced_type" : "_ZTIb"
    }
   ],
   "return_type" : "_ZTIb",
   "source_file" : "/system/core/base/include/android-base/parseint.h",
   "template_args" : [ "_ZTIj" ]
  },
  {
   "function_name" : "android::base::ParseUint",
   "linker_set_key" : "_ZN7android4base9ParseUintItEEbPKcPT_S4_b",
   "parameters" :
   [
    {
     "referenced_type" : "_ZTIPKc"
    },
    {
     "referenced_type" : "_ZTIPt"
    },
    {
     "default_arg" : true,
     "referenced_type" : "_ZTIt"
    },
    {
     "default_arg" : true,
     "referenced_type" : "_ZTIb"
    }
   ],
   "return_type" : "_ZTIb",
   "source_file" : "/system/core/base/include/android-base/parseint.h",
   "template_args" : [ "_ZTIt" ]
  },
  {
   "function_name" : "android::base::ReadFully",
   "linker_set_key" : "_ZN7android4base9ReadFullyENS0_11borrowed_fdEPvj",
   "parameters" :
   [
    {
     "referenced_type" : "_ZTIN7android4base11borrowed_fdE"
    },
    {
     "referenced_type" : "_ZTIPv"
    },
    {
     "referenced_type" : "_ZTIj"
    }
   ],
   "return_type" : "_ZTIb",
   "source_file" : "/system/core/base/include/android-base/file.h"
  },
  {
   "function_name" : "android::base::SetLogger",
   "linker_set_key" : "_ZN7android4base9SetLoggerEONSt3__18functionIFvNS0_5LogIdENS0_11LogSeverityEPKcS6_jS6_EEE",
   "parameters" :
   [
    {
     "referenced_type" : "_ZTIONSt3__18functionIFvN7android4base5LogIdENS2_11LogSeverityEPKcS6_jS6_EEE"
    }
   ],
   "return_type" : "_ZTIv",
   "source_file" : "/system/core/base/include/android-base/logging.h"
  },
  {
   "function_name" : "android::base::ShouldLog",
   "linker_set_key" : "_ZN7android4base9ShouldLogENS0_11LogSeverityEPKc",
   "parameters" :
   [
    {
     "referenced_type" : "_ZTIN7android4base11LogSeverityE"
    },
    {
     "referenced_type" : "_ZTIPKc"
    }
   ],
   "return_type" : "_ZTIb",
   "source_file" : "/system/core/base/include/android-base/logging.h"
  },
  {
   "function_name" : "android::base::operator<<",
   "linker_set_key" : "_ZN7android4baselsERNSt3__113basic_ostreamIcNS1_11char_traitsIcEEEERKNS0_5TimerE",
   "parameters" :
   [
    {
     "referenced_type" : "_ZTIRNSt3__113basic_ostreamIcNS_11char_traitsIcEEEE"
    },
    {
     "referenced_type" : "_ZTIRKN7android4base5TimerE"
    }
   ],
   "return_type" : "_ZTIRNSt3__113basic_ostreamIcNS_11char_traitsIcEEEE",
   "source_file" : "/system/core/base/include/android-base/chrono_utils.h"
  },
  {
   "access" : "private",
   "function_name" : "CapturedStdFd::fd",
   "linker_set_key" : "_ZNK13CapturedStdFd2fdEv",
   "parameters" :
   [
    {
     "is_this_ptr" : true,
     "referenced_type" : "_ZTIPK13CapturedStdFd"
    }
   ],
   "return_type" : "_ZTIi",
   "source_file" : "/system/core/base/include/android-base/test_utils.h"
  },
  {
   "function_name" : "fmt::v6::internal::locale_ref::get",
   "linker_set_key" : "_ZNK3fmt2v68internal10locale_ref3getINSt3__16localeEEET_v",
   "parameters" :
   [
    {
     "is_this_ptr" : true,
     "referenced_type" : "_ZTIPKN3fmt2v68internal10locale_refE"
    }
   ],
   "return_type" : "_ZTINSt3__16localeE",
   "source_file" : "/external/fmtlib/include/fmt/format-inl.h",
   "template_args" : [ "_ZTINSt3__16localeE" ]
  }
 ],
 "global_vars" :
 [
  {
   "linker_set_key" : "_ZN3fmt2v68internal10basic_dataIvE10hex_digitsE",
   "name" : "fmt::v6::internal::basic_data<void>::hex_digits",
   "referenced_type" : "_ZTIA_Kc",
   "source_file" : "/external/fmtlib/include/fmt/format.h"
  },
  {
   "linker_set_key" : "_ZN3fmt2v68internal10basic_dataIvE11reset_colorE",
   "name" : "fmt::v6::internal::basic_data<void>::reset_color",
   "referenced_type" : "_ZTIA5_Kc",
   "source_file" : "/external/fmtlib/include/fmt/format.h"
  },
  {
   "linker_set_key" : "_ZN3fmt2v68internal10basic_dataIvE12wreset_colorE",
   "name" : "fmt::v6::internal::basic_data<void>::wreset_color",
   "referenced_type" : "_ZTIA5_Kw",
   "source_file" : "/external/fmtlib/include/fmt/format.h"
  },
  {
   "linker_set_key" : "_ZN3fmt2v68internal10basic_dataIvE15pow10_exponentsE",
   "name" : "fmt::v6::internal::basic_data<void>::pow10_exponents",
   "referenced_type" : "_ZTIA_Ks",
   "source_file" : "/external/fmtlib/include/fmt/format.h"
  },
  {
   "linker_set_key" : "_ZN3fmt2v68internal10basic_dataIvE15powers_of_10_64E",
   "name" : "fmt::v6::internal::basic_data<void>::powers_of_10_64",
   "referenced_type" : "_ZTIA_Ky",
   "source_file" : "/external/fmtlib/include/fmt/format.h"
  },
  {
   "linker_set_key" : "_ZN3fmt2v68internal10basic_dataIvE16background_colorE",
   "name" : "fmt::v6::internal::basic_data<void>::background_color",
   "referenced_type" : "_ZTIA_Kc",
   "source_file" : "/external/fmtlib/include/fmt/format.h"
  },
  {
   "linker_set_key" : "_ZN3fmt2v68internal10basic_dataIvE16foreground_colorE",
   "name" : "fmt::v6::internal::basic_data<void>::foreground_color",
   "referenced_type" : "_ZTIA_Kc",
   "source_file" : "/external/fmtlib/include/fmt/format.h"
  },
  {
   "linker_set_key" : "_ZN3fmt2v68internal10basic_dataIvE18pow10_significandsE",
   "name" : "fmt::v6::internal::basic_data<void>::pow10_significands",
   "referenced_type" : "_ZTIA_Ky",
   "source_file" : "/external/fmtlib/include/fmt/format.h"
  },
  {
   "linker_set_key" : "_ZN3fmt2v68internal10basic_dataIvE23zero_or_powers_of_10_32E",
   "name" : "fmt::v6::internal::basic_data<void>::zero_or_powers_of_10_32",
   "referenced_type" : "_ZTIA_Kj",
   "source_file" : "/external/fmtlib/include/fmt/format.h"
  },
  {
   "linker_set_key" : "_ZN3fmt2v68internal10basic_dataIvE23zero_or_powers_of_10_64E",
   "name" : "fmt::v6::internal::basic_data<void>::zero_or_powers_of_10_64",
   "referenced_type" : "_ZTIA_Ky",
   "source_file" : "/external/fmtlib/include/fmt/format.h"
  },
  {
   "linker_set_key" : "_ZN3fmt2v68internal10basic_dataIvE5signsE",
   "name" : "fmt::v6::internal::basic_data<void>::signs",
   "referenced_type" : "_ZTIA_Kc",
   "source_file" : "/external/fmtlib/include/fmt/format.h"
  },
  {
   "linker_set_key" : "_ZN3fmt2v68internal10basic_dataIvE6digitsE",
   "name" : "fmt::v6::internal::basic_data<void>::digits",
   "referenced_type" : "_ZTIA_Kc",
   "source_file" : "/external/fmtlib/include/fmt/format.h"
  }
 ],
 "lvalue_reference_types" :
 [
  {
   "alignment" : 4,
   "linker_set_key" : "_ZTIRA28_Kc",
   "name" : "char const (&)[28]",
   "referenced_type" : "_ZTIA28_Kc",
   "self_type" : "_ZTIRA28_Kc",
   "size" : 4,
   "source_file" : "/external/fmtlib/include/fmt/core.h"
  },
  {
   "alignment" : 4,
   "linker_set_key" : "_ZTIRA4_Kc",
   "name" : "char const (&)[4]",
   "referenced_type" : "_ZTIA4_Kc",
   "self_type" : "_ZTIRA4_Kc",
   "size" : 4,
   "source_file" : "/external/fmtlib/include/fmt/core.h"
  },
  {
   "alignment" : 4,
   "linker_set_key" : "_ZTIRA5_Kc",
   "name" : "char const (&)[5]",
   "referenced_type" : "_ZTIA5_Kc",
   "self_type" : "_ZTIRA5_Kc",
   "size" : 4,
   "source_file" : "/external/fmtlib/include/fmt/core.h"
  },
  {
   "alignment" : 4,
   "linker_set_key" : "_ZTIRA7_Kc",
   "name" : "char const (&)[7]",
   "referenced_type" : "_ZTIA7_Kc",
   "self_type" : "_ZTIRA7_Kc",
   "size" : 4,
   "source_file" : "/external/fmtlib/include/fmt/core.h"
  },
  {
   "alignment" : 4,
   "linker_set_key" : "_ZTIRKN3fmt2v612format_errorE",
   "name" : "const fmt::format_error &",
   "referenced_type" : "_ZTIKN3fmt2v612format_errorE",
   "self_type" : "_ZTIRKN3fmt2v612format_errorE",
   "size" : 4,
   "source_file" : "/external/fmtlib/include/fmt/format.h"
  },
  {
   "alignment" : 4,
   "linker_set_key" : "_ZTIRKN3fmt2v612system_errorE",
   "name" : "const fmt::system_error &",
   "referenced_type" : "_ZTIKN3fmt2v612system_errorE",
   "self_type" : "_ZTIRKN3fmt2v612system_errorE",
   "size" : 4,
   "source_file" : "/external/fmtlib/include/fmt/format.h"
  },
  {
   "alignment" : 4,
   "linker_set_key" : "_ZTIRKN3fmt2v616basic_format_argINS0_20basic_format_contextINSt3__120back_insert_iteratorINS0_8internal6bufferIcEEEEcEEEE",
   "name" : "const fmt::basic_format_arg<fmt::basic_format_context<std::back_insert_iterator<fmt::internal::buffer<char> >, char> > &",
   "referenced_type" : "_ZTIKN3fmt2v616basic_format_argINS0_20basic_format_contextINSt3__120back_insert_iteratorINS0_8internal6bufferIcEEEEcEEEE",
   "self_type" : "_ZTIRKN3fmt2v616basic_format_argINS0_20basic_format_contextINSt3__120back_insert_iteratorINS0_8internal6bufferIcEEEEcEEEE",
   "size" : 4,
   "source_file" : "/external/fmtlib/include/fmt/core.h"
  },
  {
   "alignment" : 4,
   "linker_set_key" : "_ZTIRKN3fmt2v616basic_format_argINS0_20basic_format_contextINSt3__120back_insert_iteratorINS0_8internal6bufferIwEEEEwEEEE",
   "name" : "const fmt::basic_format_arg<fmt::basic_format_context<std::back_insert_iterator<fmt::internal::buffer<wchar_t> >, wchar_t> > &",
   "referenced_type" : "_ZTIKN3fmt2v616basic_format_argINS0_20basic_format_contextINSt3__120back_insert_iteratorINS0_8internal6bufferIwEEEEwEEEE",
   "self_type" : "_ZTIRKN3fmt2v616basic_format_argINS0_20basic_format_contextINSt3__120back_insert_iteratorINS0_8internal6bufferIwEEEEwEEEE",
   "size" : 4,
   "source_file" : "/external/fmtlib/include/fmt/core.h"
  },
  {
   "alignment" : 4,
   "linker_set_key" : "_ZTIRKN3fmt2v616format_arg_storeINS0_20basic_format_contextINSt3__120back_insert_iteratorINS0_8internal6bufferIcEEEEcEEJPKciSB_EEE",
   "name" : "const fmt::format_arg_store<fmt::basic_format_context<std::back_insert_iterator<fmt::internal::buffer<char> >, char>, const char *, int, const char *> &",
   "referenced_type" : "_ZTIKN3fmt2v616format_arg_storeINS0_20basic_format_contextINSt3__120back_insert_iteratorINS0_8internal6bufferIcEEEEcEEJPKciSB_EEE",
   "self_type" : "_ZTIRKN3fmt2v616format_arg_storeINS0_20basic_format_contextINSt3__120back_insert_iteratorINS0_8internal6bufferIcEEEEcEEJPKciSB_EEE",
   "size" : 4,
   "source_file" : "/external/fmtlib/include/fmt/core.h"
  },
  {
   "alignment" : 4,
   "linker_set_key" : "_ZTIRKN3fmt2v616format_arg_storeINS0_20basic_format_contextINSt3__120back_insert_iteratorINS0_8internal6bufferIcEEEEcEEJiEEE",
   "name" : "const fmt::format_arg_store<fmt::basic_format_context<std::back_insert_iterator<fmt::internal::buffer<char> >, char>, int> &",
   "referenced_type" : "_ZTIKN3fmt2v616format_arg_storeINS0_20basic_format_contextINSt3__120back_insert_iteratorINS0_8internal6bufferIcEEEEcEEJiEEE",
   "self_type" : "_ZTIRKN3fmt2v616format_arg_storeINS0_20basic_format_contextINSt3__120back_insert_iteratorINS0_8internal6bufferIcEEEEcEEJiEEE",
   "size" : 4,
   "source_file" : "/external/fmtlib/include/fmt/core.h"
  },
  {
   "alignment" : 4,
   "linker_set_key" : "_ZTIRKN3fmt2v616format_arg_storeINS0_20basic_format_contextINSt3__120back_insert_iteratorINS0_8internal6bufferIcEEEEcEEJjEEE",
   "name" : "const fmt::format_arg_store<fmt::basic_format_context<std::back_insert_iterator<fmt::internal::buffer<char> >, char>, unsigned int> &",
   "referenced_type" : "_ZTIKN3fmt2v616format_arg_storeINS0_20basic_format_contextINSt3__120back_insert_iteratorINS0_8internal6bufferIcEEEEcEEJjEEE",
   "self_type" : "_ZTIRKN3fmt2v616format_arg_storeINS0_20basic_format_contextINSt3__120back_insert_iteratorINS0_8internal6bufferIcEEEEcEEJjEEE",
   "size" : 4,
   "source_file" : "/external/fmtlib/include/fmt/core.h"
  },
  {
   "alignment" : 4,
   "linker_set_key" : "_ZTIRKN3fmt2v617basic_format_argsINS0_20basic_format_contextINSt3__120back_insert_iteratorINS0_8internal6bufferIcEEEEcEEEE",
   "name" : "const fmt::basic_format_args<fmt::basic_format_context<std::back_insert_iterator<fmt::internal::buffer<char> >, char> > &",
   "referenced_type" : "_ZTIKN3fmt2v617basic_format_argsINS0_20basic_format_contextINSt3__120back_insert_iteratorINS0_8internal6bufferIcEEEEcEEEE",
   "self_type" : "_ZTIRKN3fmt2v617basic_format_argsINS0_20basic_format_contextINSt3__120back_insert_iteratorINS0_8internal6bufferIcEEEEcEEEE",
   "size" : 4,
   "source_file" : "/external/fmtlib/include/fmt/core.h"
  },
  {
   "alignment" : 4,
   "linker_set_key" : "_ZTIRKN3fmt2v617basic_format_argsINS0_20basic_format_contextINSt3__120back_insert_iteratorINS0_8internal6bufferIwEEEEwEEEE",
   "name" : "const fmt::basic_format_args<fmt::basic_format_context<std::back_insert_iterator<fmt::internal::buffer<wchar_t> >, wchar_t> > &",
   "referenced_type" : "_ZTIKN3fmt2v617basic_format_argsINS0_20basic_format_contextINSt3__120back_insert_iteratorINS0_8internal6bufferIwEEEEwEEEE",
   "self_type" : "_ZTIRKN3fmt2v617basic_format_argsINS0_20basic_format_contextINSt3__120back_insert_iteratorINS0_8internal6bufferIwEEEEwEEEE",
   "size" : 4,
   "source_file" : "/external/fmtlib/include/fmt/core.h"
  },
  {
   "alignment" : 4,
   "linker_set_key" : "_ZTIRKN3fmt2v617basic_string_viewIcEE",
   "name" : "const fmt::basic_string_view<char> &",
   "referenced_type" : "_ZTIKN3fmt2v617basic_string_viewIcEE",
   "self_type" : "_ZTIRKN3fmt2v617basic_string_viewIcEE",
   "size" : 4,
   "source_file" : "/external/fmtlib/include/fmt/core.h"
  },
  {
   "alignment" : 4,
   "linker_set_key" : "_ZTIRKN3fmt2v618basic_format_specsIcEE",
   "name" : "const fmt::basic_format_specs<char> &",
   "referenced_type" : "_ZTIKN3fmt2v618basic_format_specsIcEE",
   "self_type" : "_ZTIRKN3fmt2v618basic_format_specsIcEE",
   "size" : 4,
   "source_file" : "/external/fmtlib/include/fmt/format.h"
  },
  {
   "alignment" : 4,
   "linker_set_key" : "_ZTIRKN3fmt2v618basic_format_specsIwEE",
   "name" : "const fmt::basic_format_specs<wchar_t> &",
   "referenced_type" : "_ZTIKN3fmt2v618basic_format_specsIwEE",
   "self_type" : "_ZTIRKN3fmt2v618basic_format_specsIwEE",
   "size" : 4,
   "source_file" : "/external/fmtlib/include/fmt/format.h"
  },
  {
   "alignment" : 4,
   "linker_set_key" : "_ZTIRKN3fmt2v619basic_memory_bufferIcLj500ENSt3__19allocatorIcEEEE",
   "name" : "const fmt::basic_memory_buffer<char, 500, std::allocator<char> > &",
   "referenced_type" : "_ZTIKN3fmt2v619basic_memory_bufferIcLj500ENSt3__19allocatorIcEEEE",
   "self_type" : "_ZTIRKN3fmt2v619basic_memory_bufferIcLj500ENSt3__19allocatorIcEEEE",
   "size" : 4,
   "source_file" : "/external/fmtlib/include/fmt/format.h"
  },
  {
   "alignment" : 4,
   "linker_set_key" : "_ZTIRKN3fmt2v619basic_memory_bufferIwLj500ENSt3__19allocatorIwEEEE",
   "name" : "const fmt::basic_memory_buffer<wchar_t, 500, std::allocator<wchar_t> > &",
   "referenced_type" : "_ZTIKN3fmt2v619basic_memory_bufferIwLj500ENSt3__19allocatorIwEEEE",
   "self_type" : "_ZTIRKN3fmt2v619basic_memory_bufferIwLj500ENSt3__19allocatorIwEEEE",
   "size" : 4,
   "source_file" : "/external/fmtlib/include/fmt/format.h"
  },
  {
   "alignment" : 4,
   "linker_set_key" : "_ZTIRKN3fmt2v68internal12specs_setterIcEE",
   "name" : "const fmt::internal::specs_setter<char> &",
   "referenced_type" : "_ZTIKN3fmt2v68internal12specs_setterIcEE",
   "self_type" : "_ZTIRKN3fmt2v68internal12specs_setterIcEE",
   "size" : 4,
   "source_file" : "/external/fmtlib/include/fmt/format.h"
  },
  {
   "alignment" : 4,
   "linker_set_key" : "_ZTIRKN3fmt2v68internal12specs_setterIwEE",
   "name" : "const fmt::internal::specs_setter<wchar_t> &",
   "referenced_type" : "_ZTIKN3fmt2v68internal12specs_setterIwEE",
   "self_type" : "_ZTIRKN3fmt2v68internal12specs_setterIwEE",
   "size" : 4,
   "source_file" : "/external/fmtlib/include/fmt/format.h"
  },
  {
   "alignment" : 4,
   "linker_set_key" : "_ZTIRKN3fmt2v68internal13error_handlerE",
   "name" : "const fmt::internal::error_handler &",
   "referenced_type" : "_ZTIKN3fmt2v68internal13error_handlerE",
   "self_type" : "_ZTIRKN3fmt2v68internal13error_handlerE",
   "size" : 4,
   "source_file" : "/external/fmtlib/include/fmt/core.h"
  },
  {
   "alignment" : 4,
   "linker_set_key" : "_ZTIRKN3fmt2v68internal13specs_handlerINS0_26basic_format_parse_contextIcNS1_13error_handlerEEENS0_20basic_format_contextINSt3__120back_insert_iteratorINS1_6bufferIcEEEEcEEEE",
   "name" : "const fmt::internal::specs_handler<fmt::basic_format_parse_context<char, fmt::internal::error_handler>, fmt::basic_format_context<std::back_insert_iterator<fmt::internal::buffer<char> >, char> > &",
   "referenced_type" : "_ZTIKN3fmt2v68internal13specs_handlerINS0_26basic_format_parse_contextIcNS1_13error_handlerEEENS0_20basic_format_contextINSt3__120back_insert_iteratorINS1_6bufferIcEEEEcEEEE",
   "self_type" : "_ZTIRKN3fmt2v68internal13specs_handlerINS0_26basic_format_parse_contextIcNS1_13error_handlerEEENS0_20basic_format_contextINSt3__120back_insert_iteratorINS1_6bufferIcEEEEcEEEE",
   "size" : 4,
   "source_file" : "/external/fmtlib/include/fmt/format.h"
  },
  {
   "alignment" : 4,
   "linker_set_key" : "_ZTIRKN3fmt2v68internal13specs_handlerINS0_26basic_format_parse_contextIwNS1_13error_handlerEEENS0_20basic_format_contextINSt3__120back_insert_iteratorINS1_6bufferIwEEEEwEEEE",
   "name" : "const fmt::internal::specs_handler<fmt::basic_format_parse_context<wchar_t, fmt::internal::error_handler>, fmt::basic_format_context<std::back_insert_iterator<fmt::internal::buffer<wchar_t> >, wchar_t> > &",
   "referenced_type" : "_ZTIKN3fmt2v68internal13specs_handlerINS0_26basic_format_parse_contextIwNS1_13error_handlerEEENS0_20basic_format_contextINSt3__120back_insert_iteratorINS1_6bufferIwEEEEwEEEE",
   "self_type" : "_ZTIRKN3fmt2v68internal13specs_handlerINS0_26basic_format_parse_contextIwNS1_13error_handlerEEENS0_20basic_format_contextINSt3__120back_insert_iteratorINS1_6bufferIwEEEEwEEEE",
   "size" : 4,
   "source_file" : "/external/fmtlib/include/fmt/format.h"
  },
  {
   "alignment" : 4,
   "linker_set_key" : "_ZTIRKN3fmt2v68internal6bigintE",
   "name" : "const fmt::internal::bigint &",
   "referenced_type" : "_ZTIKN3fmt2v68internal6bigintE",
   "self_type" : "_ZTIRKN3fmt2v68internal6bigintE",
   "size" : 4,
   "source_file" : "/external/fmtlib/include/fmt/format-inl.h"
  },
  {
   "alignment" : 4,
   "linker_set_key" : "_ZTIRKN7android4base14unique_fd_implINS0_13DefaultCloserEEE",
   "name" : "const android::base::unique_fd_impl<android::base::DefaultCloser> &",
   "referenced_type" : "_ZTIKN7android4base14unique_fd_implINS0_13DefaultCloserEEE",
   "self_type" : "_ZTIRKN7android4base14unique_fd_implINS0_13DefaultCloserEEE",
   "size" : 4,
   "source_file" : "/system/core/base/include/android-base/unique_fd.h"
  },
  {
   "alignment" : 4,
   "linker_set_key" : "_ZTIRKN7android4base5TimerE",
   "name" : "const android::base::Timer &",
   "referenced_type" : "_ZTIKN7android4base5TimerE",
   "self_type" : "_ZTIRKN7android4base5TimerE",
   "size" : 4,
   "source_file" : "/system/core/base/include/android-base/chrono_utils.h"
  },
  {
   "alignment" : 4,
   "linker_set_key" : "_ZTIRKN7android4base7AllPids11PidIteratorE",
   "name" : "const android::base::AllPids::PidIterator &",
   "referenced_type" : "_ZTIKN7android4base7AllPids11PidIteratorE",
   "self_type" : "_ZTIRKN7android4base7AllPids11PidIteratorE",
   "size" : 4,
   "source_file" : "/system/core/base/include/android-base/process.h"
  },
  {
   "alignment" : 4,
   "linker_set_key" : "_ZTIRKNSt3__112basic_stringIcNS_11char_traitsIcEENS_9allocatorIcEEEE",
   "name" : "const std::basic_string<char, std::char_traits<char>, std::allocator<char> > &",
   "referenced_type" : "_ZTIKNSt3__112basic_stringIcNS_11char_traitsIcEENS_9allocatorIcEEEE",
   "self_type" : "_ZTIRKNSt3__112basic_stringIcNS_11char_traitsIcEENS_9allocatorIcEEEE",
   "size" : 4,
   "source_file" : "/system/core/base/include/android-base/file.h"
  },
  {
   "alignment" : 4,
   "linker_set_key" : "_ZTIRKNSt3__16localeE",
   "name" : "const std::locale &",
   "referenced_type" : "_ZTIKNSt3__16localeE",
   "self_type" : "_ZTIRKNSt3__16localeE",
   "size" : 4,
   "source_file" : "/external/fmtlib/include/fmt/format-inl.h"
  },
  {
   "alignment" : 4,
   "linker_set_key" : "_ZTIRKNSt3__16vectorINS_12basic_stringIcNS_11char_traitsIcEENS_9allocatorIcEEEENS4_IS6_EEEE",
   "name" : "const std::vector<std::basic_string<char, std::char_traits<char>, std::allocator<char> >, std::allocator<std::basic_string<char, std::char_traits<char>, std::allocator<char> > > > &",
   "referenced_type" : "_ZTIKNSt3__16vectorINS_12basic_stringIcNS_11char_traitsIcEENS_9allocatorIcEEEENS4_IS6_EEEE",
   "self_type" : "_ZTIRKNSt3__16vectorINS_12basic_stringIcNS_11char_traitsIcEENS_9allocatorIcEEEENS4_IS6_EEEE",
   "size" : 4,
   "source_file" : "/system/core/base/include/android-base/strings.h"
  },
  {
   "alignment" : 4,
   "linker_set_key" : "_ZTIRKNSt3__16vectorIPKcNS_9allocatorIS2_EEEE",
   "name" : "const std::vector<const char *, std::allocator<const char *> > &",
   "referenced_type" : "_ZTIKNSt3__16vectorIPKcNS_9allocatorIS2_EEEE",
   "self_type" : "_ZTIRKNSt3__16vectorIPKcNS_9allocatorIS2_EEEE",
   "size" : 4,
   "source_file" : "/system/core/base/include/android-base/strings.h"
  },
  {
   "alignment" : 4,
   "linker_set_key" : "_ZTIRKNSt3__16vectorIiNS_9allocatorIiEEEE",
   "name" : "const std::vector<int, std::allocator<int> > &",
   "referenced_type" : "_ZTIKNSt3__16vectorIiNS_9allocatorIiEEEE",
   "self_type" : "_ZTIRKNSt3__16vectorIiNS_9allocatorIiEEEE",
   "size" : 4,
   "source_file" : "/system/core/base/include/android-base/cmsg.h"
  },
  {
   "alignment" : 4,
   "linker_set_key" : "_ZTIRKNSt3__19allocatorIcEE",
   "name" : "const std::allocator<char> &",
   "referenced_type" : "_ZTIKNSt3__19allocatorIcEE",
   "self_type" : "_ZTIRKNSt3__19allocatorIcEE",
   "size" : 4,
   "source_file" : "/external/fmtlib/include/fmt/format.h"
  },
  {
   "alignment" : 4,
   "linker_set_key" : "_ZTIRKNSt3__19allocatorIjEE",
   "name" : "const std::allocator<unsigned int> &",
   "referenced_type" : "_ZTIKNSt3__19allocatorIjEE",
   "self_type" : "_ZTIRKNSt3__19allocatorIjEE",
   "size" : 4,
   "source_file" : "/external/fmtlib/include/fmt/format.h"
  },
  {
   "alignment" : 4,
   "linker_set_key" : "_ZTIRKNSt3__19allocatorIwEE",
   "name" : "const std::allocator<wchar_t> &",
   "referenced_type" : "_ZTIKNSt3__19allocatorIwEE",
   "self_type" : "_ZTIRKNSt3__19allocatorIwEE",
   "size" : 4,
   "source_file" : "/external/fmtlib/include/fmt/format.h"
  },
  {
   "alignment" : 4,
   "linker_set_key" : "_ZTIRKPKc",
   "name" : "const char *const &",
   "referenced_type" : "_ZTIKPKc",
   "self_type" : "_ZTIRKPKc",
   "size" : 4,
   "source_file" : "/external/fmtlib/include/fmt/core.h"
  },
  {
   "alignment" : 4,
   "linker_set_key" : "_ZTIRKPKv",
   "name" : "const void *const &",
   "referenced_type" : "_ZTIKPKv",
   "self_type" : "_ZTIRKPKv",
   "size" : 4,
   "source_file" : "/external/fmtlib/include/fmt/format.h"
  },
  {
   "alignment" : 4,
   "linker_set_key" : "_ZTIRKc",
   "name" : "const char &",
   "referenced_type" : "_ZTIKc",
   "self_type" : "_ZTIRKc",
   "size" : 4,
   "source_file" : "/external/fmtlib/include/fmt/core.h"
  },
  {
   "alignment" : 4,
   "linker_set_key" : "_ZTIRKd",
   "name" : "const double &",
   "referenced_type" : "_ZTIKd",
   "self_type" : "_ZTIRKd",
   "size" : 4,
   "source_file" : "/external/fmtlib/include/fmt/format.h"
  },
  {
   "alignment" : 4,
   "linker_set_key" : "_ZTIRKe",
   "name" : "const long double &",
   "referenced_type" : "_ZTIKe",
   "self_type" : "_ZTIRKe",
   "size" : 4,
   "source_file" : "/external/fmtlib/include/fmt/format.h"
  },
  {
   "alignment" : 4,
   "linker_set_key" : "_ZTIRKi",
   "name" : "const int &",
   "referenced_type" : "_ZTIKi",
   "self_type" : "_ZTIRKi",
   "size" : 4,
   "source_file" : "/external/fmtlib/include/fmt/core.h"
  },
  {
   "alignment" : 4,
   "linker_set_key" : "_ZTIRKj",
   "name" : "const unsigned int &",
   "referenced_type" : "_ZTIKj",
   "self_type" : "_ZTIRKj",
   "size" : 4,
   "source_file" : "/external/fmtlib/include/fmt/core.h"
  },
  {
   "alignment" : 4,
   "linker_set_key" : "_ZTIRKw",
   "name" : "const wchar_t &",
   "referenced_type" : "_ZTIKw",
   "self_type" : "_ZTIRKw",
   "size" : 4,
   "source_file" : "/external/fmtlib/include/fmt/format.h"
  },
  {
   "alignment" : 4,
   "linker_set_key" : "_ZTIRN3fmt2v611format_argsE",
   "name" : "fmt::format_args &",
   "referenced_type" : "_ZTIN3fmt2v611format_argsE",
   "self_type" : "_ZTIRN3fmt2v611format_argsE",
   "size" : 4,
   "source_file" : "/external/fmtlib/include/fmt/core.h"
  },
  {
   "alignment" : 4,
   "linker_set_key" : "_ZTIRN3fmt2v612format_errorE",
   "name" : "fmt::format_error &",
   "referenced_type" : "_ZTIN3fmt2v612format_errorE",
   "self_type" : "_ZTIRN3fmt2v612format_errorE",
   "size" : 4,
   "source_file" : "/external/fmtlib/include/fmt/format.h"
  },
  {
   "alignment" : 4,
   "linker_set_key" : "_ZTIRN3fmt2v612system_errorE",
   "name" : "fmt::system_error &",
   "referenced_type" : "_ZTIN3fmt2v612system_errorE",
   "self_type" : "_ZTIRN3fmt2v612system_errorE",
   "size" : 4,
   "source_file" : "/external/fmtlib/include/fmt/format.h"
  },
  {
   "alignment" : 4,
   "linker_set_key" : "_ZTIRN3fmt2v614format_handlerINS0_13arg_formatterINS0_12buffer_rangeIcEEEEcNS0_20basic_format_contextINSt3__120back_insert_iteratorINS0_8internal6bufferIcEEEEcEEEE",
   "name" : "fmt::format_handler<fmt::arg_formatter<fmt::buffer_range<char> >, char, fmt::basic_format_context<std::back_insert_iterator<fmt::internal::buffer<char> >, char> > &",
   "referenced_type" : "_ZTIN3fmt2v614format_handlerINS0_13arg_formatterINS0_12buffer_rangeIcEEEEcNS0_20basic_format_contextINSt3__120back_insert_iteratorINS0_8internal6bufferIcEEEEcEEEE",
   "self_type" : "_ZTIRN3fmt2v614format_handlerINS0_13arg_formatterINS0_12buffer_rangeIcEEEEcNS0_20basic_format_contextINSt3__120back_insert_iteratorINS0_8internal6bufferIcEEEEcEEEE",
   "size" : 4,
   "source_file" : "/external/fmtlib/include/fmt/format.h"
  },
  {
   "alignment" : 4,
   "linker_set_key" : "_ZTIRN3fmt2v614format_handlerINS0_13arg_formatterINS0_12buffer_rangeIwEEEEwNS0_20basic_format_contextINSt3__120back_insert_iteratorINS0_8internal6bufferIwEEEEwEEEE",
   "name" : "fmt::format_handler<fmt::arg_formatter<fmt::buffer_range<wchar_t> >, wchar_t, fmt::basic_format_context<std::back_insert_iterator<fmt::internal::buffer<wchar_t> >, wchar_t> > &",
   "referenced_type" : "_ZTIN3fmt2v614format_handlerINS0_13arg_formatterINS0_12buffer_rangeIwEEEEwNS0_20basic_format_contextINSt3__120back_insert_iteratorINS0_8internal6bufferIwEEEEwEEEE",
   "self_type" : "_ZTIRN3fmt2v614format_handlerINS0_13arg_formatterINS0_12buffer_rangeIwEEEEwNS0_20basic_format_contextINSt3__120back_insert_iteratorINS0_8internal6bufferIwEEEEwEEEE",
   "size" : 4,
   "source_file" : "/external/fmtlib/include/fmt/format.h"
  },
  {
   "alignment" : 4,
   "linker_set_key" : "_ZTIRN3fmt2v618basic_format_specsIcEE",
   "name" : "fmt::basic_format_specs<char> &",
   "referenced_type" : "_ZTIN3fmt2v618basic_format_specsIcEE",
   "self_type" : "_ZTIRN3fmt2v618basic_format_specsIcEE",
   "size" : 4,
   "source_file" : "/external/fmtlib/include/fmt/format.h"
  },
  {
   "alignment" : 4,
   "linker_set_key" : "_ZTIRN3fmt2v618basic_format_specsIwEE",
   "name" : "fmt::basic_format_specs<wchar_t> &",
   "referenced_type" : "_ZTIN3fmt2v618basic_format_specsIwEE",
   "self_type" : "_ZTIRN3fmt2v618basic_format_specsIwEE",
   "size" : 4,
   "source_file" : "/external/fmtlib/include/fmt/format.h"
  },
  {
   "alignment" : 4,
   "linker_set_key" : "_ZTIRN3fmt2v619basic_memory_bufferIjLj32ENSt3__19allocatorIjEEEE",
   "name" : "fmt::basic_memory_buffer<unsigned int, 32, std::allocator<unsigned int> > &",
   "referenced_type" : "_ZTIN3fmt2v619basic_memory_bufferIjLj32ENSt3__19allocatorIjEEEE",
   "self_type" : "_ZTIRN3fmt2v619basic_memory_bufferIjLj32ENSt3__19allocatorIjEEEE",
   "size" : 4,
   "source_file" : "/external/fmtlib/include/fmt/format.h"
  },
  {
   "alignment" : 4,
   "linker_set_key" : "_ZTIRN3fmt2v620basic_format_contextINSt3__120back_insert_iteratorINS0_8internal6bufferIcEEEEcEE",
   "name" : "fmt::basic_format_context<std::back_insert_iterator<fmt::internal::buffer<char> >, char> &",
   "referenced_type" : "_ZTIN3fmt2v620basic_format_contextINSt3__120back_insert_iteratorINS0_8internal6bufferIcEEEEcEE",
   "self_type" : "_ZTIRN3fmt2v620basic_format_contextINSt3__120back_insert_iteratorINS0_8internal6bufferIcEEEEcEE",
   "size" : 4,
   "source_file" : "/external/fmtlib/include/fmt/core.h"
  },
  {
   "alignment" : 4,
   "linker_set_key" : "_ZTIRN3fmt2v620basic_format_contextINSt3__120back_insert_iteratorINS0_8internal6bufferIwEEEEwEE",
   "name" : "fmt::basic_format_context<std::back_insert_iterator<fmt::internal::buffer<wchar_t> >, wchar_t> &",
   "referenced_type" : "_ZTIN3fmt2v620basic_format_contextINSt3__120back_insert_iteratorINS0_8internal6bufferIwEEEEwEE",
   "self_type" : "_ZTIRN3fmt2v620basic_format_contextINSt3__120back_insert_iteratorINS0_8internal6bufferIwEEEEwEE",
   "size" : 4,
   "source_file" : "/external/fmtlib/include/fmt/core.h"
  },
  {
   "alignment" : 4,
   "linker_set_key" : "_ZTIRN3fmt2v626basic_format_parse_contextIcNS0_8internal13error_handlerEEE",
   "name" : "fmt::basic_format_parse_context<char, fmt::internal::error_handler> &",
   "referenced_type" : "_ZTIN3fmt2v626basic_format_parse_contextIcNS0_8internal13error_handlerEEE",
   "self_type" : "_ZTIRN3fmt2v626basic_format_parse_contextIcNS0_8internal13error_handlerEEE",
   "size" : 4,
   "source_file" : "/external/fmtlib/include/fmt/core.h"
  },
  {
   "alignment" : 4,
   "linker_set_key" : "_ZTIRN3fmt2v626basic_format_parse_contextIwNS0_8internal13error_handlerEEE",
   "name" : "fmt::basic_format_parse_context<wchar_t, fmt::internal::error_handler> &",
   "referenced_type" : "_ZTIN3fmt2v626basic_format_parse_contextIwNS0_8internal13error_handlerEEE",
   "self_type" : "_ZTIRN3fmt2v626basic_format_parse_contextIwNS0_8internal13error_handlerEEE",
   "size" : 4,
   "source_file" : "/external/fmtlib/include/fmt/core.h"
  },
  {
   "alignment" : 4,
   "linker_set_key" : "_ZTIRN3fmt2v68internal10id_adapterIRNS0_14format_handlerINS0_13arg_formatterINS0_12buffer_rangeIcEEEEcNS0_20basic_format_contextINSt3__120back_insert_iteratorINS1_6bufferIcEEEEcEEEEcEE",
   "name" : "fmt::internal::id_adapter<fmt::format_handler<fmt::arg_formatter<fmt::buffer_range<char> >, char, fmt::basic_format_context<std::back_insert_iterator<fmt::internal::buffer<char> >, char> > &, char> &",
   "referenced_type" : "_ZTIN3fmt2v68internal10id_adapterIRNS0_14format_handlerINS0_13arg_formatterINS0_12buffer_rangeIcEEEEcNS0_20basic_format_contextINSt3__120back_insert_iteratorINS1_6bufferIcEEEEcEEEEcEE",
   "self_type" : "_ZTIRN3fmt2v68internal10id_adapterIRNS0_14format_handlerINS0_13arg_formatterINS0_12buffer_rangeIcEEEEcNS0_20basic_format_contextINSt3__120back_insert_iteratorINS1_6bufferIcEEEEcEEEEcEE",
   "size" : 4,
   "source_file" : "/external/fmtlib/include/fmt/format.h"
  },
  {
   "alignment" : 4,
   "linker_set_key" : "_ZTIRN3fmt2v68internal10id_adapterIRNS0_14format_handlerINS0_13arg_formatterINS0_12buffer_rangeIwEEEEwNS0_20basic_format_contextINSt3__120back_insert_iteratorINS1_6bufferIwEEEEwEEEEwEE",
   "name" : "fmt::internal::id_adapter<fmt::format_handler<fmt::arg_formatter<fmt::buffer_range<wchar_t> >, wchar_t, fmt::basic_format_context<std::back_insert_iterator<fmt::internal::buffer<wchar_t> >, wchar_t> > &, wchar_t> &",
   "referenced_type" : "_ZTIN3fmt2v68internal10id_adapterIRNS0_14format_handlerINS0_13arg_formatterINS0_12buffer_rangeIwEEEEwNS0_20basic_format_contextINSt3__120back_insert_iteratorINS1_6bufferIwEEEEwEEEEwEE",
   "self_type" : "_ZTIRN3fmt2v68internal10id_adapterIRNS0_14format_handlerINS0_13arg_formatterINS0_12buffer_rangeIwEEEEwNS0_20basic_format_contextINSt3__120back_insert_iteratorINS1_6bufferIwEEEEwEEEEwEE",
   "size" : 4,
   "source_file" : "/external/fmtlib/include/fmt/format.h"
  },
  {
   "alignment" : 4,
   "linker_set_key" : "_ZTIRN3fmt2v68internal12basic_writerINS0_12buffer_rangeIcEEE10int_writerIcNS0_18basic_format_specsIcEEEE",
   "name" : "fmt::internal::basic_writer<buffer_range<char> >::int_writer<char, fmt::basic_format_specs<char> > &",
   "referenced_type" : "_ZTIN3fmt2v68internal12basic_writerINS0_12buffer_rangeIcEEE10int_writerIcNS0_18basic_format_specsIcEEEE",
   "self_type" : "_ZTIRN3fmt2v68internal12basic_writerINS0_12buffer_rangeIcEEE10int_writerIcNS0_18basic_format_specsIcEEEE",
   "size" : 4,
   "source_file" : "/external/fmtlib/include/fmt/format.h"
  },
  {
   "alignment" : 4,
   "linker_set_key" : "_ZTIRN3fmt2v68internal12basic_writerINS0_12buffer_rangeIcEEE10int_writerIiNS0_18basic_format_specsIcEEEE",
   "name" : "fmt::internal::basic_writer<buffer_range<char> >::int_writer<int, fmt::basic_format_specs<char> > &",
   "referenced_type" : "_ZTIN3fmt2v68internal12basic_writerINS0_12buffer_rangeIcEEE10int_writerIiNS0_18basic_format_specsIcEEEE",
   "self_type" : "_ZTIRN3fmt2v68internal12basic_writerINS0_12buffer_rangeIcEEE10int_writerIiNS0_18basic_format_specsIcEEEE",
   "size" : 4,
   "source_file" : "/external/fmtlib/include/fmt/format.h"
  },
  {
   "alignment" : 4,
   "linker_set_key" : "_ZTIRN3fmt2v68internal12basic_writerINS0_12buffer_rangeIcEEE10int_writerIjNS0_18basic_format_specsIcEEEE",
   "name" : "fmt::internal::basic_writer<buffer_range<char> >::int_writer<unsigned int, fmt::basic_format_specs<char> > &",
   "referenced_type" : "_ZTIN3fmt2v68internal12basic_writerINS0_12buffer_rangeIcEEE10int_writerIjNS0_18basic_format_specsIcEEEE",
   "self_type" : "_ZTIRN3fmt2v68internal12basic_writerINS0_12buffer_rangeIcEEE10int_writerIjNS0_18basic_format_specsIcEEEE",
   "size" : 4,
   "source_file" : "/external/fmtlib/include/fmt/format.h"
  },
  {
   "alignment" : 4,
   "linker_set_key" : "_ZTIRN3fmt2v68internal12basic_writerINS0_12buffer_rangeIcEEE10int_writerIxNS0_18basic_format_specsIcEEEE",
   "name" : "fmt::internal::basic_writer<buffer_range<char> >::int_writer<long long, fmt::basic_format_specs<char> > &",
   "referenced_type" : "_ZTIN3fmt2v68internal12basic_writerINS0_12buffer_rangeIcEEE10int_writerIxNS0_18basic_format_specsIcEEEE",
   "self_type" : "_ZTIRN3fmt2v68internal12basic_writerINS0_12buffer_rangeIcEEE10int_writerIxNS0_18basic_format_specsIcEEEE",
   "size" : 4,
   "source_file" : "/external/fmtlib/include/fmt/format.h"
  },
  {
   "alignment" : 4,
   "linker_set_key" : "_ZTIRN3fmt2v68internal12basic_writerINS0_12buffer_rangeIcEEE10int_writerIyNS0_18basic_format_specsIcEEEE",
   "name" : "fmt::internal::basic_writer<buffer_range<char> >::int_writer<unsigned long long, fmt::basic_format_specs<char> > &",
   "referenced_type" : "_ZTIN3fmt2v68internal12basic_writerINS0_12buffer_rangeIcEEE10int_writerIyNS0_18basic_format_specsIcEEEE",
   "self_type" : "_ZTIRN3fmt2v68internal12basic_writerINS0_12buffer_rangeIcEEE10int_writerIyNS0_18basic_format_specsIcEEEE",
   "size" : 4,
   "source_file" : "/external/fmtlib/include/fmt/format.h"
  },
  {
   "alignment" : 4,
   "linker_set_key" : "_ZTIRN3fmt2v68internal12basic_writerINS0_12buffer_rangeIcEEE14pointer_writerIjEE",
   "name" : "fmt::internal::basic_writer<buffer_range<char> >::pointer_writer<unsigned int> &",
   "referenced_type" : "_ZTIN3fmt2v68internal12basic_writerINS0_12buffer_rangeIcEEE14pointer_writerIjEE",
   "self_type" : "_ZTIRN3fmt2v68internal12basic_writerINS0_12buffer_rangeIcEEE14pointer_writerIjEE",
   "size" : 4,
   "source_file" : "/external/fmtlib/include/fmt/format.h"
  },
  {
   "alignment" : 4,
   "linker_set_key" : "_ZTIRN3fmt2v68internal12basic_writerINS0_12buffer_rangeIcEEEE",
   "name" : "fmt::internal::basic_writer<fmt::buffer_range<char> > &",
   "referenced_type" : "_ZTIN3fmt2v68internal12basic_writerINS0_12buffer_rangeIcEEEE",
   "self_type" : "_ZTIRN3fmt2v68internal12basic_writerINS0_12buffer_rangeIcEEEE",
   "size" : 4,
   "source_file" : "/external/fmtlib/include/fmt/format.h"
  },
  {
   "alignment" : 4,
   "linker_set_key" : "_ZTIRN3fmt2v68internal12basic_writerINS0_12buffer_rangeIwEEE10int_writerIiNS0_18basic_format_specsIwEEEE",
   "name" : "fmt::internal::basic_writer<buffer_range<wchar_t> >::int_writer<int, fmt::basic_format_specs<wchar_t> > &",
   "referenced_type" : "_ZTIN3fmt2v68internal12basic_writerINS0_12buffer_rangeIwEEE10int_writerIiNS0_18basic_format_specsIwEEEE",
   "self_type" : "_ZTIRN3fmt2v68internal12basic_writerINS0_12buffer_rangeIwEEE10int_writerIiNS0_18basic_format_specsIwEEEE",
   "size" : 4,
   "source_file" : "/external/fmtlib/include/fmt/format.h"
  },
  {
   "alignment" : 4,
   "linker_set_key" : "_ZTIRN3fmt2v68internal12basic_writerINS0_12buffer_rangeIwEEE10int_writerIjNS0_18basic_format_specsIwEEEE",
   "name" : "fmt::internal::basic_writer<buffer_range<wchar_t> >::int_writer<unsigned int, fmt::basic_format_specs<wchar_t> > &",
   "referenced_type" : "_ZTIN3fmt2v68internal12basic_writerINS0_12buffer_rangeIwEEE10int_writerIjNS0_18basic_format_specsIwEEEE",
   "self_type" : "_ZTIRN3fmt2v68internal12basic_writerINS0_12buffer_rangeIwEEE10int_writerIjNS0_18basic_format_specsIwEEEE",
   "size" : 4,
   "source_file" : "/external/fmtlib/include/fmt/format.h"
  },
  {
   "alignment" : 4,
   "linker_set_key" : "_ZTIRN3fmt2v68internal12basic_writerINS0_12buffer_rangeIwEEE10int_writerIwNS0_18basic_format_specsIwEEEE",
   "name" : "fmt::internal::basic_writer<buffer_range<wchar_t> >::int_writer<wchar_t, fmt::basic_format_specs<wchar_t> > &",
   "referenced_type" : "_ZTIN3fmt2v68internal12basic_writerINS0_12buffer_rangeIwEEE10int_writerIwNS0_18basic_format_specsIwEEEE",
   "self_type" : "_ZTIRN3fmt2v68internal12basic_writerINS0_12buffer_rangeIwEEE10int_writerIwNS0_18basic_format_specsIwEEEE",
   "size" : 4,
   "source_file" : "/external/fmtlib/include/fmt/format.h"
  },
  {
   "alignment" : 4,
   "linker_set_key" : "_ZTIRN3fmt2v68internal12basic_writerINS0_12buffer_rangeIwEEE10int_writerIxNS0_18basic_format_specsIwEEEE",
   "name" : "fmt::internal::basic_writer<buffer_range<wchar_t> >::int_writer<long long, fmt::basic_format_specs<wchar_t> > &",
   "referenced_type" : "_ZTIN3fmt2v68internal12basic_writerINS0_12buffer_rangeIwEEE10int_writerIxNS0_18basic_format_specsIwEEEE",
   "self_type" : "_ZTIRN3fmt2v68internal12basic_writerINS0_12buffer_rangeIwEEE10int_writerIxNS0_18basic_format_specsIwEEEE",
   "size" : 4,
   "source_file" : "/external/fmtlib/include/fmt/format.h"
  },
  {
   "alignment" : 4,
   "linker_set_key" : "_ZTIRN3fmt2v68internal12basic_writerINS0_12buffer_rangeIwEEE10int_writerIyNS0_18basic_format_specsIwEEEE",
   "name" : "fmt::internal::basic_writer<buffer_range<wchar_t> >::int_writer<unsigned long long, fmt::basic_format_specs<wchar_t> > &",
   "referenced_type" : "_ZTIN3fmt2v68internal12basic_writerINS0_12buffer_rangeIwEEE10int_writerIyNS0_18basic_format_specsIwEEEE",
   "self_type" : "_ZTIRN3fmt2v68internal12basic_writerINS0_12buffer_rangeIwEEE10int_writerIyNS0_18basic_format_specsIwEEEE",
   "size" : 4,
   "source_file" : "/external/fmtlib/include/fmt/format.h"
  },
  {
   "alignment" : 4,
   "linker_set_key" : "_ZTIRN3fmt2v68internal12basic_writerINS0_12buffer_rangeIwEEE14pointer_writerIjEE",
   "name" : "fmt::internal::basic_writer<buffer_range<wchar_t> >::pointer_writer<unsigned int> &",
   "referenced_type" : "_ZTIN3fmt2v68internal12basic_writerINS0_12buffer_rangeIwEEE14pointer_writerIjEE",
   "self_type" : "_ZTIRN3fmt2v68internal12basic_writerINS0_12buffer_rangeIwEEE14pointer_writerIjEE",
   "size" : 4,
   "source_file" : "/external/fmtlib/include/fmt/format.h"
  },
  {
   "alignment" : 4,
   "linker_set_key" : "_ZTIRN3fmt2v68internal12basic_writerINS0_12buffer_rangeIwEEEE",
   "name" : "fmt::internal::basic_writer<fmt::buffer_range<wchar_t> > &",
   "referenced_type" : "_ZTIN3fmt2v68internal12basic_writerINS0_12buffer_rangeIwEEEE",
   "self_type" : "_ZTIRN3fmt2v68internal12basic_writerINS0_12buffer_rangeIwEEEE",
   "size" : 4,
   "source_file" : "/external/fmtlib/include/fmt/format.h"
  },
  {
   "alignment" : 4,
   "linker_set_key" : "_ZTIRN3fmt2v68internal13error_handlerE",
   "name" : "fmt::internal::error_handler &",
   "referenced_type" : "_ZTIN3fmt2v68internal13error_handlerE",
   "self_type" : "_ZTIRN3fmt2v68internal13error_handlerE",
   "size" : 4,
   "source_file" : "/external/fmtlib/include/fmt/format.h"
  },
  {
   "alignment" : 4,
   "linker_set_key" : "_ZTIRN3fmt2v68internal13fixed_handlerE",
   "name" : "fmt::internal::fixed_handler &",
   "referenced_type" : "_ZTIN3fmt2v68internal13fixed_handlerE",
   "self_type" : "_ZTIRN3fmt2v68internal13fixed_handlerE",
   "size" : 4,
   "source_file" : "/external/fmtlib/include/fmt/format-inl.h"
  },
  {
   "alignment" : 4,
   "linker_set_key" : "_ZTIRN3fmt2v68internal13specs_checkerINS1_13specs_handlerINS0_26basic_format_parse_contextIcNS1_13error_handlerEEENS0_20basic_format_contextINSt3__120back_insert_iteratorINS1_6bufferIcEEEEcEEEEEE",
   "name" : "fmt::internal::specs_checker<fmt::internal::specs_handler<fmt::basic_format_parse_context<char, fmt::internal::error_handler>, fmt::basic_format_context<std::back_insert_iterator<fmt::internal::buffer<char> >, char> > > &",
   "referenced_type" : "_ZTIN3fmt2v68internal13specs_checkerINS1_13specs_handlerINS0_26basic_format_parse_contextIcNS1_13error_handlerEEENS0_20basic_format_contextINSt3__120back_insert_iteratorINS1_6bufferIcEEEEcEEEEEE",
   "self_type" : "_ZTIRN3fmt2v68internal13specs_checkerINS1_13specs_handlerINS0_26basic_format_parse_contextIcNS1_13error_handlerEEENS0_20basic_format_contextINSt3__120back_insert_iteratorINS1_6bufferIcEEEEcEEEEEE",
   "size" : 4,
   "source_file" : "/external/fmtlib/include/fmt/format.h"
  },
  {
   "alignment" : 4,
   "linker_set_key" : "_ZTIRN3fmt2v68internal13specs_checkerINS1_13specs_handlerINS0_26basic_format_parse_contextIwNS1_13error_handlerEEENS0_20basic_format_contextINSt3__120back_insert_iteratorINS1_6bufferIwEEEEwEEEEEE",
   "name" : "fmt::internal::specs_checker<fmt::internal::specs_handler<fmt::basic_format_parse_context<wchar_t, fmt::internal::error_handler>, fmt::basic_format_context<std::back_insert_iterator<fmt::internal::buffer<wchar_t> >, wchar_t> > > &",
   "referenced_type" : "_ZTIN3fmt2v68internal13specs_checkerINS1_13specs_handlerINS0_26basic_format_parse_contextIwNS1_13error_handlerEEENS0_20basic_format_contextINSt3__120back_insert_iteratorINS1_6bufferIwEEEEwEEEEEE",
   "self_type" : "_ZTIRN3fmt2v68internal13specs_checkerINS1_13specs_handlerINS0_26basic_format_parse_contextIwNS1_13error_handlerEEENS0_20basic_format_contextINSt3__120back_insert_iteratorINS1_6bufferIwEEEEwEEEEEE",
   "size" : 4,
   "source_file" : "/external/fmtlib/include/fmt/format.h"
  },
  {
   "alignment" : 4,
   "linker_set_key" : "_ZTIRN3fmt2v68internal13specs_handlerINS0_26basic_format_parse_contextIcNS1_13error_handlerEEENS0_20basic_format_contextINSt3__120back_insert_iteratorINS1_6bufferIcEEEEcEEEE",
   "name" : "fmt::internal::specs_handler<fmt::basic_format_parse_context<char, fmt::internal::error_handler>, fmt::basic_format_context<std::back_insert_iterator<fmt::internal::buffer<char> >, char> > &",
   "referenced_type" : "_ZTIN3fmt2v68internal13specs_handlerINS0_26basic_format_parse_contextIcNS1_13error_handlerEEENS0_20basic_format_contextINSt3__120back_insert_iteratorINS1_6bufferIcEEEEcEEEE",
   "self_type" : "_ZTIRN3fmt2v68internal13specs_handlerINS0_26basic_format_parse_contextIcNS1_13error_handlerEEENS0_20basic_format_contextINSt3__120back_insert_iteratorINS1_6bufferIcEEEEcEEEE",
   "size" : 4,
   "source_file" : "/external/fmtlib/include/fmt/format.h"
  },
  {
   "alignment" : 4,
   "linker_set_key" : "_ZTIRN3fmt2v68internal13specs_handlerINS0_26basic_format_parse_contextIwNS1_13error_handlerEEENS0_20basic_format_contextINSt3__120back_insert_iteratorINS1_6bufferIwEEEEwEEEE",
   "name" : "fmt::internal::specs_handler<fmt::basic_format_parse_context<wchar_t, fmt::internal::error_handler>, fmt::basic_format_context<std::back_insert_iterator<fmt::internal::buffer<wchar_t> >, wchar_t> > &",
   "referenced_type" : "_ZTIN3fmt2v68internal13specs_handlerINS0_26basic_format_parse_contextIwNS1_13error_handlerEEENS0_20basic_format_contextINSt3__120back_insert_iteratorINS1_6bufferIwEEEEwEEEE",
   "self_type" : "_ZTIRN3fmt2v68internal13specs_handlerINS0_26basic_format_parse_contextIwNS1_13error_handlerEEENS0_20basic_format_contextINSt3__120back_insert_iteratorINS1_6bufferIwEEEEwEEEE",
   "size" : 4,
   "source_file" : "/external/fmtlib/include/fmt/format.h"
  },
  {
   "alignment" : 4,
   "linker_set_key" : "_ZTIRN3fmt2v68internal13width_adapterIRNS1_13specs_checkerINS1_13specs_handlerINS0_26basic_format_parse_contextIcNS1_13error_handlerEEENS0_20basic_format_contextINSt3__120back_insert_iteratorINS1_6bufferIcEEEEcEEEEEEcEE",
   "name" : "fmt::internal::width_adapter<fmt::internal::specs_checker<fmt::internal::specs_handler<fmt::basic_format_parse_context<char, fmt::internal::error_handler>, fmt::basic_format_context<std::back_insert_iterator<fmt::internal::buffer<char> >, char> > > &, char> &",
   "referenced_type" : "_ZTIN3fmt2v68internal13width_adapterIRNS1_13specs_checkerINS1_13specs_handlerINS0_26basic_format_parse_contextIcNS1_13error_handlerEEENS0_20basic_format_contextINSt3__120back_insert_iteratorINS1_6bufferIcEEEEcEEEEEEcEE",
   "self_type" : "_ZTIRN3fmt2v68internal13width_adapterIRNS1_13specs_checkerINS1_13specs_handlerINS0_26basic_format_parse_contextIcNS1_13error_handlerEEENS0_20basic_format_contextINSt3__120back_insert_iteratorINS1_6bufferIcEEEEcEEEEEEcEE",
   "size" : 4,
   "source_file" : "/external/fmtlib/include/fmt/format.h"
  },
  {
   "alignment" : 4,
   "linker_set_key" : "_ZTIRN3fmt2v68internal13width_adapterIRNS1_13specs_checkerINS1_13specs_handlerINS0_26basic_format_parse_contextIwNS1_13error_handlerEEENS0_20basic_format_contextINSt3__120back_insert_iteratorINS1_6bufferIwEEEEwEEEEEEwEE",
   "name" : "fmt::internal::width_adapter<fmt::internal::specs_checker<fmt::internal::specs_handler<fmt::basic_format_parse_context<wchar_t, fmt::internal::error_handler>, fmt::basic_format_context<std::back_insert_iterator<fmt::internal::buffer<wchar_t> >, wchar_t> > > &, wchar_t> &",
   "referenced_type" : "_ZTIN3fmt2v68internal13width_adapterIRNS1_13specs_checkerINS1_13specs_handlerINS0_26basic_format_parse_contextIwNS1_13error_handlerEEENS0_20basic_format_contextINSt3__120back_insert_iteratorINS1_6bufferIwEEEEwEEEEEEwEE",
   "self_type" : "_ZTIRN3fmt2v68internal13width_adapterIRNS1_13specs_checkerINS1_13specs_handlerINS0_26basic_format_parse_contextIwNS1_13error_handlerEEENS0_20basic_format_contextINSt3__120back_insert_iteratorINS1_6bufferIwEEEEwEEEEEEwEE",
   "size" : 4,
   "source_file" : "/external/fmtlib/include/fmt/format.h"
  },
  {
   "alignment" : 4,
   "linker_set_key" : "_ZTIRN3fmt2v68internal16custom_formatterINS0_20basic_format_contextINSt3__120back_insert_iteratorINS1_6bufferIcEEEEcEEEE",
   "name" : "fmt::internal::custom_formatter<fmt::basic_format_context<std::back_insert_iterator<fmt::internal::buffer<char> >, char> > &",
   "referenced_type" : "_ZTIN3fmt2v68internal16custom_formatterINS0_20basic_format_contextINSt3__120back_insert_iteratorINS1_6bufferIcEEEEcEEEE",
   "self_type" : "_ZTIRN3fmt2v68internal16custom_formatterINS0_20basic_format_contextINSt3__120back_insert_iteratorINS1_6bufferIcEEEEcEEEE",
   "size" : 4,
   "source_file" : "/external/fmtlib/include/fmt/core.h"
  },
  {
   "alignment" : 4,
   "linker_set_key" : "_ZTIRN3fmt2v68internal16custom_formatterINS0_20basic_format_contextINSt3__120back_insert_iteratorINS1_6bufferIwEEEEwEEEE",
   "name" : "fmt::internal::custom_formatter<fmt::basic_format_context<std::back_insert_iterator<fmt::internal::buffer<wchar_t> >, wchar_t> > &",
   "referenced_type" : "_ZTIN3fmt2v68internal16custom_formatterINS0_20basic_format_contextINSt3__120back_insert_iteratorINS1_6bufferIwEEEEwEEEE",
   "self_type" : "_ZTIRN3fmt2v68internal16custom_formatterINS0_20basic_format_contextINSt3__120back_insert_iteratorINS1_6bufferIwEEEEwEEEE",
   "size" : 4,
   "source_file" : "/external/fmtlib/include/fmt/core.h"
  },
  {
   "alignment" : 4,
   "linker_set_key" : "_ZTIRN3fmt2v68internal17counting_iteratorE",
   "name" : "fmt::internal::counting_iterator &",
   "referenced_type" : "_ZTIN3fmt2v68internal17counting_iteratorE",
   "self_type" : "_ZTIRN3fmt2v68internal17counting_iteratorE",
   "size" : 4,
   "source_file" : "/external/fmtlib/include/fmt/format.h"
  },
  {
   "alignment" : 4,
   "linker_set_key" : "_ZTIRN3fmt2v68internal17precision_adapterIRNS1_13specs_checkerINS1_13specs_handlerINS0_26basic_format_parse_contextIcNS1_13error_handlerEEENS0_20basic_format_contextINSt3__120back_insert_iteratorINS1_6bufferIcEEEEcEEEEEEcEE",
   "name" : "fmt::internal::precision_adapter<fmt::internal::specs_checker<fmt::internal::specs_handler<fmt::basic_format_parse_context<char, fmt::internal::error_handler>, fmt::basic_format_context<std::back_insert_iterator<fmt::internal::buffer<char> >, char> > > &, char> &",
   "referenced_type" : "_ZTIN3fmt2v68internal17precision_adapterIRNS1_13specs_checkerINS1_13specs_handlerINS0_26basic_format_parse_contextIcNS1_13error_handlerEEENS0_20basic_format_contextINSt3__120back_insert_iteratorINS1_6bufferIcEEEEcEEEEEEcEE",
   "self_type" : "_ZTIRN3fmt2v68internal17precision_adapterIRNS1_13specs_checkerINS1_13specs_handlerINS0_26basic_format_parse_contextIcNS1_13error_handlerEEENS0_20basic_format_contextINSt3__120back_insert_iteratorINS1_6bufferIcEEEEcEEEEEEcEE",
   "size" : 4,
   "source_file" : "/external/fmtlib/include/fmt/format.h"
  },
  {
   "alignment" : 4,
   "linker_set_key" : "_ZTIRN3fmt2v68internal17precision_adapterIRNS1_13specs_checkerINS1_13specs_handlerINS0_26basic_format_parse_contextIwNS1_13error_handlerEEENS0_20basic_format_contextINSt3__120back_insert_iteratorINS1_6bufferIwEEEEwEEEEEEwEE",
   "name" : "fmt::internal::precision_adapter<fmt::internal::specs_checker<fmt::internal::specs_handler<fmt::basic_format_parse_context<wchar_t, fmt::internal::error_handler>, fmt::basic_format_context<std::back_insert_iterator<fmt::internal::buffer<wchar_t> >, wchar_t> > > &, wchar_t> &",
   "referenced_type" : "_ZTIN3fmt2v68internal17precision_adapterIRNS1_13specs_checkerINS1_13specs_handlerINS0_26basic_format_parse_contextIwNS1_13error_handlerEEENS0_20basic_format_contextINSt3__120back_insert_iteratorINS1_6bufferIwEEEEwEEEEEEwEE",
   "self_type" : "_ZTIRN3fmt2v68internal17precision_adapterIRNS1_13specs_checkerINS1_13specs_handlerINS0_26basic_format_parse_contextIwNS1_13error_handlerEEENS0_20basic_format_contextINSt3__120back_insert_iteratorINS1_6bufferIwEEEEwEEEEEEwEE",
   "size" : 4,
   "source_file" : "/external/fmtlib/include/fmt/format.h"
  },
  {
   "alignment" : 4,
   "linker_set_key" : "_ZTIRN3fmt2v68internal18arg_formatter_baseINS0_12buffer_rangeIcEENS1_13error_handlerEEE",
   "name" : "fmt::internal::arg_formatter_base<fmt::buffer_range<char>, fmt::internal::error_handler> &",
   "referenced_type" : "_ZTIN3fmt2v68internal18arg_formatter_baseINS0_12buffer_rangeIcEENS1_13error_handlerEEE",
   "self_type" : "_ZTIRN3fmt2v68internal18arg_formatter_baseINS0_12buffer_rangeIcEENS1_13error_handlerEEE",
   "size" : 4,
   "source_file" : "/external/fmtlib/include/fmt/format.h"
  },
  {
   "alignment" : 4,
   "linker_set_key" : "_ZTIRN3fmt2v68internal18arg_formatter_baseINS0_12buffer_rangeIwEENS1_13error_handlerEEE",
   "name" : "fmt::internal::arg_formatter_base<fmt::buffer_range<wchar_t>, fmt::internal::error_handler> &",
   "referenced_type" : "_ZTIN3fmt2v68internal18arg_formatter_baseINS0_12buffer_rangeIwEENS1_13error_handlerEEE",
   "self_type" : "_ZTIRN3fmt2v68internal18arg_formatter_baseINS0_12buffer_rangeIwEENS1_13error_handlerEEE",
   "size" : 4,
   "source_file" : "/external/fmtlib/include/fmt/format.h"
  },
  {
   "alignment" : 4,
   "linker_set_key" : "_ZTIRN3fmt2v68internal22grisu_shortest_handlerE",
   "name" : "fmt::internal::grisu_shortest_handler &",
   "referenced_type" : "_ZTIN3fmt2v68internal22grisu_shortest_handlerE",
   "self_type" : "_ZTIRN3fmt2v68internal22grisu_shortest_handlerE",
   "size" : 4,
   "source_file" : "/external/fmtlib/include/fmt/format-inl.h"
  },
  {
   "alignment" : 4,
   "linker_set_key" : "_ZTIRN3fmt2v68internal6bigintE",
   "name" : "fmt::internal::bigint &",
   "referenced_type" : "_ZTIN3fmt2v68internal6bigintE",
   "self_type" : "_ZTIRN3fmt2v68internal6bigintE",
   "size" : 4,
   "source_file" : "/external/fmtlib/include/fmt/format-inl.h"
  },
  {
   "alignment" : 4,
   "linker_set_key" : "_ZTIRN3fmt2v68internal6bufferIcEE",
   "name" : "fmt::internal::buffer<char> &",
   "referenced_type" : "_ZTIN3fmt2v68internal6bufferIcEE",
   "self_type" : "_ZTIRN3fmt2v68internal6bufferIcEE",
   "size" : 4,
   "source_file" : "/external/fmtlib/include/fmt/core.h"
  },
  {
   "alignment" : 4,
   "linker_set_key" : "_ZTIRN3fmt2v68internal6bufferIwEE",
   "name" : "fmt::internal::buffer<wchar_t> &",
   "referenced_type" : "_ZTIN3fmt2v68internal6bufferIwEE",
   "self_type" : "_ZTIRN3fmt2v68internal6bufferIwEE",
   "size" : 4,
   "source_file" : "/external/fmtlib/include/fmt/core.h"
  },
  {
   "alignment" : 4,
   "linker_set_key" : "_ZTIRN7android4base10MappedFileE",
   "name" : "android::base::MappedFile &",
   "referenced_type" : "_ZTIN7android4base10MappedFileE",
   "self_type" : "_ZTIRN7android4base10MappedFileE",
   "size" : 4,
   "source_file" : "/system/core/base/include/android-base/mapped_file.h"
  },
  {
   "alignment" : 4,
   "linker_set_key" : "_ZTIRN7android4base7AllPids11PidIteratorE",
   "name" : "android::base::AllPids::PidIterator &",
   "referenced_type" : "_ZTIN7android4base7AllPids11PidIteratorE",
   "self_type" : "_ZTIRN7android4base7AllPids11PidIteratorE",
   "size" : 4,
   "source_file" : "/system/core/base/include/android-base/process.h"
  },
  {
   "alignment" : 4,
   "linker_set_key" : "_ZTIRNSt3__113basic_ostreamIcNS_11char_traitsIcEEEE",
   "name" : "std::basic_ostream<char, std::char_traits<char> > &",
   "referenced_type" : "_ZTINSt3__113basic_ostreamIcNS_11char_traitsIcEEEE",
   "self_type" : "_ZTIRNSt3__113basic_ostreamIcNS_11char_traitsIcEEEE",
   "size" : 4,
   "source_file" : "/system/core/base/include/android-base/chrono_utils.h"
  },
  {
   "alignment" : 4,
   "linker_set_key" : "_ZTIRNSt3__120back_insert_iteratorIN3fmt2v68internal6bufferIcEEEE",
   "name" : "std::back_insert_iterator<fmt::internal::buffer<char> > &",
   "referenced_type" : "_ZTINSt3__120back_insert_iteratorIN3fmt2v68internal6bufferIcEEEE",
   "self_type" : "_ZTIRNSt3__120back_insert_iteratorIN3fmt2v68internal6bufferIcEEEE",
   "size" : 4,
   "source_file" : "/external/fmtlib/include/fmt/format.h"
  },
  {
   "alignment" : 4,
   "linker_set_key" : "_ZTIRNSt3__120back_insert_iteratorIN3fmt2v68internal6bufferIwEEEE",
   "name" : "std::back_insert_iterator<fmt::internal::buffer<wchar_t> > &",
   "referenced_type" : "_ZTINSt3__120back_insert_iteratorIN3fmt2v68internal6bufferIwEEEE",
   "self_type" : "_ZTIRNSt3__120back_insert_iteratorIN3fmt2v68internal6bufferIwEEEE",
   "size" : 4,
   "source_file" : "/external/fmtlib/include/fmt/format.h"
  },
  {
   "alignment" : 4,
   "linker_set_key" : "_ZTIRPKc",
   "name" : "const char *&",
   "referenced_type" : "_ZTIPKc",
   "self_type" : "_ZTIRPKc",
   "size" : 4,
   "source_file" : "/external/fmtlib/include/fmt/core.h"
  },
  {
   "alignment" : 4,
   "linker_set_key" : "_ZTIRPKw",
   "name" : "const wchar_t *&",
   "referenced_type" : "_ZTIPKw",
   "self_type" : "_ZTIRPKw",
   "size" : 4,
   "source_file" : "/external/fmtlib/include/fmt/format.h"
  },
  {
   "alignment" : 4,
   "linker_set_key" : "_ZTIRPc",
   "name" : "char *&",
   "referenced_type" : "_ZTIPc",
   "self_type" : "_ZTIRPc",
   "size" : 4,
   "source_file" : "/external/fmtlib/include/fmt/format.h"
  },
  {
   "alignment" : 4,
   "linker_set_key" : "_ZTIRPw",
   "name" : "wchar_t *&",
   "referenced_type" : "_ZTIPw",
   "self_type" : "_ZTIRPw",
   "size" : 4,
   "source_file" : "/external/fmtlib/include/fmt/format.h"
  },
  {
   "alignment" : 4,
   "linker_set_key" : "_ZTIRc",
   "name" : "char &",
   "referenced_type" : "_ZTIc",
   "self_type" : "_ZTIRc",
   "size" : 4,
   "source_file" : "/external/fmtlib/include/fmt/core.h"
  },
  {
   "alignment" : 4,
   "linker_set_key" : "_ZTIRi",
   "name" : "int &",
   "referenced_type" : "_ZTIi",
   "self_type" : "_ZTIRi",
   "size" : 4,
   "source_file" : "/external/fmtlib/include/fmt/core.h"
  },
  {
   "alignment" : 4,
   "linker_set_key" : "_ZTIRj",
   "name" : "unsigned int &",
   "referenced_type" : "_ZTIj",
   "self_type" : "_ZTIRj",
   "size" : 4,
   "source_file" : "/external/fmtlib/include/fmt/core.h"
  },
  {
   "alignment" : 4,
   "linker_set_key" : "_ZTIRw",
   "name" : "wchar_t &",
   "referenced_type" : "_ZTIw",
   "self_type" : "_ZTIRw",
   "size" : 4,
   "source_file" : "/external/fmtlib/include/fmt/format.h"
  },
  {
   "alignment" : 4,
   "linker_set_key" : "_ZTIRy",
   "name" : "unsigned long long &",
   "referenced_type" : "_ZTIy",
   "self_type" : "_ZTIRy",
   "size" : 4,
   "source_file" : "/external/fmtlib/include/fmt/format-inl.h"
  }
 ],
 "pointer_types" :
 [
  {
   "alignment" : 4,
   "linker_set_key" : "_ZTIP12TemporaryDir",
   "name" : "TemporaryDir *",
   "referenced_type" : "_ZTI12TemporaryDir",
   "self_type" : "_ZTIP12TemporaryDir",
   "size" : 4,
   "source_file" : "/system/core/base/include/android-base/file.h"
  },
  {
   "alignment" : 4,
   "linker_set_key" : "_ZTIP13CapturedStdFd",
   "name" : "CapturedStdFd *",
   "referenced_type" : "_ZTI13CapturedStdFd",
   "self_type" : "_ZTIP13CapturedStdFd",
   "size" : 4,
   "source_file" : "/system/core/base/include/android-base/test_utils.h"
  },
  {
   "alignment" : 4,
   "linker_set_key" : "_ZTIP13TemporaryFile",
   "name" : "TemporaryFile *",
   "referenced_type" : "_ZTI13TemporaryFile",
   "self_type" : "_ZTIP13TemporaryFile",
   "size" : 4,
   "source_file" : "/system/core/base/include/android-base/file.h"
  },
  {
   "alignment" : 4,
   "linker_set_key" : "_ZTIP14CapturedStderr",
   "name" : "CapturedStderr *",
   "referenced_type" : "_ZTI14CapturedStderr",
   "self_type" : "_ZTIP14CapturedStderr",
   "size" : 4,
   "source_file" : "/system/core/base/include/android-base/test_utils.h"
  },
  {
   "alignment" : 4,
   "linker_set_key" : "_ZTIP14CapturedStdout",
   "name" : "CapturedStdout *",
   "referenced_type" : "_ZTI14CapturedStdout",
   "self_type" : "_ZTIP14CapturedStdout",
   "size" : 4,
   "source_file" : "/system/core/base/include/android-base/test_utils.h"
  },
  {
   "alignment" : 4,
   "linker_set_key" : "_ZTIP3DIR",
   "name" : "DIR *",
   "referenced_type" : "_ZTI3DIR",
   "self_type" : "_ZTIP3DIR",
   "size" : 4,
   "source_file" : "/system/core/base/include/android-base/unique_fd.h"
  },
  {
   "alignment" : 4,
   "linker_set_key" : "_ZTIP7__sFILE",
   "name" : "__sFILE *",
   "referenced_type" : "_ZTI7__sFILE",
   "self_type" : "_ZTIP7__sFILE",
   "size" : 4,
   "source_file" : "/system/core/base/include/android-base/unique_fd.h"
  },
  {
   "alignment" : 4,
   "linker_set_key" : "_ZTIPFvPKvRN3fmt2v626basic_format_parse_contextIcNS2_8internal13error_handlerEEERNS2_20basic_format_contextINSt3__120back_insert_iteratorINS4_6bufferIcEEEEcEEE",
   "name" : "void (*)(const void *, fmt::v6::basic_format_parse_context<char, fmt::v6::internal::error_handler> &, fmt::v6::basic_format_context<std::__1::back_insert_iterator<fmt::v6::internal::buffer<char> >, char> &)",
   "referenced_type" : "_ZTIFvPKvRN3fmt2v626basic_format_parse_contextIcNS2_8internal13error_handlerEEERNS2_20basic_format_contextINSt3__120back_insert_iteratorINS4_6bufferIcEEEEcEEE",
   "self_type" : "_ZTIPFvPKvRN3fmt2v626basic_format_parse_contextIcNS2_8internal13error_handlerEEERNS2_20basic_format_contextINSt3__120back_insert_iteratorINS4_6bufferIcEEEEcEEE",
   "size" : 4,
   "source_file" : "/external/fmtlib/include/fmt/core.h"
  },
  {
   "alignment" : 4,
   "linker_set_key" : "_ZTIPFvPKvRN3fmt2v626basic_format_parse_contextIwNS2_8internal13error_handlerEEERNS2_20basic_format_contextINSt3__120back_insert_iteratorINS4_6bufferIwEEEEwEEE",
   "name" : "void (*)(const void *, fmt::v6::basic_format_parse_context<wchar_t, fmt::v6::internal::error_handler> &, fmt::v6::basic_format_context<std::__1::back_insert_iterator<fmt::v6::internal::buffer<wchar_t> >, wchar_t> &)",
   "referenced_type" : "_ZTIFvPKvRN3fmt2v626basic_format_parse_contextIwNS2_8internal13error_handlerEEERNS2_20basic_format_contextINSt3__120back_insert_iteratorINS4_6bufferIwEEEEwEEE",
   "self_type" : "_ZTIPFvPKvRN3fmt2v626basic_format_parse_contextIwNS2_8internal13error_handlerEEERNS2_20basic_format_contextINSt3__120back_insert_iteratorINS4_6bufferIwEEEEwEEE",
   "size" : 4,
   "source_file" : "/external/fmtlib/include/fmt/core.h"
  },
  {
   "alignment" : 4,
   "linker_set_key" : "_ZTIPFvRN3fmt2v68internal6bufferIcEEiNS0_17basic_string_viewIcEEE",
   "name" : "void (*)(fmt::v6::internal::buffer<char> &, int, fmt::v6::basic_string_view<char>)",
   "referenced_type" : "_ZTIFvRN3fmt2v68internal6bufferIcEEiNS0_17basic_string_viewIcEEE",
   "self_type" : "_ZTIPFvRN3fmt2v68internal6bufferIcEEiNS0_17basic_string_viewIcEEE",
   "size" : 4,
   "source_file" : "/external/fmtlib/include/fmt/format-inl.h"
  },
  {
   "alignment" : 4,
   "linker_set_key" : "_ZTIPK13CapturedStdFd",
   "name" : "const CapturedStdFd *",
   "referenced_type" : "_ZTIK13CapturedStdFd",
   "self_type" : "_ZTIPK13CapturedStdFd",
   "size" : 4,
   "source_file" : "/system/core/base/include/android-base/test_utils.h"
  },
  {
   "alignment" : 4,
   "linker_set_key" : "_ZTIPK9prop_info",
   "name" : "const prop_info *",
   "referenced_type" : "_ZTIK9prop_info",
   "self_type" : "_ZTIPK9prop_info",
   "size" : 4,
   "source_file" : "/system/core/base/include/android-base/properties.h"
  },
  {
   "alignment" : 4,
   "linker_set_key" : "_ZTIPKN3fmt2v610format_intE",
   "name" : "const fmt::format_int *",
   "referenced_type" : "_ZTIKN3fmt2v610format_intE",
   "self_type" : "_ZTIPKN3fmt2v610format_intE",
   "size" : 4,
   "source_file" : "/external/fmtlib/include/fmt/format.h"
  },
  {
   "alignment" : 4,
   "linker_set_key" : "_ZTIPKN3fmt2v612system_errorE",
   "name" : "const fmt::system_error *",
   "referenced_type" : "_ZTIKN3fmt2v612system_errorE",
   "self_type" : "_ZTIPKN3fmt2v612system_errorE",
   "size" : 4,
   "source_file" : "/external/fmtlib/include/fmt/format.h"
  },
  {
   "alignment" : 4,
   "linker_set_key" : "_ZTIPKN3fmt2v616basic_format_argINS0_20basic_format_contextINSt3__120back_insert_iteratorINS0_8internal6bufferINS0_13arg_formatterINS0_12buffer_rangeIcEEEEEEEESA_EEEE",
   "name" : "const fmt::basic_format_arg<fmt::basic_format_context<std::back_insert_iterator<fmt::internal::buffer<fmt::arg_formatter<fmt::buffer_range<char> > > >, fmt::arg_formatter<fmt::buffer_range<char> > > > *",
   "referenced_type" : "_ZTIKN3fmt2v616basic_format_argINS0_20basic_format_contextINSt3__120back_insert_iteratorINS0_8internal6bufferINS0_13arg_formatterINS0_12buffer_rangeIcEEEEEEEESA_EEEE",
   "self_type" : "_ZTIPKN3fmt2v616basic_format_argINS0_20basic_format_contextINSt3__120back_insert_iteratorINS0_8internal6bufferINS0_13arg_formatterINS0_12buffer_rangeIcEEEEEEEESA_EEEE",
   "size" : 4,
   "source_file" : "/external/fmtlib/include/fmt/core.h"
  },
  {
   "alignment" : 4,
   "linker_set_key" : "_ZTIPKN3fmt2v616basic_format_argINS0_20basic_format_contextINSt3__120back_insert_iteratorINS0_8internal6bufferINS0_13arg_formatterINS0_12buffer_rangeIwEEEEEEEESA_EEEE",
   "name" : "const fmt::basic_format_arg<fmt::basic_format_context<std::back_insert_iterator<fmt::internal::buffer<fmt::arg_formatter<fmt::buffer_range<wchar_t> > > >, fmt::arg_formatter<fmt::buffer_range<wchar_t> > > > *",
   "referenced_type" : "_ZTIKN3fmt2v616basic_format_argINS0_20basic_format_contextINSt3__120back_insert_iteratorINS0_8internal6bufferINS0_13arg_formatterINS0_12buffer_rangeIwEEEEEEEESA_EEEE",
   "self_type" : "_ZTIPKN3fmt2v616basic_format_argINS0_20basic_format_contextINSt3__120back_insert_iteratorINS0_8internal6bufferINS0_13arg_formatterINS0_12buffer_rangeIwEEEEEEEESA_EEEE",
   "size" : 4,
   "source_file" : "/external/fmtlib/include/fmt/core.h"
  },
  {
   "alignment" : 4,
   "linker_set_key" : "_ZTIPKN3fmt2v616basic_format_argINS0_20basic_format_contextINSt3__120back_insert_iteratorINS0_8internal6bufferIcEEEEcEEE6handleE",
   "name" : "const fmt::basic_format_arg<basic_format_context<back_insert_iterator<buffer<char> >, char> >::handle *",
   "referenced_type" : "_ZTIKN3fmt2v616basic_format_argINS0_20basic_format_contextINSt3__120back_insert_iteratorINS0_8internal6bufferIcEEEEcEEE6handleE",
   "self_type" : "_ZTIPKN3fmt2v616basic_format_argINS0_20basic_format_contextINSt3__120back_insert_iteratorINS0_8internal6bufferIcEEEEcEEE6handleE",
   "size" : 4,
   "source_file" : "/external/fmtlib/include/fmt/core.h"
  },
  {
   "alignment" : 4,
   "linker_set_key" : "_ZTIPKN3fmt2v616basic_format_argINS0_20basic_format_contextINSt3__120back_insert_iteratorINS0_8internal6bufferIcEEEEcEEEE",
   "name" : "const fmt::basic_format_arg<fmt::basic_format_context<std::back_insert_iterator<fmt::internal::buffer<char> >, char> > *",
   "referenced_type" : "_ZTIKN3fmt2v616basic_format_argINS0_20basic_format_contextINSt3__120back_insert_iteratorINS0_8internal6bufferIcEEEEcEEEE",
   "self_type" : "_ZTIPKN3fmt2v616basic_format_argINS0_20basic_format_contextINSt3__120back_insert_iteratorINS0_8internal6bufferIcEEEEcEEEE",
   "size" : 4,
   "source_file" : "/external/fmtlib/include/fmt/core.h"
  },
  {
   "alignment" : 4,
   "linker_set_key" : "_ZTIPKN3fmt2v616basic_format_argINS0_20basic_format_contextINSt3__120back_insert_iteratorINS0_8internal6bufferIwEEEEwEEE6handleE",
   "name" : "const fmt::basic_format_arg<basic_format_context<back_insert_iterator<buffer<wchar_t> >, wchar_t> >::handle *",
   "referenced_type" : "_ZTIKN3fmt2v616basic_format_argINS0_20basic_format_contextINSt3__120back_insert_iteratorINS0_8internal6bufferIwEEEEwEEE6handleE",
   "self_type" : "_ZTIPKN3fmt2v616basic_format_argINS0_20basic_format_contextINSt3__120back_insert_iteratorINS0_8internal6bufferIwEEEEwEEE6handleE",
   "size" : 4,
   "source_file" : "/external/fmtlib/include/fmt/core.h"
  },
  {
   "alignment" : 4,
   "linker_set_key" : "_ZTIPKN3fmt2v616basic_format_argINS0_20basic_format_contextINSt3__120back_insert_iteratorINS0_8internal6bufferIwEEEEwEEEE",
   "name" : "const fmt::basic_format_arg<fmt::basic_format_context<std::back_insert_iterator<fmt::internal::buffer<wchar_t> >, wchar_t> > *",
   "referenced_type" : "_ZTIKN3fmt2v616basic_format_argINS0_20basic_format_contextINSt3__120back_insert_iteratorINS0_8internal6bufferIwEEEEwEEEE",
   "self_type" : "_ZTIPKN3fmt2v616basic_format_argINS0_20basic_format_contextINSt3__120back_insert_iteratorINS0_8internal6bufferIwEEEEwEEEE",
   "size" : 4,
   "source_file" : "/external/fmtlib/include/fmt/core.h"
  },
  {
   "alignment" : 4,
   "linker_set_key" : "_ZTIPKN3fmt2v617basic_format_argsINS0_20basic_format_contextINSt3__120back_insert_iteratorINS0_8internal6bufferIcEEEEcEEEE",
   "name" : "const fmt::basic_format_args<fmt::basic_format_context<std::back_insert_iterator<fmt::internal::buffer<char> >, char> > *",
   "referenced_type" : "_ZTIKN3fmt2v617basic_format_argsINS0_20basic_format_contextINSt3__120back_insert_iteratorINS0_8internal6bufferIcEEEEcEEEE",
   "self_type" : "_ZTIPKN3fmt2v617basic_format_argsINS0_20basic_format_contextINSt3__120back_insert_iteratorINS0_8internal6bufferIcEEEEcEEEE",
   "size" : 4,
   "source_file" : "/external/fmtlib/include/fmt/core.h"
  },
  {
   "alignment" : 4,
   "linker_set_key" : "_ZTIPKN3fmt2v617basic_format_argsINS0_20basic_format_contextINSt3__120back_insert_iteratorINS0_8internal6bufferIwEEEEwEEEE",
   "name" : "const fmt::basic_format_args<fmt::basic_format_context<std::back_insert_iterator<fmt::internal::buffer<wchar_t> >, wchar_t> > *",
   "referenced_type" : "_ZTIKN3fmt2v617basic_format_argsINS0_20basic_format_contextINSt3__120back_insert_iteratorINS0_8internal6bufferIwEEEEwEEEE",
   "self_type" : "_ZTIPKN3fmt2v617basic_format_argsINS0_20basic_format_contextINSt3__120back_insert_iteratorINS0_8internal6bufferIwEEEEwEEEE",
   "size" : 4,
   "source_file" : "/external/fmtlib/include/fmt/core.h"
  },
  {
   "alignment" : 4,
   "linker_set_key" : "_ZTIPKN3fmt2v617basic_string_viewINS0_7char8_tEEE",
   "name" : "const fmt::basic_string_view<fmt::char8_t> *",
   "referenced_type" : "_ZTIKN3fmt2v617basic_string_viewINS0_7char8_tEEE",
   "self_type" : "_ZTIPKN3fmt2v617basic_string_viewINS0_7char8_tEEE",
   "size" : 4,
   "source_file" : "/external/fmtlib/include/fmt/core.h"
  },
  {
   "alignment" : 4,
   "linker_set_key" : "_ZTIPKN3fmt2v617basic_string_viewIcEE",
   "name" : "const fmt::basic_string_view<char> *",
   "referenced_type" : "_ZTIKN3fmt2v617basic_string_viewIcEE",
   "self_type" : "_ZTIPKN3fmt2v617basic_string_viewIcEE",
   "size" : 4,
   "source_file" : "/external/fmtlib/include/fmt/core.h"
  },
  {
   "alignment" : 4,
   "linker_set_key" : "_ZTIPKN3fmt2v617basic_string_viewIwEE",
   "name" : "const fmt::basic_string_view<wchar_t> *",
   "referenced_type" : "_ZTIKN3fmt2v617basic_string_viewIwEE",
   "self_type" : "_ZTIPKN3fmt2v617basic_string_viewIwEE",
   "size" : 4,
   "source_file" : "/external/fmtlib/include/fmt/core.h"
  },
  {
   "alignment" : 4,
   "linker_set_key" : "_ZTIPKN3fmt2v618basic_format_specsIcEE",
   "name" : "const fmt::basic_format_specs<char> *",
   "referenced_type" : "_ZTIKN3fmt2v618basic_format_specsIcEE",
   "self_type" : "_ZTIPKN3fmt2v618basic_format_specsIcEE",
   "size" : 4,
   "source_file" : "/external/fmtlib/include/fmt/format.h"
  },
  {
   "alignment" : 4,
   "linker_set_key" : "_ZTIPKN3fmt2v618basic_format_specsIwEE",
   "name" : "const fmt::basic_format_specs<wchar_t> *",
   "referenced_type" : "_ZTIKN3fmt2v618basic_format_specsIwEE",
   "self_type" : "_ZTIPKN3fmt2v618basic_format_specsIwEE",
   "size" : 4,
   "source_file" : "/external/fmtlib/include/fmt/format.h"
  },
  {
   "alignment" : 4,
   "linker_set_key" : "_ZTIPKN3fmt2v620basic_format_contextINSt3__120back_insert_iteratorINS0_8internal6bufferIcEEEEcEE",
   "name" : "const fmt::basic_format_context<std::back_insert_iterator<fmt::internal::buffer<char> >, char> *",
   "referenced_type" : "_ZTIKN3fmt2v620basic_format_contextINSt3__120back_insert_iteratorINS0_8internal6bufferIcEEEEcEE",
   "self_type" : "_ZTIPKN3fmt2v620basic_format_contextINSt3__120back_insert_iteratorINS0_8internal6bufferIcEEEEcEE",
   "size" : 4,
   "source_file" : "/external/fmtlib/include/fmt/core.h"
  },
  {
   "alignment" : 4,
   "linker_set_key" : "_ZTIPKN3fmt2v620basic_format_contextINSt3__120back_insert_iteratorINS0_8internal6bufferIwEEEEwEE",
   "name" : "const fmt::basic_format_context<std::back_insert_iterator<fmt::internal::buffer<wchar_t> >, wchar_t> *",
   "referenced_type" : "_ZTIKN3fmt2v620basic_format_contextINSt3__120back_insert_iteratorINS0_8internal6bufferIwEEEEwEE",
   "self_type" : "_ZTIPKN3fmt2v620basic_format_contextINSt3__120back_insert_iteratorINS0_8internal6bufferIwEEEEwEE",
   "size" : 4,
   "source_file" : "/external/fmtlib/include/fmt/core.h"
  },
  {
   "alignment" : 4,
   "linker_set_key" : "_ZTIPKN3fmt2v626basic_format_parse_contextIcNS0_8internal13error_handlerEEE",
   "name" : "const fmt::basic_format_parse_context<char, fmt::internal::error_handler> *",
   "referenced_type" : "_ZTIKN3fmt2v626basic_format_parse_contextIcNS0_8internal13error_handlerEEE",
   "self_type" : "_ZTIPKN3fmt2v626basic_format_parse_contextIcNS0_8internal13error_handlerEEE",
   "size" : 4,
   "source_file" : "/external/fmtlib/include/fmt/core.h"
  },
  {
   "alignment" : 4,
   "linker_set_key" : "_ZTIPKN3fmt2v626basic_format_parse_contextIwNS0_8internal13error_handlerEEE",
   "name" : "const fmt::basic_format_parse_context<wchar_t, fmt::internal::error_handler> *",
   "referenced_type" : "_ZTIKN3fmt2v626basic_format_parse_contextIwNS0_8internal13error_handlerEEE",
   "self_type" : "_ZTIPKN3fmt2v626basic_format_parse_contextIwNS0_8internal13error_handlerEEE",
   "size" : 4,
   "source_file" : "/external/fmtlib/include/fmt/core.h"
  },
  {
   "alignment" : 4,
   "linker_set_key" : "_ZTIPKN3fmt2v67char8_tE",
   "name" : "const fmt::char8_t *",
   "referenced_type" : "_ZTIKN3fmt2v67char8_tE",
   "self_type" : "_ZTIPKN3fmt2v67char8_tE",
   "size" : 4,
   "source_file" : "/external/fmtlib/include/fmt/core.h"
  },
  {
   "alignment" : 4,
   "linker_set_key" : "_ZTIPKN3fmt2v68internal10locale_refE",
   "name" : "const fmt::internal::locale_ref *",
   "referenced_type" : "_ZTIKN3fmt2v68internal10locale_refE",
   "self_type" : "_ZTIPKN3fmt2v68internal10locale_refE",
   "size" : 4,
   "source_file" : "/external/fmtlib/include/fmt/core.h"
  },
  {
   "alignment" : 4,
   "linker_set_key" : "_ZTIPKN3fmt2v68internal11accumulatorE",
   "name" : "const fmt::internal::accumulator *",
   "referenced_type" : "_ZTIKN3fmt2v68internal11accumulatorE",
   "self_type" : "_ZTIPKN3fmt2v68internal11accumulatorE",
   "size" : 4,
   "source_file" : "/external/fmtlib/include/fmt/format-inl.h"
  },
  {
   "alignment" : 4,
   "linker_set_key" : "_ZTIPKN3fmt2v68internal12basic_writerINS0_12buffer_rangeIcEEE10int_writerIcNS0_18basic_format_specsIcEEE10bin_writerILi1EEE",
   "name" : "const fmt::internal::basic_writer<buffer_range<char> >::int_writer<char, basic_format_specs<char> >::bin_writer<1> *",
   "referenced_type" : "_ZTIKN3fmt2v68internal12basic_writerINS0_12buffer_rangeIcEEE10int_writerIcNS0_18basic_format_specsIcEEE10bin_writerILi1EEE",
   "self_type" : "_ZTIPKN3fmt2v68internal12basic_writerINS0_12buffer_rangeIcEEE10int_writerIcNS0_18basic_format_specsIcEEE10bin_writerILi1EEE",
   "size" : 4,
   "source_file" : "/external/fmtlib/include/fmt/format.h"
  },
  {
   "alignment" : 4,
   "linker_set_key" : "_ZTIPKN3fmt2v68internal12basic_writerINS0_12buffer_rangeIcEEE10int_writerIcNS0_18basic_format_specsIcEEE10bin_writerILi3EEE",
   "name" : "const fmt::internal::basic_writer<buffer_range<char> >::int_writer<char, basic_format_specs<char> >::bin_writer<3> *",
   "referenced_type" : "_ZTIKN3fmt2v68internal12basic_writerINS0_12buffer_rangeIcEEE10int_writerIcNS0_18basic_format_specsIcEEE10bin_writerILi3EEE",
   "self_type" : "_ZTIPKN3fmt2v68internal12basic_writerINS0_12buffer_rangeIcEEE10int_writerIcNS0_18basic_format_specsIcEEE10bin_writerILi3EEE",
   "size" : 4,
   "source_file" : "/external/fmtlib/include/fmt/format.h"
  },
  {
   "alignment" : 4,
   "linker_set_key" : "_ZTIPKN3fmt2v68internal12basic_writerINS0_12buffer_rangeIcEEE10int_writerIcNS0_18basic_format_specsIcEEE10dec_writerE",
   "name" : "const fmt::internal::basic_writer<buffer_range<char> >::int_writer<char, basic_format_specs<char> >::dec_writer *",
   "referenced_type" : "_ZTIKN3fmt2v68internal12basic_writerINS0_12buffer_rangeIcEEE10int_writerIcNS0_18basic_format_specsIcEEE10dec_writerE",
   "self_type" : "_ZTIPKN3fmt2v68internal12basic_writerINS0_12buffer_rangeIcEEE10int_writerIcNS0_18basic_format_specsIcEEE10dec_writerE",
   "size" : 4,
   "source_file" : "/external/fmtlib/include/fmt/format.h"
  },
  {
   "alignment" : 4,
   "linker_set_key" : "_ZTIPKN3fmt2v68internal12basic_writerINS0_12buffer_rangeIcEEE10int_writerIcNS0_18basic_format_specsIcEEE10hex_writerE",
   "name" : "const fmt::internal::basic_writer<buffer_range<char> >::int_writer<char, basic_format_specs<char> >::hex_writer *",
   "referenced_type" : "_ZTIKN3fmt2v68internal12basic_writerINS0_12buffer_rangeIcEEE10int_writerIcNS0_18basic_format_specsIcEEE10hex_writerE",
   "self_type" : "_ZTIPKN3fmt2v68internal12basic_writerINS0_12buffer_rangeIcEEE10int_writerIcNS0_18basic_format_specsIcEEE10hex_writerE",
   "size" : 4,
   "source_file" : "/external/fmtlib/include/fmt/format.h"
  },
  {
   "alignment" : 4,
   "linker_set_key" : "_ZTIPKN3fmt2v68internal12basic_writerINS0_12buffer_rangeIcEEE10int_writerIcNS0_18basic_format_specsIcEEE10num_writerE",
   "name" : "const fmt::internal::basic_writer<buffer_range<char> >::int_writer<char, basic_format_specs<char> >::num_writer *",
   "referenced_type" : "_ZTIKN3fmt2v68internal12basic_writerINS0_12buffer_rangeIcEEE10int_writerIcNS0_18basic_format_specsIcEEE10num_writerE",
   "self_type" : "_ZTIPKN3fmt2v68internal12basic_writerINS0_12buffer_rangeIcEEE10int_writerIcNS0_18basic_format_specsIcEEE10num_writerE",
   "size" : 4,
   "source_file" : "/external/fmtlib/include/fmt/format.h"
  },
  {
   "alignment" : 4,
   "linker_set_key" : "_ZTIPKN3fmt2v68internal12basic_writerINS0_12buffer_rangeIcEEE10int_writerIcNS0_18basic_format_specsIcEEEE",
   "name" : "const fmt::internal::basic_writer<buffer_range<char> >::int_writer<char, fmt::basic_format_specs<char> > *",
   "referenced_type" : "_ZTIKN3fmt2v68internal12basic_writerINS0_12buffer_rangeIcEEE10int_writerIcNS0_18basic_format_specsIcEEEE",
   "self_type" : "_ZTIPKN3fmt2v68internal12basic_writerINS0_12buffer_rangeIcEEE10int_writerIcNS0_18basic_format_specsIcEEEE",
   "size" : 4,
   "source_file" : "/external/fmtlib/include/fmt/format.h"
  },
  {
   "alignment" : 4,
   "linker_set_key" : "_ZTIPKN3fmt2v68internal12basic_writerINS0_12buffer_rangeIcEEE10int_writerIiNS0_18basic_format_specsIcEEE10bin_writerILi1EEE",
   "name" : "const fmt::internal::basic_writer<buffer_range<char> >::int_writer<int, basic_format_specs<char> >::bin_writer<1> *",
   "referenced_type" : "_ZTIKN3fmt2v68internal12basic_writerINS0_12buffer_rangeIcEEE10int_writerIiNS0_18basic_format_specsIcEEE10bin_writerILi1EEE",
   "self_type" : "_ZTIPKN3fmt2v68internal12basic_writerINS0_12buffer_rangeIcEEE10int_writerIiNS0_18basic_format_specsIcEEE10bin_writerILi1EEE",
   "size" : 4,
   "source_file" : "/external/fmtlib/include/fmt/format.h"
  },
  {
   "alignment" : 4,
   "linker_set_key" : "_ZTIPKN3fmt2v68internal12basic_writerINS0_12buffer_rangeIcEEE10int_writerIiNS0_18basic_format_specsIcEEE10bin_writerILi3EEE",
   "name" : "const fmt::internal::basic_writer<buffer_range<char> >::int_writer<int, basic_format_specs<char> >::bin_writer<3> *",
   "referenced_type" : "_ZTIKN3fmt2v68internal12basic_writerINS0_12buffer_rangeIcEEE10int_writerIiNS0_18basic_format_specsIcEEE10bin_writerILi3EEE",
   "self_type" : "_ZTIPKN3fmt2v68internal12basic_writerINS0_12buffer_rangeIcEEE10int_writerIiNS0_18basic_format_specsIcEEE10bin_writerILi3EEE",
   "size" : 4,
   "source_file" : "/external/fmtlib/include/fmt/format.h"
  },
  {
   "alignment" : 4,
   "linker_set_key" : "_ZTIPKN3fmt2v68internal12basic_writerINS0_12buffer_rangeIcEEE10int_writerIiNS0_18basic_format_specsIcEEE10dec_writerE",
   "name" : "const fmt::internal::basic_writer<buffer_range<char> >::int_writer<int, basic_format_specs<char> >::dec_writer *",
   "referenced_type" : "_ZTIKN3fmt2v68internal12basic_writerINS0_12buffer_rangeIcEEE10int_writerIiNS0_18basic_format_specsIcEEE10dec_writerE",
   "self_type" : "_ZTIPKN3fmt2v68internal12basic_writerINS0_12buffer_rangeIcEEE10int_writerIiNS0_18basic_format_specsIcEEE10dec_writerE",
   "size" : 4,
   "source_file" : "/external/fmtlib/include/fmt/format.h"
  },
  {
   "alignment" : 4,
   "linker_set_key" : "_ZTIPKN3fmt2v68internal12basic_writerINS0_12buffer_rangeIcEEE10int_writerIiNS0_18basic_format_specsIcEEE10hex_writerE",
   "name" : "const fmt::internal::basic_writer<buffer_range<char> >::int_writer<int, basic_format_specs<char> >::hex_writer *",
   "referenced_type" : "_ZTIKN3fmt2v68internal12basic_writerINS0_12buffer_rangeIcEEE10int_writerIiNS0_18basic_format_specsIcEEE10hex_writerE",
   "self_type" : "_ZTIPKN3fmt2v68internal12basic_writerINS0_12buffer_rangeIcEEE10int_writerIiNS0_18basic_format_specsIcEEE10hex_writerE",
   "size" : 4,
   "source_file" : "/external/fmtlib/include/fmt/format.h"
  },
  {
   "alignment" : 4,
   "linker_set_key" : "_ZTIPKN3fmt2v68internal12basic_writerINS0_12buffer_rangeIcEEE10int_writerIiNS0_18basic_format_specsIcEEE10num_writerE",
   "name" : "const fmt::internal::basic_writer<buffer_range<char> >::int_writer<int, basic_format_specs<char> >::num_writer *",
   "referenced_type" : "_ZTIKN3fmt2v68internal12basic_writerINS0_12buffer_rangeIcEEE10int_writerIiNS0_18basic_format_specsIcEEE10num_writerE",
   "self_type" : "_ZTIPKN3fmt2v68internal12basic_writerINS0_12buffer_rangeIcEEE10int_writerIiNS0_18basic_format_specsIcEEE10num_writerE",
   "size" : 4,
   "source_file" : "/external/fmtlib/include/fmt/format.h"
  },
  {
   "alignment" : 4,
   "linker_set_key" : "_ZTIPKN3fmt2v68internal12basic_writerINS0_12buffer_rangeIcEEE10int_writerIiNS0_18basic_format_specsIcEEEE",
   "name" : "const fmt::internal::basic_writer<buffer_range<char> >::int_writer<int, fmt::basic_format_specs<char> > *",
   "referenced_type" : "_ZTIKN3fmt2v68internal12basic_writerINS0_12buffer_rangeIcEEE10int_writerIiNS0_18basic_format_specsIcEEEE",
   "self_type" : "_ZTIPKN3fmt2v68internal12basic_writerINS0_12buffer_rangeIcEEE10int_writerIiNS0_18basic_format_specsIcEEEE",
   "size" : 4,
   "source_file" : "/external/fmtlib/include/fmt/format.h"
  },
  {
   "alignment" : 4,
   "linker_set_key" : "_ZTIPKN3fmt2v68internal12basic_writerINS0_12buffer_rangeIcEEE10int_writerIjNS0_18basic_format_specsIcEEE10bin_writerILi1EEE",
   "name" : "const fmt::internal::basic_writer<buffer_range<char> >::int_writer<unsigned int, basic_format_specs<char> >::bin_writer<1> *",
   "referenced_type" : "_ZTIKN3fmt2v68internal12basic_writerINS0_12buffer_rangeIcEEE10int_writerIjNS0_18basic_format_specsIcEEE10bin_writerILi1EEE",
   "self_type" : "_ZTIPKN3fmt2v68internal12basic_writerINS0_12buffer_rangeIcEEE10int_writerIjNS0_18basic_format_specsIcEEE10bin_writerILi1EEE",
   "size" : 4,
   "source_file" : "/external/fmtlib/include/fmt/format.h"
  },
  {
   "alignment" : 4,
   "linker_set_key" : "_ZTIPKN3fmt2v68internal12basic_writerINS0_12buffer_rangeIcEEE10int_writerIjNS0_18basic_format_specsIcEEE10bin_writerILi3EEE",
   "name" : "const fmt::internal::basic_writer<buffer_range<char> >::int_writer<unsigned int, basic_format_specs<char> >::bin_writer<3> *",
   "referenced_type" : "_ZTIKN3fmt2v68internal12basic_writerINS0_12buffer_rangeIcEEE10int_writerIjNS0_18basic_format_specsIcEEE10bin_writerILi3EEE",
   "self_type" : "_ZTIPKN3fmt2v68internal12basic_writerINS0_12buffer_rangeIcEEE10int_writerIjNS0_18basic_format_specsIcEEE10bin_writerILi3EEE",
   "size" : 4,
   "source_file" : "/external/fmtlib/include/fmt/format.h"
  },
  {
   "alignment" : 4,
   "linker_set_key" : "_ZTIPKN3fmt2v68internal12basic_writerINS0_12buffer_rangeIcEEE10int_writerIjNS0_18basic_format_specsIcEEE10dec_writerE",
   "name" : "const fmt::internal::basic_writer<buffer_range<char> >::int_writer<unsigned int, basic_format_specs<char> >::dec_writer *",
   "referenced_type" : "_ZTIKN3fmt2v68internal12basic_writerINS0_12buffer_rangeIcEEE10int_writerIjNS0_18basic_format_specsIcEEE10dec_writerE",
   "self_type" : "_ZTIPKN3fmt2v68internal12basic_writerINS0_12buffer_rangeIcEEE10int_writerIjNS0_18basic_format_specsIcEEE10dec_writerE",
   "size" : 4,
   "source_file" : "/external/fmtlib/include/fmt/format.h"
  },
  {
   "alignment" : 4,
   "linker_set_key" : "_ZTIPKN3fmt2v68internal12basic_writerINS0_12buffer_rangeIcEEE10int_writerIjNS0_18basic_format_specsIcEEE10hex_writerE",
   "name" : "const fmt::internal::basic_writer<buffer_range<char> >::int_writer<unsigned int, basic_format_specs<char> >::hex_writer *",
   "referenced_type" : "_ZTIKN3fmt2v68internal12basic_writerINS0_12buffer_rangeIcEEE10int_writerIjNS0_18basic_format_specsIcEEE10hex_writerE",
   "self_type" : "_ZTIPKN3fmt2v68internal12basic_writerINS0_12buffer_rangeIcEEE10int_writerIjNS0_18basic_format_specsIcEEE10hex_writerE",
   "size" : 4,
   "source_file" : "/external/fmtlib/include/fmt/format.h"
  },
  {
   "alignment" : 4,
   "linker_set_key" : "_ZTIPKN3fmt2v68internal12basic_writerINS0_12buffer_rangeIcEEE10int_writerIjNS0_18basic_format_specsIcEEE10num_writerE",
   "name" : "const fmt::internal::basic_writer<buffer_range<char> >::int_writer<unsigned int, basic_format_specs<char> >::num_writer *",
   "referenced_type" : "_ZTIKN3fmt2v68internal12basic_writerINS0_12buffer_rangeIcEEE10int_writerIjNS0_18basic_format_specsIcEEE10num_writerE",
   "self_type" : "_ZTIPKN3fmt2v68internal12basic_writerINS0_12buffer_rangeIcEEE10int_writerIjNS0_18basic_format_specsIcEEE10num_writerE",
   "size" : 4,
   "source_file" : "/external/fmtlib/include/fmt/format.h"
  },
  {
   "alignment" : 4,
   "linker_set_key" : "_ZTIPKN3fmt2v68internal12basic_writerINS0_12buffer_rangeIcEEE10int_writerIjNS0_18basic_format_specsIcEEEE",
   "name" : "const fmt::internal::basic_writer<buffer_range<char> >::int_writer<unsigned int, fmt::basic_format_specs<char> > *",
   "referenced_type" : "_ZTIKN3fmt2v68internal12basic_writerINS0_12buffer_rangeIcEEE10int_writerIjNS0_18basic_format_specsIcEEEE",
   "self_type" : "_ZTIPKN3fmt2v68internal12basic_writerINS0_12buffer_rangeIcEEE10int_writerIjNS0_18basic_format_specsIcEEEE",
   "size" : 4,
   "source_file" : "/external/fmtlib/include/fmt/format.h"
  },
  {
   "alignment" : 4,
   "linker_set_key" : "_ZTIPKN3fmt2v68internal12basic_writerINS0_12buffer_rangeIcEEE10int_writerIxNS0_18basic_format_specsIcEEE10bin_writerILi1EEE",
   "name" : "const fmt::internal::basic_writer<buffer_range<char> >::int_writer<long long, basic_format_specs<char> >::bin_writer<1> *",
   "referenced_type" : "_ZTIKN3fmt2v68internal12basic_writerINS0_12buffer_rangeIcEEE10int_writerIxNS0_18basic_format_specsIcEEE10bin_writerILi1EEE",
   "self_type" : "_ZTIPKN3fmt2v68internal12basic_writerINS0_12buffer_rangeIcEEE10int_writerIxNS0_18basic_format_specsIcEEE10bin_writerILi1EEE",
   "size" : 4,
   "source_file" : "/external/fmtlib/include/fmt/format.h"
  },
  {
   "alignment" : 4,
   "linker_set_key" : "_ZTIPKN3fmt2v68internal12basic_writerINS0_12buffer_rangeIcEEE10int_writerIxNS0_18basic_format_specsIcEEE10bin_writerILi3EEE",
   "name" : "const fmt::internal::basic_writer<buffer_range<char> >::int_writer<long long, basic_format_specs<char> >::bin_writer<3> *",
   "referenced_type" : "_ZTIKN3fmt2v68internal12basic_writerINS0_12buffer_rangeIcEEE10int_writerIxNS0_18basic_format_specsIcEEE10bin_writerILi3EEE",
   "self_type" : "_ZTIPKN3fmt2v68internal12basic_writerINS0_12buffer_rangeIcEEE10int_writerIxNS0_18basic_format_specsIcEEE10bin_writerILi3EEE",
   "size" : 4,
   "source_file" : "/external/fmtlib/include/fmt/format.h"
  },
  {
   "alignment" : 4,
   "linker_set_key" : "_ZTIPKN3fmt2v68internal12basic_writerINS0_12buffer_rangeIcEEE10int_writerIxNS0_18basic_format_specsIcEEE10dec_writerE",
   "name" : "const fmt::internal::basic_writer<buffer_range<char> >::int_writer<long long, basic_format_specs<char> >::dec_writer *",
   "referenced_type" : "_ZTIKN3fmt2v68internal12basic_writerINS0_12buffer_rangeIcEEE10int_writerIxNS0_18basic_format_specsIcEEE10dec_writerE",
   "self_type" : "_ZTIPKN3fmt2v68internal12basic_writerINS0_12buffer_rangeIcEEE10int_writerIxNS0_18basic_format_specsIcEEE10dec_writerE",
   "size" : 4,
   "source_file" : "/external/fmtlib/include/fmt/format.h"
  },
  {
   "alignment" : 4,
   "linker_set_key" : "_ZTIPKN3fmt2v68internal12basic_writerINS0_12buffer_rangeIcEEE10int_writerIxNS0_18basic_format_specsIcEEE10hex_writerE",
   "name" : "const fmt::internal::basic_writer<buffer_range<char> >::int_writer<long long, basic_format_specs<char> >::hex_writer *",
   "referenced_type" : "_ZTIKN3fmt2v68internal12basic_writerINS0_12buffer_rangeIcEEE10int_writerIxNS0_18basic_format_specsIcEEE10hex_writerE",
   "self_type" : "_ZTIPKN3fmt2v68internal12basic_writerINS0_12buffer_rangeIcEEE10int_writerIxNS0_18basic_format_specsIcEEE10hex_writerE",
   "size" : 4,
   "source_file" : "/external/fmtlib/include/fmt/format.h"
  },
  {
   "alignment" : 4,
   "linker_set_key" : "_ZTIPKN3fmt2v68internal12basic_writerINS0_12buffer_rangeIcEEE10int_writerIxNS0_18basic_format_specsIcEEE10num_writerE",
   "name" : "const fmt::internal::basic_writer<buffer_range<char> >::int_writer<long long, basic_format_specs<char> >::num_writer *",
   "referenced_type" : "_ZTIKN3fmt2v68internal12basic_writerINS0_12buffer_rangeIcEEE10int_writerIxNS0_18basic_format_specsIcEEE10num_writerE",
   "self_type" : "_ZTIPKN3fmt2v68internal12basic_writerINS0_12buffer_rangeIcEEE10int_writerIxNS0_18basic_format_specsIcEEE10num_writerE",
   "size" : 4,
   "source_file" : "/external/fmtlib/include/fmt/format.h"
  },
  {
   "alignment" : 4,
   "linker_set_key" : "_ZTIPKN3fmt2v68internal12basic_writerINS0_12buffer_rangeIcEEE10int_writerIxNS0_18basic_format_specsIcEEEE",
   "name" : "const fmt::internal::basic_writer<buffer_range<char> >::int_writer<long long, fmt::basic_format_specs<char> > *",
   "referenced_type" : "_ZTIKN3fmt2v68internal12basic_writerINS0_12buffer_rangeIcEEE10int_writerIxNS0_18basic_format_specsIcEEEE",
   "self_type" : "_ZTIPKN3fmt2v68internal12basic_writerINS0_12buffer_rangeIcEEE10int_writerIxNS0_18basic_format_specsIcEEEE",
   "size" : 4,
   "source_file" : "/external/fmtlib/include/fmt/format.h"
  },
  {
   "alignment" : 4,
   "linker_set_key" : "_ZTIPKN3fmt2v68internal12basic_writerINS0_12buffer_rangeIcEEE10int_writerIyNS0_18basic_format_specsIcEEE10bin_writerILi1EEE",
   "name" : "const fmt::internal::basic_writer<buffer_range<char> >::int_writer<unsigned long long, basic_format_specs<char> >::bin_writer<1> *",
   "referenced_type" : "_ZTIKN3fmt2v68internal12basic_writerINS0_12buffer_rangeIcEEE10int_writerIyNS0_18basic_format_specsIcEEE10bin_writerILi1EEE",
   "self_type" : "_ZTIPKN3fmt2v68internal12basic_writerINS0_12buffer_rangeIcEEE10int_writerIyNS0_18basic_format_specsIcEEE10bin_writerILi1EEE",
   "size" : 4,
   "source_file" : "/external/fmtlib/include/fmt/format.h"
  },
  {
   "alignment" : 4,
   "linker_set_key" : "_ZTIPKN3fmt2v68internal12basic_writerINS0_12buffer_rangeIcEEE10int_writerIyNS0_18basic_format_specsIcEEE10bin_writerILi3EEE",
   "name" : "const fmt::internal::basic_writer<buffer_range<char> >::int_writer<unsigned long long, basic_format_specs<char> >::bin_writer<3> *",
   "referenced_type" : "_ZTIKN3fmt2v68internal12basic_writerINS0_12buffer_rangeIcEEE10int_writerIyNS0_18basic_format_specsIcEEE10bin_writerILi3EEE",
   "self_type" : "_ZTIPKN3fmt2v68internal12basic_writerINS0_12buffer_rangeIcEEE10int_writerIyNS0_18basic_format_specsIcEEE10bin_writerILi3EEE",
   "size" : 4,
   "source_file" : "/external/fmtlib/include/fmt/format.h"
  },
  {
   "alignment" : 4,
   "linker_set_key" : "_ZTIPKN3fmt2v68internal12basic_writerINS0_12buffer_rangeIcEEE10int_writerIyNS0_18basic_format_specsIcEEE10dec_writerE",
   "name" : "const fmt::internal::basic_writer<buffer_range<char> >::int_writer<unsigned long long, basic_format_specs<char> >::dec_writer *",
   "referenced_type" : "_ZTIKN3fmt2v68internal12basic_writerINS0_12buffer_rangeIcEEE10int_writerIyNS0_18basic_format_specsIcEEE10dec_writerE",
   "self_type" : "_ZTIPKN3fmt2v68internal12basic_writerINS0_12buffer_rangeIcEEE10int_writerIyNS0_18basic_format_specsIcEEE10dec_writerE",
   "size" : 4,
   "source_file" : "/external/fmtlib/include/fmt/format.h"
  },
  {
   "alignment" : 4,
   "linker_set_key" : "_ZTIPKN3fmt2v68internal12basic_writerINS0_12buffer_rangeIcEEE10int_writerIyNS0_18basic_format_specsIcEEE10hex_writerE",
   "name" : "const fmt::internal::basic_writer<buffer_range<char> >::int_writer<unsigned long long, basic_format_specs<char> >::hex_writer *",
   "referenced_type" : "_ZTIKN3fmt2v68internal12basic_writerINS0_12buffer_rangeIcEEE10int_writerIyNS0_18basic_format_specsIcEEE10hex_writerE",
   "self_type" : "_ZTIPKN3fmt2v68internal12basic_writerINS0_12buffer_rangeIcEEE10int_writerIyNS0_18basic_format_specsIcEEE10hex_writerE",
   "size" : 4,
   "source_file" : "/external/fmtlib/include/fmt/format.h"
  },
  {
   "alignment" : 4,
   "linker_set_key" : "_ZTIPKN3fmt2v68internal12basic_writerINS0_12buffer_rangeIcEEE10int_writerIyNS0_18basic_format_specsIcEEE10num_writerE",
   "name" : "const fmt::internal::basic_writer<buffer_range<char> >::int_writer<unsigned long long, basic_format_specs<char> >::num_writer *",
   "referenced_type" : "_ZTIKN3fmt2v68internal12basic_writerINS0_12buffer_rangeIcEEE10int_writerIyNS0_18basic_format_specsIcEEE10num_writerE",
   "self_type" : "_ZTIPKN3fmt2v68internal12basic_writerINS0_12buffer_rangeIcEEE10int_writerIyNS0_18basic_format_specsIcEEE10num_writerE",
   "size" : 4,
   "source_file" : "/external/fmtlib/include/fmt/format.h"
  },
  {
   "alignment" : 4,
   "linker_set_key" : "_ZTIPKN3fmt2v68internal12basic_writerINS0_12buffer_rangeIcEEE10int_writerIyNS0_18basic_format_specsIcEEEE",
   "name" : "const fmt::internal::basic_writer<buffer_range<char> >::int_writer<unsigned long long, fmt::basic_format_specs<char> > *",
   "referenced_type" : "_ZTIKN3fmt2v68internal12basic_writerINS0_12buffer_rangeIcEEE10int_writerIyNS0_18basic_format_specsIcEEEE",
   "self_type" : "_ZTIPKN3fmt2v68internal12basic_writerINS0_12buffer_rangeIcEEE10int_writerIyNS0_18basic_format_specsIcEEEE",
   "size" : 4,
   "source_file" : "/external/fmtlib/include/fmt/format.h"
  },
  {
   "alignment" : 4,
   "linker_set_key" : "_ZTIPKN3fmt2v68internal12basic_writerINS0_12buffer_rangeIcEEE10str_writerIcEE",
   "name" : "const fmt::internal::basic_writer<buffer_range<char> >::str_writer<char> *",
   "referenced_type" : "_ZTIKN3fmt2v68internal12basic_writerINS0_12buffer_rangeIcEEE10str_writerIcEE",
   "self_type" : "_ZTIPKN3fmt2v68internal12basic_writerINS0_12buffer_rangeIcEEE10str_writerIcEE",
   "size" : 4,
   "source_file" : "/external/fmtlib/include/fmt/format.h"
  },
  {
   "alignment" : 4,
   "linker_set_key" : "_ZTIPKN3fmt2v68internal12basic_writerINS0_12buffer_rangeIcEEE14pointer_writerIjEE",
   "name" : "const fmt::internal::basic_writer<buffer_range<char> >::pointer_writer<unsigned int> *",
   "referenced_type" : "_ZTIKN3fmt2v68internal12basic_writerINS0_12buffer_rangeIcEEE14pointer_writerIjEE",
   "self_type" : "_ZTIPKN3fmt2v68internal12basic_writerINS0_12buffer_rangeIcEEE14pointer_writerIjEE",
   "size" : 4,
   "source_file" : "/external/fmtlib/include/fmt/format.h"
  },
  {
   "alignment" : 4,
   "linker_set_key" : "_ZTIPKN3fmt2v68internal12basic_writerINS0_12buffer_rangeIcEEE17padded_int_writerINS5_10int_writerIcNS0_18basic_format_specsIcEEE10bin_writerILi1EEEEE",
   "name" : "const fmt::internal::basic_writer<buffer_range<char> >::padded_int_writer<fmt::internal::basic_writer<buffer_range<char> >::int_writer<char, basic_format_specs<char> >::bin_writer<1> > *",
   "referenced_type" : "_ZTIKN3fmt2v68internal12basic_writerINS0_12buffer_rangeIcEEE17padded_int_writerINS5_10int_writerIcNS0_18basic_format_specsIcEEE10bin_writerILi1EEEEE",
   "self_type" : "_ZTIPKN3fmt2v68internal12basic_writerINS0_12buffer_rangeIcEEE17padded_int_writerINS5_10int_writerIcNS0_18basic_format_specsIcEEE10bin_writerILi1EEEEE",
   "size" : 4,
   "source_file" : "/external/fmtlib/include/fmt/format.h"
  },
  {
   "alignment" : 4,
   "linker_set_key" : "_ZTIPKN3fmt2v68internal12basic_writerINS0_12buffer_rangeIcEEE17padded_int_writerINS5_10int_writerIcNS0_18basic_format_specsIcEEE10bin_writerILi3EEEEE",
   "name" : "const fmt::internal::basic_writer<buffer_range<char> >::padded_int_writer<fmt::internal::basic_writer<buffer_range<char> >::int_writer<char, basic_format_specs<char> >::bin_writer<3> > *",
   "referenced_type" : "_ZTIKN3fmt2v68internal12basic_writerINS0_12buffer_rangeIcEEE17padded_int_writerINS5_10int_writerIcNS0_18basic_format_specsIcEEE10bin_writerILi3EEEEE",
   "self_type" : "_ZTIPKN3fmt2v68internal12basic_writerINS0_12buffer_rangeIcEEE17padded_int_writerINS5_10int_writerIcNS0_18basic_format_specsIcEEE10bin_writerILi3EEEEE",
   "size" : 4,
   "source_file" : "/external/fmtlib/include/fmt/format.h"
  },
  {
   "alignment" : 4,
   "linker_set_key" : "_ZTIPKN3fmt2v68internal12basic_writerINS0_12buffer_rangeIcEEE17padded_int_writerINS5_10int_writerIcNS0_18basic_format_specsIcEEE10dec_writerEEE",
   "name" : "const fmt::internal::basic_writer<buffer_range<char> >::padded_int_writer<fmt::internal::basic_writer<buffer_range<char> >::int_writer<char, basic_format_specs<char> >::dec_writer> *",
   "referenced_type" : "_ZTIKN3fmt2v68internal12basic_writerINS0_12buffer_rangeIcEEE17padded_int_writerINS5_10int_writerIcNS0_18basic_format_specsIcEEE10dec_writerEEE",
   "self_type" : "_ZTIPKN3fmt2v68internal12basic_writerINS0_12buffer_rangeIcEEE17padded_int_writerINS5_10int_writerIcNS0_18basic_format_specsIcEEE10dec_writerEEE",
   "size" : 4,
   "source_file" : "/external/fmtlib/include/fmt/format.h"
  },
  {
   "alignment" : 4,
   "linker_set_key" : "_ZTIPKN3fmt2v68internal12basic_writerINS0_12buffer_rangeIcEEE17padded_int_writerINS5_10int_writerIcNS0_18basic_format_specsIcEEE10hex_writerEEE",
   "name" : "const fmt::internal::basic_writer<buffer_range<char> >::padded_int_writer<fmt::internal::basic_writer<buffer_range<char> >::int_writer<char, basic_format_specs<char> >::hex_writer> *",
   "referenced_type" : "_ZTIKN3fmt2v68internal12basic_writerINS0_12buffer_rangeIcEEE17padded_int_writerINS5_10int_writerIcNS0_18basic_format_specsIcEEE10hex_writerEEE",
   "self_type" : "_ZTIPKN3fmt2v68internal12basic_writerINS0_12buffer_rangeIcEEE17padded_int_writerINS5_10int_writerIcNS0_18basic_format_specsIcEEE10hex_writerEEE",
   "size" : 4,
   "source_file" : "/external/fmtlib/include/fmt/format.h"
  },
  {
   "alignment" : 4,
   "linker_set_key" : "_ZTIPKN3fmt2v68internal12basic_writerINS0_12buffer_rangeIcEEE17padded_int_writerINS5_10int_writerIcNS0_18basic_format_specsIcEEE10num_writerEEE",
   "name" : "const fmt::internal::basic_writer<buffer_range<char> >::padded_int_writer<fmt::internal::basic_writer<buffer_range<char> >::int_writer<char, basic_format_specs<char> >::num_writer> *",
   "referenced_type" : "_ZTIKN3fmt2v68internal12basic_writerINS0_12buffer_rangeIcEEE17padded_int_writerINS5_10int_writerIcNS0_18basic_format_specsIcEEE10num_writerEEE",
   "self_type" : "_ZTIPKN3fmt2v68internal12basic_writerINS0_12buffer_rangeIcEEE17padded_int_writerINS5_10int_writerIcNS0_18basic_format_specsIcEEE10num_writerEEE",
   "size" : 4,
   "source_file" : "/external/fmtlib/include/fmt/format.h"
  },
  {
   "alignment" : 4,
   "linker_set_key" : "_ZTIPKN3fmt2v68internal12basic_writerINS0_12buffer_rangeIcEEE17padded_int_writerINS5_10int_writerIiNS0_18basic_format_specsIcEEE10bin_writerILi1EEEEE",
   "name" : "const fmt::internal::basic_writer<buffer_range<char> >::padded_int_writer<fmt::internal::basic_writer<buffer_range<char> >::int_writer<int, basic_format_specs<char> >::bin_writer<1> > *",
   "referenced_type" : "_ZTIKN3fmt2v68internal12basic_writerINS0_12buffer_rangeIcEEE17padded_int_writerINS5_10int_writerIiNS0_18basic_format_specsIcEEE10bin_writerILi1EEEEE",
   "self_type" : "_ZTIPKN3fmt2v68internal12basic_writerINS0_12buffer_rangeIcEEE17padded_int_writerINS5_10int_writerIiNS0_18basic_format_specsIcEEE10bin_writerILi1EEEEE",
   "size" : 4,
   "source_file" : "/external/fmtlib/include/fmt/format.h"
  },
  {
   "alignment" : 4,
   "linker_set_key" : "_ZTIPKN3fmt2v68internal12basic_writerINS0_12buffer_rangeIcEEE17padded_int_writerINS5_10int_writerIiNS0_18basic_format_specsIcEEE10bin_writerILi3EEEEE",
   "name" : "const fmt::internal::basic_writer<buffer_range<char> >::padded_int_writer<fmt::internal::basic_writer<buffer_range<char> >::int_writer<int, basic_format_specs<char> >::bin_writer<3> > *",
   "referenced_type" : "_ZTIKN3fmt2v68internal12basic_writerINS0_12buffer_rangeIcEEE17padded_int_writerINS5_10int_writerIiNS0_18basic_format_specsIcEEE10bin_writerILi3EEEEE",
   "self_type" : "_ZTIPKN3fmt2v68internal12basic_writerINS0_12buffer_rangeIcEEE17padded_int_writerINS5_10int_writerIiNS0_18basic_format_specsIcEEE10bin_writerILi3EEEEE",
   "size" : 4,
   "source_file" : "/external/fmtlib/include/fmt/format.h"
  },
  {
   "alignment" : 4,
   "linker_set_key" : "_ZTIPKN3fmt2v68internal12basic_writerINS0_12buffer_rangeIcEEE17padded_int_writerINS5_10int_writerIiNS0_18basic_format_specsIcEEE10dec_writerEEE",
   "name" : "const fmt::internal::basic_writer<buffer_range<char> >::padded_int_writer<fmt::internal::basic_writer<buffer_range<char> >::int_writer<int, basic_format_specs<char> >::dec_writer> *",
   "referenced_type" : "_ZTIKN3fmt2v68internal12basic_writerINS0_12buffer_rangeIcEEE17padded_int_writerINS5_10int_writerIiNS0_18basic_format_specsIcEEE10dec_writerEEE",
   "self_type" : "_ZTIPKN3fmt2v68internal12basic_writerINS0_12buffer_rangeIcEEE17padded_int_writerINS5_10int_writerIiNS0_18basic_format_specsIcEEE10dec_writerEEE",
   "size" : 4,
   "source_file" : "/external/fmtlib/include/fmt/format.h"
  },
  {
   "alignment" : 4,
   "linker_set_key" : "_ZTIPKN3fmt2v68internal12basic_writerINS0_12buffer_rangeIcEEE17padded_int_writerINS5_10int_writerIiNS0_18basic_format_specsIcEEE10hex_writerEEE",
   "name" : "const fmt::internal::basic_writer<buffer_range<char> >::padded_int_writer<fmt::internal::basic_writer<buffer_range<char> >::int_writer<int, basic_format_specs<char> >::hex_writer> *",
   "referenced_type" : "_ZTIKN3fmt2v68internal12basic_writerINS0_12buffer_rangeIcEEE17padded_int_writerINS5_10int_writerIiNS0_18basic_format_specsIcEEE10hex_writerEEE",
   "self_type" : "_ZTIPKN3fmt2v68internal12basic_writerINS0_12buffer_rangeIcEEE17padded_int_writerINS5_10int_writerIiNS0_18basic_format_specsIcEEE10hex_writerEEE",
   "size" : 4,
   "source_file" : "/external/fmtlib/include/fmt/format.h"
  },
  {
   "alignment" : 4,
   "linker_set_key" : "_ZTIPKN3fmt2v68internal12basic_writerINS0_12buffer_rangeIcEEE17padded_int_writerINS5_10int_writerIiNS0_18basic_format_specsIcEEE10num_writerEEE",
   "name" : "const fmt::internal::basic_writer<buffer_range<char> >::padded_int_writer<fmt::internal::basic_writer<buffer_range<char> >::int_writer<int, basic_format_specs<char> >::num_writer> *",
   "referenced_type" : "_ZTIKN3fmt2v68internal12basic_writerINS0_12buffer_rangeIcEEE17padded_int_writerINS5_10int_writerIiNS0_18basic_format_specsIcEEE10num_writerEEE",
   "self_type" : "_ZTIPKN3fmt2v68internal12basic_writerINS0_12buffer_rangeIcEEE17padded_int_writerINS5_10int_writerIiNS0_18basic_format_specsIcEEE10num_writerEEE",
   "size" : 4,
   "source_file" : "/external/fmtlib/include/fmt/format.h"
  },
  {
   "alignment" : 4,
   "linker_set_key" : "_ZTIPKN3fmt2v68internal12basic_writerINS0_12buffer_rangeIcEEE17padded_int_writerINS5_10int_writerIjNS0_18basic_format_specsIcEEE10bin_writerILi1EEEEE",
   "name" : "const fmt::internal::basic_writer<buffer_range<char> >::padded_int_writer<fmt::internal::basic_writer<buffer_range<char> >::int_writer<unsigned int, basic_format_specs<char> >::bin_writer<1> > *",
   "referenced_type" : "_ZTIKN3fmt2v68internal12basic_writerINS0_12buffer_rangeIcEEE17padded_int_writerINS5_10int_writerIjNS0_18basic_format_specsIcEEE10bin_writerILi1EEEEE",
   "self_type" : "_ZTIPKN3fmt2v68internal12basic_writerINS0_12buffer_rangeIcEEE17padded_int_writerINS5_10int_writerIjNS0_18basic_format_specsIcEEE10bin_writerILi1EEEEE",
   "size" : 4,
   "source_file" : "/external/fmtlib/include/fmt/format.h"
  },
  {
   "alignment" : 4,
   "linker_set_key" : "_ZTIPKN3fmt2v68internal12basic_writerINS0_12buffer_rangeIcEEE17padded_int_writerINS5_10int_writerIjNS0_18basic_format_specsIcEEE10bin_writerILi3EEEEE",
   "name" : "const fmt::internal::basic_writer<buffer_range<char> >::padded_int_writer<fmt::internal::basic_writer<buffer_range<char> >::int_writer<unsigned int, basic_format_specs<char> >::bin_writer<3> > *",
   "referenced_type" : "_ZTIKN3fmt2v68internal12basic_writerINS0_12buffer_rangeIcEEE17padded_int_writerINS5_10int_writerIjNS0_18basic_format_specsIcEEE10bin_writerILi3EEEEE",
   "self_type" : "_ZTIPKN3fmt2v68internal12basic_writerINS0_12buffer_rangeIcEEE17padded_int_writerINS5_10int_writerIjNS0_18basic_format_specsIcEEE10bin_writerILi3EEEEE",
   "size" : 4,
   "source_file" : "/external/fmtlib/include/fmt/format.h"
  },
  {
   "alignment" : 4,
   "linker_set_key" : "_ZTIPKN3fmt2v68internal12basic_writerINS0_12buffer_rangeIcEEE17padded_int_writerINS5_10int_writerIjNS0_18basic_format_specsIcEEE10dec_writerEEE",
   "name" : "const fmt::internal::basic_writer<buffer_range<char> >::padded_int_writer<fmt::internal::basic_writer<buffer_range<char> >::int_writer<unsigned int, basic_format_specs<char> >::dec_writer> *",
   "referenced_type" : "_ZTIKN3fmt2v68internal12basic_writerINS0_12buffer_rangeIcEEE17padded_int_writerINS5_10int_writerIjNS0_18basic_format_specsIcEEE10dec_writerEEE",
   "self_type" : "_ZTIPKN3fmt2v68internal12basic_writerINS0_12buffer_rangeIcEEE17padded_int_writerINS5_10int_writerIjNS0_18basic_format_specsIcEEE10dec_writerEEE",
   "size" : 4,
   "source_file" : "/external/fmtlib/include/fmt/format.h"
  },
  {
   "alignment" : 4,
   "linker_set_key" : "_ZTIPKN3fmt2v68internal12basic_writerINS0_12buffer_rangeIcEEE17padded_int_writerINS5_10int_writerIjNS0_18basic_format_specsIcEEE10hex_writerEEE",
   "name" : "const fmt::internal::basic_writer<buffer_range<char> >::padded_int_writer<fmt::internal::basic_writer<buffer_range<char> >::int_writer<unsigned int, basic_format_specs<char> >::hex_writer> *",
   "referenced_type" : "_ZTIKN3fmt2v68internal12basic_writerINS0_12buffer_rangeIcEEE17padded_int_writerINS5_10int_writerIjNS0_18basic_format_specsIcEEE10hex_writerEEE",
   "self_type" : "_ZTIPKN3fmt2v68internal12basic_writerINS0_12buffer_rangeIcEEE17padded_int_writerINS5_10int_writerIjNS0_18basic_format_specsIcEEE10hex_writerEEE",
   "size" : 4,
   "source_file" : "/external/fmtlib/include/fmt/format.h"
  },
  {
   "alignment" : 4,
   "linker_set_key" : "_ZTIPKN3fmt2v68internal12basic_writerINS0_12buffer_rangeIcEEE17padded_int_writerINS5_10int_writerIjNS0_18basic_format_specsIcEEE10num_writerEEE",
   "name" : "const fmt::internal::basic_writer<buffer_range<char> >::padded_int_writer<fmt::internal::basic_writer<buffer_range<char> >::int_writer<unsigned int, basic_format_specs<char> >::num_writer> *",
   "referenced_type" : "_ZTIKN3fmt2v68internal12basic_writerINS0_12buffer_rangeIcEEE17padded_int_writerINS5_10int_writerIjNS0_18basic_format_specsIcEEE10num_writerEEE",
   "self_type" : "_ZTIPKN3fmt2v68internal12basic_writerINS0_12buffer_rangeIcEEE17padded_int_writerINS5_10int_writerIjNS0_18basic_format_specsIcEEE10num_writerEEE",
   "size" : 4,
   "source_file" : "/external/fmtlib/include/fmt/format.h"
  },
  {
   "alignment" : 4,
   "linker_set_key" : "_ZTIPKN3fmt2v68internal12basic_writerINS0_12buffer_rangeIcEEE17padded_int_writerINS5_10int_writerIxNS0_18basic_format_specsIcEEE10bin_writerILi1EEEEE",
   "name" : "const fmt::internal::basic_writer<buffer_range<char> >::padded_int_writer<fmt::internal::basic_writer<buffer_range<char> >::int_writer<long long, basic_format_specs<char> >::bin_writer<1> > *",
   "referenced_type" : "_ZTIKN3fmt2v68internal12basic_writerINS0_12buffer_rangeIcEEE17padded_int_writerINS5_10int_writerIxNS0_18basic_format_specsIcEEE10bin_writerILi1EEEEE",
   "self_type" : "_ZTIPKN3fmt2v68internal12basic_writerINS0_12buffer_rangeIcEEE17padded_int_writerINS5_10int_writerIxNS0_18basic_format_specsIcEEE10bin_writerILi1EEEEE",
   "size" : 4,
   "source_file" : "/external/fmtlib/include/fmt/format.h"
  },
  {
   "alignment" : 4,
   "linker_set_key" : "_ZTIPKN3fmt2v68internal12basic_writerINS0_12buffer_rangeIcEEE17padded_int_writerINS5_10int_writerIxNS0_18basic_format_specsIcEEE10bin_writerILi3EEEEE",
   "name" : "const fmt::internal::basic_writer<buffer_range<char> >::padded_int_writer<fmt::internal::basic_writer<buffer_range<char> >::int_writer<long long, basic_format_specs<char> >::bin_writer<3> > *",
   "referenced_type" : "_ZTIKN3fmt2v68internal12basic_writerINS0_12buffer_rangeIcEEE17padded_int_writerINS5_10int_writerIxNS0_18basic_format_specsIcEEE10bin_writerILi3EEEEE",
   "self_type" : "_ZTIPKN3fmt2v68internal12basic_writerINS0_12buffer_rangeIcEEE17padded_int_writerINS5_10int_writerIxNS0_18basic_format_specsIcEEE10bin_writerILi3EEEEE",
   "size" : 4,
   "source_file" : "/external/fmtlib/include/fmt/format.h"
  },
  {
   "alignment" : 4,
   "linker_set_key" : "_ZTIPKN3fmt2v68internal12basic_writerINS0_12buffer_rangeIcEEE17padded_int_writerINS5_10int_writerIxNS0_18basic_format_specsIcEEE10dec_writerEEE",
   "name" : "const fmt::internal::basic_writer<buffer_range<char> >::padded_int_writer<fmt::internal::basic_writer<buffer_range<char> >::int_writer<long long, basic_format_specs<char> >::dec_writer> *",
   "referenced_type" : "_ZTIKN3fmt2v68internal12basic_writerINS0_12buffer_rangeIcEEE17padded_int_writerINS5_10int_writerIxNS0_18basic_format_specsIcEEE10dec_writerEEE",
   "self_type" : "_ZTIPKN3fmt2v68internal12basic_writerINS0_12buffer_rangeIcEEE17padded_int_writerINS5_10int_writerIxNS0_18basic_format_specsIcEEE10dec_writerEEE",
   "size" : 4,
   "source_file" : "/external/fmtlib/include/fmt/format.h"
  },
  {
   "alignment" : 4,
   "linker_set_key" : "_ZTIPKN3fmt2v68internal12basic_writerINS0_12buffer_rangeIcEEE17padded_int_writerINS5_10int_writerIxNS0_18basic_format_specsIcEEE10hex_writerEEE",
   "name" : "const fmt::internal::basic_writer<buffer_range<char> >::padded_int_writer<fmt::internal::basic_writer<buffer_range<char> >::int_writer<long long, basic_format_specs<char> >::hex_writer> *",
   "referenced_type" : "_ZTIKN3fmt2v68internal12basic_writerINS0_12buffer_rangeIcEEE17padded_int_writerINS5_10int_writerIxNS0_18basic_format_specsIcEEE10hex_writerEEE",
   "self_type" : "_ZTIPKN3fmt2v68internal12basic_writerINS0_12buffer_rangeIcEEE17padded_int_writerINS5_10int_writerIxNS0_18basic_format_specsIcEEE10hex_writerEEE",
   "size" : 4,
   "source_file" : "/external/fmtlib/include/fmt/format.h"
  },
  {
   "alignment" : 4,
   "linker_set_key" : "_ZTIPKN3fmt2v68internal12basic_writerINS0_12buffer_rangeIcEEE17padded_int_writerINS5_10int_writerIxNS0_18basic_format_specsIcEEE10num_writerEEE",
   "name" : "const fmt::internal::basic_writer<buffer_range<char> >::padded_int_writer<fmt::internal::basic_writer<buffer_range<char> >::int_writer<long long, basic_format_specs<char> >::num_writer> *",
   "referenced_type" : "_ZTIKN3fmt2v68internal12basic_writerINS0_12buffer_rangeIcEEE17padded_int_writerINS5_10int_writerIxNS0_18basic_format_specsIcEEE10num_writerEEE",
   "self_type" : "_ZTIPKN3fmt2v68internal12basic_writerINS0_12buffer_rangeIcEEE17padded_int_writerINS5_10int_writerIxNS0_18basic_format_specsIcEEE10num_writerEEE",
   "size" : 4,
   "source_file" : "/external/fmtlib/include/fmt/format.h"
  },
  {
   "alignment" : 4,
   "linker_set_key" : "_ZTIPKN3fmt2v68internal12basic_writerINS0_12buffer_rangeIcEEE17padded_int_writerINS5_10int_writerIyNS0_18basic_format_specsIcEEE10bin_writerILi1EEEEE",
   "name" : "const fmt::internal::basic_writer<buffer_range<char> >::padded_int_writer<fmt::internal::basic_writer<buffer_range<char> >::int_writer<unsigned long long, basic_format_specs<char> >::bin_writer<1> > *",
   "referenced_type" : "_ZTIKN3fmt2v68internal12basic_writerINS0_12buffer_rangeIcEEE17padded_int_writerINS5_10int_writerIyNS0_18basic_format_specsIcEEE10bin_writerILi1EEEEE",
   "self_type" : "_ZTIPKN3fmt2v68internal12basic_writerINS0_12buffer_rangeIcEEE17padded_int_writerINS5_10int_writerIyNS0_18basic_format_specsIcEEE10bin_writerILi1EEEEE",
   "size" : 4,
   "source_file" : "/external/fmtlib/include/fmt/format.h"
  },
  {
   "alignment" : 4,
   "linker_set_key" : "_ZTIPKN3fmt2v68internal12basic_writerINS0_12buffer_rangeIcEEE17padded_int_writerINS5_10int_writerIyNS0_18basic_format_specsIcEEE10bin_writerILi3EEEEE",
   "name" : "const fmt::internal::basic_writer<buffer_range<char> >::padded_int_writer<fmt::internal::basic_writer<buffer_range<char> >::int_writer<unsigned long long, basic_format_specs<char> >::bin_writer<3> > *",
   "referenced_type" : "_ZTIKN3fmt2v68internal12basic_writerINS0_12buffer_rangeIcEEE17padded_int_writerINS5_10int_writerIyNS0_18basic_format_specsIcEEE10bin_writerILi3EEEEE",
   "self_type" : "_ZTIPKN3fmt2v68internal12basic_writerINS0_12buffer_rangeIcEEE17padded_int_writerINS5_10int_writerIyNS0_18basic_format_specsIcEEE10bin_writerILi3EEEEE",
   "size" : 4,
   "source_file" : "/external/fmtlib/include/fmt/format.h"
  },
  {
   "alignment" : 4,
   "linker_set_key" : "_ZTIPKN3fmt2v68internal12basic_writerINS0_12buffer_rangeIcEEE17padded_int_writerINS5_10int_writerIyNS0_18basic_format_specsIcEEE10dec_writerEEE",
   "name" : "const fmt::internal::basic_writer<buffer_range<char> >::padded_int_writer<fmt::internal::basic_writer<buffer_range<char> >::int_writer<unsigned long long, basic_format_specs<char> >::dec_writer> *",
   "referenced_type" : "_ZTIKN3fmt2v68internal12basic_writerINS0_12buffer_rangeIcEEE17padded_int_writerINS5_10int_writerIyNS0_18basic_format_specsIcEEE10dec_writerEEE",
   "self_type" : "_ZTIPKN3fmt2v68internal12basic_writerINS0_12buffer_rangeIcEEE17padded_int_writerINS5_10int_writerIyNS0_18basic_format_specsIcEEE10dec_writerEEE",
   "size" : 4,
   "source_file" : "/external/fmtlib/include/fmt/format.h"
  },
  {
   "alignment" : 4,
   "linker_set_key" : "_ZTIPKN3fmt2v68internal12basic_writerINS0_12buffer_rangeIcEEE17padded_int_writerINS5_10int_writerIyNS0_18basic_format_specsIcEEE10hex_writerEEE",
   "name" : "const fmt::internal::basic_writer<buffer_range<char> >::padded_int_writer<fmt::internal::basic_writer<buffer_range<char> >::int_writer<unsigned long long, basic_format_specs<char> >::hex_writer> *",
   "referenced_type" : "_ZTIKN3fmt2v68internal12basic_writerINS0_12buffer_rangeIcEEE17padded_int_writerINS5_10int_writerIyNS0_18basic_format_specsIcEEE10hex_writerEEE",
   "self_type" : "_ZTIPKN3fmt2v68internal12basic_writerINS0_12buffer_rangeIcEEE17padded_int_writerINS5_10int_writerIyNS0_18basic_format_specsIcEEE10hex_writerEEE",
   "size" : 4,
   "source_file" : "/external/fmtlib/include/fmt/format.h"
  },
  {
   "alignment" : 4,
   "linker_set_key" : "_ZTIPKN3fmt2v68internal12basic_writerINS0_12buffer_rangeIcEEE17padded_int_writerINS5_10int_writerIyNS0_18basic_format_specsIcEEE10num_writerEEE",
   "name" : "const fmt::internal::basic_writer<buffer_range<char> >::padded_int_writer<fmt::internal::basic_writer<buffer_range<char> >::int_writer<unsigned long long, basic_format_specs<char> >::num_writer> *",
   "referenced_type" : "_ZTIKN3fmt2v68internal12basic_writerINS0_12buffer_rangeIcEEE17padded_int_writerINS5_10int_writerIyNS0_18basic_format_specsIcEEE10num_writerEEE",
   "self_type" : "_ZTIPKN3fmt2v68internal12basic_writerINS0_12buffer_rangeIcEEE17padded_int_writerINS5_10int_writerIyNS0_18basic_format_specsIcEEE10num_writerEEE",
   "size" : 4,
   "source_file" : "/external/fmtlib/include/fmt/format.h"
  },
  {
   "alignment" : 4,
   "linker_set_key" : "_ZTIPKN3fmt2v68internal12basic_writerINS0_12buffer_rangeIcEEEE",
   "name" : "const fmt::internal::basic_writer<fmt::buffer_range<char> > *",
   "referenced_type" : "_ZTIKN3fmt2v68internal12basic_writerINS0_12buffer_rangeIcEEEE",
   "self_type" : "_ZTIPKN3fmt2v68internal12basic_writerINS0_12buffer_rangeIcEEEE",
   "size" : 4,
   "source_file" : "/external/fmtlib/include/fmt/format.h"
  },
  {
   "alignment" : 4,
   "linker_set_key" : "_ZTIPKN3fmt2v68internal12basic_writerINS0_12buffer_rangeIwEEE10int_writerIiNS0_18basic_format_specsIwEEE10bin_writerILi1EEE",
   "name" : "const fmt::internal::basic_writer<buffer_range<wchar_t> >::int_writer<int, basic_format_specs<wchar_t> >::bin_writer<1> *",
   "referenced_type" : "_ZTIKN3fmt2v68internal12basic_writerINS0_12buffer_rangeIwEEE10int_writerIiNS0_18basic_format_specsIwEEE10bin_writerILi1EEE",
   "self_type" : "_ZTIPKN3fmt2v68internal12basic_writerINS0_12buffer_rangeIwEEE10int_writerIiNS0_18basic_format_specsIwEEE10bin_writerILi1EEE",
   "size" : 4,
   "source_file" : "/external/fmtlib/include/fmt/format.h"
  },
  {
   "alignment" : 4,
   "linker_set_key" : "_ZTIPKN3fmt2v68internal12basic_writerINS0_12buffer_rangeIwEEE10int_writerIiNS0_18basic_format_specsIwEEE10bin_writerILi3EEE",
   "name" : "const fmt::internal::basic_writer<buffer_range<wchar_t> >::int_writer<int, basic_format_specs<wchar_t> >::bin_writer<3> *",
   "referenced_type" : "_ZTIKN3fmt2v68internal12basic_writerINS0_12buffer_rangeIwEEE10int_writerIiNS0_18basic_format_specsIwEEE10bin_writerILi3EEE",
   "self_type" : "_ZTIPKN3fmt2v68internal12basic_writerINS0_12buffer_rangeIwEEE10int_writerIiNS0_18basic_format_specsIwEEE10bin_writerILi3EEE",
   "size" : 4,
   "source_file" : "/external/fmtlib/include/fmt/format.h"
  },
  {
   "alignment" : 4,
   "linker_set_key" : "_ZTIPKN3fmt2v68internal12basic_writerINS0_12buffer_rangeIwEEE10int_writerIiNS0_18basic_format_specsIwEEE10dec_writerE",
   "name" : "const fmt::internal::basic_writer<buffer_range<wchar_t> >::int_writer<int, basic_format_specs<wchar_t> >::dec_writer *",
   "referenced_type" : "_ZTIKN3fmt2v68internal12basic_writerINS0_12buffer_rangeIwEEE10int_writerIiNS0_18basic_format_specsIwEEE10dec_writerE",
   "self_type" : "_ZTIPKN3fmt2v68internal12basic_writerINS0_12buffer_rangeIwEEE10int_writerIiNS0_18basic_format_specsIwEEE10dec_writerE",
   "size" : 4,
   "source_file" : "/external/fmtlib/include/fmt/format.h"
  },
  {
   "alignment" : 4,
   "linker_set_key" : "_ZTIPKN3fmt2v68internal12basic_writerINS0_12buffer_rangeIwEEE10int_writerIiNS0_18basic_format_specsIwEEE10hex_writerE",
   "name" : "const fmt::internal::basic_writer<buffer_range<wchar_t> >::int_writer<int, basic_format_specs<wchar_t> >::hex_writer *",
   "referenced_type" : "_ZTIKN3fmt2v68internal12basic_writerINS0_12buffer_rangeIwEEE10int_writerIiNS0_18basic_format_specsIwEEE10hex_writerE",
   "self_type" : "_ZTIPKN3fmt2v68internal12basic_writerINS0_12buffer_rangeIwEEE10int_writerIiNS0_18basic_format_specsIwEEE10hex_writerE",
   "size" : 4,
   "source_file" : "/external/fmtlib/include/fmt/format.h"
  },
  {
   "alignment" : 4,
   "linker_set_key" : "_ZTIPKN3fmt2v68internal12basic_writerINS0_12buffer_rangeIwEEE10int_writerIiNS0_18basic_format_specsIwEEE10num_writerE",
   "name" : "const fmt::internal::basic_writer<buffer_range<wchar_t> >::int_writer<int, basic_format_specs<wchar_t> >::num_writer *",
   "referenced_type" : "_ZTIKN3fmt2v68internal12basic_writerINS0_12buffer_rangeIwEEE10int_writerIiNS0_18basic_format_specsIwEEE10num_writerE",
   "self_type" : "_ZTIPKN3fmt2v68internal12basic_writerINS0_12buffer_rangeIwEEE10int_writerIiNS0_18basic_format_specsIwEEE10num_writerE",
   "size" : 4,
   "source_file" : "/external/fmtlib/include/fmt/format.h"
  },
  {
   "alignment" : 4,
   "linker_set_key" : "_ZTIPKN3fmt2v68internal12basic_writerINS0_12buffer_rangeIwEEE10int_writerIiNS0_18basic_format_specsIwEEEE",
   "name" : "const fmt::internal::basic_writer<buffer_range<wchar_t> >::int_writer<int, fmt::basic_format_specs<wchar_t> > *",
   "referenced_type" : "_ZTIKN3fmt2v68internal12basic_writerINS0_12buffer_rangeIwEEE10int_writerIiNS0_18basic_format_specsIwEEEE",
   "self_type" : "_ZTIPKN3fmt2v68internal12basic_writerINS0_12buffer_rangeIwEEE10int_writerIiNS0_18basic_format_specsIwEEEE",
   "size" : 4,
   "source_file" : "/external/fmtlib/include/fmt/format.h"
  },
  {
   "alignment" : 4,
   "linker_set_key" : "_ZTIPKN3fmt2v68internal12basic_writerINS0_12buffer_rangeIwEEE10int_writerIjNS0_18basic_format_specsIwEEE10bin_writerILi1EEE",
   "name" : "const fmt::internal::basic_writer<buffer_range<wchar_t> >::int_writer<unsigned int, basic_format_specs<wchar_t> >::bin_writer<1> *",
   "referenced_type" : "_ZTIKN3fmt2v68internal12basic_writerINS0_12buffer_rangeIwEEE10int_writerIjNS0_18basic_format_specsIwEEE10bin_writerILi1EEE",
   "self_type" : "_ZTIPKN3fmt2v68internal12basic_writerINS0_12buffer_rangeIwEEE10int_writerIjNS0_18basic_format_specsIwEEE10bin_writerILi1EEE",
   "size" : 4,
   "source_file" : "/external/fmtlib/include/fmt/format.h"
  },
  {
   "alignment" : 4,
   "linker_set_key" : "_ZTIPKN3fmt2v68internal12basic_writerINS0_12buffer_rangeIwEEE10int_writerIjNS0_18basic_format_specsIwEEE10bin_writerILi3EEE",
   "name" : "const fmt::internal::basic_writer<buffer_range<wchar_t> >::int_writer<unsigned int, basic_format_specs<wchar_t> >::bin_writer<3> *",
   "referenced_type" : "_ZTIKN3fmt2v68internal12basic_writerINS0_12buffer_rangeIwEEE10int_writerIjNS0_18basic_format_specsIwEEE10bin_writerILi3EEE",
   "self_type" : "_ZTIPKN3fmt2v68internal12basic_writerINS0_12buffer_rangeIwEEE10int_writerIjNS0_18basic_format_specsIwEEE10bin_writerILi3EEE",
   "size" : 4,
   "source_file" : "/external/fmtlib/include/fmt/format.h"
  },
  {
   "alignment" : 4,
   "linker_set_key" : "_ZTIPKN3fmt2v68internal12basic_writerINS0_12buffer_rangeIwEEE10int_writerIjNS0_18basic_format_specsIwEEE10dec_writerE",
   "name" : "const fmt::internal::basic_writer<buffer_range<wchar_t> >::int_writer<unsigned int, basic_format_specs<wchar_t> >::dec_writer *",
   "referenced_type" : "_ZTIKN3fmt2v68internal12basic_writerINS0_12buffer_rangeIwEEE10int_writerIjNS0_18basic_format_specsIwEEE10dec_writerE",
   "self_type" : "_ZTIPKN3fmt2v68internal12basic_writerINS0_12buffer_rangeIwEEE10int_writerIjNS0_18basic_format_specsIwEEE10dec_writerE",
   "size" : 4,
   "source_file" : "/external/fmtlib/include/fmt/format.h"
  },
  {
   "alignment" : 4,
   "linker_set_key" : "_ZTIPKN3fmt2v68internal12basic_writerINS0_12buffer_rangeIwEEE10int_writerIjNS0_18basic_format_specsIwEEE10hex_writerE",
   "name" : "const fmt::internal::basic_writer<buffer_range<wchar_t> >::int_writer<unsigned int, basic_format_specs<wchar_t> >::hex_writer *",
   "referenced_type" : "_ZTIKN3fmt2v68internal12basic_writerINS0_12buffer_rangeIwEEE10int_writerIjNS0_18basic_format_specsIwEEE10hex_writerE",
   "self_type" : "_ZTIPKN3fmt2v68internal12basic_writerINS0_12buffer_rangeIwEEE10int_writerIjNS0_18basic_format_specsIwEEE10hex_writerE",
   "size" : 4,
   "source_file" : "/external/fmtlib/include/fmt/format.h"
  },
  {
   "alignment" : 4,
   "linker_set_key" : "_ZTIPKN3fmt2v68internal12basic_writerINS0_12buffer_rangeIwEEE10int_writerIjNS0_18basic_format_specsIwEEE10num_writerE",
   "name" : "const fmt::internal::basic_writer<buffer_range<wchar_t> >::int_writer<unsigned int, basic_format_specs<wchar_t> >::num_writer *",
   "referenced_type" : "_ZTIKN3fmt2v68internal12basic_writerINS0_12buffer_rangeIwEEE10int_writerIjNS0_18basic_format_specsIwEEE10num_writerE",
   "self_type" : "_ZTIPKN3fmt2v68internal12basic_writerINS0_12buffer_rangeIwEEE10int_writerIjNS0_18basic_format_specsIwEEE10num_writerE",
   "size" : 4,
   "source_file" : "/external/fmtlib/include/fmt/format.h"
  },
  {
   "alignment" : 4,
   "linker_set_key" : "_ZTIPKN3fmt2v68internal12basic_writerINS0_12buffer_rangeIwEEE10int_writerIjNS0_18basic_format_specsIwEEEE",
   "name" : "const fmt::internal::basic_writer<buffer_range<wchar_t> >::int_writer<unsigned int, fmt::basic_format_specs<wchar_t> > *",
   "referenced_type" : "_ZTIKN3fmt2v68internal12basic_writerINS0_12buffer_rangeIwEEE10int_writerIjNS0_18basic_format_specsIwEEEE",
   "self_type" : "_ZTIPKN3fmt2v68internal12basic_writerINS0_12buffer_rangeIwEEE10int_writerIjNS0_18basic_format_specsIwEEEE",
   "size" : 4,
   "source_file" : "/external/fmtlib/include/fmt/format.h"
  },
  {
   "alignment" : 4,
   "linker_set_key" : "_ZTIPKN3fmt2v68internal12basic_writerINS0_12buffer_rangeIwEEE10int_writerIwNS0_18basic_format_specsIwEEE10bin_writerILi1EEE",
   "name" : "const fmt::internal::basic_writer<buffer_range<wchar_t> >::int_writer<wchar_t, basic_format_specs<wchar_t> >::bin_writer<1> *",
   "referenced_type" : "_ZTIKN3fmt2v68internal12basic_writerINS0_12buffer_rangeIwEEE10int_writerIwNS0_18basic_format_specsIwEEE10bin_writerILi1EEE",
   "self_type" : "_ZTIPKN3fmt2v68internal12basic_writerINS0_12buffer_rangeIwEEE10int_writerIwNS0_18basic_format_specsIwEEE10bin_writerILi1EEE",
   "size" : 4,
   "source_file" : "/external/fmtlib/include/fmt/format.h"
  },
  {
   "alignment" : 4,
   "linker_set_key" : "_ZTIPKN3fmt2v68internal12basic_writerINS0_12buffer_rangeIwEEE10int_writerIwNS0_18basic_format_specsIwEEE10bin_writerILi3EEE",
   "name" : "const fmt::internal::basic_writer<buffer_range<wchar_t> >::int_writer<wchar_t, basic_format_specs<wchar_t> >::bin_writer<3> *",
   "referenced_type" : "_ZTIKN3fmt2v68internal12basic_writerINS0_12buffer_rangeIwEEE10int_writerIwNS0_18basic_format_specsIwEEE10bin_writerILi3EEE",
   "self_type" : "_ZTIPKN3fmt2v68internal12basic_writerINS0_12buffer_rangeIwEEE10int_writerIwNS0_18basic_format_specsIwEEE10bin_writerILi3EEE",
   "size" : 4,
   "source_file" : "/external/fmtlib/include/fmt/format.h"
  },
  {
   "alignment" : 4,
   "linker_set_key" : "_ZTIPKN3fmt2v68internal12basic_writerINS0_12buffer_rangeIwEEE10int_writerIwNS0_18basic_format_specsIwEEE10dec_writerE",
   "name" : "const fmt::internal::basic_writer<buffer_range<wchar_t> >::int_writer<wchar_t, basic_format_specs<wchar_t> >::dec_writer *",
   "referenced_type" : "_ZTIKN3fmt2v68internal12basic_writerINS0_12buffer_rangeIwEEE10int_writerIwNS0_18basic_format_specsIwEEE10dec_writerE",
   "self_type" : "_ZTIPKN3fmt2v68internal12basic_writerINS0_12buffer_rangeIwEEE10int_writerIwNS0_18basic_format_specsIwEEE10dec_writerE",
   "size" : 4,
   "source_file" : "/external/fmtlib/include/fmt/format.h"
  },
  {
   "alignment" : 4,
   "linker_set_key" : "_ZTIPKN3fmt2v68internal12basic_writerINS0_12buffer_rangeIwEEE10int_writerIwNS0_18basic_format_specsIwEEE10hex_writerE",
   "name" : "const fmt::internal::basic_writer<buffer_range<wchar_t> >::int_writer<wchar_t, basic_format_specs<wchar_t> >::hex_writer *",
   "referenced_type" : "_ZTIKN3fmt2v68internal12basic_writerINS0_12buffer_rangeIwEEE10int_writerIwNS0_18basic_format_specsIwEEE10hex_writerE",
   "self_type" : "_ZTIPKN3fmt2v68internal12basic_writerINS0_12buffer_rangeIwEEE10int_writerIwNS0_18basic_format_specsIwEEE10hex_writerE",
   "size" : 4,
   "source_file" : "/external/fmtlib/include/fmt/format.h"
  },
  {
   "alignment" : 4,
   "linker_set_key" : "_ZTIPKN3fmt2v68internal12basic_writerINS0_12buffer_rangeIwEEE10int_writerIwNS0_18basic_format_specsIwEEE10num_writerE",
   "name" : "const fmt::internal::basic_writer<buffer_range<wchar_t> >::int_writer<wchar_t, basic_format_specs<wchar_t> >::num_writer *",
   "referenced_type" : "_ZTIKN3fmt2v68internal12basic_writerINS0_12buffer_rangeIwEEE10int_writerIwNS0_18basic_format_specsIwEEE10num_writerE",
   "self_type" : "_ZTIPKN3fmt2v68internal12basic_writerINS0_12buffer_rangeIwEEE10int_writerIwNS0_18basic_format_specsIwEEE10num_writerE",
   "size" : 4,
   "source_file" : "/external/fmtlib/include/fmt/format.h"
  },
  {
   "alignment" : 4,
   "linker_set_key" : "_ZTIPKN3fmt2v68internal12basic_writerINS0_12buffer_rangeIwEEE10int_writerIwNS0_18basic_format_specsIwEEEE",
   "name" : "const fmt::internal::basic_writer<buffer_range<wchar_t> >::int_writer<wchar_t, fmt::basic_format_specs<wchar_t> > *",
   "referenced_type" : "_ZTIKN3fmt2v68internal12basic_writerINS0_12buffer_rangeIwEEE10int_writerIwNS0_18basic_format_specsIwEEEE",
   "self_type" : "_ZTIPKN3fmt2v68internal12basic_writerINS0_12buffer_rangeIwEEE10int_writerIwNS0_18basic_format_specsIwEEEE",
   "size" : 4,
   "source_file" : "/external/fmtlib/include/fmt/format.h"
  },
  {
   "alignment" : 4,
   "linker_set_key" : "_ZTIPKN3fmt2v68internal12basic_writerINS0_12buffer_rangeIwEEE10int_writerIxNS0_18basic_format_specsIwEEE10bin_writerILi1EEE",
   "name" : "const fmt::internal::basic_writer<buffer_range<wchar_t> >::int_writer<long long, basic_format_specs<wchar_t> >::bin_writer<1> *",
   "referenced_type" : "_ZTIKN3fmt2v68internal12basic_writerINS0_12buffer_rangeIwEEE10int_writerIxNS0_18basic_format_specsIwEEE10bin_writerILi1EEE",
   "self_type" : "_ZTIPKN3fmt2v68internal12basic_writerINS0_12buffer_rangeIwEEE10int_writerIxNS0_18basic_format_specsIwEEE10bin_writerILi1EEE",
   "size" : 4,
   "source_file" : "/external/fmtlib/include/fmt/format.h"
  },
  {
   "alignment" : 4,
   "linker_set_key" : "_ZTIPKN3fmt2v68internal12basic_writerINS0_12buffer_rangeIwEEE10int_writerIxNS0_18basic_format_specsIwEEE10bin_writerILi3EEE",
   "name" : "const fmt::internal::basic_writer<buffer_range<wchar_t> >::int_writer<long long, basic_format_specs<wchar_t> >::bin_writer<3> *",
   "referenced_type" : "_ZTIKN3fmt2v68internal12basic_writerINS0_12buffer_rangeIwEEE10int_writerIxNS0_18basic_format_specsIwEEE10bin_writerILi3EEE",
   "self_type" : "_ZTIPKN3fmt2v68internal12basic_writerINS0_12buffer_rangeIwEEE10int_writerIxNS0_18basic_format_specsIwEEE10bin_writerILi3EEE",
   "size" : 4,
   "source_file" : "/external/fmtlib/include/fmt/format.h"
  },
  {
   "alignment" : 4,
   "linker_set_key" : "_ZTIPKN3fmt2v68internal12basic_writerINS0_12buffer_rangeIwEEE10int_writerIxNS0_18basic_format_specsIwEEE10dec_writerE",
   "name" : "const fmt::internal::basic_writer<buffer_range<wchar_t> >::int_writer<long long, basic_format_specs<wchar_t> >::dec_writer *",
   "referenced_type" : "_ZTIKN3fmt2v68internal12basic_writerINS0_12buffer_rangeIwEEE10int_writerIxNS0_18basic_format_specsIwEEE10dec_writerE",
   "self_type" : "_ZTIPKN3fmt2v68internal12basic_writerINS0_12buffer_rangeIwEEE10int_writerIxNS0_18basic_format_specsIwEEE10dec_writerE",
   "size" : 4,
   "source_file" : "/external/fmtlib/include/fmt/format.h"
  },
  {
   "alignment" : 4,
   "linker_set_key" : "_ZTIPKN3fmt2v68internal12basic_writerINS0_12buffer_rangeIwEEE10int_writerIxNS0_18basic_format_specsIwEEE10hex_writerE",
   "name" : "const fmt::internal::basic_writer<buffer_range<wchar_t> >::int_writer<long long, basic_format_specs<wchar_t> >::hex_writer *",
   "referenced_type" : "_ZTIKN3fmt2v68internal12basic_writerINS0_12buffer_rangeIwEEE10int_writerIxNS0_18basic_format_specsIwEEE10hex_writerE",
   "self_type" : "_ZTIPKN3fmt2v68internal12basic_writerINS0_12buffer_rangeIwEEE10int_writerIxNS0_18basic_format_specsIwEEE10hex_writerE",
   "size" : 4,
   "source_file" : "/external/fmtlib/include/fmt/format.h"
  },
  {
   "alignment" : 4,
   "linker_set_key" : "_ZTIPKN3fmt2v68internal12basic_writerINS0_12buffer_rangeIwEEE10int_writerIxNS0_18basic_format_specsIwEEE10num_writerE",
   "name" : "const fmt::internal::basic_writer<buffer_range<wchar_t> >::int_writer<long long, basic_format_specs<wchar_t> >::num_writer *",
   "referenced_type" : "_ZTIKN3fmt2v68internal12basic_writerINS0_12buffer_rangeIwEEE10int_writerIxNS0_18basic_format_specsIwEEE10num_writerE",
   "self_type" : "_ZTIPKN3fmt2v68internal12basic_writerINS0_12buffer_rangeIwEEE10int_writerIxNS0_18basic_format_specsIwEEE10num_writerE",
   "size" : 4,
   "source_file" : "/external/fmtlib/include/fmt/format.h"
  },
  {
   "alignment" : 4,
   "linker_set_key" : "_ZTIPKN3fmt2v68internal12basic_writerINS0_12buffer_rangeIwEEE10int_writerIxNS0_18basic_format_specsIwEEEE",
   "name" : "const fmt::internal::basic_writer<buffer_range<wchar_t> >::int_writer<long long, fmt::basic_format_specs<wchar_t> > *",
   "referenced_type" : "_ZTIKN3fmt2v68internal12basic_writerINS0_12buffer_rangeIwEEE10int_writerIxNS0_18basic_format_specsIwEEEE",
   "self_type" : "_ZTIPKN3fmt2v68internal12basic_writerINS0_12buffer_rangeIwEEE10int_writerIxNS0_18basic_format_specsIwEEEE",
   "size" : 4,
   "source_file" : "/external/fmtlib/include/fmt/format.h"
  },
  {
   "alignment" : 4,
   "linker_set_key" : "_ZTIPKN3fmt2v68internal12basic_writerINS0_12buffer_rangeIwEEE10int_writerIyNS0_18basic_format_specsIwEEE10bin_writerILi1EEE",
   "name" : "const fmt::internal::basic_writer<buffer_range<wchar_t> >::int_writer<unsigned long long, basic_format_specs<wchar_t> >::bin_writer<1> *",
   "referenced_type" : "_ZTIKN3fmt2v68internal12basic_writerINS0_12buffer_rangeIwEEE10int_writerIyNS0_18basic_format_specsIwEEE10bin_writerILi1EEE",
   "self_type" : "_ZTIPKN3fmt2v68internal12basic_writerINS0_12buffer_rangeIwEEE10int_writerIyNS0_18basic_format_specsIwEEE10bin_writerILi1EEE",
   "size" : 4,
   "source_file" : "/external/fmtlib/include/fmt/format.h"
  },
  {
   "alignment" : 4,
   "linker_set_key" : "_ZTIPKN3fmt2v68internal12basic_writerINS0_12buffer_rangeIwEEE10int_writerIyNS0_18basic_format_specsIwEEE10bin_writerILi3EEE",
   "name" : "const fmt::internal::basic_writer<buffer_range<wchar_t> >::int_writer<unsigned long long, basic_format_specs<wchar_t> >::bin_writer<3> *",
   "referenced_type" : "_ZTIKN3fmt2v68internal12basic_writerINS0_12buffer_rangeIwEEE10int_writerIyNS0_18basic_format_specsIwEEE10bin_writerILi3EEE",
   "self_type" : "_ZTIPKN3fmt2v68internal12basic_writerINS0_12buffer_rangeIwEEE10int_writerIyNS0_18basic_format_specsIwEEE10bin_writerILi3EEE",
   "size" : 4,
   "source_file" : "/external/fmtlib/include/fmt/format.h"
  },
  {
   "alignment" : 4,
   "linker_set_key" : "_ZTIPKN3fmt2v68internal12basic_writerINS0_12buffer_rangeIwEEE10int_writerIyNS0_18basic_format_specsIwEEE10dec_writerE",
   "name" : "const fmt::internal::basic_writer<buffer_range<wchar_t> >::int_writer<unsigned long long, basic_format_specs<wchar_t> >::dec_writer *",
   "referenced_type" : "_ZTIKN3fmt2v68internal12basic_writerINS0_12buffer_rangeIwEEE10int_writerIyNS0_18basic_format_specsIwEEE10dec_writerE",
   "self_type" : "_ZTIPKN3fmt2v68internal12basic_writerINS0_12buffer_rangeIwEEE10int_writerIyNS0_18basic_format_specsIwEEE10dec_writerE",
   "size" : 4,
   "source_file" : "/external/fmtlib/include/fmt/format.h"
  },
  {
   "alignment" : 4,
   "linker_set_key" : "_ZTIPKN3fmt2v68internal12basic_writerINS0_12buffer_rangeIwEEE10int_writerIyNS0_18basic_format_specsIwEEE10hex_writerE",
   "name" : "const fmt::internal::basic_writer<buffer_range<wchar_t> >::int_writer<unsigned long long, basic_format_specs<wchar_t> >::hex_writer *",
   "referenced_type" : "_ZTIKN3fmt2v68internal12basic_writerINS0_12buffer_rangeIwEEE10int_writerIyNS0_18basic_format_specsIwEEE10hex_writerE",
   "self_type" : "_ZTIPKN3fmt2v68internal12basic_writerINS0_12buffer_rangeIwEEE10int_writerIyNS0_18basic_format_specsIwEEE10hex_writerE",
   "size" : 4,
   "source_file" : "/external/fmtlib/include/fmt/format.h"
  },
  {
   "alignment" : 4,
   "linker_set_key" : "_ZTIPKN3fmt2v68internal12basic_writerINS0_12buffer_rangeIwEEE10int_writerIyNS0_18basic_format_specsIwEEE10num_writerE",
   "name" : "const fmt::internal::basic_writer<buffer_range<wchar_t> >::int_writer<unsigned long long, basic_format_specs<wchar_t> >::num_writer *",
   "referenced_type" : "_ZTIKN3fmt2v68internal12basic_writerINS0_12buffer_rangeIwEEE10int_writerIyNS0_18basic_format_specsIwEEE10num_writerE",
   "self_type" : "_ZTIPKN3fmt2v68internal12basic_writerINS0_12buffer_rangeIwEEE10int_writerIyNS0_18basic_format_specsIwEEE10num_writerE",
   "size" : 4,
   "source_file" : "/external/fmtlib/include/fmt/format.h"
  },
  {
   "alignment" : 4,
   "linker_set_key" : "_ZTIPKN3fmt2v68internal12basic_writerINS0_12buffer_rangeIwEEE10int_writerIyNS0_18basic_format_specsIwEEEE",
   "name" : "const fmt::internal::basic_writer<buffer_range<wchar_t> >::int_writer<unsigned long long, fmt::basic_format_specs<wchar_t> > *",
   "referenced_type" : "_ZTIKN3fmt2v68internal12basic_writerINS0_12buffer_rangeIwEEE10int_writerIyNS0_18basic_format_specsIwEEEE",
   "self_type" : "_ZTIPKN3fmt2v68internal12basic_writerINS0_12buffer_rangeIwEEE10int_writerIyNS0_18basic_format_specsIwEEEE",
   "size" : 4,
   "source_file" : "/external/fmtlib/include/fmt/format.h"
  },
  {
   "alignment" : 4,
   "linker_set_key" : "_ZTIPKN3fmt2v68internal12basic_writerINS0_12buffer_rangeIwEEE10str_writerIcEE",
   "name" : "const fmt::internal::basic_writer<buffer_range<wchar_t> >::str_writer<char> *",
   "referenced_type" : "_ZTIKN3fmt2v68internal12basic_writerINS0_12buffer_rangeIwEEE10str_writerIcEE",
   "self_type" : "_ZTIPKN3fmt2v68internal12basic_writerINS0_12buffer_rangeIwEEE10str_writerIcEE",
   "size" : 4,
   "source_file" : "/external/fmtlib/include/fmt/format.h"
  },
  {
   "alignment" : 4,
   "linker_set_key" : "_ZTIPKN3fmt2v68internal12basic_writerINS0_12buffer_rangeIwEEE10str_writerIwEE",
   "name" : "const fmt::internal::basic_writer<buffer_range<wchar_t> >::str_writer<wchar_t> *",
   "referenced_type" : "_ZTIKN3fmt2v68internal12basic_writerINS0_12buffer_rangeIwEEE10str_writerIwEE",
   "self_type" : "_ZTIPKN3fmt2v68internal12basic_writerINS0_12buffer_rangeIwEEE10str_writerIwEE",
   "size" : 4,
   "source_file" : "/external/fmtlib/include/fmt/format.h"
  },
  {
   "alignment" : 4,
   "linker_set_key" : "_ZTIPKN3fmt2v68internal12basic_writerINS0_12buffer_rangeIwEEE14pointer_writerIjEE",
   "name" : "const fmt::internal::basic_writer<buffer_range<wchar_t> >::pointer_writer<unsigned int> *",
   "referenced_type" : "_ZTIKN3fmt2v68internal12basic_writerINS0_12buffer_rangeIwEEE14pointer_writerIjEE",
   "self_type" : "_ZTIPKN3fmt2v68internal12basic_writerINS0_12buffer_rangeIwEEE14pointer_writerIjEE",
   "size" : 4,
   "source_file" : "/external/fmtlib/include/fmt/format.h"
  },
  {
   "alignment" : 4,
   "linker_set_key" : "_ZTIPKN3fmt2v68internal12basic_writerINS0_12buffer_rangeIwEEE17padded_int_writerINS5_10int_writerIiNS0_18basic_format_specsIwEEE10bin_writerILi1EEEEE",
   "name" : "const fmt::internal::basic_writer<buffer_range<wchar_t> >::padded_int_writer<fmt::internal::basic_writer<buffer_range<wchar_t> >::int_writer<int, basic_format_specs<wchar_t> >::bin_writer<1> > *",
   "referenced_type" : "_ZTIKN3fmt2v68internal12basic_writerINS0_12buffer_rangeIwEEE17padded_int_writerINS5_10int_writerIiNS0_18basic_format_specsIwEEE10bin_writerILi1EEEEE",
   "self_type" : "_ZTIPKN3fmt2v68internal12basic_writerINS0_12buffer_rangeIwEEE17padded_int_writerINS5_10int_writerIiNS0_18basic_format_specsIwEEE10bin_writerILi1EEEEE",
   "size" : 4,
   "source_file" : "/external/fmtlib/include/fmt/format.h"
  },
  {
   "alignment" : 4,
   "linker_set_key" : "_ZTIPKN3fmt2v68internal12basic_writerINS0_12buffer_rangeIwEEE17padded_int_writerINS5_10int_writerIiNS0_18basic_format_specsIwEEE10bin_writerILi3EEEEE",
   "name" : "const fmt::internal::basic_writer<buffer_range<wchar_t> >::padded_int_writer<fmt::internal::basic_writer<buffer_range<wchar_t> >::int_writer<int, basic_format_specs<wchar_t> >::bin_writer<3> > *",
   "referenced_type" : "_ZTIKN3fmt2v68internal12basic_writerINS0_12buffer_rangeIwEEE17padded_int_writerINS5_10int_writerIiNS0_18basic_format_specsIwEEE10bin_writerILi3EEEEE",
   "self_type" : "_ZTIPKN3fmt2v68internal12basic_writerINS0_12buffer_rangeIwEEE17padded_int_writerINS5_10int_writerIiNS0_18basic_format_specsIwEEE10bin_writerILi3EEEEE",
   "size" : 4,
   "source_file" : "/external/fmtlib/include/fmt/format.h"
  },
  {
   "alignment" : 4,
   "linker_set_key" : "_ZTIPKN3fmt2v68internal12basic_writerINS0_12buffer_rangeIwEEE17padded_int_writerINS5_10int_writerIiNS0_18basic_format_specsIwEEE10dec_writerEEE",
   "name" : "const fmt::internal::basic_writer<buffer_range<wchar_t> >::padded_int_writer<fmt::internal::basic_writer<buffer_range<wchar_t> >::int_writer<int, basic_format_specs<wchar_t> >::dec_writer> *",
   "referenced_type" : "_ZTIKN3fmt2v68internal12basic_writerINS0_12buffer_rangeIwEEE17padded_int_writerINS5_10int_writerIiNS0_18basic_format_specsIwEEE10dec_writerEEE",
   "self_type" : "_ZTIPKN3fmt2v68internal12basic_writerINS0_12buffer_rangeIwEEE17padded_int_writerINS5_10int_writerIiNS0_18basic_format_specsIwEEE10dec_writerEEE",
   "size" : 4,
   "source_file" : "/external/fmtlib/include/fmt/format.h"
  },
  {
   "alignment" : 4,
   "linker_set_key" : "_ZTIPKN3fmt2v68internal12basic_writerINS0_12buffer_rangeIwEEE17padded_int_writerINS5_10int_writerIiNS0_18basic_format_specsIwEEE10hex_writerEEE",
   "name" : "const fmt::internal::basic_writer<buffer_range<wchar_t> >::padded_int_writer<fmt::internal::basic_writer<buffer_range<wchar_t> >::int_writer<int, basic_format_specs<wchar_t> >::hex_writer> *",
   "referenced_type" : "_ZTIKN3fmt2v68internal12basic_writerINS0_12buffer_rangeIwEEE17padded_int_writerINS5_10int_writerIiNS0_18basic_format_specsIwEEE10hex_writerEEE",
   "self_type" : "_ZTIPKN3fmt2v68internal12basic_writerINS0_12buffer_rangeIwEEE17padded_int_writerINS5_10int_writerIiNS0_18basic_format_specsIwEEE10hex_writerEEE",
   "size" : 4,
   "source_file" : "/external/fmtlib/include/fmt/format.h"
  },
  {
   "alignment" : 4,
   "linker_set_key" : "_ZTIPKN3fmt2v68internal12basic_writerINS0_12buffer_rangeIwEEE17padded_int_writerINS5_10int_writerIiNS0_18basic_format_specsIwEEE10num_writerEEE",
   "name" : "const fmt::internal::basic_writer<buffer_range<wchar_t> >::padded_int_writer<fmt::internal::basic_writer<buffer_range<wchar_t> >::int_writer<int, basic_format_specs<wchar_t> >::num_writer> *",
   "referenced_type" : "_ZTIKN3fmt2v68internal12basic_writerINS0_12buffer_rangeIwEEE17padded_int_writerINS5_10int_writerIiNS0_18basic_format_specsIwEEE10num_writerEEE",
   "self_type" : "_ZTIPKN3fmt2v68internal12basic_writerINS0_12buffer_rangeIwEEE17padded_int_writerINS5_10int_writerIiNS0_18basic_format_specsIwEEE10num_writerEEE",
   "size" : 4,
   "source_file" : "/external/fmtlib/include/fmt/format.h"
  },
  {
   "alignment" : 4,
   "linker_set_key" : "_ZTIPKN3fmt2v68internal12basic_writerINS0_12buffer_rangeIwEEE17padded_int_writerINS5_10int_writerIjNS0_18basic_format_specsIwEEE10bin_writerILi1EEEEE",
   "name" : "const fmt::internal::basic_writer<buffer_range<wchar_t> >::padded_int_writer<fmt::internal::basic_writer<buffer_range<wchar_t> >::int_writer<unsigned int, basic_format_specs<wchar_t> >::bin_writer<1> > *",
   "referenced_type" : "_ZTIKN3fmt2v68internal12basic_writerINS0_12buffer_rangeIwEEE17padded_int_writerINS5_10int_writerIjNS0_18basic_format_specsIwEEE10bin_writerILi1EEEEE",
   "self_type" : "_ZTIPKN3fmt2v68internal12basic_writerINS0_12buffer_rangeIwEEE17padded_int_writerINS5_10int_writerIjNS0_18basic_format_specsIwEEE10bin_writerILi1EEEEE",
   "size" : 4,
   "source_file" : "/external/fmtlib/include/fmt/format.h"
  },
  {
   "alignment" : 4,
   "linker_set_key" : "_ZTIPKN3fmt2v68internal12basic_writerINS0_12buffer_rangeIwEEE17padded_int_writerINS5_10int_writerIjNS0_18basic_format_specsIwEEE10bin_writerILi3EEEEE",
   "name" : "const fmt::internal::basic_writer<buffer_range<wchar_t> >::padded_int_writer<fmt::internal::basic_writer<buffer_range<wchar_t> >::int_writer<unsigned int, basic_format_specs<wchar_t> >::bin_writer<3> > *",
   "referenced_type" : "_ZTIKN3fmt2v68internal12basic_writerINS0_12buffer_rangeIwEEE17padded_int_writerINS5_10int_writerIjNS0_18basic_format_specsIwEEE10bin_writerILi3EEEEE",
   "self_type" : "_ZTIPKN3fmt2v68internal12basic_writerINS0_12buffer_rangeIwEEE17padded_int_writerINS5_10int_writerIjNS0_18basic_format_specsIwEEE10bin_writerILi3EEEEE",
   "size" : 4,
   "source_file" : "/external/fmtlib/include/fmt/format.h"
  },
  {
   "alignment" : 4,
   "linker_set_key" : "_ZTIPKN3fmt2v68internal12basic_writerINS0_12buffer_rangeIwEEE17padded_int_writerINS5_10int_writerIjNS0_18basic_format_specsIwEEE10dec_writerEEE",
   "name" : "const fmt::internal::basic_writer<buffer_range<wchar_t> >::padded_int_writer<fmt::internal::basic_writer<buffer_range<wchar_t> >::int_writer<unsigned int, basic_format_specs<wchar_t> >::dec_writer> *",
   "referenced_type" : "_ZTIKN3fmt2v68internal12basic_writerINS0_12buffer_rangeIwEEE17padded_int_writerINS5_10int_writerIjNS0_18basic_format_specsIwEEE10dec_writerEEE",
   "self_type" : "_ZTIPKN3fmt2v68internal12basic_writerINS0_12buffer_rangeIwEEE17padded_int_writerINS5_10int_writerIjNS0_18basic_format_specsIwEEE10dec_writerEEE",
   "size" : 4,
   "source_file" : "/external/fmtlib/include/fmt/format.h"
  },
  {
   "alignment" : 4,
   "linker_set_key" : "_ZTIPKN3fmt2v68internal12basic_writerINS0_12buffer_rangeIwEEE17padded_int_writerINS5_10int_writerIjNS0_18basic_format_specsIwEEE10hex_writerEEE",
   "name" : "const fmt::internal::basic_writer<buffer_range<wchar_t> >::padded_int_writer<fmt::internal::basic_writer<buffer_range<wchar_t> >::int_writer<unsigned int, basic_format_specs<wchar_t> >::hex_writer> *",
   "referenced_type" : "_ZTIKN3fmt2v68internal12basic_writerINS0_12buffer_rangeIwEEE17padded_int_writerINS5_10int_writerIjNS0_18basic_format_specsIwEEE10hex_writerEEE",
   "self_type" : "_ZTIPKN3fmt2v68internal12basic_writerINS0_12buffer_rangeIwEEE17padded_int_writerINS5_10int_writerIjNS0_18basic_format_specsIwEEE10hex_writerEEE",
   "size" : 4,
   "source_file" : "/external/fmtlib/include/fmt/format.h"
  },
  {
   "alignment" : 4,
   "linker_set_key" : "_ZTIPKN3fmt2v68internal12basic_writerINS0_12buffer_rangeIwEEE17padded_int_writerINS5_10int_writerIjNS0_18basic_format_specsIwEEE10num_writerEEE",
   "name" : "const fmt::internal::basic_writer<buffer_range<wchar_t> >::padded_int_writer<fmt::internal::basic_writer<buffer_range<wchar_t> >::int_writer<unsigned int, basic_format_specs<wchar_t> >::num_writer> *",
   "referenced_type" : "_ZTIKN3fmt2v68internal12basic_writerINS0_12buffer_rangeIwEEE17padded_int_writerINS5_10int_writerIjNS0_18basic_format_specsIwEEE10num_writerEEE",
   "self_type" : "_ZTIPKN3fmt2v68internal12basic_writerINS0_12buffer_rangeIwEEE17padded_int_writerINS5_10int_writerIjNS0_18basic_format_specsIwEEE10num_writerEEE",
   "size" : 4,
   "source_file" : "/external/fmtlib/include/fmt/format.h"
  },
  {
   "alignment" : 4,
   "linker_set_key" : "_ZTIPKN3fmt2v68internal12basic_writerINS0_12buffer_rangeIwEEE17padded_int_writerINS5_10int_writerIwNS0_18basic_format_specsIwEEE10bin_writerILi1EEEEE",
   "name" : "const fmt::internal::basic_writer<buffer_range<wchar_t> >::padded_int_writer<fmt::internal::basic_writer<buffer_range<wchar_t> >::int_writer<wchar_t, basic_format_specs<wchar_t> >::bin_writer<1> > *",
   "referenced_type" : "_ZTIKN3fmt2v68internal12basic_writerINS0_12buffer_rangeIwEEE17padded_int_writerINS5_10int_writerIwNS0_18basic_format_specsIwEEE10bin_writerILi1EEEEE",
   "self_type" : "_ZTIPKN3fmt2v68internal12basic_writerINS0_12buffer_rangeIwEEE17padded_int_writerINS5_10int_writerIwNS0_18basic_format_specsIwEEE10bin_writerILi1EEEEE",
   "size" : 4,
   "source_file" : "/external/fmtlib/include/fmt/format.h"
  },
  {
   "alignment" : 4,
   "linker_set_key" : "_ZTIPKN3fmt2v68internal12basic_writerINS0_12buffer_rangeIwEEE17padded_int_writerINS5_10int_writerIwNS0_18basic_format_specsIwEEE10bin_writerILi3EEEEE",
   "name" : "const fmt::internal::basic_writer<buffer_range<wchar_t> >::padded_int_writer<fmt::internal::basic_writer<buffer_range<wchar_t> >::int_writer<wchar_t, basic_format_specs<wchar_t> >::bin_writer<3> > *",
   "referenced_type" : "_ZTIKN3fmt2v68internal12basic_writerINS0_12buffer_rangeIwEEE17padded_int_writerINS5_10int_writerIwNS0_18basic_format_specsIwEEE10bin_writerILi3EEEEE",
   "self_type" : "_ZTIPKN3fmt2v68internal12basic_writerINS0_12buffer_rangeIwEEE17padded_int_writerINS5_10int_writerIwNS0_18basic_format_specsIwEEE10bin_writerILi3EEEEE",
   "size" : 4,
   "source_file" : "/external/fmtlib/include/fmt/format.h"
  },
  {
   "alignment" : 4,
   "linker_set_key" : "_ZTIPKN3fmt2v68internal12basic_writerINS0_12buffer_rangeIwEEE17padded_int_writerINS5_10int_writerIwNS0_18basic_format_specsIwEEE10dec_writerEEE",
   "name" : "const fmt::internal::basic_writer<buffer_range<wchar_t> >::padded_int_writer<fmt::internal::basic_writer<buffer_range<wchar_t> >::int_writer<wchar_t, basic_format_specs<wchar_t> >::dec_writer> *",
   "referenced_type" : "_ZTIKN3fmt2v68internal12basic_writerINS0_12buffer_rangeIwEEE17padded_int_writerINS5_10int_writerIwNS0_18basic_format_specsIwEEE10dec_writerEEE",
   "self_type" : "_ZTIPKN3fmt2v68internal12basic_writerINS0_12buffer_rangeIwEEE17padded_int_writerINS5_10int_writerIwNS0_18basic_format_specsIwEEE10dec_writerEEE",
   "size" : 4,
   "source_file" : "/external/fmtlib/include/fmt/format.h"
  },
  {
   "alignment" : 4,
   "linker_set_key" : "_ZTIPKN3fmt2v68internal12basic_writerINS0_12buffer_rangeIwEEE17padded_int_writerINS5_10int_writerIwNS0_18basic_format_specsIwEEE10hex_writerEEE",
   "name" : "const fmt::internal::basic_writer<buffer_range<wchar_t> >::padded_int_writer<fmt::internal::basic_writer<buffer_range<wchar_t> >::int_writer<wchar_t, basic_format_specs<wchar_t> >::hex_writer> *",
   "referenced_type" : "_ZTIKN3fmt2v68internal12basic_writerINS0_12buffer_rangeIwEEE17padded_int_writerINS5_10int_writerIwNS0_18basic_format_specsIwEEE10hex_writerEEE",
   "self_type" : "_ZTIPKN3fmt2v68internal12basic_writerINS0_12buffer_rangeIwEEE17padded_int_writerINS5_10int_writerIwNS0_18basic_format_specsIwEEE10hex_writerEEE",
   "size" : 4,
   "source_file" : "/external/fmtlib/include/fmt/format.h"
  },
  {
   "alignment" : 4,
   "linker_set_key" : "_ZTIPKN3fmt2v68internal12basic_writerINS0_12buffer_rangeIwEEE17padded_int_writerINS5_10int_writerIwNS0_18basic_format_specsIwEEE10num_writerEEE",
   "name" : "const fmt::internal::basic_writer<buffer_range<wchar_t> >::padded_int_writer<fmt::internal::basic_writer<buffer_range<wchar_t> >::int_writer<wchar_t, basic_format_specs<wchar_t> >::num_writer> *",
   "referenced_type" : "_ZTIKN3fmt2v68internal12basic_writerINS0_12buffer_rangeIwEEE17padded_int_writerINS5_10int_writerIwNS0_18basic_format_specsIwEEE10num_writerEEE",
   "self_type" : "_ZTIPKN3fmt2v68internal12basic_writerINS0_12buffer_rangeIwEEE17padded_int_writerINS5_10int_writerIwNS0_18basic_format_specsIwEEE10num_writerEEE",
   "size" : 4,
   "source_file" : "/external/fmtlib/include/fmt/format.h"
  },
  {
   "alignment" : 4,
   "linker_set_key" : "_ZTIPKN3fmt2v68internal12basic_writerINS0_12buffer_rangeIwEEE17padded_int_writerINS5_10int_writerIxNS0_18basic_format_specsIwEEE10bin_writerILi1EEEEE",
   "name" : "const fmt::internal::basic_writer<buffer_range<wchar_t> >::padded_int_writer<fmt::internal::basic_writer<buffer_range<wchar_t> >::int_writer<long long, basic_format_specs<wchar_t> >::bin_writer<1> > *",
   "referenced_type" : "_ZTIKN3fmt2v68internal12basic_writerINS0_12buffer_rangeIwEEE17padded_int_writerINS5_10int_writerIxNS0_18basic_format_specsIwEEE10bin_writerILi1EEEEE",
   "self_type" : "_ZTIPKN3fmt2v68internal12basic_writerINS0_12buffer_rangeIwEEE17padded_int_writerINS5_10int_writerIxNS0_18basic_format_specsIwEEE10bin_writerILi1EEEEE",
   "size" : 4,
   "source_file" : "/external/fmtlib/include/fmt/format.h"
  },
  {
   "alignment" : 4,
   "linker_set_key" : "_ZTIPKN3fmt2v68internal12basic_writerINS0_12buffer_rangeIwEEE17padded_int_writerINS5_10int_writerIxNS0_18basic_format_specsIwEEE10bin_writerILi3EEEEE",
   "name" : "const fmt::internal::basic_writer<buffer_range<wchar_t> >::padded_int_writer<fmt::internal::basic_writer<buffer_range<wchar_t> >::int_writer<long long, basic_format_specs<wchar_t> >::bin_writer<3> > *",
   "referenced_type" : "_ZTIKN3fmt2v68internal12basic_writerINS0_12buffer_rangeIwEEE17padded_int_writerINS5_10int_writerIxNS0_18basic_format_specsIwEEE10bin_writerILi3EEEEE",
   "self_type" : "_ZTIPKN3fmt2v68internal12basic_writerINS0_12buffer_rangeIwEEE17padded_int_writerINS5_10int_writerIxNS0_18basic_format_specsIwEEE10bin_writerILi3EEEEE",
   "size" : 4,
   "source_file" : "/external/fmtlib/include/fmt/format.h"
  },
  {
   "alignment" : 4,
   "linker_set_key" : "_ZTIPKN3fmt2v68internal12basic_writerINS0_12buffer_rangeIwEEE17padded_int_writerINS5_10int_writerIxNS0_18basic_format_specsIwEEE10dec_writerEEE",
   "name" : "const fmt::internal::basic_writer<buffer_range<wchar_t> >::padded_int_writer<fmt::internal::basic_writer<buffer_range<wchar_t> >::int_writer<long long, basic_format_specs<wchar_t> >::dec_writer> *",
   "referenced_type" : "_ZTIKN3fmt2v68internal12basic_writerINS0_12buffer_rangeIwEEE17padded_int_writerINS5_10int_writerIxNS0_18basic_format_specsIwEEE10dec_writerEEE",
   "self_type" : "_ZTIPKN3fmt2v68internal12basic_writerINS0_12buffer_rangeIwEEE17padded_int_writerINS5_10int_writerIxNS0_18basic_format_specsIwEEE10dec_writerEEE",
   "size" : 4,
   "source_file" : "/external/fmtlib/include/fmt/format.h"
  },
  {
   "alignment" : 4,
   "linker_set_key" : "_ZTIPKN3fmt2v68internal12basic_writerINS0_12buffer_rangeIwEEE17padded_int_writerINS5_10int_writerIxNS0_18basic_format_specsIwEEE10hex_writerEEE",
   "name" : "const fmt::internal::basic_writer<buffer_range<wchar_t> >::padded_int_writer<fmt::internal::basic_writer<buffer_range<wchar_t> >::int_writer<long long, basic_format_specs<wchar_t> >::hex_writer> *",
   "referenced_type" : "_ZTIKN3fmt2v68internal12basic_writerINS0_12buffer_rangeIwEEE17padded_int_writerINS5_10int_writerIxNS0_18basic_format_specsIwEEE10hex_writerEEE",
   "self_type" : "_ZTIPKN3fmt2v68internal12basic_writerINS0_12buffer_rangeIwEEE17padded_int_writerINS5_10int_writerIxNS0_18basic_format_specsIwEEE10hex_writerEEE",
   "size" : 4,
   "source_file" : "/external/fmtlib/include/fmt/format.h"
  },
  {
   "alignment" : 4,
   "linker_set_key" : "_ZTIPKN3fmt2v68internal12basic_writerINS0_12buffer_rangeIwEEE17padded_int_writerINS5_10int_writerIxNS0_18basic_format_specsIwEEE10num_writerEEE",
   "name" : "const fmt::internal::basic_writer<buffer_range<wchar_t> >::padded_int_writer<fmt::internal::basic_writer<buffer_range<wchar_t> >::int_writer<long long, basic_format_specs<wchar_t> >::num_writer> *",
   "referenced_type" : "_ZTIKN3fmt2v68internal12basic_writerINS0_12buffer_rangeIwEEE17padded_int_writerINS5_10int_writerIxNS0_18basic_format_specsIwEEE10num_writerEEE",
   "self_type" : "_ZTIPKN3fmt2v68internal12basic_writerINS0_12buffer_rangeIwEEE17padded_int_writerINS5_10int_writerIxNS0_18basic_format_specsIwEEE10num_writerEEE",
   "size" : 4,
   "source_file" : "/external/fmtlib/include/fmt/format.h"
  },
  {
   "alignment" : 4,
   "linker_set_key" : "_ZTIPKN3fmt2v68internal12basic_writerINS0_12buffer_rangeIwEEE17padded_int_writerINS5_10int_writerIyNS0_18basic_format_specsIwEEE10bin_writerILi1EEEEE",
   "name" : "const fmt::internal::basic_writer<buffer_range<wchar_t> >::padded_int_writer<fmt::internal::basic_writer<buffer_range<wchar_t> >::int_writer<unsigned long long, basic_format_specs<wchar_t> >::bin_writer<1> > *",
   "referenced_type" : "_ZTIKN3fmt2v68internal12basic_writerINS0_12buffer_rangeIwEEE17padded_int_writerINS5_10int_writerIyNS0_18basic_format_specsIwEEE10bin_writerILi1EEEEE",
   "self_type" : "_ZTIPKN3fmt2v68internal12basic_writerINS0_12buffer_rangeIwEEE17padded_int_writerINS5_10int_writerIyNS0_18basic_format_specsIwEEE10bin_writerILi1EEEEE",
   "size" : 4,
   "source_file" : "/external/fmtlib/include/fmt/format.h"
  },
  {
   "alignment" : 4,
   "linker_set_key" : "_ZTIPKN3fmt2v68internal12basic_writerINS0_12buffer_rangeIwEEE17padded_int_writerINS5_10int_writerIyNS0_18basic_format_specsIwEEE10bin_writerILi3EEEEE",
   "name" : "const fmt::internal::basic_writer<buffer_range<wchar_t> >::padded_int_writer<fmt::internal::basic_writer<buffer_range<wchar_t> >::int_writer<unsigned long long, basic_format_specs<wchar_t> >::bin_writer<3> > *",
   "referenced_type" : "_ZTIKN3fmt2v68internal12basic_writerINS0_12buffer_rangeIwEEE17padded_int_writerINS5_10int_writerIyNS0_18basic_format_specsIwEEE10bin_writerILi3EEEEE",
   "self_type" : "_ZTIPKN3fmt2v68internal12basic_writerINS0_12buffer_rangeIwEEE17padded_int_writerINS5_10int_writerIyNS0_18basic_format_specsIwEEE10bin_writerILi3EEEEE",
   "size" : 4,
   "source_file" : "/external/fmtlib/include/fmt/format.h"
  },
  {
   "alignment" : 4,
   "linker_set_key" : "_ZTIPKN3fmt2v68internal12basic_writerINS0_12buffer_rangeIwEEE17padded_int_writerINS5_10int_writerIyNS0_18basic_format_specsIwEEE10dec_writerEEE",
   "name" : "const fmt::internal::basic_writer<buffer_range<wchar_t> >::padded_int_writer<fmt::internal::basic_writer<buffer_range<wchar_t> >::int_writer<unsigned long long, basic_format_specs<wchar_t> >::dec_writer> *",
   "referenced_type" : "_ZTIKN3fmt2v68internal12basic_writerINS0_12buffer_rangeIwEEE17padded_int_writerINS5_10int_writerIyNS0_18basic_format_specsIwEEE10dec_writerEEE",
   "self_type" : "_ZTIPKN3fmt2v68internal12basic_writerINS0_12buffer_rangeIwEEE17padded_int_writerINS5_10int_writerIyNS0_18basic_format_specsIwEEE10dec_writerEEE",
   "size" : 4,
   "source_file" : "/external/fmtlib/include/fmt/format.h"
  },
  {
   "alignment" : 4,
   "linker_set_key" : "_ZTIPKN3fmt2v68internal12basic_writerINS0_12buffer_rangeIwEEE17padded_int_writerINS5_10int_writerIyNS0_18basic_format_specsIwEEE10hex_writerEEE",
   "name" : "const fmt::internal::basic_writer<buffer_range<wchar_t> >::padded_int_writer<fmt::internal::basic_writer<buffer_range<wchar_t> >::int_writer<unsigned long long, basic_format_specs<wchar_t> >::hex_writer> *",
   "referenced_type" : "_ZTIKN3fmt2v68internal12basic_writerINS0_12buffer_rangeIwEEE17padded_int_writerINS5_10int_writerIyNS0_18basic_format_specsIwEEE10hex_writerEEE",
   "self_type" : "_ZTIPKN3fmt2v68internal12basic_writerINS0_12buffer_rangeIwEEE17padded_int_writerINS5_10int_writerIyNS0_18basic_format_specsIwEEE10hex_writerEEE",
   "size" : 4,
   "source_file" : "/external/fmtlib/include/fmt/format.h"
  },
  {
   "alignment" : 4,
   "linker_set_key" : "_ZTIPKN3fmt2v68internal12basic_writerINS0_12buffer_rangeIwEEE17padded_int_writerINS5_10int_writerIyNS0_18basic_format_specsIwEEE10num_writerEEE",
   "name" : "const fmt::internal::basic_writer<buffer_range<wchar_t> >::padded_int_writer<fmt::internal::basic_writer<buffer_range<wchar_t> >::int_writer<unsigned long long, basic_format_specs<wchar_t> >::num_writer> *",
   "referenced_type" : "_ZTIKN3fmt2v68internal12basic_writerINS0_12buffer_rangeIwEEE17padded_int_writerINS5_10int_writerIyNS0_18basic_format_specsIwEEE10num_writerEEE",
   "self_type" : "_ZTIPKN3fmt2v68internal12basic_writerINS0_12buffer_rangeIwEEE17padded_int_writerINS5_10int_writerIyNS0_18basic_format_specsIwEEE10num_writerEEE",
   "size" : 4,
   "source_file" : "/external/fmtlib/include/fmt/format.h"
  },
  {
   "alignment" : 4,
   "linker_set_key" : "_ZTIPKN3fmt2v68internal12basic_writerINS0_12buffer_rangeIwEEEE",
   "name" : "const fmt::internal::basic_writer<fmt::buffer_range<wchar_t> > *",
   "referenced_type" : "_ZTIKN3fmt2v68internal12basic_writerINS0_12buffer_rangeIwEEEE",
   "self_type" : "_ZTIPKN3fmt2v68internal12basic_writerINS0_12buffer_rangeIwEEEE",
   "size" : 4,
   "source_file" : "/external/fmtlib/include/fmt/format.h"
  },
  {
   "alignment" : 4,
   "linker_set_key" : "_ZTIPKN3fmt2v68internal12float_writerIcEE",
   "name" : "const fmt::internal::float_writer<char> *",
   "referenced_type" : "_ZTIKN3fmt2v68internal12float_writerIcEE",
   "self_type" : "_ZTIPKN3fmt2v68internal12float_writerIcEE",
   "size" : 4,
   "source_file" : "/external/fmtlib/include/fmt/format.h"
  },
  {
   "alignment" : 4,
   "linker_set_key" : "_ZTIPKN3fmt2v68internal12float_writerIwEE",
   "name" : "const fmt::internal::float_writer<wchar_t> *",
   "referenced_type" : "_ZTIKN3fmt2v68internal12float_writerIwEE",
   "self_type" : "_ZTIPKN3fmt2v68internal12float_writerIwEE",
   "size" : 4,
   "source_file" : "/external/fmtlib/include/fmt/format.h"
  },
  {
   "alignment" : 4,
   "linker_set_key" : "_ZTIPKN3fmt2v68internal12output_rangeINSt3__120back_insert_iteratorINS1_6bufferIcEEEEcEE",
   "name" : "const fmt::internal::output_range<std::back_insert_iterator<fmt::internal::buffer<char> >, char> *",
   "referenced_type" : "_ZTIKN3fmt2v68internal12output_rangeINSt3__120back_insert_iteratorINS1_6bufferIcEEEEcEE",
   "self_type" : "_ZTIPKN3fmt2v68internal12output_rangeINSt3__120back_insert_iteratorINS1_6bufferIcEEEEcEE",
   "size" : 4,
   "source_file" : "/external/fmtlib/include/fmt/format.h"
  },
  {
   "alignment" : 4,
   "linker_set_key" : "_ZTIPKN3fmt2v68internal12output_rangeINSt3__120back_insert_iteratorINS1_6bufferIwEEEEwEE",
   "name" : "const fmt::internal::output_range<std::back_insert_iterator<fmt::internal::buffer<wchar_t> >, wchar_t> *",
   "referenced_type" : "_ZTIKN3fmt2v68internal12output_rangeINSt3__120back_insert_iteratorINS1_6bufferIwEEEEwEE",
   "self_type" : "_ZTIPKN3fmt2v68internal12output_rangeINSt3__120back_insert_iteratorINS1_6bufferIwEEEEwEE",
   "size" : 4,
   "source_file" : "/external/fmtlib/include/fmt/format.h"
  },
  {
   "alignment" : 4,
   "linker_set_key" : "_ZTIPKN3fmt2v68internal14named_arg_baseIcEE",
   "name" : "const fmt::internal::named_arg_base<char> *",
   "referenced_type" : "_ZTIKN3fmt2v68internal14named_arg_baseIcEE",
   "self_type" : "_ZTIPKN3fmt2v68internal14named_arg_baseIcEE",
   "size" : 4,
   "source_file" : "/external/fmtlib/include/fmt/core.h"
  },
  {
   "alignment" : 4,
   "linker_set_key" : "_ZTIPKN3fmt2v68internal14named_arg_baseIwEE",
   "name" : "const fmt::internal::named_arg_base<wchar_t> *",
   "referenced_type" : "_ZTIKN3fmt2v68internal14named_arg_baseIwEE",
   "self_type" : "_ZTIPKN3fmt2v68internal14named_arg_baseIwEE",
   "size" : 4,
   "source_file" : "/external/fmtlib/include/fmt/core.h"
  },
  {
   "alignment" : 4,
   "linker_set_key" : "_ZTIPKN3fmt2v68internal16custom_formatterINS0_20basic_format_contextINSt3__120back_insert_iteratorINS1_6bufferIcEEEEcEEEE",
   "name" : "const fmt::internal::custom_formatter<fmt::basic_format_context<std::back_insert_iterator<fmt::internal::buffer<char> >, char> > *",
   "referenced_type" : "_ZTIKN3fmt2v68internal16custom_formatterINS0_20basic_format_contextINSt3__120back_insert_iteratorINS1_6bufferIcEEEEcEEEE",
   "self_type" : "_ZTIPKN3fmt2v68internal16custom_formatterINS0_20basic_format_contextINSt3__120back_insert_iteratorINS1_6bufferIcEEEEcEEEE",
   "size" : 4,
   "source_file" : "/external/fmtlib/include/fmt/format.h"
  },
  {
   "alignment" : 4,
   "linker_set_key" : "_ZTIPKN3fmt2v68internal16custom_formatterINS0_20basic_format_contextINSt3__120back_insert_iteratorINS1_6bufferIwEEEEwEEEE",
   "name" : "const fmt::internal::custom_formatter<fmt::basic_format_context<std::back_insert_iterator<fmt::internal::buffer<wchar_t> >, wchar_t> > *",
   "referenced_type" : "_ZTIKN3fmt2v68internal16custom_formatterINS0_20basic_format_contextINSt3__120back_insert_iteratorINS1_6bufferIwEEEEwEEEE",
   "self_type" : "_ZTIPKN3fmt2v68internal16custom_formatterINS0_20basic_format_contextINSt3__120back_insert_iteratorINS1_6bufferIwEEEEwEEEE",
   "size" : 4,
   "source_file" : "/external/fmtlib/include/fmt/format.h"
  },
  {
   "alignment" : 4,
   "linker_set_key" : "_ZTIPKN3fmt2v68internal16nonfinite_writerIcEE",
   "name" : "const fmt::internal::nonfinite_writer<char> *",
   "referenced_type" : "_ZTIKN3fmt2v68internal16nonfinite_writerIcEE",
   "self_type" : "_ZTIPKN3fmt2v68internal16nonfinite_writerIcEE",
   "size" : 4,
   "source_file" : "/external/fmtlib/include/fmt/format.h"
  },
  {
   "alignment" : 4,
   "linker_set_key" : "_ZTIPKN3fmt2v68internal16nonfinite_writerIwEE",
   "name" : "const fmt::internal::nonfinite_writer<wchar_t> *",
   "referenced_type" : "_ZTIKN3fmt2v68internal16nonfinite_writerIwEE",
   "self_type" : "_ZTIPKN3fmt2v68internal16nonfinite_writerIwEE",
   "size" : 4,
   "source_file" : "/external/fmtlib/include/fmt/format.h"
  },
  {
   "alignment" : 4,
   "linker_set_key" : "_ZTIPKN3fmt2v68internal17counting_iteratorE",
   "name" : "const fmt::internal::counting_iterator *",
   "referenced_type" : "_ZTIKN3fmt2v68internal17counting_iteratorE",
   "self_type" : "_ZTIPKN3fmt2v68internal17counting_iteratorE",
   "size" : 4,
   "source_file" : "/external/fmtlib/include/fmt/format.h"
  },
  {
   "alignment" : 4,
   "linker_set_key" : "_ZTIPKN3fmt2v68internal18arg_formatter_baseINS0_12buffer_rangeIcEENS1_13error_handlerEE11char_writerE",
   "name" : "const fmt::internal::arg_formatter_base<buffer_range<char>, error_handler>::char_writer *",
   "referenced_type" : "_ZTIKN3fmt2v68internal18arg_formatter_baseINS0_12buffer_rangeIcEENS1_13error_handlerEE11char_writerE",
   "self_type" : "_ZTIPKN3fmt2v68internal18arg_formatter_baseINS0_12buffer_rangeIcEENS1_13error_handlerEE11char_writerE",
   "size" : 4,
   "source_file" : "/external/fmtlib/include/fmt/format.h"
  },
  {
   "alignment" : 4,
   "linker_set_key" : "_ZTIPKN3fmt2v68internal18arg_formatter_baseINS0_12buffer_rangeIwEENS1_13error_handlerEE11char_writerE",
   "name" : "const fmt::internal::arg_formatter_base<buffer_range<wchar_t>, error_handler>::char_writer *",
   "referenced_type" : "_ZTIKN3fmt2v68internal18arg_formatter_baseINS0_12buffer_rangeIwEENS1_13error_handlerEE11char_writerE",
   "self_type" : "_ZTIPKN3fmt2v68internal18arg_formatter_baseINS0_12buffer_rangeIwEENS1_13error_handlerEE11char_writerE",
   "size" : 4,
   "source_file" : "/external/fmtlib/include/fmt/format.h"
  },
  {
   "alignment" : 4,
   "linker_set_key" : "_ZTIPKN3fmt2v68internal5valueINS0_20basic_format_contextINSt3__120back_insert_iteratorINS1_6bufferINS0_13arg_formatterINS0_12buffer_rangeIcEEEEEEEESA_EEEE",
   "name" : "const fmt::internal::value<fmt::basic_format_context<std::back_insert_iterator<fmt::internal::buffer<fmt::arg_formatter<fmt::buffer_range<char> > > >, fmt::arg_formatter<fmt::buffer_range<char> > > > *",
   "referenced_type" : "_ZTIKN3fmt2v68internal5valueINS0_20basic_format_contextINSt3__120back_insert_iteratorINS1_6bufferINS0_13arg_formatterINS0_12buffer_rangeIcEEEEEEEESA_EEEE",
   "self_type" : "_ZTIPKN3fmt2v68internal5valueINS0_20basic_format_contextINSt3__120back_insert_iteratorINS1_6bufferINS0_13arg_formatterINS0_12buffer_rangeIcEEEEEEEESA_EEEE",
   "size" : 4,
   "source_file" : "/external/fmtlib/include/fmt/core.h"
  },
  {
   "alignment" : 4,
   "linker_set_key" : "_ZTIPKN3fmt2v68internal5valueINS0_20basic_format_contextINSt3__120back_insert_iteratorINS1_6bufferINS0_13arg_formatterINS0_12buffer_rangeIwEEEEEEEESA_EEEE",
   "name" : "const fmt::internal::value<fmt::basic_format_context<std::back_insert_iterator<fmt::internal::buffer<fmt::arg_formatter<fmt::buffer_range<wchar_t> > > >, fmt::arg_formatter<fmt::buffer_range<wchar_t> > > > *",
   "referenced_type" : "_ZTIKN3fmt2v68internal5valueINS0_20basic_format_contextINSt3__120back_insert_iteratorINS1_6bufferINS0_13arg_formatterINS0_12buffer_rangeIwEEEEEEEESA_EEEE",
   "self_type" : "_ZTIPKN3fmt2v68internal5valueINS0_20basic_format_contextINSt3__120back_insert_iteratorINS1_6bufferINS0_13arg_formatterINS0_12buffer_rangeIwEEEEEEEESA_EEEE",
   "size" : 4,
   "source_file" : "/external/fmtlib/include/fmt/core.h"
  },
  {
   "alignment" : 4,
   "linker_set_key" : "_ZTIPKN3fmt2v68internal5valueINS0_20basic_format_contextINSt3__120back_insert_iteratorINS1_6bufferIcEEEEcEEEE",
   "name" : "const fmt::internal::value<fmt::basic_format_context<std::back_insert_iterator<fmt::internal::buffer<char> >, char> > *",
   "referenced_type" : "_ZTIKN3fmt2v68internal5valueINS0_20basic_format_contextINSt3__120back_insert_iteratorINS1_6bufferIcEEEEcEEEE",
   "self_type" : "_ZTIPKN3fmt2v68internal5valueINS0_20basic_format_contextINSt3__120back_insert_iteratorINS1_6bufferIcEEEEcEEEE",
   "size" : 4,
   "source_file" : "/external/fmtlib/include/fmt/core.h"
  },
  {
   "alignment" : 4,
   "linker_set_key" : "_ZTIPKN3fmt2v68internal5valueINS0_20basic_format_contextINSt3__120back_insert_iteratorINS1_6bufferIwEEEEwEEEE",
   "name" : "const fmt::internal::value<fmt::basic_format_context<std::back_insert_iterator<fmt::internal::buffer<wchar_t> >, wchar_t> > *",
   "referenced_type" : "_ZTIKN3fmt2v68internal5valueINS0_20basic_format_contextINSt3__120back_insert_iteratorINS1_6bufferIwEEEEwEEEE",
   "self_type" : "_ZTIPKN3fmt2v68internal5valueINS0_20basic_format_contextINSt3__120back_insert_iteratorINS1_6bufferIwEEEEwEEEE",
   "size" : 4,
   "source_file" : "/external/fmtlib/include/fmt/core.h"
  },
  {
   "alignment" : 4,
   "linker_set_key" : "_ZTIPKN3fmt2v68internal6bigintE",
   "name" : "const fmt::internal::bigint *",
   "referenced_type" : "_ZTIKN3fmt2v68internal6bigintE",
   "self_type" : "_ZTIPKN3fmt2v68internal6bigintE",
   "size" : 4,
   "source_file" : "/external/fmtlib/include/fmt/format-inl.h"
  },
  {
   "alignment" : 4,
   "linker_set_key" : "_ZTIPKN3fmt2v68internal6bufferIcEE",
   "name" : "const fmt::internal::buffer<char> *",
   "referenced_type" : "_ZTIKN3fmt2v68internal6bufferIcEE",
   "self_type" : "_ZTIPKN3fmt2v68internal6bufferIcEE",
   "size" : 4,
   "source_file" : "/external/fmtlib/include/fmt/core.h"
  },
  {
   "alignment" : 4,
   "linker_set_key" : "_ZTIPKN3fmt2v68internal6bufferIjEE",
   "name" : "const fmt::internal::buffer<unsigned int> *",
   "referenced_type" : "_ZTIKN3fmt2v68internal6bufferIjEE",
   "self_type" : "_ZTIPKN3fmt2v68internal6bufferIjEE",
   "size" : 4,
   "source_file" : "/external/fmtlib/include/fmt/core.h"
  },
  {
   "alignment" : 4,
   "linker_set_key" : "_ZTIPKN3fmt2v68internal6bufferIwEE",
   "name" : "const fmt::internal::buffer<wchar_t> *",
   "referenced_type" : "_ZTIKN3fmt2v68internal6bufferIwEE",
   "self_type" : "_ZTIPKN3fmt2v68internal6bufferIwEE",
   "size" : 4,
   "source_file" : "/external/fmtlib/include/fmt/core.h"
  },
  {
   "alignment" : 4,
   "linker_set_key" : "_ZTIPKN3fmt2v68internal6fill_tIcEE",
   "name" : "const fmt::internal::fill_t<char> *",
   "referenced_type" : "_ZTIKN3fmt2v68internal6fill_tIcEE",
   "self_type" : "_ZTIPKN3fmt2v68internal6fill_tIcEE",
   "size" : 4,
   "source_file" : "/external/fmtlib/include/fmt/format.h"
  },
  {
   "alignment" : 4,
   "linker_set_key" : "_ZTIPKN3fmt2v68internal6fill_tIwEE",
   "name" : "const fmt::internal::fill_t<wchar_t> *",
   "referenced_type" : "_ZTIKN3fmt2v68internal6fill_tIwEE",
   "self_type" : "_ZTIPKN3fmt2v68internal6fill_tIwEE",
   "size" : 4,
   "source_file" : "/external/fmtlib/include/fmt/format.h"
  },
  {
   "alignment" : 4,
   "linker_set_key" : "_ZTIPKN3fmt2v68internal7arg_mapINS0_20basic_format_contextINSt3__120back_insert_iteratorINS1_6bufferIcEEEEcEEEE",
   "name" : "const fmt::internal::arg_map<fmt::basic_format_context<std::back_insert_iterator<fmt::internal::buffer<char> >, char> > *",
   "referenced_type" : "_ZTIKN3fmt2v68internal7arg_mapINS0_20basic_format_contextINSt3__120back_insert_iteratorINS1_6bufferIcEEEEcEEEE",
   "self_type" : "_ZTIPKN3fmt2v68internal7arg_mapINS0_20basic_format_contextINSt3__120back_insert_iteratorINS1_6bufferIcEEEEcEEEE",
   "size" : 4,
   "source_file" : "/external/fmtlib/include/fmt/core.h"
  },
  {
   "alignment" : 4,
   "linker_set_key" : "_ZTIPKN3fmt2v68internal7arg_mapINS0_20basic_format_contextINSt3__120back_insert_iteratorINS1_6bufferIwEEEEwEEEE",
   "name" : "const fmt::internal::arg_map<fmt::basic_format_context<std::back_insert_iterator<fmt::internal::buffer<wchar_t> >, wchar_t> > *",
   "referenced_type" : "_ZTIKN3fmt2v68internal7arg_mapINS0_20basic_format_contextINSt3__120back_insert_iteratorINS1_6bufferIwEEEEwEEEE",
   "self_type" : "_ZTIPKN3fmt2v68internal7arg_mapINS0_20basic_format_contextINSt3__120back_insert_iteratorINS1_6bufferIwEEEEwEEEE",
   "size" : 4,
   "source_file" : "/external/fmtlib/include/fmt/core.h"
  },
  {
   "alignment" : 4,
   "linker_set_key" : "_ZTIPKN7android4base10MappedFileE",
   "name" : "const android::base::MappedFile *",
   "referenced_type" : "_ZTIKN7android4base10MappedFileE",
   "self_type" : "_ZTIPKN7android4base10MappedFileE",
   "size" : 4,
   "source_file" : "/system/core/base/include/android-base/mapped_file.h"
  },
  {
   "alignment" : 4,
   "linker_set_key" : "_ZTIPKN7android4base11borrowed_fdE",
   "name" : "const android::base::borrowed_fd *",
   "referenced_type" : "_ZTIKN7android4base11borrowed_fdE",
   "self_type" : "_ZTIPKN7android4base11borrowed_fdE",
   "size" : 4,
   "source_file" : "/system/core/base/include/android-base/unique_fd.h"
  },
  {
   "alignment" : 4,
   "linker_set_key" : "_ZTIPKN7android4base13ErrnoRestorerE",
   "name" : "const android::base::ErrnoRestorer *",
   "referenced_type" : "_ZTIKN7android4base13ErrnoRestorerE",
   "self_type" : "_ZTIPKN7android4base13ErrnoRestorerE",
   "size" : 4,
   "source_file" : "/system/core/base/include/android-base/errno_restorer.h"
  },
  {
   "alignment" : 4,
   "linker_set_key" : "_ZTIPKN7android4base14unique_fd_implINS0_13DefaultCloserEEE",
   "name" : "const android::base::unique_fd_impl<android::base::DefaultCloser> *",
   "referenced_type" : "_ZTIKN7android4base14unique_fd_implINS0_13DefaultCloserEEE",
   "self_type" : "_ZTIPKN7android4base14unique_fd_implINS0_13DefaultCloserEEE",
   "size" : 4,
   "source_file" : "/system/core/base/include/android-base/unique_fd.h"
  },
  {
   "alignment" : 4,
   "linker_set_key" : "_ZTIPKN7android4base5TimerE",
   "name" : "const android::base::Timer *",
   "referenced_type" : "_ZTIKN7android4base5TimerE",
   "self_type" : "_ZTIPKN7android4base5TimerE",
   "size" : 4,
   "source_file" : "/system/core/base/include/android-base/chrono_utils.h"
  },
  {
   "alignment" : 4,
   "linker_set_key" : "_ZTIPKN7android4base7AllPids11PidIteratorE",
   "name" : "const android::base::AllPids::PidIterator *",
   "referenced_type" : "_ZTIKN7android4base7AllPids11PidIteratorE",
   "self_type" : "_ZTIPKN7android4base7AllPids11PidIteratorE",
   "size" : 4,
   "source_file" : "/system/core/base/include/android-base/process.h"
  },
  {
   "alignment" : 4,
   "linker_set_key" : "_ZTIPKNSt3__112basic_stringIcNS_11char_traitsIcEENS_9allocatorIcEEEE",
   "name" : "const std::basic_string<char, std::char_traits<char>, std::allocator<char> > *",
   "referenced_type" : "_ZTIKNSt3__112basic_stringIcNS_11char_traitsIcEENS_9allocatorIcEEEE",
   "self_type" : "_ZTIPKNSt3__112basic_stringIcNS_11char_traitsIcEENS_9allocatorIcEEEE",
   "size" : 4,
   "source_file" : "/system/core/base/include/android-base/logging.h"
  },
  {
   "alignment" : 4,
   "linker_set_key" : "_ZTIPKa",
   "name" : "const signed char *",
   "referenced_type" : "_ZTIKa",
   "self_type" : "_ZTIPKa",
   "size" : 4,
   "source_file" : "/system/core/base/include/android-base/logging.h"
  },
  {
   "alignment" : 4,
   "linker_set_key" : "_ZTIPKc",
   "name" : "const char *",
   "referenced_type" : "_ZTIKc",
   "self_type" : "_ZTIPKc",
   "size" : 4,
   "source_file" : "/system/core/base/include/android-base/unique_fd.h"
  },
  {
   "alignment" : 4,
   "linker_set_key" : "_ZTIPKh",
   "name" : "const unsigned char *",
   "referenced_type" : "_ZTIKh",
   "self_type" : "_ZTIPKh",
   "size" : 4,
   "source_file" : "/system/core/base/include/android-base/logging.h"
  },
  {
   "alignment" : 4,
   "linker_set_key" : "_ZTIPKj",
   "name" : "const unsigned int *",
   "referenced_type" : "_ZTIKj",
   "self_type" : "_ZTIPKj",
   "size" : 4,
   "source_file" : "/external/fmtlib/include/fmt/core.h"
  },
  {
   "alignment" : 4,
   "linker_set_key" : "_ZTIPKv",
   "name" : "const void *",
   "referenced_type" : "_ZTIKv",
   "self_type" : "_ZTIPKv",
   "size" : 4,
   "source_file" : "/system/core/base/include/android-base/cmsg.h"
  },
  {
   "alignment" : 4,
   "linker_set_key" : "_ZTIPKw",
   "name" : "const wchar_t *",
   "referenced_type" : "_ZTIKw",
   "self_type" : "_ZTIPKw",
   "size" : 4,
   "source_file" : "/external/fmtlib/include/fmt/core.h"
  },
  {
   "alignment" : 4,
   "linker_set_key" : "_ZTIPN3fmt2v610format_intE",
   "name" : "fmt::format_int *",
   "referenced_type" : "_ZTIN3fmt2v610format_intE",
   "self_type" : "_ZTIPN3fmt2v610format_intE",
   "size" : 4,
   "source_file" : "/external/fmtlib/include/fmt/format.h"
  },
  {
   "alignment" : 4,
   "linker_set_key" : "_ZTIPN3fmt2v611format_argsE",
   "name" : "fmt::format_args *",
   "referenced_type" : "_ZTIN3fmt2v611format_argsE",
   "self_type" : "_ZTIPN3fmt2v611format_argsE",
   "size" : 4,
   "source_file" : "/external/fmtlib/include/fmt/core.h"
  },
  {
   "alignment" : 4,
   "linker_set_key" : "_ZTIPN3fmt2v612buffer_rangeIcEE",
   "name" : "fmt::buffer_range<char> *",
   "referenced_type" : "_ZTIN3fmt2v612buffer_rangeIcEE",
   "self_type" : "_ZTIPN3fmt2v612buffer_rangeIcEE",
   "size" : 4,
   "source_file" : "/external/fmtlib/include/fmt/format.h"
  },
  {
   "alignment" : 4,
   "linker_set_key" : "_ZTIPN3fmt2v612buffer_rangeIwEE",
   "name" : "fmt::buffer_range<wchar_t> *",
   "referenced_type" : "_ZTIN3fmt2v612buffer_rangeIwEE",
   "self_type" : "_ZTIPN3fmt2v612buffer_rangeIwEE",
   "size" : 4,
   "source_file" : "/external/fmtlib/include/fmt/format.h"
  },
  {
   "alignment" : 4,
   "linker_set_key" : "_ZTIPN3fmt2v612format_errorE",
   "name" : "fmt::format_error *",
   "referenced_type" : "_ZTIN3fmt2v612format_errorE",
   "self_type" : "_ZTIPN3fmt2v612format_errorE",
   "size" : 4,
   "source_file" : "/external/fmtlib/include/fmt/format.h"
  },
  {
   "alignment" : 4,
   "linker_set_key" : "_ZTIPN3fmt2v612system_errorE",
   "name" : "fmt::system_error *",
   "referenced_type" : "_ZTIN3fmt2v612system_errorE",
   "self_type" : "_ZTIPN3fmt2v612system_errorE",
   "size" : 4,
   "source_file" : "/external/fmtlib/include/fmt/format.h"
  },
  {
   "alignment" : 4,
   "linker_set_key" : "_ZTIPN3fmt2v613arg_formatterINS0_12buffer_rangeIcEEEE",
   "name" : "fmt::arg_formatter<fmt::buffer_range<char> > *",
   "referenced_type" : "_ZTIN3fmt2v613arg_formatterINS0_12buffer_rangeIcEEEE",
   "self_type" : "_ZTIPN3fmt2v613arg_formatterINS0_12buffer_rangeIcEEEE",
   "size" : 4,
   "source_file" : "/external/fmtlib/include/fmt/core.h"
  },
  {
   "alignment" : 4,
   "linker_set_key" : "_ZTIPN3fmt2v613arg_formatterINS0_12buffer_rangeIwEEEE",
   "name" : "fmt::arg_formatter<fmt::buffer_range<wchar_t> > *",
   "referenced_type" : "_ZTIN3fmt2v613arg_formatterINS0_12buffer_rangeIwEEEE",
   "self_type" : "_ZTIPN3fmt2v613arg_formatterINS0_12buffer_rangeIwEEEE",
   "size" : 4,
   "source_file" : "/external/fmtlib/include/fmt/core.h"
  },
  {
   "alignment" : 4,
   "linker_set_key" : "_ZTIPN3fmt2v613u8string_viewE",
   "name" : "fmt::u8string_view *",
   "referenced_type" : "_ZTIN3fmt2v613u8string_viewE",
   "self_type" : "_ZTIPN3fmt2v613u8string_viewE",
   "size" : 4,
   "source_file" : "/external/fmtlib/include/fmt/format.h"
  },
  {
   "alignment" : 4,
   "linker_set_key" : "_ZTIPN3fmt2v614format_handlerINS0_13arg_formatterINS0_12buffer_rangeIcEEEEcNS0_20basic_format_contextINSt3__120back_insert_iteratorINS0_8internal6bufferIcEEEEcEEEE",
   "name" : "fmt::format_handler<fmt::arg_formatter<fmt::buffer_range<char> >, char, fmt::basic_format_context<std::back_insert_iterator<fmt::internal::buffer<char> >, char> > *",
   "referenced_type" : "_ZTIN3fmt2v614format_handlerINS0_13arg_formatterINS0_12buffer_rangeIcEEEEcNS0_20basic_format_contextINSt3__120back_insert_iteratorINS0_8internal6bufferIcEEEEcEEEE",
   "self_type" : "_ZTIPN3fmt2v614format_handlerINS0_13arg_formatterINS0_12buffer_rangeIcEEEEcNS0_20basic_format_contextINSt3__120back_insert_iteratorINS0_8internal6bufferIcEEEEcEEEE",
   "size" : 4,
   "source_file" : "/external/fmtlib/include/fmt/format.h"
  },
  {
   "alignment" : 4,
   "linker_set_key" : "_ZTIPN3fmt2v614format_handlerINS0_13arg_formatterINS0_12buffer_rangeIwEEEEwNS0_20basic_format_contextINSt3__120back_insert_iteratorINS0_8internal6bufferIwEEEEwEEEE",
   "name" : "fmt::format_handler<fmt::arg_formatter<fmt::buffer_range<wchar_t> >, wchar_t, fmt::basic_format_context<std::back_insert_iterator<fmt::internal::buffer<wchar_t> >, wchar_t> > *",
   "referenced_type" : "_ZTIN3fmt2v614format_handlerINS0_13arg_formatterINS0_12buffer_rangeIwEEEEwNS0_20basic_format_contextINSt3__120back_insert_iteratorINS0_8internal6bufferIwEEEEwEEEE",
   "self_type" : "_ZTIPN3fmt2v614format_handlerINS0_13arg_formatterINS0_12buffer_rangeIwEEEEwNS0_20basic_format_contextINSt3__120back_insert_iteratorINS0_8internal6bufferIwEEEEwEEEE",
   "size" : 4,
   "source_file" : "/external/fmtlib/include/fmt/format.h"
  },
  {
   "alignment" : 4,
   "linker_set_key" : "_ZTIPN3fmt2v616basic_format_argINS0_20basic_format_contextINSt3__120back_insert_iteratorINS0_8internal6bufferIcEEEEcEEE6handleE",
   "name" : "fmt::basic_format_arg<basic_format_context<back_insert_iterator<buffer<char> >, char> >::handle *",
   "referenced_type" : "_ZTIN3fmt2v616basic_format_argINS0_20basic_format_contextINSt3__120back_insert_iteratorINS0_8internal6bufferIcEEEEcEEE6handleE",
   "self_type" : "_ZTIPN3fmt2v616basic_format_argINS0_20basic_format_contextINSt3__120back_insert_iteratorINS0_8internal6bufferIcEEEEcEEE6handleE",
   "size" : 4,
   "source_file" : "/external/fmtlib/include/fmt/core.h"
  },
  {
   "alignment" : 4,
   "linker_set_key" : "_ZTIPN3fmt2v616basic_format_argINS0_20basic_format_contextINSt3__120back_insert_iteratorINS0_8internal6bufferIcEEEEcEEEE",
   "name" : "fmt::basic_format_arg<fmt::basic_format_context<std::back_insert_iterator<fmt::internal::buffer<char> >, char> > *",
   "referenced_type" : "_ZTIN3fmt2v616basic_format_argINS0_20basic_format_contextINSt3__120back_insert_iteratorINS0_8internal6bufferIcEEEEcEEEE",
   "self_type" : "_ZTIPN3fmt2v616basic_format_argINS0_20basic_format_contextINSt3__120back_insert_iteratorINS0_8internal6bufferIcEEEEcEEEE",
   "size" : 4,
   "source_file" : "/external/fmtlib/include/fmt/core.h"
  },
  {
   "alignment" : 4,
   "linker_set_key" : "_ZTIPN3fmt2v616basic_format_argINS0_20basic_format_contextINSt3__120back_insert_iteratorINS0_8internal6bufferIwEEEEwEEE6handleE",
   "name" : "fmt::basic_format_arg<basic_format_context<back_insert_iterator<buffer<wchar_t> >, wchar_t> >::handle *",
   "referenced_type" : "_ZTIN3fmt2v616basic_format_argINS0_20basic_format_contextINSt3__120back_insert_iteratorINS0_8internal6bufferIwEEEEwEEE6handleE",
   "self_type" : "_ZTIPN3fmt2v616basic_format_argINS0_20basic_format_contextINSt3__120back_insert_iteratorINS0_8internal6bufferIwEEEEwEEE6handleE",
   "size" : 4,
   "source_file" : "/external/fmtlib/include/fmt/core.h"
  },
  {
   "alignment" : 4,
   "linker_set_key" : "_ZTIPN3fmt2v616basic_format_argINS0_20basic_format_contextINSt3__120back_insert_iteratorINS0_8internal6bufferIwEEEEwEEEE",
   "name" : "fmt::basic_format_arg<fmt::basic_format_context<std::back_insert_iterator<fmt::internal::buffer<wchar_t> >, wchar_t> > *",
   "referenced_type" : "_ZTIN3fmt2v616basic_format_argINS0_20basic_format_contextINSt3__120back_insert_iteratorINS0_8internal6bufferIwEEEEwEEEE",
   "self_type" : "_ZTIPN3fmt2v616basic_format_argINS0_20basic_format_contextINSt3__120back_insert_iteratorINS0_8internal6bufferIwEEEEwEEEE",
   "size" : 4,
   "source_file" : "/external/fmtlib/include/fmt/core.h"
  },
  {
   "alignment" : 4,
   "linker_set_key" : "_ZTIPN3fmt2v616format_arg_storeINS0_20basic_format_contextINSt3__120back_insert_iteratorINS0_8internal6bufferIcEEEEcEEJPKciSB_EEE",
   "name" : "fmt::format_arg_store<fmt::basic_format_context<std::back_insert_iterator<fmt::internal::buffer<char> >, char>, const char *, int, const char *> *",
   "referenced_type" : "_ZTIN3fmt2v616format_arg_storeINS0_20basic_format_contextINSt3__120back_insert_iteratorINS0_8internal6bufferIcEEEEcEEJPKciSB_EEE",
   "self_type" : "_ZTIPN3fmt2v616format_arg_storeINS0_20basic_format_contextINSt3__120back_insert_iteratorINS0_8internal6bufferIcEEEEcEEJPKciSB_EEE",
   "size" : 4,
   "source_file" : "/external/fmtlib/include/fmt/core.h"
  },
  {
   "alignment" : 4,
   "linker_set_key" : "_ZTIPN3fmt2v616format_arg_storeINS0_20basic_format_contextINSt3__120back_insert_iteratorINS0_8internal6bufferIcEEEEcEEJiEEE",
   "name" : "fmt::format_arg_store<fmt::basic_format_context<std::back_insert_iterator<fmt::internal::buffer<char> >, char>, int> *",
   "referenced_type" : "_ZTIN3fmt2v616format_arg_storeINS0_20basic_format_contextINSt3__120back_insert_iteratorINS0_8internal6bufferIcEEEEcEEJiEEE",
   "self_type" : "_ZTIPN3fmt2v616format_arg_storeINS0_20basic_format_contextINSt3__120back_insert_iteratorINS0_8internal6bufferIcEEEEcEEJiEEE",
   "size" : 4,
   "source_file" : "/external/fmtlib/include/fmt/core.h"
  },
  {
   "alignment" : 4,
   "linker_set_key" : "_ZTIPN3fmt2v616format_arg_storeINS0_20basic_format_contextINSt3__120back_insert_iteratorINS0_8internal6bufferIcEEEEcEEJjEEE",
   "name" : "fmt::format_arg_store<fmt::basic_format_context<std::back_insert_iterator<fmt::internal::buffer<char> >, char>, unsigned int> *",
   "referenced_type" : "_ZTIN3fmt2v616format_arg_storeINS0_20basic_format_contextINSt3__120back_insert_iteratorINS0_8internal6bufferIcEEEEcEEJjEEE",
   "self_type" : "_ZTIPN3fmt2v616format_arg_storeINS0_20basic_format_contextINSt3__120back_insert_iteratorINS0_8internal6bufferIcEEEEcEEJjEEE",
   "size" : 4,
   "source_file" : "/external/fmtlib/include/fmt/core.h"
  },
  {
   "alignment" : 4,
   "linker_set_key" : "_ZTIPN3fmt2v617basic_format_argsINS0_20basic_format_contextINSt3__120back_insert_iteratorINS0_8internal6bufferIcEEEEcEEEE",
   "name" : "fmt::basic_format_args<fmt::basic_format_context<std::back_insert_iterator<fmt::internal::buffer<char> >, char> > *",
   "referenced_type" : "_ZTIN3fmt2v617basic_format_argsINS0_20basic_format_contextINSt3__120back_insert_iteratorINS0_8internal6bufferIcEEEEcEEEE",
   "self_type" : "_ZTIPN3fmt2v617basic_format_argsINS0_20basic_format_contextINSt3__120back_insert_iteratorINS0_8internal6bufferIcEEEEcEEEE",
   "size" : 4,
   "source_file" : "/external/fmtlib/include/fmt/core.h"
  },
  {
   "alignment" : 4,
   "linker_set_key" : "_ZTIPN3fmt2v617basic_string_viewINS0_7char8_tEEE",
   "name" : "fmt::basic_string_view<fmt::char8_t> *",
   "referenced_type" : "_ZTIN3fmt2v617basic_string_viewINS0_7char8_tEEE",
   "self_type" : "_ZTIPN3fmt2v617basic_string_viewINS0_7char8_tEEE",
   "size" : 4,
   "source_file" : "/external/fmtlib/include/fmt/core.h"
  },
  {
   "alignment" : 4,
   "linker_set_key" : "_ZTIPN3fmt2v617basic_string_viewIcEE",
   "name" : "fmt::basic_string_view<char> *",
   "referenced_type" : "_ZTIN3fmt2v617basic_string_viewIcEE",
   "self_type" : "_ZTIPN3fmt2v617basic_string_viewIcEE",
   "size" : 4,
   "source_file" : "/external/fmtlib/include/fmt/core.h"
  },
  {
   "alignment" : 4,
   "linker_set_key" : "_ZTIPN3fmt2v617basic_string_viewIwEE",
   "name" : "fmt::basic_string_view<wchar_t> *",
   "referenced_type" : "_ZTIN3fmt2v617basic_string_viewIwEE",
   "self_type" : "_ZTIPN3fmt2v617basic_string_viewIwEE",
   "size" : 4,
   "source_file" : "/external/fmtlib/include/fmt/core.h"
  },
  {
   "alignment" : 4,
   "linker_set_key" : "_ZTIPN3fmt2v618basic_format_specsIcEE",
   "name" : "fmt::basic_format_specs<char> *",
   "referenced_type" : "_ZTIN3fmt2v618basic_format_specsIcEE",
   "self_type" : "_ZTIPN3fmt2v618basic_format_specsIcEE",
   "size" : 4,
   "source_file" : "/external/fmtlib/include/fmt/format.h"
  },
  {
   "alignment" : 4,
   "linker_set_key" : "_ZTIPN3fmt2v618basic_format_specsIwEE",
   "name" : "fmt::basic_format_specs<wchar_t> *",
   "referenced_type" : "_ZTIN3fmt2v618basic_format_specsIwEE",
   "self_type" : "_ZTIPN3fmt2v618basic_format_specsIwEE",
   "size" : 4,
   "source_file" : "/external/fmtlib/include/fmt/format.h"
  },
  {
   "alignment" : 4,
   "linker_set_key" : "_ZTIPN3fmt2v619basic_memory_bufferIcLj500ENSt3__19allocatorIcEEEE",
   "name" : "fmt::basic_memory_buffer<char, 500, std::allocator<char> > *",
   "referenced_type" : "_ZTIN3fmt2v619basic_memory_bufferIcLj500ENSt3__19allocatorIcEEEE",
   "self_type" : "_ZTIPN3fmt2v619basic_memory_bufferIcLj500ENSt3__19allocatorIcEEEE",
   "size" : 4,
   "source_file" : "/external/fmtlib/include/fmt/format.h"
  },
  {
   "alignment" : 4,
   "linker_set_key" : "_ZTIPN3fmt2v619basic_memory_bufferIjLj32ENSt3__19allocatorIjEEEE",
   "name" : "fmt::basic_memory_buffer<unsigned int, 32, std::allocator<unsigned int> > *",
   "referenced_type" : "_ZTIN3fmt2v619basic_memory_bufferIjLj32ENSt3__19allocatorIjEEEE",
   "self_type" : "_ZTIPN3fmt2v619basic_memory_bufferIjLj32ENSt3__19allocatorIjEEEE",
   "size" : 4,
   "source_file" : "/external/fmtlib/include/fmt/format.h"
  },
  {
   "alignment" : 4,
   "linker_set_key" : "_ZTIPN3fmt2v619basic_memory_bufferIwLj500ENSt3__19allocatorIwEEEE",
   "name" : "fmt::basic_memory_buffer<wchar_t, 500, std::allocator<wchar_t> > *",
   "referenced_type" : "_ZTIN3fmt2v619basic_memory_bufferIwLj500ENSt3__19allocatorIwEEEE",
   "self_type" : "_ZTIPN3fmt2v619basic_memory_bufferIwLj500ENSt3__19allocatorIwEEEE",
   "size" : 4,
   "source_file" : "/external/fmtlib/include/fmt/format.h"
  },
  {
   "alignment" : 4,
   "linker_set_key" : "_ZTIPN3fmt2v620basic_format_contextINSt3__120back_insert_iteratorINS0_8internal6bufferIcEEEEcEE",
   "name" : "fmt::basic_format_context<std::back_insert_iterator<fmt::internal::buffer<char> >, char> *",
   "referenced_type" : "_ZTIN3fmt2v620basic_format_contextINSt3__120back_insert_iteratorINS0_8internal6bufferIcEEEEcEE",
   "self_type" : "_ZTIPN3fmt2v620basic_format_contextINSt3__120back_insert_iteratorINS0_8internal6bufferIcEEEEcEE",
   "size" : 4,
   "source_file" : "/external/fmtlib/include/fmt/core.h"
  },
  {
   "alignment" : 4,
   "linker_set_key" : "_ZTIPN3fmt2v620basic_format_contextINSt3__120back_insert_iteratorINS0_8internal6bufferIwEEEEwEE",
   "name" : "fmt::basic_format_context<std::back_insert_iterator<fmt::internal::buffer<wchar_t> >, wchar_t> *",
   "referenced_type" : "_ZTIN3fmt2v620basic_format_contextINSt3__120back_insert_iteratorINS0_8internal6bufferIwEEEEwEE",
   "self_type" : "_ZTIPN3fmt2v620basic_format_contextINSt3__120back_insert_iteratorINS0_8internal6bufferIwEEEEwEE",
   "size" : 4,
   "source_file" : "/external/fmtlib/include/fmt/core.h"
  },
  {
   "alignment" : 4,
   "linker_set_key" : "_ZTIPN3fmt2v626basic_format_parse_contextIcNS0_8internal13error_handlerEEE",
   "name" : "fmt::basic_format_parse_context<char, fmt::internal::error_handler> *",
   "referenced_type" : "_ZTIN3fmt2v626basic_format_parse_contextIcNS0_8internal13error_handlerEEE",
   "self_type" : "_ZTIPN3fmt2v626basic_format_parse_contextIcNS0_8internal13error_handlerEEE",
   "size" : 4,
   "source_file" : "/external/fmtlib/include/fmt/core.h"
  },
  {
   "alignment" : 4,
   "linker_set_key" : "_ZTIPN3fmt2v626basic_format_parse_contextIwNS0_8internal13error_handlerEEE",
   "name" : "fmt::basic_format_parse_context<wchar_t, fmt::internal::error_handler> *",
   "referenced_type" : "_ZTIN3fmt2v626basic_format_parse_contextIwNS0_8internal13error_handlerEEE",
   "self_type" : "_ZTIPN3fmt2v626basic_format_parse_contextIwNS0_8internal13error_handlerEEE",
   "size" : 4,
   "source_file" : "/external/fmtlib/include/fmt/core.h"
  },
  {
   "alignment" : 4,
   "linker_set_key" : "_ZTIPN3fmt2v68internal10arg_mapperINS0_20basic_format_contextINSt3__120back_insert_iteratorINS1_6bufferIcEEEEcEEEE",
   "name" : "fmt::internal::arg_mapper<fmt::basic_format_context<std::back_insert_iterator<fmt::internal::buffer<char> >, char> > *",
   "referenced_type" : "_ZTIN3fmt2v68internal10arg_mapperINS0_20basic_format_contextINSt3__120back_insert_iteratorINS1_6bufferIcEEEEcEEEE",
   "self_type" : "_ZTIPN3fmt2v68internal10arg_mapperINS0_20basic_format_contextINSt3__120back_insert_iteratorINS1_6bufferIcEEEEcEEEE",
   "size" : 4,
   "source_file" : "/external/fmtlib/include/fmt/core.h"
  },
  {
   "alignment" : 4,
   "linker_set_key" : "_ZTIPN3fmt2v68internal10id_adapterIRNS0_14format_handlerINS0_13arg_formatterINS0_12buffer_rangeIcEEEEcNS0_20basic_format_contextINSt3__120back_insert_iteratorINS1_6bufferIcEEEEcEEEEcEE",
   "name" : "fmt::internal::id_adapter<fmt::format_handler<fmt::arg_formatter<fmt::buffer_range<char> >, char, fmt::basic_format_context<std::back_insert_iterator<fmt::internal::buffer<char> >, char> > &, char> *",
   "referenced_type" : "_ZTIN3fmt2v68internal10id_adapterIRNS0_14format_handlerINS0_13arg_formatterINS0_12buffer_rangeIcEEEEcNS0_20basic_format_contextINSt3__120back_insert_iteratorINS1_6bufferIcEEEEcEEEEcEE",
   "self_type" : "_ZTIPN3fmt2v68internal10id_adapterIRNS0_14format_handlerINS0_13arg_formatterINS0_12buffer_rangeIcEEEEcNS0_20basic_format_contextINSt3__120back_insert_iteratorINS1_6bufferIcEEEEcEEEEcEE",
   "size" : 4,
   "source_file" : "/external/fmtlib/include/fmt/format.h"
  },
  {
   "alignment" : 4,
   "linker_set_key" : "_ZTIPN3fmt2v68internal10id_adapterIRNS0_14format_handlerINS0_13arg_formatterINS0_12buffer_rangeIwEEEEwNS0_20basic_format_contextINSt3__120back_insert_iteratorINS1_6bufferIwEEEEwEEEEwEE",
   "name" : "fmt::internal::id_adapter<fmt::format_handler<fmt::arg_formatter<fmt::buffer_range<wchar_t> >, wchar_t, fmt::basic_format_context<std::back_insert_iterator<fmt::internal::buffer<wchar_t> >, wchar_t> > &, wchar_t> *",
   "referenced_type" : "_ZTIN3fmt2v68internal10id_adapterIRNS0_14format_handlerINS0_13arg_formatterINS0_12buffer_rangeIwEEEEwNS0_20basic_format_contextINSt3__120back_insert_iteratorINS1_6bufferIwEEEEwEEEEwEE",
   "self_type" : "_ZTIPN3fmt2v68internal10id_adapterIRNS0_14format_handlerINS0_13arg_formatterINS0_12buffer_rangeIwEEEEwNS0_20basic_format_contextINSt3__120back_insert_iteratorINS1_6bufferIwEEEEwEEEEwEE",
   "size" : 4,
   "source_file" : "/external/fmtlib/include/fmt/format.h"
  },
  {
   "alignment" : 4,
   "linker_set_key" : "_ZTIPN3fmt2v68internal10locale_refE",
   "name" : "fmt::internal::locale_ref *",
   "referenced_type" : "_ZTIN3fmt2v68internal10locale_refE",
   "self_type" : "_ZTIPN3fmt2v68internal10locale_refE",
   "size" : 4,
   "source_file" : "/external/fmtlib/include/fmt/core.h"
  },
  {
   "alignment" : 4,
   "linker_set_key" : "_ZTIPN3fmt2v68internal11accumulatorE",
   "name" : "fmt::internal::accumulator *",
   "referenced_type" : "_ZTIN3fmt2v68internal11accumulatorE",
   "self_type" : "_ZTIPN3fmt2v68internal11accumulatorE",
   "size" : 4,
   "source_file" : "/external/fmtlib/include/fmt/format-inl.h"
  },
  {
   "alignment" : 4,
   "linker_set_key" : "_ZTIPN3fmt2v68internal12basic_writerINS0_12buffer_rangeIcEEE10int_writerIcNS0_18basic_format_specsIcEEEE",
   "name" : "fmt::internal::basic_writer<buffer_range<char> >::int_writer<char, fmt::basic_format_specs<char> > *",
   "referenced_type" : "_ZTIN3fmt2v68internal12basic_writerINS0_12buffer_rangeIcEEE10int_writerIcNS0_18basic_format_specsIcEEEE",
   "self_type" : "_ZTIPN3fmt2v68internal12basic_writerINS0_12buffer_rangeIcEEE10int_writerIcNS0_18basic_format_specsIcEEEE",
   "size" : 4,
   "source_file" : "/external/fmtlib/include/fmt/format.h"
  },
  {
   "alignment" : 4,
   "linker_set_key" : "_ZTIPN3fmt2v68internal12basic_writerINS0_12buffer_rangeIcEEE10int_writerIiNS0_18basic_format_specsIcEEEE",
   "name" : "fmt::internal::basic_writer<buffer_range<char> >::int_writer<int, fmt::basic_format_specs<char> > *",
   "referenced_type" : "_ZTIN3fmt2v68internal12basic_writerINS0_12buffer_rangeIcEEE10int_writerIiNS0_18basic_format_specsIcEEEE",
   "self_type" : "_ZTIPN3fmt2v68internal12basic_writerINS0_12buffer_rangeIcEEE10int_writerIiNS0_18basic_format_specsIcEEEE",
   "size" : 4,
   "source_file" : "/external/fmtlib/include/fmt/format.h"
  },
  {
   "alignment" : 4,
   "linker_set_key" : "_ZTIPN3fmt2v68internal12basic_writerINS0_12buffer_rangeIcEEE10int_writerIjNS0_18basic_format_specsIcEEEE",
   "name" : "fmt::internal::basic_writer<buffer_range<char> >::int_writer<unsigned int, fmt::basic_format_specs<char> > *",
   "referenced_type" : "_ZTIN3fmt2v68internal12basic_writerINS0_12buffer_rangeIcEEE10int_writerIjNS0_18basic_format_specsIcEEEE",
   "self_type" : "_ZTIPN3fmt2v68internal12basic_writerINS0_12buffer_rangeIcEEE10int_writerIjNS0_18basic_format_specsIcEEEE",
   "size" : 4,
   "source_file" : "/external/fmtlib/include/fmt/format.h"
  },
  {
   "alignment" : 4,
   "linker_set_key" : "_ZTIPN3fmt2v68internal12basic_writerINS0_12buffer_rangeIcEEE10int_writerIxNS0_18basic_format_specsIcEEEE",
   "name" : "fmt::internal::basic_writer<buffer_range<char> >::int_writer<long long, fmt::basic_format_specs<char> > *",
   "referenced_type" : "_ZTIN3fmt2v68internal12basic_writerINS0_12buffer_rangeIcEEE10int_writerIxNS0_18basic_format_specsIcEEEE",
   "self_type" : "_ZTIPN3fmt2v68internal12basic_writerINS0_12buffer_rangeIcEEE10int_writerIxNS0_18basic_format_specsIcEEEE",
   "size" : 4,
   "source_file" : "/external/fmtlib/include/fmt/format.h"
  },
  {
   "alignment" : 4,
   "linker_set_key" : "_ZTIPN3fmt2v68internal12basic_writerINS0_12buffer_rangeIcEEE10int_writerIyNS0_18basic_format_specsIcEEEE",
   "name" : "fmt::internal::basic_writer<buffer_range<char> >::int_writer<unsigned long long, fmt::basic_format_specs<char> > *",
   "referenced_type" : "_ZTIN3fmt2v68internal12basic_writerINS0_12buffer_rangeIcEEE10int_writerIyNS0_18basic_format_specsIcEEEE",
   "self_type" : "_ZTIPN3fmt2v68internal12basic_writerINS0_12buffer_rangeIcEEE10int_writerIyNS0_18basic_format_specsIcEEEE",
   "size" : 4,
   "source_file" : "/external/fmtlib/include/fmt/format.h"
  },
  {
   "alignment" : 4,
   "linker_set_key" : "_ZTIPN3fmt2v68internal12basic_writerINS0_12buffer_rangeIcEEEE",
   "name" : "fmt::internal::basic_writer<fmt::buffer_range<char> > *",
   "referenced_type" : "_ZTIN3fmt2v68internal12basic_writerINS0_12buffer_rangeIcEEEE",
   "self_type" : "_ZTIPN3fmt2v68internal12basic_writerINS0_12buffer_rangeIcEEEE",
   "size" : 4,
   "source_file" : "/external/fmtlib/include/fmt/format.h"
  },
  {
   "alignment" : 4,
   "linker_set_key" : "_ZTIPN3fmt2v68internal12basic_writerINS0_12buffer_rangeIwEEE10int_writerIiNS0_18basic_format_specsIwEEEE",
   "name" : "fmt::internal::basic_writer<buffer_range<wchar_t> >::int_writer<int, fmt::basic_format_specs<wchar_t> > *",
   "referenced_type" : "_ZTIN3fmt2v68internal12basic_writerINS0_12buffer_rangeIwEEE10int_writerIiNS0_18basic_format_specsIwEEEE",
   "self_type" : "_ZTIPN3fmt2v68internal12basic_writerINS0_12buffer_rangeIwEEE10int_writerIiNS0_18basic_format_specsIwEEEE",
   "size" : 4,
   "source_file" : "/external/fmtlib/include/fmt/format.h"
  },
  {
   "alignment" : 4,
   "linker_set_key" : "_ZTIPN3fmt2v68internal12basic_writerINS0_12buffer_rangeIwEEE10int_writerIjNS0_18basic_format_specsIwEEEE",
   "name" : "fmt::internal::basic_writer<buffer_range<wchar_t> >::int_writer<unsigned int, fmt::basic_format_specs<wchar_t> > *",
   "referenced_type" : "_ZTIN3fmt2v68internal12basic_writerINS0_12buffer_rangeIwEEE10int_writerIjNS0_18basic_format_specsIwEEEE",
   "self_type" : "_ZTIPN3fmt2v68internal12basic_writerINS0_12buffer_rangeIwEEE10int_writerIjNS0_18basic_format_specsIwEEEE",
   "size" : 4,
   "source_file" : "/external/fmtlib/include/fmt/format.h"
  },
  {
   "alignment" : 4,
   "linker_set_key" : "_ZTIPN3fmt2v68internal12basic_writerINS0_12buffer_rangeIwEEE10int_writerIwNS0_18basic_format_specsIwEEEE",
   "name" : "fmt::internal::basic_writer<buffer_range<wchar_t> >::int_writer<wchar_t, fmt::basic_format_specs<wchar_t> > *",
   "referenced_type" : "_ZTIN3fmt2v68internal12basic_writerINS0_12buffer_rangeIwEEE10int_writerIwNS0_18basic_format_specsIwEEEE",
   "self_type" : "_ZTIPN3fmt2v68internal12basic_writerINS0_12buffer_rangeIwEEE10int_writerIwNS0_18basic_format_specsIwEEEE",
   "size" : 4,
   "source_file" : "/external/fmtlib/include/fmt/format.h"
  },
  {
   "alignment" : 4,
   "linker_set_key" : "_ZTIPN3fmt2v68internal12basic_writerINS0_12buffer_rangeIwEEE10int_writerIxNS0_18basic_format_specsIwEEEE",
   "name" : "fmt::internal::basic_writer<buffer_range<wchar_t> >::int_writer<long long, fmt::basic_format_specs<wchar_t> > *",
   "referenced_type" : "_ZTIN3fmt2v68internal12basic_writerINS0_12buffer_rangeIwEEE10int_writerIxNS0_18basic_format_specsIwEEEE",
   "self_type" : "_ZTIPN3fmt2v68internal12basic_writerINS0_12buffer_rangeIwEEE10int_writerIxNS0_18basic_format_specsIwEEEE",
   "size" : 4,
   "source_file" : "/external/fmtlib/include/fmt/format.h"
  },
  {
   "alignment" : 4,
   "linker_set_key" : "_ZTIPN3fmt2v68internal12basic_writerINS0_12buffer_rangeIwEEE10int_writerIyNS0_18basic_format_specsIwEEEE",
   "name" : "fmt::internal::basic_writer<buffer_range<wchar_t> >::int_writer<unsigned long long, fmt::basic_format_specs<wchar_t> > *",
   "referenced_type" : "_ZTIN3fmt2v68internal12basic_writerINS0_12buffer_rangeIwEEE10int_writerIyNS0_18basic_format_specsIwEEEE",
   "self_type" : "_ZTIPN3fmt2v68internal12basic_writerINS0_12buffer_rangeIwEEE10int_writerIyNS0_18basic_format_specsIwEEEE",
   "size" : 4,
   "source_file" : "/external/fmtlib/include/fmt/format.h"
  },
  {
   "alignment" : 4,
   "linker_set_key" : "_ZTIPN3fmt2v68internal12basic_writerINS0_12buffer_rangeIwEEEE",
   "name" : "fmt::internal::basic_writer<fmt::buffer_range<wchar_t> > *",
   "referenced_type" : "_ZTIN3fmt2v68internal12basic_writerINS0_12buffer_rangeIwEEEE",
   "self_type" : "_ZTIPN3fmt2v68internal12basic_writerINS0_12buffer_rangeIwEEEE",
   "size" : 4,
   "source_file" : "/external/fmtlib/include/fmt/format.h"
  },
  {
   "alignment" : 4,
   "linker_set_key" : "_ZTIPN3fmt2v68internal12float_writerIcEE",
   "name" : "fmt::internal::float_writer<char> *",
   "referenced_type" : "_ZTIN3fmt2v68internal12float_writerIcEE",
   "self_type" : "_ZTIPN3fmt2v68internal12float_writerIcEE",
   "size" : 4,
   "source_file" : "/external/fmtlib/include/fmt/format.h"
  },
  {
   "alignment" : 4,
   "linker_set_key" : "_ZTIPN3fmt2v68internal12float_writerIwEE",
   "name" : "fmt::internal::float_writer<wchar_t> *",
   "referenced_type" : "_ZTIN3fmt2v68internal12float_writerIwEE",
   "self_type" : "_ZTIPN3fmt2v68internal12float_writerIwEE",
   "size" : 4,
   "source_file" : "/external/fmtlib/include/fmt/format.h"
  },
  {
   "alignment" : 4,
   "linker_set_key" : "_ZTIPN3fmt2v68internal12output_rangeINSt3__120back_insert_iteratorINS1_6bufferIcEEEEcEE",
   "name" : "fmt::internal::output_range<std::back_insert_iterator<fmt::internal::buffer<char> >, char> *",
   "referenced_type" : "_ZTIN3fmt2v68internal12output_rangeINSt3__120back_insert_iteratorINS1_6bufferIcEEEEcEE",
   "self_type" : "_ZTIPN3fmt2v68internal12output_rangeINSt3__120back_insert_iteratorINS1_6bufferIcEEEEcEE",
   "size" : 4,
   "source_file" : "/external/fmtlib/include/fmt/format.h"
  },
  {
   "alignment" : 4,
   "linker_set_key" : "_ZTIPN3fmt2v68internal12output_rangeINSt3__120back_insert_iteratorINS1_6bufferIwEEEEwEE",
   "name" : "fmt::internal::output_range<std::back_insert_iterator<fmt::internal::buffer<wchar_t> >, wchar_t> *",
   "referenced_type" : "_ZTIN3fmt2v68internal12output_rangeINSt3__120back_insert_iteratorINS1_6bufferIwEEEEwEE",
   "self_type" : "_ZTIPN3fmt2v68internal12output_rangeINSt3__120back_insert_iteratorINS1_6bufferIwEEEEwEE",
   "size" : 4,
   "source_file" : "/external/fmtlib/include/fmt/format.h"
  },
  {
   "alignment" : 4,
   "linker_set_key" : "_ZTIPN3fmt2v68internal12specs_setterIcEE",
   "name" : "fmt::internal::specs_setter<char> *",
   "referenced_type" : "_ZTIN3fmt2v68internal12specs_setterIcEE",
   "self_type" : "_ZTIPN3fmt2v68internal12specs_setterIcEE",
   "size" : 4,
   "source_file" : "/external/fmtlib/include/fmt/format.h"
  },
  {
   "alignment" : 4,
   "linker_set_key" : "_ZTIPN3fmt2v68internal12specs_setterIwEE",
   "name" : "fmt::internal::specs_setter<wchar_t> *",
   "referenced_type" : "_ZTIN3fmt2v68internal12specs_setterIwEE",
   "self_type" : "_ZTIPN3fmt2v68internal12specs_setterIwEE",
   "size" : 4,
   "source_file" : "/external/fmtlib/include/fmt/format.h"
  },
  {
   "alignment" : 4,
   "linker_set_key" : "_ZTIPN3fmt2v68internal13error_handlerE",
   "name" : "fmt::internal::error_handler *",
   "referenced_type" : "_ZTIN3fmt2v68internal13error_handlerE",
   "self_type" : "_ZTIPN3fmt2v68internal13error_handlerE",
   "size" : 4,
   "source_file" : "/external/fmtlib/include/fmt/core.h"
  },
  {
   "alignment" : 4,
   "linker_set_key" : "_ZTIPN3fmt2v68internal13fixed_handlerE",
   "name" : "fmt::internal::fixed_handler *",
   "referenced_type" : "_ZTIN3fmt2v68internal13fixed_handlerE",
   "self_type" : "_ZTIPN3fmt2v68internal13fixed_handlerE",
   "size" : 4,
   "source_file" : "/external/fmtlib/include/fmt/format-inl.h"
  },
  {
   "alignment" : 4,
   "linker_set_key" : "_ZTIPN3fmt2v68internal13specs_checkerINS1_13specs_handlerINS0_26basic_format_parse_contextIcNS1_13error_handlerEEENS0_20basic_format_contextINSt3__120back_insert_iteratorINS1_6bufferIcEEEEcEEEEEE",
   "name" : "fmt::internal::specs_checker<fmt::internal::specs_handler<fmt::basic_format_parse_context<char, fmt::internal::error_handler>, fmt::basic_format_context<std::back_insert_iterator<fmt::internal::buffer<char> >, char> > > *",
   "referenced_type" : "_ZTIN3fmt2v68internal13specs_checkerINS1_13specs_handlerINS0_26basic_format_parse_contextIcNS1_13error_handlerEEENS0_20basic_format_contextINSt3__120back_insert_iteratorINS1_6bufferIcEEEEcEEEEEE",
   "self_type" : "_ZTIPN3fmt2v68internal13specs_checkerINS1_13specs_handlerINS0_26basic_format_parse_contextIcNS1_13error_handlerEEENS0_20basic_format_contextINSt3__120back_insert_iteratorINS1_6bufferIcEEEEcEEEEEE",
   "size" : 4,
   "source_file" : "/external/fmtlib/include/fmt/format.h"
  },
  {
   "alignment" : 4,
   "linker_set_key" : "_ZTIPN3fmt2v68internal13specs_checkerINS1_13specs_handlerINS0_26basic_format_parse_contextIwNS1_13error_handlerEEENS0_20basic_format_contextINSt3__120back_insert_iteratorINS1_6bufferIwEEEEwEEEEEE",
   "name" : "fmt::internal::specs_checker<fmt::internal::specs_handler<fmt::basic_format_parse_context<wchar_t, fmt::internal::error_handler>, fmt::basic_format_context<std::back_insert_iterator<fmt::internal::buffer<wchar_t> >, wchar_t> > > *",
   "referenced_type" : "_ZTIN3fmt2v68internal13specs_checkerINS1_13specs_handlerINS0_26basic_format_parse_contextIwNS1_13error_handlerEEENS0_20basic_format_contextINSt3__120back_insert_iteratorINS1_6bufferIwEEEEwEEEEEE",
   "self_type" : "_ZTIPN3fmt2v68internal13specs_checkerINS1_13specs_handlerINS0_26basic_format_parse_contextIwNS1_13error_handlerEEENS0_20basic_format_contextINSt3__120back_insert_iteratorINS1_6bufferIwEEEEwEEEEEE",
   "size" : 4,
   "source_file" : "/external/fmtlib/include/fmt/format.h"
  },
  {
   "alignment" : 4,
   "linker_set_key" : "_ZTIPN3fmt2v68internal13specs_handlerINS0_26basic_format_parse_contextIcNS1_13error_handlerEEENS0_20basic_format_contextINSt3__120back_insert_iteratorINS1_6bufferIcEEEEcEEEE",
   "name" : "fmt::internal::specs_handler<fmt::basic_format_parse_context<char, fmt::internal::error_handler>, fmt::basic_format_context<std::back_insert_iterator<fmt::internal::buffer<char> >, char> > *",
   "referenced_type" : "_ZTIN3fmt2v68internal13specs_handlerINS0_26basic_format_parse_contextIcNS1_13error_handlerEEENS0_20basic_format_contextINSt3__120back_insert_iteratorINS1_6bufferIcEEEEcEEEE",
   "self_type" : "_ZTIPN3fmt2v68internal13specs_handlerINS0_26basic_format_parse_contextIcNS1_13error_handlerEEENS0_20basic_format_contextINSt3__120back_insert_iteratorINS1_6bufferIcEEEEcEEEE",
   "size" : 4,
   "source_file" : "/external/fmtlib/include/fmt/format.h"
  },
  {
   "alignment" : 4,
   "linker_set_key" : "_ZTIPN3fmt2v68internal13specs_handlerINS0_26basic_format_parse_contextIwNS1_13error_handlerEEENS0_20basic_format_contextINSt3__120back_insert_iteratorINS1_6bufferIwEEEEwEEEE",
   "name" : "fmt::internal::specs_handler<fmt::basic_format_parse_context<wchar_t, fmt::internal::error_handler>, fmt::basic_format_context<std::back_insert_iterator<fmt::internal::buffer<wchar_t> >, wchar_t> > *",
   "referenced_type" : "_ZTIN3fmt2v68internal13specs_handlerINS0_26basic_format_parse_contextIwNS1_13error_handlerEEENS0_20basic_format_contextINSt3__120back_insert_iteratorINS1_6bufferIwEEEEwEEEE",
   "self_type" : "_ZTIPN3fmt2v68internal13specs_handlerINS0_26basic_format_parse_contextIwNS1_13error_handlerEEENS0_20basic_format_contextINSt3__120back_insert_iteratorINS1_6bufferIwEEEEwEEEE",
   "size" : 4,
   "source_file" : "/external/fmtlib/include/fmt/format.h"
  },
  {
   "alignment" : 4,
   "linker_set_key" : "_ZTIPN3fmt2v68internal13width_adapterIRNS1_13specs_checkerINS1_13specs_handlerINS0_26basic_format_parse_contextIcNS1_13error_handlerEEENS0_20basic_format_contextINSt3__120back_insert_iteratorINS1_6bufferIcEEEEcEEEEEEcEE",
   "name" : "fmt::internal::width_adapter<fmt::internal::specs_checker<fmt::internal::specs_handler<fmt::basic_format_parse_context<char, fmt::internal::error_handler>, fmt::basic_format_context<std::back_insert_iterator<fmt::internal::buffer<char> >, char> > > &, char> *",
   "referenced_type" : "_ZTIN3fmt2v68internal13width_adapterIRNS1_13specs_checkerINS1_13specs_handlerINS0_26basic_format_parse_contextIcNS1_13error_handlerEEENS0_20basic_format_contextINSt3__120back_insert_iteratorINS1_6bufferIcEEEEcEEEEEEcEE",
   "self_type" : "_ZTIPN3fmt2v68internal13width_adapterIRNS1_13specs_checkerINS1_13specs_handlerINS0_26basic_format_parse_contextIcNS1_13error_handlerEEENS0_20basic_format_contextINSt3__120back_insert_iteratorINS1_6bufferIcEEEEcEEEEEEcEE",
   "size" : 4,
   "source_file" : "/external/fmtlib/include/fmt/format.h"
  },
  {
   "alignment" : 4,
   "linker_set_key" : "_ZTIPN3fmt2v68internal13width_adapterIRNS1_13specs_checkerINS1_13specs_handlerINS0_26basic_format_parse_contextIwNS1_13error_handlerEEENS0_20basic_format_contextINSt3__120back_insert_iteratorINS1_6bufferIwEEEEwEEEEEEwEE",
   "name" : "fmt::internal::width_adapter<fmt::internal::specs_checker<fmt::internal::specs_handler<fmt::basic_format_parse_context<wchar_t, fmt::internal::error_handler>, fmt::basic_format_context<std::back_insert_iterator<fmt::internal::buffer<wchar_t> >, wchar_t> > > &, wchar_t> *",
   "referenced_type" : "_ZTIN3fmt2v68internal13width_adapterIRNS1_13specs_checkerINS1_13specs_handlerINS0_26basic_format_parse_contextIwNS1_13error_handlerEEENS0_20basic_format_contextINSt3__120back_insert_iteratorINS1_6bufferIwEEEEwEEEEEEwEE",
   "self_type" : "_ZTIPN3fmt2v68internal13width_adapterIRNS1_13specs_checkerINS1_13specs_handlerINS0_26basic_format_parse_contextIwNS1_13error_handlerEEENS0_20basic_format_contextINSt3__120back_insert_iteratorINS1_6bufferIwEEEEwEEEEEEwEE",
   "size" : 4,
   "source_file" : "/external/fmtlib/include/fmt/format.h"
  },
  {
   "alignment" : 4,
   "linker_set_key" : "_ZTIPN3fmt2v68internal13width_checkerINS1_13error_handlerEEE",
   "name" : "fmt::internal::width_checker<fmt::internal::error_handler> *",
   "referenced_type" : "_ZTIN3fmt2v68internal13width_checkerINS1_13error_handlerEEE",
   "self_type" : "_ZTIPN3fmt2v68internal13width_checkerINS1_13error_handlerEEE",
   "size" : 4,
   "source_file" : "/external/fmtlib/include/fmt/format.h"
  },
  {
   "alignment" : 4,
   "linker_set_key" : "_ZTIPN3fmt2v68internal16container_bufferINS1_6bufferIcEEEE",
   "name" : "fmt::internal::container_buffer<fmt::internal::buffer<char> > *",
   "referenced_type" : "_ZTIN3fmt2v68internal16container_bufferINS1_6bufferIcEEEE",
   "self_type" : "_ZTIPN3fmt2v68internal16container_bufferINS1_6bufferIcEEEE",
   "size" : 4,
   "source_file" : "/external/fmtlib/include/fmt/core.h"
  },
  {
   "alignment" : 4,
   "linker_set_key" : "_ZTIPN3fmt2v68internal16custom_formatterINS0_20basic_format_contextINSt3__120back_insert_iteratorINS1_6bufferIcEEEEcEEEE",
   "name" : "fmt::internal::custom_formatter<fmt::basic_format_context<std::back_insert_iterator<fmt::internal::buffer<char> >, char> > *",
   "referenced_type" : "_ZTIN3fmt2v68internal16custom_formatterINS0_20basic_format_contextINSt3__120back_insert_iteratorINS1_6bufferIcEEEEcEEEE",
   "self_type" : "_ZTIPN3fmt2v68internal16custom_formatterINS0_20basic_format_contextINSt3__120back_insert_iteratorINS1_6bufferIcEEEEcEEEE",
   "size" : 4,
   "source_file" : "/external/fmtlib/include/fmt/format.h"
  },
  {
   "alignment" : 4,
   "linker_set_key" : "_ZTIPN3fmt2v68internal16custom_formatterINS0_20basic_format_contextINSt3__120back_insert_iteratorINS1_6bufferIwEEEEwEEEE",
   "name" : "fmt::internal::custom_formatter<fmt::basic_format_context<std::back_insert_iterator<fmt::internal::buffer<wchar_t> >, wchar_t> > *",
   "referenced_type" : "_ZTIN3fmt2v68internal16custom_formatterINS0_20basic_format_contextINSt3__120back_insert_iteratorINS1_6bufferIwEEEEwEEEE",
   "self_type" : "_ZTIPN3fmt2v68internal16custom_formatterINS0_20basic_format_contextINSt3__120back_insert_iteratorINS1_6bufferIwEEEEwEEEE",
   "size" : 4,
   "source_file" : "/external/fmtlib/include/fmt/format.h"
  },
  {
   "alignment" : 4,
   "linker_set_key" : "_ZTIPN3fmt2v68internal16fallback_uintptrE",
   "name" : "fmt::internal::fallback_uintptr *",
   "referenced_type" : "_ZTIN3fmt2v68internal16fallback_uintptrE",
   "self_type" : "_ZTIPN3fmt2v68internal16fallback_uintptrE",
   "size" : 4,
   "source_file" : "/external/fmtlib/include/fmt/format.h"
  },
  {
   "alignment" : 4,
   "linker_set_key" : "_ZTIPN3fmt2v68internal17counting_iterator10value_typeE",
   "name" : "fmt::internal::counting_iterator::value_type *",
   "referenced_type" : "_ZTIN3fmt2v68internal17counting_iterator10value_typeE",
   "self_type" : "_ZTIPN3fmt2v68internal17counting_iterator10value_typeE",
   "size" : 4,
   "source_file" : "/external/fmtlib/include/fmt/format.h"
  },
  {
   "alignment" : 4,
   "linker_set_key" : "_ZTIPN3fmt2v68internal17counting_iteratorE",
   "name" : "fmt::internal::counting_iterator *",
   "referenced_type" : "_ZTIN3fmt2v68internal17counting_iteratorE",
   "self_type" : "_ZTIPN3fmt2v68internal17counting_iteratorE",
   "size" : 4,
   "source_file" : "/external/fmtlib/include/fmt/format.h"
  },
  {
   "alignment" : 4,
   "linker_set_key" : "_ZTIPN3fmt2v68internal17decimal_formatterE",
   "name" : "fmt::internal::decimal_formatter *",
   "referenced_type" : "_ZTIN3fmt2v68internal17decimal_formatterE",
   "self_type" : "_ZTIPN3fmt2v68internal17decimal_formatterE",
   "size" : 4,
   "source_file" : "/external/fmtlib/include/fmt/format.h"
  },
  {
   "alignment" : 4,
   "linker_set_key" : "_ZTIPN3fmt2v68internal17precision_adapterIRNS1_13specs_checkerINS1_13specs_handlerINS0_26basic_format_parse_contextIcNS1_13error_handlerEEENS0_20basic_format_contextINSt3__120back_insert_iteratorINS1_6bufferIcEEEEcEEEEEEcEE",
   "name" : "fmt::internal::precision_adapter<fmt::internal::specs_checker<fmt::internal::specs_handler<fmt::basic_format_parse_context<char, fmt::internal::error_handler>, fmt::basic_format_context<std::back_insert_iterator<fmt::internal::buffer<char> >, char> > > &, char> *",
   "referenced_type" : "_ZTIN3fmt2v68internal17precision_adapterIRNS1_13specs_checkerINS1_13specs_handlerINS0_26basic_format_parse_contextIcNS1_13error_handlerEEENS0_20basic_format_contextINSt3__120back_insert_iteratorINS1_6bufferIcEEEEcEEEEEEcEE",
   "self_type" : "_ZTIPN3fmt2v68internal17precision_adapterIRNS1_13specs_checkerINS1_13specs_handlerINS0_26basic_format_parse_contextIcNS1_13error_handlerEEENS0_20basic_format_contextINSt3__120back_insert_iteratorINS1_6bufferIcEEEEcEEEEEEcEE",
   "size" : 4,
   "source_file" : "/external/fmtlib/include/fmt/format.h"
  },
  {
   "alignment" : 4,
   "linker_set_key" : "_ZTIPN3fmt2v68internal17precision_adapterIRNS1_13specs_checkerINS1_13specs_handlerINS0_26basic_format_parse_contextIwNS1_13error_handlerEEENS0_20basic_format_contextINSt3__120back_insert_iteratorINS1_6bufferIwEEEEwEEEEEEwEE",
   "name" : "fmt::internal::precision_adapter<fmt::internal::specs_checker<fmt::internal::specs_handler<fmt::basic_format_parse_context<wchar_t, fmt::internal::error_handler>, fmt::basic_format_context<std::back_insert_iterator<fmt::internal::buffer<wchar_t> >, wchar_t> > > &, wchar_t> *",
   "referenced_type" : "_ZTIN3fmt2v68internal17precision_adapterIRNS1_13specs_checkerINS1_13specs_handlerINS0_26basic_format_parse_contextIwNS1_13error_handlerEEENS0_20basic_format_contextINSt3__120back_insert_iteratorINS1_6bufferIwEEEEwEEEEEEwEE",
   "self_type" : "_ZTIPN3fmt2v68internal17precision_adapterIRNS1_13specs_checkerINS1_13specs_handlerINS0_26basic_format_parse_contextIwNS1_13error_handlerEEENS0_20basic_format_contextINSt3__120back_insert_iteratorINS1_6bufferIwEEEEwEEEEEEwEE",
   "size" : 4,
   "source_file" : "/external/fmtlib/include/fmt/format.h"
  },
  {
   "alignment" : 4,
   "linker_set_key" : "_ZTIPN3fmt2v68internal17precision_checkerINS1_13error_handlerEEE",
   "name" : "fmt::internal::precision_checker<fmt::internal::error_handler> *",
   "referenced_type" : "_ZTIN3fmt2v68internal17precision_checkerINS1_13error_handlerEEE",
   "self_type" : "_ZTIPN3fmt2v68internal17precision_checkerINS1_13error_handlerEEE",
   "size" : 4,
   "source_file" : "/external/fmtlib/include/fmt/format.h"
  },
  {
   "alignment" : 4,
   "linker_set_key" : "_ZTIPN3fmt2v68internal18arg_formatter_baseINS0_12buffer_rangeIcEENS1_13error_handlerEE17char_spec_handlerE",
   "name" : "fmt::internal::arg_formatter_base<buffer_range<char>, error_handler>::char_spec_handler *",
   "referenced_type" : "_ZTIN3fmt2v68internal18arg_formatter_baseINS0_12buffer_rangeIcEENS1_13error_handlerEE17char_spec_handlerE",
   "self_type" : "_ZTIPN3fmt2v68internal18arg_formatter_baseINS0_12buffer_rangeIcEENS1_13error_handlerEE17char_spec_handlerE",
   "size" : 4,
   "source_file" : "/external/fmtlib/include/fmt/format.h"
  },
  {
   "alignment" : 4,
   "linker_set_key" : "_ZTIPN3fmt2v68internal18arg_formatter_baseINS0_12buffer_rangeIcEENS1_13error_handlerEE20cstring_spec_handlerE",
   "name" : "fmt::internal::arg_formatter_base<buffer_range<char>, error_handler>::cstring_spec_handler *",
   "referenced_type" : "_ZTIN3fmt2v68internal18arg_formatter_baseINS0_12buffer_rangeIcEENS1_13error_handlerEE20cstring_spec_handlerE",
   "self_type" : "_ZTIPN3fmt2v68internal18arg_formatter_baseINS0_12buffer_rangeIcEENS1_13error_handlerEE20cstring_spec_handlerE",
   "size" : 4,
   "source_file" : "/external/fmtlib/include/fmt/format.h"
  },
  {
   "alignment" : 4,
   "linker_set_key" : "_ZTIPN3fmt2v68internal18arg_formatter_baseINS0_12buffer_rangeIcEENS1_13error_handlerEEE",
   "name" : "fmt::internal::arg_formatter_base<fmt::buffer_range<char>, fmt::internal::error_handler> *",
   "referenced_type" : "_ZTIN3fmt2v68internal18arg_formatter_baseINS0_12buffer_rangeIcEENS1_13error_handlerEEE",
   "self_type" : "_ZTIPN3fmt2v68internal18arg_formatter_baseINS0_12buffer_rangeIcEENS1_13error_handlerEEE",
   "size" : 4,
   "source_file" : "/external/fmtlib/include/fmt/format.h"
  },
  {
   "alignment" : 4,
   "linker_set_key" : "_ZTIPN3fmt2v68internal18arg_formatter_baseINS0_12buffer_rangeIwEENS1_13error_handlerEE17char_spec_handlerE",
   "name" : "fmt::internal::arg_formatter_base<buffer_range<wchar_t>, error_handler>::char_spec_handler *",
   "referenced_type" : "_ZTIN3fmt2v68internal18arg_formatter_baseINS0_12buffer_rangeIwEENS1_13error_handlerEE17char_spec_handlerE",
   "self_type" : "_ZTIPN3fmt2v68internal18arg_formatter_baseINS0_12buffer_rangeIwEENS1_13error_handlerEE17char_spec_handlerE",
   "size" : 4,
   "source_file" : "/external/fmtlib/include/fmt/format.h"
  },
  {
   "alignment" : 4,
   "linker_set_key" : "_ZTIPN3fmt2v68internal18arg_formatter_baseINS0_12buffer_rangeIwEENS1_13error_handlerEE20cstring_spec_handlerE",
   "name" : "fmt::internal::arg_formatter_base<buffer_range<wchar_t>, error_handler>::cstring_spec_handler *",
   "referenced_type" : "_ZTIN3fmt2v68internal18arg_formatter_baseINS0_12buffer_rangeIwEENS1_13error_handlerEE20cstring_spec_handlerE",
   "self_type" : "_ZTIPN3fmt2v68internal18arg_formatter_baseINS0_12buffer_rangeIwEENS1_13error_handlerEE20cstring_spec_handlerE",
   "size" : 4,
   "source_file" : "/external/fmtlib/include/fmt/format.h"
  },
  {
   "alignment" : 4,
   "linker_set_key" : "_ZTIPN3fmt2v68internal18arg_formatter_baseINS0_12buffer_rangeIwEENS1_13error_handlerEEE",
   "name" : "fmt::internal::arg_formatter_base<fmt::buffer_range<wchar_t>, fmt::internal::error_handler> *",
   "referenced_type" : "_ZTIN3fmt2v68internal18arg_formatter_baseINS0_12buffer_rangeIwEENS1_13error_handlerEEE",
   "self_type" : "_ZTIPN3fmt2v68internal18arg_formatter_baseINS0_12buffer_rangeIwEENS1_13error_handlerEEE",
   "size" : 4,
   "source_file" : "/external/fmtlib/include/fmt/format.h"
  },
  {
   "alignment" : 4,
   "linker_set_key" : "_ZTIPN3fmt2v68internal21numeric_specs_checkerINS1_13specs_handlerINS0_26basic_format_parse_contextIcNS1_13error_handlerEEENS0_20basic_format_contextINSt3__120back_insert_iteratorINS1_6bufferIcEEEEcEEEEEE",
   "name" : "fmt::internal::numeric_specs_checker<fmt::internal::specs_handler<fmt::basic_format_parse_context<char, fmt::internal::error_handler>, fmt::basic_format_context<std::back_insert_iterator<fmt::internal::buffer<char> >, char> > > *",
   "referenced_type" : "_ZTIN3fmt2v68internal21numeric_specs_checkerINS1_13specs_handlerINS0_26basic_format_parse_contextIcNS1_13error_handlerEEENS0_20basic_format_contextINSt3__120back_insert_iteratorINS1_6bufferIcEEEEcEEEEEE",
   "self_type" : "_ZTIPN3fmt2v68internal21numeric_specs_checkerINS1_13specs_handlerINS0_26basic_format_parse_contextIcNS1_13error_handlerEEENS0_20basic_format_contextINSt3__120back_insert_iteratorINS1_6bufferIcEEEEcEEEEEE",
   "size" : 4,
   "source_file" : "/external/fmtlib/include/fmt/format.h"
  },
  {
   "alignment" : 4,
   "linker_set_key" : "_ZTIPN3fmt2v68internal21numeric_specs_checkerINS1_13specs_handlerINS0_26basic_format_parse_contextIwNS1_13error_handlerEEENS0_20basic_format_contextINSt3__120back_insert_iteratorINS1_6bufferIwEEEEwEEEEEE",
   "name" : "fmt::internal::numeric_specs_checker<fmt::internal::specs_handler<fmt::basic_format_parse_context<wchar_t, fmt::internal::error_handler>, fmt::basic_format_context<std::back_insert_iterator<fmt::internal::buffer<wchar_t> >, wchar_t> > > *",
   "referenced_type" : "_ZTIN3fmt2v68internal21numeric_specs_checkerINS1_13specs_handlerINS0_26basic_format_parse_contextIwNS1_13error_handlerEEENS0_20basic_format_contextINSt3__120back_insert_iteratorINS1_6bufferIwEEEEwEEEEEE",
   "self_type" : "_ZTIPN3fmt2v68internal21numeric_specs_checkerINS1_13specs_handlerINS0_26basic_format_parse_contextIwNS1_13error_handlerEEENS0_20basic_format_contextINSt3__120back_insert_iteratorINS1_6bufferIwEEEEwEEEEEE",
   "size" : 4,
   "source_file" : "/external/fmtlib/include/fmt/format.h"
  },
  {
   "alignment" : 4,
   "linker_set_key" : "_ZTIPN3fmt2v68internal22grisu_shortest_handlerE",
   "name" : "fmt::internal::grisu_shortest_handler *",
   "referenced_type" : "_ZTIN3fmt2v68internal22grisu_shortest_handlerE",
   "self_type" : "_ZTIPN3fmt2v68internal22grisu_shortest_handlerE",
   "size" : 4,
   "source_file" : "/external/fmtlib/include/fmt/format-inl.h"
  },
  {
   "alignment" : 4,
   "linker_set_key" : "_ZTIPN3fmt2v68internal2fpE",
   "name" : "fmt::internal::fp *",
   "referenced_type" : "_ZTIN3fmt2v68internal2fpE",
   "self_type" : "_ZTIPN3fmt2v68internal2fpE",
   "size" : 4,
   "source_file" : "/external/fmtlib/include/fmt/format-inl.h"
  },
  {
   "alignment" : 4,
   "linker_set_key" : "_ZTIPN3fmt2v68internal5valueINS0_20basic_format_contextINSt3__120back_insert_iteratorINS1_6bufferIcEEEEcEEEE",
   "name" : "fmt::internal::value<fmt::basic_format_context<std::back_insert_iterator<fmt::internal::buffer<char> >, char> > *",
   "referenced_type" : "_ZTIN3fmt2v68internal5valueINS0_20basic_format_contextINSt3__120back_insert_iteratorINS1_6bufferIcEEEEcEEEE",
   "self_type" : "_ZTIPN3fmt2v68internal5valueINS0_20basic_format_contextINSt3__120back_insert_iteratorINS1_6bufferIcEEEEcEEEE",
   "size" : 4,
   "source_file" : "/external/fmtlib/include/fmt/core.h"
  },
  {
   "alignment" : 4,
   "linker_set_key" : "_ZTIPN3fmt2v68internal5valueINS0_20basic_format_contextINSt3__120back_insert_iteratorINS1_6bufferIwEEEEwEEEE",
   "name" : "fmt::internal::value<fmt::basic_format_context<std::back_insert_iterator<fmt::internal::buffer<wchar_t> >, wchar_t> > *",
   "referenced_type" : "_ZTIN3fmt2v68internal5valueINS0_20basic_format_contextINSt3__120back_insert_iteratorINS1_6bufferIwEEEEwEEEE",
   "self_type" : "_ZTIPN3fmt2v68internal5valueINS0_20basic_format_contextINSt3__120back_insert_iteratorINS1_6bufferIwEEEEwEEEE",
   "size" : 4,
   "source_file" : "/external/fmtlib/include/fmt/core.h"
  },
  {
   "alignment" : 4,
   "linker_set_key" : "_ZTIPN3fmt2v68internal6bigintE",
   "name" : "fmt::internal::bigint *",
   "referenced_type" : "_ZTIN3fmt2v68internal6bigintE",
   "self_type" : "_ZTIPN3fmt2v68internal6bigintE",
   "size" : 4,
   "source_file" : "/external/fmtlib/include/fmt/format-inl.h"
  },
  {
   "alignment" : 4,
   "linker_set_key" : "_ZTIPN3fmt2v68internal6bufferINS0_13arg_formatterINS0_12buffer_rangeIcEEEEEE",
   "name" : "fmt::internal::buffer<fmt::arg_formatter<fmt::buffer_range<char> > > *",
   "referenced_type" : "_ZTIN3fmt2v68internal6bufferINS0_13arg_formatterINS0_12buffer_rangeIcEEEEEE",
   "self_type" : "_ZTIPN3fmt2v68internal6bufferINS0_13arg_formatterINS0_12buffer_rangeIcEEEEEE",
   "size" : 4,
   "source_file" : "/external/fmtlib/include/fmt/core.h"
  },
  {
   "alignment" : 4,
   "linker_set_key" : "_ZTIPN3fmt2v68internal6bufferINS0_13arg_formatterINS0_12buffer_rangeIwEEEEEE",
   "name" : "fmt::internal::buffer<fmt::arg_formatter<fmt::buffer_range<wchar_t> > > *",
   "referenced_type" : "_ZTIN3fmt2v68internal6bufferINS0_13arg_formatterINS0_12buffer_rangeIwEEEEEE",
   "self_type" : "_ZTIPN3fmt2v68internal6bufferINS0_13arg_formatterINS0_12buffer_rangeIwEEEEEE",
   "size" : 4,
   "source_file" : "/external/fmtlib/include/fmt/core.h"
  },
  {
   "alignment" : 4,
   "linker_set_key" : "_ZTIPN3fmt2v68internal6bufferIcEE",
   "name" : "fmt::internal::buffer<char> *",
   "referenced_type" : "_ZTIN3fmt2v68internal6bufferIcEE",
   "self_type" : "_ZTIPN3fmt2v68internal6bufferIcEE",
   "size" : 4,
   "source_file" : "/external/fmtlib/include/fmt/core.h"
  },
  {
   "alignment" : 4,
   "linker_set_key" : "_ZTIPN3fmt2v68internal6bufferIjEE",
   "name" : "fmt::internal::buffer<unsigned int> *",
   "referenced_type" : "_ZTIN3fmt2v68internal6bufferIjEE",
   "self_type" : "_ZTIPN3fmt2v68internal6bufferIjEE",
   "size" : 4,
   "source_file" : "/external/fmtlib/include/fmt/core.h"
  },
  {
   "alignment" : 4,
   "linker_set_key" : "_ZTIPN3fmt2v68internal6bufferIwEE",
   "name" : "fmt::internal::buffer<wchar_t> *",
   "referenced_type" : "_ZTIN3fmt2v68internal6bufferIwEE",
   "self_type" : "_ZTIPN3fmt2v68internal6bufferIwEE",
   "size" : 4,
   "source_file" : "/external/fmtlib/include/fmt/core.h"
  },
  {
   "alignment" : 4,
   "linker_set_key" : "_ZTIPN3fmt2v68internal6fill_tIcEE",
   "name" : "fmt::internal::fill_t<char> *",
   "referenced_type" : "_ZTIN3fmt2v68internal6fill_tIcEE",
   "self_type" : "_ZTIPN3fmt2v68internal6fill_tIcEE",
   "size" : 4,
   "source_file" : "/external/fmtlib/include/fmt/format.h"
  },
  {
   "alignment" : 4,
   "linker_set_key" : "_ZTIPN3fmt2v68internal6fill_tIwEE",
   "name" : "fmt::internal::fill_t<wchar_t> *",
   "referenced_type" : "_ZTIN3fmt2v68internal6fill_tIwEE",
   "self_type" : "_ZTIPN3fmt2v68internal6fill_tIwEE",
   "size" : 4,
   "source_file" : "/external/fmtlib/include/fmt/format.h"
  },
  {
   "alignment" : 4,
   "linker_set_key" : "_ZTIPN3fmt2v68internal7arg_mapINS0_20basic_format_contextINSt3__120back_insert_iteratorINS1_6bufferINS0_13arg_formatterINS0_12buffer_rangeIcEEEEEEEESA_EEE5entryE",
   "name" : "fmt::internal::arg_map<basic_format_context<back_insert_iterator<buffer<arg_formatter<buffer_range<char> > > >, arg_formatter<buffer_range<char> > > >::entry *",
   "referenced_type" : "_ZTIN3fmt2v68internal7arg_mapINS0_20basic_format_contextINSt3__120back_insert_iteratorINS1_6bufferINS0_13arg_formatterINS0_12buffer_rangeIcEEEEEEEESA_EEE5entryE",
   "self_type" : "_ZTIPN3fmt2v68internal7arg_mapINS0_20basic_format_contextINSt3__120back_insert_iteratorINS1_6bufferINS0_13arg_formatterINS0_12buffer_rangeIcEEEEEEEESA_EEE5entryE",
   "size" : 4,
   "source_file" : "/external/fmtlib/include/fmt/core.h"
  },
  {
   "alignment" : 4,
   "linker_set_key" : "_ZTIPN3fmt2v68internal7arg_mapINS0_20basic_format_contextINSt3__120back_insert_iteratorINS1_6bufferINS0_13arg_formatterINS0_12buffer_rangeIwEEEEEEEESA_EEE5entryE",
   "name" : "fmt::internal::arg_map<basic_format_context<back_insert_iterator<buffer<arg_formatter<buffer_range<wchar_t> > > >, arg_formatter<buffer_range<wchar_t> > > >::entry *",
   "referenced_type" : "_ZTIN3fmt2v68internal7arg_mapINS0_20basic_format_contextINSt3__120back_insert_iteratorINS1_6bufferINS0_13arg_formatterINS0_12buffer_rangeIwEEEEEEEESA_EEE5entryE",
   "self_type" : "_ZTIPN3fmt2v68internal7arg_mapINS0_20basic_format_contextINSt3__120back_insert_iteratorINS1_6bufferINS0_13arg_formatterINS0_12buffer_rangeIwEEEEEEEESA_EEE5entryE",
   "size" : 4,
   "source_file" : "/external/fmtlib/include/fmt/core.h"
  },
  {
   "alignment" : 4,
   "linker_set_key" : "_ZTIPN3fmt2v68internal7arg_mapINS0_20basic_format_contextINSt3__120back_insert_iteratorINS1_6bufferIcEEEEcEEE5entryE",
   "name" : "fmt::internal::arg_map<basic_format_context<back_insert_iterator<buffer<char> >, char> >::entry *",
   "referenced_type" : "_ZTIN3fmt2v68internal7arg_mapINS0_20basic_format_contextINSt3__120back_insert_iteratorINS1_6bufferIcEEEEcEEE5entryE",
   "self_type" : "_ZTIPN3fmt2v68internal7arg_mapINS0_20basic_format_contextINSt3__120back_insert_iteratorINS1_6bufferIcEEEEcEEE5entryE",
   "size" : 4,
   "source_file" : "/external/fmtlib/include/fmt/core.h"
  },
  {
   "alignment" : 4,
   "linker_set_key" : "_ZTIPN3fmt2v68internal7arg_mapINS0_20basic_format_contextINSt3__120back_insert_iteratorINS1_6bufferIcEEEEcEEEE",
   "name" : "fmt::internal::arg_map<fmt::basic_format_context<std::back_insert_iterator<fmt::internal::buffer<char> >, char> > *",
   "referenced_type" : "_ZTIN3fmt2v68internal7arg_mapINS0_20basic_format_contextINSt3__120back_insert_iteratorINS1_6bufferIcEEEEcEEEE",
   "self_type" : "_ZTIPN3fmt2v68internal7arg_mapINS0_20basic_format_contextINSt3__120back_insert_iteratorINS1_6bufferIcEEEEcEEEE",
   "size" : 4,
   "source_file" : "/external/fmtlib/include/fmt/core.h"
  },
  {
   "alignment" : 4,
   "linker_set_key" : "_ZTIPN3fmt2v68internal7arg_mapINS0_20basic_format_contextINSt3__120back_insert_iteratorINS1_6bufferIwEEEEwEEE5entryE",
   "name" : "fmt::internal::arg_map<basic_format_context<back_insert_iterator<buffer<wchar_t> >, wchar_t> >::entry *",
   "referenced_type" : "_ZTIN3fmt2v68internal7arg_mapINS0_20basic_format_contextINSt3__120back_insert_iteratorINS1_6bufferIwEEEEwEEE5entryE",
   "self_type" : "_ZTIPN3fmt2v68internal7arg_mapINS0_20basic_format_contextINSt3__120back_insert_iteratorINS1_6bufferIwEEEEwEEE5entryE",
   "size" : 4,
   "source_file" : "/external/fmtlib/include/fmt/core.h"
  },
  {
   "alignment" : 4,
   "linker_set_key" : "_ZTIPN3fmt2v68internal7arg_mapINS0_20basic_format_contextINSt3__120back_insert_iteratorINS1_6bufferIwEEEEwEEEE",
   "name" : "fmt::internal::arg_map<fmt::basic_format_context<std::back_insert_iterator<fmt::internal::buffer<wchar_t> >, wchar_t> > *",
   "referenced_type" : "_ZTIN3fmt2v68internal7arg_mapINS0_20basic_format_contextINSt3__120back_insert_iteratorINS1_6bufferIwEEEEwEEEE",
   "self_type" : "_ZTIPN3fmt2v68internal7arg_mapINS0_20basic_format_contextINSt3__120back_insert_iteratorINS1_6bufferIwEEEEwEEEE",
   "size" : 4,
   "source_file" : "/external/fmtlib/include/fmt/core.h"
  },
  {
   "alignment" : 4,
   "linker_set_key" : "_ZTIPN3fmt2v69formatterINS0_8internal6bigintEcvEE",
   "name" : "fmt::formatter<fmt::internal::bigint, char, void> *",
   "referenced_type" : "_ZTIN3fmt2v69formatterINS0_8internal6bigintEcvEE",
   "self_type" : "_ZTIPN3fmt2v69formatterINS0_8internal6bigintEcvEE",
   "size" : 4,
   "source_file" : "/external/fmtlib/include/fmt/format-inl.h"
  },
  {
   "alignment" : 4,
   "linker_set_key" : "_ZTIPN3fmt2v69formatterIPKccvEE",
   "name" : "fmt::formatter<const char *, char, void> *",
   "referenced_type" : "_ZTIN3fmt2v69formatterIPKccvEE",
   "self_type" : "_ZTIPN3fmt2v69formatterIPKccvEE",
   "size" : 4,
   "source_file" : "/external/fmtlib/include/fmt/format.h"
  },
  {
   "alignment" : 4,
   "linker_set_key" : "_ZTIPN3fmt2v69formatterIicvEE",
   "name" : "fmt::formatter<int, char, void> *",
   "referenced_type" : "_ZTIN3fmt2v69formatterIicvEE",
   "self_type" : "_ZTIPN3fmt2v69formatterIicvEE",
   "size" : 4,
   "source_file" : "/external/fmtlib/include/fmt/format.h"
  },
  {
   "alignment" : 4,
   "linker_set_key" : "_ZTIPN3fmt2v69formatterIjcvEE",
   "name" : "fmt::formatter<unsigned int, char, void> *",
   "referenced_type" : "_ZTIN3fmt2v69formatterIjcvEE",
   "self_type" : "_ZTIPN3fmt2v69formatterIjcvEE",
   "size" : 4,
   "source_file" : "/external/fmtlib/include/fmt/format.h"
  },
  {
   "alignment" : 4,
   "linker_set_key" : "_ZTIPN7android4base10LogMessageE",
   "name" : "android::base::LogMessage *",
   "referenced_type" : "_ZTIN7android4base10LogMessageE",
   "self_type" : "_ZTIPN7android4base10LogMessageE",
   "size" : 4,
   "source_file" : "/system/core/base/include/android-base/logging.h"
  },
  {
   "alignment" : 4,
   "linker_set_key" : "_ZTIPN7android4base10LogdLoggerE",
   "name" : "android::base::LogdLogger *",
   "referenced_type" : "_ZTIN7android4base10LogdLoggerE",
   "self_type" : "_ZTIPN7android4base10LogdLoggerE",
   "size" : 4,
   "source_file" : "/system/core/base/include/android-base/logging.h"
  },
  {
   "alignment" : 4,
   "linker_set_key" : "_ZTIPN7android4base10MappedFileE",
   "name" : "android::base::MappedFile *",
   "referenced_type" : "_ZTIN7android4base10MappedFileE",
   "self_type" : "_ZTIPN7android4base10MappedFileE",
   "size" : 4,
   "source_file" : "/system/core/base/include/android-base/mapped_file.h"
  },
  {
   "alignment" : 4,
   "linker_set_key" : "_ZTIPN7android4base11borrowed_fdE",
   "name" : "android::base::borrowed_fd *",
   "referenced_type" : "_ZTIN7android4base11borrowed_fdE",
   "self_type" : "_ZTIPN7android4base11borrowed_fdE",
   "size" : 4,
   "source_file" : "/system/core/base/include/android-base/unique_fd.h"
  },
  {
   "alignment" : 4,
   "linker_set_key" : "_ZTIPN7android4base13ErrnoRestorerE",
   "name" : "android::base::ErrnoRestorer *",
   "referenced_type" : "_ZTIN7android4base13ErrnoRestorerE",
   "self_type" : "_ZTIPN7android4base13ErrnoRestorerE",
   "size" : 4,
   "source_file" : "/system/core/base/include/android-base/errno_restorer.h"
  },
  {
   "alignment" : 4,
   "linker_set_key" : "_ZTIPN7android4base14CachedPropertyE",
   "name" : "android::base::CachedProperty *",
   "referenced_type" : "_ZTIN7android4base14CachedPropertyE",
   "self_type" : "_ZTIPN7android4base14CachedPropertyE",
   "size" : 4,
   "source_file" : "/system/core/base/include/android-base/properties.h"
  },
  {
   "alignment" : 4,
   "linker_set_key" : "_ZTIPN7android4base14EagerEvaluatorIPKaPaEE",
   "name" : "android::base::EagerEvaluator<const signed char *, signed char *> *",
   "referenced_type" : "_ZTIN7android4base14EagerEvaluatorIPKaPaEE",
   "self_type" : "_ZTIPN7android4base14EagerEvaluatorIPKaPaEE",
   "size" : 4,
   "source_file" : "/system/core/base/include/android-base/logging.h"
  },
  {
   "alignment" : 4,
   "linker_set_key" : "_ZTIPN7android4base14EagerEvaluatorIPKaS3_EE",
   "name" : "android::base::EagerEvaluator<const signed char *, const signed char *> *",
   "referenced_type" : "_ZTIN7android4base14EagerEvaluatorIPKaS3_EE",
   "self_type" : "_ZTIPN7android4base14EagerEvaluatorIPKaS3_EE",
   "size" : 4,
   "source_file" : "/system/core/base/include/android-base/logging.h"
  },
  {
   "alignment" : 4,
   "linker_set_key" : "_ZTIPN7android4base14EagerEvaluatorIPKcPcEE",
   "name" : "android::base::EagerEvaluator<const char *, char *> *",
   "referenced_type" : "_ZTIN7android4base14EagerEvaluatorIPKcPcEE",
   "self_type" : "_ZTIPN7android4base14EagerEvaluatorIPKcPcEE",
   "size" : 4,
   "source_file" : "/system/core/base/include/android-base/logging.h"
  },
  {
   "alignment" : 4,
   "linker_set_key" : "_ZTIPN7android4base14EagerEvaluatorIPKcS3_EE",
   "name" : "android::base::EagerEvaluator<const char *, const char *> *",
   "referenced_type" : "_ZTIN7android4base14EagerEvaluatorIPKcS3_EE",
   "self_type" : "_ZTIPN7android4base14EagerEvaluatorIPKcS3_EE",
   "size" : 4,
   "source_file" : "/system/core/base/include/android-base/logging.h"
  },
  {
   "alignment" : 4,
   "linker_set_key" : "_ZTIPN7android4base14EagerEvaluatorIPKhPhEE",
   "name" : "android::base::EagerEvaluator<const unsigned char *, unsigned char *> *",
   "referenced_type" : "_ZTIN7android4base14EagerEvaluatorIPKhPhEE",
   "self_type" : "_ZTIPN7android4base14EagerEvaluatorIPKhPhEE",
   "size" : 4,
   "source_file" : "/system/core/base/include/android-base/logging.h"
  },
  {
   "alignment" : 4,
   "linker_set_key" : "_ZTIPN7android4base14EagerEvaluatorIPKhS3_EE",
   "name" : "android::base::EagerEvaluator<const unsigned char *, const unsigned char *> *",
   "referenced_type" : "_ZTIN7android4base14EagerEvaluatorIPKhS3_EE",
   "self_type" : "_ZTIPN7android4base14EagerEvaluatorIPKhS3_EE",
   "size" : 4,
   "source_file" : "/system/core/base/include/android-base/logging.h"
  },
  {
   "alignment" : 4,
   "linker_set_key" : "_ZTIPN7android4base14EagerEvaluatorIPaPKaEE",
   "name" : "android::base::EagerEvaluator<signed char *, const signed char *> *",
   "referenced_type" : "_ZTIN7android4base14EagerEvaluatorIPaPKaEE",
   "self_type" : "_ZTIPN7android4base14EagerEvaluatorIPaPKaEE",
   "size" : 4,
   "source_file" : "/system/core/base/include/android-base/logging.h"
  },
  {
   "alignment" : 4,
   "linker_set_key" : "_ZTIPN7android4base14EagerEvaluatorIPaS2_EE",
   "name" : "android::base::EagerEvaluator<signed char *, signed char *> *",
   "referenced_type" : "_ZTIN7android4base14EagerEvaluatorIPaS2_EE",
   "self_type" : "_ZTIPN7android4base14EagerEvaluatorIPaS2_EE",
   "size" : 4,
   "source_file" : "/system/core/base/include/android-base/logging.h"
  },
  {
   "alignment" : 4,
   "linker_set_key" : "_ZTIPN7android4base14EagerEvaluatorIPcPKcEE",
   "name" : "android::base::EagerEvaluator<char *, const char *> *",
   "referenced_type" : "_ZTIN7android4base14EagerEvaluatorIPcPKcEE",
   "self_type" : "_ZTIPN7android4base14EagerEvaluatorIPcPKcEE",
   "size" : 4,
   "source_file" : "/system/core/base/include/android-base/logging.h"
  },
  {
   "alignment" : 4,
   "linker_set_key" : "_ZTIPN7android4base14EagerEvaluatorIPcS2_EE",
   "name" : "android::base::EagerEvaluator<char *, char *> *",
   "referenced_type" : "_ZTIN7android4base14EagerEvaluatorIPcS2_EE",
   "self_type" : "_ZTIPN7android4base14EagerEvaluatorIPcS2_EE",
   "size" : 4,
   "source_file" : "/system/core/base/include/android-base/logging.h"
  },
  {
   "alignment" : 4,
   "linker_set_key" : "_ZTIPN7android4base14EagerEvaluatorIPhPKhEE",
   "name" : "android::base::EagerEvaluator<unsigned char *, const unsigned char *> *",
   "referenced_type" : "_ZTIN7android4base14EagerEvaluatorIPhPKhEE",
   "self_type" : "_ZTIPN7android4base14EagerEvaluatorIPhPKhEE",
   "size" : 4,
   "source_file" : "/system/core/base/include/android-base/logging.h"
  },
  {
   "alignment" : 4,
   "linker_set_key" : "_ZTIPN7android4base14EagerEvaluatorIPhS2_EE",
   "name" : "android::base::EagerEvaluator<unsigned char *, unsigned char *> *",
   "referenced_type" : "_ZTIN7android4base14EagerEvaluatorIPhS2_EE",
   "self_type" : "_ZTIPN7android4base14EagerEvaluatorIPhS2_EE",
   "size" : 4,
   "source_file" : "/system/core/base/include/android-base/logging.h"
  },
  {
   "alignment" : 4,
   "linker_set_key" : "_ZTIPN7android4base14EagerEvaluatorIiiEE",
   "name" : "android::base::EagerEvaluator<int, int> *",
   "referenced_type" : "_ZTIN7android4base14EagerEvaluatorIiiEE",
   "self_type" : "_ZTIPN7android4base14EagerEvaluatorIiiEE",
   "size" : 4,
   "source_file" : "/system/core/base/include/android-base/logging.h"
  },
  {
   "alignment" : 4,
   "linker_set_key" : "_ZTIPN7android4base14EagerEvaluatorIixEE",
   "name" : "android::base::EagerEvaluator<int, long long> *",
   "referenced_type" : "_ZTIN7android4base14EagerEvaluatorIixEE",
   "self_type" : "_ZTIPN7android4base14EagerEvaluatorIixEE",
   "size" : 4,
   "source_file" : "/system/core/base/include/android-base/logging.h"
  },
  {
   "alignment" : 4,
   "linker_set_key" : "_ZTIPN7android4base14unique_fd_implINS0_13DefaultCloserEEE",
   "name" : "android::base::unique_fd_impl<android::base::DefaultCloser> *",
   "referenced_type" : "_ZTIN7android4base14unique_fd_implINS0_13DefaultCloserEEE",
   "self_type" : "_ZTIPN7android4base14unique_fd_implINS0_13DefaultCloserEEE",
   "size" : 4,
   "source_file" : "/system/core/base/include/android-base/unique_fd.h"
  },
  {
   "alignment" : 4,
   "linker_set_key" : "_ZTIPN7android4base17ScopedLogSeverityE",
   "name" : "android::base::ScopedLogSeverity *",
   "referenced_type" : "_ZTIN7android4base17ScopedLogSeverityE",
   "self_type" : "_ZTIPN7android4base17ScopedLogSeverityE",
   "size" : 4,
   "source_file" : "/system/core/base/include/android-base/logging.h"
  },
  {
   "alignment" : 4,
   "linker_set_key" : "_ZTIPN7android4base5TimerE",
   "name" : "android::base::Timer *",
   "referenced_type" : "_ZTIN7android4base5TimerE",
   "self_type" : "_ZTIPN7android4base5TimerE",
   "size" : 4,
   "source_file" : "/system/core/base/include/android-base/chrono_utils.h"
  },
  {
   "alignment" : 4,
   "linker_set_key" : "_ZTIPN7android4base7AllPids11PidIteratorE",
   "name" : "android::base::AllPids::PidIterator *",
   "referenced_type" : "_ZTIN7android4base7AllPids11PidIteratorE",
   "self_type" : "_ZTIPN7android4base7AllPids11PidIteratorE",
   "size" : 4,
   "source_file" : "/system/core/base/include/android-base/process.h"
  },
  {
   "alignment" : 4,
   "linker_set_key" : "_ZTIPN7android4base7AllPidsE",
   "name" : "android::base::AllPids *",
   "referenced_type" : "_ZTIN7android4base7AllPidsE",
   "self_type" : "_ZTIPN7android4base7AllPidsE",
   "size" : 4,
   "source_file" : "/system/core/base/include/android-base/process.h"
  },
  {
   "alignment" : 4,
   "linker_set_key" : "_ZTIPNSt3__112basic_stringIcNS_11char_traitsIcEENS_9allocatorIcEEEE",
   "name" : "std::basic_string<char, std::char_traits<char>, std::allocator<char> > *",
   "referenced_type" : "_ZTINSt3__112basic_stringIcNS_11char_traitsIcEENS_9allocatorIcEEEE",
   "self_type" : "_ZTIPNSt3__112basic_stringIcNS_11char_traitsIcEENS_9allocatorIcEEEE",
   "size" : 4,
   "source_file" : "/system/core/base/include/android-base/file.h"
  },
  {
   "alignment" : 4,
   "linker_set_key" : "_ZTIPNSt3__117basic_string_viewIcNS_11char_traitsIcEEEE",
   "name" : "std::basic_string_view<char, std::char_traits<char> > *",
   "referenced_type" : "_ZTINSt3__117basic_string_viewIcNS_11char_traitsIcEEEE",
   "self_type" : "_ZTIPNSt3__117basic_string_viewIcNS_11char_traitsIcEEEE",
   "size" : 4,
   "source_file" : "/system/core/base/include/android-base/strings.h"
  },
  {
   "alignment" : 4,
   "linker_set_key" : "_ZTIPNSt3__16vectorIN7android4base14unique_fd_implINS2_13DefaultCloserEEENS_9allocatorIS5_EEEE",
   "name" : "std::vector<android::base::unique_fd_impl<android::base::DefaultCloser>, std::allocator<android::base::unique_fd_impl<android::base::DefaultCloser> > > *",
   "referenced_type" : "_ZTINSt3__16vectorIN7android4base14unique_fd_implINS2_13DefaultCloserEEENS_9allocatorIS5_EEEE",
   "self_type" : "_ZTIPNSt3__16vectorIN7android4base14unique_fd_implINS2_13DefaultCloserEEENS_9allocatorIS5_EEEE",
   "size" : 4,
   "source_file" : "/system/core/base/include/android-base/cmsg.h"
  },
  {
   "alignment" : 4,
   "linker_set_key" : "_ZTIPPc",
   "name" : "char **",
   "referenced_type" : "_ZTIPc",
   "self_type" : "_ZTIPPc",
   "size" : 4,
   "source_file" : "/system/core/base/include/android-base/logging.h"
  },
  {
   "alignment" : 4,
   "linker_set_key" : "_ZTIPa",
   "name" : "signed char *",
   "referenced_type" : "_ZTIa",
   "self_type" : "_ZTIPa",
   "size" : 4,
   "source_file" : "/system/core/base/include/android-base/logging.h"
  },
  {
   "alignment" : 4,
   "linker_set_key" : "_ZTIPb",
   "name" : "bool *",
   "referenced_type" : "_ZTIb",
   "self_type" : "_ZTIPb",
   "size" : 4,
   "source_file" : "/system/core/base/include/android-base/properties.h"
  },
  {
   "alignment" : 4,
   "linker_set_key" : "_ZTIPc",
   "name" : "char *",
   "referenced_type" : "_ZTIc",
   "self_type" : "_ZTIPc",
   "size" : 4,
   "source_file" : "/system/core/base/include/android-base/mapped_file.h"
  },
  {
   "alignment" : 4,
   "linker_set_key" : "_ZTIPh",
   "name" : "unsigned char *",
   "referenced_type" : "_ZTIh",
   "self_type" : "_ZTIPh",
   "size" : 4,
   "source_file" : "/system/core/base/include/android-base/logging.h"
  },
  {
   "alignment" : 4,
   "linker_set_key" : "_ZTIPi",
   "name" : "int *",
   "referenced_type" : "_ZTIi",
   "self_type" : "_ZTIPi",
   "size" : 4,
   "source_file" : "/system/core/base/include/android-base/parseint.h"
  },
  {
   "alignment" : 4,
   "linker_set_key" : "_ZTIPj",
   "name" : "unsigned int *",
   "referenced_type" : "_ZTIj",
   "self_type" : "_ZTIPj",
   "size" : 4,
   "source_file" : "/system/core/base/include/android-base/parseint.h"
  },
  {
   "alignment" : 4,
   "linker_set_key" : "_ZTIPs",
   "name" : "short *",
   "referenced_type" : "_ZTIs",
   "self_type" : "_ZTIPs",
   "size" : 4,
   "source_file" : "/system/core/base/include/android-base/parseint.h"
  },
  {
   "alignment" : 4,
   "linker_set_key" : "_ZTIPt",
   "name" : "unsigned short *",
   "referenced_type" : "_ZTIt",
   "self_type" : "_ZTIPt",
   "size" : 4,
   "source_file" : "/system/core/base/include/android-base/parseint.h"
  },
  {
   "alignment" : 4,
   "linker_set_key" : "_ZTIPv",
   "name" : "void *",
   "referenced_type" : "_ZTIv",
   "self_type" : "_ZTIPv",
   "size" : 4,
   "source_file" : "/system/core/base/include/android-base/unique_fd.h"
  },
  {
   "alignment" : 4,
   "linker_set_key" : "_ZTIPw",
   "name" : "wchar_t *",
   "referenced_type" : "_ZTIw",
   "self_type" : "_ZTIPw",
   "size" : 4,
   "source_file" : "/external/fmtlib/include/fmt/core.h"
  },
  {
   "alignment" : 4,
   "linker_set_key" : "_ZTIPx",
   "name" : "long long *",
   "referenced_type" : "_ZTIx",
   "self_type" : "_ZTIPx",
   "size" : 4,
   "source_file" : "/system/core/base/include/android-base/parseint.h"
  },
  {
   "alignment" : 4,
   "linker_set_key" : "_ZTIPy",
   "name" : "unsigned long long *",
   "referenced_type" : "_ZTIy",
   "self_type" : "_ZTIPy",
   "size" : 4,
   "source_file" : "/system/core/base/include/android-base/parseint.h"
  }
 ],
 "qualified_types" :
 [
  {
   "alignment" : 4,
   "is_const" : true,
   "linker_set_key" : "_ZTIA10_Kj",
   "name" : "unsigned int const[10]",
   "referenced_type" : "_ZTIA10_j",
   "self_type" : "_ZTIA10_Kj",
   "size" : 40,
   "source_file" : "/external/fmtlib/include/fmt/format-inl.h"
  },
  {
   "alignment" : 1,
   "is_const" : true,
   "linker_set_key" : "_ZTIA17_Kc",
   "name" : "char const[17]",
   "referenced_type" : "_ZTIA17_c",
   "self_type" : "_ZTIA17_Kc",
   "size" : 17,
   "source_file" : "/external/fmtlib/include/fmt/format-inl.h"
  },
  {
   "alignment" : 1,
   "is_const" : true,
   "linker_set_key" : "_ZTIA201_Kc",
   "name" : "char const[201]",
   "referenced_type" : "_ZTIA201_c",
   "self_type" : "_ZTIA201_Kc",
   "size" : 201,
   "source_file" : "/external/fmtlib/include/fmt/format-inl.h"
  },
  {
   "alignment" : 4,
   "is_const" : true,
   "linker_set_key" : "_ZTIA20_Ky",
   "name" : "unsigned long long const[20]",
   "referenced_type" : "_ZTIA20_y",
   "self_type" : "_ZTIA20_Ky",
   "size" : 160,
   "source_file" : "/external/fmtlib/include/fmt/format-inl.h"
  },
  {
   "alignment" : 1,
   "is_const" : true,
   "linker_set_key" : "_ZTIA28_Kc",
   "name" : "char const[28]",
   "referenced_type" : "_ZTIA28_c",
   "self_type" : "_ZTIA28_Kc",
   "size" : 28,
   "source_file" : "/external/fmtlib/include/fmt/core.h"
  },
  {
   "alignment" : 1,
   "is_const" : true,
   "linker_set_key" : "_ZTIA3_Kc",
   "name" : "char const[3]",
   "referenced_type" : "_ZTIA3_c",
   "self_type" : "_ZTIA3_Kc",
   "size" : 3,
   "source_file" : "/external/fmtlib/include/fmt/format-inl.h"
  },
  {
   "alignment" : 1,
   "is_const" : true,
   "linker_set_key" : "_ZTIA4_Kc",
   "name" : "char const[4]",
   "referenced_type" : "_ZTIA4_c",
   "self_type" : "_ZTIA4_Kc",
   "size" : 4,
   "source_file" : "/external/fmtlib/include/fmt/core.h"
  },
  {
   "alignment" : 1,
   "is_const" : true,
   "linker_set_key" : "_ZTIA5_Kc",
   "name" : "char const[5]",
   "referenced_type" : "_ZTIA5_c",
   "self_type" : "_ZTIA5_Kc",
   "size" : 5,
   "source_file" : "/external/fmtlib/include/fmt/core.h"
  },
  {
   "alignment" : 4,
   "is_const" : true,
   "linker_set_key" : "_ZTIA5_Kw",
   "name" : "wchar_t const[5]",
   "referenced_type" : "_ZTIA5_w",
   "self_type" : "_ZTIA5_Kw",
   "size" : 20,
   "source_file" : "/external/fmtlib/include/fmt/format.h"
  },
  {
   "alignment" : 1,
   "is_const" : true,
   "linker_set_key" : "_ZTIA7_Kc",
   "name" : "char const[7]",
   "referenced_type" : "_ZTIA7_c",
   "self_type" : "_ZTIA7_Kc",
   "size" : 7,
   "source_file" : "/external/fmtlib/include/fmt/core.h"
  },
  {
   "alignment" : 2,
   "is_const" : true,
   "linker_set_key" : "_ZTIA87_Ks",
   "name" : "short const[87]",
   "referenced_type" : "_ZTIA87_s",
   "self_type" : "_ZTIA87_Ks",
   "size" : 174,
   "source_file" : "/external/fmtlib/include/fmt/format-inl.h"
  },
  {
   "alignment" : 4,
   "is_const" : true,
   "linker_set_key" : "_ZTIA87_Ky",
   "name" : "unsigned long long const[87]",
   "referenced_type" : "_ZTIA87_y",
   "self_type" : "_ZTIA87_Ky",
   "size" : 696,
   "source_file" : "/external/fmtlib/include/fmt/format-inl.h"
  },
  {
   "alignment" : 1,
   "is_const" : true,
   "linker_set_key" : "_ZTIA8_Kc",
   "name" : "char const[8]",
   "referenced_type" : "_ZTIA8_c",
   "self_type" : "_ZTIA8_Kc",
   "size" : 8,
   "source_file" : "/external/fmtlib/include/fmt/format-inl.h"
  },
  {
   "is_const" : true,
   "linker_set_key" : "_ZTIA_Kc",
   "name" : "char const[]",
   "referenced_type" : "_ZTIA_c",
   "self_type" : "_ZTIA_Kc",
   "source_file" : "/external/fmtlib/include/fmt/format.h"
  },
  {
   "is_const" : true,
   "linker_set_key" : "_ZTIA_Kj",
   "name" : "unsigned int const[]",
   "referenced_type" : "_ZTIA_j",
   "self_type" : "_ZTIA_Kj",
   "source_file" : "/external/fmtlib/include/fmt/format.h"
  },
  {
   "is_const" : true,
   "linker_set_key" : "_ZTIA_Ks",
   "name" : "short const[]",
   "referenced_type" : "_ZTIA_s",
   "self_type" : "_ZTIA_Ks",
   "source_file" : "/external/fmtlib/include/fmt/format.h"
  },
  {
   "is_const" : true,
   "linker_set_key" : "_ZTIA_Ky",
   "name" : "unsigned long long const[]",
   "referenced_type" : "_ZTIA_y",
   "self_type" : "_ZTIA_Ky",
   "source_file" : "/external/fmtlib/include/fmt/format.h"
  },
  {
   "alignment" : 4,
   "is_const" : true,
   "linker_set_key" : "_ZTIK13CapturedStdFd",
   "name" : "const CapturedStdFd",
   "referenced_type" : "_ZTI13CapturedStdFd",
   "self_type" : "_ZTIK13CapturedStdFd",
   "size" : 1040,
   "source_file" : "/system/core/base/include/android-base/test_utils.h"
  },
  {
   "is_const" : true,
   "linker_set_key" : "_ZTIK9prop_info",
   "name" : "const prop_info",
   "referenced_type" : "_ZTI9prop_info",
   "self_type" : "_ZTIK9prop_info",
   "source_file" : "/system/core/base/include/android-base/properties.h"
  },
  {
   "alignment" : 4,
   "is_const" : true,
   "linker_set_key" : "_ZTIKN3fmt2v610format_intE",
   "name" : "const fmt::format_int",
   "referenced_type" : "_ZTIN3fmt2v610format_intE",
   "self_type" : "_ZTIKN3fmt2v610format_intE",
   "size" : 28,
   "source_file" : "/external/fmtlib/include/fmt/format.h"
  },
  {
   "alignment" : 4,
   "is_const" : true,
   "linker_set_key" : "_ZTIKN3fmt2v612format_errorE",
   "name" : "const fmt::format_error",
   "referenced_type" : "_ZTIN3fmt2v612format_errorE",
   "self_type" : "_ZTIKN3fmt2v612format_errorE",
   "size" : 8,
   "source_file" : "/external/fmtlib/include/fmt/format.h"
  },
  {
   "alignment" : 4,
   "is_const" : true,
   "linker_set_key" : "_ZTIKN3fmt2v612system_errorE",
   "name" : "const fmt::system_error",
   "referenced_type" : "_ZTIN3fmt2v612system_errorE",
   "self_type" : "_ZTIKN3fmt2v612system_errorE",
   "size" : 12,
   "source_file" : "/external/fmtlib/include/fmt/format.h"
  },
  {
   "is_const" : true,
   "linker_set_key" : "_ZTIKN3fmt2v616basic_format_argINS0_20basic_format_contextINSt3__120back_insert_iteratorINS0_8internal6bufferINS0_13arg_formatterINS0_12buffer_rangeIcEEEEEEEESA_EEEE",
   "name" : "const fmt::basic_format_arg<fmt::basic_format_context<std::back_insert_iterator<fmt::internal::buffer<fmt::arg_formatter<fmt::buffer_range<char> > > >, fmt::arg_formatter<fmt::buffer_range<char> > > >",
   "referenced_type" : "_ZTIN3fmt2v616basic_format_argINS0_20basic_format_contextINSt3__120back_insert_iteratorINS0_8internal6bufferINS0_13arg_formatterINS0_12buffer_rangeIcEEEEEEEESA_EEEE",
   "self_type" : "_ZTIKN3fmt2v616basic_format_argINS0_20basic_format_contextINSt3__120back_insert_iteratorINS0_8internal6bufferINS0_13arg_formatterINS0_12buffer_rangeIcEEEEEEEESA_EEEE",
   "source_file" : "/external/fmtlib/include/fmt/core.h"
  },
  {
   "is_const" : true,
   "linker_set_key" : "_ZTIKN3fmt2v616basic_format_argINS0_20basic_format_contextINSt3__120back_insert_iteratorINS0_8internal6bufferINS0_13arg_formatterINS0_12buffer_rangeIwEEEEEEEESA_EEEE",
   "name" : "const fmt::basic_format_arg<fmt::basic_format_context<std::back_insert_iterator<fmt::internal::buffer<fmt::arg_formatter<fmt::buffer_range<wchar_t> > > >, fmt::arg_formatter<fmt::buffer_range<wchar_t> > > >",
   "referenced_type" : "_ZTIN3fmt2v616basic_format_argINS0_20basic_format_contextINSt3__120back_insert_iteratorINS0_8internal6bufferINS0_13arg_formatterINS0_12buffer_rangeIwEEEEEEEESA_EEEE",
   "self_type" : "_ZTIKN3fmt2v616basic_format_argINS0_20basic_format_contextINSt3__120back_insert_iteratorINS0_8internal6bufferINS0_13arg_formatterINS0_12buffer_rangeIwEEEEEEEESA_EEEE",
   "source_file" : "/external/fmtlib/include/fmt/core.h"
  },
  {
   "alignment" : 4,
   "is_const" : true,
   "linker_set_key" : "_ZTIKN3fmt2v616basic_format_argINS0_20basic_format_contextINSt3__120back_insert_iteratorINS0_8internal6bufferIcEEEEcEEE6handleE",
   "name" : "const fmt::basic_format_arg<basic_format_context<back_insert_iterator<buffer<char> >, char> >::handle",
   "referenced_type" : "_ZTIN3fmt2v616basic_format_argINS0_20basic_format_contextINSt3__120back_insert_iteratorINS0_8internal6bufferIcEEEEcEEE6handleE",
   "self_type" : "_ZTIKN3fmt2v616basic_format_argINS0_20basic_format_contextINSt3__120back_insert_iteratorINS0_8internal6bufferIcEEEEcEEE6handleE",
   "size" : 8,
   "source_file" : "/external/fmtlib/include/fmt/core.h"
  },
  {
   "alignment" : 4,
   "is_const" : true,
   "linker_set_key" : "_ZTIKN3fmt2v616basic_format_argINS0_20basic_format_contextINSt3__120back_insert_iteratorINS0_8internal6bufferIcEEEEcEEEE",
   "name" : "const fmt::basic_format_arg<fmt::basic_format_context<std::back_insert_iterator<fmt::internal::buffer<char> >, char> >",
   "referenced_type" : "_ZTIN3fmt2v616basic_format_argINS0_20basic_format_contextINSt3__120back_insert_iteratorINS0_8internal6bufferIcEEEEcEEEE",
   "self_type" : "_ZTIKN3fmt2v616basic_format_argINS0_20basic_format_contextINSt3__120back_insert_iteratorINS0_8internal6bufferIcEEEEcEEEE",
   "size" : 12,
   "source_file" : "/external/fmtlib/include/fmt/core.h"
  },
  {
   "alignment" : 4,
   "is_const" : true,
   "linker_set_key" : "_ZTIKN3fmt2v616basic_format_argINS0_20basic_format_contextINSt3__120back_insert_iteratorINS0_8internal6bufferIwEEEEwEEE6handleE",
   "name" : "const fmt::basic_format_arg<basic_format_context<back_insert_iterator<buffer<wchar_t> >, wchar_t> >::handle",
   "referenced_type" : "_ZTIN3fmt2v616basic_format_argINS0_20basic_format_contextINSt3__120back_insert_iteratorINS0_8internal6bufferIwEEEEwEEE6handleE",
   "self_type" : "_ZTIKN3fmt2v616basic_format_argINS0_20basic_format_contextINSt3__120back_insert_iteratorINS0_8internal6bufferIwEEEEwEEE6handleE",
   "size" : 8,
   "source_file" : "/external/fmtlib/include/fmt/core.h"
  },
  {
   "alignment" : 4,
   "is_const" : true,
   "linker_set_key" : "_ZTIKN3fmt2v616basic_format_argINS0_20basic_format_contextINSt3__120back_insert_iteratorINS0_8internal6bufferIwEEEEwEEEE",
   "name" : "const fmt::basic_format_arg<fmt::basic_format_context<std::back_insert_iterator<fmt::internal::buffer<wchar_t> >, wchar_t> >",
   "referenced_type" : "_ZTIN3fmt2v616basic_format_argINS0_20basic_format_contextINSt3__120back_insert_iteratorINS0_8internal6bufferIwEEEEwEEEE",
   "self_type" : "_ZTIKN3fmt2v616basic_format_argINS0_20basic_format_contextINSt3__120back_insert_iteratorINS0_8internal6bufferIwEEEEwEEEE",
   "size" : 12,
   "source_file" : "/external/fmtlib/include/fmt/core.h"
  },
  {
   "alignment" : 4,
   "is_const" : true,
   "linker_set_key" : "_ZTIKN3fmt2v616format_arg_storeINS0_20basic_format_contextINSt3__120back_insert_iteratorINS0_8internal6bufferIcEEEEcEEJPKciSB_EEE",
   "name" : "const fmt::format_arg_store<fmt::basic_format_context<std::back_insert_iterator<fmt::internal::buffer<char> >, char>, const char *, int, const char *>",
   "referenced_type" : "_ZTIN3fmt2v616format_arg_storeINS0_20basic_format_contextINSt3__120back_insert_iteratorINS0_8internal6bufferIcEEEEcEEJPKciSB_EEE",
   "self_type" : "_ZTIKN3fmt2v616format_arg_storeINS0_20basic_format_contextINSt3__120back_insert_iteratorINS0_8internal6bufferIcEEEEcEEJPKciSB_EEE",
   "size" : 24,
   "source_file" : "/external/fmtlib/include/fmt/core.h"
  },
  {
   "alignment" : 4,
   "is_const" : true,
   "linker_set_key" : "_ZTIKN3fmt2v616format_arg_storeINS0_20basic_format_contextINSt3__120back_insert_iteratorINS0_8internal6bufferIcEEEEcEEJiEEE",
   "name" : "const fmt::format_arg_store<fmt::basic_format_context<std::back_insert_iterator<fmt::internal::buffer<char> >, char>, int>",
   "referenced_type" : "_ZTIN3fmt2v616format_arg_storeINS0_20basic_format_contextINSt3__120back_insert_iteratorINS0_8internal6bufferIcEEEEcEEJiEEE",
   "self_type" : "_ZTIKN3fmt2v616format_arg_storeINS0_20basic_format_contextINSt3__120back_insert_iteratorINS0_8internal6bufferIcEEEEcEEJiEEE",
   "size" : 8,
   "source_file" : "/external/fmtlib/include/fmt/core.h"
  },
  {
   "alignment" : 4,
   "is_const" : true,
   "linker_set_key" : "_ZTIKN3fmt2v616format_arg_storeINS0_20basic_format_contextINSt3__120back_insert_iteratorINS0_8internal6bufferIcEEEEcEEJjEEE",
   "name" : "const fmt::format_arg_store<fmt::basic_format_context<std::back_insert_iterator<fmt::internal::buffer<char> >, char>, unsigned int>",
   "referenced_type" : "_ZTIN3fmt2v616format_arg_storeINS0_20basic_format_contextINSt3__120back_insert_iteratorINS0_8internal6bufferIcEEEEcEEJjEEE",
   "self_type" : "_ZTIKN3fmt2v616format_arg_storeINS0_20basic_format_contextINSt3__120back_insert_iteratorINS0_8internal6bufferIcEEEEcEEJjEEE",
   "size" : 8,
   "source_file" : "/external/fmtlib/include/fmt/core.h"
  },
  {
   "alignment" : 4,
   "is_const" : true,
   "linker_set_key" : "_ZTIKN3fmt2v617basic_format_argsINS0_20basic_format_contextINSt3__120back_insert_iteratorINS0_8internal6bufferIcEEEEcEEEE",
   "name" : "const fmt::basic_format_args<fmt::basic_format_context<std::back_insert_iterator<fmt::internal::buffer<char> >, char> >",
   "referenced_type" : "_ZTIN3fmt2v617basic_format_argsINS0_20basic_format_contextINSt3__120back_insert_iteratorINS0_8internal6bufferIcEEEEcEEEE",
   "self_type" : "_ZTIKN3fmt2v617basic_format_argsINS0_20basic_format_contextINSt3__120back_insert_iteratorINS0_8internal6bufferIcEEEEcEEEE",
   "size" : 12,
   "source_file" : "/external/fmtlib/include/fmt/core.h"
  },
  {
   "alignment" : 4,
   "is_const" : true,
   "linker_set_key" : "_ZTIKN3fmt2v617basic_format_argsINS0_20basic_format_contextINSt3__120back_insert_iteratorINS0_8internal6bufferIwEEEEwEEEE",
   "name" : "const fmt::basic_format_args<fmt::basic_format_context<std::back_insert_iterator<fmt::internal::buffer<wchar_t> >, wchar_t> >",
   "referenced_type" : "_ZTIN3fmt2v617basic_format_argsINS0_20basic_format_contextINSt3__120back_insert_iteratorINS0_8internal6bufferIwEEEEwEEEE",
   "self_type" : "_ZTIKN3fmt2v617basic_format_argsINS0_20basic_format_contextINSt3__120back_insert_iteratorINS0_8internal6bufferIwEEEEwEEEE",
   "size" : 12,
   "source_file" : "/external/fmtlib/include/fmt/core.h"
  },
  {
   "alignment" : 4,
   "is_const" : true,
   "linker_set_key" : "_ZTIKN3fmt2v617basic_string_viewINS0_7char8_tEEE",
   "name" : "const fmt::basic_string_view<fmt::char8_t>",
   "referenced_type" : "_ZTIN3fmt2v617basic_string_viewINS0_7char8_tEEE",
   "self_type" : "_ZTIKN3fmt2v617basic_string_viewINS0_7char8_tEEE",
   "size" : 8,
   "source_file" : "/external/fmtlib/include/fmt/core.h"
  },
  {
   "alignment" : 4,
   "is_const" : true,
   "linker_set_key" : "_ZTIKN3fmt2v617basic_string_viewIcEE",
   "name" : "const fmt::basic_string_view<char>",
   "referenced_type" : "_ZTIN3fmt2v617basic_string_viewIcEE",
   "self_type" : "_ZTIKN3fmt2v617basic_string_viewIcEE",
   "size" : 8,
   "source_file" : "/external/fmtlib/include/fmt/core.h"
  },
  {
   "alignment" : 4,
   "is_const" : true,
   "linker_set_key" : "_ZTIKN3fmt2v617basic_string_viewIwEE",
   "name" : "const fmt::basic_string_view<wchar_t>",
   "referenced_type" : "_ZTIN3fmt2v617basic_string_viewIwEE",
   "self_type" : "_ZTIKN3fmt2v617basic_string_viewIwEE",
   "size" : 8,
   "source_file" : "/external/fmtlib/include/fmt/core.h"
  },
  {
   "alignment" : 4,
   "is_const" : true,
   "linker_set_key" : "_ZTIKN3fmt2v618basic_format_specsIcEE",
   "name" : "const fmt::basic_format_specs<char>",
   "referenced_type" : "_ZTIN3fmt2v618basic_format_specsIcEE",
   "self_type" : "_ZTIKN3fmt2v618basic_format_specsIcEE",
   "size" : 16,
   "source_file" : "/external/fmtlib/include/fmt/format.h"
  },
  {
   "alignment" : 4,
   "is_const" : true,
   "linker_set_key" : "_ZTIKN3fmt2v618basic_format_specsIwEE",
   "name" : "const fmt::basic_format_specs<wchar_t>",
   "referenced_type" : "_ZTIN3fmt2v618basic_format_specsIwEE",
   "self_type" : "_ZTIKN3fmt2v618basic_format_specsIwEE",
   "size" : 36,
   "source_file" : "/external/fmtlib/include/fmt/format.h"
  },
  {
   "alignment" : 4,
   "is_const" : true,
   "linker_set_key" : "_ZTIKN3fmt2v619basic_memory_bufferIcLj500ENSt3__19allocatorIcEEEE",
   "name" : "const fmt::basic_memory_buffer<char, 500, std::allocator<char> >",
   "referenced_type" : "_ZTIN3fmt2v619basic_memory_bufferIcLj500ENSt3__19allocatorIcEEEE",
   "self_type" : "_ZTIKN3fmt2v619basic_memory_bufferIcLj500ENSt3__19allocatorIcEEEE",
   "size" : 516,
   "source_file" : "/external/fmtlib/include/fmt/format.h"
  },
  {
   "alignment" : 4,
   "is_const" : true,
   "linker_set_key" : "_ZTIKN3fmt2v619basic_memory_bufferIwLj500ENSt3__19allocatorIwEEEE",
   "name" : "const fmt::basic_memory_buffer<wchar_t, 500, std::allocator<wchar_t> >",
   "referenced_type" : "_ZTIN3fmt2v619basic_memory_bufferIwLj500ENSt3__19allocatorIwEEEE",
   "self_type" : "_ZTIKN3fmt2v619basic_memory_bufferIwLj500ENSt3__19allocatorIwEEEE",
   "size" : 2016,
   "source_file" : "/external/fmtlib/include/fmt/format.h"
  },
  {
   "alignment" : 4,
   "is_const" : true,
   "linker_set_key" : "_ZTIKN3fmt2v620basic_format_contextINSt3__120back_insert_iteratorINS0_8internal6bufferIcEEEEcEE",
   "name" : "const fmt::basic_format_context<std::back_insert_iterator<fmt::internal::buffer<char> >, char>",
   "referenced_type" : "_ZTIN3fmt2v620basic_format_contextINSt3__120back_insert_iteratorINS0_8internal6bufferIcEEEEcEE",
   "self_type" : "_ZTIKN3fmt2v620basic_format_contextINSt3__120back_insert_iteratorINS0_8internal6bufferIcEEEEcEE",
   "size" : 28,
   "source_file" : "/external/fmtlib/include/fmt/core.h"
  },
  {
   "alignment" : 4,
   "is_const" : true,
   "linker_set_key" : "_ZTIKN3fmt2v620basic_format_contextINSt3__120back_insert_iteratorINS0_8internal6bufferIwEEEEwEE",
   "name" : "const fmt::basic_format_context<std::back_insert_iterator<fmt::internal::buffer<wchar_t> >, wchar_t>",
   "referenced_type" : "_ZTIN3fmt2v620basic_format_contextINSt3__120back_insert_iteratorINS0_8internal6bufferIwEEEEwEE",
   "self_type" : "_ZTIKN3fmt2v620basic_format_contextINSt3__120back_insert_iteratorINS0_8internal6bufferIwEEEEwEE",
   "size" : 28,
   "source_file" : "/external/fmtlib/include/fmt/core.h"
  },
  {
   "alignment" : 4,
   "is_const" : true,
   "linker_set_key" : "_ZTIKN3fmt2v626basic_format_parse_contextIcNS0_8internal13error_handlerEEE",
   "name" : "const fmt::basic_format_parse_context<char, fmt::internal::error_handler>",
   "referenced_type" : "_ZTIN3fmt2v626basic_format_parse_contextIcNS0_8internal13error_handlerEEE",
   "self_type" : "_ZTIKN3fmt2v626basic_format_parse_contextIcNS0_8internal13error_handlerEEE",
   "size" : 12,
   "source_file" : "/external/fmtlib/include/fmt/core.h"
  },
  {
   "alignment" : 4,
   "is_const" : true,
   "linker_set_key" : "_ZTIKN3fmt2v626basic_format_parse_contextIwNS0_8internal13error_handlerEEE",
   "name" : "const fmt::basic_format_parse_context<wchar_t, fmt::internal::error_handler>",
   "referenced_type" : "_ZTIN3fmt2v626basic_format_parse_contextIwNS0_8internal13error_handlerEEE",
   "self_type" : "_ZTIKN3fmt2v626basic_format_parse_contextIwNS0_8internal13error_handlerEEE",
   "size" : 12,
   "source_file" : "/external/fmtlib/include/fmt/core.h"
  },
  {
   "alignment" : 1,
   "is_const" : true,
   "linker_set_key" : "_ZTIKN3fmt2v67char8_tE",
   "name" : "const fmt::char8_t",
   "referenced_type" : "_ZTIN3fmt2v67char8_tE",
   "self_type" : "_ZTIKN3fmt2v67char8_tE",
   "size" : 1,
   "source_file" : "/external/fmtlib/include/fmt/core.h"
  },
  {
   "alignment" : 4,
   "is_const" : true,
   "linker_set_key" : "_ZTIKN3fmt2v68internal10locale_refE",
   "name" : "const fmt::internal::locale_ref",
   "referenced_type" : "_ZTIN3fmt2v68internal10locale_refE",
   "self_type" : "_ZTIKN3fmt2v68internal10locale_refE",
   "size" : 4,
   "source_file" : "/external/fmtlib/include/fmt/core.h"
  },
  {
   "alignment" : 4,
   "is_const" : true,
   "linker_set_key" : "_ZTIKN3fmt2v68internal11accumulatorE",
   "name" : "const fmt::internal::accumulator",
   "referenced_type" : "_ZTIN3fmt2v68internal11accumulatorE",
   "self_type" : "_ZTIKN3fmt2v68internal11accumulatorE",
   "size" : 16,
   "source_file" : "/external/fmtlib/include/fmt/format-inl.h"
  },
  {
   "alignment" : 4,
   "is_const" : true,
   "linker_set_key" : "_ZTIKN3fmt2v68internal12basic_writerINS0_12buffer_rangeIcEEE10int_writerIcNS0_18basic_format_specsIcEEE10bin_writerILi1EEE",
   "name" : "const fmt::internal::basic_writer<buffer_range<char> >::int_writer<char, basic_format_specs<char> >::bin_writer<1>",
   "referenced_type" : "_ZTIN3fmt2v68internal12basic_writerINS0_12buffer_rangeIcEEE10int_writerIcNS0_18basic_format_specsIcEEE10bin_writerILi1EEE",
   "self_type" : "_ZTIKN3fmt2v68internal12basic_writerINS0_12buffer_rangeIcEEE10int_writerIcNS0_18basic_format_specsIcEEE10bin_writerILi1EEE",
   "size" : 8,
   "source_file" : "/external/fmtlib/include/fmt/format.h"
  },
  {
   "alignment" : 4,
   "is_const" : true,
   "linker_set_key" : "_ZTIKN3fmt2v68internal12basic_writerINS0_12buffer_rangeIcEEE10int_writerIcNS0_18basic_format_specsIcEEE10bin_writerILi3EEE",
   "name" : "const fmt::internal::basic_writer<buffer_range<char> >::int_writer<char, basic_format_specs<char> >::bin_writer<3>",
   "referenced_type" : "_ZTIN3fmt2v68internal12basic_writerINS0_12buffer_rangeIcEEE10int_writerIcNS0_18basic_format_specsIcEEE10bin_writerILi3EEE",
   "self_type" : "_ZTIKN3fmt2v68internal12basic_writerINS0_12buffer_rangeIcEEE10int_writerIcNS0_18basic_format_specsIcEEE10bin_writerILi3EEE",
   "size" : 8,
   "source_file" : "/external/fmtlib/include/fmt/format.h"
  },
  {
   "alignment" : 4,
   "is_const" : true,
   "linker_set_key" : "_ZTIKN3fmt2v68internal12basic_writerINS0_12buffer_rangeIcEEE10int_writerIcNS0_18basic_format_specsIcEEE10dec_writerE",
   "name" : "const fmt::internal::basic_writer<buffer_range<char> >::int_writer<char, basic_format_specs<char> >::dec_writer",
   "referenced_type" : "_ZTIN3fmt2v68internal12basic_writerINS0_12buffer_rangeIcEEE10int_writerIcNS0_18basic_format_specsIcEEE10dec_writerE",
   "self_type" : "_ZTIKN3fmt2v68internal12basic_writerINS0_12buffer_rangeIcEEE10int_writerIcNS0_18basic_format_specsIcEEE10dec_writerE",
   "size" : 8,
   "source_file" : "/external/fmtlib/include/fmt/format.h"
  },
  {
   "alignment" : 4,
   "is_const" : true,
   "linker_set_key" : "_ZTIKN3fmt2v68internal12basic_writerINS0_12buffer_rangeIcEEE10int_writerIcNS0_18basic_format_specsIcEEE10hex_writerE",
   "name" : "const fmt::internal::basic_writer<buffer_range<char> >::int_writer<char, basic_format_specs<char> >::hex_writer",
   "referenced_type" : "_ZTIN3fmt2v68internal12basic_writerINS0_12buffer_rangeIcEEE10int_writerIcNS0_18basic_format_specsIcEEE10hex_writerE",
   "self_type" : "_ZTIKN3fmt2v68internal12basic_writerINS0_12buffer_rangeIcEEE10int_writerIcNS0_18basic_format_specsIcEEE10hex_writerE",
   "size" : 8,
   "source_file" : "/external/fmtlib/include/fmt/format.h"
  },
  {
   "alignment" : 4,
   "is_const" : true,
   "linker_set_key" : "_ZTIKN3fmt2v68internal12basic_writerINS0_12buffer_rangeIcEEE10int_writerIcNS0_18basic_format_specsIcEEE10num_writerE",
   "name" : "const fmt::internal::basic_writer<buffer_range<char> >::int_writer<char, basic_format_specs<char> >::num_writer",
   "referenced_type" : "_ZTIN3fmt2v68internal12basic_writerINS0_12buffer_rangeIcEEE10int_writerIcNS0_18basic_format_specsIcEEE10num_writerE",
   "self_type" : "_ZTIKN3fmt2v68internal12basic_writerINS0_12buffer_rangeIcEEE10int_writerIcNS0_18basic_format_specsIcEEE10num_writerE",
   "size" : 16,
   "source_file" : "/external/fmtlib/include/fmt/format.h"
  },
  {
   "alignment" : 4,
   "is_const" : true,
   "linker_set_key" : "_ZTIKN3fmt2v68internal12basic_writerINS0_12buffer_rangeIcEEE10int_writerIcNS0_18basic_format_specsIcEEEE",
   "name" : "const fmt::internal::basic_writer<buffer_range<char> >::int_writer<char, fmt::basic_format_specs<char> >",
   "referenced_type" : "_ZTIN3fmt2v68internal12basic_writerINS0_12buffer_rangeIcEEE10int_writerIcNS0_18basic_format_specsIcEEEE",
   "self_type" : "_ZTIKN3fmt2v68internal12basic_writerINS0_12buffer_rangeIcEEE10int_writerIcNS0_18basic_format_specsIcEEEE",
   "size" : 20,
   "source_file" : "/external/fmtlib/include/fmt/format.h"
  },
  {
   "alignment" : 4,
   "is_const" : true,
   "linker_set_key" : "_ZTIKN3fmt2v68internal12basic_writerINS0_12buffer_rangeIcEEE10int_writerIiNS0_18basic_format_specsIcEEE10bin_writerILi1EEE",
   "name" : "const fmt::internal::basic_writer<buffer_range<char> >::int_writer<int, basic_format_specs<char> >::bin_writer<1>",
   "referenced_type" : "_ZTIN3fmt2v68internal12basic_writerINS0_12buffer_rangeIcEEE10int_writerIiNS0_18basic_format_specsIcEEE10bin_writerILi1EEE",
   "self_type" : "_ZTIKN3fmt2v68internal12basic_writerINS0_12buffer_rangeIcEEE10int_writerIiNS0_18basic_format_specsIcEEE10bin_writerILi1EEE",
   "size" : 8,
   "source_file" : "/external/fmtlib/include/fmt/format.h"
  },
  {
   "alignment" : 4,
   "is_const" : true,
   "linker_set_key" : "_ZTIKN3fmt2v68internal12basic_writerINS0_12buffer_rangeIcEEE10int_writerIiNS0_18basic_format_specsIcEEE10bin_writerILi3EEE",
   "name" : "const fmt::internal::basic_writer<buffer_range<char> >::int_writer<int, basic_format_specs<char> >::bin_writer<3>",
   "referenced_type" : "_ZTIN3fmt2v68internal12basic_writerINS0_12buffer_rangeIcEEE10int_writerIiNS0_18basic_format_specsIcEEE10bin_writerILi3EEE",
   "self_type" : "_ZTIKN3fmt2v68internal12basic_writerINS0_12buffer_rangeIcEEE10int_writerIiNS0_18basic_format_specsIcEEE10bin_writerILi3EEE",
   "size" : 8,
   "source_file" : "/external/fmtlib/include/fmt/format.h"
  },
  {
   "alignment" : 4,
   "is_const" : true,
   "linker_set_key" : "_ZTIKN3fmt2v68internal12basic_writerINS0_12buffer_rangeIcEEE10int_writerIiNS0_18basic_format_specsIcEEE10dec_writerE",
   "name" : "const fmt::internal::basic_writer<buffer_range<char> >::int_writer<int, basic_format_specs<char> >::dec_writer",
   "referenced_type" : "_ZTIN3fmt2v68internal12basic_writerINS0_12buffer_rangeIcEEE10int_writerIiNS0_18basic_format_specsIcEEE10dec_writerE",
   "self_type" : "_ZTIKN3fmt2v68internal12basic_writerINS0_12buffer_rangeIcEEE10int_writerIiNS0_18basic_format_specsIcEEE10dec_writerE",
   "size" : 8,
   "source_file" : "/external/fmtlib/include/fmt/format.h"
  },
  {
   "alignment" : 4,
   "is_const" : true,
   "linker_set_key" : "_ZTIKN3fmt2v68internal12basic_writerINS0_12buffer_rangeIcEEE10int_writerIiNS0_18basic_format_specsIcEEE10hex_writerE",
   "name" : "const fmt::internal::basic_writer<buffer_range<char> >::int_writer<int, basic_format_specs<char> >::hex_writer",
   "referenced_type" : "_ZTIN3fmt2v68internal12basic_writerINS0_12buffer_rangeIcEEE10int_writerIiNS0_18basic_format_specsIcEEE10hex_writerE",
   "self_type" : "_ZTIKN3fmt2v68internal12basic_writerINS0_12buffer_rangeIcEEE10int_writerIiNS0_18basic_format_specsIcEEE10hex_writerE",
   "size" : 8,
   "source_file" : "/external/fmtlib/include/fmt/format.h"
  },
  {
   "alignment" : 4,
   "is_const" : true,
   "linker_set_key" : "_ZTIKN3fmt2v68internal12basic_writerINS0_12buffer_rangeIcEEE10int_writerIiNS0_18basic_format_specsIcEEE10num_writerE",
   "name" : "const fmt::internal::basic_writer<buffer_range<char> >::int_writer<int, basic_format_specs<char> >::num_writer",
   "referenced_type" : "_ZTIN3fmt2v68internal12basic_writerINS0_12buffer_rangeIcEEE10int_writerIiNS0_18basic_format_specsIcEEE10num_writerE",
   "self_type" : "_ZTIKN3fmt2v68internal12basic_writerINS0_12buffer_rangeIcEEE10int_writerIiNS0_18basic_format_specsIcEEE10num_writerE",
   "size" : 16,
   "source_file" : "/external/fmtlib/include/fmt/format.h"
  },
  {
   "alignment" : 4,
   "is_const" : true,
   "linker_set_key" : "_ZTIKN3fmt2v68internal12basic_writerINS0_12buffer_rangeIcEEE10int_writerIiNS0_18basic_format_specsIcEEEE",
   "name" : "const fmt::internal::basic_writer<buffer_range<char> >::int_writer<int, fmt::basic_format_specs<char> >",
   "referenced_type" : "_ZTIN3fmt2v68internal12basic_writerINS0_12buffer_rangeIcEEE10int_writerIiNS0_18basic_format_specsIcEEEE",
   "self_type" : "_ZTIKN3fmt2v68internal12basic_writerINS0_12buffer_rangeIcEEE10int_writerIiNS0_18basic_format_specsIcEEEE",
   "size" : 20,
   "source_file" : "/external/fmtlib/include/fmt/format.h"
  },
  {
   "alignment" : 4,
   "is_const" : true,
   "linker_set_key" : "_ZTIKN3fmt2v68internal12basic_writerINS0_12buffer_rangeIcEEE10int_writerIjNS0_18basic_format_specsIcEEE10bin_writerILi1EEE",
   "name" : "const fmt::internal::basic_writer<buffer_range<char> >::int_writer<unsigned int, basic_format_specs<char> >::bin_writer<1>",
   "referenced_type" : "_ZTIN3fmt2v68internal12basic_writerINS0_12buffer_rangeIcEEE10int_writerIjNS0_18basic_format_specsIcEEE10bin_writerILi1EEE",
   "self_type" : "_ZTIKN3fmt2v68internal12basic_writerINS0_12buffer_rangeIcEEE10int_writerIjNS0_18basic_format_specsIcEEE10bin_writerILi1EEE",
   "size" : 8,
   "source_file" : "/external/fmtlib/include/fmt/format.h"
  },
  {
   "alignment" : 4,
   "is_const" : true,
   "linker_set_key" : "_ZTIKN3fmt2v68internal12basic_writerINS0_12buffer_rangeIcEEE10int_writerIjNS0_18basic_format_specsIcEEE10bin_writerILi3EEE",
   "name" : "const fmt::internal::basic_writer<buffer_range<char> >::int_writer<unsigned int, basic_format_specs<char> >::bin_writer<3>",
   "referenced_type" : "_ZTIN3fmt2v68internal12basic_writerINS0_12buffer_rangeIcEEE10int_writerIjNS0_18basic_format_specsIcEEE10bin_writerILi3EEE",
   "self_type" : "_ZTIKN3fmt2v68internal12basic_writerINS0_12buffer_rangeIcEEE10int_writerIjNS0_18basic_format_specsIcEEE10bin_writerILi3EEE",
   "size" : 8,
   "source_file" : "/external/fmtlib/include/fmt/format.h"
  },
  {
   "alignment" : 4,
   "is_const" : true,
   "linker_set_key" : "_ZTIKN3fmt2v68internal12basic_writerINS0_12buffer_rangeIcEEE10int_writerIjNS0_18basic_format_specsIcEEE10dec_writerE",
   "name" : "const fmt::internal::basic_writer<buffer_range<char> >::int_writer<unsigned int, basic_format_specs<char> >::dec_writer",
   "referenced_type" : "_ZTIN3fmt2v68internal12basic_writerINS0_12buffer_rangeIcEEE10int_writerIjNS0_18basic_format_specsIcEEE10dec_writerE",
   "self_type" : "_ZTIKN3fmt2v68internal12basic_writerINS0_12buffer_rangeIcEEE10int_writerIjNS0_18basic_format_specsIcEEE10dec_writerE",
   "size" : 8,
   "source_file" : "/external/fmtlib/include/fmt/format.h"
  },
  {
   "alignment" : 4,
   "is_const" : true,
   "linker_set_key" : "_ZTIKN3fmt2v68internal12basic_writerINS0_12buffer_rangeIcEEE10int_writerIjNS0_18basic_format_specsIcEEE10hex_writerE",
   "name" : "const fmt::internal::basic_writer<buffer_range<char> >::int_writer<unsigned int, basic_format_specs<char> >::hex_writer",
   "referenced_type" : "_ZTIN3fmt2v68internal12basic_writerINS0_12buffer_rangeIcEEE10int_writerIjNS0_18basic_format_specsIcEEE10hex_writerE",
   "self_type" : "_ZTIKN3fmt2v68internal12basic_writerINS0_12buffer_rangeIcEEE10int_writerIjNS0_18basic_format_specsIcEEE10hex_writerE",
   "size" : 8,
   "source_file" : "/external/fmtlib/include/fmt/format.h"
  },
  {
   "alignment" : 4,
   "is_const" : true,
   "linker_set_key" : "_ZTIKN3fmt2v68internal12basic_writerINS0_12buffer_rangeIcEEE10int_writerIjNS0_18basic_format_specsIcEEE10num_writerE",
   "name" : "const fmt::internal::basic_writer<buffer_range<char> >::int_writer<unsigned int, basic_format_specs<char> >::num_writer",
   "referenced_type" : "_ZTIN3fmt2v68internal12basic_writerINS0_12buffer_rangeIcEEE10int_writerIjNS0_18basic_format_specsIcEEE10num_writerE",
   "self_type" : "_ZTIKN3fmt2v68internal12basic_writerINS0_12buffer_rangeIcEEE10int_writerIjNS0_18basic_format_specsIcEEE10num_writerE",
   "size" : 16,
   "source_file" : "/external/fmtlib/include/fmt/format.h"
  },
  {
   "alignment" : 4,
   "is_const" : true,
   "linker_set_key" : "_ZTIKN3fmt2v68internal12basic_writerINS0_12buffer_rangeIcEEE10int_writerIjNS0_18basic_format_specsIcEEEE",
   "name" : "const fmt::internal::basic_writer<buffer_range<char> >::int_writer<unsigned int, fmt::basic_format_specs<char> >",
   "referenced_type" : "_ZTIN3fmt2v68internal12basic_writerINS0_12buffer_rangeIcEEE10int_writerIjNS0_18basic_format_specsIcEEEE",
   "self_type" : "_ZTIKN3fmt2v68internal12basic_writerINS0_12buffer_rangeIcEEE10int_writerIjNS0_18basic_format_specsIcEEEE",
   "size" : 20,
   "source_file" : "/external/fmtlib/include/fmt/format.h"
  },
  {
   "alignment" : 4,
   "is_const" : true,
   "linker_set_key" : "_ZTIKN3fmt2v68internal12basic_writerINS0_12buffer_rangeIcEEE10int_writerIxNS0_18basic_format_specsIcEEE10bin_writerILi1EEE",
   "name" : "const fmt::internal::basic_writer<buffer_range<char> >::int_writer<long long, basic_format_specs<char> >::bin_writer<1>",
   "referenced_type" : "_ZTIN3fmt2v68internal12basic_writerINS0_12buffer_rangeIcEEE10int_writerIxNS0_18basic_format_specsIcEEE10bin_writerILi1EEE",
   "self_type" : "_ZTIKN3fmt2v68internal12basic_writerINS0_12buffer_rangeIcEEE10int_writerIxNS0_18basic_format_specsIcEEE10bin_writerILi1EEE",
   "size" : 12,
   "source_file" : "/external/fmtlib/include/fmt/format.h"
  },
  {
   "alignment" : 4,
   "is_const" : true,
   "linker_set_key" : "_ZTIKN3fmt2v68internal12basic_writerINS0_12buffer_rangeIcEEE10int_writerIxNS0_18basic_format_specsIcEEE10bin_writerILi3EEE",
   "name" : "const fmt::internal::basic_writer<buffer_range<char> >::int_writer<long long, basic_format_specs<char> >::bin_writer<3>",
   "referenced_type" : "_ZTIN3fmt2v68internal12basic_writerINS0_12buffer_rangeIcEEE10int_writerIxNS0_18basic_format_specsIcEEE10bin_writerILi3EEE",
   "self_type" : "_ZTIKN3fmt2v68internal12basic_writerINS0_12buffer_rangeIcEEE10int_writerIxNS0_18basic_format_specsIcEEE10bin_writerILi3EEE",
   "size" : 12,
   "source_file" : "/external/fmtlib/include/fmt/format.h"
  },
  {
   "alignment" : 4,
   "is_const" : true,
   "linker_set_key" : "_ZTIKN3fmt2v68internal12basic_writerINS0_12buffer_rangeIcEEE10int_writerIxNS0_18basic_format_specsIcEEE10dec_writerE",
   "name" : "const fmt::internal::basic_writer<buffer_range<char> >::int_writer<long long, basic_format_specs<char> >::dec_writer",
   "referenced_type" : "_ZTIN3fmt2v68internal12basic_writerINS0_12buffer_rangeIcEEE10int_writerIxNS0_18basic_format_specsIcEEE10dec_writerE",
   "self_type" : "_ZTIKN3fmt2v68internal12basic_writerINS0_12buffer_rangeIcEEE10int_writerIxNS0_18basic_format_specsIcEEE10dec_writerE",
   "size" : 12,
   "source_file" : "/external/fmtlib/include/fmt/format.h"
  },
  {
   "alignment" : 4,
   "is_const" : true,
   "linker_set_key" : "_ZTIKN3fmt2v68internal12basic_writerINS0_12buffer_rangeIcEEE10int_writerIxNS0_18basic_format_specsIcEEE10hex_writerE",
   "name" : "const fmt::internal::basic_writer<buffer_range<char> >::int_writer<long long, basic_format_specs<char> >::hex_writer",
   "referenced_type" : "_ZTIN3fmt2v68internal12basic_writerINS0_12buffer_rangeIcEEE10int_writerIxNS0_18basic_format_specsIcEEE10hex_writerE",
   "self_type" : "_ZTIKN3fmt2v68internal12basic_writerINS0_12buffer_rangeIcEEE10int_writerIxNS0_18basic_format_specsIcEEE10hex_writerE",
   "size" : 8,
   "source_file" : "/external/fmtlib/include/fmt/format.h"
  },
  {
   "alignment" : 4,
   "is_const" : true,
   "linker_set_key" : "_ZTIKN3fmt2v68internal12basic_writerINS0_12buffer_rangeIcEEE10int_writerIxNS0_18basic_format_specsIcEEE10num_writerE",
   "name" : "const fmt::internal::basic_writer<buffer_range<char> >::int_writer<long long, basic_format_specs<char> >::num_writer",
   "referenced_type" : "_ZTIN3fmt2v68internal12basic_writerINS0_12buffer_rangeIcEEE10int_writerIxNS0_18basic_format_specsIcEEE10num_writerE",
   "self_type" : "_ZTIKN3fmt2v68internal12basic_writerINS0_12buffer_rangeIcEEE10int_writerIxNS0_18basic_format_specsIcEEE10num_writerE",
   "size" : 20,
   "source_file" : "/external/fmtlib/include/fmt/format.h"
  },
  {
   "alignment" : 4,
   "is_const" : true,
   "linker_set_key" : "_ZTIKN3fmt2v68internal12basic_writerINS0_12buffer_rangeIcEEE10int_writerIxNS0_18basic_format_specsIcEEEE",
   "name" : "const fmt::internal::basic_writer<buffer_range<char> >::int_writer<long long, fmt::basic_format_specs<char> >",
   "referenced_type" : "_ZTIN3fmt2v68internal12basic_writerINS0_12buffer_rangeIcEEE10int_writerIxNS0_18basic_format_specsIcEEEE",
   "self_type" : "_ZTIKN3fmt2v68internal12basic_writerINS0_12buffer_rangeIcEEE10int_writerIxNS0_18basic_format_specsIcEEEE",
   "size" : 24,
   "source_file" : "/external/fmtlib/include/fmt/format.h"
  },
  {
   "alignment" : 4,
   "is_const" : true,
   "linker_set_key" : "_ZTIKN3fmt2v68internal12basic_writerINS0_12buffer_rangeIcEEE10int_writerIyNS0_18basic_format_specsIcEEE10bin_writerILi1EEE",
   "name" : "const fmt::internal::basic_writer<buffer_range<char> >::int_writer<unsigned long long, basic_format_specs<char> >::bin_writer<1>",
   "referenced_type" : "_ZTIN3fmt2v68internal12basic_writerINS0_12buffer_rangeIcEEE10int_writerIyNS0_18basic_format_specsIcEEE10bin_writerILi1EEE",
   "self_type" : "_ZTIKN3fmt2v68internal12basic_writerINS0_12buffer_rangeIcEEE10int_writerIyNS0_18basic_format_specsIcEEE10bin_writerILi1EEE",
   "size" : 12,
   "source_file" : "/external/fmtlib/include/fmt/format.h"
  },
  {
   "alignment" : 4,
   "is_const" : true,
   "linker_set_key" : "_ZTIKN3fmt2v68internal12basic_writerINS0_12buffer_rangeIcEEE10int_writerIyNS0_18basic_format_specsIcEEE10bin_writerILi3EEE",
   "name" : "const fmt::internal::basic_writer<buffer_range<char> >::int_writer<unsigned long long, basic_format_specs<char> >::bin_writer<3>",
   "referenced_type" : "_ZTIN3fmt2v68internal12basic_writerINS0_12buffer_rangeIcEEE10int_writerIyNS0_18basic_format_specsIcEEE10bin_writerILi3EEE",
   "self_type" : "_ZTIKN3fmt2v68internal12basic_writerINS0_12buffer_rangeIcEEE10int_writerIyNS0_18basic_format_specsIcEEE10bin_writerILi3EEE",
   "size" : 12,
   "source_file" : "/external/fmtlib/include/fmt/format.h"
  },
  {
   "alignment" : 4,
   "is_const" : true,
   "linker_set_key" : "_ZTIKN3fmt2v68internal12basic_writerINS0_12buffer_rangeIcEEE10int_writerIyNS0_18basic_format_specsIcEEE10dec_writerE",
   "name" : "const fmt::internal::basic_writer<buffer_range<char> >::int_writer<unsigned long long, basic_format_specs<char> >::dec_writer",
   "referenced_type" : "_ZTIN3fmt2v68internal12basic_writerINS0_12buffer_rangeIcEEE10int_writerIyNS0_18basic_format_specsIcEEE10dec_writerE",
   "self_type" : "_ZTIKN3fmt2v68internal12basic_writerINS0_12buffer_rangeIcEEE10int_writerIyNS0_18basic_format_specsIcEEE10dec_writerE",
   "size" : 12,
   "source_file" : "/external/fmtlib/include/fmt/format.h"
  },
  {
   "alignment" : 4,
   "is_const" : true,
   "linker_set_key" : "_ZTIKN3fmt2v68internal12basic_writerINS0_12buffer_rangeIcEEE10int_writerIyNS0_18basic_format_specsIcEEE10hex_writerE",
   "name" : "const fmt::internal::basic_writer<buffer_range<char> >::int_writer<unsigned long long, basic_format_specs<char> >::hex_writer",
   "referenced_type" : "_ZTIN3fmt2v68internal12basic_writerINS0_12buffer_rangeIcEEE10int_writerIyNS0_18basic_format_specsIcEEE10hex_writerE",
   "self_type" : "_ZTIKN3fmt2v68internal12basic_writerINS0_12buffer_rangeIcEEE10int_writerIyNS0_18basic_format_specsIcEEE10hex_writerE",
   "size" : 8,
   "source_file" : "/external/fmtlib/include/fmt/format.h"
  },
  {
   "alignment" : 4,
   "is_const" : true,
   "linker_set_key" : "_ZTIKN3fmt2v68internal12basic_writerINS0_12buffer_rangeIcEEE10int_writerIyNS0_18basic_format_specsIcEEE10num_writerE",
   "name" : "const fmt::internal::basic_writer<buffer_range<char> >::int_writer<unsigned long long, basic_format_specs<char> >::num_writer",
   "referenced_type" : "_ZTIN3fmt2v68internal12basic_writerINS0_12buffer_rangeIcEEE10int_writerIyNS0_18basic_format_specsIcEEE10num_writerE",
   "self_type" : "_ZTIKN3fmt2v68internal12basic_writerINS0_12buffer_rangeIcEEE10int_writerIyNS0_18basic_format_specsIcEEE10num_writerE",
   "size" : 20,
   "source_file" : "/external/fmtlib/include/fmt/format.h"
  },
  {
   "alignment" : 4,
   "is_const" : true,
   "linker_set_key" : "_ZTIKN3fmt2v68internal12basic_writerINS0_12buffer_rangeIcEEE10int_writerIyNS0_18basic_format_specsIcEEEE",
   "name" : "const fmt::internal::basic_writer<buffer_range<char> >::int_writer<unsigned long long, fmt::basic_format_specs<char> >",
   "referenced_type" : "_ZTIN3fmt2v68internal12basic_writerINS0_12buffer_rangeIcEEE10int_writerIyNS0_18basic_format_specsIcEEEE",
   "self_type" : "_ZTIKN3fmt2v68internal12basic_writerINS0_12buffer_rangeIcEEE10int_writerIyNS0_18basic_format_specsIcEEEE",
   "size" : 24,
   "source_file" : "/external/fmtlib/include/fmt/format.h"
  },
  {
   "alignment" : 4,
   "is_const" : true,
   "linker_set_key" : "_ZTIKN3fmt2v68internal12basic_writerINS0_12buffer_rangeIcEEE10str_writerIcEE",
   "name" : "const fmt::internal::basic_writer<buffer_range<char> >::str_writer<char>",
   "referenced_type" : "_ZTIN3fmt2v68internal12basic_writerINS0_12buffer_rangeIcEEE10str_writerIcEE",
   "self_type" : "_ZTIKN3fmt2v68internal12basic_writerINS0_12buffer_rangeIcEEE10str_writerIcEE",
   "size" : 8,
   "source_file" : "/external/fmtlib/include/fmt/format.h"
  },
  {
   "alignment" : 4,
   "is_const" : true,
   "linker_set_key" : "_ZTIKN3fmt2v68internal12basic_writerINS0_12buffer_rangeIcEEE14pointer_writerIjEE",
   "name" : "const fmt::internal::basic_writer<buffer_range<char> >::pointer_writer<unsigned int>",
   "referenced_type" : "_ZTIN3fmt2v68internal12basic_writerINS0_12buffer_rangeIcEEE14pointer_writerIjEE",
   "self_type" : "_ZTIKN3fmt2v68internal12basic_writerINS0_12buffer_rangeIcEEE14pointer_writerIjEE",
   "size" : 8,
   "source_file" : "/external/fmtlib/include/fmt/format.h"
  },
  {
   "alignment" : 4,
   "is_const" : true,
   "linker_set_key" : "_ZTIKN3fmt2v68internal12basic_writerINS0_12buffer_rangeIcEEE17padded_int_writerINS5_10int_writerIcNS0_18basic_format_specsIcEEE10bin_writerILi1EEEEE",
   "name" : "const fmt::internal::basic_writer<buffer_range<char> >::padded_int_writer<fmt::internal::basic_writer<buffer_range<char> >::int_writer<char, basic_format_specs<char> >::bin_writer<1> >",
   "referenced_type" : "_ZTIN3fmt2v68internal12basic_writerINS0_12buffer_rangeIcEEE17padded_int_writerINS5_10int_writerIcNS0_18basic_format_specsIcEEE10bin_writerILi1EEEEE",
   "self_type" : "_ZTIKN3fmt2v68internal12basic_writerINS0_12buffer_rangeIcEEE17padded_int_writerINS5_10int_writerIcNS0_18basic_format_specsIcEEE10bin_writerILi1EEEEE",
   "size" : 28,
   "source_file" : "/external/fmtlib/include/fmt/format.h"
  },
  {
   "alignment" : 4,
   "is_const" : true,
   "linker_set_key" : "_ZTIKN3fmt2v68internal12basic_writerINS0_12buffer_rangeIcEEE17padded_int_writerINS5_10int_writerIcNS0_18basic_format_specsIcEEE10bin_writerILi3EEEEE",
   "name" : "const fmt::internal::basic_writer<buffer_range<char> >::padded_int_writer<fmt::internal::basic_writer<buffer_range<char> >::int_writer<char, basic_format_specs<char> >::bin_writer<3> >",
   "referenced_type" : "_ZTIN3fmt2v68internal12basic_writerINS0_12buffer_rangeIcEEE17padded_int_writerINS5_10int_writerIcNS0_18basic_format_specsIcEEE10bin_writerILi3EEEEE",
   "self_type" : "_ZTIKN3fmt2v68internal12basic_writerINS0_12buffer_rangeIcEEE17padded_int_writerINS5_10int_writerIcNS0_18basic_format_specsIcEEE10bin_writerILi3EEEEE",
   "size" : 28,
   "source_file" : "/external/fmtlib/include/fmt/format.h"
  },
  {
   "alignment" : 4,
   "is_const" : true,
   "linker_set_key" : "_ZTIKN3fmt2v68internal12basic_writerINS0_12buffer_rangeIcEEE17padded_int_writerINS5_10int_writerIcNS0_18basic_format_specsIcEEE10dec_writerEEE",
   "name" : "const fmt::internal::basic_writer<buffer_range<char> >::padded_int_writer<fmt::internal::basic_writer<buffer_range<char> >::int_writer<char, basic_format_specs<char> >::dec_writer>",
   "referenced_type" : "_ZTIN3fmt2v68internal12basic_writerINS0_12buffer_rangeIcEEE17padded_int_writerINS5_10int_writerIcNS0_18basic_format_specsIcEEE10dec_writerEEE",
   "self_type" : "_ZTIKN3fmt2v68internal12basic_writerINS0_12buffer_rangeIcEEE17padded_int_writerINS5_10int_writerIcNS0_18basic_format_specsIcEEE10dec_writerEEE",
   "size" : 28,
   "source_file" : "/external/fmtlib/include/fmt/format.h"
  },
  {
   "alignment" : 4,
   "is_const" : true,
   "linker_set_key" : "_ZTIKN3fmt2v68internal12basic_writerINS0_12buffer_rangeIcEEE17padded_int_writerINS5_10int_writerIcNS0_18basic_format_specsIcEEE10hex_writerEEE",
   "name" : "const fmt::internal::basic_writer<buffer_range<char> >::padded_int_writer<fmt::internal::basic_writer<buffer_range<char> >::int_writer<char, basic_format_specs<char> >::hex_writer>",
   "referenced_type" : "_ZTIN3fmt2v68internal12basic_writerINS0_12buffer_rangeIcEEE17padded_int_writerINS5_10int_writerIcNS0_18basic_format_specsIcEEE10hex_writerEEE",
   "self_type" : "_ZTIKN3fmt2v68internal12basic_writerINS0_12buffer_rangeIcEEE17padded_int_writerINS5_10int_writerIcNS0_18basic_format_specsIcEEE10hex_writerEEE",
   "size" : 28,
   "source_file" : "/external/fmtlib/include/fmt/format.h"
  },
  {
   "alignment" : 4,
   "is_const" : true,
   "linker_set_key" : "_ZTIKN3fmt2v68internal12basic_writerINS0_12buffer_rangeIcEEE17padded_int_writerINS5_10int_writerIcNS0_18basic_format_specsIcEEE10num_writerEEE",
   "name" : "const fmt::internal::basic_writer<buffer_range<char> >::padded_int_writer<fmt::internal::basic_writer<buffer_range<char> >::int_writer<char, basic_format_specs<char> >::num_writer>",
   "referenced_type" : "_ZTIN3fmt2v68internal12basic_writerINS0_12buffer_rangeIcEEE17padded_int_writerINS5_10int_writerIcNS0_18basic_format_specsIcEEE10num_writerEEE",
   "self_type" : "_ZTIKN3fmt2v68internal12basic_writerINS0_12buffer_rangeIcEEE17padded_int_writerINS5_10int_writerIcNS0_18basic_format_specsIcEEE10num_writerEEE",
   "size" : 36,
   "source_file" : "/external/fmtlib/include/fmt/format.h"
  },
  {
   "alignment" : 4,
   "is_const" : true,
   "linker_set_key" : "_ZTIKN3fmt2v68internal12basic_writerINS0_12buffer_rangeIcEEE17padded_int_writerINS5_10int_writerIiNS0_18basic_format_specsIcEEE10bin_writerILi1EEEEE",
   "name" : "const fmt::internal::basic_writer<buffer_range<char> >::padded_int_writer<fmt::internal::basic_writer<buffer_range<char> >::int_writer<int, basic_format_specs<char> >::bin_writer<1> >",
   "referenced_type" : "_ZTIN3fmt2v68internal12basic_writerINS0_12buffer_rangeIcEEE17padded_int_writerINS5_10int_writerIiNS0_18basic_format_specsIcEEE10bin_writerILi1EEEEE",
   "self_type" : "_ZTIKN3fmt2v68internal12basic_writerINS0_12buffer_rangeIcEEE17padded_int_writerINS5_10int_writerIiNS0_18basic_format_specsIcEEE10bin_writerILi1EEEEE",
   "size" : 28,
   "source_file" : "/external/fmtlib/include/fmt/format.h"
  },
  {
   "alignment" : 4,
   "is_const" : true,
   "linker_set_key" : "_ZTIKN3fmt2v68internal12basic_writerINS0_12buffer_rangeIcEEE17padded_int_writerINS5_10int_writerIiNS0_18basic_format_specsIcEEE10bin_writerILi3EEEEE",
   "name" : "const fmt::internal::basic_writer<buffer_range<char> >::padded_int_writer<fmt::internal::basic_writer<buffer_range<char> >::int_writer<int, basic_format_specs<char> >::bin_writer<3> >",
   "referenced_type" : "_ZTIN3fmt2v68internal12basic_writerINS0_12buffer_rangeIcEEE17padded_int_writerINS5_10int_writerIiNS0_18basic_format_specsIcEEE10bin_writerILi3EEEEE",
   "self_type" : "_ZTIKN3fmt2v68internal12basic_writerINS0_12buffer_rangeIcEEE17padded_int_writerINS5_10int_writerIiNS0_18basic_format_specsIcEEE10bin_writerILi3EEEEE",
   "size" : 28,
   "source_file" : "/external/fmtlib/include/fmt/format.h"
  },
  {
   "alignment" : 4,
   "is_const" : true,
   "linker_set_key" : "_ZTIKN3fmt2v68internal12basic_writerINS0_12buffer_rangeIcEEE17padded_int_writerINS5_10int_writerIiNS0_18basic_format_specsIcEEE10dec_writerEEE",
   "name" : "const fmt::internal::basic_writer<buffer_range<char> >::padded_int_writer<fmt::internal::basic_writer<buffer_range<char> >::int_writer<int, basic_format_specs<char> >::dec_writer>",
   "referenced_type" : "_ZTIN3fmt2v68internal12basic_writerINS0_12buffer_rangeIcEEE17padded_int_writerINS5_10int_writerIiNS0_18basic_format_specsIcEEE10dec_writerEEE",
   "self_type" : "_ZTIKN3fmt2v68internal12basic_writerINS0_12buffer_rangeIcEEE17padded_int_writerINS5_10int_writerIiNS0_18basic_format_specsIcEEE10dec_writerEEE",
   "size" : 28,
   "source_file" : "/external/fmtlib/include/fmt/format.h"
  },
  {
   "alignment" : 4,
   "is_const" : true,
   "linker_set_key" : "_ZTIKN3fmt2v68internal12basic_writerINS0_12buffer_rangeIcEEE17padded_int_writerINS5_10int_writerIiNS0_18basic_format_specsIcEEE10hex_writerEEE",
   "name" : "const fmt::internal::basic_writer<buffer_range<char> >::padded_int_writer<fmt::internal::basic_writer<buffer_range<char> >::int_writer<int, basic_format_specs<char> >::hex_writer>",
   "referenced_type" : "_ZTIN3fmt2v68internal12basic_writerINS0_12buffer_rangeIcEEE17padded_int_writerINS5_10int_writerIiNS0_18basic_format_specsIcEEE10hex_writerEEE",
   "self_type" : "_ZTIKN3fmt2v68internal12basic_writerINS0_12buffer_rangeIcEEE17padded_int_writerINS5_10int_writerIiNS0_18basic_format_specsIcEEE10hex_writerEEE",
   "size" : 28,
   "source_file" : "/external/fmtlib/include/fmt/format.h"
  },
  {
   "alignment" : 4,
   "is_const" : true,
   "linker_set_key" : "_ZTIKN3fmt2v68internal12basic_writerINS0_12buffer_rangeIcEEE17padded_int_writerINS5_10int_writerIiNS0_18basic_format_specsIcEEE10num_writerEEE",
   "name" : "const fmt::internal::basic_writer<buffer_range<char> >::padded_int_writer<fmt::internal::basic_writer<buffer_range<char> >::int_writer<int, basic_format_specs<char> >::num_writer>",
   "referenced_type" : "_ZTIN3fmt2v68internal12basic_writerINS0_12buffer_rangeIcEEE17padded_int_writerINS5_10int_writerIiNS0_18basic_format_specsIcEEE10num_writerEEE",
   "self_type" : "_ZTIKN3fmt2v68internal12basic_writerINS0_12buffer_rangeIcEEE17padded_int_writerINS5_10int_writerIiNS0_18basic_format_specsIcEEE10num_writerEEE",
   "size" : 36,
   "source_file" : "/external/fmtlib/include/fmt/format.h"
  },
  {
   "alignment" : 4,
   "is_const" : true,
   "linker_set_key" : "_ZTIKN3fmt2v68internal12basic_writerINS0_12buffer_rangeIcEEE17padded_int_writerINS5_10int_writerIjNS0_18basic_format_specsIcEEE10bin_writerILi1EEEEE",
   "name" : "const fmt::internal::basic_writer<buffer_range<char> >::padded_int_writer<fmt::internal::basic_writer<buffer_range<char> >::int_writer<unsigned int, basic_format_specs<char> >::bin_writer<1> >",
   "referenced_type" : "_ZTIN3fmt2v68internal12basic_writerINS0_12buffer_rangeIcEEE17padded_int_writerINS5_10int_writerIjNS0_18basic_format_specsIcEEE10bin_writerILi1EEEEE",
   "self_type" : "_ZTIKN3fmt2v68internal12basic_writerINS0_12buffer_rangeIcEEE17padded_int_writerINS5_10int_writerIjNS0_18basic_format_specsIcEEE10bin_writerILi1EEEEE",
   "size" : 28,
   "source_file" : "/external/fmtlib/include/fmt/format.h"
  },
  {
   "alignment" : 4,
   "is_const" : true,
   "linker_set_key" : "_ZTIKN3fmt2v68internal12basic_writerINS0_12buffer_rangeIcEEE17padded_int_writerINS5_10int_writerIjNS0_18basic_format_specsIcEEE10bin_writerILi3EEEEE",
   "name" : "const fmt::internal::basic_writer<buffer_range<char> >::padded_int_writer<fmt::internal::basic_writer<buffer_range<char> >::int_writer<unsigned int, basic_format_specs<char> >::bin_writer<3> >",
   "referenced_type" : "_ZTIN3fmt2v68internal12basic_writerINS0_12buffer_rangeIcEEE17padded_int_writerINS5_10int_writerIjNS0_18basic_format_specsIcEEE10bin_writerILi3EEEEE",
   "self_type" : "_ZTIKN3fmt2v68internal12basic_writerINS0_12buffer_rangeIcEEE17padded_int_writerINS5_10int_writerIjNS0_18basic_format_specsIcEEE10bin_writerILi3EEEEE",
   "size" : 28,
   "source_file" : "/external/fmtlib/include/fmt/format.h"
  },
  {
   "alignment" : 4,
   "is_const" : true,
   "linker_set_key" : "_ZTIKN3fmt2v68internal12basic_writerINS0_12buffer_rangeIcEEE17padded_int_writerINS5_10int_writerIjNS0_18basic_format_specsIcEEE10dec_writerEEE",
   "name" : "const fmt::internal::basic_writer<buffer_range<char> >::padded_int_writer<fmt::internal::basic_writer<buffer_range<char> >::int_writer<unsigned int, basic_format_specs<char> >::dec_writer>",
   "referenced_type" : "_ZTIN3fmt2v68internal12basic_writerINS0_12buffer_rangeIcEEE17padded_int_writerINS5_10int_writerIjNS0_18basic_format_specsIcEEE10dec_writerEEE",
   "self_type" : "_ZTIKN3fmt2v68internal12basic_writerINS0_12buffer_rangeIcEEE17padded_int_writerINS5_10int_writerIjNS0_18basic_format_specsIcEEE10dec_writerEEE",
   "size" : 28,
   "source_file" : "/external/fmtlib/include/fmt/format.h"
  },
  {
   "alignment" : 4,
   "is_const" : true,
   "linker_set_key" : "_ZTIKN3fmt2v68internal12basic_writerINS0_12buffer_rangeIcEEE17padded_int_writerINS5_10int_writerIjNS0_18basic_format_specsIcEEE10hex_writerEEE",
   "name" : "const fmt::internal::basic_writer<buffer_range<char> >::padded_int_writer<fmt::internal::basic_writer<buffer_range<char> >::int_writer<unsigned int, basic_format_specs<char> >::hex_writer>",
   "referenced_type" : "_ZTIN3fmt2v68internal12basic_writerINS0_12buffer_rangeIcEEE17padded_int_writerINS5_10int_writerIjNS0_18basic_format_specsIcEEE10hex_writerEEE",
   "self_type" : "_ZTIKN3fmt2v68internal12basic_writerINS0_12buffer_rangeIcEEE17padded_int_writerINS5_10int_writerIjNS0_18basic_format_specsIcEEE10hex_writerEEE",
   "size" : 28,
   "source_file" : "/external/fmtlib/include/fmt/format.h"
  },
  {
   "alignment" : 4,
   "is_const" : true,
   "linker_set_key" : "_ZTIKN3fmt2v68internal12basic_writerINS0_12buffer_rangeIcEEE17padded_int_writerINS5_10int_writerIjNS0_18basic_format_specsIcEEE10num_writerEEE",
   "name" : "const fmt::internal::basic_writer<buffer_range<char> >::padded_int_writer<fmt::internal::basic_writer<buffer_range<char> >::int_writer<unsigned int, basic_format_specs<char> >::num_writer>",
   "referenced_type" : "_ZTIN3fmt2v68internal12basic_writerINS0_12buffer_rangeIcEEE17padded_int_writerINS5_10int_writerIjNS0_18basic_format_specsIcEEE10num_writerEEE",
   "self_type" : "_ZTIKN3fmt2v68internal12basic_writerINS0_12buffer_rangeIcEEE17padded_int_writerINS5_10int_writerIjNS0_18basic_format_specsIcEEE10num_writerEEE",
   "size" : 36,
   "source_file" : "/external/fmtlib/include/fmt/format.h"
  },
  {
   "alignment" : 4,
   "is_const" : true,
   "linker_set_key" : "_ZTIKN3fmt2v68internal12basic_writerINS0_12buffer_rangeIcEEE17padded_int_writerINS5_10int_writerIxNS0_18basic_format_specsIcEEE10bin_writerILi1EEEEE",
   "name" : "const fmt::internal::basic_writer<buffer_range<char> >::padded_int_writer<fmt::internal::basic_writer<buffer_range<char> >::int_writer<long long, basic_format_specs<char> >::bin_writer<1> >",
   "referenced_type" : "_ZTIN3fmt2v68internal12basic_writerINS0_12buffer_rangeIcEEE17padded_int_writerINS5_10int_writerIxNS0_18basic_format_specsIcEEE10bin_writerILi1EEEEE",
   "self_type" : "_ZTIKN3fmt2v68internal12basic_writerINS0_12buffer_rangeIcEEE17padded_int_writerINS5_10int_writerIxNS0_18basic_format_specsIcEEE10bin_writerILi1EEEEE",
   "size" : 32,
   "source_file" : "/external/fmtlib/include/fmt/format.h"
  },
  {
   "alignment" : 4,
   "is_const" : true,
   "linker_set_key" : "_ZTIKN3fmt2v68internal12basic_writerINS0_12buffer_rangeIcEEE17padded_int_writerINS5_10int_writerIxNS0_18basic_format_specsIcEEE10bin_writerILi3EEEEE",
   "name" : "const fmt::internal::basic_writer<buffer_range<char> >::padded_int_writer<fmt::internal::basic_writer<buffer_range<char> >::int_writer<long long, basic_format_specs<char> >::bin_writer<3> >",
   "referenced_type" : "_ZTIN3fmt2v68internal12basic_writerINS0_12buffer_rangeIcEEE17padded_int_writerINS5_10int_writerIxNS0_18basic_format_specsIcEEE10bin_writerILi3EEEEE",
   "self_type" : "_ZTIKN3fmt2v68internal12basic_writerINS0_12buffer_rangeIcEEE17padded_int_writerINS5_10int_writerIxNS0_18basic_format_specsIcEEE10bin_writerILi3EEEEE",
   "size" : 32,
   "source_file" : "/external/fmtlib/include/fmt/format.h"
  },
  {
   "alignment" : 4,
   "is_const" : true,
   "linker_set_key" : "_ZTIKN3fmt2v68internal12basic_writerINS0_12buffer_rangeIcEEE17padded_int_writerINS5_10int_writerIxNS0_18basic_format_specsIcEEE10dec_writerEEE",
   "name" : "const fmt::internal::basic_writer<buffer_range<char> >::padded_int_writer<fmt::internal::basic_writer<buffer_range<char> >::int_writer<long long, basic_format_specs<char> >::dec_writer>",
   "referenced_type" : "_ZTIN3fmt2v68internal12basic_writerINS0_12buffer_rangeIcEEE17padded_int_writerINS5_10int_writerIxNS0_18basic_format_specsIcEEE10dec_writerEEE",
   "self_type" : "_ZTIKN3fmt2v68internal12basic_writerINS0_12buffer_rangeIcEEE17padded_int_writerINS5_10int_writerIxNS0_18basic_format_specsIcEEE10dec_writerEEE",
   "size" : 32,
   "source_file" : "/external/fmtlib/include/fmt/format.h"
  },
  {
   "alignment" : 4,
   "is_const" : true,
   "linker_set_key" : "_ZTIKN3fmt2v68internal12basic_writerINS0_12buffer_rangeIcEEE17padded_int_writerINS5_10int_writerIxNS0_18basic_format_specsIcEEE10hex_writerEEE",
   "name" : "const fmt::internal::basic_writer<buffer_range<char> >::padded_int_writer<fmt::internal::basic_writer<buffer_range<char> >::int_writer<long long, basic_format_specs<char> >::hex_writer>",
   "referenced_type" : "_ZTIN3fmt2v68internal12basic_writerINS0_12buffer_rangeIcEEE17padded_int_writerINS5_10int_writerIxNS0_18basic_format_specsIcEEE10hex_writerEEE",
   "self_type" : "_ZTIKN3fmt2v68internal12basic_writerINS0_12buffer_rangeIcEEE17padded_int_writerINS5_10int_writerIxNS0_18basic_format_specsIcEEE10hex_writerEEE",
   "size" : 28,
   "source_file" : "/external/fmtlib/include/fmt/format.h"
  },
  {
   "alignment" : 4,
   "is_const" : true,
   "linker_set_key" : "_ZTIKN3fmt2v68internal12basic_writerINS0_12buffer_rangeIcEEE17padded_int_writerINS5_10int_writerIxNS0_18basic_format_specsIcEEE10num_writerEEE",
   "name" : "const fmt::internal::basic_writer<buffer_range<char> >::padded_int_writer<fmt::internal::basic_writer<buffer_range<char> >::int_writer<long long, basic_format_specs<char> >::num_writer>",
   "referenced_type" : "_ZTIN3fmt2v68internal12basic_writerINS0_12buffer_rangeIcEEE17padded_int_writerINS5_10int_writerIxNS0_18basic_format_specsIcEEE10num_writerEEE",
   "self_type" : "_ZTIKN3fmt2v68internal12basic_writerINS0_12buffer_rangeIcEEE17padded_int_writerINS5_10int_writerIxNS0_18basic_format_specsIcEEE10num_writerEEE",
   "size" : 40,
   "source_file" : "/external/fmtlib/include/fmt/format.h"
  },
  {
   "alignment" : 4,
   "is_const" : true,
   "linker_set_key" : "_ZTIKN3fmt2v68internal12basic_writerINS0_12buffer_rangeIcEEE17padded_int_writerINS5_10int_writerIyNS0_18basic_format_specsIcEEE10bin_writerILi1EEEEE",
   "name" : "const fmt::internal::basic_writer<buffer_range<char> >::padded_int_writer<fmt::internal::basic_writer<buffer_range<char> >::int_writer<unsigned long long, basic_format_specs<char> >::bin_writer<1> >",
   "referenced_type" : "_ZTIN3fmt2v68internal12basic_writerINS0_12buffer_rangeIcEEE17padded_int_writerINS5_10int_writerIyNS0_18basic_format_specsIcEEE10bin_writerILi1EEEEE",
   "self_type" : "_ZTIKN3fmt2v68internal12basic_writerINS0_12buffer_rangeIcEEE17padded_int_writerINS5_10int_writerIyNS0_18basic_format_specsIcEEE10bin_writerILi1EEEEE",
   "size" : 32,
   "source_file" : "/external/fmtlib/include/fmt/format.h"
  },
  {
   "alignment" : 4,
   "is_const" : true,
   "linker_set_key" : "_ZTIKN3fmt2v68internal12basic_writerINS0_12buffer_rangeIcEEE17padded_int_writerINS5_10int_writerIyNS0_18basic_format_specsIcEEE10bin_writerILi3EEEEE",
   "name" : "const fmt::internal::basic_writer<buffer_range<char> >::padded_int_writer<fmt::internal::basic_writer<buffer_range<char> >::int_writer<unsigned long long, basic_format_specs<char> >::bin_writer<3> >",
   "referenced_type" : "_ZTIN3fmt2v68internal12basic_writerINS0_12buffer_rangeIcEEE17padded_int_writerINS5_10int_writerIyNS0_18basic_format_specsIcEEE10bin_writerILi3EEEEE",
   "self_type" : "_ZTIKN3fmt2v68internal12basic_writerINS0_12buffer_rangeIcEEE17padded_int_writerINS5_10int_writerIyNS0_18basic_format_specsIcEEE10bin_writerILi3EEEEE",
   "size" : 32,
   "source_file" : "/external/fmtlib/include/fmt/format.h"
  },
  {
   "alignment" : 4,
   "is_const" : true,
   "linker_set_key" : "_ZTIKN3fmt2v68internal12basic_writerINS0_12buffer_rangeIcEEE17padded_int_writerINS5_10int_writerIyNS0_18basic_format_specsIcEEE10dec_writerEEE",
   "name" : "const fmt::internal::basic_writer<buffer_range<char> >::padded_int_writer<fmt::internal::basic_writer<buffer_range<char> >::int_writer<unsigned long long, basic_format_specs<char> >::dec_writer>",
   "referenced_type" : "_ZTIN3fmt2v68internal12basic_writerINS0_12buffer_rangeIcEEE17padded_int_writerINS5_10int_writerIyNS0_18basic_format_specsIcEEE10dec_writerEEE",
   "self_type" : "_ZTIKN3fmt2v68internal12basic_writerINS0_12buffer_rangeIcEEE17padded_int_writerINS5_10int_writerIyNS0_18basic_format_specsIcEEE10dec_writerEEE",
   "size" : 32,
   "source_file" : "/external/fmtlib/include/fmt/format.h"
  },
  {
   "alignment" : 4,
   "is_const" : true,
   "linker_set_key" : "_ZTIKN3fmt2v68internal12basic_writerINS0_12buffer_rangeIcEEE17padded_int_writerINS5_10int_writerIyNS0_18basic_format_specsIcEEE10hex_writerEEE",
   "name" : "const fmt::internal::basic_writer<buffer_range<char> >::padded_int_writer<fmt::internal::basic_writer<buffer_range<char> >::int_writer<unsigned long long, basic_format_specs<char> >::hex_writer>",
   "referenced_type" : "_ZTIN3fmt2v68internal12basic_writerINS0_12buffer_rangeIcEEE17padded_int_writerINS5_10int_writerIyNS0_18basic_format_specsIcEEE10hex_writerEEE",
   "self_type" : "_ZTIKN3fmt2v68internal12basic_writerINS0_12buffer_rangeIcEEE17padded_int_writerINS5_10int_writerIyNS0_18basic_format_specsIcEEE10hex_writerEEE",
   "size" : 28,
   "source_file" : "/external/fmtlib/include/fmt/format.h"
  },
  {
   "alignment" : 4,
   "is_const" : true,
   "linker_set_key" : "_ZTIKN3fmt2v68internal12basic_writerINS0_12buffer_rangeIcEEE17padded_int_writerINS5_10int_writerIyNS0_18basic_format_specsIcEEE10num_writerEEE",
   "name" : "const fmt::internal::basic_writer<buffer_range<char> >::padded_int_writer<fmt::internal::basic_writer<buffer_range<char> >::int_writer<unsigned long long, basic_format_specs<char> >::num_writer>",
   "referenced_type" : "_ZTIN3fmt2v68internal12basic_writerINS0_12buffer_rangeIcEEE17padded_int_writerINS5_10int_writerIyNS0_18basic_format_specsIcEEE10num_writerEEE",
   "self_type" : "_ZTIKN3fmt2v68internal12basic_writerINS0_12buffer_rangeIcEEE17padded_int_writerINS5_10int_writerIyNS0_18basic_format_specsIcEEE10num_writerEEE",
   "size" : 40,
   "source_file" : "/external/fmtlib/include/fmt/format.h"
  },
  {
   "alignment" : 4,
   "is_const" : true,
   "linker_set_key" : "_ZTIKN3fmt2v68internal12basic_writerINS0_12buffer_rangeIcEEEE",
   "name" : "const fmt::internal::basic_writer<fmt::buffer_range<char> >",
   "referenced_type" : "_ZTIN3fmt2v68internal12basic_writerINS0_12buffer_rangeIcEEEE",
   "self_type" : "_ZTIKN3fmt2v68internal12basic_writerINS0_12buffer_rangeIcEEEE",
   "size" : 8,
   "source_file" : "/external/fmtlib/include/fmt/format.h"
  },
  {
   "alignment" : 4,
   "is_const" : true,
   "linker_set_key" : "_ZTIKN3fmt2v68internal12basic_writerINS0_12buffer_rangeIwEEE10int_writerIiNS0_18basic_format_specsIwEEE10bin_writerILi1EEE",
   "name" : "const fmt::internal::basic_writer<buffer_range<wchar_t> >::int_writer<int, basic_format_specs<wchar_t> >::bin_writer<1>",
   "referenced_type" : "_ZTIN3fmt2v68internal12basic_writerINS0_12buffer_rangeIwEEE10int_writerIiNS0_18basic_format_specsIwEEE10bin_writerILi1EEE",
   "self_type" : "_ZTIKN3fmt2v68internal12basic_writerINS0_12buffer_rangeIwEEE10int_writerIiNS0_18basic_format_specsIwEEE10bin_writerILi1EEE",
   "size" : 8,
   "source_file" : "/external/fmtlib/include/fmt/format.h"
  },
  {
   "alignment" : 4,
   "is_const" : true,
   "linker_set_key" : "_ZTIKN3fmt2v68internal12basic_writerINS0_12buffer_rangeIwEEE10int_writerIiNS0_18basic_format_specsIwEEE10bin_writerILi3EEE",
   "name" : "const fmt::internal::basic_writer<buffer_range<wchar_t> >::int_writer<int, basic_format_specs<wchar_t> >::bin_writer<3>",
   "referenced_type" : "_ZTIN3fmt2v68internal12basic_writerINS0_12buffer_rangeIwEEE10int_writerIiNS0_18basic_format_specsIwEEE10bin_writerILi3EEE",
   "self_type" : "_ZTIKN3fmt2v68internal12basic_writerINS0_12buffer_rangeIwEEE10int_writerIiNS0_18basic_format_specsIwEEE10bin_writerILi3EEE",
   "size" : 8,
   "source_file" : "/external/fmtlib/include/fmt/format.h"
  },
  {
   "alignment" : 4,
   "is_const" : true,
   "linker_set_key" : "_ZTIKN3fmt2v68internal12basic_writerINS0_12buffer_rangeIwEEE10int_writerIiNS0_18basic_format_specsIwEEE10dec_writerE",
   "name" : "const fmt::internal::basic_writer<buffer_range<wchar_t> >::int_writer<int, basic_format_specs<wchar_t> >::dec_writer",
   "referenced_type" : "_ZTIN3fmt2v68internal12basic_writerINS0_12buffer_rangeIwEEE10int_writerIiNS0_18basic_format_specsIwEEE10dec_writerE",
   "self_type" : "_ZTIKN3fmt2v68internal12basic_writerINS0_12buffer_rangeIwEEE10int_writerIiNS0_18basic_format_specsIwEEE10dec_writerE",
   "size" : 8,
   "source_file" : "/external/fmtlib/include/fmt/format.h"
  },
  {
   "alignment" : 4,
   "is_const" : true,
   "linker_set_key" : "_ZTIKN3fmt2v68internal12basic_writerINS0_12buffer_rangeIwEEE10int_writerIiNS0_18basic_format_specsIwEEE10hex_writerE",
   "name" : "const fmt::internal::basic_writer<buffer_range<wchar_t> >::int_writer<int, basic_format_specs<wchar_t> >::hex_writer",
   "referenced_type" : "_ZTIN3fmt2v68internal12basic_writerINS0_12buffer_rangeIwEEE10int_writerIiNS0_18basic_format_specsIwEEE10hex_writerE",
   "self_type" : "_ZTIKN3fmt2v68internal12basic_writerINS0_12buffer_rangeIwEEE10int_writerIiNS0_18basic_format_specsIwEEE10hex_writerE",
   "size" : 8,
   "source_file" : "/external/fmtlib/include/fmt/format.h"
  },
  {
   "alignment" : 4,
   "is_const" : true,
   "linker_set_key" : "_ZTIKN3fmt2v68internal12basic_writerINS0_12buffer_rangeIwEEE10int_writerIiNS0_18basic_format_specsIwEEE10num_writerE",
   "name" : "const fmt::internal::basic_writer<buffer_range<wchar_t> >::int_writer<int, basic_format_specs<wchar_t> >::num_writer",
   "referenced_type" : "_ZTIN3fmt2v68internal12basic_writerINS0_12buffer_rangeIwEEE10int_writerIiNS0_18basic_format_specsIwEEE10num_writerE",
   "self_type" : "_ZTIKN3fmt2v68internal12basic_writerINS0_12buffer_rangeIwEEE10int_writerIiNS0_18basic_format_specsIwEEE10num_writerE",
   "size" : 16,
   "source_file" : "/external/fmtlib/include/fmt/format.h"
  },
  {
   "alignment" : 4,
   "is_const" : true,
   "linker_set_key" : "_ZTIKN3fmt2v68internal12basic_writerINS0_12buffer_rangeIwEEE10int_writerIiNS0_18basic_format_specsIwEEEE",
   "name" : "const fmt::internal::basic_writer<buffer_range<wchar_t> >::int_writer<int, fmt::basic_format_specs<wchar_t> >",
   "referenced_type" : "_ZTIN3fmt2v68internal12basic_writerINS0_12buffer_rangeIwEEE10int_writerIiNS0_18basic_format_specsIwEEEE",
   "self_type" : "_ZTIKN3fmt2v68internal12basic_writerINS0_12buffer_rangeIwEEE10int_writerIiNS0_18basic_format_specsIwEEEE",
   "size" : 20,
   "source_file" : "/external/fmtlib/include/fmt/format.h"
  },
  {
   "alignment" : 4,
   "is_const" : true,
   "linker_set_key" : "_ZTIKN3fmt2v68internal12basic_writerINS0_12buffer_rangeIwEEE10int_writerIjNS0_18basic_format_specsIwEEE10bin_writerILi1EEE",
   "name" : "const fmt::internal::basic_writer<buffer_range<wchar_t> >::int_writer<unsigned int, basic_format_specs<wchar_t> >::bin_writer<1>",
   "referenced_type" : "_ZTIN3fmt2v68internal12basic_writerINS0_12buffer_rangeIwEEE10int_writerIjNS0_18basic_format_specsIwEEE10bin_writerILi1EEE",
   "self_type" : "_ZTIKN3fmt2v68internal12basic_writerINS0_12buffer_rangeIwEEE10int_writerIjNS0_18basic_format_specsIwEEE10bin_writerILi1EEE",
   "size" : 8,
   "source_file" : "/external/fmtlib/include/fmt/format.h"
  },
  {
   "alignment" : 4,
   "is_const" : true,
   "linker_set_key" : "_ZTIKN3fmt2v68internal12basic_writerINS0_12buffer_rangeIwEEE10int_writerIjNS0_18basic_format_specsIwEEE10bin_writerILi3EEE",
   "name" : "const fmt::internal::basic_writer<buffer_range<wchar_t> >::int_writer<unsigned int, basic_format_specs<wchar_t> >::bin_writer<3>",
   "referenced_type" : "_ZTIN3fmt2v68internal12basic_writerINS0_12buffer_rangeIwEEE10int_writerIjNS0_18basic_format_specsIwEEE10bin_writerILi3EEE",
   "self_type" : "_ZTIKN3fmt2v68internal12basic_writerINS0_12buffer_rangeIwEEE10int_writerIjNS0_18basic_format_specsIwEEE10bin_writerILi3EEE",
   "size" : 8,
   "source_file" : "/external/fmtlib/include/fmt/format.h"
  },
  {
   "alignment" : 4,
   "is_const" : true,
   "linker_set_key" : "_ZTIKN3fmt2v68internal12basic_writerINS0_12buffer_rangeIwEEE10int_writerIjNS0_18basic_format_specsIwEEE10dec_writerE",
   "name" : "const fmt::internal::basic_writer<buffer_range<wchar_t> >::int_writer<unsigned int, basic_format_specs<wchar_t> >::dec_writer",
   "referenced_type" : "_ZTIN3fmt2v68internal12basic_writerINS0_12buffer_rangeIwEEE10int_writerIjNS0_18basic_format_specsIwEEE10dec_writerE",
   "self_type" : "_ZTIKN3fmt2v68internal12basic_writerINS0_12buffer_rangeIwEEE10int_writerIjNS0_18basic_format_specsIwEEE10dec_writerE",
   "size" : 8,
   "source_file" : "/external/fmtlib/include/fmt/format.h"
  },
  {
   "alignment" : 4,
   "is_const" : true,
   "linker_set_key" : "_ZTIKN3fmt2v68internal12basic_writerINS0_12buffer_rangeIwEEE10int_writerIjNS0_18basic_format_specsIwEEE10hex_writerE",
   "name" : "const fmt::internal::basic_writer<buffer_range<wchar_t> >::int_writer<unsigned int, basic_format_specs<wchar_t> >::hex_writer",
   "referenced_type" : "_ZTIN3fmt2v68internal12basic_writerINS0_12buffer_rangeIwEEE10int_writerIjNS0_18basic_format_specsIwEEE10hex_writerE",
   "self_type" : "_ZTIKN3fmt2v68internal12basic_writerINS0_12buffer_rangeIwEEE10int_writerIjNS0_18basic_format_specsIwEEE10hex_writerE",
   "size" : 8,
   "source_file" : "/external/fmtlib/include/fmt/format.h"
  },
  {
   "alignment" : 4,
   "is_const" : true,
   "linker_set_key" : "_ZTIKN3fmt2v68internal12basic_writerINS0_12buffer_rangeIwEEE10int_writerIjNS0_18basic_format_specsIwEEE10num_writerE",
   "name" : "const fmt::internal::basic_writer<buffer_range<wchar_t> >::int_writer<unsigned int, basic_format_specs<wchar_t> >::num_writer",
   "referenced_type" : "_ZTIN3fmt2v68internal12basic_writerINS0_12buffer_rangeIwEEE10int_writerIjNS0_18basic_format_specsIwEEE10num_writerE",
   "self_type" : "_ZTIKN3fmt2v68internal12basic_writerINS0_12buffer_rangeIwEEE10int_writerIjNS0_18basic_format_specsIwEEE10num_writerE",
   "size" : 16,
   "source_file" : "/external/fmtlib/include/fmt/format.h"
  },
  {
   "alignment" : 4,
   "is_const" : true,
   "linker_set_key" : "_ZTIKN3fmt2v68internal12basic_writerINS0_12buffer_rangeIwEEE10int_writerIjNS0_18basic_format_specsIwEEEE",
   "name" : "const fmt::internal::basic_writer<buffer_range<wchar_t> >::int_writer<unsigned int, fmt::basic_format_specs<wchar_t> >",
   "referenced_type" : "_ZTIN3fmt2v68internal12basic_writerINS0_12buffer_rangeIwEEE10int_writerIjNS0_18basic_format_specsIwEEEE",
   "self_type" : "_ZTIKN3fmt2v68internal12basic_writerINS0_12buffer_rangeIwEEE10int_writerIjNS0_18basic_format_specsIwEEEE",
   "size" : 20,
   "source_file" : "/external/fmtlib/include/fmt/format.h"
  },
  {
   "alignment" : 4,
   "is_const" : true,
   "linker_set_key" : "_ZTIKN3fmt2v68internal12basic_writerINS0_12buffer_rangeIwEEE10int_writerIwNS0_18basic_format_specsIwEEE10bin_writerILi1EEE",
   "name" : "const fmt::internal::basic_writer<buffer_range<wchar_t> >::int_writer<wchar_t, basic_format_specs<wchar_t> >::bin_writer<1>",
   "referenced_type" : "_ZTIN3fmt2v68internal12basic_writerINS0_12buffer_rangeIwEEE10int_writerIwNS0_18basic_format_specsIwEEE10bin_writerILi1EEE",
   "self_type" : "_ZTIKN3fmt2v68internal12basic_writerINS0_12buffer_rangeIwEEE10int_writerIwNS0_18basic_format_specsIwEEE10bin_writerILi1EEE",
   "size" : 8,
   "source_file" : "/external/fmtlib/include/fmt/format.h"
  },
  {
   "alignment" : 4,
   "is_const" : true,
   "linker_set_key" : "_ZTIKN3fmt2v68internal12basic_writerINS0_12buffer_rangeIwEEE10int_writerIwNS0_18basic_format_specsIwEEE10bin_writerILi3EEE",
   "name" : "const fmt::internal::basic_writer<buffer_range<wchar_t> >::int_writer<wchar_t, basic_format_specs<wchar_t> >::bin_writer<3>",
   "referenced_type" : "_ZTIN3fmt2v68internal12basic_writerINS0_12buffer_rangeIwEEE10int_writerIwNS0_18basic_format_specsIwEEE10bin_writerILi3EEE",
   "self_type" : "_ZTIKN3fmt2v68internal12basic_writerINS0_12buffer_rangeIwEEE10int_writerIwNS0_18basic_format_specsIwEEE10bin_writerILi3EEE",
   "size" : 8,
   "source_file" : "/external/fmtlib/include/fmt/format.h"
  },
  {
   "alignment" : 4,
   "is_const" : true,
   "linker_set_key" : "_ZTIKN3fmt2v68internal12basic_writerINS0_12buffer_rangeIwEEE10int_writerIwNS0_18basic_format_specsIwEEE10dec_writerE",
   "name" : "const fmt::internal::basic_writer<buffer_range<wchar_t> >::int_writer<wchar_t, basic_format_specs<wchar_t> >::dec_writer",
   "referenced_type" : "_ZTIN3fmt2v68internal12basic_writerINS0_12buffer_rangeIwEEE10int_writerIwNS0_18basic_format_specsIwEEE10dec_writerE",
   "self_type" : "_ZTIKN3fmt2v68internal12basic_writerINS0_12buffer_rangeIwEEE10int_writerIwNS0_18basic_format_specsIwEEE10dec_writerE",
   "size" : 8,
   "source_file" : "/external/fmtlib/include/fmt/format.h"
  },
  {
   "alignment" : 4,
   "is_const" : true,
   "linker_set_key" : "_ZTIKN3fmt2v68internal12basic_writerINS0_12buffer_rangeIwEEE10int_writerIwNS0_18basic_format_specsIwEEE10hex_writerE",
   "name" : "const fmt::internal::basic_writer<buffer_range<wchar_t> >::int_writer<wchar_t, basic_format_specs<wchar_t> >::hex_writer",
   "referenced_type" : "_ZTIN3fmt2v68internal12basic_writerINS0_12buffer_rangeIwEEE10int_writerIwNS0_18basic_format_specsIwEEE10hex_writerE",
   "self_type" : "_ZTIKN3fmt2v68internal12basic_writerINS0_12buffer_rangeIwEEE10int_writerIwNS0_18basic_format_specsIwEEE10hex_writerE",
   "size" : 8,
   "source_file" : "/external/fmtlib/include/fmt/format.h"
  },
  {
   "alignment" : 4,
   "is_const" : true,
   "linker_set_key" : "_ZTIKN3fmt2v68internal12basic_writerINS0_12buffer_rangeIwEEE10int_writerIwNS0_18basic_format_specsIwEEE10num_writerE",
   "name" : "const fmt::internal::basic_writer<buffer_range<wchar_t> >::int_writer<wchar_t, basic_format_specs<wchar_t> >::num_writer",
   "referenced_type" : "_ZTIN3fmt2v68internal12basic_writerINS0_12buffer_rangeIwEEE10int_writerIwNS0_18basic_format_specsIwEEE10num_writerE",
   "self_type" : "_ZTIKN3fmt2v68internal12basic_writerINS0_12buffer_rangeIwEEE10int_writerIwNS0_18basic_format_specsIwEEE10num_writerE",
   "size" : 16,
   "source_file" : "/external/fmtlib/include/fmt/format.h"
  },
  {
   "alignment" : 4,
   "is_const" : true,
   "linker_set_key" : "_ZTIKN3fmt2v68internal12basic_writerINS0_12buffer_rangeIwEEE10int_writerIwNS0_18basic_format_specsIwEEEE",
   "name" : "const fmt::internal::basic_writer<buffer_range<wchar_t> >::int_writer<wchar_t, fmt::basic_format_specs<wchar_t> >",
   "referenced_type" : "_ZTIN3fmt2v68internal12basic_writerINS0_12buffer_rangeIwEEE10int_writerIwNS0_18basic_format_specsIwEEEE",
   "self_type" : "_ZTIKN3fmt2v68internal12basic_writerINS0_12buffer_rangeIwEEE10int_writerIwNS0_18basic_format_specsIwEEEE",
   "size" : 20,
   "source_file" : "/external/fmtlib/include/fmt/format.h"
  },
  {
   "alignment" : 4,
   "is_const" : true,
   "linker_set_key" : "_ZTIKN3fmt2v68internal12basic_writerINS0_12buffer_rangeIwEEE10int_writerIxNS0_18basic_format_specsIwEEE10bin_writerILi1EEE",
   "name" : "const fmt::internal::basic_writer<buffer_range<wchar_t> >::int_writer<long long, basic_format_specs<wchar_t> >::bin_writer<1>",
   "referenced_type" : "_ZTIN3fmt2v68internal12basic_writerINS0_12buffer_rangeIwEEE10int_writerIxNS0_18basic_format_specsIwEEE10bin_writerILi1EEE",
   "self_type" : "_ZTIKN3fmt2v68internal12basic_writerINS0_12buffer_rangeIwEEE10int_writerIxNS0_18basic_format_specsIwEEE10bin_writerILi1EEE",
   "size" : 12,
   "source_file" : "/external/fmtlib/include/fmt/format.h"
  },
  {
   "alignment" : 4,
   "is_const" : true,
   "linker_set_key" : "_ZTIKN3fmt2v68internal12basic_writerINS0_12buffer_rangeIwEEE10int_writerIxNS0_18basic_format_specsIwEEE10bin_writerILi3EEE",
   "name" : "const fmt::internal::basic_writer<buffer_range<wchar_t> >::int_writer<long long, basic_format_specs<wchar_t> >::bin_writer<3>",
   "referenced_type" : "_ZTIN3fmt2v68internal12basic_writerINS0_12buffer_rangeIwEEE10int_writerIxNS0_18basic_format_specsIwEEE10bin_writerILi3EEE",
   "self_type" : "_ZTIKN3fmt2v68internal12basic_writerINS0_12buffer_rangeIwEEE10int_writerIxNS0_18basic_format_specsIwEEE10bin_writerILi3EEE",
   "size" : 12,
   "source_file" : "/external/fmtlib/include/fmt/format.h"
  },
  {
   "alignment" : 4,
   "is_const" : true,
   "linker_set_key" : "_ZTIKN3fmt2v68internal12basic_writerINS0_12buffer_rangeIwEEE10int_writerIxNS0_18basic_format_specsIwEEE10dec_writerE",
   "name" : "const fmt::internal::basic_writer<buffer_range<wchar_t> >::int_writer<long long, basic_format_specs<wchar_t> >::dec_writer",
   "referenced_type" : "_ZTIN3fmt2v68internal12basic_writerINS0_12buffer_rangeIwEEE10int_writerIxNS0_18basic_format_specsIwEEE10dec_writerE",
   "self_type" : "_ZTIKN3fmt2v68internal12basic_writerINS0_12buffer_rangeIwEEE10int_writerIxNS0_18basic_format_specsIwEEE10dec_writerE",
   "size" : 12,
   "source_file" : "/external/fmtlib/include/fmt/format.h"
  },
  {
   "alignment" : 4,
   "is_const" : true,
   "linker_set_key" : "_ZTIKN3fmt2v68internal12basic_writerINS0_12buffer_rangeIwEEE10int_writerIxNS0_18basic_format_specsIwEEE10hex_writerE",
   "name" : "const fmt::internal::basic_writer<buffer_range<wchar_t> >::int_writer<long long, basic_format_specs<wchar_t> >::hex_writer",
   "referenced_type" : "_ZTIN3fmt2v68internal12basic_writerINS0_12buffer_rangeIwEEE10int_writerIxNS0_18basic_format_specsIwEEE10hex_writerE",
   "self_type" : "_ZTIKN3fmt2v68internal12basic_writerINS0_12buffer_rangeIwEEE10int_writerIxNS0_18basic_format_specsIwEEE10hex_writerE",
   "size" : 8,
   "source_file" : "/external/fmtlib/include/fmt/format.h"
  },
  {
   "alignment" : 4,
   "is_const" : true,
   "linker_set_key" : "_ZTIKN3fmt2v68internal12basic_writerINS0_12buffer_rangeIwEEE10int_writerIxNS0_18basic_format_specsIwEEE10num_writerE",
   "name" : "const fmt::internal::basic_writer<buffer_range<wchar_t> >::int_writer<long long, basic_format_specs<wchar_t> >::num_writer",
   "referenced_type" : "_ZTIN3fmt2v68internal12basic_writerINS0_12buffer_rangeIwEEE10int_writerIxNS0_18basic_format_specsIwEEE10num_writerE",
   "self_type" : "_ZTIKN3fmt2v68internal12basic_writerINS0_12buffer_rangeIwEEE10int_writerIxNS0_18basic_format_specsIwEEE10num_writerE",
   "size" : 20,
   "source_file" : "/external/fmtlib/include/fmt/format.h"
  },
  {
   "alignment" : 4,
   "is_const" : true,
   "linker_set_key" : "_ZTIKN3fmt2v68internal12basic_writerINS0_12buffer_rangeIwEEE10int_writerIxNS0_18basic_format_specsIwEEEE",
   "name" : "const fmt::internal::basic_writer<buffer_range<wchar_t> >::int_writer<long long, fmt::basic_format_specs<wchar_t> >",
   "referenced_type" : "_ZTIN3fmt2v68internal12basic_writerINS0_12buffer_rangeIwEEE10int_writerIxNS0_18basic_format_specsIwEEEE",
   "self_type" : "_ZTIKN3fmt2v68internal12basic_writerINS0_12buffer_rangeIwEEE10int_writerIxNS0_18basic_format_specsIwEEEE",
   "size" : 24,
   "source_file" : "/external/fmtlib/include/fmt/format.h"
  },
  {
   "alignment" : 4,
   "is_const" : true,
   "linker_set_key" : "_ZTIKN3fmt2v68internal12basic_writerINS0_12buffer_rangeIwEEE10int_writerIyNS0_18basic_format_specsIwEEE10bin_writerILi1EEE",
   "name" : "const fmt::internal::basic_writer<buffer_range<wchar_t> >::int_writer<unsigned long long, basic_format_specs<wchar_t> >::bin_writer<1>",
   "referenced_type" : "_ZTIN3fmt2v68internal12basic_writerINS0_12buffer_rangeIwEEE10int_writerIyNS0_18basic_format_specsIwEEE10bin_writerILi1EEE",
   "self_type" : "_ZTIKN3fmt2v68internal12basic_writerINS0_12buffer_rangeIwEEE10int_writerIyNS0_18basic_format_specsIwEEE10bin_writerILi1EEE",
   "size" : 12,
   "source_file" : "/external/fmtlib/include/fmt/format.h"
  },
  {
   "alignment" : 4,
   "is_const" : true,
   "linker_set_key" : "_ZTIKN3fmt2v68internal12basic_writerINS0_12buffer_rangeIwEEE10int_writerIyNS0_18basic_format_specsIwEEE10bin_writerILi3EEE",
   "name" : "const fmt::internal::basic_writer<buffer_range<wchar_t> >::int_writer<unsigned long long, basic_format_specs<wchar_t> >::bin_writer<3>",
   "referenced_type" : "_ZTIN3fmt2v68internal12basic_writerINS0_12buffer_rangeIwEEE10int_writerIyNS0_18basic_format_specsIwEEE10bin_writerILi3EEE",
   "self_type" : "_ZTIKN3fmt2v68internal12basic_writerINS0_12buffer_rangeIwEEE10int_writerIyNS0_18basic_format_specsIwEEE10bin_writerILi3EEE",
   "size" : 12,
   "source_file" : "/external/fmtlib/include/fmt/format.h"
  },
  {
   "alignment" : 4,
   "is_const" : true,
   "linker_set_key" : "_ZTIKN3fmt2v68internal12basic_writerINS0_12buffer_rangeIwEEE10int_writerIyNS0_18basic_format_specsIwEEE10dec_writerE",
   "name" : "const fmt::internal::basic_writer<buffer_range<wchar_t> >::int_writer<unsigned long long, basic_format_specs<wchar_t> >::dec_writer",
   "referenced_type" : "_ZTIN3fmt2v68internal12basic_writerINS0_12buffer_rangeIwEEE10int_writerIyNS0_18basic_format_specsIwEEE10dec_writerE",
   "self_type" : "_ZTIKN3fmt2v68internal12basic_writerINS0_12buffer_rangeIwEEE10int_writerIyNS0_18basic_format_specsIwEEE10dec_writerE",
   "size" : 12,
   "source_file" : "/external/fmtlib/include/fmt/format.h"
  },
  {
   "alignment" : 4,
   "is_const" : true,
   "linker_set_key" : "_ZTIKN3fmt2v68internal12basic_writerINS0_12buffer_rangeIwEEE10int_writerIyNS0_18basic_format_specsIwEEE10hex_writerE",
   "name" : "const fmt::internal::basic_writer<buffer_range<wchar_t> >::int_writer<unsigned long long, basic_format_specs<wchar_t> >::hex_writer",
   "referenced_type" : "_ZTIN3fmt2v68internal12basic_writerINS0_12buffer_rangeIwEEE10int_writerIyNS0_18basic_format_specsIwEEE10hex_writerE",
   "self_type" : "_ZTIKN3fmt2v68internal12basic_writerINS0_12buffer_rangeIwEEE10int_writerIyNS0_18basic_format_specsIwEEE10hex_writerE",
   "size" : 8,
   "source_file" : "/external/fmtlib/include/fmt/format.h"
  },
  {
   "alignment" : 4,
   "is_const" : true,
   "linker_set_key" : "_ZTIKN3fmt2v68internal12basic_writerINS0_12buffer_rangeIwEEE10int_writerIyNS0_18basic_format_specsIwEEE10num_writerE",
   "name" : "const fmt::internal::basic_writer<buffer_range<wchar_t> >::int_writer<unsigned long long, basic_format_specs<wchar_t> >::num_writer",
   "referenced_type" : "_ZTIN3fmt2v68internal12basic_writerINS0_12buffer_rangeIwEEE10int_writerIyNS0_18basic_format_specsIwEEE10num_writerE",
   "self_type" : "_ZTIKN3fmt2v68internal12basic_writerINS0_12buffer_rangeIwEEE10int_writerIyNS0_18basic_format_specsIwEEE10num_writerE",
   "size" : 20,
   "source_file" : "/external/fmtlib/include/fmt/format.h"
  },
  {
   "alignment" : 4,
   "is_const" : true,
   "linker_set_key" : "_ZTIKN3fmt2v68internal12basic_writerINS0_12buffer_rangeIwEEE10int_writerIyNS0_18basic_format_specsIwEEEE",
   "name" : "const fmt::internal::basic_writer<buffer_range<wchar_t> >::int_writer<unsigned long long, fmt::basic_format_specs<wchar_t> >",
   "referenced_type" : "_ZTIN3fmt2v68internal12basic_writerINS0_12buffer_rangeIwEEE10int_writerIyNS0_18basic_format_specsIwEEEE",
   "self_type" : "_ZTIKN3fmt2v68internal12basic_writerINS0_12buffer_rangeIwEEE10int_writerIyNS0_18basic_format_specsIwEEEE",
   "size" : 24,
   "source_file" : "/external/fmtlib/include/fmt/format.h"
  },
  {
   "alignment" : 4,
   "is_const" : true,
   "linker_set_key" : "_ZTIKN3fmt2v68internal12basic_writerINS0_12buffer_rangeIwEEE10str_writerIcEE",
   "name" : "const fmt::internal::basic_writer<buffer_range<wchar_t> >::str_writer<char>",
   "referenced_type" : "_ZTIN3fmt2v68internal12basic_writerINS0_12buffer_rangeIwEEE10str_writerIcEE",
   "self_type" : "_ZTIKN3fmt2v68internal12basic_writerINS0_12buffer_rangeIwEEE10str_writerIcEE",
   "size" : 8,
   "source_file" : "/external/fmtlib/include/fmt/format.h"
  },
  {
   "alignment" : 4,
   "is_const" : true,
   "linker_set_key" : "_ZTIKN3fmt2v68internal12basic_writerINS0_12buffer_rangeIwEEE10str_writerIwEE",
   "name" : "const fmt::internal::basic_writer<buffer_range<wchar_t> >::str_writer<wchar_t>",
   "referenced_type" : "_ZTIN3fmt2v68internal12basic_writerINS0_12buffer_rangeIwEEE10str_writerIwEE",
   "self_type" : "_ZTIKN3fmt2v68internal12basic_writerINS0_12buffer_rangeIwEEE10str_writerIwEE",
   "size" : 8,
   "source_file" : "/external/fmtlib/include/fmt/format.h"
  },
  {
   "alignment" : 4,
   "is_const" : true,
   "linker_set_key" : "_ZTIKN3fmt2v68internal12basic_writerINS0_12buffer_rangeIwEEE14pointer_writerIjEE",
   "name" : "const fmt::internal::basic_writer<buffer_range<wchar_t> >::pointer_writer<unsigned int>",
   "referenced_type" : "_ZTIN3fmt2v68internal12basic_writerINS0_12buffer_rangeIwEEE14pointer_writerIjEE",
   "self_type" : "_ZTIKN3fmt2v68internal12basic_writerINS0_12buffer_rangeIwEEE14pointer_writerIjEE",
   "size" : 8,
   "source_file" : "/external/fmtlib/include/fmt/format.h"
  },
  {
   "alignment" : 4,
   "is_const" : true,
   "linker_set_key" : "_ZTIKN3fmt2v68internal12basic_writerINS0_12buffer_rangeIwEEE17padded_int_writerINS5_10int_writerIiNS0_18basic_format_specsIwEEE10bin_writerILi1EEEEE",
   "name" : "const fmt::internal::basic_writer<buffer_range<wchar_t> >::padded_int_writer<fmt::internal::basic_writer<buffer_range<wchar_t> >::int_writer<int, basic_format_specs<wchar_t> >::bin_writer<1> >",
   "referenced_type" : "_ZTIN3fmt2v68internal12basic_writerINS0_12buffer_rangeIwEEE17padded_int_writerINS5_10int_writerIiNS0_18basic_format_specsIwEEE10bin_writerILi1EEEEE",
   "self_type" : "_ZTIKN3fmt2v68internal12basic_writerINS0_12buffer_rangeIwEEE17padded_int_writerINS5_10int_writerIiNS0_18basic_format_specsIwEEE10bin_writerILi1EEEEE",
   "size" : 28,
   "source_file" : "/external/fmtlib/include/fmt/format.h"
  },
  {
   "alignment" : 4,
   "is_const" : true,
   "linker_set_key" : "_ZTIKN3fmt2v68internal12basic_writerINS0_12buffer_rangeIwEEE17padded_int_writerINS5_10int_writerIiNS0_18basic_format_specsIwEEE10bin_writerILi3EEEEE",
   "name" : "const fmt::internal::basic_writer<buffer_range<wchar_t> >::padded_int_writer<fmt::internal::basic_writer<buffer_range<wchar_t> >::int_writer<int, basic_format_specs<wchar_t> >::bin_writer<3> >",
   "referenced_type" : "_ZTIN3fmt2v68internal12basic_writerINS0_12buffer_rangeIwEEE17padded_int_writerINS5_10int_writerIiNS0_18basic_format_specsIwEEE10bin_writerILi3EEEEE",
   "self_type" : "_ZTIKN3fmt2v68internal12basic_writerINS0_12buffer_rangeIwEEE17padded_int_writerINS5_10int_writerIiNS0_18basic_format_specsIwEEE10bin_writerILi3EEEEE",
   "size" : 28,
   "source_file" : "/external/fmtlib/include/fmt/format.h"
  },
  {
   "alignment" : 4,
   "is_const" : true,
   "linker_set_key" : "_ZTIKN3fmt2v68internal12basic_writerINS0_12buffer_rangeIwEEE17padded_int_writerINS5_10int_writerIiNS0_18basic_format_specsIwEEE10dec_writerEEE",
   "name" : "const fmt::internal::basic_writer<buffer_range<wchar_t> >::padded_int_writer<fmt::internal::basic_writer<buffer_range<wchar_t> >::int_writer<int, basic_format_specs<wchar_t> >::dec_writer>",
   "referenced_type" : "_ZTIN3fmt2v68internal12basic_writerINS0_12buffer_rangeIwEEE17padded_int_writerINS5_10int_writerIiNS0_18basic_format_specsIwEEE10dec_writerEEE",
   "self_type" : "_ZTIKN3fmt2v68internal12basic_writerINS0_12buffer_rangeIwEEE17padded_int_writerINS5_10int_writerIiNS0_18basic_format_specsIwEEE10dec_writerEEE",
   "size" : 28,
   "source_file" : "/external/fmtlib/include/fmt/format.h"
  },
  {
   "alignment" : 4,
   "is_const" : true,
   "linker_set_key" : "_ZTIKN3fmt2v68internal12basic_writerINS0_12buffer_rangeIwEEE17padded_int_writerINS5_10int_writerIiNS0_18basic_format_specsIwEEE10hex_writerEEE",
   "name" : "const fmt::internal::basic_writer<buffer_range<wchar_t> >::padded_int_writer<fmt::internal::basic_writer<buffer_range<wchar_t> >::int_writer<int, basic_format_specs<wchar_t> >::hex_writer>",
   "referenced_type" : "_ZTIN3fmt2v68internal12basic_writerINS0_12buffer_rangeIwEEE17padded_int_writerINS5_10int_writerIiNS0_18basic_format_specsIwEEE10hex_writerEEE",
   "self_type" : "_ZTIKN3fmt2v68internal12basic_writerINS0_12buffer_rangeIwEEE17padded_int_writerINS5_10int_writerIiNS0_18basic_format_specsIwEEE10hex_writerEEE",
   "size" : 28,
   "source_file" : "/external/fmtlib/include/fmt/format.h"
  },
  {
   "alignment" : 4,
   "is_const" : true,
   "linker_set_key" : "_ZTIKN3fmt2v68internal12basic_writerINS0_12buffer_rangeIwEEE17padded_int_writerINS5_10int_writerIiNS0_18basic_format_specsIwEEE10num_writerEEE",
   "name" : "const fmt::internal::basic_writer<buffer_range<wchar_t> >::padded_int_writer<fmt::internal::basic_writer<buffer_range<wchar_t> >::int_writer<int, basic_format_specs<wchar_t> >::num_writer>",
   "referenced_type" : "_ZTIN3fmt2v68internal12basic_writerINS0_12buffer_rangeIwEEE17padded_int_writerINS5_10int_writerIiNS0_18basic_format_specsIwEEE10num_writerEEE",
   "self_type" : "_ZTIKN3fmt2v68internal12basic_writerINS0_12buffer_rangeIwEEE17padded_int_writerINS5_10int_writerIiNS0_18basic_format_specsIwEEE10num_writerEEE",
   "size" : 36,
   "source_file" : "/external/fmtlib/include/fmt/format.h"
  },
  {
   "alignment" : 4,
   "is_const" : true,
   "linker_set_key" : "_ZTIKN3fmt2v68internal12basic_writerINS0_12buffer_rangeIwEEE17padded_int_writerINS5_10int_writerIjNS0_18basic_format_specsIwEEE10bin_writerILi1EEEEE",
   "name" : "const fmt::internal::basic_writer<buffer_range<wchar_t> >::padded_int_writer<fmt::internal::basic_writer<buffer_range<wchar_t> >::int_writer<unsigned int, basic_format_specs<wchar_t> >::bin_writer<1> >",
   "referenced_type" : "_ZTIN3fmt2v68internal12basic_writerINS0_12buffer_rangeIwEEE17padded_int_writerINS5_10int_writerIjNS0_18basic_format_specsIwEEE10bin_writerILi1EEEEE",
   "self_type" : "_ZTIKN3fmt2v68internal12basic_writerINS0_12buffer_rangeIwEEE17padded_int_writerINS5_10int_writerIjNS0_18basic_format_specsIwEEE10bin_writerILi1EEEEE",
   "size" : 28,
   "source_file" : "/external/fmtlib/include/fmt/format.h"
  },
  {
   "alignment" : 4,
   "is_const" : true,
   "linker_set_key" : "_ZTIKN3fmt2v68internal12basic_writerINS0_12buffer_rangeIwEEE17padded_int_writerINS5_10int_writerIjNS0_18basic_format_specsIwEEE10bin_writerILi3EEEEE",
   "name" : "const fmt::internal::basic_writer<buffer_range<wchar_t> >::padded_int_writer<fmt::internal::basic_writer<buffer_range<wchar_t> >::int_writer<unsigned int, basic_format_specs<wchar_t> >::bin_writer<3> >",
   "referenced_type" : "_ZTIN3fmt2v68internal12basic_writerINS0_12buffer_rangeIwEEE17padded_int_writerINS5_10int_writerIjNS0_18basic_format_specsIwEEE10bin_writerILi3EEEEE",
   "self_type" : "_ZTIKN3fmt2v68internal12basic_writerINS0_12buffer_rangeIwEEE17padded_int_writerINS5_10int_writerIjNS0_18basic_format_specsIwEEE10bin_writerILi3EEEEE",
   "size" : 28,
   "source_file" : "/external/fmtlib/include/fmt/format.h"
  },
  {
   "alignment" : 4,
   "is_const" : true,
   "linker_set_key" : "_ZTIKN3fmt2v68internal12basic_writerINS0_12buffer_rangeIwEEE17padded_int_writerINS5_10int_writerIjNS0_18basic_format_specsIwEEE10dec_writerEEE",
   "name" : "const fmt::internal::basic_writer<buffer_range<wchar_t> >::padded_int_writer<fmt::internal::basic_writer<buffer_range<wchar_t> >::int_writer<unsigned int, basic_format_specs<wchar_t> >::dec_writer>",
   "referenced_type" : "_ZTIN3fmt2v68internal12basic_writerINS0_12buffer_rangeIwEEE17padded_int_writerINS5_10int_writerIjNS0_18basic_format_specsIwEEE10dec_writerEEE",
   "self_type" : "_ZTIKN3fmt2v68internal12basic_writerINS0_12buffer_rangeIwEEE17padded_int_writerINS5_10int_writerIjNS0_18basic_format_specsIwEEE10dec_writerEEE",
   "size" : 28,
   "source_file" : "/external/fmtlib/include/fmt/format.h"
  },
  {
   "alignment" : 4,
   "is_const" : true,
   "linker_set_key" : "_ZTIKN3fmt2v68internal12basic_writerINS0_12buffer_rangeIwEEE17padded_int_writerINS5_10int_writerIjNS0_18basic_format_specsIwEEE10hex_writerEEE",
   "name" : "const fmt::internal::basic_writer<buffer_range<wchar_t> >::padded_int_writer<fmt::internal::basic_writer<buffer_range<wchar_t> >::int_writer<unsigned int, basic_format_specs<wchar_t> >::hex_writer>",
   "referenced_type" : "_ZTIN3fmt2v68internal12basic_writerINS0_12buffer_rangeIwEEE17padded_int_writerINS5_10int_writerIjNS0_18basic_format_specsIwEEE10hex_writerEEE",
   "self_type" : "_ZTIKN3fmt2v68internal12basic_writerINS0_12buffer_rangeIwEEE17padded_int_writerINS5_10int_writerIjNS0_18basic_format_specsIwEEE10hex_writerEEE",
   "size" : 28,
   "source_file" : "/external/fmtlib/include/fmt/format.h"
  },
  {
   "alignment" : 4,
   "is_const" : true,
   "linker_set_key" : "_ZTIKN3fmt2v68internal12basic_writerINS0_12buffer_rangeIwEEE17padded_int_writerINS5_10int_writerIjNS0_18basic_format_specsIwEEE10num_writerEEE",
   "name" : "const fmt::internal::basic_writer<buffer_range<wchar_t> >::padded_int_writer<fmt::internal::basic_writer<buffer_range<wchar_t> >::int_writer<unsigned int, basic_format_specs<wchar_t> >::num_writer>",
   "referenced_type" : "_ZTIN3fmt2v68internal12basic_writerINS0_12buffer_rangeIwEEE17padded_int_writerINS5_10int_writerIjNS0_18basic_format_specsIwEEE10num_writerEEE",
   "self_type" : "_ZTIKN3fmt2v68internal12basic_writerINS0_12buffer_rangeIwEEE17padded_int_writerINS5_10int_writerIjNS0_18basic_format_specsIwEEE10num_writerEEE",
   "size" : 36,
   "source_file" : "/external/fmtlib/include/fmt/format.h"
  },
  {
   "alignment" : 4,
   "is_const" : true,
   "linker_set_key" : "_ZTIKN3fmt2v68internal12basic_writerINS0_12buffer_rangeIwEEE17padded_int_writerINS5_10int_writerIwNS0_18basic_format_specsIwEEE10bin_writerILi1EEEEE",
   "name" : "const fmt::internal::basic_writer<buffer_range<wchar_t> >::padded_int_writer<fmt::internal::basic_writer<buffer_range<wchar_t> >::int_writer<wchar_t, basic_format_specs<wchar_t> >::bin_writer<1> >",
   "referenced_type" : "_ZTIN3fmt2v68internal12basic_writerINS0_12buffer_rangeIwEEE17padded_int_writerINS5_10int_writerIwNS0_18basic_format_specsIwEEE10bin_writerILi1EEEEE",
   "self_type" : "_ZTIKN3fmt2v68internal12basic_writerINS0_12buffer_rangeIwEEE17padded_int_writerINS5_10int_writerIwNS0_18basic_format_specsIwEEE10bin_writerILi1EEEEE",
   "size" : 28,
   "source_file" : "/external/fmtlib/include/fmt/format.h"
  },
  {
   "alignment" : 4,
   "is_const" : true,
   "linker_set_key" : "_ZTIKN3fmt2v68internal12basic_writerINS0_12buffer_rangeIwEEE17padded_int_writerINS5_10int_writerIwNS0_18basic_format_specsIwEEE10bin_writerILi3EEEEE",
   "name" : "const fmt::internal::basic_writer<buffer_range<wchar_t> >::padded_int_writer<fmt::internal::basic_writer<buffer_range<wchar_t> >::int_writer<wchar_t, basic_format_specs<wchar_t> >::bin_writer<3> >",
   "referenced_type" : "_ZTIN3fmt2v68internal12basic_writerINS0_12buffer_rangeIwEEE17padded_int_writerINS5_10int_writerIwNS0_18basic_format_specsIwEEE10bin_writerILi3EEEEE",
   "self_type" : "_ZTIKN3fmt2v68internal12basic_writerINS0_12buffer_rangeIwEEE17padded_int_writerINS5_10int_writerIwNS0_18basic_format_specsIwEEE10bin_writerILi3EEEEE",
   "size" : 28,
   "source_file" : "/external/fmtlib/include/fmt/format.h"
  },
  {
   "alignment" : 4,
   "is_const" : true,
   "linker_set_key" : "_ZTIKN3fmt2v68internal12basic_writerINS0_12buffer_rangeIwEEE17padded_int_writerINS5_10int_writerIwNS0_18basic_format_specsIwEEE10dec_writerEEE",
   "name" : "const fmt::internal::basic_writer<buffer_range<wchar_t> >::padded_int_writer<fmt::internal::basic_writer<buffer_range<wchar_t> >::int_writer<wchar_t, basic_format_specs<wchar_t> >::dec_writer>",
   "referenced_type" : "_ZTIN3fmt2v68internal12basic_writerINS0_12buffer_rangeIwEEE17padded_int_writerINS5_10int_writerIwNS0_18basic_format_specsIwEEE10dec_writerEEE",
   "self_type" : "_ZTIKN3fmt2v68internal12basic_writerINS0_12buffer_rangeIwEEE17padded_int_writerINS5_10int_writerIwNS0_18basic_format_specsIwEEE10dec_writerEEE",
   "size" : 28,
   "source_file" : "/external/fmtlib/include/fmt/format.h"
  },
  {
   "alignment" : 4,
   "is_const" : true,
   "linker_set_key" : "_ZTIKN3fmt2v68internal12basic_writerINS0_12buffer_rangeIwEEE17padded_int_writerINS5_10int_writerIwNS0_18basic_format_specsIwEEE10hex_writerEEE",
   "name" : "const fmt::internal::basic_writer<buffer_range<wchar_t> >::padded_int_writer<fmt::internal::basic_writer<buffer_range<wchar_t> >::int_writer<wchar_t, basic_format_specs<wchar_t> >::hex_writer>",
   "referenced_type" : "_ZTIN3fmt2v68internal12basic_writerINS0_12buffer_rangeIwEEE17padded_int_writerINS5_10int_writerIwNS0_18basic_format_specsIwEEE10hex_writerEEE",
   "self_type" : "_ZTIKN3fmt2v68internal12basic_writerINS0_12buffer_rangeIwEEE17padded_int_writerINS5_10int_writerIwNS0_18basic_format_specsIwEEE10hex_writerEEE",
   "size" : 28,
   "source_file" : "/external/fmtlib/include/fmt/format.h"
  },
  {
   "alignment" : 4,
   "is_const" : true,
   "linker_set_key" : "_ZTIKN3fmt2v68internal12basic_writerINS0_12buffer_rangeIwEEE17padded_int_writerINS5_10int_writerIwNS0_18basic_format_specsIwEEE10num_writerEEE",
   "name" : "const fmt::internal::basic_writer<buffer_range<wchar_t> >::padded_int_writer<fmt::internal::basic_writer<buffer_range<wchar_t> >::int_writer<wchar_t, basic_format_specs<wchar_t> >::num_writer>",
   "referenced_type" : "_ZTIN3fmt2v68internal12basic_writerINS0_12buffer_rangeIwEEE17padded_int_writerINS5_10int_writerIwNS0_18basic_format_specsIwEEE10num_writerEEE",
   "self_type" : "_ZTIKN3fmt2v68internal12basic_writerINS0_12buffer_rangeIwEEE17padded_int_writerINS5_10int_writerIwNS0_18basic_format_specsIwEEE10num_writerEEE",
   "size" : 36,
   "source_file" : "/external/fmtlib/include/fmt/format.h"
  },
  {
   "alignment" : 4,
   "is_const" : true,
   "linker_set_key" : "_ZTIKN3fmt2v68internal12basic_writerINS0_12buffer_rangeIwEEE17padded_int_writerINS5_10int_writerIxNS0_18basic_format_specsIwEEE10bin_writerILi1EEEEE",
   "name" : "const fmt::internal::basic_writer<buffer_range<wchar_t> >::padded_int_writer<fmt::internal::basic_writer<buffer_range<wchar_t> >::int_writer<long long, basic_format_specs<wchar_t> >::bin_writer<1> >",
   "referenced_type" : "_ZTIN3fmt2v68internal12basic_writerINS0_12buffer_rangeIwEEE17padded_int_writerINS5_10int_writerIxNS0_18basic_format_specsIwEEE10bin_writerILi1EEEEE",
   "self_type" : "_ZTIKN3fmt2v68internal12basic_writerINS0_12buffer_rangeIwEEE17padded_int_writerINS5_10int_writerIxNS0_18basic_format_specsIwEEE10bin_writerILi1EEEEE",
   "size" : 32,
   "source_file" : "/external/fmtlib/include/fmt/format.h"
  },
  {
   "alignment" : 4,
   "is_const" : true,
   "linker_set_key" : "_ZTIKN3fmt2v68internal12basic_writerINS0_12buffer_rangeIwEEE17padded_int_writerINS5_10int_writerIxNS0_18basic_format_specsIwEEE10bin_writerILi3EEEEE",
   "name" : "const fmt::internal::basic_writer<buffer_range<wchar_t> >::padded_int_writer<fmt::internal::basic_writer<buffer_range<wchar_t> >::int_writer<long long, basic_format_specs<wchar_t> >::bin_writer<3> >",
   "referenced_type" : "_ZTIN3fmt2v68internal12basic_writerINS0_12buffer_rangeIwEEE17padded_int_writerINS5_10int_writerIxNS0_18basic_format_specsIwEEE10bin_writerILi3EEEEE",
   "self_type" : "_ZTIKN3fmt2v68internal12basic_writerINS0_12buffer_rangeIwEEE17padded_int_writerINS5_10int_writerIxNS0_18basic_format_specsIwEEE10bin_writerILi3EEEEE",
   "size" : 32,
   "source_file" : "/external/fmtlib/include/fmt/format.h"
  },
  {
   "alignment" : 4,
   "is_const" : true,
   "linker_set_key" : "_ZTIKN3fmt2v68internal12basic_writerINS0_12buffer_rangeIwEEE17padded_int_writerINS5_10int_writerIxNS0_18basic_format_specsIwEEE10dec_writerEEE",
   "name" : "const fmt::internal::basic_writer<buffer_range<wchar_t> >::padded_int_writer<fmt::internal::basic_writer<buffer_range<wchar_t> >::int_writer<long long, basic_format_specs<wchar_t> >::dec_writer>",
   "referenced_type" : "_ZTIN3fmt2v68internal12basic_writerINS0_12buffer_rangeIwEEE17padded_int_writerINS5_10int_writerIxNS0_18basic_format_specsIwEEE10dec_writerEEE",
   "self_type" : "_ZTIKN3fmt2v68internal12basic_writerINS0_12buffer_rangeIwEEE17padded_int_writerINS5_10int_writerIxNS0_18basic_format_specsIwEEE10dec_writerEEE",
   "size" : 32,
   "source_file" : "/external/fmtlib/include/fmt/format.h"
  },
  {
   "alignment" : 4,
   "is_const" : true,
   "linker_set_key" : "_ZTIKN3fmt2v68internal12basic_writerINS0_12buffer_rangeIwEEE17padded_int_writerINS5_10int_writerIxNS0_18basic_format_specsIwEEE10hex_writerEEE",
   "name" : "const fmt::internal::basic_writer<buffer_range<wchar_t> >::padded_int_writer<fmt::internal::basic_writer<buffer_range<wchar_t> >::int_writer<long long, basic_format_specs<wchar_t> >::hex_writer>",
   "referenced_type" : "_ZTIN3fmt2v68internal12basic_writerINS0_12buffer_rangeIwEEE17padded_int_writerINS5_10int_writerIxNS0_18basic_format_specsIwEEE10hex_writerEEE",
   "self_type" : "_ZTIKN3fmt2v68internal12basic_writerINS0_12buffer_rangeIwEEE17padded_int_writerINS5_10int_writerIxNS0_18basic_format_specsIwEEE10hex_writerEEE",
   "size" : 28,
   "source_file" : "/external/fmtlib/include/fmt/format.h"
  },
  {
   "alignment" : 4,
   "is_const" : true,
   "linker_set_key" : "_ZTIKN3fmt2v68internal12basic_writerINS0_12buffer_rangeIwEEE17padded_int_writerINS5_10int_writerIxNS0_18basic_format_specsIwEEE10num_writerEEE",
   "name" : "const fmt::internal::basic_writer<buffer_range<wchar_t> >::padded_int_writer<fmt::internal::basic_writer<buffer_range<wchar_t> >::int_writer<long long, basic_format_specs<wchar_t> >::num_writer>",
   "referenced_type" : "_ZTIN3fmt2v68internal12basic_writerINS0_12buffer_rangeIwEEE17padded_int_writerINS5_10int_writerIxNS0_18basic_format_specsIwEEE10num_writerEEE",
   "self_type" : "_ZTIKN3fmt2v68internal12basic_writerINS0_12buffer_rangeIwEEE17padded_int_writerINS5_10int_writerIxNS0_18basic_format_specsIwEEE10num_writerEEE",
   "size" : 40,
   "source_file" : "/external/fmtlib/include/fmt/format.h"
  },
  {
   "alignment" : 4,
   "is_const" : true,
   "linker_set_key" : "_ZTIKN3fmt2v68internal12basic_writerINS0_12buffer_rangeIwEEE17padded_int_writerINS5_10int_writerIyNS0_18basic_format_specsIwEEE10bin_writerILi1EEEEE",
   "name" : "const fmt::internal::basic_writer<buffer_range<wchar_t> >::padded_int_writer<fmt::internal::basic_writer<buffer_range<wchar_t> >::int_writer<unsigned long long, basic_format_specs<wchar_t> >::bin_writer<1> >",
   "referenced_type" : "_ZTIN3fmt2v68internal12basic_writerINS0_12buffer_rangeIwEEE17padded_int_writerINS5_10int_writerIyNS0_18basic_format_specsIwEEE10bin_writerILi1EEEEE",
   "self_type" : "_ZTIKN3fmt2v68internal12basic_writerINS0_12buffer_rangeIwEEE17padded_int_writerINS5_10int_writerIyNS0_18basic_format_specsIwEEE10bin_writerILi1EEEEE",
   "size" : 32,
   "source_file" : "/external/fmtlib/include/fmt/format.h"
  },
  {
   "alignment" : 4,
   "is_const" : true,
   "linker_set_key" : "_ZTIKN3fmt2v68internal12basic_writerINS0_12buffer_rangeIwEEE17padded_int_writerINS5_10int_writerIyNS0_18basic_format_specsIwEEE10bin_writerILi3EEEEE",
   "name" : "const fmt::internal::basic_writer<buffer_range<wchar_t> >::padded_int_writer<fmt::internal::basic_writer<buffer_range<wchar_t> >::int_writer<unsigned long long, basic_format_specs<wchar_t> >::bin_writer<3> >",
   "referenced_type" : "_ZTIN3fmt2v68internal12basic_writerINS0_12buffer_rangeIwEEE17padded_int_writerINS5_10int_writerIyNS0_18basic_format_specsIwEEE10bin_writerILi3EEEEE",
   "self_type" : "_ZTIKN3fmt2v68internal12basic_writerINS0_12buffer_rangeIwEEE17padded_int_writerINS5_10int_writerIyNS0_18basic_format_specsIwEEE10bin_writerILi3EEEEE",
   "size" : 32,
   "source_file" : "/external/fmtlib/include/fmt/format.h"
  },
  {
   "alignment" : 4,
   "is_const" : true,
   "linker_set_key" : "_ZTIKN3fmt2v68internal12basic_writerINS0_12buffer_rangeIwEEE17padded_int_writerINS5_10int_writerIyNS0_18basic_format_specsIwEEE10dec_writerEEE",
   "name" : "const fmt::internal::basic_writer<buffer_range<wchar_t> >::padded_int_writer<fmt::internal::basic_writer<buffer_range<wchar_t> >::int_writer<unsigned long long, basic_format_specs<wchar_t> >::dec_writer>",
   "referenced_type" : "_ZTIN3fmt2v68internal12basic_writerINS0_12buffer_rangeIwEEE17padded_int_writerINS5_10int_writerIyNS0_18basic_format_specsIwEEE10dec_writerEEE",
   "self_type" : "_ZTIKN3fmt2v68internal12basic_writerINS0_12buffer_rangeIwEEE17padded_int_writerINS5_10int_writerIyNS0_18basic_format_specsIwEEE10dec_writerEEE",
   "size" : 32,
   "source_file" : "/external/fmtlib/include/fmt/format.h"
  },
  {
   "alignment" : 4,
   "is_const" : true,
   "linker_set_key" : "_ZTIKN3fmt2v68internal12basic_writerINS0_12buffer_rangeIwEEE17padded_int_writerINS5_10int_writerIyNS0_18basic_format_specsIwEEE10hex_writerEEE",
   "name" : "const fmt::internal::basic_writer<buffer_range<wchar_t> >::padded_int_writer<fmt::internal::basic_writer<buffer_range<wchar_t> >::int_writer<unsigned long long, basic_format_specs<wchar_t> >::hex_writer>",
   "referenced_type" : "_ZTIN3fmt2v68internal12basic_writerINS0_12buffer_rangeIwEEE17padded_int_writerINS5_10int_writerIyNS0_18basic_format_specsIwEEE10hex_writerEEE",
   "self_type" : "_ZTIKN3fmt2v68internal12basic_writerINS0_12buffer_rangeIwEEE17padded_int_writerINS5_10int_writerIyNS0_18basic_format_specsIwEEE10hex_writerEEE",
   "size" : 28,
   "source_file" : "/external/fmtlib/include/fmt/format.h"
  },
  {
   "alignment" : 4,
   "is_const" : true,
   "linker_set_key" : "_ZTIKN3fmt2v68internal12basic_writerINS0_12buffer_rangeIwEEE17padded_int_writerINS5_10int_writerIyNS0_18basic_format_specsIwEEE10num_writerEEE",
   "name" : "const fmt::internal::basic_writer<buffer_range<wchar_t> >::padded_int_writer<fmt::internal::basic_writer<buffer_range<wchar_t> >::int_writer<unsigned long long, basic_format_specs<wchar_t> >::num_writer>",
   "referenced_type" : "_ZTIN3fmt2v68internal12basic_writerINS0_12buffer_rangeIwEEE17padded_int_writerINS5_10int_writerIyNS0_18basic_format_specsIwEEE10num_writerEEE",
   "self_type" : "_ZTIKN3fmt2v68internal12basic_writerINS0_12buffer_rangeIwEEE17padded_int_writerINS5_10int_writerIyNS0_18basic_format_specsIwEEE10num_writerEEE",
   "size" : 40,
   "source_file" : "/external/fmtlib/include/fmt/format.h"
  },
  {
   "alignment" : 4,
   "is_const" : true,
   "linker_set_key" : "_ZTIKN3fmt2v68internal12basic_writerINS0_12buffer_rangeIwEEEE",
   "name" : "const fmt::internal::basic_writer<fmt::buffer_range<wchar_t> >",
   "referenced_type" : "_ZTIN3fmt2v68internal12basic_writerINS0_12buffer_rangeIwEEEE",
   "self_type" : "_ZTIKN3fmt2v68internal12basic_writerINS0_12buffer_rangeIwEEEE",
   "size" : 8,
   "source_file" : "/external/fmtlib/include/fmt/format.h"
  },
  {
   "alignment" : 4,
   "is_const" : true,
   "linker_set_key" : "_ZTIKN3fmt2v68internal12float_writerIcEE",
   "name" : "const fmt::internal::float_writer<char>",
   "referenced_type" : "_ZTIN3fmt2v68internal12float_writerIcEE",
   "self_type" : "_ZTIKN3fmt2v68internal12float_writerIcEE",
   "size" : 28,
   "source_file" : "/external/fmtlib/include/fmt/format.h"
  },
  {
   "alignment" : 4,
   "is_const" : true,
   "linker_set_key" : "_ZTIKN3fmt2v68internal12float_writerIwEE",
   "name" : "const fmt::internal::float_writer<wchar_t>",
   "referenced_type" : "_ZTIN3fmt2v68internal12float_writerIwEE",
   "self_type" : "_ZTIKN3fmt2v68internal12float_writerIwEE",
   "size" : 28,
   "source_file" : "/external/fmtlib/include/fmt/format.h"
  },
  {
   "alignment" : 4,
   "is_const" : true,
   "linker_set_key" : "_ZTIKN3fmt2v68internal12output_rangeINSt3__120back_insert_iteratorINS1_6bufferIcEEEEcEE",
   "name" : "const fmt::internal::output_range<std::back_insert_iterator<fmt::internal::buffer<char> >, char>",
   "referenced_type" : "_ZTIN3fmt2v68internal12output_rangeINSt3__120back_insert_iteratorINS1_6bufferIcEEEEcEE",
   "self_type" : "_ZTIKN3fmt2v68internal12output_rangeINSt3__120back_insert_iteratorINS1_6bufferIcEEEEcEE",
   "size" : 4,
   "source_file" : "/external/fmtlib/include/fmt/format.h"
  },
  {
   "alignment" : 4,
   "is_const" : true,
   "linker_set_key" : "_ZTIKN3fmt2v68internal12output_rangeINSt3__120back_insert_iteratorINS1_6bufferIwEEEEwEE",
   "name" : "const fmt::internal::output_range<std::back_insert_iterator<fmt::internal::buffer<wchar_t> >, wchar_t>",
   "referenced_type" : "_ZTIN3fmt2v68internal12output_rangeINSt3__120back_insert_iteratorINS1_6bufferIwEEEEwEE",
   "self_type" : "_ZTIKN3fmt2v68internal12output_rangeINSt3__120back_insert_iteratorINS1_6bufferIwEEEEwEE",
   "size" : 4,
   "source_file" : "/external/fmtlib/include/fmt/format.h"
  },
  {
   "alignment" : 4,
   "is_const" : true,
   "linker_set_key" : "_ZTIKN3fmt2v68internal12specs_setterIcEE",
   "name" : "const fmt::internal::specs_setter<char>",
   "referenced_type" : "_ZTIN3fmt2v68internal12specs_setterIcEE",
