{
 "array_types" :
 [
  {
   "alignment" : 4,
   "linker_set_key" : "_ZTIA0_i",
   "name" : "int [0]",
   "referenced_type" : "_ZTIi",
   "self_type" : "_ZTIA0_i",
   "source_file" : "/system/core/libcutils/include/cutils/native_handle.h"
  },
  {
   "alignment" : 1,
   "linker_set_key" : "_ZTIA10_c",
   "name" : "char [10]",
   "referenced_type" : "_ZTIc",
   "self_type" : "_ZTIA10_c",
   "size" : 10,
   "source_file" : "/frameworks/av/media/codec2/core/include/C2Config.h"
  },
  {
   "alignment" : 1,
   "linker_set_key" : "_ZTIA11_c",
   "name" : "char [11]",
   "referenced_type" : "_ZTIc",
   "self_type" : "_ZTIA11_c",
   "size" : 11,
   "source_file" : "/frameworks/av/media/codec2/core/include/C2Config.h"
  },
  {
   "alignment" : 1,
   "linker_set_key" : "_ZTIA12_c",
   "name" : "char [12]",
   "referenced_type" : "_ZTIc",
   "self_type" : "_ZTIA12_c",
   "size" : 12,
   "source_file" : "/frameworks/av/media/codec2/core/include/C2Config.h"
  },
  {
   "alignment" : 4,
   "linker_set_key" : "_ZTIA12_j",
   "name" : "unsigned int [12]",
   "referenced_type" : "_ZTIj",
   "self_type" : "_ZTIA12_j",
   "size" : 48,
   "source_file" : "/hardware/libhardware/include/hardware/hardware.h"
  },
  {
   "alignment" : 1,
   "linker_set_key" : "_ZTIA13_c",
   "name" : "char [13]",
   "referenced_type" : "_ZTIc",
   "self_type" : "_ZTIA13_c",
   "size" : 13,
   "source_file" : "/frameworks/av/media/codec2/core/include/C2Config.h"
  },
  {
   "alignment" : 1,
   "linker_set_key" : "_ZTIA14_c",
   "name" : "char [14]",
   "referenced_type" : "_ZTIc",
   "self_type" : "_ZTIA14_c",
   "size" : 14,
   "source_file" : "/frameworks/av/media/codec2/core/include/C2Config.h"
  },
  {
   "alignment" : 1,
   "linker_set_key" : "_ZTIA15_c",
   "name" : "char [15]",
   "referenced_type" : "_ZTIc",
   "self_type" : "_ZTIA15_c",
   "size" : 15,
   "source_file" : "/frameworks/av/media/codec2/core/include/C2Config.h"
  },
  {
   "alignment" : 1,
   "linker_set_key" : "_ZTIA16_c",
   "name" : "char [16]",
   "referenced_type" : "_ZTIc",
   "self_type" : "_ZTIA16_c",
   "size" : 16,
   "source_file" : "/frameworks/av/media/codec2/core/include/C2Config.h"
  },
  {
   "alignment" : 1,
   "linker_set_key" : "_ZTIA17_c",
   "name" : "char [17]",
   "referenced_type" : "_ZTIc",
   "self_type" : "_ZTIA17_c",
   "size" : 17,
   "source_file" : "/frameworks/av/media/codec2/core/include/C2Config.h"
  },
  {
   "alignment" : 1,
   "linker_set_key" : "_ZTIA18_c",
   "name" : "char [18]",
   "referenced_type" : "_ZTIc",
   "self_type" : "_ZTIA18_c",
   "size" : 18,
   "source_file" : "/frameworks/av/media/codec2/core/include/C2Config.h"
  },
  {
   "alignment" : 1,
   "linker_set_key" : "_ZTIA19_c",
   "name" : "char [19]",
   "referenced_type" : "_ZTIc",
   "self_type" : "_ZTIA19_c",
   "size" : 19,
   "source_file" : "/frameworks/av/media/codec2/core/include/C2Config.h"
  },
  {
   "alignment" : 4,
   "linker_set_key" : "_ZTIA1_Pv",
   "name" : "void *[1]",
   "referenced_type" : "_ZTIPv",
   "self_type" : "_ZTIA1_Pv",
   "size" : 4,
   "source_file" : "/hardware/libhardware/include/hardware/gralloc.h"
  },
  {
   "alignment" : 1,
   "linker_set_key" : "_ZTIA20_c",
   "name" : "char [20]",
   "referenced_type" : "_ZTIc",
   "self_type" : "_ZTIA20_c",
   "size" : 20,
   "source_file" : "/frameworks/av/media/codec2/core/include/C2Config.h"
  },
  {
   "alignment" : 1,
   "linker_set_key" : "_ZTIA21_c",
   "name" : "char [21]",
   "referenced_type" : "_ZTIc",
   "self_type" : "_ZTIA21_c",
   "size" : 21,
   "source_file" : "/frameworks/av/media/codec2/core/include/C2Config.h"
  },
  {
   "alignment" : 1,
   "linker_set_key" : "_ZTIA22_c",
   "name" : "char [22]",
   "referenced_type" : "_ZTIc",
   "self_type" : "_ZTIA22_c",
   "size" : 22,
   "source_file" : "/frameworks/av/media/codec2/core/include/C2Config.h"
  },
  {
   "alignment" : 1,
   "linker_set_key" : "_ZTIA23_c",
   "name" : "char [23]",
   "referenced_type" : "_ZTIc",
   "self_type" : "_ZTIA23_c",
   "size" : 23,
   "source_file" : "/frameworks/av/media/codec2/core/include/C2Config.h"
  },
  {
   "alignment" : 1,
   "linker_set_key" : "_ZTIA24_c",
   "name" : "char [24]",
   "referenced_type" : "_ZTIc",
   "self_type" : "_ZTIA24_c",
   "size" : 24,
   "source_file" : "/frameworks/av/media/codec2/core/include/C2Config.h"
  },
  {
   "alignment" : 1,
   "linker_set_key" : "_ZTIA25_c",
   "name" : "char [25]",
   "referenced_type" : "_ZTIc",
   "self_type" : "_ZTIA25_c",
   "size" : 25,
   "source_file" : "/frameworks/av/media/codec2/core/include/C2Config.h"
  },
  {
   "alignment" : 4,
   "linker_set_key" : "_ZTIA25_j",
   "name" : "unsigned int [25]",
   "referenced_type" : "_ZTIj",
   "self_type" : "_ZTIA25_j",
   "size" : 100,
   "source_file" : "/hardware/libhardware/include/hardware/hardware.h"
  },
  {
   "alignment" : 1,
   "linker_set_key" : "_ZTIA26_c",
   "name" : "char [26]",
   "referenced_type" : "_ZTIc",
   "self_type" : "_ZTIA26_c",
   "size" : 26,
   "source_file" : "/frameworks/av/media/codec2/core/include/C2Config.h"
  },
  {
   "alignment" : 1,
   "linker_set_key" : "_ZTIA27_c",
   "name" : "char [27]",
   "referenced_type" : "_ZTIc",
   "self_type" : "_ZTIA27_c",
   "size" : 27,
   "source_file" : "/frameworks/av/media/codec2/core/include/C2Config.h"
  },
  {
   "alignment" : 1,
   "linker_set_key" : "_ZTIA28_c",
   "name" : "char [28]",
   "referenced_type" : "_ZTIc",
   "self_type" : "_ZTIA28_c",
   "size" : 28,
   "source_file" : "/frameworks/av/media/codec2/core/include/C2Config.h"
  },
  {
   "alignment" : 1,
   "linker_set_key" : "_ZTIA29_c",
   "name" : "char [29]",
   "referenced_type" : "_ZTIc",
   "self_type" : "_ZTIA29_c",
   "size" : 29,
   "source_file" : "/frameworks/av/media/codec2/core/include/C2Config.h"
  },
  {
   "alignment" : 1,
   "linker_set_key" : "_ZTIA30_c",
   "name" : "char [30]",
   "referenced_type" : "_ZTIc",
   "self_type" : "_ZTIA30_c",
   "size" : 30,
   "source_file" : "/frameworks/av/media/codec2/core/include/C2Config.h"
  },
  {
   "alignment" : 1,
   "linker_set_key" : "_ZTIA31_c",
   "name" : "char [31]",
   "referenced_type" : "_ZTIc",
   "self_type" : "_ZTIA31_c",
   "size" : 31,
   "source_file" : "/frameworks/av/media/codec2/core/include/C2Config.h"
  },
  {
   "alignment" : 1,
   "linker_set_key" : "_ZTIA35_c",
   "name" : "char [35]",
   "referenced_type" : "_ZTIc",
   "self_type" : "_ZTIA35_c",
   "size" : 35,
   "source_file" : "/frameworks/av/media/codec2/core/include/C2Config.h"
  },
  {
   "alignment" : 1,
   "linker_set_key" : "_ZTIA36_c",
   "name" : "char [36]",
   "referenced_type" : "_ZTIc",
   "self_type" : "_ZTIA36_c",
   "size" : 36,
   "source_file" : "/frameworks/av/media/codec2/core/include/C2Config.h"
  },
  {
   "alignment" : 4,
   "linker_set_key" : "_ZTIA4_11C2PlaneInfo",
   "name" : "C2PlaneInfo [4]",
   "referenced_type" : "_ZTI11C2PlaneInfo",
   "self_type" : "_ZTIA4_11C2PlaneInfo",
   "size" : 176,
   "source_file" : "/frameworks/av/media/codec2/core/include/C2Buffer.h"
  },
  {
   "alignment" : 4,
   "linker_set_key" : "_ZTIA6_Pv",
   "name" : "void *[6]",
   "referenced_type" : "_ZTIPv",
   "self_type" : "_ZTIA6_Pv",
   "size" : 24,
   "source_file" : "/hardware/libhardware/include/hardware/fb.h"
  },
  {
   "alignment" : 4,
   "linker_set_key" : "_ZTIA7_Pv",
   "name" : "void *[7]",
   "referenced_type" : "_ZTIPv",
   "self_type" : "_ZTIA7_Pv",
   "size" : 28,
   "source_file" : "/hardware/libhardware/include/hardware/gralloc.h"
  },
  {
   "alignment" : 4,
   "linker_set_key" : "_ZTIA7_i",
   "name" : "int [7]",
   "referenced_type" : "_ZTIi",
   "self_type" : "_ZTIA7_i",
   "size" : 28,
   "source_file" : "/hardware/libhardware/include/hardware/fb.h"
  },
  {
   "alignment" : 1,
   "linker_set_key" : "_ZTIA8_c",
   "name" : "char [8]",
   "referenced_type" : "_ZTIc",
   "self_type" : "_ZTIA8_c",
   "size" : 8,
   "source_file" : "/frameworks/av/media/codec2/core/include/C2Config.h"
  },
  {
   "alignment" : 4,
   "linker_set_key" : "_ZTIA8_j",
   "name" : "unsigned int [8]",
   "referenced_type" : "_ZTIj",
   "self_type" : "_ZTIA8_j",
   "size" : 32,
   "source_file" : "/system/core/libsystem/include/system/graphics.h"
  },
  {
   "alignment" : 1,
   "linker_set_key" : "_ZTIA9_c",
   "name" : "char [9]",
   "referenced_type" : "_ZTIc",
   "self_type" : "_ZTIA9_c",
   "size" : 9,
   "source_file" : "/frameworks/av/media/codec2/core/include/C2Config.h"
  },
  {
   "linker_set_key" : "_ZTIA_20C2ChromaOffsetStruct",
   "name" : "C2ChromaOffsetStruct []",
   "referenced_type" : "_ZTI20C2ChromaOffsetStruct",
   "self_type" : "_ZTIA_20C2ChromaOffsetStruct",
   "source_file" : "/frameworks/av/media/codec2/core/include/C2ParamDef.h"
  },
  {
   "linker_set_key" : "_ZTIA_f",
   "name" : "float []",
   "referenced_type" : "_ZTIf",
   "self_type" : "_ZTIA_f",
   "source_file" : "/system/core/libsystem/include/system/graphics.h"
  },
  {
   "linker_set_key" : "_ZTIA_h",
   "name" : "unsigned char []",
   "referenced_type" : "_ZTIh",
   "self_type" : "_ZTIA_h",
   "source_file" : "/frameworks/av/media/codec2/core/include/C2ParamDef.h"
  }
 ],
 "builtin_types" :
 [
  {
   "alignment" : 1,
   "is_integral" : true,
   "is_unsigned" : true,
   "linker_set_key" : "_ZTIb",
   "name" : "bool",
   "referenced_type" : "_ZTIb",
   "self_type" : "_ZTIb",
   "size" : 1
  },
  {
   "alignment" : 1,
   "is_integral" : true,
   "linker_set_key" : "_ZTIc",
   "name" : "char",
   "referenced_type" : "_ZTIc",
   "self_type" : "_ZTIc",
   "size" : 1
  },
  {
   "alignment" : 4,
   "linker_set_key" : "_ZTIf",
   "name" : "float",
   "referenced_type" : "_ZTIf",
   "self_type" : "_ZTIf",
   "size" : 4
  },
  {
   "alignment" : 1,
   "is_integral" : true,
   "is_unsigned" : true,
   "linker_set_key" : "_ZTIh",
   "name" : "unsigned char",
   "referenced_type" : "_ZTIh",
   "self_type" : "_ZTIh",
   "size" : 1
  },
  {
   "alignment" : 4,
   "is_integral" : true,
   "linker_set_key" : "_ZTIi",
   "name" : "int",
   "referenced_type" : "_ZTIi",
   "self_type" : "_ZTIi",
   "size" : 4
  },
  {
   "alignment" : 4,
   "is_integral" : true,
   "is_unsigned" : true,
   "linker_set_key" : "_ZTIj",
   "name" : "unsigned int",
   "referenced_type" : "_ZTIj",
   "self_type" : "_ZTIj",
   "size" : 4
  },
  {
   "alignment" : 2,
   "is_integral" : true,
   "is_unsigned" : true,
   "linker_set_key" : "_ZTIt",
   "name" : "unsigned short",
   "referenced_type" : "_ZTIt",
   "self_type" : "_ZTIt",
   "size" : 2
  },
  {
   "linker_set_key" : "_ZTIv",
   "name" : "void",
   "referenced_type" : "_ZTIv",
   "self_type" : "_ZTIv"
  },
  {
   "alignment" : 4,
   "is_integral" : true,
   "linker_set_key" : "_ZTIx",
   "name" : "long long",
   "referenced_type" : "_ZTIx",
   "self_type" : "_ZTIx",
   "size" : 8
  },
  {
   "alignment" : 4,
   "is_integral" : true,
   "is_unsigned" : true,
   "linker_set_key" : "_ZTIy",
   "name" : "unsigned long long",
   "referenced_type" : "_ZTIy",
   "self_type" : "_ZTIy",
   "size" : 8
  }
 ],
 "elf_functions" : [],
 "elf_objects" : [],
 "enum_types" :
 [
  {
   "alignment" : 4,
   "enum_fields" :
   [
    {
     "enum_field_value" : 0,
     "name" : "C2_OK"
    },
    {
     "enum_field_value" : 22,
     "name" : "C2_BAD_VALUE"
    },
    {
     "enum_field_value" : 6,
     "name" : "C2_BAD_INDEX"
    },
    {
     "enum_field_value" : 95,
     "name" : "C2_CANNOT_DO"
    },
    {
     "enum_field_value" : 17,
     "name" : "C2_DUPLICATE"
    },
    {
     "enum_field_value" : 2,
     "name" : "C2_NOT_FOUND"
    },
    {
     "enum_field_value" : 1,
     "name" : "C2_BAD_STATE"
    },
    {
     "enum_field_value" : 11,
     "name" : "C2_BLOCKING"
    },
    {
     "enum_field_value" : 4,
     "name" : "C2_CANCELED"
    },
    {
     "enum_field_value" : 12,
     "name" : "C2_NO_MEMORY"
    },
    {
     "enum_field_value" : 13,
     "name" : "C2_REFUSED"
    },
    {
     "enum_field_value" : 110,
     "name" : "C2_TIMED_OUT"
    },
    {
     "enum_field_value" : 38,
     "name" : "C2_OMITTED"
    },
    {
     "enum_field_value" : 14,
     "name" : "C2_CORRUPTED"
    },
    {
     "enum_field_value" : 19,
     "name" : "C2_NO_INIT"
    }
   ],
   "linker_set_key" : "_ZTI11c2_status_t",
   "name" : "c2_status_t",
   "referenced_type" : "_ZTI11c2_status_t",
   "self_type" : "_ZTI11c2_status_t",
   "size" : 4,
   "source_file" : "/frameworks/av/media/codec2/core/include/C2.h",
   "underlying_type" : "_ZTIi"
  },
  {
   "alignment" : 4,
   "enum_fields" :
   [
    {
     "enum_field_value" : 1,
     "name" : "HAL_HDR_DOLBY_VISION"
    },
    {
     "enum_field_value" : 2,
     "name" : "HAL_HDR_HDR10"
    },
    {
     "enum_field_value" : 3,
     "name" : "HAL_HDR_HLG"
    }
   ],
   "linker_set_key" : "_ZTI13android_hdr_t",
   "name" : "android_hdr_t",
   "referenced_type" : "_ZTI13android_hdr_t",
   "self_type" : "_ZTI13android_hdr_t",
   "size" : 4,
   "source_file" : "/system/core/libsystem/include/system/graphics-base-v1.0.h",
   "underlying_type" : "_ZTIj"
  },
  {
   "alignment" : 4,
   "enum_fields" :
   [
    {
     "enum_field_value" : 0,
     "name" : "C2_DONT_BLOCK"
    },
    {
     "enum_field_value" : 1,
     "name" : "C2_MAY_BLOCK"
    }
   ],
   "linker_set_key" : "_ZTI13c2_blocking_t",
   "name" : "c2_blocking_t",
   "referenced_type" : "_ZTI13c2_blocking_t",
   "self_type" : "_ZTI13c2_blocking_t",
   "size" : 4,
   "source_file" : "/frameworks/av/media/codec2/core/include/C2.h",
   "underlying_type" : "_ZTIi"
  },
  {
   "alignment" : 4,
   "enum_fields" :
   [
    {
     "enum_field_value" : 4,
     "name" : "HAL_HDR_HDR10_PLUS"
    }
   ],
   "linker_set_key" : "_ZTI18android_hdr_v1_2_t",
   "name" : "android_hdr_v1_2_t",
   "referenced_type" : "_ZTI18android_hdr_v1_2_t",
   "self_type" : "_ZTI18android_hdr_v1_2_t",
   "size" : 4,
   "source_file" : "/system/core/libsystem/include/system/graphics-base-v1.2.h",
   "underlying_type" : "_ZTIj"
  },
  {
   "alignment" : 4,
   "enum_fields" :
   [
    {
     "enum_field_value" : 0,
     "name" : "HAL_DATASPACE_UNKNOWN"
    },
    {
     "enum_field_value" : 1,
     "name" : "HAL_DATASPACE_ARBITRARY"
    },
    {
     "enum_field_value" : 16,
     "name" : "HAL_DATASPACE_STANDARD_SHIFT"
    },
    {
     "enum_field_value" : 4128768,
     "name" : "HAL_DATASPACE_STANDARD_MASK"
    },
    {
     "enum_field_value" : 0,
     "name" : "HAL_DATASPACE_STANDARD_UNSPECIFIED"
    },
    {
     "enum_field_value" : 65536,
     "name" : "HAL_DATASPACE_STANDARD_BT709"
    },
    {
     "enum_field_value" : 131072,
     "name" : "HAL_DATASPACE_STANDARD_BT601_625"
    },
    {
     "enum_field_value" : 196608,
     "name" : "HAL_DATASPACE_STANDARD_BT601_625_UNADJUSTED"
    },
    {
     "enum_field_value" : 262144,
     "name" : "HAL_DATASPACE_STANDARD_BT601_525"
    },
    {
     "enum_field_value" : 327680,
     "name" : "HAL_DATASPACE_STANDARD_BT601_525_UNADJUSTED"
    },
    {
     "enum_field_value" : 393216,
     "name" : "HAL_DATASPACE_STANDARD_BT2020"
    },
    {
     "enum_field_value" : 458752,
     "name" : "HAL_DATASPACE_STANDARD_BT2020_CONSTANT_LUMINANCE"
    },
    {
     "enum_field_value" : 524288,
     "name" : "HAL_DATASPACE_STANDARD_BT470M"
    },
    {
     "enum_field_value" : 589824,
     "name" : "HAL_DATASPACE_STANDARD_FILM"
    },
    {
     "enum_field_value" : 655360,
     "name" : "HAL_DATASPACE_STANDARD_DCI_P3"
    },
    {
     "enum_field_value" : 720896,
     "name" : "HAL_DATASPACE_STANDARD_ADOBE_RGB"
    },
    {
     "enum_field_value" : 22,
     "name" : "HAL_DATASPACE_TRANSFER_SHIFT"
    },
    {
     "enum_field_value" : 130023424,
     "name" : "HAL_DATASPACE_TRANSFER_MASK"
    },
    {
     "enum_field_value" : 0,
     "name" : "HAL_DATASPACE_TRANSFER_UNSPECIFIED"
    },
    {
     "enum_field_value" : 4194304,
     "name" : "HAL_DATASPACE_TRANSFER_LINEAR"
    },
    {
     "enum_field_value" : 8388608,
     "name" : "HAL_DATASPACE_TRANSFER_SRGB"
    },
    {
     "enum_field_value" : 12582912,
     "name" : "HAL_DATASPACE_TRANSFER_SMPTE_170M"
    },
    {
     "enum_field_value" : 16777216,
     "name" : "HAL_DATASPACE_TRANSFER_GAMMA2_2"
    },
    {
     "enum_field_value" : 20971520,
     "name" : "HAL_DATASPACE_TRANSFER_GAMMA2_6"
    },
    {
     "enum_field_value" : 25165824,
     "name" : "HAL_DATASPACE_TRANSFER_GAMMA2_8"
    },
    {
     "enum_field_value" : 29360128,
     "name" : "HAL_DATASPACE_TRANSFER_ST2084"
    },
    {
     "enum_field_value" : 33554432,
     "name" : "HAL_DATASPACE_TRANSFER_HLG"
    },
    {
     "enum_field_value" : 27,
     "name" : "HAL_DATASPACE_RANGE_SHIFT"
    },
    {
     "enum_field_value" : 939524096,
     "name" : "HAL_DATASPACE_RANGE_MASK"
    },
    {
     "enum_field_value" : 0,
     "name" : "HAL_DATASPACE_RANGE_UNSPECIFIED"
    },
    {
     "enum_field_value" : 134217728,
     "name" : "HAL_DATASPACE_RANGE_FULL"
    },
    {
     "enum_field_value" : 268435456,
     "name" : "HAL_DATASPACE_RANGE_LIMITED"
    },
    {
     "enum_field_value" : 402653184,
     "name" : "HAL_DATASPACE_RANGE_EXTENDED"
    },
    {
     "enum_field_value" : 512,
     "name" : "HAL_DATASPACE_SRGB_LINEAR"
    },
    {
     "enum_field_value" : 138477568,
     "name" : "HAL_DATASPACE_V0_SRGB_LINEAR"
    },
    {
     "enum_field_value" : 406913024,
     "name" : "HAL_DATASPACE_V0_SCRGB_LINEAR"
    },
    {
     "enum_field_value" : 513,
     "name" : "HAL_DATASPACE_SRGB"
    },
    {
     "enum_field_value" : 142671872,
     "name" : "HAL_DATASPACE_V0_SRGB"
    },
    {
     "enum_field_value" : 411107328,
     "name" : "HAL_DATASPACE_V0_SCRGB"
    },
    {
     "enum_field_value" : 257,
     "name" : "HAL_DATASPACE_JFIF"
    },
    {
     "enum_field_value" : 146931712,
     "name" : "HAL_DATASPACE_V0_JFIF"
    },
    {
     "enum_field_value" : 258,
     "name" : "HAL_DATASPACE_BT601_625"
    },
    {
     "enum_field_value" : 281149440,
     "name" : "HAL_DATASPACE_V0_BT601_625"
    },
    {
     "enum_field_value" : 259,
     "name" : "HAL_DATASPACE_BT601_525"
    },
    {
     "enum_field_value" : 281280512,
     "name" : "HAL_DATASPACE_V0_BT601_525"
    },
    {
     "enum_field_value" : 260,
     "name" : "HAL_DATASPACE_BT709"
    },
    {
     "enum_field_value" : 281083904,
     "name" : "HAL_DATASPACE_V0_BT709"
    },
    {
     "enum_field_value" : 139067392,
     "name" : "HAL_DATASPACE_DCI_P3_LINEAR"
    },
    {
     "enum_field_value" : 155844608,
     "name" : "HAL_DATASPACE_DCI_P3"
    },
    {
     "enum_field_value" : 139067392,
     "name" : "HAL_DATASPACE_DISPLAY_P3_LINEAR"
    },
    {
     "enum_field_value" : 143261696,
     "name" : "HAL_DATASPACE_DISPLAY_P3"
    },
    {
     "enum_field_value" : 151715840,
     "name" : "HAL_DATASPACE_ADOBE_RGB"
    },
    {
     "enum_field_value" : 138805248,
     "name" : "HAL_DATASPACE_BT2020_LINEAR"
    },
    {
     "enum_field_value" : 147193856,
     "name" : "HAL_DATASPACE_BT2020"
    },
    {
     "enum_field_value" : 163971072,
     "name" : "HAL_DATASPACE_BT2020_PQ"
    },
    {
     "enum_field_value" : 4096,
     "name" : "HAL_DATASPACE_DEPTH"
    },
    {
     "enum_field_value" : 4097,
     "name" : "HAL_DATASPACE_SENSOR"
    }
   ],
   "linker_set_key" : "_ZTI19android_dataspace_t",
   "name" : "android_dataspace_t",
   "referenced_type" : "_ZTI19android_dataspace_t",
   "self_type" : "_ZTI19android_dataspace_t",
   "size" : 4,
   "source_file" : "/system/core/libsystem/include/system/graphics-base-v1.0.h",
   "underlying_type" : "_ZTIj"
  },
  {
   "alignment" : 4,
   "enum_fields" :
   [
    {
     "enum_field_value" : 0,
     "name" : "FLEX_FORMAT_INVALID"
    },
    {
     "enum_field_value" : 1,
     "name" : "FLEX_FORMAT_Y"
    },
    {
     "enum_field_value" : 7,
     "name" : "FLEX_FORMAT_YCbCr"
    },
    {
     "enum_field_value" : 1073741831,
     "name" : "FLEX_FORMAT_YCbCrA"
    },
    {
     "enum_field_value" : 7168,
     "name" : "FLEX_FORMAT_RGB"
    },
    {
     "enum_field_value" : 1073748992,
     "name" : "FLEX_FORMAT_RGBA"
    }
   ],
   "linker_set_key" : "_ZTI19android_flex_format",
   "name" : "android_flex_format",
   "referenced_type" : "_ZTI19android_flex_format",
   "self_type" : "_ZTI19android_flex_format",
   "size" : 4,
   "source_file" : "/system/core/libsystem/include/system/graphics.h",
   "underlying_type" : "_ZTIj"
  },
  {
   "alignment" : 4,
   "enum_fields" :
   [
    {
     "enum_field_value" : 1,
     "name" : "HAL_TRANSFORM_FLIP_H"
    },
    {
     "enum_field_value" : 2,
     "name" : "HAL_TRANSFORM_FLIP_V"
    },
    {
     "enum_field_value" : 4,
     "name" : "HAL_TRANSFORM_ROT_90"
    },
    {
     "enum_field_value" : 3,
     "name" : "HAL_TRANSFORM_ROT_180"
    },
    {
     "enum_field_value" : 7,
     "name" : "HAL_TRANSFORM_ROT_270"
    }
   ],
   "linker_set_key" : "_ZTI19android_transform_t",
   "name" : "android_transform_t",
   "referenced_type" : "_ZTI19android_transform_t",
   "self_type" : "_ZTI19android_transform_t",
   "size" : 4,
   "source_file" : "/system/core/libsystem/include/system/graphics-base-v1.0.h",
   "underlying_type" : "_ZTIj"
  },
  {
   "alignment" : 4,
   "enum_fields" :
   [
    {
     "enum_field_value" : 0,
     "name" : "HAL_COLOR_MODE_NATIVE"
    },
    {
     "enum_field_value" : 1,
     "name" : "HAL_COLOR_MODE_STANDARD_BT601_625"
    },
    {
     "enum_field_value" : 2,
     "name" : "HAL_COLOR_MODE_STANDARD_BT601_625_UNADJUSTED"
    },
    {
     "enum_field_value" : 3,
     "name" : "HAL_COLOR_MODE_STANDARD_BT601_525"
    },
    {
     "enum_field_value" : 4,
     "name" : "HAL_COLOR_MODE_STANDARD_BT601_525_UNADJUSTED"
    },
    {
     "enum_field_value" : 5,
     "name" : "HAL_COLOR_MODE_STANDARD_BT709"
    },
    {
     "enum_field_value" : 6,
     "name" : "HAL_COLOR_MODE_DCI_P3"
    },
    {
     "enum_field_value" : 7,
     "name" : "HAL_COLOR_MODE_SRGB"
    },
    {
     "enum_field_value" : 8,
     "name" : "HAL_COLOR_MODE_ADOBE_RGB"
    },
    {
     "enum_field_value" : 9,
     "name" : "HAL_COLOR_MODE_DISPLAY_P3"
    }
   ],
   "linker_set_key" : "_ZTI20android_color_mode_t",
   "name" : "android_color_mode_t",
   "referenced_type" : "_ZTI20android_color_mode_t",
   "self_type" : "_ZTI20android_color_mode_t",
   "size" : 4,
   "source_file" : "/system/core/libsystem/include/system/graphics-base-v1.0.h",
   "underlying_type" : "_ZTIj"
  },
  {
   "alignment" : 4,
   "enum_fields" :
   [
    {
     "enum_field_value" : 1,
     "name" : "FLEX_COMPONENT_Y"
    },
    {
     "enum_field_value" : 2,
     "name" : "FLEX_COMPONENT_Cb"
    },
    {
     "enum_field_value" : 4,
     "name" : "FLEX_COMPONENT_Cr"
    },
    {
     "enum_field_value" : 1024,
     "name" : "FLEX_COMPONENT_R"
    },
    {
     "enum_field_value" : 2048,
     "name" : "FLEX_COMPONENT_G"
    },
    {
     "enum_field_value" : 4096,
     "name" : "FLEX_COMPONENT_B"
    },
    {
     "enum_field_value" : 1073741824,
     "name" : "FLEX_COMPONENT_A"
    }
   ],
   "linker_set_key" : "_ZTI22android_flex_component",
   "name" : "android_flex_component",
   "referenced_type" : "_ZTI22android_flex_component",
   "self_type" : "_ZTI22android_flex_component",
   "size" : 4,
   "source_file" : "/system/core/libsystem/include/system/graphics.h",
   "underlying_type" : "_ZTIj"
  },
  {
   "alignment" : 4,
   "enum_fields" :
   [
    {
     "enum_field_value" : 1,
     "name" : "HAL_PIXEL_FORMAT_RGBA_8888"
    },
    {
     "enum_field_value" : 2,
     "name" : "HAL_PIXEL_FORMAT_RGBX_8888"
    },
    {
     "enum_field_value" : 3,
     "name" : "HAL_PIXEL_FORMAT_RGB_888"
    },
    {
     "enum_field_value" : 4,
     "name" : "HAL_PIXEL_FORMAT_RGB_565"
    },
    {
     "enum_field_value" : 5,
     "name" : "HAL_PIXEL_FORMAT_BGRA_8888"
    },
    {
     "enum_field_value" : 16,
     "name" : "HAL_PIXEL_FORMAT_YCBCR_422_SP"
    },
    {
     "enum_field_value" : 17,
     "name" : "HAL_PIXEL_FORMAT_YCRCB_420_SP"
    },
    {
     "enum_field_value" : 20,
     "name" : "HAL_PIXEL_FORMAT_YCBCR_422_I"
    },
    {
     "enum_field_value" : 22,
     "name" : "HAL_PIXEL_FORMAT_RGBA_FP16"
    },
    {
     "enum_field_value" : 32,
     "name" : "HAL_PIXEL_FORMAT_RAW16"
    },
    {
     "enum_field_value" : 33,
     "name" : "HAL_PIXEL_FORMAT_BLOB"
    },
    {
     "enum_field_value" : 34,
     "name" : "HAL_PIXEL_FORMAT_IMPLEMENTATION_DEFINED"
    },
    {
     "enum_field_value" : 35,
     "name" : "HAL_PIXEL_FORMAT_YCBCR_420_888"
    },
    {
     "enum_field_value" : 36,
     "name" : "HAL_PIXEL_FORMAT_RAW_OPAQUE"
    },
    {
     "enum_field_value" : 37,
     "name" : "HAL_PIXEL_FORMAT_RAW10"
    },
    {
     "enum_field_value" : 38,
     "name" : "HAL_PIXEL_FORMAT_RAW12"
    },
    {
     "enum_field_value" : 43,
     "name" : "HAL_PIXEL_FORMAT_RGBA_1010102"
    },
    {
     "enum_field_value" : 538982489,
     "name" : "HAL_PIXEL_FORMAT_Y8"
    },
    {
     "enum_field_value" : 540422489,
     "name" : "HAL_PIXEL_FORMAT_Y16"
    },
    {
     "enum_field_value" : 842094169,
     "name" : "HAL_PIXEL_FORMAT_YV12"
    }
   ],
   "linker_set_key" : "_ZTI22android_pixel_format_t",
   "name" : "android_pixel_format_t",
   "referenced_type" : "_ZTI22android_pixel_format_t",
   "self_type" : "_ZTI22android_pixel_format_t",
   "size" : 4,
   "source_file" : "/system/core/libsystem/include/system/graphics-base-v1.0.h",
   "underlying_type" : "_ZTIj"
  },
  {
   "alignment" : 4,
   "enum_fields" :
   [
    {
     "enum_field_value" : 0,
     "name" : "kParamIndexWorkOrdinal"
    }
   ],
   "linker_set_key" : "_ZTI23$kParamIndexWorkOrdinal",
   "name" : "(anonymous enum at frameworks/av/media/codec2/core/include/C2Work.h:90:1)",
   "referenced_type" : "_ZTI23$kParamIndexWorkOrdinal",
   "self_type" : "_ZTI23$kParamIndexWorkOrdinal",
   "size" : 4,
   "source_file" : "/frameworks/av/media/codec2/core/include/C2Work.h",
   "underlying_type" : "_ZTIj"
  },
  {
   "alignment" : 4,
   "enum_fields" :
   [
    {
     "enum_field_value" : 281411584,
     "name" : "HAL_DATASPACE_BT2020_ITU"
    },
    {
     "enum_field_value" : 298188800,
     "name" : "HAL_DATASPACE_BT2020_ITU_PQ"
    },
    {
     "enum_field_value" : 302383104,
     "name" : "HAL_DATASPACE_BT2020_ITU_HLG"
    },
    {
     "enum_field_value" : 168165376,
     "name" : "HAL_DATASPACE_BT2020_HLG"
    }
   ],
   "linker_set_key" : "_ZTI24android_dataspace_v1_1_t",
   "name" : "android_dataspace_v1_1_t",
   "referenced_type" : "_ZTI24android_dataspace_v1_1_t",
   "self_type" : "_ZTI24android_dataspace_v1_1_t",
   "size" : 4,
   "source_file" : "/system/core/libsystem/include/system/graphics-base-v1.1.h",
   "underlying_type" : "_ZTIj"
  },
  {
   "alignment" : 4,
   "enum_fields" :
   [
    {
     "enum_field_value" : 142999552,
     "name" : "HAL_DATASPACE_DISPLAY_BT2020"
    },
    {
     "enum_field_value" : 4098,
     "name" : "HAL_DATASPACE_DYNAMIC_DEPTH"
    },
    {
     "enum_field_value" : 4099,
     "name" : "HAL_DATASPACE_JPEG_APP_SEGMENTS"
    },
    {
     "enum_field_value" : 4100,
     "name" : "HAL_DATASPACE_HEIF"
    }
   ],
   "linker_set_key" : "_ZTI24android_dataspace_v1_2_t",
   "name" : "android_dataspace_v1_2_t",
   "referenced_type" : "_ZTI24android_dataspace_v1_2_t",
   "self_type" : "_ZTI24android_dataspace_v1_2_t",
   "size" : 4,
   "source_file" : "/system/core/libsystem/include/system/graphics-base-v1.2.h",
   "underlying_type" : "_ZTIj"
  },
  {
   "alignment" : 4,
   "enum_fields" :
   [
    {
     "enum_field_value" : 0,
     "name" : "GRALLOC_USAGE_SW_READ_NEVER"
    },
    {
     "enum_field_value" : 2,
     "name" : "GRALLOC_USAGE_SW_READ_RARELY"
    },
    {
     "enum_field_value" : 3,
     "name" : "GRALLOC_USAGE_SW_READ_OFTEN"
    },
    {
     "enum_field_value" : 15,
     "name" : "GRALLOC_USAGE_SW_READ_MASK"
    },
    {
     "enum_field_value" : 0,
     "name" : "GRALLOC_USAGE_SW_WRITE_NEVER"
    },
    {
     "enum_field_value" : 32,
     "name" : "GRALLOC_USAGE_SW_WRITE_RARELY"
    },
    {
     "enum_field_value" : 48,
     "name" : "GRALLOC_USAGE_SW_WRITE_OFTEN"
    },
    {
     "enum_field_value" : 240,
     "name" : "GRALLOC_USAGE_SW_WRITE_MASK"
    },
    {
     "enum_field_value" : 256,
     "name" : "GRALLOC_USAGE_HW_TEXTURE"
    },
    {
     "enum_field_value" : 512,
     "name" : "GRALLOC_USAGE_HW_RENDER"
    },
    {
     "enum_field_value" : 1024,
     "name" : "GRALLOC_USAGE_HW_2D"
    },
    {
     "enum_field_value" : 2048,
     "name" : "GRALLOC_USAGE_HW_COMPOSER"
    },
    {
     "enum_field_value" : 4096,
     "name" : "GRALLOC_USAGE_HW_FB"
    },
    {
     "enum_field_value" : 8192,
     "name" : "GRALLOC_USAGE_EXTERNAL_DISP"
    },
    {
     "enum_field_value" : 16384,
     "name" : "GRALLOC_USAGE_PROTECTED"
    },
    {
     "enum_field_value" : 32768,
     "name" : "GRALLOC_USAGE_CURSOR"
    },
    {
     "enum_field_value" : 65536,
     "name" : "GRALLOC_USAGE_HW_VIDEO_ENCODER"
    },
    {
     "enum_field_value" : 131072,
     "name" : "GRALLOC_USAGE_HW_CAMERA_WRITE"
    },
    {
     "enum_field_value" : 262144,
     "name" : "GRALLOC_USAGE_HW_CAMERA_READ"
    },
    {
     "enum_field_value" : 393216,
     "name" : "GRALLOC_USAGE_HW_CAMERA_ZSL"
    },
    {
     "enum_field_value" : 393216,
     "name" : "GRALLOC_USAGE_HW_CAMERA_MASK"
    },
    {
     "enum_field_value" : 466688,
     "name" : "GRALLOC_USAGE_HW_MASK"
    },
    {
     "enum_field_value" : 1048576,
     "name" : "GRALLOC_USAGE_RENDERSCRIPT"
    },
    {
     "enum_field_value" : 2097152,
     "name" : "GRALLOC_USAGE_FOREIGN_BUFFERS"
    },
    {
     "enum_field_value" : 134217728,
     "name" : "GRALLOC_USAGE_HW_IMAGE_ENCODER"
    },
    {
     "enum_field_value" : -2097153,
     "name" : "GRALLOC_USAGE_ALLOC_MASK"
    },
    {
     "enum_field_value" : 268435456,
     "name" : "GRALLOC_USAGE_PRIVATE_0"
    },
    {
     "enum_field_value" : 536870912,
     "name" : "GRALLOC_USAGE_PRIVATE_1"
    },
    {
     "enum_field_value" : 1073741824,
     "name" : "GRALLOC_USAGE_PRIVATE_2"
    },
    {
     "enum_field_value" : -2147483648,
     "name" : "GRALLOC_USAGE_PRIVATE_3"
    },
    {
     "enum_field_value" : -268435456,
     "name" : "GRALLOC_USAGE_PRIVATE_MASK"
    }
   ],
   "linker_set_key" : "_ZTI25$GRALLOC_USAGE_ALLOC_MASK",
   "name" : "(anonymous enum at hardware/libhardware/include/hardware/gralloc.h:68:1)",
   "referenced_type" : "_ZTI25$GRALLOC_USAGE_ALLOC_MASK",
   "self_type" : "_ZTI25$GRALLOC_USAGE_ALLOC_MASK",
   "size" : 4,
   "source_file" : "/hardware/libhardware/include/hardware/gralloc.h",
   "underlying_type" : "_ZTIj"
  },
  {
   "alignment" : 4,
   "enum_fields" :
   [
    {
     "enum_field_value" : 10,
     "name" : "HAL_COLOR_MODE_BT2020"
    },
    {
     "enum_field_value" : 11,
     "name" : "HAL_COLOR_MODE_BT2100_PQ"
    },
    {
     "enum_field_value" : 12,
     "name" : "HAL_COLOR_MODE_BT2100_HLG"
    }
   ],
   "linker_set_key" : "_ZTI25android_color_mode_v1_1_t",
   "name" : "android_color_mode_v1_1_t",
   "referenced_type" : "_ZTI25android_color_mode_v1_1_t",
   "self_type" : "_ZTI25android_color_mode_v1_1_t",
   "size" : 4,
   "source_file" : "/system/core/libsystem/include/system/graphics-base-v1.1.h",
   "underlying_type" : "_ZTIj"
  },
  {
   "alignment" : 4,
   "enum_fields" :
   [
    {
     "enum_field_value" : 0,
     "name" : "HAL_COLOR_TRANSFORM_IDENTITY"
    },
    {
     "enum_field_value" : 1,
     "name" : "HAL_COLOR_TRANSFORM_ARBITRARY_MATRIX"
    },
    {
     "enum_field_value" : 2,
     "name" : "HAL_COLOR_TRANSFORM_VALUE_INVERSE"
    },
    {
     "enum_field_value" : 3,
     "name" : "HAL_COLOR_TRANSFORM_GRAYSCALE"
    },
    {
     "enum_field_value" : 4,
     "name" : "HAL_COLOR_TRANSFORM_CORRECT_PROTANOPIA"
    },
    {
     "enum_field_value" : 5,
     "name" : "HAL_COLOR_TRANSFORM_CORRECT_DEUTERANOPIA"
    },
    {
     "enum_field_value" : 6,
     "name" : "HAL_COLOR_TRANSFORM_CORRECT_TRITANOPIA"
    }
   ],
   "linker_set_key" : "_ZTI25android_color_transform_t",
   "name" : "android_color_transform_t",
   "referenced_type" : "_ZTI25android_color_transform_t",
   "self_type" : "_ZTI25android_color_transform_t",
   "size" : 4,
   "source_file" : "/system/core/libsystem/include/system/graphics-base-v1.0.h",
   "underlying_type" : "_ZTIj"
  },
  {
   "alignment" : 4,
   "enum_fields" :
   [
    {
     "enum_field_value" : 39,
     "name" : "HAL_PIXEL_FORMAT_YCBCR_422_888"
    },
    {
     "enum_field_value" : 40,
     "name" : "HAL_PIXEL_FORMAT_YCBCR_444_888"
    },
    {
     "enum_field_value" : 41,
     "name" : "HAL_PIXEL_FORMAT_FLEX_RGB_888"
    },
    {
     "enum_field_value" : 42,
     "name" : "HAL_PIXEL_FORMAT_FLEX_RGBA_8888"
    }
   ],
   "linker_set_key" : "_ZTI25android_pixel_format_sw_t",
   "name" : "android_pixel_format_sw_t",
   "referenced_type" : "_ZTI25android_pixel_format_sw_t",
   "self_type" : "_ZTI25android_pixel_format_sw_t",
   "size" : 4,
   "source_file" : "/system/core/libsystem/include/system/graphics-sw.h",
   "underlying_type" : "_ZTIj"
  },
  {
   "alignment" : 4,
   "enum_fields" :
   [
    {
     "enum_field_value" : 48,
     "name" : "HAL_PIXEL_FORMAT_DEPTH_16"
    },
    {
     "enum_field_value" : 49,
     "name" : "HAL_PIXEL_FORMAT_DEPTH_24"
    },
    {
     "enum_field_value" : 50,
     "name" : "HAL_PIXEL_FORMAT_DEPTH_24_STENCIL_8"
    },
    {
     "enum_field_value" : 51,
     "name" : "HAL_PIXEL_FORMAT_DEPTH_32F"
    },
    {
     "enum_field_value" : 52,
     "name" : "HAL_PIXEL_FORMAT_DEPTH_32F_STENCIL_8"
    },
    {
     "enum_field_value" : 53,
     "name" : "HAL_PIXEL_FORMAT_STENCIL_8"
    },
    {
     "enum_field_value" : 54,
     "name" : "HAL_PIXEL_FORMAT_YCBCR_P010"
    }
   ],
   "linker_set_key" : "_ZTI27android_pixel_format_v1_1_t",
   "name" : "android_pixel_format_v1_1_t",
   "referenced_type" : "_ZTI27android_pixel_format_v1_1_t",
   "self_type" : "_ZTI27android_pixel_format_v1_1_t",
   "size" : 4,
   "source_file" : "/system/core/libsystem/include/system/graphics-base-v1.1.h",
   "underlying_type" : "_ZTIj"
  },
  {
   "alignment" : 4,
   "enum_fields" :
   [
    {
     "enum_field_value" : 55,
     "name" : "HAL_PIXEL_FORMAT_HSV_888"
    }
   ],
   "linker_set_key" : "_ZTI27android_pixel_format_v1_2_t",
   "name" : "android_pixel_format_v1_2_t",
   "referenced_type" : "_ZTI27android_pixel_format_v1_2_t",
   "self_type" : "_ZTI27android_pixel_format_v1_2_t",
   "size" : 4,
   "source_file" : "/system/core/libsystem/include/system/graphics-base-v1.2.h",
   "underlying_type" : "_ZTIj"
  },
  {
   "alignment" : 4,
   "enum_fields" :
   [
    {
     "enum_field_value" : 0,
     "name" : "HAL_RENDER_INTENT_COLORIMETRIC"
    },
    {
     "enum_field_value" : 1,
     "name" : "HAL_RENDER_INTENT_ENHANCE"
    },
    {
     "enum_field_value" : 2,
     "name" : "HAL_RENDER_INTENT_TONE_MAP_COLORIMETRIC"
    },
    {
     "enum_field_value" : 3,
     "name" : "HAL_RENDER_INTENT_TONE_MAP_ENHANCE"
    }
   ],
   "linker_set_key" : "_ZTI28android_render_intent_v1_1_t",
   "name" : "android_render_intent_v1_1_t",
   "referenced_type" : "_ZTI28android_render_intent_v1_1_t",
   "self_type" : "_ZTI28android_render_intent_v1_1_t",
   "size" : 4,
   "source_file" : "/system/core/libsystem/include/system/graphics-base-v1.1.h",
   "underlying_type" : "_ZTIj"
  },
  {
   "alignment" : 4,
   "enum_fields" :
   [
    {
     "enum_field_value" : 0,
     "name" : "C2_UNSET"
    },
    {
     "enum_field_value" : 1,
     "name" : "C2_SET"
    },
    {
     "enum_field_value" : 2,
     "name" : "C2_DEFAULT"
    }
   ],
   "linker_set_key" : "_ZTI8c2_set_t",
   "name" : "c2_set_t",
   "referenced_type" : "_ZTI8c2_set_t",
   "self_type" : "_ZTI8c2_set_t",
   "size" : 4,
   "source_file" : "/frameworks/av/media/codec2/core/include/C2Config.h",
   "underlying_type" : "_ZTIj"
  },
  {
   "alignment" : 4,
   "enum_fields" :
   [
    {
     "enum_field_value" : 0,
     "name" : "C2_FALSE"
    },
    {
     "enum_field_value" : 1,
     "name" : "C2_TRUE"
    }
   ],
   "linker_set_key" : "_ZTI9c2_bool_t",
   "name" : "c2_bool_t",
   "referenced_type" : "_ZTI9c2_bool_t",
   "self_type" : "_ZTI9c2_bool_t",
   "size" : 4,
   "source_file" : "/frameworks/av/media/codec2/core/include/C2Config.h",
   "underlying_type" : "_ZTIj"
  },
  {
   "alignment" : 4,
   "enum_fields" :
   [
    {
     "enum_field_value" : 1,
     "name" : "C2Allocator::LINEAR"
    },
    {
     "enum_field_value" : 2,
     "name" : "C2Allocator::GRAPHIC"
    }
   ],
   "linker_set_key" : "_ZTIN11C2Allocator6type_tE",
   "name" : "C2Allocator::type_t",
   "referenced_type" : "_ZTIN11C2Allocator6type_tE",
   "self_type" : "_ZTIN11C2Allocator6type_tE",
   "size" : 4,
   "source_file" : "/frameworks/av/media/codec2/core/include/C2Buffer.h",
   "underlying_type" : "_ZTIj"
  },
  {
   "alignment" : 4,
   "enum_fields" :
   [
    {
     "enum_field_value" : 47837,
     "name" : "C2Allocator::BAD_ID"
    }
   ],
   "linker_set_key" : "_ZTIN11C2Allocator7$BAD_IDE",
   "name" : "C2Allocator::(anonymous enum at frameworks/av/media/codec2/core/include/C2Buffer.h:568:5)",
   "referenced_type" : "_ZTIN11C2Allocator7$BAD_IDE",
   "self_type" : "_ZTIN11C2Allocator7$BAD_IDE",
   "size" : 4,
   "source_file" : "/frameworks/av/media/codec2/core/include/C2Buffer.h",
   "underlying_type" : "_ZTIj"
  },
  {
   "alignment" : 4,
   "enum_fields" :
   [
    {
     "enum_field_value" : 0,
     "name" : "C2BlockPool::BASIC_LINEAR"
    },
    {
     "enum_field_value" : 1,
     "name" : "C2BlockPool::BASIC_GRAPHIC"
    },
    {
     "enum_field_value" : 16,
     "name" : "C2BlockPool::PLATFORM_START"
    }
   ],
   "linker_set_key" : "_ZTIN11C2BlockPool14$BASIC_GRAPHICE",
   "name" : "C2BlockPool::(anonymous enum at frameworks/av/media/codec2/core/include/C2Buffer.h:852:5)",
   "referenced_type" : "_ZTIN11C2BlockPool14$BASIC_GRAPHICE",
   "self_type" : "_ZTIN11C2BlockPool14$BASIC_GRAPHICE",
   "size" : 8,
   "source_file" : "/frameworks/av/media/codec2/core/include/C2Buffer.h",
   "underlying_type" : "_ZTIy"
  },
  {
   "alignment" : 4,
   "enum_fields" :
   [
    {
     "enum_field_value" : 0,
     "name" : "C2Component::DRAIN_COMPONENT_WITH_EOS"
    },
    {
     "enum_field_value" : 1,
     "name" : "C2Component::DRAIN_COMPONENT_NO_EOS"
    },
    {
     "enum_field_value" : 65536,
     "name" : "C2Component::DRAIN_CHAIN"
    }
   ],
   "linker_set_key" : "_ZTIN11C2Component12drain_mode_tE",
   "name" : "C2Component::drain_mode_t",
   "referenced_type" : "_ZTIN11C2Component12drain_mode_tE",
   "self_type" : "_ZTIN11C2Component12drain_mode_tE",
   "size" : 4,
   "source_file" : "/frameworks/av/media/codec2/core/include/C2Component.h",
   "underlying_type" : "_ZTIj"
  },
  {
   "alignment" : 4,
   "enum_fields" :
   [
    {
     "enum_field_value" : 0,
     "name" : "C2Component::FLUSH_COMPONENT"
    },
    {
     "enum_field_value" : 65536,
     "name" : "C2Component::FLUSH_CHAIN"
    }
   ],
   "linker_set_key" : "_ZTIN11C2Component12flush_mode_tE",
   "name" : "C2Component::flush_mode_t",
   "referenced_type" : "_ZTIN11C2Component12flush_mode_tE",
   "self_type" : "_ZTIN11C2Component12flush_mode_tE",
   "size" : 4,
   "source_file" : "/frameworks/av/media/codec2/core/include/C2Component.h",
   "underlying_type" : "_ZTIj"
  },
  {
   "alignment" : 4,
   "enum_fields" :
   [
    {
     "enum_field_value" : 0,
     "name" : "C2Component::KIND_OTHER"
    },
    {
     "enum_field_value" : 1,
     "name" : "C2Component::KIND_DECODER"
    },
    {
     "enum_field_value" : 2,
     "name" : "C2Component::KIND_ENCODER"
    }
   ],
   "linker_set_key" : "_ZTIN11C2Component6kind_tE",
   "name" : "C2Component::kind_t",
   "referenced_type" : "_ZTIN11C2Component6kind_tE",
   "self_type" : "_ZTIN11C2Component6kind_tE",
   "size" : 4,
   "source_file" : "/frameworks/av/media/codec2/core/include/C2Component.h",
   "underlying_type" : "_ZTIj"
  },
  {
   "alignment" : 4,
   "enum_fields" :
   [
    {
     "enum_field_value" : 1,
     "name" : "C2Component::ATTRIB_IS_TEMPORAL"
    }
   ],
   "linker_set_key" : "_ZTIN11C2Component8attrib_tE",
   "name" : "C2Component::attrib_t",
   "referenced_type" : "_ZTIN11C2Component8attrib_tE",
   "self_type" : "_ZTIN11C2Component8attrib_tE",
   "size" : 8,
   "source_file" : "/frameworks/av/media/codec2/core/include/C2Config.h",
   "underlying_type" : "_ZTIy"
  },
  {
   "alignment" : 4,
   "enum_fields" :
   [
    {
     "enum_field_value" : 0,
     "name" : "C2Component::DOMAIN_OTHER"
    },
    {
     "enum_field_value" : 1,
     "name" : "C2Component::DOMAIN_VIDEO"
    },
    {
     "enum_field_value" : 2,
     "name" : "C2Component::DOMAIN_AUDIO"
    },
    {
     "enum_field_value" : 3,
     "name" : "C2Component::DOMAIN_IMAGE"
    }
   ],
   "linker_set_key" : "_ZTIN11C2Component8domain_tE",
   "name" : "C2Component::domain_t",
   "referenced_type" : "_ZTIN11C2Component8domain_tE",
   "self_type" : "_ZTIN11C2Component8domain_tE",
   "size" : 4,
   "source_file" : "/frameworks/av/media/codec2/core/include/C2Component.h",
   "underlying_type" : "_ZTIj"
  },
  {
   "alignment" : 4,
   "enum_fields" :
   [
    {
     "enum_field_value" : 1,
     "name" : "C2FrameData::FLAG_DROP_FRAME"
    },
    {
     "enum_field_value" : 2,
     "name" : "C2FrameData::FLAG_END_OF_STREAM"
    },
    {
     "enum_field_value" : 4,
     "name" : "C2FrameData::FLAG_DISCARD_FRAME"
    },
    {
     "enum_field_value" : 8,
     "name" : "C2FrameData::FLAG_INCOMPLETE"
    },
    {
     "enum_field_value" : -2147483648,
     "name" : "C2FrameData::FLAG_CODEC_CONFIG"
    }
   ],
   "linker_set_key" : "_ZTIN11C2FrameData7flags_tE",
   "name" : "C2FrameData::flags_t",
   "referenced_type" : "_ZTIN11C2FrameData7flags_tE",
   "self_type" : "_ZTIN11C2FrameData7flags_tE",
   "size" : 4,
   "source_file" : "/frameworks/av/media/codec2/core/include/C2Work.h",
   "underlying_type" : "_ZTIj"
  },
  {
   "alignment" : 4,
   "enum_fields" :
   [
    {
     "enum_field_value" : 0,
     "name" : "C2PlaneInfo::NATIVE"
    },
    {
     "enum_field_value" : 1,
     "name" : "C2PlaneInfo::LITTLE_END"
    },
    {
     "enum_field_value" : 2,
     "name" : "C2PlaneInfo::BIG_END"
    }
   ],
   "linker_set_key" : "_ZTIN11C2PlaneInfo12endianness_tE",
   "name" : "C2PlaneInfo::endianness_t",
   "referenced_type" : "_ZTIN11C2PlaneInfo12endianness_tE",
   "self_type" : "_ZTIN11C2PlaneInfo12endianness_tE",
   "size" : 4,
   "source_file" : "/frameworks/av/media/codec2/core/include/C2Buffer.h",
   "underlying_type" : "_ZTIj"
  },
  {
   "alignment" : 4,
   "enum_fields" :
   [
    {
     "enum_field_value" : 0,
     "name" : "C2PlaneInfo::CHANNEL_Y"
    },
    {
     "enum_field_value" : 1,
     "name" : "C2PlaneInfo::CHANNEL_R"
    },
    {
     "enum_field_value" : 2,
     "name" : "C2PlaneInfo::CHANNEL_G"
    },
    {
     "enum_field_value" : 3,
     "name" : "C2PlaneInfo::CHANNEL_B"
    },
    {
     "enum_field_value" : 4,
     "name" : "C2PlaneInfo::CHANNEL_A"
    },
    {
     "enum_field_value" : 5,
     "name" : "C2PlaneInfo::CHANNEL_CR"
    },
    {
     "enum_field_value" : 6,
     "name" : "C2PlaneInfo::CHANNEL_CB"
    }
   ],
   "linker_set_key" : "_ZTIN11C2PlaneInfo9channel_tE",
   "name" : "C2PlaneInfo::channel_t",
   "referenced_type" : "_ZTIN11C2PlaneInfo9channel_tE",
   "self_type" : "_ZTIN11C2PlaneInfo9channel_tE",
   "size" : 4,
   "source_file" : "/frameworks/av/media/codec2/core/include/C2Buffer.h",
   "underlying_type" : "_ZTIj"
  },
  {
   "alignment" : 4,
   "enum_fields" :
   [
    {
     "enum_field_value" : 0,
     "name" : "C2BufferData::INVALID"
    },
    {
     "enum_field_value" : 1,
     "name" : "C2BufferData::LINEAR"
    },
    {
     "enum_field_value" : 2,
     "name" : "C2BufferData::LINEAR_CHUNKS"
    },
    {
     "enum_field_value" : 3,
     "name" : "C2BufferData::GRAPHIC"
    },
    {
     "enum_field_value" : 4,
     "name" : "C2BufferData::GRAPHIC_CHUNKS"
    }
   ],
   "linker_set_key" : "_ZTIN12C2BufferData6type_tE",
   "name" : "C2BufferData::type_t",
   "referenced_type" : "_ZTIN12C2BufferData6type_tE",
   "self_type" : "_ZTIN12C2BufferData6type_tE",
   "size" : 4,
   "source_file" : "/frameworks/av/media/codec2/core/include/C2Buffer.h",
   "underlying_type" : "_ZTIj"
  },
  {
   "alignment" : 4,
   "enum_fields" :
   [
    {
     "enum_field_value" : 0,
     "name" : "(anonymous namespace)::C2_PARAM_INDEX_INVALID"
    },
    {
     "enum_field_value" : 1,
     "name" : "(anonymous namespace)::C2_PARAM_INDEX_STRUCT_START"
    },
    {
     "enum_field_value" : 2048,
     "name" : "(anonymous namespace)::C2_PARAM_INDEX_PARAM_START"
    },
    {
     "enum_field_value" : 4096,
     "name" : "(anonymous namespace)::C2_PARAM_INDEX_CODER_PARAM_START"
    },
    {
     "enum_field_value" : 6144,
     "name" : "(anonymous namespace)::C2_PARAM_INDEX_PICTURE_PARAM_START"
    },
    {
     "enum_field_value" : 8192,
     "name" : "(anonymous namespace)::C2_PARAM_INDEX_VIDEO_PARAM_START"
    },
    {
     "enum_field_value" : 10240,
     "name" : "(anonymous namespace)::C2_PARAM_INDEX_IMAGE_PARAM_START"
    },
    {
     "enum_field_value" : 12288,
     "name" : "(anonymous namespace)::C2_PARAM_INDEX_AUDIO_PARAM_START"
    },
    {
     "enum_field_value" : 16384,
     "name" : "(anonymous namespace)::C2_PARAM_INDEX_PLATFORM_START"
    },
    {
     "enum_field_value" : 1,
     "name" : "(anonymous namespace)::kParamIndexColorXy"
    },
    {
     "enum_field_value" : 2,
     "name" : "(anonymous namespace)::kParamIndexMasteringDisplayColorVolume"
    },
    {
     "enum_field_value" : 3,
     "name" : "(anonymous namespace)::kParamIndexChromaOffset"
    },
    {
     "enum_field_value" : 4,
     "name" : "(anonymous namespace)::kParamIndexGopLayer"
    },
    {
     "enum_field_value" : 2048,
     "name" : "(anonymous namespace)::kParamIndexApiLevel"
    },
    {
     "enum_field_value" : 2049,
     "name" : "(anonymous namespace)::kParamIndexApiFeatures"
    },
    {
     "enum_field_value" : 2050,
     "name" : "(anonymous namespace)::kParamIndexName"
    },
    {
     "enum_field_value" : 2051,
     "name" : "(anonymous namespace)::kParamIndexAliases"
    },
    {
     "enum_field_value" : 2052,
     "name" : "(anonymous namespace)::kParamIndexKind"
    },
    {
     "enum_field_value" : 2053,
     "name" : "(anonymous namespace)::kParamIndexDomain"
    },
    {
     "enum_field_value" : 2054,
     "name" : "(anonymous namespace)::kParamIndexAttributes"
    },
    {
     "enum_field_value" : 2055,
     "name" : "(anonymous namespace)::kParamIndexTimeStretch"
    },
    {
     "enum_field_value" : 2056,
     "name" : "(anonymous namespace)::kParamIndexProfileLevel"
    },
    {
     "enum_field_value" : 2057,
     "name" : "(anonymous namespace)::kParamIndexInitData"
    },
    {
     "enum_field_value" : 2058,
     "name" : "(anonymous namespace)::kParamIndexSupplementalData"
    },
    {
     "enum_field_value" : 2059,
     "name" : "(anonymous namespace)::kParamIndexSubscribedSupplementalData"
    },
    {
     "enum_field_value" : 2060,
     "name" : "(anonymous namespace)::kParamIndexMediaType"
    },
    {
     "enum_field_value" : 2061,
     "name" : "(anonymous namespace)::__kParamIndexRESERVED_0"
    },
    {
     "enum_field_value" : 2062,
     "name" : "(anonymous namespace)::kParamIndexDelay"
    },
    {
     "enum_field_value" : 2063,
     "name" : "(anonymous namespace)::kParamIndexMaxReferenceAge"
    },
    {
     "enum_field_value" : 2064,
     "name" : "(anonymous namespace)::kParamIndexMaxReferenceCount"
    },
    {
     "enum_field_value" : 2065,
     "name" : "(anonymous namespace)::kParamIndexReorderBufferDepth"
    },
    {
     "enum_field_value" : 2066,
     "name" : "(anonymous namespace)::kParamIndexReorderKey"
    },
    {
     "enum_field_value" : 2067,
     "name" : "(anonymous namespace)::kParamIndexStreamCount"
    },
    {
     "enum_field_value" : 2068,
     "name" : "(anonymous namespace)::kParamIndexSubscribedParamIndices"
    },
    {
     "enum_field_value" : 2069,
     "name" : "(anonymous namespace)::kParamIndexSuggestedBufferCount"
    },
    {
     "enum_field_value" : 2070,
     "name" : "(anonymous namespace)::kParamIndexBatchSize"
    },
    {
     "enum_field_value" : 2071,
     "name" : "(anonymous namespace)::kParamIndexCurrentWork"
    },
    {
     "enum_field_value" : 2072,
     "name" : "(anonymous namespace)::kParamIndexLastWorkQueued"
    },
    {
     "enum_field_value" : 2073,
     "name" : "(anonymous namespace)::kParamIndexAllocators"
    },
    {
     "enum_field_value" : 2074,
     "name" : "(anonymous namespace)::kParamIndexBlockPools"
    },
    {
     "enum_field_value" : 2075,
     "name" : "(anonymous namespace)::kParamIndexBufferType"
    },
    {
     "enum_field_value" : 2076,
     "name" : "(anonymous namespace)::kParamIndexUsage"
    },
    {
     "enum_field_value" : 2077,
     "name" : "(anonymous namespace)::kParamIndexOutOfMemory"
    },
    {
     "enum_field_value" : 2078,
     "name" : "(anonymous namespace)::kParamIndexMaxBufferSize"
    },
    {
     "enum_field_value" : 2079,
     "name" : "(anonymous namespace)::kParamIndexTripped"
    },
    {
     "enum_field_value" : 2080,
     "name" : "(anonymous namespace)::kParamIndexConfigCounter"
    },
    {
     "enum_field_value" : 2081,
     "name" : "(anonymous namespace)::kParamIndexResourcesNeeded"
    },
    {
     "enum_field_value" : 2082,
     "name" : "(anonymous namespace)::kParamIndexResourcesReserved"
    },
    {
     "enum_field_value" : 2083,
     "name" : "(anonymous namespace)::kParamIndexOperatingRate"
    },
    {
     "enum_field_value" : 2084,
     "name" : "(anonymous namespace)::kParamIndexRealTimePriority"
    },
    {
     "enum_field_value" : 2085,
     "name" : "(anonymous namespace)::kParamIndexSecureMode"
    },
    {
     "enum_field_value" : 133134,
     "name" : "(anonymous namespace)::kParamIndexDelayRequest"
    },
    {
     "enum_field_value" : 4096,
     "name" : "(anonymous namespace)::kParamIndexBitrate"
    },
    {
     "enum_field_value" : 4097,
     "name" : "(anonymous namespace)::kParamIndexBitrateMode"
    },
    {
     "enum_field_value" : 4098,
     "name" : "(anonymous namespace)::kParamIndexQuality"
    },
    {
     "enum_field_value" : 4099,
     "name" : "(anonymous namespace)::kParamIndexComplexity"
    },
    {
     "enum_field_value" : 4100,
     "name" : "(anonymous namespace)::kParamIndexPrependHeaderMode"
    },
    {
     "enum_field_value" : 6144,
     "name" : "(anonymous namespace)::kParamIndexPictureSize"
    },
    {
     "enum_field_value" : 6145,
     "name" : "(anonymous namespace)::kParamIndexCropRect"
    },
    {
     "enum_field_value" : 6146,
     "name" : "(anonymous namespace)::kParamIndexPixelFormat"
    },
    {
     "enum_field_value" : 6147,
     "name" : "(anonymous namespace)::kParamIndexRotation"
    },
    {
     "enum_field_value" : 6148,
     "name" : "(anonymous namespace)::kParamIndexPixelAspectRatio"
    },
    {
     "enum_field_value" : 6149,
     "name" : "(anonymous namespace)::kParamIndexScaledPictureSize"
    },
    {
     "enum_field_value" : 6150,
     "name" : "(anonymous namespace)::kParamIndexScaledCropRect"
    },
    {
     "enum_field_value" : 6151,
     "name" : "(anonymous namespace)::kParamIndexScalingMethod"
    },
    {
     "enum_field_value" : 6152,
     "name" : "(anonymous namespace)::kParamIndexColorInfo"
    },
    {
     "enum_field_value" : 6153,
     "name" : "(anonymous namespace)::kParamIndexColorAspects"
    },
    {
     "enum_field_value" : 6154,
     "name" : "(anonymous namespace)::kParamIndexHdrStaticMetadata"
    },
    {
     "enum_field_value" : 6155,
     "name" : "(anonymous namespace)::kParamIndexDefaultColorAspects"
    },
    {
     "enum_field_value" : 6156,
     "name" : "(anonymous namespace)::kParamIndexBlockSize"
    },
    {
     "enum_field_value" : 6157,
     "name" : "(anonymous namespace)::kParamIndexBlockCount"
    },
    {
     "enum_field_value" : 6158,
     "name" : "(anonymous namespace)::kParamIndexBlockRate"
    },
    {
     "enum_field_value" : 6159,
     "name" : "(anonymous namespace)::kParamIndexPictureTypeMask"
    },
    {
     "enum_field_value" : 6160,
     "name" : "(anonymous namespace)::kParamIndexPictureType"
    },
    {
     "enum_field_value" : 6161,
     "name" : "(anonymous namespace)::kParamIndexHdr10PlusMetadata"
    },
    {
     "enum_field_value" : 8192,
     "name" : "(anonymous namespace)::kParamIndexFrameRate"
    },
    {
     "enum_field_value" : 8193,
     "name" : "(anonymous namespace)::kParamIndexMaxBitrate"
    },
    {
     "enum_field_value" : 8194,
     "name" : "(anonymous namespace)::kParamIndexMaxFrameRate"
    },
    {
     "enum_field_value" : 8195,
     "name" : "(anonymous namespace)::kParamIndexMaxPictureSize"
    },
    {
     "enum_field_value" : 8196,
     "name" : "(anonymous namespace)::kParamIndexGop"
    },
    {
     "enum_field_value" : 8197,
     "name" : "(anonymous namespace)::kParamIndexSyncFrameInterval"
    },
    {
     "enum_field_value" : 8198,
     "name" : "(anonymous namespace)::kParamIndexRequestSyncFrame"
    },
    {
     "enum_field_value" : 8199,
     "name" : "(anonymous namespace)::kParamIndexTemporalLayering"
    },
    {
     "enum_field_value" : 8200,
     "name" : "(anonymous namespace)::kParamIndexLayerIndex"
    },
    {
     "enum_field_value" : 8201,
     "name" : "(anonymous namespace)::kParamIndexLayerCount"
    },
    {
     "enum_field_value" : 8202,
     "name" : "(anonymous namespace)::kParamIndexIntraRefresh"
    },
    {
     "enum_field_value" : 10240,
     "name" : "(anonymous namespace)::kParamIndexTileLayout"
    },
    {
     "enum_field_value" : 10241,
     "name" : "(anonymous namespace)::kParamIndexTileHandling"
    },
    {
     "enum_field_value" : 12288,
     "name" : "(anonymous namespace)::kParamIndexSampleRate"
    },
    {
     "enum_field_value" : 12289,
     "name" : "(anonymous namespace)::kParamIndexChannelCount"
    },
    {
     "enum_field_value" : 12290,
     "name" : "(anonymous namespace)::kParamIndexPcmEncoding"
    },
    {
     "enum_field_value" : 12291,
     "name" : "(anonymous namespace)::kParamIndexAacPackaging"
    },
    {
     "enum_field_value" : 12292,
     "name" : "(anonymous namespace)::kParamIndexMaxChannelCount"
    },
    {
     "enum_field_value" : 12293,
     "name" : "(anonymous namespace)::kParamIndexAacSbrMode"
    },
    {
     "enum_field_value" : 12294,
     "name" : "(anonymous namespace)::kParamIndexDrcEncodedTargetLevel"
    },
    {
     "enum_field_value" : 12295,
     "name" : "(anonymous namespace)::kParamIndexDrcTargetReferenceLevel"
    },
    {
     "enum_field_value" : 12296,
     "name" : "(anonymous namespace)::kParamIndexDrcCompression"
    },
    {
     "enum_field_value" : 12297,
     "name" : "(anonymous namespace)::kParamIndexDrcBoostFactor"
    },
    {
     "enum_field_value" : 12298,
     "name" : "(anonymous namespace)::kParamIndexDrcAttenuationFactor"
    },
    {
     "enum_field_value" : 12299,
     "name" : "(anonymous namespace)::kParamIndexDrcEffectType"
    },
    {
     "enum_field_value" : 12300,
     "name" : "(anonymous namespace)::kParamIndexDrcOutputLoudness"
    },
    {
     "enum_field_value" : 12301,
     "name" : "(anonymous namespace)::kParamIndexDrcAlbumMode"
    },
    {
     "enum_field_value" : 16384,
     "name" : "(anonymous namespace)::kParamIndexPlatformLevel"
    },
    {
     "enum_field_value" : 16385,
     "name" : "(anonymous namespace)::kParamIndexPlatformFeatures"
    },
    {
     "enum_field_value" : 16386,
     "name" : "(anonymous namespace)::kParamIndexStoreIonUsage"
    },
    {
     "enum_field_value" : 16387,
     "name" : "(anonymous namespace)::kParamIndexAspectsToDataSpace"
    },
    {
     "enum_field_value" : 16388,
     "name" : "(anonymous namespace)::kParamIndexFlexiblePixelFormatDescriptor"
    },
    {
     "enum_field_value" : 16389,
     "name" : "(anonymous namespace)::kParamIndexFlexiblePixelFormatDescriptors"
    },
    {
     "enum_field_value" : 16390,
     "name" : "(anonymous namespace)::kParamIndexDataSpaceToAspects"
    },
    {
     "enum_field_value" : 16391,
     "name" : "(anonymous namespace)::kParamIndexDataSpace"
    },
    {
     "enum_field_value" : 16392,
     "name" : "(anonymous namespace)::kParamIndexSurfaceScaling"
    },
    {
     "enum_field_value" : 16393,
     "name" : "(anonymous namespace)::kParamIndexInputSurfaceEos"
    },
    {
     "enum_field_value" : 16394,
     "name" : "(anonymous namespace)::kParamIndexTimedControl"
    },
    {
     "enum_field_value" : 16395,
     "name" : "(anonymous namespace)::kParamIndexStartAt"
    },
    {
     "enum_field_value" : 16396,
     "name" : "(anonymous namespace)::kParamIndexSuspendAt"
    },
    {
     "enum_field_value" : 16397,
     "name" : "(anonymous namespace)::kParamIndexResumeAt"
    },
    {
     "enum_field_value" : 16398,
     "name" : "(anonymous namespace)::kParamIndexStopAt"
    },
    {
     "enum_field_value" : 16399,
     "name" : "(anonymous namespace)::kParamIndexTimeOffset"
    },
    {
     "enum_field_value" : 16400,
     "name" : "(anonymous namespace)::kParamIndexMinFrameRate"
    },
    {
     "enum_field_value" : 16401,
     "name" : "(anonymous namespace)::kParamIndexTimestampGapAdjustment"
    },
    {
     "enum_field_value" : 16402,
     "name" : "(anonymous namespace)::kParamIndexSurfaceAllocator"
    },
    {
     "enum_field_value" : 16403,
     "name" : "(anonymous namespace)::kParamIndexLowLatencyMode"
    }
   ],
   "linker_set_key" : "_ZTIN12_GLOBAL__N_116C2ParamIndexKindE",
   "name" : "(anonymous namespace)::C2ParamIndexKind",
   "referenced_type" : "_ZTIN12_GLOBAL__N_116C2ParamIndexKindE",
   "self_type" : "_ZTIN12_GLOBAL__N_116C2ParamIndexKindE",
   "size" : 4,
   "source_file" : "/frameworks/av/media/codec2/core/include/C2Config.h",
   "underlying_type" : "_ZTIj"
  },
  {
   "alignment" : 4,
   "enum_fields" :
   [
    {
     "enum_field_value" : 4096,
     "name" : "(anonymous namespace)::_C2_PL_MP2V_BASE"
    },
    {
     "enum_field_value" : 8192,
     "name" : "(anonymous namespace)::_C2_PL_AAC_BASE"
    },
    {
     "enum_field_value" : 12288,
     "name" : "(anonymous namespace)::_C2_PL_H263_BASE"
    },
    {
     "enum_field_value" : 16384,
     "name" : "(anonymous namespace)::_C2_PL_MP4V_BASE"
    },
    {
     "enum_field_value" : 20480,
     "name" : "(anonymous namespace)::_C2_PL_AVC_BASE"
    },
    {
     "enum_field_value" : 24576,
     "name" : "(anonymous namespace)::_C2_PL_HEVC_BASE"
    },
    {
     "enum_field_value" : 28672,
     "name" : "(anonymous namespace)::_C2_PL_VP9_BASE"
    },
    {
     "enum_field_value" : 32768,
     "name" : "(anonymous namespace)::_C2_PL_DV_BASE"
    },
    {
     "enum_field_value" : 36864,
     "name" : "(anonymous namespace)::_C2_PL_AV1_BASE"
    },
    {
     "enum_field_value" : 1879048192,
     "name" : "(anonymous namespace)::C2_PROFILE_LEVEL_VENDOR_START"
    }
   ],
   "linker_set_key" : "_ZTIN12_GLOBAL__N_130$C2_PROFILE_LEVEL_VENDOR_STARTE",
   "name" : "(anonymous namespace)::(anonymous enum at frameworks/av/media/codec2/core/include/C2Config.h:373:1)",
   "referenced_type" : "_ZTIN12_GLOBAL__N_130$C2_PROFILE_LEVEL_VENDOR_STARTE",
   "self_type" : "_ZTIN12_GLOBAL__N_130$C2_PROFILE_LEVEL_VENDOR_STARTE",
   "size" : 4,
   "source_file" : "/frameworks/av/media/codec2/core/include/C2Config.h",
   "underlying_type" : "_ZTIj"
  },
  {
   "alignment" : 4,
   "enum_fields" :
   [
    {
     "enum_field_value" : -16,
     "name" : "C2MemoryUsage::PLATFORM_MASK"
    }
   ],
   "linker_set_key" : "_ZTIN13C2MemoryUsage14$PLATFORM_MASKE",
   "name" : "C2MemoryUsage::(anonymous enum at frameworks/av/media/codec2/core/include/C2BufferBase.h:73:5)",
   "referenced_type" : "_ZTIN13C2MemoryUsage14$PLATFORM_MASKE",
   "self_type" : "_ZTIN13C2MemoryUsage14$PLATFORM_MASKE",
   "size" : 8,
   "source_file" : "/frameworks/av/media/codec2/core/include/C2BufferBase.h",
   "underlying_type" : "_ZTIy"
  },
  {
   "alignment" : 4,
   "enum_fields" :
   [
    {
     "enum_field_value" : 1,
     "name" : "C2MemoryUsage::CPU_READ"
    },
    {
     "enum_field_value" : 2,
     "name" : "C2MemoryUsage::READ_PROTECTED"
    }
   ],
   "linker_set_key" : "_ZTIN13C2MemoryUsage6read_tE",
   "name" : "C2MemoryUsage::read_t",
   "referenced_type" : "_ZTIN13C2MemoryUsage6read_tE",
   "self_type" : "_ZTIN13C2MemoryUsage6read_tE",
   "size" : 8,
   "source_file" : "/frameworks/av/media/codec2/core/include/C2BufferBase.h",
   "underlying_type" : "_ZTIy"
  },
  {
   "alignment" : 4,
   "enum_fields" :
   [
    {
     "enum_field_value" : 4,
     "name" : "C2MemoryUsage::CPU_WRITE"
    },
    {
     "enum_field_value" : 8,
     "name" : "C2MemoryUsage::WRITE_PROTECTED"
    }
   ],
   "linker_set_key" : "_ZTIN13C2MemoryUsage7write_tE",
   "name" : "C2MemoryUsage::write_t",
   "referenced_type" : "_ZTIN13C2MemoryUsage7write_tE",
   "self_type" : "_ZTIN13C2MemoryUsage7write_tE",
   "size" : 8,
   "source_file" : "/frameworks/av/media/codec2/core/include/C2BufferBase.h",
   "underlying_type" : "_ZTIy"
  },
  {
   "alignment" : 4,
   "enum_fields" :
   [
    {
     "enum_field_value" : 0,
     "name" : "_C2FlexHelper<C2ChromaOffsetStruct, void>::FLEX_SIZE"
    }
   ],
   "linker_set_key" : "_ZTIN13_C2FlexHelperI20C2ChromaOffsetStructvE10$FLEX_SIZEE",
   "name" : "_C2FlexHelper<C2ChromaOffsetStruct, void>::(anonymous enum at frameworks/av/media/codec2/core/include/C2ParamDef.h:135:5)",
   "referenced_type" : "_ZTIN13_C2FlexHelperI20C2ChromaOffsetStructvE10$FLEX_SIZEE",
   "self_type" : "_ZTIN13_C2FlexHelperI20C2ChromaOffsetStructvE10$FLEX_SIZEE",
   "size" : 4,
   "source_file" : "/frameworks/av/media/codec2/core/include/C2ParamDef.h",
   "underlying_type" : "_ZTIj"
  },
  {
   "alignment" : 4,
   "enum_fields" :
   [
    {
     "enum_field_value" : 8,
     "name" : "_C2FlexHelper<C2ChromaOffsetStruct [], void>::FLEX_SIZE"
    }
   ],
   "linker_set_key" : "_ZTIN13_C2FlexHelperIA_20C2ChromaOffsetStructvE10$FLEX_SIZEE",
   "name" : "_C2FlexHelper<C2ChromaOffsetStruct [], void>::(anonymous enum at frameworks/av/media/codec2/core/include/C2ParamDef.h:151:5)",
   "referenced_type" : "_ZTIN13_C2FlexHelperIA_20C2ChromaOffsetStructvE10$FLEX_SIZEE",
   "self_type" : "_ZTIN13_C2FlexHelperIA_20C2ChromaOffsetStructvE10$FLEX_SIZEE",
   "size" : 4,
   "source_file" : "/frameworks/av/media/codec2/core/include/C2ParamDef.h",
   "underlying_type" : "_ZTIj"
  },
  {
   "alignment" : 4,
   "enum_fields" :
   [
    {
     "enum_field_value" : 4,
     "name" : "_C2FlexHelper<float [], void>::FLEX_SIZE"
    }
   ],
   "linker_set_key" : "_ZTIN13_C2FlexHelperIA_fvE10$FLEX_SIZEE",
   "name" : "_C2FlexHelper<float [], void>::(anonymous enum at frameworks/av/media/codec2/core/include/C2ParamDef.h:151:5)",
   "referenced_type" : "_ZTIN13_C2FlexHelperIA_fvE10$FLEX_SIZEE",
   "self_type" : "_ZTIN13_C2FlexHelperIA_fvE10$FLEX_SIZEE",
   "size" : 4,
   "source_file" : "/frameworks/av/media/codec2/core/include/C2ParamDef.h",
   "underlying_type" : "_ZTIj"
  },
  {
   "alignment" : 4,
   "enum_fields" :
   [
    {
     "enum_field_value" : 1,
     "name" : "_C2FlexHelper<unsigned char [], void>::FLEX_SIZE"
    }
   ],
   "linker_set_key" : "_ZTIN13_C2FlexHelperIA_hvE10$FLEX_SIZEE",
   "name" : "_C2FlexHelper<unsigned char [], void>::(anonymous enum at frameworks/av/media/codec2/core/include/C2ParamDef.h:151:5)",
   "referenced_type" : "_ZTIN13_C2FlexHelperIA_hvE10$FLEX_SIZEE",
   "self_type" : "_ZTIN13_C2FlexHelperIA_hvE10$FLEX_SIZEE",
   "size" : 4,
   "source_file" : "/frameworks/av/media/codec2/core/include/C2ParamDef.h",
   "underlying_type" : "_ZTIj"
  },
  {
   "alignment" : 4,
   "enum_fields" :
   [
    {
     "enum_field_value" : 0,
     "name" : "_C2FlexHelper<float, void>::FLEX_SIZE"
    }
   ],
   "linker_set_key" : "_ZTIN13_C2FlexHelperIfvE10$FLEX_SIZEE",
   "name" : "_C2FlexHelper<float, void>::(anonymous enum at frameworks/av/media/codec2/core/include/C2ParamDef.h:135:5)",
   "referenced_type" : "_ZTIN13_C2FlexHelperIfvE10$FLEX_SIZEE",
   "self_type" : "_ZTIN13_C2FlexHelperIfvE10$FLEX_SIZEE",
   "size" : 4,
   "source_file" : "/frameworks/av/media/codec2/core/include/C2ParamDef.h",
   "underlying_type" : "_ZTIj"
  },
  {
   "alignment" : 4,
   "enum_fields" :
   [
    {
     "enum_field_value" : 0,
     "name" : "_C2FlexHelper<unsigned char, void>::FLEX_SIZE"
    }
   ],
   "linker_set_key" : "_ZTIN13_C2FlexHelperIhvE10$FLEX_SIZEE",
   "name" : "_C2FlexHelper<unsigned char, void>::(anonymous enum at frameworks/av/media/codec2/core/include/C2ParamDef.h:135:5)",
   "referenced_type" : "_ZTIN13_C2FlexHelperIhvE10$FLEX_SIZEE",
   "self_type" : "_ZTIN13_C2FlexHelperIhvE10$FLEX_SIZEE",
   "size" : 4,
   "source_file" : "/frameworks/av/media/codec2/core/include/C2ParamDef.h",
   "underlying_type" : "_ZTIj"
  },
  {
   "alignment" : 4,
   "enum_fields" :
   [
    {
     "enum_field_value" : 0,
     "name" : "C2PlanarLayout::PLANE_Y"
    },
    {
     "enum_field_value" : 1,
     "name" : "C2PlanarLayout::PLANE_U"
    },
    {
     "enum_field_value" : 2,
     "name" : "C2PlanarLayout::PLANE_V"
    },
    {
     "enum_field_value" : 0,
     "name" : "C2PlanarLayout::PLANE_R"
    },
    {
     "enum_field_value" : 1,
     "name" : "C2PlanarLayout::PLANE_G"
    },
    {
     "enum_field_value" : 2,
     "name" : "C2PlanarLayout::PLANE_B"
    },
    {
     "enum_field_value" : 3,
     "name" : "C2PlanarLayout::PLANE_A"
    },
    {
     "enum_field_value" : 4,
     "name" : "C2PlanarLayout::MAX_NUM_PLANES"
    }
   ],
   "linker_set_key" : "_ZTIN14C2PlanarLayout13plane_index_tE",
   "name" : "C2PlanarLayout::plane_index_t",
   "referenced_type" : "_ZTIN14C2PlanarLayout13plane_index_tE",
   "self_type" : "_ZTIN14C2PlanarLayout13plane_index_tE",
   "size" : 4,
   "source_file" : "/frameworks/av/media/codec2/core/include/C2Buffer.h",
   "underlying_type" : "_ZTIj"
  },
  {
   "alignment" : 4,
   "enum_fields" :
   [
    {
     "enum_field_value" : 0,
     "name" : "C2PlanarLayout::TYPE_UNKNOWN"
    },
    {
     "enum_field_value" : 256,
     "name" : "C2PlanarLayout::TYPE_YUV"
    },
    {
     "enum_field_value" : 257,
     "name" : "C2PlanarLayout::TYPE_YUVA"
    },
    {
     "enum_field_value" : 258,
     "name" : "C2PlanarLayout::TYPE_RGB"
    },
    {
     "enum_field_value" : 259,
     "name" : "C2PlanarLayout::TYPE_RGBA"
    }
   ],
   "linker_set_key" : "_ZTIN14C2PlanarLayout6type_tE",
   "name" : "C2PlanarLayout::type_t",
   "referenced_type" : "_ZTIN14C2PlanarLayout6type_tE",
   "self_type" : "_ZTIN14C2PlanarLayout6type_tE",
   "size" : 4,
   "source_file" : "/frameworks/av/media/codec2/core/include/C2Buffer.h",
   "underlying_type" : "_ZTIj"
  },
  {
   "alignment" : 4,
   "enum_fields" :
   [
    {
     "enum_field_value" : 1,
     "name" : "C2ColorXyStruct::CORE_INDEX"
    }
   ],
   "linker_set_key" : "_ZTIN15C2ColorXyStruct11$CORE_INDEXE",
   "name" : "C2ColorXyStruct::(anonymous enum at frameworks/av/media/codec2/core/include/C2Config.h:1518:5)",
   "referenced_type" : "_ZTIN15C2ColorXyStruct11$CORE_INDEXE",
   "self_type" : "_ZTIN15C2ColorXyStruct11$CORE_INDEXE",
   "size" : 4,
   "source_file" : "/frameworks/av/media/codec2/core/include/C2Config.h",
   "underlying_type" : "_ZTIj"
  },
  {
   "alignment" : 4,
   "enum_fields" :
   [
    {
     "enum_field_value" : 0,
     "name" : "C2SettingResult::BAD_TYPE"
    },
    {
     "enum_field_value" : 1,
     "name" : "C2SettingResult::BAD_PORT"
    },
    {
     "enum_field_value" : 2,
     "name" : "C2SettingResult::BAD_INDEX"
    },
    {
     "enum_field_value" : 3,
     "name" : "C2SettingResult::READ_ONLY"
    },
    {
     "enum_field_value" : 4,
     "name" : "C2SettingResult::MISMATCH"
    },
    {
     "enum_field_value" : 5,
     "name" : "C2SettingResult::BAD_VALUE"
    },
    {
     "enum_field_value" : 6,
     "name" : "C2SettingResult::CONFLICT"
    },
    {
     "enum_field_value" : 7,
     "name" : "C2SettingResult::UNSUPPORTED"
    },
    {
     "enum_field_value" : 8,
     "name" : "C2SettingResult::INFO_BAD_VALUE"
    },
    {
     "enum_field_value" : 9,
     "name" : "C2SettingResult::INFO_CONFLICT"
    }
   ],
   "linker_set_key" : "_ZTIN15C2SettingResult7FailureE",
   "name" : "C2SettingResult::Failure",
   "referenced_type" : "_ZTIN15C2SettingResult7FailureE",
   "self_type" : "_ZTIN15C2SettingResult7FailureE",
   "size" : 4,
   "source_file" : "/frameworks/av/media/codec2/core/include/C2Work.h",
   "underlying_type" : "_ZTIj"
  },
  {
   "alignment" : 4,
   "enum_fields" :
   [
    {
     "enum_field_value" : 0,
     "name" : "C2AllocatorStore::DEFAULT_LINEAR"
    },
    {
     "enum_field_value" : 1,
     "name" : "C2AllocatorStore::DEFAULT_GRAPHIC"
    },
    {
     "enum_field_value" : 16,
     "name" : "C2AllocatorStore::PLATFORM_START"
    },
    {
     "enum_field_value" : 256,
     "name" : "C2AllocatorStore::VENDOR_START"
    },
    {
     "enum_field_value" : 47837,
     "name" : "C2AllocatorStore::BAD_ID"
    }
   ],
   "linker_set_key" : "_ZTIN16C2AllocatorStore7$BAD_IDE",
   "name" : "C2AllocatorStore::(anonymous enum at frameworks/av/media/codec2/core/include/C2Component.h:720:5)",
   "referenced_type" : "_ZTIN16C2AllocatorStore7$BAD_IDE",
   "self_type" : "_ZTIN16C2AllocatorStore7$BAD_IDE",
   "size" : 4,
   "source_file" : "/frameworks/av/media/codec2/core/include/C2Component.h",
   "underlying_type" : "_ZTIj"
  },
  {
   "alignment" : 4,
   "enum_fields" :
   [
    {
     "enum_field_value" : 4,
     "name" : "C2GopLayerStruct::CORE_INDEX"
    }
   ],
   "linker_set_key" : "_ZTIN16C2GopLayerStruct11$CORE_INDEXE",
   "name" : "C2GopLayerStruct::(anonymous enum at frameworks/av/media/codec2/core/include/C2Config.h:1678:5)",
   "referenced_type" : "_ZTIN16C2GopLayerStruct11$CORE_INDEXE",
   "self_type" : "_ZTIN16C2GopLayerStruct11$CORE_INDEXE",
   "size" : 4,
   "source_file" : "/frameworks/av/media/codec2/core/include/C2Config.h",
   "underlying_type" : "_ZTIj"
  },
  {
   "alignment" : 4,
   "enum_fields" :
   [
    {
     "enum_field_value" : 8,
     "name" : "C2ColorInfoStruct::FLEX_SIZE"
    }
   ],
   "linker_set_key" : "_ZTIN17C2ColorInfoStruct10$FLEX_SIZEE",
   "name" : "C2ColorInfoStruct::(anonymous enum at frameworks/av/media/codec2/core/include/C2Config.h:1399:5)",
   "referenced_type" : "_ZTIN17C2ColorInfoStruct10$FLEX_SIZEE",
   "self_type" : "_ZTIN17C2ColorInfoStruct10$FLEX_SIZEE",
   "size" : 4,
   "source_file" : "/frameworks/av/media/codec2/core/include/C2Config.h",
   "underlying_type" : "_ZTIj"
  },
  {
   "alignment" : 4,
   "enum_fields" :
   [
    {
     "enum_field_value" : 71688,
     "name" : "C2ColorInfoStruct::CORE_INDEX"
    }
   ],
   "linker_set_key" : "_ZTIN17C2ColorInfoStruct11$CORE_INDEXE",
   "name" : "C2ColorInfoStruct::(anonymous enum at frameworks/av/media/codec2/core/include/C2Config.h:1399:5)",
   "referenced_type" : "_ZTIN17C2ColorInfoStruct11$CORE_INDEXE",
   "self_type" : "_ZTIN17C2ColorInfoStruct11$CORE_INDEXE",
   "size" : 4,
   "source_file" : "/frameworks/av/media/codec2/core/include/C2Config.h",
   "underlying_type" : "_ZTIj"
  },
  {
   "alignment" : 4,
   "enum_fields" :
   [
    {
     "enum_field_value" : 1,
     "name" : "C2FieldDescriptor::INT32"
    },
    {
     "enum_field_value" : 2,
     "name" : "C2FieldDescriptor::UINT32"
    },
    {
     "enum_field_value" : 3,
     "name" : "C2FieldDescriptor::CNTR32"
    },
    {
     "enum_field_value" : 4,
     "name" : "C2FieldDescriptor::INT64"
    },
    {
     "enum_field_value" : 5,
     "name" : "C2FieldDescriptor::UINT64"
    },
    {
     "enum_field_value" : 6,
     "name" : "C2FieldDescriptor::CNTR64"
    },
    {
     "enum_field_value" : 7,
     "name" : "C2FieldDescriptor::FLOAT"
    },
    {
     "enum_field_value" : 256,
     "name" : "C2FieldDescriptor::STRING"
    },
    {
     "enum_field_value" : 257,
     "name" : "C2FieldDescriptor::BLOB"
    },
    {
     "enum_field_value" : 131072,
     "name" : "C2FieldDescriptor::STRUCT_FLAG"
    }
   ],
   "linker_set_key" : "_ZTIN17C2FieldDescriptor6type_tE",
   "name" : "C2FieldDescriptor::type_t",
   "referenced_type" : "_ZTIN17C2FieldDescriptor6type_tE",
   "self_type" : "_ZTIN17C2FieldDescriptor6type_tE",
   "size" : 4,
   "source_file" : "/frameworks/av/media/codec2/core/include/C2Param.h",
   "underlying_type" : "_ZTIj"
  },
  {
   "alignment" : 4,
   "enum_fields" :
   [
    {
     "enum_field_value" : 1,
     "name" : "C2ParamDescriptor::IS_REQUIRED"
    },
    {
     "enum_field_value" : 2,
     "name" : "C2ParamDescriptor::IS_PERSISTENT"
    },
    {
     "enum_field_value" : 4,
     "name" : "C2ParamDescriptor::IS_STRICT"
    },
    {
     "enum_field_value" : 8,
     "name" : "C2ParamDescriptor::IS_READ_ONLY"
    },
    {
     "enum_field_value" : 16,
     "name" : "C2ParamDescriptor::IS_HIDDEN"
    },
    {
     "enum_field_value" : 32,
     "name" : "C2ParamDescriptor::IS_INTERNAL"
    },
    {
     "enum_field_value" : 72,
     "name" : "C2ParamDescriptor::IS_CONST"
    }
   ],
   "linker_set_key" : "_ZTIN17C2ParamDescriptor8attrib_tE",
   "name" : "C2ParamDescriptor::attrib_t",
   "referenced_type" : "_ZTIN17C2ParamDescriptor8attrib_tE",
   "self_type" : "_ZTIN17C2ParamDescriptor8attrib_tE",
   "size" : 4,
   "source_file" : "/frameworks/av/media/codec2/core/include/C2Param.h",
   "underlying_type" : "_ZTIj"
  },
  {
   "alignment" : 4,
   "enum_fields" :
   [
    {
     "enum_field_value" : 10240,
     "name" : "C2TileLayoutStruct::CORE_INDEX"
    }
   ],
   "linker_set_key" : "_ZTIN18C2TileLayoutStruct11$CORE_INDEXE",
   "name" : "C2TileLayoutStruct::(anonymous enum at frameworks/av/media/codec2/core/include/C2Config.h:1810:5)",
   "referenced_type" : "_ZTIN18C2TileLayoutStruct11$CORE_INDEXE",
   "self_type" : "_ZTIN18C2TileLayoutStruct11$CORE_INDEXE",
   "size" : 4,
   "source_file" : "/frameworks/av/media/codec2/core/include/C2Config.h",
   "underlying_type" : "_ZTIj"
  },
  {
   "alignment" : 4,
   "enum_fields" :
   [
    {
     "enum_field_value" : 2077,
     "name" : "C2OutOfMemoryStruct::CORE_INDEX"
    }
   ],
   "linker_set_key" : "_ZTIN19C2OutOfMemoryStruct11$CORE_INDEXE",
   "name" : "C2OutOfMemoryStruct::(anonymous enum at frameworks/av/media/codec2/core/include/C2Config.h:1023:5)",
   "referenced_type" : "_ZTIN19C2OutOfMemoryStruct11$CORE_INDEXE",
   "self_type" : "_ZTIN19C2OutOfMemoryStruct11$CORE_INDEXE",
   "size" : 4,
   "source_file" : "/frameworks/av/media/codec2/core/include/C2Config.h",
   "underlying_type" : "_ZTIj"
  },
  {
   "alignment" : 4,
   "enum_fields" :
   [
    {
     "enum_field_value" : 6144,
     "name" : "C2PictureSizeStruct::CORE_INDEX"
    }
   ],
   "linker_set_key" : "_ZTIN19C2PictureSizeStruct11$CORE_INDEXE",
   "name" : "C2PictureSizeStruct::(anonymous enum at frameworks/av/media/codec2/core/include/C2Config.h:1004:5)",
   "referenced_type" : "_ZTIN19C2PictureSizeStruct11$CORE_INDEXE",
   "self_type" : "_ZTIN19C2PictureSizeStruct11$CORE_INDEXE",
   "size" : 4,
   "source_file" : "/frameworks/av/media/codec2/core/include/C2Config.h",
   "underlying_type" : "_ZTIj"
  },
  {
   "alignment" : 4,
   "enum_fields" :
   [
    {
     "enum_field_value" : 0,
     "name" : "C2WorkOrdinalStruct::CORE_INDEX"
    }
   ],
   "linker_set_key" : "_ZTIN19C2WorkOrdinalStruct11$CORE_INDEXE",
   "name" : "C2WorkOrdinalStruct::(anonymous enum at frameworks/av/media/codec2/core/include/C2Work.h:103:5)",
   "referenced_type" : "_ZTIN19C2WorkOrdinalStruct11$CORE_INDEXE",
   "self_type" : "_ZTIN19C2WorkOrdinalStruct11$CORE_INDEXE",
   "size" : 4,
   "source_file" : "/frameworks/av/media/codec2/core/include/C2Work.h",
   "underlying_type" : "_ZTIj"
  },
  {
   "alignment" : 4,
   "enum_fields" :
   [
    {
     "enum_field_value" : 3,
     "name" : "C2ChromaOffsetStruct::CORE_INDEX"
    }
   ],
   "linker_set_key" : "_ZTIN20C2ChromaOffsetStruct11$CORE_INDEXE",
   "name" : "C2ChromaOffsetStruct::(anonymous enum at frameworks/av/media/codec2/core/include/C2Config.h:1368:5)",
   "referenced_type" : "_ZTIN20C2ChromaOffsetStruct11$CORE_INDEXE",
   "self_type" : "_ZTIN20C2ChromaOffsetStruct11$CORE_INDEXE",
   "size" : 4,
   "source_file" : "/frameworks/av/media/codec2/core/include/C2Config.h",
   "underlying_type" : "_ZTIj"
  },
  {
   "alignment" : 4,
   "enum_fields" :
   [
    {
     "enum_field_value" : 6153,
     "name" : "C2ColorAspectsStruct::CORE_INDEX"
    }
   ],
   "linker_set_key" : "_ZTIN20C2ColorAspectsStruct11$CORE_INDEXE",
   "name" : "C2ColorAspectsStruct::(anonymous enum at frameworks/av/media/codec2/core/include/C2Config.h:1491:5)",
   "referenced_type" : "_ZTIN20C2ColorAspectsStruct11$CORE_INDEXE",
   "self_type" : "_ZTIN20C2ColorAspectsStruct11$CORE_INDEXE",
   "size" : 4,
   "source_file" : "/frameworks/av/media/codec2/core/include/C2Config.h",
   "underlying_type" : "_ZTIj"
  },
  {
   "alignment" : 4,
   "enum_fields" :
   [
    {
     "enum_field_value" : 8202,
     "name" : "C2IntraRefreshStruct::CORE_INDEX"
    }
   ],
   "linker_set_key" : "_ZTIN20C2IntraRefreshStruct11$CORE_INDEXE",
   "name" : "C2IntraRefreshStruct::(anonymous enum at frameworks/av/media/codec2/core/include/C2Config.h:1784:5)",
   "referenced_type" : "_ZTIN20C2IntraRefreshStruct11$CORE_INDEXE",
   "self_type" : "_ZTIN20C2IntraRefreshStruct11$CORE_INDEXE",
   "size" : 4,
   "source_file" : "/frameworks/av/media/codec2/core/include/C2Config.h",
   "underlying_type" : "_ZTIj"
  },
  {
   "alignment" : 4,
   "enum_fields" :
   [
    {
     "enum_field_value" : 2056,
     "name" : "C2ProfileLevelStruct::CORE_INDEX"
    }
   ],
   "linker_set_key" : "_ZTIN20C2ProfileLevelStruct11$CORE_INDEXE",
   "name" : "C2ProfileLevelStruct::(anonymous enum at frameworks/av/media/codec2/core/include/C2Config.h:689:5)",
   "referenced_type" : "_ZTIN20C2ProfileLevelStruct11$CORE_INDEXE",
   "self_type" : "_ZTIN20C2ProfileLevelStruct11$CORE_INDEXE",
   "size" : 4,
   "source_file" : "/frameworks/av/media/codec2/core/include/C2Config.h",
   "underlying_type" : "_ZTIj"
  },
  {
   "alignment" : 4,
   "enum_fields" :
   [
    {
     "enum_field_value" : 16394,
     "name" : "C2TimedControlStruct::CORE_INDEX"
    }
   ],
   "linker_set_key" : "_ZTIN20C2TimedControlStruct11$CORE_INDEXE",
   "name" : "C2TimedControlStruct::(anonymous enum at frameworks/av/media/codec2/core/include/C2Config.h:2116:5)",
   "referenced_type" : "_ZTIN20C2TimedControlStruct11$CORE_INDEXE",
   "self_type" : "_ZTIN20C2TimedControlStruct11$CORE_INDEXE",
   "size" : 4,
   "source_file" : "/frameworks/av/media/codec2/core/include/C2Config.h",
   "underlying_type" : "_ZTIj"
  },
  {
   "alignment" : 4,
   "enum_fields" :
   [
    {
     "enum_field_value" : 16386,
     "name" : "C2StoreIonUsageStruct::CORE_INDEX"
    }
   ],
   "linker_set_key" : "_ZTIN21C2StoreIonUsageStruct11$CORE_INDEXE",
   "name" : "C2StoreIonUsageStruct::(anonymous enum at frameworks/av/media/codec2/core/include/C2Config.h:2023:5)",
   "referenced_type" : "_ZTIN21C2StoreIonUsageStruct11$CORE_INDEXE",
   "self_type" : "_ZTIN21C2StoreIonUsageStruct11$CORE_INDEXE",
   "size" : 4,
   "source_file" : "/frameworks/av/media/codec2/core/include/C2Config.h",
   "underlying_type" : "_ZTIj"
  },
  {
   "alignment" : 4,
   "enum_fields" :
   [
    {
     "enum_field_value" : 0,
     "name" : "C2FieldSupportedValues::EMPTY"
    },
    {
     "enum_field_value" : 1,
     "name" : "C2FieldSupportedValues::RANGE"
    },
    {
     "enum_field_value" : 2,
     "name" : "C2FieldSupportedValues::VALUES"
    },
    {
     "enum_field_value" : 3,
     "name" : "C2FieldSupportedValues::FLAGS"
    }
   ],
   "linker_set_key" : "_ZTIN22C2FieldSupportedValues6type_tE",
   "name" : "C2FieldSupportedValues::type_t",
   "referenced_type" : "_ZTIN22C2FieldSupportedValues6type_tE",
   "self_type" : "_ZTIN22C2FieldSupportedValues6type_tE",
   "size" : 4,
   "source_file" : "/frameworks/av/media/codec2/core/include/C2Param.h",
   "underlying_type" : "_ZTIj"
  },
  {
   "alignment" : 4,
   "enum_fields" :
   [
    {
     "enum_field_value" : 1,
     "name" : "C2SupplementalDataStruct::FLEX_SIZE"
    }
   ],
   "linker_set_key" : "_ZTIN24C2SupplementalDataStruct10$FLEX_SIZEE",
   "name" : "C2SupplementalDataStruct::(anonymous enum at frameworks/av/media/codec2/core/include/C2Config.h:745:5)",
   "referenced_type" : "_ZTIN24C2SupplementalDataStruct10$FLEX_SIZEE",
   "self_type" : "_ZTIN24C2SupplementalDataStruct10$FLEX_SIZEE",
   "size" : 4,
   "source_file" : "/frameworks/av/media/codec2/core/include/C2Config.h",
   "underlying_type" : "_ZTIj"
  },
  {
   "alignment" : 4,
   "enum_fields" :
   [
    {
     "enum_field_value" : 67594,
     "name" : "C2SupplementalDataStruct::CORE_INDEX"
    }
   ],
   "linker_set_key" : "_ZTIN24C2SupplementalDataStruct11$CORE_INDEXE",
   "name" : "C2SupplementalDataStruct::(anonymous enum at frameworks/av/media/codec2/core/include/C2Config.h:745:5)",
   "referenced_type" : "_ZTIN24C2SupplementalDataStruct11$CORE_INDEXE",
   "self_type" : "_ZTIN24C2SupplementalDataStruct11$CORE_INDEXE",
   "size" : 4,
   "source_file" : "/frameworks/av/media/codec2/core/include/C2Config.h",
   "underlying_type" : "_ZTIj"
  },
  {
   "alignment" : 4,
   "enum_fields" :
   [
    {
     "enum_field_value" : 4,
     "name" : "C2TemporalLayeringStruct::FLEX_SIZE"
    }
   ],
   "linker_set_key" : "_ZTIN24C2TemporalLayeringStruct10$FLEX_SIZEE",
   "name" : "C2TemporalLayeringStruct::(anonymous enum at frameworks/av/media/codec2/core/include/C2Config.h:1755:5)",
   "referenced_type" : "_ZTIN24C2TemporalLayeringStruct10$FLEX_SIZEE",
   "self_type" : "_ZTIN24C2TemporalLayeringStruct10$FLEX_SIZEE",
   "size" : 4,
   "source_file" : "/frameworks/av/media/codec2/core/include/C2Config.h",
   "underlying_type" : "_ZTIj"
  },
  {
   "alignment" : 4,
   "enum_fields" :
   [
    {
     "enum_field_value" : 73735,
     "name" : "C2TemporalLayeringStruct::CORE_INDEX"
    }
   ],
   "linker_set_key" : "_ZTIN24C2TemporalLayeringStruct11$CORE_INDEXE",
   "name" : "C2TemporalLayeringStruct::(anonymous enum at frameworks/av/media/codec2/core/include/C2Config.h:1755:5)",
   "referenced_type" : "_ZTIN24C2TemporalLayeringStruct11$CORE_INDEXE",
   "self_type" : "_ZTIN24C2TemporalLayeringStruct11$CORE_INDEXE",
   "size" : 4,
   "source_file" : "/frameworks/av/media/codec2/core/include/C2Config.h",
   "underlying_type" : "_ZTIj"
  },
  {
   "alignment" : 4,
   "enum_fields" :
   [
    {
     "enum_field_value" : 0,
     "name" : "C2FieldSupportedValuesQuery::POSSIBLE"
    },
    {
     "enum_field_value" : 1,
     "name" : "C2FieldSupportedValuesQuery::CURRENT"
    }
   ],
   "linker_set_key" : "_ZTIN27C2FieldSupportedValuesQuery6type_tE",
   "name" : "C2FieldSupportedValuesQuery::type_t",
   "referenced_type" : "_ZTIN27C2FieldSupportedValuesQuery6type_tE",
   "self_type" : "_ZTIN27C2FieldSupportedValuesQuery6type_tE",
   "size" : 4,
   "source_file" : "/frameworks/av/media/codec2/core/include/C2Component.h",
   "underlying_type" : "_ZTIj"
  },
  {
   "alignment" : 4,
   "enum_fields" :
   [
    {
     "enum_field_value" : 16401,
     "name" : "C2TimestampGapAdjustmentStruct::CORE_INDEX"
    }
   ],
   "linker_set_key" : "_ZTIN30C2TimestampGapAdjustmentStruct11$CORE_INDEXE",
   "name" : "C2TimestampGapAdjustmentStruct::(anonymous enum at frameworks/av/media/codec2/core/include/C2Config.h:2165:5)",
   "referenced_type" : "_ZTIN30C2TimestampGapAdjustmentStruct11$CORE_INDEXE",
   "self_type" : "_ZTIN30C2TimestampGapAdjustmentStruct11$CORE_INDEXE",
   "size" : 4,
   "source_file" : "/frameworks/av/media/codec2/core/include/C2Config.h",
   "underlying_type" : "_ZTIj"
  },
  {
   "alignment" : 4,
   "enum_fields" :
   [
    {
     "enum_field_value" : 0,
     "name" : "C2TimestampGapAdjustmentStruct::NONE"
    },
    {
     "enum_field_value" : 1,
     "name" : "C2TimestampGapAdjustmentStruct::MIN_GAP"
    },
    {
     "enum_field_value" : 2,
     "name" : "C2TimestampGapAdjustmentStruct::FIXED_GAP"
    }
   ],
   "linker_set_key" : "_ZTIN30C2TimestampGapAdjustmentStruct6mode_tE",
   "name" : "C2TimestampGapAdjustmentStruct::mode_t",
   "referenced_type" : "_ZTIN30C2TimestampGapAdjustmentStruct6mode_tE",
   "self_type" : "_ZTIN30C2TimestampGapAdjustmentStruct6mode_tE",
   "size" : 4,
   "source_file" : "/frameworks/av/media/codec2/core/include/C2Config.h",
   "underlying_type" : "_ZTIj"
  },
  {
   "alignment" : 4,
   "enum_fields" :
   [
    {
     "enum_field_value" : 2,
     "name" : "C2MasteringDisplayColorVolumeStruct::CORE_INDEX"
    }
   ],
   "linker_set_key" : "_ZTIN35C2MasteringDisplayColorVolumeStruct11$CORE_INDEXE",
   "name" : "C2MasteringDisplayColorVolumeStruct::(anonymous enum at frameworks/av/media/codec2/core/include/C2Config.h:1532:5)",
   "referenced_type" : "_ZTIN35C2MasteringDisplayColorVolumeStruct11$CORE_INDEXE",
   "self_type" : "_ZTIN35C2MasteringDisplayColorVolumeStruct11$CORE_INDEXE",
   "size" : 4,
   "source_file" : "/frameworks/av/media/codec2/core/include/C2Config.h",
   "underlying_type" : "_ZTIj"
  },
  {
   "alignment" : 4,
   "enum_fields" :
   [
    {
     "enum_field_value" : 16388,
     "name" : "C2FlexiblePixelFormatDescriptorStruct::CORE_INDEX"
    }
   ],
   "linker_set_key" : "_ZTIN37C2FlexiblePixelFormatDescriptorStruct11$CORE_INDEXE",
   "name" : "C2FlexiblePixelFormatDescriptorStruct::(anonymous enum at frameworks/av/media/codec2/core/include/C2Config.h:2044:5)",
   "referenced_type" : "_ZTIN37C2FlexiblePixelFormatDescriptorStruct11$CORE_INDEXE",
   "self_type" : "_ZTIN37C2FlexiblePixelFormatDescriptorStruct11$CORE_INDEXE",
   "size" : 4,
   "source_file" : "/frameworks/av/media/codec2/core/include/C2Config.h",
   "underlying_type" : "_ZTIj"
  },
  {
   "alignment" : 4,
   "enum_fields" :
   [
    {
     "enum_field_value" : -1073741824,
     "name" : "C2Info::PARAM_KIND"
    }
   ],
   "linker_set_key" : "_ZTIN6C2Info11$PARAM_KINDE",
   "name" : "C2Info::(anonymous enum at frameworks/av/media/codec2/core/include/C2Param.h:616:5)",
   "referenced_type" : "_ZTIN6C2Info11$PARAM_KINDE",
   "self_type" : "_ZTIN6C2Info11$PARAM_KINDE",
   "size" : 4,
   "source_file" : "/frameworks/av/media/codec2/core/include/C2Param.h",
   "underlying_type" : "_ZTIj"
  },
  {
   "alignment" : 4,
   "enum_fields" :
   [
    {
     "enum_field_value" : 0,
     "name" : "C2Color::TRANSFER_UNSPECIFIED"
    },
    {
     "enum_field_value" : 1,
     "name" : "C2Color::TRANSFER_LINEAR"
    },
    {
     "enum_field_value" : 2,
     "name" : "C2Color::TRANSFER_SRGB"
    },
    {
     "enum_field_value" : 3,
     "name" : "C2Color::TRANSFER_170M"
    },
    {
     "enum_field_value" : 4,
     "name" : "C2Color::TRANSFER_GAMMA22"
    },
    {
     "enum_field_value" : 5,
     "name" : "C2Color::TRANSFER_GAMMA28"
    },
    {
     "enum_field_value" : 6,
     "name" : "C2Color::TRANSFER_ST2084"
    },
    {
     "enum_field_value" : 7,
     "name" : "C2Color::TRANSFER_HLG"
    },
    {
     "enum_field_value" : 64,
     "name" : "C2Color::TRANSFER_240M"
    },
    {
     "enum_field_value" : 65,
     "name" : "C2Color::TRANSFER_XVYCC"
    },
    {
     "enum_field_value" : 66,
     "name" : "C2Color::TRANSFER_BT1361"
    },
    {
     "enum_field_value" : 67,
     "name" : "C2Color::TRANSFER_ST428"
    },
    {
     "enum_field_value" : 128,
     "name" : "C2Color::TRANSFER_VENDOR_START"
    },
    {
     "enum_field_value" : 255,
     "name" : "C2Color::TRANSFER_OTHER"
    }
   ],
   "linker_set_key" : "_ZTIN7C2Color10transfer_tE",
   "name" : "C2Color::transfer_t",
   "referenced_type" : "_ZTIN7C2Color10transfer_tE",
   "self_type" : "_ZTIN7C2Color10transfer_tE",
   "size" : 4,
   "source_file" : "/frameworks/av/media/codec2/core/include/C2Config.h",
   "underlying_type" : "_ZTIj"
  },
  {
   "alignment" : 4,
   "enum_fields" :
   [
    {
     "enum_field_value" : 0,
     "name" : "C2Color::PRIMARIES_UNSPECIFIED"
    },
    {
     "enum_field_value" : 1,
     "name" : "C2Color::PRIMARIES_BT709"
    },
    {
     "enum_field_value" : 2,
     "name" : "C2Color::PRIMARIES_BT470_M"
    },
    {
     "enum_field_value" : 3,
     "name" : "C2Color::PRIMARIES_BT601_625"
    },
    {
     "enum_field_value" : 4,
     "name" : "C2Color::PRIMARIES_BT601_525"
    },
    {
     "enum_field_value" : 5,
     "name" : "C2Color::PRIMARIES_GENERIC_FILM"
    },
    {
     "enum_field_value" : 6,
     "name" : "C2Color::PRIMARIES_BT2020"
    },
    {
     "enum_field_value" : 7,
     "name" : "C2Color::PRIMARIES_RP431"
    },
    {
     "enum_field_value" : 8,
     "name" : "C2Color::PRIMARIES_EG432"
    },
    {
     "enum_field_value" : 9,
     "name" : "C2Color::PRIMARIES_EBU3213"
    },
    {
     "enum_field_value" : 128,
     "name" : "C2Color::PRIMARIES_VENDOR_START"
    },
    {
     "enum_field_value" : 255,
     "name" : "C2Color::PRIMARIES_OTHER"
    }
   ],
   "linker_set_key" : "_ZTIN7C2Color11primaries_tE",
   "name" : "C2Color::primaries_t",
   "referenced_type" : "_ZTIN7C2Color11primaries_tE",
   "self_type" : "_ZTIN7C2Color11primaries_tE",
   "size" : 4,
   "source_file" : "/frameworks/av/media/codec2/core/include/C2Config.h",
   "underlying_type" : "_ZTIj"
  },
  {
   "alignment" : 4,
   "enum_fields" :
   [
    {
     "enum_field_value" : 0,
     "name" : "C2Color::MONOCHROME"
    },
    {
     "enum_field_value" : 1,
     "name" : "C2Color::MONOCHROME_ALPHA"
    },
    {
     "enum_field_value" : 2,
     "name" : "C2Color::RGB"
    },
    {
     "enum_field_value" : 3,
     "name" : "C2Color::RGBA"
    },
    {
     "enum_field_value" : 4,
     "name" : "C2Color::YUV_420"
    },
    {
     "enum_field_value" : 5,
     "name" : "C2Color::YUV_422"
    },
    {
     "enum_field_value" : 6,
     "name" : "C2Color::YUV_444"
    },
    {
     "enum_field_value" : 7,
     "name" : "C2Color::YUVA_444"
    }
   ],
   "linker_set_key" : "_ZTIN7C2Color13subsampling_tE",
   "name" : "C2Color::subsampling_t",
   "referenced_type" : "_ZTIN7C2Color13subsampling_tE",
   "self_type" : "_ZTIN7C2Color13subsampling_tE",
   "size" : 4,
   "source_file" : "/frameworks/av/media/codec2/core/include/C2Config.h",
   "underlying_type" : "_ZTIj"
  },
  {
   "alignment" : 4,
   "enum_fields" :
   [
    {
     "enum_field_value" : 0,
     "name" : "C2Color::UNKNOWN_LAYOUT"
    },
    {
     "enum_field_value" : 1,
     "name" : "C2Color::PLANAR_PACKED"
    },
    {
     "enum_field_value" : 2,
     "name" : "C2Color::SEMIPLANAR_PACKED"
    },
    {
     "enum_field_value" : 3,
     "name" : "C2Color::INTERLEAVED_PACKED"
    },
    {
     "enum_field_value" : 4,
     "name" : "C2Color::INTERLEAVED_ALIGNED"
    }
   ],
   "linker_set_key" : "_ZTIN7C2Color14plane_layout_tE",
   "name" : "C2Color::plane_layout_t",
   "referenced_type" : "_ZTIN7C2Color14plane_layout_tE",
   "self_type" : "_ZTIN7C2Color14plane_layout_tE",
   "size" : 4,
   "source_file" : "/frameworks/av/media/codec2/core/include/C2Config.h",
   "underlying_type" : "_ZTIj"
  },
  {
   "alignment" : 4,
   "enum_fields" :
   [
    {
     "enum_field_value" : 0,
     "name" : "C2Color::RANGE_UNSPECIFIED"
    },
    {
     "enum_field_value" : 1,
     "name" : "C2Color::RANGE_FULL"
    },
    {
     "enum_field_value" : 2,
     "name" : "C2Color::RANGE_LIMITED"
    },
    {
     "enum_field_value" : 128,
     "name" : "C2Color::RANGE_VENDOR_START"
    },
    {
     "enum_field_value" : 255,
     "name" : "C2Color::RANGE_OTHER"
    }
   ],
   "linker_set_key" : "_ZTIN7C2Color7range_tE",
   "name" : "C2Color::range_t",
   "referenced_type" : "_ZTIN7C2Color7range_tE",
   "self_type" : "_ZTIN7C2Color7range_tE",
   "size" : 4,
   "source_file" : "/frameworks/av/media/codec2/core/include/C2Config.h",
   "underlying_type" : "_ZTIj"
  },
  {
   "alignment" : 4,
   "enum_fields" :
   [
    {
     "enum_field_value" : 0,
     "name" : "C2Color::MATRIX_UNSPECIFIED"
    },
    {
     "enum_field_value" : 1,
     "name" : "C2Color::MATRIX_BT709"
    },
    {
     "enum_field_value" : 2,
     "name" : "C2Color::MATRIX_FCC47_73_682"
    },
    {
     "enum_field_value" : 3,
     "name" : "C2Color::MATRIX_BT601"
    },
    {
     "enum_field_value" : 4,
     "name" : "C2Color::MATRIX_240M"
    },
    {
     "enum_field_value" : 5,
     "name" : "C2Color::MATRIX_BT2020"
    },
    {
     "enum_field_value" : 6,
     "name" : "C2Color::MATRIX_BT2020_CONSTANT"
    },
    {
     "enum_field_value" : 128,
     "name" : "C2Color::MATRIX_VENDOR_START"
    },
    {
     "enum_field_value" : 255,
     "name" : "C2Color::MATRIX_OTHER"
    }
   ],
   "linker_set_key" : "_ZTIN7C2Color8matrix_tE",
   "name" : "C2Color::matrix_t",
   "referenced_type" : "_ZTIN7C2Color8matrix_tE",
   "self_type" : "_ZTIN7C2Color8matrix_tE",
   "size" : 4,
   "source_file" : "/frameworks/av/media/codec2/core/include/C2Config.h",
   "underlying_type" : "_ZTIj"
  },
  {
   "alignment" : 4,
   "enum_fields" :
   [
    {
     "enum_field_value" : 32768,
     "name" : "C2Param::TYPE_INDEX_VENDOR_START"
    }
   ],
   "linker_set_key" : "_ZTIN7C2Param24$TYPE_INDEX_VENDOR_STARTE",
   "name" : "C2Param::(anonymous enum at frameworks/av/media/codec2/core/include/C2Param.h:139:5)",
   "referenced_type" : "_ZTIN7C2Param24$TYPE_INDEX_VENDOR_STARTE",
   "self_type" : "_ZTIN7C2Param24$TYPE_INDEX_VENDOR_STARTE",
   "size" : 4,
   "source_file" : "/frameworks/av/media/codec2/core/include/C2Param.h",
   "underlying_type" : "_ZTIj"
  },
  {
   "alignment" : 4,
   "enum_fields" :
   [
    {
     "enum_field_value" : 0,
     "name" : "C2Param::NONE"
    },
    {
     "enum_field_value" : 1,
     "name" : "C2Param::STRUCT"
    },
    {
     "enum_field_value" : 2,
     "name" : "C2Param::INFO"
    },
    {
     "enum_field_value" : 4,
     "name" : "C2Param::SETTING"
    },
    {
     "enum_field_value" : 12,
     "name" : "C2Param::TUNING"
    }
   ],
   "linker_set_key" : "_ZTIN7C2Param6kind_tE",
   "name" : "C2Param::kind_t",
   "referenced_type" : "_ZTIN7C2Param6kind_tE",
   "self_type" : "_ZTIN7C2Param6kind_tE",
   "size" : 4,
   "source_file" : "/frameworks/av/media/codec2/core/include/C2Param.h",
   "underlying_type" : "_ZTIj"
  },
  {
   "access" : "protected",
   "alignment" : 4,
   "enum_fields" :
   [
    {
     "enum_field_value" : -1073741824,
     "name" : "C2Param::CoreIndex::KIND_MASK"
    },
    {
     "enum_field_value" : 0,
     "name" : "C2Param::CoreIndex::KIND_STRUCT"
    },
    {
     "enum_field_value" : 1073741824,
     "name" : "C2Param::CoreIndex::KIND_TUNING"
    },
    {
     "enum_field_value" : -2147483648,
     "name" : "C2Param::CoreIndex::KIND_SETTING"
    },
    {
     "enum_field_value" : -1073741824,
     "name" : "C2Param::CoreIndex::KIND_INFO"
    },
    {
     "enum_field_value" : 805306368,
     "name" : "C2Param::CoreIndex::DIR_MASK"
    },
    {
     "enum_field_value" : 536870912,
     "name" : "C2Param::CoreIndex::DIR_GLOBAL"
    },
    {
     "enum_field_value" : 805306368,
     "name" : "C2Param::CoreIndex::DIR_UNDEFINED"
    },
    {
     "enum_field_value" : 0,
     "name" : "C2Param::CoreIndex::DIR_INPUT"
    },
    {
     "enum_field_value" : 268435456,
     "name" : "C2Param::CoreIndex::DIR_OUTPUT"
    },
    {
     "enum_field_value" : 33554432,
     "name" : "C2Param::CoreIndex::IS_STREAM_FLAG"
    },
    {
     "enum_field_value" : 32505856,
     "name" : "C2Param::CoreIndex::STREAM_ID_MASK"
    },
    {
     "enum_field_value" : 20,
     "name" : "C2Param::CoreIndex::STREAM_ID_SHIFT"
    },
    {
     "enum_field_value" : 31,
     "name" : "C2Param::CoreIndex::MAX_STREAM_ID"
    },
    {
     "enum_field_value" : 66060288,
     "name" : "C2Param::CoreIndex::STREAM_MASK"
    },
    {
     "enum_field_value" : 32768,
     "name" : "C2Param::CoreIndex::IS_VENDOR_FLAG"
    },
    {
     "enum_field_value" : 65535,
     "name" : "C2Param::CoreIndex::TYPE_INDEX_MASK"
    },
    {
     "enum_field_value" : 131071,
     "name" : "C2Param::CoreIndex::CORE_MASK"
    }
   ],
   "linker_set_key" : "_ZTIN7C2Param9CoreIndex10$CORE_MASKE",
   "name" : "C2Param::CoreIndex::(anonymous enum at frameworks/av/media/codec2/core/include/C2Param.h:166:9)",
   "referenced_type" : "_ZTIN7C2Param9CoreIndex10$CORE_MASKE",
   "self_type" : "_ZTIN7C2Param9CoreIndex10$CORE_MASKE",
   "size" : 4,
   "source_file" : "/frameworks/av/media/codec2/core/include/C2Param.h",
   "underlying_type" : "_ZTIj"
  },
  {
   "alignment" : 4,
   "enum_fields" :
   [
    {
     "enum_field_value" : 65536,
     "name" : "C2Param::CoreIndex::IS_FLEX_FLAG"
    },
    {
     "enum_field_value" : 131072,
     "name" : "C2Param::CoreIndex::IS_REQUEST_FLAG"
    }
   ],
   "linker_set_key" : "_ZTIN7C2Param9CoreIndex13$IS_FLEX_FLAGE",
   "name" : "C2Param::CoreIndex::(anonymous enum at frameworks/av/media/codec2/core/include/C2Param.h:160:9)",
   "referenced_type" : "_ZTIN7C2Param9CoreIndex13$IS_FLEX_FLAGE",
   "self_type" : "_ZTIN7C2Param9CoreIndex13$IS_FLEX_FLAGE",
   "size" : 4,
   "source_file" : "/frameworks/av/media/codec2/core/include/C2Param.h",
   "underlying_type" : "_ZTIj"
  },
  {
   "alignment" : 4,
   "enum_fields" :
   [
    {
     "enum_field_value" : 0,
     "name" : "C2Value::NO_INIT"
    },
    {
     "enum_field_value" : 1,
     "name" : "C2Value::INT32"
    },
    {
     "enum_field_value" : 2,
     "name" : "C2Value::UINT32"
    },
    {
     "enum_field_value" : 3,
     "name" : "C2Value::CNTR32"
    },
    {
     "enum_field_value" : 4,
     "name" : "C2Value::INT64"
    },
    {
     "enum_field_value" : 5,
     "name" : "C2Value::UINT64"
    },
    {
     "enum_field_value" : 6,
     "name" : "C2Value::CNTR64"
    },
    {
     "enum_field_value" : 7,
     "name" : "C2Value::FLOAT"
    }
   ],
   "linker_set_key" : "_ZTIN7C2Value6type_tE",
   "name" : "C2Value::type_t",
   "referenced_type" : "_ZTIN7C2Value6type_tE",
   "self_type" : "_ZTIN7C2Value6type_tE",
   "size" : 4,
   "source_file" : "/frameworks/av/media/codec2/core/include/C2Param.h",
   "underlying_type" : "_ZTIj"
  },
  {
   "alignment" : 4,
   "enum_fields" :
   [
    {
     "enum_field_value" : 1048576,
     "name" : "android::C2AndroidMemoryUsage::RENDERSCRIPT_READ"
    },
    {
     "enum_field_value" : 256,
     "name" : "android::C2AndroidMemoryUsage::HW_TEXTURE_READ"
    },
    {
     "enum_field_value" : 2048,
     "name" : "android::C2AndroidMemoryUsage::HW_COMPOSER_READ"
    },
    {
     "enum_field_value" : 65536,
     "name" : "android::C2AndroidMemoryUsage::HW_CODEC_READ"
    },
    {
     "enum_field_value" : 16384,
     "name" : "android::C2AndroidMemoryUsage::READ_PROTECTED"
    }
   ],
   "linker_set_key" : "_ZTIN7android20C2AndroidMemoryUsage10consumer_tE",
   "name" : "android::C2AndroidMemoryUsage::consumer_t",
   "referenced_type" : "_ZTIN7android20C2AndroidMemoryUsage10consumer_tE",
   "self_type" : "_ZTIN7android20C2AndroidMemoryUsage10consumer_tE",
   "size" : 8,
   "source_file" : "/frameworks/av/media/codec2/core/include/android-C2Buffer.h",
   "underlying_type" : "_ZTIy"
  },
  {
   "alignment" : 4,
   "enum_fields" :
   [
    {
     "enum_field_value" : 1048576,
     "name" : "android::C2AndroidMemoryUsage::RENDERSCRIPT_WRITE"
    },
    {
     "enum_field_value" : 512,
     "name" : "android::C2AndroidMemoryUsage::HW_TEXTURE_WRITE"
    },
    {
     "enum_field_value" : 2560,
     "name" : "android::C2AndroidMemoryUsage::HW_COMPOSER_WRITE"
    },
    {
     "enum_field_value" : 65536,
     "name" : "android::C2AndroidMemoryUsage::HW_CODEC_WRITE"
    },
    {
     "enum_field_value" : 16384,
     "name" : "android::C2AndroidMemoryUsage::WRITE_PROTECTED"
    }
   ],
   "linker_set_key" : "_ZTIN7android20C2AndroidMemoryUsage10producer_tE",
   "name" : "android::C2AndroidMemoryUsage::producer_t",
   "referenced_type" : "_ZTIN7android20C2AndroidMemoryUsage10producer_tE",
   "self_type" : "_ZTIN7android20C2AndroidMemoryUsage10producer_tE",
   "size" : 8,
   "source_file" : "/frameworks/av/media/codec2/core/include/android-C2Buffer.h",
   "underlying_type" : "_ZTIy"
  },
  {
   "alignment" : 4,
   "enum_fields" :
   [
    {
     "enum_field_value" : 0,
     "name" : "C2Config::API_L0_1"
    }
   ],
   "linker_set_key" : "_ZTIN8C2Config11api_level_tE",
   "name" : "C2Config::api_level_t",
   "referenced_type" : "_ZTIN8C2Config11api_level_tE",
   "self_type" : "_ZTIN8C2Config11api_level_tE",
   "size" : 4,
   "source_file" : "/frameworks/av/media/codec2/core/include/C2Config.h",
   "underlying_type" : "_ZTIj"
  },
  {
   "alignment" : 4,
   "enum_fields" :
   [
    {
     "enum_field_value" : 0,
     "name" : "C2Config::SCAN_LEFT_TO_RIGHT_THEN_DOWN"
    }
   ],
   "linker_set_key" : "_ZTIN8C2Config12scan_order_tE",
   "name" : "C2Config::scan_order_t",
   "referenced_type" : "_ZTIN8C2Config12scan_order_tE",
   "self_type" : "_ZTIN8C2Config12scan_order_tE",
   "size" : 4,
   "source_file" : "/frameworks/av/media/codec2/core/include/C2Config.h",
   "underlying_type" : "_ZTIj"
  },
  {
   "alignment" : 4,
   "enum_fields" :
   [
    {
     "enum_field_value" : 1,
     "name" : "C2Config::API_REFLECTION"
    },
    {
     "enum_field_value" : 2,
     "name" : "C2Config::API_VALUES"
    },
    {
     "enum_field_value" : 4,
     "name" : "C2Config::API_CURRENT_VALUES"
    },
    {
     "enum_field_value" : 8,
     "name" : "C2Config::API_DEPENDENCY"
    },
    {
     "enum_field_value" : 0,
     "name" : "C2Config::API_STREAMS"
    },
    {
     "enum_field_value" : 0,
     "name" : "C2Config::API_TUNNELING"
    }
   ],
   "linker_set_key" : "_ZTIN8C2Config13api_feature_tE",
   "name" : "C2Config::api_feature_t",
   "referenced_type" : "_ZTIN8C2Config13api_feature_tE",
   "self_type" : "_ZTIN8C2Config13api_feature_tE",
   "size" : 8,
   "source_file" : "/frameworks/av/media/codec2/core/include/C2Config.h",
   "underlying_type" : "_ZTIy"
  },
  {
   "alignment" : 4,
   "enum_fields" :
   [
    {
     "enum_field_value" : 0,
     "name" : "C2Config::ORDINAL"
    },
    {
     "enum_field_value" : 1,
     "name" : "C2Config::TIMESTAMP"
    },
    {
     "enum_field_value" : 2,
     "name" : "C2Config::CUSTOM"
    }
   ],
   "linker_set_key" : "_ZTIN8C2Config13ordinal_key_tE",
   "name" : "C2Config::ordinal_key_t",
   "referenced_type" : "_ZTIN8C2Config13ordinal_key_tE",
   "self_type" : "_ZTIN8C2Config13ordinal_key_tE",
   "size" : 4,
   "source_file" : "/frameworks/av/media/codec2/core/include/C2Config.h",
   "underlying_type" : "_ZTIj"
  },
  {
   "alignment" : 4,
   "enum_fields" :
   [
    {
     "enum_field_value" : 0,
     "name" : "C2Config::SM_UNPROTECTED"
    },
    {
     "enum_field_value" : 1,
     "name" : "C2Config::SM_READ_PROTECTED"
    }
   ],
   "linker_set_key" : "_ZTIN8C2Config13secure_mode_tE",
   "name" : "C2Config::secure_mode_t",
   "referenced_type" : "_ZTIN8C2Config13secure_mode_tE",
   "self_type" : "_ZTIN8C2Config13secure_mode_tE",
   "size" : 4,
   "source_file" : "/frameworks/av/media/codec2/core/include/C2Config.h",
   "underlying_type" : "_ZTIj"
  },
  {
   "alignment" : 4,
   "enum_fields" :
   [
    {
     "enum_field_value" : 0,
     "name" : "C2Config::TILING_SEPARATE"
    },
    {
     "enum_field_value" : 1,
     "name" : "C2Config::TILING_CONCATENATE"
    }
   ],
   "linker_set_key" : "_ZTIN8C2Config13tiling_mode_tE",
   "name" : "C2Config::tiling_mode_t",
   "referenced_type" : "_ZTIN8C2Config13tiling_mode_tE",
   "self_type" : "_ZTIN8C2Config13tiling_mode_tE",
   "size" : 4,
   "source_file" : "/frameworks/av/media/codec2/core/include/C2Config.h",
   "underlying_type" : "_ZTIj"
  },
  {
   "alignment" : 4,
   "enum_fields" :
   [
    {
     "enum_field_value" : 0,
     "name" : "C2Config::AAC_SBR_OFF"
    },
    {
     "enum_field_value" : 1,
     "name" : "C2Config::AAC_SBR_SINGLE_RATE"
    },
    {
     "enum_field_value" : 2,
     "name" : "C2Config::AAC_SBR_DUAL_RATE"
    },
    {
     "enum_field_value" : 3,
     "name" : "C2Config::AAC_SBR_AUTO"
    }
   ],
   "linker_set_key" : "_ZTIN8C2Config14aac_sbr_mode_tE",
   "name" : "C2Config::aac_sbr_mode_t",
   "referenced_type" : "_ZTIN8C2Config14aac_sbr_mode_tE",
   "self_type" : "_ZTIN8C2Config14aac_sbr_mode_tE",
   "size" : 4,
   "source_file" : "/frameworks/av/media/codec2/core/include/C2Config.h",
   "underlying_type" : "_ZTIj"
  },
  {
   "alignment" : 4,
   "enum_fields" :
   [
    {
     "enum_field_value" : 0,
     "name" : "C2Config::BITRATE_CONST_SKIP_ALLOWED"
    },
    {
     "enum_field_value" : 1,
     "name" : "C2Config::BITRATE_CONST"
    },
    {
     "enum_field_value" : 2,
     "name" : "C2Config::BITRATE_VARIABLE_SKIP_ALLOWED"
    },
    {
     "enum_field_value" : 3,
     "name" : "C2Config::BITRATE_VARIABLE"
    },
    {
     "enum_field_value" : 7,
     "name" : "C2Config::BITRATE_IGNORE"
    },
    {
     "enum_field_value" : 1,
     "name" : "C2Config::BITRATE_FLAG_KEEP_ALL_FRAMES"
    },
    {
     "enum_field_value" : 2,
     "name" : "C2Config::BITRATE_FLAG_CAN_VARY"
    },
    {
     "enum_field_value" : 4,
     "name" : "C2Config::BITRATE_FLAG_CAN_EXCEED"
    }
   ],
   "linker_set_key" : "_ZTIN8C2Config14bitrate_mode_tE",
   "name" : "C2Config::bitrate_mode_t",
   "referenced_type" : "_ZTIN8C2Config14bitrate_mode_tE",
   "self_type" : "_ZTIN8C2Config14bitrate_mode_tE",
   "size" : 4,
   "source_file" : "/frameworks/av/media/codec2/core/include/C2Config.h",
   "underlying_type" : "_ZTIj"
  },
  {
   "alignment" : 4,
   "enum_fields" :
   [
    {
     "enum_field_value" : 0,
     "name" : "C2Config::PCM_16"
    },
    {
     "enum_field_value" : 1,
     "name" : "C2Config::PCM_8"
    },
    {
     "enum_field_value" : 2,
     "name" : "C2Config::PCM_FLOAT"
    }
   ],
   "linker_set_key" : "_ZTIN8C2Config14pcm_encoding_tE",
   "name" : "C2Config::pcm_encoding_t",
   "referenced_type" : "_ZTIN8C2Config14pcm_encoding_tE",
   "self_type" : "_ZTIN8C2Config14pcm_encoding_tE",
   "size" : 4,
   "source_file" : "/frameworks/av/media/codec2/core/include/C2Config.h",
   "underlying_type" : "_ZTIj"
  },
  {
   "alignment" : 4,
   "enum_fields" :
   [
    {
     "enum_field_value" : 1,
     "name" : "C2Config::SYNC_FRAME"
    },
    {
     "enum_field_value" : 2,
     "name" : "C2Config::I_FRAME"
    },
    {
     "enum_field_value" : 4,
     "name" : "C2Config::P_FRAME"
    },
    {
     "enum_field_value" : 8,
     "name" : "C2Config::B_FRAME"
    }
   ],
   "linker_set_key" : "_ZTIN8C2Config14picture_type_tE",
   "name" : "C2Config::picture_type_t",
   "referenced_type" : "_ZTIN8C2Config14picture_type_tE",
   "self_type" : "_ZTIN8C2Config14picture_type_tE",
   "size" : 4,
   "source_file" : "/frameworks/av/media/codec2/core/include/C2Config.h",
   "underlying_type" : "_ZTIj"
  },
  {
   "alignment" : 4,
   "enum_fields" :
   [
    {
     "enum_field_value" : 0,
     "name" : "C2Config::AAC_PACKAGING_RAW"
    },
    {
     "enum_field_value" : 1,
     "name" : "C2Config::AAC_PACKAGING_ADTS"
    }
   ],
   "linker_set_key" : "_ZTIN8C2Config15aac_packaging_tE",
   "name" : "C2Config::aac_packaging_t",
   "referenced_type" : "_ZTIN8C2Config15aac_packaging_tE",
   "self_type" : "_ZTIN8C2Config15aac_packaging_tE",
   "size" : 4,
   "source_file" : "/frameworks/av/media/codec2/core/include/C2Config.h",
   "underlying_type" : "_ZTIj"
  },
  {
   "alignment" : 4,
   "enum_fields" :
   [
    {
     "enum_field_value" : 0,
     "name" : "C2Config::DRC_ALBUM_MODE_OFF"
    },
    {
     "enum_field_value" : 1,
     "name" : "C2Config::DRC_ALBUM_MODE_ON"
    }
   ],
   "linker_set_key" : "_ZTIN8C2Config16drc_album_mode_tE",
   "name" : "C2Config::drc_album_mode_t",
   "referenced_type" : "_ZTIN8C2Config16drc_album_mode_tE",
   "self_type" : "_ZTIN8C2Config16drc_album_mode_tE",
   "size" : 4,
   "source_file" : "/frameworks/av/media/codec2/core/include/C2Config.h",
   "underlying_type" : "_ZTIi"
  },
  {
   "alignment" : 4,
   "enum_fields" :
   [
    {
     "enum_field_value" : 0,
     "name" : "C2Config::PLATFORM_P"
    }
   ],
   "linker_set_key" : "_ZTIN8C2Config16platform_level_tE",
   "name" : "C2Config::platform_level_t",
   "referenced_type" : "_ZTIN8C2Config16platform_level_tE",
   "self_type" : "_ZTIN8C2Config16platform_level_tE",
   "size" : 4,
   "source_file" : "/frameworks/av/media/codec2/core/include/C2Config.h",
   "underlying_type" : "_ZTIj"
  },
  {
   "alignment" : 4,
   "enum_fields" :
   [
    {
     "enum_field_value" : 0,
     "name" : "C2Config::SCALING_ARBITRARY"
    }
   ],
   "linker_set_key" : "_ZTIN8C2Config16scaling_method_tE",
   "name" : "C2Config::scaling_method_t",
   "referenced_type" : "_ZTIN8C2Config16scaling_method_tE",
   "self_type" : "_ZTIN8C2Config16scaling_method_tE",
   "size" : 4,
   "source_file" : "/frameworks/av/media/codec2/core/include/C2Config.h",
   "underlying_type" : "_ZTIj"
  },
  {
   "alignment" : 4,
   "enum_fields" :
   [
    {
     "enum_field_value" : -2,
     "name" : "C2Config::DRC_EFFECT_ODM_DEFAULT"
    },
    {
     "enum_field_value" : -1,
     "name" : "C2Config::DRC_EFFECT_OFF"
    },
    {
     "enum_field_value" : 0,
     "name" : "C2Config::DRC_EFFECT_NONE"
    },
    {
     "enum_field_value" : 1,
     "name" : "C2Config::DRC_EFFECT_LATE_NIGHT"
    },
    {
     "enum_field_value" : 2,
     "name" : "C2Config::DRC_EFFECT_NOISY_ENVIRONMENT"
    },
    {
     "enum_field_value" : 3,
     "name" : "C2Config::DRC_EFFECT_LIMITED_PLAYBACK_RANGE"
    },
    {
     "enum_field_value" : 4,
     "name" : "C2Config::DRC_EFFECT_LOW_PLAYBACK_LEVEL"
    },
    {
     "enum_field_value" : 5,
     "name" : "C2Config::DRC_EFFECT_DIALOG_ENHANCEMENT"
    },
    {
     "enum_field_value" : 6,
     "name" : "C2Config::DRC_EFFECT_GENERAL_COMPRESSION"
    }
   ],
   "linker_set_key" : "_ZTIN8C2Config17drc_effect_type_tE",
   "name" : "C2Config::drc_effect_type_t",
   "referenced_type" : "_ZTIN8C2Config17drc_effect_type_tE",
   "self_type" : "_ZTIN8C2Config17drc_effect_type_tE",
   "size" : 4,
   "source_file" : "/frameworks/av/media/codec2/core/include/C2Config.h",
   "underlying_type" : "_ZTIi"
  },
  {
   "alignment" : 4,
   "linker_set_key" : "_ZTIN8C2Config18platform_feature_tE",
   "name" : "C2Config::platform_feature_t",
   "referenced_type" : "_ZTIN8C2Config18platform_feature_tE",
   "self_type" : "_ZTIN8C2Config18platform_feature_tE",
   "size" : 8,
   "source_file" : "/frameworks/av/media/codec2/core/include/C2Config.h",
   "underlying_type" : "_ZTIy"
  },
  {
   "alignment" : 4,
   "enum_fields" :
   [
    {
     "enum_field_value" : 0,
     "name" : "C2Config::INFO_NONE"
    },
    {
     "enum_field_value" : 65536,
     "name" : "C2Config::INFO_PREFIX_SEI_UNIT"
    },
    {
     "enum_field_value" : 131072,
     "name" : "C2Config::INFO_SUFFIX_SEI_UNIT"
    },
    {
     "enum_field_value" : 65540,
     "name" : "C2Config::INFO_SEI_USER_DATA"
    },
    {
     "enum_field_value" : 65673,
     "name" : "C2Config::INFO_SEI_MDCV"
    },
    {
     "enum_field_value" : 131076,
     "name" : "C2Config::INFO_SET_USER_DATA_SFX"
    },
    {
     "enum_field_value" : 1879048192,
     "name" : "C2Config::INFO_VENDOR_START"
    }
   ],
   "linker_set_key" : "_ZTIN8C2Config19supplemental_info_tE",
   "name" : "C2Config::supplemental_info_t",
   "referenced_type" : "_ZTIN8C2Config19supplemental_info_tE",
   "self_type" : "_ZTIN8C2Config19supplemental_info_tE",
   "size" : 4,
   "source_file" : "/frameworks/av/media/codec2/core/include/C2Config.h",
   "underlying_type" : "_ZTIj"
  },
  {
   "alignment" : 4,
   "enum_fields" :
   [
    {
     "enum_field_value" : 0,
     "name" : "C2Config::INTRA_REFRESH_DISABLED"
    },
    {
     "enum_field_value" : 1,
     "name" : "C2Config::INTRA_REFRESH_ARBITRARY"
    }
   ],
   "linker_set_key" : "_ZTIN8C2Config20intra_refresh_mode_tE",
   "name" : "C2Config::intra_refresh_mode_t",
   "referenced_type" : "_ZTIN8C2Config20intra_refresh_mode_tE",
   "self_type" : "_ZTIN8C2Config20intra_refresh_mode_tE",
   "size" : 4,
   "source_file" : "/frameworks/av/media/codec2/core/include/C2Config.h",
   "underlying_type" : "_ZTIj"
  },
  {
   "alignment" : 4,
   "enum_fields" :
   [
    {
     "enum_field_value" : 0,
     "name" : "C2Config::PREPEND_HEADER_TO_NONE"
    },
    {
     "enum_field_value" : 1,
     "name" : "C2Config::PREPEND_HEADER_ON_CHANGE"
    },
    {
     "enum_field_value" : 2,
     "name" : "C2Config::PREPEND_HEADER_TO_ALL_SYNC"
    }
   ],
   "linker_set_key" : "_ZTIN8C2Config21prepend_header_mode_tE",
   "name" : "C2Config::prepend_header_mode_t",
   "referenced_type" : "_ZTIN8C2Config21prepend_header_mode_tE",
   "self_type" : "_ZTIN8C2Config21prepend_header_mode_tE",
   "size" : 4,
   "source_file" : "/frameworks/av/media/codec2/core/include/C2Config.h",
   "underlying_type" : "_ZTIj"
  },
  {
   "alignment" : 4,
   "enum_fields" :
   [
    {
     "enum_field_value" : 0,
     "name" : "C2Config::DRC_COMPRESSION_ODM_DEFAULT"
    },
    {
     "enum_field_value" : 1,
     "name" : "C2Config::DRC_COMPRESSION_NONE"
    },
    {
     "enum_field_value" : 2,
     "name" : "C2Config::DRC_COMPRESSION_LIGHT"
    },
    {
     "enum_field_value" : 3,
     "name" : "C2Config::DRC_COMPRESSION_HEAVY"
    }
   ],
   "linker_set_key" : "_ZTIN8C2Config22drc_compression_mode_tE",
   "name" : "C2Config::drc_compression_mode_t",
   "referenced_type" : "_ZTIN8C2Config22drc_compression_mode_tE",
   "self_type" : "_ZTIN8C2Config22drc_compression_mode_tE",
   "size" : 4,
   "source_file" : "/frameworks/av/media/codec2/core/include/C2Config.h",
   "underlying_type" : "_ZTIi"
  },
  {
   "alignment" : 4,
   "enum_fields" :
   [
    {
     "enum_field_value" : 0,
     "name" : "C2Config::LEVEL_UNUSED"
    },
    {
     "enum_field_value" : 4096,
     "name" : "C2Config::LEVEL_MP2V_LOW"
    },
    {
     "enum_field_value" : 4097,
     "name" : "C2Config::LEVEL_MP2V_MAIN"
    },
    {
     "enum_field_value" : 4098,
     "name" : "C2Config::LEVEL_MP2V_HIGH_1440"
    },
    {
     "enum_field_value" : 4099,
     "name" : "C2Config::LEVEL_MP2V_HIGH"
    },
    {
     "enum_field_value" : 4100,
     "name" : "C2Config::LEVEL_MP2V_HIGHP"
    },
    {
     "enum_field_value" : 12288,
     "name" : "C2Config::LEVEL_H263_10"
    },
    {
     "enum_field_value" : 12289,
     "name" : "C2Config::LEVEL_H263_20"
    },
    {
     "enum_field_value" : 12290,
     "name" : "C2Config::LEVEL_H263_30"
    },
    {
     "enum_field_value" : 12291,
     "name" : "C2Config::LEVEL_H263_40"
    },
    {
     "enum_field_value" : 12292,
     "name" : "C2Config::LEVEL_H263_45"
    },
    {
     "enum_field_value" : 12293,
     "name" : "C2Config::LEVEL_H263_50"
    },
    {
     "enum_field_value" : 12294,
     "name" : "C2Config::LEVEL_H263_60"
    },
    {
     "enum_field_value" : 12295,
     "name" : "C2Config::LEVEL_H263_70"
    },
    {
     "enum_field_value" : 16384,
     "name" : "C2Config::LEVEL_MP4V_0"
    },
    {
     "enum_field_value" : 16385,
     "name" : "C2Config::LEVEL_MP4V_0B"
    },
    {
     "enum_field_value" : 16386,
     "name" : "C2Config::LEVEL_MP4V_1"
    },
    {
     "enum_field_value" : 16387,
     "name" : "C2Config::LEVEL_MP4V_2"
    },
    {
     "enum_field_value" : 16388,
     "name" : "C2Config::LEVEL_MP4V_3"
    },
    {
     "enum_field_value" : 16389,
     "name" : "C2Config::LEVEL_MP4V_3B"
    },
    {
     "enum_field_value" : 16390,
     "name" : "C2Config::LEVEL_MP4V_4"
    },
    {
     "enum_field_value" : 16391,
     "name" : "C2Config::LEVEL_MP4V_4A"
    },
    {
     "enum_field_value" : 16392,
     "name" : "C2Config::LEVEL_MP4V_5"
    },
    {
     "enum_field_value" : 16393,
     "name" : "C2Config::LEVEL_MP4V_6"
    },
    {
     "enum_field_value" : 20480,
     "name" : "C2Config::LEVEL_AVC_1"
    },
    {
     "enum_field_value" : 20481,
     "name" : "C2Config::LEVEL_AVC_1B"
    },
    {
     "enum_field_value" : 20482,
     "name" : "C2Config::LEVEL_AVC_1_1"
    },
    {
     "enum_field_value" : 20483,
     "name" : "C2Config::LEVEL_AVC_1_2"
    },
    {
     "enum_field_value" : 20484,
     "name" : "C2Config::LEVEL_AVC_1_3"
    },
    {
     "enum_field_value" : 20485,
     "name" : "C2Config::LEVEL_AVC_2"
    },
    {
     "enum_field_value" : 20486,
     "name" : "C2Config::LEVEL_AVC_2_1"
    },
    {
     "enum_field_value" : 20487,
     "name" : "C2Config::LEVEL_AVC_2_2"
    },
    {
     "enum_field_value" : 20488,
     "name" : "C2Config::LEVEL_AVC_3"
    },
    {
     "enum_field_value" : 20489,
     "name" : "C2Config::LEVEL_AVC_3_1"
    },
    {
     "enum_field_value" : 20490,
     "name" : "C2Config::LEVEL_AVC_3_2"
    },
    {
     "enum_field_value" : 20491,
     "name" : "C2Config::LEVEL_AVC_4"
    },
    {
     "enum_field_value" : 20492,
     "name" : "C2Config::LEVEL_AVC_4_1"
    },
    {
     "enum_field_value" : 20493,
     "name" : "C2Config::LEVEL_AVC_4_2"
    },
    {
     "enum_field_value" : 20494,
     "name" : "C2Config::LEVEL_AVC_5"
    },
    {
     "enum_field_value" : 20495,
     "name" : "C2Config::LEVEL_AVC_5_1"
    },
    {
     "enum_field_value" : 20496,
     "name" : "C2Config::LEVEL_AVC_5_2"
    },
    {
     "enum_field_value" : 20497,
     "name" : "C2Config::LEVEL_AVC_6"
    },
    {
     "enum_field_value" : 20498,
     "name" : "C2Config::LEVEL_AVC_6_1"
    },
    {
     "enum_field_value" : 20499,
     "name" : "C2Config::LEVEL_AVC_6_2"
    },
    {
     "enum_field_value" : 24576,
     "name" : "C2Config::LEVEL_HEVC_MAIN_1"
    },
    {
     "enum_field_value" : 24577,
     "name" : "C2Config::LEVEL_HEVC_MAIN_2"
    },
    {
     "enum_field_value" : 24578,
     "name" : "C2Config::LEVEL_HEVC_MAIN_2_1"
    },
    {
     "enum_field_value" : 24579,
     "name" : "C2Config::LEVEL_HEVC_MAIN_3"
    },
    {
     "enum_field_value" : 24580,
     "name" : "C2Config::LEVEL_HEVC_MAIN_3_1"
    },
    {
     "enum_field_value" : 24581,
     "name" : "C2Config::LEVEL_HEVC_MAIN_4"
    },
    {
     "enum_field_value" : 24582,
     "name" : "C2Config::LEVEL_HEVC_MAIN_4_1"
    },
    {
     "enum_field_value" : 24583,
     "name" : "C2Config::LEVEL_HEVC_MAIN_5"
    },
    {
     "enum_field_value" : 24584,
     "name" : "C2Config::LEVEL_HEVC_MAIN_5_1"
    },
    {
     "enum_field_value" : 24585,
     "name" : "C2Config::LEVEL_HEVC_MAIN_5_2"
    },
    {
     "enum_field_value" : 24586,
     "name" : "C2Config::LEVEL_HEVC_MAIN_6"
    },
    {
     "enum_field_value" : 24587,
     "name" : "C2Config::LEVEL_HEVC_MAIN_6_1"
    },
    {
     "enum_field_value" : 24588,
     "name" : "C2Config::LEVEL_HEVC_MAIN_6_2"
    },
    {
     "enum_field_value" : 24832,
     "name" : "C2Config::LEVEL_HEVC_HIGH_4"
    },
    {
     "enum_field_value" : 24833,
     "name" : "C2Config::LEVEL_HEVC_HIGH_4_1"
    },
    {
     "enum_field_value" : 24834,
     "name" : "C2Config::LEVEL_HEVC_HIGH_5"
    },
    {
     "enum_field_value" : 24835,
     "name" : "C2Config::LEVEL_HEVC_HIGH_5_1"
    },
    {
     "enum_field_value" : 24836,
     "name" : "C2Config::LEVEL_HEVC_HIGH_5_2"
    },
    {
     "enum_field_value" : 24837,
     "name" : "C2Config::LEVEL_HEVC_HIGH_6"
    },
    {
     "enum_field_value" : 24838,
     "name" : "C2Config::LEVEL_HEVC_HIGH_6_1"
    },
    {
     "enum_field_value" : 24839,
     "name" : "C2Config::LEVEL_HEVC_HIGH_6_2"
    },
    {
     "enum_field_value" : 28672,
     "name" : "C2Config::LEVEL_VP9_1"
    },
    {
     "enum_field_value" : 28673,
     "name" : "C2Config::LEVEL_VP9_1_1"
    },
    {
     "enum_field_value" : 28674,
     "name" : "C2Config::LEVEL_VP9_2"
    },
    {
     "enum_field_value" : 28675,
     "name" : "C2Config::LEVEL_VP9_2_1"
    },
    {
     "enum_field_value" : 28676,
     "name" : "C2Config::LEVEL_VP9_3"
    },
    {
     "enum_field_value" : 28677,
     "name" : "C2Config::LEVEL_VP9_3_1"
    },
    {
     "enum_field_value" : 28678,
     "name" : "C2Config::LEVEL_VP9_4"
    },
    {
     "enum_field_value" : 28679,
     "name" : "C2Config::LEVEL_VP9_4_1"
    },
    {
     "enum_field_value" : 28680,
     "name" : "C2Config::LEVEL_VP9_5"
    },
    {
     "enum_field_value" : 28681,
     "name" : "C2Config::LEVEL_VP9_5_1"
    },
    {
     "enum_field_value" : 28682,
     "name" : "C2Config::LEVEL_VP9_5_2"
    },
    {
     "enum_field_value" : 28683,
     "name" : "C2Config::LEVEL_VP9_6"
    },
    {
     "enum_field_value" : 28684,
     "name" : "C2Config::LEVEL_VP9_6_1"
    },
    {
     "enum_field_value" : 28685,
     "name" : "C2Config::LEVEL_VP9_6_2"
    },
    {
     "enum_field_value" : 32768,
     "name" : "C2Config::LEVEL_DV_MAIN_HD_24"
    },
    {
     "enum_field_value" : 32769,
     "name" : "C2Config::LEVEL_DV_MAIN_HD_30"
    },
    {
     "enum_field_value" : 32770,
     "name" : "C2Config::LEVEL_DV_MAIN_FHD_24"
    },
    {
     "enum_field_value" : 32771,
     "name" : "C2Config::LEVEL_DV_MAIN_FHD_30"
    },
    {
     "enum_field_value" : 32772,
     "name" : "C2Config::LEVEL_DV_MAIN_FHD_60"
    },
    {
     "enum_field_value" : 32773,
     "name" : "C2Config::LEVEL_DV_MAIN_UHD_24"
    },
    {
     "enum_field_value" : 32774,
     "name" : "C2Config::LEVEL_DV_MAIN_UHD_30"
    },
    {
     "enum_field_value" : 32775,
     "name" : "C2Config::LEVEL_DV_MAIN_UHD_48"
    },
    {
     "enum_field_value" : 32776,
     "name" : "C2Config::LEVEL_DV_MAIN_UHD_60"
    },
    {
     "enum_field_value" : 33024,
     "name" : "C2Config::LEVEL_DV_HIGH_HD_24"
    },
    {
     "enum_field_value" : 33025,
     "name" : "C2Config::LEVEL_DV_HIGH_HD_30"
    },
    {
     "enum_field_value" : 33026,
     "name" : "C2Config::LEVEL_DV_HIGH_FHD_24"
    },
    {
     "enum_field_value" : 33027,
     "name" : "C2Config::LEVEL_DV_HIGH_FHD_30"
    },
    {
     "enum_field_value" : 33028,
     "name" : "C2Config::LEVEL_DV_HIGH_FHD_60"
    },
    {
     "enum_field_value" : 33029,
     "name" : "C2Config::LEVEL_DV_HIGH_UHD_24"
    },
    {
     "enum_field_value" : 33030,
     "name" : "C2Config::LEVEL_DV_HIGH_UHD_30"
    },
    {
     "enum_field_value" : 33031,
     "name" : "C2Config::LEVEL_DV_HIGH_UHD_48"
    },
    {
     "enum_field_value" : 33032,
     "name" : "C2Config::LEVEL_DV_HIGH_UHD_60"
    },
    {
     "enum_field_value" : 36864,
     "name" : "C2Config::LEVEL_AV1_2"
    },
    {
     "enum_field_value" : 36865,
     "name" : "C2Config::LEVEL_AV1_2_1"
    },
    {
     "enum_field_value" : 36866,
     "name" : "C2Config::LEVEL_AV1_2_2"
    },
    {
     "enum_field_value" : 36867,
     "name" : "C2Config::LEVEL_AV1_2_3"
    },
    {
     "enum_field_value" : 36868,
     "name" : "C2Config::LEVEL_AV1_3"
    },
    {
     "enum_field_value" : 36869,
     "name" : "C2Config::LEVEL_AV1_3_1"
    },
    {
     "enum_field_value" : 36870,
     "name" : "C2Config::LEVEL_AV1_3_2"
    },
    {
     "enum_field_value" : 36871,
     "name" : "C2Config::LEVEL_AV1_3_3"
    },
    {
     "enum_field_value" : 36872,
     "name" : "C2Config::LEVEL_AV1_4"
    },
    {
     "enum_field_value" : 36873,
     "name" : "C2Config::LEVEL_AV1_4_1"
    },
    {
     "enum_field_value" : 36874,
     "name" : "C2Config::LEVEL_AV1_4_2"
    },
    {
     "enum_field_value" : 36875,
     "name" : "C2Config::LEVEL_AV1_4_3"
    },
    {
     "enum_field_value" : 36876,
     "name" : "C2Config::LEVEL_AV1_5"
    },
    {
     "enum_field_value" : 36877,
     "name" : "C2Config::LEVEL_AV1_5_1"
    },
    {
     "enum_field_value" : 36878,
     "name" : "C2Config::LEVEL_AV1_5_2"
    },
    {
     "enum_field_value" : 36879,
     "name" : "C2Config::LEVEL_AV1_5_3"
    },
    {
     "enum_field_value" : 36880,
     "name" : "C2Config::LEVEL_AV1_6"
    },
    {
     "enum_field_value" : 36881,
     "name" : "C2Config::LEVEL_AV1_6_1"
    },
    {
     "enum_field_value" : 36882,
     "name" : "C2Config::LEVEL_AV1_6_2"
    },
    {
     "enum_field_value" : 36883,
     "name" : "C2Config::LEVEL_AV1_6_3"
    },
    {
     "enum_field_value" : 36884,
     "name" : "C2Config::LEVEL_AV1_7"
    },
    {
     "enum_field_value" : 36885,
     "name" : "C2Config::LEVEL_AV1_7_1"
    },
    {
     "enum_field_value" : 36886,
     "name" : "C2Config::LEVEL_AV1_7_2"
    },
    {
     "enum_field_value" : 36887,
     "name" : "C2Config::LEVEL_AV1_7_3"
    }
   ],
   "linker_set_key" : "_ZTIN8C2Config7level_tE",
   "name" : "C2Config::level_t",
   "referenced_type" : "_ZTIN8C2Config7level_tE",
   "self_type" : "_ZTIN8C2Config7level_tE",
   "size" : 4,
   "source_file" : "/frameworks/av/media/codec2/core/include/C2Config.h",
   "underlying_type" : "_ZTIj"
  },
  {
   "alignment" : 4,
   "enum_fields" :
   [
    {
     "enum_field_value" : 0,
     "name" : "C2Config::PROFILE_UNUSED"
    },
    {
     "enum_field_value" : 8192,
     "name" : "C2Config::PROFILE_AAC_LC"
    },
    {
     "enum_field_value" : 8193,
     "name" : "C2Config::PROFILE_AAC_MAIN"
    },
    {
     "enum_field_value" : 8194,
     "name" : "C2Config::PROFILE_AAC_SSR"
    },
    {
     "enum_field_value" : 8195,
     "name" : "C2Config::PROFILE_AAC_LTP"
    },
    {
     "enum_field_value" : 8196,
     "name" : "C2Config::PROFILE_AAC_HE"
    },
    {
     "enum_field_value" : 8197,
     "name" : "C2Config::PROFILE_AAC_SCALABLE"
    },
    {
     "enum_field_value" : 8198,
     "name" : "C2Config::PROFILE_AAC_ER_LC"
    },
    {
     "enum_field_value" : 8199,
     "name" : "C2Config::PROFILE_AAC_ER_SCALABLE"
    },
    {
     "enum_field_value" : 8200,
     "name" : "C2Config::PROFILE_AAC_LD"
    },
    {
     "enum_field_value" : 8201,
     "name" : "C2Config::PROFILE_AAC_HE_PS"
    },
    {
     "enum_field_value" : 8202,
     "name" : "C2Config::PROFILE_AAC_ELD"
    },
    {
     "enum_field_value" : 8203,
     "name" : "C2Config::PROFILE_AAC_XHE"
    },
    {
     "enum_field_value" : 4096,
     "name" : "C2Config::PROFILE_MP2V_SIMPLE"
    },
    {
     "enum_field_value" : 4097,
     "name" : "C2Config::PROFILE_MP2V_MAIN"
    },
    {
     "enum_field_value" : 4098,
     "name" : "C2Config::PROFILE_MP2V_SNR_SCALABLE"
    },
    {
     "enum_field_value" : 4099,
     "name" : "C2Config::PROFILE_MP2V_SPATIALLY_SCALABLE"
    },
    {
     "enum_field_value" : 4100,
     "name" : "C2Config::PROFILE_MP2V_HIGH"
    },
    {
     "enum_field_value" : 4101,
     "name" : "C2Config::PROFILE_MP2V_422"
    },
    {
     "enum_field_value" : 4102,
     "name" : "C2Config::PROFILE_MP2V_MULTIVIEW"
    },
    {
     "enum_field_value" : 12288,
     "name" : "C2Config::PROFILE_H263_BASELINE"
    },
    {
     "enum_field_value" : 12289,
     "name" : "C2Config::PROFILE_H263_H320"
    },
    {
     "enum_field_value" : 12290,
     "name" : "C2Config::PROFILE_H263_V1BC"
    },
    {
     "enum_field_value" : 12291,
     "name" : "C2Config::PROFILE_H263_ISWV2"
    },
    {
     "enum_field_value" : 12292,
     "name" : "C2Config::PROFILE_H263_ISWV3"
    },
    {
     "enum_field_value" : 12293,
     "name" : "C2Config::PROFILE_H263_HIGH_COMPRESSION"
    },
    {
     "enum_field_value" : 12294,
     "name" : "C2Config::PROFILE_H263_INTERNET"
    },
    {
     "enum_field_value" : 12295,
     "name" : "C2Config::PROFILE_H263_INTERLACE"
    },
    {
     "enum_field_value" : 12296,
     "name" : "C2Config::PROFILE_H263_HIGH_LATENCY"
    },
    {
     "enum_field_value" : 12297,
     "name" : "C2Config::PROFILE_MP4V_SIMPLE"
    },
    {
     "enum_field_value" : 12298,
     "name" : "C2Config::PROFILE_MP4V_SIMPLE_SCALABLE"
    },
    {
     "enum_field_value" : 12299,
     "name" : "C2Config::PROFILE_MP4V_CORE"
    },
    {
     "enum_field_value" : 12300,
     "name" : "C2Config::PROFILE_MP4V_MAIN"
    },
    {
     "enum_field_value" : 12301,
     "name" : "C2Config::PROFILE_MP4V_NBIT"
    },
    {
     "enum_field_value" : 12302,
     "name" : "C2Config::PROFILE_MP4V_ARTS"
    },
    {
     "enum_field_value" : 12303,
     "name" : "C2Config::PROFILE_MP4V_CORE_SCALABLE"
    },
    {
     "enum_field_value" : 12304,
     "name" : "C2Config::PROFILE_MP4V_ACE"
    },
    {
     "enum_field_value" : 12305,
     "name" : "C2Config::PROFILE_MP4V_ADVANCED_CORE"
    },
    {
     "enum_field_value" : 12306,
     "name" : "C2Config::PROFILE_MP4V_SIMPLE_STUDIO"
    },
    {
     "enum_field_value" : 12307,
     "name" : "C2Config::PROFILE_MP4V_CORE_STUDIO"
    },
    {
     "enum_field_value" : 12308,
     "name" : "C2Config::PROFILE_MP4V_ADVANCED_SIMPLE"
    },
    {
     "enum_field_value" : 12309,
     "name" : "C2Config::PROFILE_MP4V_FGS"
    },
    {
     "enum_field_value" : 20480,
     "name" : "C2Config::PROFILE_AVC_BASELINE"
    },
    {
     "enum_field_value" : 20481,
     "name" : "C2Config::PROFILE_AVC_CONSTRAINED_BASELINE"
    },
    {
     "enum_field_value" : 20482,
     "name" : "C2Config::PROFILE_AVC_MAIN"
    },
    {
     "enum_field_value" : 20483,
     "name" : "C2Config::PROFILE_AVC_EXTENDED"
    },
    {
     "enum_field_value" : 20484,
     "name" : "C2Config::PROFILE_AVC_HIGH"
    },
    {
     "enum_field_value" : 20485,
     "name" : "C2Config::PROFILE_AVC_PROGRESSIVE_HIGH"
    },
    {
     "enum_field_value" : 20486,
     "name" : "C2Config::PROFILE_AVC_CONSTRAINED_HIGH"
    },
    {
     "enum_field_value" : 20487,
     "name" : "C2Config::PROFILE_AVC_HIGH_10"
    },
    {
     "enum_field_value" : 20488,
     "name" : "C2Config::PROFILE_AVC_PROGRESSIVE_HIGH_10"
    },
    {
     "enum_field_value" : 20489,
     "name" : "C2Config::PROFILE_AVC_HIGH_422"
    },
    {
     "enum_field_value" : 20490,
     "name" : "C2Config::PROFILE_AVC_HIGH_444_PREDICTIVE"
    },
    {
     "enum_field_value" : 20491,
     "name" : "C2Config::PROFILE_AVC_HIGH_10_INTRA"
    },
    {
     "enum_field_value" : 20492,
     "name" : "C2Config::PROFILE_AVC_HIGH_422_INTRA"
    },
    {
     "enum_field_value" : 20493,
     "name" : "C2Config::PROFILE_AVC_HIGH_444_INTRA"
    },
    {
     "enum_field_value" : 20494,
     "name" : "C2Config::PROFILE_AVC_CAVLC_444_INTRA"
    },
    {
     "enum_field_value" : 20736,
     "name" : "C2Config::PROFILE_AVC_SCALABLE_BASELINE"
    },
    {
     "enum_field_value" : 20737,
     "name" : "C2Config::PROFILE_AVC_SCALABLE_CONSTRAINED_BASELINE"
    },
    {
     "enum_field_value" : 20738,
     "name" : "C2Config::PROFILE_AVC_SCALABLE_HIGH"
    },
    {
     "enum_field_value" : 20739,
     "name" : "C2Config::PROFILE_AVC_SCALABLE_CONSTRAINED_HIGH"
    },
    {
     "enum_field_value" : 20740,
     "name" : "C2Config::PROFILE_AVC_SCALABLE_HIGH_INTRA"
    },
    {
     "enum_field_value" : 20992,
     "name" : "C2Config::PROFILE_AVC_MULTIVIEW_HIGH"
    },
    {
     "enum_field_value" : 20993,
     "name" : "C2Config::PROFILE_AVC_STEREO_HIGH"
    },
    {
     "enum_field_value" : 20994,
     "name" : "C2Config::PROFILE_AVC_MFC_HIGH"
    },
    {
     "enum_field_value" : 21248,
     "name" : "C2Config::PROFILE_AVC_MULTIVIEW_DEPTH_HIGH"
    },
    {
     "enum_field_value" : 21249,
     "name" : "C2Config::PROFILE_AVC_MFC_DEPTH_HIGH"
    },
    {
     "enum_field_value" : 21504,
     "name" : "C2Config::PROFILE_AVC_ENHANCED_MULTIVIEW_DEPTH_HIGH"
    },
    {
     "enum_field_value" : 24576,
     "name" : "C2Config::PROFILE_HEVC_MAIN"
    },
    {
     "enum_field_value" : 24577,
     "name" : "C2Config::PROFILE_HEVC_MAIN_10"
    },
    {
     "enum_field_value" : 24578,
     "name" : "C2Config::PROFILE_HEVC_MAIN_STILL"
    },
    {
     "enum_field_value" : 24832,
     "name" : "C2Config::PROFILE_HEVC_MONO"
    },
    {
     "enum_field_value" : 24833,
     "name" : "C2Config::PROFILE_HEVC_MONO_12"
    },
    {
     "enum_field_value" : 24834,
     "name" : "C2Config::PROFILE_HEVC_MONO_16"
    },
    {
     "enum_field_value" : 24835,
     "name" : "C2Config::PROFILE_HEVC_MAIN_12"
    },
    {
     "enum_field_value" : 24836,
     "name" : "C2Config::PROFILE_HEVC_MAIN_422_10"
    },
    {
     "enum_field_value" : 24837,
     "name" : "C2Config::PROFILE_HEVC_MAIN_422_12"
    },
    {
     "enum_field_value" : 24838,
     "name" : "C2Config::PROFILE_HEVC_MAIN_444"
    },
    {
     "enum_field_value" : 24839,
     "name" : "C2Config::PROFILE_HEVC_MAIN_444_10"
    },
    {
     "enum_field_value" : 24840,
     "name" : "C2Config::PROFILE_HEVC_MAIN_444_12"
    },
    {
     "enum_field_value" : 24841,
     "name" : "C2Config::PROFILE_HEVC_MAIN_INTRA"
    },
    {
     "enum_field_value" : 24842,
     "name" : "C2Config::PROFILE_HEVC_MAIN_10_INTRA"
    },
    {
     "enum_field_value" : 24843,
     "name" : "C2Config::PROFILE_HEVC_MAIN_12_INTRA"
    },
    {
     "enum_field_value" : 24844,
     "name" : "C2Config::PROFILE_HEVC_MAIN_422_10_INTRA"
    },
    {
     "enum_field_value" : 24845,
     "name" : "C2Config::PROFILE_HEVC_MAIN_422_12_INTRA"
    },
    {
     "enum_field_value" : 24846,
     "name" : "C2Config::PROFILE_HEVC_MAIN_444_INTRA"
    },
    {
     "enum_field_value" : 24847,
     "name" : "C2Config::PROFILE_HEVC_MAIN_444_10_INTRA"
    },
    {
     "enum_field_value" : 24848,
     "name" : "C2Config::PROFILE_HEVC_MAIN_444_12_INTRA"
    },
    {
     "enum_field_value" : 24849,
     "name" : "C2Config::PROFILE_HEVC_MAIN_444_16_INTRA"
    },
    {
     "enum_field_value" : 24850,
     "name" : "C2Config::PROFILE_HEVC_MAIN_444_STILL"
    },
    {
     "enum_field_value" : 24851,
     "name" : "C2Config::PROFILE_HEVC_MAIN_444_16_STILL"
    },
    {
     "enum_field_value" : 25088,
     "name" : "C2Config::PROFILE_HEVC_HIGH_444"
    },
    {
     "enum_field_value" : 25089,
     "name" : "C2Config::PROFILE_HEVC_HIGH_444_10"
    },
    {
     "enum_field_value" : 25090,
     "name" : "C2Config::PROFILE_HEVC_HIGH_444_14"
    },
    {
     "enum_field_value" : 25091,
     "name" : "C2Config::PROFILE_HEVC_HIGH_444_16_INTRA"
    },
    {
     "enum_field_value" : 25344,
     "name" : "C2Config::PROFILE_HEVC_SX_MAIN"
    },
    {
     "enum_field_value" : 25345,
     "name" : "C2Config::PROFILE_HEVC_SX_MAIN_10"
    },
    {
     "enum_field_value" : 25346,
     "name" : "C2Config::PROFILE_HEVC_SX_MAIN_444"
    },
    {
     "enum_field_value" : 25347,
     "name" : "C2Config::PROFILE_HEVC_SX_MAIN_444_10"
    },
    {
     "enum_field_value" : 25348,
     "name" : "C2Config::PROFILE_HEVC_SX_HIGH_444"
    },
    {
     "enum_field_value" : 25349,
     "name" : "C2Config::PROFILE_HEVC_SX_HIGH_444_10"
    },
    {
     "enum_field_value" : 25350,
     "name" : "C2Config::PROFILE_HEVC_SX_HIGH_444_14"
    },
    {
     "enum_field_value" : 25600,
     "name" : "C2Config::PROFILE_HEVC_MULTIVIEW_MAIN"
    },
    {
     "enum_field_value" : 25856,
     "name" : "C2Config::PROFILE_HEVC_SCALABLE_MAIN"
    },
    {
     "enum_field_value" : 25857,
     "name" : "C2Config::PROFILE_HEVC_SCALABLE_MAIN_10"
    },
    {
     "enum_field_value" : 26112,
     "name" : "C2Config::PROFILE_HEVC_SCALABLE_MONO"
    },
    {
     "enum_field_value" : 26113,
     "name" : "C2Config::PROFILE_HEVC_SCALABLE_MONO_12"
    },
    {
     "enum_field_value" : 26114,
     "name" : "C2Config::PROFILE_HEVC_SCALABLE_MONO_16"
    },
    {
     "enum_field_value" : 26115,
     "name" : "C2Config::PROFILE_HEVC_SCALABLE_MAIN_444"
    },
    {
     "enum_field_value" : 26368,
     "name" : "C2Config::PROFILE_HEVC_3D_MAIN"
    },
    {
     "enum_field_value" : 28672,
     "name" : "C2Config::PROFILE_VP9_0"
    },
    {
     "enum_field_value" : 28673,
     "name" : "C2Config::PROFILE_VP9_1"
    },
    {
     "enum_field_value" : 28674,
     "name" : "C2Config::PROFILE_VP9_2"
    },
    {
     "enum_field_value" : 28675,
     "name" : "C2Config::PROFILE_VP9_3"
    },
    {
     "enum_field_value" : 32768,
     "name" : "C2Config::PROFILE_DV_AV_PER"
    },
    {
     "enum_field_value" : 32769,
     "name" : "C2Config::PROFILE_DV_AV_PEN"
    },
    {
     "enum_field_value" : 32770,
     "name" : "C2Config::PROFILE_DV_HE_DER"
    },
    {
     "enum_field_value" : 32771,
     "name" : "C2Config::PROFILE_DV_HE_DEN"
    },
    {
     "enum_field_value" : 32772,
     "name" : "C2Config::PROFILE_DV_HE_04"
    },
    {
     "enum_field_value" : 32773,
     "name" : "C2Config::PROFILE_DV_HE_05"
    },
    {
     "enum_field_value" : 32774,
     "name" : "C2Config::PROFILE_DV_HE_DTH"
    },
    {
     "enum_field_value" : 32775,
     "name" : "C2Config::PROFILE_DV_HE_07"
    },
    {
     "enum_field_value" : 32776,
     "name" : "C2Config::PROFILE_DV_HE_08"
    },
    {
     "enum_field_value" : 32777,
     "name" : "C2Config::PROFILE_DV_AV_09"
    },
    {
     "enum_field_value" : 32778,
     "name" : "C2Config::PROFILE_DV_AV1_10"
    },
    {
     "enum_field_value" : 36864,
     "name" : "C2Config::PROFILE_AV1_0"
    },
    {
     "enum_field_value" : 36865,
     "name" : "C2Config::PROFILE_AV1_1"
    },
    {
     "enum_field_value" : 36866,
     "name" : "C2Config::PROFILE_AV1_2"
    }
   ],
   "linker_set_key" : "_ZTIN8C2Config9profile_tE",
   "name" : "C2Config::profile_t",
   "referenced_type" : "_ZTIN8C2Config9profile_tE",
   "self_type" : "_ZTIN8C2Config9profile_tE",
   "size" : 4,
   "source_file" : "/frameworks/av/media/codec2/core/include/C2Config.h",
   "underlying_type" : "_ZTIj"
  },
  {
   "alignment" : 4,
   "enum_fields" :
   [
    {
     "enum_field_value" : 1073741824,
     "name" : "C2Tuning::PARAM_KIND"
    }
   ],
   "linker_set_key" : "_ZTIN8C2Tuning11$PARAM_KINDE",
   "name" : "C2Tuning::(anonymous enum at frameworks/av/media/codec2/core/include/C2Param.h:605:5)",
   "referenced_type" : "_ZTIN8C2Tuning11$PARAM_KINDE",
   "self_type" : "_ZTIN8C2Tuning11$PARAM_KINDE",
   "size" : 4,
   "source_file" : "/frameworks/av/media/codec2/core/include/C2Param.h",
   "underlying_type" : "_ZTIj"
  },
  {
   "alignment" : 4,
   "enum_fields" :
   [
    {
     "enum_field_value" : -2147483648,
     "name" : "C2Setting::PARAM_KIND"
    }
   ],
   "linker_set_key" : "_ZTIN9C2Setting11$PARAM_KINDE",
   "name" : "C2Setting::(anonymous enum at frameworks/av/media/codec2/core/include/C2Param.h:594:5)",
   "referenced_type" : "_ZTIN9C2Setting11$PARAM_KINDE",
   "self_type" : "_ZTIN9C2Setting11$PARAM_KINDE",
   "size" : 4,
   "source_file" : "/frameworks/av/media/codec2/core/include/C2Param.h",
   "underlying_type" : "_ZTIj"
  }
 ],
 "function_types" :
 [
  {
   "alignment" : 4,
   "linker_set_key" : "_ZTIFiP11hw_device_tE",
   "name" : "int (hw_device_t *)",
   "parameters" :
   [
    {
     "referenced_type" : "_ZTIP11hw_device_t"
    }
   ],
   "referenced_type" : "_ZTIFiP11hw_device_tE",
   "return_type" : "_ZTIi",
   "self_type" : "_ZTIFiP11hw_device_tE",
   "source_file" : "/hardware/libhardware/include/hardware/hardware.h"
  },
  {
   "alignment" : 4,
   "linker_set_key" : "_ZTIFiP14alloc_device_tPK13native_handleE",
   "name" : "int (alloc_device_t *, const native_handle *)",
   "parameters" :
   [
    {
     "referenced_type" : "_ZTIP14alloc_device_t"
    },
    {
     "referenced_type" : "_ZTIPK13native_handle"
    }
   ],
   "referenced_type" : "_ZTIFiP14alloc_device_tPK13native_handleE",
   "return_type" : "_ZTIi",
   "self_type" : "_ZTIFiP14alloc_device_tPK13native_handleE",
   "source_file" : "/hardware/libhardware/include/hardware/gralloc.h"
  },
  {
   "alignment" : 4,
   "linker_set_key" : "_ZTIFiP14alloc_device_tiiiiPPK13native_handlePiE",
   "name" : "int (alloc_device_t *, int, int, int, int, const native_handle **, int *)",
   "parameters" :
   [
    {
     "referenced_type" : "_ZTIP14alloc_device_t"
    },
    {
     "referenced_type" : "_ZTIi"
    },
    {
     "referenced_type" : "_ZTIi"
    },
    {
     "referenced_type" : "_ZTIi"
    },
    {
     "referenced_type" : "_ZTIi"
    },
    {
     "referenced_type" : "_ZTIPPK13native_handle"
    },
    {
     "referenced_type" : "_ZTIPi"
    }
   ],
   "referenced_type" : "_ZTIFiP14alloc_device_tiiiiPPK13native_handlePiE",
   "return_type" : "_ZTIi",
   "self_type" : "_ZTIFiP14alloc_device_tiiiiPPK13native_handlePiE",
   "source_file" : "/hardware/libhardware/include/hardware/gralloc.h"
  },
  {
   "alignment" : 4,
   "linker_set_key" : "_ZTIFiP20framebuffer_device_tE",
   "name" : "int (framebuffer_device_t *)",
   "parameters" :
   [
    {
     "referenced_type" : "_ZTIP20framebuffer_device_t"
    }
   ],
   "referenced_type" : "_ZTIFiP20framebuffer_device_tE",
   "return_type" : "_ZTIi",
   "self_type" : "_ZTIFiP20framebuffer_device_tE",
   "source_file" : "/hardware/libhardware/include/hardware/fb.h"
  },
  {
   "alignment" : 4,
   "linker_set_key" : "_ZTIFiP20framebuffer_device_tPK13native_handleE",
   "name" : "int (framebuffer_device_t *, const native_handle *)",
   "parameters" :
   [
    {
     "referenced_type" : "_ZTIP20framebuffer_device_t"
    },
    {
     "referenced_type" : "_ZTIPK13native_handle"
    }
   ],
   "referenced_type" : "_ZTIFiP20framebuffer_device_tPK13native_handleE",
   "return_type" : "_ZTIi",
   "self_type" : "_ZTIFiP20framebuffer_device_tPK13native_handleE",
   "source_file" : "/hardware/libhardware/include/hardware/fb.h"
  },
  {
   "alignment" : 4,
   "linker_set_key" : "_ZTIFiP20framebuffer_device_tiE",
   "name" : "int (framebuffer_device_t *, int)",
   "parameters" :
   [
    {
     "referenced_type" : "_ZTIP20framebuffer_device_t"
    },
    {
     "referenced_type" : "_ZTIi"
    }
   ],
   "referenced_type" : "_ZTIFiP20framebuffer_device_tiE",
   "return_type" : "_ZTIi",
   "self_type" : "_ZTIFiP20framebuffer_device_tiE",
   "source_file" : "/hardware/libhardware/include/hardware/fb.h"
  },
  {
   "alignment" : 4,
   "linker_set_key" : "_ZTIFiP20framebuffer_device_tiiiiE",
   "name" : "int (framebuffer_device_t *, int, int, int, int)",
   "parameters" :
   [
    {
     "referenced_type" : "_ZTIP20framebuffer_device_t"
    },
    {
     "referenced_type" : "_ZTIi"
    },
    {
     "referenced_type" : "_ZTIi"
    },
    {
     "referenced_type" : "_ZTIi"
    },
    {
     "referenced_type" : "_ZTIi"
    }
   ],
   "referenced_type" : "_ZTIFiP20framebuffer_device_tiiiiE",
   "return_type" : "_ZTIi",
   "self_type" : "_ZTIFiP20framebuffer_device_tiiiiE",
   "source_file" : "/hardware/libhardware/include/hardware/fb.h"
  },
  {
   "alignment" : 4,
   "linker_set_key" : "_ZTIFiPK11hw_module_tPKcPP11hw_device_tE",
   "name" : "int (const hw_module_t *, const char *, hw_device_t **)",
   "parameters" :
   [
    {
     "referenced_type" : "_ZTIPK11hw_module_t"
    },
    {
     "referenced_type" : "_ZTIPKc"
    },
    {
     "referenced_type" : "_ZTIPP11hw_device_t"
    }
   ],
   "referenced_type" : "_ZTIFiPK11hw_module_tPKcPP11hw_device_tE",
   "return_type" : "_ZTIi",
   "self_type" : "_ZTIFiPK11hw_module_tPKcPP11hw_device_tE",
   "source_file" : "/hardware/libhardware/include/hardware/hardware.h"
  },
  {
   "alignment" : 4,
   "linker_set_key" : "_ZTIFiPK16gralloc_module_tPK13native_handleE",
   "name" : "int (const gralloc_module_t *, const native_handle *)",
   "parameters" :
   [
    {
     "referenced_type" : "_ZTIPK16gralloc_module_t"
    },
    {
     "referenced_type" : "_ZTIPK13native_handle"
    }
   ],
   "referenced_type" : "_ZTIFiPK16gralloc_module_tPK13native_handleE",
   "return_type" : "_ZTIi",
   "self_type" : "_ZTIFiPK16gralloc_module_tPK13native_handleE",
   "source_file" : "/hardware/libhardware/include/hardware/gralloc.h"
  },
  {
   "alignment" : 4,
   "linker_set_key" : "_ZTIFiPK16gralloc_module_tPK13native_handlePiE",
   "name" : "int (const gralloc_module_t *, const native_handle *, int *)",
   "parameters" :
   [
    {
     "referenced_type" : "_ZTIPK16gralloc_module_t"
    },
    {
     "referenced_type" : "_ZTIPK13native_handle"
    },
    {
     "referenced_type" : "_ZTIPi"
    }
   ],
   "referenced_type" : "_ZTIFiPK16gralloc_module_tPK13native_handlePiE",
   "return_type" : "_ZTIi",
   "self_type" : "_ZTIFiPK16gralloc_module_tPK13native_handlePiE",
   "source_file" : "/hardware/libhardware/include/hardware/gralloc.h"
  },
  {
   "alignment" : 4,
   "linker_set_key" : "_ZTIFiPK16gralloc_module_tPK13native_handlePjS5_E",
   "name" : "int (const gralloc_module_t *, const native_handle *, unsigned int *, unsigned int *)",
   "parameters" :
   [
    {
     "referenced_type" : "_ZTIPK16gralloc_module_t"
    },
    {
     "referenced_type" : "_ZTIPK13native_handle"
    },
    {
     "referenced_type" : "_ZTIPj"
    },
    {
     "referenced_type" : "_ZTIPj"
    }
   ],
   "referenced_type" : "_ZTIFiPK16gralloc_module_tPK13native_handlePjS5_E",
   "return_type" : "_ZTIi",
   "self_type" : "_ZTIFiPK16gralloc_module_tPK13native_handlePjS5_E",
   "source_file" : "/hardware/libhardware/include/hardware/gralloc.h"
  },
  {
   "alignment" : 4,
   "linker_set_key" : "_ZTIFiPK16gralloc_module_tPK13native_handleiiiiiP13android_ycbcrE",
   "name" : "int (const gralloc_module_t *, const native_handle *, int, int, int, int, int, android_ycbcr *)",
   "parameters" :
   [
    {
     "referenced_type" : "_ZTIPK16gralloc_module_t"
    },
    {
     "referenced_type" : "_ZTIPK13native_handle"
    },
    {
     "referenced_type" : "_ZTIi"
    },
    {
     "referenced_type" : "_ZTIi"
    },
    {
     "referenced_type" : "_ZTIi"
    },
    {
     "referenced_type" : "_ZTIi"
    },
    {
     "referenced_type" : "_ZTIi"
    },
    {
     "referenced_type" : "_ZTIP13android_ycbcr"
    }
   ],
   "referenced_type" : "_ZTIFiPK16gralloc_module_tPK13native_handleiiiiiP13android_ycbcrE",
   "return_type" : "_ZTIi",
   "self_type" : "_ZTIFiPK16gralloc_module_tPK13native_handleiiiiiP13android_ycbcrE",
   "source_file" : "/hardware/libhardware/include/hardware/gralloc.h"
  },
  {
   "alignment" : 4,
   "linker_set_key" : "_ZTIFiPK16gralloc_module_tPK13native_handleiiiiiP13android_ycbcriE",
   "name" : "int (const gralloc_module_t *, const native_handle *, int, int, int, int, int, android_ycbcr *, int)",
   "parameters" :
   [
    {
     "referenced_type" : "_ZTIPK16gralloc_module_t"
    },
    {
     "referenced_type" : "_ZTIPK13native_handle"
    },
    {
     "referenced_type" : "_ZTIi"
    },
    {
     "referenced_type" : "_ZTIi"
    },
    {
     "referenced_type" : "_ZTIi"
    },
    {
     "referenced_type" : "_ZTIi"
    },
    {
     "referenced_type" : "_ZTIi"
    },
    {
     "referenced_type" : "_ZTIP13android_ycbcr"
    },
    {
     "referenced_type" : "_ZTIi"
    }
   ],
   "referenced_type" : "_ZTIFiPK16gralloc_module_tPK13native_handleiiiiiP13android_ycbcriE",
   "return_type" : "_ZTIi",
   "self_type" : "_ZTIFiPK16gralloc_module_tPK13native_handleiiiiiP13android_ycbcriE",
   "source_file" : "/hardware/libhardware/include/hardware/gralloc.h"
  },
  {
   "alignment" : 4,
   "linker_set_key" : "_ZTIFiPK16gralloc_module_tPK13native_handleiiiiiPPvE",
   "name" : "int (const gralloc_module_t *, const native_handle *, int, int, int, int, int, void **)",
   "parameters" :
   [
    {
     "referenced_type" : "_ZTIPK16gralloc_module_t"
    },
    {
     "referenced_type" : "_ZTIPK13native_handle"
    },
    {
     "referenced_type" : "_ZTIi"
    },
    {
     "referenced_type" : "_ZTIi"
    },
    {
     "referenced_type" : "_ZTIi"
    },
    {
     "referenced_type" : "_ZTIi"
    },
    {
     "referenced_type" : "_ZTIi"
    },
    {
     "referenced_type" : "_ZTIPPv"
    }
   ],
   "referenced_type" : "_ZTIFiPK16gralloc_module_tPK13native_handleiiiiiPPvE",
   "return_type" : "_ZTIi",
   "self_type" : "_ZTIFiPK16gralloc_module_tPK13native_handleiiiiiPPvE",
   "source_file" : "/hardware/libhardware/include/hardware/gralloc.h"
  },
  {
   "alignment" : 4,
   "linker_set_key" : "_ZTIFiPK16gralloc_module_tPK13native_handleiiiiiPPviE",
   "name" : "int (const gralloc_module_t *, const native_handle *, int, int, int, int, int, void **, int)",
   "parameters" :
   [
    {
     "referenced_type" : "_ZTIPK16gralloc_module_t"
    },
    {
     "referenced_type" : "_ZTIPK13native_handle"
    },
    {
     "referenced_type" : "_ZTIi"
    },
    {
     "referenced_type" : "_ZTIi"
    },
    {
     "referenced_type" : "_ZTIi"
    },
    {
     "referenced_type" : "_ZTIi"
    },
    {
     "referenced_type" : "_ZTIi"
    },
    {
     "referenced_type" : "_ZTIPPv"
    },
    {
     "referenced_type" : "_ZTIi"
    }
   ],
   "referenced_type" : "_ZTIFiPK16gralloc_module_tPK13native_handleiiiiiPPviE",
   "return_type" : "_ZTIi",
   "self_type" : "_ZTIFiPK16gralloc_module_tPK13native_handleiiiiiPPviE",
   "source_file" : "/hardware/libhardware/include/hardware/gralloc.h"
  },
  {
   "alignment" : 4,
   "linker_set_key" : "_ZTIFiPK16gralloc_module_tPK13native_handlejjiijE",
   "name" : "int (const gralloc_module_t *, const native_handle *, unsigned int, unsigned int, int, int, unsigned int)",
   "parameters" :
   [
    {
     "referenced_type" : "_ZTIPK16gralloc_module_t"
    },
    {
     "referenced_type" : "_ZTIPK13native_handle"
    },
    {
     "referenced_type" : "_ZTIj"
    },
    {
     "referenced_type" : "_ZTIj"
    },
    {
     "referenced_type" : "_ZTIi"
    },
    {
     "referenced_type" : "_ZTIi"
    },
    {
     "referenced_type" : "_ZTIj"
    }
   ],
   "referenced_type" : "_ZTIFiPK16gralloc_module_tPK13native_handlejjiijE",
   "return_type" : "_ZTIi",
   "self_type" : "_ZTIFiPK16gralloc_module_tPK13native_handlejjiijE",
   "source_file" : "/hardware/libhardware/include/hardware/gralloc.h"
  },
  {
   "alignment" : 4,
   "linker_set_key" : "_ZTIFiPK16gralloc_module_tizE",
   "name" : "int (const gralloc_module_t *, int, ...)",
   "parameters" :
   [
    {
     "referenced_type" : "_ZTIPK16gralloc_module_t"
    },
    {
     "referenced_type" : "_ZTIi"
    }
   ],
   "referenced_type" : "_ZTIFiPK16gralloc_module_tizE",
   "return_type" : "_ZTIi",
   "self_type" : "_ZTIFiPK16gralloc_module_tizE",
   "source_file" : "/hardware/libhardware/include/hardware/gralloc.h"
  },
  {
   "alignment" : 4,
   "linker_set_key" : "_ZTIFvP14alloc_device_tPciE",
   "name" : "void (alloc_device_t *, char *, int)",
   "parameters" :
   [
    {
     "referenced_type" : "_ZTIP14alloc_device_t"
    },
    {
     "referenced_type" : "_ZTIPc"
    },
    {
     "referenced_type" : "_ZTIi"
    }
   ],
   "referenced_type" : "_ZTIFvP14alloc_device_tPciE",
   "return_type" : "_ZTIv",
   "self_type" : "_ZTIFvP14alloc_device_tPciE",
   "source_file" : "/hardware/libhardware/include/hardware/gralloc.h"
  },
  {
   "alignment" : 4,
   "linker_set_key" : "_ZTIFvP20framebuffer_device_tPciE",
   "name" : "void (framebuffer_device_t *, char *, int)",
   "parameters" :
   [
    {
     "referenced_type" : "_ZTIP20framebuffer_device_t"
    },
    {
     "referenced_type" : "_ZTIPc"
    },
    {
     "referenced_type" : "_ZTIi"
    }
   ],
   "referenced_type" : "_ZTIFvP20framebuffer_device_tPciE",
   "return_type" : "_ZTIv",
   "self_type" : "_ZTIFvP20framebuffer_device_tPciE",
   "source_file" : "/hardware/libhardware/include/hardware/fb.h"
  }
 ],
 "functions" : [],
 "global_vars" : [],
 "lvalue_reference_types" :
 [
  {
   "alignment" : 4,
   "linker_set_key" : "_ZTIR18C2ParamFieldValues",
   "name" : "C2ParamFieldValues &",
   "referenced_type" : "_ZTI18C2ParamFieldValues",
   "self_type" : "_ZTIR18C2ParamFieldValues",
   "size" : 4,
   "source_file" : "/frameworks/av/media/codec2/core/include/C2Param.h"
  },
  {
   "alignment" : 4,
   "linker_set_key" : "_ZTIRK10_C2FieldId",
   "name" : "const _C2FieldId &",
   "referenced_type" : "_ZTIK10_C2FieldId",
   "self_type" : "_ZTIRK10_C2FieldId",
   "size" : 4,
   "source_file" : "/frameworks/av/media/codec2/core/include/C2Param.h"
  },
  {
   "alignment" : 4,
   "linker_set_key" : "_ZTIRK12C2ParamField",
   "name" : "const C2ParamField &",
   "referenced_type" : "_ZTIK12C2ParamField",
   "self_type" : "_ZTIRK12C2ParamField",
   "size" : 4,
   "source_file" : "/frameworks/av/media/codec2/core/include/C2Param.h"
  },
  {
   "alignment" : 4,
   "linker_set_key" : "_ZTIRK13C2MemoryUsage",
   "name" : "const C2MemoryUsage &",
   "referenced_type" : "_ZTIK13C2MemoryUsage",
   "self_type" : "_ZTIRK13C2MemoryUsage",
   "size" : 4,
   "source_file" : "/frameworks/av/media/codec2/core/include/android-C2Buffer.h"
  },
  {
   "alignment" : 4,
   "linker_set_key" : "_ZTIRK17C2FieldDescriptor",
   "name" : "const C2FieldDescriptor &",
   "referenced_type" : "_ZTIK17C2FieldDescriptor",
   "self_type" : "_ZTIRK17C2FieldDescriptor",
   "size" : 4,
   "source_file" : "/frameworks/av/media/codec2/core/include/C2Param.h"
  },
  {
   "alignment" : 4,
   "linker_set_key" : "_ZTIRK18C2ParamFieldValues",
   "name" : "const C2ParamFieldValues &",
   "referenced_type" : "_ZTIK18C2ParamFieldValues",
   "self_type" : "_ZTIRK18C2ParamFieldValues",
   "size" : 4,
   "source_file" : "/frameworks/av/media/codec2/core/include/C2Param.h"
  },
  {
   "alignment" : 4,
   "linker_set_key" : "_ZTIRK20_C2LinearRangeAspect",
   "name" : "const _C2LinearRangeAspect &",
   "referenced_type" : "_ZTIK20_C2LinearRangeAspect",
   "self_type" : "_ZTIRK20_C2LinearRangeAspect",
   "size" : 4,
   "source_file" : "/frameworks/av/media/codec2/core/include/C2Buffer.h"
  },
  {
   "alignment" : 4,
   "linker_set_key" : "_ZTIRK22C2FieldSupportedValues",
   "name" : "const C2FieldSupportedValues &",
   "referenced_type" : "_ZTIK22C2FieldSupportedValues",
   "self_type" : "_ZTIRK22C2FieldSupportedValues",
   "size" : 4,
   "source_file" : "/frameworks/av/media/codec2/core/include/C2Param.h"
  },
  {
   "alignment" : 4,
   "linker_set_key" : "_ZTIRK22_C2PlanarSectionAspect",
   "name" : "const _C2PlanarSectionAspect &",
   "referenced_type" : "_ZTIK22_C2PlanarSectionAspect",
   "self_type" : "_ZTIRK22_C2PlanarSectionAspect",
   "size" : 4,
   "source_file" : "/frameworks/av/media/codec2/core/include/C2Buffer.h"
  },
  {
   "alignment" : 4,
   "linker_set_key" : "_ZTIRK23_C2LinearCapacityAspect",
   "name" : "const _C2LinearCapacityAspect &",
   "referenced_type" : "_ZTIK23_C2LinearCapacityAspect",
   "self_type" : "_ZTIRK23_C2LinearCapacityAspect",
   "size" : 4,
   "source_file" : "/frameworks/av/media/codec2/core/include/C2Buffer.h"
  },
  {
   "alignment" : 4,
   "linker_set_key" : "_ZTIRK23_C2PlanarCapacityAspect",
   "name" : "const _C2PlanarCapacityAspect &",
   "referenced_type" : "_ZTIK23_C2PlanarCapacityAspect",
   "self_type" : "_ZTIRK23_C2PlanarCapacityAspect",
   "size" : 4,
   "source_file" : "/frameworks/av/media/codec2/core/include/C2Buffer.h"
  },
  {
   "alignment" : 4,
   "linker_set_key" : "_ZTIRK6C2Rect",
   "name" : "const C2Rect &",
   "referenced_type" : "_ZTIK6C2Rect",
   "self_type" : "_ZTIRK6C2Rect",
   "size" : 4,
   "source_file" : "/frameworks/av/media/codec2/core/include/C2Buffer.h"
  },
  {
   "alignment" : 4,
   "linker_set_key" : "_ZTIRK7C2Param",
   "name" : "const C2Param &",
   "referenced_type" : "_ZTIK7C2Param",
   "self_type" : "_ZTIRK7C2Param",
   "size" : 4,
   "source_file" : "/frameworks/av/media/codec2/core/include/C2Param.h"
  },
  {
   "alignment" : 4,
   "linker_set_key" : "_ZTIRK9C2Segment",
   "name" : "const C2Segment &",
   "referenced_type" : "_ZTIK9C2Segment",
   "self_type" : "_ZTIRK9C2Segment",
   "size" : 4,
   "source_file" : "/frameworks/av/media/codec2/core/include/C2Buffer.h"
  },
  {
   "alignment" : 4,
   "linker_set_key" : "_ZTIRK9c2_cntr_tIjvE",
   "name" : "const c2_cntr_t<unsigned int, void> &",
   "referenced_type" : "_ZTIK9c2_cntr_tIjvE",
   "self_type" : "_ZTIRK9c2_cntr_tIjvE",
   "size" : 4,
   "source_file" : "/frameworks/av/media/codec2/core/include/C2Param.h"
  },
  {
   "alignment" : 4,
   "linker_set_key" : "_ZTIRK9c2_cntr_tIyvE",
   "name" : "const c2_cntr_t<unsigned long long, void> &",
   "referenced_type" : "_ZTIK9c2_cntr_tIyvE",
   "self_type" : "_ZTIRK9c2_cntr_tIyvE",
   "size" : 4,
   "source_file" : "/frameworks/av/media/codec2/core/include/C2Param.h"
  },
  {
   "alignment" : 4,
   "linker_set_key" : "_ZTIRKN7C2Param4TypeE",
   "name" : "const C2Param::Type &",
   "referenced_type" : "_ZTIKN7C2Param4TypeE",
   "self_type" : "_ZTIRKN7C2Param4TypeE",
   "size" : 4,
   "source_file" : "/frameworks/av/media/codec2/core/include/C2Param.h"
  },
  {
   "alignment" : 4,
   "linker_set_key" : "_ZTIRKN7C2Param5IndexE",
   "name" : "const C2Param::Index &",
   "referenced_type" : "_ZTIKN7C2Param5IndexE",
   "self_type" : "_ZTIRKN7C2Param5IndexE",
   "size" : 4,
   "source_file" : "/frameworks/av/media/codec2/core/include/C2Param.h"
  },
  {
   "alignment" : 4,
   "linker_set_key" : "_ZTIRKN7C2Param9CoreIndexE",
   "name" : "const C2Param::CoreIndex &",
   "referenced_type" : "_ZTIKN7C2Param9CoreIndexE",
   "self_type" : "_ZTIRKN7C2Param9CoreIndexE",
   "size" : 4,
   "source_file" : "/frameworks/av/media/codec2/core/include/C2Param.h"
  },
  {
   "alignment" : 4,
   "linker_set_key" : "_ZTIRKNSt3__16vectorI17C2FieldDescriptorNS_9allocatorIS1_EEEE",
   "name" : "const std::vector<C2FieldDescriptor, std::allocator<C2FieldDescriptor> > &",
   "referenced_type" : "_ZTIKNSt3__16vectorI17C2FieldDescriptorNS_9allocatorIS1_EEEE",
   "self_type" : "_ZTIRKNSt3__16vectorI17C2FieldDescriptorNS_9allocatorIS1_EEEE",
   "size" : 4,
   "source_file" : "/frameworks/av/media/codec2/core/include/C2Param.h"
  },
  {
   "alignment" : 4,
   "linker_set_key" : "_ZTIRKNSt3__16vectorIN7C2Param5IndexENS_9allocatorIS2_EEEE",
   "name" : "const std::vector<C2Param::Index, std::allocator<C2Param::Index> > &",
   "referenced_type" : "_ZTIKNSt3__16vectorIN7C2Param5IndexENS_9allocatorIS2_EEEE",
   "self_type" : "_ZTIRKNSt3__16vectorIN7C2Param5IndexENS_9allocatorIS2_EEEE",
   "size" : 4,
   "source_file" : "/frameworks/av/media/codec2/core/include/C2Param.h"
  },
  {
   "alignment" : 4,
   "linker_set_key" : "_ZTIRKNSt3__16vectorINS_4pairINS_12basic_stringIcNS_11char_traitsIcEENS_9allocatorIcEEEEN7C2Value9PrimitiveEEENS5_ISA_EEEE",
   "name" : "const std::vector<std::pair<std::basic_string<char, std::char_traits<char>, std::allocator<char> >, C2Value::Primitive>, std::allocator<std::pair<std::basic_string<char, std::char_traits<char>, std::allocator<char> >, C2Value::Primitive> > > &",
   "referenced_type" : "_ZTIKNSt3__16vectorINS_4pairINS_12basic_stringIcNS_11char_traitsIcEENS_9allocatorIcEEEEN7C2Value9PrimitiveEEENS5_ISA_EEEE",
   "self_type" : "_ZTIRKNSt3__16vectorINS_4pairINS_12basic_stringIcNS_11char_traitsIcEENS_9allocatorIcEEEEN7C2Value9PrimitiveEEENS5_ISA_EEEE",
   "size" : 4,
   "source_file" : "/frameworks/av/media/codec2/core/include/C2Param.h"
  },
  {
   "alignment" : 4,
   "linker_set_key" : "_ZTIRKc",
   "name" : "const char &",
   "referenced_type" : "_ZTIKc",
   "self_type" : "_ZTIRKc",
   "size" : 4,
   "source_file" : "/frameworks/av/media/codec2/core/include/C2Param.h"
  },
  {
   "alignment" : 4,
   "linker_set_key" : "_ZTIRKf",
   "name" : "const float &",
   "referenced_type" : "_ZTIKf",
   "self_type" : "_ZTIRKf",
   "size" : 4,
   "source_file" : "/frameworks/av/media/codec2/core/include/C2Param.h"
  },
  {
   "alignment" : 4,
   "linker_set_key" : "_ZTIRKh",
   "name" : "const unsigned char &",
   "referenced_type" : "_ZTIKh",
   "self_type" : "_ZTIRKh",
   "size" : 4,
   "source_file" : "/frameworks/av/media/codec2/core/include/C2Param.h"
  },
  {
   "alignment" : 4,
   "linker_set_key" : "_ZTIRKi",
   "name" : "const int &",
   "referenced_type" : "_ZTIKi",
   "self_type" : "_ZTIRKi",
   "size" : 4,
   "source_file" : "/frameworks/av/media/codec2/core/include/C2Param.h"
  },
  {
   "alignment" : 4,
   "linker_set_key" : "_ZTIRKj",
   "name" : "const unsigned int &",
   "referenced_type" : "_ZTIKj",
   "self_type" : "_ZTIRKj",
   "size" : 4,
   "source_file" : "/frameworks/av/media/codec2/core/include/C2Param.h"
  },
  {
   "alignment" : 4,
   "linker_set_key" : "_ZTIRKx",
   "name" : "const long long &",
   "referenced_type" : "_ZTIKx",
   "self_type" : "_ZTIRKx",
   "size" : 4,
   "source_file" : "/frameworks/av/media/codec2/core/include/C2Param.h"
  },
  {
   "alignment" : 4,
   "linker_set_key" : "_ZTIRKy",
   "name" : "const unsigned long long &",
   "referenced_type" : "_ZTIKy",
   "self_type" : "_ZTIRKy",
   "size" : 4,
   "source_file" : "/frameworks/av/media/codec2/core/include/C2Param.h"
  },
  {
   "alignment" : 4,
   "linker_set_key" : "_ZTIRN17C2ParamDescriptor8attrib_tE",
   "name" : "C2ParamDescriptor::attrib_t &",
   "referenced_type" : "_ZTIN17C2ParamDescriptor8attrib_tE",
   "self_type" : "_ZTIRN17C2ParamDescriptor8attrib_tE",
   "size" : 4,
   "source_file" : "/frameworks/av/media/codec2/core/include/C2Param.h"
  }
 ],
 "pointer_types" :
 [
  {
   "alignment" : 4,
   "linker_set_key" : "_ZTIP10_C2FieldId",
   "name" : "_C2FieldId *",
   "referenced_type" : "_ZTI10_C2FieldId",
   "self_type" : "_ZTIP10_C2FieldId",
   "size" : 4,
   "source_file" : "/frameworks/av/media/codec2/core/include/C2Param.h"
  },
  {
   "alignment" : 4,
   "linker_set_key" : "_ZTIP11C2Allocator",
   "name" : "C2Allocator *",
   "referenced_type" : "_ZTI11C2Allocator",
   "self_type" : "_ZTIP11C2Allocator",
   "size" : 4,
   "source_file" : "/frameworks/av/media/codec2/core/include/C2Buffer.h"
  },
  {
   "alignment" : 4,
   "linker_set_key" : "_ZTIP11C2BlockPool",
   "name" : "C2BlockPool *",
   "referenced_type" : "_ZTI11C2BlockPool",
   "self_type" : "_ZTIP11C2BlockPool",
   "size" : 4,
   "source_file" : "/frameworks/av/media/codec2/core/include/C2Buffer.h"
  },
  {
   "alignment" : 4,
   "linker_set_key" : "_ZTIP11C2Component",
   "name" : "C2Component *",
   "referenced_type" : "_ZTI11C2Component",
   "self_type" : "_ZTIP11C2Component",
   "size" : 4,
   "source_file" : "/frameworks/av/media/codec2/core/include/C2Component.h"
  },
  {
   "alignment" : 4,
   "linker_set_key" : "_ZTIP11hw_device_t",
   "name" : "hw_device_t *",
   "referenced_type" : "_ZTI11hw_device_t",
   "self_type" : "_ZTIP11hw_device_t",
   "size" : 4,
   "source_file" : "/hardware/libhardware/include/hardware/hardware.h"
  },
  {
   "alignment" : 4,
   "linker_set_key" : "_ZTIP11hw_module_t",
   "name" : "hw_module_t *",
   "referenced_type" : "_ZTI11hw_module_t",
   "self_type" : "_ZTIP11hw_module_t",
   "size" : 4,
   "source_file" : "/hardware/libhardware/include/hardware/hardware.h"
  },
  {
   "alignment" : 4,
   "linker_set_key" : "_ZTIP12C2ParamField",
   "name" : "C2ParamField *",
   "referenced_type" : "_ZTI12C2ParamField",
   "self_type" : "_ZTIP12C2ParamField",
   "size" : 4,
   "source_file" : "/frameworks/av/media/codec2/core/include/C2Param.h"
  },
  {
   "alignment" : 4,
   "linker_set_key" : "_ZTIP12C2RectStruct",
   "name" : "C2RectStruct *",
   "referenced_type" : "_ZTI12C2RectStruct",
   "self_type" : "_ZTIP12C2RectStruct",
   "size" : 4,
   "source_file" : "/frameworks/av/media/codec2/core/include/C2Config.h"
  },
  {
   "alignment" : 4,
   "linker_set_key" : "_ZTIP13C2LinearRange",
   "name" : "C2LinearRange *",
   "referenced_type" : "_ZTI13C2LinearRange",
   "self_type" : "_ZTIP13C2LinearRange",
   "size" : 4,
   "source_file" : "/frameworks/av/media/codec2/core/include/C2Buffer.h"
  },
  {
   "alignment" : 4,
   "linker_set_key" : "_ZTIP13C2MemoryUsage",
   "name" : "C2MemoryUsage *",
   "referenced_type" : "_ZTI13C2MemoryUsage",
   "self_type" : "_ZTIP13C2MemoryUsage",
   "size" : 4,
   "source_file" : "/frameworks/av/media/codec2/core/include/C2BufferBase.h"
  },
  {
   "alignment" : 4,
   "linker_set_key" : "_ZTIP13android_ycbcr",
   "name" : "android_ycbcr *",
   "referenced_type" : "_ZTI13android_ycbcr",
   "self_type" : "_ZTIP13android_ycbcr",
   "size" : 4,
   "source_file" : "/hardware/libhardware/include/hardware/gralloc.h"
  },
  {
   "alignment" : 4,
   "linker_set_key" : "_ZTIP14alloc_device_t",
   "name" : "alloc_device_t *",
   "referenced_type" : "_ZTI14alloc_device_t",
   "self_type" : "_ZTIP14alloc_device_t",
   "size" : 4,
   "source_file" : "/hardware/libhardware/include/hardware/gralloc.h"
  },
  {
   "alignment" : 4,
   "linker_set_key" : "_ZTIP15C2PlanarSection",
   "name" : "C2PlanarSection *",
   "referenced_type" : "_ZTI15C2PlanarSection",
   "self_type" : "_ZTIP15C2PlanarSection",
   "size" : 4,
   "source_file" : "/frameworks/av/media/codec2/core/include/C2Buffer.h"
  },
  {
   "alignment" : 4,
   "linker_set_key" : "_ZTIP15_C2InnateStatus",
   "name" : "_C2InnateStatus *",
   "referenced_type" : "_ZTI15_C2InnateStatus",
   "self_type" : "_ZTIP15_C2InnateStatus",
   "size" : 4,
   "source_file" : "/frameworks/av/media/codec2/core/include/C2Buffer.h"
  },
  {
   "alignment" : 4,
   "linker_set_key" : "_ZTIP16C2AllocatorStore",
   "name" : "C2AllocatorStore *",
   "referenced_type" : "_ZTI16C2AllocatorStore",
   "self_type" : "_ZTIP16C2AllocatorStore",
   "size" : 4,
   "source_file" : "/frameworks/av/media/codec2/core/include/C2Component.h"
  },
  {
   "alignment" : 4,
   "linker_set_key" : "_ZTIP16C2ComponentStore",
   "name" : "C2ComponentStore *",
   "referenced_type" : "_ZTI16C2ComponentStore",
   "self_type" : "_ZTIP16C2ComponentStore",
   "size" : 4,
   "source_file" : "/frameworks/av/media/codec2/core/include/C2Component.h"
  },
  {
   "alignment" : 4,
   "linker_set_key" : "_ZTIP16C2GopLayerStruct",
   "name" : "C2GopLayerStruct *",
   "referenced_type" : "_ZTI16C2GopLayerStruct",
   "self_type" : "_ZTIP16C2GopLayerStruct",
   "size" : 4,
   "source_file" : "/frameworks/av/media/codec2/core/include/C2Config.h"
  },
  {
   "alignment" : 4,
   "linker_set_key" : "_ZTIP16C2LinearCapacity",
   "name" : "C2LinearCapacity *",
   "referenced_type" : "_ZTI16C2LinearCapacity",
   "self_type" : "_ZTIP16C2LinearCapacity",
   "size" : 4,
   "source_file" : "/frameworks/av/media/codec2/core/include/C2Buffer.h"
  },
  {
   "alignment" : 4,
   "linker_set_key" : "_ZTIP16C2ParamReflector",
   "name" : "C2ParamReflector *",
   "referenced_type" : "_ZTI16C2ParamReflector",
   "self_type" : "_ZTIP16C2ParamReflector",
   "size" : 4,
   "source_file" : "/frameworks/av/media/codec2/core/include/C2Param.h"
  },
  {
   "alignment" : 4,
   "linker_set_key" : "_ZTIP16C2PlanarCapacity",
   "name" : "C2PlanarCapacity *",
   "referenced_type" : "_ZTI16C2PlanarCapacity",
   "self_type" : "_ZTIP16C2PlanarCapacity",
   "size" : 4,
   "source_file" : "/frameworks/av/media/codec2/core/include/C2Buffer.h"
  },
  {
   "alignment" : 4,
   "linker_set_key" : "_ZTIP16C2RotationStruct",
   "name" : "C2RotationStruct *",
   "referenced_type" : "_ZTI16C2RotationStruct",
   "self_type" : "_ZTIP16C2RotationStruct",
   "size" : 4,
   "source_file" : "/frameworks/av/media/codec2/core/include/C2Config.h"
  },
  {
   "alignment" : 4,
   "linker_set_key" : "_ZTIP17C2ColorInfoStruct",
   "name" : "C2ColorInfoStruct *",
   "referenced_type" : "_ZTI17C2ColorInfoStruct",
   "self_type" : "_ZTIP17C2ColorInfoStruct",
   "size" : 4,
   "source_file" : "/frameworks/av/media/codec2/core/include/C2Config.h"
  },
  {
   "alignment" : 4,
   "linker_set_key" : "_ZTIP17C2FieldDescriptor",
   "name" : "C2FieldDescriptor *",
   "referenced_type" : "_ZTI17C2FieldDescriptor",
   "self_type" : "_ZTIP17C2FieldDescriptor",
   "size" : 4,
   "source_file" : "/frameworks/av/media/codec2/core/include/C2Param.h"
  },
  {
   "alignment" : 4,
   "linker_set_key" : "_ZTIP17C2FrameInfoParser",
   "name" : "C2FrameInfoParser *",
   "referenced_type" : "_ZTI17C2FrameInfoParser",
   "self_type" : "_ZTIP17C2FrameInfoParser",
   "size" : 4,
   "source_file" : "/frameworks/av/media/codec2/core/include/C2Component.h"
  },
  {
   "alignment" : 4,
   "linker_set_key" : "_ZTIP17C2ParamDescriptor",
   "name" : "C2ParamDescriptor *",
   "referenced_type" : "_ZTI17C2ParamDescriptor",
   "self_type" : "_ZTIP17C2ParamDescriptor",
   "size" : 4,
   "source_file" : "/frameworks/av/media/codec2/core/include/C2Param.h"
  },
  {
   "alignment" : 4,
   "linker_set_key" : "_ZTIP18C2LinearAllocation",
   "name" : "C2LinearAllocation *",
   "referenced_type" : "_ZTI18C2LinearAllocation",
   "self_type" : "_ZTIP18C2LinearAllocation",
   "size" : 4,
   "source_file" : "/frameworks/av/media/codec2/core/include/C2Buffer.h"
  },
  {
   "alignment" : 4,
   "linker_set_key" : "_ZTIP18C2ParamFieldValues",
   "name" : "C2ParamFieldValues *",
   "referenced_type" : "_ZTI18C2ParamFieldValues",
   "self_type" : "_ZTIP18C2ParamFieldValues",
   "size" : 4,
   "source_file" : "/frameworks/av/media/codec2/core/include/C2Param.h"
  },
  {
   "alignment" : 4,
   "linker_set_key" : "_ZTIP18C2StructDescriptor",
   "name" : "C2StructDescriptor *",
   "referenced_type" : "_ZTI18C2StructDescriptor",
   "self_type" : "_ZTIP18C2StructDescriptor",
   "size" : 4,
   "source_file" : "/frameworks/av/media/codec2/core/include/C2Param.h"
  },
  {
   "alignment" : 4,
   "linker_set_key" : "_ZTIP18android_flex_plane",
   "name" : "android_flex_plane *",
   "referenced_type" : "_ZTI18android_flex_plane",
   "self_type" : "_ZTIP18android_flex_plane",
   "size" : 4,
   "source_file" : "/system/core/libsystem/include/system/graphics.h"
  },
  {
   "alignment" : 4,
   "linker_set_key" : "_ZTIP19C2GraphicAllocation",
   "name" : "C2GraphicAllocation *",
   "referenced_type" : "_ZTI19C2GraphicAllocation",
   "self_type" : "_ZTIP19C2GraphicAllocation",
   "size" : 4,
   "source_file" : "/frameworks/av/media/codec2/core/include/C2Buffer.h"
  },
  {
   "alignment" : 4,
   "linker_set_key" : "_ZTIP19C2PictureSizeStruct",
   "name" : "C2PictureSizeStruct *",
   "referenced_type" : "_ZTI19C2PictureSizeStruct",
   "self_type" : "_ZTIP19C2PictureSizeStruct",
   "size" : 4,
   "source_file" : "/frameworks/av/media/codec2/core/include/C2Config.h"
  },
  {
   "alignment" : 4,
   "linker_set_key" : "_ZTIP19hw_module_methods_t",
   "name" : "hw_module_methods_t *",
   "referenced_type" : "_ZTI19hw_module_methods_t",
   "self_type" : "_ZTIP19hw_module_methods_t",
   "size" : 4,
   "source_file" : "/hardware/libhardware/include/hardware/hardware.h"
  },
  {
   "alignment" : 4,
   "linker_set_key" : "_ZTIP20C2ColorAspectsStruct",
   "name" : "C2ColorAspectsStruct *",
   "referenced_type" : "_ZTI20C2ColorAspectsStruct",
   "self_type" : "_ZTIP20C2ColorAspectsStruct",
   "size" : 4,
   "source_file" : "/frameworks/av/media/codec2/core/include/C2Config.h"
  },
  {
   "alignment" : 4,
   "linker_set_key" : "_ZTIP20C2ComponentInterface",
   "name" : "C2ComponentInterface *",
   "referenced_type" : "_ZTI20C2ComponentInterface",
   "self_type" : "_ZTIP20C2ComponentInterface",
   "size" : 4,
   "source_file" : "/frameworks/av/media/codec2/core/include/C2Component.h"
  },
  {
   "alignment" : 4,
   "linker_set_key" : "_ZTIP20C2IntraRefreshStruct",
   "name" : "C2IntraRefreshStruct *",
   "referenced_type" : "_ZTI20C2IntraRefreshStruct",
   "self_type" : "_ZTIP20C2IntraRefreshStruct",
   "size" : 4,
   "source_file" : "/frameworks/av/media/codec2/core/include/C2Config.h"
  },
  {
   "alignment" : 4,
   "linker_set_key" : "_ZTIP20C2ProfileLevelStruct",
   "name" : "C2ProfileLevelStruct *",
   "referenced_type" : "_ZTI20C2ProfileLevelStruct",
   "self_type" : "_ZTIP20C2ProfileLevelStruct",
   "size" : 4,
   "source_file" : "/frameworks/av/media/codec2/core/include/C2Config.h"
  },
  {
   "alignment" : 4,
   "linker_set_key" : "_ZTIP20C2TimedControlStruct",
   "name" : "C2TimedControlStruct *",
   "referenced_type" : "_ZTI20C2TimedControlStruct",
   "self_type" : "_ZTIP20C2TimedControlStruct",
   "size" : 4,
   "source_file" : "/frameworks/av/media/codec2/core/include/C2Config.h"
  },
  {
   "alignment" : 4,
   "linker_set_key" : "_ZTIP20_C2LinearRangeAspect",
   "name" : "_C2LinearRangeAspect *",
   "referenced_type" : "_ZTI20_C2LinearRangeAspect",
   "self_type" : "_ZTIP20_C2LinearRangeAspect",
   "size" : 4,
   "source_file" : "/frameworks/av/media/codec2/core/include/C2Buffer.h"
  },
  {
   "alignment" : 4,
   "linker_set_key" : "_ZTIP20framebuffer_device_t",
   "name" : "framebuffer_device_t *",
   "referenced_type" : "_ZTI20framebuffer_device_t",
   "self_type" : "_ZTIP20framebuffer_device_t",
   "size" : 4,
   "source_file" : "/hardware/libhardware/include/hardware/fb.h"
  },
  {
   "alignment" : 4,
   "linker_set_key" : "_ZTIP21C2StoreIonUsageStruct",
   "name" : "C2StoreIonUsageStruct *",
   "referenced_type" : "_ZTI21C2StoreIonUsageStruct",
   "self_type" : "_ZTIP21C2StoreIonUsageStruct",
   "size" : 4,
   "source_file" : "/frameworks/av/media/codec2/core/include/C2Config.h"
  },
  {
   "alignment" : 4,
   "linker_set_key" : "_ZTIP22C2FieldSupportedValues",
   "name" : "C2FieldSupportedValues *",
   "referenced_type" : "_ZTI22C2FieldSupportedValues",
   "self_type" : "_ZTIP22C2FieldSupportedValues",
   "size" : 4,
   "source_file" : "/frameworks/av/media/codec2/core/include/C2Param.h"
  },
  {
   "alignment" : 4,
   "linker_set_key" : "_ZTIP22_C2PlanarSectionAspect",
   "name" : "_C2PlanarSectionAspect *",
   "referenced_type" : "_ZTI22_C2PlanarSectionAspect",
   "self_type" : "_ZTIP22_C2PlanarSectionAspect",
   "size" : 4,
   "source_file" : "/frameworks/av/media/codec2/core/include/C2Buffer.h"
  },
  {
   "alignment" : 4,
   "linker_set_key" : "_ZTIP23_C2LinearCapacityAspect",
   "name" : "_C2LinearCapacityAspect *",
   "referenced_type" : "_ZTI23_C2LinearCapacityAspect",
   "self_type" : "_ZTIP23_C2LinearCapacityAspect",
   "size" : 4,
   "source_file" : "/frameworks/av/media/codec2/core/include/C2Buffer.h"
  },
  {
   "alignment" : 4,
   "linker_set_key" : "_ZTIP23_C2PlanarCapacityAspect",
   "name" : "_C2PlanarCapacityAspect *",
   "referenced_type" : "_ZTI23_C2PlanarCapacityAspect",
   "self_type" : "_ZTIP23_C2PlanarCapacityAspect",
   "size" : 4,
   "source_file" : "/frameworks/av/media/codec2/core/include/C2Buffer.h"
  },
  {
   "alignment" : 4,
   "linker_set_key" : "_ZTIP24C2SupplementalDataStruct",
   "name" : "C2SupplementalDataStruct *",
   "referenced_type" : "_ZTI24C2SupplementalDataStruct",
   "self_type" : "_ZTIP24C2SupplementalDataStruct",
   "size" : 4,
   "source_file" : "/frameworks/av/media/codec2/core/include/C2Config.h"
  },
  {
   "alignment" : 4,
   "linker_set_key" : "_ZTIP24C2TemporalLayeringStruct",
   "name" : "C2TemporalLayeringStruct *",
   "referenced_type" : "_ZTI24C2TemporalLayeringStruct",
   "self_type" : "_ZTIP24C2TemporalLayeringStruct",
   "size" : 4,
   "source_file" : "/frameworks/av/media/codec2/core/include/C2Config.h"
  },
  {
   "alignment" : 4,
   "linker_set_key" : "_ZTIP27C2FieldSupportedValuesQuery",
   "name" : "C2FieldSupportedValuesQuery *",
   "referenced_type" : "_ZTI27C2FieldSupportedValuesQuery",
   "self_type" : "_ZTIP27C2FieldSupportedValuesQuery",
   "size" : 4,
   "source_file" : "/frameworks/av/media/codec2/core/include/C2Component.h"
  },
  {
   "alignment" : 4,
   "linker_set_key" : "_ZTIP28_C2EditableLinearRangeAspect",
   "name" : "_C2EditableLinearRangeAspect *",
   "referenced_type" : "_ZTI28_C2EditableLinearRangeAspect",
   "self_type" : "_ZTIP28_C2EditableLinearRangeAspect",
   "size" : 4,
   "source_file" : "/frameworks/av/media/codec2/core/include/C2Buffer.h"
  },
  {
   "alignment" : 4,
   "linker_set_key" : "_ZTIP30C2TimestampGapAdjustmentStruct",
   "name" : "C2TimestampGapAdjustmentStruct *",
   "referenced_type" : "_ZTI30C2TimestampGapAdjustmentStruct",
   "self_type" : "_ZTIP30C2TimestampGapAdjustmentStruct",
   "size" : 4,
   "source_file" : "/frameworks/av/media/codec2/core/include/C2Config.h"
  },
  {
   "alignment" : 4,
   "linker_set_key" : "_ZTIP30_C2EditablePlanarSectionAspect",
   "name" : "_C2EditablePlanarSectionAspect *",
   "referenced_type" : "_ZTI30_C2EditablePlanarSectionAspect",
   "self_type" : "_ZTIP30_C2EditablePlanarSectionAspect",
   "size" : 4,
   "source_file" : "/frameworks/av/media/codec2/core/include/C2Buffer.h"
  },
  {
   "alignment" : 4,
   "linker_set_key" : "_ZTIP6C2Rect",
   "name" : "C2Rect *",
   "referenced_type" : "_ZTI6C2Rect",
   "self_type" : "_ZTIP6C2Rect",
   "size" : 4,
   "source_file" : "/frameworks/av/media/codec2/core/include/C2Buffer.h"
  },
  {
   "alignment" : 4,
   "linker_set_key" : "_ZTIP7C2Fence",
   "name" : "C2Fence *",
   "referenced_type" : "_ZTI7C2Fence",
   "self_type" : "_ZTIP7C2Fence",
   "size" : 4,
   "source_file" : "/frameworks/av/media/codec2/core/include/C2Buffer.h"
  },
  {
   "alignment" : 4,
   "linker_set_key" : "_ZTIP7C2Param",
   "name" : "C2Param *",
   "referenced_type" : "_ZTI7C2Param",
   "self_type" : "_ZTIP7C2Param",
   "size" : 4,
   "source_file" : "/frameworks/av/media/codec2/core/include/C2Param.h"
  },
  {
   "alignment" : 4,
   "linker_set_key" : "_ZTIP7C2Value",
   "name" : "C2Value *",
   "referenced_type" : "_ZTI7C2Value",
   "self_type" : "_ZTIP7C2Value",
   "size" : 4,
   "source_file" : "/frameworks/av/media/codec2/core/include/C2Param.h"
  },
  {
   "alignment" : 4,
   "linker_set_key" : "_ZTIP8C2Buffer",
   "name" : "C2Buffer *",
   "referenced_type" : "_ZTI8C2Buffer",
   "self_type" : "_ZTIP8C2Buffer",
   "size" : 4,
   "source_file" : "/frameworks/av/media/codec2/core/include/C2Buffer.h"
  },
  {
   "alignment" : 4,
   "linker_set_key" : "_ZTIP9C2Segment",
   "name" : "C2Segment *",
   "referenced_type" : "_ZTI9C2Segment",
   "self_type" : "_ZTIP9C2Segment",
   "size" : 4,
   "source_file" : "/frameworks/av/media/codec2/core/include/C2Buffer.h"
  },
  {
   "alignment" : 4,
   "linker_set_key" : "_ZTIP9c2_cntr_tIjvE",
   "name" : "c2_cntr_t<unsigned int, void> *",
   "referenced_type" : "_ZTI9c2_cntr_tIjvE",
   "self_type" : "_ZTIP9c2_cntr_tIjvE",
   "size" : 4,
   "source_file" : "/frameworks/av/media/codec2/core/include/C2Param.h"
  },
  {
   "alignment" : 4,
   "linker_set_key" : "_ZTIP9c2_cntr_tIyvE",
   "name" : "c2_cntr_t<unsigned long long, void> *",
   "referenced_type" : "_ZTI9c2_cntr_tIyvE",
   "self_type" : "_ZTIP9c2_cntr_tIyvE",
   "size" : 4,
   "source_file" : "/frameworks/av/media/codec2/core/include/C2Param.h"
  },
  {
   "alignment" : 4,
   "linker_set_key" : "_ZTIPFiP11hw_device_tE",
   "name" : "int (*)(hw_device_t *)",
   "referenced_type" : "_ZTIFiP11hw_device_tE",
   "self_type" : "_ZTIPFiP11hw_device_tE",
   "size" : 4,
   "source_file" : "/hardware/libhardware/include/hardware/hardware.h"
  },
  {
   "alignment" : 4,
   "linker_set_key" : "_ZTIPFiP14alloc_device_tPK13native_handleE",
   "name" : "int (*)(alloc_device_t *, const native_handle *)",
   "referenced_type" : "_ZTIFiP14alloc_device_tPK13native_handleE",
   "self_type" : "_ZTIPFiP14alloc_device_tPK13native_handleE",
   "size" : 4,
   "source_file" : "/hardware/libhardware/include/hardware/gralloc.h"
  },
  {
   "alignment" : 4,
   "linker_set_key" : "_ZTIPFiP14alloc_device_tiiiiPPK13native_handlePiE",
   "name" : "int (*)(alloc_device_t *, int, int, int, int, const native_handle **, int *)",
   "referenced_type" : "_ZTIFiP14alloc_device_tiiiiPPK13native_handlePiE",
   "self_type" : "_ZTIPFiP14alloc_device_tiiiiPPK13native_handlePiE",
   "size" : 4,
   "source_file" : "/hardware/libhardware/include/hardware/gralloc.h"
  },
  {
   "alignment" : 4,
   "linker_set_key" : "_ZTIPFiP20framebuffer_device_tE",
   "name" : "int (*)(framebuffer_device_t *)",
   "referenced_type" : "_ZTIFiP20framebuffer_device_tE",
   "self_type" : "_ZTIPFiP20framebuffer_device_tE",
   "size" : 4,
   "source_file" : "/hardware/libhardware/include/hardware/fb.h"
  },
  {
   "alignment" : 4,
   "linker_set_key" : "_ZTIPFiP20framebuffer_device_tPK13native_handleE",
   "name" : "int (*)(framebuffer_device_t *, const native_handle *)",
   "referenced_type" : "_ZTIFiP20framebuffer_device_tPK13native_handleE",
   "self_type" : "_ZTIPFiP20framebuffer_device_tPK13native_handleE",
   "size" : 4,
   "source_file" : "/hardware/libhardware/include/hardware/fb.h"
  },
  {
   "alignment" : 4,
   "linker_set_key" : "_ZTIPFiP20framebuffer_device_tiE",
   "name" : "int (*)(framebuffer_device_t *, int)",
   "referenced_type" : "_ZTIFiP20framebuffer_device_tiE",
   "self_type" : "_ZTIPFiP20framebuffer_device_tiE",
   "size" : 4,
   "source_file" : "/hardware/libhardware/include/hardware/fb.h"
  },
  {
   "alignment" : 4,
   "linker_set_key" : "_ZTIPFiP20framebuffer_device_tiiiiE",
   "name" : "int (*)(framebuffer_device_t *, int, int, int, int)",
   "referenced_type" : "_ZTIFiP20framebuffer_device_tiiiiE",
   "self_type" : "_ZTIPFiP20framebuffer_device_tiiiiE",
   "size" : 4,
   "source_file" : "/hardware/libhardware/include/hardware/fb.h"
  },
  {
   "alignment" : 4,
   "linker_set_key" : "_ZTIPFiPK11hw_module_tPKcPP11hw_device_tE",
   "name" : "int (*)(const hw_module_t *, const char *, hw_device_t **)",
   "referenced_type" : "_ZTIFiPK11hw_module_tPKcPP11hw_device_tE",
   "self_type" : "_ZTIPFiPK11hw_module_tPKcPP11hw_device_tE",
   "size" : 4,
   "source_file" : "/hardware/libhardware/include/hardware/hardware.h"
  },
  {
   "alignment" : 4,
   "linker_set_key" : "_ZTIPFiPK16gralloc_module_tPK13native_handleE",
   "name" : "int (*)(const gralloc_module_t *, const native_handle *)",
   "referenced_type" : "_ZTIFiPK16gralloc_module_tPK13native_handleE",
   "self_type" : "_ZTIPFiPK16gralloc_module_tPK13native_handleE",
   "size" : 4,
   "source_file" : "/hardware/libhardware/include/hardware/gralloc.h"
  },
  {
   "alignment" : 4,
   "linker_set_key" : "_ZTIPFiPK16gralloc_module_tPK13native_handlePiE",
   "name" : "int (*)(const gralloc_module_t *, const native_handle *, int *)",
   "referenced_type" : "_ZTIFiPK16gralloc_module_tPK13native_handlePiE",
   "self_type" : "_ZTIPFiPK16gralloc_module_tPK13native_handlePiE",
   "size" : 4,
   "source_file" : "/hardware/libhardware/include/hardware/gralloc.h"
  },
  {
   "alignment" : 4,
   "linker_set_key" : "_ZTIPFiPK16gralloc_module_tPK13native_handlePjS5_E",
   "name" : "int (*)(const gralloc_module_t *, const native_handle *, unsigned int *, unsigned int *)",
   "referenced_type" : "_ZTIFiPK16gralloc_module_tPK13native_handlePjS5_E",
   "self_type" : "_ZTIPFiPK16gralloc_module_tPK13native_handlePjS5_E",
   "size" : 4,
   "source_file" : "/hardware/libhardware/include/hardware/gralloc.h"
  },
  {
   "alignment" : 4,
   "linker_set_key" : "_ZTIPFiPK16gralloc_module_tPK13native_handleiiiiiP13android_ycbcrE",
   "name" : "int (*)(const gralloc_module_t *, const native_handle *, int, int, int, int, int, android_ycbcr *)",
   "referenced_type" : "_ZTIFiPK16gralloc_module_tPK13native_handleiiiiiP13android_ycbcrE",
   "self_type" : "_ZTIPFiPK16gralloc_module_tPK13native_handleiiiiiP13android_ycbcrE",
   "size" : 4,
   "source_file" : "/hardware/libhardware/include/hardware/gralloc.h"
  },
  {
   "alignment" : 4,
   "linker_set_key" : "_ZTIPFiPK16gralloc_module_tPK13native_handleiiiiiP13android_ycbcriE",
   "name" : "int (*)(const gralloc_module_t *, const native_handle *, int, int, int, int, int, android_ycbcr *, int)",
   "referenced_type" : "_ZTIFiPK16gralloc_module_tPK13native_handleiiiiiP13android_ycbcriE",
   "self_type" : "_ZTIPFiPK16gralloc_module_tPK13native_handleiiiiiP13android_ycbcriE",
   "size" : 4,
   "source_file" : "/hardware/libhardware/include/hardware/gralloc.h"
  },
  {
   "alignment" : 4,
   "linker_set_key" : "_ZTIPFiPK16gralloc_module_tPK13native_handleiiiiiPPvE",
   "name" : "int (*)(const gralloc_module_t *, const native_handle *, int, int, int, int, int, void **)",
   "referenced_type" : "_ZTIFiPK16gralloc_module_tPK13native_handleiiiiiPPvE",
   "self_type" : "_ZTIPFiPK16gralloc_module_tPK13native_handleiiiiiPPvE",
   "size" : 4,
   "source_file" : "/hardware/libhardware/include/hardware/gralloc.h"
  },
  {
   "alignment" : 4,
   "linker_set_key" : "_ZTIPFiPK16gralloc_module_tPK13native_handleiiiiiPPviE",
   "name" : "int (*)(const gralloc_module_t *, const native_handle *, int, int, int, int, int, void **, int)",
   "referenced_type" : "_ZTIFiPK16gralloc_module_tPK13native_handleiiiiiPPviE",
   "self_type" : "_ZTIPFiPK16gralloc_module_tPK13native_handleiiiiiPPviE",
   "size" : 4,
   "source_file" : "/hardware/libhardware/include/hardware/gralloc.h"
  },
  {
   "alignment" : 4,
   "linker_set_key" : "_ZTIPFiPK16gralloc_module_tPK13native_handlejjiijE",
   "name" : "int (*)(const gralloc_module_t *, const native_handle *, unsigned int, unsigned int, int, int, unsigned int)",
   "referenced_type" : "_ZTIFiPK16gralloc_module_tPK13native_handlejjiijE",
   "self_type" : "_ZTIPFiPK16gralloc_module_tPK13native_handlejjiijE",
   "size" : 4,
   "source_file" : "/hardware/libhardware/include/hardware/gralloc.h"
  },
  {
   "alignment" : 4,
   "linker_set_key" : "_ZTIPFiPK16gralloc_module_tizE",
   "name" : "int (*)(const gralloc_module_t *, int, ...)",
   "referenced_type" : "_ZTIFiPK16gralloc_module_tizE",
   "self_type" : "_ZTIPFiPK16gralloc_module_tizE",
   "size" : 4,
   "source_file" : "/hardware/libhardware/include/hardware/gralloc.h"
  },
  {
   "alignment" : 4,
   "linker_set_key" : "_ZTIPFvP14alloc_device_tPciE",
   "name" : "void (*)(alloc_device_t *, char *, int)",
   "referenced_type" : "_ZTIFvP14alloc_device_tPciE",
   "self_type" : "_ZTIPFvP14alloc_device_tPciE",
   "size" : 4,
   "source_file" : "/hardware/libhardware/include/hardware/gralloc.h"
  },
  {
   "alignment" : 4,
   "linker_set_key" : "_ZTIPFvP20framebuffer_device_tPciE",
   "name" : "void (*)(framebuffer_device_t *, char *, int)",
   "referenced_type" : "_ZTIFvP20framebuffer_device_tPciE",
   "self_type" : "_ZTIPFvP20framebuffer_device_tPciE",
   "size" : 4,
   "source_file" : "/hardware/libhardware/include/hardware/fb.h"
  },
  {
   "alignment" : 4,
   "linker_set_key" : "_ZTIPK10_C2FieldId",
   "name" : "const _C2FieldId *",
   "referenced_type" : "_ZTIK10_C2FieldId",
   "self_type" : "_ZTIPK10_C2FieldId",
   "size" : 4,
   "source_file" : "/frameworks/av/media/codec2/core/include/C2Param.h"
  },
  {
   "alignment" : 4,
   "linker_set_key" : "_ZTIPK11C2PlaneInfo",
   "name" : "const C2PlaneInfo *",
   "referenced_type" : "_ZTIK11C2PlaneInfo",
   "self_type" : "_ZTIPK11C2PlaneInfo",
   "size" : 4,
   "source_file" : "/frameworks/av/media/codec2/core/include/C2Buffer.h"
  },
  {
   "alignment" : 4,
   "linker_set_key" : "_ZTIPK11hw_module_t",
   "name" : "const hw_module_t *",
   "referenced_type" : "_ZTIK11hw_module_t",
   "self_type" : "_ZTIPK11hw_module_t",
   "size" : 4,
   "source_file" : "/hardware/libhardware/include/hardware/hardware.h"
  },
  {
   "alignment" : 4,
   "linker_set_key" : "_ZTIPK12C2ParamField",
   "name" : "const C2ParamField *",
   "referenced_type" : "_ZTIK12C2ParamField",
   "self_type" : "_ZTIPK12C2ParamField",
   "size" : 4,
   "source_file" : "/frameworks/av/media/codec2/core/include/C2Param.h"
  },
  {
   "alignment" : 4,
   "linker_set_key" : "_ZTIPK13C2LinearRange",
   "name" : "const C2LinearRange *",
   "referenced_type" : "_ZTIK13C2LinearRange",
   "self_type" : "_ZTIPK13C2LinearRange",
   "size" : 4,
   "source_file" : "/frameworks/av/media/codec2/core/include/C2Buffer.h"
  },
  {
   "alignment" : 4,
   "linker_set_key" : "_ZTIPK13native_handle",
   "name" : "const native_handle *",
   "referenced_type" : "_ZTIK13native_handle",
   "self_type" : "_ZTIPK13native_handle",
   "size" : 4,
   "source_file" : "/hardware/libhardware/include/hardware/fb.h"
  },
  {
   "alignment" : 4,
   "linker_set_key" : "_ZTIPK15C2PlanarSection",
   "name" : "const C2PlanarSection *",
   "referenced_type" : "_ZTIK15C2PlanarSection",
   "self_type" : "_ZTIPK15C2PlanarSection",
   "size" : 4,
   "source_file" : "/frameworks/av/media/codec2/core/include/C2Buffer.h"
  },
  {
   "alignment" : 4,
   "linker_set_key" : "_ZTIPK15_C2InnateStatus",
   "name" : "const _C2InnateStatus *",
   "referenced_type" : "_ZTIK15_C2InnateStatus",
   "self_type" : "_ZTIPK15_C2InnateStatus",
   "size" : 4,
   "source_file" : "/frameworks/av/media/codec2/core/include/C2Buffer.h"
  },
  {
   "alignment" : 4,
   "linker_set_key" : "_ZTIPK16C2LinearCapacity",
   "name" : "const C2LinearCapacity *",
   "referenced_type" : "_ZTIK16C2LinearCapacity",
   "self_type" : "_ZTIPK16C2LinearCapacity",
   "size" : 4,
   "source_file" : "/frameworks/av/media/codec2/core/include/C2Buffer.h"
  },
  {
   "alignment" : 4,
   "linker_set_key" : "_ZTIPK16C2PlanarCapacity",
   "name" : "const C2PlanarCapacity *",
   "referenced_type" : "_ZTIK16C2PlanarCapacity",
   "self_type" : "_ZTIPK16C2PlanarCapacity",
   "size" : 4,
   "source_file" : "/frameworks/av/media/codec2/core/include/C2Buffer.h"
  },
  {
   "alignment" : 4,
   "linker_set_key" : "_ZTIPK16gralloc_module_t",
   "name" : "const gralloc_module_t *",
   "referenced_type" : "_ZTIK16gralloc_module_t",
   "self_type" : "_ZTIPK16gralloc_module_t",
   "size" : 4,
   "source_file" : "/hardware/libhardware/include/hardware/gralloc.h"
  },
  {
   "alignment" : 4,
   "linker_set_key" : "_ZTIPK17C2FieldDescriptor",
   "name" : "const C2FieldDescriptor *",
   "referenced_type" : "_ZTIK17C2FieldDescriptor",
   "self_type" : "_ZTIPK17C2FieldDescriptor",
   "size" : 4,
   "source_file" : "/frameworks/av/media/codec2/core/include/C2Param.h"
  },
  {
   "alignment" : 4,
   "linker_set_key" : "_ZTIPK17C2ParamDescriptor",
   "name" : "const C2ParamDescriptor *",
   "referenced_type" : "_ZTIK17C2ParamDescriptor",
   "self_type" : "_ZTIPK17C2ParamDescriptor",
   "size" : 4,
   "source_file" : "/frameworks/av/media/codec2/core/include/C2Param.h"
  },
  {
   "alignment" : 4,
   "linker_set_key" : "_ZTIPK18C2ConstLinearBlock",
   "name" : "const C2ConstLinearBlock *",
   "referenced_type" : "_ZTIK18C2ConstLinearBlock",
   "self_type" : "_ZTIPK18C2ConstLinearBlock",
   "size" : 4,
   "source_file" : "/frameworks/av/media/codec2/core/include/C2Buffer.h"
  },
  {
   "alignment" : 4,
   "linker_set_key" : "_ZTIPK18C2StructDescriptor",
   "name" : "const C2StructDescriptor *",
   "referenced_type" : "_ZTIK18C2StructDescriptor",
   "self_type" : "_ZTIPK18C2StructDescriptor",
   "size" : 4,
   "source_file" : "/frameworks/av/media/codec2/core/include/C2Param.h"
  },
  {
   "alignment" : 4,
   "linker_set_key" : "_ZTIPK19C2ConstGraphicBlock",
   "name" : "const C2ConstGraphicBlock *",
   "referenced_type" : "_ZTIK19C2ConstGraphicBlock",
   "self_type" : "_ZTIPK19C2ConstGraphicBlock",
   "size" : 4,
   "source_file" : "/frameworks/av/media/codec2/core/include/C2Buffer.h"
  },
  {
   "alignment" : 4,
   "linker_set_key" : "_ZTIPK20_C2LinearRangeAspect",
   "name" : "const _C2LinearRangeAspect *",
   "referenced_type" : "_ZTIK20_C2LinearRangeAspect",
   "self_type" : "_ZTIPK20_C2LinearRangeAspect",
   "size" : 4,
   "source_file" : "/frameworks/av/media/codec2/core/include/C2Buffer.h"
  },
  {
   "alignment" : 4,
   "linker_set_key" : "_ZTIPK22_C2PlanarSectionAspect",
   "name" : "const _C2PlanarSectionAspect *",
   "referenced_type" : "_ZTIK22_C2PlanarSectionAspect",
   "self_type" : "_ZTIPK22_C2PlanarSectionAspect",
   "size" : 4,
   "source_file" : "/frameworks/av/media/codec2/core/include/C2Buffer.h"
  },
  {
   "alignment" : 4,
   "linker_set_key" : "_ZTIPK23_C2LinearCapacityAspect",
   "name" : "const _C2LinearCapacityAspect *",
   "referenced_type" : "_ZTIK23_C2LinearCapacityAspect",
   "self_type" : "_ZTIPK23_C2LinearCapacityAspect",
   "size" : 4,
   "source_file" : "/frameworks/av/media/codec2/core/include/C2Buffer.h"
  },
  {
   "alignment" : 4,
   "linker_set_key" : "_ZTIPK23_C2PlanarCapacityAspect",
   "name" : "const _C2PlanarCapacityAspect *",
   "referenced_type" : "_ZTIK23_C2PlanarCapacityAspect",
   "self_type" : "_ZTIPK23_C2PlanarCapacityAspect",
   "size" : 4,
   "source_file" : "/frameworks/av/media/codec2/core/include/C2Buffer.h"
  },
  {
   "alignment" : 4,
   "linker_set_key" : "_ZTIPK27C2FieldSupportedValuesQuery",
   "name" : "const C2FieldSupportedValuesQuery *",
   "referenced_type" : "_ZTIK27C2FieldSupportedValuesQuery",
   "self_type" : "_ZTIPK27C2FieldSupportedValuesQuery",
   "size" : 4,
   "source_file" : "/frameworks/av/media/codec2/core/include/C2Component.h"
  },
  {
   "alignment" : 4,
   "linker_set_key" : "_ZTIPK30_C2EditablePlanarSectionAspect",
   "name" : "const _C2EditablePlanarSectionAspect *",
   "referenced_type" : "_ZTIK30_C2EditablePlanarSectionAspect",
   "self_type" : "_ZTIPK30_C2EditablePlanarSectionAspect",
   "size" : 4,
   "source_file" : "/frameworks/av/media/codec2/core/include/C2Buffer.h"
  },
  {
   "alignment" : 4,
   "linker_set_key" : "_ZTIPK6C2Rect",
   "name" : "const C2Rect *",
   "referenced_type" : "_ZTIK6C2Rect",
   "self_type" : "_ZTIPK6C2Rect",
   "size" : 4,
   "source_file" : "/frameworks/av/media/codec2/core/include/C2Buffer.h"
  },
  {
   "alignment" : 4,
   "linker_set_key" : "_ZTIPK7C2Param",
   "name" : "const C2Param *",
   "referenced_type" : "_ZTIK7C2Param",
   "self_type" : "_ZTIPK7C2Param",
   "size" : 4,
   "source_file" : "/frameworks/av/media/codec2/core/include/C2Param.h"
  },
  {
   "alignment" : 4,
   "linker_set_key" : "_ZTIPK7C2Value",
   "name" : "const C2Value *",
   "referenced_type" : "_ZTIK7C2Value",
   "self_type" : "_ZTIPK7C2Value",
   "size" : 4,
   "source_file" : "/frameworks/av/media/codec2/core/include/C2Param.h"
  },
  {
   "alignment" : 4,
   "linker_set_key" : "_ZTIPK9C2Segment",
   "name" : "const C2Segment *",
   "referenced_type" : "_ZTIK9C2Segment",
   "self_type" : "_ZTIPK9C2Segment",
   "size" : 4,
   "source_file" : "/frameworks/av/media/codec2/core/include/C2Buffer.h"
  },
  {
   "alignment" : 4,
   "linker_set_key" : "_ZTIPKN7C2Param4TypeE",
   "name" : "const C2Param::Type *",
   "referenced_type" : "_ZTIKN7C2Param4TypeE",
   "self_type" : "_ZTIPKN7C2Param4TypeE",
   "size" : 4,
   "source_file" : "/frameworks/av/media/codec2/core/include/C2Param.h"
  },
  {
   "alignment" : 4,
   "linker_set_key" : "_ZTIPKN7C2Param5IndexE",
   "name" : "const C2Param::Index *",
   "referenced_type" : "_ZTIKN7C2Param5IndexE",
   "self_type" : "_ZTIPKN7C2Param5IndexE",
   "size" : 4,
   "source_file" : "/frameworks/av/media/codec2/core/include/C2Param.h"
  },
  {
   "alignment" : 4,
   "linker_set_key" : "_ZTIPKN7C2Param9CoreIndexE",
   "name" : "const C2Param::CoreIndex *",
   "referenced_type" : "_ZTIKN7C2Param9CoreIndexE",
   "self_type" : "_ZTIPKN7C2Param9CoreIndexE",
   "size" : 4,
   "source_file" : "/frameworks/av/media/codec2/core/include/C2Param.h"
  },
  {
   "alignment" : 4,
   "linker_set_key" : "_ZTIPKN7C2Value9PrimitiveE",
   "name" : "const C2Value::Primitive *",
   "referenced_type" : "_ZTIKN7C2Value9PrimitiveE",
   "self_type" : "_ZTIPKN7C2Value9PrimitiveE",
   "size" : 4,
   "source_file" : "/frameworks/av/media/codec2/core/include/C2Param.h"
  },
  {
   "alignment" : 4,
   "linker_set_key" : "_ZTIPKc",
   "name" : "const char *",
   "referenced_type" : "_ZTIKc",
   "self_type" : "_ZTIPKc",
   "size" : 4,
   "source_file" : "/frameworks/av/media/codec2/core/include/C2Param.h"
  },
  {
   "alignment" : 4,
   "linker_set_key" : "_ZTIPN11C2Component8ListenerE",
   "name" : "C2Component::Listener *",
   "referenced_type" : "_ZTIN11C2Component8ListenerE",
   "self_type" : "_ZTIPN11C2Component8ListenerE",
   "size" : 4,
   "source_file" : "/frameworks/av/media/codec2/core/include/C2Component.h"
  },
  {
   "alignment" : 4,
   "linker_set_key" : "_ZTIPN7C2Param4TypeE",
   "name" : "C2Param::Type *",
   "referenced_type" : "_ZTIN7C2Param4TypeE",
   "self_type" : "_ZTIPN7C2Param4TypeE",
   "size" : 4,
   "source_file" : "/frameworks/av/media/codec2/core/include/C2Param.h"
  },
  {
   "alignment" : 4,
   "linker_set_key" : "_ZTIPN7C2Param5IndexE",
   "name" : "C2Param::Index *",
   "referenced_type" : "_ZTIN7C2Param5IndexE",
   "self_type" : "_ZTIPN7C2Param5IndexE",
   "size" : 4,
   "source_file" : "/frameworks/av/media/codec2/core/include/C2Param.h"
  },
  {
   "alignment" : 4,
   "linker_set_key" : "_ZTIPN7C2Param9CoreIndexE",
   "name" : "C2Param::CoreIndex *",
   "referenced_type" : "_ZTIN7C2Param9CoreIndexE",
   "self_type" : "_ZTIPN7C2Param9CoreIndexE",
   "size" : 4,
   "source_file" : "/frameworks/av/media/codec2/core/include/C2Param.h"
  },
  {
   "alignment" : 4,
   "linker_set_key" : "_ZTIPN7C2Value9PrimitiveE",
   "name" : "C2Value::Primitive *",
   "referenced_type" : "_ZTIN7C2Value9PrimitiveE",
   "self_type" : "_ZTIPN7C2Value9PrimitiveE",
   "size" : 4,
   "source_file" : "/frameworks/av/media/codec2/core/include/C2Param.h"
  },
  {
   "alignment" : 4,
   "linker_set_key" : "_ZTIPN7android20C2AndroidMemoryUsageE",
   "name" : "android::C2AndroidMemoryUsage *",
   "referenced_type" : "_ZTIN7android20C2AndroidMemoryUsageE",
   "self_type" : "_ZTIPN7android20C2AndroidMemoryUsageE",
   "size" : 4,
   "source_file" : "/frameworks/av/media/codec2/core/include/android-C2Buffer.h"
  },
  {
   "alignment" : 4,
   "linker_set_key" : "_ZTIPNSt3__110shared_ptrI13C2LinearBlockEE",
   "name" : "std::shared_ptr<C2LinearBlock> *",
   "referenced_type" : "_ZTINSt3__110shared_ptrI13C2LinearBlockEE",
   "self_type" : "_ZTIPNSt3__110shared_ptrI13C2LinearBlockEE",
   "size" : 4,
   "source_file" : "/frameworks/av/media/codec2/core/include/C2Buffer.h"
  },
  {
   "alignment" : 4,
   "linker_set_key" : "_ZTIPNSt3__110shared_ptrI14C2GraphicBlockEE",
   "name" : "std::shared_ptr<C2GraphicBlock> *",
   "referenced_type" : "_ZTINSt3__110shared_ptrI14C2GraphicBlockEE",
   "self_type" : "_ZTIPNSt3__110shared_ptrI14C2GraphicBlockEE",
   "size" : 4,
   "source_file" : "/frameworks/av/media/codec2/core/include/C2Buffer.h"
  },
  {
   "alignment" : 4,
   "linker_set_key" : "_ZTIPNSt3__110shared_ptrI15C2CircularBlockEE",
   "name" : "std::shared_ptr<C2CircularBlock> *",
   "referenced_type" : "_ZTINSt3__110shared_ptrI15C2CircularBlockEE",
   "self_type" : "_ZTIPNSt3__110shared_ptrI15C2CircularBlockEE",
   "size" : 4,
   "source_file" : "/frameworks/av/media/codec2/core/include/C2Buffer.h"
  },
  {
   "alignment" : 4,
   "linker_set_key" : "_ZTIPNSt3__110shared_ptrI18C2LinearAllocationEE",
   "name" : "std::shared_ptr<C2LinearAllocation> *",
   "referenced_type" : "_ZTINSt3__110shared_ptrI18C2LinearAllocationEE",
   "self_type" : "_ZTIPNSt3__110shared_ptrI18C2LinearAllocationEE",
   "size" : 4,
   "source_file" : "/frameworks/av/media/codec2/core/include/C2Buffer.h"
  },
  {
   "alignment" : 4,
   "linker_set_key" : "_ZTIPNSt3__110shared_ptrI19C2GraphicAllocationEE",
   "name" : "std::shared_ptr<C2GraphicAllocation> *",
   "referenced_type" : "_ZTINSt3__110shared_ptrI19C2GraphicAllocationEE",
   "self_type" : "_ZTIPNSt3__110shared_ptrI19C2GraphicAllocationEE",
   "size" : 4,
   "source_file" : "/frameworks/av/media/codec2/core/include/C2Buffer.h"
  },
  {
   "alignment" : 4,
   "linker_set_key" : "_ZTIPP11hw_device_t",
   "name" : "hw_device_t **",
   "referenced_type" : "_ZTIP11hw_device_t",
   "self_type" : "_ZTIPP11hw_device_t",
   "size" : 4,
   "source_file" : "/hardware/libhardware/include/hardware/hardware.h"
  },
  {
   "alignment" : 4,
   "linker_set_key" : "_ZTIPPK13native_handle",
   "name" : "const native_handle **",
   "referenced_type" : "_ZTIPK13native_handle",
   "self_type" : "_ZTIPPK13native_handle",
   "size" : 4,
   "source_file" : "/hardware/libhardware/include/hardware/gralloc.h"
  },
  {
   "alignment" : 4,
   "linker_set_key" : "_ZTIPPv",
   "name" : "void **",
   "referenced_type" : "_ZTIPv",
   "self_type" : "_ZTIPPv",
   "size" : 4,
   "source_file" : "/hardware/libhardware/include/hardware/gralloc.h"
  },
  {
   "alignment" : 4,
   "linker_set_key" : "_ZTIPc",
   "name" : "char *",
   "referenced_type" : "_ZTIc",
   "self_type" : "_ZTIPc",
   "size" : 4,
   "source_file" : "/frameworks/av/media/codec2/core/include/C2Param.h"
  },
  {
   "alignment" : 4,
   "linker_set_key" : "_ZTIPf",
   "name" : "float *",
   "referenced_type" : "_ZTIf",
   "self_type" : "_ZTIPf",
   "size" : 4,
   "source_file" : "/frameworks/av/media/codec2/core/include/C2Param.h"
  },
  {
   "alignment" : 4,
   "linker_set_key" : "_ZTIPh",
   "name" : "unsigned char *",
   "referenced_type" : "_ZTIh",
   "self_type" : "_ZTIPh",
   "size" : 4,
   "source_file" : "/frameworks/av/media/codec2/core/include/C2Param.h"
  },
  {
   "alignment" : 4,
   "linker_set_key" : "_ZTIPi",
   "name" : "int *",
   "referenced_type" : "_ZTIi",
   "self_type" : "_ZTIPi",
   "size" : 4,
   "source_file" : "/frameworks/av/media/codec2/core/include/C2Param.h"
  },
  {
   "alignment" : 4,
   "linker_set_key" : "_ZTIPj",
   "name" : "unsigned int *",
   "referenced_type" : "_ZTIj",
   "self_type" : "_ZTIPj",
   "size" : 4,
   "source_file" : "/frameworks/av/media/codec2/core/include/C2Param.h"
  },
  {
   "alignment" : 4,
   "linker_set_key" : "_ZTIPv",
   "name" : "void *",
   "referenced_type" : "_ZTIv",
   "self_type" : "_ZTIPv",
   "size" : 4,
   "source_file" : "/frameworks/av/media/codec2/core/include/C2Param.h"
  },
  {
   "alignment" : 4,
   "linker_set_key" : "_ZTIPx",
   "name" : "long long *",
   "referenced_type" : "_ZTIx",
   "self_type" : "_ZTIPx",
   "size" : 4,
   "source_file" : "/frameworks/av/media/codec2/core/include/C2Param.h"
  },
  {
   "alignment" : 4,
   "linker_set_key" : "_ZTIPy",
   "name" : "unsigned long long *",
   "referenced_type" : "_ZTIy",
   "self_type" : "_ZTIPy",
   "size" : 4,
   "source_file" : "/frameworks/av/media/codec2/core/include/C2Param.h"
  }
 ],
 "qualified_types" :
 [
  {
   "alignment" : 1,
   "is_const" : true,
   "linker_set_key" : "_ZTIA10_Kc",
   "name" : "char const[10]",
   "referenced_type" : "_ZTIA10_c",
   "self_type" : "_ZTIA10_Kc",
   "size" : 10,
   "source_file" : "/frameworks/av/media/codec2/core/include/C2Config.h"
  },
  {
   "alignment" : 1,
   "is_const" : true,
   "linker_set_key" : "_ZTIA11_Kc",
   "name" : "char const[11]",
   "referenced_type" : "_ZTIA11_c",
   "self_type" : "_ZTIA11_Kc",
   "size" : 11,
   "source_file" : "/frameworks/av/media/codec2/core/include/C2Config.h"
  },
  {
   "alignment" : 1,
   "is_const" : true,
   "linker_set_key" : "_ZTIA12_Kc",
   "name" : "char const[12]",
   "referenced_type" : "_ZTIA12_c",
   "self_type" : "_ZTIA12_Kc",
   "size" : 12,
   "source_file" : "/frameworks/av/media/codec2/core/include/C2Config.h"
  },
  {
   "alignment" : 1,
   "is_const" : true,
   "linker_set_key" : "_ZTIA13_Kc",
   "name" : "char const[13]",
   "referenced_type" : "_ZTIA13_c",
   "self_type" : "_ZTIA13_Kc",
   "size" : 13,
   "source_file" : "/frameworks/av/media/codec2/core/include/C2Config.h"
  },
  {
   "alignment" : 1,
   "is_const" : true,
   "linker_set_key" : "_ZTIA14_Kc",
   "name" : "char const[14]",
   "referenced_type" : "_ZTIA14_c",
   "self_type" : "_ZTIA14_Kc",
   "size" : 14,
   "source_file" : "/frameworks/av/media/codec2/core/include/C2Config.h"
  },
  {
   "alignment" : 1,
   "is_const" : true,
   "linker_set_key" : "_ZTIA15_Kc",
   "name" : "char const[15]",
   "referenced_type" : "_ZTIA15_c",
   "self_type" : "_ZTIA15_Kc",
   "size" : 15,
   "source_file" : "/frameworks/av/media/codec2/core/include/C2Config.h"
  },
  {
   "alignment" : 1,
   "is_const" : true,
   "linker_set_key" : "_ZTIA16_Kc",
   "name" : "char const[16]",
   "referenced_type" : "_ZTIA16_c",
   "self_type" : "_ZTIA16_Kc",
   "size" : 16,
   "source_file" : "/frameworks/av/media/codec2/core/include/C2Config.h"
  },
  {
   "alignment" : 1,
   "is_const" : true,
   "linker_set_key" : "_ZTIA17_Kc",
   "name" : "char const[17]",
   "referenced_type" : "_ZTIA17_c",
   "self_type" : "_ZTIA17_Kc",
   "size" : 17,
   "source_file" : "/frameworks/av/media/codec2/core/include/C2Config.h"
  },
  {
   "alignment" : 1,
   "is_const" : true,
   "linker_set_key" : "_ZTIA18_Kc",
   "name" : "char const[18]",
   "referenced_type" : "_ZTIA18_c",
   "self_type" : "_ZTIA18_Kc",
   "size" : 18,
   "source_file" : "/frameworks/av/media/codec2/core/include/C2Config.h"
  },
  {
   "alignment" : 1,
   "is_const" : true,
   "linker_set_key" : "_ZTIA19_Kc",
   "name" : "char const[19]",
   "referenced_type" : "_ZTIA19_c",
   "self_type" : "_ZTIA19_Kc",
   "size" : 19,
   "source_file" : "/frameworks/av/media/codec2/core/include/C2Config.h"
  },
  {
   "alignment" : 1,
   "is_const" : true,
   "linker_set_key" : "_ZTIA20_Kc",
   "name" : "char const[20]",
   "referenced_type" : "_ZTIA20_c",
   "self_type" : "_ZTIA20_Kc",
   "size" : 20,
   "source_file" : "/frameworks/av/media/codec2/core/include/C2Config.h"
  },
  {
   "alignment" : 1,
   "is_const" : true,
   "linker_set_key" : "_ZTIA21_Kc",
   "name" : "char const[21]",
   "referenced_type" : "_ZTIA21_c",
   "self_type" : "_ZTIA21_Kc",
   "size" : 21,
   "source_file" : "/frameworks/av/media/codec2/core/include/C2Config.h"
  },
  {
   "alignment" : 1,
   "is_const" : true,
   "linker_set_key" : "_ZTIA22_Kc",
   "name" : "char const[22]",
   "referenced_type" : "_ZTIA22_c",
   "self_type" : "_ZTIA22_Kc",
   "size" : 22,
   "source_file" : "/frameworks/av/media/codec2/core/include/C2Config.h"
  },
  {
   "alignment" : 1,
   "is_const" : true,
   "linker_set_key" : "_ZTIA23_Kc",
   "name" : "char const[23]",
   "referenced_type" : "_ZTIA23_c",
   "self_type" : "_ZTIA23_Kc",
   "size" : 23,
   "source_file" : "/frameworks/av/media/codec2/core/include/C2Config.h"
  },
  {
   "alignment" : 1,
   "is_const" : true,
   "linker_set_key" : "_ZTIA24_Kc",
   "name" : "char const[24]",
   "referenced_type" : "_ZTIA24_c",
   "self_type" : "_ZTIA24_Kc",
   "size" : 24,
   "source_file" : "/frameworks/av/media/codec2/core/include/C2Config.h"
  },
  {
   "alignment" : 1,
   "is_const" : true,
   "linker_set_key" : "_ZTIA25_Kc",
   "name" : "char const[25]",
   "referenced_type" : "_ZTIA25_c",
   "self_type" : "_ZTIA25_Kc",
   "size" : 25,
   "source_file" : "/frameworks/av/media/codec2/core/include/C2Config.h"
  },
  {
   "alignment" : 1,
   "is_const" : true,
   "linker_set_key" : "_ZTIA26_Kc",
   "name" : "char const[26]",
   "referenced_type" : "_ZTIA26_c",
   "self_type" : "_ZTIA26_Kc",
   "size" : 26,
   "source_file" : "/frameworks/av/media/codec2/core/include/C2Config.h"
  },
  {
   "alignment" : 1,
   "is_const" : true,
   "linker_set_key" : "_ZTIA27_Kc",
   "name" : "char const[27]",
   "referenced_type" : "_ZTIA27_c",
   "self_type" : "_ZTIA27_Kc",
   "size" : 27,
   "source_file" : "/frameworks/av/media/codec2/core/include/C2Config.h"
  },
  {
   "alignment" : 1,
   "is_const" : true,
   "linker_set_key" : "_ZTIA28_Kc",
   "name" : "char const[28]",
   "referenced_type" : "_ZTIA28_c",
   "self_type" : "_ZTIA28_Kc",
   "size" : 28,
   "source_file" : "/frameworks/av/media/codec2/core/include/C2Config.h"
  },
  {
   "alignment" : 1,
   "is_const" : true,
   "linker_set_key" : "_ZTIA29_Kc",
   "name" : "char const[29]",
   "referenced_type" : "_ZTIA29_c",
   "self_type" : "_ZTIA29_Kc",
   "size" : 29,
   "source_file" : "/frameworks/av/media/codec2/core/include/C2Config.h"
  },
  {
   "alignment" : 1,
   "is_const" : true,
   "linker_set_key" : "_ZTIA30_Kc",
   "name" : "char const[30]",
   "referenced_type" : "_ZTIA30_c",
   "self_type" : "_ZTIA30_Kc",
   "size" : 30,
   "source_file" : "/frameworks/av/media/codec2/core/include/C2Config.h"
  },
  {
   "alignment" : 1,
   "is_const" : true,
   "linker_set_key" : "_ZTIA31_Kc",
   "name" : "char const[31]",
   "referenced_type" : "_ZTIA31_c",
   "self_type" : "_ZTIA31_Kc",
   "size" : 31,
   "source_file" : "/frameworks/av/media/codec2/core/include/C2Config.h"
  },
  {
   "alignment" : 1,
   "is_const" : true,
   "linker_set_key" : "_ZTIA35_Kc",
   "name" : "char const[35]",
   "referenced_type" : "_ZTIA35_c",
   "self_type" : "_ZTIA35_Kc",
   "size" : 35,
   "source_file" : "/frameworks/av/media/codec2/core/include/C2Config.h"
  },
  {
   "alignment" : 1,
   "is_const" : true,
   "linker_set_key" : "_ZTIA36_Kc",
   "name" : "char const[36]",
   "referenced_type" : "_ZTIA36_c",
   "self_type" : "_ZTIA36_Kc",
   "size" : 36,
   "source_file" : "/frameworks/av/media/codec2/core/include/C2Config.h"
  },
  {
   "alignment" : 1,
   "is_const" : true,
   "linker_set_key" : "_ZTIA8_Kc",
   "name" : "char const[8]",
   "referenced_type" : "_ZTIA8_c",
   "self_type" : "_ZTIA8_Kc",
   "size" : 8,
   "source_file" : "/frameworks/av/media/codec2/core/include/C2Config.h"
  },
  {
   "alignment" : 1,
   "is_const" : true,
   "linker_set_key" : "_ZTIA9_Kc",
   "name" : "char const[9]",
   "referenced_type" : "_ZTIA9_c",
   "self_type" : "_ZTIA9_Kc",
   "size" : 9,
   "source_file" : "/frameworks/av/media/codec2/core/include/C2Config.h"
  },
  {
   "alignment" : 4,
   "is_const" : true,
   "linker_set_key" : "_ZTIK10_C2FieldId",
   "name" : "const _C2FieldId",
   "referenced_type" : "_ZTI10_C2FieldId",
   "self_type" : "_ZTIK10_C2FieldId",
   "size" : 8,
   "source_file" : "/frameworks/av/media/codec2/core/include/C2Param.h"
  },
  {
   "alignment" : 4,
   "is_const" : true,
   "linker_set_key" : "_ZTIK11C2PlaneInfo",
   "name" : "const C2PlaneInfo",
   "referenced_type" : "_ZTI11C2PlaneInfo",
   "self_type" : "_ZTIK11C2PlaneInfo",
   "size" : 44,
   "source_file" : "/frameworks/av/media/codec2/core/include/C2Buffer.h"
  },
  {
   "alignment" : 4,
   "is_const" : true,
   "linker_set_key" : "_ZTIK11hw_module_t",
   "name" : "const hw_module_t",
   "referenced_type" : "_ZTI11hw_module_t",
   "self_type" : "_ZTIK11hw_module_t",
   "size" : 128,
   "source_file" : "/hardware/libhardware/include/hardware/hardware.h"
  },
  {
   "alignment" : 4,
   "is_const" : true,
   "linker_set_key" : "_ZTIK12C2ParamField",
   "name" : "const C2ParamField",
   "referenced_type" : "_ZTI12C2ParamField",
   "self_type" : "_ZTIK12C2ParamField",
   "size" : 12,
   "source_file" : "/frameworks/av/media/codec2/core/include/C2Param.h"
  },
  {
   "alignment" : 4,
   "is_const" : true,
   "linker_set_key" : "_ZTIK13C2LinearRange",
   "name" : "const C2LinearRange",
   "referenced_type" : "_ZTI13C2LinearRange",
   "self_type" : "_ZTIK13C2LinearRange",
   "size" : 12,
   "source_file" : "/frameworks/av/media/codec2/core/include/C2Buffer.h"
  },
  {
   "alignment" : 4,
   "is_const" : true,
   "linker_set_key" : "_ZTIK13C2MemoryUsage",
   "name" : "const C2MemoryUsage",
   "referenced_type" : "_ZTI13C2MemoryUsage",
   "self_type" : "_ZTIK13C2MemoryUsage",
   "size" : 8,
   "source_file" : "/frameworks/av/media/codec2/core/include/android-C2Buffer.h"
  },
  {
   "alignment" : 4,
   "is_const" : true,
   "linker_set_key" : "_ZTIK13native_handle",
   "name" : "const native_handle",
   "referenced_type" : "_ZTI13native_handle",
   "self_type" : "_ZTIK13native_handle",
   "size" : 12,
   "source_file" : "/hardware/libhardware/include/hardware/fb.h"
  },
  {
   "alignment" : 4,
   "is_const" : true,
   "linker_set_key" : "_ZTIK15C2PlanarSection",
   "name" : "const C2PlanarSection",
   "referenced_type" : "_ZTI15C2PlanarSection",
   "self_type" : "_ZTIK15C2PlanarSection",
   "size" : 24,
   "source_file" : "/frameworks/av/media/codec2/core/include/C2Buffer.h"
  },
  {
   "alignment" : 4,
   "is_const" : true,
   "linker_set_key" : "_ZTIK15_C2InnateStatus",
   "name" : "const _C2InnateStatus",
   "referenced_type" : "_ZTI15_C2InnateStatus",
   "self_type" : "_ZTIK15_C2InnateStatus",
   "size" : 4,
   "source_file" : "/frameworks/av/media/codec2/core/include/C2Buffer.h"
  },
  {
   "alignment" : 4,
   "is_const" : true,
   "linker_set_key" : "_ZTIK16C2LinearCapacity",
   "name" : "const C2LinearCapacity",
   "referenced_type" : "_ZTI16C2LinearCapacity",
   "self_type" : "_ZTIK16C2LinearCapacity",
   "size" : 4,
   "source_file" : "/frameworks/av/media/codec2/core/include/C2Buffer.h"
  },
  {
   "alignment" : 4,
   "is_const" : true,
   "linker_set_key" : "_ZTIK16C2PlanarCapacity",
   "name" : "const C2PlanarCapacity",
   "referenced_type" : "_ZTI16C2PlanarCapacity",
   "self_type" : "_ZTIK16C2PlanarCapacity",
   "size" : 8,
   "source_file" : "/frameworks/av/media/codec2/core/include/C2Buffer.h"
  },
  {
   "alignment" : 4,
   "is_const" : true,
   "linker_set_key" : "_ZTIK16gralloc_module_t",
   "name" : "const gralloc_module_t",
   "referenced_type" : "_ZTI16gralloc_module_t",
   "self_type" : "_ZTIK16gralloc_module_t",
   "size" : 176,
   "source_file" : "/hardware/libhardware/include/hardware/gralloc.h"
  },
  {
   "alignment" : 4,
   "is_const" : true,
   "linker_set_key" : "_ZTIK17C2FieldDescriptor",
   "name" : "const C2FieldDescriptor",
   "referenced_type" : "_ZTI17C2FieldDescriptor",
   "self_type" : "_ZTIK17C2FieldDescriptor",
   "size" : 40,
   "source_file" : "/frameworks/av/media/codec2/core/include/C2Param.h"
  },
  {
   "alignment" : 4,
   "is_const" : true,
   "linker_set_key" : "_ZTIK17C2ParamDescriptor",
   "name" : "const C2ParamDescriptor",
   "referenced_type" : "_ZTI17C2ParamDescriptor",
   "self_type" : "_ZTIK17C2ParamDescriptor",
   "size" : 32,
   "source_file" : "/frameworks/av/media/codec2/core/include/C2Param.h"
  },
  {
   "alignment" : 4,
   "is_const" : true,
   "linker_set_key" : "_ZTIK18C2ConstLinearBlock",
   "name" : "const C2ConstLinearBlock",
   "referenced_type" : "_ZTI18C2ConstLinearBlock",
   "self_type" : "_ZTIK18C2ConstLinearBlock",
   "size" : 28,
   "source_file" : "/frameworks/av/media/codec2/core/include/C2Buffer.h"
  },
  {
   "alignment" : 4,
   "is_const" : true,
   "linker_set_key" : "_ZTIK18C2ParamFieldValues",
   "name" : "const C2ParamFieldValues",
   "referenced_type" : "_ZTI18C2ParamFieldValues",
   "self_type" : "_ZTIK18C2ParamFieldValues",
   "size" : 16,
   "source_file" : "/frameworks/av/media/codec2/core/include/C2Param.h"
  },
  {
   "alignment" : 4,
   "is_const" : true,
   "linker_set_key" : "_ZTIK18C2StructDescriptor",
   "name" : "const C2StructDescriptor",
   "referenced_type" : "_ZTI18C2StructDescriptor",
   "self_type" : "_ZTIK18C2StructDescriptor",
   "size" : 16,
   "source_file" : "/frameworks/av/media/codec2/core/include/C2Param.h"
  },
  {
   "alignment" : 4,
   "is_const" : true,
   "linker_set_key" : "_ZTIK19C2ConstGraphicBlock",
   "name" : "const C2ConstGraphicBlock",
   "referenced_type" : "_ZTI19C2ConstGraphicBlock",
   "self_type" : "_ZTIK19C2ConstGraphicBlock",
   "size" : 40,
   "source_file" : "/frameworks/av/media/codec2/core/include/C2Buffer.h"
  },
  {
   "alignment" : 4,
   "is_const" : true,
   "linker_set_key" : "_ZTIK20_C2LinearRangeAspect",
   "name" : "const _C2LinearRangeAspect",
   "referenced_type" : "_ZTI20_C2LinearRangeAspect",
   "self_type" : "_ZTIK20_C2LinearRangeAspect",
   "size" : 12,
   "source_file" : "/frameworks/av/media/codec2/core/include/C2Buffer.h"
  },
  {
   "alignment" : 4,
   "is_const" : true,
   "linker_set_key" : "_ZTIK22C2FieldSupportedValues",
   "name" : "const C2FieldSupportedValues",
   "referenced_type" : "_ZTI22C2FieldSupportedValues",
   "self_type" : "_ZTIK22C2FieldSupportedValues",
   "size" : 56,
   "source_file" : "/frameworks/av/media/codec2/core/include/C2Param.h"
  },
  {
   "alignment" : 4,
   "is_const" : true,
   "linker_set_key" : "_ZTIK22_C2PlanarSectionAspect",
   "name" : "const _C2PlanarSectionAspect",
   "referenced_type" : "_ZTI22_C2PlanarSectionAspect",
   "self_type" : "_ZTIK22_C2PlanarSectionAspect",
   "size" : 24,
   "source_file" : "/frameworks/av/media/codec2/core/include/C2Buffer.h"
  },
  {
   "alignment" : 4,
   "is_const" : true,
   "linker_set_key" : "_ZTIK23_C2LinearCapacityAspect",
   "name" : "const _C2LinearCapacityAspect",
   "referenced_type" : "_ZTI23_C2LinearCapacityAspect",
   "self_type" : "_ZTIK23_C2LinearCapacityAspect",
   "size" : 4,
   "source_file" : "/frameworks/av/media/codec2/core/include/C2Buffer.h"
  },
  {
   "alignment" : 4,
   "is_const" : true,
   "linker_set_key" : "_ZTIK23_C2PlanarCapacityAspect",
   "name" : "const _C2PlanarCapacityAspect",
   "referenced_type" : "_ZTI23_C2PlanarCapacityAspect",
   "self_type" : "_ZTIK23_C2PlanarCapacityAspect",
   "size" : 8,
   "source_file" : "/frameworks/av/media/codec2/core/include/C2Buffer.h"
  },
  {
   "alignment" : 4,
   "is_const" : true,
   "linker_set_key" : "_ZTIK27C2FieldSupportedValuesQuery",
   "name" : "const C2FieldSupportedValuesQuery",
   "referenced_type" : "_ZTI27C2FieldSupportedValuesQuery",
   "self_type" : "_ZTIK27C2FieldSupportedValuesQuery",
   "size" : 76,
   "source_file" : "/frameworks/av/media/codec2/core/include/C2Component.h"
  },
  {
   "alignment" : 4,
   "is_const" : true,
   "linker_set_key" : "_ZTIK30_C2EditablePlanarSectionAspect",
   "name" : "const _C2EditablePlanarSectionAspect",
   "referenced_type" : "_ZTI30_C2EditablePlanarSectionAspect",
   "self_type" : "_ZTIK30_C2EditablePlanarSectionAspect",
   "size" : 24,
   "source_file" : "/frameworks/av/media/codec2/core/include/C2Buffer.h"
  },
  {
   "alignment" : 4,
   "is_const" : true,
   "linker_set_key" : "_ZTIK6C2Rect",
   "name" : "const C2Rect",
   "referenced_type" : "_ZTI6C2Rect",
   "self_type" : "_ZTIK6C2Rect",
   "size" : 16,
   "source_file" : "/frameworks/av/media/codec2/core/include/C2Buffer.h"
  },
  {
   "alignment" : 4,
   "is_const" : true,
   "linker_set_key" : "_ZTIK7C2Param",
   "name" : "const C2Param",
   "referenced_type" : "_ZTI7C2Param",
   "self_type" : "_ZTIK7C2Param",
   "size" : 8,
   "source_file" : "/frameworks/av/media/codec2/core/include/C2Param.h"
  },
  {
   "alignment" : 4,
   "is_const" : true,
   "linker_set_key" : "_ZTIK7C2Value",
   "name" : "const C2Value",
   "referenced_type" : "_ZTI7C2Value",
   "self_type" : "_ZTIK7C2Value",
   "size" : 12,
   "source_file" : "/frameworks/av/media/codec2/core/include/C2Param.h"
  },
  {
   "alignment" : 4,
   "is_const" : true,
   "linker_set_key" : "_ZTIK9C2Segment",
   "name" : "const C2Segment",
   "referenced_type" : "_ZTI9C2Segment",
   "self_type" : "_ZTIK9C2Segment",
   "size" : 8,
   "source_file" : "/frameworks/av/media/codec2/core/include/C2Buffer.h"
  },
  {
   "alignment" : 4,
   "is_const" : true,
   "linker_set_key" : "_ZTIK9c2_cntr_tIjvE",
   "name" : "const c2_cntr_t<unsigned int, void>",
   "referenced_type" : "_ZTI9c2_cntr_tIjvE",
   "self_type" : "_ZTIK9c2_cntr_tIjvE",
   "size" : 4,
   "source_file" : "/frameworks/av/media/codec2/core/include/C2Param.h"
  },
  {
   "alignment" : 4,
   "is_const" : true,
   "linker_set_key" : "_ZTIK9c2_cntr_tIyvE",
   "name" : "const c2_cntr_t<unsigned long long, void>",
   "referenced_type" : "_ZTI9c2_cntr_tIyvE",
   "self_type" : "_ZTIK9c2_cntr_tIyvE",
   "size" : 8,
   "source_file" : "/frameworks/av/media/codec2/core/include/C2Param.h"
  },
  {
   "alignment" : 4,
   "is_const" : true,
   "linker_set_key" : "_ZTIKN7C2Param4TypeE",
   "name" : "const C2Param::Type",
   "referenced_type" : "_ZTIN7C2Param4TypeE",
   "self_type" : "_ZTIKN7C2Param4TypeE",
   "size" : 4,
   "source_file" : "/frameworks/av/media/codec2/core/include/C2Param.h"
  },
  {
   "alignment" : 4,
   "is_const" : true,
   "linker_set_key" : "_ZTIKN7C2Param5IndexE",
   "name" : "const C2Param::Index",
   "referenced_type" : "_ZTIN7C2Param5IndexE",
   "self_type" : "_ZTIKN7C2Param5IndexE",
   "size" : 4,
   "source_file" : "/frameworks/av/media/codec2/core/include/C2Param.h"
  },
  {
   "alignment" : 4,
   "is_const" : true,
   "linker_set_key" : "_ZTIKN7C2Param9CoreIndexE",
   "name" : "const C2Param::CoreIndex",
   "referenced_type" : "_ZTIN7C2Param9CoreIndexE",
   "self_type" : "_ZTIKN7C2Param9CoreIndexE",
   "size" : 4,
   "source_file" : "/frameworks/av/media/codec2/core/include/C2Param.h"
  },
  {
   "alignment" : 4,
   "is_const" : true,
   "linker_set_key" : "_ZTIKN7C2Value9PrimitiveE",
   "name" : "const C2Value::Primitive",
   "referenced_type" : "_ZTIN7C2Value9PrimitiveE",
   "self_type" : "_ZTIKN7C2Value9PrimitiveE",
   "size" : 8,
   "source_file" : "/frameworks/av/media/codec2/core/include/C2Param.h"
  },
  {
   "alignment" : 4,
   "is_const" : true,
   "linker_set_key" : "_ZTIKNSt3__112basic_stringIcNS_11char_traitsIcEENS_9allocatorIcEEEE",
   "name" : "const std::basic_string<char, std::char_traits<char>, std::allocator<char> >",
   "referenced_type" : "_ZTINSt3__112basic_stringIcNS_11char_traitsIcEENS_9allocatorIcEEEE",
   "self_type" : "_ZTIKNSt3__112basic_stringIcNS_11char_traitsIcEENS_9allocatorIcEEEE",
   "size" : 12,
   "source_file" : "/frameworks/av/media/codec2/core/include/C2Param.h"
  },
  {
   "alignment" : 4,
   "is_const" : true,
   "linker_set_key" : "_ZTIKNSt3__16vectorI17C2FieldDescriptorNS_9allocatorIS1_EEEE",
   "name" : "const std::vector<C2FieldDescriptor, std::allocator<C2FieldDescriptor> >",
   "referenced_type" : "_ZTINSt3__16vectorI17C2FieldDescriptorNS_9allocatorIS1_EEEE",
   "self_type" : "_ZTIKNSt3__16vectorI17C2FieldDescriptorNS_9allocatorIS1_EEEE",
   "size" : 12,
   "source_file" : "/frameworks/av/media/codec2/core/include/C2Param.h"
  },
  {
   "alignment" : 4,
   "is_const" : true,
   "linker_set_key" : "_ZTIKNSt3__16vectorIN7C2Param5IndexENS_9allocatorIS2_EEEE",
   "name" : "const std::vector<C2Param::Index, std::allocator<C2Param::Index> >",
   "referenced_type" : "_ZTINSt3__16vectorIN7C2Param5IndexENS_9allocatorIS2_EEEE",
   "self_type" : "_ZTIKNSt3__16vectorIN7C2Param5IndexENS_9allocatorIS2_EEEE",
   "size" : 12,
   "source_file" : "/frameworks/av/media/codec2/core/include/C2Param.h"
  },
  {
   "alignment" : 4,
   "is_const" : true,
   "linker_set_key" : "_ZTIKNSt3__16vectorINS_4pairINS_12basic_stringIcNS_11char_traitsIcEENS_9allocatorIcEEEEN7C2Value9PrimitiveEEENS5_ISA_EEEE",
   "name" : "const std::vector<std::pair<std::basic_string<char, std::char_traits<char>, std::allocator<char> >, C2Value::Primitive>, std::allocator<std::pair<std::basic_string<char, std::char_traits<char>, std::allocator<char> >, C2Value::Primitive> > >",
   "referenced_type" : "_ZTINSt3__16vectorINS_4pairINS_12basic_stringIcNS_11char_traitsIcEENS_9allocatorIcEEEEN7C2Value9PrimitiveEEENS5_ISA_EEEE",
   "self_type" : "_ZTIKNSt3__16vectorINS_4pairINS_12basic_stringIcNS_11char_traitsIcEENS_9allocatorIcEEEEN7C2Value9PrimitiveEEENS5_ISA_EEEE",
   "size" : 12,
   "source_file" : "/frameworks/av/media/codec2/core/include/C2Param.h"
  },
  {
   "alignment" : 1,
   "is_const" : true,
   "linker_set_key" : "_ZTIKb",
   "name" : "const bool",
   "referenced_type" : "_ZTIb",
   "self_type" : "_ZTIKb",
   "size" : 1,
   "source_file" : "/frameworks/av/media/codec2/core/include/C2Enum.h"
  },
  {
   "alignment" : 1,
   "is_const" : true,
   "linker_set_key" : "_ZTIKc",
   "name" : "const char",
   "referenced_type" : "_ZTIc",
   "self_type" : "_ZTIKc",
   "size" : 1,
   "source_file" : "/frameworks/av/media/codec2/core/include/C2Param.h"
  },
  {
   "alignment" : 4,
   "is_const" : true,
   "linker_set_key" : "_ZTIKf",
   "name" : "const float",
   "referenced_type" : "_ZTIf",
   "self_type" : "_ZTIKf",
   "size" : 4,
   "source_file" : "/frameworks/av/media/codec2/core/include/C2Param.h"
  },
  {
   "alignment" : 1,
   "is_const" : true,
   "linker_set_key" : "_ZTIKh",
   "name" : "const unsigned char",
   "referenced_type" : "_ZTIh",
   "self_type" : "_ZTIKh",
   "size" : 1,
   "source_file" : "/frameworks/av/media/codec2/core/include/C2Param.h"
  },
  {
   "alignment" : 4,
   "is_const" : true,
   "linker_set_key" : "_ZTIKi",
   "name" : "const int",
   "referenced_type" : "_ZTIi",
   "self_type" : "_ZTIKi",
   "size" : 4,
   "source_file" : "/frameworks/av/media/codec2/core/include/C2Param.h"
  },
  {
   "alignment" : 4,
   "is_const" : true,
   "linker_set_key" : "_ZTIKj",
   "name" : "const unsigned int",
   "referenced_type" : "_ZTIj",
   "self_type" : "_ZTIKj",
   "size" : 4,
   "source_file" : "/frameworks/av/media/codec2/core/include/C2.h"
  },
  {
   "alignment" : 4,
   "is_const" : true,
   "linker_set_key" : "_ZTIKx",
   "name" : "const long long",
   "referenced_type" : "_ZTIx",
   "self_type" : "_ZTIKx",
   "size" : 8,
   "source_file" : "/frameworks/av/media/codec2/core/include/C2Param.h"
  },
  {
   "alignment" : 4,
   "is_const" : true,
   "linker_set_key" : "_ZTIKy",
   "name" : "const unsigned long long",
   "referenced_type" : "_ZTIy",
   "self_type" : "_ZTIKy",
   "size" : 8,
   "source_file" : "/frameworks/av/media/codec2/core/include/C2.h"
  }
 ],
 "record_types" :
 [
  {
   "alignment" : 4,
   "base_specifiers" :
   [
    {
     "referenced_type" : "_ZTI23_C2LinearCapacityAspect"
    }
   ],
   "fields" :
   [
    {
     "access" : "private",
     "field_name" : "mImpl",
     "field_offset" : 32,
     "referenced_type" : "_ZTINSt3__110shared_ptrIN10C2ReadView4ImplEEE"
    },
    {
     "access" : "private",
     "field_name" : "mOffset",
     "field_offset" : 96,
     "referenced_type" : "_ZTIj"
    }
   ],
   "linker_set_key" : "_ZTI10C2ReadView",
   "name" : "C2ReadView",
   "record_kind" : "class",
   "referenced_type" : "_ZTI10C2ReadView",
   "self_type" : "_ZTI10C2ReadView",
   "size" : 16,
   "source_file" : "/frameworks/av/media/codec2/core/include/C2Buffer.h"
  },
  {
   "alignment" : 4,
   "fields" :
   [
    {
     "access" : "private",
     "field_name" : "_mOffset",
     "referenced_type" : "_ZTIj"
    },
    {
     "access" : "private",
     "field_name" : "_mSize",
     "field_offset" : 32,
     "referenced_type" : "_ZTIj"
    }
   ],
   "linker_set_key" : "_ZTI10_C2FieldId",
   "name" : "_C2FieldId",
   "referenced_type" : "_ZTI10_C2FieldId",
   "self_type" : "_ZTI10_C2FieldId",
   "size" : 8,
   "source_file" : "/frameworks/av/media/codec2/core/include/C2Param.h"
  },
  {
   "alignment" : 4,
   "linker_set_key" : "_ZTI11C2Allocator",
   "name" : "C2Allocator",
   "record_kind" : "class",
   "referenced_type" : "_ZTI11C2Allocator",
   "self_type" : "_ZTI11C2Allocator",
   "size" : 4,
   "source_file" : "/frameworks/av/media/codec2/core/include/C2Buffer.h",
   "vtable_components" :
   [
    {
     "kind" : "offset_to_top"
    },
    {
     "kind" : "rtti",
     "mangled_component_name" : "_ZTI11C2Allocator"
    },
    {
     "is_pure" : true,
     "mangled_component_name" : "_ZNK11C2Allocator7getNameEv"
    },
    {
     "is_pure" : true,
     "mangled_component_name" : "_ZNK11C2Allocator5getIdEv"
    },
    {
     "is_pure" : true,
     "mangled_component_name" : "_ZNK11C2Allocator9getTraitsEv"
    },
    {
     "mangled_component_name" : "_ZN11C2Allocator19newLinearAllocationEj13C2MemoryUsagePNSt3__110shared_ptrI18C2LinearAllocationEE"
    },
    {
     "mangled_component_name" : "_ZN11C2Allocator21priorLinearAllocationEPK13native_handlePNSt3__110shared_ptrI18C2LinearAllocationEE"
    },
    {
     "mangled_component_name" : "_ZN11C2Allocator20newGraphicAllocationEjjj13C2MemoryUsagePNSt3__110shared_ptrI19C2GraphicAllocationEE"
    },
    {
     "mangled_component_name" : "_ZN11C2Allocator22priorGraphicAllocationEPK13native_handlePNSt3__110shared_ptrI19C2GraphicAllocationEE"
    },
    {
     "kind" : "complete_dtor_pointer",
     "mangled_component_name" : "_ZN11C2AllocatorD1Ev"
    },
    {
     "kind" : "deleting_dtor_pointer",
     "mangled_component_name" : "_ZN11C2AllocatorD0Ev"
    }
   ]
  },
  {
   "alignment" : 4,
   "linker_set_key" : "_ZTI11C2BlockPool",
   "name" : "C2BlockPool",
   "record_kind" : "class",
   "referenced_type" : "_ZTI11C2BlockPool",
   "self_type" : "_ZTI11C2BlockPool",
   "size" : 4,
   "source_file" : "/frameworks/av/media/codec2/core/include/C2Buffer.h",
   "vtable_components" :
   [
    {
     "kind" : "offset_to_top"
    },
    {
     "kind" : "rtti",
     "mangled_component_name" : "_ZTI11C2BlockPool"
    },
    {
     "is_pure" : true,
     "mangled_component_name" : "_ZNK11C2BlockPool10getLocalIdEv"
    },
    {
     "is_pure" : true,
     "mangled_component_name" : "_ZNK11C2BlockPool14getAllocatorIdEv"
    },
    {
     "mangled_component_name" : "_ZN11C2BlockPool16fetchLinearBlockEj13C2MemoryUsagePNSt3__110shared_ptrI13C2LinearBlockEE"
    },
    {
     "mangled_component_name" : "_ZN11C2BlockPool18fetchCircularBlockEj13C2MemoryUsagePNSt3__110shared_ptrI15C2CircularBlockEE"
    },
    {
     "mangled_component_name" : "_ZN11C2BlockPool17fetchGraphicBlockEjjj13C2MemoryUsagePNSt3__110shared_ptrI14C2GraphicBlockEE"
    },
    {
     "kind" : "complete_dtor_pointer",
     "mangled_component_name" : "_ZN11C2BlockPoolD1Ev"
    },
    {
     "kind" : "deleting_dtor_pointer",
     "mangled_component_name" : "_ZN11C2BlockPoolD0Ev"
    }
   ]
  },
  {
   "alignment" : 4,
   "linker_set_key" : "_ZTI11C2Component",
   "name" : "C2Component",
   "record_kind" : "class",
   "referenced_type" : "_ZTI11C2Component",
   "self_type" : "_ZTI11C2Component",
   "size" : 4,
   "source_file" : "/frameworks/av/media/codec2/core/include/C2Component.h",
   "vtable_components" :
   [
    {
     "kind" : "offset_to_top"
    },
    {
     "kind" : "rtti",
     "mangled_component_name" : "_ZTI11C2Component"
    },
    {
     "is_pure" : true,
     "mangled_component_name" : "_ZN11C2Component14setListener_vbERKNSt3__110shared_ptrINS_8ListenerEEE13c2_blocking_t"
    },
    {
     "is_pure" : true,
     "mangled_component_name" : "_ZN11C2Component8queue_nbEPNSt3__14listINS0_10unique_ptrI6C2WorkNS0_14default_deleteIS3_EEEENS0_9allocatorIS6_EEEE"
    },
    {
     "is_pure" : true,
     "mangled_component_name" : "_ZN11C2Component11announce_nbERKNSt3__16vectorI13C2WorkOutlineNS0_9allocatorIS2_EEEE"
    },
    {
     "is_pure" : true,
     "mangled_component_name" : "_ZN11C2Component8flush_smENS_12flush_mode_tEPNSt3__14listINS1_10unique_ptrI6C2WorkNS1_14default_deleteIS4_EEEENS1_9allocatorIS7_EEEE"
    },
    {
     "is_pure" : true,
     "mangled_component_name" : "_ZN11C2Component8drain_nbENS_12drain_mode_tE"
    },
    {
     "is_pure" : true,
     "mangled_component_name" : "_ZN11C2Component5startEv"
    },
    {
     "is_pure" : true,
     "mangled_component_name" : "_ZN11C2Component4stopEv"
    },
    {
     "is_pure" : true,
     "mangled_component_name" : "_ZN11C2Component5resetEv"
    },
    {
     "is_pure" : true,
     "mangled_component_name" : "_ZN11C2Component7releaseEv"
    },
    {
     "is_pure" : true,
     "mangled_component_name" : "_ZN11C2Component4intfEv"
    },
    {
     "kind" : "complete_dtor_pointer",
     "mangled_component_name" : "_ZN11C2ComponentD1Ev"
    },
    {
     "kind" : "deleting_dtor_pointer",
     "mangled_component_name" : "_ZN11C2ComponentD0Ev"
    }
   ]
  },
  {
   "alignment" : 4,
   "fields" :
   [
    {
     "field_name" : "flags",
     "referenced_type" : "_ZTIN11C2FrameData7flags_tE"
    },
    {
     "field_name" : "ordinal",
     "field_offset" : 32,
     "referenced_type" : "_ZTI19C2WorkOrdinalStruct"
    },
    {
     "field_name" : "buffers",
     "field_offset" : 224,
     "referenced_type" : "_ZTINSt3__16vectorINS_10shared_ptrI8C2BufferEENS_9allocatorIS3_EEEE"
    },
    {
     "field_name" : "configUpdate",
     "field_offset" : 320,
     "referenced_type" : "_ZTINSt3__16vectorINS_10unique_ptrI7C2ParamNS_14default_deleteIS2_EEEENS_9allocatorIS5_EEEE"
    },
    {
     "field_name" : "infoBuffers",
     "field_offset" : 416,
     "referenced_type" : "_ZTINSt3__16vectorINS_10shared_ptrI12C2InfoBufferEENS_9allocatorIS3_EEEE"
    }
   ],
   "linker_set_key" : "_ZTI11C2FrameData",
   "name" : "C2FrameData",
   "referenced_type" : "_ZTI11C2FrameData",
   "self_type" : "_ZTI11C2FrameData",
   "size" : 64,
   "source_file" : "/frameworks/av/media/codec2/core/include/C2Work.h"
  },
  {
   "alignment" : 4,
   "fields" :
   [
    {
     "field_name" : "channel",
     "referenced_type" : "_ZTIN11C2PlaneInfo9channel_tE"
    },
    {
     "field_name" : "colInc",
     "field_offset" : 32,
     "referenced_type" : "_ZTIi"
    },
    {
     "field_name" : "rowInc",
     "field_offset" : 64,
     "referenced_type" : "_ZTIi"
    },
    {
     "field_name" : "colSampling",
     "field_offset" : 96,
     "referenced_type" : "_ZTIj"
    },
    {
     "field_name" : "rowSampling",
     "field_offset" : 128,
     "referenced_type" : "_ZTIj"
    },
    {
     "field_name" : "allocatedDepth",
     "field_offset" : 160,
     "referenced_type" : "_ZTIj"
    },
    {
     "field_name" : "bitDepth",
     "field_offset" : 192,
     "referenced_type" : "_ZTIj"
    },
    {
     "field_name" : "rightShift",
     "field_offset" : 224,
     "referenced_type" : "_ZTIj"
    },
    {
     "field_name" : "endianness",
     "field_offset" : 256,
     "referenced_type" : "_ZTIN11C2PlaneInfo12endianness_tE"
    },
    {
     "field_name" : "rootIx",
     "field_offset" : 288,
     "referenced_type" : "_ZTIj"
    },
    {
     "field_name" : "offset",
     "field_offset" : 320,
     "referenced_type" : "_ZTIj"
    }
   ],
   "linker_set_key" : "_ZTI11C2PlaneInfo",
   "name" : "C2PlaneInfo",
   "referenced_type" : "_ZTI11C2PlaneInfo",
   "self_type" : "_ZTI11C2PlaneInfo",
   "size" : 44,
   "source_file" : "/frameworks/av/media/codec2/core/include/C2Buffer.h"
  },
  {
   "alignment" : 4,
   "base_specifiers" :
   [
    {
     "referenced_type" : "_ZTI28_C2EditableLinearRangeAspect"
    }
   ],
   "fields" :
   [
    {
     "access" : "private",
     "field_name" : "mImpl",
     "field_offset" : 96,
     "referenced_type" : "_ZTINSt3__110shared_ptrIN11C2WriteView4ImplEEE"
    }
   ],
   "linker_set_key" : "_ZTI11C2WriteView",
   "name" : "C2WriteView",
   "record_kind" : "class",
   "referenced_type" : "_ZTI11C2WriteView",
   "self_type" : "_ZTI11C2WriteView",
   "size" : 20,
   "source_file" : "/frameworks/av/media/codec2/core/include/C2Buffer.h"
  },
  {
   "alignment" : 4,
   "fields" :
   [
    {
     "field_name" : "tag",
     "referenced_type" : "_ZTIj"
    },
    {
     "field_name" : "version",
     "field_offset" : 32,
     "referenced_type" : "_ZTIj"
    },
    {
     "field_name" : "module",
     "field_offset" : 64,
     "referenced_type" : "_ZTIP11hw_module_t"
    },
    {
     "field_name" : "reserved",
     "field_offset" : 96,
     "referenced_type" : "_ZTIA12_j"
    },
    {
     "field_name" : "close",
     "field_offset" : 480,
     "referenced_type" : "_ZTIPFiP11hw_device_tE"
    }
   ],
   "linker_set_key" : "_ZTI11hw_device_t",
   "name" : "hw_device_t",
   "referenced_type" : "_ZTI11hw_device_t",
   "self_type" : "_ZTI11hw_device_t",
   "size" : 64,
   "source_file" : "/hardware/libhardware/include/hardware/hardware.h"
  },
  {
   "alignment" : 4,
   "fields" :
   [
    {
     "field_name" : "tag",
     "referenced_type" : "_ZTIj"
    },
    {
     "field_name" : "module_api_version",
     "field_offset" : 32,
     "referenced_type" : "_ZTIt"
    },
    {
     "field_name" : "hal_api_version",
     "field_offset" : 48,
     "referenced_type" : "_ZTIt"
    },
    {
     "field_name" : "id",
     "field_offset" : 64,
     "referenced_type" : "_ZTIPKc"
    },
    {
     "field_name" : "name",
     "field_offset" : 96,
     "referenced_type" : "_ZTIPKc"
    },
    {
     "field_name" : "author",
     "field_offset" : 128,
     "referenced_type" : "_ZTIPKc"
    },
    {
     "field_name" : "methods",
     "field_offset" : 160,
     "referenced_type" : "_ZTIP19hw_module_methods_t"
    },
    {
     "field_name" : "dso",
     "field_offset" : 192,
     "referenced_type" : "_ZTIPv"
    },
    {
     "field_name" : "reserved",
     "field_offset" : 224,
     "referenced_type" : "_ZTIA25_j"
    }
   ],
   "linker_set_key" : "_ZTI11hw_module_t",
   "name" : "hw_module_t",
   "referenced_type" : "_ZTI11hw_module_t",
   "self_type" : "_ZTI11hw_module_t",
   "size" : 128,
   "source_file" : "/hardware/libhardware/include/hardware/hardware.h"
  },
  {
   "alignment" : 4,
   "fields" :
   [
    {
     "access" : "private",
     "field_name" : "mImpl",
     "referenced_type" : "_ZTINSt3__110shared_ptrIN12C2BufferData4ImplEEE"
    }
   ],
   "linker_set_key" : "_ZTI12C2BufferData",
   "name" : "C2BufferData",
   "record_kind" : "class",
   "referenced_type" : "_ZTI12C2BufferData",
   "self_type" : "_ZTI12C2BufferData",
   "size" : 8,
   "source_file" : "/frameworks/av/media/codec2/core/include/C2Buffer.h"
  },
  {
   "alignment" : 1,
   "linker_set_key" : "_ZTI12C2InfoBuffer",
   "name" : "C2InfoBuffer",
   "record_kind" : "class",
   "referenced_type" : "_ZTI12C2InfoBuffer",
   "self_type" : "_ZTI12C2InfoBuffer",
   "size" : 1,
   "source_file" : "/frameworks/av/media/codec2/core/include/C2Buffer.h"
  },
  {
   "alignment" : 4,
   "fields" :
   [
    {
     "access" : "private",
     "field_name" : "_mIndex",
     "referenced_type" : "_ZTIN7C2Param5IndexE"
    },
    {
     "access" : "private",
     "field_name" : "_mFieldId",
     "field_offset" : 32,
     "referenced_type" : "_ZTI10_C2FieldId"
    }
   ],
   "linker_set_key" : "_ZTI12C2ParamField",
   "name" : "C2ParamField",
   "referenced_type" : "_ZTI12C2ParamField",
   "self_type" : "_ZTI12C2ParamField",
   "size" : 12,
   "source_file" : "/frameworks/av/media/codec2/core/include/C2Param.h"
  },
  {
   "alignment" : 4,
   "base_specifiers" :
   [
    {
     "referenced_type" : "_ZTI6C2Rect"
    }
   ],
   "linker_set_key" : "_ZTI12C2RectStruct",
   "name" : "C2RectStruct",
   "referenced_type" : "_ZTI12C2RectStruct",
   "self_type" : "_ZTI12C2RectStruct",
   "size" : 16,
   "source_file" : "/frameworks/av/media/codec2/core/include/C2Config.h"
  },
  {
   "alignment" : 1,
   "linker_set_key" : "_ZTI12_C2EnumUtils",
   "name" : "_C2EnumUtils",
   "record_kind" : "class",
   "referenced_type" : "_ZTI12_C2EnumUtils",
   "self_type" : "_ZTI12_C2EnumUtils",
   "size" : 1,
   "source_file" : "/frameworks/av/media/codec2/core/include/C2Enum.h"
  },
  {
   "alignment" : 4,
   "base_specifiers" :
   [
    {
     "referenced_type" : "_ZTI30_C2EditablePlanarSectionAspect"
    }
   ],
   "fields" :
   [
    {
     "access" : "private",
     "field_name" : "mImpl",
     "field_offset" : 192,
     "referenced_type" : "_ZTINSt3__110shared_ptrIN13C2GraphicView4ImplEEE"
    }
   ],
   "linker_set_key" : "_ZTI13C2GraphicView",
   "name" : "C2GraphicView",
   "record_kind" : "class",
   "referenced_type" : "_ZTI13C2GraphicView",
   "self_type" : "_ZTI13C2GraphicView",
   "size" : 32,
   "source_file" : "/frameworks/av/media/codec2/core/include/C2Buffer.h"
  },
  {
   "alignment" : 4,
   "base_specifiers" :
   [
    {
     "referenced_type" : "_ZTI9C2Block1D"
    }
   ],
   "linker_set_key" : "_ZTI13C2LinearBlock",
   "name" : "C2LinearBlock",
   "record_kind" : "class",
   "referenced_type" : "_ZTI13C2LinearBlock",
   "self_type" : "_ZTI13C2LinearBlock",
   "size" : 20,
   "source_file" : "/frameworks/av/media/codec2/core/include/C2Buffer.h"
  },
  {
   "alignment" : 4,
   "base_specifiers" :
   [
    {
     "referenced_type" : "_ZTI20_C2LinearRangeAspect"
    }
   ],
   "linker_set_key" : "_ZTI13C2LinearRange",
   "name" : "C2LinearRange",
   "record_kind" : "class",
   "referenced_type" : "_ZTI13C2LinearRange",
   "self_type" : "_ZTI13C2LinearRange",
   "size" : 12,
   "source_file" : "/frameworks/av/media/codec2/core/include/C2Buffer.h"
  },
  {
   "alignment" : 4,
   "fields" :
   [
    {
     "field_name" : "expected",
     "referenced_type" : "_ZTIy"
    }
   ],
   "linker_set_key" : "_ZTI13C2MemoryUsage",
   "name" : "C2MemoryUsage",
   "referenced_type" : "_ZTI13C2MemoryUsage",
   "self_type" : "_ZTI13C2MemoryUsage",
   "size" : 8,
   "source_file" : "/frameworks/av/media/codec2/core/include/C2BufferBase.h"
  },
  {
   "alignment" : 4,
   "fields" :
   [
    {
     "field_name" : "ordinal",
     "referenced_type" : "_ZTI19C2WorkOrdinalStruct"
    },
    {
     "field_name" : "chain",
     "field_offset" : 192,
     "referenced_type" : "_ZTINSt3__16vectorIjNS_9allocatorIjEEEE"
    }
   ],
   "linker_set_key" : "_ZTI13C2WorkOutline",
   "name" : "C2WorkOutline",
   "referenced_type" : "_ZTI13C2WorkOutline",
   "self_type" : "_ZTI13C2WorkOutline",
   "size" : 36,
   "source_file" : "/frameworks/av/media/codec2/core/include/C2Work.h"
  },
  {
   "alignment" : 1,
   "linker_set_key" : "_ZTI13_C2FlexHelperI20C2ChromaOffsetStructvE",
   "name" : "_C2FlexHelper<C2ChromaOffsetStruct, void>",
   "referenced_type" : "_ZTI13_C2FlexHelperI20C2ChromaOffsetStructvE",
   "self_type" : "_ZTI13_C2FlexHelperI20C2ChromaOffsetStructvE",
   "size" : 1,
   "source_file" : "/frameworks/av/media/codec2/core/include/C2ParamDef.h",
   "template_args" : [ "_ZTI20C2ChromaOffsetStruct", "_ZTIv" ]
  },
  {
   "alignment" : 1,
   "linker_set_key" : "_ZTI13_C2FlexHelperIA_20C2ChromaOffsetStructvE",
   "name" : "_C2FlexHelper<C2ChromaOffsetStruct [], void>",
   "referenced_type" : "_ZTI13_C2FlexHelperIA_20C2ChromaOffsetStructvE",
   "self_type" : "_ZTI13_C2FlexHelperIA_20C2ChromaOffsetStructvE",
   "size" : 1,
   "source_file" : "/frameworks/av/media/codec2/core/include/C2ParamDef.h",
   "template_args" : [ "_ZTIA_20C2ChromaOffsetStruct", "_ZTIv" ]
  },
  {
   "alignment" : 1,
   "linker_set_key" : "_ZTI13_C2FlexHelperIA_fvE",
   "name" : "_C2FlexHelper<float [], void>",
   "referenced_type" : "_ZTI13_C2FlexHelperIA_fvE",
   "self_type" : "_ZTI13_C2FlexHelperIA_fvE",
   "size" : 1,
   "source_file" : "/frameworks/av/media/codec2/core/include/C2ParamDef.h",
   "template_args" : [ "_ZTIA_f", "_ZTIv" ]
  },
  {
   "alignment" : 1,
   "linker_set_key" : "_ZTI13_C2FlexHelperIA_hvE",
   "name" : "_C2FlexHelper<unsigned char [], void>",
   "referenced_type" : "_ZTI13_C2FlexHelperIA_hvE",
   "self_type" : "_ZTI13_C2FlexHelperIA_hvE",
   "size" : 1,
   "source_file" : "/frameworks/av/media/codec2/core/include/C2ParamDef.h",
   "template_args" : [ "_ZTIA_h", "_ZTIv" ]
  },
  {
   "alignment" : 1,
   "linker_set_key" : "_ZTI13_C2FlexHelperIfvE",
   "name" : "_C2FlexHelper<float, void>",
   "referenced_type" : "_ZTI13_C2FlexHelperIfvE",
   "self_type" : "_ZTI13_C2FlexHelperIfvE",
   "size" : 1,
   "source_file" : "/frameworks/av/media/codec2/core/include/C2ParamDef.h",
   "template_args" : [ "_ZTIf", "_ZTIv" ]
  },
  {
   "alignment" : 1,
   "linker_set_key" : "_ZTI13_C2FlexHelperIhvE",
   "name" : "_C2FlexHelper<unsigned char, void>",
   "referenced_type" : "_ZTI13_C2FlexHelperIhvE",
   "self_type" : "_ZTI13_C2FlexHelperIhvE",
   "size" : 1,
   "source_file" : "/frameworks/av/media/codec2/core/include/C2ParamDef.h",
   "template_args" : [ "_ZTIh", "_ZTIv" ]
  },
  {
   "alignment" : 4,
   "fields" :
   [
    {
     "field_name" : "y",
     "referenced_type" : "_ZTIPv"
    },
    {
     "field_name" : "cb",
     "field_offset" : 32,
     "referenced_type" : "_ZTIPv"
    },
    {
     "field_name" : "cr",
     "field_offset" : 64,
     "referenced_type" : "_ZTIPv"
    },
    {
     "field_name" : "ystride",
     "field_offset" : 96,
     "referenced_type" : "_ZTIj"
    },
    {
     "field_name" : "cstride",
     "field_offset" : 128,
     "referenced_type" : "_ZTIj"
    },
    {
     "field_name" : "chroma_step",
     "field_offset" : 160,
     "referenced_type" : "_ZTIj"
    },
    {
     "field_name" : "reserved",
     "field_offset" : 192,
     "referenced_type" : "_ZTIA8_j"
    }
   ],
   "linker_set_key" : "_ZTI13android_ycbcr",
   "name" : "android_ycbcr",
   "referenced_type" : "_ZTI13android_ycbcr",
   "self_type" : "_ZTI13android_ycbcr",
   "size" : 56,
   "source_file" : "/system/core/libsystem/include/system/graphics.h"
  },
  {
   "alignment" : 4,
   "fields" :
   [
    {
     "field_name" : "version",
     "referenced_type" : "_ZTIi"
    },
    {
     "field_name" : "numFds",
     "field_offset" : 32,
     "referenced_type" : "_ZTIi"
    },
    {
     "field_name" : "numInts",
     "field_offset" : 64,
     "referenced_type" : "_ZTIi"
    },
    {
     "field_name" : "data",
     "field_offset" : 96,
     "referenced_type" : "_ZTIA0_i"
    }
   ],
   "linker_set_key" : "_ZTI13native_handle",
   "name" : "native_handle",
   "referenced_type" : "_ZTI13native_handle",
   "self_type" : "_ZTI13native_handle",
   "size" : 12,
   "source_file" : "/system/core/libcutils/include/cutils/native_handle.h"
  },
  {
   "alignment" : 4,
   "base_specifiers" :
   [
    {
     "referenced_type" : "_ZTI9C2Block2D"
    }
   ],
   "linker_set_key" : "_ZTI14C2GraphicBlock",
   "name" : "C2GraphicBlock",
   "record_kind" : "class",
   "referenced_type" : "_ZTI14C2GraphicBlock",
   "self_type" : "_ZTI14C2GraphicBlock",
   "size" : 32,
   "source_file" : "/frameworks/av/media/codec2/core/include/C2Buffer.h"
  },
  {
   "alignment" : 4,
   "fields" :
   [
    {
     "field_name" : "type",
     "referenced_type" : "_ZTIN14C2PlanarLayout6type_tE"
    },
    {
     "field_name" : "numPlanes",
     "field_offset" : 32,
     "referenced_type" : "_ZTIj"
    },
    {
     "field_name" : "rootPlanes",
     "field_offset" : 64,
     "referenced_type" : "_ZTIj"
    },
    {
     "field_name" : "planes",
     "field_offset" : 96,
     "referenced_type" : "_ZTIA4_11C2PlaneInfo"
    }
   ],
   "linker_set_key" : "_ZTI14C2PlanarLayout",
   "name" : "C2PlanarLayout",
   "referenced_type" : "_ZTI14C2PlanarLayout",
   "self_type" : "_ZTI14C2PlanarLayout",
   "size" : 188,
   "source_file" : "/frameworks/av/media/codec2/core/include/C2Buffer.h"
  },
  {
   "alignment" : 4,
   "fields" :
   [
    {
     "field_name" : "common",
     "referenced_type" : "_ZTI11hw_device_t"
    },
    {
     "field_name" : "alloc",
     "field_offset" : 512,
     "referenced_type" : "_ZTIPFiP14alloc_device_tiiiiPPK13native_handlePiE"
    },
    {
     "field_name" : "free",
     "field_offset" : 544,
     "referenced_type" : "_ZTIPFiP14alloc_device_tPK13native_handleE"
    },
    {
     "field_name" : "dump",
     "field_offset" : 576,
     "referenced_type" : "_ZTIPFvP14alloc_device_tPciE"
    },
    {
     "field_name" : "reserved_proc",
     "field_offset" : 608,
     "referenced_type" : "_ZTIA7_Pv"
    }
   ],
   "linker_set_key" : "_ZTI14alloc_device_t",
   "name" : "alloc_device_t",
   "referenced_type" : "_ZTI14alloc_device_t",
   "self_type" : "_ZTI14alloc_device_t",
   "size" : 104,
   "source_file" : "/hardware/libhardware/include/hardware/gralloc.h"
  },
  {
   "alignment" : 4,
   "base_specifiers" :
   [
    {
     "referenced_type" : "_ZTI9C2Block1D"
    }
   ],
   "fields" :
   [
    {
     "access" : "private",
     "field_name" : "mReserved",
     "field_offset" : 160,
     "referenced_type" : "_ZTIj"
    },
    {
     "access" : "private",
     "field_name" : "mCommitted",
     "field_offset" : 192,
     "referenced_type" : "_ZTIj"
    },
    {
     "access" : "private",
     "field_name" : "mUsed",
     "field_offset" : 224,
     "referenced_type" : "_ZTIj"
    },
    {
     "access" : "private",
     "field_name" : "mFree",
     "field_offset" : 256,
     "referenced_type" : "_ZTIj"
    }
   ],
   "linker_set_key" : "_ZTI15C2CircularBlock",
   "name" : "C2CircularBlock",
   "record_kind" : "class",
   "referenced_type" : "_ZTI15C2CircularBlock",
   "self_type" : "_ZTI15C2CircularBlock",
   "size" : 36,
   "source_file" : "/frameworks/av/media/codec2/core/include/C2Buffer.h"
  },
  {
   "alignment" : 4,
   "fields" :
   [
    {
     "field_name" : "x",
     "referenced_type" : "_ZTIf"
    },
    {
     "field_name" : "y",
     "field_offset" : 32,
     "referenced_type" : "_ZTIf"
    }
   ],
   "linker_set_key" : "_ZTI15C2ColorXyStruct",
   "name" : "C2ColorXyStruct",
   "referenced_type" : "_ZTI15C2ColorXyStruct",
   "self_type" : "_ZTI15C2ColorXyStruct",
   "size" : 8,
   "source_file" : "/frameworks/av/media/codec2/core/include/C2Config.h"
  },
  {
   "alignment" : 4,
   "base_specifiers" :
   [
    {
     "referenced_type" : "_ZTI22_C2PlanarSectionAspect"
    }
   ],
   "linker_set_key" : "_ZTI15C2PlanarSection",
   "name" : "C2PlanarSection",
   "record_kind" : "class",
   "referenced_type" : "_ZTI15C2PlanarSection",
   "self_type" : "_ZTI15C2PlanarSection",
   "size" : 24,
   "source_file" : "/frameworks/av/media/codec2/core/include/C2Buffer.h"
  },
  {
   "alignment" : 4,
   "fields" :
   [
    {
     "field_name" : "failure",
     "referenced_type" : "_ZTIN15C2SettingResult7FailureE"
    },
    {
     "field_name" : "field",
     "field_offset" : 32,
     "referenced_type" : "_ZTI18C2ParamFieldValues"
    },
    {
     "field_name" : "conflicts",
     "field_offset" : 160,
     "referenced_type" : "_ZTINSt3__16vectorI18C2ParamFieldValuesNS_9allocatorIS1_EEEE"
    }
   ],
   "linker_set_key" : "_ZTI15C2SettingResult",
   "name" : "C2SettingResult",
   "referenced_type" : "_ZTI15C2SettingResult",
   "self_type" : "_ZTI15C2SettingResult",
   "size" : 32,
   "source_file" : "/frameworks/av/media/codec2/core/include/C2Work.h"
  },
  {
   "alignment" : 4,
   "fields" :
   [
    {
     "access" : "protected",
     "field_name" : "mStatus",
     "referenced_type" : "_ZTI11c2_status_t"
    }
   ],
   "linker_set_key" : "_ZTI15_C2InnateStatus",
   "name" : "_C2InnateStatus",
   "referenced_type" : "_ZTI15_C2InnateStatus",
   "self_type" : "_ZTI15_C2InnateStatus",
   "size" : 4,
   "source_file" : "/frameworks/av/media/codec2/core/include/C2Buffer.h"
  },
  {
   "alignment" : 4,
   "linker_set_key" : "_ZTI16C2AllocatorStore",
   "name" : "C2AllocatorStore",
   "record_kind" : "class",
   "referenced_type" : "_ZTI16C2AllocatorStore",
   "self_type" : "_ZTI16C2AllocatorStore",
   "size" : 4,
   "source_file" : "/frameworks/av/media/codec2/core/include/C2Component.h",
   "vtable_components" :
   [
    {
     "kind" : "offset_to_top"
    },
    {
     "kind" : "rtti",
     "mangled_component_name" : "_ZTI16C2AllocatorStore"
    },
    {
     "is_pure" : true,
     "mangled_component_name" : "_ZNK16C2AllocatorStore7getNameEv"
    },
    {
     "is_pure" : true,
     "mangled_component_name" : "_ZNK16C2AllocatorStore17listAllocators_nbEv"
    },
    {
     "is_pure" : true,
     "mangled_component_name" : "_ZN16C2AllocatorStore14fetchAllocatorEjPNSt3__110shared_ptrI11C2AllocatorEE"
    },
    {
     "kind" : "complete_dtor_pointer",
     "mangled_component_name" : "_ZN16C2AllocatorStoreD1Ev"
    },
    {
     "kind" : "deleting_dtor_pointer",
     "mangled_component_name" : "_ZN16C2AllocatorStoreD0Ev"
    }
   ]
  },
  {
   "alignment" : 4,
   "base_specifiers" :
   [
    {
     "referenced_type" : "_ZTI23_C2CircularBlockSegment"
    }
   ],
   "linker_set_key" : "_ZTI16C2CircularWriter",
   "name" : "C2CircularWriter",
   "record_kind" : "class",
   "referenced_type" : "_ZTI16C2CircularWriter",
   "self_type" : "_ZTI16C2CircularWriter",
   "size" : 4,
   "source_file" : "/frameworks/av/media/codec2/core/include/C2Buffer.h"
  },
  {
   "alignment" : 4,
   "linker_set_key" : "_ZTI16C2ComponentStore",
   "name" : "C2ComponentStore",
   "record_kind" : "class",
   "referenced_type" : "_ZTI16C2ComponentStore",
   "self_type" : "_ZTI16C2ComponentStore",
   "size" : 4,
   "source_file" : "/frameworks/av/media/codec2/core/include/C2Component.h",
   "vtable_components" :
   [
    {
     "kind" : "offset_to_top"
    },
    {
     "kind" : "rtti",
     "mangled_component_name" : "_ZTI16C2ComponentStore"
    },
    {
     "is_pure" : true,
     "mangled_component_name" : "_ZNK16C2ComponentStore7getNameEv"
    },
    {
     "is_pure" : true,
     "mangled_component_name" : "_ZN16C2ComponentStore15createComponentENSt3__112basic_stringIcNS0_11char_traitsIcEENS0_9allocatorIcEEEEPNS0_10shared_ptrI11C2ComponentEE"
    },
    {
     "is_pure" : true,
     "mangled_component_name" : "_ZN16C2ComponentStore15createInterfaceENSt3__112basic_stringIcNS0_11char_traitsIcEENS0_9allocatorIcEEEEPNS0_10shared_ptrI20C2ComponentInterfaceEE"
    },
    {
     "is_pure" : true,
     "mangled_component_name" : "_ZN16C2ComponentStore14listComponentsEv"
    },
    {
     "is_pure" : true,
     "mangled_component_name" : "_ZN16C2ComponentStore10copyBufferENSt3__110shared_ptrI15C2GraphicBufferEES3_"
    },
    {
     "is_pure" : true,
     "mangled_component_name" : "_ZNK16C2ComponentStore8query_smERKNSt3__16vectorIP7C2ParamNS0_9allocatorIS3_EEEERKNS1_INS2_5IndexENS4_IS9_EEEEPNS1_INS0_10unique_ptrIS2_NS0_14default_deleteIS2_EEEENS4_ISH_EEEE"
    },
    {
     "is_pure" : true,
     "mangled_component_name" : "_ZN16C2ComponentStore9config_smERKNSt3__16vectorIP7C2ParamNS0_9allocatorIS3_EEEEPNS1_INS0_10unique_ptrI15C2SettingResultNS0_14default_deleteISA_EEEENS4_ISD_EEEE"
    },
    {
     "is_pure" : true,
     "mangled_component_name" : "_ZNK16C2ComponentStore17getParamReflectorEv"
    },
    {
     "is_pure" : true,
     "mangled_component_name" : "_ZNK16C2ComponentStore23querySupportedParams_nbEPNSt3__16vectorINS0_10shared_ptrI17C2ParamDescriptorEENS0_9allocatorIS4_EEEE"
    },
    {
     "is_pure" : true,
     "mangled_component_name" : "_ZNK16C2ComponentStore23querySupportedValues_smERNSt3__16vectorI27C2FieldSupportedValuesQueryNS0_9allocatorIS2_EEEE"
    },
    {
     "kind" : "complete_dtor_pointer",
     "mangled_component_name" : "_ZN16C2ComponentStoreD1Ev"
    },
    {
     "kind" : "deleting_dtor_pointer",
     "mangled_component_name" : "_ZN16C2ComponentStoreD0Ev"
    }
   ]
  },
  {
   "alignment" : 4,
   "fields" :
   [
    {
     "field_name" : "type_",
     "referenced_type" : "_ZTIN8C2Config14picture_type_tE"
    },
    {
     "field_name" : "count",
     "field_offset" : 32,
     "referenced_type" : "_ZTIj"
    }
   ],
   "linker_set_key" : "_ZTI16C2GopLayerStruct",
   "name" : "C2GopLayerStruct",
   "referenced_type" : "_ZTI16C2GopLayerStruct",
   "self_type" : "_ZTI16C2GopLayerStruct",
   "size" : 8,
   "source_file" : "/frameworks/av/media/codec2/core/include/C2Config.h"
  },
  {
   "alignment" : 4,
   "base_specifiers" :
   [
    {
     "referenced_type" : "_ZTI23_C2LinearCapacityAspect"
    }
   ],
   "linker_set_key" : "_ZTI16C2LinearCapacity",
   "name" : "C2LinearCapacity",
   "record_kind" : "class",
   "referenced_type" : "_ZTI16C2LinearCapacity",
   "self_type" : "_ZTI16C2LinearCapacity",
   "size" : 4,
   "source_file" : "/frameworks/av/media/codec2/core/include/C2Buffer.h"
  },
  {
   "alignment" : 4,
   "linker_set_key" : "_ZTI16C2ParamReflector",
   "name" : "C2ParamReflector",
   "record_kind" : "class",
   "referenced_type" : "_ZTI16C2ParamReflector",
   "self_type" : "_ZTI16C2ParamReflector",
   "size" : 4,
   "source_file" : "/frameworks/av/media/codec2/core/include/C2Param.h",
   "vtable_components" :
   [
    {
     "kind" : "offset_to_top"
    },
    {
     "kind" : "rtti",
     "mangled_component_name" : "_ZTI16C2ParamReflector"
    },
    {
     "is_pure" : true,
     "mangled_component_name" : "_ZNK16C2ParamReflector8describeEN7C2Param9CoreIndexE"
    },
    {
     "kind" : "complete_dtor_pointer",
     "mangled_component_name" : "_ZN16C2ParamReflectorD1Ev"
    },
    {
     "kind" : "deleting_dtor_pointer",
     "mangled_component_name" : "_ZN16C2ParamReflectorD0Ev"
    }
   ]
  },
  {
   "alignment" : 4,
   "base_specifiers" :
   [
    {
     "referenced_type" : "_ZTI23_C2PlanarCapacityAspect"
    }
   ],
   "linker_set_key" : "_ZTI16C2PlanarCapacity",
   "name" : "C2PlanarCapacity",
   "record_kind" : "class",
   "referenced_type" : "_ZTI16C2PlanarCapacity",
   "self_type" : "_ZTI16C2PlanarCapacity",
   "size" : 8,
   "source_file" : "/frameworks/av/media/codec2/core/include/C2Buffer.h"
  },
  {
   "alignment" : 4,
   "fields" :
   [
    {
     "field_name" : "flip",
     "referenced_type" : "_ZTIi"
    },
    {
     "field_name" : "value",
     "field_offset" : 32,
     "referenced_type" : "_ZTIi"
    }
   ],
   "linker_set_key" : "_ZTI16C2RotationStruct",
   "name" : "C2RotationStruct",
   "referenced_type" : "_ZTI16C2RotationStruct",
   "self_type" : "_ZTI16C2RotationStruct",
   "size" : 8,
   "source_file" : "/frameworks/av/media/codec2/core/include/C2Config.h"
  },
  {
   "alignment" : 1,
   "linker_set_key" : "_ZTI16_C2Flexible_impl",
   "name" : "_C2Flexible_impl",
   "referenced_type" : "_ZTI16_C2Flexible_impl",
   "self_type" : "_ZTI16_C2Flexible_impl",
   "size" : 1,
   "source_file" : "/frameworks/av/media/codec2/core/include/C2ParamDef.h"
  },
  {
   "alignment" : 4,
   "fields" :
   [
    {
     "field_name" : "x",
     "referenced_type" : "_ZTIf"
    },
    {
     "field_name" : "y",
     "field_offset" : 32,
     "referenced_type" : "_ZTIf"
    }
   ],
   "linker_set_key" : "_ZTI16android_xy_color",
   "name" : "android_xy_color",
   "referenced_type" : "_ZTI16android_xy_color",
   "self_type" : "_ZTI16android_xy_color",
   "size" : 8,
   "source_file" : "/system/core/libsystem/include/system/graphics.h"
  },
  {
   "alignment" : 4,
   "fields" :
   [
    {
     "field_name" : "common",
     "referenced_type" : "_ZTI11hw_module_t"
    },
    {
     "field_name" : "registerBuffer",
     "field_offset" : 1024,
     "referenced_type" : "_ZTIPFiPK16gralloc_module_tPK13native_handleE"
    },
    {
     "field_name" : "unregisterBuffer",
     "field_offset" : 1056,
     "referenced_type" : "_ZTIPFiPK16gralloc_module_tPK13native_handleE"
    },
    {
     "field_name" : "lock",
     "field_offset" : 1088,
     "referenced_type" : "_ZTIPFiPK16gralloc_module_tPK13native_handleiiiiiPPvE"
    },
    {
     "field_name" : "unlock",
     "field_offset" : 1120,
     "referenced_type" : "_ZTIPFiPK16gralloc_module_tPK13native_handleE"
    },
    {
     "field_name" : "perform",
     "field_offset" : 1152,
     "referenced_type" : "_ZTIPFiPK16gralloc_module_tizE"
    },
    {
     "field_name" : "lock_ycbcr",
     "field_offset" : 1184,
     "referenced_type" : "_ZTIPFiPK16gralloc_module_tPK13native_handleiiiiiP13android_ycbcrE"
    },
    {
     "field_name" : "lockAsync",
     "field_offset" : 1216,
     "referenced_type" : "_ZTIPFiPK16gralloc_module_tPK13native_handleiiiiiPPviE"
    },
    {
     "field_name" : "unlockAsync",
     "field_offset" : 1248,
     "referenced_type" : "_ZTIPFiPK16gralloc_module_tPK13native_handlePiE"
    },
    {
     "field_name" : "lockAsync_ycbcr",
     "field_offset" : 1280,
     "referenced_type" : "_ZTIPFiPK16gralloc_module_tPK13native_handleiiiiiP13android_ycbcriE"
    },
    {
     "field_name" : "getTransportSize",
     "field_offset" : 1312,
     "referenced_type" : "_ZTIPFiPK16gralloc_module_tPK13native_handlePjS5_E"
    },
    {
     "field_name" : "validateBufferSize",
     "field_offset" : 1344,
     "referenced_type" : "_ZTIPFiPK16gralloc_module_tPK13native_handlejjiijE"
    },
    {
     "field_name" : "reserved_proc",
     "field_offset" : 1376,
     "referenced_type" : "_ZTIA1_Pv"
    }
   ],
   "linker_set_key" : "_ZTI16gralloc_module_t",
   "name" : "gralloc_module_t",
   "referenced_type" : "_ZTI16gralloc_module_t",
   "self_type" : "_ZTI16gralloc_module_t",
   "size" : 176,
   "source_file" : "/hardware/libhardware/include/hardware/gralloc.h"
  },
  {
   "alignment" : 4,
   "fields" :
   [
    {
     "field_name" : "bitDepth",
     "referenced_type" : "_ZTIj"
    },
    {
     "field_name" : "subsampling",
     "field_offset" : 32,
     "referenced_type" : "_ZTIN7C2Color13subsampling_tE"
    },
    {
     "field_name" : "locations",
     "field_offset" : 64,
     "referenced_type" : "_ZTIA_20C2ChromaOffsetStruct"
    }
   ],
   "linker_set_key" : "_ZTI17C2ColorInfoStruct",
   "name" : "C2ColorInfoStruct",
   "referenced_type" : "_ZTI17C2ColorInfoStruct",
   "self_type" : "_ZTI17C2ColorInfoStruct",
   "size" : 8,
   "source_file" : "/frameworks/av/media/codec2/core/include/C2Config.h"
  },
  {
   "alignment" : 4,
   "fields" :
   [
    {
     "access" : "private",
     "field_name" : "_mType",
     "referenced_type" : "_ZTIN17C2FieldDescriptor6type_tE"
    },
    {
     "access" : "private",
     "field_name" : "_mExtent",
     "field_offset" : 32,
     "referenced_type" : "_ZTIj"
    },
    {
     "access" : "private",
     "field_name" : "_mName",
     "field_offset" : 64,
     "referenced_type" : "_ZTINSt3__112basic_stringIcNS_11char_traitsIcEENS_9allocatorIcEEEE"
    },
    {
     "access" : "private",
     "field_name" : "_mNamedValues",
     "field_offset" : 160,
     "referenced_type" : "_ZTINSt3__16vectorINS_4pairINS_12basic_stringIcNS_11char_traitsIcEENS_9allocatorIcEEEEN7C2Value9PrimitiveEEENS5_ISA_EEEE"
    },
    {
     "access" : "private",
     "field_name" : "_mFieldId",
     "field_offset" : 256,
     "referenced_type" : "_ZTI10_C2FieldId"
    }
   ],
   "linker_set_key" : "_ZTI17C2FieldDescriptor",
   "name" : "C2FieldDescriptor",
   "referenced_type" : "_ZTI17C2FieldDescriptor",
   "self_type" : "_ZTI17C2FieldDescriptor",
   "size" : 40,
   "source_file" : "/frameworks/av/media/codec2/core/include/C2Param.h"
  },
  {
   "alignment" : 4,
   "linker_set_key" : "_ZTI17C2FrameInfoParser",
   "name" : "C2FrameInfoParser",
   "record_kind" : "class",
   "referenced_type" : "_ZTI17C2FrameInfoParser",
   "self_type" : "_ZTI17C2FrameInfoParser",
   "size" : 4,
   "source_file" : "/frameworks/av/media/codec2/core/include/C2Component.h",
   "vtable_components" :
   [
    {
     "kind" : "offset_to_top"
    },
    {
     "kind" : "rtti",
     "mangled_component_name" : "_ZTI17C2FrameInfoParser"
    },
    {
     "is_pure" : true,
     "mangled_component_name" : "_ZNK17C2FrameInfoParser7getTypeEv"
    },
    {
     "is_pure" : true,
     "mangled_component_name" : "_ZNK17C2FrameInfoParser15getParsedParamsEv"
    },
    {
     "mangled_component_name" : "_ZN17C2FrameInfoParser5resetEv"
    },
    {
     "mangled_component_name" : "_ZN17C2FrameInfoParser10parseFrameER11C2FrameData"
    },
    {
     "kind" : "complete_dtor_pointer",
     "mangled_component_name" : "_ZN17C2FrameInfoParserD1Ev"
    },
    {
     "kind" : "deleting_dtor_pointer",
     "mangled_component_name" : "_ZN17C2FrameInfoParserD0Ev"
    }
   ]
  },
  {
   "alignment" : 4,
   "fields" :
   [
    {
     "access" : "private",
     "field_name" : "_mIndex",
     "referenced_type" : "_ZTIKN7C2Param5IndexE"
    },
    {
     "access" : "private",
     "field_name" : "_mAttrib",
     "field_offset" : 32,
     "referenced_type" : "_ZTIKj"
    },
    {
     "access" : "private",
     "field_name" : "_mName",
     "field_offset" : 64,
     "referenced_type" : "_ZTIKNSt3__112basic_stringIcNS_11char_traitsIcEENS_9allocatorIcEEEE"
    },
    {
     "access" : "private",
     "field_name" : "_mDependencies",
     "field_offset" : 160,
     "referenced_type" : "_ZTINSt3__16vectorIN7C2Param5IndexENS_9allocatorIS2_EEEE"
    }
   ],
   "linker_set_key" : "_ZTI17C2ParamDescriptor",
   "name" : "C2ParamDescriptor",
   "referenced_type" : "_ZTI17C2ParamDescriptor",
   "self_type" : "_ZTI17C2ParamDescriptor",
   "size" : 32,
   "source_file" : "/frameworks/av/media/codec2/core/include/C2Param.h"
  },
  {
   "alignment" : 4,
   "base_specifiers" :
   [
    {
     "referenced_type" : "_ZTI9C2Block1D"
    }
   ],
   "fields" :
   [
    {
     "access" : "private",
     "field_name" : "mFence",
     "field_offset" : 160,
     "referenced_type" : "_ZTI7C2Fence"
    }
   ],
   "linker_set_key" : "_ZTI18C2ConstLinearBlock",
   "name" : "C2ConstLinearBlock",
   "record_kind" : "class",
   "referenced_type" : "_ZTI18C2ConstLinearBlock",
   "self_type" : "_ZTI18C2ConstLinearBlock",
   "size" : 28,
   "source_file" : "/frameworks/av/media/codec2/core/include/C2Buffer.h"
  },
  {
   "alignment" : 4,
   "base_specifiers" :
   [
    {
     "referenced_type" : "_ZTI23_C2LinearCapacityAspect"
    }
   ],
   "linker_set_key" : "_ZTI18C2LinearAllocation",
   "name" : "C2LinearAllocation",
   "record_kind" : "class",
   "referenced_type" : "_ZTI18C2LinearAllocation",
   "self_type" : "_ZTI18C2LinearAllocation",
   "size" : 8,
   "source_file" : "/frameworks/av/media/codec2/core/include/C2Buffer.h",
   "vtable_components" :
   [
    {
     "kind" : "offset_to_top"
    },
    {
     "kind" : "rtti",
     "mangled_component_name" : "_ZTI18C2LinearAllocation"
    },
    {
     "is_pure" : true,
     "mangled_component_name" : "_ZN18C2LinearAllocation3mapEjj13C2MemoryUsageP7C2FencePPv"
    },
    {
     "is_pure" : true,
     "mangled_component_name" : "_ZN18C2LinearAllocation5unmapEPvjP7C2Fence"
    },
    {
     "is_pure" : true,
     "mangled_component_name" : "_ZNK18C2LinearAllocation14getAllocatorIdEv"
    },
    {
     "is_pure" : true,
     "mangled_component_name" : "_ZNK18C2LinearAllocation6handleEv"
    },
    {
     "is_pure" : true,
     "mangled_component_name" : "_ZNK18C2LinearAllocation6equalsERKNSt3__110shared_ptrIS_EE"
    },
    {
     "kind" : "complete_dtor_pointer",
     "mangled_component_name" : "_ZN18C2LinearAllocationD1Ev"
    },
    {
     "kind" : "deleting_dtor_pointer",
     "mangled_component_name" : "_ZN18C2LinearAllocationD0Ev"
    }
   ]
  },
  {
   "alignment" : 4,
   "fields" :
   [
    {
     "field_name" : "paramOrField",
     "referenced_type" : "_ZTI12C2ParamField"
    },
    {
     "field_name" : "values",
     "field_offset" : 96,
     "referenced_type" : "_ZTINSt3__110unique_ptrI22C2FieldSupportedValuesNS_14default_deleteIS1_EEEE"
    }
   ],
   "linker_set_key" : "_ZTI18C2ParamFieldValues",
   "name" : "C2ParamFieldValues",
   "referenced_type" : "_ZTI18C2ParamFieldValues",
   "self_type" : "_ZTI18C2ParamFieldValues",
   "size" : 16,
   "source_file" : "/frameworks/av/media/codec2/core/include/C2Param.h"
  },
  {
   "alignment" : 4,
   "fields" :
   [
    {
     "access" : "private",
     "field_name" : "_mType",
     "referenced_type" : "_ZTIKN7C2Param9CoreIndexE"
    },
    {
     "access" : "private",
     "field_name" : "_mFields",
     "field_offset" : 32,
     "referenced_type" : "_ZTIKNSt3__16vectorI17C2FieldDescriptorNS_9allocatorIS1_EEEE"
    }
   ],
   "linker_set_key" : "_ZTI18C2StructDescriptor",
   "name" : "C2StructDescriptor",
   "referenced_type" : "_ZTI18C2StructDescriptor",
   "self_type" : "_ZTI18C2StructDescriptor",
   "size" : 16,
   "source_file" : "/frameworks/av/media/codec2/core/include/C2Param.h"
  },
  {
   "alignment" : 4,
   "fields" :
   [
    {
     "field_name" : "tile",
     "referenced_type" : "_ZTI19C2PictureSizeStruct"
    },
    {
     "field_name" : "columnCount",
     "field_offset" : 64,
     "referenced_type" : "_ZTIj"
    },
    {
     "field_name" : "rowCount",
     "field_offset" : 96,
     "referenced_type" : "_ZTIj"
    },
    {
     "field_name" : "order",
     "field_offset" : 128,
     "referenced_type" : "_ZTIN8C2Config12scan_order_tE"
    }
   ],
   "linker_set_key" : "_ZTI18C2TileLayoutStruct",
   "name" : "C2TileLayoutStruct",
   "referenced_type" : "_ZTI18C2TileLayoutStruct",
   "self_type" : "_ZTI18C2TileLayoutStruct",
   "size" : 20,
   "source_file" : "/frameworks/av/media/codec2/core/include/C2Config.h"
  },
  {
   "alignment" : 1,
   "linker_set_key" : "_ZTI18_C2Comparable_impl",
   "name" : "_C2Comparable_impl",
   "referenced_type" : "_ZTI18_C2Comparable_impl",
   "self_type" : "_ZTI18_C2Comparable_impl",
   "size" : 1,
   "source_file" : "/frameworks/av/media/codec2/core/include/C2ParamDef.h"
  },
  {
   "alignment" : 4,
   "fields" :
   [
    {
     "field_name" : "top_left",
     "referenced_type" : "_ZTIPh"
    },
    {
     "field_name" : "component",
     "field_offset" : 32,
     "referenced_type" : "_ZTI22android_flex_component"
    },
    {
     "field_name" : "bits_per_component",
     "field_offset" : 64,
     "referenced_type" : "_ZTIi"
    },
    {
     "field_name" : "bits_used",
     "field_offset" : 96,
     "referenced_type" : "_ZTIi"
    },
    {
     "field_name" : "h_increment",
     "field_offset" : 128,
     "referenced_type" : "_ZTIi"
    },
    {
     "field_name" : "v_increment",
     "field_offset" : 160,
     "referenced_type" : "_ZTIi"
    },
    {
     "field_name" : "h_subsampling",
     "field_offset" : 192,
     "referenced_type" : "_ZTIi"
    },
    {
     "field_name" : "v_subsampling",
     "field_offset" : 224,
     "referenced_type" : "_ZTIi"
    }
   ],
   "linker_set_key" : "_ZTI18android_flex_plane",
   "name" : "android_flex_plane",
   "referenced_type" : "_ZTI18android_flex_plane",
   "self_type" : "_ZTI18android_flex_plane",
   "size" : 32,
   "source_file" : "/system/core/libsystem/include/system/graphics.h"
  },
  {
   "alignment" : 4,
   "base_specifiers" :
   [
    {
     "referenced_type" : "_ZTI23_C2LinearCapacityAspect"
    }
   ],
   "linker_set_key" : "_ZTI19C2CircularWriteView",
   "name" : "C2CircularWriteView",
   "record_kind" : "class",
   "referenced_type" : "_ZTI19C2CircularWriteView",
   "self_type" : "_ZTI19C2CircularWriteView",
   "size" : 4,
   "source_file" : "/frameworks/av/media/codec2/core/include/C2Buffer.h"
  },
  {
   "alignment" : 4,
   "base_specifiers" :
   [
    {
     "referenced_type" : "_ZTI9C2Block2D"
    }
   ],
   "fields" :
   [
    {
     "access" : "private",
     "field_name" : "mFence",
     "field_offset" : 256,
     "referenced_type" : "_ZTI7C2Fence"
    }
   ],
   "linker_set_key" : "_ZTI19C2ConstGraphicBlock",
   "name" : "C2ConstGraphicBlock",
   "record_kind" : "class",
   "referenced_type" : "_ZTI19C2ConstGraphicBlock",
   "self_type" : "_ZTI19C2ConstGraphicBlock",
   "size" : 40,
   "source_file" : "/frameworks/av/media/codec2/core/include/C2Buffer.h"
  },
  {
   "alignment" : 4,
   "base_specifiers" :
   [
    {
     "referenced_type" : "_ZTI23_C2PlanarCapacityAspect"
    }
   ],
   "linker_set_key" : "_ZTI19C2GraphicAllocation",
   "name" : "C2GraphicAllocation",
   "record_kind" : "class",
   "referenced_type" : "_ZTI19C2GraphicAllocation",
   "self_type" : "_ZTI19C2GraphicAllocation",
   "size" : 12,
   "source_file" : "/frameworks/av/media/codec2/core/include/C2Buffer.h",
   "vtable_components" :
   [
    {
     "kind" : "offset_to_top"
    },
    {
     "kind" : "rtti",
     "mangled_component_name" : "_ZTI19C2GraphicAllocation"
    },
    {
     "is_pure" : true,
     "mangled_component_name" : "_ZN19C2GraphicAllocation3mapE6C2Rect13C2MemoryUsageP7C2FenceP14C2PlanarLayoutPPh"
    },
    {
     "is_pure" : true,
     "mangled_component_name" : "_ZN19C2GraphicAllocation5unmapEPPh6C2RectP7C2Fence"
    },
    {
     "is_pure" : true,
     "mangled_component_name" : "_ZNK19C2GraphicAllocation14getAllocatorIdEv"
    },
    {
     "is_pure" : true,
     "mangled_component_name" : "_ZNK19C2GraphicAllocation6handleEv"
    },
    {
     "is_pure" : true,
     "mangled_component_name" : "_ZNK19C2GraphicAllocation6equalsERKNSt3__110shared_ptrIKS_EE"
    },
    {
     "kind" : "complete_dtor_pointer",
     "mangled_component_name" : "_ZN19C2GraphicAllocationD1Ev"
    },
    {
     "kind" : "deleting_dtor_pointer",
     "mangled_component_name" : "_ZN19C2GraphicAllocationD0Ev"
    }
   ]
  },
  {
   "alignment" : 4,
   "fields" :
   [
    {
     "field_name" : "pool",
     "referenced_type" : "_ZTIy"
    },
    {
     "field_name" : "usage",
     "field_offset" : 64,
     "referenced_type" : "_ZTIy"
    },
    {
     "field_name" : "planar",
     "field_offset" : 128,
     "referenced_type" : "_ZTI19C2PictureSizeStruct"
    },
    {
     "field_name" : "format",
     "field_offset" : 192,
     "referenced_type" : "_ZTIj"
    },
    {
     "field_name" : "capacity",
     "field_offset" : 224,
     "referenced_type" : "_ZTIj"
    },
    {
     "field_name" : "outOfMemory",
     "field_offset" : 256,
     "referenced_type" : "_ZTI9c2_bool_t"
    }
   ],
   "linker_set_key" : "_ZTI19C2OutOfMemoryStruct",
   "name" : "C2OutOfMemoryStruct",
   "referenced_type" : "_ZTI19C2OutOfMemoryStruct",
   "self_type" : "_ZTI19C2OutOfMemoryStruct",
   "size" : 36,
   "source_file" : "/frameworks/av/media/codec2/core/include/C2Config.h"
  },
  {
   "alignment" : 4,
   "fields" :
   [
    {
     "field_name" : "width",
     "referenced_type" : "_ZTIj"
    },
    {
     "field_name" : "height",
     "field_offset" : 32,
     "referenced_type" : "_ZTIj"
    }
   ],
   "linker_set_key" : "_ZTI19C2PictureSizeStruct",
   "name" : "C2PictureSizeStruct",
   "referenced_type" : "_ZTI19C2PictureSizeStruct",
   "self_type" : "_ZTI19C2PictureSizeStruct",
   "size" : 8,
   "source_file" : "/frameworks/av/media/codec2/core/include/C2Config.h"
  },
  {
   "alignment" : 4,
   "fields" :
   [
    {
     "field_name" : "timestamp",
     "referenced_type" : "_ZTI9c2_cntr_tIyvE"
    },
    {
     "field_name" : "frameIndex",
     "field_offset" : 64,
     "referenced_type" : "_ZTI9c2_cntr_tIyvE"
    },
    {
     "field_name" : "customOrdinal",
     "field_offset" : 128,
     "referenced_type" : "_ZTI9c2_cntr_tIyvE"
    }
   ],
   "linker_set_key" : "_ZTI19C2WorkOrdinalStruct",
   "name" : "C2WorkOrdinalStruct",
   "referenced_type" : "_ZTI19C2WorkOrdinalStruct",
   "self_type" : "_ZTI19C2WorkOrdinalStruct",
   "size" : 24,
   "source_file" : "/frameworks/av/media/codec2/core/include/C2Work.h"
  },
  {
   "alignment" : 1,
   "linker_set_key" : "_ZTI19_C2ValueArrayHelper",
   "name" : "_C2ValueArrayHelper",
   "referenced_type" : "_ZTI19_C2ValueArrayHelper",
   "self_type" : "_ZTI19_C2ValueArrayHelper",
   "size" : 1,
   "source_file" : "/frameworks/av/media/codec2/core/include/C2ParamDef.h"
  },
  {
   "alignment" : 4,
   "fields" :
   [
    {
     "field_name" : "format",
     "referenced_type" : "_ZTI19android_flex_format"
    },
    {
     "field_name" : "num_planes",
     "field_offset" : 32,
     "referenced_type" : "_ZTIj"
    },
    {
     "field_name" : "planes",
     "field_offset" : 64,
     "referenced_type" : "_ZTIP18android_flex_plane"
    }
   ],
   "linker_set_key" : "_ZTI19android_flex_layout",
   "name" : "android_flex_layout",
   "referenced_type" : "_ZTI19android_flex_layout",
   "self_type" : "_ZTI19android_flex_layout",
   "size" : 12,
   "source_file" : "/system/core/libsystem/include/system/graphics.h"
  },
  {
   "alignment" : 4,
   "fields" :
   [
    {
     "field_name" : "open",
     "referenced_type" : "_ZTIPFiPK11hw_module_tPKcPP11hw_device_tE"
    }
   ],
   "linker_set_key" : "_ZTI19hw_module_methods_t",
   "name" : "hw_module_methods_t",
   "referenced_type" : "_ZTI19hw_module_methods_t",
   "self_type" : "_ZTI19hw_module_methods_t",
   "size" : 4,
   "source_file" : "/hardware/libhardware/include/hardware/hardware.h"
  },
  {
   "alignment" : 4,
   "fields" :
   [
    {
     "field_name" : "x",
     "referenced_type" : "_ZTIf"
    },
    {
     "field_name" : "y",
     "field_offset" : 32,
     "referenced_type" : "_ZTIf"
    }
   ],
   "linker_set_key" : "_ZTI20C2ChromaOffsetStruct",
   "name" : "C2ChromaOffsetStruct",
   "referenced_type" : "_ZTI20C2ChromaOffsetStruct",
   "self_type" : "_ZTI20C2ChromaOffsetStruct",
   "size" : 8,
   "source_file" : "/frameworks/av/media/codec2/core/include/C2Config.h"
  },
  {
   "alignment" : 4,
   "fields" :
   [
    {
     "field_name" : "range",
     "referenced_type" : "_ZTIN7C2Color7range_tE"
    },
    {
     "field_name" : "primaries",
     "field_offset" : 32,
     "referenced_type" : "_ZTIN7C2Color11primaries_tE"
    },
    {
     "field_name" : "transfer",
     "field_offset" : 64,
     "referenced_type" : "_ZTIN7C2Color10transfer_tE"
    },
    {
     "field_name" : "matrix",
     "field_offset" : 96,
     "referenced_type" : "_ZTIN7C2Color8matrix_tE"
    }
   ],
   "linker_set_key" : "_ZTI20C2ColorAspectsStruct",
   "name" : "C2ColorAspectsStruct",
   "referenced_type" : "_ZTI20C2ColorAspectsStruct",
   "self_type" : "_ZTI20C2ColorAspectsStruct",
   "size" : 16,
   "source_file" : "/frameworks/av/media/codec2/core/include/C2Config.h"
  },
  {
   "alignment" : 4,
   "linker_set_key" : "_ZTI20C2ComponentInterface",
   "name" : "C2ComponentInterface",
   "record_kind" : "class",
   "referenced_type" : "_ZTI20C2ComponentInterface",
   "self_type" : "_ZTI20C2ComponentInterface",
   "size" : 4,
   "source_file" : "/frameworks/av/media/codec2/core/include/C2Component.h",
   "vtable_components" :
   [
    {
     "kind" : "offset_to_top"
    },
    {
     "kind" : "rtti",
     "mangled_component_name" : "_ZTI20C2ComponentInterface"
    },
    {
     "is_pure" : true,
     "mangled_component_name" : "_ZNK20C2ComponentInterface7getNameEv"
    },
    {
     "is_pure" : true,
     "mangled_component_name" : "_ZNK20C2ComponentInterface5getIdEv"
    },
    {
     "is_pure" : true,
     "mangled_component_name" : "_ZNK20C2ComponentInterface8query_vbERKNSt3__16vectorIP7C2ParamNS0_9allocatorIS3_EEEERKNS1_INS2_5IndexENS4_IS9_EEEE13c2_blocking_tPNS1_INS0_10unique_ptrIS2_NS0_14default_deleteIS2_EEEENS4_ISI_EEEE"
    },
    {
     "is_pure" : true,
     "mangled_component_name" : "_ZN20C2ComponentInterface9config_vbERKNSt3__16vectorIP7C2ParamNS0_9allocatorIS3_EEEE13c2_blocking_tPNS1_INS0_10unique_ptrI15C2SettingResultNS0_14default_deleteISB_EEEENS4_ISE_EEEE"
    },
    {
     "is_pure" : true,
     "mangled_component_name" : "_ZN20C2ComponentInterface15createTunnel_smEj"
    },
    {
     "is_pure" : true,
     "mangled_component_name" : "_ZN20C2ComponentInterface16releaseTunnel_smEj"
    },
    {
     "is_pure" : true,
     "mangled_component_name" : "_ZNK20C2ComponentInterface23querySupportedParams_nbEPNSt3__16vectorINS0_10shared_ptrI17C2ParamDescriptorEENS0_9allocatorIS4_EEEE"
    },
    {
     "is_pure" : true,
     "mangled_component_name" : "_ZNK20C2ComponentInterface23querySupportedValues_vbERNSt3__16vectorI27C2FieldSupportedValuesQueryNS0_9allocatorIS2_EEEE13c2_blocking_t"
    },
    {
     "kind" : "complete_dtor_pointer",
     "mangled_component_name" : "_ZN20C2ComponentInterfaceD1Ev"
    },
    {
     "kind" : "deleting_dtor_pointer",
     "mangled_component_name" : "_ZN20C2ComponentInterfaceD0Ev"
    }
   ]
  },
  {
   "alignment" : 4,
   "fields" :
   [
    {
     "field_name" : "mode",
     "referenced_type" : "_ZTIN8C2Config20intra_refresh_mode_tE"
    },
    {
     "field_name" : "period",
     "field_offset" : 32,
     "referenced_type" : "_ZTIf"
    }
   ],
   "linker_set_key" : "_ZTI20C2IntraRefreshStruct",
   "name" : "C2IntraRefreshStruct",
   "referenced_type" : "_ZTI20C2IntraRefreshStruct",
   "self_type" : "_ZTI20C2IntraRefreshStruct",
   "size" : 8,
   "source_file" : "/frameworks/av/media/codec2/core/include/C2Config.h"
  },
  {
   "alignment" : 4,
   "fields" :
   [
    {
     "field_name" : "profile",
     "referenced_type" : "_ZTIN8C2Config9profile_tE"
    },
    {
     "field_name" : "level",
     "field_offset" : 32,
     "referenced_type" : "_ZTIN8C2Config7level_tE"
    }
   ],
   "linker_set_key" : "_ZTI20C2ProfileLevelStruct",
   "name" : "C2ProfileLevelStruct",
   "referenced_type" : "_ZTI20C2ProfileLevelStruct",
   "self_type" : "_ZTI20C2ProfileLevelStruct",
   "size" : 8,
   "source_file" : "/frameworks/av/media/codec2/core/include/C2Config.h"
  },
  {
   "alignment" : 4,
   "fields" :
   [
    {
     "field_name" : "enabled",
     "referenced_type" : "_ZTI9c2_bool_t"
    },
    {
     "field_name" : "timestamp",
     "field_offset" : 32,
     "referenced_type" : "_ZTIx"
    }
   ],
   "linker_set_key" : "_ZTI20C2TimedControlStruct",
   "name" : "C2TimedControlStruct",
   "referenced_type" : "_ZTI20C2TimedControlStruct",
   "self_type" : "_ZTI20C2TimedControlStruct",
   "size" : 12,
   "source_file" : "/frameworks/av/media/codec2/core/include/C2Config.h"
  },
  {
   "alignment" : 4,
   "base_specifiers" :
   [
    {
     "referenced_type" : "_ZTI23_C2LinearCapacityAspect"
    }
   ],
   "fields" :
   [
    {
     "field_name" : "mOffset",
     "field_offset" : 32,
     "referenced_type" : "_ZTIj"
    },
    {
     "field_name" : "mSize",
     "field_offset" : 64,
     "referenced_type" : "_ZTIj"
    }
   ],
   "linker_set_key" : "_ZTI20_C2LinearRangeAspect",
   "name" : "_C2LinearRangeAspect",
   "record_kind" : "class",
   "referenced_type" : "_ZTI20_C2LinearRangeAspect",
   "self_type" : "_ZTI20_C2LinearRangeAspect",
   "size" : 12,
   "source_file" : "/frameworks/av/media/codec2/core/include/C2Buffer.h"
  },
  {
   "alignment" : 4,
   "fields" :
   [
    {
     "field_name" : "num_points",
     "referenced_type" : "_ZTIj"
    },
    {
     "field_name" : "reserved",
     "field_offset" : 32,
     "referenced_type" : "_ZTIA8_j"
    },
    {
     "field_name" : "xyzc_points",
     "field_offset" : 288,
     "referenced_type" : "_ZTIA_f"
    }
   ],
   "linker_set_key" : "_ZTI20android_depth_points",
   "name" : "android_depth_points",
   "referenced_type" : "_ZTI20android_depth_points",
   "self_type" : "_ZTI20android_depth_points",
   "size" : 36,
   "source_file" : "/system/core/libsystem/include/system/graphics.h"
  },
  {
   "alignment" : 4,
   "fields" :
   [
    {
     "field_name" : "common",
     "referenced_type" : "_ZTI11hw_device_t"
    },
    {
     "field_name" : "flags",
     "field_offset" : 512,
     "referenced_type" : "_ZTIKj"
    },
    {
     "field_name" : "width",
     "field_offset" : 544,
     "referenced_type" : "_ZTIKj"
    },
    {
     "field_name" : "height",
     "field_offset" : 576,
     "referenced_type" : "_ZTIKj"
    },
    {
     "field_name" : "stride",
     "field_offset" : 608,
     "referenced_type" : "_ZTIKi"
    },
    {
     "field_name" : "format",
     "field_offset" : 640,
     "referenced_type" : "_ZTIKi"
    },
    {
     "field_name" : "xdpi",
     "field_offset" : 672,
     "referenced_type" : "_ZTIKf"
    },
    {
     "field_name" : "ydpi",
     "field_offset" : 704,
     "referenced_type" : "_ZTIKf"
    },
    {
     "field_name" : "fps",
     "field_offset" : 736,
     "referenced_type" : "_ZTIKf"
    },
    {
     "field_name" : "minSwapInterval",
     "field_offset" : 768,
     "referenced_type" : "_ZTIKi"
    },
    {
     "field_name" : "maxSwapInterval",
     "field_offset" : 800,
     "referenced_type" : "_ZTIKi"
    },
    {
     "field_name" : "numFramebuffers",
     "field_offset" : 832,
     "referenced_type" : "_ZTIKi"
    },
    {
     "field_name" : "reserved",
     "field_offset" : 864,
     "referenced_type" : "_ZTIA7_i"
    },
    {
     "field_name" : "setSwapInterval",
     "field_offset" : 1088,
     "referenced_type" : "_ZTIPFiP20framebuffer_device_tiE"
    },
    {
     "field_name" : "setUpdateRect",
     "field_offset" : 1120,
     "referenced_type" : "_ZTIPFiP20framebuffer_device_tiiiiE"
    },
    {
     "field_name" : "post",
     "field_offset" : 1152,
     "referenced_type" : "_ZTIPFiP20framebuffer_device_tPK13native_handleE"
    },
    {
     "field_name" : "compositionComplete",
     "field_offset" : 1184,
     "referenced_type" : "_ZTIPFiP20framebuffer_device_tE"
    },
    {
     "field_name" : "dump",
     "field_offset" : 1216,
     "referenced_type" : "_ZTIPFvP20framebuffer_device_tPciE"
    },
    {
     "field_name" : "enableScreen",
     "field_offset" : 1248,
     "referenced_type" : "_ZTIPFiP20framebuffer_device_tiE"
    },
    {
     "field_name" : "reserved_proc",
     "field_offset" : 1280,
     "referenced_type" : "_ZTIA6_Pv"
    }
   ],
   "linker_set_key" : "_ZTI20framebuffer_device_t",
   "name" : "framebuffer_device_t",
   "referenced_type" : "_ZTI20framebuffer_device_t",
   "self_type" : "_ZTI20framebuffer_device_t",
   "size" : 184,
   "source_file" : "/hardware/libhardware/include/hardware/fb.h"
  },
  {
   "alignment" : 4,
   "fields" :
   [
    {
     "field_name" : "usage",
     "referenced_type" : "_ZTIy"
    },
    {
     "field_name" : "capacity",
     "field_offset" : 64,
     "referenced_type" : "_ZTIj"
    },
    {
     "field_name" : "heapMask",
     "field_offset" : 96,
     "referenced_type" : "_ZTIi"
    },
    {
     "field_name" : "allocFlags",
     "field_offset" : 128,
     "referenced_type" : "_ZTIi"
    },
    {
     "field_name" : "minAlignment",
     "field_offset" : 160,
     "referenced_type" : "_ZTIj"
    }
   ],
   "linker_set_key" : "_ZTI21C2StoreIonUsageStruct",
   "name" : "C2StoreIonUsageStruct",
   "referenced_type" : "_ZTI21C2StoreIonUsageStruct",
   "self_type" : "_ZTI21C2StoreIonUsageStruct",
   "size" : 24,
   "source_file" : "/frameworks/av/media/codec2/core/include/C2Config.h"
  },
  {
   "alignment" : 4,
   "fields" :
   [
    {
     "field_name" : "type",
     "referenced_type" : "_ZTIN22C2FieldSupportedValues6type_tE"
    },
    {
     "field_name" : "range",
     "field_offset" : 32,
     "referenced_type" : "_ZTIN22C2FieldSupportedValuesUt_E"
    },
    {
     "field_name" : "values",
     "field_offset" : 352,
     "referenced_type" : "_ZTINSt3__16vectorIN7C2Value9PrimitiveENS_9allocatorIS2_EEEE"
    }
   ],
   "linker_set_key" : "_ZTI22C2FieldSupportedValues",
   "name" : "C2FieldSupportedValues",
   "referenced_type" : "_ZTI22C2FieldSupportedValues",
   "self_type" : "_ZTI22C2FieldSupportedValues",
   "size" : 56,
   "source_file" : "/frameworks/av/media/codec2/core/include/C2Param.h"
  },
  {
   "alignment" : 4,
   "base_specifiers" :
   [
    {
     "referenced_type" : "_ZTI23_C2PlanarCapacityAspect"
    }
   ],
   "fields" :
   [
    {
     "access" : "private",
     "field_name" : "mCrop",
     "field_offset" : 64,
     "referenced_type" : "_ZTI6C2Rect"
    }
   ],
   "linker_set_key" : "_ZTI22_C2PlanarSectionAspect",
   "name" : "_C2PlanarSectionAspect",
   "record_kind" : "class",
   "referenced_type" : "_ZTI22_C2PlanarSectionAspect",
   "self_type" : "_ZTI22_C2PlanarSectionAspect",
   "size" : 24,
   "source_file" : "/frameworks/av/media/codec2/core/include/C2Buffer.h"
  },
  {
   "alignment" : 1,
   "linker_set_key" : "_ZTI22_c2_cntr_compat_helperIjE",
   "name" : "_c2_cntr_compat_helper<unsigned int>",
   "referenced_type" : "_ZTI22_c2_cntr_compat_helperIjE",
   "self_type" : "_ZTI22_c2_cntr_compat_helperIjE",
   "size" : 1,
   "source_file" : "/frameworks/av/media/codec2/core/include/C2.h",
   "template_args" : [ "_ZTIj" ]
  },
  {
   "alignment" : 1,
   "linker_set_key" : "_ZTI22_c2_cntr_compat_helperIyE",
   "name" : "_c2_cntr_compat_helper<unsigned long long>",
   "referenced_type" : "_ZTI22_c2_cntr_compat_helperIyE",
   "self_type" : "_ZTI22_c2_cntr_compat_helperIyE",
   "size" : 1,
   "source_file" : "/frameworks/av/media/codec2/core/include/C2.h",
   "template_args" : [ "_ZTIy" ]
  },
  {
   "alignment" : 4,
   "base_specifiers" :
   [
    {
     "referenced_type" : "_ZTI23_C2LinearCapacityAspect"
    }
   ],
   "linker_set_key" : "_ZTI23_C2CircularBlockSegment",
   "name" : "_C2CircularBlockSegment",
   "record_kind" : "class",
   "referenced_type" : "_ZTI23_C2CircularBlockSegment",
   "self_type" : "_ZTI23_C2CircularBlockSegment",
   "size" : 4,
   "source_file" : "/frameworks/av/media/codec2/core/include/C2Buffer.h"
  },
  {
   "alignment" : 1,
   "linker_set_key" : "_ZTI23_C2CoreIndexHelper_impl",
   "name" : "_C2CoreIndexHelper_impl",
   "referenced_type" : "_ZTI23_C2CoreIndexHelper_impl",
   "self_type" : "_ZTI23_C2CoreIndexHelper_impl",
   "size" : 1,
   "source_file" : "/frameworks/av/media/codec2/core/include/C2ParamDef.h"
  },
  {
   "alignment" : 4,
   "fields" :
   [
    {
     "access" : "private",
     "field_name" : "mCapacity",
     "referenced_type" : "_ZTIj"
    }
   ],
   "linker_set_key" : "_ZTI23_C2LinearCapacityAspect",
   "name" : "_C2LinearCapacityAspect",
   "record_kind" : "class",
   "referenced_type" : "_ZTI23_C2LinearCapacityAspect",
   "self_type" : "_ZTI23_C2LinearCapacityAspect",
   "size" : 4,
   "source_file" : "/frameworks/av/media/codec2/core/include/C2Buffer.h"
  },
  {
   "alignment" : 4,
   "fields" :
   [
    {
     "access" : "private",
     "field_name" : "_mWidth",
     "referenced_type" : "_ZTIj"
    },
    {
     "access" : "private",
     "field_name" : "_mHeight",
     "field_offset" : 32,
     "referenced_type" : "_ZTIj"
    }
   ],
   "linker_set_key" : "_ZTI23_C2PlanarCapacityAspect",
   "name" : "_C2PlanarCapacityAspect",
   "record_kind" : "class",
   "referenced_type" : "_ZTI23_C2PlanarCapacityAspect",
   "self_type" : "_ZTI23_C2PlanarCapacityAspect",
   "size" : 8,
   "source_file" : "/frameworks/av/media/codec2/core/include/C2Buffer.h"
  },
  {
   "alignment" : 4,
   "fields" :
   [
    {
     "field_name" : "type_",
     "referenced_type" : "_ZTIN8C2Config19supplemental_info_tE"
    },
    {
     "field_name" : "data",
     "field_offset" : 32,
     "referenced_type" : "_ZTIA_h"
    }
   ],
   "linker_set_key" : "_ZTI24C2SupplementalDataStruct",
   "name" : "C2SupplementalDataStruct",
   "referenced_type" : "_ZTI24C2SupplementalDataStruct",
   "self_type" : "_ZTI24C2SupplementalDataStruct",
   "size" : 4,
   "source_file" : "/frameworks/av/media/codec2/core/include/C2Config.h"
  },
  {
   "alignment" : 4,
   "fields" :
   [
    {
     "field_name" : "layerCount",
     "referenced_type" : "_ZTIj"
    },
    {
     "field_name" : "bLayerCount",
     "field_offset" : 32,
     "referenced_type" : "_ZTIj"
    },
    {
     "field_name" : "bitrateRatios",
     "field_offset" : 64,
     "referenced_type" : "_ZTIA_f"
    }
   ],
   "linker_set_key" : "_ZTI24C2TemporalLayeringStruct",
   "name" : "C2TemporalLayeringStruct",
   "referenced_type" : "_ZTI24C2TemporalLayeringStruct",
   "self_type" : "_ZTI24C2TemporalLayeringStruct",
   "size" : 8,
   "source_file" : "/frameworks/av/media/codec2/core/include/C2Config.h"
  },
  {
   "alignment" : 4,
   "fields" :
   [
    {
     "field_name" : "mastering",
     "referenced_type" : "_ZTI35C2MasteringDisplayColorVolumeStruct"
    },
    {
     "field_name" : "maxCll",
     "field_offset" : 320,
     "referenced_type" : "_ZTIf"
    },
    {
     "field_name" : "maxFall",
     "field_offset" : 352,
     "referenced_type" : "_ZTIf"
    }
   ],
   "linker_set_key" : "_ZTI25C2HdrStaticMetadataStruct",
   "name" : "C2HdrStaticMetadataStruct",
   "referenced_type" : "_ZTI25C2HdrStaticMetadataStruct",
   "self_type" : "_ZTI25C2HdrStaticMetadataStruct",
   "size" : 48,
   "source_file" : "/frameworks/av/media/codec2/core/include/C2Config.h"
  },
  {
   "alignment" : 4,
   "fields" :
   [
    {
     "field_name" : "maxContentLightLevel",
     "referenced_type" : "_ZTIf"
    },
    {
     "field_name" : "maxFrameAverageLightLevel",
     "field_offset" : 32,
     "referenced_type" : "_ZTIf"
    }
   ],
   "linker_set_key" : "_ZTI25android_cta861_3_metadata",
   "name" : "android_cta861_3_metadata",
   "referenced_type" : "_ZTI25android_cta861_3_metadata",
   "self_type" : "_ZTI25android_cta861_3_metadata",
   "size" : 8,
   "source_file" : "/system/core/libsystem/include/system/graphics.h"
  },
  {
   "alignment" : 4,
   "fields" :
   [
    {
     "field_name" : "displayPrimaryRed",
     "referenced_type" : "_ZTI16android_xy_color"
    },
    {
     "field_name" : "displayPrimaryGreen",
     "field_offset" : 64,
     "referenced_type" : "_ZTI16android_xy_color"
    },
    {
     "field_name" : "displayPrimaryBlue",
     "field_offset" : 128,
     "referenced_type" : "_ZTI16android_xy_color"
    },
    {
     "field_name" : "whitePoint",
     "field_offset" : 192,
     "referenced_type" : "_ZTI16android_xy_color"
    },
    {
     "field_name" : "maxLuminance",
     "field_offset" : 256,
     "referenced_type" : "_ZTIf"
    },
    {
     "field_name" : "minLuminance",
     "field_offset" : 288,
     "referenced_type" : "_ZTIf"
    }
   ],
   "linker_set_key" : "_ZTI26android_smpte2086_metadata",
   "name" : "android_smpte2086_metadata",
   "referenced_type" : "_ZTI26android_smpte2086_metadata",
   "self_type" : "_ZTI26android_smpte2086_metadata",
   "size" : 40,
   "source_file" : "/system/core/libsystem/include/system/graphics.h"
  },
  {
   "alignment" : 4,
   "fields" :
   [
    {
     "access" : "private",
     "field_name" : "_mField",
     "referenced_type" : "_ZTI12C2ParamField"
    },
    {
     "access" : "private",
     "field_name" : "_mType",
     "field_offset" : 96,
     "referenced_type" : "_ZTIN27C2FieldSupportedValuesQuery6type_tE"
    },
    {
     "field_name" : "status",
     "field_offset" : 128,
     "referenced_type" : "_ZTI11c2_status_t"
    },
    {
     "field_name" : "values",
     "field_offset" : 160,
     "referenced_type" : "_ZTI22C2FieldSupportedValues"
    }
   ],
   "linker_set_key" : "_ZTI27C2FieldSupportedValuesQuery",
   "name" : "C2FieldSupportedValuesQuery",
   "referenced_type" : "_ZTI27C2FieldSupportedValuesQuery",
   "self_type" : "_ZTI27C2FieldSupportedValuesQuery",
   "size" : 76,
   "source_file" : "/frameworks/av/media/codec2/core/include/C2Component.h"
  },
  {
   "alignment" : 4,
   "base_specifiers" :
   [
    {
     "referenced_type" : "_ZTI20_C2LinearRangeAspect"
    }
   ],
   "linker_set_key" : "_ZTI28_C2EditableLinearRangeAspect",
   "name" : "_C2EditableLinearRangeAspect",
   "record_kind" : "class",
   "referenced_type" : "_ZTI28_C2EditableLinearRangeAspect",
   "self_type" : "_ZTI28_C2EditableLinearRangeAspect",
   "size" : 12,
   "source_file" : "/frameworks/av/media/codec2/core/include/C2Buffer.h"
  },
  {
   "alignment" : 4,
   "fields" :
   [
    {
     "field_name" : "mode",
     "referenced_type" : "_ZTIN30C2TimestampGapAdjustmentStruct6mode_tE"
    },
    {
     "field_name" : "value",
     "field_offset" : 32,
     "referenced_type" : "_ZTIy"
    }
   ],
   "linker_set_key" : "_ZTI30C2TimestampGapAdjustmentStruct",
   "name" : "C2TimestampGapAdjustmentStruct",
   "referenced_type" : "_ZTI30C2TimestampGapAdjustmentStruct",
   "self_type" : "_ZTI30C2TimestampGapAdjustmentStruct",
   "size" : 12,
   "source_file" : "/frameworks/av/media/codec2/core/include/C2Config.h"
  },
  {
   "alignment" : 4,
   "base_specifiers" :
   [
    {
     "referenced_type" : "_ZTI22_C2PlanarSectionAspect"
    }
   ],
   "linker_set_key" : "_ZTI30_C2EditablePlanarSectionAspect",
   "name" : "_C2EditablePlanarSectionAspect",
   "record_kind" : "class",
   "referenced_type" : "_ZTI30_C2EditablePlanarSectionAspect",
   "self_type" : "_ZTI30_C2EditablePlanarSectionAspect",
   "size" : 24,
   "source_file" : "/frameworks/av/media/codec2/core/include/C2Buffer.h"
  },
  {
   "alignment" : 4,
   "fields" :
   [
    {
     "field_name" : "red",
     "referenced_type" : "_ZTI15C2ColorXyStruct"
    },
    {
     "field_name" : "green",
     "field_offset" : 64,
     "referenced_type" : "_ZTI15C2ColorXyStruct"
    },
    {
     "field_name" : "blue",
     "field_offset" : 128,
     "referenced_type" : "_ZTI15C2ColorXyStruct"
    },
    {
     "field_name" : "white",
     "field_offset" : 192,
     "referenced_type" : "_ZTI15C2ColorXyStruct"
    },
    {
     "field_name" : "maxLuminance",
     "field_offset" : 256,
     "referenced_type" : "_ZTIf"
    },
    {
     "field_name" : "minLuminance",
     "field_offset" : 288,
     "referenced_type" : "_ZTIf"
    }
   ],
   "linker_set_key" : "_ZTI35C2MasteringDisplayColorVolumeStruct",
   "name" : "C2MasteringDisplayColorVolumeStruct",
   "referenced_type" : "_ZTI35C2MasteringDisplayColorVolumeStruct",
   "self_type" : "_ZTI35C2MasteringDisplayColorVolumeStruct",
   "size" : 40,
   "source_file" : "/frameworks/av/media/codec2/core/include/C2Config.h"
  },
  {
   "alignment" : 4,
   "fields" :
   [
    {
     "field_name" : "pixelFormat",
     "referenced_type" : "_ZTIj"
    },
    {
     "field_name" : "bitDepth",
     "field_offset" : 32,
     "referenced_type" : "_ZTIj"
    },
    {
     "field_name" : "subsampling",
     "field_offset" : 64,
     "referenced_type" : "_ZTIN7C2Color13subsampling_tE"
    },
    {
     "field_name" : "layout",
     "field_offset" : 96,
     "referenced_type" : "_ZTIN7C2Color14plane_layout_tE"
    }
   ],
   "linker_set_key" : "_ZTI37C2FlexiblePixelFormatDescriptorStruct",
   "name" : "C2FlexiblePixelFormatDescriptorStruct",
   "referenced_type" : "_ZTI37C2FlexiblePixelFormatDescriptorStruct",
   "self_type" : "_ZTI37C2FlexiblePixelFormatDescriptorStruct",
   "size" : 16,
   "source_file" : "/frameworks/av/media/codec2/core/include/C2Config.h"
  },
  {
   "alignment" : 4,
   "base_specifiers" :
   [
    {
     "referenced_type" : "_ZTI7C2Param"
    }
   ],
   "linker_set_key" : "_ZTI6C2Info",
   "name" : "C2Info",
   "referenced_type" : "_ZTI6C2Info",
   "self_type" : "_ZTI6C2Info",
   "size" : 8,
   "source_file" : "/frameworks/av/media/codec2/core/include/C2Param.h"
  },
  {
   "alignment" : 4,
   "fields" :
   [
    {
     "field_name" : "width",
     "referenced_type" : "_ZTIj"
    },
    {
     "field_name" : "height",
     "field_offset" : 32,
     "referenced_type" : "_ZTIj"
    },
    {
     "field_name" : "left",
     "field_offset" : 64,
     "referenced_type" : "_ZTIj"
    },
    {
     "field_name" : "top",
     "field_offset" : 96,
     "referenced_type" : "_ZTIj"
    }
   ],
   "linker_set_key" : "_ZTI6C2Rect",
   "name" : "C2Rect",
   "referenced_type" : "_ZTI6C2Rect",
   "self_type" : "_ZTI6C2Rect",
   "size" : 16,
   "source_file" : "/frameworks/av/media/codec2/core/include/C2Buffer.h"
  },
  {
   "alignment" : 4,
   "fields" :
   [
    {
     "field_name" : "chainInfo",
     "referenced_type" : "_ZTINSt3__110shared_ptrI15C2WorkChainInfoEE"
    },
    {
     "field_name" : "input",
     "field_offset" : 64,
     "referenced_type" : "_ZTI11C2FrameData"
    },
    {
     "field_name" : "worklets",
     "field_offset" : 576,
     "referenced_type" : "_ZTINSt3__14listINS_10unique_ptrI9C2WorkletNS_14default_deleteIS2_EEEENS_9allocatorIS5_EEEE"
    },
    {
     "field_name" : "workletsProcessed",
     "field_offset" : 672,
     "referenced_type" : "_ZTIj"
    },
    {
     "field_name" : "result",
     "field_offset" : 704,
     "referenced_type" : "_ZTI11c2_status_t"
    }
   ],
   "linker_set_key" : "_ZTI6C2Work",
   "name" : "C2Work",
   "referenced_type" : "_ZTI6C2Work",
   "self_type" : "_ZTI6C2Work",
   "size" : 92,
   "source_file" : "/frameworks/av/media/codec2/core/include/C2Work.h"
  },
  {
   "alignment" : 1,
   "linker_set_key" : "_ZTI7C2Color",
   "name" : "C2Color",
   "referenced_type" : "_ZTI7C2Color",
   "self_type" : "_ZTI7C2Color",
   "size" : 1,
   "source_file" : "/frameworks/av/media/codec2/core/include/C2Config.h"
  },
  {
   "alignment" : 4,
   "fields" :
   [
    {
     "access" : "private",
     "field_name" : "mImpl",
     "referenced_type" : "_ZTINSt3__110shared_ptrIN7C2Event4ImplEEE"
    }
   ],
   "linker_set_key" : "_ZTI7C2Event",
   "name" : "C2Event",
   "record_kind" : "class",
   "referenced_type" : "_ZTI7C2Event",
   "self_type" : "_ZTI7C2Event",
   "size" : 8,
   "source_file" : "/frameworks/av/media/codec2/core/include/C2Buffer.h"
  },
  {
   "alignment" : 4,
   "fields" :
   [
    {
     "access" : "private",
     "field_name" : "mImpl",
     "referenced_type" : "_ZTINSt3__110shared_ptrIN7C2Fence4ImplEEE"
    }
   ],
   "linker_set_key" : "_ZTI7C2Fence",
   "name" : "C2Fence",
   "record_kind" : "class",
   "referenced_type" : "_ZTI7C2Fence",
   "self_type" : "_ZTI7C2Fence",
   "size" : 8,
   "source_file" : "/frameworks/av/media/codec2/core/include/C2Buffer.h"
  },
  {
   "alignment" : 4,
   "fields" :
   [
    {
     "access" : "private",
     "field_name" : "_mSize",
     "referenced_type" : "_ZTIj"
    },
    {
     "access" : "private",
     "field_name" : "_mIndex",
     "field_offset" : 32,
     "referenced_type" : "_ZTIN7C2Param5IndexE"
    }
   ],
   "linker_set_key" : "_ZTI7C2Param",
   "name" : "C2Param",
   "referenced_type" : "_ZTI7C2Param",
   "self_type" : "_ZTI7C2Param",
   "size" : 8,
   "source_file" : "/frameworks/av/media/codec2/core/include/C2Param.h"
  },
  {
   "alignment" : 4,
   "fields" :
   [
    {
     "access" : "private",
     "field_name" : "_mType",
     "referenced_type" : "_ZTIN7C2Value6type_tE"
    },
    {
     "access" : "private",
     "field_name" : "_mValue",
     "field_offset" : 32,
     "referenced_type" : "_ZTIN7C2Value9PrimitiveE"
    }
   ],
   "linker_set_key" : "_ZTI7C2Value",
   "name" : "C2Value",
   "record_kind" : "class",
   "referenced_type" : "_ZTI7C2Value",
   "self_type" : "_ZTI7C2Value",
   "size" : 12,
   "source_file" : "/frameworks/av/media/codec2/core/include/C2Param.h"
  },
  {
   "alignment" : 4,
   "fields" :
   [
    {
     "access" : "private",
     "field_name" : "mImpl",
     "field_offset" : 32,
     "referenced_type" : "_ZTINSt3__110shared_ptrIN8C2Buffer4ImplEEE"
    }
   ],
   "linker_set_key" : "_ZTI8C2Buffer",
   "name" : "C2Buffer",
   "record_kind" : "class",
   "referenced_type" : "_ZTI8C2Buffer",
   "self_type" : "_ZTI8C2Buffer",
   "size" : 12,
   "source_file" : "/frameworks/av/media/codec2/core/include/C2Buffer.h",
   "vtable_components" :
   [
    {
     "kind" : "offset_to_top"
    },
    {
     "kind" : "rtti",
     "mangled_component_name" : "_ZTI8C2Buffer"
    },
    {
     "kind" : "complete_dtor_pointer",
     "mangled_component_name" : "_ZN8C2BufferD1Ev"
    },
    {
     "kind" : "deleting_dtor_pointer",
     "mangled_component_name" : "_ZN8C2BufferD0Ev"
    }
   ]
  },
  {
   "alignment" : 1,
   "linker_set_key" : "_ZTI8C2Config",
   "name" : "C2Config",
   "referenced_type" : "_ZTI8C2Config",
   "self_type" : "_ZTI8C2Config",
   "size" : 1,
   "source_file" : "/frameworks/av/media/codec2/core/include/C2Config.h"
  },
  {
   "alignment" : 4,
   "base_specifiers" :
   [
    {
     "referenced_type" : "_ZTI9C2Setting"
    }
   ],
   "linker_set_key" : "_ZTI8C2Tuning",
   "name" : "C2Tuning",
   "referenced_type" : "_ZTI8C2Tuning",
   "self_type" : "_ZTI8C2Tuning",
   "size" : 8,
   "source_file" : "/frameworks/av/media/codec2/core/include/C2Param.h"
  },
  {
   "alignment" : 1,
   "linker_set_key" : "_ZTI8c2_typesIJjjEE",
   "name" : "c2_types<unsigned int, unsigned int>",
   "referenced_type" : "_ZTI8c2_typesIJjjEE",
   "self_type" : "_ZTI8c2_typesIJjjEE",
   "size" : 1,
   "source_file" : "/frameworks/av/media/codec2/core/include/C2.h"
  },
  {
   "alignment" : 1,
   "linker_set_key" : "_ZTI8c2_typesIJjjjEE",
   "name" : "c2_types<unsigned int, unsigned int, unsigned int>",
   "referenced_type" : "_ZTI8c2_typesIJjjjEE",
   "self_type" : "_ZTI8c2_typesIJjjjEE",
   "size" : 1,
   "source_file" : "/frameworks/av/media/codec2/core/include/C2.h"
  },
  {
   "alignment" : 4,
   "base_specifiers" :
   [
    {
     "referenced_type" : "_ZTI20_C2LinearRangeAspect"
    }
   ],
   "fields" :
   [
    {
     "access" : "protected",
     "field_name" : "mImpl",
     "field_offset" : 96,
     "referenced_type" : "_ZTINSt3__110shared_ptrIN9C2Block1D4ImplEEE"
    }
   ],
   "linker_set_key" : "_ZTI9C2Block1D",
   "name" : "C2Block1D",
   "record_kind" : "class",
   "referenced_type" : "_ZTI9C2Block1D",
   "self_type" : "_ZTI9C2Block1D",
   "size" : 20,
   "source_file" : "/frameworks/av/media/codec2/core/include/C2Buffer.h"
  },
  {
   "alignment" : 4,
   "base_specifiers" :
   [
    {
     "referenced_type" : "_ZTI22_C2PlanarSectionAspect"
    }
   ],
   "fields" :
   [
    {
     "access" : "protected",
     "field_name" : "mImpl",
     "field_offset" : 192,
     "referenced_type" : "_ZTINSt3__110shared_ptrIN9C2Block2D4ImplEEE"
    }
   ],
   "linker_set_key" : "_ZTI9C2Block2D",
   "name" : "C2Block2D",
   "record_kind" : "class",
   "referenced_type" : "_ZTI9C2Block2D",
   "self_type" : "_ZTI9C2Block2D",
   "size" : 32,
   "source_file" : "/frameworks/av/media/codec2/core/include/C2Buffer.h"
  },
  {
   "alignment" : 4,
   "fields" :
   [
    {
     "field_name" : "offset",
     "referenced_type" : "_ZTIj"
    },
    {
     "field_name" : "size",
     "field_offset" : 32,
     "referenced_type" : "_ZTIj"
    }
   ],
   "linker_set_key" : "_ZTI9C2Segment",
   "name" : "C2Segment",
   "referenced_type" : "_ZTI9C2Segment",
   "self_type" : "_ZTI9C2Segment",
   "size" : 8,
   "source_file" : "/frameworks/av/media/codec2/core/include/C2Buffer.h"
  },
  {
   "alignment" : 4,
   "base_specifiers" :
   [
    {
     "referenced_type" : "_ZTI7C2Param"
    }
   ],
   "linker_set_key" : "_ZTI9C2Setting",
   "name" : "C2Setting",
   "referenced_type" : "_ZTI9C2Setting",
   "self_type" : "_ZTI9C2Setting",
   "size" : 8,
   "source_file" : "/frameworks/av/media/codec2/core/include/C2Param.h"
  },
  {
   "alignment" : 4,
   "fields" :
   [
    {
     "field_name" : "component",
     "referenced_type" : "_ZTIj"
    },
    {
     "field_name" : "tunings",
     "field_offset" : 32,
     "referenced_type" : "_ZTINSt3__16vectorINS_10unique_ptrI8C2TuningNS_14default_deleteIS2_EEEENS_9allocatorIS5_EEEE"
    },
    {
     "field_name" : "failures",
     "field_offset" : 128,
     "referenced_type" : "_ZTINSt3__16vectorINS_10unique_ptrI15C2SettingResultNS_14default_deleteIS2_EEEENS_9allocatorIS5_EEEE"
    },
    {
     "field_name" : "output",
     "field_offset" : 224,
     "referenced_type" : "_ZTI11C2FrameData"
    }
   ],
   "linker_set_key" : "_ZTI9C2Worklet",
   "name" : "C2Worklet",
   "referenced_type" : "_ZTI9C2Worklet",
   "self_type" : "_ZTI9C2Worklet",
   "size" : 92,
   "source_file" : "/frameworks/av/media/codec2/core/include/C2Work.h"
  },
  {
   "alignment" : 4,
   "fields" :
   [
    {
     "access" : "private",
     "field_name" : "mValue",
     "referenced_type" : "_ZTIj"
    }
   ],
   "linker_set_key" : "_ZTI9c2_cntr_tIjvE",
   "name" : "c2_cntr_t<unsigned int, void>",
   "record_kind" : "class",
   "referenced_type" : "_ZTI9c2_cntr_tIjvE",
   "self_type" : "_ZTI9c2_cntr_tIjvE",
   "size" : 4,
   "source_file" : "/frameworks/av/media/codec2/core/include/C2.h",
   "template_args" : [ "_ZTIj", "_ZTIv" ]
  },
  {
   "alignment" : 4,
   "fields" :
   [
    {
     "access" : "private",
     "field_name" : "mValue",
     "referenced_type" : "_ZTIy"
    }
   ],
   "linker_set_key" : "_ZTI9c2_cntr_tIyvE",
   "name" : "c2_cntr_t<unsigned long long, void>",
   "record_kind" : "class",
   "referenced_type" : "_ZTI9c2_cntr_tIyvE",
   "self_type" : "_ZTI9c2_cntr_tIyvE",
   "size" : 8,
   "source_file" : "/frameworks/av/media/codec2/core/include/C2.h",
   "template_args" : [ "_ZTIy", "_ZTIv" ]
  },
  {
   "alignment" : 4,
   "fields" :
   [
    {
     "field_name" : "name",
     "referenced_type" : "_ZTINSt3__112basic_stringIcNS_11char_traitsIcEENS_9allocatorIcEEEE"
    },
    {
     "field_name" : "id",
     "field_offset" : 96,
     "referenced_type" : "_ZTIj"
    },
    {
     "field_name" : "supportedTypes",
     "field_offset" : 128,
     "referenced_type" : "_ZTIN11C2Allocator6type_tE"
    },
    {
     "field_name" : "minimumUsage",
     "field_offset" : 160,
     "referenced_type" : "_ZTI13C2MemoryUsage"
    },
    {
     "field_name" : "maximumUsage",
     "field_offset" : 224,
     "referenced_type" : "_ZTI13C2MemoryUsage"
    }
   ],
   "linker_set_key" : "_ZTIN11C2Allocator6TraitsE",
   "name" : "C2Allocator::Traits",
   "referenced_type" : "_ZTIN11C2Allocator6TraitsE",
   "self_type" : "_ZTIN11C2Allocator6TraitsE",
   "size" : 36,
   "source_file" : "/frameworks/av/media/codec2/core/include/C2Buffer.h"
  },
  {
   "alignment" : 4,
   "fields" :
   [
    {
     "field_name" : "name",
     "referenced_type" : "_ZTINSt3__112basic_stringIcNS_11char_traitsIcEENS_9allocatorIcEEEE"
    },
    {
     "field_name" : "domain",
     "field_offset" : 96,
     "referenced_type" : "_ZTIN11C2Component8domain_tE"
    },
    {
     "field_name" : "kind",
     "field_offset" : 128,
     "referenced_type" : "_ZTIN11C2Component6kind_tE"
    },
    {
     "field_name" : "rank",
     "field_offset" : 160,
     "referenced_type" : "_ZTIj"
    },
    {
     "field_name" : "mediaType",
     "field_offset" : 192,
     "referenced_type" : "_ZTINSt3__112basic_stringIcNS_11char_traitsIcEENS_9allocatorIcEEEE"
    },
    {
     "field_name" : "owner",
     "field_offset" : 288,
     "referenced_type" : "_ZTINSt3__112basic_stringIcNS_11char_traitsIcEENS_9allocatorIcEEEE"
    },
    {
     "field_name" : "aliases",
     "field_offset" : 384,
     "referenced_type" : "_ZTINSt3__16vectorINS_12basic_stringIcNS_11char_traitsIcEENS_9allocatorIcEEEENS4_IS6_EEEE"
    }
   ],
   "linker_set_key" : "_ZTIN11C2Component6TraitsE",
   "name" : "C2Component::Traits",
   "referenced_type" : "_ZTIN11C2Component6TraitsE",
   "self_type" : "_ZTIN11C2Component6TraitsE",
   "size" : 60,
   "source_file" : "/frameworks/av/media/codec2/core/include/C2Component.h"
  },
  {
   "alignment" : 4,
   "linker_set_key" : "_ZTIN11C2Component8ListenerE",
   "name" : "C2Component::Listener",
   "record_kind" : "class",
   "referenced_type" : "_ZTIN11C2Component8ListenerE",
   "self_type" : "_ZTIN11C2Component8ListenerE",
   "size" : 4,
   "source_file" : "/frameworks/av/media/codec2/core/include/C2Component.h",
   "vtable_components" :
   [
    {
     "kind" : "offset_to_top"
    },
    {
     "kind" : "rtti",
     "mangled_component_name" : "_ZTIN11C2Component8ListenerE"
    },
    {
     "is_pure" : true,
     "mangled_component_name" : "_ZN11C2Component8Listener13onWorkDone_nbENSt3__18weak_ptrIS_EENS1_4listINS1_10unique_ptrI6C2WorkNS1_14default_deleteIS6_EEEENS1_9allocatorIS9_EEEE"
    },
    {
     "is_pure" : true,
     "mangled_component_name" : "_ZN11C2Component8Listener12onTripped_nbENSt3__18weak_ptrIS_EENS1_6vectorINS1_10shared_ptrI15C2SettingResultEENS1_9allocatorIS7_EEEE"
    },
    {
     "is_pure" : true,
     "mangled_component_name" : "_ZN11C2Component8Listener10onError_nbENSt3__18weak_ptrIS_EEj"
    },
    {
     "kind" : "complete_dtor_pointer",
     "mangled_component_name" : "_ZN11C2Component8ListenerD1Ev"
    },
    {
     "kind" : "deleting_dtor_pointer",
     "mangled_component_name" : "_ZN11C2Component8ListenerD0Ev"
    }
   ]
  },
  {
   "alignment" : 4,
   "fields" :
   [
    {
     "field_name" : "min",
     "referenced_type" : "_ZTIN7C2Value9PrimitiveE"
    },
    {
     "field_name" : "max",
     "field_offset" : 64,
     "referenced_type" : "_ZTIN7C2Value9PrimitiveE"
    },
    {
     "field_name" : "step",
     "field_offset" : 128,
     "referenced_type" : "_ZTIN7C2Value9PrimitiveE"
    },
    {
     "field_name" : "num",
     "field_offset" : 192,
     "referenced_type" : "_ZTIN7C2Value9PrimitiveE"
    },
    {
     "field_name" : "denom",
     "field_offset" : 256,
     "referenced_type" : "_ZTIN7C2Value9PrimitiveE"
    }
   ],
   "is_anonymous" : true,
   "linker_set_key" : "_ZTIN22C2FieldSupportedValuesUt_E",
   "name" : "C2FieldSupportedValues::(anonymous struct at frameworks/av/media/codec2/core/include/C2Param.h:1544:5)",
   "referenced_type" : "_ZTIN22C2FieldSupportedValuesUt_E",
   "self_type" : "_ZTIN22C2FieldSupportedValuesUt_E",
   "size" : 40,
   "source_file" : "/frameworks/av/media/codec2/core/include/C2Param.h"
  },
  {
   "alignment" : 4,
   "base_specifiers" :
   [
    {
     "referenced_type" : "_ZTIN7C2Param9CoreIndexE"
    }
   ],
   "linker_set_key" : "_ZTIN7C2Param4TypeE",
   "name" : "C2Param::Type",
   "referenced_type" : "_ZTIN7C2Param4TypeE",
   "self_type" : "_ZTIN7C2Param4TypeE",
   "size" : 4,
   "source_file" : "/frameworks/av/media/codec2/core/include/C2Param.h"
  },
  {
   "alignment" : 4,
   "base_specifiers" :
   [
    {
     "referenced_type" : "_ZTIN7C2Param4TypeE"
    }
   ],
   "linker_set_key" : "_ZTIN7C2Param5IndexE",
   "name" : "C2Param::Index",
   "referenced_type" : "_ZTIN7C2Param5IndexE",
   "self_type" : "_ZTIN7C2Param5IndexE",
   "size" : 4,
   "source_file" : "/frameworks/av/media/codec2/core/include/C2Param.h"
  },
  {
   "alignment" : 4,
   "fields" :
   [
    {
     "access" : "protected",
     "field_name" : "mIndex",
     "referenced_type" : "_ZTIj"
    }
   ],
   "linker_set_key" : "_ZTIN7C2Param9CoreIndexE",
   "name" : "C2Param::CoreIndex",
   "referenced_type" : "_ZTIN7C2Param9CoreIndexE",
   "self_type" : "_ZTIN7C2Param9CoreIndexE",
   "size" : 4,
   "source_file" : "/frameworks/av/media/codec2/core/include/C2Param.h"
  },
  {
   "alignment" : 4,
   "fields" :
   [
    {
     "field_name" : "u64",
     "referenced_type" : "_ZTIy"
    },
    {
     "field_name" : "i64",
     "referenced_type" : "_ZTIx"
    },
    {
     "field_name" : "c64",
     "referenced_type" : "_ZTI9c2_cntr_tIyvE"
    },
    {
     "field_name" : "u32",
     "referenced_type" : "_ZTIj"
    },
    {
     "field_name" : "i32",
     "referenced_type" : "_ZTIi"
    },
    {
     "field_name" : "c32",
     "referenced_type" : "_ZTI9c2_cntr_tIjvE"
    },
    {
     "field_name" : "fp",
     "referenced_type" : "_ZTIf"
    }
   ],
   "linker_set_key" : "_ZTIN7C2Value9PrimitiveE",
   "name" : "C2Value::Primitive",
   "record_kind" : "union",
   "referenced_type" : "_ZTIN7C2Value9PrimitiveE",
   "self_type" : "_ZTIN7C2Value9PrimitiveE",
   "size" : 8,
   "source_file" : "/frameworks/av/media/codec2/core/include/C2Param.h"
  },
  {
   "alignment" : 4,
   "base_specifiers" :
   [
    {
     "referenced_type" : "_ZTI13C2MemoryUsage"
    }
   ],
   "linker_set_key" : "_ZTIN7android20C2AndroidMemoryUsageE",
   "name" : "android::C2AndroidMemoryUsage",
   "referenced_type" : "_ZTIN7android20C2AndroidMemoryUsageE",
   "self_type" : "_ZTIN7android20C2AndroidMemoryUsageE",
   "size" : 8,
   "source_file" : "/frameworks/av/media/codec2/core/include/android-C2Buffer.h"
  }
 ],
 "rvalue_reference_types" :
 [
  {
   "alignment" : 4,
   "linker_set_key" : "_ZTIO18C2ParamFieldValues",
   "name" : "C2ParamFieldValues &&",
   "referenced_type" : "_ZTI18C2ParamFieldValues",
   "self_type" : "_ZTIO18C2ParamFieldValues",
   "size" : 4,
   "source_file" : "/frameworks/av/media/codec2/core/include/C2Param.h"
  },
  {
   "alignment" : 4,
   "linker_set_key" : "_ZTIONSt3__110unique_ptrI22C2FieldSupportedValuesNS_14default_deleteIS1_EEEE",
   "name" : "std::unique_ptr<C2FieldSupportedValues, std::default_delete<C2FieldSupportedValues> > &&",
   "referenced_type" : "_ZTINSt3__110unique_ptrI22C2FieldSupportedValuesNS_14default_deleteIS1_EEEE",
   "self_type" : "_ZTIONSt3__110unique_ptrI22C2FieldSupportedValuesNS_14default_deleteIS1_EEEE",
   "size" : 4,
   "source_file" : "/frameworks/av/media/codec2/core/include/C2Param.h"
  },
  {
   "alignment" : 4,
   "linker_set_key" : "_ZTIONSt3__112basic_stringIcNS_11char_traitsIcEENS_9allocatorIcEEEE",
   "name" : "std::basic_string<char, std::char_traits<char>, std::allocator<char> > &&",
   "referenced_type" : "_ZTINSt3__112basic_stringIcNS_11char_traitsIcEENS_9allocatorIcEEEE",
   "self_type" : "_ZTIONSt3__112basic_stringIcNS_11char_traitsIcEENS_9allocatorIcEEEE",
   "size" : 4,
   "source_file" : "/frameworks/av/media/codec2/core/include/C2Param.h"
  },
  {
   "alignment" : 4,
   "linker_set_key" : "_ZTIONSt3__16vectorI17C2FieldDescriptorNS_9allocatorIS1_EEEE",
   "name" : "std::vector<C2FieldDescriptor, std::allocator<C2FieldDescriptor> > &&",
   "referenced_type" : "_ZTINSt3__16vectorI17C2FieldDescriptorNS_9allocatorIS1_EEEE",
   "self_type" : "_ZTIONSt3__16vectorI17C2FieldDescriptorNS_9allocatorIS1_EEEE",
   "size" : 4,
   "source_file" : "/frameworks/av/media/codec2/core/include/C2Param.h"
  },
  {
   "alignment" : 4,
   "linker_set_key" : "_ZTIONSt3__16vectorIN7C2Param5IndexENS_9allocatorIS2_EEEE",
   "name" : "std::vector<C2Param::Index, std::allocator<C2Param::Index> > &&",
   "referenced_type" : "_ZTINSt3__16vectorIN7C2Param5IndexENS_9allocatorIS2_EEEE",
   "self_type" : "_ZTIONSt3__16vectorIN7C2Param5IndexENS_9allocatorIS2_EEEE",
   "size" : 4,
   "source_file" : "/frameworks/av/media/codec2/core/include/C2Param.h"
  }
 ]
}
