{
 "record_types":[
  {
   "vtable_components":[
    {
     "kind":"vbase_offset",
     "component_value":8
    },
    {
     "kind":"offset_to_top"
    },
    {
     "kind":"rtti",
     "mangled_component_name":"_ZTIN7android8hardware7thermal4V1_08IThermalE"
    },
    {
     "mangled_component_name":"_ZNK7android8hardware7thermal4V1_08IThermal8isRemoteEv"
    },
    {
     "mangled_component_name":"_ZN7android8hardware7thermal4V1_08IThermal14interfaceChainENSt3__18functionIFvRKNS0_8hidl_vecINS0_11hidl_stringEEEEEE"
    },
    {
     "mangled_component_name":"_ZN7android8hardware7thermal4V1_08IThermal5debugERKNS0_11hidl_handleERKNS0_8hidl_vecINS0_11hidl_stringEEE"
    },
    {
     "mangled_component_name":"_ZN7android8hardware7thermal4V1_08IThermal19interfaceDescriptorENSt3__18functionIFvRKNS0_11hidl_stringEEEE"
    },
    {
     "mangled_component_name":"_ZN7android8hardware7thermal4V1_08IThermal12getHashChainENSt3__18functionIFvRKNS0_8hidl_vecINS0_10hidl_arrayIhLm32EJEEEEEEEE"
    },
    {
     "mangled_component_name":"_ZN7android8hardware7thermal4V1_08IThermal21setHALInstrumentationEv"
    },
    {
     "mangled_component_name":"_ZN7android8hardware7thermal4V1_08IThermal11linkToDeathERKNS_2spINS0_20hidl_death_recipientEEEm"
    },
    {
     "mangled_component_name":"_ZN7android8hardware7thermal4V1_08IThermal4pingEv"
    },
    {
     "mangled_component_name":"_ZN7android8hardware7thermal4V1_08IThermal12getDebugInfoENSt3__18functionIFvRKNS_4hidl4base4V1_09DebugInfoEEEE"
    },
    {
     "mangled_component_name":"_ZN7android8hardware7thermal4V1_08IThermal21notifySyspropsChangedEv"
    },
    {
     "mangled_component_name":"_ZN7android8hardware7thermal4V1_08IThermal13unlinkToDeathERKNS_2spINS0_20hidl_death_recipientEEE"
    },
    {
     "kind":"complete_dtor_pointer",
     "mangled_component_name":"_ZN7android8hardware7thermal4V1_08IThermalD1Ev"
    },
    {
     "kind":"deleting_dtor_pointer",
     "mangled_component_name":"_ZN7android8hardware7thermal4V1_08IThermalD0Ev"
    },
    {
     "is_pure":true,
     "mangled_component_name":"_ZN7android8hardware7thermal4V1_08IThermal15getTemperaturesENSt3__18functionIFvRKNS2_13ThermalStatusERKNS0_8hidl_vecINS2_11TemperatureEEEEEE"
    },
    {
     "is_pure":true,
     "mangled_component_name":"_ZN7android8hardware7thermal4V1_08IThermal12getCpuUsagesENSt3__18functionIFvRKNS2_13ThermalStatusERKNS0_8hidl_vecINS2_8CpuUsageEEEEEE"
    },
    {
     "is_pure":true,
     "mangled_component_name":"_ZN7android8hardware7thermal4V1_08IThermal17getCoolingDevicesENSt3__18functionIFvRKNS2_13ThermalStatusERKNS0_8hidl_vecINS2_13CoolingDeviceEEEEEE"
    },
    {
     "kind":"vcall_offset"
    },
    {
     "kind":"vcall_offset"
    },
    {
     "kind":"vcall_offset"
    },
    {
     "kind":"vcall_offset"
    },
    {
     "kind":"vcall_offset",
     "component_value":-8
    },
    {
     "kind":"offset_to_top",
     "component_value":-8
    },
    {
     "kind":"rtti",
     "mangled_component_name":"_ZTIN7android8hardware7thermal4V1_08IThermalE"
    },
    {
     "kind":"complete_dtor_pointer",
     "mangled_component_name":"_ZTv0_n24_N7android8hardware7thermal4V1_08IThermalD1Ev"
    },
    {
     "kind":"deleting_dtor_pointer",
     "mangled_component_name":"_ZTv0_n24_N7android8hardware7thermal4V1_08IThermalD0Ev"
    },
    {
     "mangled_component_name":"_ZN7android7RefBase10onFirstRefEv"
    },
    {
     "mangled_component_name":"_ZN7android7RefBase15onLastStrongRefEPKv"
    },
    {
     "mangled_component_name":"_ZN7android7RefBase20onIncStrongAttemptedEjPKv"
    },
    {
     "mangled_component_name":"_ZN7android7RefBase13onLastWeakRefEPKv"
    }
   ],
   "unique_id":"_ZTSN7android8hardware7thermal4V1_08IThermalE"
  },
  {
   "vtable_components":[
    {
     "kind":"vbase_offset",
     "component_value":136
    },
    {
     "kind":"offset_to_top"
    },
    {
     "kind":"rtti",
     "mangled_component_name":"_ZTIN7android8hardware7thermal4V1_011BnHwThermalE"
    },
    {
     "mangled_component_name":"_ZN7android8hardware9BHwBinder8transactEjRKNS0_6ParcelEPS2_jNSt3__18functionIFvRS2_EEE"
    },
    {
     "mangled_component_name":"_ZN7android8hardware9BHwBinder11linkToDeathERKNS_2spINS0_7IBinder14DeathRecipientEEEPvj"
    },
    {
     "mangled_component_name":"_ZN7android8hardware9BHwBinder13unlinkToDeathERKNS_2wpINS0_7IBinder14DeathRecipientEEEPvjPS5_"
    },
    {
     "mangled_component_name":"_ZNK7android8hardware7IBinder13checkSubclassEPKv"
    },
    {
     "mangled_component_name":"_ZN7android8hardware9BHwBinder12attachObjectEPKvPvS4_PFvS3_S4_S4_E"
    },
    {
     "mangled_component_name":"_ZNK7android8hardware9BHwBinder10findObjectEPKv"
    },
    {
     "mangled_component_name":"_ZN7android8hardware9BHwBinder12detachObjectEPKv"
    },
    {
     "mangled_component_name":"_ZN7android8hardware9BHwBinder11localBinderEv"
    },
    {
     "mangled_component_name":"_ZN7android8hardware7IBinder12remoteBinderEv"
    },
    {
     "kind":"complete_dtor_pointer",
     "mangled_component_name":"_ZN7android8hardware7thermal4V1_011BnHwThermalD1Ev"
    },
    {
     "kind":"deleting_dtor_pointer",
     "mangled_component_name":"_ZN7android8hardware7thermal4V1_011BnHwThermalD0Ev"
    },
    {
     "mangled_component_name":"_ZN7android8hardware7thermal4V1_011BnHwThermal10onTransactEjRKNS0_6ParcelEPS4_jNSt3__18functionIFvRS4_EEE"
    },
    {
     "kind":"offset_to_top",
     "component_value":-32
    },
    {
     "kind":"rtti",
     "mangled_component_name":"_ZTIN7android8hardware7thermal4V1_011BnHwThermalE"
    },
    {
     "kind":"complete_dtor_pointer",
     "mangled_component_name":"_ZThn32_N7android8hardware7thermal4V1_011BnHwThermalD1Ev"
    },
    {
     "kind":"deleting_dtor_pointer",
     "mangled_component_name":"_ZThn32_N7android8hardware7thermal4V1_011BnHwThermalD0Ev"
    },
    {
     "kind":"vcall_offset"
    },
    {
     "kind":"vcall_offset"
    },
    {
     "kind":"vcall_offset"
    },
    {
     "kind":"vcall_offset"
    },
    {
     "kind":"vcall_offset",
     "component_value":-136
    },
    {
     "kind":"offset_to_top",
     "component_value":-136
    },
    {
     "kind":"rtti",
     "mangled_component_name":"_ZTIN7android8hardware7thermal4V1_011BnHwThermalE"
    },
    {
     "kind":"complete_dtor_pointer",
     "mangled_component_name":"_ZTv0_n24_N7android8hardware7thermal4V1_011BnHwThermalD1Ev"
    },
    {
     "kind":"deleting_dtor_pointer",
     "mangled_component_name":"_ZTv0_n24_N7android8hardware7thermal4V1_011BnHwThermalD0Ev"
    },
    {
     "mangled_component_name":"_ZN7android7RefBase10onFirstRefEv"
    },
    {
     "mangled_component_name":"_ZN7android7RefBase15onLastStrongRefEPKv"
    },
    {
     "mangled_component_name":"_ZN7android7RefBase20onIncStrongAttemptedEjPKv"
    },
    {
     "mangled_component_name":"_ZN7android7RefBase13onLastWeakRefEPKv"
    }
   ],
   "unique_id":"_ZTSN7android8hardware7thermal4V1_011BnHwThermalE"
  },
  {
   "vtable_components":[
    {
     "kind":"vbase_offset",
     "component_value":200
    },
    {
     "kind":"offset_to_top"
    },
    {
     "kind":"rtti",
     "mangled_component_name":"_ZTIN7android8hardware7thermal4V1_011BpHwThermalE"
    },
    {
     "mangled_component_name":"_ZNK7android8hardware7thermal4V1_011BpHwThermal8isRemoteEv"
    },
    {
     "mangled_component_name":"_ZN7android8hardware7thermal4V1_011BpHwThermal14interfaceChainENSt3__18functionIFvRKNS0_8hidl_vecINS0_11hidl_stringEEEEEE"
    },
    {
     "mangled_component_name":"_ZN7android8hardware7thermal4V1_011BpHwThermal5debugERKNS0_11hidl_handleERKNS0_8hidl_vecINS0_11hidl_stringEEE"
    },
    {
     "mangled_component_name":"_ZN7android8hardware7thermal4V1_011BpHwThermal19interfaceDescriptorENSt3__18functionIFvRKNS0_11hidl_stringEEEE"
    },
    {
     "mangled_component_name":"_ZN7android8hardware7thermal4V1_011BpHwThermal12getHashChainENSt3__18functionIFvRKNS0_8hidl_vecINS0_10hidl_arrayIhLm32EJEEEEEEEE"
    },
    {
     "mangled_component_name":"_ZN7android8hardware7thermal4V1_011BpHwThermal21setHALInstrumentationEv"
    },
    {
     "mangled_component_name":"_ZN7android8hardware7thermal4V1_011BpHwThermal11linkToDeathERKNS_2spINS0_20hidl_death_recipientEEEm"
    },
    {
     "mangled_component_name":"_ZN7android8hardware7thermal4V1_011BpHwThermal4pingEv"
    },
    {
     "mangled_component_name":"_ZN7android8hardware7thermal4V1_011BpHwThermal12getDebugInfoENSt3__18functionIFvRKNS_4hidl4base4V1_09DebugInfoEEEE"
    },
    {
     "mangled_component_name":"_ZN7android8hardware7thermal4V1_011BpHwThermal21notifySyspropsChangedEv"
    },
    {
     "mangled_component_name":"_ZN7android8hardware7thermal4V1_011BpHwThermal13unlinkToDeathERKNS_2spINS0_20hidl_death_recipientEEE"
    },
    {
     "kind":"complete_dtor_pointer",
     "mangled_component_name":"_ZN7android8hardware7thermal4V1_011BpHwThermalD1Ev"
    },
    {
     "kind":"deleting_dtor_pointer",
     "mangled_component_name":"_ZN7android8hardware7thermal4V1_011BpHwThermalD0Ev"
    },
    {
     "mangled_component_name":"_ZN7android8hardware7thermal4V1_011BpHwThermal15getTemperaturesENSt3__18functionIFvRKNS2_13ThermalStatusERKNS0_8hidl_vecINS2_11TemperatureEEEEEE"
    },
    {
     "mangled_component_name":"_ZN7android8hardware7thermal4V1_011BpHwThermal12getCpuUsagesENSt3__18functionIFvRKNS2_13ThermalStatusERKNS0_8hidl_vecINS2_8CpuUsageEEEEEE"
    },
    {
     "mangled_component_name":"_ZN7android8hardware7thermal4V1_011BpHwThermal17getCoolingDevicesENSt3__18functionIFvRKNS2_13ThermalStatusERKNS0_8hidl_vecINS2_13CoolingDeviceEEEEEE"
    },
    {
     "mangled_component_name":"_ZN7android8hardware11BpInterfaceINS0_7thermal4V1_08IThermalEE10onAsBinderEv"
    },
    {
     "kind":"vbase_offset",
     "component_value":192
    },
    {
     "kind":"offset_to_top",
     "component_value":-8
    },
    {
     "kind":"rtti",
     "mangled_component_name":"_ZTIN7android8hardware7thermal4V1_011BpHwThermalE"
    },
    {
     "kind":"complete_dtor_pointer",
     "mangled_component_name":"_ZThn8_N7android8hardware7thermal4V1_011BpHwThermalD1Ev"
    },
    {
     "kind":"deleting_dtor_pointer",
     "mangled_component_name":"_ZThn8_N7android8hardware7thermal4V1_011BpHwThermalD0Ev"
    },
    {
     "mangled_component_name":"_ZThn8_N7android8hardware11BpInterfaceINS0_7thermal4V1_08IThermalEE10onAsBinderEv"
    },
    {
     "kind":"vbase_offset",
     "component_value":184
    },
    {
     "kind":"offset_to_top",
     "component_value":-16
    },
    {
     "kind":"rtti",
     "mangled_component_name":"_ZTIN7android8hardware7thermal4V1_011BpHwThermalE"
    },
    {
     "kind":"complete_dtor_pointer",
     "mangled_component_name":"_ZThn16_N7android8hardware7thermal4V1_011BpHwThermalD1Ev"
    },
    {
     "kind":"deleting_dtor_pointer",
     "mangled_component_name":"_ZThn16_N7android8hardware7thermal4V1_011BpHwThermalD0Ev"
    },
    {
     "mangled_component_name":"_ZN7android8hardware11BpHwRefBase10onFirstRefEv"
    },
    {
     "mangled_component_name":"_ZN7android8hardware11BpHwRefBase15onLastStrongRefEPKv"
    },
    {
     "mangled_component_name":"_ZN7android8hardware11BpHwRefBase20onIncStrongAttemptedEjPKv"
    },
    {
     "kind":"offset_to_top",
     "component_value":-48
    },
    {
     "kind":"rtti",
     "mangled_component_name":"_ZTIN7android8hardware7thermal4V1_011BpHwThermalE"
    },
    {
     "kind":"complete_dtor_pointer",
     "mangled_component_name":"_ZThn48_N7android8hardware7thermal4V1_011BpHwThermalD1Ev"
    },
    {
     "kind":"deleting_dtor_pointer",
     "mangled_component_name":"_ZThn48_N7android8hardware7thermal4V1_011BpHwThermalD0Ev"
    },
    {
     "kind":"vcall_offset"
    },
    {
     "kind":"vcall_offset",
     "component_value":-184
    },
    {
     "kind":"vcall_offset",
     "component_value":-184
    },
    {
     "kind":"vcall_offset",
     "component_value":-184
    },
    {
     "kind":"vcall_offset",
     "component_value":-200
    },
    {
     "kind":"offset_to_top",
     "component_value":-200
    },
    {
     "kind":"rtti",
     "mangled_component_name":"_ZTIN7android8hardware7thermal4V1_011BpHwThermalE"
    },
    {
     "kind":"complete_dtor_pointer",
     "mangled_component_name":"_ZTv0_n24_N7android8hardware7thermal4V1_011BpHwThermalD1Ev"
    },
    {
     "kind":"deleting_dtor_pointer",
     "mangled_component_name":"_ZTv0_n24_N7android8hardware7thermal4V1_011BpHwThermalD0Ev"
    },
    {
     "mangled_component_name":"_ZTv0_n32_N7android8hardware11BpHwRefBase10onFirstRefEv"
    },
    {
     "mangled_component_name":"_ZTv0_n40_N7android8hardware11BpHwRefBase15onLastStrongRefEPKv"
    },
    {
     "mangled_component_name":"_ZTv0_n48_N7android8hardware11BpHwRefBase20onIncStrongAttemptedEjPKv"
    },
    {
     "mangled_component_name":"_ZN7android7RefBase13onLastWeakRefEPKv"
    }
   ],
   "unique_id":"_ZTSN7android8hardware7thermal4V1_011BpHwThermalE"
  },
  {
   "vtable_components":[
    {
     "kind":"vbase_offset",
     "component_value":120
    },
    {
     "kind":"offset_to_top"
    },
    {
     "kind":"rtti",
     "mangled_component_name":"_ZTIN7android8hardware7thermal4V1_09BsThermalE"
    },
    {
     "mangled_component_name":"_ZNK7android8hardware7thermal4V1_08IThermal8isRemoteEv"
    },
    {
     "mangled_component_name":"_ZN7android8hardware7thermal4V1_09BsThermal14interfaceChainENSt3__18functionIFvRKNS0_8hidl_vecINS0_11hidl_stringEEEEEE"
    },
    {
     "mangled_component_name":"_ZN7android8hardware7thermal4V1_09BsThermal5debugERKNS0_11hidl_handleERKNS0_8hidl_vecINS0_11hidl_stringEEE"
    },
    {
     "mangled_component_name":"_ZN7android8hardware7thermal4V1_09BsThermal19interfaceDescriptorENSt3__18functionIFvRKNS0_11hidl_stringEEEE"
    },
    {
     "mangled_component_name":"_ZN7android8hardware7thermal4V1_09BsThermal12getHashChainENSt3__18functionIFvRKNS0_8hidl_vecINS0_10hidl_arrayIhLm32EJEEEEEEEE"
    },
    {
     "mangled_component_name":"_ZN7android8hardware7thermal4V1_09BsThermal21setHALInstrumentationEv"
    },
    {
     "mangled_component_name":"_ZN7android8hardware7thermal4V1_09BsThermal11linkToDeathERKNS_2spINS0_20hidl_death_recipientEEEm"
    },
    {
     "mangled_component_name":"_ZN7android8hardware7thermal4V1_09BsThermal4pingEv"
    },
    {
     "mangled_component_name":"_ZN7android8hardware7thermal4V1_09BsThermal12getDebugInfoENSt3__18functionIFvRKNS_4hidl4base4V1_09DebugInfoEEEE"
    },
    {
     "mangled_component_name":"_ZN7android8hardware7thermal4V1_09BsThermal21notifySyspropsChangedEv"
    },
    {
     "mangled_component_name":"_ZN7android8hardware7thermal4V1_09BsThermal13unlinkToDeathERKNS_2spINS0_20hidl_death_recipientEEE"
    },
    {
     "kind":"complete_dtor_pointer",
     "mangled_component_name":"_ZN7android8hardware7thermal4V1_09BsThermalD1Ev"
    },
    {
     "kind":"deleting_dtor_pointer",
     "mangled_component_name":"_ZN7android8hardware7thermal4V1_09BsThermalD0Ev"
    },
    {
     "mangled_component_name":"_ZN7android8hardware7thermal4V1_09BsThermal15getTemperaturesENSt3__18functionIFvRKNS2_13ThermalStatusERKNS0_8hidl_vecINS2_11TemperatureEEEEEE"
    },
    {
     "mangled_component_name":"_ZN7android8hardware7thermal4V1_09BsThermal12getCpuUsagesENSt3__18functionIFvRKNS2_13ThermalStatusERKNS0_8hidl_vecINS2_8CpuUsageEEEEEE"
    },
    {
     "mangled_component_name":"_ZN7android8hardware7thermal4V1_09BsThermal17getCoolingDevicesENSt3__18functionIFvRKNS2_13ThermalStatusERKNS0_8hidl_vecINS2_13CoolingDeviceEEEEEE"
    },
    {
     "kind":"offset_to_top",
     "component_value":-8
    },
    {
     "kind":"rtti",
     "mangled_component_name":"_ZTIN7android8hardware7thermal4V1_09BsThermalE"
    },
    {
     "kind":"complete_dtor_pointer",
     "mangled_component_name":"_ZThn8_N7android8hardware7thermal4V1_09BsThermalD1Ev"
    },
    {
     "kind":"deleting_dtor_pointer",
     "mangled_component_name":"_ZThn8_N7android8hardware7thermal4V1_09BsThermalD0Ev"
    },
    {
     "kind":"vcall_offset"
    },
    {
     "kind":"vcall_offset"
    },
    {
     "kind":"vcall_offset"
    },
    {
     "kind":"vcall_offset"
    },
    {
     "kind":"vcall_offset",
     "component_value":-120
    },
    {
     "kind":"offset_to_top",
     "component_value":-120
    },
    {
     "kind":"rtti",
     "mangled_component_name":"_ZTIN7android8hardware7thermal4V1_09BsThermalE"
    },
    {
     "kind":"complete_dtor_pointer",
     "mangled_component_name":"_ZTv0_n24_N7android8hardware7thermal4V1_09BsThermalD1Ev"
    },
    {
     "kind":"deleting_dtor_pointer",
     "mangled_component_name":"_ZTv0_n24_N7android8hardware7thermal4V1_09BsThermalD0Ev"
    },
    {
     "mangled_component_name":"_ZN7android7RefBase10onFirstRefEv"
    },
    {
     "mangled_component_name":"_ZN7android7RefBase15onLastStrongRefEPKv"
    },
    {
     "mangled_component_name":"_ZN7android7RefBase20onIncStrongAttemptedEjPKv"
    },
    {
     "mangled_component_name":"_ZN7android7RefBase13onLastWeakRefEPKv"
    }
   ],
   "unique_id":"_ZTSN7android8hardware7thermal4V1_09BsThermalE"
  }
 ],
 "elf_functions":[
  {
   "binding":"weak",
   "name":"_ZN7android8hardware7details13castInterfaceINS0_7thermal4V1_08IThermalENS_4hidl4base4V1_05IBaseENS4_11BpHwThermalEEENS0_6ReturnINS_2spIT_EEEENSC_IT0_EEPKcb"
  },
  {
   "binding":"weak",
   "name":"_ZN7android8hardware7details18getServiceInternalINS0_7thermal4V1_011BpHwThermalENS4_8IThermalEvvEENS_2spIT0_EERKNSt3__112basic_stringIcNSA_11char_traitsIcEENSA_9allocatorIcEEEEbb"
  },
  {
   "name":"_ZN7android8hardware7thermal4V1_011BnHwThermal10onTransactEjRKNS0_6ParcelEPS4_jNSt3__18functionIFvRS4_EEE"
  },
  {
   "name":"_ZN7android8hardware7thermal4V1_011BnHwThermal12getDebugInfoENSt3__18functionIFvRKNS_4hidl4base4V1_09DebugInfoEEEE"
  },
  {
   "name":"_ZN7android8hardware7thermal4V1_011BnHwThermal18_hidl_getCpuUsagesEPNS_4hidl4base4V1_08BnHwBaseERKNS0_6ParcelEPS9_NSt3__18functionIFvRS9_EEE"
  },
  {
   "name":"_ZN7android8hardware7thermal4V1_011BnHwThermal21_hidl_getTemperaturesEPNS_4hidl4base4V1_08BnHwBaseERKNS0_6ParcelEPS9_NSt3__18functionIFvRS9_EEE"
  },
  {
   "name":"_ZN7android8hardware7thermal4V1_011BnHwThermal23_hidl_getCoolingDevicesEPNS_4hidl4base4V1_08BnHwBaseERKNS0_6ParcelEPS9_NSt3__18functionIFvRS9_EEE"
  },
  {
   "name":"_ZN7android8hardware7thermal4V1_011BnHwThermal4pingEv"
  },
  {
   "name":"_ZN7android8hardware7thermal4V1_011BnHwThermalC1ERKNS_2spINS2_8IThermalEEE"
  },
  {
   "name":"_ZN7android8hardware7thermal4V1_011BnHwThermalC2ERKNS_2spINS2_8IThermalEEE"
  },
  {
   "name":"_ZN7android8hardware7thermal4V1_011BnHwThermalD0Ev"
  },
  {
   "name":"_ZN7android8hardware7thermal4V1_011BnHwThermalD1Ev"
  },
  {
   "name":"_ZN7android8hardware7thermal4V1_011BnHwThermalD2Ev"
  },
  {
   "name":"_ZN7android8hardware7thermal4V1_011BpHwThermal11linkToDeathERKNS_2spINS0_20hidl_death_recipientEEEm"
  },
  {
   "name":"_ZN7android8hardware7thermal4V1_011BpHwThermal12getCpuUsagesENSt3__18functionIFvRKNS2_13ThermalStatusERKNS0_8hidl_vecINS2_8CpuUsageEEEEEE"
  },
  {
   "name":"_ZN7android8hardware7thermal4V1_011BpHwThermal12getDebugInfoENSt3__18functionIFvRKNS_4hidl4base4V1_09DebugInfoEEEE"
  },
  {
   "name":"_ZN7android8hardware7thermal4V1_011BpHwThermal12getHashChainENSt3__18functionIFvRKNS0_8hidl_vecINS0_10hidl_arrayIhLm32EJEEEEEEEE"
  },
  {
   "name":"_ZN7android8hardware7thermal4V1_011BpHwThermal13unlinkToDeathERKNS_2spINS0_20hidl_death_recipientEEE"
  },
  {
   "name":"_ZN7android8hardware7thermal4V1_011BpHwThermal14interfaceChainENSt3__18functionIFvRKNS0_8hidl_vecINS0_11hidl_stringEEEEEE"
  },
  {
   "name":"_ZN7android8hardware7thermal4V1_011BpHwThermal15getTemperaturesENSt3__18functionIFvRKNS2_13ThermalStatusERKNS0_8hidl_vecINS2_11TemperatureEEEEEE"
  },
  {
   "name":"_ZN7android8hardware7thermal4V1_011BpHwThermal17getCoolingDevicesENSt3__18functionIFvRKNS2_13ThermalStatusERKNS0_8hidl_vecINS2_13CoolingDeviceEEEEEE"
  },
  {
   "name":"_ZN7android8hardware7thermal4V1_011BpHwThermal18_hidl_getCpuUsagesEPNS0_10IInterfaceEPNS0_7details16HidlInstrumentorENSt3__18functionIFvRKNS2_13ThermalStatusERKNS0_8hidl_vecINS2_8CpuUsageEEEEEE"
  },
  {
   "name":"_ZN7android8hardware7thermal4V1_011BpHwThermal19interfaceDescriptorENSt3__18functionIFvRKNS0_11hidl_stringEEEE"
  },
  {
   "name":"_ZN7android8hardware7thermal4V1_011BpHwThermal21_hidl_getTemperaturesEPNS0_10IInterfaceEPNS0_7details16HidlInstrumentorENSt3__18functionIFvRKNS2_13ThermalStatusERKNS0_8hidl_vecINS2_11TemperatureEEEEEE"
  },
  {
   "name":"_ZN7android8hardware7thermal4V1_011BpHwThermal21notifySyspropsChangedEv"
  },
  {
   "name":"_ZN7android8hardware7thermal4V1_011BpHwThermal21setHALInstrumentationEv"
  },
  {
   "name":"_ZN7android8hardware7thermal4V1_011BpHwThermal23_hidl_getCoolingDevicesEPNS0_10IInterfaceEPNS0_7details16HidlInstrumentorENSt3__18functionIFvRKNS2_13ThermalStatusERKNS0_8hidl_vecINS2_13CoolingDeviceEEEEEE"
  },
  {
   "name":"_ZN7android8hardware7thermal4V1_011BpHwThermal4pingEv"
  },
  {
   "name":"_ZN7android8hardware7thermal4V1_011BpHwThermal5debugERKNS0_11hidl_handleERKNS0_8hidl_vecINS0_11hidl_stringEEE"
  },
  {
   "name":"_ZN7android8hardware7thermal4V1_011BpHwThermalC1ERKNS_2spINS0_7IBinderEEE"
  },
  {
   "name":"_ZN7android8hardware7thermal4V1_011BpHwThermalC2ERKNS_2spINS0_7IBinderEEE"
  },
  {
   "name":"_ZN7android8hardware7thermal4V1_021writeEmbeddedToParcelERKNS2_11TemperatureEPNS0_6ParcelEmm"
  },
  {
   "name":"_ZN7android8hardware7thermal4V1_021writeEmbeddedToParcelERKNS2_13CoolingDeviceEPNS0_6ParcelEmm"
  },
  {
   "name":"_ZN7android8hardware7thermal4V1_021writeEmbeddedToParcelERKNS2_13ThermalStatusEPNS0_6ParcelEmm"
  },
  {
   "name":"_ZN7android8hardware7thermal4V1_021writeEmbeddedToParcelERKNS2_8CpuUsageEPNS0_6ParcelEmm"
  },
  {
   "name":"_ZN7android8hardware7thermal4V1_022readEmbeddedFromParcelERKNS2_11TemperatureERKNS0_6ParcelEmm"
  },
  {
   "name":"_ZN7android8hardware7thermal4V1_022readEmbeddedFromParcelERKNS2_13CoolingDeviceERKNS0_6ParcelEmm"
  },
  {
   "name":"_ZN7android8hardware7thermal4V1_022readEmbeddedFromParcelERKNS2_13ThermalStatusERKNS0_6ParcelEmm"
  },
  {
   "name":"_ZN7android8hardware7thermal4V1_022readEmbeddedFromParcelERKNS2_8CpuUsageERKNS0_6ParcelEmm"
  },
  {
   "name":"_ZN7android8hardware7thermal4V1_08IThermal10getServiceERKNSt3__112basic_stringIcNS4_11char_traitsIcEENS4_9allocatorIcEEEEb"
  },
  {
   "name":"_ZN7android8hardware7thermal4V1_08IThermal11linkToDeathERKNS_2spINS0_20hidl_death_recipientEEEm"
  },
  {
   "name":"_ZN7android8hardware7thermal4V1_08IThermal12getDebugInfoENSt3__18functionIFvRKNS_4hidl4base4V1_09DebugInfoEEEE"
  },
  {
   "name":"_ZN7android8hardware7thermal4V1_08IThermal12getHashChainENSt3__18functionIFvRKNS0_8hidl_vecINS0_10hidl_arrayIhLm32EJEEEEEEEE"
  },
  {
   "name":"_ZN7android8hardware7thermal4V1_08IThermal13tryGetServiceERKNSt3__112basic_stringIcNS4_11char_traitsIcEENS4_9allocatorIcEEEEb"
  },
  {
   "name":"_ZN7android8hardware7thermal4V1_08IThermal13unlinkToDeathERKNS_2spINS0_20hidl_death_recipientEEE"
  },
  {
   "name":"_ZN7android8hardware7thermal4V1_08IThermal14interfaceChainENSt3__18functionIFvRKNS0_8hidl_vecINS0_11hidl_stringEEEEEE"
  },
  {
   "name":"_ZN7android8hardware7thermal4V1_08IThermal17registerAsServiceERKNSt3__112basic_stringIcNS4_11char_traitsIcEENS4_9allocatorIcEEEE"
  },
  {
   "name":"_ZN7android8hardware7thermal4V1_08IThermal19interfaceDescriptorENSt3__18functionIFvRKNS0_11hidl_stringEEEE"
  },
  {
   "name":"_ZN7android8hardware7thermal4V1_08IThermal21notifySyspropsChangedEv"
  },
  {
   "name":"_ZN7android8hardware7thermal4V1_08IThermal21setHALInstrumentationEv"
  },
  {
   "name":"_ZN7android8hardware7thermal4V1_08IThermal24registerForNotificationsERKNSt3__112basic_stringIcNS4_11char_traitsIcEENS4_9allocatorIcEEEERKNS_2spINS_4hidl7manager4V1_020IServiceNotificationEEE"
  },
  {
   "name":"_ZN7android8hardware7thermal4V1_08IThermal4pingEv"
  },
  {
   "name":"_ZN7android8hardware7thermal4V1_08IThermal5debugERKNS0_11hidl_handleERKNS0_8hidl_vecINS0_11hidl_stringEEE"
  },
  {
   "name":"_ZN7android8hardware7thermal4V1_08IThermal8castFromERKNS_2spINS_4hidl4base4V1_05IBaseEEEb"
  },
  {
   "name":"_ZN7android8hardware7thermal4V1_08IThermal8castFromERKNS_2spIS3_EEb"
  },
  {
   "name":"_ZN7android8hardware7thermal4V1_09BsThermal13addOnewayTaskENSt3__18functionIFvvEEE"
  },
  {
   "name":"_ZN7android8hardware7thermal4V1_09BsThermalC1ENS_2spINS2_8IThermalEEE"
  },
  {
   "name":"_ZN7android8hardware7thermal4V1_09BsThermalC2ENS_2spINS2_8IThermalEEE"
  },
  {
   "binding":"weak",
   "name":"_ZN7android8hardware8toBinderINS_4hidl4base4V1_05IBaseEvEENS_2spINS0_7IBinderEEENS6_IT_EE"
  },
  {
   "name":"_ZThn32_N7android8hardware7thermal4V1_011BnHwThermalD0Ev"
  },
  {
   "name":"_ZThn32_N7android8hardware7thermal4V1_011BnHwThermalD1Ev"
  },
  {
   "name":"_ZTv0_n24_N7android8hardware7thermal4V1_011BnHwThermalD0Ev"
  },
  {
   "name":"_ZTv0_n24_N7android8hardware7thermal4V1_011BnHwThermalD1Ev"
  }
 ],
 "elf_objects":[
  {
   "name":"_ZN7android8hardware7thermal4V1_08IThermal10descriptorE"
  },
  {
   "name":"_ZTTN7android8hardware7thermal4V1_011BnHwThermalE"
  },
  {
   "name":"_ZTTN7android8hardware7thermal4V1_011BpHwThermalE"
  },
  {
   "name":"_ZTTN7android8hardware7thermal4V1_08IThermalE"
  },
  {
   "name":"_ZTVN7android8hardware7thermal4V1_011BnHwThermalE"
  },
  {
   "name":"_ZTVN7android8hardware7thermal4V1_011BpHwThermalE"
  },
  {
   "name":"_ZTVN7android8hardware7thermal4V1_08IThermalE"
  },
  {
   "binding":"weak",
   "name":"_ZTVN7android8hardware7thermal4V1_09BsThermalE"
  }
 ]
}