{
 "record_types":[
  {
   "vtable_components":[
    {
     "kind":"vbase_offset",
     "component_value":136
    },
    {
     "kind":"offset_to_top"
    },
    {
     "kind":"rtti",
     "mangled_component_name":"_ZTIN7android8hardware10automotive3evs4V1_014BnHwEvsDisplayE"
    },
    {
     "mangled_component_name":"_ZN7android8hardware9BHwBinder8transactEjRKNS0_6ParcelEPS2_jNSt3__18functionIFvRS2_EEE"
    },
    {
     "mangled_component_name":"_ZN7android8hardware9BHwBinder11linkToDeathERKNS_2spINS0_7IBinder14DeathRecipientEEEPvj"
    },
    {
     "mangled_component_name":"_ZN7android8hardware9BHwBinder13unlinkToDeathERKNS_2wpINS0_7IBinder14DeathRecipientEEEPvjPS5_"
    },
    {
     "mangled_component_name":"_ZNK7android8hardware7IBinder13checkSubclassEPKv"
    },
    {
     "mangled_component_name":"_ZN7android8hardware9BHwBinder12attachObjectEPKvPvS4_PFvS3_S4_S4_E"
    },
    {
     "mangled_component_name":"_ZNK7android8hardware9BHwBinder10findObjectEPKv"
    },
    {
     "mangled_component_name":"_ZN7android8hardware9BHwBinder12detachObjectEPKv"
    },
    {
     "mangled_component_name":"_ZN7android8hardware9BHwBinder11localBinderEv"
    },
    {
     "mangled_component_name":"_ZN7android8hardware7IBinder12remoteBinderEv"
    },
    {
     "kind":"complete_dtor_pointer",
     "mangled_component_name":"_ZN7android8hardware10automotive3evs4V1_014BnHwEvsDisplayD1Ev"
    },
    {
     "kind":"deleting_dtor_pointer",
     "mangled_component_name":"_ZN7android8hardware10automotive3evs4V1_014BnHwEvsDisplayD0Ev"
    },
    {
     "mangled_component_name":"_ZN7android8hardware10automotive3evs4V1_014BnHwEvsDisplay10onTransactEjRKNS0_6ParcelEPS5_jNSt3__18functionIFvRS5_EEE"
    },
    {
     "kind":"offset_to_top",
     "component_value":-32
    },
    {
     "kind":"rtti",
     "mangled_component_name":"_ZTIN7android8hardware10automotive3evs4V1_014BnHwEvsDisplayE"
    },
    {
     "kind":"complete_dtor_pointer",
     "mangled_component_name":"_ZThn32_N7android8hardware10automotive3evs4V1_014BnHwEvsDisplayD1Ev"
    },
    {
     "kind":"deleting_dtor_pointer",
     "mangled_component_name":"_ZThn32_N7android8hardware10automotive3evs4V1_014BnHwEvsDisplayD0Ev"
    },
    {
     "kind":"vcall_offset"
    },
    {
     "kind":"vcall_offset"
    },
    {
     "kind":"vcall_offset"
    },
    {
     "kind":"vcall_offset"
    },
    {
     "kind":"vcall_offset",
     "component_value":-136
    },
    {
     "kind":"offset_to_top",
     "component_value":-136
    },
    {
     "kind":"rtti",
     "mangled_component_name":"_ZTIN7android8hardware10automotive3evs4V1_014BnHwEvsDisplayE"
    },
    {
     "kind":"complete_dtor_pointer",
     "mangled_component_name":"_ZTv0_n24_N7android8hardware10automotive3evs4V1_014BnHwEvsDisplayD1Ev"
    },
    {
     "kind":"deleting_dtor_pointer",
     "mangled_component_name":"_ZTv0_n24_N7android8hardware10automotive3evs4V1_014BnHwEvsDisplayD0Ev"
    },
    {
     "mangled_component_name":"_ZN7android7RefBase10onFirstRefEv"
    },
    {
     "mangled_component_name":"_ZN7android7RefBase15onLastStrongRefEPKv"
    },
    {
     "mangled_component_name":"_ZN7android7RefBase20onIncStrongAttemptedEjPKv"
    },
    {
     "mangled_component_name":"_ZN7android7RefBase13onLastWeakRefEPKv"
    }
   ],
   "unique_id":"_ZTSN7android8hardware10automotive3evs4V1_014BnHwEvsDisplayE"
  },
  {
   "vtable_components":[
    {
     "kind":"vbase_offset",
     "component_value":8
    },
    {
     "kind":"offset_to_top"
    },
    {
     "kind":"rtti",
     "mangled_component_name":"_ZTIN7android8hardware10automotive3evs4V1_011IEvsDisplayE"
    },
    {
     "mangled_component_name":"_ZNK7android8hardware10automotive3evs4V1_011IEvsDisplay8isRemoteEv"
    },
    {
     "mangled_component_name":"_ZN7android8hardware10automotive3evs4V1_011IEvsDisplay14interfaceChainENSt3__18functionIFvRKNS0_8hidl_vecINS0_11hidl_stringEEEEEE"
    },
    {
     "mangled_component_name":"_ZN7android8hardware10automotive3evs4V1_011IEvsDisplay5debugERKNS0_11hidl_handleERKNS0_8hidl_vecINS0_11hidl_stringEEE"
    },
    {
     "mangled_component_name":"_ZN7android8hardware10automotive3evs4V1_011IEvsDisplay19interfaceDescriptorENSt3__18functionIFvRKNS0_11hidl_stringEEEE"
    },
    {
     "mangled_component_name":"_ZN7android8hardware10automotive3evs4V1_011IEvsDisplay12getHashChainENSt3__18functionIFvRKNS0_8hidl_vecINS0_10hidl_arrayIhLm32EJEEEEEEEE"
    },
    {
     "mangled_component_name":"_ZN7android8hardware10automotive3evs4V1_011IEvsDisplay21setHALInstrumentationEv"
    },
    {
     "mangled_component_name":"_ZN7android8hardware10automotive3evs4V1_011IEvsDisplay11linkToDeathERKNS_2spINS0_20hidl_death_recipientEEEm"
    },
    {
     "mangled_component_name":"_ZN7android8hardware10automotive3evs4V1_011IEvsDisplay4pingEv"
    },
    {
     "mangled_component_name":"_ZN7android8hardware10automotive3evs4V1_011IEvsDisplay12getDebugInfoENSt3__18functionIFvRKNS_4hidl4base4V1_09DebugInfoEEEE"
    },
    {
     "mangled_component_name":"_ZN7android8hardware10automotive3evs4V1_011IEvsDisplay21notifySyspropsChangedEv"
    },
    {
     "mangled_component_name":"_ZN7android8hardware10automotive3evs4V1_011IEvsDisplay13unlinkToDeathERKNS_2spINS0_20hidl_death_recipientEEE"
    },
    {
     "kind":"complete_dtor_pointer",
     "mangled_component_name":"_ZN7android8hardware10automotive3evs4V1_011IEvsDisplayD1Ev"
    },
    {
     "kind":"deleting_dtor_pointer",
     "mangled_component_name":"_ZN7android8hardware10automotive3evs4V1_011IEvsDisplayD0Ev"
    },
    {
     "is_pure":true,
     "mangled_component_name":"_ZN7android8hardware10automotive3evs4V1_011IEvsDisplay14getDisplayInfoENSt3__18functionIFvRKNS3_11DisplayDescEEEE"
    },
    {
     "is_pure":true,
     "mangled_component_name":"_ZN7android8hardware10automotive3evs4V1_011IEvsDisplay15setDisplayStateENS3_12DisplayStateE"
    },
    {
     "is_pure":true,
     "mangled_component_name":"_ZN7android8hardware10automotive3evs4V1_011IEvsDisplay15getDisplayStateEv"
    },
    {
     "is_pure":true,
     "mangled_component_name":"_ZN7android8hardware10automotive3evs4V1_011IEvsDisplay15getTargetBufferENSt3__18functionIFvRKNS3_10BufferDescEEEE"
    },
    {
     "is_pure":true,
     "mangled_component_name":"_ZN7android8hardware10automotive3evs4V1_011IEvsDisplay28returnTargetBufferForDisplayERKNS3_10BufferDescE"
    },
    {
     "kind":"vcall_offset"
    },
    {
     "kind":"vcall_offset"
    },
    {
     "kind":"vcall_offset"
    },
    {
     "kind":"vcall_offset"
    },
    {
     "kind":"vcall_offset",
     "component_value":-8
    },
    {
     "kind":"offset_to_top",
     "component_value":-8
    },
    {
     "kind":"rtti",
     "mangled_component_name":"_ZTIN7android8hardware10automotive3evs4V1_011IEvsDisplayE"
    },
    {
     "kind":"complete_dtor_pointer",
     "mangled_component_name":"_ZTv0_n24_N7android8hardware10automotive3evs4V1_011IEvsDisplayD1Ev"
    },
    {
     "kind":"deleting_dtor_pointer",
     "mangled_component_name":"_ZTv0_n24_N7android8hardware10automotive3evs4V1_011IEvsDisplayD0Ev"
    },
    {
     "mangled_component_name":"_ZN7android7RefBase10onFirstRefEv"
    },
    {
     "mangled_component_name":"_ZN7android7RefBase15onLastStrongRefEPKv"
    },
    {
     "mangled_component_name":"_ZN7android7RefBase20onIncStrongAttemptedEjPKv"
    },
    {
     "mangled_component_name":"_ZN7android7RefBase13onLastWeakRefEPKv"
    }
   ],
   "unique_id":"_ZTSN7android8hardware10automotive3evs4V1_011IEvsDisplayE"
  },
  {
   "vtable_components":[
    {
     "kind":"vbase_offset",
     "component_value":136
    },
    {
     "kind":"offset_to_top"
    },
    {
     "kind":"rtti",
     "mangled_component_name":"_ZTIN7android8hardware10automotive3evs4V1_017BnHwEvsEnumeratorE"
    },
    {
     "mangled_component_name":"_ZN7android8hardware9BHwBinder8transactEjRKNS0_6ParcelEPS2_jNSt3__18functionIFvRS2_EEE"
    },
    {
     "mangled_component_name":"_ZN7android8hardware9BHwBinder11linkToDeathERKNS_2spINS0_7IBinder14DeathRecipientEEEPvj"
    },
    {
     "mangled_component_name":"_ZN7android8hardware9BHwBinder13unlinkToDeathERKNS_2wpINS0_7IBinder14DeathRecipientEEEPvjPS5_"
    },
    {
     "mangled_component_name":"_ZNK7android8hardware7IBinder13checkSubclassEPKv"
    },
    {
     "mangled_component_name":"_ZN7android8hardware9BHwBinder12attachObjectEPKvPvS4_PFvS3_S4_S4_E"
    },
    {
     "mangled_component_name":"_ZNK7android8hardware9BHwBinder10findObjectEPKv"
    },
    {
     "mangled_component_name":"_ZN7android8hardware9BHwBinder12detachObjectEPKv"
    },
    {
     "mangled_component_name":"_ZN7android8hardware9BHwBinder11localBinderEv"
    },
    {
     "mangled_component_name":"_ZN7android8hardware7IBinder12remoteBinderEv"
    },
    {
     "kind":"complete_dtor_pointer",
     "mangled_component_name":"_ZN7android8hardware10automotive3evs4V1_017BnHwEvsEnumeratorD1Ev"
    },
    {
     "kind":"deleting_dtor_pointer",
     "mangled_component_name":"_ZN7android8hardware10automotive3evs4V1_017BnHwEvsEnumeratorD0Ev"
    },
    {
     "mangled_component_name":"_ZN7android8hardware10automotive3evs4V1_017BnHwEvsEnumerator10onTransactEjRKNS0_6ParcelEPS5_jNSt3__18functionIFvRS5_EEE"
    },
    {
     "kind":"offset_to_top",
     "component_value":-32
    },
    {
     "kind":"rtti",
     "mangled_component_name":"_ZTIN7android8hardware10automotive3evs4V1_017BnHwEvsEnumeratorE"
    },
    {
     "kind":"complete_dtor_pointer",
     "mangled_component_name":"_ZThn32_N7android8hardware10automotive3evs4V1_017BnHwEvsEnumeratorD1Ev"
    },
    {
     "kind":"deleting_dtor_pointer",
     "mangled_component_name":"_ZThn32_N7android8hardware10automotive3evs4V1_017BnHwEvsEnumeratorD0Ev"
    },
    {
     "kind":"vcall_offset"
    },
    {
     "kind":"vcall_offset"
    },
    {
     "kind":"vcall_offset"
    },
    {
     "kind":"vcall_offset"
    },
    {
     "kind":"vcall_offset",
     "component_value":-136
    },
    {
     "kind":"offset_to_top",
     "component_value":-136
    },
    {
     "kind":"rtti",
     "mangled_component_name":"_ZTIN7android8hardware10automotive3evs4V1_017BnHwEvsEnumeratorE"
    },
    {
     "kind":"complete_dtor_pointer",
     "mangled_component_name":"_ZTv0_n24_N7android8hardware10automotive3evs4V1_017BnHwEvsEnumeratorD1Ev"
    },
    {
     "kind":"deleting_dtor_pointer",
     "mangled_component_name":"_ZTv0_n24_N7android8hardware10automotive3evs4V1_017BnHwEvsEnumeratorD0Ev"
    },
    {
     "mangled_component_name":"_ZN7android7RefBase10onFirstRefEv"
    },
    {
     "mangled_component_name":"_ZN7android7RefBase15onLastStrongRefEPKv"
    },
    {
     "mangled_component_name":"_ZN7android7RefBase20onIncStrongAttemptedEjPKv"
    },
    {
     "mangled_component_name":"_ZN7android7RefBase13onLastWeakRefEPKv"
    }
   ],
   "unique_id":"_ZTSN7android8hardware10automotive3evs4V1_017BnHwEvsEnumeratorE"
  },
  {
   "vtable_components":[
    {
     "kind":"vbase_offset",
     "component_value":8
    },
    {
     "kind":"offset_to_top"
    },
    {
     "kind":"rtti",
     "mangled_component_name":"_ZTIN7android8hardware10automotive3evs4V1_014IEvsEnumeratorE"
    },
    {
     "mangled_component_name":"_ZNK7android8hardware10automotive3evs4V1_014IEvsEnumerator8isRemoteEv"
    },
    {
     "mangled_component_name":"_ZN7android8hardware10automotive3evs4V1_014IEvsEnumerator14interfaceChainENSt3__18functionIFvRKNS0_8hidl_vecINS0_11hidl_stringEEEEEE"
    },
    {
     "mangled_component_name":"_ZN7android8hardware10automotive3evs4V1_014IEvsEnumerator5debugERKNS0_11hidl_handleERKNS0_8hidl_vecINS0_11hidl_stringEEE"
    },
    {
     "mangled_component_name":"_ZN7android8hardware10automotive3evs4V1_014IEvsEnumerator19interfaceDescriptorENSt3__18functionIFvRKNS0_11hidl_stringEEEE"
    },
    {
     "mangled_component_name":"_ZN7android8hardware10automotive3evs4V1_014IEvsEnumerator12getHashChainENSt3__18functionIFvRKNS0_8hidl_vecINS0_10hidl_arrayIhLm32EJEEEEEEEE"
    },
    {
     "mangled_component_name":"_ZN7android8hardware10automotive3evs4V1_014IEvsEnumerator21setHALInstrumentationEv"
    },
    {
     "mangled_component_name":"_ZN7android8hardware10automotive3evs4V1_014IEvsEnumerator11linkToDeathERKNS_2spINS0_20hidl_death_recipientEEEm"
    },
    {
     "mangled_component_name":"_ZN7android8hardware10automotive3evs4V1_014IEvsEnumerator4pingEv"
    },
    {
     "mangled_component_name":"_ZN7android8hardware10automotive3evs4V1_014IEvsEnumerator12getDebugInfoENSt3__18functionIFvRKNS_4hidl4base4V1_09DebugInfoEEEE"
    },
    {
     "mangled_component_name":"_ZN7android8hardware10automotive3evs4V1_014IEvsEnumerator21notifySyspropsChangedEv"
    },
    {
     "mangled_component_name":"_ZN7android8hardware10automotive3evs4V1_014IEvsEnumerator13unlinkToDeathERKNS_2spINS0_20hidl_death_recipientEEE"
    },
    {
     "kind":"complete_dtor_pointer",
     "mangled_component_name":"_ZN7android8hardware10automotive3evs4V1_014IEvsEnumeratorD1Ev"
    },
    {
     "kind":"deleting_dtor_pointer",
     "mangled_component_name":"_ZN7android8hardware10automotive3evs4V1_014IEvsEnumeratorD0Ev"
    },
    {
     "is_pure":true,
     "mangled_component_name":"_ZN7android8hardware10automotive3evs4V1_014IEvsEnumerator13getCameraListENSt3__18functionIFvRKNS0_8hidl_vecINS3_10CameraDescEEEEEE"
    },
    {
     "is_pure":true,
     "mangled_component_name":"_ZN7android8hardware10automotive3evs4V1_014IEvsEnumerator10openCameraERKNS0_11hidl_stringE"
    },
    {
     "is_pure":true,
     "mangled_component_name":"_ZN7android8hardware10automotive3evs4V1_014IEvsEnumerator11closeCameraERKNS_2spINS3_10IEvsCameraEEE"
    },
    {
     "is_pure":true,
     "mangled_component_name":"_ZN7android8hardware10automotive3evs4V1_014IEvsEnumerator11openDisplayEv"
    },
    {
     "is_pure":true,
     "mangled_component_name":"_ZN7android8hardware10automotive3evs4V1_014IEvsEnumerator12closeDisplayERKNS_2spINS3_11IEvsDisplayEEE"
    },
    {
     "is_pure":true,
     "mangled_component_name":"_ZN7android8hardware10automotive3evs4V1_014IEvsEnumerator15getDisplayStateEv"
    },
    {
     "kind":"vcall_offset"
    },
    {
     "kind":"vcall_offset"
    },
    {
     "kind":"vcall_offset"
    },
    {
     "kind":"vcall_offset"
    },
    {
     "kind":"vcall_offset",
     "component_value":-8
    },
    {
     "kind":"offset_to_top",
     "component_value":-8
    },
    {
     "kind":"rtti",
     "mangled_component_name":"_ZTIN7android8hardware10automotive3evs4V1_014IEvsEnumeratorE"
    },
    {
     "kind":"complete_dtor_pointer",
     "mangled_component_name":"_ZTv0_n24_N7android8hardware10automotive3evs4V1_014IEvsEnumeratorD1Ev"
    },
    {
     "kind":"deleting_dtor_pointer",
     "mangled_component_name":"_ZTv0_n24_N7android8hardware10automotive3evs4V1_014IEvsEnumeratorD0Ev"
    },
    {
     "mangled_component_name":"_ZN7android7RefBase10onFirstRefEv"
    },
    {
     "mangled_component_name":"_ZN7android7RefBase15onLastStrongRefEPKv"
    },
    {
     "mangled_component_name":"_ZN7android7RefBase20onIncStrongAttemptedEjPKv"
    },
    {
     "mangled_component_name":"_ZN7android7RefBase13onLastWeakRefEPKv"
    }
   ],
   "unique_id":"_ZTSN7android8hardware10automotive3evs4V1_014IEvsEnumeratorE"
  },
  {
   "vtable_components":[
    {
     "kind":"vbase_offset",
     "component_value":8
    },
    {
     "kind":"offset_to_top"
    },
    {
     "kind":"rtti",
     "mangled_component_name":"_ZTIN7android8hardware10automotive3evs4V1_010IEvsCameraE"
    },
    {
     "mangled_component_name":"_ZNK7android8hardware10automotive3evs4V1_010IEvsCamera8isRemoteEv"
    },
    {
     "mangled_component_name":"_ZN7android8hardware10automotive3evs4V1_010IEvsCamera14interfaceChainENSt3__18functionIFvRKNS0_8hidl_vecINS0_11hidl_stringEEEEEE"
    },
    {
     "mangled_component_name":"_ZN7android8hardware10automotive3evs4V1_010IEvsCamera5debugERKNS0_11hidl_handleERKNS0_8hidl_vecINS0_11hidl_stringEEE"
    },
    {
     "mangled_component_name":"_ZN7android8hardware10automotive3evs4V1_010IEvsCamera19interfaceDescriptorENSt3__18functionIFvRKNS0_11hidl_stringEEEE"
    },
    {
     "mangled_component_name":"_ZN7android8hardware10automotive3evs4V1_010IEvsCamera12getHashChainENSt3__18functionIFvRKNS0_8hidl_vecINS0_10hidl_arrayIhLm32EJEEEEEEEE"
    },
    {
     "mangled_component_name":"_ZN7android8hardware10automotive3evs4V1_010IEvsCamera21setHALInstrumentationEv"
    },
    {
     "mangled_component_name":"_ZN7android8hardware10automotive3evs4V1_010IEvsCamera11linkToDeathERKNS_2spINS0_20hidl_death_recipientEEEm"
    },
    {
     "mangled_component_name":"_ZN7android8hardware10automotive3evs4V1_010IEvsCamera4pingEv"
    },
    {
     "mangled_component_name":"_ZN7android8hardware10automotive3evs4V1_010IEvsCamera12getDebugInfoENSt3__18functionIFvRKNS_4hidl4base4V1_09DebugInfoEEEE"
    },
    {
     "mangled_component_name":"_ZN7android8hardware10automotive3evs4V1_010IEvsCamera21notifySyspropsChangedEv"
    },
    {
     "mangled_component_name":"_ZN7android8hardware10automotive3evs4V1_010IEvsCamera13unlinkToDeathERKNS_2spINS0_20hidl_death_recipientEEE"
    },
    {
     "kind":"complete_dtor_pointer",
     "mangled_component_name":"_ZN7android8hardware10automotive3evs4V1_010IEvsCameraD1Ev"
    },
    {
     "kind":"deleting_dtor_pointer",
     "mangled_component_name":"_ZN7android8hardware10automotive3evs4V1_010IEvsCameraD0Ev"
    },
    {
     "is_pure":true,
     "mangled_component_name":"_ZN7android8hardware10automotive3evs4V1_010IEvsCamera13getCameraInfoENSt3__18functionIFvRKNS3_10CameraDescEEEE"
    },
    {
     "is_pure":true,
     "mangled_component_name":"_ZN7android8hardware10automotive3evs4V1_010IEvsCamera20setMaxFramesInFlightEj"
    },
    {
     "is_pure":true,
     "mangled_component_name":"_ZN7android8hardware10automotive3evs4V1_010IEvsCamera16startVideoStreamERKNS_2spINS3_16IEvsCameraStreamEEE"
    },
    {
     "is_pure":true,
     "mangled_component_name":"_ZN7android8hardware10automotive3evs4V1_010IEvsCamera13doneWithFrameERKNS3_10BufferDescE"
    },
    {
     "is_pure":true,
     "mangled_component_name":"_ZN7android8hardware10automotive3evs4V1_010IEvsCamera15stopVideoStreamEv"
    },
    {
     "is_pure":true,
     "mangled_component_name":"_ZN7android8hardware10automotive3evs4V1_010IEvsCamera15getExtendedInfoEj"
    },
    {
     "is_pure":true,
     "mangled_component_name":"_ZN7android8hardware10automotive3evs4V1_010IEvsCamera15setExtendedInfoEji"
    },
    {
     "kind":"vcall_offset"
    },
    {
     "kind":"vcall_offset"
    },
    {
     "kind":"vcall_offset"
    },
    {
     "kind":"vcall_offset"
    },
    {
     "kind":"vcall_offset",
     "component_value":-8
    },
    {
     "kind":"offset_to_top",
     "component_value":-8
    },
    {
     "kind":"rtti",
     "mangled_component_name":"_ZTIN7android8hardware10automotive3evs4V1_010IEvsCameraE"
    },
    {
     "kind":"complete_dtor_pointer",
     "mangled_component_name":"_ZTv0_n24_N7android8hardware10automotive3evs4V1_010IEvsCameraD1Ev"
    },
    {
     "kind":"deleting_dtor_pointer",
     "mangled_component_name":"_ZTv0_n24_N7android8hardware10automotive3evs4V1_010IEvsCameraD0Ev"
    },
    {
     "mangled_component_name":"_ZN7android7RefBase10onFirstRefEv"
    },
    {
     "mangled_component_name":"_ZN7android7RefBase15onLastStrongRefEPKv"
    },
    {
     "mangled_component_name":"_ZN7android7RefBase20onIncStrongAttemptedEjPKv"
    },
    {
     "mangled_component_name":"_ZN7android7RefBase13onLastWeakRefEPKv"
    }
   ],
   "unique_id":"_ZTSN7android8hardware10automotive3evs4V1_010IEvsCameraE"
  },
  {
   "vtable_components":[
    {
     "kind":"vbase_offset",
     "component_value":120
    },
    {
     "kind":"offset_to_top"
    },
    {
     "kind":"rtti",
     "mangled_component_name":"_ZTIN7android8hardware10automotive3evs4V1_015BsEvsEnumeratorE"
    },
    {
     "mangled_component_name":"_ZNK7android8hardware10automotive3evs4V1_014IEvsEnumerator8isRemoteEv"
    },
    {
     "mangled_component_name":"_ZN7android8hardware10automotive3evs4V1_015BsEvsEnumerator14interfaceChainENSt3__18functionIFvRKNS0_8hidl_vecINS0_11hidl_stringEEEEEE"
    },
    {
     "mangled_component_name":"_ZN7android8hardware10automotive3evs4V1_015BsEvsEnumerator5debugERKNS0_11hidl_handleERKNS0_8hidl_vecINS0_11hidl_stringEEE"
    },
    {
     "mangled_component_name":"_ZN7android8hardware10automotive3evs4V1_015BsEvsEnumerator19interfaceDescriptorENSt3__18functionIFvRKNS0_11hidl_stringEEEE"
    },
    {
     "mangled_component_name":"_ZN7android8hardware10automotive3evs4V1_015BsEvsEnumerator12getHashChainENSt3__18functionIFvRKNS0_8hidl_vecINS0_10hidl_arrayIhLm32EJEEEEEEEE"
    },
    {
     "mangled_component_name":"_ZN7android8hardware10automotive3evs4V1_015BsEvsEnumerator21setHALInstrumentationEv"
    },
    {
     "mangled_component_name":"_ZN7android8hardware10automotive3evs4V1_015BsEvsEnumerator11linkToDeathERKNS_2spINS0_20hidl_death_recipientEEEm"
    },
    {
     "mangled_component_name":"_ZN7android8hardware10automotive3evs4V1_015BsEvsEnumerator4pingEv"
    },
    {
     "mangled_component_name":"_ZN7android8hardware10automotive3evs4V1_015BsEvsEnumerator12getDebugInfoENSt3__18functionIFvRKNS_4hidl4base4V1_09DebugInfoEEEE"
    },
    {
     "mangled_component_name":"_ZN7android8hardware10automotive3evs4V1_015BsEvsEnumerator21notifySyspropsChangedEv"
    },
    {
     "mangled_component_name":"_ZN7android8hardware10automotive3evs4V1_015BsEvsEnumerator13unlinkToDeathERKNS_2spINS0_20hidl_death_recipientEEE"
    },
    {
     "kind":"complete_dtor_pointer",
     "mangled_component_name":"_ZN7android8hardware10automotive3evs4V1_015BsEvsEnumeratorD1Ev"
    },
    {
     "kind":"deleting_dtor_pointer",
     "mangled_component_name":"_ZN7android8hardware10automotive3evs4V1_015BsEvsEnumeratorD0Ev"
    },
    {
     "mangled_component_name":"_ZN7android8hardware10automotive3evs4V1_015BsEvsEnumerator13getCameraListENSt3__18functionIFvRKNS0_8hidl_vecINS3_10CameraDescEEEEEE"
    },
    {
     "mangled_component_name":"_ZN7android8hardware10automotive3evs4V1_015BsEvsEnumerator10openCameraERKNS0_11hidl_stringE"
    },
    {
     "mangled_component_name":"_ZN7android8hardware10automotive3evs4V1_015BsEvsEnumerator11closeCameraERKNS_2spINS3_10IEvsCameraEEE"
    },
    {
     "mangled_component_name":"_ZN7android8hardware10automotive3evs4V1_015BsEvsEnumerator11openDisplayEv"
    },
    {
     "mangled_component_name":"_ZN7android8hardware10automotive3evs4V1_015BsEvsEnumerator12closeDisplayERKNS_2spINS3_11IEvsDisplayEEE"
    },
    {
     "mangled_component_name":"_ZN7android8hardware10automotive3evs4V1_015BsEvsEnumerator15getDisplayStateEv"
    },
    {
     "kind":"offset_to_top",
     "component_value":-8
    },
    {
     "kind":"rtti",
     "mangled_component_name":"_ZTIN7android8hardware10automotive3evs4V1_015BsEvsEnumeratorE"
    },
    {
     "kind":"complete_dtor_pointer",
     "mangled_component_name":"_ZThn8_N7android8hardware10automotive3evs4V1_015BsEvsEnumeratorD1Ev"
    },
    {
     "kind":"deleting_dtor_pointer",
     "mangled_component_name":"_ZThn8_N7android8hardware10automotive3evs4V1_015BsEvsEnumeratorD0Ev"
    },
    {
     "kind":"vcall_offset"
    },
    {
     "kind":"vcall_offset"
    },
    {
     "kind":"vcall_offset"
    },
    {
     "kind":"vcall_offset"
    },
    {
     "kind":"vcall_offset",
     "component_value":-120
    },
    {
     "kind":"offset_to_top",
     "component_value":-120
    },
    {
     "kind":"rtti",
     "mangled_component_name":"_ZTIN7android8hardware10automotive3evs4V1_015BsEvsEnumeratorE"
    },
    {
     "kind":"complete_dtor_pointer",
     "mangled_component_name":"_ZTv0_n24_N7android8hardware10automotive3evs4V1_015BsEvsEnumeratorD1Ev"
    },
    {
     "kind":"deleting_dtor_pointer",
     "mangled_component_name":"_ZTv0_n24_N7android8hardware10automotive3evs4V1_015BsEvsEnumeratorD0Ev"
    },
    {
     "mangled_component_name":"_ZN7android7RefBase10onFirstRefEv"
    },
    {
     "mangled_component_name":"_ZN7android7RefBase15onLastStrongRefEPKv"
    },
    {
     "mangled_component_name":"_ZN7android7RefBase20onIncStrongAttemptedEjPKv"
    },
    {
     "mangled_component_name":"_ZN7android7RefBase13onLastWeakRefEPKv"
    }
   ],
   "unique_id":"_ZTSN7android8hardware10automotive3evs4V1_015BsEvsEnumeratorE"
  },
  {
   "vtable_components":[
    {
     "kind":"vbase_offset",
     "component_value":200
    },
    {
     "kind":"offset_to_top"
    },
    {
     "kind":"rtti",
     "mangled_component_name":"_ZTIN7android8hardware10automotive3evs4V1_017BpHwEvsEnumeratorE"
    },
    {
     "mangled_component_name":"_ZNK7android8hardware10automotive3evs4V1_017BpHwEvsEnumerator8isRemoteEv"
    },
    {
     "mangled_component_name":"_ZN7android8hardware10automotive3evs4V1_017BpHwEvsEnumerator14interfaceChainENSt3__18functionIFvRKNS0_8hidl_vecINS0_11hidl_stringEEEEEE"
    },
    {
     "mangled_component_name":"_ZN7android8hardware10automotive3evs4V1_017BpHwEvsEnumerator5debugERKNS0_11hidl_handleERKNS0_8hidl_vecINS0_11hidl_stringEEE"
    },
    {
     "mangled_component_name":"_ZN7android8hardware10automotive3evs4V1_017BpHwEvsEnumerator19interfaceDescriptorENSt3__18functionIFvRKNS0_11hidl_stringEEEE"
    },
    {
     "mangled_component_name":"_ZN7android8hardware10automotive3evs4V1_017BpHwEvsEnumerator12getHashChainENSt3__18functionIFvRKNS0_8hidl_vecINS0_10hidl_arrayIhLm32EJEEEEEEEE"
    },
    {
     "mangled_component_name":"_ZN7android8hardware10automotive3evs4V1_017BpHwEvsEnumerator21setHALInstrumentationEv"
    },
    {
     "mangled_component_name":"_ZN7android8hardware10automotive3evs4V1_017BpHwEvsEnumerator11linkToDeathERKNS_2spINS0_20hidl_death_recipientEEEm"
    },
    {
     "mangled_component_name":"_ZN7android8hardware10automotive3evs4V1_017BpHwEvsEnumerator4pingEv"
    },
    {
     "mangled_component_name":"_ZN7android8hardware10automotive3evs4V1_017BpHwEvsEnumerator12getDebugInfoENSt3__18functionIFvRKNS_4hidl4base4V1_09DebugInfoEEEE"
    },
    {
     "mangled_component_name":"_ZN7android8hardware10automotive3evs4V1_017BpHwEvsEnumerator21notifySyspropsChangedEv"
    },
    {
     "mangled_component_name":"_ZN7android8hardware10automotive3evs4V1_017BpHwEvsEnumerator13unlinkToDeathERKNS_2spINS0_20hidl_death_recipientEEE"
    },
    {
     "kind":"complete_dtor_pointer",
     "mangled_component_name":"_ZN7android8hardware10automotive3evs4V1_017BpHwEvsEnumeratorD1Ev"
    },
    {
     "kind":"deleting_dtor_pointer",
     "mangled_component_name":"_ZN7android8hardware10automotive3evs4V1_017BpHwEvsEnumeratorD0Ev"
    },
    {
     "mangled_component_name":"_ZN7android8hardware10automotive3evs4V1_017BpHwEvsEnumerator13getCameraListENSt3__18functionIFvRKNS0_8hidl_vecINS3_10CameraDescEEEEEE"
    },
    {
     "mangled_component_name":"_ZN7android8hardware10automotive3evs4V1_017BpHwEvsEnumerator10openCameraERKNS0_11hidl_stringE"
    },
    {
     "mangled_component_name":"_ZN7android8hardware10automotive3evs4V1_017BpHwEvsEnumerator11closeCameraERKNS_2spINS3_10IEvsCameraEEE"
    },
    {
     "mangled_component_name":"_ZN7android8hardware10automotive3evs4V1_017BpHwEvsEnumerator11openDisplayEv"
    },
    {
     "mangled_component_name":"_ZN7android8hardware10automotive3evs4V1_017BpHwEvsEnumerator12closeDisplayERKNS_2spINS3_11IEvsDisplayEEE"
    },
    {
     "mangled_component_name":"_ZN7android8hardware10automotive3evs4V1_017BpHwEvsEnumerator15getDisplayStateEv"
    },
    {
     "mangled_component_name":"_ZN7android8hardware11BpInterfaceINS0_10automotive3evs4V1_014IEvsEnumeratorEE10onAsBinderEv"
    },
    {
     "kind":"vbase_offset",
     "component_value":192
    },
    {
     "kind":"offset_to_top",
     "component_value":-8
    },
    {
     "kind":"rtti",
     "mangled_component_name":"_ZTIN7android8hardware10automotive3evs4V1_017BpHwEvsEnumeratorE"
    },
    {
     "kind":"complete_dtor_pointer",
     "mangled_component_name":"_ZThn8_N7android8hardware10automotive3evs4V1_017BpHwEvsEnumeratorD1Ev"
    },
    {
     "kind":"deleting_dtor_pointer",
     "mangled_component_name":"_ZThn8_N7android8hardware10automotive3evs4V1_017BpHwEvsEnumeratorD0Ev"
    },
    {
     "mangled_component_name":"_ZThn8_N7android8hardware11BpInterfaceINS0_10automotive3evs4V1_014IEvsEnumeratorEE10onAsBinderEv"
    },
    {
     "kind":"vbase_offset",
     "component_value":184
    },
    {
     "kind":"offset_to_top",
     "component_value":-16
    },
    {
     "kind":"rtti",
     "mangled_component_name":"_ZTIN7android8hardware10automotive3evs4V1_017BpHwEvsEnumeratorE"
    },
    {
     "kind":"complete_dtor_pointer",
     "mangled_component_name":"_ZThn16_N7android8hardware10automotive3evs4V1_017BpHwEvsEnumeratorD1Ev"
    },
    {
     "kind":"deleting_dtor_pointer",
     "mangled_component_name":"_ZThn16_N7android8hardware10automotive3evs4V1_017BpHwEvsEnumeratorD0Ev"
    },
    {
     "mangled_component_name":"_ZN7android8hardware11BpHwRefBase10onFirstRefEv"
    },
    {
     "mangled_component_name":"_ZN7android8hardware11BpHwRefBase15onLastStrongRefEPKv"
    },
    {
     "mangled_component_name":"_ZN7android8hardware11BpHwRefBase20onIncStrongAttemptedEjPKv"
    },
    {
     "kind":"offset_to_top",
     "component_value":-48
    },
    {
     "kind":"rtti",
     "mangled_component_name":"_ZTIN7android8hardware10automotive3evs4V1_017BpHwEvsEnumeratorE"
    },
    {
     "kind":"complete_dtor_pointer",
     "mangled_component_name":"_ZThn48_N7android8hardware10automotive3evs4V1_017BpHwEvsEnumeratorD1Ev"
    },
    {
     "kind":"deleting_dtor_pointer",
     "mangled_component_name":"_ZThn48_N7android8hardware10automotive3evs4V1_017BpHwEvsEnumeratorD0Ev"
    },
    {
     "kind":"vcall_offset"
    },
    {
     "kind":"vcall_offset",
     "component_value":-184
    },
    {
     "kind":"vcall_offset",
     "component_value":-184
    },
    {
     "kind":"vcall_offset",
     "component_value":-184
    },
    {
     "kind":"vcall_offset",
     "component_value":-200
    },
    {
     "kind":"offset_to_top",
     "component_value":-200
    },
    {
     "kind":"rtti",
     "mangled_component_name":"_ZTIN7android8hardware10automotive3evs4V1_017BpHwEvsEnumeratorE"
    },
    {
     "kind":"complete_dtor_pointer",
     "mangled_component_name":"_ZTv0_n24_N7android8hardware10automotive3evs4V1_017BpHwEvsEnumeratorD1Ev"
    },
    {
     "kind":"deleting_dtor_pointer",
     "mangled_component_name":"_ZTv0_n24_N7android8hardware10automotive3evs4V1_017BpHwEvsEnumeratorD0Ev"
    },
    {
     "mangled_component_name":"_ZTv0_n32_N7android8hardware11BpHwRefBase10onFirstRefEv"
    },
    {
     "mangled_component_name":"_ZTv0_n40_N7android8hardware11BpHwRefBase15onLastStrongRefEPKv"
    },
    {
     "mangled_component_name":"_ZTv0_n48_N7android8hardware11BpHwRefBase20onIncStrongAttemptedEjPKv"
    },
    {
     "mangled_component_name":"_ZN7android7RefBase13onLastWeakRefEPKv"
    }
   ],
   "unique_id":"_ZTSN7android8hardware10automotive3evs4V1_017BpHwEvsEnumeratorE"
  },
  {
   "vtable_components":[
    {
     "kind":"vbase_offset",
     "component_value":8
    },
    {
     "kind":"offset_to_top"
    },
    {
     "kind":"rtti",
     "mangled_component_name":"_ZTIN7android8hardware10automotive3evs4V1_016IEvsCameraStreamE"
    },
    {
     "mangled_component_name":"_ZNK7android8hardware10automotive3evs4V1_016IEvsCameraStream8isRemoteEv"
    },
    {
     "mangled_component_name":"_ZN7android8hardware10automotive3evs4V1_016IEvsCameraStream14interfaceChainENSt3__18functionIFvRKNS0_8hidl_vecINS0_11hidl_stringEEEEEE"
    },
    {
     "mangled_component_name":"_ZN7android8hardware10automotive3evs4V1_016IEvsCameraStream5debugERKNS0_11hidl_handleERKNS0_8hidl_vecINS0_11hidl_stringEEE"
    },
    {
     "mangled_component_name":"_ZN7android8hardware10automotive3evs4V1_016IEvsCameraStream19interfaceDescriptorENSt3__18functionIFvRKNS0_11hidl_stringEEEE"
    },
    {
     "mangled_component_name":"_ZN7android8hardware10automotive3evs4V1_016IEvsCameraStream12getHashChainENSt3__18functionIFvRKNS0_8hidl_vecINS0_10hidl_arrayIhLm32EJEEEEEEEE"
    },
    {
     "mangled_component_name":"_ZN7android8hardware10automotive3evs4V1_016IEvsCameraStream21setHALInstrumentationEv"
    },
    {
     "mangled_component_name":"_ZN7android8hardware10automotive3evs4V1_016IEvsCameraStream11linkToDeathERKNS_2spINS0_20hidl_death_recipientEEEm"
    },
    {
     "mangled_component_name":"_ZN7android8hardware10automotive3evs4V1_016IEvsCameraStream4pingEv"
    },
    {
     "mangled_component_name":"_ZN7android8hardware10automotive3evs4V1_016IEvsCameraStream12getDebugInfoENSt3__18functionIFvRKNS_4hidl4base4V1_09DebugInfoEEEE"
    },
    {
     "mangled_component_name":"_ZN7android8hardware10automotive3evs4V1_016IEvsCameraStream21notifySyspropsChangedEv"
    },
    {
     "mangled_component_name":"_ZN7android8hardware10automotive3evs4V1_016IEvsCameraStream13unlinkToDeathERKNS_2spINS0_20hidl_death_recipientEEE"
    },
    {
     "kind":"complete_dtor_pointer",
     "mangled_component_name":"_ZN7android8hardware10automotive3evs4V1_016IEvsCameraStreamD1Ev"
    },
    {
     "kind":"deleting_dtor_pointer",
     "mangled_component_name":"_ZN7android8hardware10automotive3evs4V1_016IEvsCameraStreamD0Ev"
    },
    {
     "is_pure":true,
     "mangled_component_name":"_ZN7android8hardware10automotive3evs4V1_016IEvsCameraStream12deliverFrameERKNS3_10BufferDescE"
    },
    {
     "kind":"vcall_offset"
    },
    {
     "kind":"vcall_offset"
    },
    {
     "kind":"vcall_offset"
    },
    {
     "kind":"vcall_offset"
    },
    {
     "kind":"vcall_offset",
     "component_value":-8
    },
    {
     "kind":"offset_to_top",
     "component_value":-8
    },
    {
     "kind":"rtti",
     "mangled_component_name":"_ZTIN7android8hardware10automotive3evs4V1_016IEvsCameraStreamE"
    },
    {
     "kind":"complete_dtor_pointer",
     "mangled_component_name":"_ZTv0_n24_N7android8hardware10automotive3evs4V1_016IEvsCameraStreamD1Ev"
    },
    {
     "kind":"deleting_dtor_pointer",
     "mangled_component_name":"_ZTv0_n24_N7android8hardware10automotive3evs4V1_016IEvsCameraStreamD0Ev"
    },
    {
     "mangled_component_name":"_ZN7android7RefBase10onFirstRefEv"
    },
    {
     "mangled_component_name":"_ZN7android7RefBase15onLastStrongRefEPKv"
    },
    {
     "mangled_component_name":"_ZN7android7RefBase20onIncStrongAttemptedEjPKv"
    },
    {
     "mangled_component_name":"_ZN7android7RefBase13onLastWeakRefEPKv"
    }
   ],
   "unique_id":"_ZTSN7android8hardware10automotive3evs4V1_016IEvsCameraStreamE"
  },
  {
   "vtable_components":[
    {
     "kind":"vbase_offset",
     "component_value":200
    },
    {
     "kind":"offset_to_top"
    },
    {
     "kind":"rtti",
     "mangled_component_name":"_ZTIN7android8hardware10automotive3evs4V1_019BpHwEvsCameraStreamE"
    },
    {
     "mangled_component_name":"_ZNK7android8hardware10automotive3evs4V1_019BpHwEvsCameraStream8isRemoteEv"
    },
    {
     "mangled_component_name":"_ZN7android8hardware10automotive3evs4V1_019BpHwEvsCameraStream14interfaceChainENSt3__18functionIFvRKNS0_8hidl_vecINS0_11hidl_stringEEEEEE"
    },
    {
     "mangled_component_name":"_ZN7android8hardware10automotive3evs4V1_019BpHwEvsCameraStream5debugERKNS0_11hidl_handleERKNS0_8hidl_vecINS0_11hidl_stringEEE"
    },
    {
     "mangled_component_name":"_ZN7android8hardware10automotive3evs4V1_019BpHwEvsCameraStream19interfaceDescriptorENSt3__18functionIFvRKNS0_11hidl_stringEEEE"
    },
    {
     "mangled_component_name":"_ZN7android8hardware10automotive3evs4V1_019BpHwEvsCameraStream12getHashChainENSt3__18functionIFvRKNS0_8hidl_vecINS0_10hidl_arrayIhLm32EJEEEEEEEE"
    },
    {
     "mangled_component_name":"_ZN7android8hardware10automotive3evs4V1_019BpHwEvsCameraStream21setHALInstrumentationEv"
    },
    {
     "mangled_component_name":"_ZN7android8hardware10automotive3evs4V1_019BpHwEvsCameraStream11linkToDeathERKNS_2spINS0_20hidl_death_recipientEEEm"
    },
    {
     "mangled_component_name":"_ZN7android8hardware10automotive3evs4V1_019BpHwEvsCameraStream4pingEv"
    },
    {
     "mangled_component_name":"_ZN7android8hardware10automotive3evs4V1_019BpHwEvsCameraStream12getDebugInfoENSt3__18functionIFvRKNS_4hidl4base4V1_09DebugInfoEEEE"
    },
    {
     "mangled_component_name":"_ZN7android8hardware10automotive3evs4V1_019BpHwEvsCameraStream21notifySyspropsChangedEv"
    },
    {
     "mangled_component_name":"_ZN7android8hardware10automotive3evs4V1_019BpHwEvsCameraStream13unlinkToDeathERKNS_2spINS0_20hidl_death_recipientEEE"
    },
    {
     "kind":"complete_dtor_pointer",
     "mangled_component_name":"_ZN7android8hardware10automotive3evs4V1_019BpHwEvsCameraStreamD1Ev"
    },
    {
     "kind":"deleting_dtor_pointer",
     "mangled_component_name":"_ZN7android8hardware10automotive3evs4V1_019BpHwEvsCameraStreamD0Ev"
    },
    {
     "mangled_component_name":"_ZN7android8hardware10automotive3evs4V1_019BpHwEvsCameraStream12deliverFrameERKNS3_10BufferDescE"
    },
    {
     "mangled_component_name":"_ZN7android8hardware11BpInterfaceINS0_10automotive3evs4V1_016IEvsCameraStreamEE10onAsBinderEv"
    },
    {
     "kind":"vbase_offset",
     "component_value":192
    },
    {
     "kind":"offset_to_top",
     "component_value":-8
    },
    {
     "kind":"rtti",
     "mangled_component_name":"_ZTIN7android8hardware10automotive3evs4V1_019BpHwEvsCameraStreamE"
    },
    {
     "kind":"complete_dtor_pointer",
     "mangled_component_name":"_ZThn8_N7android8hardware10automotive3evs4V1_019BpHwEvsCameraStreamD1Ev"
    },
    {
     "kind":"deleting_dtor_pointer",
     "mangled_component_name":"_ZThn8_N7android8hardware10automotive3evs4V1_019BpHwEvsCameraStreamD0Ev"
    },
    {
     "mangled_component_name":"_ZThn8_N7android8hardware11BpInterfaceINS0_10automotive3evs4V1_016IEvsCameraStreamEE10onAsBinderEv"
    },
    {
     "kind":"vbase_offset",
     "component_value":184
    },
    {
     "kind":"offset_to_top",
     "component_value":-16
    },
    {
     "kind":"rtti",
     "mangled_component_name":"_ZTIN7android8hardware10automotive3evs4V1_019BpHwEvsCameraStreamE"
    },
    {
     "kind":"complete_dtor_pointer",
     "mangled_component_name":"_ZThn16_N7android8hardware10automotive3evs4V1_019BpHwEvsCameraStreamD1Ev"
    },
    {
     "kind":"deleting_dtor_pointer",
     "mangled_component_name":"_ZThn16_N7android8hardware10automotive3evs4V1_019BpHwEvsCameraStreamD0Ev"
    },
    {
     "mangled_component_name":"_ZN7android8hardware11BpHwRefBase10onFirstRefEv"
    },
    {
     "mangled_component_name":"_ZN7android8hardware11BpHwRefBase15onLastStrongRefEPKv"
    },
    {
     "mangled_component_name":"_ZN7android8hardware11BpHwRefBase20onIncStrongAttemptedEjPKv"
    },
    {
     "kind":"offset_to_top",
     "component_value":-48
    },
    {
     "kind":"rtti",
     "mangled_component_name":"_ZTIN7android8hardware10automotive3evs4V1_019BpHwEvsCameraStreamE"
    },
    {
     "kind":"complete_dtor_pointer",
     "mangled_component_name":"_ZThn48_N7android8hardware10automotive3evs4V1_019BpHwEvsCameraStreamD1Ev"
    },
    {
     "kind":"deleting_dtor_pointer",
     "mangled_component_name":"_ZThn48_N7android8hardware10automotive3evs4V1_019BpHwEvsCameraStreamD0Ev"
    },
    {
     "kind":"vcall_offset"
    },
    {
     "kind":"vcall_offset",
     "component_value":-184
    },
    {
     "kind":"vcall_offset",
     "component_value":-184
    },
    {
     "kind":"vcall_offset",
     "component_value":-184
    },
    {
     "kind":"vcall_offset",
     "component_value":-200
    },
    {
     "kind":"offset_to_top",
     "component_value":-200
    },
    {
     "kind":"rtti",
     "mangled_component_name":"_ZTIN7android8hardware10automotive3evs4V1_019BpHwEvsCameraStreamE"
    },
    {
     "kind":"complete_dtor_pointer",
     "mangled_component_name":"_ZTv0_n24_N7android8hardware10automotive3evs4V1_019BpHwEvsCameraStreamD1Ev"
    },
    {
     "kind":"deleting_dtor_pointer",
     "mangled_component_name":"_ZTv0_n24_N7android8hardware10automotive3evs4V1_019BpHwEvsCameraStreamD0Ev"
    },
    {
     "mangled_component_name":"_ZTv0_n32_N7android8hardware11BpHwRefBase10onFirstRefEv"
    },
    {
     "mangled_component_name":"_ZTv0_n40_N7android8hardware11BpHwRefBase15onLastStrongRefEPKv"
    },
    {
     "mangled_component_name":"_ZTv0_n48_N7android8hardware11BpHwRefBase20onIncStrongAttemptedEjPKv"
    },
    {
     "mangled_component_name":"_ZN7android7RefBase13onLastWeakRefEPKv"
    }
   ],
   "unique_id":"_ZTSN7android8hardware10automotive3evs4V1_019BpHwEvsCameraStreamE"
  },
  {
   "vtable_components":[
    {
     "kind":"vbase_offset",
     "component_value":120
    },
    {
     "kind":"offset_to_top"
    },
    {
     "kind":"rtti",
     "mangled_component_name":"_ZTIN7android8hardware10automotive3evs4V1_012BsEvsDisplayE"
    },
    {
     "mangled_component_name":"_ZNK7android8hardware10automotive3evs4V1_011IEvsDisplay8isRemoteEv"
    },
    {
     "mangled_component_name":"_ZN7android8hardware10automotive3evs4V1_012BsEvsDisplay14interfaceChainENSt3__18functionIFvRKNS0_8hidl_vecINS0_11hidl_stringEEEEEE"
    },
    {
     "mangled_component_name":"_ZN7android8hardware10automotive3evs4V1_012BsEvsDisplay5debugERKNS0_11hidl_handleERKNS0_8hidl_vecINS0_11hidl_stringEEE"
    },
    {
     "mangled_component_name":"_ZN7android8hardware10automotive3evs4V1_012BsEvsDisplay19interfaceDescriptorENSt3__18functionIFvRKNS0_11hidl_stringEEEE"
    },
    {
     "mangled_component_name":"_ZN7android8hardware10automotive3evs4V1_012BsEvsDisplay12getHashChainENSt3__18functionIFvRKNS0_8hidl_vecINS0_10hidl_arrayIhLm32EJEEEEEEEE"
    },
    {
     "mangled_component_name":"_ZN7android8hardware10automotive3evs4V1_012BsEvsDisplay21setHALInstrumentationEv"
    },
    {
     "mangled_component_name":"_ZN7android8hardware10automotive3evs4V1_012BsEvsDisplay11linkToDeathERKNS_2spINS0_20hidl_death_recipientEEEm"
    },
    {
     "mangled_component_name":"_ZN7android8hardware10automotive3evs4V1_012BsEvsDisplay4pingEv"
    },
    {
     "mangled_component_name":"_ZN7android8hardware10automotive3evs4V1_012BsEvsDisplay12getDebugInfoENSt3__18functionIFvRKNS_4hidl4base4V1_09DebugInfoEEEE"
    },
    {
     "mangled_component_name":"_ZN7android8hardware10automotive3evs4V1_012BsEvsDisplay21notifySyspropsChangedEv"
    },
    {
     "mangled_component_name":"_ZN7android8hardware10automotive3evs4V1_012BsEvsDisplay13unlinkToDeathERKNS_2spINS0_20hidl_death_recipientEEE"
    },
    {
     "kind":"complete_dtor_pointer",
     "mangled_component_name":"_ZN7android8hardware10automotive3evs4V1_012BsEvsDisplayD1Ev"
    },
    {
     "kind":"deleting_dtor_pointer",
     "mangled_component_name":"_ZN7android8hardware10automotive3evs4V1_012BsEvsDisplayD0Ev"
    },
    {
     "mangled_component_name":"_ZN7android8hardware10automotive3evs4V1_012BsEvsDisplay14getDisplayInfoENSt3__18functionIFvRKNS3_11DisplayDescEEEE"
    },
    {
     "mangled_component_name":"_ZN7android8hardware10automotive3evs4V1_012BsEvsDisplay15setDisplayStateENS3_12DisplayStateE"
    },
    {
     "mangled_component_name":"_ZN7android8hardware10automotive3evs4V1_012BsEvsDisplay15getDisplayStateEv"
    },
    {
     "mangled_component_name":"_ZN7android8hardware10automotive3evs4V1_012BsEvsDisplay15getTargetBufferENSt3__18functionIFvRKNS3_10BufferDescEEEE"
    },
    {
     "mangled_component_name":"_ZN7android8hardware10automotive3evs4V1_012BsEvsDisplay28returnTargetBufferForDisplayERKNS3_10BufferDescE"
    },
    {
     "kind":"offset_to_top",
     "component_value":-8
    },
    {
     "kind":"rtti",
     "mangled_component_name":"_ZTIN7android8hardware10automotive3evs4V1_012BsEvsDisplayE"
    },
    {
     "kind":"complete_dtor_pointer",
     "mangled_component_name":"_ZThn8_N7android8hardware10automotive3evs4V1_012BsEvsDisplayD1Ev"
    },
    {
     "kind":"deleting_dtor_pointer",
     "mangled_component_name":"_ZThn8_N7android8hardware10automotive3evs4V1_012BsEvsDisplayD0Ev"
    },
    {
     "kind":"vcall_offset"
    },
    {
     "kind":"vcall_offset"
    },
    {
     "kind":"vcall_offset"
    },
    {
     "kind":"vcall_offset"
    },
    {
     "kind":"vcall_offset",
     "component_value":-120
    },
    {
     "kind":"offset_to_top",
     "component_value":-120
    },
    {
     "kind":"rtti",
     "mangled_component_name":"_ZTIN7android8hardware10automotive3evs4V1_012BsEvsDisplayE"
    },
    {
     "kind":"complete_dtor_pointer",
     "mangled_component_name":"_ZTv0_n24_N7android8hardware10automotive3evs4V1_012BsEvsDisplayD1Ev"
    },
    {
     "kind":"deleting_dtor_pointer",
     "mangled_component_name":"_ZTv0_n24_N7android8hardware10automotive3evs4V1_012BsEvsDisplayD0Ev"
    },
    {
     "mangled_component_name":"_ZN7android7RefBase10onFirstRefEv"
    },
    {
     "mangled_component_name":"_ZN7android7RefBase15onLastStrongRefEPKv"
    },
    {
     "mangled_component_name":"_ZN7android7RefBase20onIncStrongAttemptedEjPKv"
    },
    {
     "mangled_component_name":"_ZN7android7RefBase13onLastWeakRefEPKv"
    }
   ],
   "unique_id":"_ZTSN7android8hardware10automotive3evs4V1_012BsEvsDisplayE"
  },
  {
   "vtable_components":[
    {
     "kind":"vbase_offset",
     "component_value":136
    },
    {
     "kind":"offset_to_top"
    },
    {
     "kind":"rtti",
     "mangled_component_name":"_ZTIN7android8hardware10automotive3evs4V1_013BnHwEvsCameraE"
    },
    {
     "mangled_component_name":"_ZN7android8hardware9BHwBinder8transactEjRKNS0_6ParcelEPS2_jNSt3__18functionIFvRS2_EEE"
    },
    {
     "mangled_component_name":"_ZN7android8hardware9BHwBinder11linkToDeathERKNS_2spINS0_7IBinder14DeathRecipientEEEPvj"
    },
    {
     "mangled_component_name":"_ZN7android8hardware9BHwBinder13unlinkToDeathERKNS_2wpINS0_7IBinder14DeathRecipientEEEPvjPS5_"
    },
    {
     "mangled_component_name":"_ZNK7android8hardware7IBinder13checkSubclassEPKv"
    },
    {
     "mangled_component_name":"_ZN7android8hardware9BHwBinder12attachObjectEPKvPvS4_PFvS3_S4_S4_E"
    },
    {
     "mangled_component_name":"_ZNK7android8hardware9BHwBinder10findObjectEPKv"
    },
    {
     "mangled_component_name":"_ZN7android8hardware9BHwBinder12detachObjectEPKv"
    },
    {
     "mangled_component_name":"_ZN7android8hardware9BHwBinder11localBinderEv"
    },
    {
     "mangled_component_name":"_ZN7android8hardware7IBinder12remoteBinderEv"
    },
    {
     "kind":"complete_dtor_pointer",
     "mangled_component_name":"_ZN7android8hardware10automotive3evs4V1_013BnHwEvsCameraD1Ev"
    },
    {
     "kind":"deleting_dtor_pointer",
     "mangled_component_name":"_ZN7android8hardware10automotive3evs4V1_013BnHwEvsCameraD0Ev"
    },
    {
     "mangled_component_name":"_ZN7android8hardware10automotive3evs4V1_013BnHwEvsCamera10onTransactEjRKNS0_6ParcelEPS5_jNSt3__18functionIFvRS5_EEE"
    },
    {
     "kind":"offset_to_top",
     "component_value":-32
    },
    {
     "kind":"rtti",
     "mangled_component_name":"_ZTIN7android8hardware10automotive3evs4V1_013BnHwEvsCameraE"
    },
    {
     "kind":"complete_dtor_pointer",
     "mangled_component_name":"_ZThn32_N7android8hardware10automotive3evs4V1_013BnHwEvsCameraD1Ev"
    },
    {
     "kind":"deleting_dtor_pointer",
     "mangled_component_name":"_ZThn32_N7android8hardware10automotive3evs4V1_013BnHwEvsCameraD0Ev"
    },
    {
     "kind":"vcall_offset"
    },
    {
     "kind":"vcall_offset"
    },
    {
     "kind":"vcall_offset"
    },
    {
     "kind":"vcall_offset"
    },
    {
     "kind":"vcall_offset",
     "component_value":-136
    },
    {
     "kind":"offset_to_top",
     "component_value":-136
    },
    {
     "kind":"rtti",
     "mangled_component_name":"_ZTIN7android8hardware10automotive3evs4V1_013BnHwEvsCameraE"
    },
    {
     "kind":"complete_dtor_pointer",
     "mangled_component_name":"_ZTv0_n24_N7android8hardware10automotive3evs4V1_013BnHwEvsCameraD1Ev"
    },
    {
     "kind":"deleting_dtor_pointer",
     "mangled_component_name":"_ZTv0_n24_N7android8hardware10automotive3evs4V1_013BnHwEvsCameraD0Ev"
    },
    {
     "mangled_component_name":"_ZN7android7RefBase10onFirstRefEv"
    },
    {
     "mangled_component_name":"_ZN7android7RefBase15onLastStrongRefEPKv"
    },
    {
     "mangled_component_name":"_ZN7android7RefBase20onIncStrongAttemptedEjPKv"
    },
    {
     "mangled_component_name":"_ZN7android7RefBase13onLastWeakRefEPKv"
    }
   ],
   "unique_id":"_ZTSN7android8hardware10automotive3evs4V1_013BnHwEvsCameraE"
  },
  {
   "vtable_components":[
    {
     "kind":"vbase_offset",
     "component_value":200
    },
    {
     "kind":"offset_to_top"
    },
    {
     "kind":"rtti",
     "mangled_component_name":"_ZTIN7android8hardware10automotive3evs4V1_014BpHwEvsDisplayE"
    },
    {
     "mangled_component_name":"_ZNK7android8hardware10automotive3evs4V1_014BpHwEvsDisplay8isRemoteEv"
    },
    {
     "mangled_component_name":"_ZN7android8hardware10automotive3evs4V1_014BpHwEvsDisplay14interfaceChainENSt3__18functionIFvRKNS0_8hidl_vecINS0_11hidl_stringEEEEEE"
    },
    {
     "mangled_component_name":"_ZN7android8hardware10automotive3evs4V1_014BpHwEvsDisplay5debugERKNS0_11hidl_handleERKNS0_8hidl_vecINS0_11hidl_stringEEE"
    },
    {
     "mangled_component_name":"_ZN7android8hardware10automotive3evs4V1_014BpHwEvsDisplay19interfaceDescriptorENSt3__18functionIFvRKNS0_11hidl_stringEEEE"
    },
    {
     "mangled_component_name":"_ZN7android8hardware10automotive3evs4V1_014BpHwEvsDisplay12getHashChainENSt3__18functionIFvRKNS0_8hidl_vecINS0_10hidl_arrayIhLm32EJEEEEEEEE"
    },
    {
     "mangled_component_name":"_ZN7android8hardware10automotive3evs4V1_014BpHwEvsDisplay21setHALInstrumentationEv"
    },
    {
     "mangled_component_name":"_ZN7android8hardware10automotive3evs4V1_014BpHwEvsDisplay11linkToDeathERKNS_2spINS0_20hidl_death_recipientEEEm"
    },
    {
     "mangled_component_name":"_ZN7android8hardware10automotive3evs4V1_014BpHwEvsDisplay4pingEv"
    },
    {
     "mangled_component_name":"_ZN7android8hardware10automotive3evs4V1_014BpHwEvsDisplay12getDebugInfoENSt3__18functionIFvRKNS_4hidl4base4V1_09DebugInfoEEEE"
    },
    {
     "mangled_component_name":"_ZN7android8hardware10automotive3evs4V1_014BpHwEvsDisplay21notifySyspropsChangedEv"
    },
    {
     "mangled_component_name":"_ZN7android8hardware10automotive3evs4V1_014BpHwEvsDisplay13unlinkToDeathERKNS_2spINS0_20hidl_death_recipientEEE"
    },
    {
     "kind":"complete_dtor_pointer",
     "mangled_component_name":"_ZN7android8hardware10automotive3evs4V1_014BpHwEvsDisplayD1Ev"
    },
    {
     "kind":"deleting_dtor_pointer",
     "mangled_component_name":"_ZN7android8hardware10automotive3evs4V1_014BpHwEvsDisplayD0Ev"
    },
    {
     "mangled_component_name":"_ZN7android8hardware10automotive3evs4V1_014BpHwEvsDisplay14getDisplayInfoENSt3__18functionIFvRKNS3_11DisplayDescEEEE"
    },
    {
     "mangled_component_name":"_ZN7android8hardware10automotive3evs4V1_014BpHwEvsDisplay15setDisplayStateENS3_12DisplayStateE"
    },
    {
     "mangled_component_name":"_ZN7android8hardware10automotive3evs4V1_014BpHwEvsDisplay15getDisplayStateEv"
    },
    {
     "mangled_component_name":"_ZN7android8hardware10automotive3evs4V1_014BpHwEvsDisplay15getTargetBufferENSt3__18functionIFvRKNS3_10BufferDescEEEE"
    },
    {
     "mangled_component_name":"_ZN7android8hardware10automotive3evs4V1_014BpHwEvsDisplay28returnTargetBufferForDisplayERKNS3_10BufferDescE"
    },
    {
     "mangled_component_name":"_ZN7android8hardware11BpInterfaceINS0_10automotive3evs4V1_011IEvsDisplayEE10onAsBinderEv"
    },
    {
     "kind":"vbase_offset",
     "component_value":192
    },
    {
     "kind":"offset_to_top",
     "component_value":-8
    },
    {
     "kind":"rtti",
     "mangled_component_name":"_ZTIN7android8hardware10automotive3evs4V1_014BpHwEvsDisplayE"
    },
    {
     "kind":"complete_dtor_pointer",
     "mangled_component_name":"_ZThn8_N7android8hardware10automotive3evs4V1_014BpHwEvsDisplayD1Ev"
    },
    {
     "kind":"deleting_dtor_pointer",
     "mangled_component_name":"_ZThn8_N7android8hardware10automotive3evs4V1_014BpHwEvsDisplayD0Ev"
    },
    {
     "mangled_component_name":"_ZThn8_N7android8hardware11BpInterfaceINS0_10automotive3evs4V1_011IEvsDisplayEE10onAsBinderEv"
    },
    {
     "kind":"vbase_offset",
     "component_value":184
    },
    {
     "kind":"offset_to_top",
     "component_value":-16
    },
    {
     "kind":"rtti",
     "mangled_component_name":"_ZTIN7android8hardware10automotive3evs4V1_014BpHwEvsDisplayE"
    },
    {
     "kind":"complete_dtor_pointer",
     "mangled_component_name":"_ZThn16_N7android8hardware10automotive3evs4V1_014BpHwEvsDisplayD1Ev"
    },
    {
     "kind":"deleting_dtor_pointer",
     "mangled_component_name":"_ZThn16_N7android8hardware10automotive3evs4V1_014BpHwEvsDisplayD0Ev"
    },
    {
     "mangled_component_name":"_ZN7android8hardware11BpHwRefBase10onFirstRefEv"
    },
    {
     "mangled_component_name":"_ZN7android8hardware11BpHwRefBase15onLastStrongRefEPKv"
    },
    {
     "mangled_component_name":"_ZN7android8hardware11BpHwRefBase20onIncStrongAttemptedEjPKv"
    },
    {
     "kind":"offset_to_top",
     "component_value":-48
    },
    {
     "kind":"rtti",
     "mangled_component_name":"_ZTIN7android8hardware10automotive3evs4V1_014BpHwEvsDisplayE"
    },
    {
     "kind":"complete_dtor_pointer",
     "mangled_component_name":"_ZThn48_N7android8hardware10automotive3evs4V1_014BpHwEvsDisplayD1Ev"
    },
    {
     "kind":"deleting_dtor_pointer",
     "mangled_component_name":"_ZThn48_N7android8hardware10automotive3evs4V1_014BpHwEvsDisplayD0Ev"
    },
    {
     "kind":"vcall_offset"
    },
    {
     "kind":"vcall_offset",
     "component_value":-184
    },
    {
     "kind":"vcall_offset",
     "component_value":-184
    },
    {
     "kind":"vcall_offset",
     "component_value":-184
    },
    {
     "kind":"vcall_offset",
     "component_value":-200
    },
    {
     "kind":"offset_to_top",
     "component_value":-200
    },
    {
     "kind":"rtti",
     "mangled_component_name":"_ZTIN7android8hardware10automotive3evs4V1_014BpHwEvsDisplayE"
    },
    {
     "kind":"complete_dtor_pointer",
     "mangled_component_name":"_ZTv0_n24_N7android8hardware10automotive3evs4V1_014BpHwEvsDisplayD1Ev"
    },
    {
     "kind":"deleting_dtor_pointer",
     "mangled_component_name":"_ZTv0_n24_N7android8hardware10automotive3evs4V1_014BpHwEvsDisplayD0Ev"
    },
    {
     "mangled_component_name":"_ZTv0_n32_N7android8hardware11BpHwRefBase10onFirstRefEv"
    },
    {
     "mangled_component_name":"_ZTv0_n40_N7android8hardware11BpHwRefBase15onLastStrongRefEPKv"
    },
    {
     "mangled_component_name":"_ZTv0_n48_N7android8hardware11BpHwRefBase20onIncStrongAttemptedEjPKv"
    },
    {
     "mangled_component_name":"_ZN7android7RefBase13onLastWeakRefEPKv"
    }
   ],
   "unique_id":"_ZTSN7android8hardware10automotive3evs4V1_014BpHwEvsDisplayE"
  },
  {
   "vtable_components":[
    {
     "kind":"vbase_offset",
     "component_value":136
    },
    {
     "kind":"offset_to_top"
    },
    {
     "kind":"rtti",
     "mangled_component_name":"_ZTIN7android8hardware10automotive3evs4V1_019BnHwEvsCameraStreamE"
    },
    {
     "mangled_component_name":"_ZN7android8hardware9BHwBinder8transactEjRKNS0_6ParcelEPS2_jNSt3__18functionIFvRS2_EEE"
    },
    {
     "mangled_component_name":"_ZN7android8hardware9BHwBinder11linkToDeathERKNS_2spINS0_7IBinder14DeathRecipientEEEPvj"
    },
    {
     "mangled_component_name":"_ZN7android8hardware9BHwBinder13unlinkToDeathERKNS_2wpINS0_7IBinder14DeathRecipientEEEPvjPS5_"
    },
    {
     "mangled_component_name":"_ZNK7android8hardware7IBinder13checkSubclassEPKv"
    },
    {
     "mangled_component_name":"_ZN7android8hardware9BHwBinder12attachObjectEPKvPvS4_PFvS3_S4_S4_E"
    },
    {
     "mangled_component_name":"_ZNK7android8hardware9BHwBinder10findObjectEPKv"
    },
    {
     "mangled_component_name":"_ZN7android8hardware9BHwBinder12detachObjectEPKv"
    },
    {
     "mangled_component_name":"_ZN7android8hardware9BHwBinder11localBinderEv"
    },
    {
     "mangled_component_name":"_ZN7android8hardware7IBinder12remoteBinderEv"
    },
    {
     "kind":"complete_dtor_pointer",
     "mangled_component_name":"_ZN7android8hardware10automotive3evs4V1_019BnHwEvsCameraStreamD1Ev"
    },
    {
     "kind":"deleting_dtor_pointer",
     "mangled_component_name":"_ZN7android8hardware10automotive3evs4V1_019BnHwEvsCameraStreamD0Ev"
    },
    {
     "mangled_component_name":"_ZN7android8hardware10automotive3evs4V1_019BnHwEvsCameraStream10onTransactEjRKNS0_6ParcelEPS5_jNSt3__18functionIFvRS5_EEE"
    },
    {
     "kind":"offset_to_top",
     "component_value":-32
    },
    {
     "kind":"rtti",
     "mangled_component_name":"_ZTIN7android8hardware10automotive3evs4V1_019BnHwEvsCameraStreamE"
    },
    {
     "kind":"complete_dtor_pointer",
     "mangled_component_name":"_ZThn32_N7android8hardware10automotive3evs4V1_019BnHwEvsCameraStreamD1Ev"
    },
    {
     "kind":"deleting_dtor_pointer",
     "mangled_component_name":"_ZThn32_N7android8hardware10automotive3evs4V1_019BnHwEvsCameraStreamD0Ev"
    },
    {
     "kind":"vcall_offset"
    },
    {
     "kind":"vcall_offset"
    },
    {
     "kind":"vcall_offset"
    },
    {
     "kind":"vcall_offset"
    },
    {
     "kind":"vcall_offset",
     "component_value":-136
    },
    {
     "kind":"offset_to_top",
     "component_value":-136
    },
    {
     "kind":"rtti",
     "mangled_component_name":"_ZTIN7android8hardware10automotive3evs4V1_019BnHwEvsCameraStreamE"
    },
    {
     "kind":"complete_dtor_pointer",
     "mangled_component_name":"_ZTv0_n24_N7android8hardware10automotive3evs4V1_019BnHwEvsCameraStreamD1Ev"
    },
    {
     "kind":"deleting_dtor_pointer",
     "mangled_component_name":"_ZTv0_n24_N7android8hardware10automotive3evs4V1_019BnHwEvsCameraStreamD0Ev"
    },
    {
     "mangled_component_name":"_ZN7android7RefBase10onFirstRefEv"
    },
    {
     "mangled_component_name":"_ZN7android7RefBase15onLastStrongRefEPKv"
    },
    {
     "mangled_component_name":"_ZN7android7RefBase20onIncStrongAttemptedEjPKv"
    },
    {
     "mangled_component_name":"_ZN7android7RefBase13onLastWeakRefEPKv"
    }
   ],
   "unique_id":"_ZTSN7android8hardware10automotive3evs4V1_019BnHwEvsCameraStreamE"
  },
  {
   "vtable_components":[
    {
     "kind":"vbase_offset",
     "component_value":120
    },
    {
     "kind":"offset_to_top"
    },
    {
     "kind":"rtti",
     "mangled_component_name":"_ZTIN7android8hardware10automotive3evs4V1_011BsEvsCameraE"
    },
    {
     "mangled_component_name":"_ZNK7android8hardware10automotive3evs4V1_010IEvsCamera8isRemoteEv"
    },
    {
     "mangled_component_name":"_ZN7android8hardware10automotive3evs4V1_011BsEvsCamera14interfaceChainENSt3__18functionIFvRKNS0_8hidl_vecINS0_11hidl_stringEEEEEE"
    },
    {
     "mangled_component_name":"_ZN7android8hardware10automotive3evs4V1_011BsEvsCamera5debugERKNS0_11hidl_handleERKNS0_8hidl_vecINS0_11hidl_stringEEE"
    },
    {
     "mangled_component_name":"_ZN7android8hardware10automotive3evs4V1_011BsEvsCamera19interfaceDescriptorENSt3__18functionIFvRKNS0_11hidl_stringEEEE"
    },
    {
     "mangled_component_name":"_ZN7android8hardware10automotive3evs4V1_011BsEvsCamera12getHashChainENSt3__18functionIFvRKNS0_8hidl_vecINS0_10hidl_arrayIhLm32EJEEEEEEEE"
    },
    {
     "mangled_component_name":"_ZN7android8hardware10automotive3evs4V1_011BsEvsCamera21setHALInstrumentationEv"
    },
    {
     "mangled_component_name":"_ZN7android8hardware10automotive3evs4V1_011BsEvsCamera11linkToDeathERKNS_2spINS0_20hidl_death_recipientEEEm"
    },
    {
     "mangled_component_name":"_ZN7android8hardware10automotive3evs4V1_011BsEvsCamera4pingEv"
    },
    {
     "mangled_component_name":"_ZN7android8hardware10automotive3evs4V1_011BsEvsCamera12getDebugInfoENSt3__18functionIFvRKNS_4hidl4base4V1_09DebugInfoEEEE"
    },
    {
     "mangled_component_name":"_ZN7android8hardware10automotive3evs4V1_011BsEvsCamera21notifySyspropsChangedEv"
    },
    {
     "mangled_component_name":"_ZN7android8hardware10automotive3evs4V1_011BsEvsCamera13unlinkToDeathERKNS_2spINS0_20hidl_death_recipientEEE"
    },
    {
     "kind":"complete_dtor_pointer",
     "mangled_component_name":"_ZN7android8hardware10automotive3evs4V1_011BsEvsCameraD1Ev"
    },
    {
     "kind":"deleting_dtor_pointer",
     "mangled_component_name":"_ZN7android8hardware10automotive3evs4V1_011BsEvsCameraD0Ev"
    },
    {
     "mangled_component_name":"_ZN7android8hardware10automotive3evs4V1_011BsEvsCamera13getCameraInfoENSt3__18functionIFvRKNS3_10CameraDescEEEE"
    },
    {
     "mangled_component_name":"_ZN7android8hardware10automotive3evs4V1_011BsEvsCamera20setMaxFramesInFlightEj"
    },
    {
     "mangled_component_name":"_ZN7android8hardware10automotive3evs4V1_011BsEvsCamera16startVideoStreamERKNS_2spINS3_16IEvsCameraStreamEEE"
    },
    {
     "mangled_component_name":"_ZN7android8hardware10automotive3evs4V1_011BsEvsCamera13doneWithFrameERKNS3_10BufferDescE"
    },
    {
     "mangled_component_name":"_ZN7android8hardware10automotive3evs4V1_011BsEvsCamera15stopVideoStreamEv"
    },
    {
     "mangled_component_name":"_ZN7android8hardware10automotive3evs4V1_011BsEvsCamera15getExtendedInfoEj"
    },
    {
     "mangled_component_name":"_ZN7android8hardware10automotive3evs4V1_011BsEvsCamera15setExtendedInfoEji"
    },
    {
     "kind":"offset_to_top",
     "component_value":-8
    },
    {
     "kind":"rtti",
     "mangled_component_name":"_ZTIN7android8hardware10automotive3evs4V1_011BsEvsCameraE"
    },
    {
     "kind":"complete_dtor_pointer",
     "mangled_component_name":"_ZThn8_N7android8hardware10automotive3evs4V1_011BsEvsCameraD1Ev"
    },
    {
     "kind":"deleting_dtor_pointer",
     "mangled_component_name":"_ZThn8_N7android8hardware10automotive3evs4V1_011BsEvsCameraD0Ev"
    },
    {
     "kind":"vcall_offset"
    },
    {
     "kind":"vcall_offset"
    },
    {
     "kind":"vcall_offset"
    },
    {
     "kind":"vcall_offset"
    },
    {
     "kind":"vcall_offset",
     "component_value":-120
    },
    {
     "kind":"offset_to_top",
     "component_value":-120
    },
    {
     "kind":"rtti",
     "mangled_component_name":"_ZTIN7android8hardware10automotive3evs4V1_011BsEvsCameraE"
    },
    {
     "kind":"complete_dtor_pointer",
     "mangled_component_name":"_ZTv0_n24_N7android8hardware10automotive3evs4V1_011BsEvsCameraD1Ev"
    },
    {
     "kind":"deleting_dtor_pointer",
     "mangled_component_name":"_ZTv0_n24_N7android8hardware10automotive3evs4V1_011BsEvsCameraD0Ev"
    },
    {
     "mangled_component_name":"_ZN7android7RefBase10onFirstRefEv"
    },
    {
     "mangled_component_name":"_ZN7android7RefBase15onLastStrongRefEPKv"
    },
    {
     "mangled_component_name":"_ZN7android7RefBase20onIncStrongAttemptedEjPKv"
    },
    {
     "mangled_component_name":"_ZN7android7RefBase13onLastWeakRefEPKv"
    }
   ],
   "unique_id":"_ZTSN7android8hardware10automotive3evs4V1_011BsEvsCameraE"
  },
  {
   "vtable_components":[
    {
     "kind":"vbase_offset",
     "component_value":200
    },
    {
     "kind":"offset_to_top"
    },
    {
     "kind":"rtti",
     "mangled_component_name":"_ZTIN7android8hardware10automotive3evs4V1_013BpHwEvsCameraE"
    },
    {
     "mangled_component_name":"_ZNK7android8hardware10automotive3evs4V1_013BpHwEvsCamera8isRemoteEv"
    },
    {
     "mangled_component_name":"_ZN7android8hardware10automotive3evs4V1_013BpHwEvsCamera14interfaceChainENSt3__18functionIFvRKNS0_8hidl_vecINS0_11hidl_stringEEEEEE"
    },
    {
     "mangled_component_name":"_ZN7android8hardware10automotive3evs4V1_013BpHwEvsCamera5debugERKNS0_11hidl_handleERKNS0_8hidl_vecINS0_11hidl_stringEEE"
    },
    {
     "mangled_component_name":"_ZN7android8hardware10automotive3evs4V1_013BpHwEvsCamera19interfaceDescriptorENSt3__18functionIFvRKNS0_11hidl_stringEEEE"
    },
    {
     "mangled_component_name":"_ZN7android8hardware10automotive3evs4V1_013BpHwEvsCamera12getHashChainENSt3__18functionIFvRKNS0_8hidl_vecINS0_10hidl_arrayIhLm32EJEEEEEEEE"
    },
    {
     "mangled_component_name":"_ZN7android8hardware10automotive3evs4V1_013BpHwEvsCamera21setHALInstrumentationEv"
    },
    {
     "mangled_component_name":"_ZN7android8hardware10automotive3evs4V1_013BpHwEvsCamera11linkToDeathERKNS_2spINS0_20hidl_death_recipientEEEm"
    },
    {
     "mangled_component_name":"_ZN7android8hardware10automotive3evs4V1_013BpHwEvsCamera4pingEv"
    },
    {
     "mangled_component_name":"_ZN7android8hardware10automotive3evs4V1_013BpHwEvsCamera12getDebugInfoENSt3__18functionIFvRKNS_4hidl4base4V1_09DebugInfoEEEE"
    },
    {
     "mangled_component_name":"_ZN7android8hardware10automotive3evs4V1_013BpHwEvsCamera21notifySyspropsChangedEv"
    },
    {
     "mangled_component_name":"_ZN7android8hardware10automotive3evs4V1_013BpHwEvsCamera13unlinkToDeathERKNS_2spINS0_20hidl_death_recipientEEE"
    },
    {
     "kind":"complete_dtor_pointer",
     "mangled_component_name":"_ZN7android8hardware10automotive3evs4V1_013BpHwEvsCameraD1Ev"
    },
    {
     "kind":"deleting_dtor_pointer",
     "mangled_component_name":"_ZN7android8hardware10automotive3evs4V1_013BpHwEvsCameraD0Ev"
    },
    {
     "mangled_component_name":"_ZN7android8hardware10automotive3evs4V1_013BpHwEvsCamera13getCameraInfoENSt3__18functionIFvRKNS3_10CameraDescEEEE"
    },
    {
     "mangled_component_name":"_ZN7android8hardware10automotive3evs4V1_013BpHwEvsCamera20setMaxFramesInFlightEj"
    },
    {
     "mangled_component_name":"_ZN7android8hardware10automotive3evs4V1_013BpHwEvsCamera16startVideoStreamERKNS_2spINS3_16IEvsCameraStreamEEE"
    },
    {
     "mangled_component_name":"_ZN7android8hardware10automotive3evs4V1_013BpHwEvsCamera13doneWithFrameERKNS3_10BufferDescE"
    },
    {
     "mangled_component_name":"_ZN7android8hardware10automotive3evs4V1_013BpHwEvsCamera15stopVideoStreamEv"
    },
    {
     "mangled_component_name":"_ZN7android8hardware10automotive3evs4V1_013BpHwEvsCamera15getExtendedInfoEj"
    },
    {
     "mangled_component_name":"_ZN7android8hardware10automotive3evs4V1_013BpHwEvsCamera15setExtendedInfoEji"
    },
    {
     "mangled_component_name":"_ZN7android8hardware11BpInterfaceINS0_10automotive3evs4V1_010IEvsCameraEE10onAsBinderEv"
    },
    {
     "kind":"vbase_offset",
     "component_value":192
    },
    {
     "kind":"offset_to_top",
     "component_value":-8
    },
    {
     "kind":"rtti",
     "mangled_component_name":"_ZTIN7android8hardware10automotive3evs4V1_013BpHwEvsCameraE"
    },
    {
     "kind":"complete_dtor_pointer",
     "mangled_component_name":"_ZThn8_N7android8hardware10automotive3evs4V1_013BpHwEvsCameraD1Ev"
    },
    {
     "kind":"deleting_dtor_pointer",
     "mangled_component_name":"_ZThn8_N7android8hardware10automotive3evs4V1_013BpHwEvsCameraD0Ev"
    },
    {
     "mangled_component_name":"_ZThn8_N7android8hardware11BpInterfaceINS0_10automotive3evs4V1_010IEvsCameraEE10onAsBinderEv"
    },
    {
     "kind":"vbase_offset",
     "component_value":184
    },
    {
     "kind":"offset_to_top",
     "component_value":-16
    },
    {
     "kind":"rtti",
     "mangled_component_name":"_ZTIN7android8hardware10automotive3evs4V1_013BpHwEvsCameraE"
    },
    {
     "kind":"complete_dtor_pointer",
     "mangled_component_name":"_ZThn16_N7android8hardware10automotive3evs4V1_013BpHwEvsCameraD1Ev"
    },
    {
     "kind":"deleting_dtor_pointer",
     "mangled_component_name":"_ZThn16_N7android8hardware10automotive3evs4V1_013BpHwEvsCameraD0Ev"
    },
    {
     "mangled_component_name":"_ZN7android8hardware11BpHwRefBase10onFirstRefEv"
    },
    {
     "mangled_component_name":"_ZN7android8hardware11BpHwRefBase15onLastStrongRefEPKv"
    },
    {
     "mangled_component_name":"_ZN7android8hardware11BpHwRefBase20onIncStrongAttemptedEjPKv"
    },
    {
     "kind":"offset_to_top",
     "component_value":-48
    },
    {
     "kind":"rtti",
     "mangled_component_name":"_ZTIN7android8hardware10automotive3evs4V1_013BpHwEvsCameraE"
    },
    {
     "kind":"complete_dtor_pointer",
     "mangled_component_name":"_ZThn48_N7android8hardware10automotive3evs4V1_013BpHwEvsCameraD1Ev"
    },
    {
     "kind":"deleting_dtor_pointer",
     "mangled_component_name":"_ZThn48_N7android8hardware10automotive3evs4V1_013BpHwEvsCameraD0Ev"
    },
    {
     "kind":"vcall_offset"
    },
    {
     "kind":"vcall_offset",
     "component_value":-184
    },
    {
     "kind":"vcall_offset",
     "component_value":-184
    },
    {
     "kind":"vcall_offset",
     "component_value":-184
    },
    {
     "kind":"vcall_offset",
     "component_value":-200
    },
    {
     "kind":"offset_to_top",
     "component_value":-200
    },
    {
     "kind":"rtti",
     "mangled_component_name":"_ZTIN7android8hardware10automotive3evs4V1_013BpHwEvsCameraE"
    },
    {
     "kind":"complete_dtor_pointer",
     "mangled_component_name":"_ZTv0_n24_N7android8hardware10automotive3evs4V1_013BpHwEvsCameraD1Ev"
    },
    {
     "kind":"deleting_dtor_pointer",
     "mangled_component_name":"_ZTv0_n24_N7android8hardware10automotive3evs4V1_013BpHwEvsCameraD0Ev"
    },
    {
     "mangled_component_name":"_ZTv0_n32_N7android8hardware11BpHwRefBase10onFirstRefEv"
    },
    {
     "mangled_component_name":"_ZTv0_n40_N7android8hardware11BpHwRefBase15onLastStrongRefEPKv"
    },
    {
     "mangled_component_name":"_ZTv0_n48_N7android8hardware11BpHwRefBase20onIncStrongAttemptedEjPKv"
    },
    {
     "mangled_component_name":"_ZN7android7RefBase13onLastWeakRefEPKv"
    }
   ],
   "unique_id":"_ZTSN7android8hardware10automotive3evs4V1_013BpHwEvsCameraE"
  },
  {
   "vtable_components":[
    {
     "kind":"vbase_offset",
     "component_value":120
    },
    {
     "kind":"offset_to_top"
    },
    {
     "kind":"rtti",
     "mangled_component_name":"_ZTIN7android8hardware10automotive3evs4V1_017BsEvsCameraStreamE"
    },
    {
     "mangled_component_name":"_ZNK7android8hardware10automotive3evs4V1_016IEvsCameraStream8isRemoteEv"
    },
    {
     "mangled_component_name":"_ZN7android8hardware10automotive3evs4V1_017BsEvsCameraStream14interfaceChainENSt3__18functionIFvRKNS0_8hidl_vecINS0_11hidl_stringEEEEEE"
    },
    {
     "mangled_component_name":"_ZN7android8hardware10automotive3evs4V1_017BsEvsCameraStream5debugERKNS0_11hidl_handleERKNS0_8hidl_vecINS0_11hidl_stringEEE"
    },
    {
     "mangled_component_name":"_ZN7android8hardware10automotive3evs4V1_017BsEvsCameraStream19interfaceDescriptorENSt3__18functionIFvRKNS0_11hidl_stringEEEE"
    },
    {
     "mangled_component_name":"_ZN7android8hardware10automotive3evs4V1_017BsEvsCameraStream12getHashChainENSt3__18functionIFvRKNS0_8hidl_vecINS0_10hidl_arrayIhLm32EJEEEEEEEE"
    },
    {
     "mangled_component_name":"_ZN7android8hardware10automotive3evs4V1_017BsEvsCameraStream21setHALInstrumentationEv"
    },
    {
     "mangled_component_name":"_ZN7android8hardware10automotive3evs4V1_017BsEvsCameraStream11linkToDeathERKNS_2spINS0_20hidl_death_recipientEEEm"
    },
    {
     "mangled_component_name":"_ZN7android8hardware10automotive3evs4V1_017BsEvsCameraStream4pingEv"
    },
    {
     "mangled_component_name":"_ZN7android8hardware10automotive3evs4V1_017BsEvsCameraStream12getDebugInfoENSt3__18functionIFvRKNS_4hidl4base4V1_09DebugInfoEEEE"
    },
    {
     "mangled_component_name":"_ZN7android8hardware10automotive3evs4V1_017BsEvsCameraStream21notifySyspropsChangedEv"
    },
    {
     "mangled_component_name":"_ZN7android8hardware10automotive3evs4V1_017BsEvsCameraStream13unlinkToDeathERKNS_2spINS0_20hidl_death_recipientEEE"
    },
    {
     "kind":"complete_dtor_pointer",
     "mangled_component_name":"_ZN7android8hardware10automotive3evs4V1_017BsEvsCameraStreamD1Ev"
    },
    {
     "kind":"deleting_dtor_pointer",
     "mangled_component_name":"_ZN7android8hardware10automotive3evs4V1_017BsEvsCameraStreamD0Ev"
    },
    {
     "mangled_component_name":"_ZN7android8hardware10automotive3evs4V1_017BsEvsCameraStream12deliverFrameERKNS3_10BufferDescE"
    },
    {
     "kind":"offset_to_top",
     "component_value":-8
    },
    {
     "kind":"rtti",
     "mangled_component_name":"_ZTIN7android8hardware10automotive3evs4V1_017BsEvsCameraStreamE"
    },
    {
     "kind":"complete_dtor_pointer",
     "mangled_component_name":"_ZThn8_N7android8hardware10automotive3evs4V1_017BsEvsCameraStreamD1Ev"
    },
    {
     "kind":"deleting_dtor_pointer",
     "mangled_component_name":"_ZThn8_N7android8hardware10automotive3evs4V1_017BsEvsCameraStreamD0Ev"
    },
    {
     "kind":"vcall_offset"
    },
    {
     "kind":"vcall_offset"
    },
    {
     "kind":"vcall_offset"
    },
    {
     "kind":"vcall_offset"
    },
    {
     "kind":"vcall_offset",
     "component_value":-120
    },
    {
     "kind":"offset_to_top",
     "component_value":-120
    },
    {
     "kind":"rtti",
     "mangled_component_name":"_ZTIN7android8hardware10automotive3evs4V1_017BsEvsCameraStreamE"
    },
    {
     "kind":"complete_dtor_pointer",
     "mangled_component_name":"_ZTv0_n24_N7android8hardware10automotive3evs4V1_017BsEvsCameraStreamD1Ev"
    },
    {
     "kind":"deleting_dtor_pointer",
     "mangled_component_name":"_ZTv0_n24_N7android8hardware10automotive3evs4V1_017BsEvsCameraStreamD0Ev"
    },
    {
     "mangled_component_name":"_ZN7android7RefBase10onFirstRefEv"
    },
    {
     "mangled_component_name":"_ZN7android7RefBase15onLastStrongRefEPKv"
    },
    {
     "mangled_component_name":"_ZN7android7RefBase20onIncStrongAttemptedEjPKv"
    },
    {
     "mangled_component_name":"_ZN7android7RefBase13onLastWeakRefEPKv"
    }
   ],
   "unique_id":"_ZTSN7android8hardware10automotive3evs4V1_017BsEvsCameraStreamE"
  }
 ],
 "elf_functions":[
  {
   "name":"_ZN7android8hardware10automotive3evs4V1_010IEvsCamera10getServiceERKNSt3__112basic_stringIcNS5_11char_traitsIcEENS5_9allocatorIcEEEEb"
  },
  {
   "name":"_ZN7android8hardware10automotive3evs4V1_010IEvsCamera11linkToDeathERKNS_2spINS0_20hidl_death_recipientEEEm"
  },
  {
   "name":"_ZN7android8hardware10automotive3evs4V1_010IEvsCamera12getDebugInfoENSt3__18functionIFvRKNS_4hidl4base4V1_09DebugInfoEEEE"
  },
  {
   "name":"_ZN7android8hardware10automotive3evs4V1_010IEvsCamera12getHashChainENSt3__18functionIFvRKNS0_8hidl_vecINS0_10hidl_arrayIhLm32EJEEEEEEEE"
  },
  {
   "name":"_ZN7android8hardware10automotive3evs4V1_010IEvsCamera13tryGetServiceERKNSt3__112basic_stringIcNS5_11char_traitsIcEENS5_9allocatorIcEEEEb"
  },
  {
   "name":"_ZN7android8hardware10automotive3evs4V1_010IEvsCamera13unlinkToDeathERKNS_2spINS0_20hidl_death_recipientEEE"
  },
  {
   "name":"_ZN7android8hardware10automotive3evs4V1_010IEvsCamera14interfaceChainENSt3__18functionIFvRKNS0_8hidl_vecINS0_11hidl_stringEEEEEE"
  },
  {
   "name":"_ZN7android8hardware10automotive3evs4V1_010IEvsCamera17registerAsServiceERKNSt3__112basic_stringIcNS5_11char_traitsIcEENS5_9allocatorIcEEEE"
  },
  {
   "name":"_ZN7android8hardware10automotive3evs4V1_010IEvsCamera19interfaceDescriptorENSt3__18functionIFvRKNS0_11hidl_stringEEEE"
  },
  {
   "name":"_ZN7android8hardware10automotive3evs4V1_010IEvsCamera21notifySyspropsChangedEv"
  },
  {
   "name":"_ZN7android8hardware10automotive3evs4V1_010IEvsCamera21setHALInstrumentationEv"
  },
  {
   "name":"_ZN7android8hardware10automotive3evs4V1_010IEvsCamera24registerForNotificationsERKNSt3__112basic_stringIcNS5_11char_traitsIcEENS5_9allocatorIcEEEERKNS_2spINS_4hidl7manager4V1_020IServiceNotificationEEE"
  },
  {
   "name":"_ZN7android8hardware10automotive3evs4V1_010IEvsCamera4pingEv"
  },
  {
   "name":"_ZN7android8hardware10automotive3evs4V1_010IEvsCamera5debugERKNS0_11hidl_handleERKNS0_8hidl_vecINS0_11hidl_stringEEE"
  },
  {
   "name":"_ZN7android8hardware10automotive3evs4V1_010IEvsCamera8castFromERKNS_2spINS_4hidl4base4V1_05IBaseEEEb"
  },
  {
   "name":"_ZN7android8hardware10automotive3evs4V1_010IEvsCamera8castFromERKNS_2spIS4_EEb"
  },
  {
   "name":"_ZN7android8hardware10automotive3evs4V1_011BsEvsCamera13addOnewayTaskENSt3__18functionIFvvEEE"
  },
  {
   "name":"_ZN7android8hardware10automotive3evs4V1_011BsEvsCameraC1ENS_2spINS3_10IEvsCameraEEE"
  },
  {
   "name":"_ZN7android8hardware10automotive3evs4V1_011BsEvsCameraC2ENS_2spINS3_10IEvsCameraEEE"
  },
  {
   "name":"_ZN7android8hardware10automotive3evs4V1_011IEvsDisplay10getServiceERKNSt3__112basic_stringIcNS5_11char_traitsIcEENS5_9allocatorIcEEEEb"
  },
  {
   "name":"_ZN7android8hardware10automotive3evs4V1_011IEvsDisplay11linkToDeathERKNS_2spINS0_20hidl_death_recipientEEEm"
  },
  {
   "name":"_ZN7android8hardware10automotive3evs4V1_011IEvsDisplay12getDebugInfoENSt3__18functionIFvRKNS_4hidl4base4V1_09DebugInfoEEEE"
  },
  {
   "name":"_ZN7android8hardware10automotive3evs4V1_011IEvsDisplay12getHashChainENSt3__18functionIFvRKNS0_8hidl_vecINS0_10hidl_arrayIhLm32EJEEEEEEEE"
  },
  {
   "name":"_ZN7android8hardware10automotive3evs4V1_011IEvsDisplay13tryGetServiceERKNSt3__112basic_stringIcNS5_11char_traitsIcEENS5_9allocatorIcEEEEb"
  },
  {
   "name":"_ZN7android8hardware10automotive3evs4V1_011IEvsDisplay13unlinkToDeathERKNS_2spINS0_20hidl_death_recipientEEE"
  },
  {
   "name":"_ZN7android8hardware10automotive3evs4V1_011IEvsDisplay14interfaceChainENSt3__18functionIFvRKNS0_8hidl_vecINS0_11hidl_stringEEEEEE"
  },
  {
   "name":"_ZN7android8hardware10automotive3evs4V1_011IEvsDisplay17registerAsServiceERKNSt3__112basic_stringIcNS5_11char_traitsIcEENS5_9allocatorIcEEEE"
  },
  {
   "name":"_ZN7android8hardware10automotive3evs4V1_011IEvsDisplay19interfaceDescriptorENSt3__18functionIFvRKNS0_11hidl_stringEEEE"
  },
  {
   "name":"_ZN7android8hardware10automotive3evs4V1_011IEvsDisplay21notifySyspropsChangedEv"
  },
  {
   "name":"_ZN7android8hardware10automotive3evs4V1_011IEvsDisplay21setHALInstrumentationEv"
  },
  {
   "name":"_ZN7android8hardware10automotive3evs4V1_011IEvsDisplay24registerForNotificationsERKNSt3__112basic_stringIcNS5_11char_traitsIcEENS5_9allocatorIcEEEERKNS_2spINS_4hidl7manager4V1_020IServiceNotificationEEE"
  },
  {
   "name":"_ZN7android8hardware10automotive3evs4V1_011IEvsDisplay4pingEv"
  },
  {
   "name":"_ZN7android8hardware10automotive3evs4V1_011IEvsDisplay5debugERKNS0_11hidl_handleERKNS0_8hidl_vecINS0_11hidl_stringEEE"
  },
  {
   "name":"_ZN7android8hardware10automotive3evs4V1_011IEvsDisplay8castFromERKNS_2spINS_4hidl4base4V1_05IBaseEEEb"
  },
  {
   "name":"_ZN7android8hardware10automotive3evs4V1_011IEvsDisplay8castFromERKNS_2spIS4_EEb"
  },
  {
   "name":"_ZN7android8hardware10automotive3evs4V1_012BsEvsDisplay13addOnewayTaskENSt3__18functionIFvvEEE"
  },
  {
   "name":"_ZN7android8hardware10automotive3evs4V1_012BsEvsDisplayC1ENS_2spINS3_11IEvsDisplayEEE"
  },
  {
   "name":"_ZN7android8hardware10automotive3evs4V1_012BsEvsDisplayC2ENS_2spINS3_11IEvsDisplayEEE"
  },
  {
   "name":"_ZN7android8hardware10automotive3evs4V1_013BnHwEvsCamera10onTransactEjRKNS0_6ParcelEPS5_jNSt3__18functionIFvRS5_EEE"
  },
  {
   "name":"_ZN7android8hardware10automotive3evs4V1_013BnHwEvsCamera12getDebugInfoENSt3__18functionIFvRKNS_4hidl4base4V1_09DebugInfoEEEE"
  },
  {
   "name":"_ZN7android8hardware10automotive3evs4V1_013BnHwEvsCamera19_hidl_doneWithFrameEPNS_4hidl4base4V1_08BnHwBaseERKNS0_6ParcelEPSA_NSt3__18functionIFvRSA_EEE"
  },
  {
   "name":"_ZN7android8hardware10automotive3evs4V1_013BnHwEvsCamera19_hidl_getCameraInfoEPNS_4hidl4base4V1_08BnHwBaseERKNS0_6ParcelEPSA_NSt3__18functionIFvRSA_EEE"
  },
  {
   "name":"_ZN7android8hardware10automotive3evs4V1_013BnHwEvsCamera21_hidl_getExtendedInfoEPNS_4hidl4base4V1_08BnHwBaseERKNS0_6ParcelEPSA_NSt3__18functionIFvRSA_EEE"
  },
  {
   "name":"_ZN7android8hardware10automotive3evs4V1_013BnHwEvsCamera21_hidl_setExtendedInfoEPNS_4hidl4base4V1_08BnHwBaseERKNS0_6ParcelEPSA_NSt3__18functionIFvRSA_EEE"
  },
  {
   "name":"_ZN7android8hardware10automotive3evs4V1_013BnHwEvsCamera21_hidl_stopVideoStreamEPNS_4hidl4base4V1_08BnHwBaseERKNS0_6ParcelEPSA_NSt3__18functionIFvRSA_EEE"
  },
  {
   "name":"_ZN7android8hardware10automotive3evs4V1_013BnHwEvsCamera22_hidl_startVideoStreamEPNS_4hidl4base4V1_08BnHwBaseERKNS0_6ParcelEPSA_NSt3__18functionIFvRSA_EEE"
  },
  {
   "name":"_ZN7android8hardware10automotive3evs4V1_013BnHwEvsCamera26_hidl_setMaxFramesInFlightEPNS_4hidl4base4V1_08BnHwBaseERKNS0_6ParcelEPSA_NSt3__18functionIFvRSA_EEE"
  },
  {
   "name":"_ZN7android8hardware10automotive3evs4V1_013BnHwEvsCamera4pingEv"
  },
  {
   "name":"_ZN7android8hardware10automotive3evs4V1_013BnHwEvsCameraC1ERKNS_2spINS3_10IEvsCameraEEE"
  },
  {
   "name":"_ZN7android8hardware10automotive3evs4V1_013BnHwEvsCameraC2ERKNS_2spINS3_10IEvsCameraEEE"
  },
  {
   "name":"_ZN7android8hardware10automotive3evs4V1_013BnHwEvsCameraD0Ev"
  },
  {
   "name":"_ZN7android8hardware10automotive3evs4V1_013BnHwEvsCameraD1Ev"
  },
  {
   "name":"_ZN7android8hardware10automotive3evs4V1_013BnHwEvsCameraD2Ev"
  },
  {
   "name":"_ZN7android8hardware10automotive3evs4V1_013BpHwEvsCamera11linkToDeathERKNS_2spINS0_20hidl_death_recipientEEEm"
  },
  {
   "name":"_ZN7android8hardware10automotive3evs4V1_013BpHwEvsCamera12getDebugInfoENSt3__18functionIFvRKNS_4hidl4base4V1_09DebugInfoEEEE"
  },
  {
   "name":"_ZN7android8hardware10automotive3evs4V1_013BpHwEvsCamera12getHashChainENSt3__18functionIFvRKNS0_8hidl_vecINS0_10hidl_arrayIhLm32EJEEEEEEEE"
  },
  {
   "name":"_ZN7android8hardware10automotive3evs4V1_013BpHwEvsCamera13doneWithFrameERKNS3_10BufferDescE"
  },
  {
   "name":"_ZN7android8hardware10automotive3evs4V1_013BpHwEvsCamera13getCameraInfoENSt3__18functionIFvRKNS3_10CameraDescEEEE"
  },
  {
   "name":"_ZN7android8hardware10automotive3evs4V1_013BpHwEvsCamera13unlinkToDeathERKNS_2spINS0_20hidl_death_recipientEEE"
  },
  {
   "name":"_ZN7android8hardware10automotive3evs4V1_013BpHwEvsCamera14interfaceChainENSt3__18functionIFvRKNS0_8hidl_vecINS0_11hidl_stringEEEEEE"
  },
  {
   "name":"_ZN7android8hardware10automotive3evs4V1_013BpHwEvsCamera15getExtendedInfoEj"
  },
  {
   "name":"_ZN7android8hardware10automotive3evs4V1_013BpHwEvsCamera15setExtendedInfoEji"
  },
  {
   "name":"_ZN7android8hardware10automotive3evs4V1_013BpHwEvsCamera15stopVideoStreamEv"
  },
  {
   "name":"_ZN7android8hardware10automotive3evs4V1_013BpHwEvsCamera16startVideoStreamERKNS_2spINS3_16IEvsCameraStreamEEE"
  },
  {
   "name":"_ZN7android8hardware10automotive3evs4V1_013BpHwEvsCamera19_hidl_doneWithFrameEPNS0_10IInterfaceEPNS0_7details16HidlInstrumentorERKNS3_10BufferDescE"
  },
  {
   "name":"_ZN7android8hardware10automotive3evs4V1_013BpHwEvsCamera19_hidl_getCameraInfoEPNS0_10IInterfaceEPNS0_7details16HidlInstrumentorENSt3__18functionIFvRKNS3_10CameraDescEEEE"
  },
  {
   "name":"_ZN7android8hardware10automotive3evs4V1_013BpHwEvsCamera19interfaceDescriptorENSt3__18functionIFvRKNS0_11hidl_stringEEEE"
  },
  {
   "name":"_ZN7android8hardware10automotive3evs4V1_013BpHwEvsCamera20setMaxFramesInFlightEj"
  },
  {
   "name":"_ZN7android8hardware10automotive3evs4V1_013BpHwEvsCamera21_hidl_getExtendedInfoEPNS0_10IInterfaceEPNS0_7details16HidlInstrumentorEj"
  },
  {
   "name":"_ZN7android8hardware10automotive3evs4V1_013BpHwEvsCamera21_hidl_setExtendedInfoEPNS0_10IInterfaceEPNS0_7details16HidlInstrumentorEji"
  },
  {
   "name":"_ZN7android8hardware10automotive3evs4V1_013BpHwEvsCamera21_hidl_stopVideoStreamEPNS0_10IInterfaceEPNS0_7details16HidlInstrumentorE"
  },
  {
   "name":"_ZN7android8hardware10automotive3evs4V1_013BpHwEvsCamera21notifySyspropsChangedEv"
  },
  {
   "name":"_ZN7android8hardware10automotive3evs4V1_013BpHwEvsCamera21setHALInstrumentationEv"
  },
  {
   "name":"_ZN7android8hardware10automotive3evs4V1_013BpHwEvsCamera22_hidl_startVideoStreamEPNS0_10IInterfaceEPNS0_7details16HidlInstrumentorERKNS_2spINS3_16IEvsCameraStreamEEE"
  },
  {
   "name":"_ZN7android8hardware10automotive3evs4V1_013BpHwEvsCamera26_hidl_setMaxFramesInFlightEPNS0_10IInterfaceEPNS0_7details16HidlInstrumentorEj"
  },
  {
   "name":"_ZN7android8hardware10automotive3evs4V1_013BpHwEvsCamera4pingEv"
  },
  {
   "name":"_ZN7android8hardware10automotive3evs4V1_013BpHwEvsCamera5debugERKNS0_11hidl_handleERKNS0_8hidl_vecINS0_11hidl_stringEEE"
  },
  {
   "name":"_ZN7android8hardware10automotive3evs4V1_013BpHwEvsCameraC1ERKNS_2spINS0_7IBinderEEE"
  },
  {
   "name":"_ZN7android8hardware10automotive3evs4V1_013BpHwEvsCameraC2ERKNS_2spINS0_7IBinderEEE"
  },
  {
   "name":"_ZN7android8hardware10automotive3evs4V1_014BnHwEvsDisplay10onTransactEjRKNS0_6ParcelEPS5_jNSt3__18functionIFvRS5_EEE"
  },
  {
   "name":"_ZN7android8hardware10automotive3evs4V1_014BnHwEvsDisplay12getDebugInfoENSt3__18functionIFvRKNS_4hidl4base4V1_09DebugInfoEEEE"
  },
  {
   "name":"_ZN7android8hardware10automotive3evs4V1_014BnHwEvsDisplay20_hidl_getDisplayInfoEPNS_4hidl4base4V1_08BnHwBaseERKNS0_6ParcelEPSA_NSt3__18functionIFvRSA_EEE"
  },
  {
   "name":"_ZN7android8hardware10automotive3evs4V1_014BnHwEvsDisplay21_hidl_getDisplayStateEPNS_4hidl4base4V1_08BnHwBaseERKNS0_6ParcelEPSA_NSt3__18functionIFvRSA_EEE"
  },
  {
   "name":"_ZN7android8hardware10automotive3evs4V1_014BnHwEvsDisplay21_hidl_getTargetBufferEPNS_4hidl4base4V1_08BnHwBaseERKNS0_6ParcelEPSA_NSt3__18functionIFvRSA_EEE"
  },
  {
   "name":"_ZN7android8hardware10automotive3evs4V1_014BnHwEvsDisplay21_hidl_setDisplayStateEPNS_4hidl4base4V1_08BnHwBaseERKNS0_6ParcelEPSA_NSt3__18functionIFvRSA_EEE"
  },
  {
   "name":"_ZN7android8hardware10automotive3evs4V1_014BnHwEvsDisplay34_hidl_returnTargetBufferForDisplayEPNS_4hidl4base4V1_08BnHwBaseERKNS0_6ParcelEPSA_NSt3__18functionIFvRSA_EEE"
  },
  {
   "name":"_ZN7android8hardware10automotive3evs4V1_014BnHwEvsDisplay4pingEv"
  },
  {
   "name":"_ZN7android8hardware10automotive3evs4V1_014BnHwEvsDisplayC1ERKNS_2spINS3_11IEvsDisplayEEE"
  },
  {
   "name":"_ZN7android8hardware10automotive3evs4V1_014BnHwEvsDisplayC2ERKNS_2spINS3_11IEvsDisplayEEE"
  },
  {
   "name":"_ZN7android8hardware10automotive3evs4V1_014BnHwEvsDisplayD0Ev"
  },
  {
   "name":"_ZN7android8hardware10automotive3evs4V1_014BnHwEvsDisplayD1Ev"
  },
  {
   "name":"_ZN7android8hardware10automotive3evs4V1_014BnHwEvsDisplayD2Ev"
  },
  {
   "name":"_ZN7android8hardware10automotive3evs4V1_014BpHwEvsDisplay11linkToDeathERKNS_2spINS0_20hidl_death_recipientEEEm"
  },
  {
   "name":"_ZN7android8hardware10automotive3evs4V1_014BpHwEvsDisplay12getDebugInfoENSt3__18functionIFvRKNS_4hidl4base4V1_09DebugInfoEEEE"
  },
  {
   "name":"_ZN7android8hardware10automotive3evs4V1_014BpHwEvsDisplay12getHashChainENSt3__18functionIFvRKNS0_8hidl_vecINS0_10hidl_arrayIhLm32EJEEEEEEEE"
  },
  {
   "name":"_ZN7android8hardware10automotive3evs4V1_014BpHwEvsDisplay13unlinkToDeathERKNS_2spINS0_20hidl_death_recipientEEE"
  },
  {
   "name":"_ZN7android8hardware10automotive3evs4V1_014BpHwEvsDisplay14getDisplayInfoENSt3__18functionIFvRKNS3_11DisplayDescEEEE"
  },
  {
   "name":"_ZN7android8hardware10automotive3evs4V1_014BpHwEvsDisplay14interfaceChainENSt3__18functionIFvRKNS0_8hidl_vecINS0_11hidl_stringEEEEEE"
  },
  {
   "name":"_ZN7android8hardware10automotive3evs4V1_014BpHwEvsDisplay15getDisplayStateEv"
  },
  {
   "name":"_ZN7android8hardware10automotive3evs4V1_014BpHwEvsDisplay15getTargetBufferENSt3__18functionIFvRKNS3_10BufferDescEEEE"
  },
  {
   "name":"_ZN7android8hardware10automotive3evs4V1_014BpHwEvsDisplay15setDisplayStateENS3_12DisplayStateE"
  },
  {
   "name":"_ZN7android8hardware10automotive3evs4V1_014BpHwEvsDisplay19interfaceDescriptorENSt3__18functionIFvRKNS0_11hidl_stringEEEE"
  },
  {
   "name":"_ZN7android8hardware10automotive3evs4V1_014BpHwEvsDisplay20_hidl_getDisplayInfoEPNS0_10IInterfaceEPNS0_7details16HidlInstrumentorENSt3__18functionIFvRKNS3_11DisplayDescEEEE"
  },
  {
   "name":"_ZN7android8hardware10automotive3evs4V1_014BpHwEvsDisplay21_hidl_getDisplayStateEPNS0_10IInterfaceEPNS0_7details16HidlInstrumentorE"
  },
  {
   "name":"_ZN7android8hardware10automotive3evs4V1_014BpHwEvsDisplay21_hidl_getTargetBufferEPNS0_10IInterfaceEPNS0_7details16HidlInstrumentorENSt3__18functionIFvRKNS3_10BufferDescEEEE"
  },
  {
   "name":"_ZN7android8hardware10automotive3evs4V1_014BpHwEvsDisplay21_hidl_setDisplayStateEPNS0_10IInterfaceEPNS0_7details16HidlInstrumentorENS3_12DisplayStateE"
  },
  {
   "name":"_ZN7android8hardware10automotive3evs4V1_014BpHwEvsDisplay21notifySyspropsChangedEv"
  },
  {
   "name":"_ZN7android8hardware10automotive3evs4V1_014BpHwEvsDisplay21setHALInstrumentationEv"
  },
  {
   "name":"_ZN7android8hardware10automotive3evs4V1_014BpHwEvsDisplay28returnTargetBufferForDisplayERKNS3_10BufferDescE"
  },
  {
   "name":"_ZN7android8hardware10automotive3evs4V1_014BpHwEvsDisplay34_hidl_returnTargetBufferForDisplayEPNS0_10IInterfaceEPNS0_7details16HidlInstrumentorERKNS3_10BufferDescE"
  },
  {
   "name":"_ZN7android8hardware10automotive3evs4V1_014BpHwEvsDisplay4pingEv"
  },
  {
   "name":"_ZN7android8hardware10automotive3evs4V1_014BpHwEvsDisplay5debugERKNS0_11hidl_handleERKNS0_8hidl_vecINS0_11hidl_stringEEE"
  },
  {
   "name":"_ZN7android8hardware10automotive3evs4V1_014BpHwEvsDisplayC1ERKNS_2spINS0_7IBinderEEE"
  },
  {
   "name":"_ZN7android8hardware10automotive3evs4V1_014BpHwEvsDisplayC2ERKNS_2spINS0_7IBinderEEE"
  },
  {
   "name":"_ZN7android8hardware10automotive3evs4V1_014IEvsEnumerator10getServiceERKNSt3__112basic_stringIcNS5_11char_traitsIcEENS5_9allocatorIcEEEEb"
  },
  {
   "name":"_ZN7android8hardware10automotive3evs4V1_014IEvsEnumerator11linkToDeathERKNS_2spINS0_20hidl_death_recipientEEEm"
  },
  {
   "name":"_ZN7android8hardware10automotive3evs4V1_014IEvsEnumerator12getDebugInfoENSt3__18functionIFvRKNS_4hidl4base4V1_09DebugInfoEEEE"
  },
  {
   "name":"_ZN7android8hardware10automotive3evs4V1_014IEvsEnumerator12getHashChainENSt3__18functionIFvRKNS0_8hidl_vecINS0_10hidl_arrayIhLm32EJEEEEEEEE"
  },
  {
   "name":"_ZN7android8hardware10automotive3evs4V1_014IEvsEnumerator13tryGetServiceERKNSt3__112basic_stringIcNS5_11char_traitsIcEENS5_9allocatorIcEEEEb"
  },
  {
   "name":"_ZN7android8hardware10automotive3evs4V1_014IEvsEnumerator13unlinkToDeathERKNS_2spINS0_20hidl_death_recipientEEE"
  },
  {
   "name":"_ZN7android8hardware10automotive3evs4V1_014IEvsEnumerator14interfaceChainENSt3__18functionIFvRKNS0_8hidl_vecINS0_11hidl_stringEEEEEE"
  },
  {
   "name":"_ZN7android8hardware10automotive3evs4V1_014IEvsEnumerator17registerAsServiceERKNSt3__112basic_stringIcNS5_11char_traitsIcEENS5_9allocatorIcEEEE"
  },
  {
   "name":"_ZN7android8hardware10automotive3evs4V1_014IEvsEnumerator19interfaceDescriptorENSt3__18functionIFvRKNS0_11hidl_stringEEEE"
  },
  {
   "name":"_ZN7android8hardware10automotive3evs4V1_014IEvsEnumerator21notifySyspropsChangedEv"
  },
  {
   "name":"_ZN7android8hardware10automotive3evs4V1_014IEvsEnumerator21setHALInstrumentationEv"
  },
  {
   "name":"_ZN7android8hardware10automotive3evs4V1_014IEvsEnumerator24registerForNotificationsERKNSt3__112basic_stringIcNS5_11char_traitsIcEENS5_9allocatorIcEEEERKNS_2spINS_4hidl7manager4V1_020IServiceNotificationEEE"
  },
  {
   "name":"_ZN7android8hardware10automotive3evs4V1_014IEvsEnumerator4pingEv"
  },
  {
   "name":"_ZN7android8hardware10automotive3evs4V1_014IEvsEnumerator5debugERKNS0_11hidl_handleERKNS0_8hidl_vecINS0_11hidl_stringEEE"
  },
  {
   "name":"_ZN7android8hardware10automotive3evs4V1_014IEvsEnumerator8castFromERKNS_2spINS_4hidl4base4V1_05IBaseEEEb"
  },
  {
   "name":"_ZN7android8hardware10automotive3evs4V1_014IEvsEnumerator8castFromERKNS_2spIS4_EEb"
  },
  {
   "name":"_ZN7android8hardware10automotive3evs4V1_015BsEvsEnumerator13addOnewayTaskENSt3__18functionIFvvEEE"
  },
  {
   "name":"_ZN7android8hardware10automotive3evs4V1_015BsEvsEnumeratorC1ENS_2spINS3_14IEvsEnumeratorEEE"
  },
  {
   "name":"_ZN7android8hardware10automotive3evs4V1_015BsEvsEnumeratorC2ENS_2spINS3_14IEvsEnumeratorEEE"
  },
  {
   "name":"_ZN7android8hardware10automotive3evs4V1_016IEvsCameraStream10getServiceERKNSt3__112basic_stringIcNS5_11char_traitsIcEENS5_9allocatorIcEEEEb"
  },
  {
   "name":"_ZN7android8hardware10automotive3evs4V1_016IEvsCameraStream11linkToDeathERKNS_2spINS0_20hidl_death_recipientEEEm"
  },
  {
   "name":"_ZN7android8hardware10automotive3evs4V1_016IEvsCameraStream12getDebugInfoENSt3__18functionIFvRKNS_4hidl4base4V1_09DebugInfoEEEE"
  },
  {
   "name":"_ZN7android8hardware10automotive3evs4V1_016IEvsCameraStream12getHashChainENSt3__18functionIFvRKNS0_8hidl_vecINS0_10hidl_arrayIhLm32EJEEEEEEEE"
  },
  {
   "name":"_ZN7android8hardware10automotive3evs4V1_016IEvsCameraStream13tryGetServiceERKNSt3__112basic_stringIcNS5_11char_traitsIcEENS5_9allocatorIcEEEEb"
  },
  {
   "name":"_ZN7android8hardware10automotive3evs4V1_016IEvsCameraStream13unlinkToDeathERKNS_2spINS0_20hidl_death_recipientEEE"
  },
  {
   "name":"_ZN7android8hardware10automotive3evs4V1_016IEvsCameraStream14interfaceChainENSt3__18functionIFvRKNS0_8hidl_vecINS0_11hidl_stringEEEEEE"
  },
  {
   "name":"_ZN7android8hardware10automotive3evs4V1_016IEvsCameraStream17registerAsServiceERKNSt3__112basic_stringIcNS5_11char_traitsIcEENS5_9allocatorIcEEEE"
  },
  {
   "name":"_ZN7android8hardware10automotive3evs4V1_016IEvsCameraStream19interfaceDescriptorENSt3__18functionIFvRKNS0_11hidl_stringEEEE"
  },
  {
   "name":"_ZN7android8hardware10automotive3evs4V1_016IEvsCameraStream21notifySyspropsChangedEv"
  },
  {
   "name":"_ZN7android8hardware10automotive3evs4V1_016IEvsCameraStream21setHALInstrumentationEv"
  },
  {
   "name":"_ZN7android8hardware10automotive3evs4V1_016IEvsCameraStream24registerForNotificationsERKNSt3__112basic_stringIcNS5_11char_traitsIcEENS5_9allocatorIcEEEERKNS_2spINS_4hidl7manager4V1_020IServiceNotificationEEE"
  },
  {
   "name":"_ZN7android8hardware10automotive3evs4V1_016IEvsCameraStream4pingEv"
  },
  {
   "name":"_ZN7android8hardware10automotive3evs4V1_016IEvsCameraStream5debugERKNS0_11hidl_handleERKNS0_8hidl_vecINS0_11hidl_stringEEE"
  },
  {
   "name":"_ZN7android8hardware10automotive3evs4V1_016IEvsCameraStream8castFromERKNS_2spINS_4hidl4base4V1_05IBaseEEEb"
  },
  {
   "name":"_ZN7android8hardware10automotive3evs4V1_016IEvsCameraStream8castFromERKNS_2spIS4_EEb"
  },
  {
   "name":"_ZN7android8hardware10automotive3evs4V1_017BnHwEvsEnumerator10onTransactEjRKNS0_6ParcelEPS5_jNSt3__18functionIFvRS5_EEE"
  },
  {
   "name":"_ZN7android8hardware10automotive3evs4V1_017BnHwEvsEnumerator12getDebugInfoENSt3__18functionIFvRKNS_4hidl4base4V1_09DebugInfoEEEE"
  },
  {
   "name":"_ZN7android8hardware10automotive3evs4V1_017BnHwEvsEnumerator16_hidl_openCameraEPNS_4hidl4base4V1_08BnHwBaseERKNS0_6ParcelEPSA_NSt3__18functionIFvRSA_EEE"
  },
  {
   "name":"_ZN7android8hardware10automotive3evs4V1_017BnHwEvsEnumerator17_hidl_closeCameraEPNS_4hidl4base4V1_08BnHwBaseERKNS0_6ParcelEPSA_NSt3__18functionIFvRSA_EEE"
  },
  {
   "name":"_ZN7android8hardware10automotive3evs4V1_017BnHwEvsEnumerator17_hidl_openDisplayEPNS_4hidl4base4V1_08BnHwBaseERKNS0_6ParcelEPSA_NSt3__18functionIFvRSA_EEE"
  },
  {
   "name":"_ZN7android8hardware10automotive3evs4V1_017BnHwEvsEnumerator18_hidl_closeDisplayEPNS_4hidl4base4V1_08BnHwBaseERKNS0_6ParcelEPSA_NSt3__18functionIFvRSA_EEE"
  },
  {
   "name":"_ZN7android8hardware10automotive3evs4V1_017BnHwEvsEnumerator19_hidl_getCameraListEPNS_4hidl4base4V1_08BnHwBaseERKNS0_6ParcelEPSA_NSt3__18functionIFvRSA_EEE"
  },
  {
   "name":"_ZN7android8hardware10automotive3evs4V1_017BnHwEvsEnumerator21_hidl_getDisplayStateEPNS_4hidl4base4V1_08BnHwBaseERKNS0_6ParcelEPSA_NSt3__18functionIFvRSA_EEE"
  },
  {
   "name":"_ZN7android8hardware10automotive3evs4V1_017BnHwEvsEnumerator4pingEv"
  },
  {
   "name":"_ZN7android8hardware10automotive3evs4V1_017BnHwEvsEnumeratorC1ERKNS_2spINS3_14IEvsEnumeratorEEE"
  },
  {
   "name":"_ZN7android8hardware10automotive3evs4V1_017BnHwEvsEnumeratorC2ERKNS_2spINS3_14IEvsEnumeratorEEE"
  },
  {
   "name":"_ZN7android8hardware10automotive3evs4V1_017BnHwEvsEnumeratorD0Ev"
  },
  {
   "name":"_ZN7android8hardware10automotive3evs4V1_017BnHwEvsEnumeratorD1Ev"
  },
  {
   "name":"_ZN7android8hardware10automotive3evs4V1_017BnHwEvsEnumeratorD2Ev"
  },
  {
   "name":"_ZN7android8hardware10automotive3evs4V1_017BpHwEvsEnumerator10openCameraERKNS0_11hidl_stringE"
  },
  {
   "name":"_ZN7android8hardware10automotive3evs4V1_017BpHwEvsEnumerator11closeCameraERKNS_2spINS3_10IEvsCameraEEE"
  },
  {
   "name":"_ZN7android8hardware10automotive3evs4V1_017BpHwEvsEnumerator11linkToDeathERKNS_2spINS0_20hidl_death_recipientEEEm"
  },
  {
   "name":"_ZN7android8hardware10automotive3evs4V1_017BpHwEvsEnumerator11openDisplayEv"
  },
  {
   "name":"_ZN7android8hardware10automotive3evs4V1_017BpHwEvsEnumerator12closeDisplayERKNS_2spINS3_11IEvsDisplayEEE"
  },
  {
   "name":"_ZN7android8hardware10automotive3evs4V1_017BpHwEvsEnumerator12getDebugInfoENSt3__18functionIFvRKNS_4hidl4base4V1_09DebugInfoEEEE"
  },
  {
   "name":"_ZN7android8hardware10automotive3evs4V1_017BpHwEvsEnumerator12getHashChainENSt3__18functionIFvRKNS0_8hidl_vecINS0_10hidl_arrayIhLm32EJEEEEEEEE"
  },
  {
   "name":"_ZN7android8hardware10automotive3evs4V1_017BpHwEvsEnumerator13getCameraListENSt3__18functionIFvRKNS0_8hidl_vecINS3_10CameraDescEEEEEE"
  },
  {
   "name":"_ZN7android8hardware10automotive3evs4V1_017BpHwEvsEnumerator13unlinkToDeathERKNS_2spINS0_20hidl_death_recipientEEE"
  },
  {
   "name":"_ZN7android8hardware10automotive3evs4V1_017BpHwEvsEnumerator14interfaceChainENSt3__18functionIFvRKNS0_8hidl_vecINS0_11hidl_stringEEEEEE"
  },
  {
   "name":"_ZN7android8hardware10automotive3evs4V1_017BpHwEvsEnumerator15getDisplayStateEv"
  },
  {
   "name":"_ZN7android8hardware10automotive3evs4V1_017BpHwEvsEnumerator16_hidl_openCameraEPNS0_10IInterfaceEPNS0_7details16HidlInstrumentorERKNS0_11hidl_stringE"
  },
  {
   "name":"_ZN7android8hardware10automotive3evs4V1_017BpHwEvsEnumerator17_hidl_closeCameraEPNS0_10IInterfaceEPNS0_7details16HidlInstrumentorERKNS_2spINS3_10IEvsCameraEEE"
  },
  {
   "name":"_ZN7android8hardware10automotive3evs4V1_017BpHwEvsEnumerator17_hidl_openDisplayEPNS0_10IInterfaceEPNS0_7details16HidlInstrumentorE"
  },
  {
   "name":"_ZN7android8hardware10automotive3evs4V1_017BpHwEvsEnumerator18_hidl_closeDisplayEPNS0_10IInterfaceEPNS0_7details16HidlInstrumentorERKNS_2spINS3_11IEvsDisplayEEE"
  },
  {
   "name":"_ZN7android8hardware10automotive3evs4V1_017BpHwEvsEnumerator19_hidl_getCameraListEPNS0_10IInterfaceEPNS0_7details16HidlInstrumentorENSt3__18functionIFvRKNS0_8hidl_vecINS3_10CameraDescEEEEEE"
  },
  {
   "name":"_ZN7android8hardware10automotive3evs4V1_017BpHwEvsEnumerator19interfaceDescriptorENSt3__18functionIFvRKNS0_11hidl_stringEEEE"
  },
  {
   "name":"_ZN7android8hardware10automotive3evs4V1_017BpHwEvsEnumerator21_hidl_getDisplayStateEPNS0_10IInterfaceEPNS0_7details16HidlInstrumentorE"
  },
  {
   "name":"_ZN7android8hardware10automotive3evs4V1_017BpHwEvsEnumerator21notifySyspropsChangedEv"
  },
  {
   "name":"_ZN7android8hardware10automotive3evs4V1_017BpHwEvsEnumerator21setHALInstrumentationEv"
  },
  {
   "name":"_ZN7android8hardware10automotive3evs4V1_017BpHwEvsEnumerator4pingEv"
  },
  {
   "name":"_ZN7android8hardware10automotive3evs4V1_017BpHwEvsEnumerator5debugERKNS0_11hidl_handleERKNS0_8hidl_vecINS0_11hidl_stringEEE"
  },
  {
   "name":"_ZN7android8hardware10automotive3evs4V1_017BpHwEvsEnumeratorC1ERKNS_2spINS0_7IBinderEEE"
  },
  {
   "name":"_ZN7android8hardware10automotive3evs4V1_017BpHwEvsEnumeratorC2ERKNS_2spINS0_7IBinderEEE"
  },
  {
   "name":"_ZN7android8hardware10automotive3evs4V1_017BsEvsCameraStream13addOnewayTaskENSt3__18functionIFvvEEE"
  },
  {
   "name":"_ZN7android8hardware10automotive3evs4V1_017BsEvsCameraStreamC1ENS_2spINS3_16IEvsCameraStreamEEE"
  },
  {
   "name":"_ZN7android8hardware10automotive3evs4V1_017BsEvsCameraStreamC2ENS_2spINS3_16IEvsCameraStreamEEE"
  },
  {
   "name":"_ZN7android8hardware10automotive3evs4V1_019BnHwEvsCameraStream10onTransactEjRKNS0_6ParcelEPS5_jNSt3__18functionIFvRS5_EEE"
  },
  {
   "name":"_ZN7android8hardware10automotive3evs4V1_019BnHwEvsCameraStream12getDebugInfoENSt3__18functionIFvRKNS_4hidl4base4V1_09DebugInfoEEEE"
  },
  {
   "name":"_ZN7android8hardware10automotive3evs4V1_019BnHwEvsCameraStream18_hidl_deliverFrameEPNS_4hidl4base4V1_08BnHwBaseERKNS0_6ParcelEPSA_NSt3__18functionIFvRSA_EEE"
  },
  {
   "name":"_ZN7android8hardware10automotive3evs4V1_019BnHwEvsCameraStream4pingEv"
  },
  {
   "name":"_ZN7android8hardware10automotive3evs4V1_019BnHwEvsCameraStreamC1ERKNS_2spINS3_16IEvsCameraStreamEEE"
  },
  {
   "name":"_ZN7android8hardware10automotive3evs4V1_019BnHwEvsCameraStreamC2ERKNS_2spINS3_16IEvsCameraStreamEEE"
  },
  {
   "name":"_ZN7android8hardware10automotive3evs4V1_019BnHwEvsCameraStreamD0Ev"
  },
  {
   "name":"_ZN7android8hardware10automotive3evs4V1_019BnHwEvsCameraStreamD1Ev"
  },
  {
   "name":"_ZN7android8hardware10automotive3evs4V1_019BnHwEvsCameraStreamD2Ev"
  },
  {
   "name":"_ZN7android8hardware10automotive3evs4V1_019BpHwEvsCameraStream11linkToDeathERKNS_2spINS0_20hidl_death_recipientEEEm"
  },
  {
   "name":"_ZN7android8hardware10automotive3evs4V1_019BpHwEvsCameraStream12deliverFrameERKNS3_10BufferDescE"
  },
  {
   "name":"_ZN7android8hardware10automotive3evs4V1_019BpHwEvsCameraStream12getDebugInfoENSt3__18functionIFvRKNS_4hidl4base4V1_09DebugInfoEEEE"
  },
  {
   "name":"_ZN7android8hardware10automotive3evs4V1_019BpHwEvsCameraStream12getHashChainENSt3__18functionIFvRKNS0_8hidl_vecINS0_10hidl_arrayIhLm32EJEEEEEEEE"
  },
  {
   "name":"_ZN7android8hardware10automotive3evs4V1_019BpHwEvsCameraStream13unlinkToDeathERKNS_2spINS0_20hidl_death_recipientEEE"
  },
  {
   "name":"_ZN7android8hardware10automotive3evs4V1_019BpHwEvsCameraStream14interfaceChainENSt3__18functionIFvRKNS0_8hidl_vecINS0_11hidl_stringEEEEEE"
  },
  {
   "name":"_ZN7android8hardware10automotive3evs4V1_019BpHwEvsCameraStream18_hidl_deliverFrameEPNS0_10IInterfaceEPNS0_7details16HidlInstrumentorERKNS3_10BufferDescE"
  },
  {
   "name":"_ZN7android8hardware10automotive3evs4V1_019BpHwEvsCameraStream19interfaceDescriptorENSt3__18functionIFvRKNS0_11hidl_stringEEEE"
  },
  {
   "name":"_ZN7android8hardware10automotive3evs4V1_019BpHwEvsCameraStream21notifySyspropsChangedEv"
  },
  {
   "name":"_ZN7android8hardware10automotive3evs4V1_019BpHwEvsCameraStream21setHALInstrumentationEv"
  },
  {
   "name":"_ZN7android8hardware10automotive3evs4V1_019BpHwEvsCameraStream4pingEv"
  },
  {
   "name":"_ZN7android8hardware10automotive3evs4V1_019BpHwEvsCameraStream5debugERKNS0_11hidl_handleERKNS0_8hidl_vecINS0_11hidl_stringEEE"
  },
  {
   "name":"_ZN7android8hardware10automotive3evs4V1_019BpHwEvsCameraStreamC1ERKNS_2spINS0_7IBinderEEE"
  },
  {
   "name":"_ZN7android8hardware10automotive3evs4V1_019BpHwEvsCameraStreamC2ERKNS_2spINS0_7IBinderEEE"
  },
  {
   "name":"_ZN7android8hardware10automotive3evs4V1_021writeEmbeddedToParcelERKNS3_10BufferDescEPNS0_6ParcelEmm"
  },
  {
   "name":"_ZN7android8hardware10automotive3evs4V1_021writeEmbeddedToParcelERKNS3_10CameraDescEPNS0_6ParcelEmm"
  },
  {
   "name":"_ZN7android8hardware10automotive3evs4V1_021writeEmbeddedToParcelERKNS3_11DisplayDescEPNS0_6ParcelEmm"
  },
  {
   "name":"_ZN7android8hardware10automotive3evs4V1_022readEmbeddedFromParcelERKNS3_10BufferDescERKNS0_6ParcelEmm"
  },
  {
   "name":"_ZN7android8hardware10automotive3evs4V1_022readEmbeddedFromParcelERKNS3_10CameraDescERKNS0_6ParcelEmm"
  },
  {
   "name":"_ZN7android8hardware10automotive3evs4V1_022readEmbeddedFromParcelERKNS3_11DisplayDescERKNS0_6ParcelEmm"
  },
  {
   "binding":"weak",
   "name":"_ZN7android8hardware10fromBinderINS0_10automotive3evs4V1_010IEvsCameraENS4_13BpHwEvsCameraENS4_13BnHwEvsCameraEEENS_2spIT_EERKNS8_INS0_7IBinderEEE"
  },
  {
   "binding":"weak",
   "name":"_ZN7android8hardware10fromBinderINS0_10automotive3evs4V1_011IEvsDisplayENS4_14BpHwEvsDisplayENS4_14BnHwEvsDisplayEEENS_2spIT_EERKNS8_INS0_7IBinderEEE"
  },
  {
   "binding":"weak",
   "name":"_ZN7android8hardware10fromBinderINS0_10automotive3evs4V1_016IEvsCameraStreamENS4_19BpHwEvsCameraStreamENS4_19BnHwEvsCameraStreamEEENS_2spIT_EERKNS8_INS0_7IBinderEEE"
  },
  {
   "binding":"weak",
   "name":"_ZN7android8hardware7details13castInterfaceINS0_10automotive3evs4V1_010IEvsCameraENS_4hidl4base4V1_05IBaseENS5_13BpHwEvsCameraEEENS0_6ReturnINS_2spIT_EEEENSD_IT0_EEPKcb"
  },
  {
   "binding":"weak",
   "name":"_ZN7android8hardware7details13castInterfaceINS0_10automotive3evs4V1_011IEvsDisplayENS_4hidl4base4V1_05IBaseENS5_14BpHwEvsDisplayEEENS0_6ReturnINS_2spIT_EEEENSD_IT0_EEPKcb"
  },
  {
   "binding":"weak",
   "name":"_ZN7android8hardware7details13castInterfaceINS0_10automotive3evs4V1_014IEvsEnumeratorENS_4hidl4base4V1_05IBaseENS5_17BpHwEvsEnumeratorEEENS0_6ReturnINS_2spIT_EEEENSD_IT0_EEPKcb"
  },
  {
   "binding":"weak",
   "name":"_ZN7android8hardware7details13castInterfaceINS0_10automotive3evs4V1_016IEvsCameraStreamENS_4hidl4base4V1_05IBaseENS5_19BpHwEvsCameraStreamEEENS0_6ReturnINS_2spIT_EEEENSD_IT0_EEPKcb"
  },
  {
   "binding":"weak",
   "name":"_ZN7android8hardware7details15wrapPassthroughINS0_10automotive3evs4V1_010IEvsCameraEvEENS_2spIT_EES9_"
  },
  {
   "binding":"weak",
   "name":"_ZN7android8hardware7details15wrapPassthroughINS0_10automotive3evs4V1_011IEvsDisplayEvEENS_2spIT_EES9_"
  },
  {
   "binding":"weak",
   "name":"_ZN7android8hardware7details15wrapPassthroughINS0_10automotive3evs4V1_016IEvsCameraStreamEvEENS_2spIT_EES9_"
  },
  {
   "binding":"weak",
   "name":"_ZN7android8hardware7details18getServiceInternalINS0_10automotive3evs4V1_013BpHwEvsCameraENS5_10IEvsCameraEvvEENS_2spIT0_EERKNSt3__112basic_stringIcNSB_11char_traitsIcEENSB_9allocatorIcEEEEbb"
  },
  {
   "binding":"weak",
   "name":"_ZN7android8hardware7details18getServiceInternalINS0_10automotive3evs4V1_014BpHwEvsDisplayENS5_11IEvsDisplayEvvEENS_2spIT0_EERKNSt3__112basic_stringIcNSB_11char_traitsIcEENSB_9allocatorIcEEEEbb"
  },
  {
   "binding":"weak",
   "name":"_ZN7android8hardware7details18getServiceInternalINS0_10automotive3evs4V1_017BpHwEvsEnumeratorENS5_14IEvsEnumeratorEvvEENS_2spIT0_EERKNSt3__112basic_stringIcNSB_11char_traitsIcEENSB_9allocatorIcEEEEbb"
  },
  {
   "binding":"weak",
   "name":"_ZN7android8hardware7details18getServiceInternalINS0_10automotive3evs4V1_019BpHwEvsCameraStreamENS5_16IEvsCameraStreamEvvEENS_2spIT0_EERKNSt3__112basic_stringIcNSB_11char_traitsIcEENSB_9allocatorIcEEEEbb"
  },
  {
   "binding":"weak",
   "name":"_ZN7android8hardware8toBinderINS0_10automotive3evs4V1_010IEvsCameraEvEENS_2spINS0_7IBinderEEENS6_IT_EE"
  },
  {
   "binding":"weak",
   "name":"_ZN7android8hardware8toBinderINS0_10automotive3evs4V1_011IEvsDisplayEvEENS_2spINS0_7IBinderEEENS6_IT_EE"
  },
  {
   "binding":"weak",
   "name":"_ZN7android8hardware8toBinderINS0_10automotive3evs4V1_016IEvsCameraStreamEvEENS_2spINS0_7IBinderEEENS6_IT_EE"
  },
  {
   "binding":"weak",
   "name":"_ZN7android8hardware8toBinderINS_4hidl4base4V1_05IBaseEvEENS_2spINS0_7IBinderEEENS6_IT_EE"
  },
  {
   "name":"_ZThn32_N7android8hardware10automotive3evs4V1_013BnHwEvsCameraD0Ev"
  },
  {
   "name":"_ZThn32_N7android8hardware10automotive3evs4V1_013BnHwEvsCameraD1Ev"
  },
  {
   "name":"_ZThn32_N7android8hardware10automotive3evs4V1_014BnHwEvsDisplayD0Ev"
  },
  {
   "name":"_ZThn32_N7android8hardware10automotive3evs4V1_014BnHwEvsDisplayD1Ev"
  },
  {
   "name":"_ZThn32_N7android8hardware10automotive3evs4V1_017BnHwEvsEnumeratorD0Ev"
  },
  {
   "name":"_ZThn32_N7android8hardware10automotive3evs4V1_017BnHwEvsEnumeratorD1Ev"
  },
  {
   "name":"_ZThn32_N7android8hardware10automotive3evs4V1_019BnHwEvsCameraStreamD0Ev"
  },
  {
   "name":"_ZThn32_N7android8hardware10automotive3evs4V1_019BnHwEvsCameraStreamD1Ev"
  },
  {
   "name":"_ZTv0_n24_N7android8hardware10automotive3evs4V1_013BnHwEvsCameraD0Ev"
  },
  {
   "name":"_ZTv0_n24_N7android8hardware10automotive3evs4V1_013BnHwEvsCameraD1Ev"
  },
  {
   "name":"_ZTv0_n24_N7android8hardware10automotive3evs4V1_014BnHwEvsDisplayD0Ev"
  },
  {
   "name":"_ZTv0_n24_N7android8hardware10automotive3evs4V1_014BnHwEvsDisplayD1Ev"
  },
  {
   "name":"_ZTv0_n24_N7android8hardware10automotive3evs4V1_017BnHwEvsEnumeratorD0Ev"
  },
  {
   "name":"_ZTv0_n24_N7android8hardware10automotive3evs4V1_017BnHwEvsEnumeratorD1Ev"
  },
  {
   "name":"_ZTv0_n24_N7android8hardware10automotive3evs4V1_019BnHwEvsCameraStreamD0Ev"
  },
  {
   "name":"_ZTv0_n24_N7android8hardware10automotive3evs4V1_019BnHwEvsCameraStreamD1Ev"
  }
 ],
 "elf_objects":[
  {
   "name":"_ZN7android8hardware10automotive3evs4V1_010IEvsCamera10descriptorE"
  },
  {
   "name":"_ZN7android8hardware10automotive3evs4V1_011IEvsDisplay10descriptorE"
  },
  {
   "name":"_ZN7android8hardware10automotive3evs4V1_014IEvsEnumerator10descriptorE"
  },
  {
   "name":"_ZN7android8hardware10automotive3evs4V1_016IEvsCameraStream10descriptorE"
  },
  {
   "name":"_ZTTN7android8hardware10automotive3evs4V1_010IEvsCameraE"
  },
  {
   "name":"_ZTTN7android8hardware10automotive3evs4V1_011IEvsDisplayE"
  },
  {
   "name":"_ZTTN7android8hardware10automotive3evs4V1_013BnHwEvsCameraE"
  },
  {
   "name":"_ZTTN7android8hardware10automotive3evs4V1_013BpHwEvsCameraE"
  },
  {
   "name":"_ZTTN7android8hardware10automotive3evs4V1_014BnHwEvsDisplayE"
  },
  {
   "name":"_ZTTN7android8hardware10automotive3evs4V1_014BpHwEvsDisplayE"
  },
  {
   "name":"_ZTTN7android8hardware10automotive3evs4V1_014IEvsEnumeratorE"
  },
  {
   "name":"_ZTTN7android8hardware10automotive3evs4V1_016IEvsCameraStreamE"
  },
  {
   "name":"_ZTTN7android8hardware10automotive3evs4V1_017BnHwEvsEnumeratorE"
  },
  {
   "name":"_ZTTN7android8hardware10automotive3evs4V1_017BpHwEvsEnumeratorE"
  },
  {
   "name":"_ZTTN7android8hardware10automotive3evs4V1_019BnHwEvsCameraStreamE"
  },
  {
   "name":"_ZTTN7android8hardware10automotive3evs4V1_019BpHwEvsCameraStreamE"
  },
  {
   "name":"_ZTVN7android8hardware10automotive3evs4V1_010IEvsCameraE"
  },
  {
   "binding":"weak",
   "name":"_ZTVN7android8hardware10automotive3evs4V1_011BsEvsCameraE"
  },
  {
   "name":"_ZTVN7android8hardware10automotive3evs4V1_011IEvsDisplayE"
  },
  {
   "binding":"weak",
   "name":"_ZTVN7android8hardware10automotive3evs4V1_012BsEvsDisplayE"
  },
  {
   "name":"_ZTVN7android8hardware10automotive3evs4V1_013BnHwEvsCameraE"
  },
  {
   "name":"_ZTVN7android8hardware10automotive3evs4V1_013BpHwEvsCameraE"
  },
  {
   "name":"_ZTVN7android8hardware10automotive3evs4V1_014BnHwEvsDisplayE"
  },
  {
   "name":"_ZTVN7android8hardware10automotive3evs4V1_014BpHwEvsDisplayE"
  },
  {
   "name":"_ZTVN7android8hardware10automotive3evs4V1_014IEvsEnumeratorE"
  },
  {
   "binding":"weak",
   "name":"_ZTVN7android8hardware10automotive3evs4V1_015BsEvsEnumeratorE"
  },
  {
   "name":"_ZTVN7android8hardware10automotive3evs4V1_016IEvsCameraStreamE"
  },
  {
   "name":"_ZTVN7android8hardware10automotive3evs4V1_017BnHwEvsEnumeratorE"
  },
  {
   "name":"_ZTVN7android8hardware10automotive3evs4V1_017BpHwEvsEnumeratorE"
  },
  {
   "binding":"weak",
   "name":"_ZTVN7android8hardware10automotive3evs4V1_017BsEvsCameraStreamE"
  },
  {
   "name":"_ZTVN7android8hardware10automotive3evs4V1_019BnHwEvsCameraStreamE"
  },
  {
   "name":"_ZTVN7android8hardware10automotive3evs4V1_019BpHwEvsCameraStreamE"
  }
 ]
}