{
 "record_types":[
  {
   "vtable_components":[
    {
     "kind":"vbase_offset",
     "component_value":8
    },
    {
     "kind":"offset_to_top"
    },
    {
     "kind":"rtti",
     "mangled_component_name":"_ZTIN7android8hardware10authsecret4V1_011IAuthSecretE"
    },
    {
     "mangled_component_name":"_ZNK7android8hardware10authsecret4V1_011IAuthSecret8isRemoteEv"
    },
    {
     "mangled_component_name":"_ZN7android8hardware10authsecret4V1_011IAuthSecret14interfaceChainENSt3__18functionIFvRKNS0_8hidl_vecINS0_11hidl_stringEEEEEE"
    },
    {
     "mangled_component_name":"_ZN7android8hardware10authsecret4V1_011IAuthSecret5debugERKNS0_11hidl_handleERKNS0_8hidl_vecINS0_11hidl_stringEEE"
    },
    {
     "mangled_component_name":"_ZN7android8hardware10authsecret4V1_011IAuthSecret19interfaceDescriptorENSt3__18functionIFvRKNS0_11hidl_stringEEEE"
    },
    {
     "mangled_component_name":"_ZN7android8hardware10authsecret4V1_011IAuthSecret12getHashChainENSt3__18functionIFvRKNS0_8hidl_vecINS0_10hidl_arrayIhLm32EJEEEEEEEE"
    },
    {
     "mangled_component_name":"_ZN7android8hardware10authsecret4V1_011IAuthSecret21setHALInstrumentationEv"
    },
    {
     "mangled_component_name":"_ZN7android8hardware10authsecret4V1_011IAuthSecret11linkToDeathERKNS_2spINS0_20hidl_death_recipientEEEm"
    },
    {
     "mangled_component_name":"_ZN7android8hardware10authsecret4V1_011IAuthSecret4pingEv"
    },
    {
     "mangled_component_name":"_ZN7android8hardware10authsecret4V1_011IAuthSecret12getDebugInfoENSt3__18functionIFvRKNS_4hidl4base4V1_09DebugInfoEEEE"
    },
    {
     "mangled_component_name":"_ZN7android8hardware10authsecret4V1_011IAuthSecret21notifySyspropsChangedEv"
    },
    {
     "mangled_component_name":"_ZN7android8hardware10authsecret4V1_011IAuthSecret13unlinkToDeathERKNS_2spINS0_20hidl_death_recipientEEE"
    },
    {
     "kind":"complete_dtor_pointer",
     "mangled_component_name":"_ZN7android8hardware10authsecret4V1_011IAuthSecretD1Ev"
    },
    {
     "kind":"deleting_dtor_pointer",
     "mangled_component_name":"_ZN7android8hardware10authsecret4V1_011IAuthSecretD0Ev"
    },
    {
     "is_pure":true,
     "mangled_component_name":"_ZN7android8hardware10authsecret4V1_011IAuthSecret21primaryUserCredentialERKNS0_8hidl_vecIhEE"
    },
    {
     "kind":"vcall_offset"
    },
    {
     "kind":"vcall_offset"
    },
    {
     "kind":"vcall_offset"
    },
    {
     "kind":"vcall_offset"
    },
    {
     "kind":"vcall_offset",
     "component_value":-8
    },
    {
     "kind":"offset_to_top",
     "component_value":-8
    },
    {
     "kind":"rtti",
     "mangled_component_name":"_ZTIN7android8hardware10authsecret4V1_011IAuthSecretE"
    },
    {
     "kind":"complete_dtor_pointer",
     "mangled_component_name":"_ZTv0_n24_N7android8hardware10authsecret4V1_011IAuthSecretD1Ev"
    },
    {
     "kind":"deleting_dtor_pointer",
     "mangled_component_name":"_ZTv0_n24_N7android8hardware10authsecret4V1_011IAuthSecretD0Ev"
    },
    {
     "mangled_component_name":"_ZN7android7RefBase10onFirstRefEv"
    },
    {
     "mangled_component_name":"_ZN7android7RefBase15onLastStrongRefEPKv"
    },
    {
     "mangled_component_name":"_ZN7android7RefBase20onIncStrongAttemptedEjPKv"
    },
    {
     "mangled_component_name":"_ZN7android7RefBase13onLastWeakRefEPKv"
    }
   ],
   "unique_id":"_ZTSN7android8hardware10authsecret4V1_011IAuthSecretE"
  },
  {
   "vtable_components":[
    {
     "kind":"vbase_offset",
     "component_value":136
    },
    {
     "kind":"offset_to_top"
    },
    {
     "kind":"rtti",
     "mangled_component_name":"_ZTIN7android8hardware10authsecret4V1_014BnHwAuthSecretE"
    },
    {
     "mangled_component_name":"_ZN7android8hardware9BHwBinder8transactEjRKNS0_6ParcelEPS2_jNSt3__18functionIFvRS2_EEE"
    },
    {
     "mangled_component_name":"_ZN7android8hardware9BHwBinder11linkToDeathERKNS_2spINS0_7IBinder14DeathRecipientEEEPvj"
    },
    {
     "mangled_component_name":"_ZN7android8hardware9BHwBinder13unlinkToDeathERKNS_2wpINS0_7IBinder14DeathRecipientEEEPvjPS5_"
    },
    {
     "mangled_component_name":"_ZNK7android8hardware7IBinder13checkSubclassEPKv"
    },
    {
     "mangled_component_name":"_ZN7android8hardware9BHwBinder12attachObjectEPKvPvS4_PFvS3_S4_S4_E"
    },
    {
     "mangled_component_name":"_ZNK7android8hardware9BHwBinder10findObjectEPKv"
    },
    {
     "mangled_component_name":"_ZN7android8hardware9BHwBinder12detachObjectEPKv"
    },
    {
     "mangled_component_name":"_ZN7android8hardware9BHwBinder11localBinderEv"
    },
    {
     "mangled_component_name":"_ZN7android8hardware7IBinder12remoteBinderEv"
    },
    {
     "kind":"complete_dtor_pointer",
     "mangled_component_name":"_ZN7android8hardware10authsecret4V1_014BnHwAuthSecretD1Ev"
    },
    {
     "kind":"deleting_dtor_pointer",
     "mangled_component_name":"_ZN7android8hardware10authsecret4V1_014BnHwAuthSecretD0Ev"
    },
    {
     "mangled_component_name":"_ZN7android8hardware10authsecret4V1_014BnHwAuthSecret10onTransactEjRKNS0_6ParcelEPS4_jNSt3__18functionIFvRS4_EEE"
    },
    {
     "kind":"offset_to_top",
     "component_value":-32
    },
    {
     "kind":"rtti",
     "mangled_component_name":"_ZTIN7android8hardware10authsecret4V1_014BnHwAuthSecretE"
    },
    {
     "kind":"complete_dtor_pointer",
     "mangled_component_name":"_ZThn32_N7android8hardware10authsecret4V1_014BnHwAuthSecretD1Ev"
    },
    {
     "kind":"deleting_dtor_pointer",
     "mangled_component_name":"_ZThn32_N7android8hardware10authsecret4V1_014BnHwAuthSecretD0Ev"
    },
    {
     "kind":"vcall_offset"
    },
    {
     "kind":"vcall_offset"
    },
    {
     "kind":"vcall_offset"
    },
    {
     "kind":"vcall_offset"
    },
    {
     "kind":"vcall_offset",
     "component_value":-136
    },
    {
     "kind":"offset_to_top",
     "component_value":-136
    },
    {
     "kind":"rtti",
     "mangled_component_name":"_ZTIN7android8hardware10authsecret4V1_014BnHwAuthSecretE"
    },
    {
     "kind":"complete_dtor_pointer",
     "mangled_component_name":"_ZTv0_n24_N7android8hardware10authsecret4V1_014BnHwAuthSecretD1Ev"
    },
    {
     "kind":"deleting_dtor_pointer",
     "mangled_component_name":"_ZTv0_n24_N7android8hardware10authsecret4V1_014BnHwAuthSecretD0Ev"
    },
    {
     "mangled_component_name":"_ZN7android7RefBase10onFirstRefEv"
    },
    {
     "mangled_component_name":"_ZN7android7RefBase15onLastStrongRefEPKv"
    },
    {
     "mangled_component_name":"_ZN7android7RefBase20onIncStrongAttemptedEjPKv"
    },
    {
     "mangled_component_name":"_ZN7android7RefBase13onLastWeakRefEPKv"
    }
   ],
   "unique_id":"_ZTSN7android8hardware10authsecret4V1_014BnHwAuthSecretE"
  },
  {
   "vtable_components":[
    {
     "kind":"vbase_offset",
     "component_value":200
    },
    {
     "kind":"offset_to_top"
    },
    {
     "kind":"rtti",
     "mangled_component_name":"_ZTIN7android8hardware10authsecret4V1_014BpHwAuthSecretE"
    },
    {
     "mangled_component_name":"_ZNK7android8hardware10authsecret4V1_014BpHwAuthSecret8isRemoteEv"
    },
    {
     "mangled_component_name":"_ZN7android8hardware10authsecret4V1_014BpHwAuthSecret14interfaceChainENSt3__18functionIFvRKNS0_8hidl_vecINS0_11hidl_stringEEEEEE"
    },
    {
     "mangled_component_name":"_ZN7android8hardware10authsecret4V1_014BpHwAuthSecret5debugERKNS0_11hidl_handleERKNS0_8hidl_vecINS0_11hidl_stringEEE"
    },
    {
     "mangled_component_name":"_ZN7android8hardware10authsecret4V1_014BpHwAuthSecret19interfaceDescriptorENSt3__18functionIFvRKNS0_11hidl_stringEEEE"
    },
    {
     "mangled_component_name":"_ZN7android8hardware10authsecret4V1_014BpHwAuthSecret12getHashChainENSt3__18functionIFvRKNS0_8hidl_vecINS0_10hidl_arrayIhLm32EJEEEEEEEE"
    },
    {
     "mangled_component_name":"_ZN7android8hardware10authsecret4V1_014BpHwAuthSecret21setHALInstrumentationEv"
    },
    {
     "mangled_component_name":"_ZN7android8hardware10authsecret4V1_014BpHwAuthSecret11linkToDeathERKNS_2spINS0_20hidl_death_recipientEEEm"
    },
    {
     "mangled_component_name":"_ZN7android8hardware10authsecret4V1_014BpHwAuthSecret4pingEv"
    },
    {
     "mangled_component_name":"_ZN7android8hardware10authsecret4V1_014BpHwAuthSecret12getDebugInfoENSt3__18functionIFvRKNS_4hidl4base4V1_09DebugInfoEEEE"
    },
    {
     "mangled_component_name":"_ZN7android8hardware10authsecret4V1_014BpHwAuthSecret21notifySyspropsChangedEv"
    },
    {
     "mangled_component_name":"_ZN7android8hardware10authsecret4V1_014BpHwAuthSecret13unlinkToDeathERKNS_2spINS0_20hidl_death_recipientEEE"
    },
    {
     "kind":"complete_dtor_pointer",
     "mangled_component_name":"_ZN7android8hardware10authsecret4V1_014BpHwAuthSecretD1Ev"
    },
    {
     "kind":"deleting_dtor_pointer",
     "mangled_component_name":"_ZN7android8hardware10authsecret4V1_014BpHwAuthSecretD0Ev"
    },
    {
     "mangled_component_name":"_ZN7android8hardware10authsecret4V1_014BpHwAuthSecret21primaryUserCredentialERKNS0_8hidl_vecIhEE"
    },
    {
     "mangled_component_name":"_ZN7android8hardware11BpInterfaceINS0_10authsecret4V1_011IAuthSecretEE10onAsBinderEv"
    },
    {
     "kind":"vbase_offset",
     "component_value":192
    },
    {
     "kind":"offset_to_top",
     "component_value":-8
    },
    {
     "kind":"rtti",
     "mangled_component_name":"_ZTIN7android8hardware10authsecret4V1_014BpHwAuthSecretE"
    },
    {
     "kind":"complete_dtor_pointer",
     "mangled_component_name":"_ZThn8_N7android8hardware10authsecret4V1_014BpHwAuthSecretD1Ev"
    },
    {
     "kind":"deleting_dtor_pointer",
     "mangled_component_name":"_ZThn8_N7android8hardware10authsecret4V1_014BpHwAuthSecretD0Ev"
    },
    {
     "mangled_component_name":"_ZThn8_N7android8hardware11BpInterfaceINS0_10authsecret4V1_011IAuthSecretEE10onAsBinderEv"
    },
    {
     "kind":"vbase_offset",
     "component_value":184
    },
    {
     "kind":"offset_to_top",
     "component_value":-16
    },
    {
     "kind":"rtti",
     "mangled_component_name":"_ZTIN7android8hardware10authsecret4V1_014BpHwAuthSecretE"
    },
    {
     "kind":"complete_dtor_pointer",
     "mangled_component_name":"_ZThn16_N7android8hardware10authsecret4V1_014BpHwAuthSecretD1Ev"
    },
    {
     "kind":"deleting_dtor_pointer",
     "mangled_component_name":"_ZThn16_N7android8hardware10authsecret4V1_014BpHwAuthSecretD0Ev"
    },
    {
     "mangled_component_name":"_ZN7android8hardware11BpHwRefBase10onFirstRefEv"
    },
    {
     "mangled_component_name":"_ZN7android8hardware11BpHwRefBase15onLastStrongRefEPKv"
    },
    {
     "mangled_component_name":"_ZN7android8hardware11BpHwRefBase20onIncStrongAttemptedEjPKv"
    },
    {
     "kind":"offset_to_top",
     "component_value":-48
    },
    {
     "kind":"rtti",
     "mangled_component_name":"_ZTIN7android8hardware10authsecret4V1_014BpHwAuthSecretE"
    },
    {
     "kind":"complete_dtor_pointer",
     "mangled_component_name":"_ZThn48_N7android8hardware10authsecret4V1_014BpHwAuthSecretD1Ev"
    },
    {
     "kind":"deleting_dtor_pointer",
     "mangled_component_name":"_ZThn48_N7android8hardware10authsecret4V1_014BpHwAuthSecretD0Ev"
    },
    {
     "kind":"vcall_offset"
    },
    {
     "kind":"vcall_offset",
     "component_value":-184
    },
    {
     "kind":"vcall_offset",
     "component_value":-184
    },
    {
     "kind":"vcall_offset",
     "component_value":-184
    },
    {
     "kind":"vcall_offset",
     "component_value":-200
    },
    {
     "kind":"offset_to_top",
     "component_value":-200
    },
    {
     "kind":"rtti",
     "mangled_component_name":"_ZTIN7android8hardware10authsecret4V1_014BpHwAuthSecretE"
    },
    {
     "kind":"complete_dtor_pointer",
     "mangled_component_name":"_ZTv0_n24_N7android8hardware10authsecret4V1_014BpHwAuthSecretD1Ev"
    },
    {
     "kind":"deleting_dtor_pointer",
     "mangled_component_name":"_ZTv0_n24_N7android8hardware10authsecret4V1_014BpHwAuthSecretD0Ev"
    },
    {
     "mangled_component_name":"_ZTv0_n32_N7android8hardware11BpHwRefBase10onFirstRefEv"
    },
    {
     "mangled_component_name":"_ZTv0_n40_N7android8hardware11BpHwRefBase15onLastStrongRefEPKv"
    },
    {
     "mangled_component_name":"_ZTv0_n48_N7android8hardware11BpHwRefBase20onIncStrongAttemptedEjPKv"
    },
    {
     "mangled_component_name":"_ZN7android7RefBase13onLastWeakRefEPKv"
    }
   ],
   "unique_id":"_ZTSN7android8hardware10authsecret4V1_014BpHwAuthSecretE"
  },
  {
   "vtable_components":[
    {
     "kind":"vbase_offset",
     "component_value":120
    },
    {
     "kind":"offset_to_top"
    },
    {
     "kind":"rtti",
     "mangled_component_name":"_ZTIN7android8hardware10authsecret4V1_012BsAuthSecretE"
    },
    {
     "mangled_component_name":"_ZNK7android8hardware10authsecret4V1_011IAuthSecret8isRemoteEv"
    },
    {
     "mangled_component_name":"_ZN7android8hardware10authsecret4V1_012BsAuthSecret14interfaceChainENSt3__18functionIFvRKNS0_8hidl_vecINS0_11hidl_stringEEEEEE"
    },
    {
     "mangled_component_name":"_ZN7android8hardware10authsecret4V1_012BsAuthSecret5debugERKNS0_11hidl_handleERKNS0_8hidl_vecINS0_11hidl_stringEEE"
    },
    {
     "mangled_component_name":"_ZN7android8hardware10authsecret4V1_012BsAuthSecret19interfaceDescriptorENSt3__18functionIFvRKNS0_11hidl_stringEEEE"
    },
    {
     "mangled_component_name":"_ZN7android8hardware10authsecret4V1_012BsAuthSecret12getHashChainENSt3__18functionIFvRKNS0_8hidl_vecINS0_10hidl_arrayIhLm32EJEEEEEEEE"
    },
    {
     "mangled_component_name":"_ZN7android8hardware10authsecret4V1_012BsAuthSecret21setHALInstrumentationEv"
    },
    {
     "mangled_component_name":"_ZN7android8hardware10authsecret4V1_012BsAuthSecret11linkToDeathERKNS_2spINS0_20hidl_death_recipientEEEm"
    },
    {
     "mangled_component_name":"_ZN7android8hardware10authsecret4V1_012BsAuthSecret4pingEv"
    },
    {
     "mangled_component_name":"_ZN7android8hardware10authsecret4V1_012BsAuthSecret12getDebugInfoENSt3__18functionIFvRKNS_4hidl4base4V1_09DebugInfoEEEE"
    },
    {
     "mangled_component_name":"_ZN7android8hardware10authsecret4V1_012BsAuthSecret21notifySyspropsChangedEv"
    },
    {
     "mangled_component_name":"_ZN7android8hardware10authsecret4V1_012BsAuthSecret13unlinkToDeathERKNS_2spINS0_20hidl_death_recipientEEE"
    },
    {
     "kind":"complete_dtor_pointer",
     "mangled_component_name":"_ZN7android8hardware10authsecret4V1_012BsAuthSecretD1Ev"
    },
    {
     "kind":"deleting_dtor_pointer",
     "mangled_component_name":"_ZN7android8hardware10authsecret4V1_012BsAuthSecretD0Ev"
    },
    {
     "mangled_component_name":"_ZN7android8hardware10authsecret4V1_012BsAuthSecret21primaryUserCredentialERKNS0_8hidl_vecIhEE"
    },
    {
     "kind":"offset_to_top",
     "component_value":-8
    },
    {
     "kind":"rtti",
     "mangled_component_name":"_ZTIN7android8hardware10authsecret4V1_012BsAuthSecretE"
    },
    {
     "kind":"complete_dtor_pointer",
     "mangled_component_name":"_ZThn8_N7android8hardware10authsecret4V1_012BsAuthSecretD1Ev"
    },
    {
     "kind":"deleting_dtor_pointer",
     "mangled_component_name":"_ZThn8_N7android8hardware10authsecret4V1_012BsAuthSecretD0Ev"
    },
    {
     "kind":"vcall_offset"
    },
    {
     "kind":"vcall_offset"
    },
    {
     "kind":"vcall_offset"
    },
    {
     "kind":"vcall_offset"
    },
    {
     "kind":"vcall_offset",
     "component_value":-120
    },
    {
     "kind":"offset_to_top",
     "component_value":-120
    },
    {
     "kind":"rtti",
     "mangled_component_name":"_ZTIN7android8hardware10authsecret4V1_012BsAuthSecretE"
    },
    {
     "kind":"complete_dtor_pointer",
     "mangled_component_name":"_ZTv0_n24_N7android8hardware10authsecret4V1_012BsAuthSecretD1Ev"
    },
    {
     "kind":"deleting_dtor_pointer",
     "mangled_component_name":"_ZTv0_n24_N7android8hardware10authsecret4V1_012BsAuthSecretD0Ev"
    },
    {
     "mangled_component_name":"_ZN7android7RefBase10onFirstRefEv"
    },
    {
     "mangled_component_name":"_ZN7android7RefBase15onLastStrongRefEPKv"
    },
    {
     "mangled_component_name":"_ZN7android7RefBase20onIncStrongAttemptedEjPKv"
    },
    {
     "mangled_component_name":"_ZN7android7RefBase13onLastWeakRefEPKv"
    }
   ],
   "unique_id":"_ZTSN7android8hardware10authsecret4V1_012BsAuthSecretE"
  }
 ],
 "elf_functions":[
  {
   "name":"_ZN7android8hardware10authsecret4V1_011IAuthSecret10getServiceERKNSt3__112basic_stringIcNS4_11char_traitsIcEENS4_9allocatorIcEEEEb"
  },
  {
   "name":"_ZN7android8hardware10authsecret4V1_011IAuthSecret11linkToDeathERKNS_2spINS0_20hidl_death_recipientEEEm"
  },
  {
   "name":"_ZN7android8hardware10authsecret4V1_011IAuthSecret12getDebugInfoENSt3__18functionIFvRKNS_4hidl4base4V1_09DebugInfoEEEE"
  },
  {
   "name":"_ZN7android8hardware10authsecret4V1_011IAuthSecret12getHashChainENSt3__18functionIFvRKNS0_8hidl_vecINS0_10hidl_arrayIhLm32EJEEEEEEEE"
  },
  {
   "name":"_ZN7android8hardware10authsecret4V1_011IAuthSecret13tryGetServiceERKNSt3__112basic_stringIcNS4_11char_traitsIcEENS4_9allocatorIcEEEEb"
  },
  {
   "name":"_ZN7android8hardware10authsecret4V1_011IAuthSecret13unlinkToDeathERKNS_2spINS0_20hidl_death_recipientEEE"
  },
  {
   "name":"_ZN7android8hardware10authsecret4V1_011IAuthSecret14interfaceChainENSt3__18functionIFvRKNS0_8hidl_vecINS0_11hidl_stringEEEEEE"
  },
  {
   "name":"_ZN7android8hardware10authsecret4V1_011IAuthSecret17registerAsServiceERKNSt3__112basic_stringIcNS4_11char_traitsIcEENS4_9allocatorIcEEEE"
  },
  {
   "name":"_ZN7android8hardware10authsecret4V1_011IAuthSecret19interfaceDescriptorENSt3__18functionIFvRKNS0_11hidl_stringEEEE"
  },
  {
   "name":"_ZN7android8hardware10authsecret4V1_011IAuthSecret21notifySyspropsChangedEv"
  },
  {
   "name":"_ZN7android8hardware10authsecret4V1_011IAuthSecret21setHALInstrumentationEv"
  },
  {
   "name":"_ZN7android8hardware10authsecret4V1_011IAuthSecret24registerForNotificationsERKNSt3__112basic_stringIcNS4_11char_traitsIcEENS4_9allocatorIcEEEERKNS_2spINS_4hidl7manager4V1_020IServiceNotificationEEE"
  },
  {
   "name":"_ZN7android8hardware10authsecret4V1_011IAuthSecret4pingEv"
  },
  {
   "name":"_ZN7android8hardware10authsecret4V1_011IAuthSecret5debugERKNS0_11hidl_handleERKNS0_8hidl_vecINS0_11hidl_stringEEE"
  },
  {
   "name":"_ZN7android8hardware10authsecret4V1_011IAuthSecret8castFromERKNS_2spINS_4hidl4base4V1_05IBaseEEEb"
  },
  {
   "name":"_ZN7android8hardware10authsecret4V1_011IAuthSecret8castFromERKNS_2spIS3_EEb"
  },
  {
   "name":"_ZN7android8hardware10authsecret4V1_012BsAuthSecret13addOnewayTaskENSt3__18functionIFvvEEE"
  },
  {
   "name":"_ZN7android8hardware10authsecret4V1_012BsAuthSecretC1ENS_2spINS2_11IAuthSecretEEE"
  },
  {
   "name":"_ZN7android8hardware10authsecret4V1_012BsAuthSecretC2ENS_2spINS2_11IAuthSecretEEE"
  },
  {
   "name":"_ZN7android8hardware10authsecret4V1_014BnHwAuthSecret10onTransactEjRKNS0_6ParcelEPS4_jNSt3__18functionIFvRS4_EEE"
  },
  {
   "name":"_ZN7android8hardware10authsecret4V1_014BnHwAuthSecret12getDebugInfoENSt3__18functionIFvRKNS_4hidl4base4V1_09DebugInfoEEEE"
  },
  {
   "name":"_ZN7android8hardware10authsecret4V1_014BnHwAuthSecret27_hidl_primaryUserCredentialEPNS_4hidl4base4V1_08BnHwBaseERKNS0_6ParcelEPS9_NSt3__18functionIFvRS9_EEE"
  },
  {
   "name":"_ZN7android8hardware10authsecret4V1_014BnHwAuthSecret4pingEv"
  },
  {
   "name":"_ZN7android8hardware10authsecret4V1_014BnHwAuthSecretC1ERKNS_2spINS2_11IAuthSecretEEE"
  },
  {
   "name":"_ZN7android8hardware10authsecret4V1_014BnHwAuthSecretC2ERKNS_2spINS2_11IAuthSecretEEE"
  },
  {
   "name":"_ZN7android8hardware10authsecret4V1_014BnHwAuthSecretD0Ev"
  },
  {
   "name":"_ZN7android8hardware10authsecret4V1_014BnHwAuthSecretD1Ev"
  },
  {
   "name":"_ZN7android8hardware10authsecret4V1_014BnHwAuthSecretD2Ev"
  },
  {
   "name":"_ZN7android8hardware10authsecret4V1_014BpHwAuthSecret11linkToDeathERKNS_2spINS0_20hidl_death_recipientEEEm"
  },
  {
   "name":"_ZN7android8hardware10authsecret4V1_014BpHwAuthSecret12getDebugInfoENSt3__18functionIFvRKNS_4hidl4base4V1_09DebugInfoEEEE"
  },
  {
   "name":"_ZN7android8hardware10authsecret4V1_014BpHwAuthSecret12getHashChainENSt3__18functionIFvRKNS0_8hidl_vecINS0_10hidl_arrayIhLm32EJEEEEEEEE"
  },
  {
   "name":"_ZN7android8hardware10authsecret4V1_014BpHwAuthSecret13unlinkToDeathERKNS_2spINS0_20hidl_death_recipientEEE"
  },
  {
   "name":"_ZN7android8hardware10authsecret4V1_014BpHwAuthSecret14interfaceChainENSt3__18functionIFvRKNS0_8hidl_vecINS0_11hidl_stringEEEEEE"
  },
  {
   "name":"_ZN7android8hardware10authsecret4V1_014BpHwAuthSecret19interfaceDescriptorENSt3__18functionIFvRKNS0_11hidl_stringEEEE"
  },
  {
   "name":"_ZN7android8hardware10authsecret4V1_014BpHwAuthSecret21notifySyspropsChangedEv"
  },
  {
   "name":"_ZN7android8hardware10authsecret4V1_014BpHwAuthSecret21primaryUserCredentialERKNS0_8hidl_vecIhEE"
  },
  {
   "name":"_ZN7android8hardware10authsecret4V1_014BpHwAuthSecret21setHALInstrumentationEv"
  },
  {
   "name":"_ZN7android8hardware10authsecret4V1_014BpHwAuthSecret27_hidl_primaryUserCredentialEPNS0_10IInterfaceEPNS0_7details16HidlInstrumentorERKNS0_8hidl_vecIhEE"
  },
  {
   "name":"_ZN7android8hardware10authsecret4V1_014BpHwAuthSecret4pingEv"
  },
  {
   "name":"_ZN7android8hardware10authsecret4V1_014BpHwAuthSecret5debugERKNS0_11hidl_handleERKNS0_8hidl_vecINS0_11hidl_stringEEE"
  },
  {
   "name":"_ZN7android8hardware10authsecret4V1_014BpHwAuthSecretC1ERKNS_2spINS0_7IBinderEEE"
  },
  {
   "name":"_ZN7android8hardware10authsecret4V1_014BpHwAuthSecretC2ERKNS_2spINS0_7IBinderEEE"
  },
  {
   "binding":"weak",
   "name":"_ZN7android8hardware7details13castInterfaceINS0_10authsecret4V1_011IAuthSecretENS_4hidl4base4V1_05IBaseENS4_14BpHwAuthSecretEEENS0_6ReturnINS_2spIT_EEEENSC_IT0_EEPKcb"
  },
  {
   "binding":"weak",
   "name":"_ZN7android8hardware7details18getServiceInternalINS0_10authsecret4V1_014BpHwAuthSecretENS4_11IAuthSecretEvvEENS_2spIT0_EERKNSt3__112basic_stringIcNSA_11char_traitsIcEENSA_9allocatorIcEEEEbb"
  },
  {
   "binding":"weak",
   "name":"_ZN7android8hardware8toBinderINS_4hidl4base4V1_05IBaseEvEENS_2spINS0_7IBinderEEENS6_IT_EE"
  },
  {
   "name":"_ZThn32_N7android8hardware10authsecret4V1_014BnHwAuthSecretD0Ev"
  },
  {
   "name":"_ZThn32_N7android8hardware10authsecret4V1_014BnHwAuthSecretD1Ev"
  },
  {
   "name":"_ZTv0_n24_N7android8hardware10authsecret4V1_014BnHwAuthSecretD0Ev"
  },
  {
   "name":"_ZTv0_n24_N7android8hardware10authsecret4V1_014BnHwAuthSecretD1Ev"
  }
 ],
 "elf_objects":[
  {
   "name":"_ZN7android8hardware10authsecret4V1_011IAuthSecret10descriptorE"
  },
  {
   "name":"_ZTTN7android8hardware10authsecret4V1_011IAuthSecretE"
  },
  {
   "name":"_ZTTN7android8hardware10authsecret4V1_014BnHwAuthSecretE"
  },
  {
   "name":"_ZTTN7android8hardware10authsecret4V1_014BpHwAuthSecretE"
  },
  {
   "name":"_ZTVN7android8hardware10authsecret4V1_011IAuthSecretE"
  },
  {
   "binding":"weak",
   "name":"_ZTVN7android8hardware10authsecret4V1_012BsAuthSecretE"
  },
  {
   "name":"_ZTVN7android8hardware10authsecret4V1_014BnHwAuthSecretE"
  },
  {
   "name":"_ZTVN7android8hardware10authsecret4V1_014BpHwAuthSecretE"
  }
 ]
}