{
 "record_types":[
  {
   "vtable_components":[
    {
     "kind":"vbase_offset",
     "component_value":200
    },
    {
     "kind":"offset_to_top"
    },
    {
     "kind":"rtti",
     "mangled_component_name":"_ZTIN7android8hardware4wifi10supplicant4V1_114BpHwSupplicantE"
    },
    {
     "mangled_component_name":"_ZNK7android8hardware4wifi10supplicant4V1_114BpHwSupplicant8isRemoteEv"
    },
    {
     "mangled_component_name":"_ZN7android8hardware4wifi10supplicant4V1_114BpHwSupplicant14interfaceChainENSt3__18functionIFvRKNS0_8hidl_vecINS0_11hidl_stringEEEEEE"
    },
    {
     "mangled_component_name":"_ZN7android8hardware4wifi10supplicant4V1_114BpHwSupplicant5debugERKNS0_11hidl_handleERKNS0_8hidl_vecINS0_11hidl_stringEEE"
    },
    {
     "mangled_component_name":"_ZN7android8hardware4wifi10supplicant4V1_114BpHwSupplicant19interfaceDescriptorENSt3__18functionIFvRKNS0_11hidl_stringEEEE"
    },
    {
     "mangled_component_name":"_ZN7android8hardware4wifi10supplicant4V1_114BpHwSupplicant12getHashChainENSt3__18functionIFvRKNS0_8hidl_vecINS0_10hidl_arrayIhLm32EJEEEEEEEE"
    },
    {
     "mangled_component_name":"_ZN7android8hardware4wifi10supplicant4V1_114BpHwSupplicant21setHALInstrumentationEv"
    },
    {
     "mangled_component_name":"_ZN7android8hardware4wifi10supplicant4V1_114BpHwSupplicant11linkToDeathERKNS_2spINS0_20hidl_death_recipientEEEm"
    },
    {
     "mangled_component_name":"_ZN7android8hardware4wifi10supplicant4V1_114BpHwSupplicant4pingEv"
    },
    {
     "mangled_component_name":"_ZN7android8hardware4wifi10supplicant4V1_114BpHwSupplicant12getDebugInfoENSt3__18functionIFvRKNS_4hidl4base4V1_09DebugInfoEEEE"
    },
    {
     "mangled_component_name":"_ZN7android8hardware4wifi10supplicant4V1_114BpHwSupplicant21notifySyspropsChangedEv"
    },
    {
     "mangled_component_name":"_ZN7android8hardware4wifi10supplicant4V1_114BpHwSupplicant13unlinkToDeathERKNS_2spINS0_20hidl_death_recipientEEE"
    },
    {
     "kind":"complete_dtor_pointer",
     "mangled_component_name":"_ZN7android8hardware4wifi10supplicant4V1_114BpHwSupplicantD1Ev"
    },
    {
     "kind":"deleting_dtor_pointer",
     "mangled_component_name":"_ZN7android8hardware4wifi10supplicant4V1_114BpHwSupplicantD0Ev"
    },
    {
     "mangled_component_name":"_ZN7android8hardware4wifi10supplicant4V1_114BpHwSupplicant12getInterfaceERKNS2_4V1_011ISupplicant9IfaceInfoENSt3__18functionIFvRKNS5_16SupplicantStatusERKNS_2spINS5_16ISupplicantIfaceEEEEEE"
    },
    {
     "mangled_component_name":"_ZN7android8hardware4wifi10supplicant4V1_114BpHwSupplicant14listInterfacesENSt3__18functionIFvRKNS2_4V1_016SupplicantStatusERKNS0_8hidl_vecINS7_11ISupplicant9IfaceInfoEEEEEE"
    },
    {
     "mangled_component_name":"_ZN7android8hardware4wifi10supplicant4V1_114BpHwSupplicant16registerCallbackERKNS_2spINS2_4V1_019ISupplicantCallbackEEENSt3__18functionIFvRKNS6_16SupplicantStatusEEEE"
    },
    {
     "mangled_component_name":"_ZN7android8hardware4wifi10supplicant4V1_114BpHwSupplicant14setDebugParamsENS2_4V1_011ISupplicant10DebugLevelEbbNSt3__18functionIFvRKNS5_16SupplicantStatusEEEE"
    },
    {
     "mangled_component_name":"_ZN7android8hardware4wifi10supplicant4V1_114BpHwSupplicant13getDebugLevelEv"
    },
    {
     "mangled_component_name":"_ZN7android8hardware4wifi10supplicant4V1_114BpHwSupplicant27isDebugShowTimestampEnabledEv"
    },
    {
     "mangled_component_name":"_ZN7android8hardware4wifi10supplicant4V1_114BpHwSupplicant22isDebugShowKeysEnabledEv"
    },
    {
     "mangled_component_name":"_ZN7android8hardware4wifi10supplicant4V1_114BpHwSupplicant22setConcurrencyPriorityENS2_4V1_09IfaceTypeENSt3__18functionIFvRKNS5_16SupplicantStatusEEEE"
    },
    {
     "mangled_component_name":"_ZN7android8hardware4wifi10supplicant4V1_114BpHwSupplicant12addInterfaceERKNS2_4V1_011ISupplicant9IfaceInfoENSt3__18functionIFvRKNS5_16SupplicantStatusERKNS_2spINS5_16ISupplicantIfaceEEEEEE"
    },
    {
     "mangled_component_name":"_ZN7android8hardware4wifi10supplicant4V1_114BpHwSupplicant15removeInterfaceERKNS2_4V1_011ISupplicant9IfaceInfoENSt3__18functionIFvRKNS5_16SupplicantStatusEEEE"
    },
    {
     "mangled_component_name":"_ZN7android8hardware4wifi10supplicant4V1_114BpHwSupplicant9terminateEv"
    },
    {
     "mangled_component_name":"_ZN7android8hardware11BpInterfaceINS0_4wifi10supplicant4V1_111ISupplicantEE10onAsBinderEv"
    },
    {
     "kind":"vbase_offset",
     "component_value":192
    },
    {
     "kind":"offset_to_top",
     "component_value":-8
    },
    {
     "kind":"rtti",
     "mangled_component_name":"_ZTIN7android8hardware4wifi10supplicant4V1_114BpHwSupplicantE"
    },
    {
     "kind":"complete_dtor_pointer",
     "mangled_component_name":"_ZThn8_N7android8hardware4wifi10supplicant4V1_114BpHwSupplicantD1Ev"
    },
    {
     "kind":"deleting_dtor_pointer",
     "mangled_component_name":"_ZThn8_N7android8hardware4wifi10supplicant4V1_114BpHwSupplicantD0Ev"
    },
    {
     "mangled_component_name":"_ZThn8_N7android8hardware11BpInterfaceINS0_4wifi10supplicant4V1_111ISupplicantEE10onAsBinderEv"
    },
    {
     "kind":"vbase_offset",
     "component_value":184
    },
    {
     "kind":"offset_to_top",
     "component_value":-16
    },
    {
     "kind":"rtti",
     "mangled_component_name":"_ZTIN7android8hardware4wifi10supplicant4V1_114BpHwSupplicantE"
    },
    {
     "kind":"complete_dtor_pointer",
     "mangled_component_name":"_ZThn16_N7android8hardware4wifi10supplicant4V1_114BpHwSupplicantD1Ev"
    },
    {
     "kind":"deleting_dtor_pointer",
     "mangled_component_name":"_ZThn16_N7android8hardware4wifi10supplicant4V1_114BpHwSupplicantD0Ev"
    },
    {
     "mangled_component_name":"_ZN7android8hardware11BpHwRefBase10onFirstRefEv"
    },
    {
     "mangled_component_name":"_ZN7android8hardware11BpHwRefBase15onLastStrongRefEPKv"
    },
    {
     "mangled_component_name":"_ZN7android8hardware11BpHwRefBase20onIncStrongAttemptedEjPKv"
    },
    {
     "kind":"offset_to_top",
     "component_value":-48
    },
    {
     "kind":"rtti",
     "mangled_component_name":"_ZTIN7android8hardware4wifi10supplicant4V1_114BpHwSupplicantE"
    },
    {
     "kind":"complete_dtor_pointer",
     "mangled_component_name":"_ZThn48_N7android8hardware4wifi10supplicant4V1_114BpHwSupplicantD1Ev"
    },
    {
     "kind":"deleting_dtor_pointer",
     "mangled_component_name":"_ZThn48_N7android8hardware4wifi10supplicant4V1_114BpHwSupplicantD0Ev"
    },
    {
     "kind":"vcall_offset"
    },
    {
     "kind":"vcall_offset",
     "component_value":-184
    },
    {
     "kind":"vcall_offset",
     "component_value":-184
    },
    {
     "kind":"vcall_offset",
     "component_value":-184
    },
    {
     "kind":"vcall_offset",
     "component_value":-200
    },
    {
     "kind":"offset_to_top",
     "component_value":-200
    },
    {
     "kind":"rtti",
     "mangled_component_name":"_ZTIN7android8hardware4wifi10supplicant4V1_114BpHwSupplicantE"
    },
    {
     "kind":"complete_dtor_pointer",
     "mangled_component_name":"_ZTv0_n24_N7android8hardware4wifi10supplicant4V1_114BpHwSupplicantD1Ev"
    },
    {
     "kind":"deleting_dtor_pointer",
     "mangled_component_name":"_ZTv0_n24_N7android8hardware4wifi10supplicant4V1_114BpHwSupplicantD0Ev"
    },
    {
     "mangled_component_name":"_ZTv0_n32_N7android8hardware11BpHwRefBase10onFirstRefEv"
    },
    {
     "mangled_component_name":"_ZTv0_n40_N7android8hardware11BpHwRefBase15onLastStrongRefEPKv"
    },
    {
     "mangled_component_name":"_ZTv0_n48_N7android8hardware11BpHwRefBase20onIncStrongAttemptedEjPKv"
    },
    {
     "mangled_component_name":"_ZN7android7RefBase13onLastWeakRefEPKv"
    }
   ],
   "unique_id":"_ZTSN7android8hardware4wifi10supplicant4V1_114BpHwSupplicantE"
  },
  {
   "vtable_components":[
    {
     "kind":"vbase_offset",
     "component_value":120
    },
    {
     "kind":"offset_to_top"
    },
    {
     "kind":"rtti",
     "mangled_component_name":"_ZTIN7android8hardware4wifi10supplicant4V1_112BsSupplicantE"
    },
    {
     "mangled_component_name":"_ZNK7android8hardware4wifi10supplicant4V1_111ISupplicant8isRemoteEv"
    },
    {
     "mangled_component_name":"_ZN7android8hardware4wifi10supplicant4V1_112BsSupplicant14interfaceChainENSt3__18functionIFvRKNS0_8hidl_vecINS0_11hidl_stringEEEEEE"
    },
    {
     "mangled_component_name":"_ZN7android8hardware4wifi10supplicant4V1_112BsSupplicant5debugERKNS0_11hidl_handleERKNS0_8hidl_vecINS0_11hidl_stringEEE"
    },
    {
     "mangled_component_name":"_ZN7android8hardware4wifi10supplicant4V1_112BsSupplicant19interfaceDescriptorENSt3__18functionIFvRKNS0_11hidl_stringEEEE"
    },
    {
     "mangled_component_name":"_ZN7android8hardware4wifi10supplicant4V1_112BsSupplicant12getHashChainENSt3__18functionIFvRKNS0_8hidl_vecINS0_10hidl_arrayIhLm32EJEEEEEEEE"
    },
    {
     "mangled_component_name":"_ZN7android8hardware4wifi10supplicant4V1_112BsSupplicant21setHALInstrumentationEv"
    },
    {
     "mangled_component_name":"_ZN7android8hardware4wifi10supplicant4V1_112BsSupplicant11linkToDeathERKNS_2spINS0_20hidl_death_recipientEEEm"
    },
    {
     "mangled_component_name":"_ZN7android8hardware4wifi10supplicant4V1_112BsSupplicant4pingEv"
    },
    {
     "mangled_component_name":"_ZN7android8hardware4wifi10supplicant4V1_112BsSupplicant12getDebugInfoENSt3__18functionIFvRKNS_4hidl4base4V1_09DebugInfoEEEE"
    },
    {
     "mangled_component_name":"_ZN7android8hardware4wifi10supplicant4V1_112BsSupplicant21notifySyspropsChangedEv"
    },
    {
     "mangled_component_name":"_ZN7android8hardware4wifi10supplicant4V1_112BsSupplicant13unlinkToDeathERKNS_2spINS0_20hidl_death_recipientEEE"
    },
    {
     "kind":"complete_dtor_pointer",
     "mangled_component_name":"_ZN7android8hardware4wifi10supplicant4V1_112BsSupplicantD1Ev"
    },
    {
     "kind":"deleting_dtor_pointer",
     "mangled_component_name":"_ZN7android8hardware4wifi10supplicant4V1_112BsSupplicantD0Ev"
    },
    {
     "mangled_component_name":"_ZN7android8hardware4wifi10supplicant4V1_112BsSupplicant12getInterfaceERKNS2_4V1_011ISupplicant9IfaceInfoENSt3__18functionIFvRKNS5_16SupplicantStatusERKNS_2spINS5_16ISupplicantIfaceEEEEEE"
    },
    {
     "mangled_component_name":"_ZN7android8hardware4wifi10supplicant4V1_112BsSupplicant14listInterfacesENSt3__18functionIFvRKNS2_4V1_016SupplicantStatusERKNS0_8hidl_vecINS7_11ISupplicant9IfaceInfoEEEEEE"
    },
    {
     "mangled_component_name":"_ZN7android8hardware4wifi10supplicant4V1_112BsSupplicant16registerCallbackERKNS_2spINS2_4V1_019ISupplicantCallbackEEENSt3__18functionIFvRKNS6_16SupplicantStatusEEEE"
    },
    {
     "mangled_component_name":"_ZN7android8hardware4wifi10supplicant4V1_112BsSupplicant14setDebugParamsENS2_4V1_011ISupplicant10DebugLevelEbbNSt3__18functionIFvRKNS5_16SupplicantStatusEEEE"
    },
    {
     "mangled_component_name":"_ZN7android8hardware4wifi10supplicant4V1_112BsSupplicant13getDebugLevelEv"
    },
    {
     "mangled_component_name":"_ZN7android8hardware4wifi10supplicant4V1_112BsSupplicant27isDebugShowTimestampEnabledEv"
    },
    {
     "mangled_component_name":"_ZN7android8hardware4wifi10supplicant4V1_112BsSupplicant22isDebugShowKeysEnabledEv"
    },
    {
     "mangled_component_name":"_ZN7android8hardware4wifi10supplicant4V1_112BsSupplicant22setConcurrencyPriorityENS2_4V1_09IfaceTypeENSt3__18functionIFvRKNS5_16SupplicantStatusEEEE"
    },
    {
     "mangled_component_name":"_ZN7android8hardware4wifi10supplicant4V1_112BsSupplicant12addInterfaceERKNS2_4V1_011ISupplicant9IfaceInfoENSt3__18functionIFvRKNS5_16SupplicantStatusERKNS_2spINS5_16ISupplicantIfaceEEEEEE"
    },
    {
     "mangled_component_name":"_ZN7android8hardware4wifi10supplicant4V1_112BsSupplicant15removeInterfaceERKNS2_4V1_011ISupplicant9IfaceInfoENSt3__18functionIFvRKNS5_16SupplicantStatusEEEE"
    },
    {
     "mangled_component_name":"_ZN7android8hardware4wifi10supplicant4V1_112BsSupplicant9terminateEv"
    },
    {
     "kind":"offset_to_top",
     "component_value":-8
    },
    {
     "kind":"rtti",
     "mangled_component_name":"_ZTIN7android8hardware4wifi10supplicant4V1_112BsSupplicantE"
    },
    {
     "kind":"complete_dtor_pointer",
     "mangled_component_name":"_ZThn8_N7android8hardware4wifi10supplicant4V1_112BsSupplicantD1Ev"
    },
    {
     "kind":"deleting_dtor_pointer",
     "mangled_component_name":"_ZThn8_N7android8hardware4wifi10supplicant4V1_112BsSupplicantD0Ev"
    },
    {
     "kind":"vcall_offset"
    },
    {
     "kind":"vcall_offset"
    },
    {
     "kind":"vcall_offset"
    },
    {
     "kind":"vcall_offset"
    },
    {
     "kind":"vcall_offset",
     "component_value":-120
    },
    {
     "kind":"offset_to_top",
     "component_value":-120
    },
    {
     "kind":"rtti",
     "mangled_component_name":"_ZTIN7android8hardware4wifi10supplicant4V1_112BsSupplicantE"
    },
    {
     "kind":"complete_dtor_pointer",
     "mangled_component_name":"_ZTv0_n24_N7android8hardware4wifi10supplicant4V1_112BsSupplicantD1Ev"
    },
    {
     "kind":"deleting_dtor_pointer",
     "mangled_component_name":"_ZTv0_n24_N7android8hardware4wifi10supplicant4V1_112BsSupplicantD0Ev"
    },
    {
     "mangled_component_name":"_ZN7android7RefBase10onFirstRefEv"
    },
    {
     "mangled_component_name":"_ZN7android7RefBase15onLastStrongRefEPKv"
    },
    {
     "mangled_component_name":"_ZN7android7RefBase20onIncStrongAttemptedEjPKv"
    },
    {
     "mangled_component_name":"_ZN7android7RefBase13onLastWeakRefEPKv"
    }
   ],
   "unique_id":"_ZTSN7android8hardware4wifi10supplicant4V1_112BsSupplicantE"
  },
  {
   "vtable_components":[
    {
     "kind":"vbase_offset",
     "component_value":136
    },
    {
     "kind":"offset_to_top"
    },
    {
     "kind":"rtti",
     "mangled_component_name":"_ZTIN7android8hardware4wifi10supplicant4V1_122BnHwSupplicantStaIfaceE"
    },
    {
     "mangled_component_name":"_ZN7android8hardware9BHwBinder8transactEjRKNS0_6ParcelEPS2_jNSt3__18functionIFvRS2_EEE"
    },
    {
     "mangled_component_name":"_ZN7android8hardware9BHwBinder11linkToDeathERKNS_2spINS0_7IBinder14DeathRecipientEEEPvj"
    },
    {
     "mangled_component_name":"_ZN7android8hardware9BHwBinder13unlinkToDeathERKNS_2wpINS0_7IBinder14DeathRecipientEEEPvjPS5_"
    },
    {
     "mangled_component_name":"_ZNK7android8hardware7IBinder13checkSubclassEPKv"
    },
    {
     "mangled_component_name":"_ZN7android8hardware9BHwBinder12attachObjectEPKvPvS4_PFvS3_S4_S4_E"
    },
    {
     "mangled_component_name":"_ZNK7android8hardware9BHwBinder10findObjectEPKv"
    },
    {
     "mangled_component_name":"_ZN7android8hardware9BHwBinder12detachObjectEPKv"
    },
    {
     "mangled_component_name":"_ZN7android8hardware9BHwBinder11localBinderEv"
    },
    {
     "mangled_component_name":"_ZN7android8hardware7IBinder12remoteBinderEv"
    },
    {
     "kind":"complete_dtor_pointer",
     "mangled_component_name":"_ZN7android8hardware4wifi10supplicant4V1_122BnHwSupplicantStaIfaceD1Ev"
    },
    {
     "kind":"deleting_dtor_pointer",
     "mangled_component_name":"_ZN7android8hardware4wifi10supplicant4V1_122BnHwSupplicantStaIfaceD0Ev"
    },
    {
     "mangled_component_name":"_ZN7android8hardware4wifi10supplicant4V1_122BnHwSupplicantStaIface10onTransactEjRKNS0_6ParcelEPS5_jNSt3__18functionIFvRS5_EEE"
    },
    {
     "kind":"offset_to_top",
     "component_value":-32
    },
    {
     "kind":"rtti",
     "mangled_component_name":"_ZTIN7android8hardware4wifi10supplicant4V1_122BnHwSupplicantStaIfaceE"
    },
    {
     "kind":"complete_dtor_pointer",
     "mangled_component_name":"_ZThn32_N7android8hardware4wifi10supplicant4V1_122BnHwSupplicantStaIfaceD1Ev"
    },
    {
     "kind":"deleting_dtor_pointer",
     "mangled_component_name":"_ZThn32_N7android8hardware4wifi10supplicant4V1_122BnHwSupplicantStaIfaceD0Ev"
    },
    {
     "kind":"vcall_offset"
    },
    {
     "kind":"vcall_offset"
    },
    {
     "kind":"vcall_offset"
    },
    {
     "kind":"vcall_offset"
    },
    {
     "kind":"vcall_offset",
     "component_value":-136
    },
    {
     "kind":"offset_to_top",
     "component_value":-136
    },
    {
     "kind":"rtti",
     "mangled_component_name":"_ZTIN7android8hardware4wifi10supplicant4V1_122BnHwSupplicantStaIfaceE"
    },
    {
     "kind":"complete_dtor_pointer",
     "mangled_component_name":"_ZTv0_n24_N7android8hardware4wifi10supplicant4V1_122BnHwSupplicantStaIfaceD1Ev"
    },
    {
     "kind":"deleting_dtor_pointer",
     "mangled_component_name":"_ZTv0_n24_N7android8hardware4wifi10supplicant4V1_122BnHwSupplicantStaIfaceD0Ev"
    },
    {
     "mangled_component_name":"_ZN7android7RefBase10onFirstRefEv"
    },
    {
     "mangled_component_name":"_ZN7android7RefBase15onLastStrongRefEPKv"
    },
    {
     "mangled_component_name":"_ZN7android7RefBase20onIncStrongAttemptedEjPKv"
    },
    {
     "mangled_component_name":"_ZN7android7RefBase13onLastWeakRefEPKv"
    }
   ],
   "unique_id":"_ZTSN7android8hardware4wifi10supplicant4V1_122BnHwSupplicantStaIfaceE"
  },
  {
   "vtable_components":[
    {
     "kind":"vbase_offset",
     "component_value":120
    },
    {
     "kind":"offset_to_top"
    },
    {
     "kind":"rtti",
     "mangled_component_name":"_ZTIN7android8hardware4wifi10supplicant4V1_120BsSupplicantStaIfaceE"
    },
    {
     "mangled_component_name":"_ZNK7android8hardware4wifi10supplicant4V1_119ISupplicantStaIface8isRemoteEv"
    },
    {
     "mangled_component_name":"_ZN7android8hardware4wifi10supplicant4V1_120BsSupplicantStaIface14interfaceChainENSt3__18functionIFvRKNS0_8hidl_vecINS0_11hidl_stringEEEEEE"
    },
    {
     "mangled_component_name":"_ZN7android8hardware4wifi10supplicant4V1_120BsSupplicantStaIface5debugERKNS0_11hidl_handleERKNS0_8hidl_vecINS0_11hidl_stringEEE"
    },
    {
     "mangled_component_name":"_ZN7android8hardware4wifi10supplicant4V1_120BsSupplicantStaIface19interfaceDescriptorENSt3__18functionIFvRKNS0_11hidl_stringEEEE"
    },
    {
     "mangled_component_name":"_ZN7android8hardware4wifi10supplicant4V1_120BsSupplicantStaIface12getHashChainENSt3__18functionIFvRKNS0_8hidl_vecINS0_10hidl_arrayIhLm32EJEEEEEEEE"
    },
    {
     "mangled_component_name":"_ZN7android8hardware4wifi10supplicant4V1_120BsSupplicantStaIface21setHALInstrumentationEv"
    },
    {
     "mangled_component_name":"_ZN7android8hardware4wifi10supplicant4V1_120BsSupplicantStaIface11linkToDeathERKNS_2spINS0_20hidl_death_recipientEEEm"
    },
    {
     "mangled_component_name":"_ZN7android8hardware4wifi10supplicant4V1_120BsSupplicantStaIface4pingEv"
    },
    {
     "mangled_component_name":"_ZN7android8hardware4wifi10supplicant4V1_120BsSupplicantStaIface12getDebugInfoENSt3__18functionIFvRKNS_4hidl4base4V1_09DebugInfoEEEE"
    },
    {
     "mangled_component_name":"_ZN7android8hardware4wifi10supplicant4V1_120BsSupplicantStaIface21notifySyspropsChangedEv"
    },
    {
     "mangled_component_name":"_ZN7android8hardware4wifi10supplicant4V1_120BsSupplicantStaIface13unlinkToDeathERKNS_2spINS0_20hidl_death_recipientEEE"
    },
    {
     "kind":"complete_dtor_pointer",
     "mangled_component_name":"_ZN7android8hardware4wifi10supplicant4V1_120BsSupplicantStaIfaceD1Ev"
    },
    {
     "kind":"deleting_dtor_pointer",
     "mangled_component_name":"_ZN7android8hardware4wifi10supplicant4V1_120BsSupplicantStaIfaceD0Ev"
    },
    {
     "mangled_component_name":"_ZN7android8hardware4wifi10supplicant4V1_120BsSupplicantStaIface7getNameENSt3__18functionIFvRKNS2_4V1_016SupplicantStatusERKNS0_11hidl_stringEEEE"
    },
    {
     "mangled_component_name":"_ZN7android8hardware4wifi10supplicant4V1_120BsSupplicantStaIface7getTypeENSt3__18functionIFvRKNS2_4V1_016SupplicantStatusENS7_9IfaceTypeEEEE"
    },
    {
     "mangled_component_name":"_ZN7android8hardware4wifi10supplicant4V1_120BsSupplicantStaIface10addNetworkENSt3__18functionIFvRKNS2_4V1_016SupplicantStatusERKNS_2spINS7_18ISupplicantNetworkEEEEEE"
    },
    {
     "mangled_component_name":"_ZN7android8hardware4wifi10supplicant4V1_120BsSupplicantStaIface13removeNetworkEjNSt3__18functionIFvRKNS2_4V1_016SupplicantStatusEEEE"
    },
    {
     "mangled_component_name":"_ZN7android8hardware4wifi10supplicant4V1_120BsSupplicantStaIface10getNetworkEjNSt3__18functionIFvRKNS2_4V1_016SupplicantStatusERKNS_2spINS7_18ISupplicantNetworkEEEEEE"
    },
    {
     "mangled_component_name":"_ZN7android8hardware4wifi10supplicant4V1_120BsSupplicantStaIface12listNetworksENSt3__18functionIFvRKNS2_4V1_016SupplicantStatusERKNS0_8hidl_vecIjEEEEE"
    },
    {
     "mangled_component_name":"_ZN7android8hardware4wifi10supplicant4V1_120BsSupplicantStaIface16setWpsDeviceNameERKNS0_11hidl_stringENSt3__18functionIFvRKNS2_4V1_016SupplicantStatusEEEE"
    },
    {
     "mangled_component_name":"_ZN7android8hardware4wifi10supplicant4V1_120BsSupplicantStaIface16setWpsDeviceTypeERKNS0_10hidl_arrayIhLm8EJEEENSt3__18functionIFvRKNS2_4V1_016SupplicantStatusEEEE"
    },
    {
     "mangled_component_name":"_ZN7android8hardware4wifi10supplicant4V1_120BsSupplicantStaIface18setWpsManufacturerERKNS0_11hidl_stringENSt3__18functionIFvRKNS2_4V1_016SupplicantStatusEEEE"
    },
    {
     "mangled_component_name":"_ZN7android8hardware4wifi10supplicant4V1_120BsSupplicantStaIface15setWpsModelNameERKNS0_11hidl_stringENSt3__18functionIFvRKNS2_4V1_016SupplicantStatusEEEE"
    },
    {
     "mangled_component_name":"_ZN7android8hardware4wifi10supplicant4V1_120BsSupplicantStaIface17setWpsModelNumberERKNS0_11hidl_stringENSt3__18functionIFvRKNS2_4V1_016SupplicantStatusEEEE"
    },
    {
     "mangled_component_name":"_ZN7android8hardware4wifi10supplicant4V1_120BsSupplicantStaIface18setWpsSerialNumberERKNS0_11hidl_stringENSt3__18functionIFvRKNS2_4V1_016SupplicantStatusEEEE"
    },
    {
     "mangled_component_name":"_ZN7android8hardware4wifi10supplicant4V1_120BsSupplicantStaIface19setWpsConfigMethodsEtNSt3__18functionIFvRKNS2_4V1_016SupplicantStatusEEEE"
    },
    {
     "mangled_component_name":"_ZN7android8hardware4wifi10supplicant4V1_120BsSupplicantStaIface16registerCallbackERKNS_2spINS2_4V1_027ISupplicantStaIfaceCallbackEEENSt3__18functionIFvRKNS6_16SupplicantStatusEEEE"
    },
    {
     "mangled_component_name":"_ZN7android8hardware4wifi10supplicant4V1_120BsSupplicantStaIface11reassociateENSt3__18functionIFvRKNS2_4V1_016SupplicantStatusEEEE"
    },
    {
     "mangled_component_name":"_ZN7android8hardware4wifi10supplicant4V1_120BsSupplicantStaIface9reconnectENSt3__18functionIFvRKNS2_4V1_016SupplicantStatusEEEE"
    },
    {
     "mangled_component_name":"_ZN7android8hardware4wifi10supplicant4V1_120BsSupplicantStaIface10disconnectENSt3__18functionIFvRKNS2_4V1_016SupplicantStatusEEEE"
    },
    {
     "mangled_component_name":"_ZN7android8hardware4wifi10supplicant4V1_120BsSupplicantStaIface12setPowerSaveEbNSt3__18functionIFvRKNS2_4V1_016SupplicantStatusEEEE"
    },
    {
     "mangled_component_name":"_ZN7android8hardware4wifi10supplicant4V1_120BsSupplicantStaIface20initiateTdlsDiscoverERKNS0_10hidl_arrayIhLm6EJEEENSt3__18functionIFvRKNS2_4V1_016SupplicantStatusEEEE"
    },
    {
     "mangled_component_name":"_ZN7android8hardware4wifi10supplicant4V1_120BsSupplicantStaIface17initiateTdlsSetupERKNS0_10hidl_arrayIhLm6EJEEENSt3__18functionIFvRKNS2_4V1_016SupplicantStatusEEEE"
    },
    {
     "mangled_component_name":"_ZN7android8hardware4wifi10supplicant4V1_120BsSupplicantStaIface20initiateTdlsTeardownERKNS0_10hidl_arrayIhLm6EJEEENSt3__18functionIFvRKNS2_4V1_016SupplicantStatusEEEE"
    },
    {
     "mangled_component_name":"_ZN7android8hardware4wifi10supplicant4V1_120BsSupplicantStaIface17initiateAnqpQueryERKNS0_10hidl_arrayIhLm6EJEEERKNS0_8hidl_vecINS2_4V1_019ISupplicantStaIface10AnqpInfoIdEEERKNS9_INSB_16Hs20AnqpSubtypesEEENSt3__18functionIFvRKNSA_16SupplicantStatusEEEE"
    },
    {
     "mangled_component_name":"_ZN7android8hardware4wifi10supplicant4V1_120BsSupplicantStaIface21initiateHs20IconQueryERKNS0_10hidl_arrayIhLm6EJEEERKNS0_11hidl_stringENSt3__18functionIFvRKNS2_4V1_016SupplicantStatusEEEE"
    },
    {
     "mangled_component_name":"_ZN7android8hardware4wifi10supplicant4V1_120BsSupplicantStaIface13getMacAddressENSt3__18functionIFvRKNS2_4V1_016SupplicantStatusERKNS0_10hidl_arrayIhLm6EJEEEEEE"
    },
    {
     "mangled_component_name":"_ZN7android8hardware4wifi10supplicant4V1_120BsSupplicantStaIface13startRxFilterENSt3__18functionIFvRKNS2_4V1_016SupplicantStatusEEEE"
    },
    {
     "mangled_component_name":"_ZN7android8hardware4wifi10supplicant4V1_120BsSupplicantStaIface12stopRxFilterENSt3__18functionIFvRKNS2_4V1_016SupplicantStatusEEEE"
    },
    {
     "mangled_component_name":"_ZN7android8hardware4wifi10supplicant4V1_120BsSupplicantStaIface11addRxFilterENS2_4V1_019ISupplicantStaIface12RxFilterTypeENSt3__18functionIFvRKNS5_16SupplicantStatusEEEE"
    },
    {
     "mangled_component_name":"_ZN7android8hardware4wifi10supplicant4V1_120BsSupplicantStaIface14removeRxFilterENS2_4V1_019ISupplicantStaIface12RxFilterTypeENSt3__18functionIFvRKNS5_16SupplicantStatusEEEE"
    },
    {
     "mangled_component_name":"_ZN7android8hardware4wifi10supplicant4V1_120BsSupplicantStaIface20setBtCoexistenceModeENS2_4V1_019ISupplicantStaIface17BtCoexistenceModeENSt3__18functionIFvRKNS5_16SupplicantStatusEEEE"
    },
    {
     "mangled_component_name":"_ZN7android8hardware4wifi10supplicant4V1_120BsSupplicantStaIface31setBtCoexistenceScanModeEnabledEbNSt3__18functionIFvRKNS2_4V1_016SupplicantStatusEEEE"
    },
    {
     "mangled_component_name":"_ZN7android8hardware4wifi10supplicant4V1_120BsSupplicantStaIface21setSuspendModeEnabledEbNSt3__18functionIFvRKNS2_4V1_016SupplicantStatusEEEE"
    },
    {
     "mangled_component_name":"_ZN7android8hardware4wifi10supplicant4V1_120BsSupplicantStaIface14setCountryCodeERKNS0_10hidl_arrayIaLm2EJEEENSt3__18functionIFvRKNS2_4V1_016SupplicantStatusEEEE"
    },
    {
     "mangled_component_name":"_ZN7android8hardware4wifi10supplicant4V1_120BsSupplicantStaIface17startWpsRegistrarERKNS0_10hidl_arrayIhLm6EJEEERKNS0_11hidl_stringENSt3__18functionIFvRKNS2_4V1_016SupplicantStatusEEEE"
    },
    {
     "mangled_component_name":"_ZN7android8hardware4wifi10supplicant4V1_120BsSupplicantStaIface11startWpsPbcERKNS0_10hidl_arrayIhLm6EJEEENSt3__18functionIFvRKNS2_4V1_016SupplicantStatusEEEE"
    },
    {
     "mangled_component_name":"_ZN7android8hardware4wifi10supplicant4V1_120BsSupplicantStaIface17startWpsPinKeypadERKNS0_11hidl_stringENSt3__18functionIFvRKNS2_4V1_016SupplicantStatusEEEE"
    },
    {
     "mangled_component_name":"_ZN7android8hardware4wifi10supplicant4V1_120BsSupplicantStaIface18startWpsPinDisplayERKNS0_10hidl_arrayIhLm6EJEEENSt3__18functionIFvRKNS2_4V1_016SupplicantStatusERKNS0_11hidl_stringEEEE"
    },
    {
     "mangled_component_name":"_ZN7android8hardware4wifi10supplicant4V1_120BsSupplicantStaIface9cancelWpsENSt3__18functionIFvRKNS2_4V1_016SupplicantStatusEEEE"
    },
    {
     "mangled_component_name":"_ZN7android8hardware4wifi10supplicant4V1_120BsSupplicantStaIface14setExternalSimEbNSt3__18functionIFvRKNS2_4V1_016SupplicantStatusEEEE"
    },
    {
     "mangled_component_name":"_ZN7android8hardware4wifi10supplicant4V1_120BsSupplicantStaIface15addExtRadioWorkERKNS0_11hidl_stringEjjNSt3__18functionIFvRKNS2_4V1_016SupplicantStatusEjEEE"
    },
    {
     "mangled_component_name":"_ZN7android8hardware4wifi10supplicant4V1_120BsSupplicantStaIface18removeExtRadioWorkEjNSt3__18functionIFvRKNS2_4V1_016SupplicantStatusEEEE"
    },
    {
     "mangled_component_name":"_ZN7android8hardware4wifi10supplicant4V1_120BsSupplicantStaIface19enableAutoReconnectEbNSt3__18functionIFvRKNS2_4V1_016SupplicantStatusEEEE"
    },
    {
     "mangled_component_name":"_ZN7android8hardware4wifi10supplicant4V1_120BsSupplicantStaIface20registerCallback_1_1ERKNS_2spINS3_27ISupplicantStaIfaceCallbackEEENSt3__18functionIFvRKNS2_4V1_016SupplicantStatusEEEE"
    },
    {
     "kind":"offset_to_top",
     "component_value":-8
    },
    {
     "kind":"rtti",
     "mangled_component_name":"_ZTIN7android8hardware4wifi10supplicant4V1_120BsSupplicantStaIfaceE"
    },
    {
     "kind":"complete_dtor_pointer",
     "mangled_component_name":"_ZThn8_N7android8hardware4wifi10supplicant4V1_120BsSupplicantStaIfaceD1Ev"
    },
    {
     "kind":"deleting_dtor_pointer",
     "mangled_component_name":"_ZThn8_N7android8hardware4wifi10supplicant4V1_120BsSupplicantStaIfaceD0Ev"
    },
    {
     "kind":"vcall_offset"
    },
    {
     "kind":"vcall_offset"
    },
    {
     "kind":"vcall_offset"
    },
    {
     "kind":"vcall_offset"
    },
    {
     "kind":"vcall_offset",
     "component_value":-120
    },
    {
     "kind":"offset_to_top",
     "component_value":-120
    },
    {
     "kind":"rtti",
     "mangled_component_name":"_ZTIN7android8hardware4wifi10supplicant4V1_120BsSupplicantStaIfaceE"
    },
    {
     "kind":"complete_dtor_pointer",
     "mangled_component_name":"_ZTv0_n24_N7android8hardware4wifi10supplicant4V1_120BsSupplicantStaIfaceD1Ev"
    },
    {
     "kind":"deleting_dtor_pointer",
     "mangled_component_name":"_ZTv0_n24_N7android8hardware4wifi10supplicant4V1_120BsSupplicantStaIfaceD0Ev"
    },
    {
     "mangled_component_name":"_ZN7android7RefBase10onFirstRefEv"
    },
    {
     "mangled_component_name":"_ZN7android7RefBase15onLastStrongRefEPKv"
    },
    {
     "mangled_component_name":"_ZN7android7RefBase20onIncStrongAttemptedEjPKv"
    },
    {
     "mangled_component_name":"_ZN7android7RefBase13onLastWeakRefEPKv"
    }
   ],
   "unique_id":"_ZTSN7android8hardware4wifi10supplicant4V1_120BsSupplicantStaIfaceE"
  },
  {
   "vtable_components":[
    {
     "kind":"vbase_offset",
     "component_value":200
    },
    {
     "kind":"offset_to_top"
    },
    {
     "kind":"rtti",
     "mangled_component_name":"_ZTIN7android8hardware4wifi10supplicant4V1_130BpHwSupplicantStaIfaceCallbackE"
    },
    {
     "mangled_component_name":"_ZNK7android8hardware4wifi10supplicant4V1_130BpHwSupplicantStaIfaceCallback8isRemoteEv"
    },
    {
     "mangled_component_name":"_ZN7android8hardware4wifi10supplicant4V1_130BpHwSupplicantStaIfaceCallback14interfaceChainENSt3__18functionIFvRKNS0_8hidl_vecINS0_11hidl_stringEEEEEE"
    },
    {
     "mangled_component_name":"_ZN7android8hardware4wifi10supplicant4V1_130BpHwSupplicantStaIfaceCallback5debugERKNS0_11hidl_handleERKNS0_8hidl_vecINS0_11hidl_stringEEE"
    },
    {
     "mangled_component_name":"_ZN7android8hardware4wifi10supplicant4V1_130BpHwSupplicantStaIfaceCallback19interfaceDescriptorENSt3__18functionIFvRKNS0_11hidl_stringEEEE"
    },
    {
     "mangled_component_name":"_ZN7android8hardware4wifi10supplicant4V1_130BpHwSupplicantStaIfaceCallback12getHashChainENSt3__18functionIFvRKNS0_8hidl_vecINS0_10hidl_arrayIhLm32EJEEEEEEEE"
    },
    {
     "mangled_component_name":"_ZN7android8hardware4wifi10supplicant4V1_130BpHwSupplicantStaIfaceCallback21setHALInstrumentationEv"
    },
    {
     "mangled_component_name":"_ZN7android8hardware4wifi10supplicant4V1_130BpHwSupplicantStaIfaceCallback11linkToDeathERKNS_2spINS0_20hidl_death_recipientEEEm"
    },
    {
     "mangled_component_name":"_ZN7android8hardware4wifi10supplicant4V1_130BpHwSupplicantStaIfaceCallback4pingEv"
    },
    {
     "mangled_component_name":"_ZN7android8hardware4wifi10supplicant4V1_130BpHwSupplicantStaIfaceCallback12getDebugInfoENSt3__18functionIFvRKNS_4hidl4base4V1_09DebugInfoEEEE"
    },
    {
     "mangled_component_name":"_ZN7android8hardware4wifi10supplicant4V1_130BpHwSupplicantStaIfaceCallback21notifySyspropsChangedEv"
    },
    {
     "mangled_component_name":"_ZN7android8hardware4wifi10supplicant4V1_130BpHwSupplicantStaIfaceCallback13unlinkToDeathERKNS_2spINS0_20hidl_death_recipientEEE"
    },
    {
     "kind":"complete_dtor_pointer",
     "mangled_component_name":"_ZN7android8hardware4wifi10supplicant4V1_130BpHwSupplicantStaIfaceCallbackD1Ev"
    },
    {
     "kind":"deleting_dtor_pointer",
     "mangled_component_name":"_ZN7android8hardware4wifi10supplicant4V1_130BpHwSupplicantStaIfaceCallbackD0Ev"
    },
    {
     "mangled_component_name":"_ZN7android8hardware4wifi10supplicant4V1_130BpHwSupplicantStaIfaceCallback14onNetworkAddedEj"
    },
    {
     "mangled_component_name":"_ZN7android8hardware4wifi10supplicant4V1_130BpHwSupplicantStaIfaceCallback16onNetworkRemovedEj"
    },
    {
     "mangled_component_name":"_ZN7android8hardware4wifi10supplicant4V1_130BpHwSupplicantStaIfaceCallback14onStateChangedENS2_4V1_027ISupplicantStaIfaceCallback5StateERKNS0_10hidl_arrayIhLm6EJEEEjRKNS0_8hidl_vecIhEE"
    },
    {
     "mangled_component_name":"_ZN7android8hardware4wifi10supplicant4V1_130BpHwSupplicantStaIfaceCallback15onAnqpQueryDoneERKNS0_10hidl_arrayIhLm6EJEEERKNS2_4V1_027ISupplicantStaIfaceCallback8AnqpDataERKNSA_12Hs20AnqpDataE"
    },
    {
     "mangled_component_name":"_ZN7android8hardware4wifi10supplicant4V1_130BpHwSupplicantStaIfaceCallback19onHs20IconQueryDoneERKNS0_10hidl_arrayIhLm6EJEEERKNS0_11hidl_stringERKNS0_8hidl_vecIhEE"
    },
    {
     "mangled_component_name":"_ZN7android8hardware4wifi10supplicant4V1_130BpHwSupplicantStaIfaceCallback29onHs20SubscriptionRemediationERKNS0_10hidl_arrayIhLm6EJEEENS2_4V1_027ISupplicantStaIfaceCallback9OsuMethodERKNS0_11hidl_stringE"
    },
    {
     "mangled_component_name":"_ZN7android8hardware4wifi10supplicant4V1_130BpHwSupplicantStaIfaceCallback26onHs20DeauthImminentNoticeERKNS0_10hidl_arrayIhLm6EJEEEjjRKNS0_11hidl_stringE"
    },
    {
     "mangled_component_name":"_ZN7android8hardware4wifi10supplicant4V1_130BpHwSupplicantStaIfaceCallback14onDisconnectedERKNS0_10hidl_arrayIhLm6EJEEEbNS2_4V1_027ISupplicantStaIfaceCallback10ReasonCodeE"
    },
    {
     "mangled_component_name":"_ZN7android8hardware4wifi10supplicant4V1_130BpHwSupplicantStaIfaceCallback21onAssociationRejectedERKNS0_10hidl_arrayIhLm6EJEEENS2_4V1_027ISupplicantStaIfaceCallback10StatusCodeEb"
    },
    {
     "mangled_component_name":"_ZN7android8hardware4wifi10supplicant4V1_130BpHwSupplicantStaIfaceCallback23onAuthenticationTimeoutERKNS0_10hidl_arrayIhLm6EJEEE"
    },
    {
     "mangled_component_name":"_ZN7android8hardware4wifi10supplicant4V1_130BpHwSupplicantStaIfaceCallback12onEapFailureEv"
    },
    {
     "mangled_component_name":"_ZN7android8hardware4wifi10supplicant4V1_130BpHwSupplicantStaIfaceCallback14onBssidChangedENS2_4V1_027ISupplicantStaIfaceCallback17BssidChangeReasonERKNS0_10hidl_arrayIhLm6EJEEE"
    },
    {
     "mangled_component_name":"_ZN7android8hardware4wifi10supplicant4V1_130BpHwSupplicantStaIfaceCallback17onWpsEventSuccessEv"
    },
    {
     "mangled_component_name":"_ZN7android8hardware4wifi10supplicant4V1_130BpHwSupplicantStaIfaceCallback14onWpsEventFailERKNS0_10hidl_arrayIhLm6EJEEENS2_4V1_027ISupplicantStaIfaceCallback14WpsConfigErrorENSA_18WpsErrorIndicationE"
    },
    {
     "mangled_component_name":"_ZN7android8hardware4wifi10supplicant4V1_130BpHwSupplicantStaIfaceCallback20onWpsEventPbcOverlapEv"
    },
    {
     "mangled_component_name":"_ZN7android8hardware4wifi10supplicant4V1_130BpHwSupplicantStaIfaceCallback19onExtRadioWorkStartEj"
    },
    {
     "mangled_component_name":"_ZN7android8hardware4wifi10supplicant4V1_130BpHwSupplicantStaIfaceCallback21onExtRadioWorkTimeoutEj"
    },
    {
     "mangled_component_name":"_ZN7android8hardware4wifi10supplicant4V1_130BpHwSupplicantStaIfaceCallback16onEapFailure_1_1ENS3_27ISupplicantStaIfaceCallback12EapErrorCodeE"
    },
    {
     "mangled_component_name":"_ZN7android8hardware11BpInterfaceINS0_4wifi10supplicant4V1_127ISupplicantStaIfaceCallbackEE10onAsBinderEv"
    },
    {
     "kind":"vbase_offset",
     "component_value":192
    },
    {
     "kind":"offset_to_top",
     "component_value":-8
    },
    {
     "kind":"rtti",
     "mangled_component_name":"_ZTIN7android8hardware4wifi10supplicant4V1_130BpHwSupplicantStaIfaceCallbackE"
    },
    {
     "kind":"complete_dtor_pointer",
     "mangled_component_name":"_ZThn8_N7android8hardware4wifi10supplicant4V1_130BpHwSupplicantStaIfaceCallbackD1Ev"
    },
    {
     "kind":"deleting_dtor_pointer",
     "mangled_component_name":"_ZThn8_N7android8hardware4wifi10supplicant4V1_130BpHwSupplicantStaIfaceCallbackD0Ev"
    },
    {
     "mangled_component_name":"_ZThn8_N7android8hardware11BpInterfaceINS0_4wifi10supplicant4V1_127ISupplicantStaIfaceCallbackEE10onAsBinderEv"
    },
    {
     "kind":"vbase_offset",
     "component_value":184
    },
    {
     "kind":"offset_to_top",
     "component_value":-16
    },
    {
     "kind":"rtti",
     "mangled_component_name":"_ZTIN7android8hardware4wifi10supplicant4V1_130BpHwSupplicantStaIfaceCallbackE"
    },
    {
     "kind":"complete_dtor_pointer",
     "mangled_component_name":"_ZThn16_N7android8hardware4wifi10supplicant4V1_130BpHwSupplicantStaIfaceCallbackD1Ev"
    },
    {
     "kind":"deleting_dtor_pointer",
     "mangled_component_name":"_ZThn16_N7android8hardware4wifi10supplicant4V1_130BpHwSupplicantStaIfaceCallbackD0Ev"
    },
    {
     "mangled_component_name":"_ZN7android8hardware11BpHwRefBase10onFirstRefEv"
    },
    {
     "mangled_component_name":"_ZN7android8hardware11BpHwRefBase15onLastStrongRefEPKv"
    },
    {
     "mangled_component_name":"_ZN7android8hardware11BpHwRefBase20onIncStrongAttemptedEjPKv"
    },
    {
     "kind":"offset_to_top",
     "component_value":-48
    },
    {
     "kind":"rtti",
     "mangled_component_name":"_ZTIN7android8hardware4wifi10supplicant4V1_130BpHwSupplicantStaIfaceCallbackE"
    },
    {
     "kind":"complete_dtor_pointer",
     "mangled_component_name":"_ZThn48_N7android8hardware4wifi10supplicant4V1_130BpHwSupplicantStaIfaceCallbackD1Ev"
    },
    {
     "kind":"deleting_dtor_pointer",
     "mangled_component_name":"_ZThn48_N7android8hardware4wifi10supplicant4V1_130BpHwSupplicantStaIfaceCallbackD0Ev"
    },
    {
     "kind":"vcall_offset"
    },
    {
     "kind":"vcall_offset",
     "component_value":-184
    },
    {
     "kind":"vcall_offset",
     "component_value":-184
    },
    {
     "kind":"vcall_offset",
     "component_value":-184
    },
    {
     "kind":"vcall_offset",
     "component_value":-200
    },
    {
     "kind":"offset_to_top",
     "component_value":-200
    },
    {
     "kind":"rtti",
     "mangled_component_name":"_ZTIN7android8hardware4wifi10supplicant4V1_130BpHwSupplicantStaIfaceCallbackE"
    },
    {
     "kind":"complete_dtor_pointer",
     "mangled_component_name":"_ZTv0_n24_N7android8hardware4wifi10supplicant4V1_130BpHwSupplicantStaIfaceCallbackD1Ev"
    },
    {
     "kind":"deleting_dtor_pointer",
     "mangled_component_name":"_ZTv0_n24_N7android8hardware4wifi10supplicant4V1_130BpHwSupplicantStaIfaceCallbackD0Ev"
    },
    {
     "mangled_component_name":"_ZTv0_n32_N7android8hardware11BpHwRefBase10onFirstRefEv"
    },
    {
     "mangled_component_name":"_ZTv0_n40_N7android8hardware11BpHwRefBase15onLastStrongRefEPKv"
    },
    {
     "mangled_component_name":"_ZTv0_n48_N7android8hardware11BpHwRefBase20onIncStrongAttemptedEjPKv"
    },
    {
     "mangled_component_name":"_ZN7android7RefBase13onLastWeakRefEPKv"
    }
   ],
   "unique_id":"_ZTSN7android8hardware4wifi10supplicant4V1_130BpHwSupplicantStaIfaceCallbackE"
  },
  {
   "vtable_components":[
    {
     "kind":"vbase_offset",
     "component_value":200
    },
    {
     "kind":"offset_to_top"
    },
    {
     "kind":"rtti",
     "mangled_component_name":"_ZTIN7android8hardware4wifi10supplicant4V1_122BpHwSupplicantStaIfaceE"
    },
    {
     "mangled_component_name":"_ZNK7android8hardware4wifi10supplicant4V1_122BpHwSupplicantStaIface8isRemoteEv"
    },
    {
     "mangled_component_name":"_ZN7android8hardware4wifi10supplicant4V1_122BpHwSupplicantStaIface14interfaceChainENSt3__18functionIFvRKNS0_8hidl_vecINS0_11hidl_stringEEEEEE"
    },
    {
     "mangled_component_name":"_ZN7android8hardware4wifi10supplicant4V1_122BpHwSupplicantStaIface5debugERKNS0_11hidl_handleERKNS0_8hidl_vecINS0_11hidl_stringEEE"
    },
    {
     "mangled_component_name":"_ZN7android8hardware4wifi10supplicant4V1_122BpHwSupplicantStaIface19interfaceDescriptorENSt3__18functionIFvRKNS0_11hidl_stringEEEE"
    },
    {
     "mangled_component_name":"_ZN7android8hardware4wifi10supplicant4V1_122BpHwSupplicantStaIface12getHashChainENSt3__18functionIFvRKNS0_8hidl_vecINS0_10hidl_arrayIhLm32EJEEEEEEEE"
    },
    {
     "mangled_component_name":"_ZN7android8hardware4wifi10supplicant4V1_122BpHwSupplicantStaIface21setHALInstrumentationEv"
    },
    {
     "mangled_component_name":"_ZN7android8hardware4wifi10supplicant4V1_122BpHwSupplicantStaIface11linkToDeathERKNS_2spINS0_20hidl_death_recipientEEEm"
    },
    {
     "mangled_component_name":"_ZN7android8hardware4wifi10supplicant4V1_122BpHwSupplicantStaIface4pingEv"
    },
    {
     "mangled_component_name":"_ZN7android8hardware4wifi10supplicant4V1_122BpHwSupplicantStaIface12getDebugInfoENSt3__18functionIFvRKNS_4hidl4base4V1_09DebugInfoEEEE"
    },
    {
     "mangled_component_name":"_ZN7android8hardware4wifi10supplicant4V1_122BpHwSupplicantStaIface21notifySyspropsChangedEv"
    },
    {
     "mangled_component_name":"_ZN7android8hardware4wifi10supplicant4V1_122BpHwSupplicantStaIface13unlinkToDeathERKNS_2spINS0_20hidl_death_recipientEEE"
    },
    {
     "kind":"complete_dtor_pointer",
     "mangled_component_name":"_ZN7android8hardware4wifi10supplicant4V1_122BpHwSupplicantStaIfaceD1Ev"
    },
    {
     "kind":"deleting_dtor_pointer",
     "mangled_component_name":"_ZN7android8hardware4wifi10supplicant4V1_122BpHwSupplicantStaIfaceD0Ev"
    },
    {
     "mangled_component_name":"_ZN7android8hardware4wifi10supplicant4V1_122BpHwSupplicantStaIface7getNameENSt3__18functionIFvRKNS2_4V1_016SupplicantStatusERKNS0_11hidl_stringEEEE"
    },
    {
     "mangled_component_name":"_ZN7android8hardware4wifi10supplicant4V1_122BpHwSupplicantStaIface7getTypeENSt3__18functionIFvRKNS2_4V1_016SupplicantStatusENS7_9IfaceTypeEEEE"
    },
    {
     "mangled_component_name":"_ZN7android8hardware4wifi10supplicant4V1_122BpHwSupplicantStaIface10addNetworkENSt3__18functionIFvRKNS2_4V1_016SupplicantStatusERKNS_2spINS7_18ISupplicantNetworkEEEEEE"
    },
    {
     "mangled_component_name":"_ZN7android8hardware4wifi10supplicant4V1_122BpHwSupplicantStaIface13removeNetworkEjNSt3__18functionIFvRKNS2_4V1_016SupplicantStatusEEEE"
    },
    {
     "mangled_component_name":"_ZN7android8hardware4wifi10supplicant4V1_122BpHwSupplicantStaIface10getNetworkEjNSt3__18functionIFvRKNS2_4V1_016SupplicantStatusERKNS_2spINS7_18ISupplicantNetworkEEEEEE"
    },
    {
     "mangled_component_name":"_ZN7android8hardware4wifi10supplicant4V1_122BpHwSupplicantStaIface12listNetworksENSt3__18functionIFvRKNS2_4V1_016SupplicantStatusERKNS0_8hidl_vecIjEEEEE"
    },
    {
     "mangled_component_name":"_ZN7android8hardware4wifi10supplicant4V1_122BpHwSupplicantStaIface16setWpsDeviceNameERKNS0_11hidl_stringENSt3__18functionIFvRKNS2_4V1_016SupplicantStatusEEEE"
    },
    {
     "mangled_component_name":"_ZN7android8hardware4wifi10supplicant4V1_122BpHwSupplicantStaIface16setWpsDeviceTypeERKNS0_10hidl_arrayIhLm8EJEEENSt3__18functionIFvRKNS2_4V1_016SupplicantStatusEEEE"
    },
    {
     "mangled_component_name":"_ZN7android8hardware4wifi10supplicant4V1_122BpHwSupplicantStaIface18setWpsManufacturerERKNS0_11hidl_stringENSt3__18functionIFvRKNS2_4V1_016SupplicantStatusEEEE"
    },
    {
     "mangled_component_name":"_ZN7android8hardware4wifi10supplicant4V1_122BpHwSupplicantStaIface15setWpsModelNameERKNS0_11hidl_stringENSt3__18functionIFvRKNS2_4V1_016SupplicantStatusEEEE"
    },
    {
     "mangled_component_name":"_ZN7android8hardware4wifi10supplicant4V1_122BpHwSupplicantStaIface17setWpsModelNumberERKNS0_11hidl_stringENSt3__18functionIFvRKNS2_4V1_016SupplicantStatusEEEE"
    },
    {
     "mangled_component_name":"_ZN7android8hardware4wifi10supplicant4V1_122BpHwSupplicantStaIface18setWpsSerialNumberERKNS0_11hidl_stringENSt3__18functionIFvRKNS2_4V1_016SupplicantStatusEEEE"
    },
    {
     "mangled_component_name":"_ZN7android8hardware4wifi10supplicant4V1_122BpHwSupplicantStaIface19setWpsConfigMethodsEtNSt3__18functionIFvRKNS2_4V1_016SupplicantStatusEEEE"
    },
    {
     "mangled_component_name":"_ZN7android8hardware4wifi10supplicant4V1_122BpHwSupplicantStaIface16registerCallbackERKNS_2spINS2_4V1_027ISupplicantStaIfaceCallbackEEENSt3__18functionIFvRKNS6_16SupplicantStatusEEEE"
    },
    {
     "mangled_component_name":"_ZN7android8hardware4wifi10supplicant4V1_122BpHwSupplicantStaIface11reassociateENSt3__18functionIFvRKNS2_4V1_016SupplicantStatusEEEE"
    },
    {
     "mangled_component_name":"_ZN7android8hardware4wifi10supplicant4V1_122BpHwSupplicantStaIface9reconnectENSt3__18functionIFvRKNS2_4V1_016SupplicantStatusEEEE"
    },
    {
     "mangled_component_name":"_ZN7android8hardware4wifi10supplicant4V1_122BpHwSupplicantStaIface10disconnectENSt3__18functionIFvRKNS2_4V1_016SupplicantStatusEEEE"
    },
    {
     "mangled_component_name":"_ZN7android8hardware4wifi10supplicant4V1_122BpHwSupplicantStaIface12setPowerSaveEbNSt3__18functionIFvRKNS2_4V1_016SupplicantStatusEEEE"
    },
    {
     "mangled_component_name":"_ZN7android8hardware4wifi10supplicant4V1_122BpHwSupplicantStaIface20initiateTdlsDiscoverERKNS0_10hidl_arrayIhLm6EJEEENSt3__18functionIFvRKNS2_4V1_016SupplicantStatusEEEE"
    },
    {
     "mangled_component_name":"_ZN7android8hardware4wifi10supplicant4V1_122BpHwSupplicantStaIface17initiateTdlsSetupERKNS0_10hidl_arrayIhLm6EJEEENSt3__18functionIFvRKNS2_4V1_016SupplicantStatusEEEE"
    },
    {
     "mangled_component_name":"_ZN7android8hardware4wifi10supplicant4V1_122BpHwSupplicantStaIface20initiateTdlsTeardownERKNS0_10hidl_arrayIhLm6EJEEENSt3__18functionIFvRKNS2_4V1_016SupplicantStatusEEEE"
    },
    {
     "mangled_component_name":"_ZN7android8hardware4wifi10supplicant4V1_122BpHwSupplicantStaIface17initiateAnqpQueryERKNS0_10hidl_arrayIhLm6EJEEERKNS0_8hidl_vecINS2_4V1_019ISupplicantStaIface10AnqpInfoIdEEERKNS9_INSB_16Hs20AnqpSubtypesEEENSt3__18functionIFvRKNSA_16SupplicantStatusEEEE"
    },
    {
     "mangled_component_name":"_ZN7android8hardware4wifi10supplicant4V1_122BpHwSupplicantStaIface21initiateHs20IconQueryERKNS0_10hidl_arrayIhLm6EJEEERKNS0_11hidl_stringENSt3__18functionIFvRKNS2_4V1_016SupplicantStatusEEEE"
    },
    {
     "mangled_component_name":"_ZN7android8hardware4wifi10supplicant4V1_122BpHwSupplicantStaIface13getMacAddressENSt3__18functionIFvRKNS2_4V1_016SupplicantStatusERKNS0_10hidl_arrayIhLm6EJEEEEEE"
    },
    {
     "mangled_component_name":"_ZN7android8hardware4wifi10supplicant4V1_122BpHwSupplicantStaIface13startRxFilterENSt3__18functionIFvRKNS2_4V1_016SupplicantStatusEEEE"
    },
    {
     "mangled_component_name":"_ZN7android8hardware4wifi10supplicant4V1_122BpHwSupplicantStaIface12stopRxFilterENSt3__18functionIFvRKNS2_4V1_016SupplicantStatusEEEE"
    },
    {
     "mangled_component_name":"_ZN7android8hardware4wifi10supplicant4V1_122BpHwSupplicantStaIface11addRxFilterENS2_4V1_019ISupplicantStaIface12RxFilterTypeENSt3__18functionIFvRKNS5_16SupplicantStatusEEEE"
    },
    {
     "mangled_component_name":"_ZN7android8hardware4wifi10supplicant4V1_122BpHwSupplicantStaIface14removeRxFilterENS2_4V1_019ISupplicantStaIface12RxFilterTypeENSt3__18functionIFvRKNS5_16SupplicantStatusEEEE"
    },
    {
     "mangled_component_name":"_ZN7android8hardware4wifi10supplicant4V1_122BpHwSupplicantStaIface20setBtCoexistenceModeENS2_4V1_019ISupplicantStaIface17BtCoexistenceModeENSt3__18functionIFvRKNS5_16SupplicantStatusEEEE"
    },
    {
     "mangled_component_name":"_ZN7android8hardware4wifi10supplicant4V1_122BpHwSupplicantStaIface31setBtCoexistenceScanModeEnabledEbNSt3__18functionIFvRKNS2_4V1_016SupplicantStatusEEEE"
    },
    {
     "mangled_component_name":"_ZN7android8hardware4wifi10supplicant4V1_122BpHwSupplicantStaIface21setSuspendModeEnabledEbNSt3__18functionIFvRKNS2_4V1_016SupplicantStatusEEEE"
    },
    {
     "mangled_component_name":"_ZN7android8hardware4wifi10supplicant4V1_122BpHwSupplicantStaIface14setCountryCodeERKNS0_10hidl_arrayIaLm2EJEEENSt3__18functionIFvRKNS2_4V1_016SupplicantStatusEEEE"
    },
    {
     "mangled_component_name":"_ZN7android8hardware4wifi10supplicant4V1_122BpHwSupplicantStaIface17startWpsRegistrarERKNS0_10hidl_arrayIhLm6EJEEERKNS0_11hidl_stringENSt3__18functionIFvRKNS2_4V1_016SupplicantStatusEEEE"
    },
    {
     "mangled_component_name":"_ZN7android8hardware4wifi10supplicant4V1_122BpHwSupplicantStaIface11startWpsPbcERKNS0_10hidl_arrayIhLm6EJEEENSt3__18functionIFvRKNS2_4V1_016SupplicantStatusEEEE"
    },
    {
     "mangled_component_name":"_ZN7android8hardware4wifi10supplicant4V1_122BpHwSupplicantStaIface17startWpsPinKeypadERKNS0_11hidl_stringENSt3__18functionIFvRKNS2_4V1_016SupplicantStatusEEEE"
    },
    {
     "mangled_component_name":"_ZN7android8hardware4wifi10supplicant4V1_122BpHwSupplicantStaIface18startWpsPinDisplayERKNS0_10hidl_arrayIhLm6EJEEENSt3__18functionIFvRKNS2_4V1_016SupplicantStatusERKNS0_11hidl_stringEEEE"
    },
    {
     "mangled_component_name":"_ZN7android8hardware4wifi10supplicant4V1_122BpHwSupplicantStaIface9cancelWpsENSt3__18functionIFvRKNS2_4V1_016SupplicantStatusEEEE"
    },
    {
     "mangled_component_name":"_ZN7android8hardware4wifi10supplicant4V1_122BpHwSupplicantStaIface14setExternalSimEbNSt3__18functionIFvRKNS2_4V1_016SupplicantStatusEEEE"
    },
    {
     "mangled_component_name":"_ZN7android8hardware4wifi10supplicant4V1_122BpHwSupplicantStaIface15addExtRadioWorkERKNS0_11hidl_stringEjjNSt3__18functionIFvRKNS2_4V1_016SupplicantStatusEjEEE"
    },
    {
     "mangled_component_name":"_ZN7android8hardware4wifi10supplicant4V1_122BpHwSupplicantStaIface18removeExtRadioWorkEjNSt3__18functionIFvRKNS2_4V1_016SupplicantStatusEEEE"
    },
    {
     "mangled_component_name":"_ZN7android8hardware4wifi10supplicant4V1_122BpHwSupplicantStaIface19enableAutoReconnectEbNSt3__18functionIFvRKNS2_4V1_016SupplicantStatusEEEE"
    },
    {
     "mangled_component_name":"_ZN7android8hardware4wifi10supplicant4V1_122BpHwSupplicantStaIface20registerCallback_1_1ERKNS_2spINS3_27ISupplicantStaIfaceCallbackEEENSt3__18functionIFvRKNS2_4V1_016SupplicantStatusEEEE"
    },
    {
     "mangled_component_name":"_ZN7android8hardware11BpInterfaceINS0_4wifi10supplicant4V1_119ISupplicantStaIfaceEE10onAsBinderEv"
    },
    {
     "kind":"vbase_offset",
     "component_value":192
    },
    {
     "kind":"offset_to_top",
     "component_value":-8
    },
    {
     "kind":"rtti",
     "mangled_component_name":"_ZTIN7android8hardware4wifi10supplicant4V1_122BpHwSupplicantStaIfaceE"
    },
    {
     "kind":"complete_dtor_pointer",
     "mangled_component_name":"_ZThn8_N7android8hardware4wifi10supplicant4V1_122BpHwSupplicantStaIfaceD1Ev"
    },
    {
     "kind":"deleting_dtor_pointer",
     "mangled_component_name":"_ZThn8_N7android8hardware4wifi10supplicant4V1_122BpHwSupplicantStaIfaceD0Ev"
    },
    {
     "mangled_component_name":"_ZThn8_N7android8hardware11BpInterfaceINS0_4wifi10supplicant4V1_119ISupplicantStaIfaceEE10onAsBinderEv"
    },
    {
     "kind":"vbase_offset",
     "component_value":184
    },
    {
     "kind":"offset_to_top",
     "component_value":-16
    },
    {
     "kind":"rtti",
     "mangled_component_name":"_ZTIN7android8hardware4wifi10supplicant4V1_122BpHwSupplicantStaIfaceE"
    },
    {
     "kind":"complete_dtor_pointer",
     "mangled_component_name":"_ZThn16_N7android8hardware4wifi10supplicant4V1_122BpHwSupplicantStaIfaceD1Ev"
    },
    {
     "kind":"deleting_dtor_pointer",
     "mangled_component_name":"_ZThn16_N7android8hardware4wifi10supplicant4V1_122BpHwSupplicantStaIfaceD0Ev"
    },
    {
     "mangled_component_name":"_ZN7android8hardware11BpHwRefBase10onFirstRefEv"
    },
    {
     "mangled_component_name":"_ZN7android8hardware11BpHwRefBase15onLastStrongRefEPKv"
    },
    {
     "mangled_component_name":"_ZN7android8hardware11BpHwRefBase20onIncStrongAttemptedEjPKv"
    },
    {
     "kind":"offset_to_top",
     "component_value":-48
    },
    {
     "kind":"rtti",
     "mangled_component_name":"_ZTIN7android8hardware4wifi10supplicant4V1_122BpHwSupplicantStaIfaceE"
    },
    {
     "kind":"complete_dtor_pointer",
     "mangled_component_name":"_ZThn48_N7android8hardware4wifi10supplicant4V1_122BpHwSupplicantStaIfaceD1Ev"
    },
    {
     "kind":"deleting_dtor_pointer",
     "mangled_component_name":"_ZThn48_N7android8hardware4wifi10supplicant4V1_122BpHwSupplicantStaIfaceD0Ev"
    },
    {
     "kind":"vcall_offset"
    },
    {
     "kind":"vcall_offset",
     "component_value":-184
    },
    {
     "kind":"vcall_offset",
     "component_value":-184
    },
    {
     "kind":"vcall_offset",
     "component_value":-184
    },
    {
     "kind":"vcall_offset",
     "component_value":-200
    },
    {
     "kind":"offset_to_top",
     "component_value":-200
    },
    {
     "kind":"rtti",
     "mangled_component_name":"_ZTIN7android8hardware4wifi10supplicant4V1_122BpHwSupplicantStaIfaceE"
    },
    {
     "kind":"complete_dtor_pointer",
     "mangled_component_name":"_ZTv0_n24_N7android8hardware4wifi10supplicant4V1_122BpHwSupplicantStaIfaceD1Ev"
    },
    {
     "kind":"deleting_dtor_pointer",
     "mangled_component_name":"_ZTv0_n24_N7android8hardware4wifi10supplicant4V1_122BpHwSupplicantStaIfaceD0Ev"
    },
    {
     "mangled_component_name":"_ZTv0_n32_N7android8hardware11BpHwRefBase10onFirstRefEv"
    },
    {
     "mangled_component_name":"_ZTv0_n40_N7android8hardware11BpHwRefBase15onLastStrongRefEPKv"
    },
    {
     "mangled_component_name":"_ZTv0_n48_N7android8hardware11BpHwRefBase20onIncStrongAttemptedEjPKv"
    },
    {
     "mangled_component_name":"_ZN7android7RefBase13onLastWeakRefEPKv"
    }
   ],
   "unique_id":"_ZTSN7android8hardware4wifi10supplicant4V1_122BpHwSupplicantStaIfaceE"
  },
  {
   "vtable_components":[
    {
     "kind":"vbase_offset",
     "component_value":120
    },
    {
     "kind":"offset_to_top"
    },
    {
     "kind":"rtti",
     "mangled_component_name":"_ZTIN7android8hardware4wifi10supplicant4V1_128BsSupplicantStaIfaceCallbackE"
    },
    {
     "mangled_component_name":"_ZNK7android8hardware4wifi10supplicant4V1_127ISupplicantStaIfaceCallback8isRemoteEv"
    },
    {
     "mangled_component_name":"_ZN7android8hardware4wifi10supplicant4V1_128BsSupplicantStaIfaceCallback14interfaceChainENSt3__18functionIFvRKNS0_8hidl_vecINS0_11hidl_stringEEEEEE"
    },
    {
     "mangled_component_name":"_ZN7android8hardware4wifi10supplicant4V1_128BsSupplicantStaIfaceCallback5debugERKNS0_11hidl_handleERKNS0_8hidl_vecINS0_11hidl_stringEEE"
    },
    {
     "mangled_component_name":"_ZN7android8hardware4wifi10supplicant4V1_128BsSupplicantStaIfaceCallback19interfaceDescriptorENSt3__18functionIFvRKNS0_11hidl_stringEEEE"
    },
    {
     "mangled_component_name":"_ZN7android8hardware4wifi10supplicant4V1_128BsSupplicantStaIfaceCallback12getHashChainENSt3__18functionIFvRKNS0_8hidl_vecINS0_10hidl_arrayIhLm32EJEEEEEEEE"
    },
    {
     "mangled_component_name":"_ZN7android8hardware4wifi10supplicant4V1_128BsSupplicantStaIfaceCallback21setHALInstrumentationEv"
    },
    {
     "mangled_component_name":"_ZN7android8hardware4wifi10supplicant4V1_128BsSupplicantStaIfaceCallback11linkToDeathERKNS_2spINS0_20hidl_death_recipientEEEm"
    },
    {
     "mangled_component_name":"_ZN7android8hardware4wifi10supplicant4V1_128BsSupplicantStaIfaceCallback4pingEv"
    },
    {
     "mangled_component_name":"_ZN7android8hardware4wifi10supplicant4V1_128BsSupplicantStaIfaceCallback12getDebugInfoENSt3__18functionIFvRKNS_4hidl4base4V1_09DebugInfoEEEE"
    },
    {
     "mangled_component_name":"_ZN7android8hardware4wifi10supplicant4V1_128BsSupplicantStaIfaceCallback21notifySyspropsChangedEv"
    },
    {
     "mangled_component_name":"_ZN7android8hardware4wifi10supplicant4V1_128BsSupplicantStaIfaceCallback13unlinkToDeathERKNS_2spINS0_20hidl_death_recipientEEE"
    },
    {
     "kind":"complete_dtor_pointer",
     "mangled_component_name":"_ZN7android8hardware4wifi10supplicant4V1_128BsSupplicantStaIfaceCallbackD1Ev"
    },
    {
     "kind":"deleting_dtor_pointer",
     "mangled_component_name":"_ZN7android8hardware4wifi10supplicant4V1_128BsSupplicantStaIfaceCallbackD0Ev"
    },
    {
     "mangled_component_name":"_ZN7android8hardware4wifi10supplicant4V1_128BsSupplicantStaIfaceCallback14onNetworkAddedEj"
    },
    {
     "mangled_component_name":"_ZN7android8hardware4wifi10supplicant4V1_128BsSupplicantStaIfaceCallback16onNetworkRemovedEj"
    },
    {
     "mangled_component_name":"_ZN7android8hardware4wifi10supplicant4V1_128BsSupplicantStaIfaceCallback14onStateChangedENS2_4V1_027ISupplicantStaIfaceCallback5StateERKNS0_10hidl_arrayIhLm6EJEEEjRKNS0_8hidl_vecIhEE"
    },
    {
     "mangled_component_name":"_ZN7android8hardware4wifi10supplicant4V1_128BsSupplicantStaIfaceCallback15onAnqpQueryDoneERKNS0_10hidl_arrayIhLm6EJEEERKNS2_4V1_027ISupplicantStaIfaceCallback8AnqpDataERKNSA_12Hs20AnqpDataE"
    },
    {
     "mangled_component_name":"_ZN7android8hardware4wifi10supplicant4V1_128BsSupplicantStaIfaceCallback19onHs20IconQueryDoneERKNS0_10hidl_arrayIhLm6EJEEERKNS0_11hidl_stringERKNS0_8hidl_vecIhEE"
    },
    {
     "mangled_component_name":"_ZN7android8hardware4wifi10supplicant4V1_128BsSupplicantStaIfaceCallback29onHs20SubscriptionRemediationERKNS0_10hidl_arrayIhLm6EJEEENS2_4V1_027ISupplicantStaIfaceCallback9OsuMethodERKNS0_11hidl_stringE"
    },
    {
     "mangled_component_name":"_ZN7android8hardware4wifi10supplicant4V1_128BsSupplicantStaIfaceCallback26onHs20DeauthImminentNoticeERKNS0_10hidl_arrayIhLm6EJEEEjjRKNS0_11hidl_stringE"
    },
    {
     "mangled_component_name":"_ZN7android8hardware4wifi10supplicant4V1_128BsSupplicantStaIfaceCallback14onDisconnectedERKNS0_10hidl_arrayIhLm6EJEEEbNS2_4V1_027ISupplicantStaIfaceCallback10ReasonCodeE"
    },
    {
     "mangled_component_name":"_ZN7android8hardware4wifi10supplicant4V1_128BsSupplicantStaIfaceCallback21onAssociationRejectedERKNS0_10hidl_arrayIhLm6EJEEENS2_4V1_027ISupplicantStaIfaceCallback10StatusCodeEb"
    },
    {
     "mangled_component_name":"_ZN7android8hardware4wifi10supplicant4V1_128BsSupplicantStaIfaceCallback23onAuthenticationTimeoutERKNS0_10hidl_arrayIhLm6EJEEE"
    },
    {
     "mangled_component_name":"_ZN7android8hardware4wifi10supplicant4V1_128BsSupplicantStaIfaceCallback12onEapFailureEv"
    },
    {
     "mangled_component_name":"_ZN7android8hardware4wifi10supplicant4V1_128BsSupplicantStaIfaceCallback14onBssidChangedENS2_4V1_027ISupplicantStaIfaceCallback17BssidChangeReasonERKNS0_10hidl_arrayIhLm6EJEEE"
    },
    {
     "mangled_component_name":"_ZN7android8hardware4wifi10supplicant4V1_128BsSupplicantStaIfaceCallback17onWpsEventSuccessEv"
    },
    {
     "mangled_component_name":"_ZN7android8hardware4wifi10supplicant4V1_128BsSupplicantStaIfaceCallback14onWpsEventFailERKNS0_10hidl_arrayIhLm6EJEEENS2_4V1_027ISupplicantStaIfaceCallback14WpsConfigErrorENSA_18WpsErrorIndicationE"
    },
    {
     "mangled_component_name":"_ZN7android8hardware4wifi10supplicant4V1_128BsSupplicantStaIfaceCallback20onWpsEventPbcOverlapEv"
    },
    {
     "mangled_component_name":"_ZN7android8hardware4wifi10supplicant4V1_128BsSupplicantStaIfaceCallback19onExtRadioWorkStartEj"
    },
    {
     "mangled_component_name":"_ZN7android8hardware4wifi10supplicant4V1_128BsSupplicantStaIfaceCallback21onExtRadioWorkTimeoutEj"
    },
    {
     "mangled_component_name":"_ZN7android8hardware4wifi10supplicant4V1_128BsSupplicantStaIfaceCallback16onEapFailure_1_1ENS3_27ISupplicantStaIfaceCallback12EapErrorCodeE"
    },
    {
     "kind":"offset_to_top",
     "component_value":-8
    },
    {
     "kind":"rtti",
     "mangled_component_name":"_ZTIN7android8hardware4wifi10supplicant4V1_128BsSupplicantStaIfaceCallbackE"
    },
    {
     "kind":"complete_dtor_pointer",
     "mangled_component_name":"_ZThn8_N7android8hardware4wifi10supplicant4V1_128BsSupplicantStaIfaceCallbackD1Ev"
    },
    {
     "kind":"deleting_dtor_pointer",
     "mangled_component_name":"_ZThn8_N7android8hardware4wifi10supplicant4V1_128BsSupplicantStaIfaceCallbackD0Ev"
    },
    {
     "kind":"vcall_offset"
    },
    {
     "kind":"vcall_offset"
    },
    {
     "kind":"vcall_offset"
    },
    {
     "kind":"vcall_offset"
    },
    {
     "kind":"vcall_offset",
     "component_value":-120
    },
    {
     "kind":"offset_to_top",
     "component_value":-120
    },
    {
     "kind":"rtti",
     "mangled_component_name":"_ZTIN7android8hardware4wifi10supplicant4V1_128BsSupplicantStaIfaceCallbackE"
    },
    {
     "kind":"complete_dtor_pointer",
     "mangled_component_name":"_ZTv0_n24_N7android8hardware4wifi10supplicant4V1_128BsSupplicantStaIfaceCallbackD1Ev"
    },
    {
     "kind":"deleting_dtor_pointer",
     "mangled_component_name":"_ZTv0_n24_N7android8hardware4wifi10supplicant4V1_128BsSupplicantStaIfaceCallbackD0Ev"
    },
    {
     "mangled_component_name":"_ZN7android7RefBase10onFirstRefEv"
    },
    {
     "mangled_component_name":"_ZN7android7RefBase15onLastStrongRefEPKv"
    },
    {
     "mangled_component_name":"_ZN7android7RefBase20onIncStrongAttemptedEjPKv"
    },
    {
     "mangled_component_name":"_ZN7android7RefBase13onLastWeakRefEPKv"
    }
   ],
   "unique_id":"_ZTSN7android8hardware4wifi10supplicant4V1_128BsSupplicantStaIfaceCallbackE"
  },
  {
   "vtable_components":[
    {
     "kind":"vbase_offset",
     "component_value":136
    },
    {
     "kind":"offset_to_top"
    },
    {
     "kind":"rtti",
     "mangled_component_name":"_ZTIN7android8hardware4wifi10supplicant4V1_124BnHwSupplicantStaNetworkE"
    },
    {
     "mangled_component_name":"_ZN7android8hardware9BHwBinder8transactEjRKNS0_6ParcelEPS2_jNSt3__18functionIFvRS2_EEE"
    },
    {
     "mangled_component_name":"_ZN7android8hardware9BHwBinder11linkToDeathERKNS_2spINS0_7IBinder14DeathRecipientEEEPvj"
    },
    {
     "mangled_component_name":"_ZN7android8hardware9BHwBinder13unlinkToDeathERKNS_2wpINS0_7IBinder14DeathRecipientEEEPvjPS5_"
    },
    {
     "mangled_component_name":"_ZNK7android8hardware7IBinder13checkSubclassEPKv"
    },
    {
     "mangled_component_name":"_ZN7android8hardware9BHwBinder12attachObjectEPKvPvS4_PFvS3_S4_S4_E"
    },
    {
     "mangled_component_name":"_ZNK7android8hardware9BHwBinder10findObjectEPKv"
    },
    {
     "mangled_component_name":"_ZN7android8hardware9BHwBinder12detachObjectEPKv"
    },
    {
     "mangled_component_name":"_ZN7android8hardware9BHwBinder11localBinderEv"
    },
    {
     "mangled_component_name":"_ZN7android8hardware7IBinder12remoteBinderEv"
    },
    {
     "kind":"complete_dtor_pointer",
     "mangled_component_name":"_ZN7android8hardware4wifi10supplicant4V1_124BnHwSupplicantStaNetworkD1Ev"
    },
    {
     "kind":"deleting_dtor_pointer",
     "mangled_component_name":"_ZN7android8hardware4wifi10supplicant4V1_124BnHwSupplicantStaNetworkD0Ev"
    },
    {
     "mangled_component_name":"_ZN7android8hardware4wifi10supplicant4V1_124BnHwSupplicantStaNetwork10onTransactEjRKNS0_6ParcelEPS5_jNSt3__18functionIFvRS5_EEE"
    },
    {
     "kind":"offset_to_top",
     "component_value":-32
    },
    {
     "kind":"rtti",
     "mangled_component_name":"_ZTIN7android8hardware4wifi10supplicant4V1_124BnHwSupplicantStaNetworkE"
    },
    {
     "kind":"complete_dtor_pointer",
     "mangled_component_name":"_ZThn32_N7android8hardware4wifi10supplicant4V1_124BnHwSupplicantStaNetworkD1Ev"
    },
    {
     "kind":"deleting_dtor_pointer",
     "mangled_component_name":"_ZThn32_N7android8hardware4wifi10supplicant4V1_124BnHwSupplicantStaNetworkD0Ev"
    },
    {
     "kind":"vcall_offset"
    },
    {
     "kind":"vcall_offset"
    },
    {
     "kind":"vcall_offset"
    },
    {
     "kind":"vcall_offset"
    },
    {
     "kind":"vcall_offset",
     "component_value":-136
    },
    {
     "kind":"offset_to_top",
     "component_value":-136
    },
    {
     "kind":"rtti",
     "mangled_component_name":"_ZTIN7android8hardware4wifi10supplicant4V1_124BnHwSupplicantStaNetworkE"
    },
    {
     "kind":"complete_dtor_pointer",
     "mangled_component_name":"_ZTv0_n24_N7android8hardware4wifi10supplicant4V1_124BnHwSupplicantStaNetworkD1Ev"
    },
    {
     "kind":"deleting_dtor_pointer",
     "mangled_component_name":"_ZTv0_n24_N7android8hardware4wifi10supplicant4V1_124BnHwSupplicantStaNetworkD0Ev"
    },
    {
     "mangled_component_name":"_ZN7android7RefBase10onFirstRefEv"
    },
    {
     "mangled_component_name":"_ZN7android7RefBase15onLastStrongRefEPKv"
    },
    {
     "mangled_component_name":"_ZN7android7RefBase20onIncStrongAttemptedEjPKv"
    },
    {
     "mangled_component_name":"_ZN7android7RefBase13onLastWeakRefEPKv"
    }
   ],
   "unique_id":"_ZTSN7android8hardware4wifi10supplicant4V1_124BnHwSupplicantStaNetworkE"
  },
  {
   "vtable_components":[
    {
     "kind":"vbase_offset",
     "component_value":8
    },
    {
     "kind":"offset_to_top"
    },
    {
     "kind":"rtti",
     "mangled_component_name":"_ZTIN7android8hardware4wifi10supplicant4V1_121ISupplicantStaNetworkE"
    },
    {
     "mangled_component_name":"_ZNK7android8hardware4wifi10supplicant4V1_121ISupplicantStaNetwork8isRemoteEv"
    },
    {
     "mangled_component_name":"_ZN7android8hardware4wifi10supplicant4V1_121ISupplicantStaNetwork14interfaceChainENSt3__18functionIFvRKNS0_8hidl_vecINS0_11hidl_stringEEEEEE"
    },
    {
     "mangled_component_name":"_ZN7android8hardware4wifi10supplicant4V1_121ISupplicantStaNetwork5debugERKNS0_11hidl_handleERKNS0_8hidl_vecINS0_11hidl_stringEEE"
    },
    {
     "mangled_component_name":"_ZN7android8hardware4wifi10supplicant4V1_121ISupplicantStaNetwork19interfaceDescriptorENSt3__18functionIFvRKNS0_11hidl_stringEEEE"
    },
    {
     "mangled_component_name":"_ZN7android8hardware4wifi10supplicant4V1_121ISupplicantStaNetwork12getHashChainENSt3__18functionIFvRKNS0_8hidl_vecINS0_10hidl_arrayIhLm32EJEEEEEEEE"
    },
    {
     "mangled_component_name":"_ZN7android8hardware4wifi10supplicant4V1_121ISupplicantStaNetwork21setHALInstrumentationEv"
    },
    {
     "mangled_component_name":"_ZN7android8hardware4wifi10supplicant4V1_121ISupplicantStaNetwork11linkToDeathERKNS_2spINS0_20hidl_death_recipientEEEm"
    },
    {
     "mangled_component_name":"_ZN7android8hardware4wifi10supplicant4V1_121ISupplicantStaNetwork4pingEv"
    },
    {
     "mangled_component_name":"_ZN7android8hardware4wifi10supplicant4V1_121ISupplicantStaNetwork12getDebugInfoENSt3__18functionIFvRKNS_4hidl4base4V1_09DebugInfoEEEE"
    },
    {
     "mangled_component_name":"_ZN7android8hardware4wifi10supplicant4V1_121ISupplicantStaNetwork21notifySyspropsChangedEv"
    },
    {
     "mangled_component_name":"_ZN7android8hardware4wifi10supplicant4V1_121ISupplicantStaNetwork13unlinkToDeathERKNS_2spINS0_20hidl_death_recipientEEE"
    },
    {
     "kind":"complete_dtor_pointer",
     "mangled_component_name":"_ZN7android8hardware4wifi10supplicant4V1_121ISupplicantStaNetworkD1Ev"
    },
    {
     "kind":"deleting_dtor_pointer",
     "mangled_component_name":"_ZN7android8hardware4wifi10supplicant4V1_121ISupplicantStaNetworkD0Ev"
    },
    {
     "is_pure":true,
     "mangled_component_name":"_ZN7android8hardware4wifi10supplicant4V1_121ISupplicantStaNetwork5getIdENSt3__18functionIFvRKNS2_4V1_016SupplicantStatusEjEEE"
    },
    {
     "is_pure":true,
     "mangled_component_name":"_ZN7android8hardware4wifi10supplicant4V1_121ISupplicantStaNetwork16getInterfaceNameENSt3__18functionIFvRKNS2_4V1_016SupplicantStatusERKNS0_11hidl_stringEEEE"
    },
    {
     "is_pure":true,
     "mangled_component_name":"_ZN7android8hardware4wifi10supplicant4V1_121ISupplicantStaNetwork7getTypeENSt3__18functionIFvRKNS2_4V1_016SupplicantStatusENS7_9IfaceTypeEEEE"
    },
    {
     "is_pure":true,
     "mangled_component_name":"_ZN7android8hardware4wifi10supplicant4V1_121ISupplicantStaNetwork16registerCallbackERKNS_2spINS2_4V1_029ISupplicantStaNetworkCallbackEEENSt3__18functionIFvRKNS6_16SupplicantStatusEEEE"
    },
    {
     "is_pure":true,
     "mangled_component_name":"_ZN7android8hardware4wifi10supplicant4V1_121ISupplicantStaNetwork7setSsidERKNS0_8hidl_vecIhEENSt3__18functionIFvRKNS2_4V1_016SupplicantStatusEEEE"
    },
    {
     "is_pure":true,
     "mangled_component_name":"_ZN7android8hardware4wifi10supplicant4V1_121ISupplicantStaNetwork8setBssidERKNS0_10hidl_arrayIhLm6EJEEENSt3__18functionIFvRKNS2_4V1_016SupplicantStatusEEEE"
    },
    {
     "is_pure":true,
     "mangled_component_name":"_ZN7android8hardware4wifi10supplicant4V1_121ISupplicantStaNetwork11setScanSsidEbNSt3__18functionIFvRKNS2_4V1_016SupplicantStatusEEEE"
    },
    {
     "is_pure":true,
     "mangled_component_name":"_ZN7android8hardware4wifi10supplicant4V1_121ISupplicantStaNetwork10setKeyMgmtEjNSt3__18functionIFvRKNS2_4V1_016SupplicantStatusEEEE"
    },
    {
     "is_pure":true,
     "mangled_component_name":"_ZN7android8hardware4wifi10supplicant4V1_121ISupplicantStaNetwork8setProtoEjNSt3__18functionIFvRKNS2_4V1_016SupplicantStatusEEEE"
    },
    {
     "is_pure":true,
     "mangled_component_name":"_ZN7android8hardware4wifi10supplicant4V1_121ISupplicantStaNetwork10setAuthAlgEjNSt3__18functionIFvRKNS2_4V1_016SupplicantStatusEEEE"
    },
    {
     "is_pure":true,
     "mangled_component_name":"_ZN7android8hardware4wifi10supplicant4V1_121ISupplicantStaNetwork14setGroupCipherEjNSt3__18functionIFvRKNS2_4V1_016SupplicantStatusEEEE"
    },
    {
     "is_pure":true,
     "mangled_component_name":"_ZN7android8hardware4wifi10supplicant4V1_121ISupplicantStaNetwork17setPairwiseCipherEjNSt3__18functionIFvRKNS2_4V1_016SupplicantStatusEEEE"
    },
    {
     "is_pure":true,
     "mangled_component_name":"_ZN7android8hardware4wifi10supplicant4V1_121ISupplicantStaNetwork16setPskPassphraseERKNS0_11hidl_stringENSt3__18functionIFvRKNS2_4V1_016SupplicantStatusEEEE"
    },
    {
     "is_pure":true,
     "mangled_component_name":"_ZN7android8hardware4wifi10supplicant4V1_121ISupplicantStaNetwork6setPskERKNS0_10hidl_arrayIhLm32EJEEENSt3__18functionIFvRKNS2_4V1_016SupplicantStatusEEEE"
    },
    {
     "is_pure":true,
     "mangled_component_name":"_ZN7android8hardware4wifi10supplicant4V1_121ISupplicantStaNetwork9setWepKeyEjRKNS0_8hidl_vecIhEENSt3__18functionIFvRKNS2_4V1_016SupplicantStatusEEEE"
    },
    {
     "is_pure":true,
     "mangled_component_name":"_ZN7android8hardware4wifi10supplicant4V1_121ISupplicantStaNetwork14setWepTxKeyIdxEjNSt3__18functionIFvRKNS2_4V1_016SupplicantStatusEEEE"
    },
    {
     "is_pure":true,
     "mangled_component_name":"_ZN7android8hardware4wifi10supplicant4V1_121ISupplicantStaNetwork13setRequirePmfEbNSt3__18functionIFvRKNS2_4V1_016SupplicantStatusEEEE"
    },
    {
     "is_pure":true,
     "mangled_component_name":"_ZN7android8hardware4wifi10supplicant4V1_121ISupplicantStaNetwork12setEapMethodENS2_4V1_021ISupplicantStaNetwork9EapMethodENSt3__18functionIFvRKNS5_16SupplicantStatusEEEE"
    },
    {
     "is_pure":true,
     "mangled_component_name":"_ZN7android8hardware4wifi10supplicant4V1_121ISupplicantStaNetwork18setEapPhase2MethodENS2_4V1_021ISupplicantStaNetwork15EapPhase2MethodENSt3__18functionIFvRKNS5_16SupplicantStatusEEEE"
    },
    {
     "is_pure":true,
     "mangled_component_name":"_ZN7android8hardware4wifi10supplicant4V1_121ISupplicantStaNetwork14setEapIdentityERKNS0_8hidl_vecIhEENSt3__18functionIFvRKNS2_4V1_016SupplicantStatusEEEE"
    },
    {
     "is_pure":true,
     "mangled_component_name":"_ZN7android8hardware4wifi10supplicant4V1_121ISupplicantStaNetwork23setEapAnonymousIdentityERKNS0_8hidl_vecIhEENSt3__18functionIFvRKNS2_4V1_016SupplicantStatusEEEE"
    },
    {
     "is_pure":true,
     "mangled_component_name":"_ZN7android8hardware4wifi10supplicant4V1_121ISupplicantStaNetwork14setEapPasswordERKNS0_8hidl_vecIhEENSt3__18functionIFvRKNS2_4V1_016SupplicantStatusEEEE"
    },
    {
     "is_pure":true,
     "mangled_component_name":"_ZN7android8hardware4wifi10supplicant4V1_121ISupplicantStaNetwork12setEapCACertERKNS0_11hidl_stringENSt3__18functionIFvRKNS2_4V1_016SupplicantStatusEEEE"
    },
    {
     "is_pure":true,
     "mangled_component_name":"_ZN7android8hardware4wifi10supplicant4V1_121ISupplicantStaNetwork12setEapCAPathERKNS0_11hidl_stringENSt3__18functionIFvRKNS2_4V1_016SupplicantStatusEEEE"
    },
    {
     "is_pure":true,
     "mangled_component_name":"_ZN7android8hardware4wifi10supplicant4V1_121ISupplicantStaNetwork16setEapClientCertERKNS0_11hidl_stringENSt3__18functionIFvRKNS2_4V1_016SupplicantStatusEEEE"
    },
    {
     "is_pure":true,
     "mangled_component_name":"_ZN7android8hardware4wifi10supplicant4V1_121ISupplicantStaNetwork18setEapPrivateKeyIdERKNS0_11hidl_stringENSt3__18functionIFvRKNS2_4V1_016SupplicantStatusEEEE"
    },
    {
     "is_pure":true,
     "mangled_component_name":"_ZN7android8hardware4wifi10supplicant4V1_121ISupplicantStaNetwork18setEapSubjectMatchERKNS0_11hidl_stringENSt3__18functionIFvRKNS2_4V1_016SupplicantStatusEEEE"
    },
    {
     "is_pure":true,
     "mangled_component_name":"_ZN7android8hardware4wifi10supplicant4V1_121ISupplicantStaNetwork21setEapAltSubjectMatchERKNS0_11hidl_stringENSt3__18functionIFvRKNS2_4V1_016SupplicantStatusEEEE"
    },
    {
     "is_pure":true,
     "mangled_component_name":"_ZN7android8hardware4wifi10supplicant4V1_121ISupplicantStaNetwork12setEapEngineEbNSt3__18functionIFvRKNS2_4V1_016SupplicantStatusEEEE"
    },
    {
     "is_pure":true,
     "mangled_component_name":"_ZN7android8hardware4wifi10supplicant4V1_121ISupplicantStaNetwork14setEapEngineIDERKNS0_11hidl_stringENSt3__18functionIFvRKNS2_4V1_016SupplicantStatusEEEE"
    },
    {
     "is_pure":true,
     "mangled_component_name":"_ZN7android8hardware4wifi10supplicant4V1_121ISupplicantStaNetwork23setEapDomainSuffixMatchERKNS0_11hidl_stringENSt3__18functionIFvRKNS2_4V1_016SupplicantStatusEEEE"
    },
    {
     "is_pure":true,
     "mangled_component_name":"_ZN7android8hardware4wifi10supplicant4V1_121ISupplicantStaNetwork22setProactiveKeyCachingEbNSt3__18functionIFvRKNS2_4V1_016SupplicantStatusEEEE"
    },
    {
     "is_pure":true,
     "mangled_component_name":"_ZN7android8hardware4wifi10supplicant4V1_121ISupplicantStaNetwork8setIdStrERKNS0_11hidl_stringENSt3__18functionIFvRKNS2_4V1_016SupplicantStatusEEEE"
    },
    {
     "is_pure":true,
     "mangled_component_name":"_ZN7android8hardware4wifi10supplicant4V1_121ISupplicantStaNetwork19setUpdateIdentifierEjNSt3__18functionIFvRKNS2_4V1_016SupplicantStatusEEEE"
    },
    {
     "is_pure":true,
     "mangled_component_name":"_ZN7android8hardware4wifi10supplicant4V1_121ISupplicantStaNetwork7getSsidENSt3__18functionIFvRKNS2_4V1_016SupplicantStatusERKNS0_8hidl_vecIhEEEEE"
    },
    {
     "is_pure":true,
     "mangled_component_name":"_ZN7android8hardware4wifi10supplicant4V1_121ISupplicantStaNetwork8getBssidENSt3__18functionIFvRKNS2_4V1_016SupplicantStatusERKNS0_10hidl_arrayIhLm6EJEEEEEE"
    },
    {
     "is_pure":true,
     "mangled_component_name":"_ZN7android8hardware4wifi10supplicant4V1_121ISupplicantStaNetwork11getScanSsidENSt3__18functionIFvRKNS2_4V1_016SupplicantStatusEbEEE"
    },
    {
     "is_pure":true,
     "mangled_component_name":"_ZN7android8hardware4wifi10supplicant4V1_121ISupplicantStaNetwork10getKeyMgmtENSt3__18functionIFvRKNS2_4V1_016SupplicantStatusEjEEE"
    },
    {
     "is_pure":true,
     "mangled_component_name":"_ZN7android8hardware4wifi10supplicant4V1_121ISupplicantStaNetwork8getProtoENSt3__18functionIFvRKNS2_4V1_016SupplicantStatusEjEEE"
    },
    {
     "is_pure":true,
     "mangled_component_name":"_ZN7android8hardware4wifi10supplicant4V1_121ISupplicantStaNetwork10getAuthAlgENSt3__18functionIFvRKNS2_4V1_016SupplicantStatusEjEEE"
    },
    {
     "is_pure":true,
     "mangled_component_name":"_ZN7android8hardware4wifi10supplicant4V1_121ISupplicantStaNetwork14getGroupCipherENSt3__18functionIFvRKNS2_4V1_016SupplicantStatusEjEEE"
    },
    {
     "is_pure":true,
     "mangled_component_name":"_ZN7android8hardware4wifi10supplicant4V1_121ISupplicantStaNetwork17getPairwiseCipherENSt3__18functionIFvRKNS2_4V1_016SupplicantStatusEjEEE"
    },
    {
     "is_pure":true,
     "mangled_component_name":"_ZN7android8hardware4wifi10supplicant4V1_121ISupplicantStaNetwork16getPskPassphraseENSt3__18functionIFvRKNS2_4V1_016SupplicantStatusERKNS0_11hidl_stringEEEE"
    },
    {
     "is_pure":true,
     "mangled_component_name":"_ZN7android8hardware4wifi10supplicant4V1_121ISupplicantStaNetwork6getPskENSt3__18functionIFvRKNS2_4V1_016SupplicantStatusERKNS0_10hidl_arrayIhLm32EJEEEEEE"
    },
    {
     "is_pure":true,
     "mangled_component_name":"_ZN7android8hardware4wifi10supplicant4V1_121ISupplicantStaNetwork9getWepKeyEjNSt3__18functionIFvRKNS2_4V1_016SupplicantStatusERKNS0_8hidl_vecIhEEEEE"
    },
    {
     "is_pure":true,
     "mangled_component_name":"_ZN7android8hardware4wifi10supplicant4V1_121ISupplicantStaNetwork14getWepTxKeyIdxENSt3__18functionIFvRKNS2_4V1_016SupplicantStatusEjEEE"
    },
    {
     "is_pure":true,
     "mangled_component_name":"_ZN7android8hardware4wifi10supplicant4V1_121ISupplicantStaNetwork13getRequirePmfENSt3__18functionIFvRKNS2_4V1_016SupplicantStatusEbEEE"
    },
    {
     "is_pure":true,
     "mangled_component_name":"_ZN7android8hardware4wifi10supplicant4V1_121ISupplicantStaNetwork12getEapMethodENSt3__18functionIFvRKNS2_4V1_016SupplicantStatusENS7_21ISupplicantStaNetwork9EapMethodEEEE"
    },
    {
     "is_pure":true,
     "mangled_component_name":"_ZN7android8hardware4wifi10supplicant4V1_121ISupplicantStaNetwork18getEapPhase2MethodENSt3__18functionIFvRKNS2_4V1_016SupplicantStatusENS7_21ISupplicantStaNetwork15EapPhase2MethodEEEE"
    },
    {
     "is_pure":true,
     "mangled_component_name":"_ZN7android8hardware4wifi10supplicant4V1_121ISupplicantStaNetwork14getEapIdentityENSt3__18functionIFvRKNS2_4V1_016SupplicantStatusERKNS0_8hidl_vecIhEEEEE"
    },
    {
     "is_pure":true,
     "mangled_component_name":"_ZN7android8hardware4wifi10supplicant4V1_121ISupplicantStaNetwork23getEapAnonymousIdentityENSt3__18functionIFvRKNS2_4V1_016SupplicantStatusERKNS0_8hidl_vecIhEEEEE"
    },
    {
     "is_pure":true,
     "mangled_component_name":"_ZN7android8hardware4wifi10supplicant4V1_121ISupplicantStaNetwork14getEapPasswordENSt3__18functionIFvRKNS2_4V1_016SupplicantStatusERKNS0_8hidl_vecIhEEEEE"
    },
    {
     "is_pure":true,
     "mangled_component_name":"_ZN7android8hardware4wifi10supplicant4V1_121ISupplicantStaNetwork12getEapCACertENSt3__18functionIFvRKNS2_4V1_016SupplicantStatusERKNS0_11hidl_stringEEEE"
    },
    {
     "is_pure":true,
     "mangled_component_name":"_ZN7android8hardware4wifi10supplicant4V1_121ISupplicantStaNetwork12getEapCAPathENSt3__18functionIFvRKNS2_4V1_016SupplicantStatusERKNS0_11hidl_stringEEEE"
    },
    {
     "is_pure":true,
     "mangled_component_name":"_ZN7android8hardware4wifi10supplicant4V1_121ISupplicantStaNetwork16getEapClientCertENSt3__18functionIFvRKNS2_4V1_016SupplicantStatusERKNS0_11hidl_stringEEEE"
    },
    {
     "is_pure":true,
     "mangled_component_name":"_ZN7android8hardware4wifi10supplicant4V1_121ISupplicantStaNetwork18getEapPrivateKeyIdENSt3__18functionIFvRKNS2_4V1_016SupplicantStatusERKNS0_11hidl_stringEEEE"
    },
    {
     "is_pure":true,
     "mangled_component_name":"_ZN7android8hardware4wifi10supplicant4V1_121ISupplicantStaNetwork18getEapSubjectMatchENSt3__18functionIFvRKNS2_4V1_016SupplicantStatusERKNS0_11hidl_stringEEEE"
    },
    {
     "is_pure":true,
     "mangled_component_name":"_ZN7android8hardware4wifi10supplicant4V1_121ISupplicantStaNetwork21getEapAltSubjectMatchENSt3__18functionIFvRKNS2_4V1_016SupplicantStatusERKNS0_11hidl_stringEEEE"
    },
    {
     "is_pure":true,
     "mangled_component_name":"_ZN7android8hardware4wifi10supplicant4V1_121ISupplicantStaNetwork12getEapEngineENSt3__18functionIFvRKNS2_4V1_016SupplicantStatusEbEEE"
    },
    {
     "is_pure":true,
     "mangled_component_name":"_ZN7android8hardware4wifi10supplicant4V1_121ISupplicantStaNetwork14getEapEngineIDENSt3__18functionIFvRKNS2_4V1_016SupplicantStatusERKNS0_11hidl_stringEEEE"
    },
    {
     "is_pure":true,
     "mangled_component_name":"_ZN7android8hardware4wifi10supplicant4V1_121ISupplicantStaNetwork23getEapDomainSuffixMatchENSt3__18functionIFvRKNS2_4V1_016SupplicantStatusERKNS0_11hidl_stringEEEE"
    },
    {
     "is_pure":true,
     "mangled_component_name":"_ZN7android8hardware4wifi10supplicant4V1_121ISupplicantStaNetwork8getIdStrENSt3__18functionIFvRKNS2_4V1_016SupplicantStatusERKNS0_11hidl_stringEEEE"
    },
    {
     "is_pure":true,
     "mangled_component_name":"_ZN7android8hardware4wifi10supplicant4V1_121ISupplicantStaNetwork27getWpsNfcConfigurationTokenENSt3__18functionIFvRKNS2_4V1_016SupplicantStatusERKNS0_8hidl_vecIhEEEEE"
    },
    {
     "is_pure":true,
     "mangled_component_name":"_ZN7android8hardware4wifi10supplicant4V1_121ISupplicantStaNetwork6enableEbNSt3__18functionIFvRKNS2_4V1_016SupplicantStatusEEEE"
    },
    {
     "is_pure":true,
     "mangled_component_name":"_ZN7android8hardware4wifi10supplicant4V1_121ISupplicantStaNetwork7disableENSt3__18functionIFvRKNS2_4V1_016SupplicantStatusEEEE"
    },
    {
     "is_pure":true,
     "mangled_component_name":"_ZN7android8hardware4wifi10supplicant4V1_121ISupplicantStaNetwork6selectENSt3__18functionIFvRKNS2_4V1_016SupplicantStatusEEEE"
    },
    {
     "is_pure":true,
     "mangled_component_name":"_ZN7android8hardware4wifi10supplicant4V1_121ISupplicantStaNetwork32sendNetworkEapSimGsmAuthResponseERKNS0_8hidl_vecINS2_4V1_021ISupplicantStaNetwork34NetworkResponseEapSimGsmAuthParamsEEENSt3__18functionIFvRKNS6_16SupplicantStatusEEEE"
    },
    {
     "is_pure":true,
     "mangled_component_name":"_ZN7android8hardware4wifi10supplicant4V1_121ISupplicantStaNetwork31sendNetworkEapSimGsmAuthFailureENSt3__18functionIFvRKNS2_4V1_016SupplicantStatusEEEE"
    },
    {
     "is_pure":true,
     "mangled_component_name":"_ZN7android8hardware4wifi10supplicant4V1_121ISupplicantStaNetwork33sendNetworkEapSimUmtsAuthResponseERKNS2_4V1_021ISupplicantStaNetwork35NetworkResponseEapSimUmtsAuthParamsENSt3__18functionIFvRKNS5_16SupplicantStatusEEEE"
    },
    {
     "is_pure":true,
     "mangled_component_name":"_ZN7android8hardware4wifi10supplicant4V1_121ISupplicantStaNetwork33sendNetworkEapSimUmtsAutsResponseERKNS0_10hidl_arrayIhLm14EJEEENSt3__18functionIFvRKNS2_4V1_016SupplicantStatusEEEE"
    },
    {
     "is_pure":true,
     "mangled_component_name":"_ZN7android8hardware4wifi10supplicant4V1_121ISupplicantStaNetwork32sendNetworkEapSimUmtsAuthFailureENSt3__18functionIFvRKNS2_4V1_016SupplicantStatusEEEE"
    },
    {
     "is_pure":true,
     "mangled_component_name":"_ZN7android8hardware4wifi10supplicant4V1_121ISupplicantStaNetwork30sendNetworkEapIdentityResponseERKNS0_8hidl_vecIhEENSt3__18functionIFvRKNS2_4V1_016SupplicantStatusEEEE"
    },
    {
     "is_pure":true,
     "mangled_component_name":"_ZN7android8hardware4wifi10supplicant4V1_121ISupplicantStaNetwork27setEapEncryptedImsiIdentityERKNS0_8hidl_vecIhEENSt3__18functionIFvRKNS2_4V1_016SupplicantStatusEEEE"
    },
    {
     "is_pure":true,
     "mangled_component_name":"_ZN7android8hardware4wifi10supplicant4V1_121ISupplicantStaNetwork34sendNetworkEapIdentityResponse_1_1ERKNS0_8hidl_vecIhEES8_NSt3__18functionIFvRKNS2_4V1_016SupplicantStatusEEEE"
    },
    {
     "kind":"vcall_offset"
    },
    {
     "kind":"vcall_offset"
    },
    {
     "kind":"vcall_offset"
    },
    {
     "kind":"vcall_offset"
    },
    {
     "kind":"vcall_offset",
     "component_value":-8
    },
    {
     "kind":"offset_to_top",
     "component_value":-8
    },
    {
     "kind":"rtti",
     "mangled_component_name":"_ZTIN7android8hardware4wifi10supplicant4V1_121ISupplicantStaNetworkE"
    },
    {
     "kind":"complete_dtor_pointer",
     "mangled_component_name":"_ZTv0_n24_N7android8hardware4wifi10supplicant4V1_121ISupplicantStaNetworkD1Ev"
    },
    {
     "kind":"deleting_dtor_pointer",
     "mangled_component_name":"_ZTv0_n24_N7android8hardware4wifi10supplicant4V1_121ISupplicantStaNetworkD0Ev"
    },
    {
     "mangled_component_name":"_ZN7android7RefBase10onFirstRefEv"
    },
    {
     "mangled_component_name":"_ZN7android7RefBase15onLastStrongRefEPKv"
    },
    {
     "mangled_component_name":"_ZN7android7RefBase20onIncStrongAttemptedEjPKv"
    },
    {
     "mangled_component_name":"_ZN7android7RefBase13onLastWeakRefEPKv"
    }
   ],
   "unique_id":"_ZTSN7android8hardware4wifi10supplicant4V1_121ISupplicantStaNetworkE"
  },
  {
   "vtable_components":[
    {
     "kind":"vbase_offset",
     "component_value":120
    },
    {
     "kind":"offset_to_top"
    },
    {
     "kind":"rtti",
     "mangled_component_name":"_ZTIN7android8hardware4wifi10supplicant4V1_122BsSupplicantStaNetworkE"
    },
    {
     "mangled_component_name":"_ZNK7android8hardware4wifi10supplicant4V1_121ISupplicantStaNetwork8isRemoteEv"
    },
    {
     "mangled_component_name":"_ZN7android8hardware4wifi10supplicant4V1_122BsSupplicantStaNetwork14interfaceChainENSt3__18functionIFvRKNS0_8hidl_vecINS0_11hidl_stringEEEEEE"
    },
    {
     "mangled_component_name":"_ZN7android8hardware4wifi10supplicant4V1_122BsSupplicantStaNetwork5debugERKNS0_11hidl_handleERKNS0_8hidl_vecINS0_11hidl_stringEEE"
    },
    {
     "mangled_component_name":"_ZN7android8hardware4wifi10supplicant4V1_122BsSupplicantStaNetwork19interfaceDescriptorENSt3__18functionIFvRKNS0_11hidl_stringEEEE"
    },
    {
     "mangled_component_name":"_ZN7android8hardware4wifi10supplicant4V1_122BsSupplicantStaNetwork12getHashChainENSt3__18functionIFvRKNS0_8hidl_vecINS0_10hidl_arrayIhLm32EJEEEEEEEE"
    },
    {
     "mangled_component_name":"_ZN7android8hardware4wifi10supplicant4V1_122BsSupplicantStaNetwork21setHALInstrumentationEv"
    },
    {
     "mangled_component_name":"_ZN7android8hardware4wifi10supplicant4V1_122BsSupplicantStaNetwork11linkToDeathERKNS_2spINS0_20hidl_death_recipientEEEm"
    },
    {
     "mangled_component_name":"_ZN7android8hardware4wifi10supplicant4V1_122BsSupplicantStaNetwork4pingEv"
    },
    {
     "mangled_component_name":"_ZN7android8hardware4wifi10supplicant4V1_122BsSupplicantStaNetwork12getDebugInfoENSt3__18functionIFvRKNS_4hidl4base4V1_09DebugInfoEEEE"
    },
    {
     "mangled_component_name":"_ZN7android8hardware4wifi10supplicant4V1_122BsSupplicantStaNetwork21notifySyspropsChangedEv"
    },
    {
     "mangled_component_name":"_ZN7android8hardware4wifi10supplicant4V1_122BsSupplicantStaNetwork13unlinkToDeathERKNS_2spINS0_20hidl_death_recipientEEE"
    },
    {
     "kind":"complete_dtor_pointer",
     "mangled_component_name":"_ZN7android8hardware4wifi10supplicant4V1_122BsSupplicantStaNetworkD1Ev"
    },
    {
     "kind":"deleting_dtor_pointer",
     "mangled_component_name":"_ZN7android8hardware4wifi10supplicant4V1_122BsSupplicantStaNetworkD0Ev"
    },
    {
     "mangled_component_name":"_ZN7android8hardware4wifi10supplicant4V1_122BsSupplicantStaNetwork5getIdENSt3__18functionIFvRKNS2_4V1_016SupplicantStatusEjEEE"
    },
    {
     "mangled_component_name":"_ZN7android8hardware4wifi10supplicant4V1_122BsSupplicantStaNetwork16getInterfaceNameENSt3__18functionIFvRKNS2_4V1_016SupplicantStatusERKNS0_11hidl_stringEEEE"
    },
    {
     "mangled_component_name":"_ZN7android8hardware4wifi10supplicant4V1_122BsSupplicantStaNetwork7getTypeENSt3__18functionIFvRKNS2_4V1_016SupplicantStatusENS7_9IfaceTypeEEEE"
    },
    {
     "mangled_component_name":"_ZN7android8hardware4wifi10supplicant4V1_122BsSupplicantStaNetwork16registerCallbackERKNS_2spINS2_4V1_029ISupplicantStaNetworkCallbackEEENSt3__18functionIFvRKNS6_16SupplicantStatusEEEE"
    },
    {
     "mangled_component_name":"_ZN7android8hardware4wifi10supplicant4V1_122BsSupplicantStaNetwork7setSsidERKNS0_8hidl_vecIhEENSt3__18functionIFvRKNS2_4V1_016SupplicantStatusEEEE"
    },
    {
     "mangled_component_name":"_ZN7android8hardware4wifi10supplicant4V1_122BsSupplicantStaNetwork8setBssidERKNS0_10hidl_arrayIhLm6EJEEENSt3__18functionIFvRKNS2_4V1_016SupplicantStatusEEEE"
    },
    {
     "mangled_component_name":"_ZN7android8hardware4wifi10supplicant4V1_122BsSupplicantStaNetwork11setScanSsidEbNSt3__18functionIFvRKNS2_4V1_016SupplicantStatusEEEE"
    },
    {
     "mangled_component_name":"_ZN7android8hardware4wifi10supplicant4V1_122BsSupplicantStaNetwork10setKeyMgmtEjNSt3__18functionIFvRKNS2_4V1_016SupplicantStatusEEEE"
    },
    {
     "mangled_component_name":"_ZN7android8hardware4wifi10supplicant4V1_122BsSupplicantStaNetwork8setProtoEjNSt3__18functionIFvRKNS2_4V1_016SupplicantStatusEEEE"
    },
    {
     "mangled_component_name":"_ZN7android8hardware4wifi10supplicant4V1_122BsSupplicantStaNetwork10setAuthAlgEjNSt3__18functionIFvRKNS2_4V1_016SupplicantStatusEEEE"
    },
    {
     "mangled_component_name":"_ZN7android8hardware4wifi10supplicant4V1_122BsSupplicantStaNetwork14setGroupCipherEjNSt3__18functionIFvRKNS2_4V1_016SupplicantStatusEEEE"
    },
    {
     "mangled_component_name":"_ZN7android8hardware4wifi10supplicant4V1_122BsSupplicantStaNetwork17setPairwiseCipherEjNSt3__18functionIFvRKNS2_4V1_016SupplicantStatusEEEE"
    },
    {
     "mangled_component_name":"_ZN7android8hardware4wifi10supplicant4V1_122BsSupplicantStaNetwork16setPskPassphraseERKNS0_11hidl_stringENSt3__18functionIFvRKNS2_4V1_016SupplicantStatusEEEE"
    },
    {
     "mangled_component_name":"_ZN7android8hardware4wifi10supplicant4V1_122BsSupplicantStaNetwork6setPskERKNS0_10hidl_arrayIhLm32EJEEENSt3__18functionIFvRKNS2_4V1_016SupplicantStatusEEEE"
    },
    {
     "mangled_component_name":"_ZN7android8hardware4wifi10supplicant4V1_122BsSupplicantStaNetwork9setWepKeyEjRKNS0_8hidl_vecIhEENSt3__18functionIFvRKNS2_4V1_016SupplicantStatusEEEE"
    },
    {
     "mangled_component_name":"_ZN7android8hardware4wifi10supplicant4V1_122BsSupplicantStaNetwork14setWepTxKeyIdxEjNSt3__18functionIFvRKNS2_4V1_016SupplicantStatusEEEE"
    },
    {
     "mangled_component_name":"_ZN7android8hardware4wifi10supplicant4V1_122BsSupplicantStaNetwork13setRequirePmfEbNSt3__18functionIFvRKNS2_4V1_016SupplicantStatusEEEE"
    },
    {
     "mangled_component_name":"_ZN7android8hardware4wifi10supplicant4V1_122BsSupplicantStaNetwork12setEapMethodENS2_4V1_021ISupplicantStaNetwork9EapMethodENSt3__18functionIFvRKNS5_16SupplicantStatusEEEE"
    },
    {
     "mangled_component_name":"_ZN7android8hardware4wifi10supplicant4V1_122BsSupplicantStaNetwork18setEapPhase2MethodENS2_4V1_021ISupplicantStaNetwork15EapPhase2MethodENSt3__18functionIFvRKNS5_16SupplicantStatusEEEE"
    },
    {
     "mangled_component_name":"_ZN7android8hardware4wifi10supplicant4V1_122BsSupplicantStaNetwork14setEapIdentityERKNS0_8hidl_vecIhEENSt3__18functionIFvRKNS2_4V1_016SupplicantStatusEEEE"
    },
    {
     "mangled_component_name":"_ZN7android8hardware4wifi10supplicant4V1_122BsSupplicantStaNetwork23setEapAnonymousIdentityERKNS0_8hidl_vecIhEENSt3__18functionIFvRKNS2_4V1_016SupplicantStatusEEEE"
    },
    {
     "mangled_component_name":"_ZN7android8hardware4wifi10supplicant4V1_122BsSupplicantStaNetwork14setEapPasswordERKNS0_8hidl_vecIhEENSt3__18functionIFvRKNS2_4V1_016SupplicantStatusEEEE"
    },
    {
     "mangled_component_name":"_ZN7android8hardware4wifi10supplicant4V1_122BsSupplicantStaNetwork12setEapCACertERKNS0_11hidl_stringENSt3__18functionIFvRKNS2_4V1_016SupplicantStatusEEEE"
    },
    {
     "mangled_component_name":"_ZN7android8hardware4wifi10supplicant4V1_122BsSupplicantStaNetwork12setEapCAPathERKNS0_11hidl_stringENSt3__18functionIFvRKNS2_4V1_016SupplicantStatusEEEE"
    },
    {
     "mangled_component_name":"_ZN7android8hardware4wifi10supplicant4V1_122BsSupplicantStaNetwork16setEapClientCertERKNS0_11hidl_stringENSt3__18functionIFvRKNS2_4V1_016SupplicantStatusEEEE"
    },
    {
     "mangled_component_name":"_ZN7android8hardware4wifi10supplicant4V1_122BsSupplicantStaNetwork18setEapPrivateKeyIdERKNS0_11hidl_stringENSt3__18functionIFvRKNS2_4V1_016SupplicantStatusEEEE"
    },
    {
     "mangled_component_name":"_ZN7android8hardware4wifi10supplicant4V1_122BsSupplicantStaNetwork18setEapSubjectMatchERKNS0_11hidl_stringENSt3__18functionIFvRKNS2_4V1_016SupplicantStatusEEEE"
    },
    {
     "mangled_component_name":"_ZN7android8hardware4wifi10supplicant4V1_122BsSupplicantStaNetwork21setEapAltSubjectMatchERKNS0_11hidl_stringENSt3__18functionIFvRKNS2_4V1_016SupplicantStatusEEEE"
    },
    {
     "mangled_component_name":"_ZN7android8hardware4wifi10supplicant4V1_122BsSupplicantStaNetwork12setEapEngineEbNSt3__18functionIFvRKNS2_4V1_016SupplicantStatusEEEE"
    },
    {
     "mangled_component_name":"_ZN7android8hardware4wifi10supplicant4V1_122BsSupplicantStaNetwork14setEapEngineIDERKNS0_11hidl_stringENSt3__18functionIFvRKNS2_4V1_016SupplicantStatusEEEE"
    },
    {
     "mangled_component_name":"_ZN7android8hardware4wifi10supplicant4V1_122BsSupplicantStaNetwork23setEapDomainSuffixMatchERKNS0_11hidl_stringENSt3__18functionIFvRKNS2_4V1_016SupplicantStatusEEEE"
    },
    {
     "mangled_component_name":"_ZN7android8hardware4wifi10supplicant4V1_122BsSupplicantStaNetwork22setProactiveKeyCachingEbNSt3__18functionIFvRKNS2_4V1_016SupplicantStatusEEEE"
    },
    {
     "mangled_component_name":"_ZN7android8hardware4wifi10supplicant4V1_122BsSupplicantStaNetwork8setIdStrERKNS0_11hidl_stringENSt3__18functionIFvRKNS2_4V1_016SupplicantStatusEEEE"
    },
    {
     "mangled_component_name":"_ZN7android8hardware4wifi10supplicant4V1_122BsSupplicantStaNetwork19setUpdateIdentifierEjNSt3__18functionIFvRKNS2_4V1_016SupplicantStatusEEEE"
    },
    {
     "mangled_component_name":"_ZN7android8hardware4wifi10supplicant4V1_122BsSupplicantStaNetwork7getSsidENSt3__18functionIFvRKNS2_4V1_016SupplicantStatusERKNS0_8hidl_vecIhEEEEE"
    },
    {
     "mangled_component_name":"_ZN7android8hardware4wifi10supplicant4V1_122BsSupplicantStaNetwork8getBssidENSt3__18functionIFvRKNS2_4V1_016SupplicantStatusERKNS0_10hidl_arrayIhLm6EJEEEEEE"
    },
    {
     "mangled_component_name":"_ZN7android8hardware4wifi10supplicant4V1_122BsSupplicantStaNetwork11getScanSsidENSt3__18functionIFvRKNS2_4V1_016SupplicantStatusEbEEE"
    },
    {
     "mangled_component_name":"_ZN7android8hardware4wifi10supplicant4V1_122BsSupplicantStaNetwork10getKeyMgmtENSt3__18functionIFvRKNS2_4V1_016SupplicantStatusEjEEE"
    },
    {
     "mangled_component_name":"_ZN7android8hardware4wifi10supplicant4V1_122BsSupplicantStaNetwork8getProtoENSt3__18functionIFvRKNS2_4V1_016SupplicantStatusEjEEE"
    },
    {
     "mangled_component_name":"_ZN7android8hardware4wifi10supplicant4V1_122BsSupplicantStaNetwork10getAuthAlgENSt3__18functionIFvRKNS2_4V1_016SupplicantStatusEjEEE"
    },
    {
     "mangled_component_name":"_ZN7android8hardware4wifi10supplicant4V1_122BsSupplicantStaNetwork14getGroupCipherENSt3__18functionIFvRKNS2_4V1_016SupplicantStatusEjEEE"
    },
    {
     "mangled_component_name":"_ZN7android8hardware4wifi10supplicant4V1_122BsSupplicantStaNetwork17getPairwiseCipherENSt3__18functionIFvRKNS2_4V1_016SupplicantStatusEjEEE"
    },
    {
     "mangled_component_name":"_ZN7android8hardware4wifi10supplicant4V1_122BsSupplicantStaNetwork16getPskPassphraseENSt3__18functionIFvRKNS2_4V1_016SupplicantStatusERKNS0_11hidl_stringEEEE"
    },
    {
     "mangled_component_name":"_ZN7android8hardware4wifi10supplicant4V1_122BsSupplicantStaNetwork6getPskENSt3__18functionIFvRKNS2_4V1_016SupplicantStatusERKNS0_10hidl_arrayIhLm32EJEEEEEE"
    },
    {
     "mangled_component_name":"_ZN7android8hardware4wifi10supplicant4V1_122BsSupplicantStaNetwork9getWepKeyEjNSt3__18functionIFvRKNS2_4V1_016SupplicantStatusERKNS0_8hidl_vecIhEEEEE"
    },
    {
     "mangled_component_name":"_ZN7android8hardware4wifi10supplicant4V1_122BsSupplicantStaNetwork14getWepTxKeyIdxENSt3__18functionIFvRKNS2_4V1_016SupplicantStatusEjEEE"
    },
    {
     "mangled_component_name":"_ZN7android8hardware4wifi10supplicant4V1_122BsSupplicantStaNetwork13getRequirePmfENSt3__18functionIFvRKNS2_4V1_016SupplicantStatusEbEEE"
    },
    {
     "mangled_component_name":"_ZN7android8hardware4wifi10supplicant4V1_122BsSupplicantStaNetwork12getEapMethodENSt3__18functionIFvRKNS2_4V1_016SupplicantStatusENS7_21ISupplicantStaNetwork9EapMethodEEEE"
    },
    {
     "mangled_component_name":"_ZN7android8hardware4wifi10supplicant4V1_122BsSupplicantStaNetwork18getEapPhase2MethodENSt3__18functionIFvRKNS2_4V1_016SupplicantStatusENS7_21ISupplicantStaNetwork15EapPhase2MethodEEEE"
    },
    {
     "mangled_component_name":"_ZN7android8hardware4wifi10supplicant4V1_122BsSupplicantStaNetwork14getEapIdentityENSt3__18functionIFvRKNS2_4V1_016SupplicantStatusERKNS0_8hidl_vecIhEEEEE"
    },
    {
     "mangled_component_name":"_ZN7android8hardware4wifi10supplicant4V1_122BsSupplicantStaNetwork23getEapAnonymousIdentityENSt3__18functionIFvRKNS2_4V1_016SupplicantStatusERKNS0_8hidl_vecIhEEEEE"
    },
    {
     "mangled_component_name":"_ZN7android8hardware4wifi10supplicant4V1_122BsSupplicantStaNetwork14getEapPasswordENSt3__18functionIFvRKNS2_4V1_016SupplicantStatusERKNS0_8hidl_vecIhEEEEE"
    },
    {
     "mangled_component_name":"_ZN7android8hardware4wifi10supplicant4V1_122BsSupplicantStaNetwork12getEapCACertENSt3__18functionIFvRKNS2_4V1_016SupplicantStatusERKNS0_11hidl_stringEEEE"
    },
    {
     "mangled_component_name":"_ZN7android8hardware4wifi10supplicant4V1_122BsSupplicantStaNetwork12getEapCAPathENSt3__18functionIFvRKNS2_4V1_016SupplicantStatusERKNS0_11hidl_stringEEEE"
    },
    {
     "mangled_component_name":"_ZN7android8hardware4wifi10supplicant4V1_122BsSupplicantStaNetwork16getEapClientCertENSt3__18functionIFvRKNS2_4V1_016SupplicantStatusERKNS0_11hidl_stringEEEE"
    },
    {
     "mangled_component_name":"_ZN7android8hardware4wifi10supplicant4V1_122BsSupplicantStaNetwork18getEapPrivateKeyIdENSt3__18functionIFvRKNS2_4V1_016SupplicantStatusERKNS0_11hidl_stringEEEE"
    },
    {
     "mangled_component_name":"_ZN7android8hardware4wifi10supplicant4V1_122BsSupplicantStaNetwork18getEapSubjectMatchENSt3__18functionIFvRKNS2_4V1_016SupplicantStatusERKNS0_11hidl_stringEEEE"
    },
    {
     "mangled_component_name":"_ZN7android8hardware4wifi10supplicant4V1_122BsSupplicantStaNetwork21getEapAltSubjectMatchENSt3__18functionIFvRKNS2_4V1_016SupplicantStatusERKNS0_11hidl_stringEEEE"
    },
    {
     "mangled_component_name":"_ZN7android8hardware4wifi10supplicant4V1_122BsSupplicantStaNetwork12getEapEngineENSt3__18functionIFvRKNS2_4V1_016SupplicantStatusEbEEE"
    },
    {
     "mangled_component_name":"_ZN7android8hardware4wifi10supplicant4V1_122BsSupplicantStaNetwork14getEapEngineIDENSt3__18functionIFvRKNS2_4V1_016SupplicantStatusERKNS0_11hidl_stringEEEE"
    },
    {
     "mangled_component_name":"_ZN7android8hardware4wifi10supplicant4V1_122BsSupplicantStaNetwork23getEapDomainSuffixMatchENSt3__18functionIFvRKNS2_4V1_016SupplicantStatusERKNS0_11hidl_stringEEEE"
    },
    {
     "mangled_component_name":"_ZN7android8hardware4wifi10supplicant4V1_122BsSupplicantStaNetwork8getIdStrENSt3__18functionIFvRKNS2_4V1_016SupplicantStatusERKNS0_11hidl_stringEEEE"
    },
    {
     "mangled_component_name":"_ZN7android8hardware4wifi10supplicant4V1_122BsSupplicantStaNetwork27getWpsNfcConfigurationTokenENSt3__18functionIFvRKNS2_4V1_016SupplicantStatusERKNS0_8hidl_vecIhEEEEE"
    },
    {
     "mangled_component_name":"_ZN7android8hardware4wifi10supplicant4V1_122BsSupplicantStaNetwork6enableEbNSt3__18functionIFvRKNS2_4V1_016SupplicantStatusEEEE"
    },
    {
     "mangled_component_name":"_ZN7android8hardware4wifi10supplicant4V1_122BsSupplicantStaNetwork7disableENSt3__18functionIFvRKNS2_4V1_016SupplicantStatusEEEE"
    },
    {
     "mangled_component_name":"_ZN7android8hardware4wifi10supplicant4V1_122BsSupplicantStaNetwork6selectENSt3__18functionIFvRKNS2_4V1_016SupplicantStatusEEEE"
    },
    {
     "mangled_component_name":"_ZN7android8hardware4wifi10supplicant4V1_122BsSupplicantStaNetwork32sendNetworkEapSimGsmAuthResponseERKNS0_8hidl_vecINS2_4V1_021ISupplicantStaNetwork34NetworkResponseEapSimGsmAuthParamsEEENSt3__18functionIFvRKNS6_16SupplicantStatusEEEE"
    },
    {
     "mangled_component_name":"_ZN7android8hardware4wifi10supplicant4V1_122BsSupplicantStaNetwork31sendNetworkEapSimGsmAuthFailureENSt3__18functionIFvRKNS2_4V1_016SupplicantStatusEEEE"
    },
    {
     "mangled_component_name":"_ZN7android8hardware4wifi10supplicant4V1_122BsSupplicantStaNetwork33sendNetworkEapSimUmtsAuthResponseERKNS2_4V1_021ISupplicantStaNetwork35NetworkResponseEapSimUmtsAuthParamsENSt3__18functionIFvRKNS5_16SupplicantStatusEEEE"
    },
    {
     "mangled_component_name":"_ZN7android8hardware4wifi10supplicant4V1_122BsSupplicantStaNetwork33sendNetworkEapSimUmtsAutsResponseERKNS0_10hidl_arrayIhLm14EJEEENSt3__18functionIFvRKNS2_4V1_016SupplicantStatusEEEE"
    },
    {
     "mangled_component_name":"_ZN7android8hardware4wifi10supplicant4V1_122BsSupplicantStaNetwork32sendNetworkEapSimUmtsAuthFailureENSt3__18functionIFvRKNS2_4V1_016SupplicantStatusEEEE"
    },
    {
     "mangled_component_name":"_ZN7android8hardware4wifi10supplicant4V1_122BsSupplicantStaNetwork30sendNetworkEapIdentityResponseERKNS0_8hidl_vecIhEENSt3__18functionIFvRKNS2_4V1_016SupplicantStatusEEEE"
    },
    {
     "mangled_component_name":"_ZN7android8hardware4wifi10supplicant4V1_122BsSupplicantStaNetwork27setEapEncryptedImsiIdentityERKNS0_8hidl_vecIhEENSt3__18functionIFvRKNS2_4V1_016SupplicantStatusEEEE"
    },
    {
     "mangled_component_name":"_ZN7android8hardware4wifi10supplicant4V1_122BsSupplicantStaNetwork34sendNetworkEapIdentityResponse_1_1ERKNS0_8hidl_vecIhEES8_NSt3__18functionIFvRKNS2_4V1_016SupplicantStatusEEEE"
    },
    {
     "kind":"offset_to_top",
     "component_value":-8
    },
    {
     "kind":"rtti",
     "mangled_component_name":"_ZTIN7android8hardware4wifi10supplicant4V1_122BsSupplicantStaNetworkE"
    },
    {
     "kind":"complete_dtor_pointer",
     "mangled_component_name":"_ZThn8_N7android8hardware4wifi10supplicant4V1_122BsSupplicantStaNetworkD1Ev"
    },
    {
     "kind":"deleting_dtor_pointer",
     "mangled_component_name":"_ZThn8_N7android8hardware4wifi10supplicant4V1_122BsSupplicantStaNetworkD0Ev"
    },
    {
     "kind":"vcall_offset"
    },
    {
     "kind":"vcall_offset"
    },
    {
     "kind":"vcall_offset"
    },
    {
     "kind":"vcall_offset"
    },
    {
     "kind":"vcall_offset",
     "component_value":-120
    },
    {
     "kind":"offset_to_top",
     "component_value":-120
    },
    {
     "kind":"rtti",
     "mangled_component_name":"_ZTIN7android8hardware4wifi10supplicant4V1_122BsSupplicantStaNetworkE"
    },
    {
     "kind":"complete_dtor_pointer",
     "mangled_component_name":"_ZTv0_n24_N7android8hardware4wifi10supplicant4V1_122BsSupplicantStaNetworkD1Ev"
    },
    {
     "kind":"deleting_dtor_pointer",
     "mangled_component_name":"_ZTv0_n24_N7android8hardware4wifi10supplicant4V1_122BsSupplicantStaNetworkD0Ev"
    },
    {
     "mangled_component_name":"_ZN7android7RefBase10onFirstRefEv"
    },
    {
     "mangled_component_name":"_ZN7android7RefBase15onLastStrongRefEPKv"
    },
    {
     "mangled_component_name":"_ZN7android7RefBase20onIncStrongAttemptedEjPKv"
    },
    {
     "mangled_component_name":"_ZN7android7RefBase13onLastWeakRefEPKv"
    }
   ],
   "unique_id":"_ZTSN7android8hardware4wifi10supplicant4V1_122BsSupplicantStaNetworkE"
  },
  {
   "vtable_components":[
    {
     "kind":"vbase_offset",
     "component_value":200
    },
    {
     "kind":"offset_to_top"
    },
    {
     "kind":"rtti",
     "mangled_component_name":"_ZTIN7android8hardware4wifi10supplicant4V1_124BpHwSupplicantStaNetworkE"
    },
    {
     "mangled_component_name":"_ZNK7android8hardware4wifi10supplicant4V1_124BpHwSupplicantStaNetwork8isRemoteEv"
    },
    {
     "mangled_component_name":"_ZN7android8hardware4wifi10supplicant4V1_124BpHwSupplicantStaNetwork14interfaceChainENSt3__18functionIFvRKNS0_8hidl_vecINS0_11hidl_stringEEEEEE"
    },
    {
     "mangled_component_name":"_ZN7android8hardware4wifi10supplicant4V1_124BpHwSupplicantStaNetwork5debugERKNS0_11hidl_handleERKNS0_8hidl_vecINS0_11hidl_stringEEE"
    },
    {
     "mangled_component_name":"_ZN7android8hardware4wifi10supplicant4V1_124BpHwSupplicantStaNetwork19interfaceDescriptorENSt3__18functionIFvRKNS0_11hidl_stringEEEE"
    },
    {
     "mangled_component_name":"_ZN7android8hardware4wifi10supplicant4V1_124BpHwSupplicantStaNetwork12getHashChainENSt3__18functionIFvRKNS0_8hidl_vecINS0_10hidl_arrayIhLm32EJEEEEEEEE"
    },
    {
     "mangled_component_name":"_ZN7android8hardware4wifi10supplicant4V1_124BpHwSupplicantStaNetwork21setHALInstrumentationEv"
    },
    {
     "mangled_component_name":"_ZN7android8hardware4wifi10supplicant4V1_124BpHwSupplicantStaNetwork11linkToDeathERKNS_2spINS0_20hidl_death_recipientEEEm"
    },
    {
     "mangled_component_name":"_ZN7android8hardware4wifi10supplicant4V1_124BpHwSupplicantStaNetwork4pingEv"
    },
    {
     "mangled_component_name":"_ZN7android8hardware4wifi10supplicant4V1_124BpHwSupplicantStaNetwork12getDebugInfoENSt3__18functionIFvRKNS_4hidl4base4V1_09DebugInfoEEEE"
    },
    {
     "mangled_component_name":"_ZN7android8hardware4wifi10supplicant4V1_124BpHwSupplicantStaNetwork21notifySyspropsChangedEv"
    },
    {
     "mangled_component_name":"_ZN7android8hardware4wifi10supplicant4V1_124BpHwSupplicantStaNetwork13unlinkToDeathERKNS_2spINS0_20hidl_death_recipientEEE"
    },
    {
     "kind":"complete_dtor_pointer",
     "mangled_component_name":"_ZN7android8hardware4wifi10supplicant4V1_124BpHwSupplicantStaNetworkD1Ev"
    },
    {
     "kind":"deleting_dtor_pointer",
     "mangled_component_name":"_ZN7android8hardware4wifi10supplicant4V1_124BpHwSupplicantStaNetworkD0Ev"
    },
    {
     "mangled_component_name":"_ZN7android8hardware4wifi10supplicant4V1_124BpHwSupplicantStaNetwork5getIdENSt3__18functionIFvRKNS2_4V1_016SupplicantStatusEjEEE"
    },
    {
     "mangled_component_name":"_ZN7android8hardware4wifi10supplicant4V1_124BpHwSupplicantStaNetwork16getInterfaceNameENSt3__18functionIFvRKNS2_4V1_016SupplicantStatusERKNS0_11hidl_stringEEEE"
    },
    {
     "mangled_component_name":"_ZN7android8hardware4wifi10supplicant4V1_124BpHwSupplicantStaNetwork7getTypeENSt3__18functionIFvRKNS2_4V1_016SupplicantStatusENS7_9IfaceTypeEEEE"
    },
    {
     "mangled_component_name":"_ZN7android8hardware4wifi10supplicant4V1_124BpHwSupplicantStaNetwork16registerCallbackERKNS_2spINS2_4V1_029ISupplicantStaNetworkCallbackEEENSt3__18functionIFvRKNS6_16SupplicantStatusEEEE"
    },
    {
     "mangled_component_name":"_ZN7android8hardware4wifi10supplicant4V1_124BpHwSupplicantStaNetwork7setSsidERKNS0_8hidl_vecIhEENSt3__18functionIFvRKNS2_4V1_016SupplicantStatusEEEE"
    },
    {
     "mangled_component_name":"_ZN7android8hardware4wifi10supplicant4V1_124BpHwSupplicantStaNetwork8setBssidERKNS0_10hidl_arrayIhLm6EJEEENSt3__18functionIFvRKNS2_4V1_016SupplicantStatusEEEE"
    },
    {
     "mangled_component_name":"_ZN7android8hardware4wifi10supplicant4V1_124BpHwSupplicantStaNetwork11setScanSsidEbNSt3__18functionIFvRKNS2_4V1_016SupplicantStatusEEEE"
    },
    {
     "mangled_component_name":"_ZN7android8hardware4wifi10supplicant4V1_124BpHwSupplicantStaNetwork10setKeyMgmtEjNSt3__18functionIFvRKNS2_4V1_016SupplicantStatusEEEE"
    },
    {
     "mangled_component_name":"_ZN7android8hardware4wifi10supplicant4V1_124BpHwSupplicantStaNetwork8setProtoEjNSt3__18functionIFvRKNS2_4V1_016SupplicantStatusEEEE"
    },
    {
     "mangled_component_name":"_ZN7android8hardware4wifi10supplicant4V1_124BpHwSupplicantStaNetwork10setAuthAlgEjNSt3__18functionIFvRKNS2_4V1_016SupplicantStatusEEEE"
    },
    {
     "mangled_component_name":"_ZN7android8hardware4wifi10supplicant4V1_124BpHwSupplicantStaNetwork14setGroupCipherEjNSt3__18functionIFvRKNS2_4V1_016SupplicantStatusEEEE"
    },
    {
     "mangled_component_name":"_ZN7android8hardware4wifi10supplicant4V1_124BpHwSupplicantStaNetwork17setPairwiseCipherEjNSt3__18functionIFvRKNS2_4V1_016SupplicantStatusEEEE"
    },
    {
     "mangled_component_name":"_ZN7android8hardware4wifi10supplicant4V1_124BpHwSupplicantStaNetwork16setPskPassphraseERKNS0_11hidl_stringENSt3__18functionIFvRKNS2_4V1_016SupplicantStatusEEEE"
    },
    {
     "mangled_component_name":"_ZN7android8hardware4wifi10supplicant4V1_124BpHwSupplicantStaNetwork6setPskERKNS0_10hidl_arrayIhLm32EJEEENSt3__18functionIFvRKNS2_4V1_016SupplicantStatusEEEE"
    },
    {
     "mangled_component_name":"_ZN7android8hardware4wifi10supplicant4V1_124BpHwSupplicantStaNetwork9setWepKeyEjRKNS0_8hidl_vecIhEENSt3__18functionIFvRKNS2_4V1_016SupplicantStatusEEEE"
    },
    {
     "mangled_component_name":"_ZN7android8hardware4wifi10supplicant4V1_124BpHwSupplicantStaNetwork14setWepTxKeyIdxEjNSt3__18functionIFvRKNS2_4V1_016SupplicantStatusEEEE"
    },
    {
     "mangled_component_name":"_ZN7android8hardware4wifi10supplicant4V1_124BpHwSupplicantStaNetwork13setRequirePmfEbNSt3__18functionIFvRKNS2_4V1_016SupplicantStatusEEEE"
    },
    {
     "mangled_component_name":"_ZN7android8hardware4wifi10supplicant4V1_124BpHwSupplicantStaNetwork12setEapMethodENS2_4V1_021ISupplicantStaNetwork9EapMethodENSt3__18functionIFvRKNS5_16SupplicantStatusEEEE"
    },
    {
     "mangled_component_name":"_ZN7android8hardware4wifi10supplicant4V1_124BpHwSupplicantStaNetwork18setEapPhase2MethodENS2_4V1_021ISupplicantStaNetwork15EapPhase2MethodENSt3__18functionIFvRKNS5_16SupplicantStatusEEEE"
    },
    {
     "mangled_component_name":"_ZN7android8hardware4wifi10supplicant4V1_124BpHwSupplicantStaNetwork14setEapIdentityERKNS0_8hidl_vecIhEENSt3__18functionIFvRKNS2_4V1_016SupplicantStatusEEEE"
    },
    {
     "mangled_component_name":"_ZN7android8hardware4wifi10supplicant4V1_124BpHwSupplicantStaNetwork23setEapAnonymousIdentityERKNS0_8hidl_vecIhEENSt3__18functionIFvRKNS2_4V1_016SupplicantStatusEEEE"
    },
    {
     "mangled_component_name":"_ZN7android8hardware4wifi10supplicant4V1_124BpHwSupplicantStaNetwork14setEapPasswordERKNS0_8hidl_vecIhEENSt3__18functionIFvRKNS2_4V1_016SupplicantStatusEEEE"
    },
    {
     "mangled_component_name":"_ZN7android8hardware4wifi10supplicant4V1_124BpHwSupplicantStaNetwork12setEapCACertERKNS0_11hidl_stringENSt3__18functionIFvRKNS2_4V1_016SupplicantStatusEEEE"
    },
    {
     "mangled_component_name":"_ZN7android8hardware4wifi10supplicant4V1_124BpHwSupplicantStaNetwork12setEapCAPathERKNS0_11hidl_stringENSt3__18functionIFvRKNS2_4V1_016SupplicantStatusEEEE"
    },
    {
     "mangled_component_name":"_ZN7android8hardware4wifi10supplicant4V1_124BpHwSupplicantStaNetwork16setEapClientCertERKNS0_11hidl_stringENSt3__18functionIFvRKNS2_4V1_016SupplicantStatusEEEE"
    },
    {
     "mangled_component_name":"_ZN7android8hardware4wifi10supplicant4V1_124BpHwSupplicantStaNetwork18setEapPrivateKeyIdERKNS0_11hidl_stringENSt3__18functionIFvRKNS2_4V1_016SupplicantStatusEEEE"
    },
    {
     "mangled_component_name":"_ZN7android8hardware4wifi10supplicant4V1_124BpHwSupplicantStaNetwork18setEapSubjectMatchERKNS0_11hidl_stringENSt3__18functionIFvRKNS2_4V1_016SupplicantStatusEEEE"
    },
    {
     "mangled_component_name":"_ZN7android8hardware4wifi10supplicant4V1_124BpHwSupplicantStaNetwork21setEapAltSubjectMatchERKNS0_11hidl_stringENSt3__18functionIFvRKNS2_4V1_016SupplicantStatusEEEE"
    },
    {
     "mangled_component_name":"_ZN7android8hardware4wifi10supplicant4V1_124BpHwSupplicantStaNetwork12setEapEngineEbNSt3__18functionIFvRKNS2_4V1_016SupplicantStatusEEEE"
    },
    {
     "mangled_component_name":"_ZN7android8hardware4wifi10supplicant4V1_124BpHwSupplicantStaNetwork14setEapEngineIDERKNS0_11hidl_stringENSt3__18functionIFvRKNS2_4V1_016SupplicantStatusEEEE"
    },
    {
     "mangled_component_name":"_ZN7android8hardware4wifi10supplicant4V1_124BpHwSupplicantStaNetwork23setEapDomainSuffixMatchERKNS0_11hidl_stringENSt3__18functionIFvRKNS2_4V1_016SupplicantStatusEEEE"
    },
    {
     "mangled_component_name":"_ZN7android8hardware4wifi10supplicant4V1_124BpHwSupplicantStaNetwork22setProactiveKeyCachingEbNSt3__18functionIFvRKNS2_4V1_016SupplicantStatusEEEE"
    },
    {
     "mangled_component_name":"_ZN7android8hardware4wifi10supplicant4V1_124BpHwSupplicantStaNetwork8setIdStrERKNS0_11hidl_stringENSt3__18functionIFvRKNS2_4V1_016SupplicantStatusEEEE"
    },
    {
     "mangled_component_name":"_ZN7android8hardware4wifi10supplicant4V1_124BpHwSupplicantStaNetwork19setUpdateIdentifierEjNSt3__18functionIFvRKNS2_4V1_016SupplicantStatusEEEE"
    },
    {
     "mangled_component_name":"_ZN7android8hardware4wifi10supplicant4V1_124BpHwSupplicantStaNetwork7getSsidENSt3__18functionIFvRKNS2_4V1_016SupplicantStatusERKNS0_8hidl_vecIhEEEEE"
    },
    {
     "mangled_component_name":"_ZN7android8hardware4wifi10supplicant4V1_124BpHwSupplicantStaNetwork8getBssidENSt3__18functionIFvRKNS2_4V1_016SupplicantStatusERKNS0_10hidl_arrayIhLm6EJEEEEEE"
    },
    {
     "mangled_component_name":"_ZN7android8hardware4wifi10supplicant4V1_124BpHwSupplicantStaNetwork11getScanSsidENSt3__18functionIFvRKNS2_4V1_016SupplicantStatusEbEEE"
    },
    {
     "mangled_component_name":"_ZN7android8hardware4wifi10supplicant4V1_124BpHwSupplicantStaNetwork10getKeyMgmtENSt3__18functionIFvRKNS2_4V1_016SupplicantStatusEjEEE"
    },
    {
     "mangled_component_name":"_ZN7android8hardware4wifi10supplicant4V1_124BpHwSupplicantStaNetwork8getProtoENSt3__18functionIFvRKNS2_4V1_016SupplicantStatusEjEEE"
    },
    {
     "mangled_component_name":"_ZN7android8hardware4wifi10supplicant4V1_124BpHwSupplicantStaNetwork10getAuthAlgENSt3__18functionIFvRKNS2_4V1_016SupplicantStatusEjEEE"
    },
    {
     "mangled_component_name":"_ZN7android8hardware4wifi10supplicant4V1_124BpHwSupplicantStaNetwork14getGroupCipherENSt3__18functionIFvRKNS2_4V1_016SupplicantStatusEjEEE"
    },
    {
     "mangled_component_name":"_ZN7android8hardware4wifi10supplicant4V1_124BpHwSupplicantStaNetwork17getPairwiseCipherENSt3__18functionIFvRKNS2_4V1_016SupplicantStatusEjEEE"
    },
    {
     "mangled_component_name":"_ZN7android8hardware4wifi10supplicant4V1_124BpHwSupplicantStaNetwork16getPskPassphraseENSt3__18functionIFvRKNS2_4V1_016SupplicantStatusERKNS0_11hidl_stringEEEE"
    },
    {
     "mangled_component_name":"_ZN7android8hardware4wifi10supplicant4V1_124BpHwSupplicantStaNetwork6getPskENSt3__18functionIFvRKNS2_4V1_016SupplicantStatusERKNS0_10hidl_arrayIhLm32EJEEEEEE"
    },
    {
     "mangled_component_name":"_ZN7android8hardware4wifi10supplicant4V1_124BpHwSupplicantStaNetwork9getWepKeyEjNSt3__18functionIFvRKNS2_4V1_016SupplicantStatusERKNS0_8hidl_vecIhEEEEE"
    },
    {
     "mangled_component_name":"_ZN7android8hardware4wifi10supplicant4V1_124BpHwSupplicantStaNetwork14getWepTxKeyIdxENSt3__18functionIFvRKNS2_4V1_016SupplicantStatusEjEEE"
    },
    {
     "mangled_component_name":"_ZN7android8hardware4wifi10supplicant4V1_124BpHwSupplicantStaNetwork13getRequirePmfENSt3__18functionIFvRKNS2_4V1_016SupplicantStatusEbEEE"
    },
    {
     "mangled_component_name":"_ZN7android8hardware4wifi10supplicant4V1_124BpHwSupplicantStaNetwork12getEapMethodENSt3__18functionIFvRKNS2_4V1_016SupplicantStatusENS7_21ISupplicantStaNetwork9EapMethodEEEE"
    },
    {
     "mangled_component_name":"_ZN7android8hardware4wifi10supplicant4V1_124BpHwSupplicantStaNetwork18getEapPhase2MethodENSt3__18functionIFvRKNS2_4V1_016SupplicantStatusENS7_21ISupplicantStaNetwork15EapPhase2MethodEEEE"
    },
    {
     "mangled_component_name":"_ZN7android8hardware4wifi10supplicant4V1_124BpHwSupplicantStaNetwork14getEapIdentityENSt3__18functionIFvRKNS2_4V1_016SupplicantStatusERKNS0_8hidl_vecIhEEEEE"
    },
    {
     "mangled_component_name":"_ZN7android8hardware4wifi10supplicant4V1_124BpHwSupplicantStaNetwork23getEapAnonymousIdentityENSt3__18functionIFvRKNS2_4V1_016SupplicantStatusERKNS0_8hidl_vecIhEEEEE"
    },
    {
     "mangled_component_name":"_ZN7android8hardware4wifi10supplicant4V1_124BpHwSupplicantStaNetwork14getEapPasswordENSt3__18functionIFvRKNS2_4V1_016SupplicantStatusERKNS0_8hidl_vecIhEEEEE"
    },
    {
     "mangled_component_name":"_ZN7android8hardware4wifi10supplicant4V1_124BpHwSupplicantStaNetwork12getEapCACertENSt3__18functionIFvRKNS2_4V1_016SupplicantStatusERKNS0_11hidl_stringEEEE"
    },
    {
     "mangled_component_name":"_ZN7android8hardware4wifi10supplicant4V1_124BpHwSupplicantStaNetwork12getEapCAPathENSt3__18functionIFvRKNS2_4V1_016SupplicantStatusERKNS0_11hidl_stringEEEE"
    },
    {
     "mangled_component_name":"_ZN7android8hardware4wifi10supplicant4V1_124BpHwSupplicantStaNetwork16getEapClientCertENSt3__18functionIFvRKNS2_4V1_016SupplicantStatusERKNS0_11hidl_stringEEEE"
    },
    {
     "mangled_component_name":"_ZN7android8hardware4wifi10supplicant4V1_124BpHwSupplicantStaNetwork18getEapPrivateKeyIdENSt3__18functionIFvRKNS2_4V1_016SupplicantStatusERKNS0_11hidl_stringEEEE"
    },
    {
     "mangled_component_name":"_ZN7android8hardware4wifi10supplicant4V1_124BpHwSupplicantStaNetwork18getEapSubjectMatchENSt3__18functionIFvRKNS2_4V1_016SupplicantStatusERKNS0_11hidl_stringEEEE"
    },
    {
     "mangled_component_name":"_ZN7android8hardware4wifi10supplicant4V1_124BpHwSupplicantStaNetwork21getEapAltSubjectMatchENSt3__18functionIFvRKNS2_4V1_016SupplicantStatusERKNS0_11hidl_stringEEEE"
    },
    {
     "mangled_component_name":"_ZN7android8hardware4wifi10supplicant4V1_124BpHwSupplicantStaNetwork12getEapEngineENSt3__18functionIFvRKNS2_4V1_016SupplicantStatusEbEEE"
    },
    {
     "mangled_component_name":"_ZN7android8hardware4wifi10supplicant4V1_124BpHwSupplicantStaNetwork14getEapEngineIDENSt3__18functionIFvRKNS2_4V1_016SupplicantStatusERKNS0_11hidl_stringEEEE"
    },
    {
     "mangled_component_name":"_ZN7android8hardware4wifi10supplicant4V1_124BpHwSupplicantStaNetwork23getEapDomainSuffixMatchENSt3__18functionIFvRKNS2_4V1_016SupplicantStatusERKNS0_11hidl_stringEEEE"
    },
    {
     "mangled_component_name":"_ZN7android8hardware4wifi10supplicant4V1_124BpHwSupplicantStaNetwork8getIdStrENSt3__18functionIFvRKNS2_4V1_016SupplicantStatusERKNS0_11hidl_stringEEEE"
    },
    {
     "mangled_component_name":"_ZN7android8hardware4wifi10supplicant4V1_124BpHwSupplicantStaNetwork27getWpsNfcConfigurationTokenENSt3__18functionIFvRKNS2_4V1_016SupplicantStatusERKNS0_8hidl_vecIhEEEEE"
    },
    {
     "mangled_component_name":"_ZN7android8hardware4wifi10supplicant4V1_124BpHwSupplicantStaNetwork6enableEbNSt3__18functionIFvRKNS2_4V1_016SupplicantStatusEEEE"
    },
    {
     "mangled_component_name":"_ZN7android8hardware4wifi10supplicant4V1_124BpHwSupplicantStaNetwork7disableENSt3__18functionIFvRKNS2_4V1_016SupplicantStatusEEEE"
    },
    {
     "mangled_component_name":"_ZN7android8hardware4wifi10supplicant4V1_124BpHwSupplicantStaNetwork6selectENSt3__18functionIFvRKNS2_4V1_016SupplicantStatusEEEE"
    },
    {
     "mangled_component_name":"_ZN7android8hardware4wifi10supplicant4V1_124BpHwSupplicantStaNetwork32sendNetworkEapSimGsmAuthResponseERKNS0_8hidl_vecINS2_4V1_021ISupplicantStaNetwork34NetworkResponseEapSimGsmAuthParamsEEENSt3__18functionIFvRKNS6_16SupplicantStatusEEEE"
    },
    {
     "mangled_component_name":"_ZN7android8hardware4wifi10supplicant4V1_124BpHwSupplicantStaNetwork31sendNetworkEapSimGsmAuthFailureENSt3__18functionIFvRKNS2_4V1_016SupplicantStatusEEEE"
    },
    {
     "mangled_component_name":"_ZN7android8hardware4wifi10supplicant4V1_124BpHwSupplicantStaNetwork33sendNetworkEapSimUmtsAuthResponseERKNS2_4V1_021ISupplicantStaNetwork35NetworkResponseEapSimUmtsAuthParamsENSt3__18functionIFvRKNS5_16SupplicantStatusEEEE"
    },
    {
     "mangled_component_name":"_ZN7android8hardware4wifi10supplicant4V1_124BpHwSupplicantStaNetwork33sendNetworkEapSimUmtsAutsResponseERKNS0_10hidl_arrayIhLm14EJEEENSt3__18functionIFvRKNS2_4V1_016SupplicantStatusEEEE"
    },
    {
     "mangled_component_name":"_ZN7android8hardware4wifi10supplicant4V1_124BpHwSupplicantStaNetwork32sendNetworkEapSimUmtsAuthFailureENSt3__18functionIFvRKNS2_4V1_016SupplicantStatusEEEE"
    },
    {
     "mangled_component_name":"_ZN7android8hardware4wifi10supplicant4V1_124BpHwSupplicantStaNetwork30sendNetworkEapIdentityResponseERKNS0_8hidl_vecIhEENSt3__18functionIFvRKNS2_4V1_016SupplicantStatusEEEE"
    },
    {
     "mangled_component_name":"_ZN7android8hardware4wifi10supplicant4V1_124BpHwSupplicantStaNetwork27setEapEncryptedImsiIdentityERKNS0_8hidl_vecIhEENSt3__18functionIFvRKNS2_4V1_016SupplicantStatusEEEE"
    },
    {
     "mangled_component_name":"_ZN7android8hardware4wifi10supplicant4V1_124BpHwSupplicantStaNetwork34sendNetworkEapIdentityResponse_1_1ERKNS0_8hidl_vecIhEES8_NSt3__18functionIFvRKNS2_4V1_016SupplicantStatusEEEE"
    },
    {
     "mangled_component_name":"_ZN7android8hardware11BpInterfaceINS0_4wifi10supplicant4V1_121ISupplicantStaNetworkEE10onAsBinderEv"
    },
    {
     "kind":"vbase_offset",
     "component_value":192
    },
    {
     "kind":"offset_to_top",
     "component_value":-8
    },
    {
     "kind":"rtti",
     "mangled_component_name":"_ZTIN7android8hardware4wifi10supplicant4V1_124BpHwSupplicantStaNetworkE"
    },
    {
     "kind":"complete_dtor_pointer",
     "mangled_component_name":"_ZThn8_N7android8hardware4wifi10supplicant4V1_124BpHwSupplicantStaNetworkD1Ev"
    },
    {
     "kind":"deleting_dtor_pointer",
     "mangled_component_name":"_ZThn8_N7android8hardware4wifi10supplicant4V1_124BpHwSupplicantStaNetworkD0Ev"
    },
    {
     "mangled_component_name":"_ZThn8_N7android8hardware11BpInterfaceINS0_4wifi10supplicant4V1_121ISupplicantStaNetworkEE10onAsBinderEv"
    },
    {
     "kind":"vbase_offset",
     "component_value":184
    },
    {
     "kind":"offset_to_top",
     "component_value":-16
    },
    {
     "kind":"rtti",
     "mangled_component_name":"_ZTIN7android8hardware4wifi10supplicant4V1_124BpHwSupplicantStaNetworkE"
    },
    {
     "kind":"complete_dtor_pointer",
     "mangled_component_name":"_ZThn16_N7android8hardware4wifi10supplicant4V1_124BpHwSupplicantStaNetworkD1Ev"
    },
    {
     "kind":"deleting_dtor_pointer",
     "mangled_component_name":"_ZThn16_N7android8hardware4wifi10supplicant4V1_124BpHwSupplicantStaNetworkD0Ev"
    },
    {
     "mangled_component_name":"_ZN7android8hardware11BpHwRefBase10onFirstRefEv"
    },
    {
     "mangled_component_name":"_ZN7android8hardware11BpHwRefBase15onLastStrongRefEPKv"
    },
    {
     "mangled_component_name":"_ZN7android8hardware11BpHwRefBase20onIncStrongAttemptedEjPKv"
    },
    {
     "kind":"offset_to_top",
     "component_value":-48
    },
    {
     "kind":"rtti",
     "mangled_component_name":"_ZTIN7android8hardware4wifi10supplicant4V1_124BpHwSupplicantStaNetworkE"
    },
    {
     "kind":"complete_dtor_pointer",
     "mangled_component_name":"_ZThn48_N7android8hardware4wifi10supplicant4V1_124BpHwSupplicantStaNetworkD1Ev"
    },
    {
     "kind":"deleting_dtor_pointer",
     "mangled_component_name":"_ZThn48_N7android8hardware4wifi10supplicant4V1_124BpHwSupplicantStaNetworkD0Ev"
    },
    {
     "kind":"vcall_offset"
    },
    {
     "kind":"vcall_offset",
     "component_value":-184
    },
    {
     "kind":"vcall_offset",
     "component_value":-184
    },
    {
     "kind":"vcall_offset",
     "component_value":-184
    },
    {
     "kind":"vcall_offset",
     "component_value":-200
    },
    {
     "kind":"offset_to_top",
     "component_value":-200
    },
    {
     "kind":"rtti",
     "mangled_component_name":"_ZTIN7android8hardware4wifi10supplicant4V1_124BpHwSupplicantStaNetworkE"
    },
    {
     "kind":"complete_dtor_pointer",
     "mangled_component_name":"_ZTv0_n24_N7android8hardware4wifi10supplicant4V1_124BpHwSupplicantStaNetworkD1Ev"
    },
    {
     "kind":"deleting_dtor_pointer",
     "mangled_component_name":"_ZTv0_n24_N7android8hardware4wifi10supplicant4V1_124BpHwSupplicantStaNetworkD0Ev"
    },
    {
     "mangled_component_name":"_ZTv0_n32_N7android8hardware11BpHwRefBase10onFirstRefEv"
    },
    {
     "mangled_component_name":"_ZTv0_n40_N7android8hardware11BpHwRefBase15onLastStrongRefEPKv"
    },
    {
     "mangled_component_name":"_ZTv0_n48_N7android8hardware11BpHwRefBase20onIncStrongAttemptedEjPKv"
    },
    {
     "mangled_component_name":"_ZN7android7RefBase13onLastWeakRefEPKv"
    }
   ],
   "unique_id":"_ZTSN7android8hardware4wifi10supplicant4V1_124BpHwSupplicantStaNetworkE"
  },
  {
   "vtable_components":[
    {
     "kind":"vbase_offset",
     "component_value":8
    },
    {
     "kind":"offset_to_top"
    },
    {
     "kind":"rtti",
     "mangled_component_name":"_ZTIN7android8hardware4wifi10supplicant4V1_111ISupplicantE"
    },
    {
     "mangled_component_name":"_ZNK7android8hardware4wifi10supplicant4V1_111ISupplicant8isRemoteEv"
    },
    {
     "mangled_component_name":"_ZN7android8hardware4wifi10supplicant4V1_111ISupplicant14interfaceChainENSt3__18functionIFvRKNS0_8hidl_vecINS0_11hidl_stringEEEEEE"
    },
    {
     "mangled_component_name":"_ZN7android8hardware4wifi10supplicant4V1_111ISupplicant5debugERKNS0_11hidl_handleERKNS0_8hidl_vecINS0_11hidl_stringEEE"
    },
    {
     "mangled_component_name":"_ZN7android8hardware4wifi10supplicant4V1_111ISupplicant19interfaceDescriptorENSt3__18functionIFvRKNS0_11hidl_stringEEEE"
    },
    {
     "mangled_component_name":"_ZN7android8hardware4wifi10supplicant4V1_111ISupplicant12getHashChainENSt3__18functionIFvRKNS0_8hidl_vecINS0_10hidl_arrayIhLm32EJEEEEEEEE"
    },
    {
     "mangled_component_name":"_ZN7android8hardware4wifi10supplicant4V1_111ISupplicant21setHALInstrumentationEv"
    },
    {
     "mangled_component_name":"_ZN7android8hardware4wifi10supplicant4V1_111ISupplicant11linkToDeathERKNS_2spINS0_20hidl_death_recipientEEEm"
    },
    {
     "mangled_component_name":"_ZN7android8hardware4wifi10supplicant4V1_111ISupplicant4pingEv"
    },
    {
     "mangled_component_name":"_ZN7android8hardware4wifi10supplicant4V1_111ISupplicant12getDebugInfoENSt3__18functionIFvRKNS_4hidl4base4V1_09DebugInfoEEEE"
    },
    {
     "mangled_component_name":"_ZN7android8hardware4wifi10supplicant4V1_111ISupplicant21notifySyspropsChangedEv"
    },
    {
     "mangled_component_name":"_ZN7android8hardware4wifi10supplicant4V1_111ISupplicant13unlinkToDeathERKNS_2spINS0_20hidl_death_recipientEEE"
    },
    {
     "kind":"complete_dtor_pointer",
     "mangled_component_name":"_ZN7android8hardware4wifi10supplicant4V1_111ISupplicantD1Ev"
    },
    {
     "kind":"deleting_dtor_pointer",
     "mangled_component_name":"_ZN7android8hardware4wifi10supplicant4V1_111ISupplicantD0Ev"
    },
    {
     "is_pure":true,
     "mangled_component_name":"_ZN7android8hardware4wifi10supplicant4V1_111ISupplicant12getInterfaceERKNS2_4V1_011ISupplicant9IfaceInfoENSt3__18functionIFvRKNS5_16SupplicantStatusERKNS_2spINS5_16ISupplicantIfaceEEEEEE"
    },
    {
     "is_pure":true,
     "mangled_component_name":"_ZN7android8hardware4wifi10supplicant4V1_111ISupplicant14listInterfacesENSt3__18functionIFvRKNS2_4V1_016SupplicantStatusERKNS0_8hidl_vecINS7_11ISupplicant9IfaceInfoEEEEEE"
    },
    {
     "is_pure":true,
     "mangled_component_name":"_ZN7android8hardware4wifi10supplicant4V1_111ISupplicant16registerCallbackERKNS_2spINS2_4V1_019ISupplicantCallbackEEENSt3__18functionIFvRKNS6_16SupplicantStatusEEEE"
    },
    {
     "is_pure":true,
     "mangled_component_name":"_ZN7android8hardware4wifi10supplicant4V1_111ISupplicant14setDebugParamsENS2_4V1_011ISupplicant10DebugLevelEbbNSt3__18functionIFvRKNS5_16SupplicantStatusEEEE"
    },
    {
     "is_pure":true,
     "mangled_component_name":"_ZN7android8hardware4wifi10supplicant4V1_111ISupplicant13getDebugLevelEv"
    },
    {
     "is_pure":true,
     "mangled_component_name":"_ZN7android8hardware4wifi10supplicant4V1_111ISupplicant27isDebugShowTimestampEnabledEv"
    },
    {
     "is_pure":true,
     "mangled_component_name":"_ZN7android8hardware4wifi10supplicant4V1_111ISupplicant22isDebugShowKeysEnabledEv"
    },
    {
     "is_pure":true,
     "mangled_component_name":"_ZN7android8hardware4wifi10supplicant4V1_111ISupplicant22setConcurrencyPriorityENS2_4V1_09IfaceTypeENSt3__18functionIFvRKNS5_16SupplicantStatusEEEE"
    },
    {
     "is_pure":true,
     "mangled_component_name":"_ZN7android8hardware4wifi10supplicant4V1_111ISupplicant12addInterfaceERKNS2_4V1_011ISupplicant9IfaceInfoENSt3__18functionIFvRKNS5_16SupplicantStatusERKNS_2spINS5_16ISupplicantIfaceEEEEEE"
    },
    {
     "is_pure":true,
     "mangled_component_name":"_ZN7android8hardware4wifi10supplicant4V1_111ISupplicant15removeInterfaceERKNS2_4V1_011ISupplicant9IfaceInfoENSt3__18functionIFvRKNS5_16SupplicantStatusEEEE"
    },
    {
     "is_pure":true,
     "mangled_component_name":"_ZN7android8hardware4wifi10supplicant4V1_111ISupplicant9terminateEv"
    },
    {
     "kind":"vcall_offset"
    },
    {
     "kind":"vcall_offset"
    },
    {
     "kind":"vcall_offset"
    },
    {
     "kind":"vcall_offset"
    },
    {
     "kind":"vcall_offset",
     "component_value":-8
    },
    {
     "kind":"offset_to_top",
     "component_value":-8
    },
    {
     "kind":"rtti",
     "mangled_component_name":"_ZTIN7android8hardware4wifi10supplicant4V1_111ISupplicantE"
    },
    {
     "kind":"complete_dtor_pointer",
     "mangled_component_name":"_ZTv0_n24_N7android8hardware4wifi10supplicant4V1_111ISupplicantD1Ev"
    },
    {
     "kind":"deleting_dtor_pointer",
     "mangled_component_name":"_ZTv0_n24_N7android8hardware4wifi10supplicant4V1_111ISupplicantD0Ev"
    },
    {
     "mangled_component_name":"_ZN7android7RefBase10onFirstRefEv"
    },
    {
     "mangled_component_name":"_ZN7android7RefBase15onLastStrongRefEPKv"
    },
    {
     "mangled_component_name":"_ZN7android7RefBase20onIncStrongAttemptedEjPKv"
    },
    {
     "mangled_component_name":"_ZN7android7RefBase13onLastWeakRefEPKv"
    }
   ],
   "unique_id":"_ZTSN7android8hardware4wifi10supplicant4V1_111ISupplicantE"
  },
  {
   "vtable_components":[
    {
     "kind":"vbase_offset",
     "component_value":8
    },
    {
     "kind":"offset_to_top"
    },
    {
     "kind":"rtti",
     "mangled_component_name":"_ZTIN7android8hardware4wifi10supplicant4V1_119ISupplicantStaIfaceE"
    },
    {
     "mangled_component_name":"_ZNK7android8hardware4wifi10supplicant4V1_119ISupplicantStaIface8isRemoteEv"
    },
    {
     "mangled_component_name":"_ZN7android8hardware4wifi10supplicant4V1_119ISupplicantStaIface14interfaceChainENSt3__18functionIFvRKNS0_8hidl_vecINS0_11hidl_stringEEEEEE"
    },
    {
     "mangled_component_name":"_ZN7android8hardware4wifi10supplicant4V1_119ISupplicantStaIface5debugERKNS0_11hidl_handleERKNS0_8hidl_vecINS0_11hidl_stringEEE"
    },
    {
     "mangled_component_name":"_ZN7android8hardware4wifi10supplicant4V1_119ISupplicantStaIface19interfaceDescriptorENSt3__18functionIFvRKNS0_11hidl_stringEEEE"
    },
    {
     "mangled_component_name":"_ZN7android8hardware4wifi10supplicant4V1_119ISupplicantStaIface12getHashChainENSt3__18functionIFvRKNS0_8hidl_vecINS0_10hidl_arrayIhLm32EJEEEEEEEE"
    },
    {
     "mangled_component_name":"_ZN7android8hardware4wifi10supplicant4V1_119ISupplicantStaIface21setHALInstrumentationEv"
    },
    {
     "mangled_component_name":"_ZN7android8hardware4wifi10supplicant4V1_119ISupplicantStaIface11linkToDeathERKNS_2spINS0_20hidl_death_recipientEEEm"
    },
    {
     "mangled_component_name":"_ZN7android8hardware4wifi10supplicant4V1_119ISupplicantStaIface4pingEv"
    },
    {
     "mangled_component_name":"_ZN7android8hardware4wifi10supplicant4V1_119ISupplicantStaIface12getDebugInfoENSt3__18functionIFvRKNS_4hidl4base4V1_09DebugInfoEEEE"
    },
    {
     "mangled_component_name":"_ZN7android8hardware4wifi10supplicant4V1_119ISupplicantStaIface21notifySyspropsChangedEv"
    },
    {
     "mangled_component_name":"_ZN7android8hardware4wifi10supplicant4V1_119ISupplicantStaIface13unlinkToDeathERKNS_2spINS0_20hidl_death_recipientEEE"
    },
    {
     "kind":"complete_dtor_pointer",
     "mangled_component_name":"_ZN7android8hardware4wifi10supplicant4V1_119ISupplicantStaIfaceD1Ev"
    },
    {
     "kind":"deleting_dtor_pointer",
     "mangled_component_name":"_ZN7android8hardware4wifi10supplicant4V1_119ISupplicantStaIfaceD0Ev"
    },
    {
     "is_pure":true,
     "mangled_component_name":"_ZN7android8hardware4wifi10supplicant4V1_119ISupplicantStaIface7getNameENSt3__18functionIFvRKNS2_4V1_016SupplicantStatusERKNS0_11hidl_stringEEEE"
    },
    {
     "is_pure":true,
     "mangled_component_name":"_ZN7android8hardware4wifi10supplicant4V1_119ISupplicantStaIface7getTypeENSt3__18functionIFvRKNS2_4V1_016SupplicantStatusENS7_9IfaceTypeEEEE"
    },
    {
     "is_pure":true,
     "mangled_component_name":"_ZN7android8hardware4wifi10supplicant4V1_119ISupplicantStaIface10addNetworkENSt3__18functionIFvRKNS2_4V1_016SupplicantStatusERKNS_2spINS7_18ISupplicantNetworkEEEEEE"
    },
    {
     "is_pure":true,
     "mangled_component_name":"_ZN7android8hardware4wifi10supplicant4V1_119ISupplicantStaIface13removeNetworkEjNSt3__18functionIFvRKNS2_4V1_016SupplicantStatusEEEE"
    },
    {
     "is_pure":true,
     "mangled_component_name":"_ZN7android8hardware4wifi10supplicant4V1_119ISupplicantStaIface10getNetworkEjNSt3__18functionIFvRKNS2_4V1_016SupplicantStatusERKNS_2spINS7_18ISupplicantNetworkEEEEEE"
    },
    {
     "is_pure":true,
     "mangled_component_name":"_ZN7android8hardware4wifi10supplicant4V1_119ISupplicantStaIface12listNetworksENSt3__18functionIFvRKNS2_4V1_016SupplicantStatusERKNS0_8hidl_vecIjEEEEE"
    },
    {
     "is_pure":true,
     "mangled_component_name":"_ZN7android8hardware4wifi10supplicant4V1_119ISupplicantStaIface16setWpsDeviceNameERKNS0_11hidl_stringENSt3__18functionIFvRKNS2_4V1_016SupplicantStatusEEEE"
    },
    {
     "is_pure":true,
     "mangled_component_name":"_ZN7android8hardware4wifi10supplicant4V1_119ISupplicantStaIface16setWpsDeviceTypeERKNS0_10hidl_arrayIhLm8EJEEENSt3__18functionIFvRKNS2_4V1_016SupplicantStatusEEEE"
    },
    {
     "is_pure":true,
     "mangled_component_name":"_ZN7android8hardware4wifi10supplicant4V1_119ISupplicantStaIface18setWpsManufacturerERKNS0_11hidl_stringENSt3__18functionIFvRKNS2_4V1_016SupplicantStatusEEEE"
    },
    {
     "is_pure":true,
     "mangled_component_name":"_ZN7android8hardware4wifi10supplicant4V1_119ISupplicantStaIface15setWpsModelNameERKNS0_11hidl_stringENSt3__18functionIFvRKNS2_4V1_016SupplicantStatusEEEE"
    },
    {
     "is_pure":true,
     "mangled_component_name":"_ZN7android8hardware4wifi10supplicant4V1_119ISupplicantStaIface17setWpsModelNumberERKNS0_11hidl_stringENSt3__18functionIFvRKNS2_4V1_016SupplicantStatusEEEE"
    },
    {
     "is_pure":true,
     "mangled_component_name":"_ZN7android8hardware4wifi10supplicant4V1_119ISupplicantStaIface18setWpsSerialNumberERKNS0_11hidl_stringENSt3__18functionIFvRKNS2_4V1_016SupplicantStatusEEEE"
    },
    {
     "is_pure":true,
     "mangled_component_name":"_ZN7android8hardware4wifi10supplicant4V1_119ISupplicantStaIface19setWpsConfigMethodsEtNSt3__18functionIFvRKNS2_4V1_016SupplicantStatusEEEE"
    },
    {
     "is_pure":true,
     "mangled_component_name":"_ZN7android8hardware4wifi10supplicant4V1_119ISupplicantStaIface16registerCallbackERKNS_2spINS2_4V1_027ISupplicantStaIfaceCallbackEEENSt3__18functionIFvRKNS6_16SupplicantStatusEEEE"
    },
    {
     "is_pure":true,
     "mangled_component_name":"_ZN7android8hardware4wifi10supplicant4V1_119ISupplicantStaIface11reassociateENSt3__18functionIFvRKNS2_4V1_016SupplicantStatusEEEE"
    },
    {
     "is_pure":true,
     "mangled_component_name":"_ZN7android8hardware4wifi10supplicant4V1_119ISupplicantStaIface9reconnectENSt3__18functionIFvRKNS2_4V1_016SupplicantStatusEEEE"
    },
    {
     "is_pure":true,
     "mangled_component_name":"_ZN7android8hardware4wifi10supplicant4V1_119ISupplicantStaIface10disconnectENSt3__18functionIFvRKNS2_4V1_016SupplicantStatusEEEE"
    },
    {
     "is_pure":true,
     "mangled_component_name":"_ZN7android8hardware4wifi10supplicant4V1_119ISupplicantStaIface12setPowerSaveEbNSt3__18functionIFvRKNS2_4V1_016SupplicantStatusEEEE"
    },
    {
     "is_pure":true,
     "mangled_component_name":"_ZN7android8hardware4wifi10supplicant4V1_119ISupplicantStaIface20initiateTdlsDiscoverERKNS0_10hidl_arrayIhLm6EJEEENSt3__18functionIFvRKNS2_4V1_016SupplicantStatusEEEE"
    },
    {
     "is_pure":true,
     "mangled_component_name":"_ZN7android8hardware4wifi10supplicant4V1_119ISupplicantStaIface17initiateTdlsSetupERKNS0_10hidl_arrayIhLm6EJEEENSt3__18functionIFvRKNS2_4V1_016SupplicantStatusEEEE"
    },
    {
     "is_pure":true,
     "mangled_component_name":"_ZN7android8hardware4wifi10supplicant4V1_119ISupplicantStaIface20initiateTdlsTeardownERKNS0_10hidl_arrayIhLm6EJEEENSt3__18functionIFvRKNS2_4V1_016SupplicantStatusEEEE"
    },
    {
     "is_pure":true,
     "mangled_component_name":"_ZN7android8hardware4wifi10supplicant4V1_119ISupplicantStaIface17initiateAnqpQueryERKNS0_10hidl_arrayIhLm6EJEEERKNS0_8hidl_vecINS2_4V1_019ISupplicantStaIface10AnqpInfoIdEEERKNS9_INSB_16Hs20AnqpSubtypesEEENSt3__18functionIFvRKNSA_16SupplicantStatusEEEE"
    },
    {
     "is_pure":true,
     "mangled_component_name":"_ZN7android8hardware4wifi10supplicant4V1_119ISupplicantStaIface21initiateHs20IconQueryERKNS0_10hidl_arrayIhLm6EJEEERKNS0_11hidl_stringENSt3__18functionIFvRKNS2_4V1_016SupplicantStatusEEEE"
    },
    {
     "is_pure":true,
     "mangled_component_name":"_ZN7android8hardware4wifi10supplicant4V1_119ISupplicantStaIface13getMacAddressENSt3__18functionIFvRKNS2_4V1_016SupplicantStatusERKNS0_10hidl_arrayIhLm6EJEEEEEE"
    },
    {
     "is_pure":true,
     "mangled_component_name":"_ZN7android8hardware4wifi10supplicant4V1_119ISupplicantStaIface13startRxFilterENSt3__18functionIFvRKNS2_4V1_016SupplicantStatusEEEE"
    },
    {
     "is_pure":true,
     "mangled_component_name":"_ZN7android8hardware4wifi10supplicant4V1_119ISupplicantStaIface12stopRxFilterENSt3__18functionIFvRKNS2_4V1_016SupplicantStatusEEEE"
    },
    {
     "is_pure":true,
     "mangled_component_name":"_ZN7android8hardware4wifi10supplicant4V1_119ISupplicantStaIface11addRxFilterENS2_4V1_019ISupplicantStaIface12RxFilterTypeENSt3__18functionIFvRKNS5_16SupplicantStatusEEEE"
    },
    {
     "is_pure":true,
     "mangled_component_name":"_ZN7android8hardware4wifi10supplicant4V1_119ISupplicantStaIface14removeRxFilterENS2_4V1_019ISupplicantStaIface12RxFilterTypeENSt3__18functionIFvRKNS5_16SupplicantStatusEEEE"
    },
    {
     "is_pure":true,
     "mangled_component_name":"_ZN7android8hardware4wifi10supplicant4V1_119ISupplicantStaIface20setBtCoexistenceModeENS2_4V1_019ISupplicantStaIface17BtCoexistenceModeENSt3__18functionIFvRKNS5_16SupplicantStatusEEEE"
    },
    {
     "is_pure":true,
     "mangled_component_name":"_ZN7android8hardware4wifi10supplicant4V1_119ISupplicantStaIface31setBtCoexistenceScanModeEnabledEbNSt3__18functionIFvRKNS2_4V1_016SupplicantStatusEEEE"
    },
    {
     "is_pure":true,
     "mangled_component_name":"_ZN7android8hardware4wifi10supplicant4V1_119ISupplicantStaIface21setSuspendModeEnabledEbNSt3__18functionIFvRKNS2_4V1_016SupplicantStatusEEEE"
    },
    {
     "is_pure":true,
     "mangled_component_name":"_ZN7android8hardware4wifi10supplicant4V1_119ISupplicantStaIface14setCountryCodeERKNS0_10hidl_arrayIaLm2EJEEENSt3__18functionIFvRKNS2_4V1_016SupplicantStatusEEEE"
    },
    {
     "is_pure":true,
     "mangled_component_name":"_ZN7android8hardware4wifi10supplicant4V1_119ISupplicantStaIface17startWpsRegistrarERKNS0_10hidl_arrayIhLm6EJEEERKNS0_11hidl_stringENSt3__18functionIFvRKNS2_4V1_016SupplicantStatusEEEE"
    },
    {
     "is_pure":true,
     "mangled_component_name":"_ZN7android8hardware4wifi10supplicant4V1_119ISupplicantStaIface11startWpsPbcERKNS0_10hidl_arrayIhLm6EJEEENSt3__18functionIFvRKNS2_4V1_016SupplicantStatusEEEE"
    },
    {
     "is_pure":true,
     "mangled_component_name":"_ZN7android8hardware4wifi10supplicant4V1_119ISupplicantStaIface17startWpsPinKeypadERKNS0_11hidl_stringENSt3__18functionIFvRKNS2_4V1_016SupplicantStatusEEEE"
    },
    {
     "is_pure":true,
     "mangled_component_name":"_ZN7android8hardware4wifi10supplicant4V1_119ISupplicantStaIface18startWpsPinDisplayERKNS0_10hidl_arrayIhLm6EJEEENSt3__18functionIFvRKNS2_4V1_016SupplicantStatusERKNS0_11hidl_stringEEEE"
    },
    {
     "is_pure":true,
     "mangled_component_name":"_ZN7android8hardware4wifi10supplicant4V1_119ISupplicantStaIface9cancelWpsENSt3__18functionIFvRKNS2_4V1_016SupplicantStatusEEEE"
    },
    {
     "is_pure":true,
     "mangled_component_name":"_ZN7android8hardware4wifi10supplicant4V1_119ISupplicantStaIface14setExternalSimEbNSt3__18functionIFvRKNS2_4V1_016SupplicantStatusEEEE"
    },
    {
     "is_pure":true,
     "mangled_component_name":"_ZN7android8hardware4wifi10supplicant4V1_119ISupplicantStaIface15addExtRadioWorkERKNS0_11hidl_stringEjjNSt3__18functionIFvRKNS2_4V1_016SupplicantStatusEjEEE"
    },
    {
     "is_pure":true,
     "mangled_component_name":"_ZN7android8hardware4wifi10supplicant4V1_119ISupplicantStaIface18removeExtRadioWorkEjNSt3__18functionIFvRKNS2_4V1_016SupplicantStatusEEEE"
    },
    {
     "is_pure":true,
     "mangled_component_name":"_ZN7android8hardware4wifi10supplicant4V1_119ISupplicantStaIface19enableAutoReconnectEbNSt3__18functionIFvRKNS2_4V1_016SupplicantStatusEEEE"
    },
    {
     "is_pure":true,
     "mangled_component_name":"_ZN7android8hardware4wifi10supplicant4V1_119ISupplicantStaIface20registerCallback_1_1ERKNS_2spINS3_27ISupplicantStaIfaceCallbackEEENSt3__18functionIFvRKNS2_4V1_016SupplicantStatusEEEE"
    },
    {
     "kind":"vcall_offset"
    },
    {
     "kind":"vcall_offset"
    },
    {
     "kind":"vcall_offset"
    },
    {
     "kind":"vcall_offset"
    },
    {
     "kind":"vcall_offset",
     "component_value":-8
    },
    {
     "kind":"offset_to_top",
     "component_value":-8
    },
    {
     "kind":"rtti",
     "mangled_component_name":"_ZTIN7android8hardware4wifi10supplicant4V1_119ISupplicantStaIfaceE"
    },
    {
     "kind":"complete_dtor_pointer",
     "mangled_component_name":"_ZTv0_n24_N7android8hardware4wifi10supplicant4V1_119ISupplicantStaIfaceD1Ev"
    },
    {
     "kind":"deleting_dtor_pointer",
     "mangled_component_name":"_ZTv0_n24_N7android8hardware4wifi10supplicant4V1_119ISupplicantStaIfaceD0Ev"
    },
    {
     "mangled_component_name":"_ZN7android7RefBase10onFirstRefEv"
    },
    {
     "mangled_component_name":"_ZN7android7RefBase15onLastStrongRefEPKv"
    },
    {
     "mangled_component_name":"_ZN7android7RefBase20onIncStrongAttemptedEjPKv"
    },
    {
     "mangled_component_name":"_ZN7android7RefBase13onLastWeakRefEPKv"
    }
   ],
   "unique_id":"_ZTSN7android8hardware4wifi10supplicant4V1_119ISupplicantStaIfaceE"
  },
  {
   "vtable_components":[
    {
     "kind":"vbase_offset",
     "component_value":136
    },
    {
     "kind":"offset_to_top"
    },
    {
     "kind":"rtti",
     "mangled_component_name":"_ZTIN7android8hardware4wifi10supplicant4V1_114BnHwSupplicantE"
    },
    {
     "mangled_component_name":"_ZN7android8hardware9BHwBinder8transactEjRKNS0_6ParcelEPS2_jNSt3__18functionIFvRS2_EEE"
    },
    {
     "mangled_component_name":"_ZN7android8hardware9BHwBinder11linkToDeathERKNS_2spINS0_7IBinder14DeathRecipientEEEPvj"
    },
    {
     "mangled_component_name":"_ZN7android8hardware9BHwBinder13unlinkToDeathERKNS_2wpINS0_7IBinder14DeathRecipientEEEPvjPS5_"
    },
    {
     "mangled_component_name":"_ZNK7android8hardware7IBinder13checkSubclassEPKv"
    },
    {
     "mangled_component_name":"_ZN7android8hardware9BHwBinder12attachObjectEPKvPvS4_PFvS3_S4_S4_E"
    },
    {
     "mangled_component_name":"_ZNK7android8hardware9BHwBinder10findObjectEPKv"
    },
    {
     "mangled_component_name":"_ZN7android8hardware9BHwBinder12detachObjectEPKv"
    },
    {
     "mangled_component_name":"_ZN7android8hardware9BHwBinder11localBinderEv"
    },
    {
     "mangled_component_name":"_ZN7android8hardware7IBinder12remoteBinderEv"
    },
    {
     "kind":"complete_dtor_pointer",
     "mangled_component_name":"_ZN7android8hardware4wifi10supplicant4V1_114BnHwSupplicantD1Ev"
    },
    {
     "kind":"deleting_dtor_pointer",
     "mangled_component_name":"_ZN7android8hardware4wifi10supplicant4V1_114BnHwSupplicantD0Ev"
    },
    {
     "mangled_component_name":"_ZN7android8hardware4wifi10supplicant4V1_114BnHwSupplicant10onTransactEjRKNS0_6ParcelEPS5_jNSt3__18functionIFvRS5_EEE"
    },
    {
     "kind":"offset_to_top",
     "component_value":-32
    },
    {
     "kind":"rtti",
     "mangled_component_name":"_ZTIN7android8hardware4wifi10supplicant4V1_114BnHwSupplicantE"
    },
    {
     "kind":"complete_dtor_pointer",
     "mangled_component_name":"_ZThn32_N7android8hardware4wifi10supplicant4V1_114BnHwSupplicantD1Ev"
    },
    {
     "kind":"deleting_dtor_pointer",
     "mangled_component_name":"_ZThn32_N7android8hardware4wifi10supplicant4V1_114BnHwSupplicantD0Ev"
    },
    {
     "kind":"vcall_offset"
    },
    {
     "kind":"vcall_offset"
    },
    {
     "kind":"vcall_offset"
    },
    {
     "kind":"vcall_offset"
    },
    {
     "kind":"vcall_offset",
     "component_value":-136
    },
    {
     "kind":"offset_to_top",
     "component_value":-136
    },
    {
     "kind":"rtti",
     "mangled_component_name":"_ZTIN7android8hardware4wifi10supplicant4V1_114BnHwSupplicantE"
    },
    {
     "kind":"complete_dtor_pointer",
     "mangled_component_name":"_ZTv0_n24_N7android8hardware4wifi10supplicant4V1_114BnHwSupplicantD1Ev"
    },
    {
     "kind":"deleting_dtor_pointer",
     "mangled_component_name":"_ZTv0_n24_N7android8hardware4wifi10supplicant4V1_114BnHwSupplicantD0Ev"
    },
    {
     "mangled_component_name":"_ZN7android7RefBase10onFirstRefEv"
    },
    {
     "mangled_component_name":"_ZN7android7RefBase15onLastStrongRefEPKv"
    },
    {
     "mangled_component_name":"_ZN7android7RefBase20onIncStrongAttemptedEjPKv"
    },
    {
     "mangled_component_name":"_ZN7android7RefBase13onLastWeakRefEPKv"
    }
   ],
   "unique_id":"_ZTSN7android8hardware4wifi10supplicant4V1_114BnHwSupplicantE"
  },
  {
   "vtable_components":[
    {
     "kind":"vbase_offset",
     "component_value":136
    },
    {
     "kind":"offset_to_top"
    },
    {
     "kind":"rtti",
     "mangled_component_name":"_ZTIN7android8hardware4wifi10supplicant4V1_130BnHwSupplicantStaIfaceCallbackE"
    },
    {
     "mangled_component_name":"_ZN7android8hardware9BHwBinder8transactEjRKNS0_6ParcelEPS2_jNSt3__18functionIFvRS2_EEE"
    },
    {
     "mangled_component_name":"_ZN7android8hardware9BHwBinder11linkToDeathERKNS_2spINS0_7IBinder14DeathRecipientEEEPvj"
    },
    {
     "mangled_component_name":"_ZN7android8hardware9BHwBinder13unlinkToDeathERKNS_2wpINS0_7IBinder14DeathRecipientEEEPvjPS5_"
    },
    {
     "mangled_component_name":"_ZNK7android8hardware7IBinder13checkSubclassEPKv"
    },
    {
     "mangled_component_name":"_ZN7android8hardware9BHwBinder12attachObjectEPKvPvS4_PFvS3_S4_S4_E"
    },
    {
     "mangled_component_name":"_ZNK7android8hardware9BHwBinder10findObjectEPKv"
    },
    {
     "mangled_component_name":"_ZN7android8hardware9BHwBinder12detachObjectEPKv"
    },
    {
     "mangled_component_name":"_ZN7android8hardware9BHwBinder11localBinderEv"
    },
    {
     "mangled_component_name":"_ZN7android8hardware7IBinder12remoteBinderEv"
    },
    {
     "kind":"complete_dtor_pointer",
     "mangled_component_name":"_ZN7android8hardware4wifi10supplicant4V1_130BnHwSupplicantStaIfaceCallbackD1Ev"
    },
    {
     "kind":"deleting_dtor_pointer",
     "mangled_component_name":"_ZN7android8hardware4wifi10supplicant4V1_130BnHwSupplicantStaIfaceCallbackD0Ev"
    },
    {
     "mangled_component_name":"_ZN7android8hardware4wifi10supplicant4V1_130BnHwSupplicantStaIfaceCallback10onTransactEjRKNS0_6ParcelEPS5_jNSt3__18functionIFvRS5_EEE"
    },
    {
     "kind":"offset_to_top",
     "component_value":-32
    },
    {
     "kind":"rtti",
     "mangled_component_name":"_ZTIN7android8hardware4wifi10supplicant4V1_130BnHwSupplicantStaIfaceCallbackE"
    },
    {
     "kind":"complete_dtor_pointer",
     "mangled_component_name":"_ZThn32_N7android8hardware4wifi10supplicant4V1_130BnHwSupplicantStaIfaceCallbackD1Ev"
    },
    {
     "kind":"deleting_dtor_pointer",
     "mangled_component_name":"_ZThn32_N7android8hardware4wifi10supplicant4V1_130BnHwSupplicantStaIfaceCallbackD0Ev"
    },
    {
     "kind":"vcall_offset"
    },
    {
     "kind":"vcall_offset"
    },
    {
     "kind":"vcall_offset"
    },
    {
     "kind":"vcall_offset"
    },
    {
     "kind":"vcall_offset",
     "component_value":-136
    },
    {
     "kind":"offset_to_top",
     "component_value":-136
    },
    {
     "kind":"rtti",
     "mangled_component_name":"_ZTIN7android8hardware4wifi10supplicant4V1_130BnHwSupplicantStaIfaceCallbackE"
    },
    {
     "kind":"complete_dtor_pointer",
     "mangled_component_name":"_ZTv0_n24_N7android8hardware4wifi10supplicant4V1_130BnHwSupplicantStaIfaceCallbackD1Ev"
    },
    {
     "kind":"deleting_dtor_pointer",
     "mangled_component_name":"_ZTv0_n24_N7android8hardware4wifi10supplicant4V1_130BnHwSupplicantStaIfaceCallbackD0Ev"
    },
    {
     "mangled_component_name":"_ZN7android7RefBase10onFirstRefEv"
    },
    {
     "mangled_component_name":"_ZN7android7RefBase15onLastStrongRefEPKv"
    },
    {
     "mangled_component_name":"_ZN7android7RefBase20onIncStrongAttemptedEjPKv"
    },
    {
     "mangled_component_name":"_ZN7android7RefBase13onLastWeakRefEPKv"
    }
   ],
   "unique_id":"_ZTSN7android8hardware4wifi10supplicant4V1_130BnHwSupplicantStaIfaceCallbackE"
  },
  {
   "vtable_components":[
    {
     "kind":"vbase_offset",
     "component_value":8
    },
    {
     "kind":"offset_to_top"
    },
    {
     "kind":"rtti",
     "mangled_component_name":"_ZTIN7android8hardware4wifi10supplicant4V1_127ISupplicantStaIfaceCallbackE"
    },
    {
     "mangled_component_name":"_ZNK7android8hardware4wifi10supplicant4V1_127ISupplicantStaIfaceCallback8isRemoteEv"
    },
    {
     "mangled_component_name":"_ZN7android8hardware4wifi10supplicant4V1_127ISupplicantStaIfaceCallback14interfaceChainENSt3__18functionIFvRKNS0_8hidl_vecINS0_11hidl_stringEEEEEE"
    },
    {
     "mangled_component_name":"_ZN7android8hardware4wifi10supplicant4V1_127ISupplicantStaIfaceCallback5debugERKNS0_11hidl_handleERKNS0_8hidl_vecINS0_11hidl_stringEEE"
    },
    {
     "mangled_component_name":"_ZN7android8hardware4wifi10supplicant4V1_127ISupplicantStaIfaceCallback19interfaceDescriptorENSt3__18functionIFvRKNS0_11hidl_stringEEEE"
    },
    {
     "mangled_component_name":"_ZN7android8hardware4wifi10supplicant4V1_127ISupplicantStaIfaceCallback12getHashChainENSt3__18functionIFvRKNS0_8hidl_vecINS0_10hidl_arrayIhLm32EJEEEEEEEE"
    },
    {
     "mangled_component_name":"_ZN7android8hardware4wifi10supplicant4V1_127ISupplicantStaIfaceCallback21setHALInstrumentationEv"
    },
    {
     "mangled_component_name":"_ZN7android8hardware4wifi10supplicant4V1_127ISupplicantStaIfaceCallback11linkToDeathERKNS_2spINS0_20hidl_death_recipientEEEm"
    },
    {
     "mangled_component_name":"_ZN7android8hardware4wifi10supplicant4V1_127ISupplicantStaIfaceCallback4pingEv"
    },
    {
     "mangled_component_name":"_ZN7android8hardware4wifi10supplicant4V1_127ISupplicantStaIfaceCallback12getDebugInfoENSt3__18functionIFvRKNS_4hidl4base4V1_09DebugInfoEEEE"
    },
    {
     "mangled_component_name":"_ZN7android8hardware4wifi10supplicant4V1_127ISupplicantStaIfaceCallback21notifySyspropsChangedEv"
    },
    {
     "mangled_component_name":"_ZN7android8hardware4wifi10supplicant4V1_127ISupplicantStaIfaceCallback13unlinkToDeathERKNS_2spINS0_20hidl_death_recipientEEE"
    },
    {
     "kind":"complete_dtor_pointer",
     "mangled_component_name":"_ZN7android8hardware4wifi10supplicant4V1_127ISupplicantStaIfaceCallbackD1Ev"
    },
    {
     "kind":"deleting_dtor_pointer",
     "mangled_component_name":"_ZN7android8hardware4wifi10supplicant4V1_127ISupplicantStaIfaceCallbackD0Ev"
    },
    {
     "is_pure":true,
     "mangled_component_name":"_ZN7android8hardware4wifi10supplicant4V1_127ISupplicantStaIfaceCallback14onNetworkAddedEj"
    },
    {
     "is_pure":true,
     "mangled_component_name":"_ZN7android8hardware4wifi10supplicant4V1_127ISupplicantStaIfaceCallback16onNetworkRemovedEj"
    },
    {
     "is_pure":true,
     "mangled_component_name":"_ZN7android8hardware4wifi10supplicant4V1_127ISupplicantStaIfaceCallback14onStateChangedENS2_4V1_027ISupplicantStaIfaceCallback5StateERKNS0_10hidl_arrayIhLm6EJEEEjRKNS0_8hidl_vecIhEE"
    },
    {
     "is_pure":true,
     "mangled_component_name":"_ZN7android8hardware4wifi10supplicant4V1_127ISupplicantStaIfaceCallback15onAnqpQueryDoneERKNS0_10hidl_arrayIhLm6EJEEERKNS2_4V1_027ISupplicantStaIfaceCallback8AnqpDataERKNSA_12Hs20AnqpDataE"
    },
    {
     "is_pure":true,
     "mangled_component_name":"_ZN7android8hardware4wifi10supplicant4V1_127ISupplicantStaIfaceCallback19onHs20IconQueryDoneERKNS0_10hidl_arrayIhLm6EJEEERKNS0_11hidl_stringERKNS0_8hidl_vecIhEE"
    },
    {
     "is_pure":true,
     "mangled_component_name":"_ZN7android8hardware4wifi10supplicant4V1_127ISupplicantStaIfaceCallback29onHs20SubscriptionRemediationERKNS0_10hidl_arrayIhLm6EJEEENS2_4V1_027ISupplicantStaIfaceCallback9OsuMethodERKNS0_11hidl_stringE"
    },
    {
     "is_pure":true,
     "mangled_component_name":"_ZN7android8hardware4wifi10supplicant4V1_127ISupplicantStaIfaceCallback26onHs20DeauthImminentNoticeERKNS0_10hidl_arrayIhLm6EJEEEjjRKNS0_11hidl_stringE"
    },
    {
     "is_pure":true,
     "mangled_component_name":"_ZN7android8hardware4wifi10supplicant4V1_127ISupplicantStaIfaceCallback14onDisconnectedERKNS0_10hidl_arrayIhLm6EJEEEbNS2_4V1_027ISupplicantStaIfaceCallback10ReasonCodeE"
    },
    {
     "is_pure":true,
     "mangled_component_name":"_ZN7android8hardware4wifi10supplicant4V1_127ISupplicantStaIfaceCallback21onAssociationRejectedERKNS0_10hidl_arrayIhLm6EJEEENS2_4V1_027ISupplicantStaIfaceCallback10StatusCodeEb"
    },
    {
     "is_pure":true,
     "mangled_component_name":"_ZN7android8hardware4wifi10supplicant4V1_127ISupplicantStaIfaceCallback23onAuthenticationTimeoutERKNS0_10hidl_arrayIhLm6EJEEE"
    },
    {
     "is_pure":true,
     "mangled_component_name":"_ZN7android8hardware4wifi10supplicant4V1_127ISupplicantStaIfaceCallback12onEapFailureEv"
    },
    {
     "is_pure":true,
     "mangled_component_name":"_ZN7android8hardware4wifi10supplicant4V1_127ISupplicantStaIfaceCallback14onBssidChangedENS2_4V1_027ISupplicantStaIfaceCallback17BssidChangeReasonERKNS0_10hidl_arrayIhLm6EJEEE"
    },
    {
     "is_pure":true,
     "mangled_component_name":"_ZN7android8hardware4wifi10supplicant4V1_127ISupplicantStaIfaceCallback17onWpsEventSuccessEv"
    },
    {
     "is_pure":true,
     "mangled_component_name":"_ZN7android8hardware4wifi10supplicant4V1_127ISupplicantStaIfaceCallback14onWpsEventFailERKNS0_10hidl_arrayIhLm6EJEEENS2_4V1_027ISupplicantStaIfaceCallback14WpsConfigErrorENSA_18WpsErrorIndicationE"
    },
    {
     "is_pure":true,
     "mangled_component_name":"_ZN7android8hardware4wifi10supplicant4V1_127ISupplicantStaIfaceCallback20onWpsEventPbcOverlapEv"
    },
    {
     "is_pure":true,
     "mangled_component_name":"_ZN7android8hardware4wifi10supplicant4V1_127ISupplicantStaIfaceCallback19onExtRadioWorkStartEj"
    },
    {
     "is_pure":true,
     "mangled_component_name":"_ZN7android8hardware4wifi10supplicant4V1_127ISupplicantStaIfaceCallback21onExtRadioWorkTimeoutEj"
    },
    {
     "is_pure":true,
     "mangled_component_name":"_ZN7android8hardware4wifi10supplicant4V1_127ISupplicantStaIfaceCallback16onEapFailure_1_1ENS4_12EapErrorCodeE"
    },
    {
     "kind":"vcall_offset"
    },
    {
     "kind":"vcall_offset"
    },
    {
     "kind":"vcall_offset"
    },
    {
     "kind":"vcall_offset"
    },
    {
     "kind":"vcall_offset",
     "component_value":-8
    },
    {
     "kind":"offset_to_top",
     "component_value":-8
    },
    {
     "kind":"rtti",
     "mangled_component_name":"_ZTIN7android8hardware4wifi10supplicant4V1_127ISupplicantStaIfaceCallbackE"
    },
    {
     "kind":"complete_dtor_pointer",
     "mangled_component_name":"_ZTv0_n24_N7android8hardware4wifi10supplicant4V1_127ISupplicantStaIfaceCallbackD1Ev"
    },
    {
     "kind":"deleting_dtor_pointer",
     "mangled_component_name":"_ZTv0_n24_N7android8hardware4wifi10supplicant4V1_127ISupplicantStaIfaceCallbackD0Ev"
    },
    {
     "mangled_component_name":"_ZN7android7RefBase10onFirstRefEv"
    },
    {
     "mangled_component_name":"_ZN7android7RefBase15onLastStrongRefEPKv"
    },
    {
     "mangled_component_name":"_ZN7android7RefBase20onIncStrongAttemptedEjPKv"
    },
    {
     "mangled_component_name":"_ZN7android7RefBase13onLastWeakRefEPKv"
    }
   ],
   "unique_id":"_ZTSN7android8hardware4wifi10supplicant4V1_127ISupplicantStaIfaceCallbackE"
  }
 ],
 "elf_functions":[
  {
   "binding":"weak",
   "name":"_ZN7android8hardware10fromBinderINS0_4wifi10supplicant4V1_016ISupplicantIfaceENS4_19BpHwSupplicantIfaceENS4_19BnHwSupplicantIfaceEEENS_2spIT_EERKNS8_INS0_7IBinderEEE"
  },
  {
   "binding":"weak",
   "name":"_ZN7android8hardware10fromBinderINS0_4wifi10supplicant4V1_127ISupplicantStaIfaceCallbackENS4_30BpHwSupplicantStaIfaceCallbackENS4_30BnHwSupplicantStaIfaceCallbackEEENS_2spIT_EERKNS8_INS0_7IBinderEEE"
  },
  {
   "name":"_ZN7android8hardware4wifi10supplicant4V1_111ISupplicant10getServiceERKNSt3__112basic_stringIcNS5_11char_traitsIcEENS5_9allocatorIcEEEEb"
  },
  {
   "name":"_ZN7android8hardware4wifi10supplicant4V1_111ISupplicant11linkToDeathERKNS_2spINS0_20hidl_death_recipientEEEm"
  },
  {
   "name":"_ZN7android8hardware4wifi10supplicant4V1_111ISupplicant12getDebugInfoENSt3__18functionIFvRKNS_4hidl4base4V1_09DebugInfoEEEE"
  },
  {
   "name":"_ZN7android8hardware4wifi10supplicant4V1_111ISupplicant12getHashChainENSt3__18functionIFvRKNS0_8hidl_vecINS0_10hidl_arrayIhLm32EJEEEEEEEE"
  },
  {
   "name":"_ZN7android8hardware4wifi10supplicant4V1_111ISupplicant13tryGetServiceERKNSt3__112basic_stringIcNS5_11char_traitsIcEENS5_9allocatorIcEEEEb"
  },
  {
   "name":"_ZN7android8hardware4wifi10supplicant4V1_111ISupplicant13unlinkToDeathERKNS_2spINS0_20hidl_death_recipientEEE"
  },
  {
   "name":"_ZN7android8hardware4wifi10supplicant4V1_111ISupplicant14interfaceChainENSt3__18functionIFvRKNS0_8hidl_vecINS0_11hidl_stringEEEEEE"
  },
  {
   "name":"_ZN7android8hardware4wifi10supplicant4V1_111ISupplicant17registerAsServiceERKNSt3__112basic_stringIcNS5_11char_traitsIcEENS5_9allocatorIcEEEE"
  },
  {
   "name":"_ZN7android8hardware4wifi10supplicant4V1_111ISupplicant19interfaceDescriptorENSt3__18functionIFvRKNS0_11hidl_stringEEEE"
  },
  {
   "name":"_ZN7android8hardware4wifi10supplicant4V1_111ISupplicant21notifySyspropsChangedEv"
  },
  {
   "name":"_ZN7android8hardware4wifi10supplicant4V1_111ISupplicant21setHALInstrumentationEv"
  },
  {
   "name":"_ZN7android8hardware4wifi10supplicant4V1_111ISupplicant24registerForNotificationsERKNSt3__112basic_stringIcNS5_11char_traitsIcEENS5_9allocatorIcEEEERKNS_2spINS_4hidl7manager4V1_020IServiceNotificationEEE"
  },
  {
   "name":"_ZN7android8hardware4wifi10supplicant4V1_111ISupplicant4pingEv"
  },
  {
   "name":"_ZN7android8hardware4wifi10supplicant4V1_111ISupplicant5debugERKNS0_11hidl_handleERKNS0_8hidl_vecINS0_11hidl_stringEEE"
  },
  {
   "name":"_ZN7android8hardware4wifi10supplicant4V1_111ISupplicant8castFromERKNS_2spINS2_4V1_011ISupplicantEEEb"
  },
  {
   "name":"_ZN7android8hardware4wifi10supplicant4V1_111ISupplicant8castFromERKNS_2spINS_4hidl4base4V1_05IBaseEEEb"
  },
  {
   "name":"_ZN7android8hardware4wifi10supplicant4V1_111ISupplicant8castFromERKNS_2spIS4_EEb"
  },
  {
   "name":"_ZN7android8hardware4wifi10supplicant4V1_112BsSupplicant13addOnewayTaskENSt3__18functionIFvvEEE"
  },
  {
   "name":"_ZN7android8hardware4wifi10supplicant4V1_112BsSupplicantC1ENS_2spINS3_11ISupplicantEEE"
  },
  {
   "name":"_ZN7android8hardware4wifi10supplicant4V1_112BsSupplicantC2ENS_2spINS3_11ISupplicantEEE"
  },
  {
   "name":"_ZN7android8hardware4wifi10supplicant4V1_114BnHwSupplicant10onTransactEjRKNS0_6ParcelEPS5_jNSt3__18functionIFvRS5_EEE"
  },
  {
   "name":"_ZN7android8hardware4wifi10supplicant4V1_114BnHwSupplicant12getDebugInfoENSt3__18functionIFvRKNS_4hidl4base4V1_09DebugInfoEEEE"
  },
  {
   "name":"_ZN7android8hardware4wifi10supplicant4V1_114BnHwSupplicant15_hidl_terminateEPNS_4hidl4base4V1_08BnHwBaseERKNS0_6ParcelEPSA_NSt3__18functionIFvRSA_EEE"
  },
  {
   "name":"_ZN7android8hardware4wifi10supplicant4V1_114BnHwSupplicant18_hidl_addInterfaceEPNS_4hidl4base4V1_08BnHwBaseERKNS0_6ParcelEPSA_NSt3__18functionIFvRSA_EEE"
  },
  {
   "name":"_ZN7android8hardware4wifi10supplicant4V1_114BnHwSupplicant21_hidl_removeInterfaceEPNS_4hidl4base4V1_08BnHwBaseERKNS0_6ParcelEPSA_NSt3__18functionIFvRSA_EEE"
  },
  {
   "name":"_ZN7android8hardware4wifi10supplicant4V1_114BnHwSupplicant4pingEv"
  },
  {
   "name":"_ZN7android8hardware4wifi10supplicant4V1_114BnHwSupplicantC1ERKNS_2spINS3_11ISupplicantEEE"
  },
  {
   "name":"_ZN7android8hardware4wifi10supplicant4V1_114BnHwSupplicantC2ERKNS_2spINS3_11ISupplicantEEE"
  },
  {
   "name":"_ZN7android8hardware4wifi10supplicant4V1_114BnHwSupplicantD0Ev"
  },
  {
   "name":"_ZN7android8hardware4wifi10supplicant4V1_114BnHwSupplicantD1Ev"
  },
  {
   "name":"_ZN7android8hardware4wifi10supplicant4V1_114BnHwSupplicantD2Ev"
  },
  {
   "name":"_ZN7android8hardware4wifi10supplicant4V1_114BpHwSupplicant11linkToDeathERKNS_2spINS0_20hidl_death_recipientEEEm"
  },
  {
   "name":"_ZN7android8hardware4wifi10supplicant4V1_114BpHwSupplicant12addInterfaceERKNS2_4V1_011ISupplicant9IfaceInfoENSt3__18functionIFvRKNS5_16SupplicantStatusERKNS_2spINS5_16ISupplicantIfaceEEEEEE"
  },
  {
   "name":"_ZN7android8hardware4wifi10supplicant4V1_114BpHwSupplicant12getDebugInfoENSt3__18functionIFvRKNS_4hidl4base4V1_09DebugInfoEEEE"
  },
  {
   "name":"_ZN7android8hardware4wifi10supplicant4V1_114BpHwSupplicant12getHashChainENSt3__18functionIFvRKNS0_8hidl_vecINS0_10hidl_arrayIhLm32EJEEEEEEEE"
  },
  {
   "name":"_ZN7android8hardware4wifi10supplicant4V1_114BpHwSupplicant12getInterfaceERKNS2_4V1_011ISupplicant9IfaceInfoENSt3__18functionIFvRKNS5_16SupplicantStatusERKNS_2spINS5_16ISupplicantIfaceEEEEEE"
  },
  {
   "name":"_ZN7android8hardware4wifi10supplicant4V1_114BpHwSupplicant13getDebugLevelEv"
  },
  {
   "name":"_ZN7android8hardware4wifi10supplicant4V1_114BpHwSupplicant13unlinkToDeathERKNS_2spINS0_20hidl_death_recipientEEE"
  },
  {
   "name":"_ZN7android8hardware4wifi10supplicant4V1_114BpHwSupplicant14interfaceChainENSt3__18functionIFvRKNS0_8hidl_vecINS0_11hidl_stringEEEEEE"
  },
  {
   "name":"_ZN7android8hardware4wifi10supplicant4V1_114BpHwSupplicant14listInterfacesENSt3__18functionIFvRKNS2_4V1_016SupplicantStatusERKNS0_8hidl_vecINS7_11ISupplicant9IfaceInfoEEEEEE"
  },
  {
   "name":"_ZN7android8hardware4wifi10supplicant4V1_114BpHwSupplicant14setDebugParamsENS2_4V1_011ISupplicant10DebugLevelEbbNSt3__18functionIFvRKNS5_16SupplicantStatusEEEE"
  },
  {
   "name":"_ZN7android8hardware4wifi10supplicant4V1_114BpHwSupplicant15_hidl_terminateEPNS0_10IInterfaceEPNS0_7details16HidlInstrumentorE"
  },
  {
   "name":"_ZN7android8hardware4wifi10supplicant4V1_114BpHwSupplicant15removeInterfaceERKNS2_4V1_011ISupplicant9IfaceInfoENSt3__18functionIFvRKNS5_16SupplicantStatusEEEE"
  },
  {
   "name":"_ZN7android8hardware4wifi10supplicant4V1_114BpHwSupplicant16registerCallbackERKNS_2spINS2_4V1_019ISupplicantCallbackEEENSt3__18functionIFvRKNS6_16SupplicantStatusEEEE"
  },
  {
   "name":"_ZN7android8hardware4wifi10supplicant4V1_114BpHwSupplicant18_hidl_addInterfaceEPNS0_10IInterfaceEPNS0_7details16HidlInstrumentorERKNS2_4V1_011ISupplicant9IfaceInfoENSt3__18functionIFvRKNSA_16SupplicantStatusERKNS_2spINSA_16ISupplicantIfaceEEEEEE"
  },
  {
   "name":"_ZN7android8hardware4wifi10supplicant4V1_114BpHwSupplicant19interfaceDescriptorENSt3__18functionIFvRKNS0_11hidl_stringEEEE"
  },
  {
   "name":"_ZN7android8hardware4wifi10supplicant4V1_114BpHwSupplicant21_hidl_removeInterfaceEPNS0_10IInterfaceEPNS0_7details16HidlInstrumentorERKNS2_4V1_011ISupplicant9IfaceInfoENSt3__18functionIFvRKNSA_16SupplicantStatusEEEE"
  },
  {
   "name":"_ZN7android8hardware4wifi10supplicant4V1_114BpHwSupplicant21notifySyspropsChangedEv"
  },
  {
   "name":"_ZN7android8hardware4wifi10supplicant4V1_114BpHwSupplicant21setHALInstrumentationEv"
  },
  {
   "name":"_ZN7android8hardware4wifi10supplicant4V1_114BpHwSupplicant22isDebugShowKeysEnabledEv"
  },
  {
   "name":"_ZN7android8hardware4wifi10supplicant4V1_114BpHwSupplicant22setConcurrencyPriorityENS2_4V1_09IfaceTypeENSt3__18functionIFvRKNS5_16SupplicantStatusEEEE"
  },
  {
   "name":"_ZN7android8hardware4wifi10supplicant4V1_114BpHwSupplicant27isDebugShowTimestampEnabledEv"
  },
  {
   "name":"_ZN7android8hardware4wifi10supplicant4V1_114BpHwSupplicant4pingEv"
  },
  {
   "name":"_ZN7android8hardware4wifi10supplicant4V1_114BpHwSupplicant5debugERKNS0_11hidl_handleERKNS0_8hidl_vecINS0_11hidl_stringEEE"
  },
  {
   "name":"_ZN7android8hardware4wifi10supplicant4V1_114BpHwSupplicant9terminateEv"
  },
  {
   "name":"_ZN7android8hardware4wifi10supplicant4V1_114BpHwSupplicantC1ERKNS_2spINS0_7IBinderEEE"
  },
  {
   "name":"_ZN7android8hardware4wifi10supplicant4V1_114BpHwSupplicantC2ERKNS_2spINS0_7IBinderEEE"
  },
  {
   "name":"_ZN7android8hardware4wifi10supplicant4V1_119ISupplicantStaIface10getServiceERKNSt3__112basic_stringIcNS5_11char_traitsIcEENS5_9allocatorIcEEEEb"
  },
  {
   "name":"_ZN7android8hardware4wifi10supplicant4V1_119ISupplicantStaIface11linkToDeathERKNS_2spINS0_20hidl_death_recipientEEEm"
  },
  {
   "name":"_ZN7android8hardware4wifi10supplicant4V1_119ISupplicantStaIface12getDebugInfoENSt3__18functionIFvRKNS_4hidl4base4V1_09DebugInfoEEEE"
  },
  {
   "name":"_ZN7android8hardware4wifi10supplicant4V1_119ISupplicantStaIface12getHashChainENSt3__18functionIFvRKNS0_8hidl_vecINS0_10hidl_arrayIhLm32EJEEEEEEEE"
  },
  {
   "name":"_ZN7android8hardware4wifi10supplicant4V1_119ISupplicantStaIface13tryGetServiceERKNSt3__112basic_stringIcNS5_11char_traitsIcEENS5_9allocatorIcEEEEb"
  },
  {
   "name":"_ZN7android8hardware4wifi10supplicant4V1_119ISupplicantStaIface13unlinkToDeathERKNS_2spINS0_20hidl_death_recipientEEE"
  },
  {
   "name":"_ZN7android8hardware4wifi10supplicant4V1_119ISupplicantStaIface14interfaceChainENSt3__18functionIFvRKNS0_8hidl_vecINS0_11hidl_stringEEEEEE"
  },
  {
   "name":"_ZN7android8hardware4wifi10supplicant4V1_119ISupplicantStaIface17registerAsServiceERKNSt3__112basic_stringIcNS5_11char_traitsIcEENS5_9allocatorIcEEEE"
  },
  {
   "name":"_ZN7android8hardware4wifi10supplicant4V1_119ISupplicantStaIface19interfaceDescriptorENSt3__18functionIFvRKNS0_11hidl_stringEEEE"
  },
  {
   "name":"_ZN7android8hardware4wifi10supplicant4V1_119ISupplicantStaIface21notifySyspropsChangedEv"
  },
  {
   "name":"_ZN7android8hardware4wifi10supplicant4V1_119ISupplicantStaIface21setHALInstrumentationEv"
  },
  {
   "name":"_ZN7android8hardware4wifi10supplicant4V1_119ISupplicantStaIface24registerForNotificationsERKNSt3__112basic_stringIcNS5_11char_traitsIcEENS5_9allocatorIcEEEERKNS_2spINS_4hidl7manager4V1_020IServiceNotificationEEE"
  },
  {
   "name":"_ZN7android8hardware4wifi10supplicant4V1_119ISupplicantStaIface4pingEv"
  },
  {
   "name":"_ZN7android8hardware4wifi10supplicant4V1_119ISupplicantStaIface5debugERKNS0_11hidl_handleERKNS0_8hidl_vecINS0_11hidl_stringEEE"
  },
  {
   "name":"_ZN7android8hardware4wifi10supplicant4V1_119ISupplicantStaIface8castFromERKNS_2spINS2_4V1_016ISupplicantIfaceEEEb"
  },
  {
   "name":"_ZN7android8hardware4wifi10supplicant4V1_119ISupplicantStaIface8castFromERKNS_2spINS2_4V1_019ISupplicantStaIfaceEEEb"
  },
  {
   "name":"_ZN7android8hardware4wifi10supplicant4V1_119ISupplicantStaIface8castFromERKNS_2spINS_4hidl4base4V1_05IBaseEEEb"
  },
  {
   "name":"_ZN7android8hardware4wifi10supplicant4V1_119ISupplicantStaIface8castFromERKNS_2spIS4_EEb"
  },
  {
   "name":"_ZN7android8hardware4wifi10supplicant4V1_120BsSupplicantStaIface13addOnewayTaskENSt3__18functionIFvvEEE"
  },
  {
   "name":"_ZN7android8hardware4wifi10supplicant4V1_120BsSupplicantStaIfaceC1ENS_2spINS3_19ISupplicantStaIfaceEEE"
  },
  {
   "name":"_ZN7android8hardware4wifi10supplicant4V1_120BsSupplicantStaIfaceC2ENS_2spINS3_19ISupplicantStaIfaceEEE"
  },
  {
   "name":"_ZN7android8hardware4wifi10supplicant4V1_121ISupplicantStaNetwork10getServiceERKNSt3__112basic_stringIcNS5_11char_traitsIcEENS5_9allocatorIcEEEEb"
  },
  {
   "name":"_ZN7android8hardware4wifi10supplicant4V1_121ISupplicantStaNetwork11linkToDeathERKNS_2spINS0_20hidl_death_recipientEEEm"
  },
  {
   "name":"_ZN7android8hardware4wifi10supplicant4V1_121ISupplicantStaNetwork12getDebugInfoENSt3__18functionIFvRKNS_4hidl4base4V1_09DebugInfoEEEE"
  },
  {
   "name":"_ZN7android8hardware4wifi10supplicant4V1_121ISupplicantStaNetwork12getHashChainENSt3__18functionIFvRKNS0_8hidl_vecINS0_10hidl_arrayIhLm32EJEEEEEEEE"
  },
  {
   "name":"_ZN7android8hardware4wifi10supplicant4V1_121ISupplicantStaNetwork13tryGetServiceERKNSt3__112basic_stringIcNS5_11char_traitsIcEENS5_9allocatorIcEEEEb"
  },
  {
   "name":"_ZN7android8hardware4wifi10supplicant4V1_121ISupplicantStaNetwork13unlinkToDeathERKNS_2spINS0_20hidl_death_recipientEEE"
  },
  {
   "name":"_ZN7android8hardware4wifi10supplicant4V1_121ISupplicantStaNetwork14interfaceChainENSt3__18functionIFvRKNS0_8hidl_vecINS0_11hidl_stringEEEEEE"
  },
  {
   "name":"_ZN7android8hardware4wifi10supplicant4V1_121ISupplicantStaNetwork17registerAsServiceERKNSt3__112basic_stringIcNS5_11char_traitsIcEENS5_9allocatorIcEEEE"
  },
  {
   "name":"_ZN7android8hardware4wifi10supplicant4V1_121ISupplicantStaNetwork19interfaceDescriptorENSt3__18functionIFvRKNS0_11hidl_stringEEEE"
  },
  {
   "name":"_ZN7android8hardware4wifi10supplicant4V1_121ISupplicantStaNetwork21notifySyspropsChangedEv"
  },
  {
   "name":"_ZN7android8hardware4wifi10supplicant4V1_121ISupplicantStaNetwork21setHALInstrumentationEv"
  },
  {
   "name":"_ZN7android8hardware4wifi10supplicant4V1_121ISupplicantStaNetwork24registerForNotificationsERKNSt3__112basic_stringIcNS5_11char_traitsIcEENS5_9allocatorIcEEEERKNS_2spINS_4hidl7manager4V1_020IServiceNotificationEEE"
  },
  {
   "name":"_ZN7android8hardware4wifi10supplicant4V1_121ISupplicantStaNetwork4pingEv"
  },
  {
   "name":"_ZN7android8hardware4wifi10supplicant4V1_121ISupplicantStaNetwork5debugERKNS0_11hidl_handleERKNS0_8hidl_vecINS0_11hidl_stringEEE"
  },
  {
   "name":"_ZN7android8hardware4wifi10supplicant4V1_121ISupplicantStaNetwork8castFromERKNS_2spINS2_4V1_018ISupplicantNetworkEEEb"
  },
  {
   "name":"_ZN7android8hardware4wifi10supplicant4V1_121ISupplicantStaNetwork8castFromERKNS_2spINS2_4V1_021ISupplicantStaNetworkEEEb"
  },
  {
   "name":"_ZN7android8hardware4wifi10supplicant4V1_121ISupplicantStaNetwork8castFromERKNS_2spINS_4hidl4base4V1_05IBaseEEEb"
  },
  {
   "name":"_ZN7android8hardware4wifi10supplicant4V1_121ISupplicantStaNetwork8castFromERKNS_2spIS4_EEb"
  },
  {
   "name":"_ZN7android8hardware4wifi10supplicant4V1_122BnHwSupplicantStaIface10onTransactEjRKNS0_6ParcelEPS5_jNSt3__18functionIFvRS5_EEE"
  },
  {
   "name":"_ZN7android8hardware4wifi10supplicant4V1_122BnHwSupplicantStaIface12getDebugInfoENSt3__18functionIFvRKNS_4hidl4base4V1_09DebugInfoEEEE"
  },
  {
   "name":"_ZN7android8hardware4wifi10supplicant4V1_122BnHwSupplicantStaIface26_hidl_registerCallback_1_1EPNS_4hidl4base4V1_08BnHwBaseERKNS0_6ParcelEPSA_NSt3__18functionIFvRSA_EEE"
  },
  {
   "name":"_ZN7android8hardware4wifi10supplicant4V1_122BnHwSupplicantStaIface4pingEv"
  },
  {
   "name":"_ZN7android8hardware4wifi10supplicant4V1_122BnHwSupplicantStaIfaceC1ERKNS_2spINS3_19ISupplicantStaIfaceEEE"
  },
  {
   "name":"_ZN7android8hardware4wifi10supplicant4V1_122BnHwSupplicantStaIfaceC2ERKNS_2spINS3_19ISupplicantStaIfaceEEE"
  },
  {
   "name":"_ZN7android8hardware4wifi10supplicant4V1_122BnHwSupplicantStaIfaceD0Ev"
  },
  {
   "name":"_ZN7android8hardware4wifi10supplicant4V1_122BnHwSupplicantStaIfaceD1Ev"
  },
  {
   "name":"_ZN7android8hardware4wifi10supplicant4V1_122BnHwSupplicantStaIfaceD2Ev"
  },
  {
   "name":"_ZN7android8hardware4wifi10supplicant4V1_122BpHwSupplicantStaIface10addNetworkENSt3__18functionIFvRKNS2_4V1_016SupplicantStatusERKNS_2spINS7_18ISupplicantNetworkEEEEEE"
  },
  {
   "name":"_ZN7android8hardware4wifi10supplicant4V1_122BpHwSupplicantStaIface10disconnectENSt3__18functionIFvRKNS2_4V1_016SupplicantStatusEEEE"
  },
  {
   "name":"_ZN7android8hardware4wifi10supplicant4V1_122BpHwSupplicantStaIface10getNetworkEjNSt3__18functionIFvRKNS2_4V1_016SupplicantStatusERKNS_2spINS7_18ISupplicantNetworkEEEEEE"
  },
  {
   "name":"_ZN7android8hardware4wifi10supplicant4V1_122BpHwSupplicantStaIface11addRxFilterENS2_4V1_019ISupplicantStaIface12RxFilterTypeENSt3__18functionIFvRKNS5_16SupplicantStatusEEEE"
  },
  {
   "name":"_ZN7android8hardware4wifi10supplicant4V1_122BpHwSupplicantStaIface11linkToDeathERKNS_2spINS0_20hidl_death_recipientEEEm"
  },
  {
   "name":"_ZN7android8hardware4wifi10supplicant4V1_122BpHwSupplicantStaIface11reassociateENSt3__18functionIFvRKNS2_4V1_016SupplicantStatusEEEE"
  },
  {
   "name":"_ZN7android8hardware4wifi10supplicant4V1_122BpHwSupplicantStaIface11startWpsPbcERKNS0_10hidl_arrayIhLm6EJEEENSt3__18functionIFvRKNS2_4V1_016SupplicantStatusEEEE"
  },
  {
   "name":"_ZN7android8hardware4wifi10supplicant4V1_122BpHwSupplicantStaIface12getDebugInfoENSt3__18functionIFvRKNS_4hidl4base4V1_09DebugInfoEEEE"
  },
  {
   "name":"_ZN7android8hardware4wifi10supplicant4V1_122BpHwSupplicantStaIface12getHashChainENSt3__18functionIFvRKNS0_8hidl_vecINS0_10hidl_arrayIhLm32EJEEEEEEEE"
  },
  {
   "name":"_ZN7android8hardware4wifi10supplicant4V1_122BpHwSupplicantStaIface12listNetworksENSt3__18functionIFvRKNS2_4V1_016SupplicantStatusERKNS0_8hidl_vecIjEEEEE"
  },
  {
   "name":"_ZN7android8hardware4wifi10supplicant4V1_122BpHwSupplicantStaIface12setPowerSaveEbNSt3__18functionIFvRKNS2_4V1_016SupplicantStatusEEEE"
  },
  {
   "name":"_ZN7android8hardware4wifi10supplicant4V1_122BpHwSupplicantStaIface12stopRxFilterENSt3__18functionIFvRKNS2_4V1_016SupplicantStatusEEEE"
  },
  {
   "name":"_ZN7android8hardware4wifi10supplicant4V1_122BpHwSupplicantStaIface13getMacAddressENSt3__18functionIFvRKNS2_4V1_016SupplicantStatusERKNS0_10hidl_arrayIhLm6EJEEEEEE"
  },
  {
   "name":"_ZN7android8hardware4wifi10supplicant4V1_122BpHwSupplicantStaIface13removeNetworkEjNSt3__18functionIFvRKNS2_4V1_016SupplicantStatusEEEE"
  },
  {
   "name":"_ZN7android8hardware4wifi10supplicant4V1_122BpHwSupplicantStaIface13startRxFilterENSt3__18functionIFvRKNS2_4V1_016SupplicantStatusEEEE"
  },
  {
   "name":"_ZN7android8hardware4wifi10supplicant4V1_122BpHwSupplicantStaIface13unlinkToDeathERKNS_2spINS0_20hidl_death_recipientEEE"
  },
  {
   "name":"_ZN7android8hardware4wifi10supplicant4V1_122BpHwSupplicantStaIface14interfaceChainENSt3__18functionIFvRKNS0_8hidl_vecINS0_11hidl_stringEEEEEE"
  },
  {
   "name":"_ZN7android8hardware4wifi10supplicant4V1_122BpHwSupplicantStaIface14removeRxFilterENS2_4V1_019ISupplicantStaIface12RxFilterTypeENSt3__18functionIFvRKNS5_16SupplicantStatusEEEE"
  },
  {
   "name":"_ZN7android8hardware4wifi10supplicant4V1_122BpHwSupplicantStaIface14setCountryCodeERKNS0_10hidl_arrayIaLm2EJEEENSt3__18functionIFvRKNS2_4V1_016SupplicantStatusEEEE"
  },
  {
   "name":"_ZN7android8hardware4wifi10supplicant4V1_122BpHwSupplicantStaIface14setExternalSimEbNSt3__18functionIFvRKNS2_4V1_016SupplicantStatusEEEE"
  },
  {
   "name":"_ZN7android8hardware4wifi10supplicant4V1_122BpHwSupplicantStaIface15addExtRadioWorkERKNS0_11hidl_stringEjjNSt3__18functionIFvRKNS2_4V1_016SupplicantStatusEjEEE"
  },
  {
   "name":"_ZN7android8hardware4wifi10supplicant4V1_122BpHwSupplicantStaIface15setWpsModelNameERKNS0_11hidl_stringENSt3__18functionIFvRKNS2_4V1_016SupplicantStatusEEEE"
  },
  {
   "name":"_ZN7android8hardware4wifi10supplicant4V1_122BpHwSupplicantStaIface16registerCallbackERKNS_2spINS2_4V1_027ISupplicantStaIfaceCallbackEEENSt3__18functionIFvRKNS6_16SupplicantStatusEEEE"
  },
  {
   "name":"_ZN7android8hardware4wifi10supplicant4V1_122BpHwSupplicantStaIface16setWpsDeviceNameERKNS0_11hidl_stringENSt3__18functionIFvRKNS2_4V1_016SupplicantStatusEEEE"
  },
  {
   "name":"_ZN7android8hardware4wifi10supplicant4V1_122BpHwSupplicantStaIface16setWpsDeviceTypeERKNS0_10hidl_arrayIhLm8EJEEENSt3__18functionIFvRKNS2_4V1_016SupplicantStatusEEEE"
  },
  {
   "name":"_ZN7android8hardware4wifi10supplicant4V1_122BpHwSupplicantStaIface17initiateAnqpQueryERKNS0_10hidl_arrayIhLm6EJEEERKNS0_8hidl_vecINS2_4V1_019ISupplicantStaIface10AnqpInfoIdEEERKNS9_INSB_16Hs20AnqpSubtypesEEENSt3__18functionIFvRKNSA_16SupplicantStatusEEEE"
  },
  {
   "name":"_ZN7android8hardware4wifi10supplicant4V1_122BpHwSupplicantStaIface17initiateTdlsSetupERKNS0_10hidl_arrayIhLm6EJEEENSt3__18functionIFvRKNS2_4V1_016SupplicantStatusEEEE"
  },
  {
   "name":"_ZN7android8hardware4wifi10supplicant4V1_122BpHwSupplicantStaIface17setWpsModelNumberERKNS0_11hidl_stringENSt3__18functionIFvRKNS2_4V1_016SupplicantStatusEEEE"
  },
  {
   "name":"_ZN7android8hardware4wifi10supplicant4V1_122BpHwSupplicantStaIface17startWpsPinKeypadERKNS0_11hidl_stringENSt3__18functionIFvRKNS2_4V1_016SupplicantStatusEEEE"
  },
  {
   "name":"_ZN7android8hardware4wifi10supplicant4V1_122BpHwSupplicantStaIface17startWpsRegistrarERKNS0_10hidl_arrayIhLm6EJEEERKNS0_11hidl_stringENSt3__18functionIFvRKNS2_4V1_016SupplicantStatusEEEE"
  },
  {
   "name":"_ZN7android8hardware4wifi10supplicant4V1_122BpHwSupplicantStaIface18removeExtRadioWorkEjNSt3__18functionIFvRKNS2_4V1_016SupplicantStatusEEEE"
  },
  {
   "name":"_ZN7android8hardware4wifi10supplicant4V1_122BpHwSupplicantStaIface18setWpsManufacturerERKNS0_11hidl_stringENSt3__18functionIFvRKNS2_4V1_016SupplicantStatusEEEE"
  },
  {
   "name":"_ZN7android8hardware4wifi10supplicant4V1_122BpHwSupplicantStaIface18setWpsSerialNumberERKNS0_11hidl_stringENSt3__18functionIFvRKNS2_4V1_016SupplicantStatusEEEE"
  },
  {
   "name":"_ZN7android8hardware4wifi10supplicant4V1_122BpHwSupplicantStaIface18startWpsPinDisplayERKNS0_10hidl_arrayIhLm6EJEEENSt3__18functionIFvRKNS2_4V1_016SupplicantStatusERKNS0_11hidl_stringEEEE"
  },
  {
   "name":"_ZN7android8hardware4wifi10supplicant4V1_122BpHwSupplicantStaIface19enableAutoReconnectEbNSt3__18functionIFvRKNS2_4V1_016SupplicantStatusEEEE"
  },
  {
   "name":"_ZN7android8hardware4wifi10supplicant4V1_122BpHwSupplicantStaIface19interfaceDescriptorENSt3__18functionIFvRKNS0_11hidl_stringEEEE"
  },
  {
   "name":"_ZN7android8hardware4wifi10supplicant4V1_122BpHwSupplicantStaIface19setWpsConfigMethodsEtNSt3__18functionIFvRKNS2_4V1_016SupplicantStatusEEEE"
  },
  {
   "name":"_ZN7android8hardware4wifi10supplicant4V1_122BpHwSupplicantStaIface20initiateTdlsDiscoverERKNS0_10hidl_arrayIhLm6EJEEENSt3__18functionIFvRKNS2_4V1_016SupplicantStatusEEEE"
  },
  {
   "name":"_ZN7android8hardware4wifi10supplicant4V1_122BpHwSupplicantStaIface20initiateTdlsTeardownERKNS0_10hidl_arrayIhLm6EJEEENSt3__18functionIFvRKNS2_4V1_016SupplicantStatusEEEE"
  },
  {
   "name":"_ZN7android8hardware4wifi10supplicant4V1_122BpHwSupplicantStaIface20registerCallback_1_1ERKNS_2spINS3_27ISupplicantStaIfaceCallbackEEENSt3__18functionIFvRKNS2_4V1_016SupplicantStatusEEEE"
  },
  {
   "name":"_ZN7android8hardware4wifi10supplicant4V1_122BpHwSupplicantStaIface20setBtCoexistenceModeENS2_4V1_019ISupplicantStaIface17BtCoexistenceModeENSt3__18functionIFvRKNS5_16SupplicantStatusEEEE"
  },
  {
   "name":"_ZN7android8hardware4wifi10supplicant4V1_122BpHwSupplicantStaIface21initiateHs20IconQueryERKNS0_10hidl_arrayIhLm6EJEEERKNS0_11hidl_stringENSt3__18functionIFvRKNS2_4V1_016SupplicantStatusEEEE"
  },
  {
   "name":"_ZN7android8hardware4wifi10supplicant4V1_122BpHwSupplicantStaIface21notifySyspropsChangedEv"
  },
  {
   "name":"_ZN7android8hardware4wifi10supplicant4V1_122BpHwSupplicantStaIface21setHALInstrumentationEv"
  },
  {
   "name":"_ZN7android8hardware4wifi10supplicant4V1_122BpHwSupplicantStaIface21setSuspendModeEnabledEbNSt3__18functionIFvRKNS2_4V1_016SupplicantStatusEEEE"
  },
  {
   "name":"_ZN7android8hardware4wifi10supplicant4V1_122BpHwSupplicantStaIface26_hidl_registerCallback_1_1EPNS0_10IInterfaceEPNS0_7details16HidlInstrumentorERKNS_2spINS3_27ISupplicantStaIfaceCallbackEEENSt3__18functionIFvRKNS2_4V1_016SupplicantStatusEEEE"
  },
  {
   "name":"_ZN7android8hardware4wifi10supplicant4V1_122BpHwSupplicantStaIface31setBtCoexistenceScanModeEnabledEbNSt3__18functionIFvRKNS2_4V1_016SupplicantStatusEEEE"
  },
  {
   "name":"_ZN7android8hardware4wifi10supplicant4V1_122BpHwSupplicantStaIface4pingEv"
  },
  {
   "name":"_ZN7android8hardware4wifi10supplicant4V1_122BpHwSupplicantStaIface5debugERKNS0_11hidl_handleERKNS0_8hidl_vecINS0_11hidl_stringEEE"
  },
  {
   "name":"_ZN7android8hardware4wifi10supplicant4V1_122BpHwSupplicantStaIface7getNameENSt3__18functionIFvRKNS2_4V1_016SupplicantStatusERKNS0_11hidl_stringEEEE"
  },
  {
   "name":"_ZN7android8hardware4wifi10supplicant4V1_122BpHwSupplicantStaIface7getTypeENSt3__18functionIFvRKNS2_4V1_016SupplicantStatusENS7_9IfaceTypeEEEE"
  },
  {
   "name":"_ZN7android8hardware4wifi10supplicant4V1_122BpHwSupplicantStaIface9cancelWpsENSt3__18functionIFvRKNS2_4V1_016SupplicantStatusEEEE"
  },
  {
   "name":"_ZN7android8hardware4wifi10supplicant4V1_122BpHwSupplicantStaIface9reconnectENSt3__18functionIFvRKNS2_4V1_016SupplicantStatusEEEE"
  },
  {
   "name":"_ZN7android8hardware4wifi10supplicant4V1_122BpHwSupplicantStaIfaceC1ERKNS_2spINS0_7IBinderEEE"
  },
  {
   "name":"_ZN7android8hardware4wifi10supplicant4V1_122BpHwSupplicantStaIfaceC2ERKNS_2spINS0_7IBinderEEE"
  },
  {
   "name":"_ZN7android8hardware4wifi10supplicant4V1_122BsSupplicantStaNetwork13addOnewayTaskENSt3__18functionIFvvEEE"
  },
  {
   "name":"_ZN7android8hardware4wifi10supplicant4V1_122BsSupplicantStaNetworkC1ENS_2spINS3_21ISupplicantStaNetworkEEE"
  },
  {
   "name":"_ZN7android8hardware4wifi10supplicant4V1_122BsSupplicantStaNetworkC2ENS_2spINS3_21ISupplicantStaNetworkEEE"
  },
  {
   "name":"_ZN7android8hardware4wifi10supplicant4V1_124BnHwSupplicantStaNetwork10onTransactEjRKNS0_6ParcelEPS5_jNSt3__18functionIFvRS5_EEE"
  },
  {
   "name":"_ZN7android8hardware4wifi10supplicant4V1_124BnHwSupplicantStaNetwork12getDebugInfoENSt3__18functionIFvRKNS_4hidl4base4V1_09DebugInfoEEEE"
  },
  {
   "name":"_ZN7android8hardware4wifi10supplicant4V1_124BnHwSupplicantStaNetwork33_hidl_setEapEncryptedImsiIdentityEPNS_4hidl4base4V1_08BnHwBaseERKNS0_6ParcelEPSA_NSt3__18functionIFvRSA_EEE"
  },
  {
   "name":"_ZN7android8hardware4wifi10supplicant4V1_124BnHwSupplicantStaNetwork40_hidl_sendNetworkEapIdentityResponse_1_1EPNS_4hidl4base4V1_08BnHwBaseERKNS0_6ParcelEPSA_NSt3__18functionIFvRSA_EEE"
  },
  {
   "name":"_ZN7android8hardware4wifi10supplicant4V1_124BnHwSupplicantStaNetwork4pingEv"
  },
  {
   "name":"_ZN7android8hardware4wifi10supplicant4V1_124BnHwSupplicantStaNetworkC1ERKNS_2spINS3_21ISupplicantStaNetworkEEE"
  },
  {
   "name":"_ZN7android8hardware4wifi10supplicant4V1_124BnHwSupplicantStaNetworkC2ERKNS_2spINS3_21ISupplicantStaNetworkEEE"
  },
  {
   "name":"_ZN7android8hardware4wifi10supplicant4V1_124BnHwSupplicantStaNetworkD0Ev"
  },
  {
   "name":"_ZN7android8hardware4wifi10supplicant4V1_124BnHwSupplicantStaNetworkD1Ev"
  },
  {
   "name":"_ZN7android8hardware4wifi10supplicant4V1_124BnHwSupplicantStaNetworkD2Ev"
  },
  {
   "name":"_ZN7android8hardware4wifi10supplicant4V1_124BpHwSupplicantStaNetwork10getAuthAlgENSt3__18functionIFvRKNS2_4V1_016SupplicantStatusEjEEE"
  },
  {
   "name":"_ZN7android8hardware4wifi10supplicant4V1_124BpHwSupplicantStaNetwork10getKeyMgmtENSt3__18functionIFvRKNS2_4V1_016SupplicantStatusEjEEE"
  },
  {
   "name":"_ZN7android8hardware4wifi10supplicant4V1_124BpHwSupplicantStaNetwork10setAuthAlgEjNSt3__18functionIFvRKNS2_4V1_016SupplicantStatusEEEE"
  },
  {
   "name":"_ZN7android8hardware4wifi10supplicant4V1_124BpHwSupplicantStaNetwork10setKeyMgmtEjNSt3__18functionIFvRKNS2_4V1_016SupplicantStatusEEEE"
  },
  {
   "name":"_ZN7android8hardware4wifi10supplicant4V1_124BpHwSupplicantStaNetwork11getScanSsidENSt3__18functionIFvRKNS2_4V1_016SupplicantStatusEbEEE"
  },
  {
   "name":"_ZN7android8hardware4wifi10supplicant4V1_124BpHwSupplicantStaNetwork11linkToDeathERKNS_2spINS0_20hidl_death_recipientEEEm"
  },
  {
   "name":"_ZN7android8hardware4wifi10supplicant4V1_124BpHwSupplicantStaNetwork11setScanSsidEbNSt3__18functionIFvRKNS2_4V1_016SupplicantStatusEEEE"
  },
  {
   "name":"_ZN7android8hardware4wifi10supplicant4V1_124BpHwSupplicantStaNetwork12getDebugInfoENSt3__18functionIFvRKNS_4hidl4base4V1_09DebugInfoEEEE"
  },
  {
   "name":"_ZN7android8hardware4wifi10supplicant4V1_124BpHwSupplicantStaNetwork12getEapCACertENSt3__18functionIFvRKNS2_4V1_016SupplicantStatusERKNS0_11hidl_stringEEEE"
  },
  {
   "name":"_ZN7android8hardware4wifi10supplicant4V1_124BpHwSupplicantStaNetwork12getEapCAPathENSt3__18functionIFvRKNS2_4V1_016SupplicantStatusERKNS0_11hidl_stringEEEE"
  },
  {
   "name":"_ZN7android8hardware4wifi10supplicant4V1_124BpHwSupplicantStaNetwork12getEapEngineENSt3__18functionIFvRKNS2_4V1_016SupplicantStatusEbEEE"
  },
  {
   "name":"_ZN7android8hardware4wifi10supplicant4V1_124BpHwSupplicantStaNetwork12getEapMethodENSt3__18functionIFvRKNS2_4V1_016SupplicantStatusENS7_21ISupplicantStaNetwork9EapMethodEEEE"
  },
  {
   "name":"_ZN7android8hardware4wifi10supplicant4V1_124BpHwSupplicantStaNetwork12getHashChainENSt3__18functionIFvRKNS0_8hidl_vecINS0_10hidl_arrayIhLm32EJEEEEEEEE"
  },
  {
   "name":"_ZN7android8hardware4wifi10supplicant4V1_124BpHwSupplicantStaNetwork12setEapCACertERKNS0_11hidl_stringENSt3__18functionIFvRKNS2_4V1_016SupplicantStatusEEEE"
  },
  {
   "name":"_ZN7android8hardware4wifi10supplicant4V1_124BpHwSupplicantStaNetwork12setEapCAPathERKNS0_11hidl_stringENSt3__18functionIFvRKNS2_4V1_016SupplicantStatusEEEE"
  },
  {
   "name":"_ZN7android8hardware4wifi10supplicant4V1_124BpHwSupplicantStaNetwork12setEapEngineEbNSt3__18functionIFvRKNS2_4V1_016SupplicantStatusEEEE"
  },
  {
   "name":"_ZN7android8hardware4wifi10supplicant4V1_124BpHwSupplicantStaNetwork12setEapMethodENS2_4V1_021ISupplicantStaNetwork9EapMethodENSt3__18functionIFvRKNS5_16SupplicantStatusEEEE"
  },
  {
   "name":"_ZN7android8hardware4wifi10supplicant4V1_124BpHwSupplicantStaNetwork13getRequirePmfENSt3__18functionIFvRKNS2_4V1_016SupplicantStatusEbEEE"
  },
  {
   "name":"_ZN7android8hardware4wifi10supplicant4V1_124BpHwSupplicantStaNetwork13setRequirePmfEbNSt3__18functionIFvRKNS2_4V1_016SupplicantStatusEEEE"
  },
  {
   "name":"_ZN7android8hardware4wifi10supplicant4V1_124BpHwSupplicantStaNetwork13unlinkToDeathERKNS_2spINS0_20hidl_death_recipientEEE"
  },
  {
   "name":"_ZN7android8hardware4wifi10supplicant4V1_124BpHwSupplicantStaNetwork14getEapEngineIDENSt3__18functionIFvRKNS2_4V1_016SupplicantStatusERKNS0_11hidl_stringEEEE"
  },
  {
   "name":"_ZN7android8hardware4wifi10supplicant4V1_124BpHwSupplicantStaNetwork14getEapIdentityENSt3__18functionIFvRKNS2_4V1_016SupplicantStatusERKNS0_8hidl_vecIhEEEEE"
  },
  {
   "name":"_ZN7android8hardware4wifi10supplicant4V1_124BpHwSupplicantStaNetwork14getEapPasswordENSt3__18functionIFvRKNS2_4V1_016SupplicantStatusERKNS0_8hidl_vecIhEEEEE"
  },
  {
   "name":"_ZN7android8hardware4wifi10supplicant4V1_124BpHwSupplicantStaNetwork14getGroupCipherENSt3__18functionIFvRKNS2_4V1_016SupplicantStatusEjEEE"
  },
  {
   "name":"_ZN7android8hardware4wifi10supplicant4V1_124BpHwSupplicantStaNetwork14getWepTxKeyIdxENSt3__18functionIFvRKNS2_4V1_016SupplicantStatusEjEEE"
  },
  {
   "name":"_ZN7android8hardware4wifi10supplicant4V1_124BpHwSupplicantStaNetwork14interfaceChainENSt3__18functionIFvRKNS0_8hidl_vecINS0_11hidl_stringEEEEEE"
  },
  {
   "name":"_ZN7android8hardware4wifi10supplicant4V1_124BpHwSupplicantStaNetwork14setEapEngineIDERKNS0_11hidl_stringENSt3__18functionIFvRKNS2_4V1_016SupplicantStatusEEEE"
  },
  {
   "name":"_ZN7android8hardware4wifi10supplicant4V1_124BpHwSupplicantStaNetwork14setEapIdentityERKNS0_8hidl_vecIhEENSt3__18functionIFvRKNS2_4V1_016SupplicantStatusEEEE"
  },
  {
   "name":"_ZN7android8hardware4wifi10supplicant4V1_124BpHwSupplicantStaNetwork14setEapPasswordERKNS0_8hidl_vecIhEENSt3__18functionIFvRKNS2_4V1_016SupplicantStatusEEEE"
  },
  {
   "name":"_ZN7android8hardware4wifi10supplicant4V1_124BpHwSupplicantStaNetwork14setGroupCipherEjNSt3__18functionIFvRKNS2_4V1_016SupplicantStatusEEEE"
  },
  {
   "name":"_ZN7android8hardware4wifi10supplicant4V1_124BpHwSupplicantStaNetwork14setWepTxKeyIdxEjNSt3__18functionIFvRKNS2_4V1_016SupplicantStatusEEEE"
  },
  {
   "name":"_ZN7android8hardware4wifi10supplicant4V1_124BpHwSupplicantStaNetwork16getEapClientCertENSt3__18functionIFvRKNS2_4V1_016SupplicantStatusERKNS0_11hidl_stringEEEE"
  },
  {
   "name":"_ZN7android8hardware4wifi10supplicant4V1_124BpHwSupplicantStaNetwork16getInterfaceNameENSt3__18functionIFvRKNS2_4V1_016SupplicantStatusERKNS0_11hidl_stringEEEE"
  },
  {
   "name":"_ZN7android8hardware4wifi10supplicant4V1_124BpHwSupplicantStaNetwork16getPskPassphraseENSt3__18functionIFvRKNS2_4V1_016SupplicantStatusERKNS0_11hidl_stringEEEE"
  },
  {
   "name":"_ZN7android8hardware4wifi10supplicant4V1_124BpHwSupplicantStaNetwork16registerCallbackERKNS_2spINS2_4V1_029ISupplicantStaNetworkCallbackEEENSt3__18functionIFvRKNS6_16SupplicantStatusEEEE"
  },
  {
   "name":"_ZN7android8hardware4wifi10supplicant4V1_124BpHwSupplicantStaNetwork16setEapClientCertERKNS0_11hidl_stringENSt3__18functionIFvRKNS2_4V1_016SupplicantStatusEEEE"
  },
  {
   "name":"_ZN7android8hardware4wifi10supplicant4V1_124BpHwSupplicantStaNetwork16setPskPassphraseERKNS0_11hidl_stringENSt3__18functionIFvRKNS2_4V1_016SupplicantStatusEEEE"
  },
  {
   "name":"_ZN7android8hardware4wifi10supplicant4V1_124BpHwSupplicantStaNetwork17getPairwiseCipherENSt3__18functionIFvRKNS2_4V1_016SupplicantStatusEjEEE"
  },
  {
   "name":"_ZN7android8hardware4wifi10supplicant4V1_124BpHwSupplicantStaNetwork17setPairwiseCipherEjNSt3__18functionIFvRKNS2_4V1_016SupplicantStatusEEEE"
  },
  {
   "name":"_ZN7android8hardware4wifi10supplicant4V1_124BpHwSupplicantStaNetwork18getEapPhase2MethodENSt3__18functionIFvRKNS2_4V1_016SupplicantStatusENS7_21ISupplicantStaNetwork15EapPhase2MethodEEEE"
  },
  {
   "name":"_ZN7android8hardware4wifi10supplicant4V1_124BpHwSupplicantStaNetwork18getEapPrivateKeyIdENSt3__18functionIFvRKNS2_4V1_016SupplicantStatusERKNS0_11hidl_stringEEEE"
  },
  {
   "name":"_ZN7android8hardware4wifi10supplicant4V1_124BpHwSupplicantStaNetwork18getEapSubjectMatchENSt3__18functionIFvRKNS2_4V1_016SupplicantStatusERKNS0_11hidl_stringEEEE"
  },
  {
   "name":"_ZN7android8hardware4wifi10supplicant4V1_124BpHwSupplicantStaNetwork18setEapPhase2MethodENS2_4V1_021ISupplicantStaNetwork15EapPhase2MethodENSt3__18functionIFvRKNS5_16SupplicantStatusEEEE"
  },
  {
   "name":"_ZN7android8hardware4wifi10supplicant4V1_124BpHwSupplicantStaNetwork18setEapPrivateKeyIdERKNS0_11hidl_stringENSt3__18functionIFvRKNS2_4V1_016SupplicantStatusEEEE"
  },
  {
   "name":"_ZN7android8hardware4wifi10supplicant4V1_124BpHwSupplicantStaNetwork18setEapSubjectMatchERKNS0_11hidl_stringENSt3__18functionIFvRKNS2_4V1_016SupplicantStatusEEEE"
  },
  {
   "name":"_ZN7android8hardware4wifi10supplicant4V1_124BpHwSupplicantStaNetwork19interfaceDescriptorENSt3__18functionIFvRKNS0_11hidl_stringEEEE"
  },
  {
   "name":"_ZN7android8hardware4wifi10supplicant4V1_124BpHwSupplicantStaNetwork19setUpdateIdentifierEjNSt3__18functionIFvRKNS2_4V1_016SupplicantStatusEEEE"
  },
  {
   "name":"_ZN7android8hardware4wifi10supplicant4V1_124BpHwSupplicantStaNetwork21getEapAltSubjectMatchENSt3__18functionIFvRKNS2_4V1_016SupplicantStatusERKNS0_11hidl_stringEEEE"
  },
  {
   "name":"_ZN7android8hardware4wifi10supplicant4V1_124BpHwSupplicantStaNetwork21notifySyspropsChangedEv"
  },
  {
   "name":"_ZN7android8hardware4wifi10supplicant4V1_124BpHwSupplicantStaNetwork21setEapAltSubjectMatchERKNS0_11hidl_stringENSt3__18functionIFvRKNS2_4V1_016SupplicantStatusEEEE"
  },
  {
   "name":"_ZN7android8hardware4wifi10supplicant4V1_124BpHwSupplicantStaNetwork21setHALInstrumentationEv"
  },
  {
   "name":"_ZN7android8hardware4wifi10supplicant4V1_124BpHwSupplicantStaNetwork22setProactiveKeyCachingEbNSt3__18functionIFvRKNS2_4V1_016SupplicantStatusEEEE"
  },
  {
   "name":"_ZN7android8hardware4wifi10supplicant4V1_124BpHwSupplicantStaNetwork23getEapAnonymousIdentityENSt3__18functionIFvRKNS2_4V1_016SupplicantStatusERKNS0_8hidl_vecIhEEEEE"
  },
  {
   "name":"_ZN7android8hardware4wifi10supplicant4V1_124BpHwSupplicantStaNetwork23getEapDomainSuffixMatchENSt3__18functionIFvRKNS2_4V1_016SupplicantStatusERKNS0_11hidl_stringEEEE"
  },
  {
   "name":"_ZN7android8hardware4wifi10supplicant4V1_124BpHwSupplicantStaNetwork23setEapAnonymousIdentityERKNS0_8hidl_vecIhEENSt3__18functionIFvRKNS2_4V1_016SupplicantStatusEEEE"
  },
  {
   "name":"_ZN7android8hardware4wifi10supplicant4V1_124BpHwSupplicantStaNetwork23setEapDomainSuffixMatchERKNS0_11hidl_stringENSt3__18functionIFvRKNS2_4V1_016SupplicantStatusEEEE"
  },
  {
   "name":"_ZN7android8hardware4wifi10supplicant4V1_124BpHwSupplicantStaNetwork27getWpsNfcConfigurationTokenENSt3__18functionIFvRKNS2_4V1_016SupplicantStatusERKNS0_8hidl_vecIhEEEEE"
  },
  {
   "name":"_ZN7android8hardware4wifi10supplicant4V1_124BpHwSupplicantStaNetwork27setEapEncryptedImsiIdentityERKNS0_8hidl_vecIhEENSt3__18functionIFvRKNS2_4V1_016SupplicantStatusEEEE"
  },
  {
   "name":"_ZN7android8hardware4wifi10supplicant4V1_124BpHwSupplicantStaNetwork30sendNetworkEapIdentityResponseERKNS0_8hidl_vecIhEENSt3__18functionIFvRKNS2_4V1_016SupplicantStatusEEEE"
  },
  {
   "name":"_ZN7android8hardware4wifi10supplicant4V1_124BpHwSupplicantStaNetwork31sendNetworkEapSimGsmAuthFailureENSt3__18functionIFvRKNS2_4V1_016SupplicantStatusEEEE"
  },
  {
   "name":"_ZN7android8hardware4wifi10supplicant4V1_124BpHwSupplicantStaNetwork32sendNetworkEapSimGsmAuthResponseERKNS0_8hidl_vecINS2_4V1_021ISupplicantStaNetwork34NetworkResponseEapSimGsmAuthParamsEEENSt3__18functionIFvRKNS6_16SupplicantStatusEEEE"
  },
  {
   "name":"_ZN7android8hardware4wifi10supplicant4V1_124BpHwSupplicantStaNetwork32sendNetworkEapSimUmtsAuthFailureENSt3__18functionIFvRKNS2_4V1_016SupplicantStatusEEEE"
  },
  {
   "name":"_ZN7android8hardware4wifi10supplicant4V1_124BpHwSupplicantStaNetwork33_hidl_setEapEncryptedImsiIdentityEPNS0_10IInterfaceEPNS0_7details16HidlInstrumentorERKNS0_8hidl_vecIhEENSt3__18functionIFvRKNS2_4V1_016SupplicantStatusEEEE"
  },
  {
   "name":"_ZN7android8hardware4wifi10supplicant4V1_124BpHwSupplicantStaNetwork33sendNetworkEapSimUmtsAuthResponseERKNS2_4V1_021ISupplicantStaNetwork35NetworkResponseEapSimUmtsAuthParamsENSt3__18functionIFvRKNS5_16SupplicantStatusEEEE"
  },
  {
   "name":"_ZN7android8hardware4wifi10supplicant4V1_124BpHwSupplicantStaNetwork33sendNetworkEapSimUmtsAutsResponseERKNS0_10hidl_arrayIhLm14EJEEENSt3__18functionIFvRKNS2_4V1_016SupplicantStatusEEEE"
  },
  {
   "name":"_ZN7android8hardware4wifi10supplicant4V1_124BpHwSupplicantStaNetwork34sendNetworkEapIdentityResponse_1_1ERKNS0_8hidl_vecIhEES8_NSt3__18functionIFvRKNS2_4V1_016SupplicantStatusEEEE"
  },
  {
   "name":"_ZN7android8hardware4wifi10supplicant4V1_124BpHwSupplicantStaNetwork40_hidl_sendNetworkEapIdentityResponse_1_1EPNS0_10IInterfaceEPNS0_7details16HidlInstrumentorERKNS0_8hidl_vecIhEESD_NSt3__18functionIFvRKNS2_4V1_016SupplicantStatusEEEE"
  },
  {
   "name":"_ZN7android8hardware4wifi10supplicant4V1_124BpHwSupplicantStaNetwork4pingEv"
  },
  {
   "name":"_ZN7android8hardware4wifi10supplicant4V1_124BpHwSupplicantStaNetwork5debugERKNS0_11hidl_handleERKNS0_8hidl_vecINS0_11hidl_stringEEE"
  },
  {
   "name":"_ZN7android8hardware4wifi10supplicant4V1_124BpHwSupplicantStaNetwork5getIdENSt3__18functionIFvRKNS2_4V1_016SupplicantStatusEjEEE"
  },
  {
   "name":"_ZN7android8hardware4wifi10supplicant4V1_124BpHwSupplicantStaNetwork6enableEbNSt3__18functionIFvRKNS2_4V1_016SupplicantStatusEEEE"
  },
  {
   "name":"_ZN7android8hardware4wifi10supplicant4V1_124BpHwSupplicantStaNetwork6getPskENSt3__18functionIFvRKNS2_4V1_016SupplicantStatusERKNS0_10hidl_arrayIhLm32EJEEEEEE"
  },
  {
   "name":"_ZN7android8hardware4wifi10supplicant4V1_124BpHwSupplicantStaNetwork6selectENSt3__18functionIFvRKNS2_4V1_016SupplicantStatusEEEE"
  },
  {
   "name":"_ZN7android8hardware4wifi10supplicant4V1_124BpHwSupplicantStaNetwork6setPskERKNS0_10hidl_arrayIhLm32EJEEENSt3__18functionIFvRKNS2_4V1_016SupplicantStatusEEEE"
  },
  {
   "name":"_ZN7android8hardware4wifi10supplicant4V1_124BpHwSupplicantStaNetwork7disableENSt3__18functionIFvRKNS2_4V1_016SupplicantStatusEEEE"
  },
  {
   "name":"_ZN7android8hardware4wifi10supplicant4V1_124BpHwSupplicantStaNetwork7getSsidENSt3__18functionIFvRKNS2_4V1_016SupplicantStatusERKNS0_8hidl_vecIhEEEEE"
  },
  {
   "name":"_ZN7android8hardware4wifi10supplicant4V1_124BpHwSupplicantStaNetwork7getTypeENSt3__18functionIFvRKNS2_4V1_016SupplicantStatusENS7_9IfaceTypeEEEE"
  },
  {
   "name":"_ZN7android8hardware4wifi10supplicant4V1_124BpHwSupplicantStaNetwork7setSsidERKNS0_8hidl_vecIhEENSt3__18functionIFvRKNS2_4V1_016SupplicantStatusEEEE"
  },
  {
   "name":"_ZN7android8hardware4wifi10supplicant4V1_124BpHwSupplicantStaNetwork8getBssidENSt3__18functionIFvRKNS2_4V1_016SupplicantStatusERKNS0_10hidl_arrayIhLm6EJEEEEEE"
  },
  {
   "name":"_ZN7android8hardware4wifi10supplicant4V1_124BpHwSupplicantStaNetwork8getIdStrENSt3__18functionIFvRKNS2_4V1_016SupplicantStatusERKNS0_11hidl_stringEEEE"
  },
  {
   "name":"_ZN7android8hardware4wifi10supplicant4V1_124BpHwSupplicantStaNetwork8getProtoENSt3__18functionIFvRKNS2_4V1_016SupplicantStatusEjEEE"
  },
  {
   "name":"_ZN7android8hardware4wifi10supplicant4V1_124BpHwSupplicantStaNetwork8setBssidERKNS0_10hidl_arrayIhLm6EJEEENSt3__18functionIFvRKNS2_4V1_016SupplicantStatusEEEE"
  },
  {
   "name":"_ZN7android8hardware4wifi10supplicant4V1_124BpHwSupplicantStaNetwork8setIdStrERKNS0_11hidl_stringENSt3__18functionIFvRKNS2_4V1_016SupplicantStatusEEEE"
  },
  {
   "name":"_ZN7android8hardware4wifi10supplicant4V1_124BpHwSupplicantStaNetwork8setProtoEjNSt3__18functionIFvRKNS2_4V1_016SupplicantStatusEEEE"
  },
  {
   "name":"_ZN7android8hardware4wifi10supplicant4V1_124BpHwSupplicantStaNetwork9getWepKeyEjNSt3__18functionIFvRKNS2_4V1_016SupplicantStatusERKNS0_8hidl_vecIhEEEEE"
  },
  {
   "name":"_ZN7android8hardware4wifi10supplicant4V1_124BpHwSupplicantStaNetwork9setWepKeyEjRKNS0_8hidl_vecIhEENSt3__18functionIFvRKNS2_4V1_016SupplicantStatusEEEE"
  },
  {
   "name":"_ZN7android8hardware4wifi10supplicant4V1_124BpHwSupplicantStaNetworkC1ERKNS_2spINS0_7IBinderEEE"
  },
  {
   "name":"_ZN7android8hardware4wifi10supplicant4V1_124BpHwSupplicantStaNetworkC2ERKNS_2spINS0_7IBinderEEE"
  },
  {
   "name":"_ZN7android8hardware4wifi10supplicant4V1_127ISupplicantStaIfaceCallback10getServiceERKNSt3__112basic_stringIcNS5_11char_traitsIcEENS5_9allocatorIcEEEEb"
  },
  {
   "name":"_ZN7android8hardware4wifi10supplicant4V1_127ISupplicantStaIfaceCallback11linkToDeathERKNS_2spINS0_20hidl_death_recipientEEEm"
  },
  {
   "name":"_ZN7android8hardware4wifi10supplicant4V1_127ISupplicantStaIfaceCallback12getDebugInfoENSt3__18functionIFvRKNS_4hidl4base4V1_09DebugInfoEEEE"
  },
  {
   "name":"_ZN7android8hardware4wifi10supplicant4V1_127ISupplicantStaIfaceCallback12getHashChainENSt3__18functionIFvRKNS0_8hidl_vecINS0_10hidl_arrayIhLm32EJEEEEEEEE"
  },
  {
   "name":"_ZN7android8hardware4wifi10supplicant4V1_127ISupplicantStaIfaceCallback13tryGetServiceERKNSt3__112basic_stringIcNS5_11char_traitsIcEENS5_9allocatorIcEEEEb"
  },
  {
   "name":"_ZN7android8hardware4wifi10supplicant4V1_127ISupplicantStaIfaceCallback13unlinkToDeathERKNS_2spINS0_20hidl_death_recipientEEE"
  },
  {
   "name":"_ZN7android8hardware4wifi10supplicant4V1_127ISupplicantStaIfaceCallback14interfaceChainENSt3__18functionIFvRKNS0_8hidl_vecINS0_11hidl_stringEEEEEE"
  },
  {
   "name":"_ZN7android8hardware4wifi10supplicant4V1_127ISupplicantStaIfaceCallback17registerAsServiceERKNSt3__112basic_stringIcNS5_11char_traitsIcEENS5_9allocatorIcEEEE"
  },
  {
   "name":"_ZN7android8hardware4wifi10supplicant4V1_127ISupplicantStaIfaceCallback19interfaceDescriptorENSt3__18functionIFvRKNS0_11hidl_stringEEEE"
  },
  {
   "name":"_ZN7android8hardware4wifi10supplicant4V1_127ISupplicantStaIfaceCallback21notifySyspropsChangedEv"
  },
  {
   "name":"_ZN7android8hardware4wifi10supplicant4V1_127ISupplicantStaIfaceCallback21setHALInstrumentationEv"
  },
  {
   "name":"_ZN7android8hardware4wifi10supplicant4V1_127ISupplicantStaIfaceCallback24registerForNotificationsERKNSt3__112basic_stringIcNS5_11char_traitsIcEENS5_9allocatorIcEEEERKNS_2spINS_4hidl7manager4V1_020IServiceNotificationEEE"
  },
  {
   "name":"_ZN7android8hardware4wifi10supplicant4V1_127ISupplicantStaIfaceCallback4pingEv"
  },
  {
   "name":"_ZN7android8hardware4wifi10supplicant4V1_127ISupplicantStaIfaceCallback5debugERKNS0_11hidl_handleERKNS0_8hidl_vecINS0_11hidl_stringEEE"
  },
  {
   "name":"_ZN7android8hardware4wifi10supplicant4V1_127ISupplicantStaIfaceCallback8castFromERKNS_2spINS2_4V1_027ISupplicantStaIfaceCallbackEEEb"
  },
  {
   "name":"_ZN7android8hardware4wifi10supplicant4V1_127ISupplicantStaIfaceCallback8castFromERKNS_2spINS_4hidl4base4V1_05IBaseEEEb"
  },
  {
   "name":"_ZN7android8hardware4wifi10supplicant4V1_127ISupplicantStaIfaceCallback8castFromERKNS_2spIS4_EEb"
  },
  {
   "name":"_ZN7android8hardware4wifi10supplicant4V1_128BsSupplicantStaIfaceCallback13addOnewayTaskENSt3__18functionIFvvEEE"
  },
  {
   "name":"_ZN7android8hardware4wifi10supplicant4V1_128BsSupplicantStaIfaceCallbackC1ENS_2spINS3_27ISupplicantStaIfaceCallbackEEE"
  },
  {
   "name":"_ZN7android8hardware4wifi10supplicant4V1_128BsSupplicantStaIfaceCallbackC2ENS_2spINS3_27ISupplicantStaIfaceCallbackEEE"
  },
  {
   "name":"_ZN7android8hardware4wifi10supplicant4V1_130BnHwSupplicantStaIfaceCallback10onTransactEjRKNS0_6ParcelEPS5_jNSt3__18functionIFvRS5_EEE"
  },
  {
   "name":"_ZN7android8hardware4wifi10supplicant4V1_130BnHwSupplicantStaIfaceCallback12getDebugInfoENSt3__18functionIFvRKNS_4hidl4base4V1_09DebugInfoEEEE"
  },
  {
   "name":"_ZN7android8hardware4wifi10supplicant4V1_130BnHwSupplicantStaIfaceCallback22_hidl_onEapFailure_1_1EPNS_4hidl4base4V1_08BnHwBaseERKNS0_6ParcelEPSA_NSt3__18functionIFvRSA_EEE"
  },
  {
   "name":"_ZN7android8hardware4wifi10supplicant4V1_130BnHwSupplicantStaIfaceCallback4pingEv"
  },
  {
   "name":"_ZN7android8hardware4wifi10supplicant4V1_130BnHwSupplicantStaIfaceCallbackC1ERKNS_2spINS3_27ISupplicantStaIfaceCallbackEEE"
  },
  {
   "name":"_ZN7android8hardware4wifi10supplicant4V1_130BnHwSupplicantStaIfaceCallbackC2ERKNS_2spINS3_27ISupplicantStaIfaceCallbackEEE"
  },
  {
   "name":"_ZN7android8hardware4wifi10supplicant4V1_130BnHwSupplicantStaIfaceCallbackD0Ev"
  },
  {
   "name":"_ZN7android8hardware4wifi10supplicant4V1_130BnHwSupplicantStaIfaceCallbackD1Ev"
  },
  {
   "name":"_ZN7android8hardware4wifi10supplicant4V1_130BnHwSupplicantStaIfaceCallbackD2Ev"
  },
  {
   "name":"_ZN7android8hardware4wifi10supplicant4V1_130BpHwSupplicantStaIfaceCallback11linkToDeathERKNS_2spINS0_20hidl_death_recipientEEEm"
  },
  {
   "name":"_ZN7android8hardware4wifi10supplicant4V1_130BpHwSupplicantStaIfaceCallback12getDebugInfoENSt3__18functionIFvRKNS_4hidl4base4V1_09DebugInfoEEEE"
  },
  {
   "name":"_ZN7android8hardware4wifi10supplicant4V1_130BpHwSupplicantStaIfaceCallback12getHashChainENSt3__18functionIFvRKNS0_8hidl_vecINS0_10hidl_arrayIhLm32EJEEEEEEEE"
  },
  {
   "name":"_ZN7android8hardware4wifi10supplicant4V1_130BpHwSupplicantStaIfaceCallback12onEapFailureEv"
  },
  {
   "name":"_ZN7android8hardware4wifi10supplicant4V1_130BpHwSupplicantStaIfaceCallback13unlinkToDeathERKNS_2spINS0_20hidl_death_recipientEEE"
  },
  {
   "name":"_ZN7android8hardware4wifi10supplicant4V1_130BpHwSupplicantStaIfaceCallback14interfaceChainENSt3__18functionIFvRKNS0_8hidl_vecINS0_11hidl_stringEEEEEE"
  },
  {
   "name":"_ZN7android8hardware4wifi10supplicant4V1_130BpHwSupplicantStaIfaceCallback14onBssidChangedENS2_4V1_027ISupplicantStaIfaceCallback17BssidChangeReasonERKNS0_10hidl_arrayIhLm6EJEEE"
  },
  {
   "name":"_ZN7android8hardware4wifi10supplicant4V1_130BpHwSupplicantStaIfaceCallback14onDisconnectedERKNS0_10hidl_arrayIhLm6EJEEEbNS2_4V1_027ISupplicantStaIfaceCallback10ReasonCodeE"
  },
  {
   "name":"_ZN7android8hardware4wifi10supplicant4V1_130BpHwSupplicantStaIfaceCallback14onNetworkAddedEj"
  },
  {
   "name":"_ZN7android8hardware4wifi10supplicant4V1_130BpHwSupplicantStaIfaceCallback14onStateChangedENS2_4V1_027ISupplicantStaIfaceCallback5StateERKNS0_10hidl_arrayIhLm6EJEEEjRKNS0_8hidl_vecIhEE"
  },
  {
   "name":"_ZN7android8hardware4wifi10supplicant4V1_130BpHwSupplicantStaIfaceCallback14onWpsEventFailERKNS0_10hidl_arrayIhLm6EJEEENS2_4V1_027ISupplicantStaIfaceCallback14WpsConfigErrorENSA_18WpsErrorIndicationE"
  },
  {
   "name":"_ZN7android8hardware4wifi10supplicant4V1_130BpHwSupplicantStaIfaceCallback15onAnqpQueryDoneERKNS0_10hidl_arrayIhLm6EJEEERKNS2_4V1_027ISupplicantStaIfaceCallback8AnqpDataERKNSA_12Hs20AnqpDataE"
  },
  {
   "name":"_ZN7android8hardware4wifi10supplicant4V1_130BpHwSupplicantStaIfaceCallback16onEapFailure_1_1ENS3_27ISupplicantStaIfaceCallback12EapErrorCodeE"
  },
  {
   "name":"_ZN7android8hardware4wifi10supplicant4V1_130BpHwSupplicantStaIfaceCallback16onNetworkRemovedEj"
  },
  {
   "name":"_ZN7android8hardware4wifi10supplicant4V1_130BpHwSupplicantStaIfaceCallback17onWpsEventSuccessEv"
  },
  {
   "name":"_ZN7android8hardware4wifi10supplicant4V1_130BpHwSupplicantStaIfaceCallback19interfaceDescriptorENSt3__18functionIFvRKNS0_11hidl_stringEEEE"
  },
  {
   "name":"_ZN7android8hardware4wifi10supplicant4V1_130BpHwSupplicantStaIfaceCallback19onExtRadioWorkStartEj"
  },
  {
   "name":"_ZN7android8hardware4wifi10supplicant4V1_130BpHwSupplicantStaIfaceCallback19onHs20IconQueryDoneERKNS0_10hidl_arrayIhLm6EJEEERKNS0_11hidl_stringERKNS0_8hidl_vecIhEE"
  },
  {
   "name":"_ZN7android8hardware4wifi10supplicant4V1_130BpHwSupplicantStaIfaceCallback20onWpsEventPbcOverlapEv"
  },
  {
   "name":"_ZN7android8hardware4wifi10supplicant4V1_130BpHwSupplicantStaIfaceCallback21notifySyspropsChangedEv"
  },
  {
   "name":"_ZN7android8hardware4wifi10supplicant4V1_130BpHwSupplicantStaIfaceCallback21onAssociationRejectedERKNS0_10hidl_arrayIhLm6EJEEENS2_4V1_027ISupplicantStaIfaceCallback10StatusCodeEb"
  },
  {
   "name":"_ZN7android8hardware4wifi10supplicant4V1_130BpHwSupplicantStaIfaceCallback21onExtRadioWorkTimeoutEj"
  },
  {
   "name":"_ZN7android8hardware4wifi10supplicant4V1_130BpHwSupplicantStaIfaceCallback21setHALInstrumentationEv"
  },
  {
   "name":"_ZN7android8hardware4wifi10supplicant4V1_130BpHwSupplicantStaIfaceCallback22_hidl_onEapFailure_1_1EPNS0_10IInterfaceEPNS0_7details16HidlInstrumentorENS3_27ISupplicantStaIfaceCallback12EapErrorCodeE"
  },
  {
   "name":"_ZN7android8hardware4wifi10supplicant4V1_130BpHwSupplicantStaIfaceCallback23onAuthenticationTimeoutERKNS0_10hidl_arrayIhLm6EJEEE"
  },
  {
   "name":"_ZN7android8hardware4wifi10supplicant4V1_130BpHwSupplicantStaIfaceCallback26onHs20DeauthImminentNoticeERKNS0_10hidl_arrayIhLm6EJEEEjjRKNS0_11hidl_stringE"
  },
  {
   "name":"_ZN7android8hardware4wifi10supplicant4V1_130BpHwSupplicantStaIfaceCallback29onHs20SubscriptionRemediationERKNS0_10hidl_arrayIhLm6EJEEENS2_4V1_027ISupplicantStaIfaceCallback9OsuMethodERKNS0_11hidl_stringE"
  },
  {
   "name":"_ZN7android8hardware4wifi10supplicant4V1_130BpHwSupplicantStaIfaceCallback4pingEv"
  },
  {
   "name":"_ZN7android8hardware4wifi10supplicant4V1_130BpHwSupplicantStaIfaceCallback5debugERKNS0_11hidl_handleERKNS0_8hidl_vecINS0_11hidl_stringEEE"
  },
  {
   "name":"_ZN7android8hardware4wifi10supplicant4V1_130BpHwSupplicantStaIfaceCallbackC1ERKNS_2spINS0_7IBinderEEE"
  },
  {
   "name":"_ZN7android8hardware4wifi10supplicant4V1_130BpHwSupplicantStaIfaceCallbackC2ERKNS_2spINS0_7IBinderEEE"
  },
  {
   "binding":"weak",
   "name":"_ZN7android8hardware7details13castInterfaceINS0_4wifi10supplicant4V1_111ISupplicantENS4_4V1_011ISupplicantENS5_14BpHwSupplicantEEENS0_6ReturnINS_2spIT_EEEENSB_IT0_EEPKcb"
  },
  {
   "binding":"weak",
   "name":"_ZN7android8hardware7details13castInterfaceINS0_4wifi10supplicant4V1_111ISupplicantENS_4hidl4base4V1_05IBaseENS5_14BpHwSupplicantEEENS0_6ReturnINS_2spIT_EEEENSD_IT0_EEPKcb"
  },
  {
   "binding":"weak",
   "name":"_ZN7android8hardware7details13castInterfaceINS0_4wifi10supplicant4V1_119ISupplicantStaIfaceENS4_4V1_016ISupplicantIfaceENS5_22BpHwSupplicantStaIfaceEEENS0_6ReturnINS_2spIT_EEEENSB_IT0_EEPKcb"
  },
  {
   "binding":"weak",
   "name":"_ZN7android8hardware7details13castInterfaceINS0_4wifi10supplicant4V1_119ISupplicantStaIfaceENS4_4V1_019ISupplicantStaIfaceENS5_22BpHwSupplicantStaIfaceEEENS0_6ReturnINS_2spIT_EEEENSB_IT0_EEPKcb"
  },
  {
   "binding":"weak",
   "name":"_ZN7android8hardware7details13castInterfaceINS0_4wifi10supplicant4V1_119ISupplicantStaIfaceENS_4hidl4base4V1_05IBaseENS5_22BpHwSupplicantStaIfaceEEENS0_6ReturnINS_2spIT_EEEENSD_IT0_EEPKcb"
  },
  {
   "binding":"weak",
   "name":"_ZN7android8hardware7details13castInterfaceINS0_4wifi10supplicant4V1_121ISupplicantStaNetworkENS4_4V1_018ISupplicantNetworkENS5_24BpHwSupplicantStaNetworkEEENS0_6ReturnINS_2spIT_EEEENSB_IT0_EEPKcb"
  },
  {
   "binding":"weak",
   "name":"_ZN7android8hardware7details13castInterfaceINS0_4wifi10supplicant4V1_121ISupplicantStaNetworkENS4_4V1_021ISupplicantStaNetworkENS5_24BpHwSupplicantStaNetworkEEENS0_6ReturnINS_2spIT_EEEENSB_IT0_EEPKcb"
  },
  {
   "binding":"weak",
   "name":"_ZN7android8hardware7details13castInterfaceINS0_4wifi10supplicant4V1_121ISupplicantStaNetworkENS_4hidl4base4V1_05IBaseENS5_24BpHwSupplicantStaNetworkEEENS0_6ReturnINS_2spIT_EEEENSD_IT0_EEPKcb"
  },
  {
   "binding":"weak",
   "name":"_ZN7android8hardware7details13castInterfaceINS0_4wifi10supplicant4V1_127ISupplicantStaIfaceCallbackENS4_4V1_027ISupplicantStaIfaceCallbackENS5_30BpHwSupplicantStaIfaceCallbackEEENS0_6ReturnINS_2spIT_EEEENSB_IT0_EEPKcb"
  },
  {
   "binding":"weak",
   "name":"_ZN7android8hardware7details13castInterfaceINS0_4wifi10supplicant4V1_127ISupplicantStaIfaceCallbackENS_4hidl4base4V1_05IBaseENS5_30BpHwSupplicantStaIfaceCallbackEEENS0_6ReturnINS_2spIT_EEEENSD_IT0_EEPKcb"
  },
  {
   "binding":"weak",
   "name":"_ZN7android8hardware7details15wrapPassthroughINS0_4wifi10supplicant4V1_016ISupplicantIfaceEvEENS_2spIT_EES9_"
  },
  {
   "binding":"weak",
   "name":"_ZN7android8hardware7details15wrapPassthroughINS0_4wifi10supplicant4V1_018ISupplicantNetworkEvEENS_2spIT_EES9_"
  },
  {
   "binding":"weak",
   "name":"_ZN7android8hardware7details15wrapPassthroughINS0_4wifi10supplicant4V1_019ISupplicantCallbackEvEENS_2spIT_EES9_"
  },
  {
   "binding":"weak",
   "name":"_ZN7android8hardware7details15wrapPassthroughINS0_4wifi10supplicant4V1_027ISupplicantStaIfaceCallbackEvEENS_2spIT_EES9_"
  },
  {
   "binding":"weak",
   "name":"_ZN7android8hardware7details15wrapPassthroughINS0_4wifi10supplicant4V1_029ISupplicantStaNetworkCallbackEvEENS_2spIT_EES9_"
  },
  {
   "binding":"weak",
   "name":"_ZN7android8hardware7details15wrapPassthroughINS0_4wifi10supplicant4V1_127ISupplicantStaIfaceCallbackEvEENS_2spIT_EES9_"
  },
  {
   "binding":"weak",
   "name":"_ZN7android8hardware7details18getServiceInternalINS0_4wifi10supplicant4V1_114BpHwSupplicantENS5_11ISupplicantEvvEENS_2spIT0_EERKNSt3__112basic_stringIcNSB_11char_traitsIcEENSB_9allocatorIcEEEEbb"
  },
  {
   "binding":"weak",
   "name":"_ZN7android8hardware7details18getServiceInternalINS0_4wifi10supplicant4V1_122BpHwSupplicantStaIfaceENS5_19ISupplicantStaIfaceEvvEENS_2spIT0_EERKNSt3__112basic_stringIcNSB_11char_traitsIcEENSB_9allocatorIcEEEEbb"
  },
  {
   "binding":"weak",
   "name":"_ZN7android8hardware7details18getServiceInternalINS0_4wifi10supplicant4V1_124BpHwSupplicantStaNetworkENS5_21ISupplicantStaNetworkEvvEENS_2spIT0_EERKNSt3__112basic_stringIcNSB_11char_traitsIcEENSB_9allocatorIcEEEEbb"
  },
  {
   "binding":"weak",
   "name":"_ZN7android8hardware7details18getServiceInternalINS0_4wifi10supplicant4V1_130BpHwSupplicantStaIfaceCallbackENS5_27ISupplicantStaIfaceCallbackEvvEENS_2spIT0_EERKNSt3__112basic_stringIcNSB_11char_traitsIcEENSB_9allocatorIcEEEEbb"
  },
  {
   "binding":"weak",
   "name":"_ZN7android8hardware8toBinderINS0_4wifi10supplicant4V1_011ISupplicantEvEENS_2spINS0_7IBinderEEENS6_IT_EE"
  },
  {
   "binding":"weak",
   "name":"_ZN7android8hardware8toBinderINS0_4wifi10supplicant4V1_016ISupplicantIfaceEvEENS_2spINS0_7IBinderEEENS6_IT_EE"
  },
  {
   "binding":"weak",
   "name":"_ZN7android8hardware8toBinderINS0_4wifi10supplicant4V1_018ISupplicantNetworkEvEENS_2spINS0_7IBinderEEENS6_IT_EE"
  },
  {
   "binding":"weak",
   "name":"_ZN7android8hardware8toBinderINS0_4wifi10supplicant4V1_019ISupplicantStaIfaceEvEENS_2spINS0_7IBinderEEENS6_IT_EE"
  },
  {
   "binding":"weak",
   "name":"_ZN7android8hardware8toBinderINS0_4wifi10supplicant4V1_021ISupplicantStaNetworkEvEENS_2spINS0_7IBinderEEENS6_IT_EE"
  },
  {
   "binding":"weak",
   "name":"_ZN7android8hardware8toBinderINS0_4wifi10supplicant4V1_027ISupplicantStaIfaceCallbackEvEENS_2spINS0_7IBinderEEENS6_IT_EE"
  },
  {
   "binding":"weak",
   "name":"_ZN7android8hardware8toBinderINS0_4wifi10supplicant4V1_127ISupplicantStaIfaceCallbackEvEENS_2spINS0_7IBinderEEENS6_IT_EE"
  },
  {
   "binding":"weak",
   "name":"_ZN7android8hardware8toBinderINS_4hidl4base4V1_05IBaseEvEENS_2spINS0_7IBinderEEENS6_IT_EE"
  },
  {
   "name":"_ZThn32_N7android8hardware4wifi10supplicant4V1_114BnHwSupplicantD0Ev"
  },
  {
   "name":"_ZThn32_N7android8hardware4wifi10supplicant4V1_114BnHwSupplicantD1Ev"
  },
  {
   "name":"_ZThn32_N7android8hardware4wifi10supplicant4V1_122BnHwSupplicantStaIfaceD0Ev"
  },
  {
   "name":"_ZThn32_N7android8hardware4wifi10supplicant4V1_122BnHwSupplicantStaIfaceD1Ev"
  },
  {
   "name":"_ZThn32_N7android8hardware4wifi10supplicant4V1_124BnHwSupplicantStaNetworkD0Ev"
  },
  {
   "name":"_ZThn32_N7android8hardware4wifi10supplicant4V1_124BnHwSupplicantStaNetworkD1Ev"
  },
  {
   "name":"_ZThn32_N7android8hardware4wifi10supplicant4V1_130BnHwSupplicantStaIfaceCallbackD0Ev"
  },
  {
   "name":"_ZThn32_N7android8hardware4wifi10supplicant4V1_130BnHwSupplicantStaIfaceCallbackD1Ev"
  },
  {
   "name":"_ZTv0_n24_N7android8hardware4wifi10supplicant4V1_114BnHwSupplicantD0Ev"
  },
  {
   "name":"_ZTv0_n24_N7android8hardware4wifi10supplicant4V1_114BnHwSupplicantD1Ev"
  },
  {
   "name":"_ZTv0_n24_N7android8hardware4wifi10supplicant4V1_122BnHwSupplicantStaIfaceD0Ev"
  },
  {
   "name":"_ZTv0_n24_N7android8hardware4wifi10supplicant4V1_122BnHwSupplicantStaIfaceD1Ev"
  },
  {
   "name":"_ZTv0_n24_N7android8hardware4wifi10supplicant4V1_124BnHwSupplicantStaNetworkD0Ev"
  },
  {
   "name":"_ZTv0_n24_N7android8hardware4wifi10supplicant4V1_124BnHwSupplicantStaNetworkD1Ev"
  },
  {
   "name":"_ZTv0_n24_N7android8hardware4wifi10supplicant4V1_130BnHwSupplicantStaIfaceCallbackD0Ev"
  },
  {
   "name":"_ZTv0_n24_N7android8hardware4wifi10supplicant4V1_130BnHwSupplicantStaIfaceCallbackD1Ev"
  }
 ],
 "elf_objects":[
  {
   "name":"_ZN7android8hardware4wifi10supplicant4V1_111ISupplicant10descriptorE"
  },
  {
   "name":"_ZN7android8hardware4wifi10supplicant4V1_119ISupplicantStaIface10descriptorE"
  },
  {
   "name":"_ZN7android8hardware4wifi10supplicant4V1_121ISupplicantStaNetwork10descriptorE"
  },
  {
   "name":"_ZN7android8hardware4wifi10supplicant4V1_127ISupplicantStaIfaceCallback10descriptorE"
  },
  {
   "name":"_ZTTN7android8hardware4wifi10supplicant4V1_111ISupplicantE"
  },
  {
   "name":"_ZTTN7android8hardware4wifi10supplicant4V1_114BnHwSupplicantE"
  },
  {
   "name":"_ZTTN7android8hardware4wifi10supplicant4V1_114BpHwSupplicantE"
  },
  {
   "name":"_ZTTN7android8hardware4wifi10supplicant4V1_119ISupplicantStaIfaceE"
  },
  {
   "name":"_ZTTN7android8hardware4wifi10supplicant4V1_121ISupplicantStaNetworkE"
  },
  {
   "name":"_ZTTN7android8hardware4wifi10supplicant4V1_122BnHwSupplicantStaIfaceE"
  },
  {
   "name":"_ZTTN7android8hardware4wifi10supplicant4V1_122BpHwSupplicantStaIfaceE"
  },
  {
   "name":"_ZTTN7android8hardware4wifi10supplicant4V1_124BnHwSupplicantStaNetworkE"
  },
  {
   "name":"_ZTTN7android8hardware4wifi10supplicant4V1_124BpHwSupplicantStaNetworkE"
  },
  {
   "name":"_ZTTN7android8hardware4wifi10supplicant4V1_127ISupplicantStaIfaceCallbackE"
  },
  {
   "name":"_ZTTN7android8hardware4wifi10supplicant4V1_130BnHwSupplicantStaIfaceCallbackE"
  },
  {
   "name":"_ZTTN7android8hardware4wifi10supplicant4V1_130BpHwSupplicantStaIfaceCallbackE"
  },
  {
   "name":"_ZTVN7android8hardware4wifi10supplicant4V1_111ISupplicantE"
  },
  {
   "binding":"weak",
   "name":"_ZTVN7android8hardware4wifi10supplicant4V1_112BsSupplicantE"
  },
  {
   "name":"_ZTVN7android8hardware4wifi10supplicant4V1_114BnHwSupplicantE"
  },
  {
   "name":"_ZTVN7android8hardware4wifi10supplicant4V1_114BpHwSupplicantE"
  },
  {
   "name":"_ZTVN7android8hardware4wifi10supplicant4V1_119ISupplicantStaIfaceE"
  },
  {
   "binding":"weak",
   "name":"_ZTVN7android8hardware4wifi10supplicant4V1_120BsSupplicantStaIfaceE"
  },
  {
   "name":"_ZTVN7android8hardware4wifi10supplicant4V1_121ISupplicantStaNetworkE"
  },
  {
   "name":"_ZTVN7android8hardware4wifi10supplicant4V1_122BnHwSupplicantStaIfaceE"
  },
  {
   "name":"_ZTVN7android8hardware4wifi10supplicant4V1_122BpHwSupplicantStaIfaceE"
  },
  {
   "binding":"weak",
   "name":"_ZTVN7android8hardware4wifi10supplicant4V1_122BsSupplicantStaNetworkE"
  },
  {
   "name":"_ZTVN7android8hardware4wifi10supplicant4V1_124BnHwSupplicantStaNetworkE"
  },
  {
   "name":"_ZTVN7android8hardware4wifi10supplicant4V1_124BpHwSupplicantStaNetworkE"
  },
  {
   "name":"_ZTVN7android8hardware4wifi10supplicant4V1_127ISupplicantStaIfaceCallbackE"
  },
  {
   "binding":"weak",
   "name":"_ZTVN7android8hardware4wifi10supplicant4V1_128BsSupplicantStaIfaceCallbackE"
  },
  {
   "name":"_ZTVN7android8hardware4wifi10supplicant4V1_130BnHwSupplicantStaIfaceCallbackE"
  },
  {
   "name":"_ZTVN7android8hardware4wifi10supplicant4V1_130BpHwSupplicantStaIfaceCallbackE"
  }
 ]
}