{
 "record_types":[
  {
   "vtable_components":[
    {
     "kind":"vbase_offset",
     "component_value":8
    },
    {
     "kind":"offset_to_top"
    },
    {
     "kind":"rtti",
     "mangled_component_name":"_ZTIN7android8hardware5audio6effect4V4_023ILoudnessEnhancerEffectE"
    },
    {
     "mangled_component_name":"_ZNK7android8hardware5audio6effect4V4_023ILoudnessEnhancerEffect8isRemoteEv"
    },
    {
     "mangled_component_name":"_ZN7android8hardware5audio6effect4V4_023ILoudnessEnhancerEffect14interfaceChainENSt3__18functionIFvRKNS0_8hidl_vecINS0_11hidl_stringEEEEEE"
    },
    {
     "mangled_component_name":"_ZN7android8hardware5audio6effect4V4_023ILoudnessEnhancerEffect5debugERKNS0_11hidl_handleERKNS0_8hidl_vecINS0_11hidl_stringEEE"
    },
    {
     "mangled_component_name":"_ZN7android8hardware5audio6effect4V4_023ILoudnessEnhancerEffect19interfaceDescriptorENSt3__18functionIFvRKNS0_11hidl_stringEEEE"
    },
    {
     "mangled_component_name":"_ZN7android8hardware5audio6effect4V4_023ILoudnessEnhancerEffect12getHashChainENSt3__18functionIFvRKNS0_8hidl_vecINS0_10hidl_arrayIhLm32EJEEEEEEEE"
    },
    {
     "mangled_component_name":"_ZN7android8hardware5audio6effect4V4_023ILoudnessEnhancerEffect21setHALInstrumentationEv"
    },
    {
     "mangled_component_name":"_ZN7android8hardware5audio6effect4V4_023ILoudnessEnhancerEffect11linkToDeathERKNS_2spINS0_20hidl_death_recipientEEEm"
    },
    {
     "mangled_component_name":"_ZN7android8hardware5audio6effect4V4_023ILoudnessEnhancerEffect4pingEv"
    },
    {
     "mangled_component_name":"_ZN7android8hardware5audio6effect4V4_023ILoudnessEnhancerEffect12getDebugInfoENSt3__18functionIFvRKNS_4hidl4base4V1_09DebugInfoEEEE"
    },
    {
     "mangled_component_name":"_ZN7android8hardware5audio6effect4V4_023ILoudnessEnhancerEffect21notifySyspropsChangedEv"
    },
    {
     "mangled_component_name":"_ZN7android8hardware5audio6effect4V4_023ILoudnessEnhancerEffect13unlinkToDeathERKNS_2spINS0_20hidl_death_recipientEEE"
    },
    {
     "kind":"complete_dtor_pointer",
     "mangled_component_name":"_ZN7android8hardware5audio6effect4V4_023ILoudnessEnhancerEffectD1Ev"
    },
    {
     "kind":"deleting_dtor_pointer",
     "mangled_component_name":"_ZN7android8hardware5audio6effect4V4_023ILoudnessEnhancerEffectD0Ev"
    },
    {
     "is_pure":true,
     "mangled_component_name":"_ZN7android8hardware5audio6effect4V4_023ILoudnessEnhancerEffect4initEv"
    },
    {
     "is_pure":true,
     "mangled_component_name":"_ZN7android8hardware5audio6effect4V4_023ILoudnessEnhancerEffect9setConfigERKNS3_12EffectConfigERKNS_2spINS3_29IEffectBufferProviderCallbackEEESC_"
    },
    {
     "is_pure":true,
     "mangled_component_name":"_ZN7android8hardware5audio6effect4V4_023ILoudnessEnhancerEffect5resetEv"
    },
    {
     "is_pure":true,
     "mangled_component_name":"_ZN7android8hardware5audio6effect4V4_023ILoudnessEnhancerEffect6enableEv"
    },
    {
     "is_pure":true,
     "mangled_component_name":"_ZN7android8hardware5audio6effect4V4_023ILoudnessEnhancerEffect7disableEv"
    },
    {
     "is_pure":true,
     "mangled_component_name":"_ZN7android8hardware5audio6effect4V4_023ILoudnessEnhancerEffect9setDeviceEj"
    },
    {
     "is_pure":true,
     "mangled_component_name":"_ZN7android8hardware5audio6effect4V4_023ILoudnessEnhancerEffect15setAndGetVolumeERKNS0_8hidl_vecIjEENSt3__18functionIFvNS3_6ResultES8_EEE"
    },
    {
     "is_pure":true,
     "mangled_component_name":"_ZN7android8hardware5audio6effect4V4_023ILoudnessEnhancerEffect24volumeChangeNotificationERKNS0_8hidl_vecIjEE"
    },
    {
     "is_pure":true,
     "mangled_component_name":"_ZN7android8hardware5audio6effect4V4_023ILoudnessEnhancerEffect12setAudioModeENS1_6common4V4_09AudioModeE"
    },
    {
     "is_pure":true,
     "mangled_component_name":"_ZN7android8hardware5audio6effect4V4_023ILoudnessEnhancerEffect16setConfigReverseERKNS3_12EffectConfigERKNS_2spINS3_29IEffectBufferProviderCallbackEEESC_"
    },
    {
     "is_pure":true,
     "mangled_component_name":"_ZN7android8hardware5audio6effect4V4_023ILoudnessEnhancerEffect14setInputDeviceEj"
    },
    {
     "is_pure":true,
     "mangled_component_name":"_ZN7android8hardware5audio6effect4V4_023ILoudnessEnhancerEffect9getConfigENSt3__18functionIFvNS3_6ResultERKNS3_12EffectConfigEEEE"
    },
    {
     "is_pure":true,
     "mangled_component_name":"_ZN7android8hardware5audio6effect4V4_023ILoudnessEnhancerEffect16getConfigReverseENSt3__18functionIFvNS3_6ResultERKNS3_12EffectConfigEEEE"
    },
    {
     "is_pure":true,
     "mangled_component_name":"_ZN7android8hardware5audio6effect4V4_023ILoudnessEnhancerEffect30getSupportedAuxChannelsConfigsEjNSt3__18functionIFvNS3_6ResultERKNS0_8hidl_vecINS3_23EffectAuxChannelsConfigEEEEEE"
    },
    {
     "is_pure":true,
     "mangled_component_name":"_ZN7android8hardware5audio6effect4V4_023ILoudnessEnhancerEffect20getAuxChannelsConfigENSt3__18functionIFvNS3_6ResultERKNS3_23EffectAuxChannelsConfigEEEE"
    },
    {
     "is_pure":true,
     "mangled_component_name":"_ZN7android8hardware5audio6effect4V4_023ILoudnessEnhancerEffect20setAuxChannelsConfigERKNS3_23EffectAuxChannelsConfigE"
    },
    {
     "is_pure":true,
     "mangled_component_name":"_ZN7android8hardware5audio6effect4V4_023ILoudnessEnhancerEffect14setAudioSourceENS1_6common4V4_011AudioSourceE"
    },
    {
     "is_pure":true,
     "mangled_component_name":"_ZN7android8hardware5audio6effect4V4_023ILoudnessEnhancerEffect7offloadERKNS3_22EffectOffloadParameterE"
    },
    {
     "is_pure":true,
     "mangled_component_name":"_ZN7android8hardware5audio6effect4V4_023ILoudnessEnhancerEffect13getDescriptorENSt3__18functionIFvNS3_6ResultERKNS3_16EffectDescriptorEEEE"
    },
    {
     "is_pure":true,
     "mangled_component_name":"_ZN7android8hardware5audio6effect4V4_023ILoudnessEnhancerEffect20prepareForProcessingENSt3__18functionIFvNS3_6ResultERKNS0_12MQDescriptorIS7_LNS0_8MQFlavorE1EEEEEE"
    },
    {
     "is_pure":true,
     "mangled_component_name":"_ZN7android8hardware5audio6effect4V4_023ILoudnessEnhancerEffect17setProcessBuffersERKNS3_11AudioBufferES7_"
    },
    {
     "is_pure":true,
     "mangled_component_name":"_ZN7android8hardware5audio6effect4V4_023ILoudnessEnhancerEffect7commandEjRKNS0_8hidl_vecIhEEjNSt3__18functionIFviS8_EEE"
    },
    {
     "is_pure":true,
     "mangled_component_name":"_ZN7android8hardware5audio6effect4V4_023ILoudnessEnhancerEffect12setParameterERKNS0_8hidl_vecIhEES8_"
    },
    {
     "is_pure":true,
     "mangled_component_name":"_ZN7android8hardware5audio6effect4V4_023ILoudnessEnhancerEffect12getParameterERKNS0_8hidl_vecIhEEjNSt3__18functionIFvNS3_6ResultES8_EEE"
    },
    {
     "is_pure":true,
     "mangled_component_name":"_ZN7android8hardware5audio6effect4V4_023ILoudnessEnhancerEffect29getSupportedConfigsForFeatureEjjjNSt3__18functionIFvNS3_6ResultEjRKNS0_8hidl_vecIhEEEEE"
    },
    {
     "is_pure":true,
     "mangled_component_name":"_ZN7android8hardware5audio6effect4V4_023ILoudnessEnhancerEffect26getCurrentConfigForFeatureEjjNSt3__18functionIFvNS3_6ResultERKNS0_8hidl_vecIhEEEEE"
    },
    {
     "is_pure":true,
     "mangled_component_name":"_ZN7android8hardware5audio6effect4V4_023ILoudnessEnhancerEffect26setCurrentConfigForFeatureEjRKNS0_8hidl_vecIhEE"
    },
    {
     "is_pure":true,
     "mangled_component_name":"_ZN7android8hardware5audio6effect4V4_023ILoudnessEnhancerEffect5closeEv"
    },
    {
     "is_pure":true,
     "mangled_component_name":"_ZN7android8hardware5audio6effect4V4_023ILoudnessEnhancerEffect13setTargetGainEi"
    },
    {
     "is_pure":true,
     "mangled_component_name":"_ZN7android8hardware5audio6effect4V4_023ILoudnessEnhancerEffect13getTargetGainENSt3__18functionIFvNS3_6ResultEiEEE"
    },
    {
     "kind":"vcall_offset"
    },
    {
     "kind":"vcall_offset"
    },
    {
     "kind":"vcall_offset"
    },
    {
     "kind":"vcall_offset"
    },
    {
     "kind":"vcall_offset",
     "component_value":-8
    },
    {
     "kind":"offset_to_top",
     "component_value":-8
    },
    {
     "kind":"rtti",
     "mangled_component_name":"_ZTIN7android8hardware5audio6effect4V4_023ILoudnessEnhancerEffectE"
    },
    {
     "kind":"complete_dtor_pointer",
     "mangled_component_name":"_ZTv0_n24_N7android8hardware5audio6effect4V4_023ILoudnessEnhancerEffectD1Ev"
    },
    {
     "kind":"deleting_dtor_pointer",
     "mangled_component_name":"_ZTv0_n24_N7android8hardware5audio6effect4V4_023ILoudnessEnhancerEffectD0Ev"
    },
    {
     "mangled_component_name":"_ZN7android7RefBase10onFirstRefEv"
    },
    {
     "mangled_component_name":"_ZN7android7RefBase15onLastStrongRefEPKv"
    },
    {
     "mangled_component_name":"_ZN7android7RefBase20onIncStrongAttemptedEjPKv"
    },
    {
     "mangled_component_name":"_ZN7android7RefBase13onLastWeakRefEPKv"
    }
   ],
   "unique_id":"_ZTSN7android8hardware5audio6effect4V4_023ILoudnessEnhancerEffectE"
  },
  {
   "vtable_components":[
    {
     "kind":"vbase_offset",
     "component_value":136
    },
    {
     "kind":"offset_to_top"
    },
    {
     "kind":"rtti",
     "mangled_component_name":"_ZTIN7android8hardware5audio6effect4V4_026BnHwLoudnessEnhancerEffectE"
    },
    {
     "mangled_component_name":"_ZN7android8hardware9BHwBinder8transactEjRKNS0_6ParcelEPS2_jNSt3__18functionIFvRS2_EEE"
    },
    {
     "mangled_component_name":"_ZN7android8hardware9BHwBinder11linkToDeathERKNS_2spINS0_7IBinder14DeathRecipientEEEPvj"
    },
    {
     "mangled_component_name":"_ZN7android8hardware9BHwBinder13unlinkToDeathERKNS_2wpINS0_7IBinder14DeathRecipientEEEPvjPS5_"
    },
    {
     "mangled_component_name":"_ZNK7android8hardware7IBinder13checkSubclassEPKv"
    },
    {
     "mangled_component_name":"_ZN7android8hardware9BHwBinder12attachObjectEPKvPvS4_PFvS3_S4_S4_E"
    },
    {
     "mangled_component_name":"_ZNK7android8hardware9BHwBinder10findObjectEPKv"
    },
    {
     "mangled_component_name":"_ZN7android8hardware9BHwBinder12detachObjectEPKv"
    },
    {
     "mangled_component_name":"_ZN7android8hardware9BHwBinder11localBinderEv"
    },
    {
     "mangled_component_name":"_ZN7android8hardware7IBinder12remoteBinderEv"
    },
    {
     "kind":"complete_dtor_pointer",
     "mangled_component_name":"_ZN7android8hardware5audio6effect4V4_026BnHwLoudnessEnhancerEffectD1Ev"
    },
    {
     "kind":"deleting_dtor_pointer",
     "mangled_component_name":"_ZN7android8hardware5audio6effect4V4_026BnHwLoudnessEnhancerEffectD0Ev"
    },
    {
     "mangled_component_name":"_ZN7android8hardware5audio6effect4V4_026BnHwLoudnessEnhancerEffect10onTransactEjRKNS0_6ParcelEPS5_jNSt3__18functionIFvRS5_EEE"
    },
    {
     "kind":"offset_to_top",
     "component_value":-32
    },
    {
     "kind":"rtti",
     "mangled_component_name":"_ZTIN7android8hardware5audio6effect4V4_026BnHwLoudnessEnhancerEffectE"
    },
    {
     "kind":"complete_dtor_pointer",
     "mangled_component_name":"_ZThn32_N7android8hardware5audio6effect4V4_026BnHwLoudnessEnhancerEffectD1Ev"
    },
    {
     "kind":"deleting_dtor_pointer",
     "mangled_component_name":"_ZThn32_N7android8hardware5audio6effect4V4_026BnHwLoudnessEnhancerEffectD0Ev"
    },
    {
     "kind":"vcall_offset"
    },
    {
     "kind":"vcall_offset"
    },
    {
     "kind":"vcall_offset"
    },
    {
     "kind":"vcall_offset"
    },
    {
     "kind":"vcall_offset",
     "component_value":-136
    },
    {
     "kind":"offset_to_top",
     "component_value":-136
    },
    {
     "kind":"rtti",
     "mangled_component_name":"_ZTIN7android8hardware5audio6effect4V4_026BnHwLoudnessEnhancerEffectE"
    },
    {
     "kind":"complete_dtor_pointer",
     "mangled_component_name":"_ZTv0_n24_N7android8hardware5audio6effect4V4_026BnHwLoudnessEnhancerEffectD1Ev"
    },
    {
     "kind":"deleting_dtor_pointer",
     "mangled_component_name":"_ZTv0_n24_N7android8hardware5audio6effect4V4_026BnHwLoudnessEnhancerEffectD0Ev"
    },
    {
     "mangled_component_name":"_ZN7android7RefBase10onFirstRefEv"
    },
    {
     "mangled_component_name":"_ZN7android7RefBase15onLastStrongRefEPKv"
    },
    {
     "mangled_component_name":"_ZN7android7RefBase20onIncStrongAttemptedEjPKv"
    },
    {
     "mangled_component_name":"_ZN7android7RefBase13onLastWeakRefEPKv"
    }
   ],
   "unique_id":"_ZTSN7android8hardware5audio6effect4V4_026BnHwLoudnessEnhancerEffectE"
  },
  {
   "vtable_components":[
    {
     "kind":"vbase_offset",
     "component_value":120
    },
    {
     "kind":"offset_to_top"
    },
    {
     "kind":"rtti",
     "mangled_component_name":"_ZTIN7android8hardware5audio6effect4V4_024BsLoudnessEnhancerEffectE"
    },
    {
     "mangled_component_name":"_ZNK7android8hardware5audio6effect4V4_023ILoudnessEnhancerEffect8isRemoteEv"
    },
    {
     "mangled_component_name":"_ZN7android8hardware5audio6effect4V4_024BsLoudnessEnhancerEffect14interfaceChainENSt3__18functionIFvRKNS0_8hidl_vecINS0_11hidl_stringEEEEEE"
    },
    {
     "mangled_component_name":"_ZN7android8hardware5audio6effect4V4_024BsLoudnessEnhancerEffect5debugERKNS0_11hidl_handleERKNS0_8hidl_vecINS0_11hidl_stringEEE"
    },
    {
     "mangled_component_name":"_ZN7android8hardware5audio6effect4V4_024BsLoudnessEnhancerEffect19interfaceDescriptorENSt3__18functionIFvRKNS0_11hidl_stringEEEE"
    },
    {
     "mangled_component_name":"_ZN7android8hardware5audio6effect4V4_024BsLoudnessEnhancerEffect12getHashChainENSt3__18functionIFvRKNS0_8hidl_vecINS0_10hidl_arrayIhLm32EJEEEEEEEE"
    },
    {
     "mangled_component_name":"_ZN7android8hardware5audio6effect4V4_024BsLoudnessEnhancerEffect21setHALInstrumentationEv"
    },
    {
     "mangled_component_name":"_ZN7android8hardware5audio6effect4V4_024BsLoudnessEnhancerEffect11linkToDeathERKNS_2spINS0_20hidl_death_recipientEEEm"
    },
    {
     "mangled_component_name":"_ZN7android8hardware5audio6effect4V4_024BsLoudnessEnhancerEffect4pingEv"
    },
    {
     "mangled_component_name":"_ZN7android8hardware5audio6effect4V4_024BsLoudnessEnhancerEffect12getDebugInfoENSt3__18functionIFvRKNS_4hidl4base4V1_09DebugInfoEEEE"
    },
    {
     "mangled_component_name":"_ZN7android8hardware5audio6effect4V4_024BsLoudnessEnhancerEffect21notifySyspropsChangedEv"
    },
    {
     "mangled_component_name":"_ZN7android8hardware5audio6effect4V4_024BsLoudnessEnhancerEffect13unlinkToDeathERKNS_2spINS0_20hidl_death_recipientEEE"
    },
    {
     "kind":"complete_dtor_pointer",
     "mangled_component_name":"_ZN7android8hardware5audio6effect4V4_024BsLoudnessEnhancerEffectD1Ev"
    },
    {
     "kind":"deleting_dtor_pointer",
     "mangled_component_name":"_ZN7android8hardware5audio6effect4V4_024BsLoudnessEnhancerEffectD0Ev"
    },
    {
     "mangled_component_name":"_ZN7android8hardware5audio6effect4V4_024BsLoudnessEnhancerEffect4initEv"
    },
    {
     "mangled_component_name":"_ZN7android8hardware5audio6effect4V4_024BsLoudnessEnhancerEffect9setConfigERKNS3_12EffectConfigERKNS_2spINS3_29IEffectBufferProviderCallbackEEESC_"
    },
    {
     "mangled_component_name":"_ZN7android8hardware5audio6effect4V4_024BsLoudnessEnhancerEffect5resetEv"
    },
    {
     "mangled_component_name":"_ZN7android8hardware5audio6effect4V4_024BsLoudnessEnhancerEffect6enableEv"
    },
    {
     "mangled_component_name":"_ZN7android8hardware5audio6effect4V4_024BsLoudnessEnhancerEffect7disableEv"
    },
    {
     "mangled_component_name":"_ZN7android8hardware5audio6effect4V4_024BsLoudnessEnhancerEffect9setDeviceEj"
    },
    {
     "mangled_component_name":"_ZN7android8hardware5audio6effect4V4_024BsLoudnessEnhancerEffect15setAndGetVolumeERKNS0_8hidl_vecIjEENSt3__18functionIFvNS3_6ResultES8_EEE"
    },
    {
     "mangled_component_name":"_ZN7android8hardware5audio6effect4V4_024BsLoudnessEnhancerEffect24volumeChangeNotificationERKNS0_8hidl_vecIjEE"
    },
    {
     "mangled_component_name":"_ZN7android8hardware5audio6effect4V4_024BsLoudnessEnhancerEffect12setAudioModeENS1_6common4V4_09AudioModeE"
    },
    {
     "mangled_component_name":"_ZN7android8hardware5audio6effect4V4_024BsLoudnessEnhancerEffect16setConfigReverseERKNS3_12EffectConfigERKNS_2spINS3_29IEffectBufferProviderCallbackEEESC_"
    },
    {
     "mangled_component_name":"_ZN7android8hardware5audio6effect4V4_024BsLoudnessEnhancerEffect14setInputDeviceEj"
    },
    {
     "mangled_component_name":"_ZN7android8hardware5audio6effect4V4_024BsLoudnessEnhancerEffect9getConfigENSt3__18functionIFvNS3_6ResultERKNS3_12EffectConfigEEEE"
    },
    {
     "mangled_component_name":"_ZN7android8hardware5audio6effect4V4_024BsLoudnessEnhancerEffect16getConfigReverseENSt3__18functionIFvNS3_6ResultERKNS3_12EffectConfigEEEE"
    },
    {
     "mangled_component_name":"_ZN7android8hardware5audio6effect4V4_024BsLoudnessEnhancerEffect30getSupportedAuxChannelsConfigsEjNSt3__18functionIFvNS3_6ResultERKNS0_8hidl_vecINS3_23EffectAuxChannelsConfigEEEEEE"
    },
    {
     "mangled_component_name":"_ZN7android8hardware5audio6effect4V4_024BsLoudnessEnhancerEffect20getAuxChannelsConfigENSt3__18functionIFvNS3_6ResultERKNS3_23EffectAuxChannelsConfigEEEE"
    },
    {
     "mangled_component_name":"_ZN7android8hardware5audio6effect4V4_024BsLoudnessEnhancerEffect20setAuxChannelsConfigERKNS3_23EffectAuxChannelsConfigE"
    },
    {
     "mangled_component_name":"_ZN7android8hardware5audio6effect4V4_024BsLoudnessEnhancerEffect14setAudioSourceENS1_6common4V4_011AudioSourceE"
    },
    {
     "mangled_component_name":"_ZN7android8hardware5audio6effect4V4_024BsLoudnessEnhancerEffect7offloadERKNS3_22EffectOffloadParameterE"
    },
    {
     "mangled_component_name":"_ZN7android8hardware5audio6effect4V4_024BsLoudnessEnhancerEffect13getDescriptorENSt3__18functionIFvNS3_6ResultERKNS3_16EffectDescriptorEEEE"
    },
    {
     "mangled_component_name":"_ZN7android8hardware5audio6effect4V4_024BsLoudnessEnhancerEffect20prepareForProcessingENSt3__18functionIFvNS3_6ResultERKNS0_12MQDescriptorIS7_LNS0_8MQFlavorE1EEEEEE"
    },
    {
     "mangled_component_name":"_ZN7android8hardware5audio6effect4V4_024BsLoudnessEnhancerEffect17setProcessBuffersERKNS3_11AudioBufferES7_"
    },
    {
     "mangled_component_name":"_ZN7android8hardware5audio6effect4V4_024BsLoudnessEnhancerEffect7commandEjRKNS0_8hidl_vecIhEEjNSt3__18functionIFviS8_EEE"
    },
    {
     "mangled_component_name":"_ZN7android8hardware5audio6effect4V4_024BsLoudnessEnhancerEffect12setParameterERKNS0_8hidl_vecIhEES8_"
    },
    {
     "mangled_component_name":"_ZN7android8hardware5audio6effect4V4_024BsLoudnessEnhancerEffect12getParameterERKNS0_8hidl_vecIhEEjNSt3__18functionIFvNS3_6ResultES8_EEE"
    },
    {
     "mangled_component_name":"_ZN7android8hardware5audio6effect4V4_024BsLoudnessEnhancerEffect29getSupportedConfigsForFeatureEjjjNSt3__18functionIFvNS3_6ResultEjRKNS0_8hidl_vecIhEEEEE"
    },
    {
     "mangled_component_name":"_ZN7android8hardware5audio6effect4V4_024BsLoudnessEnhancerEffect26getCurrentConfigForFeatureEjjNSt3__18functionIFvNS3_6ResultERKNS0_8hidl_vecIhEEEEE"
    },
    {
     "mangled_component_name":"_ZN7android8hardware5audio6effect4V4_024BsLoudnessEnhancerEffect26setCurrentConfigForFeatureEjRKNS0_8hidl_vecIhEE"
    },
    {
     "mangled_component_name":"_ZN7android8hardware5audio6effect4V4_024BsLoudnessEnhancerEffect5closeEv"
    },
    {
     "mangled_component_name":"_ZN7android8hardware5audio6effect4V4_024BsLoudnessEnhancerEffect13setTargetGainEi"
    },
    {
     "mangled_component_name":"_ZN7android8hardware5audio6effect4V4_024BsLoudnessEnhancerEffect13getTargetGainENSt3__18functionIFvNS3_6ResultEiEEE"
    },
    {
     "kind":"offset_to_top",
     "component_value":-8
    },
    {
     "kind":"rtti",
     "mangled_component_name":"_ZTIN7android8hardware5audio6effect4V4_024BsLoudnessEnhancerEffectE"
    },
    {
     "kind":"complete_dtor_pointer",
     "mangled_component_name":"_ZThn8_N7android8hardware5audio6effect4V4_024BsLoudnessEnhancerEffectD1Ev"
    },
    {
     "kind":"deleting_dtor_pointer",
     "mangled_component_name":"_ZThn8_N7android8hardware5audio6effect4V4_024BsLoudnessEnhancerEffectD0Ev"
    },
    {
     "kind":"vcall_offset"
    },
    {
     "kind":"vcall_offset"
    },
    {
     "kind":"vcall_offset"
    },
    {
     "kind":"vcall_offset"
    },
    {
     "kind":"vcall_offset",
     "component_value":-120
    },
    {
     "kind":"offset_to_top",
     "component_value":-120
    },
    {
     "kind":"rtti",
     "mangled_component_name":"_ZTIN7android8hardware5audio6effect4V4_024BsLoudnessEnhancerEffectE"
    },
    {
     "kind":"complete_dtor_pointer",
     "mangled_component_name":"_ZTv0_n24_N7android8hardware5audio6effect4V4_024BsLoudnessEnhancerEffectD1Ev"
    },
    {
     "kind":"deleting_dtor_pointer",
     "mangled_component_name":"_ZTv0_n24_N7android8hardware5audio6effect4V4_024BsLoudnessEnhancerEffectD0Ev"
    },
    {
     "mangled_component_name":"_ZN7android7RefBase10onFirstRefEv"
    },
    {
     "mangled_component_name":"_ZN7android7RefBase15onLastStrongRefEPKv"
    },
    {
     "mangled_component_name":"_ZN7android7RefBase20onIncStrongAttemptedEjPKv"
    },
    {
     "mangled_component_name":"_ZN7android7RefBase13onLastWeakRefEPKv"
    }
   ],
   "unique_id":"_ZTSN7android8hardware5audio6effect4V4_024BsLoudnessEnhancerEffectE"
  },
  {
   "vtable_components":[
    {
     "kind":"vbase_offset",
     "component_value":200
    },
    {
     "kind":"offset_to_top"
    },
    {
     "kind":"rtti",
     "mangled_component_name":"_ZTIN7android8hardware5audio6effect4V4_026BpHwLoudnessEnhancerEffectE"
    },
    {
     "mangled_component_name":"_ZNK7android8hardware5audio6effect4V4_026BpHwLoudnessEnhancerEffect8isRemoteEv"
    },
    {
     "mangled_component_name":"_ZN7android8hardware5audio6effect4V4_026BpHwLoudnessEnhancerEffect14interfaceChainENSt3__18functionIFvRKNS0_8hidl_vecINS0_11hidl_stringEEEEEE"
    },
    {
     "mangled_component_name":"_ZN7android8hardware5audio6effect4V4_026BpHwLoudnessEnhancerEffect5debugERKNS0_11hidl_handleERKNS0_8hidl_vecINS0_11hidl_stringEEE"
    },
    {
     "mangled_component_name":"_ZN7android8hardware5audio6effect4V4_026BpHwLoudnessEnhancerEffect19interfaceDescriptorENSt3__18functionIFvRKNS0_11hidl_stringEEEE"
    },
    {
     "mangled_component_name":"_ZN7android8hardware5audio6effect4V4_026BpHwLoudnessEnhancerEffect12getHashChainENSt3__18functionIFvRKNS0_8hidl_vecINS0_10hidl_arrayIhLm32EJEEEEEEEE"
    },
    {
     "mangled_component_name":"_ZN7android8hardware5audio6effect4V4_026BpHwLoudnessEnhancerEffect21setHALInstrumentationEv"
    },
    {
     "mangled_component_name":"_ZN7android8hardware5audio6effect4V4_026BpHwLoudnessEnhancerEffect11linkToDeathERKNS_2spINS0_20hidl_death_recipientEEEm"
    },
    {
     "mangled_component_name":"_ZN7android8hardware5audio6effect4V4_026BpHwLoudnessEnhancerEffect4pingEv"
    },
    {
     "mangled_component_name":"_ZN7android8hardware5audio6effect4V4_026BpHwLoudnessEnhancerEffect12getDebugInfoENSt3__18functionIFvRKNS_4hidl4base4V1_09DebugInfoEEEE"
    },
    {
     "mangled_component_name":"_ZN7android8hardware5audio6effect4V4_026BpHwLoudnessEnhancerEffect21notifySyspropsChangedEv"
    },
    {
     "mangled_component_name":"_ZN7android8hardware5audio6effect4V4_026BpHwLoudnessEnhancerEffect13unlinkToDeathERKNS_2spINS0_20hidl_death_recipientEEE"
    },
    {
     "kind":"complete_dtor_pointer",
     "mangled_component_name":"_ZN7android8hardware5audio6effect4V4_026BpHwLoudnessEnhancerEffectD1Ev"
    },
    {
     "kind":"deleting_dtor_pointer",
     "mangled_component_name":"_ZN7android8hardware5audio6effect4V4_026BpHwLoudnessEnhancerEffectD0Ev"
    },
    {
     "mangled_component_name":"_ZN7android8hardware5audio6effect4V4_026BpHwLoudnessEnhancerEffect4initEv"
    },
    {
     "mangled_component_name":"_ZN7android8hardware5audio6effect4V4_026BpHwLoudnessEnhancerEffect9setConfigERKNS3_12EffectConfigERKNS_2spINS3_29IEffectBufferProviderCallbackEEESC_"
    },
    {
     "mangled_component_name":"_ZN7android8hardware5audio6effect4V4_026BpHwLoudnessEnhancerEffect5resetEv"
    },
    {
     "mangled_component_name":"_ZN7android8hardware5audio6effect4V4_026BpHwLoudnessEnhancerEffect6enableEv"
    },
    {
     "mangled_component_name":"_ZN7android8hardware5audio6effect4V4_026BpHwLoudnessEnhancerEffect7disableEv"
    },
    {
     "mangled_component_name":"_ZN7android8hardware5audio6effect4V4_026BpHwLoudnessEnhancerEffect9setDeviceEj"
    },
    {
     "mangled_component_name":"_ZN7android8hardware5audio6effect4V4_026BpHwLoudnessEnhancerEffect15setAndGetVolumeERKNS0_8hidl_vecIjEENSt3__18functionIFvNS3_6ResultES8_EEE"
    },
    {
     "mangled_component_name":"_ZN7android8hardware5audio6effect4V4_026BpHwLoudnessEnhancerEffect24volumeChangeNotificationERKNS0_8hidl_vecIjEE"
    },
    {
     "mangled_component_name":"_ZN7android8hardware5audio6effect4V4_026BpHwLoudnessEnhancerEffect12setAudioModeENS1_6common4V4_09AudioModeE"
    },
    {
     "mangled_component_name":"_ZN7android8hardware5audio6effect4V4_026BpHwLoudnessEnhancerEffect16setConfigReverseERKNS3_12EffectConfigERKNS_2spINS3_29IEffectBufferProviderCallbackEEESC_"
    },
    {
     "mangled_component_name":"_ZN7android8hardware5audio6effect4V4_026BpHwLoudnessEnhancerEffect14setInputDeviceEj"
    },
    {
     "mangled_component_name":"_ZN7android8hardware5audio6effect4V4_026BpHwLoudnessEnhancerEffect9getConfigENSt3__18functionIFvNS3_6ResultERKNS3_12EffectConfigEEEE"
    },
    {
     "mangled_component_name":"_ZN7android8hardware5audio6effect4V4_026BpHwLoudnessEnhancerEffect16getConfigReverseENSt3__18functionIFvNS3_6ResultERKNS3_12EffectConfigEEEE"
    },
    {
     "mangled_component_name":"_ZN7android8hardware5audio6effect4V4_026BpHwLoudnessEnhancerEffect30getSupportedAuxChannelsConfigsEjNSt3__18functionIFvNS3_6ResultERKNS0_8hidl_vecINS3_23EffectAuxChannelsConfigEEEEEE"
    },
    {
     "mangled_component_name":"_ZN7android8hardware5audio6effect4V4_026BpHwLoudnessEnhancerEffect20getAuxChannelsConfigENSt3__18functionIFvNS3_6ResultERKNS3_23EffectAuxChannelsConfigEEEE"
    },
    {
     "mangled_component_name":"_ZN7android8hardware5audio6effect4V4_026BpHwLoudnessEnhancerEffect20setAuxChannelsConfigERKNS3_23EffectAuxChannelsConfigE"
    },
    {
     "mangled_component_name":"_ZN7android8hardware5audio6effect4V4_026BpHwLoudnessEnhancerEffect14setAudioSourceENS1_6common4V4_011AudioSourceE"
    },
    {
     "mangled_component_name":"_ZN7android8hardware5audio6effect4V4_026BpHwLoudnessEnhancerEffect7offloadERKNS3_22EffectOffloadParameterE"
    },
    {
     "mangled_component_name":"_ZN7android8hardware5audio6effect4V4_026BpHwLoudnessEnhancerEffect13getDescriptorENSt3__18functionIFvNS3_6ResultERKNS3_16EffectDescriptorEEEE"
    },
    {
     "mangled_component_name":"_ZN7android8hardware5audio6effect4V4_026BpHwLoudnessEnhancerEffect20prepareForProcessingENSt3__18functionIFvNS3_6ResultERKNS0_12MQDescriptorIS7_LNS0_8MQFlavorE1EEEEEE"
    },
    {
     "mangled_component_name":"_ZN7android8hardware5audio6effect4V4_026BpHwLoudnessEnhancerEffect17setProcessBuffersERKNS3_11AudioBufferES7_"
    },
    {
     "mangled_component_name":"_ZN7android8hardware5audio6effect4V4_026BpHwLoudnessEnhancerEffect7commandEjRKNS0_8hidl_vecIhEEjNSt3__18functionIFviS8_EEE"
    },
    {
     "mangled_component_name":"_ZN7android8hardware5audio6effect4V4_026BpHwLoudnessEnhancerEffect12setParameterERKNS0_8hidl_vecIhEES8_"
    },
    {
     "mangled_component_name":"_ZN7android8hardware5audio6effect4V4_026BpHwLoudnessEnhancerEffect12getParameterERKNS0_8hidl_vecIhEEjNSt3__18functionIFvNS3_6ResultES8_EEE"
    },
    {
     "mangled_component_name":"_ZN7android8hardware5audio6effect4V4_026BpHwLoudnessEnhancerEffect29getSupportedConfigsForFeatureEjjjNSt3__18functionIFvNS3_6ResultEjRKNS0_8hidl_vecIhEEEEE"
    },
    {
     "mangled_component_name":"_ZN7android8hardware5audio6effect4V4_026BpHwLoudnessEnhancerEffect26getCurrentConfigForFeatureEjjNSt3__18functionIFvNS3_6ResultERKNS0_8hidl_vecIhEEEEE"
    },
    {
     "mangled_component_name":"_ZN7android8hardware5audio6effect4V4_026BpHwLoudnessEnhancerEffect26setCurrentConfigForFeatureEjRKNS0_8hidl_vecIhEE"
    },
    {
     "mangled_component_name":"_ZN7android8hardware5audio6effect4V4_026BpHwLoudnessEnhancerEffect5closeEv"
    },
    {
     "mangled_component_name":"_ZN7android8hardware5audio6effect4V4_026BpHwLoudnessEnhancerEffect13setTargetGainEi"
    },
    {
     "mangled_component_name":"_ZN7android8hardware5audio6effect4V4_026BpHwLoudnessEnhancerEffect13getTargetGainENSt3__18functionIFvNS3_6ResultEiEEE"
    },
    {
     "mangled_component_name":"_ZN7android8hardware11BpInterfaceINS0_5audio6effect4V4_023ILoudnessEnhancerEffectEE10onAsBinderEv"
    },
    {
     "kind":"vbase_offset",
     "component_value":192
    },
    {
     "kind":"offset_to_top",
     "component_value":-8
    },
    {
     "kind":"rtti",
     "mangled_component_name":"_ZTIN7android8hardware5audio6effect4V4_026BpHwLoudnessEnhancerEffectE"
    },
    {
     "kind":"complete_dtor_pointer",
     "mangled_component_name":"_ZThn8_N7android8hardware5audio6effect4V4_026BpHwLoudnessEnhancerEffectD1Ev"
    },
    {
     "kind":"deleting_dtor_pointer",
     "mangled_component_name":"_ZThn8_N7android8hardware5audio6effect4V4_026BpHwLoudnessEnhancerEffectD0Ev"
    },
    {
     "mangled_component_name":"_ZThn8_N7android8hardware11BpInterfaceINS0_5audio6effect4V4_023ILoudnessEnhancerEffectEE10onAsBinderEv"
    },
    {
     "kind":"vbase_offset",
     "component_value":184
    },
    {
     "kind":"offset_to_top",
     "component_value":-16
    },
    {
     "kind":"rtti",
     "mangled_component_name":"_ZTIN7android8hardware5audio6effect4V4_026BpHwLoudnessEnhancerEffectE"
    },
    {
     "kind":"complete_dtor_pointer",
     "mangled_component_name":"_ZThn16_N7android8hardware5audio6effect4V4_026BpHwLoudnessEnhancerEffectD1Ev"
    },
    {
     "kind":"deleting_dtor_pointer",
     "mangled_component_name":"_ZThn16_N7android8hardware5audio6effect4V4_026BpHwLoudnessEnhancerEffectD0Ev"
    },
    {
     "mangled_component_name":"_ZN7android8hardware11BpHwRefBase10onFirstRefEv"
    },
    {
     "mangled_component_name":"_ZN7android8hardware11BpHwRefBase15onLastStrongRefEPKv"
    },
    {
     "mangled_component_name":"_ZN7android8hardware11BpHwRefBase20onIncStrongAttemptedEjPKv"
    },
    {
     "kind":"offset_to_top",
     "component_value":-48
    },
    {
     "kind":"rtti",
     "mangled_component_name":"_ZTIN7android8hardware5audio6effect4V4_026BpHwLoudnessEnhancerEffectE"
    },
    {
     "kind":"complete_dtor_pointer",
     "mangled_component_name":"_ZThn48_N7android8hardware5audio6effect4V4_026BpHwLoudnessEnhancerEffectD1Ev"
    },
    {
     "kind":"deleting_dtor_pointer",
     "mangled_component_name":"_ZThn48_N7android8hardware5audio6effect4V4_026BpHwLoudnessEnhancerEffectD0Ev"
    },
    {
     "kind":"vcall_offset"
    },
    {
     "kind":"vcall_offset",
     "component_value":-184
    },
    {
     "kind":"vcall_offset",
     "component_value":-184
    },
    {
     "kind":"vcall_offset",
     "component_value":-184
    },
    {
     "kind":"vcall_offset",
     "component_value":-200
    },
    {
     "kind":"offset_to_top",
     "component_value":-200
    },
    {
     "kind":"rtti",
     "mangled_component_name":"_ZTIN7android8hardware5audio6effect4V4_026BpHwLoudnessEnhancerEffectE"
    },
    {
     "kind":"complete_dtor_pointer",
     "mangled_component_name":"_ZTv0_n24_N7android8hardware5audio6effect4V4_026BpHwLoudnessEnhancerEffectD1Ev"
    },
    {
     "kind":"deleting_dtor_pointer",
     "mangled_component_name":"_ZTv0_n24_N7android8hardware5audio6effect4V4_026BpHwLoudnessEnhancerEffectD0Ev"
    },
    {
     "mangled_component_name":"_ZTv0_n32_N7android8hardware11BpHwRefBase10onFirstRefEv"
    },
    {
     "mangled_component_name":"_ZTv0_n40_N7android8hardware11BpHwRefBase15onLastStrongRefEPKv"
    },
    {
     "mangled_component_name":"_ZTv0_n48_N7android8hardware11BpHwRefBase20onIncStrongAttemptedEjPKv"
    },
    {
     "mangled_component_name":"_ZN7android7RefBase13onLastWeakRefEPKv"
    }
   ],
   "unique_id":"_ZTSN7android8hardware5audio6effect4V4_026BpHwLoudnessEnhancerEffectE"
  },
  {
   "vtable_components":[
    {
     "kind":"vbase_offset",
     "component_value":8
    },
    {
     "kind":"offset_to_top"
    },
    {
     "kind":"rtti",
     "mangled_component_name":"_ZTIN7android8hardware5audio6effect4V4_023INoiseSuppressionEffectE"
    },
    {
     "mangled_component_name":"_ZNK7android8hardware5audio6effect4V4_023INoiseSuppressionEffect8isRemoteEv"
    },
    {
     "mangled_component_name":"_ZN7android8hardware5audio6effect4V4_023INoiseSuppressionEffect14interfaceChainENSt3__18functionIFvRKNS0_8hidl_vecINS0_11hidl_stringEEEEEE"
    },
    {
     "mangled_component_name":"_ZN7android8hardware5audio6effect4V4_023INoiseSuppressionEffect5debugERKNS0_11hidl_handleERKNS0_8hidl_vecINS0_11hidl_stringEEE"
    },
    {
     "mangled_component_name":"_ZN7android8hardware5audio6effect4V4_023INoiseSuppressionEffect19interfaceDescriptorENSt3__18functionIFvRKNS0_11hidl_stringEEEE"
    },
    {
     "mangled_component_name":"_ZN7android8hardware5audio6effect4V4_023INoiseSuppressionEffect12getHashChainENSt3__18functionIFvRKNS0_8hidl_vecINS0_10hidl_arrayIhLm32EJEEEEEEEE"
    },
    {
     "mangled_component_name":"_ZN7android8hardware5audio6effect4V4_023INoiseSuppressionEffect21setHALInstrumentationEv"
    },
    {
     "mangled_component_name":"_ZN7android8hardware5audio6effect4V4_023INoiseSuppressionEffect11linkToDeathERKNS_2spINS0_20hidl_death_recipientEEEm"
    },
    {
     "mangled_component_name":"_ZN7android8hardware5audio6effect4V4_023INoiseSuppressionEffect4pingEv"
    },
    {
     "mangled_component_name":"_ZN7android8hardware5audio6effect4V4_023INoiseSuppressionEffect12getDebugInfoENSt3__18functionIFvRKNS_4hidl4base4V1_09DebugInfoEEEE"
    },
    {
     "mangled_component_name":"_ZN7android8hardware5audio6effect4V4_023INoiseSuppressionEffect21notifySyspropsChangedEv"
    },
    {
     "mangled_component_name":"_ZN7android8hardware5audio6effect4V4_023INoiseSuppressionEffect13unlinkToDeathERKNS_2spINS0_20hidl_death_recipientEEE"
    },
    {
     "kind":"complete_dtor_pointer",
     "mangled_component_name":"_ZN7android8hardware5audio6effect4V4_023INoiseSuppressionEffectD1Ev"
    },
    {
     "kind":"deleting_dtor_pointer",
     "mangled_component_name":"_ZN7android8hardware5audio6effect4V4_023INoiseSuppressionEffectD0Ev"
    },
    {
     "is_pure":true,
     "mangled_component_name":"_ZN7android8hardware5audio6effect4V4_023INoiseSuppressionEffect4initEv"
    },
    {
     "is_pure":true,
     "mangled_component_name":"_ZN7android8hardware5audio6effect4V4_023INoiseSuppressionEffect9setConfigERKNS3_12EffectConfigERKNS_2spINS3_29IEffectBufferProviderCallbackEEESC_"
    },
    {
     "is_pure":true,
     "mangled_component_name":"_ZN7android8hardware5audio6effect4V4_023INoiseSuppressionEffect5resetEv"
    },
    {
     "is_pure":true,
     "mangled_component_name":"_ZN7android8hardware5audio6effect4V4_023INoiseSuppressionEffect6enableEv"
    },
    {
     "is_pure":true,
     "mangled_component_name":"_ZN7android8hardware5audio6effect4V4_023INoiseSuppressionEffect7disableEv"
    },
    {
     "is_pure":true,
     "mangled_component_name":"_ZN7android8hardware5audio6effect4V4_023INoiseSuppressionEffect9setDeviceEj"
    },
    {
     "is_pure":true,
     "mangled_component_name":"_ZN7android8hardware5audio6effect4V4_023INoiseSuppressionEffect15setAndGetVolumeERKNS0_8hidl_vecIjEENSt3__18functionIFvNS3_6ResultES8_EEE"
    },
    {
     "is_pure":true,
     "mangled_component_name":"_ZN7android8hardware5audio6effect4V4_023INoiseSuppressionEffect24volumeChangeNotificationERKNS0_8hidl_vecIjEE"
    },
    {
     "is_pure":true,
     "mangled_component_name":"_ZN7android8hardware5audio6effect4V4_023INoiseSuppressionEffect12setAudioModeENS1_6common4V4_09AudioModeE"
    },
    {
     "is_pure":true,
     "mangled_component_name":"_ZN7android8hardware5audio6effect4V4_023INoiseSuppressionEffect16setConfigReverseERKNS3_12EffectConfigERKNS_2spINS3_29IEffectBufferProviderCallbackEEESC_"
    },
    {
     "is_pure":true,
     "mangled_component_name":"_ZN7android8hardware5audio6effect4V4_023INoiseSuppressionEffect14setInputDeviceEj"
    },
    {
     "is_pure":true,
     "mangled_component_name":"_ZN7android8hardware5audio6effect4V4_023INoiseSuppressionEffect9getConfigENSt3__18functionIFvNS3_6ResultERKNS3_12EffectConfigEEEE"
    },
    {
     "is_pure":true,
     "mangled_component_name":"_ZN7android8hardware5audio6effect4V4_023INoiseSuppressionEffect16getConfigReverseENSt3__18functionIFvNS3_6ResultERKNS3_12EffectConfigEEEE"
    },
    {
     "is_pure":true,
     "mangled_component_name":"_ZN7android8hardware5audio6effect4V4_023INoiseSuppressionEffect30getSupportedAuxChannelsConfigsEjNSt3__18functionIFvNS3_6ResultERKNS0_8hidl_vecINS3_23EffectAuxChannelsConfigEEEEEE"
    },
    {
     "is_pure":true,
     "mangled_component_name":"_ZN7android8hardware5audio6effect4V4_023INoiseSuppressionEffect20getAuxChannelsConfigENSt3__18functionIFvNS3_6ResultERKNS3_23EffectAuxChannelsConfigEEEE"
    },
    {
     "is_pure":true,
     "mangled_component_name":"_ZN7android8hardware5audio6effect4V4_023INoiseSuppressionEffect20setAuxChannelsConfigERKNS3_23EffectAuxChannelsConfigE"
    },
    {
     "is_pure":true,
     "mangled_component_name":"_ZN7android8hardware5audio6effect4V4_023INoiseSuppressionEffect14setAudioSourceENS1_6common4V4_011AudioSourceE"
    },
    {
     "is_pure":true,
     "mangled_component_name":"_ZN7android8hardware5audio6effect4V4_023INoiseSuppressionEffect7offloadERKNS3_22EffectOffloadParameterE"
    },
    {
     "is_pure":true,
     "mangled_component_name":"_ZN7android8hardware5audio6effect4V4_023INoiseSuppressionEffect13getDescriptorENSt3__18functionIFvNS3_6ResultERKNS3_16EffectDescriptorEEEE"
    },
    {
     "is_pure":true,
     "mangled_component_name":"_ZN7android8hardware5audio6effect4V4_023INoiseSuppressionEffect20prepareForProcessingENSt3__18functionIFvNS3_6ResultERKNS0_12MQDescriptorIS7_LNS0_8MQFlavorE1EEEEEE"
    },
    {
     "is_pure":true,
     "mangled_component_name":"_ZN7android8hardware5audio6effect4V4_023INoiseSuppressionEffect17setProcessBuffersERKNS3_11AudioBufferES7_"
    },
    {
     "is_pure":true,
     "mangled_component_name":"_ZN7android8hardware5audio6effect4V4_023INoiseSuppressionEffect7commandEjRKNS0_8hidl_vecIhEEjNSt3__18functionIFviS8_EEE"
    },
    {
     "is_pure":true,
     "mangled_component_name":"_ZN7android8hardware5audio6effect4V4_023INoiseSuppressionEffect12setParameterERKNS0_8hidl_vecIhEES8_"
    },
    {
     "is_pure":true,
     "mangled_component_name":"_ZN7android8hardware5audio6effect4V4_023INoiseSuppressionEffect12getParameterERKNS0_8hidl_vecIhEEjNSt3__18functionIFvNS3_6ResultES8_EEE"
    },
    {
     "is_pure":true,
     "mangled_component_name":"_ZN7android8hardware5audio6effect4V4_023INoiseSuppressionEffect29getSupportedConfigsForFeatureEjjjNSt3__18functionIFvNS3_6ResultEjRKNS0_8hidl_vecIhEEEEE"
    },
    {
     "is_pure":true,
     "mangled_component_name":"_ZN7android8hardware5audio6effect4V4_023INoiseSuppressionEffect26getCurrentConfigForFeatureEjjNSt3__18functionIFvNS3_6ResultERKNS0_8hidl_vecIhEEEEE"
    },
    {
     "is_pure":true,
     "mangled_component_name":"_ZN7android8hardware5audio6effect4V4_023INoiseSuppressionEffect26setCurrentConfigForFeatureEjRKNS0_8hidl_vecIhEE"
    },
    {
     "is_pure":true,
     "mangled_component_name":"_ZN7android8hardware5audio6effect4V4_023INoiseSuppressionEffect5closeEv"
    },
    {
     "is_pure":true,
     "mangled_component_name":"_ZN7android8hardware5audio6effect4V4_023INoiseSuppressionEffect19setSuppressionLevelENS4_5LevelE"
    },
    {
     "is_pure":true,
     "mangled_component_name":"_ZN7android8hardware5audio6effect4V4_023INoiseSuppressionEffect19getSuppressionLevelENSt3__18functionIFvNS3_6ResultENS4_5LevelEEEE"
    },
    {
     "is_pure":true,
     "mangled_component_name":"_ZN7android8hardware5audio6effect4V4_023INoiseSuppressionEffect18setSuppressionTypeENS4_4TypeE"
    },
    {
     "is_pure":true,
     "mangled_component_name":"_ZN7android8hardware5audio6effect4V4_023INoiseSuppressionEffect18getSuppressionTypeENSt3__18functionIFvNS3_6ResultENS4_4TypeEEEE"
    },
    {
     "is_pure":true,
     "mangled_component_name":"_ZN7android8hardware5audio6effect4V4_023INoiseSuppressionEffect16setAllPropertiesERKNS4_13AllPropertiesE"
    },
    {
     "is_pure":true,
     "mangled_component_name":"_ZN7android8hardware5audio6effect4V4_023INoiseSuppressionEffect16getAllPropertiesENSt3__18functionIFvNS3_6ResultERKNS4_13AllPropertiesEEEE"
    },
    {
     "kind":"vcall_offset"
    },
    {
     "kind":"vcall_offset"
    },
    {
     "kind":"vcall_offset"
    },
    {
     "kind":"vcall_offset"
    },
    {
     "kind":"vcall_offset",
     "component_value":-8
    },
    {
     "kind":"offset_to_top",
     "component_value":-8
    },
    {
     "kind":"rtti",
     "mangled_component_name":"_ZTIN7android8hardware5audio6effect4V4_023INoiseSuppressionEffectE"
    },
    {
     "kind":"complete_dtor_pointer",
     "mangled_component_name":"_ZTv0_n24_N7android8hardware5audio6effect4V4_023INoiseSuppressionEffectD1Ev"
    },
    {
     "kind":"deleting_dtor_pointer",
     "mangled_component_name":"_ZTv0_n24_N7android8hardware5audio6effect4V4_023INoiseSuppressionEffectD0Ev"
    },
    {
     "mangled_component_name":"_ZN7android7RefBase10onFirstRefEv"
    },
    {
     "mangled_component_name":"_ZN7android7RefBase15onLastStrongRefEPKv"
    },
    {
     "mangled_component_name":"_ZN7android7RefBase20onIncStrongAttemptedEjPKv"
    },
    {
     "mangled_component_name":"_ZN7android7RefBase13onLastWeakRefEPKv"
    }
   ],
   "unique_id":"_ZTSN7android8hardware5audio6effect4V4_023INoiseSuppressionEffectE"
  },
  {
   "vtable_components":[
    {
     "kind":"vbase_offset",
     "component_value":136
    },
    {
     "kind":"offset_to_top"
    },
    {
     "kind":"rtti",
     "mangled_component_name":"_ZTIN7android8hardware5audio6effect4V4_026BnHwNoiseSuppressionEffectE"
    },
    {
     "mangled_component_name":"_ZN7android8hardware9BHwBinder8transactEjRKNS0_6ParcelEPS2_jNSt3__18functionIFvRS2_EEE"
    },
    {
     "mangled_component_name":"_ZN7android8hardware9BHwBinder11linkToDeathERKNS_2spINS0_7IBinder14DeathRecipientEEEPvj"
    },
    {
     "mangled_component_name":"_ZN7android8hardware9BHwBinder13unlinkToDeathERKNS_2wpINS0_7IBinder14DeathRecipientEEEPvjPS5_"
    },
    {
     "mangled_component_name":"_ZNK7android8hardware7IBinder13checkSubclassEPKv"
    },
    {
     "mangled_component_name":"_ZN7android8hardware9BHwBinder12attachObjectEPKvPvS4_PFvS3_S4_S4_E"
    },
    {
     "mangled_component_name":"_ZNK7android8hardware9BHwBinder10findObjectEPKv"
    },
    {
     "mangled_component_name":"_ZN7android8hardware9BHwBinder12detachObjectEPKv"
    },
    {
     "mangled_component_name":"_ZN7android8hardware9BHwBinder11localBinderEv"
    },
    {
     "mangled_component_name":"_ZN7android8hardware7IBinder12remoteBinderEv"
    },
    {
     "kind":"complete_dtor_pointer",
     "mangled_component_name":"_ZN7android8hardware5audio6effect4V4_026BnHwNoiseSuppressionEffectD1Ev"
    },
    {
     "kind":"deleting_dtor_pointer",
     "mangled_component_name":"_ZN7android8hardware5audio6effect4V4_026BnHwNoiseSuppressionEffectD0Ev"
    },
    {
     "mangled_component_name":"_ZN7android8hardware5audio6effect4V4_026BnHwNoiseSuppressionEffect10onTransactEjRKNS0_6ParcelEPS5_jNSt3__18functionIFvRS5_EEE"
    },
    {
     "kind":"offset_to_top",
     "component_value":-32
    },
    {
     "kind":"rtti",
     "mangled_component_name":"_ZTIN7android8hardware5audio6effect4V4_026BnHwNoiseSuppressionEffectE"
    },
    {
     "kind":"complete_dtor_pointer",
     "mangled_component_name":"_ZThn32_N7android8hardware5audio6effect4V4_026BnHwNoiseSuppressionEffectD1Ev"
    },
    {
     "kind":"deleting_dtor_pointer",
     "mangled_component_name":"_ZThn32_N7android8hardware5audio6effect4V4_026BnHwNoiseSuppressionEffectD0Ev"
    },
    {
     "kind":"vcall_offset"
    },
    {
     "kind":"vcall_offset"
    },
    {
     "kind":"vcall_offset"
    },
    {
     "kind":"vcall_offset"
    },
    {
     "kind":"vcall_offset",
     "component_value":-136
    },
    {
     "kind":"offset_to_top",
     "component_value":-136
    },
    {
     "kind":"rtti",
     "mangled_component_name":"_ZTIN7android8hardware5audio6effect4V4_026BnHwNoiseSuppressionEffectE"
    },
    {
     "kind":"complete_dtor_pointer",
     "mangled_component_name":"_ZTv0_n24_N7android8hardware5audio6effect4V4_026BnHwNoiseSuppressionEffectD1Ev"
    },
    {
     "kind":"deleting_dtor_pointer",
     "mangled_component_name":"_ZTv0_n24_N7android8hardware5audio6effect4V4_026BnHwNoiseSuppressionEffectD0Ev"
    },
    {
     "mangled_component_name":"_ZN7android7RefBase10onFirstRefEv"
    },
    {
     "mangled_component_name":"_ZN7android7RefBase15onLastStrongRefEPKv"
    },
    {
     "mangled_component_name":"_ZN7android7RefBase20onIncStrongAttemptedEjPKv"
    },
    {
     "mangled_component_name":"_ZN7android7RefBase13onLastWeakRefEPKv"
    }
   ],
   "unique_id":"_ZTSN7android8hardware5audio6effect4V4_026BnHwNoiseSuppressionEffectE"
  },
  {
   "vtable_components":[
    {
     "kind":"vbase_offset",
     "component_value":120
    },
    {
     "kind":"offset_to_top"
    },
    {
     "kind":"rtti",
     "mangled_component_name":"_ZTIN7android8hardware5audio6effect4V4_024BsNoiseSuppressionEffectE"
    },
    {
     "mangled_component_name":"_ZNK7android8hardware5audio6effect4V4_023INoiseSuppressionEffect8isRemoteEv"
    },
    {
     "mangled_component_name":"_ZN7android8hardware5audio6effect4V4_024BsNoiseSuppressionEffect14interfaceChainENSt3__18functionIFvRKNS0_8hidl_vecINS0_11hidl_stringEEEEEE"
    },
    {
     "mangled_component_name":"_ZN7android8hardware5audio6effect4V4_024BsNoiseSuppressionEffect5debugERKNS0_11hidl_handleERKNS0_8hidl_vecINS0_11hidl_stringEEE"
    },
    {
     "mangled_component_name":"_ZN7android8hardware5audio6effect4V4_024BsNoiseSuppressionEffect19interfaceDescriptorENSt3__18functionIFvRKNS0_11hidl_stringEEEE"
    },
    {
     "mangled_component_name":"_ZN7android8hardware5audio6effect4V4_024BsNoiseSuppressionEffect12getHashChainENSt3__18functionIFvRKNS0_8hidl_vecINS0_10hidl_arrayIhLm32EJEEEEEEEE"
    },
    {
     "mangled_component_name":"_ZN7android8hardware5audio6effect4V4_024BsNoiseSuppressionEffect21setHALInstrumentationEv"
    },
    {
     "mangled_component_name":"_ZN7android8hardware5audio6effect4V4_024BsNoiseSuppressionEffect11linkToDeathERKNS_2spINS0_20hidl_death_recipientEEEm"
    },
    {
     "mangled_component_name":"_ZN7android8hardware5audio6effect4V4_024BsNoiseSuppressionEffect4pingEv"
    },
    {
     "mangled_component_name":"_ZN7android8hardware5audio6effect4V4_024BsNoiseSuppressionEffect12getDebugInfoENSt3__18functionIFvRKNS_4hidl4base4V1_09DebugInfoEEEE"
    },
    {
     "mangled_component_name":"_ZN7android8hardware5audio6effect4V4_024BsNoiseSuppressionEffect21notifySyspropsChangedEv"
    },
    {
     "mangled_component_name":"_ZN7android8hardware5audio6effect4V4_024BsNoiseSuppressionEffect13unlinkToDeathERKNS_2spINS0_20hidl_death_recipientEEE"
    },
    {
     "kind":"complete_dtor_pointer",
     "mangled_component_name":"_ZN7android8hardware5audio6effect4V4_024BsNoiseSuppressionEffectD1Ev"
    },
    {
     "kind":"deleting_dtor_pointer",
     "mangled_component_name":"_ZN7android8hardware5audio6effect4V4_024BsNoiseSuppressionEffectD0Ev"
    },
    {
     "mangled_component_name":"_ZN7android8hardware5audio6effect4V4_024BsNoiseSuppressionEffect4initEv"
    },
    {
     "mangled_component_name":"_ZN7android8hardware5audio6effect4V4_024BsNoiseSuppressionEffect9setConfigERKNS3_12EffectConfigERKNS_2spINS3_29IEffectBufferProviderCallbackEEESC_"
    },
    {
     "mangled_component_name":"_ZN7android8hardware5audio6effect4V4_024BsNoiseSuppressionEffect5resetEv"
    },
    {
     "mangled_component_name":"_ZN7android8hardware5audio6effect4V4_024BsNoiseSuppressionEffect6enableEv"
    },
    {
     "mangled_component_name":"_ZN7android8hardware5audio6effect4V4_024BsNoiseSuppressionEffect7disableEv"
    },
    {
     "mangled_component_name":"_ZN7android8hardware5audio6effect4V4_024BsNoiseSuppressionEffect9setDeviceEj"
    },
    {
     "mangled_component_name":"_ZN7android8hardware5audio6effect4V4_024BsNoiseSuppressionEffect15setAndGetVolumeERKNS0_8hidl_vecIjEENSt3__18functionIFvNS3_6ResultES8_EEE"
    },
    {
     "mangled_component_name":"_ZN7android8hardware5audio6effect4V4_024BsNoiseSuppressionEffect24volumeChangeNotificationERKNS0_8hidl_vecIjEE"
    },
    {
     "mangled_component_name":"_ZN7android8hardware5audio6effect4V4_024BsNoiseSuppressionEffect12setAudioModeENS1_6common4V4_09AudioModeE"
    },
    {
     "mangled_component_name":"_ZN7android8hardware5audio6effect4V4_024BsNoiseSuppressionEffect16setConfigReverseERKNS3_12EffectConfigERKNS_2spINS3_29IEffectBufferProviderCallbackEEESC_"
    },
    {
     "mangled_component_name":"_ZN7android8hardware5audio6effect4V4_024BsNoiseSuppressionEffect14setInputDeviceEj"
    },
    {
     "mangled_component_name":"_ZN7android8hardware5audio6effect4V4_024BsNoiseSuppressionEffect9getConfigENSt3__18functionIFvNS3_6ResultERKNS3_12EffectConfigEEEE"
    },
    {
     "mangled_component_name":"_ZN7android8hardware5audio6effect4V4_024BsNoiseSuppressionEffect16getConfigReverseENSt3__18functionIFvNS3_6ResultERKNS3_12EffectConfigEEEE"
    },
    {
     "mangled_component_name":"_ZN7android8hardware5audio6effect4V4_024BsNoiseSuppressionEffect30getSupportedAuxChannelsConfigsEjNSt3__18functionIFvNS3_6ResultERKNS0_8hidl_vecINS3_23EffectAuxChannelsConfigEEEEEE"
    },
    {
     "mangled_component_name":"_ZN7android8hardware5audio6effect4V4_024BsNoiseSuppressionEffect20getAuxChannelsConfigENSt3__18functionIFvNS3_6ResultERKNS3_23EffectAuxChannelsConfigEEEE"
    },
    {
     "mangled_component_name":"_ZN7android8hardware5audio6effect4V4_024BsNoiseSuppressionEffect20setAuxChannelsConfigERKNS3_23EffectAuxChannelsConfigE"
    },
    {
     "mangled_component_name":"_ZN7android8hardware5audio6effect4V4_024BsNoiseSuppressionEffect14setAudioSourceENS1_6common4V4_011AudioSourceE"
    },
    {
     "mangled_component_name":"_ZN7android8hardware5audio6effect4V4_024BsNoiseSuppressionEffect7offloadERKNS3_22EffectOffloadParameterE"
    },
    {
     "mangled_component_name":"_ZN7android8hardware5audio6effect4V4_024BsNoiseSuppressionEffect13getDescriptorENSt3__18functionIFvNS3_6ResultERKNS3_16EffectDescriptorEEEE"
    },
    {
     "mangled_component_name":"_ZN7android8hardware5audio6effect4V4_024BsNoiseSuppressionEffect20prepareForProcessingENSt3__18functionIFvNS3_6ResultERKNS0_12MQDescriptorIS7_LNS0_8MQFlavorE1EEEEEE"
    },
    {
     "mangled_component_name":"_ZN7android8hardware5audio6effect4V4_024BsNoiseSuppressionEffect17setProcessBuffersERKNS3_11AudioBufferES7_"
    },
    {
     "mangled_component_name":"_ZN7android8hardware5audio6effect4V4_024BsNoiseSuppressionEffect7commandEjRKNS0_8hidl_vecIhEEjNSt3__18functionIFviS8_EEE"
    },
    {
     "mangled_component_name":"_ZN7android8hardware5audio6effect4V4_024BsNoiseSuppressionEffect12setParameterERKNS0_8hidl_vecIhEES8_"
    },
    {
     "mangled_component_name":"_ZN7android8hardware5audio6effect4V4_024BsNoiseSuppressionEffect12getParameterERKNS0_8hidl_vecIhEEjNSt3__18functionIFvNS3_6ResultES8_EEE"
    },
    {
     "mangled_component_name":"_ZN7android8hardware5audio6effect4V4_024BsNoiseSuppressionEffect29getSupportedConfigsForFeatureEjjjNSt3__18functionIFvNS3_6ResultEjRKNS0_8hidl_vecIhEEEEE"
    },
    {
     "mangled_component_name":"_ZN7android8hardware5audio6effect4V4_024BsNoiseSuppressionEffect26getCurrentConfigForFeatureEjjNSt3__18functionIFvNS3_6ResultERKNS0_8hidl_vecIhEEEEE"
    },
    {
     "mangled_component_name":"_ZN7android8hardware5audio6effect4V4_024BsNoiseSuppressionEffect26setCurrentConfigForFeatureEjRKNS0_8hidl_vecIhEE"
    },
    {
     "mangled_component_name":"_ZN7android8hardware5audio6effect4V4_024BsNoiseSuppressionEffect5closeEv"
    },
    {
     "mangled_component_name":"_ZN7android8hardware5audio6effect4V4_024BsNoiseSuppressionEffect19setSuppressionLevelENS3_23INoiseSuppressionEffect5LevelE"
    },
    {
     "mangled_component_name":"_ZN7android8hardware5audio6effect4V4_024BsNoiseSuppressionEffect19getSuppressionLevelENSt3__18functionIFvNS3_6ResultENS3_23INoiseSuppressionEffect5LevelEEEE"
    },
    {
     "mangled_component_name":"_ZN7android8hardware5audio6effect4V4_024BsNoiseSuppressionEffect18setSuppressionTypeENS3_23INoiseSuppressionEffect4TypeE"
    },
    {
     "mangled_component_name":"_ZN7android8hardware5audio6effect4V4_024BsNoiseSuppressionEffect18getSuppressionTypeENSt3__18functionIFvNS3_6ResultENS3_23INoiseSuppressionEffect4TypeEEEE"
    },
    {
     "mangled_component_name":"_ZN7android8hardware5audio6effect4V4_024BsNoiseSuppressionEffect16setAllPropertiesERKNS3_23INoiseSuppressionEffect13AllPropertiesE"
    },
    {
     "mangled_component_name":"_ZN7android8hardware5audio6effect4V4_024BsNoiseSuppressionEffect16getAllPropertiesENSt3__18functionIFvNS3_6ResultERKNS3_23INoiseSuppressionEffect13AllPropertiesEEEE"
    },
    {
     "kind":"offset_to_top",
     "component_value":-8
    },
    {
     "kind":"rtti",
     "mangled_component_name":"_ZTIN7android8hardware5audio6effect4V4_024BsNoiseSuppressionEffectE"
    },
    {
     "kind":"complete_dtor_pointer",
     "mangled_component_name":"_ZThn8_N7android8hardware5audio6effect4V4_024BsNoiseSuppressionEffectD1Ev"
    },
    {
     "kind":"deleting_dtor_pointer",
     "mangled_component_name":"_ZThn8_N7android8hardware5audio6effect4V4_024BsNoiseSuppressionEffectD0Ev"
    },
    {
     "kind":"vcall_offset"
    },
    {
     "kind":"vcall_offset"
    },
    {
     "kind":"vcall_offset"
    },
    {
     "kind":"vcall_offset"
    },
    {
     "kind":"vcall_offset",
     "component_value":-120
    },
    {
     "kind":"offset_to_top",
     "component_value":-120
    },
    {
     "kind":"rtti",
     "mangled_component_name":"_ZTIN7android8hardware5audio6effect4V4_024BsNoiseSuppressionEffectE"
    },
    {
     "kind":"complete_dtor_pointer",
     "mangled_component_name":"_ZTv0_n24_N7android8hardware5audio6effect4V4_024BsNoiseSuppressionEffectD1Ev"
    },
    {
     "kind":"deleting_dtor_pointer",
     "mangled_component_name":"_ZTv0_n24_N7android8hardware5audio6effect4V4_024BsNoiseSuppressionEffectD0Ev"
    },
    {
     "mangled_component_name":"_ZN7android7RefBase10onFirstRefEv"
    },
    {
     "mangled_component_name":"_ZN7android7RefBase15onLastStrongRefEPKv"
    },
    {
     "mangled_component_name":"_ZN7android7RefBase20onIncStrongAttemptedEjPKv"
    },
    {
     "mangled_component_name":"_ZN7android7RefBase13onLastWeakRefEPKv"
    }
   ],
   "unique_id":"_ZTSN7android8hardware5audio6effect4V4_024BsNoiseSuppressionEffectE"
  },
  {
   "vtable_components":[
    {
     "kind":"vbase_offset",
     "component_value":200
    },
    {
     "kind":"offset_to_top"
    },
    {
     "kind":"rtti",
     "mangled_component_name":"_ZTIN7android8hardware5audio6effect4V4_026BpHwNoiseSuppressionEffectE"
    },
    {
     "mangled_component_name":"_ZNK7android8hardware5audio6effect4V4_026BpHwNoiseSuppressionEffect8isRemoteEv"
    },
    {
     "mangled_component_name":"_ZN7android8hardware5audio6effect4V4_026BpHwNoiseSuppressionEffect14interfaceChainENSt3__18functionIFvRKNS0_8hidl_vecINS0_11hidl_stringEEEEEE"
    },
    {
     "mangled_component_name":"_ZN7android8hardware5audio6effect4V4_026BpHwNoiseSuppressionEffect5debugERKNS0_11hidl_handleERKNS0_8hidl_vecINS0_11hidl_stringEEE"
    },
    {
     "mangled_component_name":"_ZN7android8hardware5audio6effect4V4_026BpHwNoiseSuppressionEffect19interfaceDescriptorENSt3__18functionIFvRKNS0_11hidl_stringEEEE"
    },
    {
     "mangled_component_name":"_ZN7android8hardware5audio6effect4V4_026BpHwNoiseSuppressionEffect12getHashChainENSt3__18functionIFvRKNS0_8hidl_vecINS0_10hidl_arrayIhLm32EJEEEEEEEE"
    },
    {
     "mangled_component_name":"_ZN7android8hardware5audio6effect4V4_026BpHwNoiseSuppressionEffect21setHALInstrumentationEv"
    },
    {
     "mangled_component_name":"_ZN7android8hardware5audio6effect4V4_026BpHwNoiseSuppressionEffect11linkToDeathERKNS_2spINS0_20hidl_death_recipientEEEm"
    },
    {
     "mangled_component_name":"_ZN7android8hardware5audio6effect4V4_026BpHwNoiseSuppressionEffect4pingEv"
    },
    {
     "mangled_component_name":"_ZN7android8hardware5audio6effect4V4_026BpHwNoiseSuppressionEffect12getDebugInfoENSt3__18functionIFvRKNS_4hidl4base4V1_09DebugInfoEEEE"
    },
    {
     "mangled_component_name":"_ZN7android8hardware5audio6effect4V4_026BpHwNoiseSuppressionEffect21notifySyspropsChangedEv"
    },
    {
     "mangled_component_name":"_ZN7android8hardware5audio6effect4V4_026BpHwNoiseSuppressionEffect13unlinkToDeathERKNS_2spINS0_20hidl_death_recipientEEE"
    },
    {
     "kind":"complete_dtor_pointer",
     "mangled_component_name":"_ZN7android8hardware5audio6effect4V4_026BpHwNoiseSuppressionEffectD1Ev"
    },
    {
     "kind":"deleting_dtor_pointer",
     "mangled_component_name":"_ZN7android8hardware5audio6effect4V4_026BpHwNoiseSuppressionEffectD0Ev"
    },
    {
     "mangled_component_name":"_ZN7android8hardware5audio6effect4V4_026BpHwNoiseSuppressionEffect4initEv"
    },
    {
     "mangled_component_name":"_ZN7android8hardware5audio6effect4V4_026BpHwNoiseSuppressionEffect9setConfigERKNS3_12EffectConfigERKNS_2spINS3_29IEffectBufferProviderCallbackEEESC_"
    },
    {
     "mangled_component_name":"_ZN7android8hardware5audio6effect4V4_026BpHwNoiseSuppressionEffect5resetEv"
    },
    {
     "mangled_component_name":"_ZN7android8hardware5audio6effect4V4_026BpHwNoiseSuppressionEffect6enableEv"
    },
    {
     "mangled_component_name":"_ZN7android8hardware5audio6effect4V4_026BpHwNoiseSuppressionEffect7disableEv"
    },
    {
     "mangled_component_name":"_ZN7android8hardware5audio6effect4V4_026BpHwNoiseSuppressionEffect9setDeviceEj"
    },
    {
     "mangled_component_name":"_ZN7android8hardware5audio6effect4V4_026BpHwNoiseSuppressionEffect15setAndGetVolumeERKNS0_8hidl_vecIjEENSt3__18functionIFvNS3_6ResultES8_EEE"
    },
    {
     "mangled_component_name":"_ZN7android8hardware5audio6effect4V4_026BpHwNoiseSuppressionEffect24volumeChangeNotificationERKNS0_8hidl_vecIjEE"
    },
    {
     "mangled_component_name":"_ZN7android8hardware5audio6effect4V4_026BpHwNoiseSuppressionEffect12setAudioModeENS1_6common4V4_09AudioModeE"
    },
    {
     "mangled_component_name":"_ZN7android8hardware5audio6effect4V4_026BpHwNoiseSuppressionEffect16setConfigReverseERKNS3_12EffectConfigERKNS_2spINS3_29IEffectBufferProviderCallbackEEESC_"
    },
    {
     "mangled_component_name":"_ZN7android8hardware5audio6effect4V4_026BpHwNoiseSuppressionEffect14setInputDeviceEj"
    },
    {
     "mangled_component_name":"_ZN7android8hardware5audio6effect4V4_026BpHwNoiseSuppressionEffect9getConfigENSt3__18functionIFvNS3_6ResultERKNS3_12EffectConfigEEEE"
    },
    {
     "mangled_component_name":"_ZN7android8hardware5audio6effect4V4_026BpHwNoiseSuppressionEffect16getConfigReverseENSt3__18functionIFvNS3_6ResultERKNS3_12EffectConfigEEEE"
    },
    {
     "mangled_component_name":"_ZN7android8hardware5audio6effect4V4_026BpHwNoiseSuppressionEffect30getSupportedAuxChannelsConfigsEjNSt3__18functionIFvNS3_6ResultERKNS0_8hidl_vecINS3_23EffectAuxChannelsConfigEEEEEE"
    },
    {
     "mangled_component_name":"_ZN7android8hardware5audio6effect4V4_026BpHwNoiseSuppressionEffect20getAuxChannelsConfigENSt3__18functionIFvNS3_6ResultERKNS3_23EffectAuxChannelsConfigEEEE"
    },
    {
     "mangled_component_name":"_ZN7android8hardware5audio6effect4V4_026BpHwNoiseSuppressionEffect20setAuxChannelsConfigERKNS3_23EffectAuxChannelsConfigE"
    },
    {
     "mangled_component_name":"_ZN7android8hardware5audio6effect4V4_026BpHwNoiseSuppressionEffect14setAudioSourceENS1_6common4V4_011AudioSourceE"
    },
    {
     "mangled_component_name":"_ZN7android8hardware5audio6effect4V4_026BpHwNoiseSuppressionEffect7offloadERKNS3_22EffectOffloadParameterE"
    },
    {
     "mangled_component_name":"_ZN7android8hardware5audio6effect4V4_026BpHwNoiseSuppressionEffect13getDescriptorENSt3__18functionIFvNS3_6ResultERKNS3_16EffectDescriptorEEEE"
    },
    {
     "mangled_component_name":"_ZN7android8hardware5audio6effect4V4_026BpHwNoiseSuppressionEffect20prepareForProcessingENSt3__18functionIFvNS3_6ResultERKNS0_12MQDescriptorIS7_LNS0_8MQFlavorE1EEEEEE"
    },
    {
     "mangled_component_name":"_ZN7android8hardware5audio6effect4V4_026BpHwNoiseSuppressionEffect17setProcessBuffersERKNS3_11AudioBufferES7_"
    },
    {
     "mangled_component_name":"_ZN7android8hardware5audio6effect4V4_026BpHwNoiseSuppressionEffect7commandEjRKNS0_8hidl_vecIhEEjNSt3__18functionIFviS8_EEE"
    },
    {
     "mangled_component_name":"_ZN7android8hardware5audio6effect4V4_026BpHwNoiseSuppressionEffect12setParameterERKNS0_8hidl_vecIhEES8_"
    },
    {
     "mangled_component_name":"_ZN7android8hardware5audio6effect4V4_026BpHwNoiseSuppressionEffect12getParameterERKNS0_8hidl_vecIhEEjNSt3__18functionIFvNS3_6ResultES8_EEE"
    },
    {
     "mangled_component_name":"_ZN7android8hardware5audio6effect4V4_026BpHwNoiseSuppressionEffect29getSupportedConfigsForFeatureEjjjNSt3__18functionIFvNS3_6ResultEjRKNS0_8hidl_vecIhEEEEE"
    },
    {
     "mangled_component_name":"_ZN7android8hardware5audio6effect4V4_026BpHwNoiseSuppressionEffect26getCurrentConfigForFeatureEjjNSt3__18functionIFvNS3_6ResultERKNS0_8hidl_vecIhEEEEE"
    },
    {
     "mangled_component_name":"_ZN7android8hardware5audio6effect4V4_026BpHwNoiseSuppressionEffect26setCurrentConfigForFeatureEjRKNS0_8hidl_vecIhEE"
    },
    {
     "mangled_component_name":"_ZN7android8hardware5audio6effect4V4_026BpHwNoiseSuppressionEffect5closeEv"
    },
    {
     "mangled_component_name":"_ZN7android8hardware5audio6effect4V4_026BpHwNoiseSuppressionEffect19setSuppressionLevelENS3_23INoiseSuppressionEffect5LevelE"
    },
    {
     "mangled_component_name":"_ZN7android8hardware5audio6effect4V4_026BpHwNoiseSuppressionEffect19getSuppressionLevelENSt3__18functionIFvNS3_6ResultENS3_23INoiseSuppressionEffect5LevelEEEE"
    },
    {
     "mangled_component_name":"_ZN7android8hardware5audio6effect4V4_026BpHwNoiseSuppressionEffect18setSuppressionTypeENS3_23INoiseSuppressionEffect4TypeE"
    },
    {
     "mangled_component_name":"_ZN7android8hardware5audio6effect4V4_026BpHwNoiseSuppressionEffect18getSuppressionTypeENSt3__18functionIFvNS3_6ResultENS3_23INoiseSuppressionEffect4TypeEEEE"
    },
    {
     "mangled_component_name":"_ZN7android8hardware5audio6effect4V4_026BpHwNoiseSuppressionEffect16setAllPropertiesERKNS3_23INoiseSuppressionEffect13AllPropertiesE"
    },
    {
     "mangled_component_name":"_ZN7android8hardware5audio6effect4V4_026BpHwNoiseSuppressionEffect16getAllPropertiesENSt3__18functionIFvNS3_6ResultERKNS3_23INoiseSuppressionEffect13AllPropertiesEEEE"
    },
    {
     "mangled_component_name":"_ZN7android8hardware11BpInterfaceINS0_5audio6effect4V4_023INoiseSuppressionEffectEE10onAsBinderEv"
    },
    {
     "kind":"vbase_offset",
     "component_value":192
    },
    {
     "kind":"offset_to_top",
     "component_value":-8
    },
    {
     "kind":"rtti",
     "mangled_component_name":"_ZTIN7android8hardware5audio6effect4V4_026BpHwNoiseSuppressionEffectE"
    },
    {
     "kind":"complete_dtor_pointer",
     "mangled_component_name":"_ZThn8_N7android8hardware5audio6effect4V4_026BpHwNoiseSuppressionEffectD1Ev"
    },
    {
     "kind":"deleting_dtor_pointer",
     "mangled_component_name":"_ZThn8_N7android8hardware5audio6effect4V4_026BpHwNoiseSuppressionEffectD0Ev"
    },
    {
     "mangled_component_name":"_ZThn8_N7android8hardware11BpInterfaceINS0_5audio6effect4V4_023INoiseSuppressionEffectEE10onAsBinderEv"
    },
    {
     "kind":"vbase_offset",
     "component_value":184
    },
    {
     "kind":"offset_to_top",
     "component_value":-16
    },
    {
     "kind":"rtti",
     "mangled_component_name":"_ZTIN7android8hardware5audio6effect4V4_026BpHwNoiseSuppressionEffectE"
    },
    {
     "kind":"complete_dtor_pointer",
     "mangled_component_name":"_ZThn16_N7android8hardware5audio6effect4V4_026BpHwNoiseSuppressionEffectD1Ev"
    },
    {
     "kind":"deleting_dtor_pointer",
     "mangled_component_name":"_ZThn16_N7android8hardware5audio6effect4V4_026BpHwNoiseSuppressionEffectD0Ev"
    },
    {
     "mangled_component_name":"_ZN7android8hardware11BpHwRefBase10onFirstRefEv"
    },
    {
     "mangled_component_name":"_ZN7android8hardware11BpHwRefBase15onLastStrongRefEPKv"
    },
    {
     "mangled_component_name":"_ZN7android8hardware11BpHwRefBase20onIncStrongAttemptedEjPKv"
    },
    {
     "kind":"offset_to_top",
     "component_value":-48
    },
    {
     "kind":"rtti",
     "mangled_component_name":"_ZTIN7android8hardware5audio6effect4V4_026BpHwNoiseSuppressionEffectE"
    },
    {
     "kind":"complete_dtor_pointer",
     "mangled_component_name":"_ZThn48_N7android8hardware5audio6effect4V4_026BpHwNoiseSuppressionEffectD1Ev"
    },
    {
     "kind":"deleting_dtor_pointer",
     "mangled_component_name":"_ZThn48_N7android8hardware5audio6effect4V4_026BpHwNoiseSuppressionEffectD0Ev"
    },
    {
     "kind":"vcall_offset"
    },
    {
     "kind":"vcall_offset",
     "component_value":-184
    },
    {
     "kind":"vcall_offset",
     "component_value":-184
    },
    {
     "kind":"vcall_offset",
     "component_value":-184
    },
    {
     "kind":"vcall_offset",
     "component_value":-200
    },
    {
     "kind":"offset_to_top",
     "component_value":-200
    },
    {
     "kind":"rtti",
     "mangled_component_name":"_ZTIN7android8hardware5audio6effect4V4_026BpHwNoiseSuppressionEffectE"
    },
    {
     "kind":"complete_dtor_pointer",
     "mangled_component_name":"_ZTv0_n24_N7android8hardware5audio6effect4V4_026BpHwNoiseSuppressionEffectD1Ev"
    },
    {
     "kind":"deleting_dtor_pointer",
     "mangled_component_name":"_ZTv0_n24_N7android8hardware5audio6effect4V4_026BpHwNoiseSuppressionEffectD0Ev"
    },
    {
     "mangled_component_name":"_ZTv0_n32_N7android8hardware11BpHwRefBase10onFirstRefEv"
    },
    {
     "mangled_component_name":"_ZTv0_n40_N7android8hardware11BpHwRefBase15onLastStrongRefEPKv"
    },
    {
     "mangled_component_name":"_ZTv0_n48_N7android8hardware11BpHwRefBase20onIncStrongAttemptedEjPKv"
    },
    {
     "mangled_component_name":"_ZN7android7RefBase13onLastWeakRefEPKv"
    }
   ],
   "unique_id":"_ZTSN7android8hardware5audio6effect4V4_026BpHwNoiseSuppressionEffectE"
  },
  {
   "vtable_components":[
    {
     "kind":"vbase_offset",
     "component_value":136
    },
    {
     "kind":"offset_to_top"
    },
    {
     "kind":"rtti",
     "mangled_component_name":"_ZTIN7android8hardware5audio6effect4V4_030BnHwAcousticEchoCancelerEffectE"
    },
    {
     "mangled_component_name":"_ZN7android8hardware9BHwBinder8transactEjRKNS0_6ParcelEPS2_jNSt3__18functionIFvRS2_EEE"
    },
    {
     "mangled_component_name":"_ZN7android8hardware9BHwBinder11linkToDeathERKNS_2spINS0_7IBinder14DeathRecipientEEEPvj"
    },
    {
     "mangled_component_name":"_ZN7android8hardware9BHwBinder13unlinkToDeathERKNS_2wpINS0_7IBinder14DeathRecipientEEEPvjPS5_"
    },
    {
     "mangled_component_name":"_ZNK7android8hardware7IBinder13checkSubclassEPKv"
    },
    {
     "mangled_component_name":"_ZN7android8hardware9BHwBinder12attachObjectEPKvPvS4_PFvS3_S4_S4_E"
    },
    {
     "mangled_component_name":"_ZNK7android8hardware9BHwBinder10findObjectEPKv"
    },
    {
     "mangled_component_name":"_ZN7android8hardware9BHwBinder12detachObjectEPKv"
    },
    {
     "mangled_component_name":"_ZN7android8hardware9BHwBinder11localBinderEv"
    },
    {
     "mangled_component_name":"_ZN7android8hardware7IBinder12remoteBinderEv"
    },
    {
     "kind":"complete_dtor_pointer",
     "mangled_component_name":"_ZN7android8hardware5audio6effect4V4_030BnHwAcousticEchoCancelerEffectD1Ev"
    },
    {
     "kind":"deleting_dtor_pointer",
     "mangled_component_name":"_ZN7android8hardware5audio6effect4V4_030BnHwAcousticEchoCancelerEffectD0Ev"
    },
    {
     "mangled_component_name":"_ZN7android8hardware5audio6effect4V4_030BnHwAcousticEchoCancelerEffect10onTransactEjRKNS0_6ParcelEPS5_jNSt3__18functionIFvRS5_EEE"
    },
    {
     "kind":"offset_to_top",
     "component_value":-32
    },
    {
     "kind":"rtti",
     "mangled_component_name":"_ZTIN7android8hardware5audio6effect4V4_030BnHwAcousticEchoCancelerEffectE"
    },
    {
     "kind":"complete_dtor_pointer",
     "mangled_component_name":"_ZThn32_N7android8hardware5audio6effect4V4_030BnHwAcousticEchoCancelerEffectD1Ev"
    },
    {
     "kind":"deleting_dtor_pointer",
     "mangled_component_name":"_ZThn32_N7android8hardware5audio6effect4V4_030BnHwAcousticEchoCancelerEffectD0Ev"
    },
    {
     "kind":"vcall_offset"
    },
    {
     "kind":"vcall_offset"
    },
    {
     "kind":"vcall_offset"
    },
    {
     "kind":"vcall_offset"
    },
    {
     "kind":"vcall_offset",
     "component_value":-136
    },
    {
     "kind":"offset_to_top",
     "component_value":-136
    },
    {
     "kind":"rtti",
     "mangled_component_name":"_ZTIN7android8hardware5audio6effect4V4_030BnHwAcousticEchoCancelerEffectE"
    },
    {
     "kind":"complete_dtor_pointer",
     "mangled_component_name":"_ZTv0_n24_N7android8hardware5audio6effect4V4_030BnHwAcousticEchoCancelerEffectD1Ev"
    },
    {
     "kind":"deleting_dtor_pointer",
     "mangled_component_name":"_ZTv0_n24_N7android8hardware5audio6effect4V4_030BnHwAcousticEchoCancelerEffectD0Ev"
    },
    {
     "mangled_component_name":"_ZN7android7RefBase10onFirstRefEv"
    },
    {
     "mangled_component_name":"_ZN7android7RefBase15onLastStrongRefEPKv"
    },
    {
     "mangled_component_name":"_ZN7android7RefBase20onIncStrongAttemptedEjPKv"
    },
    {
     "mangled_component_name":"_ZN7android7RefBase13onLastWeakRefEPKv"
    }
   ],
   "unique_id":"_ZTSN7android8hardware5audio6effect4V4_030BnHwAcousticEchoCancelerEffectE"
  },
  {
   "vtable_components":[
    {
     "kind":"vbase_offset",
     "component_value":8
    },
    {
     "kind":"offset_to_top"
    },
    {
     "kind":"rtti",
     "mangled_component_name":"_ZTIN7android8hardware5audio6effect4V4_027IAcousticEchoCancelerEffectE"
    },
    {
     "mangled_component_name":"_ZNK7android8hardware5audio6effect4V4_027IAcousticEchoCancelerEffect8isRemoteEv"
    },
    {
     "mangled_component_name":"_ZN7android8hardware5audio6effect4V4_027IAcousticEchoCancelerEffect14interfaceChainENSt3__18functionIFvRKNS0_8hidl_vecINS0_11hidl_stringEEEEEE"
    },
    {
     "mangled_component_name":"_ZN7android8hardware5audio6effect4V4_027IAcousticEchoCancelerEffect5debugERKNS0_11hidl_handleERKNS0_8hidl_vecINS0_11hidl_stringEEE"
    },
    {
     "mangled_component_name":"_ZN7android8hardware5audio6effect4V4_027IAcousticEchoCancelerEffect19interfaceDescriptorENSt3__18functionIFvRKNS0_11hidl_stringEEEE"
    },
    {
     "mangled_component_name":"_ZN7android8hardware5audio6effect4V4_027IAcousticEchoCancelerEffect12getHashChainENSt3__18functionIFvRKNS0_8hidl_vecINS0_10hidl_arrayIhLm32EJEEEEEEEE"
    },
    {
     "mangled_component_name":"_ZN7android8hardware5audio6effect4V4_027IAcousticEchoCancelerEffect21setHALInstrumentationEv"
    },
    {
     "mangled_component_name":"_ZN7android8hardware5audio6effect4V4_027IAcousticEchoCancelerEffect11linkToDeathERKNS_2spINS0_20hidl_death_recipientEEEm"
    },
    {
     "mangled_component_name":"_ZN7android8hardware5audio6effect4V4_027IAcousticEchoCancelerEffect4pingEv"
    },
    {
     "mangled_component_name":"_ZN7android8hardware5audio6effect4V4_027IAcousticEchoCancelerEffect12getDebugInfoENSt3__18functionIFvRKNS_4hidl4base4V1_09DebugInfoEEEE"
    },
    {
     "mangled_component_name":"_ZN7android8hardware5audio6effect4V4_027IAcousticEchoCancelerEffect21notifySyspropsChangedEv"
    },
    {
     "mangled_component_name":"_ZN7android8hardware5audio6effect4V4_027IAcousticEchoCancelerEffect13unlinkToDeathERKNS_2spINS0_20hidl_death_recipientEEE"
    },
    {
     "kind":"complete_dtor_pointer",
     "mangled_component_name":"_ZN7android8hardware5audio6effect4V4_027IAcousticEchoCancelerEffectD1Ev"
    },
    {
     "kind":"deleting_dtor_pointer",
     "mangled_component_name":"_ZN7android8hardware5audio6effect4V4_027IAcousticEchoCancelerEffectD0Ev"
    },
    {
     "is_pure":true,
     "mangled_component_name":"_ZN7android8hardware5audio6effect4V4_027IAcousticEchoCancelerEffect4initEv"
    },
    {
     "is_pure":true,
     "mangled_component_name":"_ZN7android8hardware5audio6effect4V4_027IAcousticEchoCancelerEffect9setConfigERKNS3_12EffectConfigERKNS_2spINS3_29IEffectBufferProviderCallbackEEESC_"
    },
    {
     "is_pure":true,
     "mangled_component_name":"_ZN7android8hardware5audio6effect4V4_027IAcousticEchoCancelerEffect5resetEv"
    },
    {
     "is_pure":true,
     "mangled_component_name":"_ZN7android8hardware5audio6effect4V4_027IAcousticEchoCancelerEffect6enableEv"
    },
    {
     "is_pure":true,
     "mangled_component_name":"_ZN7android8hardware5audio6effect4V4_027IAcousticEchoCancelerEffect7disableEv"
    },
    {
     "is_pure":true,
     "mangled_component_name":"_ZN7android8hardware5audio6effect4V4_027IAcousticEchoCancelerEffect9setDeviceEj"
    },
    {
     "is_pure":true,
     "mangled_component_name":"_ZN7android8hardware5audio6effect4V4_027IAcousticEchoCancelerEffect15setAndGetVolumeERKNS0_8hidl_vecIjEENSt3__18functionIFvNS3_6ResultES8_EEE"
    },
    {
     "is_pure":true,
     "mangled_component_name":"_ZN7android8hardware5audio6effect4V4_027IAcousticEchoCancelerEffect24volumeChangeNotificationERKNS0_8hidl_vecIjEE"
    },
    {
     "is_pure":true,
     "mangled_component_name":"_ZN7android8hardware5audio6effect4V4_027IAcousticEchoCancelerEffect12setAudioModeENS1_6common4V4_09AudioModeE"
    },
    {
     "is_pure":true,
     "mangled_component_name":"_ZN7android8hardware5audio6effect4V4_027IAcousticEchoCancelerEffect16setConfigReverseERKNS3_12EffectConfigERKNS_2spINS3_29IEffectBufferProviderCallbackEEESC_"
    },
    {
     "is_pure":true,
     "mangled_component_name":"_ZN7android8hardware5audio6effect4V4_027IAcousticEchoCancelerEffect14setInputDeviceEj"
    },
    {
     "is_pure":true,
     "mangled_component_name":"_ZN7android8hardware5audio6effect4V4_027IAcousticEchoCancelerEffect9getConfigENSt3__18functionIFvNS3_6ResultERKNS3_12EffectConfigEEEE"
    },
    {
     "is_pure":true,
     "mangled_component_name":"_ZN7android8hardware5audio6effect4V4_027IAcousticEchoCancelerEffect16getConfigReverseENSt3__18functionIFvNS3_6ResultERKNS3_12EffectConfigEEEE"
    },
    {
     "is_pure":true,
     "mangled_component_name":"_ZN7android8hardware5audio6effect4V4_027IAcousticEchoCancelerEffect30getSupportedAuxChannelsConfigsEjNSt3__18functionIFvNS3_6ResultERKNS0_8hidl_vecINS3_23EffectAuxChannelsConfigEEEEEE"
    },
    {
     "is_pure":true,
     "mangled_component_name":"_ZN7android8hardware5audio6effect4V4_027IAcousticEchoCancelerEffect20getAuxChannelsConfigENSt3__18functionIFvNS3_6ResultERKNS3_23EffectAuxChannelsConfigEEEE"
    },
    {
     "is_pure":true,
     "mangled_component_name":"_ZN7android8hardware5audio6effect4V4_027IAcousticEchoCancelerEffect20setAuxChannelsConfigERKNS3_23EffectAuxChannelsConfigE"
    },
    {
     "is_pure":true,
     "mangled_component_name":"_ZN7android8hardware5audio6effect4V4_027IAcousticEchoCancelerEffect14setAudioSourceENS1_6common4V4_011AudioSourceE"
    },
    {
     "is_pure":true,
     "mangled_component_name":"_ZN7android8hardware5audio6effect4V4_027IAcousticEchoCancelerEffect7offloadERKNS3_22EffectOffloadParameterE"
    },
    {
     "is_pure":true,
     "mangled_component_name":"_ZN7android8hardware5audio6effect4V4_027IAcousticEchoCancelerEffect13getDescriptorENSt3__18functionIFvNS3_6ResultERKNS3_16EffectDescriptorEEEE"
    },
    {
     "is_pure":true,
     "mangled_component_name":"_ZN7android8hardware5audio6effect4V4_027IAcousticEchoCancelerEffect20prepareForProcessingENSt3__18functionIFvNS3_6ResultERKNS0_12MQDescriptorIS7_LNS0_8MQFlavorE1EEEEEE"
    },
    {
     "is_pure":true,
     "mangled_component_name":"_ZN7android8hardware5audio6effect4V4_027IAcousticEchoCancelerEffect17setProcessBuffersERKNS3_11AudioBufferES7_"
    },
    {
     "is_pure":true,
     "mangled_component_name":"_ZN7android8hardware5audio6effect4V4_027IAcousticEchoCancelerEffect7commandEjRKNS0_8hidl_vecIhEEjNSt3__18functionIFviS8_EEE"
    },
    {
     "is_pure":true,
     "mangled_component_name":"_ZN7android8hardware5audio6effect4V4_027IAcousticEchoCancelerEffect12setParameterERKNS0_8hidl_vecIhEES8_"
    },
    {
     "is_pure":true,
     "mangled_component_name":"_ZN7android8hardware5audio6effect4V4_027IAcousticEchoCancelerEffect12getParameterERKNS0_8hidl_vecIhEEjNSt3__18functionIFvNS3_6ResultES8_EEE"
    },
    {
     "is_pure":true,
     "mangled_component_name":"_ZN7android8hardware5audio6effect4V4_027IAcousticEchoCancelerEffect29getSupportedConfigsForFeatureEjjjNSt3__18functionIFvNS3_6ResultEjRKNS0_8hidl_vecIhEEEEE"
    },
    {
     "is_pure":true,
     "mangled_component_name":"_ZN7android8hardware5audio6effect4V4_027IAcousticEchoCancelerEffect26getCurrentConfigForFeatureEjjNSt3__18functionIFvNS3_6ResultERKNS0_8hidl_vecIhEEEEE"
    },
    {
     "is_pure":true,
     "mangled_component_name":"_ZN7android8hardware5audio6effect4V4_027IAcousticEchoCancelerEffect26setCurrentConfigForFeatureEjRKNS0_8hidl_vecIhEE"
    },
    {
     "is_pure":true,
     "mangled_component_name":"_ZN7android8hardware5audio6effect4V4_027IAcousticEchoCancelerEffect5closeEv"
    },
    {
     "is_pure":true,
     "mangled_component_name":"_ZN7android8hardware5audio6effect4V4_027IAcousticEchoCancelerEffect12setEchoDelayEj"
    },
    {
     "is_pure":true,
     "mangled_component_name":"_ZN7android8hardware5audio6effect4V4_027IAcousticEchoCancelerEffect12getEchoDelayENSt3__18functionIFvNS3_6ResultEjEEE"
    },
    {
     "kind":"vcall_offset"
    },
    {
     "kind":"vcall_offset"
    },
    {
     "kind":"vcall_offset"
    },
    {
     "kind":"vcall_offset"
    },
    {
     "kind":"vcall_offset",
     "component_value":-8
    },
    {
     "kind":"offset_to_top",
     "component_value":-8
    },
    {
     "kind":"rtti",
     "mangled_component_name":"_ZTIN7android8hardware5audio6effect4V4_027IAcousticEchoCancelerEffectE"
    },
    {
     "kind":"complete_dtor_pointer",
     "mangled_component_name":"_ZTv0_n24_N7android8hardware5audio6effect4V4_027IAcousticEchoCancelerEffectD1Ev"
    },
    {
     "kind":"deleting_dtor_pointer",
     "mangled_component_name":"_ZTv0_n24_N7android8hardware5audio6effect4V4_027IAcousticEchoCancelerEffectD0Ev"
    },
    {
     "mangled_component_name":"_ZN7android7RefBase10onFirstRefEv"
    },
    {
     "mangled_component_name":"_ZN7android7RefBase15onLastStrongRefEPKv"
    },
    {
     "mangled_component_name":"_ZN7android7RefBase20onIncStrongAttemptedEjPKv"
    },
    {
     "mangled_component_name":"_ZN7android7RefBase13onLastWeakRefEPKv"
    }
   ],
   "unique_id":"_ZTSN7android8hardware5audio6effect4V4_027IAcousticEchoCancelerEffectE"
  },
  {
   "vtable_components":[
    {
     "kind":"vbase_offset",
     "component_value":8
    },
    {
     "kind":"offset_to_top"
    },
    {
     "kind":"rtti",
     "mangled_component_name":"_ZTIN7android8hardware5audio6effect4V4_07IEffectE"
    },
    {
     "mangled_component_name":"_ZNK7android8hardware5audio6effect4V4_07IEffect8isRemoteEv"
    },
    {
     "mangled_component_name":"_ZN7android8hardware5audio6effect4V4_07IEffect14interfaceChainENSt3__18functionIFvRKNS0_8hidl_vecINS0_11hidl_stringEEEEEE"
    },
    {
     "mangled_component_name":"_ZN7android8hardware5audio6effect4V4_07IEffect5debugERKNS0_11hidl_handleERKNS0_8hidl_vecINS0_11hidl_stringEEE"
    },
    {
     "mangled_component_name":"_ZN7android8hardware5audio6effect4V4_07IEffect19interfaceDescriptorENSt3__18functionIFvRKNS0_11hidl_stringEEEE"
    },
    {
     "mangled_component_name":"_ZN7android8hardware5audio6effect4V4_07IEffect12getHashChainENSt3__18functionIFvRKNS0_8hidl_vecINS0_10hidl_arrayIhLm32EJEEEEEEEE"
    },
    {
     "mangled_component_name":"_ZN7android8hardware5audio6effect4V4_07IEffect21setHALInstrumentationEv"
    },
    {
     "mangled_component_name":"_ZN7android8hardware5audio6effect4V4_07IEffect11linkToDeathERKNS_2spINS0_20hidl_death_recipientEEEm"
    },
    {
     "mangled_component_name":"_ZN7android8hardware5audio6effect4V4_07IEffect4pingEv"
    },
    {
     "mangled_component_name":"_ZN7android8hardware5audio6effect4V4_07IEffect12getDebugInfoENSt3__18functionIFvRKNS_4hidl4base4V1_09DebugInfoEEEE"
    },
    {
     "mangled_component_name":"_ZN7android8hardware5audio6effect4V4_07IEffect21notifySyspropsChangedEv"
    },
    {
     "mangled_component_name":"_ZN7android8hardware5audio6effect4V4_07IEffect13unlinkToDeathERKNS_2spINS0_20hidl_death_recipientEEE"
    },
    {
     "kind":"complete_dtor_pointer",
     "mangled_component_name":"_ZN7android8hardware5audio6effect4V4_07IEffectD1Ev"
    },
    {
     "kind":"deleting_dtor_pointer",
     "mangled_component_name":"_ZN7android8hardware5audio6effect4V4_07IEffectD0Ev"
    },
    {
     "is_pure":true,
     "mangled_component_name":"_ZN7android8hardware5audio6effect4V4_07IEffect4initEv"
    },
    {
     "is_pure":true,
     "mangled_component_name":"_ZN7android8hardware5audio6effect4V4_07IEffect9setConfigERKNS3_12EffectConfigERKNS_2spINS3_29IEffectBufferProviderCallbackEEESC_"
    },
    {
     "is_pure":true,
     "mangled_component_name":"_ZN7android8hardware5audio6effect4V4_07IEffect5resetEv"
    },
    {
     "is_pure":true,
     "mangled_component_name":"_ZN7android8hardware5audio6effect4V4_07IEffect6enableEv"
    },
    {
     "is_pure":true,
     "mangled_component_name":"_ZN7android8hardware5audio6effect4V4_07IEffect7disableEv"
    },
    {
     "is_pure":true,
     "mangled_component_name":"_ZN7android8hardware5audio6effect4V4_07IEffect9setDeviceEj"
    },
    {
     "is_pure":true,
     "mangled_component_name":"_ZN7android8hardware5audio6effect4V4_07IEffect15setAndGetVolumeERKNS0_8hidl_vecIjEENSt3__18functionIFvNS3_6ResultES8_EEE"
    },
    {
     "is_pure":true,
     "mangled_component_name":"_ZN7android8hardware5audio6effect4V4_07IEffect24volumeChangeNotificationERKNS0_8hidl_vecIjEE"
    },
    {
     "is_pure":true,
     "mangled_component_name":"_ZN7android8hardware5audio6effect4V4_07IEffect12setAudioModeENS1_6common4V4_09AudioModeE"
    },
    {
     "is_pure":true,
     "mangled_component_name":"_ZN7android8hardware5audio6effect4V4_07IEffect16setConfigReverseERKNS3_12EffectConfigERKNS_2spINS3_29IEffectBufferProviderCallbackEEESC_"
    },
    {
     "is_pure":true,
     "mangled_component_name":"_ZN7android8hardware5audio6effect4V4_07IEffect14setInputDeviceEj"
    },
    {
     "is_pure":true,
     "mangled_component_name":"_ZN7android8hardware5audio6effect4V4_07IEffect9getConfigENSt3__18functionIFvNS3_6ResultERKNS3_12EffectConfigEEEE"
    },
    {
     "is_pure":true,
     "mangled_component_name":"_ZN7android8hardware5audio6effect4V4_07IEffect16getConfigReverseENSt3__18functionIFvNS3_6ResultERKNS3_12EffectConfigEEEE"
    },
    {
     "is_pure":true,
     "mangled_component_name":"_ZN7android8hardware5audio6effect4V4_07IEffect30getSupportedAuxChannelsConfigsEjNSt3__18functionIFvNS3_6ResultERKNS0_8hidl_vecINS3_23EffectAuxChannelsConfigEEEEEE"
    },
    {
     "is_pure":true,
     "mangled_component_name":"_ZN7android8hardware5audio6effect4V4_07IEffect20getAuxChannelsConfigENSt3__18functionIFvNS3_6ResultERKNS3_23EffectAuxChannelsConfigEEEE"
    },
    {
     "is_pure":true,
     "mangled_component_name":"_ZN7android8hardware5audio6effect4V4_07IEffect20setAuxChannelsConfigERKNS3_23EffectAuxChannelsConfigE"
    },
    {
     "is_pure":true,
     "mangled_component_name":"_ZN7android8hardware5audio6effect4V4_07IEffect14setAudioSourceENS1_6common4V4_011AudioSourceE"
    },
    {
     "is_pure":true,
     "mangled_component_name":"_ZN7android8hardware5audio6effect4V4_07IEffect7offloadERKNS3_22EffectOffloadParameterE"
    },
    {
     "is_pure":true,
     "mangled_component_name":"_ZN7android8hardware5audio6effect4V4_07IEffect13getDescriptorENSt3__18functionIFvNS3_6ResultERKNS3_16EffectDescriptorEEEE"
    },
    {
     "is_pure":true,
     "mangled_component_name":"_ZN7android8hardware5audio6effect4V4_07IEffect20prepareForProcessingENSt3__18functionIFvNS3_6ResultERKNS0_12MQDescriptorIS7_LNS0_8MQFlavorE1EEEEEE"
    },
    {
     "is_pure":true,
     "mangled_component_name":"_ZN7android8hardware5audio6effect4V4_07IEffect17setProcessBuffersERKNS3_11AudioBufferES7_"
    },
    {
     "is_pure":true,
     "mangled_component_name":"_ZN7android8hardware5audio6effect4V4_07IEffect7commandEjRKNS0_8hidl_vecIhEEjNSt3__18functionIFviS8_EEE"
    },
    {
     "is_pure":true,
     "mangled_component_name":"_ZN7android8hardware5audio6effect4V4_07IEffect12setParameterERKNS0_8hidl_vecIhEES8_"
    },
    {
     "is_pure":true,
     "mangled_component_name":"_ZN7android8hardware5audio6effect4V4_07IEffect12getParameterERKNS0_8hidl_vecIhEEjNSt3__18functionIFvNS3_6ResultES8_EEE"
    },
    {
     "is_pure":true,
     "mangled_component_name":"_ZN7android8hardware5audio6effect4V4_07IEffect29getSupportedConfigsForFeatureEjjjNSt3__18functionIFvNS3_6ResultEjRKNS0_8hidl_vecIhEEEEE"
    },
    {
     "is_pure":true,
     "mangled_component_name":"_ZN7android8hardware5audio6effect4V4_07IEffect26getCurrentConfigForFeatureEjjNSt3__18functionIFvNS3_6ResultERKNS0_8hidl_vecIhEEEEE"
    },
    {
     "is_pure":true,
     "mangled_component_name":"_ZN7android8hardware5audio6effect4V4_07IEffect26setCurrentConfigForFeatureEjRKNS0_8hidl_vecIhEE"
    },
    {
     "is_pure":true,
     "mangled_component_name":"_ZN7android8hardware5audio6effect4V4_07IEffect5closeEv"
    },
    {
     "kind":"vcall_offset"
    },
    {
     "kind":"vcall_offset"
    },
    {
     "kind":"vcall_offset"
    },
    {
     "kind":"vcall_offset"
    },
    {
     "kind":"vcall_offset",
     "component_value":-8
    },
    {
     "kind":"offset_to_top",
     "component_value":-8
    },
    {
     "kind":"rtti",
     "mangled_component_name":"_ZTIN7android8hardware5audio6effect4V4_07IEffectE"
    },
    {
     "kind":"complete_dtor_pointer",
     "mangled_component_name":"_ZTv0_n24_N7android8hardware5audio6effect4V4_07IEffectD1Ev"
    },
    {
     "kind":"deleting_dtor_pointer",
     "mangled_component_name":"_ZTv0_n24_N7android8hardware5audio6effect4V4_07IEffectD0Ev"
    },
    {
     "mangled_component_name":"_ZN7android7RefBase10onFirstRefEv"
    },
    {
     "mangled_component_name":"_ZN7android7RefBase15onLastStrongRefEPKv"
    },
    {
     "mangled_component_name":"_ZN7android7RefBase20onIncStrongAttemptedEjPKv"
    },
    {
     "mangled_component_name":"_ZN7android7RefBase13onLastWeakRefEPKv"
    }
   ],
   "unique_id":"_ZTSN7android8hardware5audio6effect4V4_07IEffectE"
  },
  {
   "vtable_components":[
    {
     "kind":"vbase_offset",
     "component_value":8
    },
    {
     "kind":"offset_to_top"
    },
    {
     "kind":"rtti",
     "mangled_component_name":"_ZTIN7android8hardware5audio6effect4V4_019IPresetReverbEffectE"
    },
    {
     "mangled_component_name":"_ZNK7android8hardware5audio6effect4V4_019IPresetReverbEffect8isRemoteEv"
    },
    {
     "mangled_component_name":"_ZN7android8hardware5audio6effect4V4_019IPresetReverbEffect14interfaceChainENSt3__18functionIFvRKNS0_8hidl_vecINS0_11hidl_stringEEEEEE"
    },
    {
     "mangled_component_name":"_ZN7android8hardware5audio6effect4V4_019IPresetReverbEffect5debugERKNS0_11hidl_handleERKNS0_8hidl_vecINS0_11hidl_stringEEE"
    },
    {
     "mangled_component_name":"_ZN7android8hardware5audio6effect4V4_019IPresetReverbEffect19interfaceDescriptorENSt3__18functionIFvRKNS0_11hidl_stringEEEE"
    },
    {
     "mangled_component_name":"_ZN7android8hardware5audio6effect4V4_019IPresetReverbEffect12getHashChainENSt3__18functionIFvRKNS0_8hidl_vecINS0_10hidl_arrayIhLm32EJEEEEEEEE"
    },
    {
     "mangled_component_name":"_ZN7android8hardware5audio6effect4V4_019IPresetReverbEffect21setHALInstrumentationEv"
    },
    {
     "mangled_component_name":"_ZN7android8hardware5audio6effect4V4_019IPresetReverbEffect11linkToDeathERKNS_2spINS0_20hidl_death_recipientEEEm"
    },
    {
     "mangled_component_name":"_ZN7android8hardware5audio6effect4V4_019IPresetReverbEffect4pingEv"
    },
    {
     "mangled_component_name":"_ZN7android8hardware5audio6effect4V4_019IPresetReverbEffect12getDebugInfoENSt3__18functionIFvRKNS_4hidl4base4V1_09DebugInfoEEEE"
    },
    {
     "mangled_component_name":"_ZN7android8hardware5audio6effect4V4_019IPresetReverbEffect21notifySyspropsChangedEv"
    },
    {
     "mangled_component_name":"_ZN7android8hardware5audio6effect4V4_019IPresetReverbEffect13unlinkToDeathERKNS_2spINS0_20hidl_death_recipientEEE"
    },
    {
     "kind":"complete_dtor_pointer",
     "mangled_component_name":"_ZN7android8hardware5audio6effect4V4_019IPresetReverbEffectD1Ev"
    },
    {
     "kind":"deleting_dtor_pointer",
     "mangled_component_name":"_ZN7android8hardware5audio6effect4V4_019IPresetReverbEffectD0Ev"
    },
    {
     "is_pure":true,
     "mangled_component_name":"_ZN7android8hardware5audio6effect4V4_019IPresetReverbEffect4initEv"
    },
    {
     "is_pure":true,
     "mangled_component_name":"_ZN7android8hardware5audio6effect4V4_019IPresetReverbEffect9setConfigERKNS3_12EffectConfigERKNS_2spINS3_29IEffectBufferProviderCallbackEEESC_"
    },
    {
     "is_pure":true,
     "mangled_component_name":"_ZN7android8hardware5audio6effect4V4_019IPresetReverbEffect5resetEv"
    },
    {
     "is_pure":true,
     "mangled_component_name":"_ZN7android8hardware5audio6effect4V4_019IPresetReverbEffect6enableEv"
    },
    {
     "is_pure":true,
     "mangled_component_name":"_ZN7android8hardware5audio6effect4V4_019IPresetReverbEffect7disableEv"
    },
    {
     "is_pure":true,
     "mangled_component_name":"_ZN7android8hardware5audio6effect4V4_019IPresetReverbEffect9setDeviceEj"
    },
    {
     "is_pure":true,
     "mangled_component_name":"_ZN7android8hardware5audio6effect4V4_019IPresetReverbEffect15setAndGetVolumeERKNS0_8hidl_vecIjEENSt3__18functionIFvNS3_6ResultES8_EEE"
    },
    {
     "is_pure":true,
     "mangled_component_name":"_ZN7android8hardware5audio6effect4V4_019IPresetReverbEffect24volumeChangeNotificationERKNS0_8hidl_vecIjEE"
    },
    {
     "is_pure":true,
     "mangled_component_name":"_ZN7android8hardware5audio6effect4V4_019IPresetReverbEffect12setAudioModeENS1_6common4V4_09AudioModeE"
    },
    {
     "is_pure":true,
     "mangled_component_name":"_ZN7android8hardware5audio6effect4V4_019IPresetReverbEffect16setConfigReverseERKNS3_12EffectConfigERKNS_2spINS3_29IEffectBufferProviderCallbackEEESC_"
    },
    {
     "is_pure":true,
     "mangled_component_name":"_ZN7android8hardware5audio6effect4V4_019IPresetReverbEffect14setInputDeviceEj"
    },
    {
     "is_pure":true,
     "mangled_component_name":"_ZN7android8hardware5audio6effect4V4_019IPresetReverbEffect9getConfigENSt3__18functionIFvNS3_6ResultERKNS3_12EffectConfigEEEE"
    },
    {
     "is_pure":true,
     "mangled_component_name":"_ZN7android8hardware5audio6effect4V4_019IPresetReverbEffect16getConfigReverseENSt3__18functionIFvNS3_6ResultERKNS3_12EffectConfigEEEE"
    },
    {
     "is_pure":true,
     "mangled_component_name":"_ZN7android8hardware5audio6effect4V4_019IPresetReverbEffect30getSupportedAuxChannelsConfigsEjNSt3__18functionIFvNS3_6ResultERKNS0_8hidl_vecINS3_23EffectAuxChannelsConfigEEEEEE"
    },
    {
     "is_pure":true,
     "mangled_component_name":"_ZN7android8hardware5audio6effect4V4_019IPresetReverbEffect20getAuxChannelsConfigENSt3__18functionIFvNS3_6ResultERKNS3_23EffectAuxChannelsConfigEEEE"
    },
    {
     "is_pure":true,
     "mangled_component_name":"_ZN7android8hardware5audio6effect4V4_019IPresetReverbEffect20setAuxChannelsConfigERKNS3_23EffectAuxChannelsConfigE"
    },
    {
     "is_pure":true,
     "mangled_component_name":"_ZN7android8hardware5audio6effect4V4_019IPresetReverbEffect14setAudioSourceENS1_6common4V4_011AudioSourceE"
    },
    {
     "is_pure":true,
     "mangled_component_name":"_ZN7android8hardware5audio6effect4V4_019IPresetReverbEffect7offloadERKNS3_22EffectOffloadParameterE"
    },
    {
     "is_pure":true,
     "mangled_component_name":"_ZN7android8hardware5audio6effect4V4_019IPresetReverbEffect13getDescriptorENSt3__18functionIFvNS3_6ResultERKNS3_16EffectDescriptorEEEE"
    },
    {
     "is_pure":true,
     "mangled_component_name":"_ZN7android8hardware5audio6effect4V4_019IPresetReverbEffect20prepareForProcessingENSt3__18functionIFvNS3_6ResultERKNS0_12MQDescriptorIS7_LNS0_8MQFlavorE1EEEEEE"
    },
    {
     "is_pure":true,
     "mangled_component_name":"_ZN7android8hardware5audio6effect4V4_019IPresetReverbEffect17setProcessBuffersERKNS3_11AudioBufferES7_"
    },
    {
     "is_pure":true,
     "mangled_component_name":"_ZN7android8hardware5audio6effect4V4_019IPresetReverbEffect7commandEjRKNS0_8hidl_vecIhEEjNSt3__18functionIFviS8_EEE"
    },
    {
     "is_pure":true,
     "mangled_component_name":"_ZN7android8hardware5audio6effect4V4_019IPresetReverbEffect12setParameterERKNS0_8hidl_vecIhEES8_"
    },
    {
     "is_pure":true,
     "mangled_component_name":"_ZN7android8hardware5audio6effect4V4_019IPresetReverbEffect12getParameterERKNS0_8hidl_vecIhEEjNSt3__18functionIFvNS3_6ResultES8_EEE"
    },
    {
     "is_pure":true,
     "mangled_component_name":"_ZN7android8hardware5audio6effect4V4_019IPresetReverbEffect29getSupportedConfigsForFeatureEjjjNSt3__18functionIFvNS3_6ResultEjRKNS0_8hidl_vecIhEEEEE"
    },
    {
     "is_pure":true,
     "mangled_component_name":"_ZN7android8hardware5audio6effect4V4_019IPresetReverbEffect26getCurrentConfigForFeatureEjjNSt3__18functionIFvNS3_6ResultERKNS0_8hidl_vecIhEEEEE"
    },
    {
     "is_pure":true,
     "mangled_component_name":"_ZN7android8hardware5audio6effect4V4_019IPresetReverbEffect26setCurrentConfigForFeatureEjRKNS0_8hidl_vecIhEE"
    },
    {
     "is_pure":true,
     "mangled_component_name":"_ZN7android8hardware5audio6effect4V4_019IPresetReverbEffect5closeEv"
    },
    {
     "is_pure":true,
     "mangled_component_name":"_ZN7android8hardware5audio6effect4V4_019IPresetReverbEffect9setPresetENS4_6PresetE"
    },
    {
     "is_pure":true,
     "mangled_component_name":"_ZN7android8hardware5audio6effect4V4_019IPresetReverbEffect9getPresetENSt3__18functionIFvNS3_6ResultENS4_6PresetEEEE"
    },
    {
     "kind":"vcall_offset"
    },
    {
     "kind":"vcall_offset"
    },
    {
     "kind":"vcall_offset"
    },
    {
     "kind":"vcall_offset"
    },
    {
     "kind":"vcall_offset",
     "component_value":-8
    },
    {
     "kind":"offset_to_top",
     "component_value":-8
    },
    {
     "kind":"rtti",
     "mangled_component_name":"_ZTIN7android8hardware5audio6effect4V4_019IPresetReverbEffectE"
    },
    {
     "kind":"complete_dtor_pointer",
     "mangled_component_name":"_ZTv0_n24_N7android8hardware5audio6effect4V4_019IPresetReverbEffectD1Ev"
    },
    {
     "kind":"deleting_dtor_pointer",
     "mangled_component_name":"_ZTv0_n24_N7android8hardware5audio6effect4V4_019IPresetReverbEffectD0Ev"
    },
    {
     "mangled_component_name":"_ZN7android7RefBase10onFirstRefEv"
    },
    {
     "mangled_component_name":"_ZN7android7RefBase15onLastStrongRefEPKv"
    },
    {
     "mangled_component_name":"_ZN7android7RefBase20onIncStrongAttemptedEjPKv"
    },
    {
     "mangled_component_name":"_ZN7android7RefBase13onLastWeakRefEPKv"
    }
   ],
   "unique_id":"_ZTSN7android8hardware5audio6effect4V4_019IPresetReverbEffectE"
  },
  {
   "vtable_components":[
    {
     "kind":"vbase_offset",
     "component_value":136
    },
    {
     "kind":"offset_to_top"
    },
    {
     "kind":"rtti",
     "mangled_component_name":"_ZTIN7android8hardware5audio6effect4V4_022BnHwPresetReverbEffectE"
    },
    {
     "mangled_component_name":"_ZN7android8hardware9BHwBinder8transactEjRKNS0_6ParcelEPS2_jNSt3__18functionIFvRS2_EEE"
    },
    {
     "mangled_component_name":"_ZN7android8hardware9BHwBinder11linkToDeathERKNS_2spINS0_7IBinder14DeathRecipientEEEPvj"
    },
    {
     "mangled_component_name":"_ZN7android8hardware9BHwBinder13unlinkToDeathERKNS_2wpINS0_7IBinder14DeathRecipientEEEPvjPS5_"
    },
    {
     "mangled_component_name":"_ZNK7android8hardware7IBinder13checkSubclassEPKv"
    },
    {
     "mangled_component_name":"_ZN7android8hardware9BHwBinder12attachObjectEPKvPvS4_PFvS3_S4_S4_E"
    },
    {
     "mangled_component_name":"_ZNK7android8hardware9BHwBinder10findObjectEPKv"
    },
    {
     "mangled_component_name":"_ZN7android8hardware9BHwBinder12detachObjectEPKv"
    },
    {
     "mangled_component_name":"_ZN7android8hardware9BHwBinder11localBinderEv"
    },
    {
     "mangled_component_name":"_ZN7android8hardware7IBinder12remoteBinderEv"
    },
    {
     "kind":"complete_dtor_pointer",
     "mangled_component_name":"_ZN7android8hardware5audio6effect4V4_022BnHwPresetReverbEffectD1Ev"
    },
    {
     "kind":"deleting_dtor_pointer",
     "mangled_component_name":"_ZN7android8hardware5audio6effect4V4_022BnHwPresetReverbEffectD0Ev"
    },
    {
     "mangled_component_name":"_ZN7android8hardware5audio6effect4V4_022BnHwPresetReverbEffect10onTransactEjRKNS0_6ParcelEPS5_jNSt3__18functionIFvRS5_EEE"
    },
    {
     "kind":"offset_to_top",
     "component_value":-32
    },
    {
     "kind":"rtti",
     "mangled_component_name":"_ZTIN7android8hardware5audio6effect4V4_022BnHwPresetReverbEffectE"
    },
    {
     "kind":"complete_dtor_pointer",
     "mangled_component_name":"_ZThn32_N7android8hardware5audio6effect4V4_022BnHwPresetReverbEffectD1Ev"
    },
    {
     "kind":"deleting_dtor_pointer",
     "mangled_component_name":"_ZThn32_N7android8hardware5audio6effect4V4_022BnHwPresetReverbEffectD0Ev"
    },
    {
     "kind":"vcall_offset"
    },
    {
     "kind":"vcall_offset"
    },
    {
     "kind":"vcall_offset"
    },
    {
     "kind":"vcall_offset"
    },
    {
     "kind":"vcall_offset",
     "component_value":-136
    },
    {
     "kind":"offset_to_top",
     "component_value":-136
    },
    {
     "kind":"rtti",
     "mangled_component_name":"_ZTIN7android8hardware5audio6effect4V4_022BnHwPresetReverbEffectE"
    },
    {
     "kind":"complete_dtor_pointer",
     "mangled_component_name":"_ZTv0_n24_N7android8hardware5audio6effect4V4_022BnHwPresetReverbEffectD1Ev"
    },
    {
     "kind":"deleting_dtor_pointer",
     "mangled_component_name":"_ZTv0_n24_N7android8hardware5audio6effect4V4_022BnHwPresetReverbEffectD0Ev"
    },
    {
     "mangled_component_name":"_ZN7android7RefBase10onFirstRefEv"
    },
    {
     "mangled_component_name":"_ZN7android7RefBase15onLastStrongRefEPKv"
    },
    {
     "mangled_component_name":"_ZN7android7RefBase20onIncStrongAttemptedEjPKv"
    },
    {
     "mangled_component_name":"_ZN7android7RefBase13onLastWeakRefEPKv"
    }
   ],
   "unique_id":"_ZTSN7android8hardware5audio6effect4V4_022BnHwPresetReverbEffectE"
  },
  {
   "vtable_components":[
    {
     "kind":"vbase_offset",
     "component_value":120
    },
    {
     "kind":"offset_to_top"
    },
    {
     "kind":"rtti",
     "mangled_component_name":"_ZTIN7android8hardware5audio6effect4V4_020BsPresetReverbEffectE"
    },
    {
     "mangled_component_name":"_ZNK7android8hardware5audio6effect4V4_019IPresetReverbEffect8isRemoteEv"
    },
    {
     "mangled_component_name":"_ZN7android8hardware5audio6effect4V4_020BsPresetReverbEffect14interfaceChainENSt3__18functionIFvRKNS0_8hidl_vecINS0_11hidl_stringEEEEEE"
    },
    {
     "mangled_component_name":"_ZN7android8hardware5audio6effect4V4_020BsPresetReverbEffect5debugERKNS0_11hidl_handleERKNS0_8hidl_vecINS0_11hidl_stringEEE"
    },
    {
     "mangled_component_name":"_ZN7android8hardware5audio6effect4V4_020BsPresetReverbEffect19interfaceDescriptorENSt3__18functionIFvRKNS0_11hidl_stringEEEE"
    },
    {
     "mangled_component_name":"_ZN7android8hardware5audio6effect4V4_020BsPresetReverbEffect12getHashChainENSt3__18functionIFvRKNS0_8hidl_vecINS0_10hidl_arrayIhLm32EJEEEEEEEE"
    },
    {
     "mangled_component_name":"_ZN7android8hardware5audio6effect4V4_020BsPresetReverbEffect21setHALInstrumentationEv"
    },
    {
     "mangled_component_name":"_ZN7android8hardware5audio6effect4V4_020BsPresetReverbEffect11linkToDeathERKNS_2spINS0_20hidl_death_recipientEEEm"
    },
    {
     "mangled_component_name":"_ZN7android8hardware5audio6effect4V4_020BsPresetReverbEffect4pingEv"
    },
    {
     "mangled_component_name":"_ZN7android8hardware5audio6effect4V4_020BsPresetReverbEffect12getDebugInfoENSt3__18functionIFvRKNS_4hidl4base4V1_09DebugInfoEEEE"
    },
    {
     "mangled_component_name":"_ZN7android8hardware5audio6effect4V4_020BsPresetReverbEffect21notifySyspropsChangedEv"
    },
    {
     "mangled_component_name":"_ZN7android8hardware5audio6effect4V4_020BsPresetReverbEffect13unlinkToDeathERKNS_2spINS0_20hidl_death_recipientEEE"
    },
    {
     "kind":"complete_dtor_pointer",
     "mangled_component_name":"_ZN7android8hardware5audio6effect4V4_020BsPresetReverbEffectD1Ev"
    },
    {
     "kind":"deleting_dtor_pointer",
     "mangled_component_name":"_ZN7android8hardware5audio6effect4V4_020BsPresetReverbEffectD0Ev"
    },
    {
     "mangled_component_name":"_ZN7android8hardware5audio6effect4V4_020BsPresetReverbEffect4initEv"
    },
    {
     "mangled_component_name":"_ZN7android8hardware5audio6effect4V4_020BsPresetReverbEffect9setConfigERKNS3_12EffectConfigERKNS_2spINS3_29IEffectBufferProviderCallbackEEESC_"
    },
    {
     "mangled_component_name":"_ZN7android8hardware5audio6effect4V4_020BsPresetReverbEffect5resetEv"
    },
    {
     "mangled_component_name":"_ZN7android8hardware5audio6effect4V4_020BsPresetReverbEffect6enableEv"
    },
    {
     "mangled_component_name":"_ZN7android8hardware5audio6effect4V4_020BsPresetReverbEffect7disableEv"
    },
    {
     "mangled_component_name":"_ZN7android8hardware5audio6effect4V4_020BsPresetReverbEffect9setDeviceEj"
    },
    {
     "mangled_component_name":"_ZN7android8hardware5audio6effect4V4_020BsPresetReverbEffect15setAndGetVolumeERKNS0_8hidl_vecIjEENSt3__18functionIFvNS3_6ResultES8_EEE"
    },
    {
     "mangled_component_name":"_ZN7android8hardware5audio6effect4V4_020BsPresetReverbEffect24volumeChangeNotificationERKNS0_8hidl_vecIjEE"
    },
    {
     "mangled_component_name":"_ZN7android8hardware5audio6effect4V4_020BsPresetReverbEffect12setAudioModeENS1_6common4V4_09AudioModeE"
    },
    {
     "mangled_component_name":"_ZN7android8hardware5audio6effect4V4_020BsPresetReverbEffect16setConfigReverseERKNS3_12EffectConfigERKNS_2spINS3_29IEffectBufferProviderCallbackEEESC_"
    },
    {
     "mangled_component_name":"_ZN7android8hardware5audio6effect4V4_020BsPresetReverbEffect14setInputDeviceEj"
    },
    {
     "mangled_component_name":"_ZN7android8hardware5audio6effect4V4_020BsPresetReverbEffect9getConfigENSt3__18functionIFvNS3_6ResultERKNS3_12EffectConfigEEEE"
    },
    {
     "mangled_component_name":"_ZN7android8hardware5audio6effect4V4_020BsPresetReverbEffect16getConfigReverseENSt3__18functionIFvNS3_6ResultERKNS3_12EffectConfigEEEE"
    },
    {
     "mangled_component_name":"_ZN7android8hardware5audio6effect4V4_020BsPresetReverbEffect30getSupportedAuxChannelsConfigsEjNSt3__18functionIFvNS3_6ResultERKNS0_8hidl_vecINS3_23EffectAuxChannelsConfigEEEEEE"
    },
    {
     "mangled_component_name":"_ZN7android8hardware5audio6effect4V4_020BsPresetReverbEffect20getAuxChannelsConfigENSt3__18functionIFvNS3_6ResultERKNS3_23EffectAuxChannelsConfigEEEE"
    },
    {
     "mangled_component_name":"_ZN7android8hardware5audio6effect4V4_020BsPresetReverbEffect20setAuxChannelsConfigERKNS3_23EffectAuxChannelsConfigE"
    },
    {
     "mangled_component_name":"_ZN7android8hardware5audio6effect4V4_020BsPresetReverbEffect14setAudioSourceENS1_6common4V4_011AudioSourceE"
    },
    {
     "mangled_component_name":"_ZN7android8hardware5audio6effect4V4_020BsPresetReverbEffect7offloadERKNS3_22EffectOffloadParameterE"
    },
    {
     "mangled_component_name":"_ZN7android8hardware5audio6effect4V4_020BsPresetReverbEffect13getDescriptorENSt3__18functionIFvNS3_6ResultERKNS3_16EffectDescriptorEEEE"
    },
    {
     "mangled_component_name":"_ZN7android8hardware5audio6effect4V4_020BsPresetReverbEffect20prepareForProcessingENSt3__18functionIFvNS3_6ResultERKNS0_12MQDescriptorIS7_LNS0_8MQFlavorE1EEEEEE"
    },
    {
     "mangled_component_name":"_ZN7android8hardware5audio6effect4V4_020BsPresetReverbEffect17setProcessBuffersERKNS3_11AudioBufferES7_"
    },
    {
     "mangled_component_name":"_ZN7android8hardware5audio6effect4V4_020BsPresetReverbEffect7commandEjRKNS0_8hidl_vecIhEEjNSt3__18functionIFviS8_EEE"
    },
    {
     "mangled_component_name":"_ZN7android8hardware5audio6effect4V4_020BsPresetReverbEffect12setParameterERKNS0_8hidl_vecIhEES8_"
    },
    {
     "mangled_component_name":"_ZN7android8hardware5audio6effect4V4_020BsPresetReverbEffect12getParameterERKNS0_8hidl_vecIhEEjNSt3__18functionIFvNS3_6ResultES8_EEE"
    },
    {
     "mangled_component_name":"_ZN7android8hardware5audio6effect4V4_020BsPresetReverbEffect29getSupportedConfigsForFeatureEjjjNSt3__18functionIFvNS3_6ResultEjRKNS0_8hidl_vecIhEEEEE"
    },
    {
     "mangled_component_name":"_ZN7android8hardware5audio6effect4V4_020BsPresetReverbEffect26getCurrentConfigForFeatureEjjNSt3__18functionIFvNS3_6ResultERKNS0_8hidl_vecIhEEEEE"
    },
    {
     "mangled_component_name":"_ZN7android8hardware5audio6effect4V4_020BsPresetReverbEffect26setCurrentConfigForFeatureEjRKNS0_8hidl_vecIhEE"
    },
    {
     "mangled_component_name":"_ZN7android8hardware5audio6effect4V4_020BsPresetReverbEffect5closeEv"
    },
    {
     "mangled_component_name":"_ZN7android8hardware5audio6effect4V4_020BsPresetReverbEffect9setPresetENS3_19IPresetReverbEffect6PresetE"
    },
    {
     "mangled_component_name":"_ZN7android8hardware5audio6effect4V4_020BsPresetReverbEffect9getPresetENSt3__18functionIFvNS3_6ResultENS3_19IPresetReverbEffect6PresetEEEE"
    },
    {
     "kind":"offset_to_top",
     "component_value":-8
    },
    {
     "kind":"rtti",
     "mangled_component_name":"_ZTIN7android8hardware5audio6effect4V4_020BsPresetReverbEffectE"
    },
    {
     "kind":"complete_dtor_pointer",
     "mangled_component_name":"_ZThn8_N7android8hardware5audio6effect4V4_020BsPresetReverbEffectD1Ev"
    },
    {
     "kind":"deleting_dtor_pointer",
     "mangled_component_name":"_ZThn8_N7android8hardware5audio6effect4V4_020BsPresetReverbEffectD0Ev"
    },
    {
     "kind":"vcall_offset"
    },
    {
     "kind":"vcall_offset"
    },
    {
     "kind":"vcall_offset"
    },
    {
     "kind":"vcall_offset"
    },
    {
     "kind":"vcall_offset",
     "component_value":-120
    },
    {
     "kind":"offset_to_top",
     "component_value":-120
    },
    {
     "kind":"rtti",
     "mangled_component_name":"_ZTIN7android8hardware5audio6effect4V4_020BsPresetReverbEffectE"
    },
    {
     "kind":"complete_dtor_pointer",
     "mangled_component_name":"_ZTv0_n24_N7android8hardware5audio6effect4V4_020BsPresetReverbEffectD1Ev"
    },
    {
     "kind":"deleting_dtor_pointer",
     "mangled_component_name":"_ZTv0_n24_N7android8hardware5audio6effect4V4_020BsPresetReverbEffectD0Ev"
    },
    {
     "mangled_component_name":"_ZN7android7RefBase10onFirstRefEv"
    },
    {
     "mangled_component_name":"_ZN7android7RefBase15onLastStrongRefEPKv"
    },
    {
     "mangled_component_name":"_ZN7android7RefBase20onIncStrongAttemptedEjPKv"
    },
    {
     "mangled_component_name":"_ZN7android7RefBase13onLastWeakRefEPKv"
    }
   ],
   "unique_id":"_ZTSN7android8hardware5audio6effect4V4_020BsPresetReverbEffectE"
  },
  {
   "vtable_components":[
    {
     "kind":"vbase_offset",
     "component_value":200
    },
    {
     "kind":"offset_to_top"
    },
    {
     "kind":"rtti",
     "mangled_component_name":"_ZTIN7android8hardware5audio6effect4V4_022BpHwPresetReverbEffectE"
    },
    {
     "mangled_component_name":"_ZNK7android8hardware5audio6effect4V4_022BpHwPresetReverbEffect8isRemoteEv"
    },
    {
     "mangled_component_name":"_ZN7android8hardware5audio6effect4V4_022BpHwPresetReverbEffect14interfaceChainENSt3__18functionIFvRKNS0_8hidl_vecINS0_11hidl_stringEEEEEE"
    },
    {
     "mangled_component_name":"_ZN7android8hardware5audio6effect4V4_022BpHwPresetReverbEffect5debugERKNS0_11hidl_handleERKNS0_8hidl_vecINS0_11hidl_stringEEE"
    },
    {
     "mangled_component_name":"_ZN7android8hardware5audio6effect4V4_022BpHwPresetReverbEffect19interfaceDescriptorENSt3__18functionIFvRKNS0_11hidl_stringEEEE"
    },
    {
     "mangled_component_name":"_ZN7android8hardware5audio6effect4V4_022BpHwPresetReverbEffect12getHashChainENSt3__18functionIFvRKNS0_8hidl_vecINS0_10hidl_arrayIhLm32EJEEEEEEEE"
    },
    {
     "mangled_component_name":"_ZN7android8hardware5audio6effect4V4_022BpHwPresetReverbEffect21setHALInstrumentationEv"
    },
    {
     "mangled_component_name":"_ZN7android8hardware5audio6effect4V4_022BpHwPresetReverbEffect11linkToDeathERKNS_2spINS0_20hidl_death_recipientEEEm"
    },
    {
     "mangled_component_name":"_ZN7android8hardware5audio6effect4V4_022BpHwPresetReverbEffect4pingEv"
    },
    {
     "mangled_component_name":"_ZN7android8hardware5audio6effect4V4_022BpHwPresetReverbEffect12getDebugInfoENSt3__18functionIFvRKNS_4hidl4base4V1_09DebugInfoEEEE"
    },
    {
     "mangled_component_name":"_ZN7android8hardware5audio6effect4V4_022BpHwPresetReverbEffect21notifySyspropsChangedEv"
    },
    {
     "mangled_component_name":"_ZN7android8hardware5audio6effect4V4_022BpHwPresetReverbEffect13unlinkToDeathERKNS_2spINS0_20hidl_death_recipientEEE"
    },
    {
     "kind":"complete_dtor_pointer",
     "mangled_component_name":"_ZN7android8hardware5audio6effect4V4_022BpHwPresetReverbEffectD1Ev"
    },
    {
     "kind":"deleting_dtor_pointer",
     "mangled_component_name":"_ZN7android8hardware5audio6effect4V4_022BpHwPresetReverbEffectD0Ev"
    },
    {
     "mangled_component_name":"_ZN7android8hardware5audio6effect4V4_022BpHwPresetReverbEffect4initEv"
    },
    {
     "mangled_component_name":"_ZN7android8hardware5audio6effect4V4_022BpHwPresetReverbEffect9setConfigERKNS3_12EffectConfigERKNS_2spINS3_29IEffectBufferProviderCallbackEEESC_"
    },
    {
     "mangled_component_name":"_ZN7android8hardware5audio6effect4V4_022BpHwPresetReverbEffect5resetEv"
    },
    {
     "mangled_component_name":"_ZN7android8hardware5audio6effect4V4_022BpHwPresetReverbEffect6enableEv"
    },
    {
     "mangled_component_name":"_ZN7android8hardware5audio6effect4V4_022BpHwPresetReverbEffect7disableEv"
    },
    {
     "mangled_component_name":"_ZN7android8hardware5audio6effect4V4_022BpHwPresetReverbEffect9setDeviceEj"
    },
    {
     "mangled_component_name":"_ZN7android8hardware5audio6effect4V4_022BpHwPresetReverbEffect15setAndGetVolumeERKNS0_8hidl_vecIjEENSt3__18functionIFvNS3_6ResultES8_EEE"
    },
    {
     "mangled_component_name":"_ZN7android8hardware5audio6effect4V4_022BpHwPresetReverbEffect24volumeChangeNotificationERKNS0_8hidl_vecIjEE"
    },
    {
     "mangled_component_name":"_ZN7android8hardware5audio6effect4V4_022BpHwPresetReverbEffect12setAudioModeENS1_6common4V4_09AudioModeE"
    },
    {
     "mangled_component_name":"_ZN7android8hardware5audio6effect4V4_022BpHwPresetReverbEffect16setConfigReverseERKNS3_12EffectConfigERKNS_2spINS3_29IEffectBufferProviderCallbackEEESC_"
    },
    {
     "mangled_component_name":"_ZN7android8hardware5audio6effect4V4_022BpHwPresetReverbEffect14setInputDeviceEj"
    },
    {
     "mangled_component_name":"_ZN7android8hardware5audio6effect4V4_022BpHwPresetReverbEffect9getConfigENSt3__18functionIFvNS3_6ResultERKNS3_12EffectConfigEEEE"
    },
    {
     "mangled_component_name":"_ZN7android8hardware5audio6effect4V4_022BpHwPresetReverbEffect16getConfigReverseENSt3__18functionIFvNS3_6ResultERKNS3_12EffectConfigEEEE"
    },
    {
     "mangled_component_name":"_ZN7android8hardware5audio6effect4V4_022BpHwPresetReverbEffect30getSupportedAuxChannelsConfigsEjNSt3__18functionIFvNS3_6ResultERKNS0_8hidl_vecINS3_23EffectAuxChannelsConfigEEEEEE"
    },
    {
     "mangled_component_name":"_ZN7android8hardware5audio6effect4V4_022BpHwPresetReverbEffect20getAuxChannelsConfigENSt3__18functionIFvNS3_6ResultERKNS3_23EffectAuxChannelsConfigEEEE"
    },
    {
     "mangled_component_name":"_ZN7android8hardware5audio6effect4V4_022BpHwPresetReverbEffect20setAuxChannelsConfigERKNS3_23EffectAuxChannelsConfigE"
    },
    {
     "mangled_component_name":"_ZN7android8hardware5audio6effect4V4_022BpHwPresetReverbEffect14setAudioSourceENS1_6common4V4_011AudioSourceE"
    },
    {
     "mangled_component_name":"_ZN7android8hardware5audio6effect4V4_022BpHwPresetReverbEffect7offloadERKNS3_22EffectOffloadParameterE"
    },
    {
     "mangled_component_name":"_ZN7android8hardware5audio6effect4V4_022BpHwPresetReverbEffect13getDescriptorENSt3__18functionIFvNS3_6ResultERKNS3_16EffectDescriptorEEEE"
    },
    {
     "mangled_component_name":"_ZN7android8hardware5audio6effect4V4_022BpHwPresetReverbEffect20prepareForProcessingENSt3__18functionIFvNS3_6ResultERKNS0_12MQDescriptorIS7_LNS0_8MQFlavorE1EEEEEE"
    },
    {
     "mangled_component_name":"_ZN7android8hardware5audio6effect4V4_022BpHwPresetReverbEffect17setProcessBuffersERKNS3_11AudioBufferES7_"
    },
    {
     "mangled_component_name":"_ZN7android8hardware5audio6effect4V4_022BpHwPresetReverbEffect7commandEjRKNS0_8hidl_vecIhEEjNSt3__18functionIFviS8_EEE"
    },
    {
     "mangled_component_name":"_ZN7android8hardware5audio6effect4V4_022BpHwPresetReverbEffect12setParameterERKNS0_8hidl_vecIhEES8_"
    },
    {
     "mangled_component_name":"_ZN7android8hardware5audio6effect4V4_022BpHwPresetReverbEffect12getParameterERKNS0_8hidl_vecIhEEjNSt3__18functionIFvNS3_6ResultES8_EEE"
    },
    {
     "mangled_component_name":"_ZN7android8hardware5audio6effect4V4_022BpHwPresetReverbEffect29getSupportedConfigsForFeatureEjjjNSt3__18functionIFvNS3_6ResultEjRKNS0_8hidl_vecIhEEEEE"
    },
    {
     "mangled_component_name":"_ZN7android8hardware5audio6effect4V4_022BpHwPresetReverbEffect26getCurrentConfigForFeatureEjjNSt3__18functionIFvNS3_6ResultERKNS0_8hidl_vecIhEEEEE"
    },
    {
     "mangled_component_name":"_ZN7android8hardware5audio6effect4V4_022BpHwPresetReverbEffect26setCurrentConfigForFeatureEjRKNS0_8hidl_vecIhEE"
    },
    {
     "mangled_component_name":"_ZN7android8hardware5audio6effect4V4_022BpHwPresetReverbEffect5closeEv"
    },
    {
     "mangled_component_name":"_ZN7android8hardware5audio6effect4V4_022BpHwPresetReverbEffect9setPresetENS3_19IPresetReverbEffect6PresetE"
    },
    {
     "mangled_component_name":"_ZN7android8hardware5audio6effect4V4_022BpHwPresetReverbEffect9getPresetENSt3__18functionIFvNS3_6ResultENS3_19IPresetReverbEffect6PresetEEEE"
    },
    {
     "mangled_component_name":"_ZN7android8hardware11BpInterfaceINS0_5audio6effect4V4_019IPresetReverbEffectEE10onAsBinderEv"
    },
    {
     "kind":"vbase_offset",
     "component_value":192
    },
    {
     "kind":"offset_to_top",
     "component_value":-8
    },
    {
     "kind":"rtti",
     "mangled_component_name":"_ZTIN7android8hardware5audio6effect4V4_022BpHwPresetReverbEffectE"
    },
    {
     "kind":"complete_dtor_pointer",
     "mangled_component_name":"_ZThn8_N7android8hardware5audio6effect4V4_022BpHwPresetReverbEffectD1Ev"
    },
    {
     "kind":"deleting_dtor_pointer",
     "mangled_component_name":"_ZThn8_N7android8hardware5audio6effect4V4_022BpHwPresetReverbEffectD0Ev"
    },
    {
     "mangled_component_name":"_ZThn8_N7android8hardware11BpInterfaceINS0_5audio6effect4V4_019IPresetReverbEffectEE10onAsBinderEv"
    },
    {
     "kind":"vbase_offset",
     "component_value":184
    },
    {
     "kind":"offset_to_top",
     "component_value":-16
    },
    {
     "kind":"rtti",
     "mangled_component_name":"_ZTIN7android8hardware5audio6effect4V4_022BpHwPresetReverbEffectE"
    },
    {
     "kind":"complete_dtor_pointer",
     "mangled_component_name":"_ZThn16_N7android8hardware5audio6effect4V4_022BpHwPresetReverbEffectD1Ev"
    },
    {
     "kind":"deleting_dtor_pointer",
     "mangled_component_name":"_ZThn16_N7android8hardware5audio6effect4V4_022BpHwPresetReverbEffectD0Ev"
    },
    {
     "mangled_component_name":"_ZN7android8hardware11BpHwRefBase10onFirstRefEv"
    },
    {
     "mangled_component_name":"_ZN7android8hardware11BpHwRefBase15onLastStrongRefEPKv"
    },
    {
     "mangled_component_name":"_ZN7android8hardware11BpHwRefBase20onIncStrongAttemptedEjPKv"
    },
    {
     "kind":"offset_to_top",
     "component_value":-48
    },
    {
     "kind":"rtti",
     "mangled_component_name":"_ZTIN7android8hardware5audio6effect4V4_022BpHwPresetReverbEffectE"
    },
    {
     "kind":"complete_dtor_pointer",
     "mangled_component_name":"_ZThn48_N7android8hardware5audio6effect4V4_022BpHwPresetReverbEffectD1Ev"
    },
    {
     "kind":"deleting_dtor_pointer",
     "mangled_component_name":"_ZThn48_N7android8hardware5audio6effect4V4_022BpHwPresetReverbEffectD0Ev"
    },
    {
     "kind":"vcall_offset"
    },
    {
     "kind":"vcall_offset",
     "component_value":-184
    },
    {
     "kind":"vcall_offset",
     "component_value":-184
    },
    {
     "kind":"vcall_offset",
     "component_value":-184
    },
    {
     "kind":"vcall_offset",
     "component_value":-200
    },
    {
     "kind":"offset_to_top",
     "component_value":-200
    },
    {
     "kind":"rtti",
     "mangled_component_name":"_ZTIN7android8hardware5audio6effect4V4_022BpHwPresetReverbEffectE"
    },
    {
     "kind":"complete_dtor_pointer",
     "mangled_component_name":"_ZTv0_n24_N7android8hardware5audio6effect4V4_022BpHwPresetReverbEffectD1Ev"
    },
    {
     "kind":"deleting_dtor_pointer",
     "mangled_component_name":"_ZTv0_n24_N7android8hardware5audio6effect4V4_022BpHwPresetReverbEffectD0Ev"
    },
    {
     "mangled_component_name":"_ZTv0_n32_N7android8hardware11BpHwRefBase10onFirstRefEv"
    },
    {
     "mangled_component_name":"_ZTv0_n40_N7android8hardware11BpHwRefBase15onLastStrongRefEPKv"
    },
    {
     "mangled_component_name":"_ZTv0_n48_N7android8hardware11BpHwRefBase20onIncStrongAttemptedEjPKv"
    },
    {
     "mangled_component_name":"_ZN7android7RefBase13onLastWeakRefEPKv"
    }
   ],
   "unique_id":"_ZTSN7android8hardware5audio6effect4V4_022BpHwPresetReverbEffectE"
  },
  {
   "vtable_components":[
    {
     "kind":"vbase_offset",
     "component_value":8
    },
    {
     "kind":"offset_to_top"
    },
    {
     "kind":"rtti",
     "mangled_component_name":"_ZTIN7android8hardware5audio6effect4V4_018IVirtualizerEffectE"
    },
    {
     "mangled_component_name":"_ZNK7android8hardware5audio6effect4V4_018IVirtualizerEffect8isRemoteEv"
    },
    {
     "mangled_component_name":"_ZN7android8hardware5audio6effect4V4_018IVirtualizerEffect14interfaceChainENSt3__18functionIFvRKNS0_8hidl_vecINS0_11hidl_stringEEEEEE"
    },
    {
     "mangled_component_name":"_ZN7android8hardware5audio6effect4V4_018IVirtualizerEffect5debugERKNS0_11hidl_handleERKNS0_8hidl_vecINS0_11hidl_stringEEE"
    },
    {
     "mangled_component_name":"_ZN7android8hardware5audio6effect4V4_018IVirtualizerEffect19interfaceDescriptorENSt3__18functionIFvRKNS0_11hidl_stringEEEE"
    },
    {
     "mangled_component_name":"_ZN7android8hardware5audio6effect4V4_018IVirtualizerEffect12getHashChainENSt3__18functionIFvRKNS0_8hidl_vecINS0_10hidl_arrayIhLm32EJEEEEEEEE"
    },
    {
     "mangled_component_name":"_ZN7android8hardware5audio6effect4V4_018IVirtualizerEffect21setHALInstrumentationEv"
    },
    {
     "mangled_component_name":"_ZN7android8hardware5audio6effect4V4_018IVirtualizerEffect11linkToDeathERKNS_2spINS0_20hidl_death_recipientEEEm"
    },
    {
     "mangled_component_name":"_ZN7android8hardware5audio6effect4V4_018IVirtualizerEffect4pingEv"
    },
    {
     "mangled_component_name":"_ZN7android8hardware5audio6effect4V4_018IVirtualizerEffect12getDebugInfoENSt3__18functionIFvRKNS_4hidl4base4V1_09DebugInfoEEEE"
    },
    {
     "mangled_component_name":"_ZN7android8hardware5audio6effect4V4_018IVirtualizerEffect21notifySyspropsChangedEv"
    },
    {
     "mangled_component_name":"_ZN7android8hardware5audio6effect4V4_018IVirtualizerEffect13unlinkToDeathERKNS_2spINS0_20hidl_death_recipientEEE"
    },
    {
     "kind":"complete_dtor_pointer",
     "mangled_component_name":"_ZN7android8hardware5audio6effect4V4_018IVirtualizerEffectD1Ev"
    },
    {
     "kind":"deleting_dtor_pointer",
     "mangled_component_name":"_ZN7android8hardware5audio6effect4V4_018IVirtualizerEffectD0Ev"
    },
    {
     "is_pure":true,
     "mangled_component_name":"_ZN7android8hardware5audio6effect4V4_018IVirtualizerEffect4initEv"
    },
    {
     "is_pure":true,
     "mangled_component_name":"_ZN7android8hardware5audio6effect4V4_018IVirtualizerEffect9setConfigERKNS3_12EffectConfigERKNS_2spINS3_29IEffectBufferProviderCallbackEEESC_"
    },
    {
     "is_pure":true,
     "mangled_component_name":"_ZN7android8hardware5audio6effect4V4_018IVirtualizerEffect5resetEv"
    },
    {
     "is_pure":true,
     "mangled_component_name":"_ZN7android8hardware5audio6effect4V4_018IVirtualizerEffect6enableEv"
    },
    {
     "is_pure":true,
     "mangled_component_name":"_ZN7android8hardware5audio6effect4V4_018IVirtualizerEffect7disableEv"
    },
    {
     "is_pure":true,
     "mangled_component_name":"_ZN7android8hardware5audio6effect4V4_018IVirtualizerEffect9setDeviceEj"
    },
    {
     "is_pure":true,
     "mangled_component_name":"_ZN7android8hardware5audio6effect4V4_018IVirtualizerEffect15setAndGetVolumeERKNS0_8hidl_vecIjEENSt3__18functionIFvNS3_6ResultES8_EEE"
    },
    {
     "is_pure":true,
     "mangled_component_name":"_ZN7android8hardware5audio6effect4V4_018IVirtualizerEffect24volumeChangeNotificationERKNS0_8hidl_vecIjEE"
    },
    {
     "is_pure":true,
     "mangled_component_name":"_ZN7android8hardware5audio6effect4V4_018IVirtualizerEffect12setAudioModeENS1_6common4V4_09AudioModeE"
    },
    {
     "is_pure":true,
     "mangled_component_name":"_ZN7android8hardware5audio6effect4V4_018IVirtualizerEffect16setConfigReverseERKNS3_12EffectConfigERKNS_2spINS3_29IEffectBufferProviderCallbackEEESC_"
    },
    {
     "is_pure":true,
     "mangled_component_name":"_ZN7android8hardware5audio6effect4V4_018IVirtualizerEffect14setInputDeviceEj"
    },
    {
     "is_pure":true,
     "mangled_component_name":"_ZN7android8hardware5audio6effect4V4_018IVirtualizerEffect9getConfigENSt3__18functionIFvNS3_6ResultERKNS3_12EffectConfigEEEE"
    },
    {
     "is_pure":true,
     "mangled_component_name":"_ZN7android8hardware5audio6effect4V4_018IVirtualizerEffect16getConfigReverseENSt3__18functionIFvNS3_6ResultERKNS3_12EffectConfigEEEE"
    },
    {
     "is_pure":true,
     "mangled_component_name":"_ZN7android8hardware5audio6effect4V4_018IVirtualizerEffect30getSupportedAuxChannelsConfigsEjNSt3__18functionIFvNS3_6ResultERKNS0_8hidl_vecINS3_23EffectAuxChannelsConfigEEEEEE"
    },
    {
     "is_pure":true,
     "mangled_component_name":"_ZN7android8hardware5audio6effect4V4_018IVirtualizerEffect20getAuxChannelsConfigENSt3__18functionIFvNS3_6ResultERKNS3_23EffectAuxChannelsConfigEEEE"
    },
    {
     "is_pure":true,
     "mangled_component_name":"_ZN7android8hardware5audio6effect4V4_018IVirtualizerEffect20setAuxChannelsConfigERKNS3_23EffectAuxChannelsConfigE"
    },
    {
     "is_pure":true,
     "mangled_component_name":"_ZN7android8hardware5audio6effect4V4_018IVirtualizerEffect14setAudioSourceENS1_6common4V4_011AudioSourceE"
    },
    {
     "is_pure":true,
     "mangled_component_name":"_ZN7android8hardware5audio6effect4V4_018IVirtualizerEffect7offloadERKNS3_22EffectOffloadParameterE"
    },
    {
     "is_pure":true,
     "mangled_component_name":"_ZN7android8hardware5audio6effect4V4_018IVirtualizerEffect13getDescriptorENSt3__18functionIFvNS3_6ResultERKNS3_16EffectDescriptorEEEE"
    },
    {
     "is_pure":true,
     "mangled_component_name":"_ZN7android8hardware5audio6effect4V4_018IVirtualizerEffect20prepareForProcessingENSt3__18functionIFvNS3_6ResultERKNS0_12MQDescriptorIS7_LNS0_8MQFlavorE1EEEEEE"
    },
    {
     "is_pure":true,
     "mangled_component_name":"_ZN7android8hardware5audio6effect4V4_018IVirtualizerEffect17setProcessBuffersERKNS3_11AudioBufferES7_"
    },
    {
     "is_pure":true,
     "mangled_component_name":"_ZN7android8hardware5audio6effect4V4_018IVirtualizerEffect7commandEjRKNS0_8hidl_vecIhEEjNSt3__18functionIFviS8_EEE"
    },
    {
     "is_pure":true,
     "mangled_component_name":"_ZN7android8hardware5audio6effect4V4_018IVirtualizerEffect12setParameterERKNS0_8hidl_vecIhEES8_"
    },
    {
     "is_pure":true,
     "mangled_component_name":"_ZN7android8hardware5audio6effect4V4_018IVirtualizerEffect12getParameterERKNS0_8hidl_vecIhEEjNSt3__18functionIFvNS3_6ResultES8_EEE"
    },
    {
     "is_pure":true,
     "mangled_component_name":"_ZN7android8hardware5audio6effect4V4_018IVirtualizerEffect29getSupportedConfigsForFeatureEjjjNSt3__18functionIFvNS3_6ResultEjRKNS0_8hidl_vecIhEEEEE"
    },
    {
     "is_pure":true,
     "mangled_component_name":"_ZN7android8hardware5audio6effect4V4_018IVirtualizerEffect26getCurrentConfigForFeatureEjjNSt3__18functionIFvNS3_6ResultERKNS0_8hidl_vecIhEEEEE"
    },
    {
     "is_pure":true,
     "mangled_component_name":"_ZN7android8hardware5audio6effect4V4_018IVirtualizerEffect26setCurrentConfigForFeatureEjRKNS0_8hidl_vecIhEE"
    },
    {
     "is_pure":true,
     "mangled_component_name":"_ZN7android8hardware5audio6effect4V4_018IVirtualizerEffect5closeEv"
    },
    {
     "is_pure":true,
     "mangled_component_name":"_ZN7android8hardware5audio6effect4V4_018IVirtualizerEffect19isStrengthSupportedEv"
    },
    {
     "is_pure":true,
     "mangled_component_name":"_ZN7android8hardware5audio6effect4V4_018IVirtualizerEffect11setStrengthEt"
    },
    {
     "is_pure":true,
     "mangled_component_name":"_ZN7android8hardware5audio6effect4V4_018IVirtualizerEffect11getStrengthENSt3__18functionIFvNS3_6ResultEtEEE"
    },
    {
     "is_pure":true,
     "mangled_component_name":"_ZN7android8hardware5audio6effect4V4_018IVirtualizerEffect23getVirtualSpeakerAnglesEjNS1_6common4V4_011AudioDeviceENSt3__18functionIFvNS3_6ResultERKNS0_8hidl_vecINS4_12SpeakerAngleEEEEEE"
    },
    {
     "is_pure":true,
     "mangled_component_name":"_ZN7android8hardware5audio6effect4V4_018IVirtualizerEffect23forceVirtualizationModeENS1_6common4V4_011AudioDeviceE"
    },
    {
     "is_pure":true,
     "mangled_component_name":"_ZN7android8hardware5audio6effect4V4_018IVirtualizerEffect21getVirtualizationModeENSt3__18functionIFvNS3_6ResultENS1_6common4V4_011AudioDeviceEEEE"
    },
    {
     "kind":"vcall_offset"
    },
    {
     "kind":"vcall_offset"
    },
    {
     "kind":"vcall_offset"
    },
    {
     "kind":"vcall_offset"
    },
    {
     "kind":"vcall_offset",
     "component_value":-8
    },
    {
     "kind":"offset_to_top",
     "component_value":-8
    },
    {
     "kind":"rtti",
     "mangled_component_name":"_ZTIN7android8hardware5audio6effect4V4_018IVirtualizerEffectE"
    },
    {
     "kind":"complete_dtor_pointer",
     "mangled_component_name":"_ZTv0_n24_N7android8hardware5audio6effect4V4_018IVirtualizerEffectD1Ev"
    },
    {
     "kind":"deleting_dtor_pointer",
     "mangled_component_name":"_ZTv0_n24_N7android8hardware5audio6effect4V4_018IVirtualizerEffectD0Ev"
    },
    {
     "mangled_component_name":"_ZN7android7RefBase10onFirstRefEv"
    },
    {
     "mangled_component_name":"_ZN7android7RefBase15onLastStrongRefEPKv"
    },
    {
     "mangled_component_name":"_ZN7android7RefBase20onIncStrongAttemptedEjPKv"
    },
    {
     "mangled_component_name":"_ZN7android7RefBase13onLastWeakRefEPKv"
    }
   ],
   "unique_id":"_ZTSN7android8hardware5audio6effect4V4_018IVirtualizerEffectE"
  },
  {
   "vtable_components":[
    {
     "kind":"vbase_offset",
     "component_value":136
    },
    {
     "kind":"offset_to_top"
    },
    {
     "kind":"rtti",
     "mangled_component_name":"_ZTIN7android8hardware5audio6effect4V4_021BnHwVirtualizerEffectE"
    },
    {
     "mangled_component_name":"_ZN7android8hardware9BHwBinder8transactEjRKNS0_6ParcelEPS2_jNSt3__18functionIFvRS2_EEE"
    },
    {
     "mangled_component_name":"_ZN7android8hardware9BHwBinder11linkToDeathERKNS_2spINS0_7IBinder14DeathRecipientEEEPvj"
    },
    {
     "mangled_component_name":"_ZN7android8hardware9BHwBinder13unlinkToDeathERKNS_2wpINS0_7IBinder14DeathRecipientEEEPvjPS5_"
    },
    {
     "mangled_component_name":"_ZNK7android8hardware7IBinder13checkSubclassEPKv"
    },
    {
     "mangled_component_name":"_ZN7android8hardware9BHwBinder12attachObjectEPKvPvS4_PFvS3_S4_S4_E"
    },
    {
     "mangled_component_name":"_ZNK7android8hardware9BHwBinder10findObjectEPKv"
    },
    {
     "mangled_component_name":"_ZN7android8hardware9BHwBinder12detachObjectEPKv"
    },
    {
     "mangled_component_name":"_ZN7android8hardware9BHwBinder11localBinderEv"
    },
    {
     "mangled_component_name":"_ZN7android8hardware7IBinder12remoteBinderEv"
    },
    {
     "kind":"complete_dtor_pointer",
     "mangled_component_name":"_ZN7android8hardware5audio6effect4V4_021BnHwVirtualizerEffectD1Ev"
    },
    {
     "kind":"deleting_dtor_pointer",
     "mangled_component_name":"_ZN7android8hardware5audio6effect4V4_021BnHwVirtualizerEffectD0Ev"
    },
    {
     "mangled_component_name":"_ZN7android8hardware5audio6effect4V4_021BnHwVirtualizerEffect10onTransactEjRKNS0_6ParcelEPS5_jNSt3__18functionIFvRS5_EEE"
    },
    {
     "kind":"offset_to_top",
     "component_value":-32
    },
    {
     "kind":"rtti",
     "mangled_component_name":"_ZTIN7android8hardware5audio6effect4V4_021BnHwVirtualizerEffectE"
    },
    {
     "kind":"complete_dtor_pointer",
     "mangled_component_name":"_ZThn32_N7android8hardware5audio6effect4V4_021BnHwVirtualizerEffectD1Ev"
    },
    {
     "kind":"deleting_dtor_pointer",
     "mangled_component_name":"_ZThn32_N7android8hardware5audio6effect4V4_021BnHwVirtualizerEffectD0Ev"
    },
    {
     "kind":"vcall_offset"
    },
    {
     "kind":"vcall_offset"
    },
    {
     "kind":"vcall_offset"
    },
    {
     "kind":"vcall_offset"
    },
    {
     "kind":"vcall_offset",
     "component_value":-136
    },
    {
     "kind":"offset_to_top",
     "component_value":-136
    },
    {
     "kind":"rtti",
     "mangled_component_name":"_ZTIN7android8hardware5audio6effect4V4_021BnHwVirtualizerEffectE"
    },
    {
     "kind":"complete_dtor_pointer",
     "mangled_component_name":"_ZTv0_n24_N7android8hardware5audio6effect4V4_021BnHwVirtualizerEffectD1Ev"
    },
    {
     "kind":"deleting_dtor_pointer",
     "mangled_component_name":"_ZTv0_n24_N7android8hardware5audio6effect4V4_021BnHwVirtualizerEffectD0Ev"
    },
    {
     "mangled_component_name":"_ZN7android7RefBase10onFirstRefEv"
    },
    {
     "mangled_component_name":"_ZN7android7RefBase15onLastStrongRefEPKv"
    },
    {
     "mangled_component_name":"_ZN7android7RefBase20onIncStrongAttemptedEjPKv"
    },
    {
     "mangled_component_name":"_ZN7android7RefBase13onLastWeakRefEPKv"
    }
   ],
   "unique_id":"_ZTSN7android8hardware5audio6effect4V4_021BnHwVirtualizerEffectE"
  },
  {
   "vtable_components":[
    {
     "kind":"vbase_offset",
     "component_value":120
    },
    {
     "kind":"offset_to_top"
    },
    {
     "kind":"rtti",
     "mangled_component_name":"_ZTIN7android8hardware5audio6effect4V4_019BsVirtualizerEffectE"
    },
    {
     "mangled_component_name":"_ZNK7android8hardware5audio6effect4V4_018IVirtualizerEffect8isRemoteEv"
    },
    {
     "mangled_component_name":"_ZN7android8hardware5audio6effect4V4_019BsVirtualizerEffect14interfaceChainENSt3__18functionIFvRKNS0_8hidl_vecINS0_11hidl_stringEEEEEE"
    },
    {
     "mangled_component_name":"_ZN7android8hardware5audio6effect4V4_019BsVirtualizerEffect5debugERKNS0_11hidl_handleERKNS0_8hidl_vecINS0_11hidl_stringEEE"
    },
    {
     "mangled_component_name":"_ZN7android8hardware5audio6effect4V4_019BsVirtualizerEffect19interfaceDescriptorENSt3__18functionIFvRKNS0_11hidl_stringEEEE"
    },
    {
     "mangled_component_name":"_ZN7android8hardware5audio6effect4V4_019BsVirtualizerEffect12getHashChainENSt3__18functionIFvRKNS0_8hidl_vecINS0_10hidl_arrayIhLm32EJEEEEEEEE"
    },
    {
     "mangled_component_name":"_ZN7android8hardware5audio6effect4V4_019BsVirtualizerEffect21setHALInstrumentationEv"
    },
    {
     "mangled_component_name":"_ZN7android8hardware5audio6effect4V4_019BsVirtualizerEffect11linkToDeathERKNS_2spINS0_20hidl_death_recipientEEEm"
    },
    {
     "mangled_component_name":"_ZN7android8hardware5audio6effect4V4_019BsVirtualizerEffect4pingEv"
    },
    {
     "mangled_component_name":"_ZN7android8hardware5audio6effect4V4_019BsVirtualizerEffect12getDebugInfoENSt3__18functionIFvRKNS_4hidl4base4V1_09DebugInfoEEEE"
    },
    {
     "mangled_component_name":"_ZN7android8hardware5audio6effect4V4_019BsVirtualizerEffect21notifySyspropsChangedEv"
    },
    {
     "mangled_component_name":"_ZN7android8hardware5audio6effect4V4_019BsVirtualizerEffect13unlinkToDeathERKNS_2spINS0_20hidl_death_recipientEEE"
    },
    {
     "kind":"complete_dtor_pointer",
     "mangled_component_name":"_ZN7android8hardware5audio6effect4V4_019BsVirtualizerEffectD1Ev"
    },
    {
     "kind":"deleting_dtor_pointer",
     "mangled_component_name":"_ZN7android8hardware5audio6effect4V4_019BsVirtualizerEffectD0Ev"
    },
    {
     "mangled_component_name":"_ZN7android8hardware5audio6effect4V4_019BsVirtualizerEffect4initEv"
    },
    {
     "mangled_component_name":"_ZN7android8hardware5audio6effect4V4_019BsVirtualizerEffect9setConfigERKNS3_12EffectConfigERKNS_2spINS3_29IEffectBufferProviderCallbackEEESC_"
    },
    {
     "mangled_component_name":"_ZN7android8hardware5audio6effect4V4_019BsVirtualizerEffect5resetEv"
    },
    {
     "mangled_component_name":"_ZN7android8hardware5audio6effect4V4_019BsVirtualizerEffect6enableEv"
    },
    {
     "mangled_component_name":"_ZN7android8hardware5audio6effect4V4_019BsVirtualizerEffect7disableEv"
    },
    {
     "mangled_component_name":"_ZN7android8hardware5audio6effect4V4_019BsVirtualizerEffect9setDeviceEj"
    },
    {
     "mangled_component_name":"_ZN7android8hardware5audio6effect4V4_019BsVirtualizerEffect15setAndGetVolumeERKNS0_8hidl_vecIjEENSt3__18functionIFvNS3_6ResultES8_EEE"
    },
    {
     "mangled_component_name":"_ZN7android8hardware5audio6effect4V4_019BsVirtualizerEffect24volumeChangeNotificationERKNS0_8hidl_vecIjEE"
    },
    {
     "mangled_component_name":"_ZN7android8hardware5audio6effect4V4_019BsVirtualizerEffect12setAudioModeENS1_6common4V4_09AudioModeE"
    },
    {
     "mangled_component_name":"_ZN7android8hardware5audio6effect4V4_019BsVirtualizerEffect16setConfigReverseERKNS3_12EffectConfigERKNS_2spINS3_29IEffectBufferProviderCallbackEEESC_"
    },
    {
     "mangled_component_name":"_ZN7android8hardware5audio6effect4V4_019BsVirtualizerEffect14setInputDeviceEj"
    },
    {
     "mangled_component_name":"_ZN7android8hardware5audio6effect4V4_019BsVirtualizerEffect9getConfigENSt3__18functionIFvNS3_6ResultERKNS3_12EffectConfigEEEE"
    },
    {
     "mangled_component_name":"_ZN7android8hardware5audio6effect4V4_019BsVirtualizerEffect16getConfigReverseENSt3__18functionIFvNS3_6ResultERKNS3_12EffectConfigEEEE"
    },
    {
     "mangled_component_name":"_ZN7android8hardware5audio6effect4V4_019BsVirtualizerEffect30getSupportedAuxChannelsConfigsEjNSt3__18functionIFvNS3_6ResultERKNS0_8hidl_vecINS3_23EffectAuxChannelsConfigEEEEEE"
    },
    {
     "mangled_component_name":"_ZN7android8hardware5audio6effect4V4_019BsVirtualizerEffect20getAuxChannelsConfigENSt3__18functionIFvNS3_6ResultERKNS3_23EffectAuxChannelsConfigEEEE"
    },
    {
     "mangled_component_name":"_ZN7android8hardware5audio6effect4V4_019BsVirtualizerEffect20setAuxChannelsConfigERKNS3_23EffectAuxChannelsConfigE"
    },
    {
     "mangled_component_name":"_ZN7android8hardware5audio6effect4V4_019BsVirtualizerEffect14setAudioSourceENS1_6common4V4_011AudioSourceE"
    },
    {
     "mangled_component_name":"_ZN7android8hardware5audio6effect4V4_019BsVirtualizerEffect7offloadERKNS3_22EffectOffloadParameterE"
    },
    {
     "mangled_component_name":"_ZN7android8hardware5audio6effect4V4_019BsVirtualizerEffect13getDescriptorENSt3__18functionIFvNS3_6ResultERKNS3_16EffectDescriptorEEEE"
    },
    {
     "mangled_component_name":"_ZN7android8hardware5audio6effect4V4_019BsVirtualizerEffect20prepareForProcessingENSt3__18functionIFvNS3_6ResultERKNS0_12MQDescriptorIS7_LNS0_8MQFlavorE1EEEEEE"
    },
    {
     "mangled_component_name":"_ZN7android8hardware5audio6effect4V4_019BsVirtualizerEffect17setProcessBuffersERKNS3_11AudioBufferES7_"
    },
    {
     "mangled_component_name":"_ZN7android8hardware5audio6effect4V4_019BsVirtualizerEffect7commandEjRKNS0_8hidl_vecIhEEjNSt3__18functionIFviS8_EEE"
    },
    {
     "mangled_component_name":"_ZN7android8hardware5audio6effect4V4_019BsVirtualizerEffect12setParameterERKNS0_8hidl_vecIhEES8_"
    },
    {
     "mangled_component_name":"_ZN7android8hardware5audio6effect4V4_019BsVirtualizerEffect12getParameterERKNS0_8hidl_vecIhEEjNSt3__18functionIFvNS3_6ResultES8_EEE"
    },
    {
     "mangled_component_name":"_ZN7android8hardware5audio6effect4V4_019BsVirtualizerEffect29getSupportedConfigsForFeatureEjjjNSt3__18functionIFvNS3_6ResultEjRKNS0_8hidl_vecIhEEEEE"
    },
    {
     "mangled_component_name":"_ZN7android8hardware5audio6effect4V4_019BsVirtualizerEffect26getCurrentConfigForFeatureEjjNSt3__18functionIFvNS3_6ResultERKNS0_8hidl_vecIhEEEEE"
    },
    {
     "mangled_component_name":"_ZN7android8hardware5audio6effect4V4_019BsVirtualizerEffect26setCurrentConfigForFeatureEjRKNS0_8hidl_vecIhEE"
    },
    {
     "mangled_component_name":"_ZN7android8hardware5audio6effect4V4_019BsVirtualizerEffect5closeEv"
    },
    {
     "mangled_component_name":"_ZN7android8hardware5audio6effect4V4_019BsVirtualizerEffect19isStrengthSupportedEv"
    },
    {
     "mangled_component_name":"_ZN7android8hardware5audio6effect4V4_019BsVirtualizerEffect11setStrengthEt"
    },
    {
     "mangled_component_name":"_ZN7android8hardware5audio6effect4V4_019BsVirtualizerEffect11getStrengthENSt3__18functionIFvNS3_6ResultEtEEE"
    },
    {
     "mangled_component_name":"_ZN7android8hardware5audio6effect4V4_019BsVirtualizerEffect23getVirtualSpeakerAnglesEjNS1_6common4V4_011AudioDeviceENSt3__18functionIFvNS3_6ResultERKNS0_8hidl_vecINS3_18IVirtualizerEffect12SpeakerAngleEEEEEE"
    },
    {
     "mangled_component_name":"_ZN7android8hardware5audio6effect4V4_019BsVirtualizerEffect23forceVirtualizationModeENS1_6common4V4_011AudioDeviceE"
    },
    {
     "mangled_component_name":"_ZN7android8hardware5audio6effect4V4_019BsVirtualizerEffect21getVirtualizationModeENSt3__18functionIFvNS3_6ResultENS1_6common4V4_011AudioDeviceEEEE"
    },
    {
     "kind":"offset_to_top",
     "component_value":-8
    },
    {
     "kind":"rtti",
     "mangled_component_name":"_ZTIN7android8hardware5audio6effect4V4_019BsVirtualizerEffectE"
    },
    {
     "kind":"complete_dtor_pointer",
     "mangled_component_name":"_ZThn8_N7android8hardware5audio6effect4V4_019BsVirtualizerEffectD1Ev"
    },
    {
     "kind":"deleting_dtor_pointer",
     "mangled_component_name":"_ZThn8_N7android8hardware5audio6effect4V4_019BsVirtualizerEffectD0Ev"
    },
    {
     "kind":"vcall_offset"
    },
    {
     "kind":"vcall_offset"
    },
    {
     "kind":"vcall_offset"
    },
    {
     "kind":"vcall_offset"
    },
    {
     "kind":"vcall_offset",
     "component_value":-120
    },
    {
     "kind":"offset_to_top",
     "component_value":-120
    },
    {
     "kind":"rtti",
     "mangled_component_name":"_ZTIN7android8hardware5audio6effect4V4_019BsVirtualizerEffectE"
    },
    {
     "kind":"complete_dtor_pointer",
     "mangled_component_name":"_ZTv0_n24_N7android8hardware5audio6effect4V4_019BsVirtualizerEffectD1Ev"
    },
    {
     "kind":"deleting_dtor_pointer",
     "mangled_component_name":"_ZTv0_n24_N7android8hardware5audio6effect4V4_019BsVirtualizerEffectD0Ev"
    },
    {
     "mangled_component_name":"_ZN7android7RefBase10onFirstRefEv"
    },
    {
     "mangled_component_name":"_ZN7android7RefBase15onLastStrongRefEPKv"
    },
    {
     "mangled_component_name":"_ZN7android7RefBase20onIncStrongAttemptedEjPKv"
    },
    {
     "mangled_component_name":"_ZN7android7RefBase13onLastWeakRefEPKv"
    }
   ],
   "unique_id":"_ZTSN7android8hardware5audio6effect4V4_019BsVirtualizerEffectE"
  },
  {
   "vtable_components":[
    {
     "kind":"vbase_offset",
     "component_value":200
    },
    {
     "kind":"offset_to_top"
    },
    {
     "kind":"rtti",
     "mangled_component_name":"_ZTIN7android8hardware5audio6effect4V4_021BpHwVirtualizerEffectE"
    },
    {
     "mangled_component_name":"_ZNK7android8hardware5audio6effect4V4_021BpHwVirtualizerEffect8isRemoteEv"
    },
    {
     "mangled_component_name":"_ZN7android8hardware5audio6effect4V4_021BpHwVirtualizerEffect14interfaceChainENSt3__18functionIFvRKNS0_8hidl_vecINS0_11hidl_stringEEEEEE"
    },
    {
     "mangled_component_name":"_ZN7android8hardware5audio6effect4V4_021BpHwVirtualizerEffect5debugERKNS0_11hidl_handleERKNS0_8hidl_vecINS0_11hidl_stringEEE"
    },
    {
     "mangled_component_name":"_ZN7android8hardware5audio6effect4V4_021BpHwVirtualizerEffect19interfaceDescriptorENSt3__18functionIFvRKNS0_11hidl_stringEEEE"
    },
    {
     "mangled_component_name":"_ZN7android8hardware5audio6effect4V4_021BpHwVirtualizerEffect12getHashChainENSt3__18functionIFvRKNS0_8hidl_vecINS0_10hidl_arrayIhLm32EJEEEEEEEE"
    },
    {
     "mangled_component_name":"_ZN7android8hardware5audio6effect4V4_021BpHwVirtualizerEffect21setHALInstrumentationEv"
    },
    {
     "mangled_component_name":"_ZN7android8hardware5audio6effect4V4_021BpHwVirtualizerEffect11linkToDeathERKNS_2spINS0_20hidl_death_recipientEEEm"
    },
    {
     "mangled_component_name":"_ZN7android8hardware5audio6effect4V4_021BpHwVirtualizerEffect4pingEv"
    },
    {
     "mangled_component_name":"_ZN7android8hardware5audio6effect4V4_021BpHwVirtualizerEffect12getDebugInfoENSt3__18functionIFvRKNS_4hidl4base4V1_09DebugInfoEEEE"
    },
    {
     "mangled_component_name":"_ZN7android8hardware5audio6effect4V4_021BpHwVirtualizerEffect21notifySyspropsChangedEv"
    },
    {
     "mangled_component_name":"_ZN7android8hardware5audio6effect4V4_021BpHwVirtualizerEffect13unlinkToDeathERKNS_2spINS0_20hidl_death_recipientEEE"
    },
    {
     "kind":"complete_dtor_pointer",
     "mangled_component_name":"_ZN7android8hardware5audio6effect4V4_021BpHwVirtualizerEffectD1Ev"
    },
    {
     "kind":"deleting_dtor_pointer",
     "mangled_component_name":"_ZN7android8hardware5audio6effect4V4_021BpHwVirtualizerEffectD0Ev"
    },
    {
     "mangled_component_name":"_ZN7android8hardware5audio6effect4V4_021BpHwVirtualizerEffect4initEv"
    },
    {
     "mangled_component_name":"_ZN7android8hardware5audio6effect4V4_021BpHwVirtualizerEffect9setConfigERKNS3_12EffectConfigERKNS_2spINS3_29IEffectBufferProviderCallbackEEESC_"
    },
    {
     "mangled_component_name":"_ZN7android8hardware5audio6effect4V4_021BpHwVirtualizerEffect5resetEv"
    },
    {
     "mangled_component_name":"_ZN7android8hardware5audio6effect4V4_021BpHwVirtualizerEffect6enableEv"
    },
    {
     "mangled_component_name":"_ZN7android8hardware5audio6effect4V4_021BpHwVirtualizerEffect7disableEv"
    },
    {
     "mangled_component_name":"_ZN7android8hardware5audio6effect4V4_021BpHwVirtualizerEffect9setDeviceEj"
    },
    {
     "mangled_component_name":"_ZN7android8hardware5audio6effect4V4_021BpHwVirtualizerEffect15setAndGetVolumeERKNS0_8hidl_vecIjEENSt3__18functionIFvNS3_6ResultES8_EEE"
    },
    {
     "mangled_component_name":"_ZN7android8hardware5audio6effect4V4_021BpHwVirtualizerEffect24volumeChangeNotificationERKNS0_8hidl_vecIjEE"
    },
    {
     "mangled_component_name":"_ZN7android8hardware5audio6effect4V4_021BpHwVirtualizerEffect12setAudioModeENS1_6common4V4_09AudioModeE"
    },
    {
     "mangled_component_name":"_ZN7android8hardware5audio6effect4V4_021BpHwVirtualizerEffect16setConfigReverseERKNS3_12EffectConfigERKNS_2spINS3_29IEffectBufferProviderCallbackEEESC_"
    },
    {
     "mangled_component_name":"_ZN7android8hardware5audio6effect4V4_021BpHwVirtualizerEffect14setInputDeviceEj"
    },
    {
     "mangled_component_name":"_ZN7android8hardware5audio6effect4V4_021BpHwVirtualizerEffect9getConfigENSt3__18functionIFvNS3_6ResultERKNS3_12EffectConfigEEEE"
    },
    {
     "mangled_component_name":"_ZN7android8hardware5audio6effect4V4_021BpHwVirtualizerEffect16getConfigReverseENSt3__18functionIFvNS3_6ResultERKNS3_12EffectConfigEEEE"
    },
    {
     "mangled_component_name":"_ZN7android8hardware5audio6effect4V4_021BpHwVirtualizerEffect30getSupportedAuxChannelsConfigsEjNSt3__18functionIFvNS3_6ResultERKNS0_8hidl_vecINS3_23EffectAuxChannelsConfigEEEEEE"
    },
    {
     "mangled_component_name":"_ZN7android8hardware5audio6effect4V4_021BpHwVirtualizerEffect20getAuxChannelsConfigENSt3__18functionIFvNS3_6ResultERKNS3_23EffectAuxChannelsConfigEEEE"
    },
    {
     "mangled_component_name":"_ZN7android8hardware5audio6effect4V4_021BpHwVirtualizerEffect20setAuxChannelsConfigERKNS3_23EffectAuxChannelsConfigE"
    },
    {
     "mangled_component_name":"_ZN7android8hardware5audio6effect4V4_021BpHwVirtualizerEffect14setAudioSourceENS1_6common4V4_011AudioSourceE"
    },
    {
     "mangled_component_name":"_ZN7android8hardware5audio6effect4V4_021BpHwVirtualizerEffect7offloadERKNS3_22EffectOffloadParameterE"
    },
    {
     "mangled_component_name":"_ZN7android8hardware5audio6effect4V4_021BpHwVirtualizerEffect13getDescriptorENSt3__18functionIFvNS3_6ResultERKNS3_16EffectDescriptorEEEE"
    },
    {
     "mangled_component_name":"_ZN7android8hardware5audio6effect4V4_021BpHwVirtualizerEffect20prepareForProcessingENSt3__18functionIFvNS3_6ResultERKNS0_12MQDescriptorIS7_LNS0_8MQFlavorE1EEEEEE"
    },
    {
     "mangled_component_name":"_ZN7android8hardware5audio6effect4V4_021BpHwVirtualizerEffect17setProcessBuffersERKNS3_11AudioBufferES7_"
    },
    {
     "mangled_component_name":"_ZN7android8hardware5audio6effect4V4_021BpHwVirtualizerEffect7commandEjRKNS0_8hidl_vecIhEEjNSt3__18functionIFviS8_EEE"
    },
    {
     "mangled_component_name":"_ZN7android8hardware5audio6effect4V4_021BpHwVirtualizerEffect12setParameterERKNS0_8hidl_vecIhEES8_"
    },
    {
     "mangled_component_name":"_ZN7android8hardware5audio6effect4V4_021BpHwVirtualizerEffect12getParameterERKNS0_8hidl_vecIhEEjNSt3__18functionIFvNS3_6ResultES8_EEE"
    },
    {
     "mangled_component_name":"_ZN7android8hardware5audio6effect4V4_021BpHwVirtualizerEffect29getSupportedConfigsForFeatureEjjjNSt3__18functionIFvNS3_6ResultEjRKNS0_8hidl_vecIhEEEEE"
    },
    {
     "mangled_component_name":"_ZN7android8hardware5audio6effect4V4_021BpHwVirtualizerEffect26getCurrentConfigForFeatureEjjNSt3__18functionIFvNS3_6ResultERKNS0_8hidl_vecIhEEEEE"
    },
    {
     "mangled_component_name":"_ZN7android8hardware5audio6effect4V4_021BpHwVirtualizerEffect26setCurrentConfigForFeatureEjRKNS0_8hidl_vecIhEE"
    },
    {
     "mangled_component_name":"_ZN7android8hardware5audio6effect4V4_021BpHwVirtualizerEffect5closeEv"
    },
    {
     "mangled_component_name":"_ZN7android8hardware5audio6effect4V4_021BpHwVirtualizerEffect19isStrengthSupportedEv"
    },
    {
     "mangled_component_name":"_ZN7android8hardware5audio6effect4V4_021BpHwVirtualizerEffect11setStrengthEt"
    },
    {
     "mangled_component_name":"_ZN7android8hardware5audio6effect4V4_021BpHwVirtualizerEffect11getStrengthENSt3__18functionIFvNS3_6ResultEtEEE"
    },
    {
     "mangled_component_name":"_ZN7android8hardware5audio6effect4V4_021BpHwVirtualizerEffect23getVirtualSpeakerAnglesEjNS1_6common4V4_011AudioDeviceENSt3__18functionIFvNS3_6ResultERKNS0_8hidl_vecINS3_18IVirtualizerEffect12SpeakerAngleEEEEEE"
    },
    {
     "mangled_component_name":"_ZN7android8hardware5audio6effect4V4_021BpHwVirtualizerEffect23forceVirtualizationModeENS1_6common4V4_011AudioDeviceE"
    },
    {
     "mangled_component_name":"_ZN7android8hardware5audio6effect4V4_021BpHwVirtualizerEffect21getVirtualizationModeENSt3__18functionIFvNS3_6ResultENS1_6common4V4_011AudioDeviceEEEE"
    },
    {
     "mangled_component_name":"_ZN7android8hardware11BpInterfaceINS0_5audio6effect4V4_018IVirtualizerEffectEE10onAsBinderEv"
    },
    {
     "kind":"vbase_offset",
     "component_value":192
    },
    {
     "kind":"offset_to_top",
     "component_value":-8
    },
    {
     "kind":"rtti",
     "mangled_component_name":"_ZTIN7android8hardware5audio6effect4V4_021BpHwVirtualizerEffectE"
    },
    {
     "kind":"complete_dtor_pointer",
     "mangled_component_name":"_ZThn8_N7android8hardware5audio6effect4V4_021BpHwVirtualizerEffectD1Ev"
    },
    {
     "kind":"deleting_dtor_pointer",
     "mangled_component_name":"_ZThn8_N7android8hardware5audio6effect4V4_021BpHwVirtualizerEffectD0Ev"
    },
    {
     "mangled_component_name":"_ZThn8_N7android8hardware11BpInterfaceINS0_5audio6effect4V4_018IVirtualizerEffectEE10onAsBinderEv"
    },
    {
     "kind":"vbase_offset",
     "component_value":184
    },
    {
     "kind":"offset_to_top",
     "component_value":-16
    },
    {
     "kind":"rtti",
     "mangled_component_name":"_ZTIN7android8hardware5audio6effect4V4_021BpHwVirtualizerEffectE"
    },
    {
     "kind":"complete_dtor_pointer",
     "mangled_component_name":"_ZThn16_N7android8hardware5audio6effect4V4_021BpHwVirtualizerEffectD1Ev"
    },
    {
     "kind":"deleting_dtor_pointer",
     "mangled_component_name":"_ZThn16_N7android8hardware5audio6effect4V4_021BpHwVirtualizerEffectD0Ev"
    },
    {
     "mangled_component_name":"_ZN7android8hardware11BpHwRefBase10onFirstRefEv"
    },
    {
     "mangled_component_name":"_ZN7android8hardware11BpHwRefBase15onLastStrongRefEPKv"
    },
    {
     "mangled_component_name":"_ZN7android8hardware11BpHwRefBase20onIncStrongAttemptedEjPKv"
    },
    {
     "kind":"offset_to_top",
     "component_value":-48
    },
    {
     "kind":"rtti",
     "mangled_component_name":"_ZTIN7android8hardware5audio6effect4V4_021BpHwVirtualizerEffectE"
    },
    {
     "kind":"complete_dtor_pointer",
     "mangled_component_name":"_ZThn48_N7android8hardware5audio6effect4V4_021BpHwVirtualizerEffectD1Ev"
    },
    {
     "kind":"deleting_dtor_pointer",
     "mangled_component_name":"_ZThn48_N7android8hardware5audio6effect4V4_021BpHwVirtualizerEffectD0Ev"
    },
    {
     "kind":"vcall_offset"
    },
    {
     "kind":"vcall_offset",
     "component_value":-184
    },
    {
     "kind":"vcall_offset",
     "component_value":-184
    },
    {
     "kind":"vcall_offset",
     "component_value":-184
    },
    {
     "kind":"vcall_offset",
     "component_value":-200
    },
    {
     "kind":"offset_to_top",
     "component_value":-200
    },
    {
     "kind":"rtti",
     "mangled_component_name":"_ZTIN7android8hardware5audio6effect4V4_021BpHwVirtualizerEffectE"
    },
    {
     "kind":"complete_dtor_pointer",
     "mangled_component_name":"_ZTv0_n24_N7android8hardware5audio6effect4V4_021BpHwVirtualizerEffectD1Ev"
    },
    {
     "kind":"deleting_dtor_pointer",
     "mangled_component_name":"_ZTv0_n24_N7android8hardware5audio6effect4V4_021BpHwVirtualizerEffectD0Ev"
    },
    {
     "mangled_component_name":"_ZTv0_n32_N7android8hardware11BpHwRefBase10onFirstRefEv"
    },
    {
     "mangled_component_name":"_ZTv0_n40_N7android8hardware11BpHwRefBase15onLastStrongRefEPKv"
    },
    {
     "mangled_component_name":"_ZTv0_n48_N7android8hardware11BpHwRefBase20onIncStrongAttemptedEjPKv"
    },
    {
     "mangled_component_name":"_ZN7android7RefBase13onLastWeakRefEPKv"
    }
   ],
   "unique_id":"_ZTSN7android8hardware5audio6effect4V4_021BpHwVirtualizerEffectE"
  },
  {
   "vtable_components":[
    {
     "kind":"vbase_offset",
     "component_value":8
    },
    {
     "kind":"offset_to_top"
    },
    {
     "kind":"rtti",
     "mangled_component_name":"_ZTIN7android8hardware5audio6effect4V4_017IVisualizerEffectE"
    },
    {
     "mangled_component_name":"_ZNK7android8hardware5audio6effect4V4_017IVisualizerEffect8isRemoteEv"
    },
    {
     "mangled_component_name":"_ZN7android8hardware5audio6effect4V4_017IVisualizerEffect14interfaceChainENSt3__18functionIFvRKNS0_8hidl_vecINS0_11hidl_stringEEEEEE"
    },
    {
     "mangled_component_name":"_ZN7android8hardware5audio6effect4V4_017IVisualizerEffect5debugERKNS0_11hidl_handleERKNS0_8hidl_vecINS0_11hidl_stringEEE"
    },
    {
     "mangled_component_name":"_ZN7android8hardware5audio6effect4V4_017IVisualizerEffect19interfaceDescriptorENSt3__18functionIFvRKNS0_11hidl_stringEEEE"
    },
    {
     "mangled_component_name":"_ZN7android8hardware5audio6effect4V4_017IVisualizerEffect12getHashChainENSt3__18functionIFvRKNS0_8hidl_vecINS0_10hidl_arrayIhLm32EJEEEEEEEE"
    },
    {
     "mangled_component_name":"_ZN7android8hardware5audio6effect4V4_017IVisualizerEffect21setHALInstrumentationEv"
    },
    {
     "mangled_component_name":"_ZN7android8hardware5audio6effect4V4_017IVisualizerEffect11linkToDeathERKNS_2spINS0_20hidl_death_recipientEEEm"
    },
    {
     "mangled_component_name":"_ZN7android8hardware5audio6effect4V4_017IVisualizerEffect4pingEv"
    },
    {
     "mangled_component_name":"_ZN7android8hardware5audio6effect4V4_017IVisualizerEffect12getDebugInfoENSt3__18functionIFvRKNS_4hidl4base4V1_09DebugInfoEEEE"
    },
    {
     "mangled_component_name":"_ZN7android8hardware5audio6effect4V4_017IVisualizerEffect21notifySyspropsChangedEv"
    },
    {
     "mangled_component_name":"_ZN7android8hardware5audio6effect4V4_017IVisualizerEffect13unlinkToDeathERKNS_2spINS0_20hidl_death_recipientEEE"
    },
    {
     "kind":"complete_dtor_pointer",
     "mangled_component_name":"_ZN7android8hardware5audio6effect4V4_017IVisualizerEffectD1Ev"
    },
    {
     "kind":"deleting_dtor_pointer",
     "mangled_component_name":"_ZN7android8hardware5audio6effect4V4_017IVisualizerEffectD0Ev"
    },
    {
     "is_pure":true,
     "mangled_component_name":"_ZN7android8hardware5audio6effect4V4_017IVisualizerEffect4initEv"
    },
    {
     "is_pure":true,
     "mangled_component_name":"_ZN7android8hardware5audio6effect4V4_017IVisualizerEffect9setConfigERKNS3_12EffectConfigERKNS_2spINS3_29IEffectBufferProviderCallbackEEESC_"
    },
    {
     "is_pure":true,
     "mangled_component_name":"_ZN7android8hardware5audio6effect4V4_017IVisualizerEffect5resetEv"
    },
    {
     "is_pure":true,
     "mangled_component_name":"_ZN7android8hardware5audio6effect4V4_017IVisualizerEffect6enableEv"
    },
    {
     "is_pure":true,
     "mangled_component_name":"_ZN7android8hardware5audio6effect4V4_017IVisualizerEffect7disableEv"
    },
    {
     "is_pure":true,
     "mangled_component_name":"_ZN7android8hardware5audio6effect4V4_017IVisualizerEffect9setDeviceEj"
    },
    {
     "is_pure":true,
     "mangled_component_name":"_ZN7android8hardware5audio6effect4V4_017IVisualizerEffect15setAndGetVolumeERKNS0_8hidl_vecIjEENSt3__18functionIFvNS3_6ResultES8_EEE"
    },
    {
     "is_pure":true,
     "mangled_component_name":"_ZN7android8hardware5audio6effect4V4_017IVisualizerEffect24volumeChangeNotificationERKNS0_8hidl_vecIjEE"
    },
    {
     "is_pure":true,
     "mangled_component_name":"_ZN7android8hardware5audio6effect4V4_017IVisualizerEffect12setAudioModeENS1_6common4V4_09AudioModeE"
    },
    {
     "is_pure":true,
     "mangled_component_name":"_ZN7android8hardware5audio6effect4V4_017IVisualizerEffect16setConfigReverseERKNS3_12EffectConfigERKNS_2spINS3_29IEffectBufferProviderCallbackEEESC_"
    },
    {
     "is_pure":true,
     "mangled_component_name":"_ZN7android8hardware5audio6effect4V4_017IVisualizerEffect14setInputDeviceEj"
    },
    {
     "is_pure":true,
     "mangled_component_name":"_ZN7android8hardware5audio6effect4V4_017IVisualizerEffect9getConfigENSt3__18functionIFvNS3_6ResultERKNS3_12EffectConfigEEEE"
    },
    {
     "is_pure":true,
     "mangled_component_name":"_ZN7android8hardware5audio6effect4V4_017IVisualizerEffect16getConfigReverseENSt3__18functionIFvNS3_6ResultERKNS3_12EffectConfigEEEE"
    },
    {
     "is_pure":true,
     "mangled_component_name":"_ZN7android8hardware5audio6effect4V4_017IVisualizerEffect30getSupportedAuxChannelsConfigsEjNSt3__18functionIFvNS3_6ResultERKNS0_8hidl_vecINS3_23EffectAuxChannelsConfigEEEEEE"
    },
    {
     "is_pure":true,
     "mangled_component_name":"_ZN7android8hardware5audio6effect4V4_017IVisualizerEffect20getAuxChannelsConfigENSt3__18functionIFvNS3_6ResultERKNS3_23EffectAuxChannelsConfigEEEE"
    },
    {
     "is_pure":true,
     "mangled_component_name":"_ZN7android8hardware5audio6effect4V4_017IVisualizerEffect20setAuxChannelsConfigERKNS3_23EffectAuxChannelsConfigE"
    },
    {
     "is_pure":true,
     "mangled_component_name":"_ZN7android8hardware5audio6effect4V4_017IVisualizerEffect14setAudioSourceENS1_6common4V4_011AudioSourceE"
    },
    {
     "is_pure":true,
     "mangled_component_name":"_ZN7android8hardware5audio6effect4V4_017IVisualizerEffect7offloadERKNS3_22EffectOffloadParameterE"
    },
    {
     "is_pure":true,
     "mangled_component_name":"_ZN7android8hardware5audio6effect4V4_017IVisualizerEffect13getDescriptorENSt3__18functionIFvNS3_6ResultERKNS3_16EffectDescriptorEEEE"
    },
    {
     "is_pure":true,
     "mangled_component_name":"_ZN7android8hardware5audio6effect4V4_017IVisualizerEffect20prepareForProcessingENSt3__18functionIFvNS3_6ResultERKNS0_12MQDescriptorIS7_LNS0_8MQFlavorE1EEEEEE"
    },
    {
     "is_pure":true,
     "mangled_component_name":"_ZN7android8hardware5audio6effect4V4_017IVisualizerEffect17setProcessBuffersERKNS3_11AudioBufferES7_"
    },
    {
     "is_pure":true,
     "mangled_component_name":"_ZN7android8hardware5audio6effect4V4_017IVisualizerEffect7commandEjRKNS0_8hidl_vecIhEEjNSt3__18functionIFviS8_EEE"
    },
    {
     "is_pure":true,
     "mangled_component_name":"_ZN7android8hardware5audio6effect4V4_017IVisualizerEffect12setParameterERKNS0_8hidl_vecIhEES8_"
    },
    {
     "is_pure":true,
     "mangled_component_name":"_ZN7android8hardware5audio6effect4V4_017IVisualizerEffect12getParameterERKNS0_8hidl_vecIhEEjNSt3__18functionIFvNS3_6ResultES8_EEE"
    },
    {
     "is_pure":true,
     "mangled_component_name":"_ZN7android8hardware5audio6effect4V4_017IVisualizerEffect29getSupportedConfigsForFeatureEjjjNSt3__18functionIFvNS3_6ResultEjRKNS0_8hidl_vecIhEEEEE"
    },
    {
     "is_pure":true,
     "mangled_component_name":"_ZN7android8hardware5audio6effect4V4_017IVisualizerEffect26getCurrentConfigForFeatureEjjNSt3__18functionIFvNS3_6ResultERKNS0_8hidl_vecIhEEEEE"
    },
    {
     "is_pure":true,
     "mangled_component_name":"_ZN7android8hardware5audio6effect4V4_017IVisualizerEffect26setCurrentConfigForFeatureEjRKNS0_8hidl_vecIhEE"
    },
    {
     "is_pure":true,
     "mangled_component_name":"_ZN7android8hardware5audio6effect4V4_017IVisualizerEffect5closeEv"
    },
    {
     "is_pure":true,
     "mangled_component_name":"_ZN7android8hardware5audio6effect4V4_017IVisualizerEffect14setCaptureSizeEt"
    },
    {
     "is_pure":true,
     "mangled_component_name":"_ZN7android8hardware5audio6effect4V4_017IVisualizerEffect14getCaptureSizeENSt3__18functionIFvNS3_6ResultEtEEE"
    },
    {
     "is_pure":true,
     "mangled_component_name":"_ZN7android8hardware5audio6effect4V4_017IVisualizerEffect14setScalingModeENS4_11ScalingModeE"
    },
    {
     "is_pure":true,
     "mangled_component_name":"_ZN7android8hardware5audio6effect4V4_017IVisualizerEffect14getScalingModeENSt3__18functionIFvNS3_6ResultENS4_11ScalingModeEEEE"
    },
    {
     "is_pure":true,
     "mangled_component_name":"_ZN7android8hardware5audio6effect4V4_017IVisualizerEffect10setLatencyEj"
    },
    {
     "is_pure":true,
     "mangled_component_name":"_ZN7android8hardware5audio6effect4V4_017IVisualizerEffect10getLatencyENSt3__18functionIFvNS3_6ResultEjEEE"
    },
    {
     "is_pure":true,
     "mangled_component_name":"_ZN7android8hardware5audio6effect4V4_017IVisualizerEffect18setMeasurementModeENS4_15MeasurementModeE"
    },
    {
     "is_pure":true,
     "mangled_component_name":"_ZN7android8hardware5audio6effect4V4_017IVisualizerEffect18getMeasurementModeENSt3__18functionIFvNS3_6ResultENS4_15MeasurementModeEEEE"
    },
    {
     "is_pure":true,
     "mangled_component_name":"_ZN7android8hardware5audio6effect4V4_017IVisualizerEffect7captureENSt3__18functionIFvNS3_6ResultERKNS0_8hidl_vecIhEEEEE"
    },
    {
     "is_pure":true,
     "mangled_component_name":"_ZN7android8hardware5audio6effect4V4_017IVisualizerEffect7measureENSt3__18functionIFvNS3_6ResultERKNS4_11MeasurementEEEE"
    },
    {
     "kind":"vcall_offset"
    },
    {
     "kind":"vcall_offset"
    },
    {
     "kind":"vcall_offset"
    },
    {
     "kind":"vcall_offset"
    },
    {
     "kind":"vcall_offset",
     "component_value":-8
    },
    {
     "kind":"offset_to_top",
     "component_value":-8
    },
    {
     "kind":"rtti",
     "mangled_component_name":"_ZTIN7android8hardware5audio6effect4V4_017IVisualizerEffectE"
    },
    {
     "kind":"complete_dtor_pointer",
     "mangled_component_name":"_ZTv0_n24_N7android8hardware5audio6effect4V4_017IVisualizerEffectD1Ev"
    },
    {
     "kind":"deleting_dtor_pointer",
     "mangled_component_name":"_ZTv0_n24_N7android8hardware5audio6effect4V4_017IVisualizerEffectD0Ev"
    },
    {
     "mangled_component_name":"_ZN7android7RefBase10onFirstRefEv"
    },
    {
     "mangled_component_name":"_ZN7android7RefBase15onLastStrongRefEPKv"
    },
    {
     "mangled_component_name":"_ZN7android7RefBase20onIncStrongAttemptedEjPKv"
    },
    {
     "mangled_component_name":"_ZN7android7RefBase13onLastWeakRefEPKv"
    }
   ],
   "unique_id":"_ZTSN7android8hardware5audio6effect4V4_017IVisualizerEffectE"
  },
  {
   "vtable_components":[
    {
     "kind":"vbase_offset",
     "component_value":136
    },
    {
     "kind":"offset_to_top"
    },
    {
     "kind":"rtti",
     "mangled_component_name":"_ZTIN7android8hardware5audio6effect4V4_020BnHwVisualizerEffectE"
    },
    {
     "mangled_component_name":"_ZN7android8hardware9BHwBinder8transactEjRKNS0_6ParcelEPS2_jNSt3__18functionIFvRS2_EEE"
    },
    {
     "mangled_component_name":"_ZN7android8hardware9BHwBinder11linkToDeathERKNS_2spINS0_7IBinder14DeathRecipientEEEPvj"
    },
    {
     "mangled_component_name":"_ZN7android8hardware9BHwBinder13unlinkToDeathERKNS_2wpINS0_7IBinder14DeathRecipientEEEPvjPS5_"
    },
    {
     "mangled_component_name":"_ZNK7android8hardware7IBinder13checkSubclassEPKv"
    },
    {
     "mangled_component_name":"_ZN7android8hardware9BHwBinder12attachObjectEPKvPvS4_PFvS3_S4_S4_E"
    },
    {
     "mangled_component_name":"_ZNK7android8hardware9BHwBinder10findObjectEPKv"
    },
    {
     "mangled_component_name":"_ZN7android8hardware9BHwBinder12detachObjectEPKv"
    },
    {
     "mangled_component_name":"_ZN7android8hardware9BHwBinder11localBinderEv"
    },
    {
     "mangled_component_name":"_ZN7android8hardware7IBinder12remoteBinderEv"
    },
    {
     "kind":"complete_dtor_pointer",
     "mangled_component_name":"_ZN7android8hardware5audio6effect4V4_020BnHwVisualizerEffectD1Ev"
    },
    {
     "kind":"deleting_dtor_pointer",
     "mangled_component_name":"_ZN7android8hardware5audio6effect4V4_020BnHwVisualizerEffectD0Ev"
    },
    {
     "mangled_component_name":"_ZN7android8hardware5audio6effect4V4_020BnHwVisualizerEffect10onTransactEjRKNS0_6ParcelEPS5_jNSt3__18functionIFvRS5_EEE"
    },
    {
     "kind":"offset_to_top",
     "component_value":-32
    },
    {
     "kind":"rtti",
     "mangled_component_name":"_ZTIN7android8hardware5audio6effect4V4_020BnHwVisualizerEffectE"
    },
    {
     "kind":"complete_dtor_pointer",
     "mangled_component_name":"_ZThn32_N7android8hardware5audio6effect4V4_020BnHwVisualizerEffectD1Ev"
    },
    {
     "kind":"deleting_dtor_pointer",
     "mangled_component_name":"_ZThn32_N7android8hardware5audio6effect4V4_020BnHwVisualizerEffectD0Ev"
    },
    {
     "kind":"vcall_offset"
    },
    {
     "kind":"vcall_offset"
    },
    {
     "kind":"vcall_offset"
    },
    {
     "kind":"vcall_offset"
    },
    {
     "kind":"vcall_offset",
     "component_value":-136
    },
    {
     "kind":"offset_to_top",
     "component_value":-136
    },
    {
     "kind":"rtti",
     "mangled_component_name":"_ZTIN7android8hardware5audio6effect4V4_020BnHwVisualizerEffectE"
    },
    {
     "kind":"complete_dtor_pointer",
     "mangled_component_name":"_ZTv0_n24_N7android8hardware5audio6effect4V4_020BnHwVisualizerEffectD1Ev"
    },
    {
     "kind":"deleting_dtor_pointer",
     "mangled_component_name":"_ZTv0_n24_N7android8hardware5audio6effect4V4_020BnHwVisualizerEffectD0Ev"
    },
    {
     "mangled_component_name":"_ZN7android7RefBase10onFirstRefEv"
    },
    {
     "mangled_component_name":"_ZN7android7RefBase15onLastStrongRefEPKv"
    },
    {
     "mangled_component_name":"_ZN7android7RefBase20onIncStrongAttemptedEjPKv"
    },
    {
     "mangled_component_name":"_ZN7android7RefBase13onLastWeakRefEPKv"
    }
   ],
   "unique_id":"_ZTSN7android8hardware5audio6effect4V4_020BnHwVisualizerEffectE"
  },
  {
   "vtable_components":[
    {
     "kind":"vbase_offset",
     "component_value":120
    },
    {
     "kind":"offset_to_top"
    },
    {
     "kind":"rtti",
     "mangled_component_name":"_ZTIN7android8hardware5audio6effect4V4_018BsVisualizerEffectE"
    },
    {
     "mangled_component_name":"_ZNK7android8hardware5audio6effect4V4_017IVisualizerEffect8isRemoteEv"
    },
    {
     "mangled_component_name":"_ZN7android8hardware5audio6effect4V4_018BsVisualizerEffect14interfaceChainENSt3__18functionIFvRKNS0_8hidl_vecINS0_11hidl_stringEEEEEE"
    },
    {
     "mangled_component_name":"_ZN7android8hardware5audio6effect4V4_018BsVisualizerEffect5debugERKNS0_11hidl_handleERKNS0_8hidl_vecINS0_11hidl_stringEEE"
    },
    {
     "mangled_component_name":"_ZN7android8hardware5audio6effect4V4_018BsVisualizerEffect19interfaceDescriptorENSt3__18functionIFvRKNS0_11hidl_stringEEEE"
    },
    {
     "mangled_component_name":"_ZN7android8hardware5audio6effect4V4_018BsVisualizerEffect12getHashChainENSt3__18functionIFvRKNS0_8hidl_vecINS0_10hidl_arrayIhLm32EJEEEEEEEE"
    },
    {
     "mangled_component_name":"_ZN7android8hardware5audio6effect4V4_018BsVisualizerEffect21setHALInstrumentationEv"
    },
    {
     "mangled_component_name":"_ZN7android8hardware5audio6effect4V4_018BsVisualizerEffect11linkToDeathERKNS_2spINS0_20hidl_death_recipientEEEm"
    },
    {
     "mangled_component_name":"_ZN7android8hardware5audio6effect4V4_018BsVisualizerEffect4pingEv"
    },
    {
     "mangled_component_name":"_ZN7android8hardware5audio6effect4V4_018BsVisualizerEffect12getDebugInfoENSt3__18functionIFvRKNS_4hidl4base4V1_09DebugInfoEEEE"
    },
    {
     "mangled_component_name":"_ZN7android8hardware5audio6effect4V4_018BsVisualizerEffect21notifySyspropsChangedEv"
    },
    {
     "mangled_component_name":"_ZN7android8hardware5audio6effect4V4_018BsVisualizerEffect13unlinkToDeathERKNS_2spINS0_20hidl_death_recipientEEE"
    },
    {
     "kind":"complete_dtor_pointer",
     "mangled_component_name":"_ZN7android8hardware5audio6effect4V4_018BsVisualizerEffectD1Ev"
    },
    {
     "kind":"deleting_dtor_pointer",
     "mangled_component_name":"_ZN7android8hardware5audio6effect4V4_018BsVisualizerEffectD0Ev"
    },
    {
     "mangled_component_name":"_ZN7android8hardware5audio6effect4V4_018BsVisualizerEffect4initEv"
    },
    {
     "mangled_component_name":"_ZN7android8hardware5audio6effect4V4_018BsVisualizerEffect9setConfigERKNS3_12EffectConfigERKNS_2spINS3_29IEffectBufferProviderCallbackEEESC_"
    },
    {
     "mangled_component_name":"_ZN7android8hardware5audio6effect4V4_018BsVisualizerEffect5resetEv"
    },
    {
     "mangled_component_name":"_ZN7android8hardware5audio6effect4V4_018BsVisualizerEffect6enableEv"
    },
    {
     "mangled_component_name":"_ZN7android8hardware5audio6effect4V4_018BsVisualizerEffect7disableEv"
    },
    {
     "mangled_component_name":"_ZN7android8hardware5audio6effect4V4_018BsVisualizerEffect9setDeviceEj"
    },
    {
     "mangled_component_name":"_ZN7android8hardware5audio6effect4V4_018BsVisualizerEffect15setAndGetVolumeERKNS0_8hidl_vecIjEENSt3__18functionIFvNS3_6ResultES8_EEE"
    },
    {
     "mangled_component_name":"_ZN7android8hardware5audio6effect4V4_018BsVisualizerEffect24volumeChangeNotificationERKNS0_8hidl_vecIjEE"
    },
    {
     "mangled_component_name":"_ZN7android8hardware5audio6effect4V4_018BsVisualizerEffect12setAudioModeENS1_6common4V4_09AudioModeE"
    },
    {
     "mangled_component_name":"_ZN7android8hardware5audio6effect4V4_018BsVisualizerEffect16setConfigReverseERKNS3_12EffectConfigERKNS_2spINS3_29IEffectBufferProviderCallbackEEESC_"
    },
    {
     "mangled_component_name":"_ZN7android8hardware5audio6effect4V4_018BsVisualizerEffect14setInputDeviceEj"
    },
    {
     "mangled_component_name":"_ZN7android8hardware5audio6effect4V4_018BsVisualizerEffect9getConfigENSt3__18functionIFvNS3_6ResultERKNS3_12EffectConfigEEEE"
    },
    {
     "mangled_component_name":"_ZN7android8hardware5audio6effect4V4_018BsVisualizerEffect16getConfigReverseENSt3__18functionIFvNS3_6ResultERKNS3_12EffectConfigEEEE"
    },
    {
     "mangled_component_name":"_ZN7android8hardware5audio6effect4V4_018BsVisualizerEffect30getSupportedAuxChannelsConfigsEjNSt3__18functionIFvNS3_6ResultERKNS0_8hidl_vecINS3_23EffectAuxChannelsConfigEEEEEE"
    },
    {
     "mangled_component_name":"_ZN7android8hardware5audio6effect4V4_018BsVisualizerEffect20getAuxChannelsConfigENSt3__18functionIFvNS3_6ResultERKNS3_23EffectAuxChannelsConfigEEEE"
    },
    {
     "mangled_component_name":"_ZN7android8hardware5audio6effect4V4_018BsVisualizerEffect20setAuxChannelsConfigERKNS3_23EffectAuxChannelsConfigE"
    },
    {
     "mangled_component_name":"_ZN7android8hardware5audio6effect4V4_018BsVisualizerEffect14setAudioSourceENS1_6common4V4_011AudioSourceE"
    },
    {
     "mangled_component_name":"_ZN7android8hardware5audio6effect4V4_018BsVisualizerEffect7offloadERKNS3_22EffectOffloadParameterE"
    },
    {
     "mangled_component_name":"_ZN7android8hardware5audio6effect4V4_018BsVisualizerEffect13getDescriptorENSt3__18functionIFvNS3_6ResultERKNS3_16EffectDescriptorEEEE"
    },
    {
     "mangled_component_name":"_ZN7android8hardware5audio6effect4V4_018BsVisualizerEffect20prepareForProcessingENSt3__18functionIFvNS3_6ResultERKNS0_12MQDescriptorIS7_LNS0_8MQFlavorE1EEEEEE"
    },
    {
     "mangled_component_name":"_ZN7android8hardware5audio6effect4V4_018BsVisualizerEffect17setProcessBuffersERKNS3_11AudioBufferES7_"
    },
    {
     "mangled_component_name":"_ZN7android8hardware5audio6effect4V4_018BsVisualizerEffect7commandEjRKNS0_8hidl_vecIhEEjNSt3__18functionIFviS8_EEE"
    },
    {
     "mangled_component_name":"_ZN7android8hardware5audio6effect4V4_018BsVisualizerEffect12setParameterERKNS0_8hidl_vecIhEES8_"
    },
    {
     "mangled_component_name":"_ZN7android8hardware5audio6effect4V4_018BsVisualizerEffect12getParameterERKNS0_8hidl_vecIhEEjNSt3__18functionIFvNS3_6ResultES8_EEE"
    },
    {
     "mangled_component_name":"_ZN7android8hardware5audio6effect4V4_018BsVisualizerEffect29getSupportedConfigsForFeatureEjjjNSt3__18functionIFvNS3_6ResultEjRKNS0_8hidl_vecIhEEEEE"
    },
    {
     "mangled_component_name":"_ZN7android8hardware5audio6effect4V4_018BsVisualizerEffect26getCurrentConfigForFeatureEjjNSt3__18functionIFvNS3_6ResultERKNS0_8hidl_vecIhEEEEE"
    },
    {
     "mangled_component_name":"_ZN7android8hardware5audio6effect4V4_018BsVisualizerEffect26setCurrentConfigForFeatureEjRKNS0_8hidl_vecIhEE"
    },
    {
     "mangled_component_name":"_ZN7android8hardware5audio6effect4V4_018BsVisualizerEffect5closeEv"
    },
    {
     "mangled_component_name":"_ZN7android8hardware5audio6effect4V4_018BsVisualizerEffect14setCaptureSizeEt"
    },
    {
     "mangled_component_name":"_ZN7android8hardware5audio6effect4V4_018BsVisualizerEffect14getCaptureSizeENSt3__18functionIFvNS3_6ResultEtEEE"
    },
    {
     "mangled_component_name":"_ZN7android8hardware5audio6effect4V4_018BsVisualizerEffect14setScalingModeENS3_17IVisualizerEffect11ScalingModeE"
    },
    {
     "mangled_component_name":"_ZN7android8hardware5audio6effect4V4_018BsVisualizerEffect14getScalingModeENSt3__18functionIFvNS3_6ResultENS3_17IVisualizerEffect11ScalingModeEEEE"
    },
    {
     "mangled_component_name":"_ZN7android8hardware5audio6effect4V4_018BsVisualizerEffect10setLatencyEj"
    },
    {
     "mangled_component_name":"_ZN7android8hardware5audio6effect4V4_018BsVisualizerEffect10getLatencyENSt3__18functionIFvNS3_6ResultEjEEE"
    },
    {
     "mangled_component_name":"_ZN7android8hardware5audio6effect4V4_018BsVisualizerEffect18setMeasurementModeENS3_17IVisualizerEffect15MeasurementModeE"
    },
    {
     "mangled_component_name":"_ZN7android8hardware5audio6effect4V4_018BsVisualizerEffect18getMeasurementModeENSt3__18functionIFvNS3_6ResultENS3_17IVisualizerEffect15MeasurementModeEEEE"
    },
    {
     "mangled_component_name":"_ZN7android8hardware5audio6effect4V4_018BsVisualizerEffect7captureENSt3__18functionIFvNS3_6ResultERKNS0_8hidl_vecIhEEEEE"
    },
    {
     "mangled_component_name":"_ZN7android8hardware5audio6effect4V4_018BsVisualizerEffect7measureENSt3__18functionIFvNS3_6ResultERKNS3_17IVisualizerEffect11MeasurementEEEE"
    },
    {
     "kind":"offset_to_top",
     "component_value":-8
    },
    {
     "kind":"rtti",
     "mangled_component_name":"_ZTIN7android8hardware5audio6effect4V4_018BsVisualizerEffectE"
    },
    {
     "kind":"complete_dtor_pointer",
     "mangled_component_name":"_ZThn8_N7android8hardware5audio6effect4V4_018BsVisualizerEffectD1Ev"
    },
    {
     "kind":"deleting_dtor_pointer",
     "mangled_component_name":"_ZThn8_N7android8hardware5audio6effect4V4_018BsVisualizerEffectD0Ev"
    },
    {
     "kind":"vcall_offset"
    },
    {
     "kind":"vcall_offset"
    },
    {
     "kind":"vcall_offset"
    },
    {
     "kind":"vcall_offset"
    },
    {
     "kind":"vcall_offset",
     "component_value":-120
    },
    {
     "kind":"offset_to_top",
     "component_value":-120
    },
    {
     "kind":"rtti",
     "mangled_component_name":"_ZTIN7android8hardware5audio6effect4V4_018BsVisualizerEffectE"
    },
    {
     "kind":"complete_dtor_pointer",
     "mangled_component_name":"_ZTv0_n24_N7android8hardware5audio6effect4V4_018BsVisualizerEffectD1Ev"
    },
    {
     "kind":"deleting_dtor_pointer",
     "mangled_component_name":"_ZTv0_n24_N7android8hardware5audio6effect4V4_018BsVisualizerEffectD0Ev"
    },
    {
     "mangled_component_name":"_ZN7android7RefBase10onFirstRefEv"
    },
    {
     "mangled_component_name":"_ZN7android7RefBase15onLastStrongRefEPKv"
    },
    {
     "mangled_component_name":"_ZN7android7RefBase20onIncStrongAttemptedEjPKv"
    },
    {
     "mangled_component_name":"_ZN7android7RefBase13onLastWeakRefEPKv"
    }
   ],
   "unique_id":"_ZTSN7android8hardware5audio6effect4V4_018BsVisualizerEffectE"
  },
  {
   "vtable_components":[
    {
     "kind":"vbase_offset",
     "component_value":200
    },
    {
     "kind":"offset_to_top"
    },
    {
     "kind":"rtti",
     "mangled_component_name":"_ZTIN7android8hardware5audio6effect4V4_020BpHwVisualizerEffectE"
    },
    {
     "mangled_component_name":"_ZNK7android8hardware5audio6effect4V4_020BpHwVisualizerEffect8isRemoteEv"
    },
    {
     "mangled_component_name":"_ZN7android8hardware5audio6effect4V4_020BpHwVisualizerEffect14interfaceChainENSt3__18functionIFvRKNS0_8hidl_vecINS0_11hidl_stringEEEEEE"
    },
    {
     "mangled_component_name":"_ZN7android8hardware5audio6effect4V4_020BpHwVisualizerEffect5debugERKNS0_11hidl_handleERKNS0_8hidl_vecINS0_11hidl_stringEEE"
    },
    {
     "mangled_component_name":"_ZN7android8hardware5audio6effect4V4_020BpHwVisualizerEffect19interfaceDescriptorENSt3__18functionIFvRKNS0_11hidl_stringEEEE"
    },
    {
     "mangled_component_name":"_ZN7android8hardware5audio6effect4V4_020BpHwVisualizerEffect12getHashChainENSt3__18functionIFvRKNS0_8hidl_vecINS0_10hidl_arrayIhLm32EJEEEEEEEE"
    },
    {
     "mangled_component_name":"_ZN7android8hardware5audio6effect4V4_020BpHwVisualizerEffect21setHALInstrumentationEv"
    },
    {
     "mangled_component_name":"_ZN7android8hardware5audio6effect4V4_020BpHwVisualizerEffect11linkToDeathERKNS_2spINS0_20hidl_death_recipientEEEm"
    },
    {
     "mangled_component_name":"_ZN7android8hardware5audio6effect4V4_020BpHwVisualizerEffect4pingEv"
    },
    {
     "mangled_component_name":"_ZN7android8hardware5audio6effect4V4_020BpHwVisualizerEffect12getDebugInfoENSt3__18functionIFvRKNS_4hidl4base4V1_09DebugInfoEEEE"
    },
    {
     "mangled_component_name":"_ZN7android8hardware5audio6effect4V4_020BpHwVisualizerEffect21notifySyspropsChangedEv"
    },
    {
     "mangled_component_name":"_ZN7android8hardware5audio6effect4V4_020BpHwVisualizerEffect13unlinkToDeathERKNS_2spINS0_20hidl_death_recipientEEE"
    },
    {
     "kind":"complete_dtor_pointer",
     "mangled_component_name":"_ZN7android8hardware5audio6effect4V4_020BpHwVisualizerEffectD1Ev"
    },
    {
     "kind":"deleting_dtor_pointer",
     "mangled_component_name":"_ZN7android8hardware5audio6effect4V4_020BpHwVisualizerEffectD0Ev"
    },
    {
     "mangled_component_name":"_ZN7android8hardware5audio6effect4V4_020BpHwVisualizerEffect4initEv"
    },
    {
     "mangled_component_name":"_ZN7android8hardware5audio6effect4V4_020BpHwVisualizerEffect9setConfigERKNS3_12EffectConfigERKNS_2spINS3_29IEffectBufferProviderCallbackEEESC_"
    },
    {
     "mangled_component_name":"_ZN7android8hardware5audio6effect4V4_020BpHwVisualizerEffect5resetEv"
    },
    {
     "mangled_component_name":"_ZN7android8hardware5audio6effect4V4_020BpHwVisualizerEffect6enableEv"
    },
    {
     "mangled_component_name":"_ZN7android8hardware5audio6effect4V4_020BpHwVisualizerEffect7disableEv"
    },
    {
     "mangled_component_name":"_ZN7android8hardware5audio6effect4V4_020BpHwVisualizerEffect9setDeviceEj"
    },
    {
     "mangled_component_name":"_ZN7android8hardware5audio6effect4V4_020BpHwVisualizerEffect15setAndGetVolumeERKNS0_8hidl_vecIjEENSt3__18functionIFvNS3_6ResultES8_EEE"
    },
    {
     "mangled_component_name":"_ZN7android8hardware5audio6effect4V4_020BpHwVisualizerEffect24volumeChangeNotificationERKNS0_8hidl_vecIjEE"
    },
    {
     "mangled_component_name":"_ZN7android8hardware5audio6effect4V4_020BpHwVisualizerEffect12setAudioModeENS1_6common4V4_09AudioModeE"
    },
    {
     "mangled_component_name":"_ZN7android8hardware5audio6effect4V4_020BpHwVisualizerEffect16setConfigReverseERKNS3_12EffectConfigERKNS_2spINS3_29IEffectBufferProviderCallbackEEESC_"
    },
    {
     "mangled_component_name":"_ZN7android8hardware5audio6effect4V4_020BpHwVisualizerEffect14setInputDeviceEj"
    },
    {
     "mangled_component_name":"_ZN7android8hardware5audio6effect4V4_020BpHwVisualizerEffect9getConfigENSt3__18functionIFvNS3_6ResultERKNS3_12EffectConfigEEEE"
    },
    {
     "mangled_component_name":"_ZN7android8hardware5audio6effect4V4_020BpHwVisualizerEffect16getConfigReverseENSt3__18functionIFvNS3_6ResultERKNS3_12EffectConfigEEEE"
    },
    {
     "mangled_component_name":"_ZN7android8hardware5audio6effect4V4_020BpHwVisualizerEffect30getSupportedAuxChannelsConfigsEjNSt3__18functionIFvNS3_6ResultERKNS0_8hidl_vecINS3_23EffectAuxChannelsConfigEEEEEE"
    },
    {
     "mangled_component_name":"_ZN7android8hardware5audio6effect4V4_020BpHwVisualizerEffect20getAuxChannelsConfigENSt3__18functionIFvNS3_6ResultERKNS3_23EffectAuxChannelsConfigEEEE"
    },
    {
     "mangled_component_name":"_ZN7android8hardware5audio6effect4V4_020BpHwVisualizerEffect20setAuxChannelsConfigERKNS3_23EffectAuxChannelsConfigE"
    },
    {
     "mangled_component_name":"_ZN7android8hardware5audio6effect4V4_020BpHwVisualizerEffect14setAudioSourceENS1_6common4V4_011AudioSourceE"
    },
    {
     "mangled_component_name":"_ZN7android8hardware5audio6effect4V4_020BpHwVisualizerEffect7offloadERKNS3_22EffectOffloadParameterE"
    },
    {
     "mangled_component_name":"_ZN7android8hardware5audio6effect4V4_020BpHwVisualizerEffect13getDescriptorENSt3__18functionIFvNS3_6ResultERKNS3_16EffectDescriptorEEEE"
    },
    {
     "mangled_component_name":"_ZN7android8hardware5audio6effect4V4_020BpHwVisualizerEffect20prepareForProcessingENSt3__18functionIFvNS3_6ResultERKNS0_12MQDescriptorIS7_LNS0_8MQFlavorE1EEEEEE"
    },
    {
     "mangled_component_name":"_ZN7android8hardware5audio6effect4V4_020BpHwVisualizerEffect17setProcessBuffersERKNS3_11AudioBufferES7_"
    },
    {
     "mangled_component_name":"_ZN7android8hardware5audio6effect4V4_020BpHwVisualizerEffect7commandEjRKNS0_8hidl_vecIhEEjNSt3__18functionIFviS8_EEE"
    },
    {
     "mangled_component_name":"_ZN7android8hardware5audio6effect4V4_020BpHwVisualizerEffect12setParameterERKNS0_8hidl_vecIhEES8_"
    },
    {
     "mangled_component_name":"_ZN7android8hardware5audio6effect4V4_020BpHwVisualizerEffect12getParameterERKNS0_8hidl_vecIhEEjNSt3__18functionIFvNS3_6ResultES8_EEE"
    },
    {
     "mangled_component_name":"_ZN7android8hardware5audio6effect4V4_020BpHwVisualizerEffect29getSupportedConfigsForFeatureEjjjNSt3__18functionIFvNS3_6ResultEjRKNS0_8hidl_vecIhEEEEE"
    },
    {
     "mangled_component_name":"_ZN7android8hardware5audio6effect4V4_020BpHwVisualizerEffect26getCurrentConfigForFeatureEjjNSt3__18functionIFvNS3_6ResultERKNS0_8hidl_vecIhEEEEE"
    },
    {
     "mangled_component_name":"_ZN7android8hardware5audio6effect4V4_020BpHwVisualizerEffect26setCurrentConfigForFeatureEjRKNS0_8hidl_vecIhEE"
    },
    {
     "mangled_component_name":"_ZN7android8hardware5audio6effect4V4_020BpHwVisualizerEffect5closeEv"
    },
    {
     "mangled_component_name":"_ZN7android8hardware5audio6effect4V4_020BpHwVisualizerEffect14setCaptureSizeEt"
    },
    {
     "mangled_component_name":"_ZN7android8hardware5audio6effect4V4_020BpHwVisualizerEffect14getCaptureSizeENSt3__18functionIFvNS3_6ResultEtEEE"
    },
    {
     "mangled_component_name":"_ZN7android8hardware5audio6effect4V4_020BpHwVisualizerEffect14setScalingModeENS3_17IVisualizerEffect11ScalingModeE"
    },
    {
     "mangled_component_name":"_ZN7android8hardware5audio6effect4V4_020BpHwVisualizerEffect14getScalingModeENSt3__18functionIFvNS3_6ResultENS3_17IVisualizerEffect11ScalingModeEEEE"
    },
    {
     "mangled_component_name":"_ZN7android8hardware5audio6effect4V4_020BpHwVisualizerEffect10setLatencyEj"
    },
    {
     "mangled_component_name":"_ZN7android8hardware5audio6effect4V4_020BpHwVisualizerEffect10getLatencyENSt3__18functionIFvNS3_6ResultEjEEE"
    },
    {
     "mangled_component_name":"_ZN7android8hardware5audio6effect4V4_020BpHwVisualizerEffect18setMeasurementModeENS3_17IVisualizerEffect15MeasurementModeE"
    },
    {
     "mangled_component_name":"_ZN7android8hardware5audio6effect4V4_020BpHwVisualizerEffect18getMeasurementModeENSt3__18functionIFvNS3_6ResultENS3_17IVisualizerEffect15MeasurementModeEEEE"
    },
    {
     "mangled_component_name":"_ZN7android8hardware5audio6effect4V4_020BpHwVisualizerEffect7captureENSt3__18functionIFvNS3_6ResultERKNS0_8hidl_vecIhEEEEE"
    },
    {
     "mangled_component_name":"_ZN7android8hardware5audio6effect4V4_020BpHwVisualizerEffect7measureENSt3__18functionIFvNS3_6ResultERKNS3_17IVisualizerEffect11MeasurementEEEE"
    },
    {
     "mangled_component_name":"_ZN7android8hardware11BpInterfaceINS0_5audio6effect4V4_017IVisualizerEffectEE10onAsBinderEv"
    },
    {
     "kind":"vbase_offset",
     "component_value":192
    },
    {
     "kind":"offset_to_top",
     "component_value":-8
    },
    {
     "kind":"rtti",
     "mangled_component_name":"_ZTIN7android8hardware5audio6effect4V4_020BpHwVisualizerEffectE"
    },
    {
     "kind":"complete_dtor_pointer",
     "mangled_component_name":"_ZThn8_N7android8hardware5audio6effect4V4_020BpHwVisualizerEffectD1Ev"
    },
    {
     "kind":"deleting_dtor_pointer",
     "mangled_component_name":"_ZThn8_N7android8hardware5audio6effect4V4_020BpHwVisualizerEffectD0Ev"
    },
    {
     "mangled_component_name":"_ZThn8_N7android8hardware11BpInterfaceINS0_5audio6effect4V4_017IVisualizerEffectEE10onAsBinderEv"
    },
    {
     "kind":"vbase_offset",
     "component_value":184
    },
    {
     "kind":"offset_to_top",
     "component_value":-16
    },
    {
     "kind":"rtti",
     "mangled_component_name":"_ZTIN7android8hardware5audio6effect4V4_020BpHwVisualizerEffectE"
    },
    {
     "kind":"complete_dtor_pointer",
     "mangled_component_name":"_ZThn16_N7android8hardware5audio6effect4V4_020BpHwVisualizerEffectD1Ev"
    },
    {
     "kind":"deleting_dtor_pointer",
     "mangled_component_name":"_ZThn16_N7android8hardware5audio6effect4V4_020BpHwVisualizerEffectD0Ev"
    },
    {
     "mangled_component_name":"_ZN7android8hardware11BpHwRefBase10onFirstRefEv"
    },
    {
     "mangled_component_name":"_ZN7android8hardware11BpHwRefBase15onLastStrongRefEPKv"
    },
    {
     "mangled_component_name":"_ZN7android8hardware11BpHwRefBase20onIncStrongAttemptedEjPKv"
    },
    {
     "kind":"offset_to_top",
     "component_value":-48
    },
    {
     "kind":"rtti",
     "mangled_component_name":"_ZTIN7android8hardware5audio6effect4V4_020BpHwVisualizerEffectE"
    },
    {
     "kind":"complete_dtor_pointer",
     "mangled_component_name":"_ZThn48_N7android8hardware5audio6effect4V4_020BpHwVisualizerEffectD1Ev"
    },
    {
     "kind":"deleting_dtor_pointer",
     "mangled_component_name":"_ZThn48_N7android8hardware5audio6effect4V4_020BpHwVisualizerEffectD0Ev"
    },
    {
     "kind":"vcall_offset"
    },
    {
     "kind":"vcall_offset",
     "component_value":-184
    },
    {
     "kind":"vcall_offset",
     "component_value":-184
    },
    {
     "kind":"vcall_offset",
     "component_value":-184
    },
    {
     "kind":"vcall_offset",
     "component_value":-200
    },
    {
     "kind":"offset_to_top",
     "component_value":-200
    },
    {
     "kind":"rtti",
     "mangled_component_name":"_ZTIN7android8hardware5audio6effect4V4_020BpHwVisualizerEffectE"
    },
    {
     "kind":"complete_dtor_pointer",
     "mangled_component_name":"_ZTv0_n24_N7android8hardware5audio6effect4V4_020BpHwVisualizerEffectD1Ev"
    },
    {
     "kind":"deleting_dtor_pointer",
     "mangled_component_name":"_ZTv0_n24_N7android8hardware5audio6effect4V4_020BpHwVisualizerEffectD0Ev"
    },
    {
     "mangled_component_name":"_ZTv0_n32_N7android8hardware11BpHwRefBase10onFirstRefEv"
    },
    {
     "mangled_component_name":"_ZTv0_n40_N7android8hardware11BpHwRefBase15onLastStrongRefEPKv"
    },
    {
     "mangled_component_name":"_ZTv0_n48_N7android8hardware11BpHwRefBase20onIncStrongAttemptedEjPKv"
    },
    {
     "mangled_component_name":"_ZN7android7RefBase13onLastWeakRefEPKv"
    }
   ],
   "unique_id":"_ZTSN7android8hardware5audio6effect4V4_020BpHwVisualizerEffectE"
  },
  {
   "vtable_components":[
    {
     "kind":"vbase_offset",
     "component_value":136
    },
    {
     "kind":"offset_to_top"
    },
    {
     "kind":"rtti",
     "mangled_component_name":"_ZTIN7android8hardware5audio6effect4V4_032BnHwEffectBufferProviderCallbackE"
    },
    {
     "mangled_component_name":"_ZN7android8hardware9BHwBinder8transactEjRKNS0_6ParcelEPS2_jNSt3__18functionIFvRS2_EEE"
    },
    {
     "mangled_component_name":"_ZN7android8hardware9BHwBinder11linkToDeathERKNS_2spINS0_7IBinder14DeathRecipientEEEPvj"
    },
    {
     "mangled_component_name":"_ZN7android8hardware9BHwBinder13unlinkToDeathERKNS_2wpINS0_7IBinder14DeathRecipientEEEPvjPS5_"
    },
    {
     "mangled_component_name":"_ZNK7android8hardware7IBinder13checkSubclassEPKv"
    },
    {
     "mangled_component_name":"_ZN7android8hardware9BHwBinder12attachObjectEPKvPvS4_PFvS3_S4_S4_E"
    },
    {
     "mangled_component_name":"_ZNK7android8hardware9BHwBinder10findObjectEPKv"
    },
    {
     "mangled_component_name":"_ZN7android8hardware9BHwBinder12detachObjectEPKv"
    },
    {
     "mangled_component_name":"_ZN7android8hardware9BHwBinder11localBinderEv"
    },
    {
     "mangled_component_name":"_ZN7android8hardware7IBinder12remoteBinderEv"
    },
    {
     "kind":"complete_dtor_pointer",
     "mangled_component_name":"_ZN7android8hardware5audio6effect4V4_032BnHwEffectBufferProviderCallbackD1Ev"
    },
    {
     "kind":"deleting_dtor_pointer",
     "mangled_component_name":"_ZN7android8hardware5audio6effect4V4_032BnHwEffectBufferProviderCallbackD0Ev"
    },
    {
     "mangled_component_name":"_ZN7android8hardware5audio6effect4V4_032BnHwEffectBufferProviderCallback10onTransactEjRKNS0_6ParcelEPS5_jNSt3__18functionIFvRS5_EEE"
    },
    {
     "kind":"offset_to_top",
     "component_value":-32
    },
    {
     "kind":"rtti",
     "mangled_component_name":"_ZTIN7android8hardware5audio6effect4V4_032BnHwEffectBufferProviderCallbackE"
    },
    {
     "kind":"complete_dtor_pointer",
     "mangled_component_name":"_ZThn32_N7android8hardware5audio6effect4V4_032BnHwEffectBufferProviderCallbackD1Ev"
    },
    {
     "kind":"deleting_dtor_pointer",
     "mangled_component_name":"_ZThn32_N7android8hardware5audio6effect4V4_032BnHwEffectBufferProviderCallbackD0Ev"
    },
    {
     "kind":"vcall_offset"
    },
    {
     "kind":"vcall_offset"
    },
    {
     "kind":"vcall_offset"
    },
    {
     "kind":"vcall_offset"
    },
    {
     "kind":"vcall_offset",
     "component_value":-136
    },
    {
     "kind":"offset_to_top",
     "component_value":-136
    },
    {
     "kind":"rtti",
     "mangled_component_name":"_ZTIN7android8hardware5audio6effect4V4_032BnHwEffectBufferProviderCallbackE"
    },
    {
     "kind":"complete_dtor_pointer",
     "mangled_component_name":"_ZTv0_n24_N7android8hardware5audio6effect4V4_032BnHwEffectBufferProviderCallbackD1Ev"
    },
    {
     "kind":"deleting_dtor_pointer",
     "mangled_component_name":"_ZTv0_n24_N7android8hardware5audio6effect4V4_032BnHwEffectBufferProviderCallbackD0Ev"
    },
    {
     "mangled_component_name":"_ZN7android7RefBase10onFirstRefEv"
    },
    {
     "mangled_component_name":"_ZN7android7RefBase15onLastStrongRefEPKv"
    },
    {
     "mangled_component_name":"_ZN7android7RefBase20onIncStrongAttemptedEjPKv"
    },
    {
     "mangled_component_name":"_ZN7android7RefBase13onLastWeakRefEPKv"
    }
   ],
   "unique_id":"_ZTSN7android8hardware5audio6effect4V4_032BnHwEffectBufferProviderCallbackE"
  },
  {
   "vtable_components":[
    {
     "kind":"vbase_offset",
     "component_value":120
    },
    {
     "kind":"offset_to_top"
    },
    {
     "kind":"rtti",
     "mangled_component_name":"_ZTIN7android8hardware5audio6effect4V4_028BsAcousticEchoCancelerEffectE"
    },
    {
     "mangled_component_name":"_ZNK7android8hardware5audio6effect4V4_027IAcousticEchoCancelerEffect8isRemoteEv"
    },
    {
     "mangled_component_name":"_ZN7android8hardware5audio6effect4V4_028BsAcousticEchoCancelerEffect14interfaceChainENSt3__18functionIFvRKNS0_8hidl_vecINS0_11hidl_stringEEEEEE"
    },
    {
     "mangled_component_name":"_ZN7android8hardware5audio6effect4V4_028BsAcousticEchoCancelerEffect5debugERKNS0_11hidl_handleERKNS0_8hidl_vecINS0_11hidl_stringEEE"
    },
    {
     "mangled_component_name":"_ZN7android8hardware5audio6effect4V4_028BsAcousticEchoCancelerEffect19interfaceDescriptorENSt3__18functionIFvRKNS0_11hidl_stringEEEE"
    },
    {
     "mangled_component_name":"_ZN7android8hardware5audio6effect4V4_028BsAcousticEchoCancelerEffect12getHashChainENSt3__18functionIFvRKNS0_8hidl_vecINS0_10hidl_arrayIhLm32EJEEEEEEEE"
    },
    {
     "mangled_component_name":"_ZN7android8hardware5audio6effect4V4_028BsAcousticEchoCancelerEffect21setHALInstrumentationEv"
    },
    {
     "mangled_component_name":"_ZN7android8hardware5audio6effect4V4_028BsAcousticEchoCancelerEffect11linkToDeathERKNS_2spINS0_20hidl_death_recipientEEEm"
    },
    {
     "mangled_component_name":"_ZN7android8hardware5audio6effect4V4_028BsAcousticEchoCancelerEffect4pingEv"
    },
    {
     "mangled_component_name":"_ZN7android8hardware5audio6effect4V4_028BsAcousticEchoCancelerEffect12getDebugInfoENSt3__18functionIFvRKNS_4hidl4base4V1_09DebugInfoEEEE"
    },
    {
     "mangled_component_name":"_ZN7android8hardware5audio6effect4V4_028BsAcousticEchoCancelerEffect21notifySyspropsChangedEv"
    },
    {
     "mangled_component_name":"_ZN7android8hardware5audio6effect4V4_028BsAcousticEchoCancelerEffect13unlinkToDeathERKNS_2spINS0_20hidl_death_recipientEEE"
    },
    {
     "kind":"complete_dtor_pointer",
     "mangled_component_name":"_ZN7android8hardware5audio6effect4V4_028BsAcousticEchoCancelerEffectD1Ev"
    },
    {
     "kind":"deleting_dtor_pointer",
     "mangled_component_name":"_ZN7android8hardware5audio6effect4V4_028BsAcousticEchoCancelerEffectD0Ev"
    },
    {
     "mangled_component_name":"_ZN7android8hardware5audio6effect4V4_028BsAcousticEchoCancelerEffect4initEv"
    },
    {
     "mangled_component_name":"_ZN7android8hardware5audio6effect4V4_028BsAcousticEchoCancelerEffect9setConfigERKNS3_12EffectConfigERKNS_2spINS3_29IEffectBufferProviderCallbackEEESC_"
    },
    {
     "mangled_component_name":"_ZN7android8hardware5audio6effect4V4_028BsAcousticEchoCancelerEffect5resetEv"
    },
    {
     "mangled_component_name":"_ZN7android8hardware5audio6effect4V4_028BsAcousticEchoCancelerEffect6enableEv"
    },
    {
     "mangled_component_name":"_ZN7android8hardware5audio6effect4V4_028BsAcousticEchoCancelerEffect7disableEv"
    },
    {
     "mangled_component_name":"_ZN7android8hardware5audio6effect4V4_028BsAcousticEchoCancelerEffect9setDeviceEj"
    },
    {
     "mangled_component_name":"_ZN7android8hardware5audio6effect4V4_028BsAcousticEchoCancelerEffect15setAndGetVolumeERKNS0_8hidl_vecIjEENSt3__18functionIFvNS3_6ResultES8_EEE"
    },
    {
     "mangled_component_name":"_ZN7android8hardware5audio6effect4V4_028BsAcousticEchoCancelerEffect24volumeChangeNotificationERKNS0_8hidl_vecIjEE"
    },
    {
     "mangled_component_name":"_ZN7android8hardware5audio6effect4V4_028BsAcousticEchoCancelerEffect12setAudioModeENS1_6common4V4_09AudioModeE"
    },
    {
     "mangled_component_name":"_ZN7android8hardware5audio6effect4V4_028BsAcousticEchoCancelerEffect16setConfigReverseERKNS3_12EffectConfigERKNS_2spINS3_29IEffectBufferProviderCallbackEEESC_"
    },
    {
     "mangled_component_name":"_ZN7android8hardware5audio6effect4V4_028BsAcousticEchoCancelerEffect14setInputDeviceEj"
    },
    {
     "mangled_component_name":"_ZN7android8hardware5audio6effect4V4_028BsAcousticEchoCancelerEffect9getConfigENSt3__18functionIFvNS3_6ResultERKNS3_12EffectConfigEEEE"
    },
    {
     "mangled_component_name":"_ZN7android8hardware5audio6effect4V4_028BsAcousticEchoCancelerEffect16getConfigReverseENSt3__18functionIFvNS3_6ResultERKNS3_12EffectConfigEEEE"
    },
    {
     "mangled_component_name":"_ZN7android8hardware5audio6effect4V4_028BsAcousticEchoCancelerEffect30getSupportedAuxChannelsConfigsEjNSt3__18functionIFvNS3_6ResultERKNS0_8hidl_vecINS3_23EffectAuxChannelsConfigEEEEEE"
    },
    {
     "mangled_component_name":"_ZN7android8hardware5audio6effect4V4_028BsAcousticEchoCancelerEffect20getAuxChannelsConfigENSt3__18functionIFvNS3_6ResultERKNS3_23EffectAuxChannelsConfigEEEE"
    },
    {
     "mangled_component_name":"_ZN7android8hardware5audio6effect4V4_028BsAcousticEchoCancelerEffect20setAuxChannelsConfigERKNS3_23EffectAuxChannelsConfigE"
    },
    {
     "mangled_component_name":"_ZN7android8hardware5audio6effect4V4_028BsAcousticEchoCancelerEffect14setAudioSourceENS1_6common4V4_011AudioSourceE"
    },
    {
     "mangled_component_name":"_ZN7android8hardware5audio6effect4V4_028BsAcousticEchoCancelerEffect7offloadERKNS3_22EffectOffloadParameterE"
    },
    {
     "mangled_component_name":"_ZN7android8hardware5audio6effect4V4_028BsAcousticEchoCancelerEffect13getDescriptorENSt3__18functionIFvNS3_6ResultERKNS3_16EffectDescriptorEEEE"
    },
    {
     "mangled_component_name":"_ZN7android8hardware5audio6effect4V4_028BsAcousticEchoCancelerEffect20prepareForProcessingENSt3__18functionIFvNS3_6ResultERKNS0_12MQDescriptorIS7_LNS0_8MQFlavorE1EEEEEE"
    },
    {
     "mangled_component_name":"_ZN7android8hardware5audio6effect4V4_028BsAcousticEchoCancelerEffect17setProcessBuffersERKNS3_11AudioBufferES7_"
    },
    {
     "mangled_component_name":"_ZN7android8hardware5audio6effect4V4_028BsAcousticEchoCancelerEffect7commandEjRKNS0_8hidl_vecIhEEjNSt3__18functionIFviS8_EEE"
    },
    {
     "mangled_component_name":"_ZN7android8hardware5audio6effect4V4_028BsAcousticEchoCancelerEffect12setParameterERKNS0_8hidl_vecIhEES8_"
    },
    {
     "mangled_component_name":"_ZN7android8hardware5audio6effect4V4_028BsAcousticEchoCancelerEffect12getParameterERKNS0_8hidl_vecIhEEjNSt3__18functionIFvNS3_6ResultES8_EEE"
    },
    {
     "mangled_component_name":"_ZN7android8hardware5audio6effect4V4_028BsAcousticEchoCancelerEffect29getSupportedConfigsForFeatureEjjjNSt3__18functionIFvNS3_6ResultEjRKNS0_8hidl_vecIhEEEEE"
    },
    {
     "mangled_component_name":"_ZN7android8hardware5audio6effect4V4_028BsAcousticEchoCancelerEffect26getCurrentConfigForFeatureEjjNSt3__18functionIFvNS3_6ResultERKNS0_8hidl_vecIhEEEEE"
    },
    {
     "mangled_component_name":"_ZN7android8hardware5audio6effect4V4_028BsAcousticEchoCancelerEffect26setCurrentConfigForFeatureEjRKNS0_8hidl_vecIhEE"
    },
    {
     "mangled_component_name":"_ZN7android8hardware5audio6effect4V4_028BsAcousticEchoCancelerEffect5closeEv"
    },
    {
     "mangled_component_name":"_ZN7android8hardware5audio6effect4V4_028BsAcousticEchoCancelerEffect12setEchoDelayEj"
    },
    {
     "mangled_component_name":"_ZN7android8hardware5audio6effect4V4_028BsAcousticEchoCancelerEffect12getEchoDelayENSt3__18functionIFvNS3_6ResultEjEEE"
    },
    {
     "kind":"offset_to_top",
     "component_value":-8
    },
    {
     "kind":"rtti",
     "mangled_component_name":"_ZTIN7android8hardware5audio6effect4V4_028BsAcousticEchoCancelerEffectE"
    },
    {
     "kind":"complete_dtor_pointer",
     "mangled_component_name":"_ZThn8_N7android8hardware5audio6effect4V4_028BsAcousticEchoCancelerEffectD1Ev"
    },
    {
     "kind":"deleting_dtor_pointer",
     "mangled_component_name":"_ZThn8_N7android8hardware5audio6effect4V4_028BsAcousticEchoCancelerEffectD0Ev"
    },
    {
     "kind":"vcall_offset"
    },
    {
     "kind":"vcall_offset"
    },
    {
     "kind":"vcall_offset"
    },
    {
     "kind":"vcall_offset"
    },
    {
     "kind":"vcall_offset",
     "component_value":-120
    },
    {
     "kind":"offset_to_top",
     "component_value":-120
    },
    {
     "kind":"rtti",
     "mangled_component_name":"_ZTIN7android8hardware5audio6effect4V4_028BsAcousticEchoCancelerEffectE"
    },
    {
     "kind":"complete_dtor_pointer",
     "mangled_component_name":"_ZTv0_n24_N7android8hardware5audio6effect4V4_028BsAcousticEchoCancelerEffectD1Ev"
    },
    {
     "kind":"deleting_dtor_pointer",
     "mangled_component_name":"_ZTv0_n24_N7android8hardware5audio6effect4V4_028BsAcousticEchoCancelerEffectD0Ev"
    },
    {
     "mangled_component_name":"_ZN7android7RefBase10onFirstRefEv"
    },
    {
     "mangled_component_name":"_ZN7android7RefBase15onLastStrongRefEPKv"
    },
    {
     "mangled_component_name":"_ZN7android7RefBase20onIncStrongAttemptedEjPKv"
    },
    {
     "mangled_component_name":"_ZN7android7RefBase13onLastWeakRefEPKv"
    }
   ],
   "unique_id":"_ZTSN7android8hardware5audio6effect4V4_028BsAcousticEchoCancelerEffectE"
  },
  {
   "vtable_components":[
    {
     "kind":"vbase_offset",
     "component_value":136
    },
    {
     "kind":"offset_to_top"
    },
    {
     "kind":"rtti",
     "mangled_component_name":"_ZTIN7android8hardware5audio6effect4V4_010BnHwEffectE"
    },
    {
     "mangled_component_name":"_ZN7android8hardware9BHwBinder8transactEjRKNS0_6ParcelEPS2_jNSt3__18functionIFvRS2_EEE"
    },
    {
     "mangled_component_name":"_ZN7android8hardware9BHwBinder11linkToDeathERKNS_2spINS0_7IBinder14DeathRecipientEEEPvj"
    },
    {
     "mangled_component_name":"_ZN7android8hardware9BHwBinder13unlinkToDeathERKNS_2wpINS0_7IBinder14DeathRecipientEEEPvjPS5_"
    },
    {
     "mangled_component_name":"_ZNK7android8hardware7IBinder13checkSubclassEPKv"
    },
    {
     "mangled_component_name":"_ZN7android8hardware9BHwBinder12attachObjectEPKvPvS4_PFvS3_S4_S4_E"
    },
    {
     "mangled_component_name":"_ZNK7android8hardware9BHwBinder10findObjectEPKv"
    },
    {
     "mangled_component_name":"_ZN7android8hardware9BHwBinder12detachObjectEPKv"
    },
    {
     "mangled_component_name":"_ZN7android8hardware9BHwBinder11localBinderEv"
    },
    {
     "mangled_component_name":"_ZN7android8hardware7IBinder12remoteBinderEv"
    },
    {
     "kind":"complete_dtor_pointer",
     "mangled_component_name":"_ZN7android8hardware5audio6effect4V4_010BnHwEffectD1Ev"
    },
    {
     "kind":"deleting_dtor_pointer",
     "mangled_component_name":"_ZN7android8hardware5audio6effect4V4_010BnHwEffectD0Ev"
    },
    {
     "mangled_component_name":"_ZN7android8hardware5audio6effect4V4_010BnHwEffect10onTransactEjRKNS0_6ParcelEPS5_jNSt3__18functionIFvRS5_EEE"
    },
    {
     "kind":"offset_to_top",
     "component_value":-32
    },
    {
     "kind":"rtti",
     "mangled_component_name":"_ZTIN7android8hardware5audio6effect4V4_010BnHwEffectE"
    },
    {
     "kind":"complete_dtor_pointer",
     "mangled_component_name":"_ZThn32_N7android8hardware5audio6effect4V4_010BnHwEffectD1Ev"
    },
    {
     "kind":"deleting_dtor_pointer",
     "mangled_component_name":"_ZThn32_N7android8hardware5audio6effect4V4_010BnHwEffectD0Ev"
    },
    {
     "kind":"vcall_offset"
    },
    {
     "kind":"vcall_offset"
    },
    {
     "kind":"vcall_offset"
    },
    {
     "kind":"vcall_offset"
    },
    {
     "kind":"vcall_offset",
     "component_value":-136
    },
    {
     "kind":"offset_to_top",
     "component_value":-136
    },
    {
     "kind":"rtti",
     "mangled_component_name":"_ZTIN7android8hardware5audio6effect4V4_010BnHwEffectE"
    },
    {
     "kind":"complete_dtor_pointer",
     "mangled_component_name":"_ZTv0_n24_N7android8hardware5audio6effect4V4_010BnHwEffectD1Ev"
    },
    {
     "kind":"deleting_dtor_pointer",
     "mangled_component_name":"_ZTv0_n24_N7android8hardware5audio6effect4V4_010BnHwEffectD0Ev"
    },
    {
     "mangled_component_name":"_ZN7android7RefBase10onFirstRefEv"
    },
    {
     "mangled_component_name":"_ZN7android7RefBase15onLastStrongRefEPKv"
    },
    {
     "mangled_component_name":"_ZN7android7RefBase20onIncStrongAttemptedEjPKv"
    },
    {
     "mangled_component_name":"_ZN7android7RefBase13onLastWeakRefEPKv"
    }
   ],
   "unique_id":"_ZTSN7android8hardware5audio6effect4V4_010BnHwEffectE"
  },
  {
   "vtable_components":[
    {
     "kind":"vbase_offset",
     "component_value":8
    },
    {
     "kind":"offset_to_top"
    },
    {
     "kind":"rtti",
     "mangled_component_name":"_ZTIN7android8hardware5audio6effect4V4_016IBassBoostEffectE"
    },
    {
     "mangled_component_name":"_ZNK7android8hardware5audio6effect4V4_016IBassBoostEffect8isRemoteEv"
    },
    {
     "mangled_component_name":"_ZN7android8hardware5audio6effect4V4_016IBassBoostEffect14interfaceChainENSt3__18functionIFvRKNS0_8hidl_vecINS0_11hidl_stringEEEEEE"
    },
    {
     "mangled_component_name":"_ZN7android8hardware5audio6effect4V4_016IBassBoostEffect5debugERKNS0_11hidl_handleERKNS0_8hidl_vecINS0_11hidl_stringEEE"
    },
    {
     "mangled_component_name":"_ZN7android8hardware5audio6effect4V4_016IBassBoostEffect19interfaceDescriptorENSt3__18functionIFvRKNS0_11hidl_stringEEEE"
    },
    {
     "mangled_component_name":"_ZN7android8hardware5audio6effect4V4_016IBassBoostEffect12getHashChainENSt3__18functionIFvRKNS0_8hidl_vecINS0_10hidl_arrayIhLm32EJEEEEEEEE"
    },
    {
     "mangled_component_name":"_ZN7android8hardware5audio6effect4V4_016IBassBoostEffect21setHALInstrumentationEv"
    },
    {
     "mangled_component_name":"_ZN7android8hardware5audio6effect4V4_016IBassBoostEffect11linkToDeathERKNS_2spINS0_20hidl_death_recipientEEEm"
    },
    {
     "mangled_component_name":"_ZN7android8hardware5audio6effect4V4_016IBassBoostEffect4pingEv"
    },
    {
     "mangled_component_name":"_ZN7android8hardware5audio6effect4V4_016IBassBoostEffect12getDebugInfoENSt3__18functionIFvRKNS_4hidl4base4V1_09DebugInfoEEEE"
    },
    {
     "mangled_component_name":"_ZN7android8hardware5audio6effect4V4_016IBassBoostEffect21notifySyspropsChangedEv"
    },
    {
     "mangled_component_name":"_ZN7android8hardware5audio6effect4V4_016IBassBoostEffect13unlinkToDeathERKNS_2spINS0_20hidl_death_recipientEEE"
    },
    {
     "kind":"complete_dtor_pointer",
     "mangled_component_name":"_ZN7android8hardware5audio6effect4V4_016IBassBoostEffectD1Ev"
    },
    {
     "kind":"deleting_dtor_pointer",
     "mangled_component_name":"_ZN7android8hardware5audio6effect4V4_016IBassBoostEffectD0Ev"
    },
    {
     "is_pure":true,
     "mangled_component_name":"_ZN7android8hardware5audio6effect4V4_016IBassBoostEffect4initEv"
    },
    {
     "is_pure":true,
     "mangled_component_name":"_ZN7android8hardware5audio6effect4V4_016IBassBoostEffect9setConfigERKNS3_12EffectConfigERKNS_2spINS3_29IEffectBufferProviderCallbackEEESC_"
    },
    {
     "is_pure":true,
     "mangled_component_name":"_ZN7android8hardware5audio6effect4V4_016IBassBoostEffect5resetEv"
    },
    {
     "is_pure":true,
     "mangled_component_name":"_ZN7android8hardware5audio6effect4V4_016IBassBoostEffect6enableEv"
    },
    {
     "is_pure":true,
     "mangled_component_name":"_ZN7android8hardware5audio6effect4V4_016IBassBoostEffect7disableEv"
    },
    {
     "is_pure":true,
     "mangled_component_name":"_ZN7android8hardware5audio6effect4V4_016IBassBoostEffect9setDeviceEj"
    },
    {
     "is_pure":true,
     "mangled_component_name":"_ZN7android8hardware5audio6effect4V4_016IBassBoostEffect15setAndGetVolumeERKNS0_8hidl_vecIjEENSt3__18functionIFvNS3_6ResultES8_EEE"
    },
    {
     "is_pure":true,
     "mangled_component_name":"_ZN7android8hardware5audio6effect4V4_016IBassBoostEffect24volumeChangeNotificationERKNS0_8hidl_vecIjEE"
    },
    {
     "is_pure":true,
     "mangled_component_name":"_ZN7android8hardware5audio6effect4V4_016IBassBoostEffect12setAudioModeENS1_6common4V4_09AudioModeE"
    },
    {
     "is_pure":true,
     "mangled_component_name":"_ZN7android8hardware5audio6effect4V4_016IBassBoostEffect16setConfigReverseERKNS3_12EffectConfigERKNS_2spINS3_29IEffectBufferProviderCallbackEEESC_"
    },
    {
     "is_pure":true,
     "mangled_component_name":"_ZN7android8hardware5audio6effect4V4_016IBassBoostEffect14setInputDeviceEj"
    },
    {
     "is_pure":true,
     "mangled_component_name":"_ZN7android8hardware5audio6effect4V4_016IBassBoostEffect9getConfigENSt3__18functionIFvNS3_6ResultERKNS3_12EffectConfigEEEE"
    },
    {
     "is_pure":true,
     "mangled_component_name":"_ZN7android8hardware5audio6effect4V4_016IBassBoostEffect16getConfigReverseENSt3__18functionIFvNS3_6ResultERKNS3_12EffectConfigEEEE"
    },
    {
     "is_pure":true,
     "mangled_component_name":"_ZN7android8hardware5audio6effect4V4_016IBassBoostEffect30getSupportedAuxChannelsConfigsEjNSt3__18functionIFvNS3_6ResultERKNS0_8hidl_vecINS3_23EffectAuxChannelsConfigEEEEEE"
    },
    {
     "is_pure":true,
     "mangled_component_name":"_ZN7android8hardware5audio6effect4V4_016IBassBoostEffect20getAuxChannelsConfigENSt3__18functionIFvNS3_6ResultERKNS3_23EffectAuxChannelsConfigEEEE"
    },
    {
     "is_pure":true,
     "mangled_component_name":"_ZN7android8hardware5audio6effect4V4_016IBassBoostEffect20setAuxChannelsConfigERKNS3_23EffectAuxChannelsConfigE"
    },
    {
     "is_pure":true,
     "mangled_component_name":"_ZN7android8hardware5audio6effect4V4_016IBassBoostEffect14setAudioSourceENS1_6common4V4_011AudioSourceE"
    },
    {
     "is_pure":true,
     "mangled_component_name":"_ZN7android8hardware5audio6effect4V4_016IBassBoostEffect7offloadERKNS3_22EffectOffloadParameterE"
    },
    {
     "is_pure":true,
     "mangled_component_name":"_ZN7android8hardware5audio6effect4V4_016IBassBoostEffect13getDescriptorENSt3__18functionIFvNS3_6ResultERKNS3_16EffectDescriptorEEEE"
    },
    {
     "is_pure":true,
     "mangled_component_name":"_ZN7android8hardware5audio6effect4V4_016IBassBoostEffect20prepareForProcessingENSt3__18functionIFvNS3_6ResultERKNS0_12MQDescriptorIS7_LNS0_8MQFlavorE1EEEEEE"
    },
    {
     "is_pure":true,
     "mangled_component_name":"_ZN7android8hardware5audio6effect4V4_016IBassBoostEffect17setProcessBuffersERKNS3_11AudioBufferES7_"
    },
    {
     "is_pure":true,
     "mangled_component_name":"_ZN7android8hardware5audio6effect4V4_016IBassBoostEffect7commandEjRKNS0_8hidl_vecIhEEjNSt3__18functionIFviS8_EEE"
    },
    {
     "is_pure":true,
     "mangled_component_name":"_ZN7android8hardware5audio6effect4V4_016IBassBoostEffect12setParameterERKNS0_8hidl_vecIhEES8_"
    },
    {
     "is_pure":true,
     "mangled_component_name":"_ZN7android8hardware5audio6effect4V4_016IBassBoostEffect12getParameterERKNS0_8hidl_vecIhEEjNSt3__18functionIFvNS3_6ResultES8_EEE"
    },
    {
     "is_pure":true,
     "mangled_component_name":"_ZN7android8hardware5audio6effect4V4_016IBassBoostEffect29getSupportedConfigsForFeatureEjjjNSt3__18functionIFvNS3_6ResultEjRKNS0_8hidl_vecIhEEEEE"
    },
    {
     "is_pure":true,
     "mangled_component_name":"_ZN7android8hardware5audio6effect4V4_016IBassBoostEffect26getCurrentConfigForFeatureEjjNSt3__18functionIFvNS3_6ResultERKNS0_8hidl_vecIhEEEEE"
    },
    {
     "is_pure":true,
     "mangled_component_name":"_ZN7android8hardware5audio6effect4V4_016IBassBoostEffect26setCurrentConfigForFeatureEjRKNS0_8hidl_vecIhEE"
    },
    {
     "is_pure":true,
     "mangled_component_name":"_ZN7android8hardware5audio6effect4V4_016IBassBoostEffect5closeEv"
    },
    {
     "is_pure":true,
     "mangled_component_name":"_ZN7android8hardware5audio6effect4V4_016IBassBoostEffect19isStrengthSupportedENSt3__18functionIFvNS3_6ResultEbEEE"
    },
    {
     "is_pure":true,
     "mangled_component_name":"_ZN7android8hardware5audio6effect4V4_016IBassBoostEffect11setStrengthEt"
    },
    {
     "is_pure":true,
     "mangled_component_name":"_ZN7android8hardware5audio6effect4V4_016IBassBoostEffect11getStrengthENSt3__18functionIFvNS3_6ResultEtEEE"
    },
    {
     "kind":"vcall_offset"
    },
    {
     "kind":"vcall_offset"
    },
    {
     "kind":"vcall_offset"
    },
    {
     "kind":"vcall_offset"
    },
    {
     "kind":"vcall_offset",
     "component_value":-8
    },
    {
     "kind":"offset_to_top",
     "component_value":-8
    },
    {
     "kind":"rtti",
     "mangled_component_name":"_ZTIN7android8hardware5audio6effect4V4_016IBassBoostEffectE"
    },
    {
     "kind":"complete_dtor_pointer",
     "mangled_component_name":"_ZTv0_n24_N7android8hardware5audio6effect4V4_016IBassBoostEffectD1Ev"
    },
    {
     "kind":"deleting_dtor_pointer",
     "mangled_component_name":"_ZTv0_n24_N7android8hardware5audio6effect4V4_016IBassBoostEffectD0Ev"
    },
    {
     "mangled_component_name":"_ZN7android7RefBase10onFirstRefEv"
    },
    {
     "mangled_component_name":"_ZN7android7RefBase15onLastStrongRefEPKv"
    },
    {
     "mangled_component_name":"_ZN7android7RefBase20onIncStrongAttemptedEjPKv"
    },
    {
     "mangled_component_name":"_ZN7android7RefBase13onLastWeakRefEPKv"
    }
   ],
   "unique_id":"_ZTSN7android8hardware5audio6effect4V4_016IBassBoostEffectE"
  },
  {
   "vtable_components":[
    {
     "kind":"vbase_offset",
     "component_value":136
    },
    {
     "kind":"offset_to_top"
    },
    {
     "kind":"rtti",
     "mangled_component_name":"_ZTIN7android8hardware5audio6effect4V4_019BnHwBassBoostEffectE"
    },
    {
     "mangled_component_name":"_ZN7android8hardware9BHwBinder8transactEjRKNS0_6ParcelEPS2_jNSt3__18functionIFvRS2_EEE"
    },
    {
     "mangled_component_name":"_ZN7android8hardware9BHwBinder11linkToDeathERKNS_2spINS0_7IBinder14DeathRecipientEEEPvj"
    },
    {
     "mangled_component_name":"_ZN7android8hardware9BHwBinder13unlinkToDeathERKNS_2wpINS0_7IBinder14DeathRecipientEEEPvjPS5_"
    },
    {
     "mangled_component_name":"_ZNK7android8hardware7IBinder13checkSubclassEPKv"
    },
    {
     "mangled_component_name":"_ZN7android8hardware9BHwBinder12attachObjectEPKvPvS4_PFvS3_S4_S4_E"
    },
    {
     "mangled_component_name":"_ZNK7android8hardware9BHwBinder10findObjectEPKv"
    },
    {
     "mangled_component_name":"_ZN7android8hardware9BHwBinder12detachObjectEPKv"
    },
    {
     "mangled_component_name":"_ZN7android8hardware9BHwBinder11localBinderEv"
    },
    {
     "mangled_component_name":"_ZN7android8hardware7IBinder12remoteBinderEv"
    },
    {
     "kind":"complete_dtor_pointer",
     "mangled_component_name":"_ZN7android8hardware5audio6effect4V4_019BnHwBassBoostEffectD1Ev"
    },
    {
     "kind":"deleting_dtor_pointer",
     "mangled_component_name":"_ZN7android8hardware5audio6effect4V4_019BnHwBassBoostEffectD0Ev"
    },
    {
     "mangled_component_name":"_ZN7android8hardware5audio6effect4V4_019BnHwBassBoostEffect10onTransactEjRKNS0_6ParcelEPS5_jNSt3__18functionIFvRS5_EEE"
    },
    {
     "kind":"offset_to_top",
     "component_value":-32
    },
    {
     "kind":"rtti",
     "mangled_component_name":"_ZTIN7android8hardware5audio6effect4V4_019BnHwBassBoostEffectE"
    },
    {
     "kind":"complete_dtor_pointer",
     "mangled_component_name":"_ZThn32_N7android8hardware5audio6effect4V4_019BnHwBassBoostEffectD1Ev"
    },
    {
     "kind":"deleting_dtor_pointer",
     "mangled_component_name":"_ZThn32_N7android8hardware5audio6effect4V4_019BnHwBassBoostEffectD0Ev"
    },
    {
     "kind":"vcall_offset"
    },
    {
     "kind":"vcall_offset"
    },
    {
     "kind":"vcall_offset"
    },
    {
     "kind":"vcall_offset"
    },
    {
     "kind":"vcall_offset",
     "component_value":-136
    },
    {
     "kind":"offset_to_top",
     "component_value":-136
    },
    {
     "kind":"rtti",
     "mangled_component_name":"_ZTIN7android8hardware5audio6effect4V4_019BnHwBassBoostEffectE"
    },
    {
     "kind":"complete_dtor_pointer",
     "mangled_component_name":"_ZTv0_n24_N7android8hardware5audio6effect4V4_019BnHwBassBoostEffectD1Ev"
    },
    {
     "kind":"deleting_dtor_pointer",
     "mangled_component_name":"_ZTv0_n24_N7android8hardware5audio6effect4V4_019BnHwBassBoostEffectD0Ev"
    },
    {
     "mangled_component_name":"_ZN7android7RefBase10onFirstRefEv"
    },
    {
     "mangled_component_name":"_ZN7android7RefBase15onLastStrongRefEPKv"
    },
    {
     "mangled_component_name":"_ZN7android7RefBase20onIncStrongAttemptedEjPKv"
    },
    {
     "mangled_component_name":"_ZN7android7RefBase13onLastWeakRefEPKv"
    }
   ],
   "unique_id":"_ZTSN7android8hardware5audio6effect4V4_019BnHwBassBoostEffectE"
  },
  {
   "vtable_components":[
    {
     "kind":"vbase_offset",
     "component_value":120
    },
    {
     "kind":"offset_to_top"
    },
    {
     "kind":"rtti",
     "mangled_component_name":"_ZTIN7android8hardware5audio6effect4V4_017BsBassBoostEffectE"
    },
    {
     "mangled_component_name":"_ZNK7android8hardware5audio6effect4V4_016IBassBoostEffect8isRemoteEv"
    },
    {
     "mangled_component_name":"_ZN7android8hardware5audio6effect4V4_017BsBassBoostEffect14interfaceChainENSt3__18functionIFvRKNS0_8hidl_vecINS0_11hidl_stringEEEEEE"
    },
    {
     "mangled_component_name":"_ZN7android8hardware5audio6effect4V4_017BsBassBoostEffect5debugERKNS0_11hidl_handleERKNS0_8hidl_vecINS0_11hidl_stringEEE"
    },
    {
     "mangled_component_name":"_ZN7android8hardware5audio6effect4V4_017BsBassBoostEffect19interfaceDescriptorENSt3__18functionIFvRKNS0_11hidl_stringEEEE"
    },
    {
     "mangled_component_name":"_ZN7android8hardware5audio6effect4V4_017BsBassBoostEffect12getHashChainENSt3__18functionIFvRKNS0_8hidl_vecINS0_10hidl_arrayIhLm32EJEEEEEEEE"
    },
    {
     "mangled_component_name":"_ZN7android8hardware5audio6effect4V4_017BsBassBoostEffect21setHALInstrumentationEv"
    },
    {
     "mangled_component_name":"_ZN7android8hardware5audio6effect4V4_017BsBassBoostEffect11linkToDeathERKNS_2spINS0_20hidl_death_recipientEEEm"
    },
    {
     "mangled_component_name":"_ZN7android8hardware5audio6effect4V4_017BsBassBoostEffect4pingEv"
    },
    {
     "mangled_component_name":"_ZN7android8hardware5audio6effect4V4_017BsBassBoostEffect12getDebugInfoENSt3__18functionIFvRKNS_4hidl4base4V1_09DebugInfoEEEE"
    },
    {
     "mangled_component_name":"_ZN7android8hardware5audio6effect4V4_017BsBassBoostEffect21notifySyspropsChangedEv"
    },
    {
     "mangled_component_name":"_ZN7android8hardware5audio6effect4V4_017BsBassBoostEffect13unlinkToDeathERKNS_2spINS0_20hidl_death_recipientEEE"
    },
    {
     "kind":"complete_dtor_pointer",
     "mangled_component_name":"_ZN7android8hardware5audio6effect4V4_017BsBassBoostEffectD1Ev"
    },
    {
     "kind":"deleting_dtor_pointer",
     "mangled_component_name":"_ZN7android8hardware5audio6effect4V4_017BsBassBoostEffectD0Ev"
    },
    {
     "mangled_component_name":"_ZN7android8hardware5audio6effect4V4_017BsBassBoostEffect4initEv"
    },
    {
     "mangled_component_name":"_ZN7android8hardware5audio6effect4V4_017BsBassBoostEffect9setConfigERKNS3_12EffectConfigERKNS_2spINS3_29IEffectBufferProviderCallbackEEESC_"
    },
    {
     "mangled_component_name":"_ZN7android8hardware5audio6effect4V4_017BsBassBoostEffect5resetEv"
    },
    {
     "mangled_component_name":"_ZN7android8hardware5audio6effect4V4_017BsBassBoostEffect6enableEv"
    },
    {
     "mangled_component_name":"_ZN7android8hardware5audio6effect4V4_017BsBassBoostEffect7disableEv"
    },
    {
     "mangled_component_name":"_ZN7android8hardware5audio6effect4V4_017BsBassBoostEffect9setDeviceEj"
    },
    {
     "mangled_component_name":"_ZN7android8hardware5audio6effect4V4_017BsBassBoostEffect15setAndGetVolumeERKNS0_8hidl_vecIjEENSt3__18functionIFvNS3_6ResultES8_EEE"
    },
    {
     "mangled_component_name":"_ZN7android8hardware5audio6effect4V4_017BsBassBoostEffect24volumeChangeNotificationERKNS0_8hidl_vecIjEE"
    },
    {
     "mangled_component_name":"_ZN7android8hardware5audio6effect4V4_017BsBassBoostEffect12setAudioModeENS1_6common4V4_09AudioModeE"
    },
    {
     "mangled_component_name":"_ZN7android8hardware5audio6effect4V4_017BsBassBoostEffect16setConfigReverseERKNS3_12EffectConfigERKNS_2spINS3_29IEffectBufferProviderCallbackEEESC_"
    },
    {
     "mangled_component_name":"_ZN7android8hardware5audio6effect4V4_017BsBassBoostEffect14setInputDeviceEj"
    },
    {
     "mangled_component_name":"_ZN7android8hardware5audio6effect4V4_017BsBassBoostEffect9getConfigENSt3__18functionIFvNS3_6ResultERKNS3_12EffectConfigEEEE"
    },
    {
     "mangled_component_name":"_ZN7android8hardware5audio6effect4V4_017BsBassBoostEffect16getConfigReverseENSt3__18functionIFvNS3_6ResultERKNS3_12EffectConfigEEEE"
    },
    {
     "mangled_component_name":"_ZN7android8hardware5audio6effect4V4_017BsBassBoostEffect30getSupportedAuxChannelsConfigsEjNSt3__18functionIFvNS3_6ResultERKNS0_8hidl_vecINS3_23EffectAuxChannelsConfigEEEEEE"
    },
    {
     "mangled_component_name":"_ZN7android8hardware5audio6effect4V4_017BsBassBoostEffect20getAuxChannelsConfigENSt3__18functionIFvNS3_6ResultERKNS3_23EffectAuxChannelsConfigEEEE"
    },
    {
     "mangled_component_name":"_ZN7android8hardware5audio6effect4V4_017BsBassBoostEffect20setAuxChannelsConfigERKNS3_23EffectAuxChannelsConfigE"
    },
    {
     "mangled_component_name":"_ZN7android8hardware5audio6effect4V4_017BsBassBoostEffect14setAudioSourceENS1_6common4V4_011AudioSourceE"
    },
    {
     "mangled_component_name":"_ZN7android8hardware5audio6effect4V4_017BsBassBoostEffect7offloadERKNS3_22EffectOffloadParameterE"
    },
    {
     "mangled_component_name":"_ZN7android8hardware5audio6effect4V4_017BsBassBoostEffect13getDescriptorENSt3__18functionIFvNS3_6ResultERKNS3_16EffectDescriptorEEEE"
    },
    {
     "mangled_component_name":"_ZN7android8hardware5audio6effect4V4_017BsBassBoostEffect20prepareForProcessingENSt3__18functionIFvNS3_6ResultERKNS0_12MQDescriptorIS7_LNS0_8MQFlavorE1EEEEEE"
    },
    {
     "mangled_component_name":"_ZN7android8hardware5audio6effect4V4_017BsBassBoostEffect17setProcessBuffersERKNS3_11AudioBufferES7_"
    },
    {
     "mangled_component_name":"_ZN7android8hardware5audio6effect4V4_017BsBassBoostEffect7commandEjRKNS0_8hidl_vecIhEEjNSt3__18functionIFviS8_EEE"
    },
    {
     "mangled_component_name":"_ZN7android8hardware5audio6effect4V4_017BsBassBoostEffect12setParameterERKNS0_8hidl_vecIhEES8_"
    },
    {
     "mangled_component_name":"_ZN7android8hardware5audio6effect4V4_017BsBassBoostEffect12getParameterERKNS0_8hidl_vecIhEEjNSt3__18functionIFvNS3_6ResultES8_EEE"
    },
    {
     "mangled_component_name":"_ZN7android8hardware5audio6effect4V4_017BsBassBoostEffect29getSupportedConfigsForFeatureEjjjNSt3__18functionIFvNS3_6ResultEjRKNS0_8hidl_vecIhEEEEE"
    },
    {
     "mangled_component_name":"_ZN7android8hardware5audio6effect4V4_017BsBassBoostEffect26getCurrentConfigForFeatureEjjNSt3__18functionIFvNS3_6ResultERKNS0_8hidl_vecIhEEEEE"
    },
    {
     "mangled_component_name":"_ZN7android8hardware5audio6effect4V4_017BsBassBoostEffect26setCurrentConfigForFeatureEjRKNS0_8hidl_vecIhEE"
    },
    {
     "mangled_component_name":"_ZN7android8hardware5audio6effect4V4_017BsBassBoostEffect5closeEv"
    },
    {
     "mangled_component_name":"_ZN7android8hardware5audio6effect4V4_017BsBassBoostEffect19isStrengthSupportedENSt3__18functionIFvNS3_6ResultEbEEE"
    },
    {
     "mangled_component_name":"_ZN7android8hardware5audio6effect4V4_017BsBassBoostEffect11setStrengthEt"
    },
    {
     "mangled_component_name":"_ZN7android8hardware5audio6effect4V4_017BsBassBoostEffect11getStrengthENSt3__18functionIFvNS3_6ResultEtEEE"
    },
    {
     "kind":"offset_to_top",
     "component_value":-8
    },
    {
     "kind":"rtti",
     "mangled_component_name":"_ZTIN7android8hardware5audio6effect4V4_017BsBassBoostEffectE"
    },
    {
     "kind":"complete_dtor_pointer",
     "mangled_component_name":"_ZThn8_N7android8hardware5audio6effect4V4_017BsBassBoostEffectD1Ev"
    },
    {
     "kind":"deleting_dtor_pointer",
     "mangled_component_name":"_ZThn8_N7android8hardware5audio6effect4V4_017BsBassBoostEffectD0Ev"
    },
    {
     "kind":"vcall_offset"
    },
    {
     "kind":"vcall_offset"
    },
    {
     "kind":"vcall_offset"
    },
    {
     "kind":"vcall_offset"
    },
    {
     "kind":"vcall_offset",
     "component_value":-120
    },
    {
     "kind":"offset_to_top",
     "component_value":-120
    },
    {
     "kind":"rtti",
     "mangled_component_name":"_ZTIN7android8hardware5audio6effect4V4_017BsBassBoostEffectE"
    },
    {
     "kind":"complete_dtor_pointer",
     "mangled_component_name":"_ZTv0_n24_N7android8hardware5audio6effect4V4_017BsBassBoostEffectD1Ev"
    },
    {
     "kind":"deleting_dtor_pointer",
     "mangled_component_name":"_ZTv0_n24_N7android8hardware5audio6effect4V4_017BsBassBoostEffectD0Ev"
    },
    {
     "mangled_component_name":"_ZN7android7RefBase10onFirstRefEv"
    },
    {
     "mangled_component_name":"_ZN7android7RefBase15onLastStrongRefEPKv"
    },
    {
     "mangled_component_name":"_ZN7android7RefBase20onIncStrongAttemptedEjPKv"
    },
    {
     "mangled_component_name":"_ZN7android7RefBase13onLastWeakRefEPKv"
    }
   ],
   "unique_id":"_ZTSN7android8hardware5audio6effect4V4_017BsBassBoostEffectE"
  },
  {
   "vtable_components":[
    {
     "kind":"vbase_offset",
     "component_value":200
    },
    {
     "kind":"offset_to_top"
    },
    {
     "kind":"rtti",
     "mangled_component_name":"_ZTIN7android8hardware5audio6effect4V4_019BpHwBassBoostEffectE"
    },
    {
     "mangled_component_name":"_ZNK7android8hardware5audio6effect4V4_019BpHwBassBoostEffect8isRemoteEv"
    },
    {
     "mangled_component_name":"_ZN7android8hardware5audio6effect4V4_019BpHwBassBoostEffect14interfaceChainENSt3__18functionIFvRKNS0_8hidl_vecINS0_11hidl_stringEEEEEE"
    },
    {
     "mangled_component_name":"_ZN7android8hardware5audio6effect4V4_019BpHwBassBoostEffect5debugERKNS0_11hidl_handleERKNS0_8hidl_vecINS0_11hidl_stringEEE"
    },
    {
     "mangled_component_name":"_ZN7android8hardware5audio6effect4V4_019BpHwBassBoostEffect19interfaceDescriptorENSt3__18functionIFvRKNS0_11hidl_stringEEEE"
    },
    {
     "mangled_component_name":"_ZN7android8hardware5audio6effect4V4_019BpHwBassBoostEffect12getHashChainENSt3__18functionIFvRKNS0_8hidl_vecINS0_10hidl_arrayIhLm32EJEEEEEEEE"
    },
    {
     "mangled_component_name":"_ZN7android8hardware5audio6effect4V4_019BpHwBassBoostEffect21setHALInstrumentationEv"
    },
    {
     "mangled_component_name":"_ZN7android8hardware5audio6effect4V4_019BpHwBassBoostEffect11linkToDeathERKNS_2spINS0_20hidl_death_recipientEEEm"
    },
    {
     "mangled_component_name":"_ZN7android8hardware5audio6effect4V4_019BpHwBassBoostEffect4pingEv"
    },
    {
     "mangled_component_name":"_ZN7android8hardware5audio6effect4V4_019BpHwBassBoostEffect12getDebugInfoENSt3__18functionIFvRKNS_4hidl4base4V1_09DebugInfoEEEE"
    },
    {
     "mangled_component_name":"_ZN7android8hardware5audio6effect4V4_019BpHwBassBoostEffect21notifySyspropsChangedEv"
    },
    {
     "mangled_component_name":"_ZN7android8hardware5audio6effect4V4_019BpHwBassBoostEffect13unlinkToDeathERKNS_2spINS0_20hidl_death_recipientEEE"
    },
    {
     "kind":"complete_dtor_pointer",
     "mangled_component_name":"_ZN7android8hardware5audio6effect4V4_019BpHwBassBoostEffectD1Ev"
    },
    {
     "kind":"deleting_dtor_pointer",
     "mangled_component_name":"_ZN7android8hardware5audio6effect4V4_019BpHwBassBoostEffectD0Ev"
    },
    {
     "mangled_component_name":"_ZN7android8hardware5audio6effect4V4_019BpHwBassBoostEffect4initEv"
    },
    {
     "mangled_component_name":"_ZN7android8hardware5audio6effect4V4_019BpHwBassBoostEffect9setConfigERKNS3_12EffectConfigERKNS_2spINS3_29IEffectBufferProviderCallbackEEESC_"
    },
    {
     "mangled_component_name":"_ZN7android8hardware5audio6effect4V4_019BpHwBassBoostEffect5resetEv"
    },
    {
     "mangled_component_name":"_ZN7android8hardware5audio6effect4V4_019BpHwBassBoostEffect6enableEv"
    },
    {
     "mangled_component_name":"_ZN7android8hardware5audio6effect4V4_019BpHwBassBoostEffect7disableEv"
    },
    {
     "mangled_component_name":"_ZN7android8hardware5audio6effect4V4_019BpHwBassBoostEffect9setDeviceEj"
    },
    {
     "mangled_component_name":"_ZN7android8hardware5audio6effect4V4_019BpHwBassBoostEffect15setAndGetVolumeERKNS0_8hidl_vecIjEENSt3__18functionIFvNS3_6ResultES8_EEE"
    },
    {
     "mangled_component_name":"_ZN7android8hardware5audio6effect4V4_019BpHwBassBoostEffect24volumeChangeNotificationERKNS0_8hidl_vecIjEE"
    },
    {
     "mangled_component_name":"_ZN7android8hardware5audio6effect4V4_019BpHwBassBoostEffect12setAudioModeENS1_6common4V4_09AudioModeE"
    },
    {
     "mangled_component_name":"_ZN7android8hardware5audio6effect4V4_019BpHwBassBoostEffect16setConfigReverseERKNS3_12EffectConfigERKNS_2spINS3_29IEffectBufferProviderCallbackEEESC_"
    },
    {
     "mangled_component_name":"_ZN7android8hardware5audio6effect4V4_019BpHwBassBoostEffect14setInputDeviceEj"
    },
    {
     "mangled_component_name":"_ZN7android8hardware5audio6effect4V4_019BpHwBassBoostEffect9getConfigENSt3__18functionIFvNS3_6ResultERKNS3_12EffectConfigEEEE"
    },
    {
     "mangled_component_name":"_ZN7android8hardware5audio6effect4V4_019BpHwBassBoostEffect16getConfigReverseENSt3__18functionIFvNS3_6ResultERKNS3_12EffectConfigEEEE"
    },
    {
     "mangled_component_name":"_ZN7android8hardware5audio6effect4V4_019BpHwBassBoostEffect30getSupportedAuxChannelsConfigsEjNSt3__18functionIFvNS3_6ResultERKNS0_8hidl_vecINS3_23EffectAuxChannelsConfigEEEEEE"
    },
    {
     "mangled_component_name":"_ZN7android8hardware5audio6effect4V4_019BpHwBassBoostEffect20getAuxChannelsConfigENSt3__18functionIFvNS3_6ResultERKNS3_23EffectAuxChannelsConfigEEEE"
    },
    {
     "mangled_component_name":"_ZN7android8hardware5audio6effect4V4_019BpHwBassBoostEffect20setAuxChannelsConfigERKNS3_23EffectAuxChannelsConfigE"
    },
    {
     "mangled_component_name":"_ZN7android8hardware5audio6effect4V4_019BpHwBassBoostEffect14setAudioSourceENS1_6common4V4_011AudioSourceE"
    },
    {
     "mangled_component_name":"_ZN7android8hardware5audio6effect4V4_019BpHwBassBoostEffect7offloadERKNS3_22EffectOffloadParameterE"
    },
    {
     "mangled_component_name":"_ZN7android8hardware5audio6effect4V4_019BpHwBassBoostEffect13getDescriptorENSt3__18functionIFvNS3_6ResultERKNS3_16EffectDescriptorEEEE"
    },
    {
     "mangled_component_name":"_ZN7android8hardware5audio6effect4V4_019BpHwBassBoostEffect20prepareForProcessingENSt3__18functionIFvNS3_6ResultERKNS0_12MQDescriptorIS7_LNS0_8MQFlavorE1EEEEEE"
    },
    {
     "mangled_component_name":"_ZN7android8hardware5audio6effect4V4_019BpHwBassBoostEffect17setProcessBuffersERKNS3_11AudioBufferES7_"
    },
    {
     "mangled_component_name":"_ZN7android8hardware5audio6effect4V4_019BpHwBassBoostEffect7commandEjRKNS0_8hidl_vecIhEEjNSt3__18functionIFviS8_EEE"
    },
    {
     "mangled_component_name":"_ZN7android8hardware5audio6effect4V4_019BpHwBassBoostEffect12setParameterERKNS0_8hidl_vecIhEES8_"
    },
    {
     "mangled_component_name":"_ZN7android8hardware5audio6effect4V4_019BpHwBassBoostEffect12getParameterERKNS0_8hidl_vecIhEEjNSt3__18functionIFvNS3_6ResultES8_EEE"
    },
    {
     "mangled_component_name":"_ZN7android8hardware5audio6effect4V4_019BpHwBassBoostEffect29getSupportedConfigsForFeatureEjjjNSt3__18functionIFvNS3_6ResultEjRKNS0_8hidl_vecIhEEEEE"
    },
    {
     "mangled_component_name":"_ZN7android8hardware5audio6effect4V4_019BpHwBassBoostEffect26getCurrentConfigForFeatureEjjNSt3__18functionIFvNS3_6ResultERKNS0_8hidl_vecIhEEEEE"
    },
    {
     "mangled_component_name":"_ZN7android8hardware5audio6effect4V4_019BpHwBassBoostEffect26setCurrentConfigForFeatureEjRKNS0_8hidl_vecIhEE"
    },
    {
     "mangled_component_name":"_ZN7android8hardware5audio6effect4V4_019BpHwBassBoostEffect5closeEv"
    },
    {
     "mangled_component_name":"_ZN7android8hardware5audio6effect4V4_019BpHwBassBoostEffect19isStrengthSupportedENSt3__18functionIFvNS3_6ResultEbEEE"
    },
    {
     "mangled_component_name":"_ZN7android8hardware5audio6effect4V4_019BpHwBassBoostEffect11setStrengthEt"
    },
    {
     "mangled_component_name":"_ZN7android8hardware5audio6effect4V4_019BpHwBassBoostEffect11getStrengthENSt3__18functionIFvNS3_6ResultEtEEE"
    },
    {
     "mangled_component_name":"_ZN7android8hardware11BpInterfaceINS0_5audio6effect4V4_016IBassBoostEffectEE10onAsBinderEv"
    },
    {
     "kind":"vbase_offset",
     "component_value":192
    },
    {
     "kind":"offset_to_top",
     "component_value":-8
    },
    {
     "kind":"rtti",
     "mangled_component_name":"_ZTIN7android8hardware5audio6effect4V4_019BpHwBassBoostEffectE"
    },
    {
     "kind":"complete_dtor_pointer",
     "mangled_component_name":"_ZThn8_N7android8hardware5audio6effect4V4_019BpHwBassBoostEffectD1Ev"
    },
    {
     "kind":"deleting_dtor_pointer",
     "mangled_component_name":"_ZThn8_N7android8hardware5audio6effect4V4_019BpHwBassBoostEffectD0Ev"
    },
    {
     "mangled_component_name":"_ZThn8_N7android8hardware11BpInterfaceINS0_5audio6effect4V4_016IBassBoostEffectEE10onAsBinderEv"
    },
    {
     "kind":"vbase_offset",
     "component_value":184
    },
    {
     "kind":"offset_to_top",
     "component_value":-16
    },
    {
     "kind":"rtti",
     "mangled_component_name":"_ZTIN7android8hardware5audio6effect4V4_019BpHwBassBoostEffectE"
    },
    {
     "kind":"complete_dtor_pointer",
     "mangled_component_name":"_ZThn16_N7android8hardware5audio6effect4V4_019BpHwBassBoostEffectD1Ev"
    },
    {
     "kind":"deleting_dtor_pointer",
     "mangled_component_name":"_ZThn16_N7android8hardware5audio6effect4V4_019BpHwBassBoostEffectD0Ev"
    },
    {
     "mangled_component_name":"_ZN7android8hardware11BpHwRefBase10onFirstRefEv"
    },
    {
     "mangled_component_name":"_ZN7android8hardware11BpHwRefBase15onLastStrongRefEPKv"
    },
    {
     "mangled_component_name":"_ZN7android8hardware11BpHwRefBase20onIncStrongAttemptedEjPKv"
    },
    {
     "kind":"offset_to_top",
     "component_value":-48
    },
    {
     "kind":"rtti",
     "mangled_component_name":"_ZTIN7android8hardware5audio6effect4V4_019BpHwBassBoostEffectE"
    },
    {
     "kind":"complete_dtor_pointer",
     "mangled_component_name":"_ZThn48_N7android8hardware5audio6effect4V4_019BpHwBassBoostEffectD1Ev"
    },
    {
     "kind":"deleting_dtor_pointer",
     "mangled_component_name":"_ZThn48_N7android8hardware5audio6effect4V4_019BpHwBassBoostEffectD0Ev"
    },
    {
     "kind":"vcall_offset"
    },
    {
     "kind":"vcall_offset",
     "component_value":-184
    },
    {
     "kind":"vcall_offset",
     "component_value":-184
    },
    {
     "kind":"vcall_offset",
     "component_value":-184
    },
    {
     "kind":"vcall_offset",
     "component_value":-200
    },
    {
     "kind":"offset_to_top",
     "component_value":-200
    },
    {
     "kind":"rtti",
     "mangled_component_name":"_ZTIN7android8hardware5audio6effect4V4_019BpHwBassBoostEffectE"
    },
    {
     "kind":"complete_dtor_pointer",
     "mangled_component_name":"_ZTv0_n24_N7android8hardware5audio6effect4V4_019BpHwBassBoostEffectD1Ev"
    },
    {
     "kind":"deleting_dtor_pointer",
     "mangled_component_name":"_ZTv0_n24_N7android8hardware5audio6effect4V4_019BpHwBassBoostEffectD0Ev"
    },
    {
     "mangled_component_name":"_ZTv0_n32_N7android8hardware11BpHwRefBase10onFirstRefEv"
    },
    {
     "mangled_component_name":"_ZTv0_n40_N7android8hardware11BpHwRefBase15onLastStrongRefEPKv"
    },
    {
     "mangled_component_name":"_ZTv0_n48_N7android8hardware11BpHwRefBase20onIncStrongAttemptedEjPKv"
    },
    {
     "mangled_component_name":"_ZN7android7RefBase13onLastWeakRefEPKv"
    }
   ],
   "unique_id":"_ZTSN7android8hardware5audio6effect4V4_019BpHwBassBoostEffectE"
  },
  {
   "vtable_components":[
    {
     "kind":"vbase_offset",
     "component_value":8
    },
    {
     "kind":"offset_to_top"
    },
    {
     "kind":"rtti",
     "mangled_component_name":"_ZTIN7android8hardware5audio6effect4V4_014IDownmixEffectE"
    },
    {
     "mangled_component_name":"_ZNK7android8hardware5audio6effect4V4_014IDownmixEffect8isRemoteEv"
    },
    {
     "mangled_component_name":"_ZN7android8hardware5audio6effect4V4_014IDownmixEffect14interfaceChainENSt3__18functionIFvRKNS0_8hidl_vecINS0_11hidl_stringEEEEEE"
    },
    {
     "mangled_component_name":"_ZN7android8hardware5audio6effect4V4_014IDownmixEffect5debugERKNS0_11hidl_handleERKNS0_8hidl_vecINS0_11hidl_stringEEE"
    },
    {
     "mangled_component_name":"_ZN7android8hardware5audio6effect4V4_014IDownmixEffect19interfaceDescriptorENSt3__18functionIFvRKNS0_11hidl_stringEEEE"
    },
    {
     "mangled_component_name":"_ZN7android8hardware5audio6effect4V4_014IDownmixEffect12getHashChainENSt3__18functionIFvRKNS0_8hidl_vecINS0_10hidl_arrayIhLm32EJEEEEEEEE"
    },
    {
     "mangled_component_name":"_ZN7android8hardware5audio6effect4V4_014IDownmixEffect21setHALInstrumentationEv"
    },
    {
     "mangled_component_name":"_ZN7android8hardware5audio6effect4V4_014IDownmixEffect11linkToDeathERKNS_2spINS0_20hidl_death_recipientEEEm"
    },
    {
     "mangled_component_name":"_ZN7android8hardware5audio6effect4V4_014IDownmixEffect4pingEv"
    },
    {
     "mangled_component_name":"_ZN7android8hardware5audio6effect4V4_014IDownmixEffect12getDebugInfoENSt3__18functionIFvRKNS_4hidl4base4V1_09DebugInfoEEEE"
    },
    {
     "mangled_component_name":"_ZN7android8hardware5audio6effect4V4_014IDownmixEffect21notifySyspropsChangedEv"
    },
    {
     "mangled_component_name":"_ZN7android8hardware5audio6effect4V4_014IDownmixEffect13unlinkToDeathERKNS_2spINS0_20hidl_death_recipientEEE"
    },
    {
     "kind":"complete_dtor_pointer",
     "mangled_component_name":"_ZN7android8hardware5audio6effect4V4_014IDownmixEffectD1Ev"
    },
    {
     "kind":"deleting_dtor_pointer",
     "mangled_component_name":"_ZN7android8hardware5audio6effect4V4_014IDownmixEffectD0Ev"
    },
    {
     "is_pure":true,
     "mangled_component_name":"_ZN7android8hardware5audio6effect4V4_014IDownmixEffect4initEv"
    },
    {
     "is_pure":true,
     "mangled_component_name":"_ZN7android8hardware5audio6effect4V4_014IDownmixEffect9setConfigERKNS3_12EffectConfigERKNS_2spINS3_29IEffectBufferProviderCallbackEEESC_"
    },
    {
     "is_pure":true,
     "mangled_component_name":"_ZN7android8hardware5audio6effect4V4_014IDownmixEffect5resetEv"
    },
    {
     "is_pure":true,
     "mangled_component_name":"_ZN7android8hardware5audio6effect4V4_014IDownmixEffect6enableEv"
    },
    {
     "is_pure":true,
     "mangled_component_name":"_ZN7android8hardware5audio6effect4V4_014IDownmixEffect7disableEv"
    },
    {
     "is_pure":true,
     "mangled_component_name":"_ZN7android8hardware5audio6effect4V4_014IDownmixEffect9setDeviceEj"
    },
    {
     "is_pure":true,
     "mangled_component_name":"_ZN7android8hardware5audio6effect4V4_014IDownmixEffect15setAndGetVolumeERKNS0_8hidl_vecIjEENSt3__18functionIFvNS3_6ResultES8_EEE"
    },
    {
     "is_pure":true,
     "mangled_component_name":"_ZN7android8hardware5audio6effect4V4_014IDownmixEffect24volumeChangeNotificationERKNS0_8hidl_vecIjEE"
    },
    {
     "is_pure":true,
     "mangled_component_name":"_ZN7android8hardware5audio6effect4V4_014IDownmixEffect12setAudioModeENS1_6common4V4_09AudioModeE"
    },
    {
     "is_pure":true,
     "mangled_component_name":"_ZN7android8hardware5audio6effect4V4_014IDownmixEffect16setConfigReverseERKNS3_12EffectConfigERKNS_2spINS3_29IEffectBufferProviderCallbackEEESC_"
    },
    {
     "is_pure":true,
     "mangled_component_name":"_ZN7android8hardware5audio6effect4V4_014IDownmixEffect14setInputDeviceEj"
    },
    {
     "is_pure":true,
     "mangled_component_name":"_ZN7android8hardware5audio6effect4V4_014IDownmixEffect9getConfigENSt3__18functionIFvNS3_6ResultERKNS3_12EffectConfigEEEE"
    },
    {
     "is_pure":true,
     "mangled_component_name":"_ZN7android8hardware5audio6effect4V4_014IDownmixEffect16getConfigReverseENSt3__18functionIFvNS3_6ResultERKNS3_12EffectConfigEEEE"
    },
    {
     "is_pure":true,
     "mangled_component_name":"_ZN7android8hardware5audio6effect4V4_014IDownmixEffect30getSupportedAuxChannelsConfigsEjNSt3__18functionIFvNS3_6ResultERKNS0_8hidl_vecINS3_23EffectAuxChannelsConfigEEEEEE"
    },
    {
     "is_pure":true,
     "mangled_component_name":"_ZN7android8hardware5audio6effect4V4_014IDownmixEffect20getAuxChannelsConfigENSt3__18functionIFvNS3_6ResultERKNS3_23EffectAuxChannelsConfigEEEE"
    },
    {
     "is_pure":true,
     "mangled_component_name":"_ZN7android8hardware5audio6effect4V4_014IDownmixEffect20setAuxChannelsConfigERKNS3_23EffectAuxChannelsConfigE"
    },
    {
     "is_pure":true,
     "mangled_component_name":"_ZN7android8hardware5audio6effect4V4_014IDownmixEffect14setAudioSourceENS1_6common4V4_011AudioSourceE"
    },
    {
     "is_pure":true,
     "mangled_component_name":"_ZN7android8hardware5audio6effect4V4_014IDownmixEffect7offloadERKNS3_22EffectOffloadParameterE"
    },
    {
     "is_pure":true,
     "mangled_component_name":"_ZN7android8hardware5audio6effect4V4_014IDownmixEffect13getDescriptorENSt3__18functionIFvNS3_6ResultERKNS3_16EffectDescriptorEEEE"
    },
    {
     "is_pure":true,
     "mangled_component_name":"_ZN7android8hardware5audio6effect4V4_014IDownmixEffect20prepareForProcessingENSt3__18functionIFvNS3_6ResultERKNS0_12MQDescriptorIS7_LNS0_8MQFlavorE1EEEEEE"
    },
    {
     "is_pure":true,
     "mangled_component_name":"_ZN7android8hardware5audio6effect4V4_014IDownmixEffect17setProcessBuffersERKNS3_11AudioBufferES7_"
    },
    {
     "is_pure":true,
     "mangled_component_name":"_ZN7android8hardware5audio6effect4V4_014IDownmixEffect7commandEjRKNS0_8hidl_vecIhEEjNSt3__18functionIFviS8_EEE"
    },
    {
     "is_pure":true,
     "mangled_component_name":"_ZN7android8hardware5audio6effect4V4_014IDownmixEffect12setParameterERKNS0_8hidl_vecIhEES8_"
    },
    {
     "is_pure":true,
     "mangled_component_name":"_ZN7android8hardware5audio6effect4V4_014IDownmixEffect12getParameterERKNS0_8hidl_vecIhEEjNSt3__18functionIFvNS3_6ResultES8_EEE"
    },
    {
     "is_pure":true,
     "mangled_component_name":"_ZN7android8hardware5audio6effect4V4_014IDownmixEffect29getSupportedConfigsForFeatureEjjjNSt3__18functionIFvNS3_6ResultEjRKNS0_8hidl_vecIhEEEEE"
    },
    {
     "is_pure":true,
     "mangled_component_name":"_ZN7android8hardware5audio6effect4V4_014IDownmixEffect26getCurrentConfigForFeatureEjjNSt3__18functionIFvNS3_6ResultERKNS0_8hidl_vecIhEEEEE"
    },
    {
     "is_pure":true,
     "mangled_component_name":"_ZN7android8hardware5audio6effect4V4_014IDownmixEffect26setCurrentConfigForFeatureEjRKNS0_8hidl_vecIhEE"
    },
    {
     "is_pure":true,
     "mangled_component_name":"_ZN7android8hardware5audio6effect4V4_014IDownmixEffect5closeEv"
    },
    {
     "is_pure":true,
     "mangled_component_name":"_ZN7android8hardware5audio6effect4V4_014IDownmixEffect7setTypeENS4_4TypeE"
    },
    {
     "is_pure":true,
     "mangled_component_name":"_ZN7android8hardware5audio6effect4V4_014IDownmixEffect7getTypeENSt3__18functionIFvNS3_6ResultENS4_4TypeEEEE"
    },
    {
     "kind":"vcall_offset"
    },
    {
     "kind":"vcall_offset"
    },
    {
     "kind":"vcall_offset"
    },
    {
     "kind":"vcall_offset"
    },
    {
     "kind":"vcall_offset",
     "component_value":-8
    },
    {
     "kind":"offset_to_top",
     "component_value":-8
    },
    {
     "kind":"rtti",
     "mangled_component_name":"_ZTIN7android8hardware5audio6effect4V4_014IDownmixEffectE"
    },
    {
     "kind":"complete_dtor_pointer",
     "mangled_component_name":"_ZTv0_n24_N7android8hardware5audio6effect4V4_014IDownmixEffectD1Ev"
    },
    {
     "kind":"deleting_dtor_pointer",
     "mangled_component_name":"_ZTv0_n24_N7android8hardware5audio6effect4V4_014IDownmixEffectD0Ev"
    },
    {
     "mangled_component_name":"_ZN7android7RefBase10onFirstRefEv"
    },
    {
     "mangled_component_name":"_ZN7android7RefBase15onLastStrongRefEPKv"
    },
    {
     "mangled_component_name":"_ZN7android7RefBase20onIncStrongAttemptedEjPKv"
    },
    {
     "mangled_component_name":"_ZN7android7RefBase13onLastWeakRefEPKv"
    }
   ],
   "unique_id":"_ZTSN7android8hardware5audio6effect4V4_014IDownmixEffectE"
  },
  {
   "vtable_components":[
    {
     "kind":"vbase_offset",
     "component_value":8
    },
    {
     "kind":"offset_to_top"
    },
    {
     "kind":"rtti",
     "mangled_component_name":"_ZTIN7android8hardware5audio6effect4V4_027IAutomaticGainControlEffectE"
    },
    {
     "mangled_component_name":"_ZNK7android8hardware5audio6effect4V4_027IAutomaticGainControlEffect8isRemoteEv"
    },
    {
     "mangled_component_name":"_ZN7android8hardware5audio6effect4V4_027IAutomaticGainControlEffect14interfaceChainENSt3__18functionIFvRKNS0_8hidl_vecINS0_11hidl_stringEEEEEE"
    },
    {
     "mangled_component_name":"_ZN7android8hardware5audio6effect4V4_027IAutomaticGainControlEffect5debugERKNS0_11hidl_handleERKNS0_8hidl_vecINS0_11hidl_stringEEE"
    },
    {
     "mangled_component_name":"_ZN7android8hardware5audio6effect4V4_027IAutomaticGainControlEffect19interfaceDescriptorENSt3__18functionIFvRKNS0_11hidl_stringEEEE"
    },
    {
     "mangled_component_name":"_ZN7android8hardware5audio6effect4V4_027IAutomaticGainControlEffect12getHashChainENSt3__18functionIFvRKNS0_8hidl_vecINS0_10hidl_arrayIhLm32EJEEEEEEEE"
    },
    {
     "mangled_component_name":"_ZN7android8hardware5audio6effect4V4_027IAutomaticGainControlEffect21setHALInstrumentationEv"
    },
    {
     "mangled_component_name":"_ZN7android8hardware5audio6effect4V4_027IAutomaticGainControlEffect11linkToDeathERKNS_2spINS0_20hidl_death_recipientEEEm"
    },
    {
     "mangled_component_name":"_ZN7android8hardware5audio6effect4V4_027IAutomaticGainControlEffect4pingEv"
    },
    {
     "mangled_component_name":"_ZN7android8hardware5audio6effect4V4_027IAutomaticGainControlEffect12getDebugInfoENSt3__18functionIFvRKNS_4hidl4base4V1_09DebugInfoEEEE"
    },
    {
     "mangled_component_name":"_ZN7android8hardware5audio6effect4V4_027IAutomaticGainControlEffect21notifySyspropsChangedEv"
    },
    {
     "mangled_component_name":"_ZN7android8hardware5audio6effect4V4_027IAutomaticGainControlEffect13unlinkToDeathERKNS_2spINS0_20hidl_death_recipientEEE"
    },
    {
     "kind":"complete_dtor_pointer",
     "mangled_component_name":"_ZN7android8hardware5audio6effect4V4_027IAutomaticGainControlEffectD1Ev"
    },
    {
     "kind":"deleting_dtor_pointer",
     "mangled_component_name":"_ZN7android8hardware5audio6effect4V4_027IAutomaticGainControlEffectD0Ev"
    },
    {
     "is_pure":true,
     "mangled_component_name":"_ZN7android8hardware5audio6effect4V4_027IAutomaticGainControlEffect4initEv"
    },
    {
     "is_pure":true,
     "mangled_component_name":"_ZN7android8hardware5audio6effect4V4_027IAutomaticGainControlEffect9setConfigERKNS3_12EffectConfigERKNS_2spINS3_29IEffectBufferProviderCallbackEEESC_"
    },
    {
     "is_pure":true,
     "mangled_component_name":"_ZN7android8hardware5audio6effect4V4_027IAutomaticGainControlEffect5resetEv"
    },
    {
     "is_pure":true,
     "mangled_component_name":"_ZN7android8hardware5audio6effect4V4_027IAutomaticGainControlEffect6enableEv"
    },
    {
     "is_pure":true,
     "mangled_component_name":"_ZN7android8hardware5audio6effect4V4_027IAutomaticGainControlEffect7disableEv"
    },
    {
     "is_pure":true,
     "mangled_component_name":"_ZN7android8hardware5audio6effect4V4_027IAutomaticGainControlEffect9setDeviceEj"
    },
    {
     "is_pure":true,
     "mangled_component_name":"_ZN7android8hardware5audio6effect4V4_027IAutomaticGainControlEffect15setAndGetVolumeERKNS0_8hidl_vecIjEENSt3__18functionIFvNS3_6ResultES8_EEE"
    },
    {
     "is_pure":true,
     "mangled_component_name":"_ZN7android8hardware5audio6effect4V4_027IAutomaticGainControlEffect24volumeChangeNotificationERKNS0_8hidl_vecIjEE"
    },
    {
     "is_pure":true,
     "mangled_component_name":"_ZN7android8hardware5audio6effect4V4_027IAutomaticGainControlEffect12setAudioModeENS1_6common4V4_09AudioModeE"
    },
    {
     "is_pure":true,
     "mangled_component_name":"_ZN7android8hardware5audio6effect4V4_027IAutomaticGainControlEffect16setConfigReverseERKNS3_12EffectConfigERKNS_2spINS3_29IEffectBufferProviderCallbackEEESC_"
    },
    {
     "is_pure":true,
     "mangled_component_name":"_ZN7android8hardware5audio6effect4V4_027IAutomaticGainControlEffect14setInputDeviceEj"
    },
    {
     "is_pure":true,
     "mangled_component_name":"_ZN7android8hardware5audio6effect4V4_027IAutomaticGainControlEffect9getConfigENSt3__18functionIFvNS3_6ResultERKNS3_12EffectConfigEEEE"
    },
    {
     "is_pure":true,
     "mangled_component_name":"_ZN7android8hardware5audio6effect4V4_027IAutomaticGainControlEffect16getConfigReverseENSt3__18functionIFvNS3_6ResultERKNS3_12EffectConfigEEEE"
    },
    {
     "is_pure":true,
     "mangled_component_name":"_ZN7android8hardware5audio6effect4V4_027IAutomaticGainControlEffect30getSupportedAuxChannelsConfigsEjNSt3__18functionIFvNS3_6ResultERKNS0_8hidl_vecINS3_23EffectAuxChannelsConfigEEEEEE"
    },
    {
     "is_pure":true,
     "mangled_component_name":"_ZN7android8hardware5audio6effect4V4_027IAutomaticGainControlEffect20getAuxChannelsConfigENSt3__18functionIFvNS3_6ResultERKNS3_23EffectAuxChannelsConfigEEEE"
    },
    {
     "is_pure":true,
     "mangled_component_name":"_ZN7android8hardware5audio6effect4V4_027IAutomaticGainControlEffect20setAuxChannelsConfigERKNS3_23EffectAuxChannelsConfigE"
    },
    {
     "is_pure":true,
     "mangled_component_name":"_ZN7android8hardware5audio6effect4V4_027IAutomaticGainControlEffect14setAudioSourceENS1_6common4V4_011AudioSourceE"
    },
    {
     "is_pure":true,
     "mangled_component_name":"_ZN7android8hardware5audio6effect4V4_027IAutomaticGainControlEffect7offloadERKNS3_22EffectOffloadParameterE"
    },
    {
     "is_pure":true,
     "mangled_component_name":"_ZN7android8hardware5audio6effect4V4_027IAutomaticGainControlEffect13getDescriptorENSt3__18functionIFvNS3_6ResultERKNS3_16EffectDescriptorEEEE"
    },
    {
     "is_pure":true,
     "mangled_component_name":"_ZN7android8hardware5audio6effect4V4_027IAutomaticGainControlEffect20prepareForProcessingENSt3__18functionIFvNS3_6ResultERKNS0_12MQDescriptorIS7_LNS0_8MQFlavorE1EEEEEE"
    },
    {
     "is_pure":true,
     "mangled_component_name":"_ZN7android8hardware5audio6effect4V4_027IAutomaticGainControlEffect17setProcessBuffersERKNS3_11AudioBufferES7_"
    },
    {
     "is_pure":true,
     "mangled_component_name":"_ZN7android8hardware5audio6effect4V4_027IAutomaticGainControlEffect7commandEjRKNS0_8hidl_vecIhEEjNSt3__18functionIFviS8_EEE"
    },
    {
     "is_pure":true,
     "mangled_component_name":"_ZN7android8hardware5audio6effect4V4_027IAutomaticGainControlEffect12setParameterERKNS0_8hidl_vecIhEES8_"
    },
    {
     "is_pure":true,
     "mangled_component_name":"_ZN7android8hardware5audio6effect4V4_027IAutomaticGainControlEffect12getParameterERKNS0_8hidl_vecIhEEjNSt3__18functionIFvNS3_6ResultES8_EEE"
    },
    {
     "is_pure":true,
     "mangled_component_name":"_ZN7android8hardware5audio6effect4V4_027IAutomaticGainControlEffect29getSupportedConfigsForFeatureEjjjNSt3__18functionIFvNS3_6ResultEjRKNS0_8hidl_vecIhEEEEE"
    },
    {
     "is_pure":true,
     "mangled_component_name":"_ZN7android8hardware5audio6effect4V4_027IAutomaticGainControlEffect26getCurrentConfigForFeatureEjjNSt3__18functionIFvNS3_6ResultERKNS0_8hidl_vecIhEEEEE"
    },
    {
     "is_pure":true,
     "mangled_component_name":"_ZN7android8hardware5audio6effect4V4_027IAutomaticGainControlEffect26setCurrentConfigForFeatureEjRKNS0_8hidl_vecIhEE"
    },
    {
     "is_pure":true,
     "mangled_component_name":"_ZN7android8hardware5audio6effect4V4_027IAutomaticGainControlEffect5closeEv"
    },
    {
     "is_pure":true,
     "mangled_component_name":"_ZN7android8hardware5audio6effect4V4_027IAutomaticGainControlEffect14setTargetLevelEs"
    },
    {
     "is_pure":true,
     "mangled_component_name":"_ZN7android8hardware5audio6effect4V4_027IAutomaticGainControlEffect14getTargetLevelENSt3__18functionIFvNS3_6ResultEsEEE"
    },
    {
     "is_pure":true,
     "mangled_component_name":"_ZN7android8hardware5audio6effect4V4_027IAutomaticGainControlEffect11setCompGainEs"
    },
    {
     "is_pure":true,
     "mangled_component_name":"_ZN7android8hardware5audio6effect4V4_027IAutomaticGainControlEffect11getCompGainENSt3__18functionIFvNS3_6ResultEsEEE"
    },
    {
     "is_pure":true,
     "mangled_component_name":"_ZN7android8hardware5audio6effect4V4_027IAutomaticGainControlEffect17setLimiterEnabledEb"
    },
    {
     "is_pure":true,
     "mangled_component_name":"_ZN7android8hardware5audio6effect4V4_027IAutomaticGainControlEffect16isLimiterEnabledENSt3__18functionIFvNS3_6ResultEbEEE"
    },
    {
     "is_pure":true,
     "mangled_component_name":"_ZN7android8hardware5audio6effect4V4_027IAutomaticGainControlEffect16setAllPropertiesERKNS4_13AllPropertiesE"
    },
    {
     "is_pure":true,
     "mangled_component_name":"_ZN7android8hardware5audio6effect4V4_027IAutomaticGainControlEffect16getAllPropertiesENSt3__18functionIFvNS3_6ResultERKNS4_13AllPropertiesEEEE"
    },
    {
     "kind":"vcall_offset"
    },
    {
     "kind":"vcall_offset"
    },
    {
     "kind":"vcall_offset"
    },
    {
     "kind":"vcall_offset"
    },
    {
     "kind":"vcall_offset",
     "component_value":-8
    },
    {
     "kind":"offset_to_top",
     "component_value":-8
    },
    {
     "kind":"rtti",
     "mangled_component_name":"_ZTIN7android8hardware5audio6effect4V4_027IAutomaticGainControlEffectE"
    },
    {
     "kind":"complete_dtor_pointer",
     "mangled_component_name":"_ZTv0_n24_N7android8hardware5audio6effect4V4_027IAutomaticGainControlEffectD1Ev"
    },
    {
     "kind":"deleting_dtor_pointer",
     "mangled_component_name":"_ZTv0_n24_N7android8hardware5audio6effect4V4_027IAutomaticGainControlEffectD0Ev"
    },
    {
     "mangled_component_name":"_ZN7android7RefBase10onFirstRefEv"
    },
    {
     "mangled_component_name":"_ZN7android7RefBase15onLastStrongRefEPKv"
    },
    {
     "mangled_component_name":"_ZN7android7RefBase20onIncStrongAttemptedEjPKv"
    },
    {
     "mangled_component_name":"_ZN7android7RefBase13onLastWeakRefEPKv"
    }
   ],
   "unique_id":"_ZTSN7android8hardware5audio6effect4V4_027IAutomaticGainControlEffectE"
  },
  {
   "vtable_components":[
    {
     "kind":"vbase_offset",
     "component_value":136
    },
    {
     "kind":"offset_to_top"
    },
    {
     "kind":"rtti",
     "mangled_component_name":"_ZTIN7android8hardware5audio6effect4V4_017BnHwDownmixEffectE"
    },
    {
     "mangled_component_name":"_ZN7android8hardware9BHwBinder8transactEjRKNS0_6ParcelEPS2_jNSt3__18functionIFvRS2_EEE"
    },
    {
     "mangled_component_name":"_ZN7android8hardware9BHwBinder11linkToDeathERKNS_2spINS0_7IBinder14DeathRecipientEEEPvj"
    },
    {
     "mangled_component_name":"_ZN7android8hardware9BHwBinder13unlinkToDeathERKNS_2wpINS0_7IBinder14DeathRecipientEEEPvjPS5_"
    },
    {
     "mangled_component_name":"_ZNK7android8hardware7IBinder13checkSubclassEPKv"
    },
    {
     "mangled_component_name":"_ZN7android8hardware9BHwBinder12attachObjectEPKvPvS4_PFvS3_S4_S4_E"
    },
    {
     "mangled_component_name":"_ZNK7android8hardware9BHwBinder10findObjectEPKv"
    },
    {
     "mangled_component_name":"_ZN7android8hardware9BHwBinder12detachObjectEPKv"
    },
    {
     "mangled_component_name":"_ZN7android8hardware9BHwBinder11localBinderEv"
    },
    {
     "mangled_component_name":"_ZN7android8hardware7IBinder12remoteBinderEv"
    },
    {
     "kind":"complete_dtor_pointer",
     "mangled_component_name":"_ZN7android8hardware5audio6effect4V4_017BnHwDownmixEffectD1Ev"
    },
    {
     "kind":"deleting_dtor_pointer",
     "mangled_component_name":"_ZN7android8hardware5audio6effect4V4_017BnHwDownmixEffectD0Ev"
    },
    {
     "mangled_component_name":"_ZN7android8hardware5audio6effect4V4_017BnHwDownmixEffect10onTransactEjRKNS0_6ParcelEPS5_jNSt3__18functionIFvRS5_EEE"
    },
    {
     "kind":"offset_to_top",
     "component_value":-32
    },
    {
     "kind":"rtti",
     "mangled_component_name":"_ZTIN7android8hardware5audio6effect4V4_017BnHwDownmixEffectE"
    },
    {
     "kind":"complete_dtor_pointer",
     "mangled_component_name":"_ZThn32_N7android8hardware5audio6effect4V4_017BnHwDownmixEffectD1Ev"
    },
    {
     "kind":"deleting_dtor_pointer",
     "mangled_component_name":"_ZThn32_N7android8hardware5audio6effect4V4_017BnHwDownmixEffectD0Ev"
    },
    {
     "kind":"vcall_offset"
    },
    {
     "kind":"vcall_offset"
    },
    {
     "kind":"vcall_offset"
    },
    {
     "kind":"vcall_offset"
    },
    {
     "kind":"vcall_offset",
     "component_value":-136
    },
    {
     "kind":"offset_to_top",
     "component_value":-136
    },
    {
     "kind":"rtti",
     "mangled_component_name":"_ZTIN7android8hardware5audio6effect4V4_017BnHwDownmixEffectE"
    },
    {
     "kind":"complete_dtor_pointer",
     "mangled_component_name":"_ZTv0_n24_N7android8hardware5audio6effect4V4_017BnHwDownmixEffectD1Ev"
    },
    {
     "kind":"deleting_dtor_pointer",
     "mangled_component_name":"_ZTv0_n24_N7android8hardware5audio6effect4V4_017BnHwDownmixEffectD0Ev"
    },
    {
     "mangled_component_name":"_ZN7android7RefBase10onFirstRefEv"
    },
    {
     "mangled_component_name":"_ZN7android7RefBase15onLastStrongRefEPKv"
    },
    {
     "mangled_component_name":"_ZN7android7RefBase20onIncStrongAttemptedEjPKv"
    },
    {
     "mangled_component_name":"_ZN7android7RefBase13onLastWeakRefEPKv"
    }
   ],
   "unique_id":"_ZTSN7android8hardware5audio6effect4V4_017BnHwDownmixEffectE"
  },
  {
   "vtable_components":[
    {
     "kind":"vbase_offset",
     "component_value":120
    },
    {
     "kind":"offset_to_top"
    },
    {
     "kind":"rtti",
     "mangled_component_name":"_ZTIN7android8hardware5audio6effect4V4_015BsDownmixEffectE"
    },
    {
     "mangled_component_name":"_ZNK7android8hardware5audio6effect4V4_014IDownmixEffect8isRemoteEv"
    },
    {
     "mangled_component_name":"_ZN7android8hardware5audio6effect4V4_015BsDownmixEffect14interfaceChainENSt3__18functionIFvRKNS0_8hidl_vecINS0_11hidl_stringEEEEEE"
    },
    {
     "mangled_component_name":"_ZN7android8hardware5audio6effect4V4_015BsDownmixEffect5debugERKNS0_11hidl_handleERKNS0_8hidl_vecINS0_11hidl_stringEEE"
    },
    {
     "mangled_component_name":"_ZN7android8hardware5audio6effect4V4_015BsDownmixEffect19interfaceDescriptorENSt3__18functionIFvRKNS0_11hidl_stringEEEE"
    },
    {
     "mangled_component_name":"_ZN7android8hardware5audio6effect4V4_015BsDownmixEffect12getHashChainENSt3__18functionIFvRKNS0_8hidl_vecINS0_10hidl_arrayIhLm32EJEEEEEEEE"
    },
    {
     "mangled_component_name":"_ZN7android8hardware5audio6effect4V4_015BsDownmixEffect21setHALInstrumentationEv"
    },
    {
     "mangled_component_name":"_ZN7android8hardware5audio6effect4V4_015BsDownmixEffect11linkToDeathERKNS_2spINS0_20hidl_death_recipientEEEm"
    },
    {
     "mangled_component_name":"_ZN7android8hardware5audio6effect4V4_015BsDownmixEffect4pingEv"
    },
    {
     "mangled_component_name":"_ZN7android8hardware5audio6effect4V4_015BsDownmixEffect12getDebugInfoENSt3__18functionIFvRKNS_4hidl4base4V1_09DebugInfoEEEE"
    },
    {
     "mangled_component_name":"_ZN7android8hardware5audio6effect4V4_015BsDownmixEffect21notifySyspropsChangedEv"
    },
    {
     "mangled_component_name":"_ZN7android8hardware5audio6effect4V4_015BsDownmixEffect13unlinkToDeathERKNS_2spINS0_20hidl_death_recipientEEE"
    },
    {
     "kind":"complete_dtor_pointer",
     "mangled_component_name":"_ZN7android8hardware5audio6effect4V4_015BsDownmixEffectD1Ev"
    },
    {
     "kind":"deleting_dtor_pointer",
     "mangled_component_name":"_ZN7android8hardware5audio6effect4V4_015BsDownmixEffectD0Ev"
    },
    {
     "mangled_component_name":"_ZN7android8hardware5audio6effect4V4_015BsDownmixEffect4initEv"
    },
    {
     "mangled_component_name":"_ZN7android8hardware5audio6effect4V4_015BsDownmixEffect9setConfigERKNS3_12EffectConfigERKNS_2spINS3_29IEffectBufferProviderCallbackEEESC_"
    },
    {
     "mangled_component_name":"_ZN7android8hardware5audio6effect4V4_015BsDownmixEffect5resetEv"
    },
    {
     "mangled_component_name":"_ZN7android8hardware5audio6effect4V4_015BsDownmixEffect6enableEv"
    },
    {
     "mangled_component_name":"_ZN7android8hardware5audio6effect4V4_015BsDownmixEffect7disableEv"
    },
    {
     "mangled_component_name":"_ZN7android8hardware5audio6effect4V4_015BsDownmixEffect9setDeviceEj"
    },
    {
     "mangled_component_name":"_ZN7android8hardware5audio6effect4V4_015BsDownmixEffect15setAndGetVolumeERKNS0_8hidl_vecIjEENSt3__18functionIFvNS3_6ResultES8_EEE"
    },
    {
     "mangled_component_name":"_ZN7android8hardware5audio6effect4V4_015BsDownmixEffect24volumeChangeNotificationERKNS0_8hidl_vecIjEE"
    },
    {
     "mangled_component_name":"_ZN7android8hardware5audio6effect4V4_015BsDownmixEffect12setAudioModeENS1_6common4V4_09AudioModeE"
    },
    {
     "mangled_component_name":"_ZN7android8hardware5audio6effect4V4_015BsDownmixEffect16setConfigReverseERKNS3_12EffectConfigERKNS_2spINS3_29IEffectBufferProviderCallbackEEESC_"
    },
    {
     "mangled_component_name":"_ZN7android8hardware5audio6effect4V4_015BsDownmixEffect14setInputDeviceEj"
    },
    {
     "mangled_component_name":"_ZN7android8hardware5audio6effect4V4_015BsDownmixEffect9getConfigENSt3__18functionIFvNS3_6ResultERKNS3_12EffectConfigEEEE"
    },
    {
     "mangled_component_name":"_ZN7android8hardware5audio6effect4V4_015BsDownmixEffect16getConfigReverseENSt3__18functionIFvNS3_6ResultERKNS3_12EffectConfigEEEE"
    },
    {
     "mangled_component_name":"_ZN7android8hardware5audio6effect4V4_015BsDownmixEffect30getSupportedAuxChannelsConfigsEjNSt3__18functionIFvNS3_6ResultERKNS0_8hidl_vecINS3_23EffectAuxChannelsConfigEEEEEE"
    },
    {
     "mangled_component_name":"_ZN7android8hardware5audio6effect4V4_015BsDownmixEffect20getAuxChannelsConfigENSt3__18functionIFvNS3_6ResultERKNS3_23EffectAuxChannelsConfigEEEE"
    },
    {
     "mangled_component_name":"_ZN7android8hardware5audio6effect4V4_015BsDownmixEffect20setAuxChannelsConfigERKNS3_23EffectAuxChannelsConfigE"
    },
    {
     "mangled_component_name":"_ZN7android8hardware5audio6effect4V4_015BsDownmixEffect14setAudioSourceENS1_6common4V4_011AudioSourceE"
    },
    {
     "mangled_component_name":"_ZN7android8hardware5audio6effect4V4_015BsDownmixEffect7offloadERKNS3_22EffectOffloadParameterE"
    },
    {
     "mangled_component_name":"_ZN7android8hardware5audio6effect4V4_015BsDownmixEffect13getDescriptorENSt3__18functionIFvNS3_6ResultERKNS3_16EffectDescriptorEEEE"
    },
    {
     "mangled_component_name":"_ZN7android8hardware5audio6effect4V4_015BsDownmixEffect20prepareForProcessingENSt3__18functionIFvNS3_6ResultERKNS0_12MQDescriptorIS7_LNS0_8MQFlavorE1EEEEEE"
    },
    {
     "mangled_component_name":"_ZN7android8hardware5audio6effect4V4_015BsDownmixEffect17setProcessBuffersERKNS3_11AudioBufferES7_"
    },
    {
     "mangled_component_name":"_ZN7android8hardware5audio6effect4V4_015BsDownmixEffect7commandEjRKNS0_8hidl_vecIhEEjNSt3__18functionIFviS8_EEE"
    },
    {
     "mangled_component_name":"_ZN7android8hardware5audio6effect4V4_015BsDownmixEffect12setParameterERKNS0_8hidl_vecIhEES8_"
    },
    {
     "mangled_component_name":"_ZN7android8hardware5audio6effect4V4_015BsDownmixEffect12getParameterERKNS0_8hidl_vecIhEEjNSt3__18functionIFvNS3_6ResultES8_EEE"
    },
    {
     "mangled_component_name":"_ZN7android8hardware5audio6effect4V4_015BsDownmixEffect29getSupportedConfigsForFeatureEjjjNSt3__18functionIFvNS3_6ResultEjRKNS0_8hidl_vecIhEEEEE"
    },
    {
     "mangled_component_name":"_ZN7android8hardware5audio6effect4V4_015BsDownmixEffect26getCurrentConfigForFeatureEjjNSt3__18functionIFvNS3_6ResultERKNS0_8hidl_vecIhEEEEE"
    },
    {
     "mangled_component_name":"_ZN7android8hardware5audio6effect4V4_015BsDownmixEffect26setCurrentConfigForFeatureEjRKNS0_8hidl_vecIhEE"
    },
    {
     "mangled_component_name":"_ZN7android8hardware5audio6effect4V4_015BsDownmixEffect5closeEv"
    },
    {
     "mangled_component_name":"_ZN7android8hardware5audio6effect4V4_015BsDownmixEffect7setTypeENS3_14IDownmixEffect4TypeE"
    },
    {
     "mangled_component_name":"_ZN7android8hardware5audio6effect4V4_015BsDownmixEffect7getTypeENSt3__18functionIFvNS3_6ResultENS3_14IDownmixEffect4TypeEEEE"
    },
    {
     "kind":"offset_to_top",
     "component_value":-8
    },
    {
     "kind":"rtti",
     "mangled_component_name":"_ZTIN7android8hardware5audio6effect4V4_015BsDownmixEffectE"
    },
    {
     "kind":"complete_dtor_pointer",
     "mangled_component_name":"_ZThn8_N7android8hardware5audio6effect4V4_015BsDownmixEffectD1Ev"
    },
    {
     "kind":"deleting_dtor_pointer",
     "mangled_component_name":"_ZThn8_N7android8hardware5audio6effect4V4_015BsDownmixEffectD0Ev"
    },
    {
     "kind":"vcall_offset"
    },
    {
     "kind":"vcall_offset"
    },
    {
     "kind":"vcall_offset"
    },
    {
     "kind":"vcall_offset"
    },
    {
     "kind":"vcall_offset",
     "component_value":-120
    },
    {
     "kind":"offset_to_top",
     "component_value":-120
    },
    {
     "kind":"rtti",
     "mangled_component_name":"_ZTIN7android8hardware5audio6effect4V4_015BsDownmixEffectE"
    },
    {
     "kind":"complete_dtor_pointer",
     "mangled_component_name":"_ZTv0_n24_N7android8hardware5audio6effect4V4_015BsDownmixEffectD1Ev"
    },
    {
     "kind":"deleting_dtor_pointer",
     "mangled_component_name":"_ZTv0_n24_N7android8hardware5audio6effect4V4_015BsDownmixEffectD0Ev"
    },
    {
     "mangled_component_name":"_ZN7android7RefBase10onFirstRefEv"
    },
    {
     "mangled_component_name":"_ZN7android7RefBase15onLastStrongRefEPKv"
    },
    {
     "mangled_component_name":"_ZN7android7RefBase20onIncStrongAttemptedEjPKv"
    },
    {
     "mangled_component_name":"_ZN7android7RefBase13onLastWeakRefEPKv"
    }
   ],
   "unique_id":"_ZTSN7android8hardware5audio6effect4V4_015BsDownmixEffectE"
  },
  {
   "vtable_components":[
    {
     "kind":"vbase_offset",
     "component_value":200
    },
    {
     "kind":"offset_to_top"
    },
    {
     "kind":"rtti",
     "mangled_component_name":"_ZTIN7android8hardware5audio6effect4V4_017BpHwDownmixEffectE"
    },
    {
     "mangled_component_name":"_ZNK7android8hardware5audio6effect4V4_017BpHwDownmixEffect8isRemoteEv"
    },
    {
     "mangled_component_name":"_ZN7android8hardware5audio6effect4V4_017BpHwDownmixEffect14interfaceChainENSt3__18functionIFvRKNS0_8hidl_vecINS0_11hidl_stringEEEEEE"
    },
    {
     "mangled_component_name":"_ZN7android8hardware5audio6effect4V4_017BpHwDownmixEffect5debugERKNS0_11hidl_handleERKNS0_8hidl_vecINS0_11hidl_stringEEE"
    },
    {
     "mangled_component_name":"_ZN7android8hardware5audio6effect4V4_017BpHwDownmixEffect19interfaceDescriptorENSt3__18functionIFvRKNS0_11hidl_stringEEEE"
    },
    {
     "mangled_component_name":"_ZN7android8hardware5audio6effect4V4_017BpHwDownmixEffect12getHashChainENSt3__18functionIFvRKNS0_8hidl_vecINS0_10hidl_arrayIhLm32EJEEEEEEEE"
    },
    {
     "mangled_component_name":"_ZN7android8hardware5audio6effect4V4_017BpHwDownmixEffect21setHALInstrumentationEv"
    },
    {
     "mangled_component_name":"_ZN7android8hardware5audio6effect4V4_017BpHwDownmixEffect11linkToDeathERKNS_2spINS0_20hidl_death_recipientEEEm"
    },
    {
     "mangled_component_name":"_ZN7android8hardware5audio6effect4V4_017BpHwDownmixEffect4pingEv"
    },
    {
     "mangled_component_name":"_ZN7android8hardware5audio6effect4V4_017BpHwDownmixEffect12getDebugInfoENSt3__18functionIFvRKNS_4hidl4base4V1_09DebugInfoEEEE"
    },
    {
     "mangled_component_name":"_ZN7android8hardware5audio6effect4V4_017BpHwDownmixEffect21notifySyspropsChangedEv"
    },
    {
     "mangled_component_name":"_ZN7android8hardware5audio6effect4V4_017BpHwDownmixEffect13unlinkToDeathERKNS_2spINS0_20hidl_death_recipientEEE"
    },
    {
     "kind":"complete_dtor_pointer",
     "mangled_component_name":"_ZN7android8hardware5audio6effect4V4_017BpHwDownmixEffectD1Ev"
    },
    {
     "kind":"deleting_dtor_pointer",
     "mangled_component_name":"_ZN7android8hardware5audio6effect4V4_017BpHwDownmixEffectD0Ev"
    },
    {
     "mangled_component_name":"_ZN7android8hardware5audio6effect4V4_017BpHwDownmixEffect4initEv"
    },
    {
     "mangled_component_name":"_ZN7android8hardware5audio6effect4V4_017BpHwDownmixEffect9setConfigERKNS3_12EffectConfigERKNS_2spINS3_29IEffectBufferProviderCallbackEEESC_"
    },
    {
     "mangled_component_name":"_ZN7android8hardware5audio6effect4V4_017BpHwDownmixEffect5resetEv"
    },
    {
     "mangled_component_name":"_ZN7android8hardware5audio6effect4V4_017BpHwDownmixEffect6enableEv"
    },
    {
     "mangled_component_name":"_ZN7android8hardware5audio6effect4V4_017BpHwDownmixEffect7disableEv"
    },
    {
     "mangled_component_name":"_ZN7android8hardware5audio6effect4V4_017BpHwDownmixEffect9setDeviceEj"
    },
    {
     "mangled_component_name":"_ZN7android8hardware5audio6effect4V4_017BpHwDownmixEffect15setAndGetVolumeERKNS0_8hidl_vecIjEENSt3__18functionIFvNS3_6ResultES8_EEE"
    },
    {
     "mangled_component_name":"_ZN7android8hardware5audio6effect4V4_017BpHwDownmixEffect24volumeChangeNotificationERKNS0_8hidl_vecIjEE"
    },
    {
     "mangled_component_name":"_ZN7android8hardware5audio6effect4V4_017BpHwDownmixEffect12setAudioModeENS1_6common4V4_09AudioModeE"
    },
    {
     "mangled_component_name":"_ZN7android8hardware5audio6effect4V4_017BpHwDownmixEffect16setConfigReverseERKNS3_12EffectConfigERKNS_2spINS3_29IEffectBufferProviderCallbackEEESC_"
    },
    {
     "mangled_component_name":"_ZN7android8hardware5audio6effect4V4_017BpHwDownmixEffect14setInputDeviceEj"
    },
    {
     "mangled_component_name":"_ZN7android8hardware5audio6effect4V4_017BpHwDownmixEffect9getConfigENSt3__18functionIFvNS3_6ResultERKNS3_12EffectConfigEEEE"
    },
    {
     "mangled_component_name":"_ZN7android8hardware5audio6effect4V4_017BpHwDownmixEffect16getConfigReverseENSt3__18functionIFvNS3_6ResultERKNS3_12EffectConfigEEEE"
    },
    {
     "mangled_component_name":"_ZN7android8hardware5audio6effect4V4_017BpHwDownmixEffect30getSupportedAuxChannelsConfigsEjNSt3__18functionIFvNS3_6ResultERKNS0_8hidl_vecINS3_23EffectAuxChannelsConfigEEEEEE"
    },
    {
     "mangled_component_name":"_ZN7android8hardware5audio6effect4V4_017BpHwDownmixEffect20getAuxChannelsConfigENSt3__18functionIFvNS3_6ResultERKNS3_23EffectAuxChannelsConfigEEEE"
    },
    {
     "mangled_component_name":"_ZN7android8hardware5audio6effect4V4_017BpHwDownmixEffect20setAuxChannelsConfigERKNS3_23EffectAuxChannelsConfigE"
    },
    {
     "mangled_component_name":"_ZN7android8hardware5audio6effect4V4_017BpHwDownmixEffect14setAudioSourceENS1_6common4V4_011AudioSourceE"
    },
    {
     "mangled_component_name":"_ZN7android8hardware5audio6effect4V4_017BpHwDownmixEffect7offloadERKNS3_22EffectOffloadParameterE"
    },
    {
     "mangled_component_name":"_ZN7android8hardware5audio6effect4V4_017BpHwDownmixEffect13getDescriptorENSt3__18functionIFvNS3_6ResultERKNS3_16EffectDescriptorEEEE"
    },
    {
     "mangled_component_name":"_ZN7android8hardware5audio6effect4V4_017BpHwDownmixEffect20prepareForProcessingENSt3__18functionIFvNS3_6ResultERKNS0_12MQDescriptorIS7_LNS0_8MQFlavorE1EEEEEE"
    },
    {
     "mangled_component_name":"_ZN7android8hardware5audio6effect4V4_017BpHwDownmixEffect17setProcessBuffersERKNS3_11AudioBufferES7_"
    },
    {
     "mangled_component_name":"_ZN7android8hardware5audio6effect4V4_017BpHwDownmixEffect7commandEjRKNS0_8hidl_vecIhEEjNSt3__18functionIFviS8_EEE"
    },
    {
     "mangled_component_name":"_ZN7android8hardware5audio6effect4V4_017BpHwDownmixEffect12setParameterERKNS0_8hidl_vecIhEES8_"
    },
    {
     "mangled_component_name":"_ZN7android8hardware5audio6effect4V4_017BpHwDownmixEffect12getParameterERKNS0_8hidl_vecIhEEjNSt3__18functionIFvNS3_6ResultES8_EEE"
    },
    {
     "mangled_component_name":"_ZN7android8hardware5audio6effect4V4_017BpHwDownmixEffect29getSupportedConfigsForFeatureEjjjNSt3__18functionIFvNS3_6ResultEjRKNS0_8hidl_vecIhEEEEE"
    },
    {
     "mangled_component_name":"_ZN7android8hardware5audio6effect4V4_017BpHwDownmixEffect26getCurrentConfigForFeatureEjjNSt3__18functionIFvNS3_6ResultERKNS0_8hidl_vecIhEEEEE"
    },
    {
     "mangled_component_name":"_ZN7android8hardware5audio6effect4V4_017BpHwDownmixEffect26setCurrentConfigForFeatureEjRKNS0_8hidl_vecIhEE"
    },
    {
     "mangled_component_name":"_ZN7android8hardware5audio6effect4V4_017BpHwDownmixEffect5closeEv"
    },
    {
     "mangled_component_name":"_ZN7android8hardware5audio6effect4V4_017BpHwDownmixEffect7setTypeENS3_14IDownmixEffect4TypeE"
    },
    {
     "mangled_component_name":"_ZN7android8hardware5audio6effect4V4_017BpHwDownmixEffect7getTypeENSt3__18functionIFvNS3_6ResultENS3_14IDownmixEffect4TypeEEEE"
    },
    {
     "mangled_component_name":"_ZN7android8hardware11BpInterfaceINS0_5audio6effect4V4_014IDownmixEffectEE10onAsBinderEv"
    },
    {
     "kind":"vbase_offset",
     "component_value":192
    },
    {
     "kind":"offset_to_top",
     "component_value":-8
    },
    {
     "kind":"rtti",
     "mangled_component_name":"_ZTIN7android8hardware5audio6effect4V4_017BpHwDownmixEffectE"
    },
    {
     "kind":"complete_dtor_pointer",
     "mangled_component_name":"_ZThn8_N7android8hardware5audio6effect4V4_017BpHwDownmixEffectD1Ev"
    },
    {
     "kind":"deleting_dtor_pointer",
     "mangled_component_name":"_ZThn8_N7android8hardware5audio6effect4V4_017BpHwDownmixEffectD0Ev"
    },
    {
     "mangled_component_name":"_ZThn8_N7android8hardware11BpInterfaceINS0_5audio6effect4V4_014IDownmixEffectEE10onAsBinderEv"
    },
    {
     "kind":"vbase_offset",
     "component_value":184
    },
    {
     "kind":"offset_to_top",
     "component_value":-16
    },
    {
     "kind":"rtti",
     "mangled_component_name":"_ZTIN7android8hardware5audio6effect4V4_017BpHwDownmixEffectE"
    },
    {
     "kind":"complete_dtor_pointer",
     "mangled_component_name":"_ZThn16_N7android8hardware5audio6effect4V4_017BpHwDownmixEffectD1Ev"
    },
    {
     "kind":"deleting_dtor_pointer",
     "mangled_component_name":"_ZThn16_N7android8hardware5audio6effect4V4_017BpHwDownmixEffectD0Ev"
    },
    {
     "mangled_component_name":"_ZN7android8hardware11BpHwRefBase10onFirstRefEv"
    },
    {
     "mangled_component_name":"_ZN7android8hardware11BpHwRefBase15onLastStrongRefEPKv"
    },
    {
     "mangled_component_name":"_ZN7android8hardware11BpHwRefBase20onIncStrongAttemptedEjPKv"
    },
    {
     "kind":"offset_to_top",
     "component_value":-48
    },
    {
     "kind":"rtti",
     "mangled_component_name":"_ZTIN7android8hardware5audio6effect4V4_017BpHwDownmixEffectE"
    },
    {
     "kind":"complete_dtor_pointer",
     "mangled_component_name":"_ZThn48_N7android8hardware5audio6effect4V4_017BpHwDownmixEffectD1Ev"
    },
    {
     "kind":"deleting_dtor_pointer",
     "mangled_component_name":"_ZThn48_N7android8hardware5audio6effect4V4_017BpHwDownmixEffectD0Ev"
    },
    {
     "kind":"vcall_offset"
    },
    {
     "kind":"vcall_offset",
     "component_value":-184
    },
    {
     "kind":"vcall_offset",
     "component_value":-184
    },
    {
     "kind":"vcall_offset",
     "component_value":-184
    },
    {
     "kind":"vcall_offset",
     "component_value":-200
    },
    {
     "kind":"offset_to_top",
     "component_value":-200
    },
    {
     "kind":"rtti",
     "mangled_component_name":"_ZTIN7android8hardware5audio6effect4V4_017BpHwDownmixEffectE"
    },
    {
     "kind":"complete_dtor_pointer",
     "mangled_component_name":"_ZTv0_n24_N7android8hardware5audio6effect4V4_017BpHwDownmixEffectD1Ev"
    },
    {
     "kind":"deleting_dtor_pointer",
     "mangled_component_name":"_ZTv0_n24_N7android8hardware5audio6effect4V4_017BpHwDownmixEffectD0Ev"
    },
    {
     "mangled_component_name":"_ZTv0_n32_N7android8hardware11BpHwRefBase10onFirstRefEv"
    },
    {
     "mangled_component_name":"_ZTv0_n40_N7android8hardware11BpHwRefBase15onLastStrongRefEPKv"
    },
    {
     "mangled_component_name":"_ZTv0_n48_N7android8hardware11BpHwRefBase20onIncStrongAttemptedEjPKv"
    },
    {
     "mangled_component_name":"_ZN7android7RefBase13onLastWeakRefEPKv"
    }
   ],
   "unique_id":"_ZTSN7android8hardware5audio6effect4V4_017BpHwDownmixEffectE"
  },
  {
   "vtable_components":[
    {
     "kind":"vbase_offset",
     "component_value":8
    },
    {
     "kind":"offset_to_top"
    },
    {
     "kind":"rtti",
     "mangled_component_name":"_ZTIN7android8hardware5audio6effect4V4_029IEffectBufferProviderCallbackE"
    },
    {
     "mangled_component_name":"_ZNK7android8hardware5audio6effect4V4_029IEffectBufferProviderCallback8isRemoteEv"
    },
    {
     "mangled_component_name":"_ZN7android8hardware5audio6effect4V4_029IEffectBufferProviderCallback14interfaceChainENSt3__18functionIFvRKNS0_8hidl_vecINS0_11hidl_stringEEEEEE"
    },
    {
     "mangled_component_name":"_ZN7android8hardware5audio6effect4V4_029IEffectBufferProviderCallback5debugERKNS0_11hidl_handleERKNS0_8hidl_vecINS0_11hidl_stringEEE"
    },
    {
     "mangled_component_name":"_ZN7android8hardware5audio6effect4V4_029IEffectBufferProviderCallback19interfaceDescriptorENSt3__18functionIFvRKNS0_11hidl_stringEEEE"
    },
    {
     "mangled_component_name":"_ZN7android8hardware5audio6effect4V4_029IEffectBufferProviderCallback12getHashChainENSt3__18functionIFvRKNS0_8hidl_vecINS0_10hidl_arrayIhLm32EJEEEEEEEE"
    },
    {
     "mangled_component_name":"_ZN7android8hardware5audio6effect4V4_029IEffectBufferProviderCallback21setHALInstrumentationEv"
    },
    {
     "mangled_component_name":"_ZN7android8hardware5audio6effect4V4_029IEffectBufferProviderCallback11linkToDeathERKNS_2spINS0_20hidl_death_recipientEEEm"
    },
    {
     "mangled_component_name":"_ZN7android8hardware5audio6effect4V4_029IEffectBufferProviderCallback4pingEv"
    },
    {
     "mangled_component_name":"_ZN7android8hardware5audio6effect4V4_029IEffectBufferProviderCallback12getDebugInfoENSt3__18functionIFvRKNS_4hidl4base4V1_09DebugInfoEEEE"
    },
    {
     "mangled_component_name":"_ZN7android8hardware5audio6effect4V4_029IEffectBufferProviderCallback21notifySyspropsChangedEv"
    },
    {
     "mangled_component_name":"_ZN7android8hardware5audio6effect4V4_029IEffectBufferProviderCallback13unlinkToDeathERKNS_2spINS0_20hidl_death_recipientEEE"
    },
    {
     "kind":"complete_dtor_pointer",
     "mangled_component_name":"_ZN7android8hardware5audio6effect4V4_029IEffectBufferProviderCallbackD1Ev"
    },
    {
     "kind":"deleting_dtor_pointer",
     "mangled_component_name":"_ZN7android8hardware5audio6effect4V4_029IEffectBufferProviderCallbackD0Ev"
    },
    {
     "is_pure":true,
     "mangled_component_name":"_ZN7android8hardware5audio6effect4V4_029IEffectBufferProviderCallback9getBufferENSt3__18functionIFvRKNS3_11AudioBufferEEEE"
    },
    {
     "is_pure":true,
     "mangled_component_name":"_ZN7android8hardware5audio6effect4V4_029IEffectBufferProviderCallback9putBufferERKNS3_11AudioBufferE"
    },
    {
     "kind":"vcall_offset"
    },
    {
     "kind":"vcall_offset"
    },
    {
     "kind":"vcall_offset"
    },
    {
     "kind":"vcall_offset"
    },
    {
     "kind":"vcall_offset",
     "component_value":-8
    },
    {
     "kind":"offset_to_top",
     "component_value":-8
    },
    {
     "kind":"rtti",
     "mangled_component_name":"_ZTIN7android8hardware5audio6effect4V4_029IEffectBufferProviderCallbackE"
    },
    {
     "kind":"complete_dtor_pointer",
     "mangled_component_name":"_ZTv0_n24_N7android8hardware5audio6effect4V4_029IEffectBufferProviderCallbackD1Ev"
    },
    {
     "kind":"deleting_dtor_pointer",
     "mangled_component_name":"_ZTv0_n24_N7android8hardware5audio6effect4V4_029IEffectBufferProviderCallbackD0Ev"
    },
    {
     "mangled_component_name":"_ZN7android7RefBase10onFirstRefEv"
    },
    {
     "mangled_component_name":"_ZN7android7RefBase15onLastStrongRefEPKv"
    },
    {
     "mangled_component_name":"_ZN7android7RefBase20onIncStrongAttemptedEjPKv"
    },
    {
     "mangled_component_name":"_ZN7android7RefBase13onLastWeakRefEPKv"
    }
   ],
   "unique_id":"_ZTSN7android8hardware5audio6effect4V4_029IEffectBufferProviderCallbackE"
  },
  {
   "vtable_components":[
    {
     "kind":"vbase_offset",
     "component_value":136
    },
    {
     "kind":"offset_to_top"
    },
    {
     "kind":"rtti",
     "mangled_component_name":"_ZTIN7android8hardware5audio6effect4V4_030BnHwAutomaticGainControlEffectE"
    },
    {
     "mangled_component_name":"_ZN7android8hardware9BHwBinder8transactEjRKNS0_6ParcelEPS2_jNSt3__18functionIFvRS2_EEE"
    },
    {
     "mangled_component_name":"_ZN7android8hardware9BHwBinder11linkToDeathERKNS_2spINS0_7IBinder14DeathRecipientEEEPvj"
    },
    {
     "mangled_component_name":"_ZN7android8hardware9BHwBinder13unlinkToDeathERKNS_2wpINS0_7IBinder14DeathRecipientEEEPvjPS5_"
    },
    {
     "mangled_component_name":"_ZNK7android8hardware7IBinder13checkSubclassEPKv"
    },
    {
     "mangled_component_name":"_ZN7android8hardware9BHwBinder12attachObjectEPKvPvS4_PFvS3_S4_S4_E"
    },
    {
     "mangled_component_name":"_ZNK7android8hardware9BHwBinder10findObjectEPKv"
    },
    {
     "mangled_component_name":"_ZN7android8hardware9BHwBinder12detachObjectEPKv"
    },
    {
     "mangled_component_name":"_ZN7android8hardware9BHwBinder11localBinderEv"
    },
    {
     "mangled_component_name":"_ZN7android8hardware7IBinder12remoteBinderEv"
    },
    {
     "kind":"complete_dtor_pointer",
     "mangled_component_name":"_ZN7android8hardware5audio6effect4V4_030BnHwAutomaticGainControlEffectD1Ev"
    },
    {
     "kind":"deleting_dtor_pointer",
     "mangled_component_name":"_ZN7android8hardware5audio6effect4V4_030BnHwAutomaticGainControlEffectD0Ev"
    },
    {
     "mangled_component_name":"_ZN7android8hardware5audio6effect4V4_030BnHwAutomaticGainControlEffect10onTransactEjRKNS0_6ParcelEPS5_jNSt3__18functionIFvRS5_EEE"
    },
    {
     "kind":"offset_to_top",
     "component_value":-32
    },
    {
     "kind":"rtti",
     "mangled_component_name":"_ZTIN7android8hardware5audio6effect4V4_030BnHwAutomaticGainControlEffectE"
    },
    {
     "kind":"complete_dtor_pointer",
     "mangled_component_name":"_ZThn32_N7android8hardware5audio6effect4V4_030BnHwAutomaticGainControlEffectD1Ev"
    },
    {
     "kind":"deleting_dtor_pointer",
     "mangled_component_name":"_ZThn32_N7android8hardware5audio6effect4V4_030BnHwAutomaticGainControlEffectD0Ev"
    },
    {
     "kind":"vcall_offset"
    },
    {
     "kind":"vcall_offset"
    },
    {
     "kind":"vcall_offset"
    },
    {
     "kind":"vcall_offset"
    },
    {
     "kind":"vcall_offset",
     "component_value":-136
    },
    {
     "kind":"offset_to_top",
     "component_value":-136
    },
    {
     "kind":"rtti",
     "mangled_component_name":"_ZTIN7android8hardware5audio6effect4V4_030BnHwAutomaticGainControlEffectE"
    },
    {
     "kind":"complete_dtor_pointer",
     "mangled_component_name":"_ZTv0_n24_N7android8hardware5audio6effect4V4_030BnHwAutomaticGainControlEffectD1Ev"
    },
    {
     "kind":"deleting_dtor_pointer",
     "mangled_component_name":"_ZTv0_n24_N7android8hardware5audio6effect4V4_030BnHwAutomaticGainControlEffectD0Ev"
    },
    {
     "mangled_component_name":"_ZN7android7RefBase10onFirstRefEv"
    },
    {
     "mangled_component_name":"_ZN7android7RefBase15onLastStrongRefEPKv"
    },
    {
     "mangled_component_name":"_ZN7android7RefBase20onIncStrongAttemptedEjPKv"
    },
    {
     "mangled_component_name":"_ZN7android7RefBase13onLastWeakRefEPKv"
    }
   ],
   "unique_id":"_ZTSN7android8hardware5audio6effect4V4_030BnHwAutomaticGainControlEffectE"
  },
  {
   "vtable_components":[
    {
     "kind":"vbase_offset",
     "component_value":120
    },
    {
     "kind":"offset_to_top"
    },
    {
     "kind":"rtti",
     "mangled_component_name":"_ZTIN7android8hardware5audio6effect4V4_08BsEffectE"
    },
    {
     "mangled_component_name":"_ZNK7android8hardware5audio6effect4V4_07IEffect8isRemoteEv"
    },
    {
     "mangled_component_name":"_ZN7android8hardware5audio6effect4V4_08BsEffect14interfaceChainENSt3__18functionIFvRKNS0_8hidl_vecINS0_11hidl_stringEEEEEE"
    },
    {
     "mangled_component_name":"_ZN7android8hardware5audio6effect4V4_08BsEffect5debugERKNS0_11hidl_handleERKNS0_8hidl_vecINS0_11hidl_stringEEE"
    },
    {
     "mangled_component_name":"_ZN7android8hardware5audio6effect4V4_08BsEffect19interfaceDescriptorENSt3__18functionIFvRKNS0_11hidl_stringEEEE"
    },
    {
     "mangled_component_name":"_ZN7android8hardware5audio6effect4V4_08BsEffect12getHashChainENSt3__18functionIFvRKNS0_8hidl_vecINS0_10hidl_arrayIhLm32EJEEEEEEEE"
    },
    {
     "mangled_component_name":"_ZN7android8hardware5audio6effect4V4_08BsEffect21setHALInstrumentationEv"
    },
    {
     "mangled_component_name":"_ZN7android8hardware5audio6effect4V4_08BsEffect11linkToDeathERKNS_2spINS0_20hidl_death_recipientEEEm"
    },
    {
     "mangled_component_name":"_ZN7android8hardware5audio6effect4V4_08BsEffect4pingEv"
    },
    {
     "mangled_component_name":"_ZN7android8hardware5audio6effect4V4_08BsEffect12getDebugInfoENSt3__18functionIFvRKNS_4hidl4base4V1_09DebugInfoEEEE"
    },
    {
     "mangled_component_name":"_ZN7android8hardware5audio6effect4V4_08BsEffect21notifySyspropsChangedEv"
    },
    {
     "mangled_component_name":"_ZN7android8hardware5audio6effect4V4_08BsEffect13unlinkToDeathERKNS_2spINS0_20hidl_death_recipientEEE"
    },
    {
     "kind":"complete_dtor_pointer",
     "mangled_component_name":"_ZN7android8hardware5audio6effect4V4_08BsEffectD1Ev"
    },
    {
     "kind":"deleting_dtor_pointer",
     "mangled_component_name":"_ZN7android8hardware5audio6effect4V4_08BsEffectD0Ev"
    },
    {
     "mangled_component_name":"_ZN7android8hardware5audio6effect4V4_08BsEffect4initEv"
    },
    {
     "mangled_component_name":"_ZN7android8hardware5audio6effect4V4_08BsEffect9setConfigERKNS3_12EffectConfigERKNS_2spINS3_29IEffectBufferProviderCallbackEEESC_"
    },
    {
     "mangled_component_name":"_ZN7android8hardware5audio6effect4V4_08BsEffect5resetEv"
    },
    {
     "mangled_component_name":"_ZN7android8hardware5audio6effect4V4_08BsEffect6enableEv"
    },
    {
     "mangled_component_name":"_ZN7android8hardware5audio6effect4V4_08BsEffect7disableEv"
    },
    {
     "mangled_component_name":"_ZN7android8hardware5audio6effect4V4_08BsEffect9setDeviceEj"
    },
    {
     "mangled_component_name":"_ZN7android8hardware5audio6effect4V4_08BsEffect15setAndGetVolumeERKNS0_8hidl_vecIjEENSt3__18functionIFvNS3_6ResultES8_EEE"
    },
    {
     "mangled_component_name":"_ZN7android8hardware5audio6effect4V4_08BsEffect24volumeChangeNotificationERKNS0_8hidl_vecIjEE"
    },
    {
     "mangled_component_name":"_ZN7android8hardware5audio6effect4V4_08BsEffect12setAudioModeENS1_6common4V4_09AudioModeE"
    },
    {
     "mangled_component_name":"_ZN7android8hardware5audio6effect4V4_08BsEffect16setConfigReverseERKNS3_12EffectConfigERKNS_2spINS3_29IEffectBufferProviderCallbackEEESC_"
    },
    {
     "mangled_component_name":"_ZN7android8hardware5audio6effect4V4_08BsEffect14setInputDeviceEj"
    },
    {
     "mangled_component_name":"_ZN7android8hardware5audio6effect4V4_08BsEffect9getConfigENSt3__18functionIFvNS3_6ResultERKNS3_12EffectConfigEEEE"
    },
    {
     "mangled_component_name":"_ZN7android8hardware5audio6effect4V4_08BsEffect16getConfigReverseENSt3__18functionIFvNS3_6ResultERKNS3_12EffectConfigEEEE"
    },
    {
     "mangled_component_name":"_ZN7android8hardware5audio6effect4V4_08BsEffect30getSupportedAuxChannelsConfigsEjNSt3__18functionIFvNS3_6ResultERKNS0_8hidl_vecINS3_23EffectAuxChannelsConfigEEEEEE"
    },
    {
     "mangled_component_name":"_ZN7android8hardware5audio6effect4V4_08BsEffect20getAuxChannelsConfigENSt3__18functionIFvNS3_6ResultERKNS3_23EffectAuxChannelsConfigEEEE"
    },
    {
     "mangled_component_name":"_ZN7android8hardware5audio6effect4V4_08BsEffect20setAuxChannelsConfigERKNS3_23EffectAuxChannelsConfigE"
    },
    {
     "mangled_component_name":"_ZN7android8hardware5audio6effect4V4_08BsEffect14setAudioSourceENS1_6common4V4_011AudioSourceE"
    },
    {
     "mangled_component_name":"_ZN7android8hardware5audio6effect4V4_08BsEffect7offloadERKNS3_22EffectOffloadParameterE"
    },
    {
     "mangled_component_name":"_ZN7android8hardware5audio6effect4V4_08BsEffect13getDescriptorENSt3__18functionIFvNS3_6ResultERKNS3_16EffectDescriptorEEEE"
    },
    {
     "mangled_component_name":"_ZN7android8hardware5audio6effect4V4_08BsEffect20prepareForProcessingENSt3__18functionIFvNS3_6ResultERKNS0_12MQDescriptorIS7_LNS0_8MQFlavorE1EEEEEE"
    },
    {
     "mangled_component_name":"_ZN7android8hardware5audio6effect4V4_08BsEffect17setProcessBuffersERKNS3_11AudioBufferES7_"
    },
    {
     "mangled_component_name":"_ZN7android8hardware5audio6effect4V4_08BsEffect7commandEjRKNS0_8hidl_vecIhEEjNSt3__18functionIFviS8_EEE"
    },
    {
     "mangled_component_name":"_ZN7android8hardware5audio6effect4V4_08BsEffect12setParameterERKNS0_8hidl_vecIhEES8_"
    },
    {
     "mangled_component_name":"_ZN7android8hardware5audio6effect4V4_08BsEffect12getParameterERKNS0_8hidl_vecIhEEjNSt3__18functionIFvNS3_6ResultES8_EEE"
    },
    {
     "mangled_component_name":"_ZN7android8hardware5audio6effect4V4_08BsEffect29getSupportedConfigsForFeatureEjjjNSt3__18functionIFvNS3_6ResultEjRKNS0_8hidl_vecIhEEEEE"
    },
    {
     "mangled_component_name":"_ZN7android8hardware5audio6effect4V4_08BsEffect26getCurrentConfigForFeatureEjjNSt3__18functionIFvNS3_6ResultERKNS0_8hidl_vecIhEEEEE"
    },
    {
     "mangled_component_name":"_ZN7android8hardware5audio6effect4V4_08BsEffect26setCurrentConfigForFeatureEjRKNS0_8hidl_vecIhEE"
    },
    {
     "mangled_component_name":"_ZN7android8hardware5audio6effect4V4_08BsEffect5closeEv"
    },
    {
     "kind":"offset_to_top",
     "component_value":-8
    },
    {
     "kind":"rtti",
     "mangled_component_name":"_ZTIN7android8hardware5audio6effect4V4_08BsEffectE"
    },
    {
     "kind":"complete_dtor_pointer",
     "mangled_component_name":"_ZThn8_N7android8hardware5audio6effect4V4_08BsEffectD1Ev"
    },
    {
     "kind":"deleting_dtor_pointer",
     "mangled_component_name":"_ZThn8_N7android8hardware5audio6effect4V4_08BsEffectD0Ev"
    },
    {
     "kind":"vcall_offset"
    },
    {
     "kind":"vcall_offset"
    },
    {
     "kind":"vcall_offset"
    },
    {
     "kind":"vcall_offset"
    },
    {
     "kind":"vcall_offset",
     "component_value":-120
    },
    {
     "kind":"offset_to_top",
     "component_value":-120
    },
    {
     "kind":"rtti",
     "mangled_component_name":"_ZTIN7android8hardware5audio6effect4V4_08BsEffectE"
    },
    {
     "kind":"complete_dtor_pointer",
     "mangled_component_name":"_ZTv0_n24_N7android8hardware5audio6effect4V4_08BsEffectD1Ev"
    },
    {
     "kind":"deleting_dtor_pointer",
     "mangled_component_name":"_ZTv0_n24_N7android8hardware5audio6effect4V4_08BsEffectD0Ev"
    },
    {
     "mangled_component_name":"_ZN7android7RefBase10onFirstRefEv"
    },
    {
     "mangled_component_name":"_ZN7android7RefBase15onLastStrongRefEPKv"
    },
    {
     "mangled_component_name":"_ZN7android7RefBase20onIncStrongAttemptedEjPKv"
    },
    {
     "mangled_component_name":"_ZN7android7RefBase13onLastWeakRefEPKv"
    }
   ],
   "unique_id":"_ZTSN7android8hardware5audio6effect4V4_08BsEffectE"
  },
  {
   "vtable_components":[
    {
     "kind":"vbase_offset",
     "component_value":200
    },
    {
     "kind":"offset_to_top"
    },
    {
     "kind":"rtti",
     "mangled_component_name":"_ZTIN7android8hardware5audio6effect4V4_010BpHwEffectE"
    },
    {
     "mangled_component_name":"_ZNK7android8hardware5audio6effect4V4_010BpHwEffect8isRemoteEv"
    },
    {
     "mangled_component_name":"_ZN7android8hardware5audio6effect4V4_010BpHwEffect14interfaceChainENSt3__18functionIFvRKNS0_8hidl_vecINS0_11hidl_stringEEEEEE"
    },
    {
     "mangled_component_name":"_ZN7android8hardware5audio6effect4V4_010BpHwEffect5debugERKNS0_11hidl_handleERKNS0_8hidl_vecINS0_11hidl_stringEEE"
    },
    {
     "mangled_component_name":"_ZN7android8hardware5audio6effect4V4_010BpHwEffect19interfaceDescriptorENSt3__18functionIFvRKNS0_11hidl_stringEEEE"
    },
    {
     "mangled_component_name":"_ZN7android8hardware5audio6effect4V4_010BpHwEffect12getHashChainENSt3__18functionIFvRKNS0_8hidl_vecINS0_10hidl_arrayIhLm32EJEEEEEEEE"
    },
    {
     "mangled_component_name":"_ZN7android8hardware5audio6effect4V4_010BpHwEffect21setHALInstrumentationEv"
    },
    {
     "mangled_component_name":"_ZN7android8hardware5audio6effect4V4_010BpHwEffect11linkToDeathERKNS_2spINS0_20hidl_death_recipientEEEm"
    },
    {
     "mangled_component_name":"_ZN7android8hardware5audio6effect4V4_010BpHwEffect4pingEv"
    },
    {
     "mangled_component_name":"_ZN7android8hardware5audio6effect4V4_010BpHwEffect12getDebugInfoENSt3__18functionIFvRKNS_4hidl4base4V1_09DebugInfoEEEE"
    },
    {
     "mangled_component_name":"_ZN7android8hardware5audio6effect4V4_010BpHwEffect21notifySyspropsChangedEv"
    },
    {
     "mangled_component_name":"_ZN7android8hardware5audio6effect4V4_010BpHwEffect13unlinkToDeathERKNS_2spINS0_20hidl_death_recipientEEE"
    },
    {
     "kind":"complete_dtor_pointer",
     "mangled_component_name":"_ZN7android8hardware5audio6effect4V4_010BpHwEffectD1Ev"
    },
    {
     "kind":"deleting_dtor_pointer",
     "mangled_component_name":"_ZN7android8hardware5audio6effect4V4_010BpHwEffectD0Ev"
    },
    {
     "mangled_component_name":"_ZN7android8hardware5audio6effect4V4_010BpHwEffect4initEv"
    },
    {
     "mangled_component_name":"_ZN7android8hardware5audio6effect4V4_010BpHwEffect9setConfigERKNS3_12EffectConfigERKNS_2spINS3_29IEffectBufferProviderCallbackEEESC_"
    },
    {
     "mangled_component_name":"_ZN7android8hardware5audio6effect4V4_010BpHwEffect5resetEv"
    },
    {
     "mangled_component_name":"_ZN7android8hardware5audio6effect4V4_010BpHwEffect6enableEv"
    },
    {
     "mangled_component_name":"_ZN7android8hardware5audio6effect4V4_010BpHwEffect7disableEv"
    },
    {
     "mangled_component_name":"_ZN7android8hardware5audio6effect4V4_010BpHwEffect9setDeviceEj"
    },
    {
     "mangled_component_name":"_ZN7android8hardware5audio6effect4V4_010BpHwEffect15setAndGetVolumeERKNS0_8hidl_vecIjEENSt3__18functionIFvNS3_6ResultES8_EEE"
    },
    {
     "mangled_component_name":"_ZN7android8hardware5audio6effect4V4_010BpHwEffect24volumeChangeNotificationERKNS0_8hidl_vecIjEE"
    },
    {
     "mangled_component_name":"_ZN7android8hardware5audio6effect4V4_010BpHwEffect12setAudioModeENS1_6common4V4_09AudioModeE"
    },
    {
     "mangled_component_name":"_ZN7android8hardware5audio6effect4V4_010BpHwEffect16setConfigReverseERKNS3_12EffectConfigERKNS_2spINS3_29IEffectBufferProviderCallbackEEESC_"
    },
    {
     "mangled_component_name":"_ZN7android8hardware5audio6effect4V4_010BpHwEffect14setInputDeviceEj"
    },
    {
     "mangled_component_name":"_ZN7android8hardware5audio6effect4V4_010BpHwEffect9getConfigENSt3__18functionIFvNS3_6ResultERKNS3_12EffectConfigEEEE"
    },
    {
     "mangled_component_name":"_ZN7android8hardware5audio6effect4V4_010BpHwEffect16getConfigReverseENSt3__18functionIFvNS3_6ResultERKNS3_12EffectConfigEEEE"
    },
    {
     "mangled_component_name":"_ZN7android8hardware5audio6effect4V4_010BpHwEffect30getSupportedAuxChannelsConfigsEjNSt3__18functionIFvNS3_6ResultERKNS0_8hidl_vecINS3_23EffectAuxChannelsConfigEEEEEE"
    },
    {
     "mangled_component_name":"_ZN7android8hardware5audio6effect4V4_010BpHwEffect20getAuxChannelsConfigENSt3__18functionIFvNS3_6ResultERKNS3_23EffectAuxChannelsConfigEEEE"
    },
    {
     "mangled_component_name":"_ZN7android8hardware5audio6effect4V4_010BpHwEffect20setAuxChannelsConfigERKNS3_23EffectAuxChannelsConfigE"
    },
    {
     "mangled_component_name":"_ZN7android8hardware5audio6effect4V4_010BpHwEffect14setAudioSourceENS1_6common4V4_011AudioSourceE"
    },
    {
     "mangled_component_name":"_ZN7android8hardware5audio6effect4V4_010BpHwEffect7offloadERKNS3_22EffectOffloadParameterE"
    },
    {
     "mangled_component_name":"_ZN7android8hardware5audio6effect4V4_010BpHwEffect13getDescriptorENSt3__18functionIFvNS3_6ResultERKNS3_16EffectDescriptorEEEE"
    },
    {
     "mangled_component_name":"_ZN7android8hardware5audio6effect4V4_010BpHwEffect20prepareForProcessingENSt3__18functionIFvNS3_6ResultERKNS0_12MQDescriptorIS7_LNS0_8MQFlavorE1EEEEEE"
    },
    {
     "mangled_component_name":"_ZN7android8hardware5audio6effect4V4_010BpHwEffect17setProcessBuffersERKNS3_11AudioBufferES7_"
    },
    {
     "mangled_component_name":"_ZN7android8hardware5audio6effect4V4_010BpHwEffect7commandEjRKNS0_8hidl_vecIhEEjNSt3__18functionIFviS8_EEE"
    },
    {
     "mangled_component_name":"_ZN7android8hardware5audio6effect4V4_010BpHwEffect12setParameterERKNS0_8hidl_vecIhEES8_"
    },
    {
     "mangled_component_name":"_ZN7android8hardware5audio6effect4V4_010BpHwEffect12getParameterERKNS0_8hidl_vecIhEEjNSt3__18functionIFvNS3_6ResultES8_EEE"
    },
    {
     "mangled_component_name":"_ZN7android8hardware5audio6effect4V4_010BpHwEffect29getSupportedConfigsForFeatureEjjjNSt3__18functionIFvNS3_6ResultEjRKNS0_8hidl_vecIhEEEEE"
    },
    {
     "mangled_component_name":"_ZN7android8hardware5audio6effect4V4_010BpHwEffect26getCurrentConfigForFeatureEjjNSt3__18functionIFvNS3_6ResultERKNS0_8hidl_vecIhEEEEE"
    },
    {
     "mangled_component_name":"_ZN7android8hardware5audio6effect4V4_010BpHwEffect26setCurrentConfigForFeatureEjRKNS0_8hidl_vecIhEE"
    },
    {
     "mangled_component_name":"_ZN7android8hardware5audio6effect4V4_010BpHwEffect5closeEv"
    },
    {
     "mangled_component_name":"_ZN7android8hardware11BpInterfaceINS0_5audio6effect4V4_07IEffectEE10onAsBinderEv"
    },
    {
     "kind":"vbase_offset",
     "component_value":192
    },
    {
     "kind":"offset_to_top",
     "component_value":-8
    },
    {
     "kind":"rtti",
     "mangled_component_name":"_ZTIN7android8hardware5audio6effect4V4_010BpHwEffectE"
    },
    {
     "kind":"complete_dtor_pointer",
     "mangled_component_name":"_ZThn8_N7android8hardware5audio6effect4V4_010BpHwEffectD1Ev"
    },
    {
     "kind":"deleting_dtor_pointer",
     "mangled_component_name":"_ZThn8_N7android8hardware5audio6effect4V4_010BpHwEffectD0Ev"
    },
    {
     "mangled_component_name":"_ZThn8_N7android8hardware11BpInterfaceINS0_5audio6effect4V4_07IEffectEE10onAsBinderEv"
    },
    {
     "kind":"vbase_offset",
     "component_value":184
    },
    {
     "kind":"offset_to_top",
     "component_value":-16
    },
    {
     "kind":"rtti",
     "mangled_component_name":"_ZTIN7android8hardware5audio6effect4V4_010BpHwEffectE"
    },
    {
     "kind":"complete_dtor_pointer",
     "mangled_component_name":"_ZThn16_N7android8hardware5audio6effect4V4_010BpHwEffectD1Ev"
    },
    {
     "kind":"deleting_dtor_pointer",
     "mangled_component_name":"_ZThn16_N7android8hardware5audio6effect4V4_010BpHwEffectD0Ev"
    },
    {
     "mangled_component_name":"_ZN7android8hardware11BpHwRefBase10onFirstRefEv"
    },
    {
     "mangled_component_name":"_ZN7android8hardware11BpHwRefBase15onLastStrongRefEPKv"
    },
    {
     "mangled_component_name":"_ZN7android8hardware11BpHwRefBase20onIncStrongAttemptedEjPKv"
    },
    {
     "kind":"offset_to_top",
     "component_value":-48
    },
    {
     "kind":"rtti",
     "mangled_component_name":"_ZTIN7android8hardware5audio6effect4V4_010BpHwEffectE"
    },
    {
     "kind":"complete_dtor_pointer",
     "mangled_component_name":"_ZThn48_N7android8hardware5audio6effect4V4_010BpHwEffectD1Ev"
    },
    {
     "kind":"deleting_dtor_pointer",
     "mangled_component_name":"_ZThn48_N7android8hardware5audio6effect4V4_010BpHwEffectD0Ev"
    },
    {
     "kind":"vcall_offset"
    },
    {
     "kind":"vcall_offset",
     "component_value":-184
    },
    {
     "kind":"vcall_offset",
     "component_value":-184
    },
    {
     "kind":"vcall_offset",
     "component_value":-184
    },
    {
     "kind":"vcall_offset",
     "component_value":-200
    },
    {
     "kind":"offset_to_top",
     "component_value":-200
    },
    {
     "kind":"rtti",
     "mangled_component_name":"_ZTIN7android8hardware5audio6effect4V4_010BpHwEffectE"
    },
    {
     "kind":"complete_dtor_pointer",
     "mangled_component_name":"_ZTv0_n24_N7android8hardware5audio6effect4V4_010BpHwEffectD1Ev"
    },
    {
     "kind":"deleting_dtor_pointer",
     "mangled_component_name":"_ZTv0_n24_N7android8hardware5audio6effect4V4_010BpHwEffectD0Ev"
    },
    {
     "mangled_component_name":"_ZTv0_n32_N7android8hardware11BpHwRefBase10onFirstRefEv"
    },
    {
     "mangled_component_name":"_ZTv0_n40_N7android8hardware11BpHwRefBase15onLastStrongRefEPKv"
    },
    {
     "mangled_component_name":"_ZTv0_n48_N7android8hardware11BpHwRefBase20onIncStrongAttemptedEjPKv"
    },
    {
     "mangled_component_name":"_ZN7android7RefBase13onLastWeakRefEPKv"
    }
   ],
   "unique_id":"_ZTSN7android8hardware5audio6effect4V4_010BpHwEffectE"
  },
  {
   "vtable_components":[
    {
     "kind":"vbase_offset",
     "component_value":200
    },
    {
     "kind":"offset_to_top"
    },
    {
     "kind":"rtti",
     "mangled_component_name":"_ZTIN7android8hardware5audio6effect4V4_032BpHwEffectBufferProviderCallbackE"
    },
    {
     "mangled_component_name":"_ZNK7android8hardware5audio6effect4V4_032BpHwEffectBufferProviderCallback8isRemoteEv"
    },
    {
     "mangled_component_name":"_ZN7android8hardware5audio6effect4V4_032BpHwEffectBufferProviderCallback14interfaceChainENSt3__18functionIFvRKNS0_8hidl_vecINS0_11hidl_stringEEEEEE"
    },
    {
     "mangled_component_name":"_ZN7android8hardware5audio6effect4V4_032BpHwEffectBufferProviderCallback5debugERKNS0_11hidl_handleERKNS0_8hidl_vecINS0_11hidl_stringEEE"
    },
    {
     "mangled_component_name":"_ZN7android8hardware5audio6effect4V4_032BpHwEffectBufferProviderCallback19interfaceDescriptorENSt3__18functionIFvRKNS0_11hidl_stringEEEE"
    },
    {
     "mangled_component_name":"_ZN7android8hardware5audio6effect4V4_032BpHwEffectBufferProviderCallback12getHashChainENSt3__18functionIFvRKNS0_8hidl_vecINS0_10hidl_arrayIhLm32EJEEEEEEEE"
    },
    {
     "mangled_component_name":"_ZN7android8hardware5audio6effect4V4_032BpHwEffectBufferProviderCallback21setHALInstrumentationEv"
    },
    {
     "mangled_component_name":"_ZN7android8hardware5audio6effect4V4_032BpHwEffectBufferProviderCallback11linkToDeathERKNS_2spINS0_20hidl_death_recipientEEEm"
    },
    {
     "mangled_component_name":"_ZN7android8hardware5audio6effect4V4_032BpHwEffectBufferProviderCallback4pingEv"
    },
    {
     "mangled_component_name":"_ZN7android8hardware5audio6effect4V4_032BpHwEffectBufferProviderCallback12getDebugInfoENSt3__18functionIFvRKNS_4hidl4base4V1_09DebugInfoEEEE"
    },
    {
     "mangled_component_name":"_ZN7android8hardware5audio6effect4V4_032BpHwEffectBufferProviderCallback21notifySyspropsChangedEv"
    },
    {
     "mangled_component_name":"_ZN7android8hardware5audio6effect4V4_032BpHwEffectBufferProviderCallback13unlinkToDeathERKNS_2spINS0_20hidl_death_recipientEEE"
    },
    {
     "kind":"complete_dtor_pointer",
     "mangled_component_name":"_ZN7android8hardware5audio6effect4V4_032BpHwEffectBufferProviderCallbackD1Ev"
    },
    {
     "kind":"deleting_dtor_pointer",
     "mangled_component_name":"_ZN7android8hardware5audio6effect4V4_032BpHwEffectBufferProviderCallbackD0Ev"
    },
    {
     "mangled_component_name":"_ZN7android8hardware5audio6effect4V4_032BpHwEffectBufferProviderCallback9getBufferENSt3__18functionIFvRKNS3_11AudioBufferEEEE"
    },
    {
     "mangled_component_name":"_ZN7android8hardware5audio6effect4V4_032BpHwEffectBufferProviderCallback9putBufferERKNS3_11AudioBufferE"
    },
    {
     "mangled_component_name":"_ZN7android8hardware11BpInterfaceINS0_5audio6effect4V4_029IEffectBufferProviderCallbackEE10onAsBinderEv"
    },
    {
     "kind":"vbase_offset",
     "component_value":192
    },
    {
     "kind":"offset_to_top",
     "component_value":-8
    },
    {
     "kind":"rtti",
     "mangled_component_name":"_ZTIN7android8hardware5audio6effect4V4_032BpHwEffectBufferProviderCallbackE"
    },
    {
     "kind":"complete_dtor_pointer",
     "mangled_component_name":"_ZThn8_N7android8hardware5audio6effect4V4_032BpHwEffectBufferProviderCallbackD1Ev"
    },
    {
     "kind":"deleting_dtor_pointer",
     "mangled_component_name":"_ZThn8_N7android8hardware5audio6effect4V4_032BpHwEffectBufferProviderCallbackD0Ev"
    },
    {
     "mangled_component_name":"_ZThn8_N7android8hardware11BpInterfaceINS0_5audio6effect4V4_029IEffectBufferProviderCallbackEE10onAsBinderEv"
    },
    {
     "kind":"vbase_offset",
     "component_value":184
    },
    {
     "kind":"offset_to_top",
     "component_value":-16
    },
    {
     "kind":"rtti",
     "mangled_component_name":"_ZTIN7android8hardware5audio6effect4V4_032BpHwEffectBufferProviderCallbackE"
    },
    {
     "kind":"complete_dtor_pointer",
     "mangled_component_name":"_ZThn16_N7android8hardware5audio6effect4V4_032BpHwEffectBufferProviderCallbackD1Ev"
    },
    {
     "kind":"deleting_dtor_pointer",
     "mangled_component_name":"_ZThn16_N7android8hardware5audio6effect4V4_032BpHwEffectBufferProviderCallbackD0Ev"
    },
    {
     "mangled_component_name":"_ZN7android8hardware11BpHwRefBase10onFirstRefEv"
    },
    {
     "mangled_component_name":"_ZN7android8hardware11BpHwRefBase15onLastStrongRefEPKv"
    },
    {
     "mangled_component_name":"_ZN7android8hardware11BpHwRefBase20onIncStrongAttemptedEjPKv"
    },
    {
     "kind":"offset_to_top",
     "component_value":-48
    },
    {
     "kind":"rtti",
     "mangled_component_name":"_ZTIN7android8hardware5audio6effect4V4_032BpHwEffectBufferProviderCallbackE"
    },
    {
     "kind":"complete_dtor_pointer",
     "mangled_component_name":"_ZThn48_N7android8hardware5audio6effect4V4_032BpHwEffectBufferProviderCallbackD1Ev"
    },
    {
     "kind":"deleting_dtor_pointer",
     "mangled_component_name":"_ZThn48_N7android8hardware5audio6effect4V4_032BpHwEffectBufferProviderCallbackD0Ev"
    },
    {
     "kind":"vcall_offset"
    },
    {
     "kind":"vcall_offset",
     "component_value":-184
    },
    {
     "kind":"vcall_offset",
     "component_value":-184
    },
    {
     "kind":"vcall_offset",
     "component_value":-184
    },
    {
     "kind":"vcall_offset",
     "component_value":-200
    },
    {
     "kind":"offset_to_top",
     "component_value":-200
    },
    {
     "kind":"rtti",
     "mangled_component_name":"_ZTIN7android8hardware5audio6effect4V4_032BpHwEffectBufferProviderCallbackE"
    },
    {
     "kind":"complete_dtor_pointer",
     "mangled_component_name":"_ZTv0_n24_N7android8hardware5audio6effect4V4_032BpHwEffectBufferProviderCallbackD1Ev"
    },
    {
     "kind":"deleting_dtor_pointer",
     "mangled_component_name":"_ZTv0_n24_N7android8hardware5audio6effect4V4_032BpHwEffectBufferProviderCallbackD0Ev"
    },
    {
     "mangled_component_name":"_ZTv0_n32_N7android8hardware11BpHwRefBase10onFirstRefEv"
    },
    {
     "mangled_component_name":"_ZTv0_n40_N7android8hardware11BpHwRefBase15onLastStrongRefEPKv"
    },
    {
     "mangled_component_name":"_ZTv0_n48_N7android8hardware11BpHwRefBase20onIncStrongAttemptedEjPKv"
    },
    {
     "mangled_component_name":"_ZN7android7RefBase13onLastWeakRefEPKv"
    }
   ],
   "unique_id":"_ZTSN7android8hardware5audio6effect4V4_032BpHwEffectBufferProviderCallbackE"
  },
  {
   "vtable_components":[
    {
     "kind":"vbase_offset",
     "component_value":120
    },
    {
     "kind":"offset_to_top"
    },
    {
     "kind":"rtti",
     "mangled_component_name":"_ZTIN7android8hardware5audio6effect4V4_028BsAutomaticGainControlEffectE"
    },
    {
     "mangled_component_name":"_ZNK7android8hardware5audio6effect4V4_027IAutomaticGainControlEffect8isRemoteEv"
    },
    {
     "mangled_component_name":"_ZN7android8hardware5audio6effect4V4_028BsAutomaticGainControlEffect14interfaceChainENSt3__18functionIFvRKNS0_8hidl_vecINS0_11hidl_stringEEEEEE"
    },
    {
     "mangled_component_name":"_ZN7android8hardware5audio6effect4V4_028BsAutomaticGainControlEffect5debugERKNS0_11hidl_handleERKNS0_8hidl_vecINS0_11hidl_stringEEE"
    },
    {
     "mangled_component_name":"_ZN7android8hardware5audio6effect4V4_028BsAutomaticGainControlEffect19interfaceDescriptorENSt3__18functionIFvRKNS0_11hidl_stringEEEE"
    },
    {
     "mangled_component_name":"_ZN7android8hardware5audio6effect4V4_028BsAutomaticGainControlEffect12getHashChainENSt3__18functionIFvRKNS0_8hidl_vecINS0_10hidl_arrayIhLm32EJEEEEEEEE"
    },
    {
     "mangled_component_name":"_ZN7android8hardware5audio6effect4V4_028BsAutomaticGainControlEffect21setHALInstrumentationEv"
    },
    {
     "mangled_component_name":"_ZN7android8hardware5audio6effect4V4_028BsAutomaticGainControlEffect11linkToDeathERKNS_2spINS0_20hidl_death_recipientEEEm"
    },
    {
     "mangled_component_name":"_ZN7android8hardware5audio6effect4V4_028BsAutomaticGainControlEffect4pingEv"
    },
    {
     "mangled_component_name":"_ZN7android8hardware5audio6effect4V4_028BsAutomaticGainControlEffect12getDebugInfoENSt3__18functionIFvRKNS_4hidl4base4V1_09DebugInfoEEEE"
    },
    {
     "mangled_component_name":"_ZN7android8hardware5audio6effect4V4_028BsAutomaticGainControlEffect21notifySyspropsChangedEv"
    },
    {
     "mangled_component_name":"_ZN7android8hardware5audio6effect4V4_028BsAutomaticGainControlEffect13unlinkToDeathERKNS_2spINS0_20hidl_death_recipientEEE"
    },
    {
     "kind":"complete_dtor_pointer",
     "mangled_component_name":"_ZN7android8hardware5audio6effect4V4_028BsAutomaticGainControlEffectD1Ev"
    },
    {
     "kind":"deleting_dtor_pointer",
     "mangled_component_name":"_ZN7android8hardware5audio6effect4V4_028BsAutomaticGainControlEffectD0Ev"
    },
    {
     "mangled_component_name":"_ZN7android8hardware5audio6effect4V4_028BsAutomaticGainControlEffect4initEv"
    },
    {
     "mangled_component_name":"_ZN7android8hardware5audio6effect4V4_028BsAutomaticGainControlEffect9setConfigERKNS3_12EffectConfigERKNS_2spINS3_29IEffectBufferProviderCallbackEEESC_"
    },
    {
     "mangled_component_name":"_ZN7android8hardware5audio6effect4V4_028BsAutomaticGainControlEffect5resetEv"
    },
    {
     "mangled_component_name":"_ZN7android8hardware5audio6effect4V4_028BsAutomaticGainControlEffect6enableEv"
    },
    {
     "mangled_component_name":"_ZN7android8hardware5audio6effect4V4_028BsAutomaticGainControlEffect7disableEv"
    },
    {
     "mangled_component_name":"_ZN7android8hardware5audio6effect4V4_028BsAutomaticGainControlEffect9setDeviceEj"
    },
    {
     "mangled_component_name":"_ZN7android8hardware5audio6effect4V4_028BsAutomaticGainControlEffect15setAndGetVolumeERKNS0_8hidl_vecIjEENSt3__18functionIFvNS3_6ResultES8_EEE"
    },
    {
     "mangled_component_name":"_ZN7android8hardware5audio6effect4V4_028BsAutomaticGainControlEffect24volumeChangeNotificationERKNS0_8hidl_vecIjEE"
    },
    {
     "mangled_component_name":"_ZN7android8hardware5audio6effect4V4_028BsAutomaticGainControlEffect12setAudioModeENS1_6common4V4_09AudioModeE"
    },
    {
     "mangled_component_name":"_ZN7android8hardware5audio6effect4V4_028BsAutomaticGainControlEffect16setConfigReverseERKNS3_12EffectConfigERKNS_2spINS3_29IEffectBufferProviderCallbackEEESC_"
    },
    {
     "mangled_component_name":"_ZN7android8hardware5audio6effect4V4_028BsAutomaticGainControlEffect14setInputDeviceEj"
    },
    {
     "mangled_component_name":"_ZN7android8hardware5audio6effect4V4_028BsAutomaticGainControlEffect9getConfigENSt3__18functionIFvNS3_6ResultERKNS3_12EffectConfigEEEE"
    },
    {
     "mangled_component_name":"_ZN7android8hardware5audio6effect4V4_028BsAutomaticGainControlEffect16getConfigReverseENSt3__18functionIFvNS3_6ResultERKNS3_12EffectConfigEEEE"
    },
    {
     "mangled_component_name":"_ZN7android8hardware5audio6effect4V4_028BsAutomaticGainControlEffect30getSupportedAuxChannelsConfigsEjNSt3__18functionIFvNS3_6ResultERKNS0_8hidl_vecINS3_23EffectAuxChannelsConfigEEEEEE"
    },
    {
     "mangled_component_name":"_ZN7android8hardware5audio6effect4V4_028BsAutomaticGainControlEffect20getAuxChannelsConfigENSt3__18functionIFvNS3_6ResultERKNS3_23EffectAuxChannelsConfigEEEE"
    },
    {
     "mangled_component_name":"_ZN7android8hardware5audio6effect4V4_028BsAutomaticGainControlEffect20setAuxChannelsConfigERKNS3_23EffectAuxChannelsConfigE"
    },
    {
     "mangled_component_name":"_ZN7android8hardware5audio6effect4V4_028BsAutomaticGainControlEffect14setAudioSourceENS1_6common4V4_011AudioSourceE"
    },
    {
     "mangled_component_name":"_ZN7android8hardware5audio6effect4V4_028BsAutomaticGainControlEffect7offloadERKNS3_22EffectOffloadParameterE"
    },
    {
     "mangled_component_name":"_ZN7android8hardware5audio6effect4V4_028BsAutomaticGainControlEffect13getDescriptorENSt3__18functionIFvNS3_6ResultERKNS3_16EffectDescriptorEEEE"
    },
    {
     "mangled_component_name":"_ZN7android8hardware5audio6effect4V4_028BsAutomaticGainControlEffect20prepareForProcessingENSt3__18functionIFvNS3_6ResultERKNS0_12MQDescriptorIS7_LNS0_8MQFlavorE1EEEEEE"
    },
    {
     "mangled_component_name":"_ZN7android8hardware5audio6effect4V4_028BsAutomaticGainControlEffect17setProcessBuffersERKNS3_11AudioBufferES7_"
    },
    {
     "mangled_component_name":"_ZN7android8hardware5audio6effect4V4_028BsAutomaticGainControlEffect7commandEjRKNS0_8hidl_vecIhEEjNSt3__18functionIFviS8_EEE"
    },
    {
     "mangled_component_name":"_ZN7android8hardware5audio6effect4V4_028BsAutomaticGainControlEffect12setParameterERKNS0_8hidl_vecIhEES8_"
    },
    {
     "mangled_component_name":"_ZN7android8hardware5audio6effect4V4_028BsAutomaticGainControlEffect12getParameterERKNS0_8hidl_vecIhEEjNSt3__18functionIFvNS3_6ResultES8_EEE"
    },
    {
     "mangled_component_name":"_ZN7android8hardware5audio6effect4V4_028BsAutomaticGainControlEffect29getSupportedConfigsForFeatureEjjjNSt3__18functionIFvNS3_6ResultEjRKNS0_8hidl_vecIhEEEEE"
    },
    {
     "mangled_component_name":"_ZN7android8hardware5audio6effect4V4_028BsAutomaticGainControlEffect26getCurrentConfigForFeatureEjjNSt3__18functionIFvNS3_6ResultERKNS0_8hidl_vecIhEEEEE"
    },
    {
     "mangled_component_name":"_ZN7android8hardware5audio6effect4V4_028BsAutomaticGainControlEffect26setCurrentConfigForFeatureEjRKNS0_8hidl_vecIhEE"
    },
    {
     "mangled_component_name":"_ZN7android8hardware5audio6effect4V4_028BsAutomaticGainControlEffect5closeEv"
    },
    {
     "mangled_component_name":"_ZN7android8hardware5audio6effect4V4_028BsAutomaticGainControlEffect14setTargetLevelEs"
    },
    {
     "mangled_component_name":"_ZN7android8hardware5audio6effect4V4_028BsAutomaticGainControlEffect14getTargetLevelENSt3__18functionIFvNS3_6ResultEsEEE"
    },
    {
     "mangled_component_name":"_ZN7android8hardware5audio6effect4V4_028BsAutomaticGainControlEffect11setCompGainEs"
    },
    {
     "mangled_component_name":"_ZN7android8hardware5audio6effect4V4_028BsAutomaticGainControlEffect11getCompGainENSt3__18functionIFvNS3_6ResultEsEEE"
    },
    {
     "mangled_component_name":"_ZN7android8hardware5audio6effect4V4_028BsAutomaticGainControlEffect17setLimiterEnabledEb"
    },
    {
     "mangled_component_name":"_ZN7android8hardware5audio6effect4V4_028BsAutomaticGainControlEffect16isLimiterEnabledENSt3__18functionIFvNS3_6ResultEbEEE"
    },
    {
     "mangled_component_name":"_ZN7android8hardware5audio6effect4V4_028BsAutomaticGainControlEffect16setAllPropertiesERKNS3_27IAutomaticGainControlEffect13AllPropertiesE"
    },
    {
     "mangled_component_name":"_ZN7android8hardware5audio6effect4V4_028BsAutomaticGainControlEffect16getAllPropertiesENSt3__18functionIFvNS3_6ResultERKNS3_27IAutomaticGainControlEffect13AllPropertiesEEEE"
    },
    {
     "kind":"offset_to_top",
     "component_value":-8
    },
    {
     "kind":"rtti",
     "mangled_component_name":"_ZTIN7android8hardware5audio6effect4V4_028BsAutomaticGainControlEffectE"
    },
    {
     "kind":"complete_dtor_pointer",
     "mangled_component_name":"_ZThn8_N7android8hardware5audio6effect4V4_028BsAutomaticGainControlEffectD1Ev"
    },
    {
     "kind":"deleting_dtor_pointer",
     "mangled_component_name":"_ZThn8_N7android8hardware5audio6effect4V4_028BsAutomaticGainControlEffectD0Ev"
    },
    {
     "kind":"vcall_offset"
    },
    {
     "kind":"vcall_offset"
    },
    {
     "kind":"vcall_offset"
    },
    {
     "kind":"vcall_offset"
    },
    {
     "kind":"vcall_offset",
     "component_value":-120
    },
    {
     "kind":"offset_to_top",
     "component_value":-120
    },
    {
     "kind":"rtti",
     "mangled_component_name":"_ZTIN7android8hardware5audio6effect4V4_028BsAutomaticGainControlEffectE"
    },
    {
     "kind":"complete_dtor_pointer",
     "mangled_component_name":"_ZTv0_n24_N7android8hardware5audio6effect4V4_028BsAutomaticGainControlEffectD1Ev"
    },
    {
     "kind":"deleting_dtor_pointer",
     "mangled_component_name":"_ZTv0_n24_N7android8hardware5audio6effect4V4_028BsAutomaticGainControlEffectD0Ev"
    },
    {
     "mangled_component_name":"_ZN7android7RefBase10onFirstRefEv"
    },
    {
     "mangled_component_name":"_ZN7android7RefBase15onLastStrongRefEPKv"
    },
    {
     "mangled_component_name":"_ZN7android7RefBase20onIncStrongAttemptedEjPKv"
    },
    {
     "mangled_component_name":"_ZN7android7RefBase13onLastWeakRefEPKv"
    }
   ],
   "unique_id":"_ZTSN7android8hardware5audio6effect4V4_028BsAutomaticGainControlEffectE"
  },
  {
   "vtable_components":[
    {
     "kind":"vbase_offset",
     "component_value":200
    },
    {
     "kind":"offset_to_top"
    },
    {
     "kind":"rtti",
     "mangled_component_name":"_ZTIN7android8hardware5audio6effect4V4_030BpHwAutomaticGainControlEffectE"
    },
    {
     "mangled_component_name":"_ZNK7android8hardware5audio6effect4V4_030BpHwAutomaticGainControlEffect8isRemoteEv"
    },
    {
     "mangled_component_name":"_ZN7android8hardware5audio6effect4V4_030BpHwAutomaticGainControlEffect14interfaceChainENSt3__18functionIFvRKNS0_8hidl_vecINS0_11hidl_stringEEEEEE"
    },
    {
     "mangled_component_name":"_ZN7android8hardware5audio6effect4V4_030BpHwAutomaticGainControlEffect5debugERKNS0_11hidl_handleERKNS0_8hidl_vecINS0_11hidl_stringEEE"
    },
    {
     "mangled_component_name":"_ZN7android8hardware5audio6effect4V4_030BpHwAutomaticGainControlEffect19interfaceDescriptorENSt3__18functionIFvRKNS0_11hidl_stringEEEE"
    },
    {
     "mangled_component_name":"_ZN7android8hardware5audio6effect4V4_030BpHwAutomaticGainControlEffect12getHashChainENSt3__18functionIFvRKNS0_8hidl_vecINS0_10hidl_arrayIhLm32EJEEEEEEEE"
    },
    {
     "mangled_component_name":"_ZN7android8hardware5audio6effect4V4_030BpHwAutomaticGainControlEffect21setHALInstrumentationEv"
    },
    {
     "mangled_component_name":"_ZN7android8hardware5audio6effect4V4_030BpHwAutomaticGainControlEffect11linkToDeathERKNS_2spINS0_20hidl_death_recipientEEEm"
    },
    {
     "mangled_component_name":"_ZN7android8hardware5audio6effect4V4_030BpHwAutomaticGainControlEffect4pingEv"
    },
    {
     "mangled_component_name":"_ZN7android8hardware5audio6effect4V4_030BpHwAutomaticGainControlEffect12getDebugInfoENSt3__18functionIFvRKNS_4hidl4base4V1_09DebugInfoEEEE"
    },
    {
     "mangled_component_name":"_ZN7android8hardware5audio6effect4V4_030BpHwAutomaticGainControlEffect21notifySyspropsChangedEv"
    },
    {
     "mangled_component_name":"_ZN7android8hardware5audio6effect4V4_030BpHwAutomaticGainControlEffect13unlinkToDeathERKNS_2spINS0_20hidl_death_recipientEEE"
    },
    {
     "kind":"complete_dtor_pointer",
     "mangled_component_name":"_ZN7android8hardware5audio6effect4V4_030BpHwAutomaticGainControlEffectD1Ev"
    },
    {
     "kind":"deleting_dtor_pointer",
     "mangled_component_name":"_ZN7android8hardware5audio6effect4V4_030BpHwAutomaticGainControlEffectD0Ev"
    },
    {
     "mangled_component_name":"_ZN7android8hardware5audio6effect4V4_030BpHwAutomaticGainControlEffect4initEv"
    },
    {
     "mangled_component_name":"_ZN7android8hardware5audio6effect4V4_030BpHwAutomaticGainControlEffect9setConfigERKNS3_12EffectConfigERKNS_2spINS3_29IEffectBufferProviderCallbackEEESC_"
    },
    {
     "mangled_component_name":"_ZN7android8hardware5audio6effect4V4_030BpHwAutomaticGainControlEffect5resetEv"
    },
    {
     "mangled_component_name":"_ZN7android8hardware5audio6effect4V4_030BpHwAutomaticGainControlEffect6enableEv"
    },
    {
     "mangled_component_name":"_ZN7android8hardware5audio6effect4V4_030BpHwAutomaticGainControlEffect7disableEv"
    },
    {
     "mangled_component_name":"_ZN7android8hardware5audio6effect4V4_030BpHwAutomaticGainControlEffect9setDeviceEj"
    },
    {
     "mangled_component_name":"_ZN7android8hardware5audio6effect4V4_030BpHwAutomaticGainControlEffect15setAndGetVolumeERKNS0_8hidl_vecIjEENSt3__18functionIFvNS3_6ResultES8_EEE"
    },
    {
     "mangled_component_name":"_ZN7android8hardware5audio6effect4V4_030BpHwAutomaticGainControlEffect24volumeChangeNotificationERKNS0_8hidl_vecIjEE"
    },
    {
     "mangled_component_name":"_ZN7android8hardware5audio6effect4V4_030BpHwAutomaticGainControlEffect12setAudioModeENS1_6common4V4_09AudioModeE"
    },
    {
     "mangled_component_name":"_ZN7android8hardware5audio6effect4V4_030BpHwAutomaticGainControlEffect16setConfigReverseERKNS3_12EffectConfigERKNS_2spINS3_29IEffectBufferProviderCallbackEEESC_"
    },
    {
     "mangled_component_name":"_ZN7android8hardware5audio6effect4V4_030BpHwAutomaticGainControlEffect14setInputDeviceEj"
    },
    {
     "mangled_component_name":"_ZN7android8hardware5audio6effect4V4_030BpHwAutomaticGainControlEffect9getConfigENSt3__18functionIFvNS3_6ResultERKNS3_12EffectConfigEEEE"
    },
    {
     "mangled_component_name":"_ZN7android8hardware5audio6effect4V4_030BpHwAutomaticGainControlEffect16getConfigReverseENSt3__18functionIFvNS3_6ResultERKNS3_12EffectConfigEEEE"
    },
    {
     "mangled_component_name":"_ZN7android8hardware5audio6effect4V4_030BpHwAutomaticGainControlEffect30getSupportedAuxChannelsConfigsEjNSt3__18functionIFvNS3_6ResultERKNS0_8hidl_vecINS3_23EffectAuxChannelsConfigEEEEEE"
    },
    {
     "mangled_component_name":"_ZN7android8hardware5audio6effect4V4_030BpHwAutomaticGainControlEffect20getAuxChannelsConfigENSt3__18functionIFvNS3_6ResultERKNS3_23EffectAuxChannelsConfigEEEE"
    },
    {
     "mangled_component_name":"_ZN7android8hardware5audio6effect4V4_030BpHwAutomaticGainControlEffect20setAuxChannelsConfigERKNS3_23EffectAuxChannelsConfigE"
    },
    {
     "mangled_component_name":"_ZN7android8hardware5audio6effect4V4_030BpHwAutomaticGainControlEffect14setAudioSourceENS1_6common4V4_011AudioSourceE"
    },
    {
     "mangled_component_name":"_ZN7android8hardware5audio6effect4V4_030BpHwAutomaticGainControlEffect7offloadERKNS3_22EffectOffloadParameterE"
    },
    {
     "mangled_component_name":"_ZN7android8hardware5audio6effect4V4_030BpHwAutomaticGainControlEffect13getDescriptorENSt3__18functionIFvNS3_6ResultERKNS3_16EffectDescriptorEEEE"
    },
    {
     "mangled_component_name":"_ZN7android8hardware5audio6effect4V4_030BpHwAutomaticGainControlEffect20prepareForProcessingENSt3__18functionIFvNS3_6ResultERKNS0_12MQDescriptorIS7_LNS0_8MQFlavorE1EEEEEE"
    },
    {
     "mangled_component_name":"_ZN7android8hardware5audio6effect4V4_030BpHwAutomaticGainControlEffect17setProcessBuffersERKNS3_11AudioBufferES7_"
    },
    {
     "mangled_component_name":"_ZN7android8hardware5audio6effect4V4_030BpHwAutomaticGainControlEffect7commandEjRKNS0_8hidl_vecIhEEjNSt3__18functionIFviS8_EEE"
    },
    {
     "mangled_component_name":"_ZN7android8hardware5audio6effect4V4_030BpHwAutomaticGainControlEffect12setParameterERKNS0_8hidl_vecIhEES8_"
    },
    {
     "mangled_component_name":"_ZN7android8hardware5audio6effect4V4_030BpHwAutomaticGainControlEffect12getParameterERKNS0_8hidl_vecIhEEjNSt3__18functionIFvNS3_6ResultES8_EEE"
    },
    {
     "mangled_component_name":"_ZN7android8hardware5audio6effect4V4_030BpHwAutomaticGainControlEffect29getSupportedConfigsForFeatureEjjjNSt3__18functionIFvNS3_6ResultEjRKNS0_8hidl_vecIhEEEEE"
    },
    {
     "mangled_component_name":"_ZN7android8hardware5audio6effect4V4_030BpHwAutomaticGainControlEffect26getCurrentConfigForFeatureEjjNSt3__18functionIFvNS3_6ResultERKNS0_8hidl_vecIhEEEEE"
    },
    {
     "mangled_component_name":"_ZN7android8hardware5audio6effect4V4_030BpHwAutomaticGainControlEffect26setCurrentConfigForFeatureEjRKNS0_8hidl_vecIhEE"
    },
    {
     "mangled_component_name":"_ZN7android8hardware5audio6effect4V4_030BpHwAutomaticGainControlEffect5closeEv"
    },
    {
     "mangled_component_name":"_ZN7android8hardware5audio6effect4V4_030BpHwAutomaticGainControlEffect14setTargetLevelEs"
    },
    {
     "mangled_component_name":"_ZN7android8hardware5audio6effect4V4_030BpHwAutomaticGainControlEffect14getTargetLevelENSt3__18functionIFvNS3_6ResultEsEEE"
    },
    {
     "mangled_component_name":"_ZN7android8hardware5audio6effect4V4_030BpHwAutomaticGainControlEffect11setCompGainEs"
    },
    {
     "mangled_component_name":"_ZN7android8hardware5audio6effect4V4_030BpHwAutomaticGainControlEffect11getCompGainENSt3__18functionIFvNS3_6ResultEsEEE"
    },
    {
     "mangled_component_name":"_ZN7android8hardware5audio6effect4V4_030BpHwAutomaticGainControlEffect17setLimiterEnabledEb"
    },
    {
     "mangled_component_name":"_ZN7android8hardware5audio6effect4V4_030BpHwAutomaticGainControlEffect16isLimiterEnabledENSt3__18functionIFvNS3_6ResultEbEEE"
    },
    {
     "mangled_component_name":"_ZN7android8hardware5audio6effect4V4_030BpHwAutomaticGainControlEffect16setAllPropertiesERKNS3_27IAutomaticGainControlEffect13AllPropertiesE"
    },
    {
     "mangled_component_name":"_ZN7android8hardware5audio6effect4V4_030BpHwAutomaticGainControlEffect16getAllPropertiesENSt3__18functionIFvNS3_6ResultERKNS3_27IAutomaticGainControlEffect13AllPropertiesEEEE"
    },
    {
     "mangled_component_name":"_ZN7android8hardware11BpInterfaceINS0_5audio6effect4V4_027IAutomaticGainControlEffectEE10onAsBinderEv"
    },
    {
     "kind":"vbase_offset",
     "component_value":192
    },
    {
     "kind":"offset_to_top",
     "component_value":-8
    },
    {
     "kind":"rtti",
     "mangled_component_name":"_ZTIN7android8hardware5audio6effect4V4_030BpHwAutomaticGainControlEffectE"
    },
    {
     "kind":"complete_dtor_pointer",
     "mangled_component_name":"_ZThn8_N7android8hardware5audio6effect4V4_030BpHwAutomaticGainControlEffectD1Ev"
    },
    {
     "kind":"deleting_dtor_pointer",
     "mangled_component_name":"_ZThn8_N7android8hardware5audio6effect4V4_030BpHwAutomaticGainControlEffectD0Ev"
    },
    {
     "mangled_component_name":"_ZThn8_N7android8hardware11BpInterfaceINS0_5audio6effect4V4_027IAutomaticGainControlEffectEE10onAsBinderEv"
    },
    {
     "kind":"vbase_offset",
     "component_value":184
    },
    {
     "kind":"offset_to_top",
     "component_value":-16
    },
    {
     "kind":"rtti",
     "mangled_component_name":"_ZTIN7android8hardware5audio6effect4V4_030BpHwAutomaticGainControlEffectE"
    },
    {
     "kind":"complete_dtor_pointer",
     "mangled_component_name":"_ZThn16_N7android8hardware5audio6effect4V4_030BpHwAutomaticGainControlEffectD1Ev"
    },
    {
     "kind":"deleting_dtor_pointer",
     "mangled_component_name":"_ZThn16_N7android8hardware5audio6effect4V4_030BpHwAutomaticGainControlEffectD0Ev"
    },
    {
     "mangled_component_name":"_ZN7android8hardware11BpHwRefBase10onFirstRefEv"
    },
    {
     "mangled_component_name":"_ZN7android8hardware11BpHwRefBase15onLastStrongRefEPKv"
    },
    {
     "mangled_component_name":"_ZN7android8hardware11BpHwRefBase20onIncStrongAttemptedEjPKv"
    },
    {
     "kind":"offset_to_top",
     "component_value":-48
    },
    {
     "kind":"rtti",
     "mangled_component_name":"_ZTIN7android8hardware5audio6effect4V4_030BpHwAutomaticGainControlEffectE"
    },
    {
     "kind":"complete_dtor_pointer",
     "mangled_component_name":"_ZThn48_N7android8hardware5audio6effect4V4_030BpHwAutomaticGainControlEffectD1Ev"
    },
    {
     "kind":"deleting_dtor_pointer",
     "mangled_component_name":"_ZThn48_N7android8hardware5audio6effect4V4_030BpHwAutomaticGainControlEffectD0Ev"
    },
    {
     "kind":"vcall_offset"
    },
    {
     "kind":"vcall_offset",
     "component_value":-184
    },
    {
     "kind":"vcall_offset",
     "component_value":-184
    },
    {
     "kind":"vcall_offset",
     "component_value":-184
    },
    {
     "kind":"vcall_offset",
     "component_value":-200
    },
    {
     "kind":"offset_to_top",
     "component_value":-200
    },
    {
     "kind":"rtti",
     "mangled_component_name":"_ZTIN7android8hardware5audio6effect4V4_030BpHwAutomaticGainControlEffectE"
    },
    {
     "kind":"complete_dtor_pointer",
     "mangled_component_name":"_ZTv0_n24_N7android8hardware5audio6effect4V4_030BpHwAutomaticGainControlEffectD1Ev"
    },
    {
     "kind":"deleting_dtor_pointer",
     "mangled_component_name":"_ZTv0_n24_N7android8hardware5audio6effect4V4_030BpHwAutomaticGainControlEffectD0Ev"
    },
    {
     "mangled_component_name":"_ZTv0_n32_N7android8hardware11BpHwRefBase10onFirstRefEv"
    },
    {
     "mangled_component_name":"_ZTv0_n40_N7android8hardware11BpHwRefBase15onLastStrongRefEPKv"
    },
    {
     "mangled_component_name":"_ZTv0_n48_N7android8hardware11BpHwRefBase20onIncStrongAttemptedEjPKv"
    },
    {
     "mangled_component_name":"_ZN7android7RefBase13onLastWeakRefEPKv"
    }
   ],
   "unique_id":"_ZTSN7android8hardware5audio6effect4V4_030BpHwAutomaticGainControlEffectE"
  },
  {
   "vtable_components":[
    {
     "kind":"vbase_offset",
     "component_value":120
    },
    {
     "kind":"offset_to_top"
    },
    {
     "kind":"rtti",
     "mangled_component_name":"_ZTIN7android8hardware5audio6effect4V4_030BsEffectBufferProviderCallbackE"
    },
    {
     "mangled_component_name":"_ZNK7android8hardware5audio6effect4V4_029IEffectBufferProviderCallback8isRemoteEv"
    },
    {
     "mangled_component_name":"_ZN7android8hardware5audio6effect4V4_030BsEffectBufferProviderCallback14interfaceChainENSt3__18functionIFvRKNS0_8hidl_vecINS0_11hidl_stringEEEEEE"
    },
    {
     "mangled_component_name":"_ZN7android8hardware5audio6effect4V4_030BsEffectBufferProviderCallback5debugERKNS0_11hidl_handleERKNS0_8hidl_vecINS0_11hidl_stringEEE"
    },
    {
     "mangled_component_name":"_ZN7android8hardware5audio6effect4V4_030BsEffectBufferProviderCallback19interfaceDescriptorENSt3__18functionIFvRKNS0_11hidl_stringEEEE"
    },
    {
     "mangled_component_name":"_ZN7android8hardware5audio6effect4V4_030BsEffectBufferProviderCallback12getHashChainENSt3__18functionIFvRKNS0_8hidl_vecINS0_10hidl_arrayIhLm32EJEEEEEEEE"
    },
    {
     "mangled_component_name":"_ZN7android8hardware5audio6effect4V4_030BsEffectBufferProviderCallback21setHALInstrumentationEv"
    },
    {
     "mangled_component_name":"_ZN7android8hardware5audio6effect4V4_030BsEffectBufferProviderCallback11linkToDeathERKNS_2spINS0_20hidl_death_recipientEEEm"
    },
    {
     "mangled_component_name":"_ZN7android8hardware5audio6effect4V4_030BsEffectBufferProviderCallback4pingEv"
    },
    {
     "mangled_component_name":"_ZN7android8hardware5audio6effect4V4_030BsEffectBufferProviderCallback12getDebugInfoENSt3__18functionIFvRKNS_4hidl4base4V1_09DebugInfoEEEE"
    },
    {
     "mangled_component_name":"_ZN7android8hardware5audio6effect4V4_030BsEffectBufferProviderCallback21notifySyspropsChangedEv"
    },
    {
     "mangled_component_name":"_ZN7android8hardware5audio6effect4V4_030BsEffectBufferProviderCallback13unlinkToDeathERKNS_2spINS0_20hidl_death_recipientEEE"
    },
    {
     "kind":"complete_dtor_pointer",
     "mangled_component_name":"_ZN7android8hardware5audio6effect4V4_030BsEffectBufferProviderCallbackD1Ev"
    },
    {
     "kind":"deleting_dtor_pointer",
     "mangled_component_name":"_ZN7android8hardware5audio6effect4V4_030BsEffectBufferProviderCallbackD0Ev"
    },
    {
     "mangled_component_name":"_ZN7android8hardware5audio6effect4V4_030BsEffectBufferProviderCallback9getBufferENSt3__18functionIFvRKNS3_11AudioBufferEEEE"
    },
    {
     "mangled_component_name":"_ZN7android8hardware5audio6effect4V4_030BsEffectBufferProviderCallback9putBufferERKNS3_11AudioBufferE"
    },
    {
     "kind":"offset_to_top",
     "component_value":-8
    },
    {
     "kind":"rtti",
     "mangled_component_name":"_ZTIN7android8hardware5audio6effect4V4_030BsEffectBufferProviderCallbackE"
    },
    {
     "kind":"complete_dtor_pointer",
     "mangled_component_name":"_ZThn8_N7android8hardware5audio6effect4V4_030BsEffectBufferProviderCallbackD1Ev"
    },
    {
     "kind":"deleting_dtor_pointer",
     "mangled_component_name":"_ZThn8_N7android8hardware5audio6effect4V4_030BsEffectBufferProviderCallbackD0Ev"
    },
    {
     "kind":"vcall_offset"
    },
    {
     "kind":"vcall_offset"
    },
    {
     "kind":"vcall_offset"
    },
    {
     "kind":"vcall_offset"
    },
    {
     "kind":"vcall_offset",
     "component_value":-120
    },
    {
     "kind":"offset_to_top",
     "component_value":-120
    },
    {
     "kind":"rtti",
     "mangled_component_name":"_ZTIN7android8hardware5audio6effect4V4_030BsEffectBufferProviderCallbackE"
    },
    {
     "kind":"complete_dtor_pointer",
     "mangled_component_name":"_ZTv0_n24_N7android8hardware5audio6effect4V4_030BsEffectBufferProviderCallbackD1Ev"
    },
    {
     "kind":"deleting_dtor_pointer",
     "mangled_component_name":"_ZTv0_n24_N7android8hardware5audio6effect4V4_030BsEffectBufferProviderCallbackD0Ev"
    },
    {
     "mangled_component_name":"_ZN7android7RefBase10onFirstRefEv"
    },
    {
     "mangled_component_name":"_ZN7android7RefBase15onLastStrongRefEPKv"
    },
    {
     "mangled_component_name":"_ZN7android7RefBase20onIncStrongAttemptedEjPKv"
    },
    {
     "mangled_component_name":"_ZN7android7RefBase13onLastWeakRefEPKv"
    }
   ],
   "unique_id":"_ZTSN7android8hardware5audio6effect4V4_030BsEffectBufferProviderCallbackE"
  },
  {
   "vtable_components":[
    {
     "kind":"vbase_offset",
     "component_value":8
    },
    {
     "kind":"offset_to_top"
    },
    {
     "kind":"rtti",
     "mangled_component_name":"_ZTIN7android8hardware5audio6effect4V4_015IEffectsFactoryE"
    },
    {
     "mangled_component_name":"_ZNK7android8hardware5audio6effect4V4_015IEffectsFactory8isRemoteEv"
    },
    {
     "mangled_component_name":"_ZN7android8hardware5audio6effect4V4_015IEffectsFactory14interfaceChainENSt3__18functionIFvRKNS0_8hidl_vecINS0_11hidl_stringEEEEEE"
    },
    {
     "mangled_component_name":"_ZN7android8hardware5audio6effect4V4_015IEffectsFactory5debugERKNS0_11hidl_handleERKNS0_8hidl_vecINS0_11hidl_stringEEE"
    },
    {
     "mangled_component_name":"_ZN7android8hardware5audio6effect4V4_015IEffectsFactory19interfaceDescriptorENSt3__18functionIFvRKNS0_11hidl_stringEEEE"
    },
    {
     "mangled_component_name":"_ZN7android8hardware5audio6effect4V4_015IEffectsFactory12getHashChainENSt3__18functionIFvRKNS0_8hidl_vecINS0_10hidl_arrayIhLm32EJEEEEEEEE"
    },
    {
     "mangled_component_name":"_ZN7android8hardware5audio6effect4V4_015IEffectsFactory21setHALInstrumentationEv"
    },
    {
     "mangled_component_name":"_ZN7android8hardware5audio6effect4V4_015IEffectsFactory11linkToDeathERKNS_2spINS0_20hidl_death_recipientEEEm"
    },
    {
     "mangled_component_name":"_ZN7android8hardware5audio6effect4V4_015IEffectsFactory4pingEv"
    },
    {
     "mangled_component_name":"_ZN7android8hardware5audio6effect4V4_015IEffectsFactory12getDebugInfoENSt3__18functionIFvRKNS_4hidl4base4V1_09DebugInfoEEEE"
    },
    {
     "mangled_component_name":"_ZN7android8hardware5audio6effect4V4_015IEffectsFactory21notifySyspropsChangedEv"
    },
    {
     "mangled_component_name":"_ZN7android8hardware5audio6effect4V4_015IEffectsFactory13unlinkToDeathERKNS_2spINS0_20hidl_death_recipientEEE"
    },
    {
     "kind":"complete_dtor_pointer",
     "mangled_component_name":"_ZN7android8hardware5audio6effect4V4_015IEffectsFactoryD1Ev"
    },
    {
     "kind":"deleting_dtor_pointer",
     "mangled_component_name":"_ZN7android8hardware5audio6effect4V4_015IEffectsFactoryD0Ev"
    },
    {
     "is_pure":true,
     "mangled_component_name":"_ZN7android8hardware5audio6effect4V4_015IEffectsFactory17getAllDescriptorsENSt3__18functionIFvNS3_6ResultERKNS0_8hidl_vecINS3_16EffectDescriptorEEEEEE"
    },
    {
     "is_pure":true,
     "mangled_component_name":"_ZN7android8hardware5audio6effect4V4_015IEffectsFactory13getDescriptorERKNS1_6common4V4_04UuidENSt3__18functionIFvNS3_6ResultERKNS3_16EffectDescriptorEEEE"
    },
    {
     "is_pure":true,
     "mangled_component_name":"_ZN7android8hardware5audio6effect4V4_015IEffectsFactory12createEffectERKNS1_6common4V4_04UuidEiiNSt3__18functionIFvNS3_6ResultERKNS_2spINS3_7IEffectEEEmEEE"
    },
    {
     "kind":"vcall_offset"
    },
    {
     "kind":"vcall_offset"
    },
    {
     "kind":"vcall_offset"
    },
    {
     "kind":"vcall_offset"
    },
    {
     "kind":"vcall_offset",
     "component_value":-8
    },
    {
     "kind":"offset_to_top",
     "component_value":-8
    },
    {
     "kind":"rtti",
     "mangled_component_name":"_ZTIN7android8hardware5audio6effect4V4_015IEffectsFactoryE"
    },
    {
     "kind":"complete_dtor_pointer",
     "mangled_component_name":"_ZTv0_n24_N7android8hardware5audio6effect4V4_015IEffectsFactoryD1Ev"
    },
    {
     "kind":"deleting_dtor_pointer",
     "mangled_component_name":"_ZTv0_n24_N7android8hardware5audio6effect4V4_015IEffectsFactoryD0Ev"
    },
    {
     "mangled_component_name":"_ZN7android7RefBase10onFirstRefEv"
    },
    {
     "mangled_component_name":"_ZN7android7RefBase15onLastStrongRefEPKv"
    },
    {
     "mangled_component_name":"_ZN7android7RefBase20onIncStrongAttemptedEjPKv"
    },
    {
     "mangled_component_name":"_ZN7android7RefBase13onLastWeakRefEPKv"
    }
   ],
   "unique_id":"_ZTSN7android8hardware5audio6effect4V4_015IEffectsFactoryE"
  },
  {
   "vtable_components":[
    {
     "kind":"vbase_offset",
     "component_value":136
    },
    {
     "kind":"offset_to_top"
    },
    {
     "kind":"rtti",
     "mangled_component_name":"_ZTIN7android8hardware5audio6effect4V4_018BnHwEffectsFactoryE"
    },
    {
     "mangled_component_name":"_ZN7android8hardware9BHwBinder8transactEjRKNS0_6ParcelEPS2_jNSt3__18functionIFvRS2_EEE"
    },
    {
     "mangled_component_name":"_ZN7android8hardware9BHwBinder11linkToDeathERKNS_2spINS0_7IBinder14DeathRecipientEEEPvj"
    },
    {
     "mangled_component_name":"_ZN7android8hardware9BHwBinder13unlinkToDeathERKNS_2wpINS0_7IBinder14DeathRecipientEEEPvjPS5_"
    },
    {
     "mangled_component_name":"_ZNK7android8hardware7IBinder13checkSubclassEPKv"
    },
    {
     "mangled_component_name":"_ZN7android8hardware9BHwBinder12attachObjectEPKvPvS4_PFvS3_S4_S4_E"
    },
    {
     "mangled_component_name":"_ZNK7android8hardware9BHwBinder10findObjectEPKv"
    },
    {
     "mangled_component_name":"_ZN7android8hardware9BHwBinder12detachObjectEPKv"
    },
    {
     "mangled_component_name":"_ZN7android8hardware9BHwBinder11localBinderEv"
    },
    {
     "mangled_component_name":"_ZN7android8hardware7IBinder12remoteBinderEv"
    },
    {
     "kind":"complete_dtor_pointer",
     "mangled_component_name":"_ZN7android8hardware5audio6effect4V4_018BnHwEffectsFactoryD1Ev"
    },
    {
     "kind":"deleting_dtor_pointer",
     "mangled_component_name":"_ZN7android8hardware5audio6effect4V4_018BnHwEffectsFactoryD0Ev"
    },
    {
     "mangled_component_name":"_ZN7android8hardware5audio6effect4V4_018BnHwEffectsFactory10onTransactEjRKNS0_6ParcelEPS5_jNSt3__18functionIFvRS5_EEE"
    },
    {
     "kind":"offset_to_top",
     "component_value":-32
    },
    {
     "kind":"rtti",
     "mangled_component_name":"_ZTIN7android8hardware5audio6effect4V4_018BnHwEffectsFactoryE"
    },
    {
     "kind":"complete_dtor_pointer",
     "mangled_component_name":"_ZThn32_N7android8hardware5audio6effect4V4_018BnHwEffectsFactoryD1Ev"
    },
    {
     "kind":"deleting_dtor_pointer",
     "mangled_component_name":"_ZThn32_N7android8hardware5audio6effect4V4_018BnHwEffectsFactoryD0Ev"
    },
    {
     "kind":"vcall_offset"
    },
    {
     "kind":"vcall_offset"
    },
    {
     "kind":"vcall_offset"
    },
    {
     "kind":"vcall_offset"
    },
    {
     "kind":"vcall_offset",
     "component_value":-136
    },
    {
     "kind":"offset_to_top",
     "component_value":-136
    },
    {
     "kind":"rtti",
     "mangled_component_name":"_ZTIN7android8hardware5audio6effect4V4_018BnHwEffectsFactoryE"
    },
    {
     "kind":"complete_dtor_pointer",
     "mangled_component_name":"_ZTv0_n24_N7android8hardware5audio6effect4V4_018BnHwEffectsFactoryD1Ev"
    },
    {
     "kind":"deleting_dtor_pointer",
     "mangled_component_name":"_ZTv0_n24_N7android8hardware5audio6effect4V4_018BnHwEffectsFactoryD0Ev"
    },
    {
     "mangled_component_name":"_ZN7android7RefBase10onFirstRefEv"
    },
    {
     "mangled_component_name":"_ZN7android7RefBase15onLastStrongRefEPKv"
    },
    {
     "mangled_component_name":"_ZN7android7RefBase20onIncStrongAttemptedEjPKv"
    },
    {
     "mangled_component_name":"_ZN7android7RefBase13onLastWeakRefEPKv"
    }
   ],
   "unique_id":"_ZTSN7android8hardware5audio6effect4V4_018BnHwEffectsFactoryE"
  },
  {
   "vtable_components":[
    {
     "kind":"vbase_offset",
     "component_value":120
    },
    {
     "kind":"offset_to_top"
    },
    {
     "kind":"rtti",
     "mangled_component_name":"_ZTIN7android8hardware5audio6effect4V4_016BsEffectsFactoryE"
    },
    {
     "mangled_component_name":"_ZNK7android8hardware5audio6effect4V4_015IEffectsFactory8isRemoteEv"
    },
    {
     "mangled_component_name":"_ZN7android8hardware5audio6effect4V4_016BsEffectsFactory14interfaceChainENSt3__18functionIFvRKNS0_8hidl_vecINS0_11hidl_stringEEEEEE"
    },
    {
     "mangled_component_name":"_ZN7android8hardware5audio6effect4V4_016BsEffectsFactory5debugERKNS0_11hidl_handleERKNS0_8hidl_vecINS0_11hidl_stringEEE"
    },
    {
     "mangled_component_name":"_ZN7android8hardware5audio6effect4V4_016BsEffectsFactory19interfaceDescriptorENSt3__18functionIFvRKNS0_11hidl_stringEEEE"
    },
    {
     "mangled_component_name":"_ZN7android8hardware5audio6effect4V4_016BsEffectsFactory12getHashChainENSt3__18functionIFvRKNS0_8hidl_vecINS0_10hidl_arrayIhLm32EJEEEEEEEE"
    },
    {
     "mangled_component_name":"_ZN7android8hardware5audio6effect4V4_016BsEffectsFactory21setHALInstrumentationEv"
    },
    {
     "mangled_component_name":"_ZN7android8hardware5audio6effect4V4_016BsEffectsFactory11linkToDeathERKNS_2spINS0_20hidl_death_recipientEEEm"
    },
    {
     "mangled_component_name":"_ZN7android8hardware5audio6effect4V4_016BsEffectsFactory4pingEv"
    },
    {
     "mangled_component_name":"_ZN7android8hardware5audio6effect4V4_016BsEffectsFactory12getDebugInfoENSt3__18functionIFvRKNS_4hidl4base4V1_09DebugInfoEEEE"
    },
    {
     "mangled_component_name":"_ZN7android8hardware5audio6effect4V4_016BsEffectsFactory21notifySyspropsChangedEv"
    },
    {
     "mangled_component_name":"_ZN7android8hardware5audio6effect4V4_016BsEffectsFactory13unlinkToDeathERKNS_2spINS0_20hidl_death_recipientEEE"
    },
    {
     "kind":"complete_dtor_pointer",
     "mangled_component_name":"_ZN7android8hardware5audio6effect4V4_016BsEffectsFactoryD1Ev"
    },
    {
     "kind":"deleting_dtor_pointer",
     "mangled_component_name":"_ZN7android8hardware5audio6effect4V4_016BsEffectsFactoryD0Ev"
    },
    {
     "mangled_component_name":"_ZN7android8hardware5audio6effect4V4_016BsEffectsFactory17getAllDescriptorsENSt3__18functionIFvNS3_6ResultERKNS0_8hidl_vecINS3_16EffectDescriptorEEEEEE"
    },
    {
     "mangled_component_name":"_ZN7android8hardware5audio6effect4V4_016BsEffectsFactory13getDescriptorERKNS1_6common4V4_04UuidENSt3__18functionIFvNS3_6ResultERKNS3_16EffectDescriptorEEEE"
    },
    {
     "mangled_component_name":"_ZN7android8hardware5audio6effect4V4_016BsEffectsFactory12createEffectERKNS1_6common4V4_04UuidEiiNSt3__18functionIFvNS3_6ResultERKNS_2spINS3_7IEffectEEEmEEE"
    },
    {
     "kind":"offset_to_top",
     "component_value":-8
    },
    {
     "kind":"rtti",
     "mangled_component_name":"_ZTIN7android8hardware5audio6effect4V4_016BsEffectsFactoryE"
    },
    {
     "kind":"complete_dtor_pointer",
     "mangled_component_name":"_ZThn8_N7android8hardware5audio6effect4V4_016BsEffectsFactoryD1Ev"
    },
    {
     "kind":"deleting_dtor_pointer",
     "mangled_component_name":"_ZThn8_N7android8hardware5audio6effect4V4_016BsEffectsFactoryD0Ev"
    },
    {
     "kind":"vcall_offset"
    },
    {
     "kind":"vcall_offset"
    },
    {
     "kind":"vcall_offset"
    },
    {
     "kind":"vcall_offset"
    },
    {
     "kind":"vcall_offset",
     "component_value":-120
    },
    {
     "kind":"offset_to_top",
     "component_value":-120
    },
    {
     "kind":"rtti",
     "mangled_component_name":"_ZTIN7android8hardware5audio6effect4V4_016BsEffectsFactoryE"
    },
    {
     "kind":"complete_dtor_pointer",
     "mangled_component_name":"_ZTv0_n24_N7android8hardware5audio6effect4V4_016BsEffectsFactoryD1Ev"
    },
    {
     "kind":"deleting_dtor_pointer",
     "mangled_component_name":"_ZTv0_n24_N7android8hardware5audio6effect4V4_016BsEffectsFactoryD0Ev"
    },
    {
     "mangled_component_name":"_ZN7android7RefBase10onFirstRefEv"
    },
    {
     "mangled_component_name":"_ZN7android7RefBase15onLastStrongRefEPKv"
    },
    {
     "mangled_component_name":"_ZN7android7RefBase20onIncStrongAttemptedEjPKv"
    },
    {
     "mangled_component_name":"_ZN7android7RefBase13onLastWeakRefEPKv"
    }
   ],
   "unique_id":"_ZTSN7android8hardware5audio6effect4V4_016BsEffectsFactoryE"
  },
  {
   "vtable_components":[
    {
     "kind":"vbase_offset",
     "component_value":200
    },
    {
     "kind":"offset_to_top"
    },
    {
     "kind":"rtti",
     "mangled_component_name":"_ZTIN7android8hardware5audio6effect4V4_018BpHwEffectsFactoryE"
    },
    {
     "mangled_component_name":"_ZNK7android8hardware5audio6effect4V4_018BpHwEffectsFactory8isRemoteEv"
    },
    {
     "mangled_component_name":"_ZN7android8hardware5audio6effect4V4_018BpHwEffectsFactory14interfaceChainENSt3__18functionIFvRKNS0_8hidl_vecINS0_11hidl_stringEEEEEE"
    },
    {
     "mangled_component_name":"_ZN7android8hardware5audio6effect4V4_018BpHwEffectsFactory5debugERKNS0_11hidl_handleERKNS0_8hidl_vecINS0_11hidl_stringEEE"
    },
    {
     "mangled_component_name":"_ZN7android8hardware5audio6effect4V4_018BpHwEffectsFactory19interfaceDescriptorENSt3__18functionIFvRKNS0_11hidl_stringEEEE"
    },
    {
     "mangled_component_name":"_ZN7android8hardware5audio6effect4V4_018BpHwEffectsFactory12getHashChainENSt3__18functionIFvRKNS0_8hidl_vecINS0_10hidl_arrayIhLm32EJEEEEEEEE"
    },
    {
     "mangled_component_name":"_ZN7android8hardware5audio6effect4V4_018BpHwEffectsFactory21setHALInstrumentationEv"
    },
    {
     "mangled_component_name":"_ZN7android8hardware5audio6effect4V4_018BpHwEffectsFactory11linkToDeathERKNS_2spINS0_20hidl_death_recipientEEEm"
    },
    {
     "mangled_component_name":"_ZN7android8hardware5audio6effect4V4_018BpHwEffectsFactory4pingEv"
    },
    {
     "mangled_component_name":"_ZN7android8hardware5audio6effect4V4_018BpHwEffectsFactory12getDebugInfoENSt3__18functionIFvRKNS_4hidl4base4V1_09DebugInfoEEEE"
    },
    {
     "mangled_component_name":"_ZN7android8hardware5audio6effect4V4_018BpHwEffectsFactory21notifySyspropsChangedEv"
    },
    {
     "mangled_component_name":"_ZN7android8hardware5audio6effect4V4_018BpHwEffectsFactory13unlinkToDeathERKNS_2spINS0_20hidl_death_recipientEEE"
    },
    {
     "kind":"complete_dtor_pointer",
     "mangled_component_name":"_ZN7android8hardware5audio6effect4V4_018BpHwEffectsFactoryD1Ev"
    },
    {
     "kind":"deleting_dtor_pointer",
     "mangled_component_name":"_ZN7android8hardware5audio6effect4V4_018BpHwEffectsFactoryD0Ev"
    },
    {
     "mangled_component_name":"_ZN7android8hardware5audio6effect4V4_018BpHwEffectsFactory17getAllDescriptorsENSt3__18functionIFvNS3_6ResultERKNS0_8hidl_vecINS3_16EffectDescriptorEEEEEE"
    },
    {
     "mangled_component_name":"_ZN7android8hardware5audio6effect4V4_018BpHwEffectsFactory13getDescriptorERKNS1_6common4V4_04UuidENSt3__18functionIFvNS3_6ResultERKNS3_16EffectDescriptorEEEE"
    },
    {
     "mangled_component_name":"_ZN7android8hardware5audio6effect4V4_018BpHwEffectsFactory12createEffectERKNS1_6common4V4_04UuidEiiNSt3__18functionIFvNS3_6ResultERKNS_2spINS3_7IEffectEEEmEEE"
    },
    {
     "mangled_component_name":"_ZN7android8hardware11BpInterfaceINS0_5audio6effect4V4_015IEffectsFactoryEE10onAsBinderEv"
    },
    {
     "kind":"vbase_offset",
     "component_value":192
    },
    {
     "kind":"offset_to_top",
     "component_value":-8
    },
    {
     "kind":"rtti",
     "mangled_component_name":"_ZTIN7android8hardware5audio6effect4V4_018BpHwEffectsFactoryE"
    },
    {
     "kind":"complete_dtor_pointer",
     "mangled_component_name":"_ZThn8_N7android8hardware5audio6effect4V4_018BpHwEffectsFactoryD1Ev"
    },
    {
     "kind":"deleting_dtor_pointer",
     "mangled_component_name":"_ZThn8_N7android8hardware5audio6effect4V4_018BpHwEffectsFactoryD0Ev"
    },
    {
     "mangled_component_name":"_ZThn8_N7android8hardware11BpInterfaceINS0_5audio6effect4V4_015IEffectsFactoryEE10onAsBinderEv"
    },
    {
     "kind":"vbase_offset",
     "component_value":184
    },
    {
     "kind":"offset_to_top",
     "component_value":-16
    },
    {
     "kind":"rtti",
     "mangled_component_name":"_ZTIN7android8hardware5audio6effect4V4_018BpHwEffectsFactoryE"
    },
    {
     "kind":"complete_dtor_pointer",
     "mangled_component_name":"_ZThn16_N7android8hardware5audio6effect4V4_018BpHwEffectsFactoryD1Ev"
    },
    {
     "kind":"deleting_dtor_pointer",
     "mangled_component_name":"_ZThn16_N7android8hardware5audio6effect4V4_018BpHwEffectsFactoryD0Ev"
    },
    {
     "mangled_component_name":"_ZN7android8hardware11BpHwRefBase10onFirstRefEv"
    },
    {
     "mangled_component_name":"_ZN7android8hardware11BpHwRefBase15onLastStrongRefEPKv"
    },
    {
     "mangled_component_name":"_ZN7android8hardware11BpHwRefBase20onIncStrongAttemptedEjPKv"
    },
    {
     "kind":"offset_to_top",
     "component_value":-48
    },
    {
     "kind":"rtti",
     "mangled_component_name":"_ZTIN7android8hardware5audio6effect4V4_018BpHwEffectsFactoryE"
    },
    {
     "kind":"complete_dtor_pointer",
     "mangled_component_name":"_ZThn48_N7android8hardware5audio6effect4V4_018BpHwEffectsFactoryD1Ev"
    },
    {
     "kind":"deleting_dtor_pointer",
     "mangled_component_name":"_ZThn48_N7android8hardware5audio6effect4V4_018BpHwEffectsFactoryD0Ev"
    },
    {
     "kind":"vcall_offset"
    },
    {
     "kind":"vcall_offset",
     "component_value":-184
    },
    {
     "kind":"vcall_offset",
     "component_value":-184
    },
    {
     "kind":"vcall_offset",
     "component_value":-184
    },
    {
     "kind":"vcall_offset",
     "component_value":-200
    },
    {
     "kind":"offset_to_top",
     "component_value":-200
    },
    {
     "kind":"rtti",
     "mangled_component_name":"_ZTIN7android8hardware5audio6effect4V4_018BpHwEffectsFactoryE"
    },
    {
     "kind":"complete_dtor_pointer",
     "mangled_component_name":"_ZTv0_n24_N7android8hardware5audio6effect4V4_018BpHwEffectsFactoryD1Ev"
    },
    {
     "kind":"deleting_dtor_pointer",
     "mangled_component_name":"_ZTv0_n24_N7android8hardware5audio6effect4V4_018BpHwEffectsFactoryD0Ev"
    },
    {
     "mangled_component_name":"_ZTv0_n32_N7android8hardware11BpHwRefBase10onFirstRefEv"
    },
    {
     "mangled_component_name":"_ZTv0_n40_N7android8hardware11BpHwRefBase15onLastStrongRefEPKv"
    },
    {
     "mangled_component_name":"_ZTv0_n48_N7android8hardware11BpHwRefBase20onIncStrongAttemptedEjPKv"
    },
    {
     "mangled_component_name":"_ZN7android7RefBase13onLastWeakRefEPKv"
    }
   ],
   "unique_id":"_ZTSN7android8hardware5audio6effect4V4_018BpHwEffectsFactoryE"
  },
  {
   "vtable_components":[
    {
     "kind":"vbase_offset",
     "component_value":8
    },
    {
     "kind":"offset_to_top"
    },
    {
     "kind":"rtti",
     "mangled_component_name":"_ZTIN7android8hardware5audio6effect4V4_026IEnvironmentalReverbEffectE"
    },
    {
     "mangled_component_name":"_ZNK7android8hardware5audio6effect4V4_026IEnvironmentalReverbEffect8isRemoteEv"
    },
    {
     "mangled_component_name":"_ZN7android8hardware5audio6effect4V4_026IEnvironmentalReverbEffect14interfaceChainENSt3__18functionIFvRKNS0_8hidl_vecINS0_11hidl_stringEEEEEE"
    },
    {
     "mangled_component_name":"_ZN7android8hardware5audio6effect4V4_026IEnvironmentalReverbEffect5debugERKNS0_11hidl_handleERKNS0_8hidl_vecINS0_11hidl_stringEEE"
    },
    {
     "mangled_component_name":"_ZN7android8hardware5audio6effect4V4_026IEnvironmentalReverbEffect19interfaceDescriptorENSt3__18functionIFvRKNS0_11hidl_stringEEEE"
    },
    {
     "mangled_component_name":"_ZN7android8hardware5audio6effect4V4_026IEnvironmentalReverbEffect12getHashChainENSt3__18functionIFvRKNS0_8hidl_vecINS0_10hidl_arrayIhLm32EJEEEEEEEE"
    },
    {
     "mangled_component_name":"_ZN7android8hardware5audio6effect4V4_026IEnvironmentalReverbEffect21setHALInstrumentationEv"
    },
    {
     "mangled_component_name":"_ZN7android8hardware5audio6effect4V4_026IEnvironmentalReverbEffect11linkToDeathERKNS_2spINS0_20hidl_death_recipientEEEm"
    },
    {
     "mangled_component_name":"_ZN7android8hardware5audio6effect4V4_026IEnvironmentalReverbEffect4pingEv"
    },
    {
     "mangled_component_name":"_ZN7android8hardware5audio6effect4V4_026IEnvironmentalReverbEffect12getDebugInfoENSt3__18functionIFvRKNS_4hidl4base4V1_09DebugInfoEEEE"
    },
    {
     "mangled_component_name":"_ZN7android8hardware5audio6effect4V4_026IEnvironmentalReverbEffect21notifySyspropsChangedEv"
    },
    {
     "mangled_component_name":"_ZN7android8hardware5audio6effect4V4_026IEnvironmentalReverbEffect13unlinkToDeathERKNS_2spINS0_20hidl_death_recipientEEE"
    },
    {
     "kind":"complete_dtor_pointer",
     "mangled_component_name":"_ZN7android8hardware5audio6effect4V4_026IEnvironmentalReverbEffectD1Ev"
    },
    {
     "kind":"deleting_dtor_pointer",
     "mangled_component_name":"_ZN7android8hardware5audio6effect4V4_026IEnvironmentalReverbEffectD0Ev"
    },
    {
     "is_pure":true,
     "mangled_component_name":"_ZN7android8hardware5audio6effect4V4_026IEnvironmentalReverbEffect4initEv"
    },
    {
     "is_pure":true,
     "mangled_component_name":"_ZN7android8hardware5audio6effect4V4_026IEnvironmentalReverbEffect9setConfigERKNS3_12EffectConfigERKNS_2spINS3_29IEffectBufferProviderCallbackEEESC_"
    },
    {
     "is_pure":true,
     "mangled_component_name":"_ZN7android8hardware5audio6effect4V4_026IEnvironmentalReverbEffect5resetEv"
    },
    {
     "is_pure":true,
     "mangled_component_name":"_ZN7android8hardware5audio6effect4V4_026IEnvironmentalReverbEffect6enableEv"
    },
    {
     "is_pure":true,
     "mangled_component_name":"_ZN7android8hardware5audio6effect4V4_026IEnvironmentalReverbEffect7disableEv"
    },
    {
     "is_pure":true,
     "mangled_component_name":"_ZN7android8hardware5audio6effect4V4_026IEnvironmentalReverbEffect9setDeviceEj"
    },
    {
     "is_pure":true,
     "mangled_component_name":"_ZN7android8hardware5audio6effect4V4_026IEnvironmentalReverbEffect15setAndGetVolumeERKNS0_8hidl_vecIjEENSt3__18functionIFvNS3_6ResultES8_EEE"
    },
    {
     "is_pure":true,
     "mangled_component_name":"_ZN7android8hardware5audio6effect4V4_026IEnvironmentalReverbEffect24volumeChangeNotificationERKNS0_8hidl_vecIjEE"
    },
    {
     "is_pure":true,
     "mangled_component_name":"_ZN7android8hardware5audio6effect4V4_026IEnvironmentalReverbEffect12setAudioModeENS1_6common4V4_09AudioModeE"
    },
    {
     "is_pure":true,
     "mangled_component_name":"_ZN7android8hardware5audio6effect4V4_026IEnvironmentalReverbEffect16setConfigReverseERKNS3_12EffectConfigERKNS_2spINS3_29IEffectBufferProviderCallbackEEESC_"
    },
    {
     "is_pure":true,
     "mangled_component_name":"_ZN7android8hardware5audio6effect4V4_026IEnvironmentalReverbEffect14setInputDeviceEj"
    },
    {
     "is_pure":true,
     "mangled_component_name":"_ZN7android8hardware5audio6effect4V4_026IEnvironmentalReverbEffect9getConfigENSt3__18functionIFvNS3_6ResultERKNS3_12EffectConfigEEEE"
    },
    {
     "is_pure":true,
     "mangled_component_name":"_ZN7android8hardware5audio6effect4V4_026IEnvironmentalReverbEffect16getConfigReverseENSt3__18functionIFvNS3_6ResultERKNS3_12EffectConfigEEEE"
    },
    {
     "is_pure":true,
     "mangled_component_name":"_ZN7android8hardware5audio6effect4V4_026IEnvironmentalReverbEffect30getSupportedAuxChannelsConfigsEjNSt3__18functionIFvNS3_6ResultERKNS0_8hidl_vecINS3_23EffectAuxChannelsConfigEEEEEE"
    },
    {
     "is_pure":true,
     "mangled_component_name":"_ZN7android8hardware5audio6effect4V4_026IEnvironmentalReverbEffect20getAuxChannelsConfigENSt3__18functionIFvNS3_6ResultERKNS3_23EffectAuxChannelsConfigEEEE"
    },
    {
     "is_pure":true,
     "mangled_component_name":"_ZN7android8hardware5audio6effect4V4_026IEnvironmentalReverbEffect20setAuxChannelsConfigERKNS3_23EffectAuxChannelsConfigE"
    },
    {
     "is_pure":true,
     "mangled_component_name":"_ZN7android8hardware5audio6effect4V4_026IEnvironmentalReverbEffect14setAudioSourceENS1_6common4V4_011AudioSourceE"
    },
    {
     "is_pure":true,
     "mangled_component_name":"_ZN7android8hardware5audio6effect4V4_026IEnvironmentalReverbEffect7offloadERKNS3_22EffectOffloadParameterE"
    },
    {
     "is_pure":true,
     "mangled_component_name":"_ZN7android8hardware5audio6effect4V4_026IEnvironmentalReverbEffect13getDescriptorENSt3__18functionIFvNS3_6ResultERKNS3_16EffectDescriptorEEEE"
    },
    {
     "is_pure":true,
     "mangled_component_name":"_ZN7android8hardware5audio6effect4V4_026IEnvironmentalReverbEffect20prepareForProcessingENSt3__18functionIFvNS3_6ResultERKNS0_12MQDescriptorIS7_LNS0_8MQFlavorE1EEEEEE"
    },
    {
     "is_pure":true,
     "mangled_component_name":"_ZN7android8hardware5audio6effect4V4_026IEnvironmentalReverbEffect17setProcessBuffersERKNS3_11AudioBufferES7_"
    },
    {
     "is_pure":true,
     "mangled_component_name":"_ZN7android8hardware5audio6effect4V4_026IEnvironmentalReverbEffect7commandEjRKNS0_8hidl_vecIhEEjNSt3__18functionIFviS8_EEE"
    },
    {
     "is_pure":true,
     "mangled_component_name":"_ZN7android8hardware5audio6effect4V4_026IEnvironmentalReverbEffect12setParameterERKNS0_8hidl_vecIhEES8_"
    },
    {
     "is_pure":true,
     "mangled_component_name":"_ZN7android8hardware5audio6effect4V4_026IEnvironmentalReverbEffect12getParameterERKNS0_8hidl_vecIhEEjNSt3__18functionIFvNS3_6ResultES8_EEE"
    },
    {
     "is_pure":true,
     "mangled_component_name":"_ZN7android8hardware5audio6effect4V4_026IEnvironmentalReverbEffect29getSupportedConfigsForFeatureEjjjNSt3__18functionIFvNS3_6ResultEjRKNS0_8hidl_vecIhEEEEE"
    },
    {
     "is_pure":true,
     "mangled_component_name":"_ZN7android8hardware5audio6effect4V4_026IEnvironmentalReverbEffect26getCurrentConfigForFeatureEjjNSt3__18functionIFvNS3_6ResultERKNS0_8hidl_vecIhEEEEE"
    },
    {
     "is_pure":true,
     "mangled_component_name":"_ZN7android8hardware5audio6effect4V4_026IEnvironmentalReverbEffect26setCurrentConfigForFeatureEjRKNS0_8hidl_vecIhEE"
    },
    {
     "is_pure":true,
     "mangled_component_name":"_ZN7android8hardware5audio6effect4V4_026IEnvironmentalReverbEffect5closeEv"
    },
    {
     "is_pure":true,
     "mangled_component_name":"_ZN7android8hardware5audio6effect4V4_026IEnvironmentalReverbEffect9setBypassEb"
    },
    {
     "is_pure":true,
     "mangled_component_name":"_ZN7android8hardware5audio6effect4V4_026IEnvironmentalReverbEffect9getBypassENSt3__18functionIFvNS3_6ResultEbEEE"
    },
    {
     "is_pure":true,
     "mangled_component_name":"_ZN7android8hardware5audio6effect4V4_026IEnvironmentalReverbEffect12setRoomLevelEs"
    },
    {
     "is_pure":true,
     "mangled_component_name":"_ZN7android8hardware5audio6effect4V4_026IEnvironmentalReverbEffect12getRoomLevelENSt3__18functionIFvNS3_6ResultEsEEE"
    },
    {
     "is_pure":true,
     "mangled_component_name":"_ZN7android8hardware5audio6effect4V4_026IEnvironmentalReverbEffect14setRoomHfLevelEs"
    },
    {
     "is_pure":true,
     "mangled_component_name":"_ZN7android8hardware5audio6effect4V4_026IEnvironmentalReverbEffect14getRoomHfLevelENSt3__18functionIFvNS3_6ResultEsEEE"
    },
    {
     "is_pure":true,
     "mangled_component_name":"_ZN7android8hardware5audio6effect4V4_026IEnvironmentalReverbEffect12setDecayTimeEj"
    },
    {
     "is_pure":true,
     "mangled_component_name":"_ZN7android8hardware5audio6effect4V4_026IEnvironmentalReverbEffect12getDecayTimeENSt3__18functionIFvNS3_6ResultEjEEE"
    },
    {
     "is_pure":true,
     "mangled_component_name":"_ZN7android8hardware5audio6effect4V4_026IEnvironmentalReverbEffect15setDecayHfRatioEs"
    },
    {
     "is_pure":true,
     "mangled_component_name":"_ZN7android8hardware5audio6effect4V4_026IEnvironmentalReverbEffect15getDecayHfRatioENSt3__18functionIFvNS3_6ResultEsEEE"
    },
    {
     "is_pure":true,
     "mangled_component_name":"_ZN7android8hardware5audio6effect4V4_026IEnvironmentalReverbEffect19setReflectionsLevelEs"
    },
    {
     "is_pure":true,
     "mangled_component_name":"_ZN7android8hardware5audio6effect4V4_026IEnvironmentalReverbEffect19getReflectionsLevelENSt3__18functionIFvNS3_6ResultEsEEE"
    },
    {
     "is_pure":true,
     "mangled_component_name":"_ZN7android8hardware5audio6effect4V4_026IEnvironmentalReverbEffect19setReflectionsDelayEj"
    },
    {
     "is_pure":true,
     "mangled_component_name":"_ZN7android8hardware5audio6effect4V4_026IEnvironmentalReverbEffect19getReflectionsDelayENSt3__18functionIFvNS3_6ResultEjEEE"
    },
    {
     "is_pure":true,
     "mangled_component_name":"_ZN7android8hardware5audio6effect4V4_026IEnvironmentalReverbEffect14setReverbLevelEs"
    },
    {
     "is_pure":true,
     "mangled_component_name":"_ZN7android8hardware5audio6effect4V4_026IEnvironmentalReverbEffect14getReverbLevelENSt3__18functionIFvNS3_6ResultEsEEE"
    },
    {
     "is_pure":true,
     "mangled_component_name":"_ZN7android8hardware5audio6effect4V4_026IEnvironmentalReverbEffect14setReverbDelayEj"
    },
    {
     "is_pure":true,
     "mangled_component_name":"_ZN7android8hardware5audio6effect4V4_026IEnvironmentalReverbEffect14getReverbDelayENSt3__18functionIFvNS3_6ResultEjEEE"
    },
    {
     "is_pure":true,
     "mangled_component_name":"_ZN7android8hardware5audio6effect4V4_026IEnvironmentalReverbEffect12setDiffusionEs"
    },
    {
     "is_pure":true,
     "mangled_component_name":"_ZN7android8hardware5audio6effect4V4_026IEnvironmentalReverbEffect12getDiffusionENSt3__18functionIFvNS3_6ResultEsEEE"
    },
    {
     "is_pure":true,
     "mangled_component_name":"_ZN7android8hardware5audio6effect4V4_026IEnvironmentalReverbEffect10setDensityEs"
    },
    {
     "is_pure":true,
     "mangled_component_name":"_ZN7android8hardware5audio6effect4V4_026IEnvironmentalReverbEffect10getDensityENSt3__18functionIFvNS3_6ResultEsEEE"
    },
    {
     "is_pure":true,
     "mangled_component_name":"_ZN7android8hardware5audio6effect4V4_026IEnvironmentalReverbEffect16setAllPropertiesERKNS4_13AllPropertiesE"
    },
    {
     "is_pure":true,
     "mangled_component_name":"_ZN7android8hardware5audio6effect4V4_026IEnvironmentalReverbEffect16getAllPropertiesENSt3__18functionIFvNS3_6ResultERKNS4_13AllPropertiesEEEE"
    },
    {
     "kind":"vcall_offset"
    },
    {
     "kind":"vcall_offset"
    },
    {
     "kind":"vcall_offset"
    },
    {
     "kind":"vcall_offset"
    },
    {
     "kind":"vcall_offset",
     "component_value":-8
    },
    {
     "kind":"offset_to_top",
     "component_value":-8
    },
    {
     "kind":"rtti",
     "mangled_component_name":"_ZTIN7android8hardware5audio6effect4V4_026IEnvironmentalReverbEffectE"
    },
    {
     "kind":"complete_dtor_pointer",
     "mangled_component_name":"_ZTv0_n24_N7android8hardware5audio6effect4V4_026IEnvironmentalReverbEffectD1Ev"
    },
    {
     "kind":"deleting_dtor_pointer",
     "mangled_component_name":"_ZTv0_n24_N7android8hardware5audio6effect4V4_026IEnvironmentalReverbEffectD0Ev"
    },
    {
     "mangled_component_name":"_ZN7android7RefBase10onFirstRefEv"
    },
    {
     "mangled_component_name":"_ZN7android7RefBase15onLastStrongRefEPKv"
    },
    {
     "mangled_component_name":"_ZN7android7RefBase20onIncStrongAttemptedEjPKv"
    },
    {
     "mangled_component_name":"_ZN7android7RefBase13onLastWeakRefEPKv"
    }
   ],
   "unique_id":"_ZTSN7android8hardware5audio6effect4V4_026IEnvironmentalReverbEffectE"
  },
  {
   "vtable_components":[
    {
     "kind":"vbase_offset",
     "component_value":200
    },
    {
     "kind":"offset_to_top"
    },
    {
     "kind":"rtti",
     "mangled_component_name":"_ZTIN7android8hardware5audio6effect4V4_030BpHwAcousticEchoCancelerEffectE"
    },
    {
     "mangled_component_name":"_ZNK7android8hardware5audio6effect4V4_030BpHwAcousticEchoCancelerEffect8isRemoteEv"
    },
    {
     "mangled_component_name":"_ZN7android8hardware5audio6effect4V4_030BpHwAcousticEchoCancelerEffect14interfaceChainENSt3__18functionIFvRKNS0_8hidl_vecINS0_11hidl_stringEEEEEE"
    },
    {
     "mangled_component_name":"_ZN7android8hardware5audio6effect4V4_030BpHwAcousticEchoCancelerEffect5debugERKNS0_11hidl_handleERKNS0_8hidl_vecINS0_11hidl_stringEEE"
    },
    {
     "mangled_component_name":"_ZN7android8hardware5audio6effect4V4_030BpHwAcousticEchoCancelerEffect19interfaceDescriptorENSt3__18functionIFvRKNS0_11hidl_stringEEEE"
    },
    {
     "mangled_component_name":"_ZN7android8hardware5audio6effect4V4_030BpHwAcousticEchoCancelerEffect12getHashChainENSt3__18functionIFvRKNS0_8hidl_vecINS0_10hidl_arrayIhLm32EJEEEEEEEE"
    },
    {
     "mangled_component_name":"_ZN7android8hardware5audio6effect4V4_030BpHwAcousticEchoCancelerEffect21setHALInstrumentationEv"
    },
    {
     "mangled_component_name":"_ZN7android8hardware5audio6effect4V4_030BpHwAcousticEchoCancelerEffect11linkToDeathERKNS_2spINS0_20hidl_death_recipientEEEm"
    },
    {
     "mangled_component_name":"_ZN7android8hardware5audio6effect4V4_030BpHwAcousticEchoCancelerEffect4pingEv"
    },
    {
     "mangled_component_name":"_ZN7android8hardware5audio6effect4V4_030BpHwAcousticEchoCancelerEffect12getDebugInfoENSt3__18functionIFvRKNS_4hidl4base4V1_09DebugInfoEEEE"
    },
    {
     "mangled_component_name":"_ZN7android8hardware5audio6effect4V4_030BpHwAcousticEchoCancelerEffect21notifySyspropsChangedEv"
    },
    {
     "mangled_component_name":"_ZN7android8hardware5audio6effect4V4_030BpHwAcousticEchoCancelerEffect13unlinkToDeathERKNS_2spINS0_20hidl_death_recipientEEE"
    },
    {
     "kind":"complete_dtor_pointer",
     "mangled_component_name":"_ZN7android8hardware5audio6effect4V4_030BpHwAcousticEchoCancelerEffectD1Ev"
    },
    {
     "kind":"deleting_dtor_pointer",
     "mangled_component_name":"_ZN7android8hardware5audio6effect4V4_030BpHwAcousticEchoCancelerEffectD0Ev"
    },
    {
     "mangled_component_name":"_ZN7android8hardware5audio6effect4V4_030BpHwAcousticEchoCancelerEffect4initEv"
    },
    {
     "mangled_component_name":"_ZN7android8hardware5audio6effect4V4_030BpHwAcousticEchoCancelerEffect9setConfigERKNS3_12EffectConfigERKNS_2spINS3_29IEffectBufferProviderCallbackEEESC_"
    },
    {
     "mangled_component_name":"_ZN7android8hardware5audio6effect4V4_030BpHwAcousticEchoCancelerEffect5resetEv"
    },
    {
     "mangled_component_name":"_ZN7android8hardware5audio6effect4V4_030BpHwAcousticEchoCancelerEffect6enableEv"
    },
    {
     "mangled_component_name":"_ZN7android8hardware5audio6effect4V4_030BpHwAcousticEchoCancelerEffect7disableEv"
    },
    {
     "mangled_component_name":"_ZN7android8hardware5audio6effect4V4_030BpHwAcousticEchoCancelerEffect9setDeviceEj"
    },
    {
     "mangled_component_name":"_ZN7android8hardware5audio6effect4V4_030BpHwAcousticEchoCancelerEffect15setAndGetVolumeERKNS0_8hidl_vecIjEENSt3__18functionIFvNS3_6ResultES8_EEE"
    },
    {
     "mangled_component_name":"_ZN7android8hardware5audio6effect4V4_030BpHwAcousticEchoCancelerEffect24volumeChangeNotificationERKNS0_8hidl_vecIjEE"
    },
    {
     "mangled_component_name":"_ZN7android8hardware5audio6effect4V4_030BpHwAcousticEchoCancelerEffect12setAudioModeENS1_6common4V4_09AudioModeE"
    },
    {
     "mangled_component_name":"_ZN7android8hardware5audio6effect4V4_030BpHwAcousticEchoCancelerEffect16setConfigReverseERKNS3_12EffectConfigERKNS_2spINS3_29IEffectBufferProviderCallbackEEESC_"
    },
    {
     "mangled_component_name":"_ZN7android8hardware5audio6effect4V4_030BpHwAcousticEchoCancelerEffect14setInputDeviceEj"
    },
    {
     "mangled_component_name":"_ZN7android8hardware5audio6effect4V4_030BpHwAcousticEchoCancelerEffect9getConfigENSt3__18functionIFvNS3_6ResultERKNS3_12EffectConfigEEEE"
    },
    {
     "mangled_component_name":"_ZN7android8hardware5audio6effect4V4_030BpHwAcousticEchoCancelerEffect16getConfigReverseENSt3__18functionIFvNS3_6ResultERKNS3_12EffectConfigEEEE"
    },
    {
     "mangled_component_name":"_ZN7android8hardware5audio6effect4V4_030BpHwAcousticEchoCancelerEffect30getSupportedAuxChannelsConfigsEjNSt3__18functionIFvNS3_6ResultERKNS0_8hidl_vecINS3_23EffectAuxChannelsConfigEEEEEE"
    },
    {
     "mangled_component_name":"_ZN7android8hardware5audio6effect4V4_030BpHwAcousticEchoCancelerEffect20getAuxChannelsConfigENSt3__18functionIFvNS3_6ResultERKNS3_23EffectAuxChannelsConfigEEEE"
    },
    {
     "mangled_component_name":"_ZN7android8hardware5audio6effect4V4_030BpHwAcousticEchoCancelerEffect20setAuxChannelsConfigERKNS3_23EffectAuxChannelsConfigE"
    },
    {
     "mangled_component_name":"_ZN7android8hardware5audio6effect4V4_030BpHwAcousticEchoCancelerEffect14setAudioSourceENS1_6common4V4_011AudioSourceE"
    },
    {
     "mangled_component_name":"_ZN7android8hardware5audio6effect4V4_030BpHwAcousticEchoCancelerEffect7offloadERKNS3_22EffectOffloadParameterE"
    },
    {
     "mangled_component_name":"_ZN7android8hardware5audio6effect4V4_030BpHwAcousticEchoCancelerEffect13getDescriptorENSt3__18functionIFvNS3_6ResultERKNS3_16EffectDescriptorEEEE"
    },
    {
     "mangled_component_name":"_ZN7android8hardware5audio6effect4V4_030BpHwAcousticEchoCancelerEffect20prepareForProcessingENSt3__18functionIFvNS3_6ResultERKNS0_12MQDescriptorIS7_LNS0_8MQFlavorE1EEEEEE"
    },
    {
     "mangled_component_name":"_ZN7android8hardware5audio6effect4V4_030BpHwAcousticEchoCancelerEffect17setProcessBuffersERKNS3_11AudioBufferES7_"
    },
    {
     "mangled_component_name":"_ZN7android8hardware5audio6effect4V4_030BpHwAcousticEchoCancelerEffect7commandEjRKNS0_8hidl_vecIhEEjNSt3__18functionIFviS8_EEE"
    },
    {
     "mangled_component_name":"_ZN7android8hardware5audio6effect4V4_030BpHwAcousticEchoCancelerEffect12setParameterERKNS0_8hidl_vecIhEES8_"
    },
    {
     "mangled_component_name":"_ZN7android8hardware5audio6effect4V4_030BpHwAcousticEchoCancelerEffect12getParameterERKNS0_8hidl_vecIhEEjNSt3__18functionIFvNS3_6ResultES8_EEE"
    },
    {
     "mangled_component_name":"_ZN7android8hardware5audio6effect4V4_030BpHwAcousticEchoCancelerEffect29getSupportedConfigsForFeatureEjjjNSt3__18functionIFvNS3_6ResultEjRKNS0_8hidl_vecIhEEEEE"
    },
    {
     "mangled_component_name":"_ZN7android8hardware5audio6effect4V4_030BpHwAcousticEchoCancelerEffect26getCurrentConfigForFeatureEjjNSt3__18functionIFvNS3_6ResultERKNS0_8hidl_vecIhEEEEE"
    },
    {
     "mangled_component_name":"_ZN7android8hardware5audio6effect4V4_030BpHwAcousticEchoCancelerEffect26setCurrentConfigForFeatureEjRKNS0_8hidl_vecIhEE"
    },
    {
     "mangled_component_name":"_ZN7android8hardware5audio6effect4V4_030BpHwAcousticEchoCancelerEffect5closeEv"
    },
    {
     "mangled_component_name":"_ZN7android8hardware5audio6effect4V4_030BpHwAcousticEchoCancelerEffect12setEchoDelayEj"
    },
    {
     "mangled_component_name":"_ZN7android8hardware5audio6effect4V4_030BpHwAcousticEchoCancelerEffect12getEchoDelayENSt3__18functionIFvNS3_6ResultEjEEE"
    },
    {
     "mangled_component_name":"_ZN7android8hardware11BpInterfaceINS0_5audio6effect4V4_027IAcousticEchoCancelerEffectEE10onAsBinderEv"
    },
    {
     "kind":"vbase_offset",
     "component_value":192
    },
    {
     "kind":"offset_to_top",
     "component_value":-8
    },
    {
     "kind":"rtti",
     "mangled_component_name":"_ZTIN7android8hardware5audio6effect4V4_030BpHwAcousticEchoCancelerEffectE"
    },
    {
     "kind":"complete_dtor_pointer",
     "mangled_component_name":"_ZThn8_N7android8hardware5audio6effect4V4_030BpHwAcousticEchoCancelerEffectD1Ev"
    },
    {
     "kind":"deleting_dtor_pointer",
     "mangled_component_name":"_ZThn8_N7android8hardware5audio6effect4V4_030BpHwAcousticEchoCancelerEffectD0Ev"
    },
    {
     "mangled_component_name":"_ZThn8_N7android8hardware11BpInterfaceINS0_5audio6effect4V4_027IAcousticEchoCancelerEffectEE10onAsBinderEv"
    },
    {
     "kind":"vbase_offset",
     "component_value":184
    },
    {
     "kind":"offset_to_top",
     "component_value":-16
    },
    {
     "kind":"rtti",
     "mangled_component_name":"_ZTIN7android8hardware5audio6effect4V4_030BpHwAcousticEchoCancelerEffectE"
    },
    {
     "kind":"complete_dtor_pointer",
     "mangled_component_name":"_ZThn16_N7android8hardware5audio6effect4V4_030BpHwAcousticEchoCancelerEffectD1Ev"
    },
    {
     "kind":"deleting_dtor_pointer",
     "mangled_component_name":"_ZThn16_N7android8hardware5audio6effect4V4_030BpHwAcousticEchoCancelerEffectD0Ev"
    },
    {
     "mangled_component_name":"_ZN7android8hardware11BpHwRefBase10onFirstRefEv"
    },
    {
     "mangled_component_name":"_ZN7android8hardware11BpHwRefBase15onLastStrongRefEPKv"
    },
    {
     "mangled_component_name":"_ZN7android8hardware11BpHwRefBase20onIncStrongAttemptedEjPKv"
    },
    {
     "kind":"offset_to_top",
     "component_value":-48
    },
    {
     "kind":"rtti",
     "mangled_component_name":"_ZTIN7android8hardware5audio6effect4V4_030BpHwAcousticEchoCancelerEffectE"
    },
    {
     "kind":"complete_dtor_pointer",
     "mangled_component_name":"_ZThn48_N7android8hardware5audio6effect4V4_030BpHwAcousticEchoCancelerEffectD1Ev"
    },
    {
     "kind":"deleting_dtor_pointer",
     "mangled_component_name":"_ZThn48_N7android8hardware5audio6effect4V4_030BpHwAcousticEchoCancelerEffectD0Ev"
    },
    {
     "kind":"vcall_offset"
    },
    {
     "kind":"vcall_offset",
     "component_value":-184
    },
    {
     "kind":"vcall_offset",
     "component_value":-184
    },
    {
     "kind":"vcall_offset",
     "component_value":-184
    },
    {
     "kind":"vcall_offset",
     "component_value":-200
    },
    {
     "kind":"offset_to_top",
     "component_value":-200
    },
    {
     "kind":"rtti",
     "mangled_component_name":"_ZTIN7android8hardware5audio6effect4V4_030BpHwAcousticEchoCancelerEffectE"
    },
    {
     "kind":"complete_dtor_pointer",
     "mangled_component_name":"_ZTv0_n24_N7android8hardware5audio6effect4V4_030BpHwAcousticEchoCancelerEffectD1Ev"
    },
    {
     "kind":"deleting_dtor_pointer",
     "mangled_component_name":"_ZTv0_n24_N7android8hardware5audio6effect4V4_030BpHwAcousticEchoCancelerEffectD0Ev"
    },
    {
     "mangled_component_name":"_ZTv0_n32_N7android8hardware11BpHwRefBase10onFirstRefEv"
    },
    {
     "mangled_component_name":"_ZTv0_n40_N7android8hardware11BpHwRefBase15onLastStrongRefEPKv"
    },
    {
     "mangled_component_name":"_ZTv0_n48_N7android8hardware11BpHwRefBase20onIncStrongAttemptedEjPKv"
    },
    {
     "mangled_component_name":"_ZN7android7RefBase13onLastWeakRefEPKv"
    }
   ],
   "unique_id":"_ZTSN7android8hardware5audio6effect4V4_030BpHwAcousticEchoCancelerEffectE"
  },
  {
   "vtable_components":[
    {
     "kind":"vbase_offset",
     "component_value":136
    },
    {
     "kind":"offset_to_top"
    },
    {
     "kind":"rtti",
     "mangled_component_name":"_ZTIN7android8hardware5audio6effect4V4_029BnHwEnvironmentalReverbEffectE"
    },
    {
     "mangled_component_name":"_ZN7android8hardware9BHwBinder8transactEjRKNS0_6ParcelEPS2_jNSt3__18functionIFvRS2_EEE"
    },
    {
     "mangled_component_name":"_ZN7android8hardware9BHwBinder11linkToDeathERKNS_2spINS0_7IBinder14DeathRecipientEEEPvj"
    },
    {
     "mangled_component_name":"_ZN7android8hardware9BHwBinder13unlinkToDeathERKNS_2wpINS0_7IBinder14DeathRecipientEEEPvjPS5_"
    },
    {
     "mangled_component_name":"_ZNK7android8hardware7IBinder13checkSubclassEPKv"
    },
    {
     "mangled_component_name":"_ZN7android8hardware9BHwBinder12attachObjectEPKvPvS4_PFvS3_S4_S4_E"
    },
    {
     "mangled_component_name":"_ZNK7android8hardware9BHwBinder10findObjectEPKv"
    },
    {
     "mangled_component_name":"_ZN7android8hardware9BHwBinder12detachObjectEPKv"
    },
    {
     "mangled_component_name":"_ZN7android8hardware9BHwBinder11localBinderEv"
    },
    {
     "mangled_component_name":"_ZN7android8hardware7IBinder12remoteBinderEv"
    },
    {
     "kind":"complete_dtor_pointer",
     "mangled_component_name":"_ZN7android8hardware5audio6effect4V4_029BnHwEnvironmentalReverbEffectD1Ev"
    },
    {
     "kind":"deleting_dtor_pointer",
     "mangled_component_name":"_ZN7android8hardware5audio6effect4V4_029BnHwEnvironmentalReverbEffectD0Ev"
    },
    {
     "mangled_component_name":"_ZN7android8hardware5audio6effect4V4_029BnHwEnvironmentalReverbEffect10onTransactEjRKNS0_6ParcelEPS5_jNSt3__18functionIFvRS5_EEE"
    },
    {
     "kind":"offset_to_top",
     "component_value":-32
    },
    {
     "kind":"rtti",
     "mangled_component_name":"_ZTIN7android8hardware5audio6effect4V4_029BnHwEnvironmentalReverbEffectE"
    },
    {
     "kind":"complete_dtor_pointer",
     "mangled_component_name":"_ZThn32_N7android8hardware5audio6effect4V4_029BnHwEnvironmentalReverbEffectD1Ev"
    },
    {
     "kind":"deleting_dtor_pointer",
     "mangled_component_name":"_ZThn32_N7android8hardware5audio6effect4V4_029BnHwEnvironmentalReverbEffectD0Ev"
    },
    {
     "kind":"vcall_offset"
    },
    {
     "kind":"vcall_offset"
    },
    {
     "kind":"vcall_offset"
    },
    {
     "kind":"vcall_offset"
    },
    {
     "kind":"vcall_offset",
     "component_value":-136
    },
    {
     "kind":"offset_to_top",
     "component_value":-136
    },
    {
     "kind":"rtti",
     "mangled_component_name":"_ZTIN7android8hardware5audio6effect4V4_029BnHwEnvironmentalReverbEffectE"
    },
    {
     "kind":"complete_dtor_pointer",
     "mangled_component_name":"_ZTv0_n24_N7android8hardware5audio6effect4V4_029BnHwEnvironmentalReverbEffectD1Ev"
    },
    {
     "kind":"deleting_dtor_pointer",
     "mangled_component_name":"_ZTv0_n24_N7android8hardware5audio6effect4V4_029BnHwEnvironmentalReverbEffectD0Ev"
    },
    {
     "mangled_component_name":"_ZN7android7RefBase10onFirstRefEv"
    },
    {
     "mangled_component_name":"_ZN7android7RefBase15onLastStrongRefEPKv"
    },
    {
     "mangled_component_name":"_ZN7android7RefBase20onIncStrongAttemptedEjPKv"
    },
    {
     "mangled_component_name":"_ZN7android7RefBase13onLastWeakRefEPKv"
    }
   ],
   "unique_id":"_ZTSN7android8hardware5audio6effect4V4_029BnHwEnvironmentalReverbEffectE"
  },
  {
   "vtable_components":[
    {
     "kind":"vbase_offset",
     "component_value":120
    },
    {
     "kind":"offset_to_top"
    },
    {
     "kind":"rtti",
     "mangled_component_name":"_ZTIN7android8hardware5audio6effect4V4_027BsEnvironmentalReverbEffectE"
    },
    {
     "mangled_component_name":"_ZNK7android8hardware5audio6effect4V4_026IEnvironmentalReverbEffect8isRemoteEv"
    },
    {
     "mangled_component_name":"_ZN7android8hardware5audio6effect4V4_027BsEnvironmentalReverbEffect14interfaceChainENSt3__18functionIFvRKNS0_8hidl_vecINS0_11hidl_stringEEEEEE"
    },
    {
     "mangled_component_name":"_ZN7android8hardware5audio6effect4V4_027BsEnvironmentalReverbEffect5debugERKNS0_11hidl_handleERKNS0_8hidl_vecINS0_11hidl_stringEEE"
    },
    {
     "mangled_component_name":"_ZN7android8hardware5audio6effect4V4_027BsEnvironmentalReverbEffect19interfaceDescriptorENSt3__18functionIFvRKNS0_11hidl_stringEEEE"
    },
    {
     "mangled_component_name":"_ZN7android8hardware5audio6effect4V4_027BsEnvironmentalReverbEffect12getHashChainENSt3__18functionIFvRKNS0_8hidl_vecINS0_10hidl_arrayIhLm32EJEEEEEEEE"
    },
    {
     "mangled_component_name":"_ZN7android8hardware5audio6effect4V4_027BsEnvironmentalReverbEffect21setHALInstrumentationEv"
    },
    {
     "mangled_component_name":"_ZN7android8hardware5audio6effect4V4_027BsEnvironmentalReverbEffect11linkToDeathERKNS_2spINS0_20hidl_death_recipientEEEm"
    },
    {
     "mangled_component_name":"_ZN7android8hardware5audio6effect4V4_027BsEnvironmentalReverbEffect4pingEv"
    },
    {
     "mangled_component_name":"_ZN7android8hardware5audio6effect4V4_027BsEnvironmentalReverbEffect12getDebugInfoENSt3__18functionIFvRKNS_4hidl4base4V1_09DebugInfoEEEE"
    },
    {
     "mangled_component_name":"_ZN7android8hardware5audio6effect4V4_027BsEnvironmentalReverbEffect21notifySyspropsChangedEv"
    },
    {
     "mangled_component_name":"_ZN7android8hardware5audio6effect4V4_027BsEnvironmentalReverbEffect13unlinkToDeathERKNS_2spINS0_20hidl_death_recipientEEE"
    },
    {
     "kind":"complete_dtor_pointer",
     "mangled_component_name":"_ZN7android8hardware5audio6effect4V4_027BsEnvironmentalReverbEffectD1Ev"
    },
    {
     "kind":"deleting_dtor_pointer",
     "mangled_component_name":"_ZN7android8hardware5audio6effect4V4_027BsEnvironmentalReverbEffectD0Ev"
    },
    {
     "mangled_component_name":"_ZN7android8hardware5audio6effect4V4_027BsEnvironmentalReverbEffect4initEv"
    },
    {
     "mangled_component_name":"_ZN7android8hardware5audio6effect4V4_027BsEnvironmentalReverbEffect9setConfigERKNS3_12EffectConfigERKNS_2spINS3_29IEffectBufferProviderCallbackEEESC_"
    },
    {
     "mangled_component_name":"_ZN7android8hardware5audio6effect4V4_027BsEnvironmentalReverbEffect5resetEv"
    },
    {
     "mangled_component_name":"_ZN7android8hardware5audio6effect4V4_027BsEnvironmentalReverbEffect6enableEv"
    },
    {
     "mangled_component_name":"_ZN7android8hardware5audio6effect4V4_027BsEnvironmentalReverbEffect7disableEv"
    },
    {
     "mangled_component_name":"_ZN7android8hardware5audio6effect4V4_027BsEnvironmentalReverbEffect9setDeviceEj"
    },
    {
     "mangled_component_name":"_ZN7android8hardware5audio6effect4V4_027BsEnvironmentalReverbEffect15setAndGetVolumeERKNS0_8hidl_vecIjEENSt3__18functionIFvNS3_6ResultES8_EEE"
    },
    {
     "mangled_component_name":"_ZN7android8hardware5audio6effect4V4_027BsEnvironmentalReverbEffect24volumeChangeNotificationERKNS0_8hidl_vecIjEE"
    },
    {
     "mangled_component_name":"_ZN7android8hardware5audio6effect4V4_027BsEnvironmentalReverbEffect12setAudioModeENS1_6common4V4_09AudioModeE"
    },
    {
     "mangled_component_name":"_ZN7android8hardware5audio6effect4V4_027BsEnvironmentalReverbEffect16setConfigReverseERKNS3_12EffectConfigERKNS_2spINS3_29IEffectBufferProviderCallbackEEESC_"
    },
    {
     "mangled_component_name":"_ZN7android8hardware5audio6effect4V4_027BsEnvironmentalReverbEffect14setInputDeviceEj"
    },
    {
     "mangled_component_name":"_ZN7android8hardware5audio6effect4V4_027BsEnvironmentalReverbEffect9getConfigENSt3__18functionIFvNS3_6ResultERKNS3_12EffectConfigEEEE"
    },
    {
     "mangled_component_name":"_ZN7android8hardware5audio6effect4V4_027BsEnvironmentalReverbEffect16getConfigReverseENSt3__18functionIFvNS3_6ResultERKNS3_12EffectConfigEEEE"
    },
    {
     "mangled_component_name":"_ZN7android8hardware5audio6effect4V4_027BsEnvironmentalReverbEffect30getSupportedAuxChannelsConfigsEjNSt3__18functionIFvNS3_6ResultERKNS0_8hidl_vecINS3_23EffectAuxChannelsConfigEEEEEE"
    },
    {
     "mangled_component_name":"_ZN7android8hardware5audio6effect4V4_027BsEnvironmentalReverbEffect20getAuxChannelsConfigENSt3__18functionIFvNS3_6ResultERKNS3_23EffectAuxChannelsConfigEEEE"
    },
    {
     "mangled_component_name":"_ZN7android8hardware5audio6effect4V4_027BsEnvironmentalReverbEffect20setAuxChannelsConfigERKNS3_23EffectAuxChannelsConfigE"
    },
    {
     "mangled_component_name":"_ZN7android8hardware5audio6effect4V4_027BsEnvironmentalReverbEffect14setAudioSourceENS1_6common4V4_011AudioSourceE"
    },
    {
     "mangled_component_name":"_ZN7android8hardware5audio6effect4V4_027BsEnvironmentalReverbEffect7offloadERKNS3_22EffectOffloadParameterE"
    },
    {
     "mangled_component_name":"_ZN7android8hardware5audio6effect4V4_027BsEnvironmentalReverbEffect13getDescriptorENSt3__18functionIFvNS3_6ResultERKNS3_16EffectDescriptorEEEE"
    },
    {
     "mangled_component_name":"_ZN7android8hardware5audio6effect4V4_027BsEnvironmentalReverbEffect20prepareForProcessingENSt3__18functionIFvNS3_6ResultERKNS0_12MQDescriptorIS7_LNS0_8MQFlavorE1EEEEEE"
    },
    {
     "mangled_component_name":"_ZN7android8hardware5audio6effect4V4_027BsEnvironmentalReverbEffect17setProcessBuffersERKNS3_11AudioBufferES7_"
    },
    {
     "mangled_component_name":"_ZN7android8hardware5audio6effect4V4_027BsEnvironmentalReverbEffect7commandEjRKNS0_8hidl_vecIhEEjNSt3__18functionIFviS8_EEE"
    },
    {
     "mangled_component_name":"_ZN7android8hardware5audio6effect4V4_027BsEnvironmentalReverbEffect12setParameterERKNS0_8hidl_vecIhEES8_"
    },
    {
     "mangled_component_name":"_ZN7android8hardware5audio6effect4V4_027BsEnvironmentalReverbEffect12getParameterERKNS0_8hidl_vecIhEEjNSt3__18functionIFvNS3_6ResultES8_EEE"
    },
    {
     "mangled_component_name":"_ZN7android8hardware5audio6effect4V4_027BsEnvironmentalReverbEffect29getSupportedConfigsForFeatureEjjjNSt3__18functionIFvNS3_6ResultEjRKNS0_8hidl_vecIhEEEEE"
    },
    {
     "mangled_component_name":"_ZN7android8hardware5audio6effect4V4_027BsEnvironmentalReverbEffect26getCurrentConfigForFeatureEjjNSt3__18functionIFvNS3_6ResultERKNS0_8hidl_vecIhEEEEE"
    },
    {
     "mangled_component_name":"_ZN7android8hardware5audio6effect4V4_027BsEnvironmentalReverbEffect26setCurrentConfigForFeatureEjRKNS0_8hidl_vecIhEE"
    },
    {
     "mangled_component_name":"_ZN7android8hardware5audio6effect4V4_027BsEnvironmentalReverbEffect5closeEv"
    },
    {
     "mangled_component_name":"_ZN7android8hardware5audio6effect4V4_027BsEnvironmentalReverbEffect9setBypassEb"
    },
    {
     "mangled_component_name":"_ZN7android8hardware5audio6effect4V4_027BsEnvironmentalReverbEffect9getBypassENSt3__18functionIFvNS3_6ResultEbEEE"
    },
    {
     "mangled_component_name":"_ZN7android8hardware5audio6effect4V4_027BsEnvironmentalReverbEffect12setRoomLevelEs"
    },
    {
     "mangled_component_name":"_ZN7android8hardware5audio6effect4V4_027BsEnvironmentalReverbEffect12getRoomLevelENSt3__18functionIFvNS3_6ResultEsEEE"
    },
    {
     "mangled_component_name":"_ZN7android8hardware5audio6effect4V4_027BsEnvironmentalReverbEffect14setRoomHfLevelEs"
    },
    {
     "mangled_component_name":"_ZN7android8hardware5audio6effect4V4_027BsEnvironmentalReverbEffect14getRoomHfLevelENSt3__18functionIFvNS3_6ResultEsEEE"
    },
    {
     "mangled_component_name":"_ZN7android8hardware5audio6effect4V4_027BsEnvironmentalReverbEffect12setDecayTimeEj"
    },
    {
     "mangled_component_name":"_ZN7android8hardware5audio6effect4V4_027BsEnvironmentalReverbEffect12getDecayTimeENSt3__18functionIFvNS3_6ResultEjEEE"
    },
    {
     "mangled_component_name":"_ZN7android8hardware5audio6effect4V4_027BsEnvironmentalReverbEffect15setDecayHfRatioEs"
    },
    {
     "mangled_component_name":"_ZN7android8hardware5audio6effect4V4_027BsEnvironmentalReverbEffect15getDecayHfRatioENSt3__18functionIFvNS3_6ResultEsEEE"
    },
    {
     "mangled_component_name":"_ZN7android8hardware5audio6effect4V4_027BsEnvironmentalReverbEffect19setReflectionsLevelEs"
    },
    {
     "mangled_component_name":"_ZN7android8hardware5audio6effect4V4_027BsEnvironmentalReverbEffect19getReflectionsLevelENSt3__18functionIFvNS3_6ResultEsEEE"
    },
    {
     "mangled_component_name":"_ZN7android8hardware5audio6effect4V4_027BsEnvironmentalReverbEffect19setReflectionsDelayEj"
    },
    {
     "mangled_component_name":"_ZN7android8hardware5audio6effect4V4_027BsEnvironmentalReverbEffect19getReflectionsDelayENSt3__18functionIFvNS3_6ResultEjEEE"
    },
    {
     "mangled_component_name":"_ZN7android8hardware5audio6effect4V4_027BsEnvironmentalReverbEffect14setReverbLevelEs"
    },
    {
     "mangled_component_name":"_ZN7android8hardware5audio6effect4V4_027BsEnvironmentalReverbEffect14getReverbLevelENSt3__18functionIFvNS3_6ResultEsEEE"
    },
    {
     "mangled_component_name":"_ZN7android8hardware5audio6effect4V4_027BsEnvironmentalReverbEffect14setReverbDelayEj"
    },
    {
     "mangled_component_name":"_ZN7android8hardware5audio6effect4V4_027BsEnvironmentalReverbEffect14getReverbDelayENSt3__18functionIFvNS3_6ResultEjEEE"
    },
    {
     "mangled_component_name":"_ZN7android8hardware5audio6effect4V4_027BsEnvironmentalReverbEffect12setDiffusionEs"
    },
    {
     "mangled_component_name":"_ZN7android8hardware5audio6effect4V4_027BsEnvironmentalReverbEffect12getDiffusionENSt3__18functionIFvNS3_6ResultEsEEE"
    },
    {
     "mangled_component_name":"_ZN7android8hardware5audio6effect4V4_027BsEnvironmentalReverbEffect10setDensityEs"
    },
    {
     "mangled_component_name":"_ZN7android8hardware5audio6effect4V4_027BsEnvironmentalReverbEffect10getDensityENSt3__18functionIFvNS3_6ResultEsEEE"
    },
    {
     "mangled_component_name":"_ZN7android8hardware5audio6effect4V4_027BsEnvironmentalReverbEffect16setAllPropertiesERKNS3_26IEnvironmentalReverbEffect13AllPropertiesE"
    },
    {
     "mangled_component_name":"_ZN7android8hardware5audio6effect4V4_027BsEnvironmentalReverbEffect16getAllPropertiesENSt3__18functionIFvNS3_6ResultERKNS3_26IEnvironmentalReverbEffect13AllPropertiesEEEE"
    },
    {
     "kind":"offset_to_top",
     "component_value":-8
    },
    {
     "kind":"rtti",
     "mangled_component_name":"_ZTIN7android8hardware5audio6effect4V4_027BsEnvironmentalReverbEffectE"
    },
    {
     "kind":"complete_dtor_pointer",
     "mangled_component_name":"_ZThn8_N7android8hardware5audio6effect4V4_027BsEnvironmentalReverbEffectD1Ev"
    },
    {
     "kind":"deleting_dtor_pointer",
     "mangled_component_name":"_ZThn8_N7android8hardware5audio6effect4V4_027BsEnvironmentalReverbEffectD0Ev"
    },
    {
     "kind":"vcall_offset"
    },
    {
     "kind":"vcall_offset"
    },
    {
     "kind":"vcall_offset"
    },
    {
     "kind":"vcall_offset"
    },
    {
     "kind":"vcall_offset",
     "component_value":-120
    },
    {
     "kind":"offset_to_top",
     "component_value":-120
    },
    {
     "kind":"rtti",
     "mangled_component_name":"_ZTIN7android8hardware5audio6effect4V4_027BsEnvironmentalReverbEffectE"
    },
    {
     "kind":"complete_dtor_pointer",
     "mangled_component_name":"_ZTv0_n24_N7android8hardware5audio6effect4V4_027BsEnvironmentalReverbEffectD1Ev"
    },
    {
     "kind":"deleting_dtor_pointer",
     "mangled_component_name":"_ZTv0_n24_N7android8hardware5audio6effect4V4_027BsEnvironmentalReverbEffectD0Ev"
    },
    {
     "mangled_component_name":"_ZN7android7RefBase10onFirstRefEv"
    },
    {
     "mangled_component_name":"_ZN7android7RefBase15onLastStrongRefEPKv"
    },
    {
     "mangled_component_name":"_ZN7android7RefBase20onIncStrongAttemptedEjPKv"
    },
    {
     "mangled_component_name":"_ZN7android7RefBase13onLastWeakRefEPKv"
    }
   ],
   "unique_id":"_ZTSN7android8hardware5audio6effect4V4_027BsEnvironmentalReverbEffectE"
  },
  {
   "vtable_components":[
    {
     "kind":"vbase_offset",
     "component_value":200
    },
    {
     "kind":"offset_to_top"
    },
    {
     "kind":"rtti",
     "mangled_component_name":"_ZTIN7android8hardware5audio6effect4V4_029BpHwEnvironmentalReverbEffectE"
    },
    {
     "mangled_component_name":"_ZNK7android8hardware5audio6effect4V4_029BpHwEnvironmentalReverbEffect8isRemoteEv"
    },
    {
     "mangled_component_name":"_ZN7android8hardware5audio6effect4V4_029BpHwEnvironmentalReverbEffect14interfaceChainENSt3__18functionIFvRKNS0_8hidl_vecINS0_11hidl_stringEEEEEE"
    },
    {
     "mangled_component_name":"_ZN7android8hardware5audio6effect4V4_029BpHwEnvironmentalReverbEffect5debugERKNS0_11hidl_handleERKNS0_8hidl_vecINS0_11hidl_stringEEE"
    },
    {
     "mangled_component_name":"_ZN7android8hardware5audio6effect4V4_029BpHwEnvironmentalReverbEffect19interfaceDescriptorENSt3__18functionIFvRKNS0_11hidl_stringEEEE"
    },
    {
     "mangled_component_name":"_ZN7android8hardware5audio6effect4V4_029BpHwEnvironmentalReverbEffect12getHashChainENSt3__18functionIFvRKNS0_8hidl_vecINS0_10hidl_arrayIhLm32EJEEEEEEEE"
    },
    {
     "mangled_component_name":"_ZN7android8hardware5audio6effect4V4_029BpHwEnvironmentalReverbEffect21setHALInstrumentationEv"
    },
    {
     "mangled_component_name":"_ZN7android8hardware5audio6effect4V4_029BpHwEnvironmentalReverbEffect11linkToDeathERKNS_2spINS0_20hidl_death_recipientEEEm"
    },
    {
     "mangled_component_name":"_ZN7android8hardware5audio6effect4V4_029BpHwEnvironmentalReverbEffect4pingEv"
    },
    {
     "mangled_component_name":"_ZN7android8hardware5audio6effect4V4_029BpHwEnvironmentalReverbEffect12getDebugInfoENSt3__18functionIFvRKNS_4hidl4base4V1_09DebugInfoEEEE"
    },
    {
     "mangled_component_name":"_ZN7android8hardware5audio6effect4V4_029BpHwEnvironmentalReverbEffect21notifySyspropsChangedEv"
    },
    {
     "mangled_component_name":"_ZN7android8hardware5audio6effect4V4_029BpHwEnvironmentalReverbEffect13unlinkToDeathERKNS_2spINS0_20hidl_death_recipientEEE"
    },
    {
     "kind":"complete_dtor_pointer",
     "mangled_component_name":"_ZN7android8hardware5audio6effect4V4_029BpHwEnvironmentalReverbEffectD1Ev"
    },
    {
     "kind":"deleting_dtor_pointer",
     "mangled_component_name":"_ZN7android8hardware5audio6effect4V4_029BpHwEnvironmentalReverbEffectD0Ev"
    },
    {
     "mangled_component_name":"_ZN7android8hardware5audio6effect4V4_029BpHwEnvironmentalReverbEffect4initEv"
    },
    {
     "mangled_component_name":"_ZN7android8hardware5audio6effect4V4_029BpHwEnvironmentalReverbEffect9setConfigERKNS3_12EffectConfigERKNS_2spINS3_29IEffectBufferProviderCallbackEEESC_"
    },
    {
     "mangled_component_name":"_ZN7android8hardware5audio6effect4V4_029BpHwEnvironmentalReverbEffect5resetEv"
    },
    {
     "mangled_component_name":"_ZN7android8hardware5audio6effect4V4_029BpHwEnvironmentalReverbEffect6enableEv"
    },
    {
     "mangled_component_name":"_ZN7android8hardware5audio6effect4V4_029BpHwEnvironmentalReverbEffect7disableEv"
    },
    {
     "mangled_component_name":"_ZN7android8hardware5audio6effect4V4_029BpHwEnvironmentalReverbEffect9setDeviceEj"
    },
    {
     "mangled_component_name":"_ZN7android8hardware5audio6effect4V4_029BpHwEnvironmentalReverbEffect15setAndGetVolumeERKNS0_8hidl_vecIjEENSt3__18functionIFvNS3_6ResultES8_EEE"
    },
    {
     "mangled_component_name":"_ZN7android8hardware5audio6effect4V4_029BpHwEnvironmentalReverbEffect24volumeChangeNotificationERKNS0_8hidl_vecIjEE"
    },
    {
     "mangled_component_name":"_ZN7android8hardware5audio6effect4V4_029BpHwEnvironmentalReverbEffect12setAudioModeENS1_6common4V4_09AudioModeE"
    },
    {
     "mangled_component_name":"_ZN7android8hardware5audio6effect4V4_029BpHwEnvironmentalReverbEffect16setConfigReverseERKNS3_12EffectConfigERKNS_2spINS3_29IEffectBufferProviderCallbackEEESC_"
    },
    {
     "mangled_component_name":"_ZN7android8hardware5audio6effect4V4_029BpHwEnvironmentalReverbEffect14setInputDeviceEj"
    },
    {
     "mangled_component_name":"_ZN7android8hardware5audio6effect4V4_029BpHwEnvironmentalReverbEffect9getConfigENSt3__18functionIFvNS3_6ResultERKNS3_12EffectConfigEEEE"
    },
    {
     "mangled_component_name":"_ZN7android8hardware5audio6effect4V4_029BpHwEnvironmentalReverbEffect16getConfigReverseENSt3__18functionIFvNS3_6ResultERKNS3_12EffectConfigEEEE"
    },
    {
     "mangled_component_name":"_ZN7android8hardware5audio6effect4V4_029BpHwEnvironmentalReverbEffect30getSupportedAuxChannelsConfigsEjNSt3__18functionIFvNS3_6ResultERKNS0_8hidl_vecINS3_23EffectAuxChannelsConfigEEEEEE"
    },
    {
     "mangled_component_name":"_ZN7android8hardware5audio6effect4V4_029BpHwEnvironmentalReverbEffect20getAuxChannelsConfigENSt3__18functionIFvNS3_6ResultERKNS3_23EffectAuxChannelsConfigEEEE"
    },
    {
     "mangled_component_name":"_ZN7android8hardware5audio6effect4V4_029BpHwEnvironmentalReverbEffect20setAuxChannelsConfigERKNS3_23EffectAuxChannelsConfigE"
    },
    {
     "mangled_component_name":"_ZN7android8hardware5audio6effect4V4_029BpHwEnvironmentalReverbEffect14setAudioSourceENS1_6common4V4_011AudioSourceE"
    },
    {
     "mangled_component_name":"_ZN7android8hardware5audio6effect4V4_029BpHwEnvironmentalReverbEffect7offloadERKNS3_22EffectOffloadParameterE"
    },
    {
     "mangled_component_name":"_ZN7android8hardware5audio6effect4V4_029BpHwEnvironmentalReverbEffect13getDescriptorENSt3__18functionIFvNS3_6ResultERKNS3_16EffectDescriptorEEEE"
    },
    {
     "mangled_component_name":"_ZN7android8hardware5audio6effect4V4_029BpHwEnvironmentalReverbEffect20prepareForProcessingENSt3__18functionIFvNS3_6ResultERKNS0_12MQDescriptorIS7_LNS0_8MQFlavorE1EEEEEE"
    },
    {
     "mangled_component_name":"_ZN7android8hardware5audio6effect4V4_029BpHwEnvironmentalReverbEffect17setProcessBuffersERKNS3_11AudioBufferES7_"
    },
    {
     "mangled_component_name":"_ZN7android8hardware5audio6effect4V4_029BpHwEnvironmentalReverbEffect7commandEjRKNS0_8hidl_vecIhEEjNSt3__18functionIFviS8_EEE"
    },
    {
     "mangled_component_name":"_ZN7android8hardware5audio6effect4V4_029BpHwEnvironmentalReverbEffect12setParameterERKNS0_8hidl_vecIhEES8_"
    },
    {
     "mangled_component_name":"_ZN7android8hardware5audio6effect4V4_029BpHwEnvironmentalReverbEffect12getParameterERKNS0_8hidl_vecIhEEjNSt3__18functionIFvNS3_6ResultES8_EEE"
    },
    {
     "mangled_component_name":"_ZN7android8hardware5audio6effect4V4_029BpHwEnvironmentalReverbEffect29getSupportedConfigsForFeatureEjjjNSt3__18functionIFvNS3_6ResultEjRKNS0_8hidl_vecIhEEEEE"
    },
    {
     "mangled_component_name":"_ZN7android8hardware5audio6effect4V4_029BpHwEnvironmentalReverbEffect26getCurrentConfigForFeatureEjjNSt3__18functionIFvNS3_6ResultERKNS0_8hidl_vecIhEEEEE"
    },
    {
     "mangled_component_name":"_ZN7android8hardware5audio6effect4V4_029BpHwEnvironmentalReverbEffect26setCurrentConfigForFeatureEjRKNS0_8hidl_vecIhEE"
    },
    {
     "mangled_component_name":"_ZN7android8hardware5audio6effect4V4_029BpHwEnvironmentalReverbEffect5closeEv"
    },
    {
     "mangled_component_name":"_ZN7android8hardware5audio6effect4V4_029BpHwEnvironmentalReverbEffect9setBypassEb"
    },
    {
     "mangled_component_name":"_ZN7android8hardware5audio6effect4V4_029BpHwEnvironmentalReverbEffect9getBypassENSt3__18functionIFvNS3_6ResultEbEEE"
    },
    {
     "mangled_component_name":"_ZN7android8hardware5audio6effect4V4_029BpHwEnvironmentalReverbEffect12setRoomLevelEs"
    },
    {
     "mangled_component_name":"_ZN7android8hardware5audio6effect4V4_029BpHwEnvironmentalReverbEffect12getRoomLevelENSt3__18functionIFvNS3_6ResultEsEEE"
    },
    {
     "mangled_component_name":"_ZN7android8hardware5audio6effect4V4_029BpHwEnvironmentalReverbEffect14setRoomHfLevelEs"
    },
    {
     "mangled_component_name":"_ZN7android8hardware5audio6effect4V4_029BpHwEnvironmentalReverbEffect14getRoomHfLevelENSt3__18functionIFvNS3_6ResultEsEEE"
    },
    {
     "mangled_component_name":"_ZN7android8hardware5audio6effect4V4_029BpHwEnvironmentalReverbEffect12setDecayTimeEj"
    },
    {
     "mangled_component_name":"_ZN7android8hardware5audio6effect4V4_029BpHwEnvironmentalReverbEffect12getDecayTimeENSt3__18functionIFvNS3_6ResultEjEEE"
    },
    {
     "mangled_component_name":"_ZN7android8hardware5audio6effect4V4_029BpHwEnvironmentalReverbEffect15setDecayHfRatioEs"
    },
    {
     "mangled_component_name":"_ZN7android8hardware5audio6effect4V4_029BpHwEnvironmentalReverbEffect15getDecayHfRatioENSt3__18functionIFvNS3_6ResultEsEEE"
    },
    {
     "mangled_component_name":"_ZN7android8hardware5audio6effect4V4_029BpHwEnvironmentalReverbEffect19setReflectionsLevelEs"
    },
    {
     "mangled_component_name":"_ZN7android8hardware5audio6effect4V4_029BpHwEnvironmentalReverbEffect19getReflectionsLevelENSt3__18functionIFvNS3_6ResultEsEEE"
    },
    {
     "mangled_component_name":"_ZN7android8hardware5audio6effect4V4_029BpHwEnvironmentalReverbEffect19setReflectionsDelayEj"
    },
    {
     "mangled_component_name":"_ZN7android8hardware5audio6effect4V4_029BpHwEnvironmentalReverbEffect19getReflectionsDelayENSt3__18functionIFvNS3_6ResultEjEEE"
    },
    {
     "mangled_component_name":"_ZN7android8hardware5audio6effect4V4_029BpHwEnvironmentalReverbEffect14setReverbLevelEs"
    },
    {
     "mangled_component_name":"_ZN7android8hardware5audio6effect4V4_029BpHwEnvironmentalReverbEffect14getReverbLevelENSt3__18functionIFvNS3_6ResultEsEEE"
    },
    {
     "mangled_component_name":"_ZN7android8hardware5audio6effect4V4_029BpHwEnvironmentalReverbEffect14setReverbDelayEj"
    },
    {
     "mangled_component_name":"_ZN7android8hardware5audio6effect4V4_029BpHwEnvironmentalReverbEffect14getReverbDelayENSt3__18functionIFvNS3_6ResultEjEEE"
    },
    {
     "mangled_component_name":"_ZN7android8hardware5audio6effect4V4_029BpHwEnvironmentalReverbEffect12setDiffusionEs"
    },
    {
     "mangled_component_name":"_ZN7android8hardware5audio6effect4V4_029BpHwEnvironmentalReverbEffect12getDiffusionENSt3__18functionIFvNS3_6ResultEsEEE"
    },
    {
     "mangled_component_name":"_ZN7android8hardware5audio6effect4V4_029BpHwEnvironmentalReverbEffect10setDensityEs"
    },
    {
     "mangled_component_name":"_ZN7android8hardware5audio6effect4V4_029BpHwEnvironmentalReverbEffect10getDensityENSt3__18functionIFvNS3_6ResultEsEEE"
    },
    {
     "mangled_component_name":"_ZN7android8hardware5audio6effect4V4_029BpHwEnvironmentalReverbEffect16setAllPropertiesERKNS3_26IEnvironmentalReverbEffect13AllPropertiesE"
    },
    {
     "mangled_component_name":"_ZN7android8hardware5audio6effect4V4_029BpHwEnvironmentalReverbEffect16getAllPropertiesENSt3__18functionIFvNS3_6ResultERKNS3_26IEnvironmentalReverbEffect13AllPropertiesEEEE"
    },
    {
     "mangled_component_name":"_ZN7android8hardware11BpInterfaceINS0_5audio6effect4V4_026IEnvironmentalReverbEffectEE10onAsBinderEv"
    },
    {
     "kind":"vbase_offset",
     "component_value":192
    },
    {
     "kind":"offset_to_top",
     "component_value":-8
    },
    {
     "kind":"rtti",
     "mangled_component_name":"_ZTIN7android8hardware5audio6effect4V4_029BpHwEnvironmentalReverbEffectE"
    },
    {
     "kind":"complete_dtor_pointer",
     "mangled_component_name":"_ZThn8_N7android8hardware5audio6effect4V4_029BpHwEnvironmentalReverbEffectD1Ev"
    },
    {
     "kind":"deleting_dtor_pointer",
     "mangled_component_name":"_ZThn8_N7android8hardware5audio6effect4V4_029BpHwEnvironmentalReverbEffectD0Ev"
    },
    {
     "mangled_component_name":"_ZThn8_N7android8hardware11BpInterfaceINS0_5audio6effect4V4_026IEnvironmentalReverbEffectEE10onAsBinderEv"
    },
    {
     "kind":"vbase_offset",
     "component_value":184
    },
    {
     "kind":"offset_to_top",
     "component_value":-16
    },
    {
     "kind":"rtti",
     "mangled_component_name":"_ZTIN7android8hardware5audio6effect4V4_029BpHwEnvironmentalReverbEffectE"
    },
    {
     "kind":"complete_dtor_pointer",
     "mangled_component_name":"_ZThn16_N7android8hardware5audio6effect4V4_029BpHwEnvironmentalReverbEffectD1Ev"
    },
    {
     "kind":"deleting_dtor_pointer",
     "mangled_component_name":"_ZThn16_N7android8hardware5audio6effect4V4_029BpHwEnvironmentalReverbEffectD0Ev"
    },
    {
     "mangled_component_name":"_ZN7android8hardware11BpHwRefBase10onFirstRefEv"
    },
    {
     "mangled_component_name":"_ZN7android8hardware11BpHwRefBase15onLastStrongRefEPKv"
    },
    {
     "mangled_component_name":"_ZN7android8hardware11BpHwRefBase20onIncStrongAttemptedEjPKv"
    },
    {
     "kind":"offset_to_top",
     "component_value":-48
    },
    {
     "kind":"rtti",
     "mangled_component_name":"_ZTIN7android8hardware5audio6effect4V4_029BpHwEnvironmentalReverbEffectE"
    },
    {
     "kind":"complete_dtor_pointer",
     "mangled_component_name":"_ZThn48_N7android8hardware5audio6effect4V4_029BpHwEnvironmentalReverbEffectD1Ev"
    },
    {
     "kind":"deleting_dtor_pointer",
     "mangled_component_name":"_ZThn48_N7android8hardware5audio6effect4V4_029BpHwEnvironmentalReverbEffectD0Ev"
    },
    {
     "kind":"vcall_offset"
    },
    {
     "kind":"vcall_offset",
     "component_value":-184
    },
    {
     "kind":"vcall_offset",
     "component_value":-184
    },
    {
     "kind":"vcall_offset",
     "component_value":-184
    },
    {
     "kind":"vcall_offset",
     "component_value":-200
    },
    {
     "kind":"offset_to_top",
     "component_value":-200
    },
    {
     "kind":"rtti",
     "mangled_component_name":"_ZTIN7android8hardware5audio6effect4V4_029BpHwEnvironmentalReverbEffectE"
    },
    {
     "kind":"complete_dtor_pointer",
     "mangled_component_name":"_ZTv0_n24_N7android8hardware5audio6effect4V4_029BpHwEnvironmentalReverbEffectD1Ev"
    },
    {
     "kind":"deleting_dtor_pointer",
     "mangled_component_name":"_ZTv0_n24_N7android8hardware5audio6effect4V4_029BpHwEnvironmentalReverbEffectD0Ev"
    },
    {
     "mangled_component_name":"_ZTv0_n32_N7android8hardware11BpHwRefBase10onFirstRefEv"
    },
    {
     "mangled_component_name":"_ZTv0_n40_N7android8hardware11BpHwRefBase15onLastStrongRefEPKv"
    },
    {
     "mangled_component_name":"_ZTv0_n48_N7android8hardware11BpHwRefBase20onIncStrongAttemptedEjPKv"
    },
    {
     "mangled_component_name":"_ZN7android7RefBase13onLastWeakRefEPKv"
    }
   ],
   "unique_id":"_ZTSN7android8hardware5audio6effect4V4_029BpHwEnvironmentalReverbEffectE"
  },
  {
   "vtable_components":[
    {
     "kind":"vbase_offset",
     "component_value":8
    },
    {
     "kind":"offset_to_top"
    },
    {
     "kind":"rtti",
     "mangled_component_name":"_ZTIN7android8hardware5audio6effect4V4_016IEqualizerEffectE"
    },
    {
     "mangled_component_name":"_ZNK7android8hardware5audio6effect4V4_016IEqualizerEffect8isRemoteEv"
    },
    {
     "mangled_component_name":"_ZN7android8hardware5audio6effect4V4_016IEqualizerEffect14interfaceChainENSt3__18functionIFvRKNS0_8hidl_vecINS0_11hidl_stringEEEEEE"
    },
    {
     "mangled_component_name":"_ZN7android8hardware5audio6effect4V4_016IEqualizerEffect5debugERKNS0_11hidl_handleERKNS0_8hidl_vecINS0_11hidl_stringEEE"
    },
    {
     "mangled_component_name":"_ZN7android8hardware5audio6effect4V4_016IEqualizerEffect19interfaceDescriptorENSt3__18functionIFvRKNS0_11hidl_stringEEEE"
    },
    {
     "mangled_component_name":"_ZN7android8hardware5audio6effect4V4_016IEqualizerEffect12getHashChainENSt3__18functionIFvRKNS0_8hidl_vecINS0_10hidl_arrayIhLm32EJEEEEEEEE"
    },
    {
     "mangled_component_name":"_ZN7android8hardware5audio6effect4V4_016IEqualizerEffect21setHALInstrumentationEv"
    },
    {
     "mangled_component_name":"_ZN7android8hardware5audio6effect4V4_016IEqualizerEffect11linkToDeathERKNS_2spINS0_20hidl_death_recipientEEEm"
    },
    {
     "mangled_component_name":"_ZN7android8hardware5audio6effect4V4_016IEqualizerEffect4pingEv"
    },
    {
     "mangled_component_name":"_ZN7android8hardware5audio6effect4V4_016IEqualizerEffect12getDebugInfoENSt3__18functionIFvRKNS_4hidl4base4V1_09DebugInfoEEEE"
    },
    {
     "mangled_component_name":"_ZN7android8hardware5audio6effect4V4_016IEqualizerEffect21notifySyspropsChangedEv"
    },
    {
     "mangled_component_name":"_ZN7android8hardware5audio6effect4V4_016IEqualizerEffect13unlinkToDeathERKNS_2spINS0_20hidl_death_recipientEEE"
    },
    {
     "kind":"complete_dtor_pointer",
     "mangled_component_name":"_ZN7android8hardware5audio6effect4V4_016IEqualizerEffectD1Ev"
    },
    {
     "kind":"deleting_dtor_pointer",
     "mangled_component_name":"_ZN7android8hardware5audio6effect4V4_016IEqualizerEffectD0Ev"
    },
    {
     "is_pure":true,
     "mangled_component_name":"_ZN7android8hardware5audio6effect4V4_016IEqualizerEffect4initEv"
    },
    {
     "is_pure":true,
     "mangled_component_name":"_ZN7android8hardware5audio6effect4V4_016IEqualizerEffect9setConfigERKNS3_12EffectConfigERKNS_2spINS3_29IEffectBufferProviderCallbackEEESC_"
    },
    {
     "is_pure":true,
     "mangled_component_name":"_ZN7android8hardware5audio6effect4V4_016IEqualizerEffect5resetEv"
    },
    {
     "is_pure":true,
     "mangled_component_name":"_ZN7android8hardware5audio6effect4V4_016IEqualizerEffect6enableEv"
    },
    {
     "is_pure":true,
     "mangled_component_name":"_ZN7android8hardware5audio6effect4V4_016IEqualizerEffect7disableEv"
    },
    {
     "is_pure":true,
     "mangled_component_name":"_ZN7android8hardware5audio6effect4V4_016IEqualizerEffect9setDeviceEj"
    },
    {
     "is_pure":true,
     "mangled_component_name":"_ZN7android8hardware5audio6effect4V4_016IEqualizerEffect15setAndGetVolumeERKNS0_8hidl_vecIjEENSt3__18functionIFvNS3_6ResultES8_EEE"
    },
    {
     "is_pure":true,
     "mangled_component_name":"_ZN7android8hardware5audio6effect4V4_016IEqualizerEffect24volumeChangeNotificationERKNS0_8hidl_vecIjEE"
    },
    {
     "is_pure":true,
     "mangled_component_name":"_ZN7android8hardware5audio6effect4V4_016IEqualizerEffect12setAudioModeENS1_6common4V4_09AudioModeE"
    },
    {
     "is_pure":true,
     "mangled_component_name":"_ZN7android8hardware5audio6effect4V4_016IEqualizerEffect16setConfigReverseERKNS3_12EffectConfigERKNS_2spINS3_29IEffectBufferProviderCallbackEEESC_"
    },
    {
     "is_pure":true,
     "mangled_component_name":"_ZN7android8hardware5audio6effect4V4_016IEqualizerEffect14setInputDeviceEj"
    },
    {
     "is_pure":true,
     "mangled_component_name":"_ZN7android8hardware5audio6effect4V4_016IEqualizerEffect9getConfigENSt3__18functionIFvNS3_6ResultERKNS3_12EffectConfigEEEE"
    },
    {
     "is_pure":true,
     "mangled_component_name":"_ZN7android8hardware5audio6effect4V4_016IEqualizerEffect16getConfigReverseENSt3__18functionIFvNS3_6ResultERKNS3_12EffectConfigEEEE"
    },
    {
     "is_pure":true,
     "mangled_component_name":"_ZN7android8hardware5audio6effect4V4_016IEqualizerEffect30getSupportedAuxChannelsConfigsEjNSt3__18functionIFvNS3_6ResultERKNS0_8hidl_vecINS3_23EffectAuxChannelsConfigEEEEEE"
    },
    {
     "is_pure":true,
     "mangled_component_name":"_ZN7android8hardware5audio6effect4V4_016IEqualizerEffect20getAuxChannelsConfigENSt3__18functionIFvNS3_6ResultERKNS3_23EffectAuxChannelsConfigEEEE"
    },
    {
     "is_pure":true,
     "mangled_component_name":"_ZN7android8hardware5audio6effect4V4_016IEqualizerEffect20setAuxChannelsConfigERKNS3_23EffectAuxChannelsConfigE"
    },
    {
     "is_pure":true,
     "mangled_component_name":"_ZN7android8hardware5audio6effect4V4_016IEqualizerEffect14setAudioSourceENS1_6common4V4_011AudioSourceE"
    },
    {
     "is_pure":true,
     "mangled_component_name":"_ZN7android8hardware5audio6effect4V4_016IEqualizerEffect7offloadERKNS3_22EffectOffloadParameterE"
    },
    {
     "is_pure":true,
     "mangled_component_name":"_ZN7android8hardware5audio6effect4V4_016IEqualizerEffect13getDescriptorENSt3__18functionIFvNS3_6ResultERKNS3_16EffectDescriptorEEEE"
    },
    {
     "is_pure":true,
     "mangled_component_name":"_ZN7android8hardware5audio6effect4V4_016IEqualizerEffect20prepareForProcessingENSt3__18functionIFvNS3_6ResultERKNS0_12MQDescriptorIS7_LNS0_8MQFlavorE1EEEEEE"
    },
    {
     "is_pure":true,
     "mangled_component_name":"_ZN7android8hardware5audio6effect4V4_016IEqualizerEffect17setProcessBuffersERKNS3_11AudioBufferES7_"
    },
    {
     "is_pure":true,
     "mangled_component_name":"_ZN7android8hardware5audio6effect4V4_016IEqualizerEffect7commandEjRKNS0_8hidl_vecIhEEjNSt3__18functionIFviS8_EEE"
    },
    {
     "is_pure":true,
     "mangled_component_name":"_ZN7android8hardware5audio6effect4V4_016IEqualizerEffect12setParameterERKNS0_8hidl_vecIhEES8_"
    },
    {
     "is_pure":true,
     "mangled_component_name":"_ZN7android8hardware5audio6effect4V4_016IEqualizerEffect12getParameterERKNS0_8hidl_vecIhEEjNSt3__18functionIFvNS3_6ResultES8_EEE"
    },
    {
     "is_pure":true,
     "mangled_component_name":"_ZN7android8hardware5audio6effect4V4_016IEqualizerEffect29getSupportedConfigsForFeatureEjjjNSt3__18functionIFvNS3_6ResultEjRKNS0_8hidl_vecIhEEEEE"
    },
    {
     "is_pure":true,
     "mangled_component_name":"_ZN7android8hardware5audio6effect4V4_016IEqualizerEffect26getCurrentConfigForFeatureEjjNSt3__18functionIFvNS3_6ResultERKNS0_8hidl_vecIhEEEEE"
    },
    {
     "is_pure":true,
     "mangled_component_name":"_ZN7android8hardware5audio6effect4V4_016IEqualizerEffect26setCurrentConfigForFeatureEjRKNS0_8hidl_vecIhEE"
    },
    {
     "is_pure":true,
     "mangled_component_name":"_ZN7android8hardware5audio6effect4V4_016IEqualizerEffect5closeEv"
    },
    {
     "is_pure":true,
     "mangled_component_name":"_ZN7android8hardware5audio6effect4V4_016IEqualizerEffect11getNumBandsENSt3__18functionIFvNS3_6ResultEtEEE"
    },
    {
     "is_pure":true,
     "mangled_component_name":"_ZN7android8hardware5audio6effect4V4_016IEqualizerEffect13getLevelRangeENSt3__18functionIFvNS3_6ResultEssEEE"
    },
    {
     "is_pure":true,
     "mangled_component_name":"_ZN7android8hardware5audio6effect4V4_016IEqualizerEffect12setBandLevelEts"
    },
    {
     "is_pure":true,
     "mangled_component_name":"_ZN7android8hardware5audio6effect4V4_016IEqualizerEffect12getBandLevelEtNSt3__18functionIFvNS3_6ResultEsEEE"
    },
    {
     "is_pure":true,
     "mangled_component_name":"_ZN7android8hardware5audio6effect4V4_016IEqualizerEffect22getBandCenterFrequencyEtNSt3__18functionIFvNS3_6ResultEjEEE"
    },
    {
     "is_pure":true,
     "mangled_component_name":"_ZN7android8hardware5audio6effect4V4_016IEqualizerEffect21getBandFrequencyRangeEtNSt3__18functionIFvNS3_6ResultEjjEEE"
    },
    {
     "is_pure":true,
     "mangled_component_name":"_ZN7android8hardware5audio6effect4V4_016IEqualizerEffect19getBandForFrequencyEjNSt3__18functionIFvNS3_6ResultEtEEE"
    },
    {
     "is_pure":true,
     "mangled_component_name":"_ZN7android8hardware5audio6effect4V4_016IEqualizerEffect14getPresetNamesENSt3__18functionIFvNS3_6ResultERKNS0_8hidl_vecINS0_11hidl_stringEEEEEE"
    },
    {
     "is_pure":true,
     "mangled_component_name":"_ZN7android8hardware5audio6effect4V4_016IEqualizerEffect16setCurrentPresetEt"
    },
    {
     "is_pure":true,
     "mangled_component_name":"_ZN7android8hardware5audio6effect4V4_016IEqualizerEffect16getCurrentPresetENSt3__18functionIFvNS3_6ResultEtEEE"
    },
    {
     "is_pure":true,
     "mangled_component_name":"_ZN7android8hardware5audio6effect4V4_016IEqualizerEffect16setAllPropertiesERKNS4_13AllPropertiesE"
    },
    {
     "is_pure":true,
     "mangled_component_name":"_ZN7android8hardware5audio6effect4V4_016IEqualizerEffect16getAllPropertiesENSt3__18functionIFvNS3_6ResultERKNS4_13AllPropertiesEEEE"
    },
    {
     "kind":"vcall_offset"
    },
    {
     "kind":"vcall_offset"
    },
    {
     "kind":"vcall_offset"
    },
    {
     "kind":"vcall_offset"
    },
    {
     "kind":"vcall_offset",
     "component_value":-8
    },
    {
     "kind":"offset_to_top",
     "component_value":-8
    },
    {
     "kind":"rtti",
     "mangled_component_name":"_ZTIN7android8hardware5audio6effect4V4_016IEqualizerEffectE"
    },
    {
     "kind":"complete_dtor_pointer",
     "mangled_component_name":"_ZTv0_n24_N7android8hardware5audio6effect4V4_016IEqualizerEffectD1Ev"
    },
    {
     "kind":"deleting_dtor_pointer",
     "mangled_component_name":"_ZTv0_n24_N7android8hardware5audio6effect4V4_016IEqualizerEffectD0Ev"
    },
    {
     "mangled_component_name":"_ZN7android7RefBase10onFirstRefEv"
    },
    {
     "mangled_component_name":"_ZN7android7RefBase15onLastStrongRefEPKv"
    },
    {
     "mangled_component_name":"_ZN7android7RefBase20onIncStrongAttemptedEjPKv"
    },
    {
     "mangled_component_name":"_ZN7android7RefBase13onLastWeakRefEPKv"
    }
   ],
   "unique_id":"_ZTSN7android8hardware5audio6effect4V4_016IEqualizerEffectE"
  },
  {
   "vtable_components":[
    {
     "kind":"vbase_offset",
     "component_value":136
    },
    {
     "kind":"offset_to_top"
    },
    {
     "kind":"rtti",
     "mangled_component_name":"_ZTIN7android8hardware5audio6effect4V4_019BnHwEqualizerEffectE"
    },
    {
     "mangled_component_name":"_ZN7android8hardware9BHwBinder8transactEjRKNS0_6ParcelEPS2_jNSt3__18functionIFvRS2_EEE"
    },
    {
     "mangled_component_name":"_ZN7android8hardware9BHwBinder11linkToDeathERKNS_2spINS0_7IBinder14DeathRecipientEEEPvj"
    },
    {
     "mangled_component_name":"_ZN7android8hardware9BHwBinder13unlinkToDeathERKNS_2wpINS0_7IBinder14DeathRecipientEEEPvjPS5_"
    },
    {
     "mangled_component_name":"_ZNK7android8hardware7IBinder13checkSubclassEPKv"
    },
    {
     "mangled_component_name":"_ZN7android8hardware9BHwBinder12attachObjectEPKvPvS4_PFvS3_S4_S4_E"
    },
    {
     "mangled_component_name":"_ZNK7android8hardware9BHwBinder10findObjectEPKv"
    },
    {
     "mangled_component_name":"_ZN7android8hardware9BHwBinder12detachObjectEPKv"
    },
    {
     "mangled_component_name":"_ZN7android8hardware9BHwBinder11localBinderEv"
    },
    {
     "mangled_component_name":"_ZN7android8hardware7IBinder12remoteBinderEv"
    },
    {
     "kind":"complete_dtor_pointer",
     "mangled_component_name":"_ZN7android8hardware5audio6effect4V4_019BnHwEqualizerEffectD1Ev"
    },
    {
     "kind":"deleting_dtor_pointer",
     "mangled_component_name":"_ZN7android8hardware5audio6effect4V4_019BnHwEqualizerEffectD0Ev"
    },
    {
     "mangled_component_name":"_ZN7android8hardware5audio6effect4V4_019BnHwEqualizerEffect10onTransactEjRKNS0_6ParcelEPS5_jNSt3__18functionIFvRS5_EEE"
    },
    {
     "kind":"offset_to_top",
     "component_value":-32
    },
    {
     "kind":"rtti",
     "mangled_component_name":"_ZTIN7android8hardware5audio6effect4V4_019BnHwEqualizerEffectE"
    },
    {
     "kind":"complete_dtor_pointer",
     "mangled_component_name":"_ZThn32_N7android8hardware5audio6effect4V4_019BnHwEqualizerEffectD1Ev"
    },
    {
     "kind":"deleting_dtor_pointer",
     "mangled_component_name":"_ZThn32_N7android8hardware5audio6effect4V4_019BnHwEqualizerEffectD0Ev"
    },
    {
     "kind":"vcall_offset"
    },
    {
     "kind":"vcall_offset"
    },
    {
     "kind":"vcall_offset"
    },
    {
     "kind":"vcall_offset"
    },
    {
     "kind":"vcall_offset",
     "component_value":-136
    },
    {
     "kind":"offset_to_top",
     "component_value":-136
    },
    {
     "kind":"rtti",
     "mangled_component_name":"_ZTIN7android8hardware5audio6effect4V4_019BnHwEqualizerEffectE"
    },
    {
     "kind":"complete_dtor_pointer",
     "mangled_component_name":"_ZTv0_n24_N7android8hardware5audio6effect4V4_019BnHwEqualizerEffectD1Ev"
    },
    {
     "kind":"deleting_dtor_pointer",
     "mangled_component_name":"_ZTv0_n24_N7android8hardware5audio6effect4V4_019BnHwEqualizerEffectD0Ev"
    },
    {
     "mangled_component_name":"_ZN7android7RefBase10onFirstRefEv"
    },
    {
     "mangled_component_name":"_ZN7android7RefBase15onLastStrongRefEPKv"
    },
    {
     "mangled_component_name":"_ZN7android7RefBase20onIncStrongAttemptedEjPKv"
    },
    {
     "mangled_component_name":"_ZN7android7RefBase13onLastWeakRefEPKv"
    }
   ],
   "unique_id":"_ZTSN7android8hardware5audio6effect4V4_019BnHwEqualizerEffectE"
  },
  {
   "vtable_components":[
    {
     "kind":"vbase_offset",
     "component_value":120
    },
    {
     "kind":"offset_to_top"
    },
    {
     "kind":"rtti",
     "mangled_component_name":"_ZTIN7android8hardware5audio6effect4V4_017BsEqualizerEffectE"
    },
    {
     "mangled_component_name":"_ZNK7android8hardware5audio6effect4V4_016IEqualizerEffect8isRemoteEv"
    },
    {
     "mangled_component_name":"_ZN7android8hardware5audio6effect4V4_017BsEqualizerEffect14interfaceChainENSt3__18functionIFvRKNS0_8hidl_vecINS0_11hidl_stringEEEEEE"
    },
    {
     "mangled_component_name":"_ZN7android8hardware5audio6effect4V4_017BsEqualizerEffect5debugERKNS0_11hidl_handleERKNS0_8hidl_vecINS0_11hidl_stringEEE"
    },
    {
     "mangled_component_name":"_ZN7android8hardware5audio6effect4V4_017BsEqualizerEffect19interfaceDescriptorENSt3__18functionIFvRKNS0_11hidl_stringEEEE"
    },
    {
     "mangled_component_name":"_ZN7android8hardware5audio6effect4V4_017BsEqualizerEffect12getHashChainENSt3__18functionIFvRKNS0_8hidl_vecINS0_10hidl_arrayIhLm32EJEEEEEEEE"
    },
    {
     "mangled_component_name":"_ZN7android8hardware5audio6effect4V4_017BsEqualizerEffect21setHALInstrumentationEv"
    },
    {
     "mangled_component_name":"_ZN7android8hardware5audio6effect4V4_017BsEqualizerEffect11linkToDeathERKNS_2spINS0_20hidl_death_recipientEEEm"
    },
    {
     "mangled_component_name":"_ZN7android8hardware5audio6effect4V4_017BsEqualizerEffect4pingEv"
    },
    {
     "mangled_component_name":"_ZN7android8hardware5audio6effect4V4_017BsEqualizerEffect12getDebugInfoENSt3__18functionIFvRKNS_4hidl4base4V1_09DebugInfoEEEE"
    },
    {
     "mangled_component_name":"_ZN7android8hardware5audio6effect4V4_017BsEqualizerEffect21notifySyspropsChangedEv"
    },
    {
     "mangled_component_name":"_ZN7android8hardware5audio6effect4V4_017BsEqualizerEffect13unlinkToDeathERKNS_2spINS0_20hidl_death_recipientEEE"
    },
    {
     "kind":"complete_dtor_pointer",
     "mangled_component_name":"_ZN7android8hardware5audio6effect4V4_017BsEqualizerEffectD1Ev"
    },
    {
     "kind":"deleting_dtor_pointer",
     "mangled_component_name":"_ZN7android8hardware5audio6effect4V4_017BsEqualizerEffectD0Ev"
    },
    {
     "mangled_component_name":"_ZN7android8hardware5audio6effect4V4_017BsEqualizerEffect4initEv"
    },
    {
     "mangled_component_name":"_ZN7android8hardware5audio6effect4V4_017BsEqualizerEffect9setConfigERKNS3_12EffectConfigERKNS_2spINS3_29IEffectBufferProviderCallbackEEESC_"
    },
    {
     "mangled_component_name":"_ZN7android8hardware5audio6effect4V4_017BsEqualizerEffect5resetEv"
    },
    {
     "mangled_component_name":"_ZN7android8hardware5audio6effect4V4_017BsEqualizerEffect6enableEv"
    },
    {
     "mangled_component_name":"_ZN7android8hardware5audio6effect4V4_017BsEqualizerEffect7disableEv"
    },
    {
     "mangled_component_name":"_ZN7android8hardware5audio6effect4V4_017BsEqualizerEffect9setDeviceEj"
    },
    {
     "mangled_component_name":"_ZN7android8hardware5audio6effect4V4_017BsEqualizerEffect15setAndGetVolumeERKNS0_8hidl_vecIjEENSt3__18functionIFvNS3_6ResultES8_EEE"
    },
    {
     "mangled_component_name":"_ZN7android8hardware5audio6effect4V4_017BsEqualizerEffect24volumeChangeNotificationERKNS0_8hidl_vecIjEE"
    },
    {
     "mangled_component_name":"_ZN7android8hardware5audio6effect4V4_017BsEqualizerEffect12setAudioModeENS1_6common4V4_09AudioModeE"
    },
    {
     "mangled_component_name":"_ZN7android8hardware5audio6effect4V4_017BsEqualizerEffect16setConfigReverseERKNS3_12EffectConfigERKNS_2spINS3_29IEffectBufferProviderCallbackEEESC_"
    },
    {
     "mangled_component_name":"_ZN7android8hardware5audio6effect4V4_017BsEqualizerEffect14setInputDeviceEj"
    },
    {
     "mangled_component_name":"_ZN7android8hardware5audio6effect4V4_017BsEqualizerEffect9getConfigENSt3__18functionIFvNS3_6ResultERKNS3_12EffectConfigEEEE"
    },
    {
     "mangled_component_name":"_ZN7android8hardware5audio6effect4V4_017BsEqualizerEffect16getConfigReverseENSt3__18functionIFvNS3_6ResultERKNS3_12EffectConfigEEEE"
    },
    {
     "mangled_component_name":"_ZN7android8hardware5audio6effect4V4_017BsEqualizerEffect30getSupportedAuxChannelsConfigsEjNSt3__18functionIFvNS3_6ResultERKNS0_8hidl_vecINS3_23EffectAuxChannelsConfigEEEEEE"
    },
    {
     "mangled_component_name":"_ZN7android8hardware5audio6effect4V4_017BsEqualizerEffect20getAuxChannelsConfigENSt3__18functionIFvNS3_6ResultERKNS3_23EffectAuxChannelsConfigEEEE"
    },
    {
     "mangled_component_name":"_ZN7android8hardware5audio6effect4V4_017BsEqualizerEffect20setAuxChannelsConfigERKNS3_23EffectAuxChannelsConfigE"
    },
    {
     "mangled_component_name":"_ZN7android8hardware5audio6effect4V4_017BsEqualizerEffect14setAudioSourceENS1_6common4V4_011AudioSourceE"
    },
    {
     "mangled_component_name":"_ZN7android8hardware5audio6effect4V4_017BsEqualizerEffect7offloadERKNS3_22EffectOffloadParameterE"
    },
    {
     "mangled_component_name":"_ZN7android8hardware5audio6effect4V4_017BsEqualizerEffect13getDescriptorENSt3__18functionIFvNS3_6ResultERKNS3_16EffectDescriptorEEEE"
    },
    {
     "mangled_component_name":"_ZN7android8hardware5audio6effect4V4_017BsEqualizerEffect20prepareForProcessingENSt3__18functionIFvNS3_6ResultERKNS0_12MQDescriptorIS7_LNS0_8MQFlavorE1EEEEEE"
    },
    {
     "mangled_component_name":"_ZN7android8hardware5audio6effect4V4_017BsEqualizerEffect17setProcessBuffersERKNS3_11AudioBufferES7_"
    },
    {
     "mangled_component_name":"_ZN7android8hardware5audio6effect4V4_017BsEqualizerEffect7commandEjRKNS0_8hidl_vecIhEEjNSt3__18functionIFviS8_EEE"
    },
    {
     "mangled_component_name":"_ZN7android8hardware5audio6effect4V4_017BsEqualizerEffect12setParameterERKNS0_8hidl_vecIhEES8_"
    },
    {
     "mangled_component_name":"_ZN7android8hardware5audio6effect4V4_017BsEqualizerEffect12getParameterERKNS0_8hidl_vecIhEEjNSt3__18functionIFvNS3_6ResultES8_EEE"
    },
    {
     "mangled_component_name":"_ZN7android8hardware5audio6effect4V4_017BsEqualizerEffect29getSupportedConfigsForFeatureEjjjNSt3__18functionIFvNS3_6ResultEjRKNS0_8hidl_vecIhEEEEE"
    },
    {
     "mangled_component_name":"_ZN7android8hardware5audio6effect4V4_017BsEqualizerEffect26getCurrentConfigForFeatureEjjNSt3__18functionIFvNS3_6ResultERKNS0_8hidl_vecIhEEEEE"
    },
    {
     "mangled_component_name":"_ZN7android8hardware5audio6effect4V4_017BsEqualizerEffect26setCurrentConfigForFeatureEjRKNS0_8hidl_vecIhEE"
    },
    {
     "mangled_component_name":"_ZN7android8hardware5audio6effect4V4_017BsEqualizerEffect5closeEv"
    },
    {
     "mangled_component_name":"_ZN7android8hardware5audio6effect4V4_017BsEqualizerEffect11getNumBandsENSt3__18functionIFvNS3_6ResultEtEEE"
    },
    {
     "mangled_component_name":"_ZN7android8hardware5audio6effect4V4_017BsEqualizerEffect13getLevelRangeENSt3__18functionIFvNS3_6ResultEssEEE"
    },
    {
     "mangled_component_name":"_ZN7android8hardware5audio6effect4V4_017BsEqualizerEffect12setBandLevelEts"
    },
    {
     "mangled_component_name":"_ZN7android8hardware5audio6effect4V4_017BsEqualizerEffect12getBandLevelEtNSt3__18functionIFvNS3_6ResultEsEEE"
    },
    {
     "mangled_component_name":"_ZN7android8hardware5audio6effect4V4_017BsEqualizerEffect22getBandCenterFrequencyEtNSt3__18functionIFvNS3_6ResultEjEEE"
    },
    {
     "mangled_component_name":"_ZN7android8hardware5audio6effect4V4_017BsEqualizerEffect21getBandFrequencyRangeEtNSt3__18functionIFvNS3_6ResultEjjEEE"
    },
    {
     "mangled_component_name":"_ZN7android8hardware5audio6effect4V4_017BsEqualizerEffect19getBandForFrequencyEjNSt3__18functionIFvNS3_6ResultEtEEE"
    },
    {
     "mangled_component_name":"_ZN7android8hardware5audio6effect4V4_017BsEqualizerEffect14getPresetNamesENSt3__18functionIFvNS3_6ResultERKNS0_8hidl_vecINS0_11hidl_stringEEEEEE"
    },
    {
     "mangled_component_name":"_ZN7android8hardware5audio6effect4V4_017BsEqualizerEffect16setCurrentPresetEt"
    },
    {
     "mangled_component_name":"_ZN7android8hardware5audio6effect4V4_017BsEqualizerEffect16getCurrentPresetENSt3__18functionIFvNS3_6ResultEtEEE"
    },
    {
     "mangled_component_name":"_ZN7android8hardware5audio6effect4V4_017BsEqualizerEffect16setAllPropertiesERKNS3_16IEqualizerEffect13AllPropertiesE"
    },
    {
     "mangled_component_name":"_ZN7android8hardware5audio6effect4V4_017BsEqualizerEffect16getAllPropertiesENSt3__18functionIFvNS3_6ResultERKNS3_16IEqualizerEffect13AllPropertiesEEEE"
    },
    {
     "kind":"offset_to_top",
     "component_value":-8
    },
    {
     "kind":"rtti",
     "mangled_component_name":"_ZTIN7android8hardware5audio6effect4V4_017BsEqualizerEffectE"
    },
    {
     "kind":"complete_dtor_pointer",
     "mangled_component_name":"_ZThn8_N7android8hardware5audio6effect4V4_017BsEqualizerEffectD1Ev"
    },
    {
     "kind":"deleting_dtor_pointer",
     "mangled_component_name":"_ZThn8_N7android8hardware5audio6effect4V4_017BsEqualizerEffectD0Ev"
    },
    {
     "kind":"vcall_offset"
    },
    {
     "kind":"vcall_offset"
    },
    {
     "kind":"vcall_offset"
    },
    {
     "kind":"vcall_offset"
    },
    {
     "kind":"vcall_offset",
     "component_value":-120
    },
    {
     "kind":"offset_to_top",
     "component_value":-120
    },
    {
     "kind":"rtti",
     "mangled_component_name":"_ZTIN7android8hardware5audio6effect4V4_017BsEqualizerEffectE"
    },
    {
     "kind":"complete_dtor_pointer",
     "mangled_component_name":"_ZTv0_n24_N7android8hardware5audio6effect4V4_017BsEqualizerEffectD1Ev"
    },
    {
     "kind":"deleting_dtor_pointer",
     "mangled_component_name":"_ZTv0_n24_N7android8hardware5audio6effect4V4_017BsEqualizerEffectD0Ev"
    },
    {
     "mangled_component_name":"_ZN7android7RefBase10onFirstRefEv"
    },
    {
     "mangled_component_name":"_ZN7android7RefBase15onLastStrongRefEPKv"
    },
    {
     "mangled_component_name":"_ZN7android7RefBase20onIncStrongAttemptedEjPKv"
    },
    {
     "mangled_component_name":"_ZN7android7RefBase13onLastWeakRefEPKv"
    }
   ],
   "unique_id":"_ZTSN7android8hardware5audio6effect4V4_017BsEqualizerEffectE"
  },
  {
   "vtable_components":[
    {
     "kind":"vbase_offset",
     "component_value":200
    },
    {
     "kind":"offset_to_top"
    },
    {
     "kind":"rtti",
     "mangled_component_name":"_ZTIN7android8hardware5audio6effect4V4_019BpHwEqualizerEffectE"
    },
    {
     "mangled_component_name":"_ZNK7android8hardware5audio6effect4V4_019BpHwEqualizerEffect8isRemoteEv"
    },
    {
     "mangled_component_name":"_ZN7android8hardware5audio6effect4V4_019BpHwEqualizerEffect14interfaceChainENSt3__18functionIFvRKNS0_8hidl_vecINS0_11hidl_stringEEEEEE"
    },
    {
     "mangled_component_name":"_ZN7android8hardware5audio6effect4V4_019BpHwEqualizerEffect5debugERKNS0_11hidl_handleERKNS0_8hidl_vecINS0_11hidl_stringEEE"
    },
    {
     "mangled_component_name":"_ZN7android8hardware5audio6effect4V4_019BpHwEqualizerEffect19interfaceDescriptorENSt3__18functionIFvRKNS0_11hidl_stringEEEE"
    },
    {
     "mangled_component_name":"_ZN7android8hardware5audio6effect4V4_019BpHwEqualizerEffect12getHashChainENSt3__18functionIFvRKNS0_8hidl_vecINS0_10hidl_arrayIhLm32EJEEEEEEEE"
    },
    {
     "mangled_component_name":"_ZN7android8hardware5audio6effect4V4_019BpHwEqualizerEffect21setHALInstrumentationEv"
    },
    {
     "mangled_component_name":"_ZN7android8hardware5audio6effect4V4_019BpHwEqualizerEffect11linkToDeathERKNS_2spINS0_20hidl_death_recipientEEEm"
    },
    {
     "mangled_component_name":"_ZN7android8hardware5audio6effect4V4_019BpHwEqualizerEffect4pingEv"
    },
    {
     "mangled_component_name":"_ZN7android8hardware5audio6effect4V4_019BpHwEqualizerEffect12getDebugInfoENSt3__18functionIFvRKNS_4hidl4base4V1_09DebugInfoEEEE"
    },
    {
     "mangled_component_name":"_ZN7android8hardware5audio6effect4V4_019BpHwEqualizerEffect21notifySyspropsChangedEv"
    },
    {
     "mangled_component_name":"_ZN7android8hardware5audio6effect4V4_019BpHwEqualizerEffect13unlinkToDeathERKNS_2spINS0_20hidl_death_recipientEEE"
    },
    {
     "kind":"complete_dtor_pointer",
     "mangled_component_name":"_ZN7android8hardware5audio6effect4V4_019BpHwEqualizerEffectD1Ev"
    },
    {
     "kind":"deleting_dtor_pointer",
     "mangled_component_name":"_ZN7android8hardware5audio6effect4V4_019BpHwEqualizerEffectD0Ev"
    },
    {
     "mangled_component_name":"_ZN7android8hardware5audio6effect4V4_019BpHwEqualizerEffect4initEv"
    },
    {
     "mangled_component_name":"_ZN7android8hardware5audio6effect4V4_019BpHwEqualizerEffect9setConfigERKNS3_12EffectConfigERKNS_2spINS3_29IEffectBufferProviderCallbackEEESC_"
    },
    {
     "mangled_component_name":"_ZN7android8hardware5audio6effect4V4_019BpHwEqualizerEffect5resetEv"
    },
    {
     "mangled_component_name":"_ZN7android8hardware5audio6effect4V4_019BpHwEqualizerEffect6enableEv"
    },
    {
     "mangled_component_name":"_ZN7android8hardware5audio6effect4V4_019BpHwEqualizerEffect7disableEv"
    },
    {
     "mangled_component_name":"_ZN7android8hardware5audio6effect4V4_019BpHwEqualizerEffect9setDeviceEj"
    },
    {
     "mangled_component_name":"_ZN7android8hardware5audio6effect4V4_019BpHwEqualizerEffect15setAndGetVolumeERKNS0_8hidl_vecIjEENSt3__18functionIFvNS3_6ResultES8_EEE"
    },
    {
     "mangled_component_name":"_ZN7android8hardware5audio6effect4V4_019BpHwEqualizerEffect24volumeChangeNotificationERKNS0_8hidl_vecIjEE"
    },
    {
     "mangled_component_name":"_ZN7android8hardware5audio6effect4V4_019BpHwEqualizerEffect12setAudioModeENS1_6common4V4_09AudioModeE"
    },
    {
     "mangled_component_name":"_ZN7android8hardware5audio6effect4V4_019BpHwEqualizerEffect16setConfigReverseERKNS3_12EffectConfigERKNS_2spINS3_29IEffectBufferProviderCallbackEEESC_"
    },
    {
     "mangled_component_name":"_ZN7android8hardware5audio6effect4V4_019BpHwEqualizerEffect14setInputDeviceEj"
    },
    {
     "mangled_component_name":"_ZN7android8hardware5audio6effect4V4_019BpHwEqualizerEffect9getConfigENSt3__18functionIFvNS3_6ResultERKNS3_12EffectConfigEEEE"
    },
    {
     "mangled_component_name":"_ZN7android8hardware5audio6effect4V4_019BpHwEqualizerEffect16getConfigReverseENSt3__18functionIFvNS3_6ResultERKNS3_12EffectConfigEEEE"
    },
    {
     "mangled_component_name":"_ZN7android8hardware5audio6effect4V4_019BpHwEqualizerEffect30getSupportedAuxChannelsConfigsEjNSt3__18functionIFvNS3_6ResultERKNS0_8hidl_vecINS3_23EffectAuxChannelsConfigEEEEEE"
    },
    {
     "mangled_component_name":"_ZN7android8hardware5audio6effect4V4_019BpHwEqualizerEffect20getAuxChannelsConfigENSt3__18functionIFvNS3_6ResultERKNS3_23EffectAuxChannelsConfigEEEE"
    },
    {
     "mangled_component_name":"_ZN7android8hardware5audio6effect4V4_019BpHwEqualizerEffect20setAuxChannelsConfigERKNS3_23EffectAuxChannelsConfigE"
    },
    {
     "mangled_component_name":"_ZN7android8hardware5audio6effect4V4_019BpHwEqualizerEffect14setAudioSourceENS1_6common4V4_011AudioSourceE"
    },
    {
     "mangled_component_name":"_ZN7android8hardware5audio6effect4V4_019BpHwEqualizerEffect7offloadERKNS3_22EffectOffloadParameterE"
    },
    {
     "mangled_component_name":"_ZN7android8hardware5audio6effect4V4_019BpHwEqualizerEffect13getDescriptorENSt3__18functionIFvNS3_6ResultERKNS3_16EffectDescriptorEEEE"
    },
    {
     "mangled_component_name":"_ZN7android8hardware5audio6effect4V4_019BpHwEqualizerEffect20prepareForProcessingENSt3__18functionIFvNS3_6ResultERKNS0_12MQDescriptorIS7_LNS0_8MQFlavorE1EEEEEE"
    },
    {
     "mangled_component_name":"_ZN7android8hardware5audio6effect4V4_019BpHwEqualizerEffect17setProcessBuffersERKNS3_11AudioBufferES7_"
    },
    {
     "mangled_component_name":"_ZN7android8hardware5audio6effect4V4_019BpHwEqualizerEffect7commandEjRKNS0_8hidl_vecIhEEjNSt3__18functionIFviS8_EEE"
    },
    {
     "mangled_component_name":"_ZN7android8hardware5audio6effect4V4_019BpHwEqualizerEffect12setParameterERKNS0_8hidl_vecIhEES8_"
    },
    {
     "mangled_component_name":"_ZN7android8hardware5audio6effect4V4_019BpHwEqualizerEffect12getParameterERKNS0_8hidl_vecIhEEjNSt3__18functionIFvNS3_6ResultES8_EEE"
    },
    {
     "mangled_component_name":"_ZN7android8hardware5audio6effect4V4_019BpHwEqualizerEffect29getSupportedConfigsForFeatureEjjjNSt3__18functionIFvNS3_6ResultEjRKNS0_8hidl_vecIhEEEEE"
    },
    {
     "mangled_component_name":"_ZN7android8hardware5audio6effect4V4_019BpHwEqualizerEffect26getCurrentConfigForFeatureEjjNSt3__18functionIFvNS3_6ResultERKNS0_8hidl_vecIhEEEEE"
    },
    {
     "mangled_component_name":"_ZN7android8hardware5audio6effect4V4_019BpHwEqualizerEffect26setCurrentConfigForFeatureEjRKNS0_8hidl_vecIhEE"
    },
    {
     "mangled_component_name":"_ZN7android8hardware5audio6effect4V4_019BpHwEqualizerEffect5closeEv"
    },
    {
     "mangled_component_name":"_ZN7android8hardware5audio6effect4V4_019BpHwEqualizerEffect11getNumBandsENSt3__18functionIFvNS3_6ResultEtEEE"
    },
    {
     "mangled_component_name":"_ZN7android8hardware5audio6effect4V4_019BpHwEqualizerEffect13getLevelRangeENSt3__18functionIFvNS3_6ResultEssEEE"
    },
    {
     "mangled_component_name":"_ZN7android8hardware5audio6effect4V4_019BpHwEqualizerEffect12setBandLevelEts"
    },
    {
     "mangled_component_name":"_ZN7android8hardware5audio6effect4V4_019BpHwEqualizerEffect12getBandLevelEtNSt3__18functionIFvNS3_6ResultEsEEE"
    },
    {
     "mangled_component_name":"_ZN7android8hardware5audio6effect4V4_019BpHwEqualizerEffect22getBandCenterFrequencyEtNSt3__18functionIFvNS3_6ResultEjEEE"
    },
    {
     "mangled_component_name":"_ZN7android8hardware5audio6effect4V4_019BpHwEqualizerEffect21getBandFrequencyRangeEtNSt3__18functionIFvNS3_6ResultEjjEEE"
    },
    {
     "mangled_component_name":"_ZN7android8hardware5audio6effect4V4_019BpHwEqualizerEffect19getBandForFrequencyEjNSt3__18functionIFvNS3_6ResultEtEEE"
    },
    {
     "mangled_component_name":"_ZN7android8hardware5audio6effect4V4_019BpHwEqualizerEffect14getPresetNamesENSt3__18functionIFvNS3_6ResultERKNS0_8hidl_vecINS0_11hidl_stringEEEEEE"
    },
    {
     "mangled_component_name":"_ZN7android8hardware5audio6effect4V4_019BpHwEqualizerEffect16setCurrentPresetEt"
    },
    {
     "mangled_component_name":"_ZN7android8hardware5audio6effect4V4_019BpHwEqualizerEffect16getCurrentPresetENSt3__18functionIFvNS3_6ResultEtEEE"
    },
    {
     "mangled_component_name":"_ZN7android8hardware5audio6effect4V4_019BpHwEqualizerEffect16setAllPropertiesERKNS3_16IEqualizerEffect13AllPropertiesE"
    },
    {
     "mangled_component_name":"_ZN7android8hardware5audio6effect4V4_019BpHwEqualizerEffect16getAllPropertiesENSt3__18functionIFvNS3_6ResultERKNS3_16IEqualizerEffect13AllPropertiesEEEE"
    },
    {
     "mangled_component_name":"_ZN7android8hardware11BpInterfaceINS0_5audio6effect4V4_016IEqualizerEffectEE10onAsBinderEv"
    },
    {
     "kind":"vbase_offset",
     "component_value":192
    },
    {
     "kind":"offset_to_top",
     "component_value":-8
    },
    {
     "kind":"rtti",
     "mangled_component_name":"_ZTIN7android8hardware5audio6effect4V4_019BpHwEqualizerEffectE"
    },
    {
     "kind":"complete_dtor_pointer",
     "mangled_component_name":"_ZThn8_N7android8hardware5audio6effect4V4_019BpHwEqualizerEffectD1Ev"
    },
    {
     "kind":"deleting_dtor_pointer",
     "mangled_component_name":"_ZThn8_N7android8hardware5audio6effect4V4_019BpHwEqualizerEffectD0Ev"
    },
    {
     "mangled_component_name":"_ZThn8_N7android8hardware11BpInterfaceINS0_5audio6effect4V4_016IEqualizerEffectEE10onAsBinderEv"
    },
    {
     "kind":"vbase_offset",
     "component_value":184
    },
    {
     "kind":"offset_to_top",
     "component_value":-16
    },
    {
     "kind":"rtti",
     "mangled_component_name":"_ZTIN7android8hardware5audio6effect4V4_019BpHwEqualizerEffectE"
    },
    {
     "kind":"complete_dtor_pointer",
     "mangled_component_name":"_ZThn16_N7android8hardware5audio6effect4V4_019BpHwEqualizerEffectD1Ev"
    },
    {
     "kind":"deleting_dtor_pointer",
     "mangled_component_name":"_ZThn16_N7android8hardware5audio6effect4V4_019BpHwEqualizerEffectD0Ev"
    },
    {
     "mangled_component_name":"_ZN7android8hardware11BpHwRefBase10onFirstRefEv"
    },
    {
     "mangled_component_name":"_ZN7android8hardware11BpHwRefBase15onLastStrongRefEPKv"
    },
    {
     "mangled_component_name":"_ZN7android8hardware11BpHwRefBase20onIncStrongAttemptedEjPKv"
    },
    {
     "kind":"offset_to_top",
     "component_value":-48
    },
    {
     "kind":"rtti",
     "mangled_component_name":"_ZTIN7android8hardware5audio6effect4V4_019BpHwEqualizerEffectE"
    },
    {
     "kind":"complete_dtor_pointer",
     "mangled_component_name":"_ZThn48_N7android8hardware5audio6effect4V4_019BpHwEqualizerEffectD1Ev"
    },
    {
     "kind":"deleting_dtor_pointer",
     "mangled_component_name":"_ZThn48_N7android8hardware5audio6effect4V4_019BpHwEqualizerEffectD0Ev"
    },
    {
     "kind":"vcall_offset"
    },
    {
     "kind":"vcall_offset",
     "component_value":-184
    },
    {
     "kind":"vcall_offset",
     "component_value":-184
    },
    {
     "kind":"vcall_offset",
     "component_value":-184
    },
    {
     "kind":"vcall_offset",
     "component_value":-200
    },
    {
     "kind":"offset_to_top",
     "component_value":-200
    },
    {
     "kind":"rtti",
     "mangled_component_name":"_ZTIN7android8hardware5audio6effect4V4_019BpHwEqualizerEffectE"
    },
    {
     "kind":"complete_dtor_pointer",
     "mangled_component_name":"_ZTv0_n24_N7android8hardware5audio6effect4V4_019BpHwEqualizerEffectD1Ev"
    },
    {
     "kind":"deleting_dtor_pointer",
     "mangled_component_name":"_ZTv0_n24_N7android8hardware5audio6effect4V4_019BpHwEqualizerEffectD0Ev"
    },
    {
     "mangled_component_name":"_ZTv0_n32_N7android8hardware11BpHwRefBase10onFirstRefEv"
    },
    {
     "mangled_component_name":"_ZTv0_n40_N7android8hardware11BpHwRefBase15onLastStrongRefEPKv"
    },
    {
     "mangled_component_name":"_ZTv0_n48_N7android8hardware11BpHwRefBase20onIncStrongAttemptedEjPKv"
    },
    {
     "mangled_component_name":"_ZN7android7RefBase13onLastWeakRefEPKv"
    }
   ],
   "unique_id":"_ZTSN7android8hardware5audio6effect4V4_019BpHwEqualizerEffectE"
  }
 ],
 "elf_functions":[
  {
   "binding":"weak",
   "name":"_ZN7android8hardware10fromBinderINS0_5audio6effect4V4_029IEffectBufferProviderCallbackENS4_32BpHwEffectBufferProviderCallbackENS4_32BnHwEffectBufferProviderCallbackEEENS_2spIT_EERKNS8_INS0_7IBinderEEE"
  },
  {
   "binding":"weak",
   "name":"_ZN7android8hardware10fromBinderINS0_5audio6effect4V4_07IEffectENS4_10BpHwEffectENS4_10BnHwEffectEEENS_2spIT_EERKNS8_INS0_7IBinderEEE"
  },
  {
   "name":"_ZN7android8hardware5audio6effect4V4_010BnHwEffect10_hidl_initEPNS_4hidl4base4V1_08BnHwBaseERKNS0_6ParcelEPSA_NSt3__18functionIFvRSA_EEE"
  },
  {
   "name":"_ZN7android8hardware5audio6effect4V4_010BnHwEffect10onTransactEjRKNS0_6ParcelEPS5_jNSt3__18functionIFvRS5_EEE"
  },
  {
   "name":"_ZN7android8hardware5audio6effect4V4_010BnHwEffect11_hidl_closeEPNS_4hidl4base4V1_08BnHwBaseERKNS0_6ParcelEPSA_NSt3__18functionIFvRSA_EEE"
  },
  {
   "name":"_ZN7android8hardware5audio6effect4V4_010BnHwEffect11_hidl_resetEPNS_4hidl4base4V1_08BnHwBaseERKNS0_6ParcelEPSA_NSt3__18functionIFvRSA_EEE"
  },
  {
   "name":"_ZN7android8hardware5audio6effect4V4_010BnHwEffect12_hidl_enableEPNS_4hidl4base4V1_08BnHwBaseERKNS0_6ParcelEPSA_NSt3__18functionIFvRSA_EEE"
  },
  {
   "name":"_ZN7android8hardware5audio6effect4V4_010BnHwEffect12getDebugInfoENSt3__18functionIFvRKNS_4hidl4base4V1_09DebugInfoEEEE"
  },
  {
   "name":"_ZN7android8hardware5audio6effect4V4_010BnHwEffect13_hidl_commandEPNS_4hidl4base4V1_08BnHwBaseERKNS0_6ParcelEPSA_NSt3__18functionIFvRSA_EEE"
  },
  {
   "name":"_ZN7android8hardware5audio6effect4V4_010BnHwEffect13_hidl_disableEPNS_4hidl4base4V1_08BnHwBaseERKNS0_6ParcelEPSA_NSt3__18functionIFvRSA_EEE"
  },
  {
   "name":"_ZN7android8hardware5audio6effect4V4_010BnHwEffect13_hidl_offloadEPNS_4hidl4base4V1_08BnHwBaseERKNS0_6ParcelEPSA_NSt3__18functionIFvRSA_EEE"
  },
  {
   "name":"_ZN7android8hardware5audio6effect4V4_010BnHwEffect15_hidl_getConfigEPNS_4hidl4base4V1_08BnHwBaseERKNS0_6ParcelEPSA_NSt3__18functionIFvRSA_EEE"
  },
  {
   "name":"_ZN7android8hardware5audio6effect4V4_010BnHwEffect15_hidl_setConfigEPNS_4hidl4base4V1_08BnHwBaseERKNS0_6ParcelEPSA_NSt3__18functionIFvRSA_EEE"
  },
  {
   "name":"_ZN7android8hardware5audio6effect4V4_010BnHwEffect15_hidl_setDeviceEPNS_4hidl4base4V1_08BnHwBaseERKNS0_6ParcelEPSA_NSt3__18functionIFvRSA_EEE"
  },
  {
   "name":"_ZN7android8hardware5audio6effect4V4_010BnHwEffect18_hidl_getParameterEPNS_4hidl4base4V1_08BnHwBaseERKNS0_6ParcelEPSA_NSt3__18functionIFvRSA_EEE"
  },
  {
   "name":"_ZN7android8hardware5audio6effect4V4_010BnHwEffect18_hidl_setAudioModeEPNS_4hidl4base4V1_08BnHwBaseERKNS0_6ParcelEPSA_NSt3__18functionIFvRSA_EEE"
  },
  {
   "name":"_ZN7android8hardware5audio6effect4V4_010BnHwEffect18_hidl_setParameterEPNS_4hidl4base4V1_08BnHwBaseERKNS0_6ParcelEPSA_NSt3__18functionIFvRSA_EEE"
  },
  {
   "name":"_ZN7android8hardware5audio6effect4V4_010BnHwEffect19_hidl_getDescriptorEPNS_4hidl4base4V1_08BnHwBaseERKNS0_6ParcelEPSA_NSt3__18functionIFvRSA_EEE"
  },
  {
   "name":"_ZN7android8hardware5audio6effect4V4_010BnHwEffect20_hidl_setAudioSourceEPNS_4hidl4base4V1_08BnHwBaseERKNS0_6ParcelEPSA_NSt3__18functionIFvRSA_EEE"
  },
  {
   "name":"_ZN7android8hardware5audio6effect4V4_010BnHwEffect20_hidl_setInputDeviceEPNS_4hidl4base4V1_08BnHwBaseERKNS0_6ParcelEPSA_NSt3__18functionIFvRSA_EEE"
  },
  {
   "name":"_ZN7android8hardware5audio6effect4V4_010BnHwEffect21_hidl_setAndGetVolumeEPNS_4hidl4base4V1_08BnHwBaseERKNS0_6ParcelEPSA_NSt3__18functionIFvRSA_EEE"
  },
  {
   "name":"_ZN7android8hardware5audio6effect4V4_010BnHwEffect22_hidl_getConfigReverseEPNS_4hidl4base4V1_08BnHwBaseERKNS0_6ParcelEPSA_NSt3__18functionIFvRSA_EEE"
  },
  {
   "name":"_ZN7android8hardware5audio6effect4V4_010BnHwEffect22_hidl_setConfigReverseEPNS_4hidl4base4V1_08BnHwBaseERKNS0_6ParcelEPSA_NSt3__18functionIFvRSA_EEE"
  },
  {
   "name":"_ZN7android8hardware5audio6effect4V4_010BnHwEffect23_hidl_setProcessBuffersEPNS_4hidl4base4V1_08BnHwBaseERKNS0_6ParcelEPSA_NSt3__18functionIFvRSA_EEE"
  },
  {
   "name":"_ZN7android8hardware5audio6effect4V4_010BnHwEffect26_hidl_getAuxChannelsConfigEPNS_4hidl4base4V1_08BnHwBaseERKNS0_6ParcelEPSA_NSt3__18functionIFvRSA_EEE"
  },
  {
   "name":"_ZN7android8hardware5audio6effect4V4_010BnHwEffect26_hidl_prepareForProcessingEPNS_4hidl4base4V1_08BnHwBaseERKNS0_6ParcelEPSA_NSt3__18functionIFvRSA_EEE"
  },
  {
   "name":"_ZN7android8hardware5audio6effect4V4_010BnHwEffect26_hidl_setAuxChannelsConfigEPNS_4hidl4base4V1_08BnHwBaseERKNS0_6ParcelEPSA_NSt3__18functionIFvRSA_EEE"
  },
  {
   "name":"_ZN7android8hardware5audio6effect4V4_010BnHwEffect30_hidl_volumeChangeNotificationEPNS_4hidl4base4V1_08BnHwBaseERKNS0_6ParcelEPSA_NSt3__18functionIFvRSA_EEE"
  },
  {
   "name":"_ZN7android8hardware5audio6effect4V4_010BnHwEffect32_hidl_getCurrentConfigForFeatureEPNS_4hidl4base4V1_08BnHwBaseERKNS0_6ParcelEPSA_NSt3__18functionIFvRSA_EEE"
  },
  {
   "name":"_ZN7android8hardware5audio6effect4V4_010BnHwEffect32_hidl_setCurrentConfigForFeatureEPNS_4hidl4base4V1_08BnHwBaseERKNS0_6ParcelEPSA_NSt3__18functionIFvRSA_EEE"
  },
  {
   "name":"_ZN7android8hardware5audio6effect4V4_010BnHwEffect35_hidl_getSupportedConfigsForFeatureEPNS_4hidl4base4V1_08BnHwBaseERKNS0_6ParcelEPSA_NSt3__18functionIFvRSA_EEE"
  },
  {
   "name":"_ZN7android8hardware5audio6effect4V4_010BnHwEffect36_hidl_getSupportedAuxChannelsConfigsEPNS_4hidl4base4V1_08BnHwBaseERKNS0_6ParcelEPSA_NSt3__18functionIFvRSA_EEE"
  },
  {
   "name":"_ZN7android8hardware5audio6effect4V4_010BnHwEffect4pingEv"
  },
  {
   "name":"_ZN7android8hardware5audio6effect4V4_010BnHwEffectC1ERKNS_2spINS3_7IEffectEEE"
  },
  {
   "name":"_ZN7android8hardware5audio6effect4V4_010BnHwEffectC2ERKNS_2spINS3_7IEffectEEE"
  },
  {
   "name":"_ZN7android8hardware5audio6effect4V4_010BnHwEffectD0Ev"
  },
  {
   "name":"_ZN7android8hardware5audio6effect4V4_010BnHwEffectD1Ev"
  },
  {
   "name":"_ZN7android8hardware5audio6effect4V4_010BnHwEffectD2Ev"
  },
  {
   "name":"_ZN7android8hardware5audio6effect4V4_010BpHwEffect10_hidl_initEPNS0_10IInterfaceEPNS0_7details16HidlInstrumentorE"
  },
  {
   "name":"_ZN7android8hardware5audio6effect4V4_010BpHwEffect11_hidl_closeEPNS0_10IInterfaceEPNS0_7details16HidlInstrumentorE"
  },
  {
   "name":"_ZN7android8hardware5audio6effect4V4_010BpHwEffect11_hidl_resetEPNS0_10IInterfaceEPNS0_7details16HidlInstrumentorE"
  },
  {
   "name":"_ZN7android8hardware5audio6effect4V4_010BpHwEffect11linkToDeathERKNS_2spINS0_20hidl_death_recipientEEEm"
  },
  {
   "name":"_ZN7android8hardware5audio6effect4V4_010BpHwEffect12_hidl_enableEPNS0_10IInterfaceEPNS0_7details16HidlInstrumentorE"
  },
  {
   "name":"_ZN7android8hardware5audio6effect4V4_010BpHwEffect12getDebugInfoENSt3__18functionIFvRKNS_4hidl4base4V1_09DebugInfoEEEE"
  },
  {
   "name":"_ZN7android8hardware5audio6effect4V4_010BpHwEffect12getHashChainENSt3__18functionIFvRKNS0_8hidl_vecINS0_10hidl_arrayIhLm32EJEEEEEEEE"
  },
  {
   "name":"_ZN7android8hardware5audio6effect4V4_010BpHwEffect12getParameterERKNS0_8hidl_vecIhEEjNSt3__18functionIFvNS3_6ResultES8_EEE"
  },
  {
   "name":"_ZN7android8hardware5audio6effect4V4_010BpHwEffect12setAudioModeENS1_6common4V4_09AudioModeE"
  },
  {
   "name":"_ZN7android8hardware5audio6effect4V4_010BpHwEffect12setParameterERKNS0_8hidl_vecIhEES8_"
  },
  {
   "name":"_ZN7android8hardware5audio6effect4V4_010BpHwEffect13_hidl_commandEPNS0_10IInterfaceEPNS0_7details16HidlInstrumentorEjRKNS0_8hidl_vecIhEEjNSt3__18functionIFviSD_EEE"
  },
  {
   "name":"_ZN7android8hardware5audio6effect4V4_010BpHwEffect13_hidl_disableEPNS0_10IInterfaceEPNS0_7details16HidlInstrumentorE"
  },
  {
   "name":"_ZN7android8hardware5audio6effect4V4_010BpHwEffect13_hidl_offloadEPNS0_10IInterfaceEPNS0_7details16HidlInstrumentorERKNS3_22EffectOffloadParameterE"
  },
  {
   "name":"_ZN7android8hardware5audio6effect4V4_010BpHwEffect13getDescriptorENSt3__18functionIFvNS3_6ResultERKNS3_16EffectDescriptorEEEE"
  },
  {
   "name":"_ZN7android8hardware5audio6effect4V4_010BpHwEffect13unlinkToDeathERKNS_2spINS0_20hidl_death_recipientEEE"
  },
  {
   "name":"_ZN7android8hardware5audio6effect4V4_010BpHwEffect14interfaceChainENSt3__18functionIFvRKNS0_8hidl_vecINS0_11hidl_stringEEEEEE"
  },
  {
   "name":"_ZN7android8hardware5audio6effect4V4_010BpHwEffect14setAudioSourceENS1_6common4V4_011AudioSourceE"
  },
  {
   "name":"_ZN7android8hardware5audio6effect4V4_010BpHwEffect14setInputDeviceEj"
  },
  {
   "name":"_ZN7android8hardware5audio6effect4V4_010BpHwEffect15_hidl_getConfigEPNS0_10IInterfaceEPNS0_7details16HidlInstrumentorENSt3__18functionIFvNS3_6ResultERKNS3_12EffectConfigEEEE"
  },
  {
   "name":"_ZN7android8hardware5audio6effect4V4_010BpHwEffect15_hidl_setConfigEPNS0_10IInterfaceEPNS0_7details16HidlInstrumentorERKNS3_12EffectConfigERKNS_2spINS3_29IEffectBufferProviderCallbackEEESH_"
  },
  {
   "name":"_ZN7android8hardware5audio6effect4V4_010BpHwEffect15_hidl_setDeviceEPNS0_10IInterfaceEPNS0_7details16HidlInstrumentorEj"
  },
  {
   "name":"_ZN7android8hardware5audio6effect4V4_010BpHwEffect15setAndGetVolumeERKNS0_8hidl_vecIjEENSt3__18functionIFvNS3_6ResultES8_EEE"
  },
  {
   "name":"_ZN7android8hardware5audio6effect4V4_010BpHwEffect16getConfigReverseENSt3__18functionIFvNS3_6ResultERKNS3_12EffectConfigEEEE"
  },
  {
   "name":"_ZN7android8hardware5audio6effect4V4_010BpHwEffect16setConfigReverseERKNS3_12EffectConfigERKNS_2spINS3_29IEffectBufferProviderCallbackEEESC_"
  },
  {
   "name":"_ZN7android8hardware5audio6effect4V4_010BpHwEffect17setProcessBuffersERKNS3_11AudioBufferES7_"
  },
  {
   "name":"_ZN7android8hardware5audio6effect4V4_010BpHwEffect18_hidl_getParameterEPNS0_10IInterfaceEPNS0_7details16HidlInstrumentorERKNS0_8hidl_vecIhEEjNSt3__18functionIFvNS3_6ResultESD_EEE"
  },
  {
   "name":"_ZN7android8hardware5audio6effect4V4_010BpHwEffect18_hidl_setAudioModeEPNS0_10IInterfaceEPNS0_7details16HidlInstrumentorENS1_6common4V4_09AudioModeE"
  },
  {
   "name":"_ZN7android8hardware5audio6effect4V4_010BpHwEffect18_hidl_setParameterEPNS0_10IInterfaceEPNS0_7details16HidlInstrumentorERKNS0_8hidl_vecIhEESD_"
  },
  {
   "name":"_ZN7android8hardware5audio6effect4V4_010BpHwEffect19_hidl_getDescriptorEPNS0_10IInterfaceEPNS0_7details16HidlInstrumentorENSt3__18functionIFvNS3_6ResultERKNS3_16EffectDescriptorEEEE"
  },
  {
   "name":"_ZN7android8hardware5audio6effect4V4_010BpHwEffect19interfaceDescriptorENSt3__18functionIFvRKNS0_11hidl_stringEEEE"
  },
  {
   "name":"_ZN7android8hardware5audio6effect4V4_010BpHwEffect20_hidl_setAudioSourceEPNS0_10IInterfaceEPNS0_7details16HidlInstrumentorENS1_6common4V4_011AudioSourceE"
  },
  {
   "name":"_ZN7android8hardware5audio6effect4V4_010BpHwEffect20_hidl_setInputDeviceEPNS0_10IInterfaceEPNS0_7details16HidlInstrumentorEj"
  },
  {
   "name":"_ZN7android8hardware5audio6effect4V4_010BpHwEffect20getAuxChannelsConfigENSt3__18functionIFvNS3_6ResultERKNS3_23EffectAuxChannelsConfigEEEE"
  },
  {
   "name":"_ZN7android8hardware5audio6effect4V4_010BpHwEffect20prepareForProcessingENSt3__18functionIFvNS3_6ResultERKNS0_12MQDescriptorIS7_LNS0_8MQFlavorE1EEEEEE"
  },
  {
   "name":"_ZN7android8hardware5audio6effect4V4_010BpHwEffect20setAuxChannelsConfigERKNS3_23EffectAuxChannelsConfigE"
  },
  {
   "name":"_ZN7android8hardware5audio6effect4V4_010BpHwEffect21_hidl_setAndGetVolumeEPNS0_10IInterfaceEPNS0_7details16HidlInstrumentorERKNS0_8hidl_vecIjEENSt3__18functionIFvNS3_6ResultESD_EEE"
  },
  {
   "name":"_ZN7android8hardware5audio6effect4V4_010BpHwEffect21notifySyspropsChangedEv"
  },
  {
   "name":"_ZN7android8hardware5audio6effect4V4_010BpHwEffect21setHALInstrumentationEv"
  },
  {
   "name":"_ZN7android8hardware5audio6effect4V4_010BpHwEffect22_hidl_getConfigReverseEPNS0_10IInterfaceEPNS0_7details16HidlInstrumentorENSt3__18functionIFvNS3_6ResultERKNS3_12EffectConfigEEEE"
  },
  {
   "name":"_ZN7android8hardware5audio6effect4V4_010BpHwEffect22_hidl_setConfigReverseEPNS0_10IInterfaceEPNS0_7details16HidlInstrumentorERKNS3_12EffectConfigERKNS_2spINS3_29IEffectBufferProviderCallbackEEESH_"
  },
  {
   "name":"_ZN7android8hardware5audio6effect4V4_010BpHwEffect23_hidl_setProcessBuffersEPNS0_10IInterfaceEPNS0_7details16HidlInstrumentorERKNS3_11AudioBufferESC_"
  },
  {
   "name":"_ZN7android8hardware5audio6effect4V4_010BpHwEffect24volumeChangeNotificationERKNS0_8hidl_vecIjEE"
  },
  {
   "name":"_ZN7android8hardware5audio6effect4V4_010BpHwEffect26_hidl_getAuxChannelsConfigEPNS0_10IInterfaceEPNS0_7details16HidlInstrumentorENSt3__18functionIFvNS3_6ResultERKNS3_23EffectAuxChannelsConfigEEEE"
  },
  {
   "name":"_ZN7android8hardware5audio6effect4V4_010BpHwEffect26_hidl_prepareForProcessingEPNS0_10IInterfaceEPNS0_7details16HidlInstrumentorENSt3__18functionIFvNS3_6ResultERKNS0_12MQDescriptorISC_LNS0_8MQFlavorE1EEEEEE"
  },
  {
   "name":"_ZN7android8hardware5audio6effect4V4_010BpHwEffect26_hidl_setAuxChannelsConfigEPNS0_10IInterfaceEPNS0_7details16HidlInstrumentorERKNS3_23EffectAuxChannelsConfigE"
  },
  {
   "name":"_ZN7android8hardware5audio6effect4V4_010BpHwEffect26getCurrentConfigForFeatureEjjNSt3__18functionIFvNS3_6ResultERKNS0_8hidl_vecIhEEEEE"
  },
  {
   "name":"_ZN7android8hardware5audio6effect4V4_010BpHwEffect26setCurrentConfigForFeatureEjRKNS0_8hidl_vecIhEE"
  },
  {
   "name":"_ZN7android8hardware5audio6effect4V4_010BpHwEffect29getSupportedConfigsForFeatureEjjjNSt3__18functionIFvNS3_6ResultEjRKNS0_8hidl_vecIhEEEEE"
  },
  {
   "name":"_ZN7android8hardware5audio6effect4V4_010BpHwEffect30_hidl_volumeChangeNotificationEPNS0_10IInterfaceEPNS0_7details16HidlInstrumentorERKNS0_8hidl_vecIjEE"
  },
  {
   "name":"_ZN7android8hardware5audio6effect4V4_010BpHwEffect30getSupportedAuxChannelsConfigsEjNSt3__18functionIFvNS3_6ResultERKNS0_8hidl_vecINS3_23EffectAuxChannelsConfigEEEEEE"
  },
  {
   "name":"_ZN7android8hardware5audio6effect4V4_010BpHwEffect32_hidl_getCurrentConfigForFeatureEPNS0_10IInterfaceEPNS0_7details16HidlInstrumentorEjjNSt3__18functionIFvNS3_6ResultERKNS0_8hidl_vecIhEEEEE"
  },
  {
   "name":"_ZN7android8hardware5audio6effect4V4_010BpHwEffect32_hidl_setCurrentConfigForFeatureEPNS0_10IInterfaceEPNS0_7details16HidlInstrumentorEjRKNS0_8hidl_vecIhEE"
  },
  {
   "name":"_ZN7android8hardware5audio6effect4V4_010BpHwEffect35_hidl_getSupportedConfigsForFeatureEPNS0_10IInterfaceEPNS0_7details16HidlInstrumentorEjjjNSt3__18functionIFvNS3_6ResultEjRKNS0_8hidl_vecIhEEEEE"
  },
  {
   "name":"_ZN7android8hardware5audio6effect4V4_010BpHwEffect36_hidl_getSupportedAuxChannelsConfigsEPNS0_10IInterfaceEPNS0_7details16HidlInstrumentorEjNSt3__18functionIFvNS3_6ResultERKNS0_8hidl_vecINS3_23EffectAuxChannelsConfigEEEEEE"
  },
  {
   "name":"_ZN7android8hardware5audio6effect4V4_010BpHwEffect4initEv"
  },
  {
   "name":"_ZN7android8hardware5audio6effect4V4_010BpHwEffect4pingEv"
  },
  {
   "name":"_ZN7android8hardware5audio6effect4V4_010BpHwEffect5closeEv"
  },
  {
   "name":"_ZN7android8hardware5audio6effect4V4_010BpHwEffect5debugERKNS0_11hidl_handleERKNS0_8hidl_vecINS0_11hidl_stringEEE"
  },
  {
   "name":"_ZN7android8hardware5audio6effect4V4_010BpHwEffect5resetEv"
  },
  {
   "name":"_ZN7android8hardware5audio6effect4V4_010BpHwEffect6enableEv"
  },
  {
   "name":"_ZN7android8hardware5audio6effect4V4_010BpHwEffect7commandEjRKNS0_8hidl_vecIhEEjNSt3__18functionIFviS8_EEE"
  },
  {
   "name":"_ZN7android8hardware5audio6effect4V4_010BpHwEffect7disableEv"
  },
  {
   "name":"_ZN7android8hardware5audio6effect4V4_010BpHwEffect7offloadERKNS3_22EffectOffloadParameterE"
  },
  {
   "name":"_ZN7android8hardware5audio6effect4V4_010BpHwEffect9getConfigENSt3__18functionIFvNS3_6ResultERKNS3_12EffectConfigEEEE"
  },
  {
   "name":"_ZN7android8hardware5audio6effect4V4_010BpHwEffect9setConfigERKNS3_12EffectConfigERKNS_2spINS3_29IEffectBufferProviderCallbackEEESC_"
  },
  {
   "name":"_ZN7android8hardware5audio6effect4V4_010BpHwEffect9setDeviceEj"
  },
  {
   "name":"_ZN7android8hardware5audio6effect4V4_010BpHwEffectC1ERKNS_2spINS0_7IBinderEEE"
  },
  {
   "name":"_ZN7android8hardware5audio6effect4V4_010BpHwEffectC2ERKNS_2spINS0_7IBinderEEE"
  },
  {
   "name":"_ZN7android8hardware5audio6effect4V4_014IDownmixEffect10getServiceERKNSt3__112basic_stringIcNS5_11char_traitsIcEENS5_9allocatorIcEEEEb"
  },
  {
   "name":"_ZN7android8hardware5audio6effect4V4_014IDownmixEffect11linkToDeathERKNS_2spINS0_20hidl_death_recipientEEEm"
  },
  {
   "name":"_ZN7android8hardware5audio6effect4V4_014IDownmixEffect12getDebugInfoENSt3__18functionIFvRKNS_4hidl4base4V1_09DebugInfoEEEE"
  },
  {
   "name":"_ZN7android8hardware5audio6effect4V4_014IDownmixEffect12getHashChainENSt3__18functionIFvRKNS0_8hidl_vecINS0_10hidl_arrayIhLm32EJEEEEEEEE"
  },
  {
   "name":"_ZN7android8hardware5audio6effect4V4_014IDownmixEffect13tryGetServiceERKNSt3__112basic_stringIcNS5_11char_traitsIcEENS5_9allocatorIcEEEEb"
  },
  {
   "name":"_ZN7android8hardware5audio6effect4V4_014IDownmixEffect13unlinkToDeathERKNS_2spINS0_20hidl_death_recipientEEE"
  },
  {
   "name":"_ZN7android8hardware5audio6effect4V4_014IDownmixEffect14interfaceChainENSt3__18functionIFvRKNS0_8hidl_vecINS0_11hidl_stringEEEEEE"
  },
  {
   "name":"_ZN7android8hardware5audio6effect4V4_014IDownmixEffect17registerAsServiceERKNSt3__112basic_stringIcNS5_11char_traitsIcEENS5_9allocatorIcEEEE"
  },
  {
   "name":"_ZN7android8hardware5audio6effect4V4_014IDownmixEffect19interfaceDescriptorENSt3__18functionIFvRKNS0_11hidl_stringEEEE"
  },
  {
   "name":"_ZN7android8hardware5audio6effect4V4_014IDownmixEffect21notifySyspropsChangedEv"
  },
  {
   "name":"_ZN7android8hardware5audio6effect4V4_014IDownmixEffect21setHALInstrumentationEv"
  },
  {
   "name":"_ZN7android8hardware5audio6effect4V4_014IDownmixEffect24registerForNotificationsERKNSt3__112basic_stringIcNS5_11char_traitsIcEENS5_9allocatorIcEEEERKNS_2spINS_4hidl7manager4V1_020IServiceNotificationEEE"
  },
  {
   "name":"_ZN7android8hardware5audio6effect4V4_014IDownmixEffect4pingEv"
  },
  {
   "name":"_ZN7android8hardware5audio6effect4V4_014IDownmixEffect5debugERKNS0_11hidl_handleERKNS0_8hidl_vecINS0_11hidl_stringEEE"
  },
  {
   "name":"_ZN7android8hardware5audio6effect4V4_014IDownmixEffect8castFromERKNS_2spINS3_7IEffectEEEb"
  },
  {
   "name":"_ZN7android8hardware5audio6effect4V4_014IDownmixEffect8castFromERKNS_2spINS_4hidl4base4V1_05IBaseEEEb"
  },
  {
   "name":"_ZN7android8hardware5audio6effect4V4_014IDownmixEffect8castFromERKNS_2spIS4_EEb"
  },
  {
   "name":"_ZN7android8hardware5audio6effect4V4_015BsDownmixEffect13addOnewayTaskENSt3__18functionIFvvEEE"
  },
  {
   "name":"_ZN7android8hardware5audio6effect4V4_015BsDownmixEffectC1ENS_2spINS3_14IDownmixEffectEEE"
  },
  {
   "name":"_ZN7android8hardware5audio6effect4V4_015BsDownmixEffectC2ENS_2spINS3_14IDownmixEffectEEE"
  },
  {
   "name":"_ZN7android8hardware5audio6effect4V4_015IEffectsFactory10getServiceERKNSt3__112basic_stringIcNS5_11char_traitsIcEENS5_9allocatorIcEEEEb"
  },
  {
   "name":"_ZN7android8hardware5audio6effect4V4_015IEffectsFactory11linkToDeathERKNS_2spINS0_20hidl_death_recipientEEEm"
  },
  {
   "name":"_ZN7android8hardware5audio6effect4V4_015IEffectsFactory12getDebugInfoENSt3__18functionIFvRKNS_4hidl4base4V1_09DebugInfoEEEE"
  },
  {
   "name":"_ZN7android8hardware5audio6effect4V4_015IEffectsFactory12getHashChainENSt3__18functionIFvRKNS0_8hidl_vecINS0_10hidl_arrayIhLm32EJEEEEEEEE"
  },
  {
   "name":"_ZN7android8hardware5audio6effect4V4_015IEffectsFactory13tryGetServiceERKNSt3__112basic_stringIcNS5_11char_traitsIcEENS5_9allocatorIcEEEEb"
  },
  {
   "name":"_ZN7android8hardware5audio6effect4V4_015IEffectsFactory13unlinkToDeathERKNS_2spINS0_20hidl_death_recipientEEE"
  },
  {
   "name":"_ZN7android8hardware5audio6effect4V4_015IEffectsFactory14interfaceChainENSt3__18functionIFvRKNS0_8hidl_vecINS0_11hidl_stringEEEEEE"
  },
  {
   "name":"_ZN7android8hardware5audio6effect4V4_015IEffectsFactory17registerAsServiceERKNSt3__112basic_stringIcNS5_11char_traitsIcEENS5_9allocatorIcEEEE"
  },
  {
   "name":"_ZN7android8hardware5audio6effect4V4_015IEffectsFactory19interfaceDescriptorENSt3__18functionIFvRKNS0_11hidl_stringEEEE"
  },
  {
   "name":"_ZN7android8hardware5audio6effect4V4_015IEffectsFactory21notifySyspropsChangedEv"
  },
  {
   "name":"_ZN7android8hardware5audio6effect4V4_015IEffectsFactory21setHALInstrumentationEv"
  },
  {
   "name":"_ZN7android8hardware5audio6effect4V4_015IEffectsFactory24registerForNotificationsERKNSt3__112basic_stringIcNS5_11char_traitsIcEENS5_9allocatorIcEEEERKNS_2spINS_4hidl7manager4V1_020IServiceNotificationEEE"
  },
  {
   "name":"_ZN7android8hardware5audio6effect4V4_015IEffectsFactory4pingEv"
  },
  {
   "name":"_ZN7android8hardware5audio6effect4V4_015IEffectsFactory5debugERKNS0_11hidl_handleERKNS0_8hidl_vecINS0_11hidl_stringEEE"
  },
  {
   "name":"_ZN7android8hardware5audio6effect4V4_015IEffectsFactory8castFromERKNS_2spINS_4hidl4base4V1_05IBaseEEEb"
  },
  {
   "name":"_ZN7android8hardware5audio6effect4V4_015IEffectsFactory8castFromERKNS_2spIS4_EEb"
  },
  {
   "name":"_ZN7android8hardware5audio6effect4V4_016BsEffectsFactory13addOnewayTaskENSt3__18functionIFvvEEE"
  },
  {
   "name":"_ZN7android8hardware5audio6effect4V4_016BsEffectsFactoryC1ENS_2spINS3_15IEffectsFactoryEEE"
  },
  {
   "name":"_ZN7android8hardware5audio6effect4V4_016BsEffectsFactoryC2ENS_2spINS3_15IEffectsFactoryEEE"
  },
  {
   "name":"_ZN7android8hardware5audio6effect4V4_016IBassBoostEffect10getServiceERKNSt3__112basic_stringIcNS5_11char_traitsIcEENS5_9allocatorIcEEEEb"
  },
  {
   "name":"_ZN7android8hardware5audio6effect4V4_016IBassBoostEffect11linkToDeathERKNS_2spINS0_20hidl_death_recipientEEEm"
  },
  {
   "name":"_ZN7android8hardware5audio6effect4V4_016IBassBoostEffect12getDebugInfoENSt3__18functionIFvRKNS_4hidl4base4V1_09DebugInfoEEEE"
  },
  {
   "name":"_ZN7android8hardware5audio6effect4V4_016IBassBoostEffect12getHashChainENSt3__18functionIFvRKNS0_8hidl_vecINS0_10hidl_arrayIhLm32EJEEEEEEEE"
  },
  {
   "name":"_ZN7android8hardware5audio6effect4V4_016IBassBoostEffect13tryGetServiceERKNSt3__112basic_stringIcNS5_11char_traitsIcEENS5_9allocatorIcEEEEb"
  },
  {
   "name":"_ZN7android8hardware5audio6effect4V4_016IBassBoostEffect13unlinkToDeathERKNS_2spINS0_20hidl_death_recipientEEE"
  },
  {
   "name":"_ZN7android8hardware5audio6effect4V4_016IBassBoostEffect14interfaceChainENSt3__18functionIFvRKNS0_8hidl_vecINS0_11hidl_stringEEEEEE"
  },
  {
   "name":"_ZN7android8hardware5audio6effect4V4_016IBassBoostEffect17registerAsServiceERKNSt3__112basic_stringIcNS5_11char_traitsIcEENS5_9allocatorIcEEEE"
  },
  {
   "name":"_ZN7android8hardware5audio6effect4V4_016IBassBoostEffect19interfaceDescriptorENSt3__18functionIFvRKNS0_11hidl_stringEEEE"
  },
  {
   "name":"_ZN7android8hardware5audio6effect4V4_016IBassBoostEffect21notifySyspropsChangedEv"
  },
  {
   "name":"_ZN7android8hardware5audio6effect4V4_016IBassBoostEffect21setHALInstrumentationEv"
  },
  {
   "name":"_ZN7android8hardware5audio6effect4V4_016IBassBoostEffect24registerForNotificationsERKNSt3__112basic_stringIcNS5_11char_traitsIcEENS5_9allocatorIcEEEERKNS_2spINS_4hidl7manager4V1_020IServiceNotificationEEE"
  },
  {
   "name":"_ZN7android8hardware5audio6effect4V4_016IBassBoostEffect4pingEv"
  },
  {
   "name":"_ZN7android8hardware5audio6effect4V4_016IBassBoostEffect5debugERKNS0_11hidl_handleERKNS0_8hidl_vecINS0_11hidl_stringEEE"
  },
  {
   "name":"_ZN7android8hardware5audio6effect4V4_016IBassBoostEffect8castFromERKNS_2spINS3_7IEffectEEEb"
  },
  {
   "name":"_ZN7android8hardware5audio6effect4V4_016IBassBoostEffect8castFromERKNS_2spINS_4hidl4base4V1_05IBaseEEEb"
  },
  {
   "name":"_ZN7android8hardware5audio6effect4V4_016IBassBoostEffect8castFromERKNS_2spIS4_EEb"
  },
  {
   "name":"_ZN7android8hardware5audio6effect4V4_016IEqualizerEffect10getServiceERKNSt3__112basic_stringIcNS5_11char_traitsIcEENS5_9allocatorIcEEEEb"
  },
  {
   "name":"_ZN7android8hardware5audio6effect4V4_016IEqualizerEffect11linkToDeathERKNS_2spINS0_20hidl_death_recipientEEEm"
  },
  {
   "name":"_ZN7android8hardware5audio6effect4V4_016IEqualizerEffect12getDebugInfoENSt3__18functionIFvRKNS_4hidl4base4V1_09DebugInfoEEEE"
  },
  {
   "name":"_ZN7android8hardware5audio6effect4V4_016IEqualizerEffect12getHashChainENSt3__18functionIFvRKNS0_8hidl_vecINS0_10hidl_arrayIhLm32EJEEEEEEEE"
  },
  {
   "name":"_ZN7android8hardware5audio6effect4V4_016IEqualizerEffect13tryGetServiceERKNSt3__112basic_stringIcNS5_11char_traitsIcEENS5_9allocatorIcEEEEb"
  },
  {
   "name":"_ZN7android8hardware5audio6effect4V4_016IEqualizerEffect13unlinkToDeathERKNS_2spINS0_20hidl_death_recipientEEE"
  },
  {
   "name":"_ZN7android8hardware5audio6effect4V4_016IEqualizerEffect14interfaceChainENSt3__18functionIFvRKNS0_8hidl_vecINS0_11hidl_stringEEEEEE"
  },
  {
   "name":"_ZN7android8hardware5audio6effect4V4_016IEqualizerEffect17registerAsServiceERKNSt3__112basic_stringIcNS5_11char_traitsIcEENS5_9allocatorIcEEEE"
  },
  {
   "name":"_ZN7android8hardware5audio6effect4V4_016IEqualizerEffect19interfaceDescriptorENSt3__18functionIFvRKNS0_11hidl_stringEEEE"
  },
  {
   "name":"_ZN7android8hardware5audio6effect4V4_016IEqualizerEffect21notifySyspropsChangedEv"
  },
  {
   "name":"_ZN7android8hardware5audio6effect4V4_016IEqualizerEffect21setHALInstrumentationEv"
  },
  {
   "name":"_ZN7android8hardware5audio6effect4V4_016IEqualizerEffect24registerForNotificationsERKNSt3__112basic_stringIcNS5_11char_traitsIcEENS5_9allocatorIcEEEERKNS_2spINS_4hidl7manager4V1_020IServiceNotificationEEE"
  },
  {
   "name":"_ZN7android8hardware5audio6effect4V4_016IEqualizerEffect4pingEv"
  },
  {
   "name":"_ZN7android8hardware5audio6effect4V4_016IEqualizerEffect5debugERKNS0_11hidl_handleERKNS0_8hidl_vecINS0_11hidl_stringEEE"
  },
  {
   "name":"_ZN7android8hardware5audio6effect4V4_016IEqualizerEffect8castFromERKNS_2spINS3_7IEffectEEEb"
  },
  {
   "name":"_ZN7android8hardware5audio6effect4V4_016IEqualizerEffect8castFromERKNS_2spINS_4hidl4base4V1_05IBaseEEEb"
  },
  {
   "name":"_ZN7android8hardware5audio6effect4V4_016IEqualizerEffect8castFromERKNS_2spIS4_EEb"
  },
  {
   "name":"_ZN7android8hardware5audio6effect4V4_017BnHwDownmixEffect10onTransactEjRKNS0_6ParcelEPS5_jNSt3__18functionIFvRS5_EEE"
  },
  {
   "name":"_ZN7android8hardware5audio6effect4V4_017BnHwDownmixEffect12getDebugInfoENSt3__18functionIFvRKNS_4hidl4base4V1_09DebugInfoEEEE"
  },
  {
   "name":"_ZN7android8hardware5audio6effect4V4_017BnHwDownmixEffect13_hidl_getTypeEPNS_4hidl4base4V1_08BnHwBaseERKNS0_6ParcelEPSA_NSt3__18functionIFvRSA_EEE"
  },
  {
   "name":"_ZN7android8hardware5audio6effect4V4_017BnHwDownmixEffect13_hidl_setTypeEPNS_4hidl4base4V1_08BnHwBaseERKNS0_6ParcelEPSA_NSt3__18functionIFvRSA_EEE"
  },
  {
   "name":"_ZN7android8hardware5audio6effect4V4_017BnHwDownmixEffect4pingEv"
  },
  {
   "name":"_ZN7android8hardware5audio6effect4V4_017BnHwDownmixEffectC1ERKNS_2spINS3_14IDownmixEffectEEE"
  },
  {
   "name":"_ZN7android8hardware5audio6effect4V4_017BnHwDownmixEffectC2ERKNS_2spINS3_14IDownmixEffectEEE"
  },
  {
   "name":"_ZN7android8hardware5audio6effect4V4_017BnHwDownmixEffectD0Ev"
  },
  {
   "name":"_ZN7android8hardware5audio6effect4V4_017BnHwDownmixEffectD1Ev"
  },
  {
   "name":"_ZN7android8hardware5audio6effect4V4_017BnHwDownmixEffectD2Ev"
  },
  {
   "name":"_ZN7android8hardware5audio6effect4V4_017BpHwDownmixEffect11linkToDeathERKNS_2spINS0_20hidl_death_recipientEEEm"
  },
  {
   "name":"_ZN7android8hardware5audio6effect4V4_017BpHwDownmixEffect12getDebugInfoENSt3__18functionIFvRKNS_4hidl4base4V1_09DebugInfoEEEE"
  },
  {
   "name":"_ZN7android8hardware5audio6effect4V4_017BpHwDownmixEffect12getHashChainENSt3__18functionIFvRKNS0_8hidl_vecINS0_10hidl_arrayIhLm32EJEEEEEEEE"
  },
  {
   "name":"_ZN7android8hardware5audio6effect4V4_017BpHwDownmixEffect12getParameterERKNS0_8hidl_vecIhEEjNSt3__18functionIFvNS3_6ResultES8_EEE"
  },
  {
   "name":"_ZN7android8hardware5audio6effect4V4_017BpHwDownmixEffect12setAudioModeENS1_6common4V4_09AudioModeE"
  },
  {
   "name":"_ZN7android8hardware5audio6effect4V4_017BpHwDownmixEffect12setParameterERKNS0_8hidl_vecIhEES8_"
  },
  {
   "name":"_ZN7android8hardware5audio6effect4V4_017BpHwDownmixEffect13_hidl_getTypeEPNS0_10IInterfaceEPNS0_7details16HidlInstrumentorENSt3__18functionIFvNS3_6ResultENS3_14IDownmixEffect4TypeEEEE"
  },
  {
   "name":"_ZN7android8hardware5audio6effect4V4_017BpHwDownmixEffect13_hidl_setTypeEPNS0_10IInterfaceEPNS0_7details16HidlInstrumentorENS3_14IDownmixEffect4TypeE"
  },
  {
   "name":"_ZN7android8hardware5audio6effect4V4_017BpHwDownmixEffect13getDescriptorENSt3__18functionIFvNS3_6ResultERKNS3_16EffectDescriptorEEEE"
  },
  {
   "name":"_ZN7android8hardware5audio6effect4V4_017BpHwDownmixEffect13unlinkToDeathERKNS_2spINS0_20hidl_death_recipientEEE"
  },
  {
   "name":"_ZN7android8hardware5audio6effect4V4_017BpHwDownmixEffect14interfaceChainENSt3__18functionIFvRKNS0_8hidl_vecINS0_11hidl_stringEEEEEE"
  },
  {
   "name":"_ZN7android8hardware5audio6effect4V4_017BpHwDownmixEffect14setAudioSourceENS1_6common4V4_011AudioSourceE"
  },
  {
   "name":"_ZN7android8hardware5audio6effect4V4_017BpHwDownmixEffect14setInputDeviceEj"
  },
  {
   "name":"_ZN7android8hardware5audio6effect4V4_017BpHwDownmixEffect15setAndGetVolumeERKNS0_8hidl_vecIjEENSt3__18functionIFvNS3_6ResultES8_EEE"
  },
  {
   "name":"_ZN7android8hardware5audio6effect4V4_017BpHwDownmixEffect16getConfigReverseENSt3__18functionIFvNS3_6ResultERKNS3_12EffectConfigEEEE"
  },
  {
   "name":"_ZN7android8hardware5audio6effect4V4_017BpHwDownmixEffect16setConfigReverseERKNS3_12EffectConfigERKNS_2spINS3_29IEffectBufferProviderCallbackEEESC_"
  },
  {
   "name":"_ZN7android8hardware5audio6effect4V4_017BpHwDownmixEffect17setProcessBuffersERKNS3_11AudioBufferES7_"
  },
  {
   "name":"_ZN7android8hardware5audio6effect4V4_017BpHwDownmixEffect19interfaceDescriptorENSt3__18functionIFvRKNS0_11hidl_stringEEEE"
  },
  {
   "name":"_ZN7android8hardware5audio6effect4V4_017BpHwDownmixEffect20getAuxChannelsConfigENSt3__18functionIFvNS3_6ResultERKNS3_23EffectAuxChannelsConfigEEEE"
  },
  {
   "name":"_ZN7android8hardware5audio6effect4V4_017BpHwDownmixEffect20prepareForProcessingENSt3__18functionIFvNS3_6ResultERKNS0_12MQDescriptorIS7_LNS0_8MQFlavorE1EEEEEE"
  },
  {
   "name":"_ZN7android8hardware5audio6effect4V4_017BpHwDownmixEffect20setAuxChannelsConfigERKNS3_23EffectAuxChannelsConfigE"
  },
  {
   "name":"_ZN7android8hardware5audio6effect4V4_017BpHwDownmixEffect21notifySyspropsChangedEv"
  },
  {
   "name":"_ZN7android8hardware5audio6effect4V4_017BpHwDownmixEffect21setHALInstrumentationEv"
  },
  {
   "name":"_ZN7android8hardware5audio6effect4V4_017BpHwDownmixEffect24volumeChangeNotificationERKNS0_8hidl_vecIjEE"
  },
  {
   "name":"_ZN7android8hardware5audio6effect4V4_017BpHwDownmixEffect26getCurrentConfigForFeatureEjjNSt3__18functionIFvNS3_6ResultERKNS0_8hidl_vecIhEEEEE"
  },
  {
   "name":"_ZN7android8hardware5audio6effect4V4_017BpHwDownmixEffect26setCurrentConfigForFeatureEjRKNS0_8hidl_vecIhEE"
  },
  {
   "name":"_ZN7android8hardware5audio6effect4V4_017BpHwDownmixEffect29getSupportedConfigsForFeatureEjjjNSt3__18functionIFvNS3_6ResultEjRKNS0_8hidl_vecIhEEEEE"
  },
  {
   "name":"_ZN7android8hardware5audio6effect4V4_017BpHwDownmixEffect30getSupportedAuxChannelsConfigsEjNSt3__18functionIFvNS3_6ResultERKNS0_8hidl_vecINS3_23EffectAuxChannelsConfigEEEEEE"
  },
  {
   "name":"_ZN7android8hardware5audio6effect4V4_017BpHwDownmixEffect4initEv"
  },
  {
   "name":"_ZN7android8hardware5audio6effect4V4_017BpHwDownmixEffect4pingEv"
  },
  {
   "name":"_ZN7android8hardware5audio6effect4V4_017BpHwDownmixEffect5closeEv"
  },
  {
   "name":"_ZN7android8hardware5audio6effect4V4_017BpHwDownmixEffect5debugERKNS0_11hidl_handleERKNS0_8hidl_vecINS0_11hidl_stringEEE"
  },
  {
   "name":"_ZN7android8hardware5audio6effect4V4_017BpHwDownmixEffect5resetEv"
  },
  {
   "name":"_ZN7android8hardware5audio6effect4V4_017BpHwDownmixEffect6enableEv"
  },
  {
   "name":"_ZN7android8hardware5audio6effect4V4_017BpHwDownmixEffect7commandEjRKNS0_8hidl_vecIhEEjNSt3__18functionIFviS8_EEE"
  },
  {
   "name":"_ZN7android8hardware5audio6effect4V4_017BpHwDownmixEffect7disableEv"
  },
  {
   "name":"_ZN7android8hardware5audio6effect4V4_017BpHwDownmixEffect7getTypeENSt3__18functionIFvNS3_6ResultENS3_14IDownmixEffect4TypeEEEE"
  },
  {
   "name":"_ZN7android8hardware5audio6effect4V4_017BpHwDownmixEffect7offloadERKNS3_22EffectOffloadParameterE"
  },
  {
   "name":"_ZN7android8hardware5audio6effect4V4_017BpHwDownmixEffect7setTypeENS3_14IDownmixEffect4TypeE"
  },
  {
   "name":"_ZN7android8hardware5audio6effect4V4_017BpHwDownmixEffect9getConfigENSt3__18functionIFvNS3_6ResultERKNS3_12EffectConfigEEEE"
  },
  {
   "name":"_ZN7android8hardware5audio6effect4V4_017BpHwDownmixEffect9setConfigERKNS3_12EffectConfigERKNS_2spINS3_29IEffectBufferProviderCallbackEEESC_"
  },
  {
   "name":"_ZN7android8hardware5audio6effect4V4_017BpHwDownmixEffect9setDeviceEj"
  },
  {
   "name":"_ZN7android8hardware5audio6effect4V4_017BpHwDownmixEffectC1ERKNS_2spINS0_7IBinderEEE"
  },
  {
   "name":"_ZN7android8hardware5audio6effect4V4_017BpHwDownmixEffectC2ERKNS_2spINS0_7IBinderEEE"
  },
  {
   "name":"_ZN7android8hardware5audio6effect4V4_017BsBassBoostEffect13addOnewayTaskENSt3__18functionIFvvEEE"
  },
  {
   "name":"_ZN7android8hardware5audio6effect4V4_017BsBassBoostEffectC1ENS_2spINS3_16IBassBoostEffectEEE"
  },
  {
   "name":"_ZN7android8hardware5audio6effect4V4_017BsBassBoostEffectC2ENS_2spINS3_16IBassBoostEffectEEE"
  },
  {
   "name":"_ZN7android8hardware5audio6effect4V4_017BsEqualizerEffect13addOnewayTaskENSt3__18functionIFvvEEE"
  },
  {
   "name":"_ZN7android8hardware5audio6effect4V4_017BsEqualizerEffectC1ENS_2spINS3_16IEqualizerEffectEEE"
  },
  {
   "name":"_ZN7android8hardware5audio6effect4V4_017BsEqualizerEffectC2ENS_2spINS3_16IEqualizerEffectEEE"
  },
  {
   "name":"_ZN7android8hardware5audio6effect4V4_017IVisualizerEffect10getServiceERKNSt3__112basic_stringIcNS5_11char_traitsIcEENS5_9allocatorIcEEEEb"
  },
  {
   "name":"_ZN7android8hardware5audio6effect4V4_017IVisualizerEffect11linkToDeathERKNS_2spINS0_20hidl_death_recipientEEEm"
  },
  {
   "name":"_ZN7android8hardware5audio6effect4V4_017IVisualizerEffect12getDebugInfoENSt3__18functionIFvRKNS_4hidl4base4V1_09DebugInfoEEEE"
  },
  {
   "name":"_ZN7android8hardware5audio6effect4V4_017IVisualizerEffect12getHashChainENSt3__18functionIFvRKNS0_8hidl_vecINS0_10hidl_arrayIhLm32EJEEEEEEEE"
  },
  {
   "name":"_ZN7android8hardware5audio6effect4V4_017IVisualizerEffect13tryGetServiceERKNSt3__112basic_stringIcNS5_11char_traitsIcEENS5_9allocatorIcEEEEb"
  },
  {
   "name":"_ZN7android8hardware5audio6effect4V4_017IVisualizerEffect13unlinkToDeathERKNS_2spINS0_20hidl_death_recipientEEE"
  },
  {
   "name":"_ZN7android8hardware5audio6effect4V4_017IVisualizerEffect14interfaceChainENSt3__18functionIFvRKNS0_8hidl_vecINS0_11hidl_stringEEEEEE"
  },
  {
   "name":"_ZN7android8hardware5audio6effect4V4_017IVisualizerEffect17registerAsServiceERKNSt3__112basic_stringIcNS5_11char_traitsIcEENS5_9allocatorIcEEEE"
  },
  {
   "name":"_ZN7android8hardware5audio6effect4V4_017IVisualizerEffect19interfaceDescriptorENSt3__18functionIFvRKNS0_11hidl_stringEEEE"
  },
  {
   "name":"_ZN7android8hardware5audio6effect4V4_017IVisualizerEffect21notifySyspropsChangedEv"
  },
  {
   "name":"_ZN7android8hardware5audio6effect4V4_017IVisualizerEffect21setHALInstrumentationEv"
  },
  {
   "name":"_ZN7android8hardware5audio6effect4V4_017IVisualizerEffect24registerForNotificationsERKNSt3__112basic_stringIcNS5_11char_traitsIcEENS5_9allocatorIcEEEERKNS_2spINS_4hidl7manager4V1_020IServiceNotificationEEE"
  },
  {
   "name":"_ZN7android8hardware5audio6effect4V4_017IVisualizerEffect4pingEv"
  },
  {
   "name":"_ZN7android8hardware5audio6effect4V4_017IVisualizerEffect5debugERKNS0_11hidl_handleERKNS0_8hidl_vecINS0_11hidl_stringEEE"
  },
  {
   "name":"_ZN7android8hardware5audio6effect4V4_017IVisualizerEffect8castFromERKNS_2spINS3_7IEffectEEEb"
  },
  {
   "name":"_ZN7android8hardware5audio6effect4V4_017IVisualizerEffect8castFromERKNS_2spINS_4hidl4base4V1_05IBaseEEEb"
  },
  {
   "name":"_ZN7android8hardware5audio6effect4V4_017IVisualizerEffect8castFromERKNS_2spIS4_EEb"
  },
  {
   "name":"_ZN7android8hardware5audio6effect4V4_018BnHwEffectsFactory10onTransactEjRKNS0_6ParcelEPS5_jNSt3__18functionIFvRS5_EEE"
  },
  {
   "name":"_ZN7android8hardware5audio6effect4V4_018BnHwEffectsFactory12getDebugInfoENSt3__18functionIFvRKNS_4hidl4base4V1_09DebugInfoEEEE"
  },
  {
   "name":"_ZN7android8hardware5audio6effect4V4_018BnHwEffectsFactory18_hidl_createEffectEPNS_4hidl4base4V1_08BnHwBaseERKNS0_6ParcelEPSA_NSt3__18functionIFvRSA_EEE"
  },
  {
   "name":"_ZN7android8hardware5audio6effect4V4_018BnHwEffectsFactory19_hidl_getDescriptorEPNS_4hidl4base4V1_08BnHwBaseERKNS0_6ParcelEPSA_NSt3__18functionIFvRSA_EEE"
  },
  {
   "name":"_ZN7android8hardware5audio6effect4V4_018BnHwEffectsFactory23_hidl_getAllDescriptorsEPNS_4hidl4base4V1_08BnHwBaseERKNS0_6ParcelEPSA_NSt3__18functionIFvRSA_EEE"
  },
  {
   "name":"_ZN7android8hardware5audio6effect4V4_018BnHwEffectsFactory4pingEv"
  },
  {
   "name":"_ZN7android8hardware5audio6effect4V4_018BnHwEffectsFactoryC1ERKNS_2spINS3_15IEffectsFactoryEEE"
  },
  {
   "name":"_ZN7android8hardware5audio6effect4V4_018BnHwEffectsFactoryC2ERKNS_2spINS3_15IEffectsFactoryEEE"
  },
  {
   "name":"_ZN7android8hardware5audio6effect4V4_018BnHwEffectsFactoryD0Ev"
  },
  {
   "name":"_ZN7android8hardware5audio6effect4V4_018BnHwEffectsFactoryD1Ev"
  },
  {
   "name":"_ZN7android8hardware5audio6effect4V4_018BnHwEffectsFactoryD2Ev"
  },
  {
   "name":"_ZN7android8hardware5audio6effect4V4_018BpHwEffectsFactory11linkToDeathERKNS_2spINS0_20hidl_death_recipientEEEm"
  },
  {
   "name":"_ZN7android8hardware5audio6effect4V4_018BpHwEffectsFactory12createEffectERKNS1_6common4V4_04UuidEiiNSt3__18functionIFvNS3_6ResultERKNS_2spINS3_7IEffectEEEmEEE"
  },
  {
   "name":"_ZN7android8hardware5audio6effect4V4_018BpHwEffectsFactory12getDebugInfoENSt3__18functionIFvRKNS_4hidl4base4V1_09DebugInfoEEEE"
  },
  {
   "name":"_ZN7android8hardware5audio6effect4V4_018BpHwEffectsFactory12getHashChainENSt3__18functionIFvRKNS0_8hidl_vecINS0_10hidl_arrayIhLm32EJEEEEEEEE"
  },
  {
   "name":"_ZN7android8hardware5audio6effect4V4_018BpHwEffectsFactory13getDescriptorERKNS1_6common4V4_04UuidENSt3__18functionIFvNS3_6ResultERKNS3_16EffectDescriptorEEEE"
  },
  {
   "name":"_ZN7android8hardware5audio6effect4V4_018BpHwEffectsFactory13unlinkToDeathERKNS_2spINS0_20hidl_death_recipientEEE"
  },
  {
   "name":"_ZN7android8hardware5audio6effect4V4_018BpHwEffectsFactory14interfaceChainENSt3__18functionIFvRKNS0_8hidl_vecINS0_11hidl_stringEEEEEE"
  },
  {
   "name":"_ZN7android8hardware5audio6effect4V4_018BpHwEffectsFactory17getAllDescriptorsENSt3__18functionIFvNS3_6ResultERKNS0_8hidl_vecINS3_16EffectDescriptorEEEEEE"
  },
  {
   "name":"_ZN7android8hardware5audio6effect4V4_018BpHwEffectsFactory18_hidl_createEffectEPNS0_10IInterfaceEPNS0_7details16HidlInstrumentorERKNS1_6common4V4_04UuidEiiNSt3__18functionIFvNS3_6ResultERKNS_2spINS3_7IEffectEEEmEEE"
  },
  {
   "name":"_ZN7android8hardware5audio6effect4V4_018BpHwEffectsFactory19_hidl_getDescriptorEPNS0_10IInterfaceEPNS0_7details16HidlInstrumentorERKNS1_6common4V4_04UuidENSt3__18functionIFvNS3_6ResultERKNS3_16EffectDescriptorEEEE"
  },
  {
   "name":"_ZN7android8hardware5audio6effect4V4_018BpHwEffectsFactory19interfaceDescriptorENSt3__18functionIFvRKNS0_11hidl_stringEEEE"
  },
  {
   "name":"_ZN7android8hardware5audio6effect4V4_018BpHwEffectsFactory21notifySyspropsChangedEv"
  },
  {
   "name":"_ZN7android8hardware5audio6effect4V4_018BpHwEffectsFactory21setHALInstrumentationEv"
  },
  {
   "name":"_ZN7android8hardware5audio6effect4V4_018BpHwEffectsFactory23_hidl_getAllDescriptorsEPNS0_10IInterfaceEPNS0_7details16HidlInstrumentorENSt3__18functionIFvNS3_6ResultERKNS0_8hidl_vecINS3_16EffectDescriptorEEEEEE"
  },
  {
   "name":"_ZN7android8hardware5audio6effect4V4_018BpHwEffectsFactory4pingEv"
  },
  {
   "name":"_ZN7android8hardware5audio6effect4V4_018BpHwEffectsFactory5debugERKNS0_11hidl_handleERKNS0_8hidl_vecINS0_11hidl_stringEEE"
  },
  {
   "name":"_ZN7android8hardware5audio6effect4V4_018BpHwEffectsFactoryC1ERKNS_2spINS0_7IBinderEEE"
  },
  {
   "name":"_ZN7android8hardware5audio6effect4V4_018BpHwEffectsFactoryC2ERKNS_2spINS0_7IBinderEEE"
  },
  {
   "name":"_ZN7android8hardware5audio6effect4V4_018BsVisualizerEffect13addOnewayTaskENSt3__18functionIFvvEEE"
  },
  {
   "name":"_ZN7android8hardware5audio6effect4V4_018BsVisualizerEffectC1ENS_2spINS3_17IVisualizerEffectEEE"
  },
  {
   "name":"_ZN7android8hardware5audio6effect4V4_018BsVisualizerEffectC2ENS_2spINS3_17IVisualizerEffectEEE"
  },
  {
   "name":"_ZN7android8hardware5audio6effect4V4_018IVirtualizerEffect10getServiceERKNSt3__112basic_stringIcNS5_11char_traitsIcEENS5_9allocatorIcEEEEb"
  },
  {
   "name":"_ZN7android8hardware5audio6effect4V4_018IVirtualizerEffect11linkToDeathERKNS_2spINS0_20hidl_death_recipientEEEm"
  },
  {
   "name":"_ZN7android8hardware5audio6effect4V4_018IVirtualizerEffect12getDebugInfoENSt3__18functionIFvRKNS_4hidl4base4V1_09DebugInfoEEEE"
  },
  {
   "name":"_ZN7android8hardware5audio6effect4V4_018IVirtualizerEffect12getHashChainENSt3__18functionIFvRKNS0_8hidl_vecINS0_10hidl_arrayIhLm32EJEEEEEEEE"
  },
  {
   "name":"_ZN7android8hardware5audio6effect4V4_018IVirtualizerEffect13tryGetServiceERKNSt3__112basic_stringIcNS5_11char_traitsIcEENS5_9allocatorIcEEEEb"
  },
  {
   "name":"_ZN7android8hardware5audio6effect4V4_018IVirtualizerEffect13unlinkToDeathERKNS_2spINS0_20hidl_death_recipientEEE"
  },
  {
   "name":"_ZN7android8hardware5audio6effect4V4_018IVirtualizerEffect14interfaceChainENSt3__18functionIFvRKNS0_8hidl_vecINS0_11hidl_stringEEEEEE"
  },
  {
   "name":"_ZN7android8hardware5audio6effect4V4_018IVirtualizerEffect17registerAsServiceERKNSt3__112basic_stringIcNS5_11char_traitsIcEENS5_9allocatorIcEEEE"
  },
  {
   "name":"_ZN7android8hardware5audio6effect4V4_018IVirtualizerEffect19interfaceDescriptorENSt3__18functionIFvRKNS0_11hidl_stringEEEE"
  },
  {
   "name":"_ZN7android8hardware5audio6effect4V4_018IVirtualizerEffect21notifySyspropsChangedEv"
  },
  {
   "name":"_ZN7android8hardware5audio6effect4V4_018IVirtualizerEffect21setHALInstrumentationEv"
  },
  {
   "name":"_ZN7android8hardware5audio6effect4V4_018IVirtualizerEffect24registerForNotificationsERKNSt3__112basic_stringIcNS5_11char_traitsIcEENS5_9allocatorIcEEEERKNS_2spINS_4hidl7manager4V1_020IServiceNotificationEEE"
  },
  {
   "name":"_ZN7android8hardware5audio6effect4V4_018IVirtualizerEffect4pingEv"
  },
  {
   "name":"_ZN7android8hardware5audio6effect4V4_018IVirtualizerEffect5debugERKNS0_11hidl_handleERKNS0_8hidl_vecINS0_11hidl_stringEEE"
  },
  {
   "name":"_ZN7android8hardware5audio6effect4V4_018IVirtualizerEffect8castFromERKNS_2spINS3_7IEffectEEEb"
  },
  {
   "name":"_ZN7android8hardware5audio6effect4V4_018IVirtualizerEffect8castFromERKNS_2spINS_4hidl4base4V1_05IBaseEEEb"
  },
  {
   "name":"_ZN7android8hardware5audio6effect4V4_018IVirtualizerEffect8castFromERKNS_2spIS4_EEb"
  },
  {
   "name":"_ZN7android8hardware5audio6effect4V4_019BnHwBassBoostEffect10onTransactEjRKNS0_6ParcelEPS5_jNSt3__18functionIFvRS5_EEE"
  },
  {
   "name":"_ZN7android8hardware5audio6effect4V4_019BnHwBassBoostEffect12getDebugInfoENSt3__18functionIFvRKNS_4hidl4base4V1_09DebugInfoEEEE"
  },
  {
   "name":"_ZN7android8hardware5audio6effect4V4_019BnHwBassBoostEffect17_hidl_getStrengthEPNS_4hidl4base4V1_08BnHwBaseERKNS0_6ParcelEPSA_NSt3__18functionIFvRSA_EEE"
  },
  {
   "name":"_ZN7android8hardware5audio6effect4V4_019BnHwBassBoostEffect17_hidl_setStrengthEPNS_4hidl4base4V1_08BnHwBaseERKNS0_6ParcelEPSA_NSt3__18functionIFvRSA_EEE"
  },
  {
   "name":"_ZN7android8hardware5audio6effect4V4_019BnHwBassBoostEffect25_hidl_isStrengthSupportedEPNS_4hidl4base4V1_08BnHwBaseERKNS0_6ParcelEPSA_NSt3__18functionIFvRSA_EEE"
  },
  {
   "name":"_ZN7android8hardware5audio6effect4V4_019BnHwBassBoostEffect4pingEv"
  },
  {
   "name":"_ZN7android8hardware5audio6effect4V4_019BnHwBassBoostEffectC1ERKNS_2spINS3_16IBassBoostEffectEEE"
  },
  {
   "name":"_ZN7android8hardware5audio6effect4V4_019BnHwBassBoostEffectC2ERKNS_2spINS3_16IBassBoostEffectEEE"
  },
  {
   "name":"_ZN7android8hardware5audio6effect4V4_019BnHwBassBoostEffectD0Ev"
  },
  {
   "name":"_ZN7android8hardware5audio6effect4V4_019BnHwBassBoostEffectD1Ev"
  },
  {
   "name":"_ZN7android8hardware5audio6effect4V4_019BnHwBassBoostEffectD2Ev"
  },
  {
   "name":"_ZN7android8hardware5audio6effect4V4_019BnHwEqualizerEffect10onTransactEjRKNS0_6ParcelEPS5_jNSt3__18functionIFvRS5_EEE"
  },
  {
   "name":"_ZN7android8hardware5audio6effect4V4_019BnHwEqualizerEffect12getDebugInfoENSt3__18functionIFvRKNS_4hidl4base4V1_09DebugInfoEEEE"
  },
  {
   "name":"_ZN7android8hardware5audio6effect4V4_019BnHwEqualizerEffect17_hidl_getNumBandsEPNS_4hidl4base4V1_08BnHwBaseERKNS0_6ParcelEPSA_NSt3__18functionIFvRSA_EEE"
  },
  {
   "name":"_ZN7android8hardware5audio6effect4V4_019BnHwEqualizerEffect18_hidl_getBandLevelEPNS_4hidl4base4V1_08BnHwBaseERKNS0_6ParcelEPSA_NSt3__18functionIFvRSA_EEE"
  },
  {
   "name":"_ZN7android8hardware5audio6effect4V4_019BnHwEqualizerEffect18_hidl_setBandLevelEPNS_4hidl4base4V1_08BnHwBaseERKNS0_6ParcelEPSA_NSt3__18functionIFvRSA_EEE"
  },
  {
   "name":"_ZN7android8hardware5audio6effect4V4_019BnHwEqualizerEffect19_hidl_getLevelRangeEPNS_4hidl4base4V1_08BnHwBaseERKNS0_6ParcelEPSA_NSt3__18functionIFvRSA_EEE"
  },
  {
   "name":"_ZN7android8hardware5audio6effect4V4_019BnHwEqualizerEffect20_hidl_getPresetNamesEPNS_4hidl4base4V1_08BnHwBaseERKNS0_6ParcelEPSA_NSt3__18functionIFvRSA_EEE"
  },
  {
   "name":"_ZN7android8hardware5audio6effect4V4_019BnHwEqualizerEffect22_hidl_getAllPropertiesEPNS_4hidl4base4V1_08BnHwBaseERKNS0_6ParcelEPSA_NSt3__18functionIFvRSA_EEE"
  },
  {
   "name":"_ZN7android8hardware5audio6effect4V4_019BnHwEqualizerEffect22_hidl_getCurrentPresetEPNS_4hidl4base4V1_08BnHwBaseERKNS0_6ParcelEPSA_NSt3__18functionIFvRSA_EEE"
  },
  {
   "name":"_ZN7android8hardware5audio6effect4V4_019BnHwEqualizerEffect22_hidl_setAllPropertiesEPNS_4hidl4base4V1_08BnHwBaseERKNS0_6ParcelEPSA_NSt3__18functionIFvRSA_EEE"
  },
  {
   "name":"_ZN7android8hardware5audio6effect4V4_019BnHwEqualizerEffect22_hidl_setCurrentPresetEPNS_4hidl4base4V1_08BnHwBaseERKNS0_6ParcelEPSA_NSt3__18functionIFvRSA_EEE"
  },
  {
   "name":"_ZN7android8hardware5audio6effect4V4_019BnHwEqualizerEffect25_hidl_getBandForFrequencyEPNS_4hidl4base4V1_08BnHwBaseERKNS0_6ParcelEPSA_NSt3__18functionIFvRSA_EEE"
  },
  {
   "name":"_ZN7android8hardware5audio6effect4V4_019BnHwEqualizerEffect27_hidl_getBandFrequencyRangeEPNS_4hidl4base4V1_08BnHwBaseERKNS0_6ParcelEPSA_NSt3__18functionIFvRSA_EEE"
  },
  {
   "name":"_ZN7android8hardware5audio6effect4V4_019BnHwEqualizerEffect28_hidl_getBandCenterFrequencyEPNS_4hidl4base4V1_08BnHwBaseERKNS0_6ParcelEPSA_NSt3__18functionIFvRSA_EEE"
  },
  {
   "name":"_ZN7android8hardware5audio6effect4V4_019BnHwEqualizerEffect4pingEv"
  },
  {
   "name":"_ZN7android8hardware5audio6effect4V4_019BnHwEqualizerEffectC1ERKNS_2spINS3_16IEqualizerEffectEEE"
  },
  {
   "name":"_ZN7android8hardware5audio6effect4V4_019BnHwEqualizerEffectC2ERKNS_2spINS3_16IEqualizerEffectEEE"
  },
  {
   "name":"_ZN7android8hardware5audio6effect4V4_019BnHwEqualizerEffectD0Ev"
  },
  {
   "name":"_ZN7android8hardware5audio6effect4V4_019BnHwEqualizerEffectD1Ev"
  },
  {
   "name":"_ZN7android8hardware5audio6effect4V4_019BnHwEqualizerEffectD2Ev"
  },
  {
   "name":"_ZN7android8hardware5audio6effect4V4_019BpHwBassBoostEffect11getStrengthENSt3__18functionIFvNS3_6ResultEtEEE"
  },
  {
   "name":"_ZN7android8hardware5audio6effect4V4_019BpHwBassBoostEffect11linkToDeathERKNS_2spINS0_20hidl_death_recipientEEEm"
  },
  {
   "name":"_ZN7android8hardware5audio6effect4V4_019BpHwBassBoostEffect11setStrengthEt"
  },
  {
   "name":"_ZN7android8hardware5audio6effect4V4_019BpHwBassBoostEffect12getDebugInfoENSt3__18functionIFvRKNS_4hidl4base4V1_09DebugInfoEEEE"
  },
  {
   "name":"_ZN7android8hardware5audio6effect4V4_019BpHwBassBoostEffect12getHashChainENSt3__18functionIFvRKNS0_8hidl_vecINS0_10hidl_arrayIhLm32EJEEEEEEEE"
  },
  {
   "name":"_ZN7android8hardware5audio6effect4V4_019BpHwBassBoostEffect12getParameterERKNS0_8hidl_vecIhEEjNSt3__18functionIFvNS3_6ResultES8_EEE"
  },
  {
   "name":"_ZN7android8hardware5audio6effect4V4_019BpHwBassBoostEffect12setAudioModeENS1_6common4V4_09AudioModeE"
  },
  {
   "name":"_ZN7android8hardware5audio6effect4V4_019BpHwBassBoostEffect12setParameterERKNS0_8hidl_vecIhEES8_"
  },
  {
   "name":"_ZN7android8hardware5audio6effect4V4_019BpHwBassBoostEffect13getDescriptorENSt3__18functionIFvNS3_6ResultERKNS3_16EffectDescriptorEEEE"
  },
  {
   "name":"_ZN7android8hardware5audio6effect4V4_019BpHwBassBoostEffect13unlinkToDeathERKNS_2spINS0_20hidl_death_recipientEEE"
  },
  {
   "name":"_ZN7android8hardware5audio6effect4V4_019BpHwBassBoostEffect14interfaceChainENSt3__18functionIFvRKNS0_8hidl_vecINS0_11hidl_stringEEEEEE"
  },
  {
   "name":"_ZN7android8hardware5audio6effect4V4_019BpHwBassBoostEffect14setAudioSourceENS1_6common4V4_011AudioSourceE"
  },
  {
   "name":"_ZN7android8hardware5audio6effect4V4_019BpHwBassBoostEffect14setInputDeviceEj"
  },
  {
   "name":"_ZN7android8hardware5audio6effect4V4_019BpHwBassBoostEffect15setAndGetVolumeERKNS0_8hidl_vecIjEENSt3__18functionIFvNS3_6ResultES8_EEE"
  },
  {
   "name":"_ZN7android8hardware5audio6effect4V4_019BpHwBassBoostEffect16getConfigReverseENSt3__18functionIFvNS3_6ResultERKNS3_12EffectConfigEEEE"
  },
  {
   "name":"_ZN7android8hardware5audio6effect4V4_019BpHwBassBoostEffect16setConfigReverseERKNS3_12EffectConfigERKNS_2spINS3_29IEffectBufferProviderCallbackEEESC_"
  },
  {
   "name":"_ZN7android8hardware5audio6effect4V4_019BpHwBassBoostEffect17_hidl_getStrengthEPNS0_10IInterfaceEPNS0_7details16HidlInstrumentorENSt3__18functionIFvNS3_6ResultEtEEE"
  },
  {
   "name":"_ZN7android8hardware5audio6effect4V4_019BpHwBassBoostEffect17_hidl_setStrengthEPNS0_10IInterfaceEPNS0_7details16HidlInstrumentorEt"
  },
  {
   "name":"_ZN7android8hardware5audio6effect4V4_019BpHwBassBoostEffect17setProcessBuffersERKNS3_11AudioBufferES7_"
  },
  {
   "name":"_ZN7android8hardware5audio6effect4V4_019BpHwBassBoostEffect19interfaceDescriptorENSt3__18functionIFvRKNS0_11hidl_stringEEEE"
  },
  {
   "name":"_ZN7android8hardware5audio6effect4V4_019BpHwBassBoostEffect19isStrengthSupportedENSt3__18functionIFvNS3_6ResultEbEEE"
  },
  {
   "name":"_ZN7android8hardware5audio6effect4V4_019BpHwBassBoostEffect20getAuxChannelsConfigENSt3__18functionIFvNS3_6ResultERKNS3_23EffectAuxChannelsConfigEEEE"
  },
  {
   "name":"_ZN7android8hardware5audio6effect4V4_019BpHwBassBoostEffect20prepareForProcessingENSt3__18functionIFvNS3_6ResultERKNS0_12MQDescriptorIS7_LNS0_8MQFlavorE1EEEEEE"
  },
  {
   "name":"_ZN7android8hardware5audio6effect4V4_019BpHwBassBoostEffect20setAuxChannelsConfigERKNS3_23EffectAuxChannelsConfigE"
  },
  {
   "name":"_ZN7android8hardware5audio6effect4V4_019BpHwBassBoostEffect21notifySyspropsChangedEv"
  },
  {
   "name":"_ZN7android8hardware5audio6effect4V4_019BpHwBassBoostEffect21setHALInstrumentationEv"
  },
  {
   "name":"_ZN7android8hardware5audio6effect4V4_019BpHwBassBoostEffect24volumeChangeNotificationERKNS0_8hidl_vecIjEE"
  },
  {
   "name":"_ZN7android8hardware5audio6effect4V4_019BpHwBassBoostEffect25_hidl_isStrengthSupportedEPNS0_10IInterfaceEPNS0_7details16HidlInstrumentorENSt3__18functionIFvNS3_6ResultEbEEE"
  },
  {
   "name":"_ZN7android8hardware5audio6effect4V4_019BpHwBassBoostEffect26getCurrentConfigForFeatureEjjNSt3__18functionIFvNS3_6ResultERKNS0_8hidl_vecIhEEEEE"
  },
  {
   "name":"_ZN7android8hardware5audio6effect4V4_019BpHwBassBoostEffect26setCurrentConfigForFeatureEjRKNS0_8hidl_vecIhEE"
  },
  {
   "name":"_ZN7android8hardware5audio6effect4V4_019BpHwBassBoostEffect29getSupportedConfigsForFeatureEjjjNSt3__18functionIFvNS3_6ResultEjRKNS0_8hidl_vecIhEEEEE"
  },
  {
   "name":"_ZN7android8hardware5audio6effect4V4_019BpHwBassBoostEffect30getSupportedAuxChannelsConfigsEjNSt3__18functionIFvNS3_6ResultERKNS0_8hidl_vecINS3_23EffectAuxChannelsConfigEEEEEE"
  },
  {
   "name":"_ZN7android8hardware5audio6effect4V4_019BpHwBassBoostEffect4initEv"
  },
  {
   "name":"_ZN7android8hardware5audio6effect4V4_019BpHwBassBoostEffect4pingEv"
  },
  {
   "name":"_ZN7android8hardware5audio6effect4V4_019BpHwBassBoostEffect5closeEv"
  },
  {
   "name":"_ZN7android8hardware5audio6effect4V4_019BpHwBassBoostEffect5debugERKNS0_11hidl_handleERKNS0_8hidl_vecINS0_11hidl_stringEEE"
  },
  {
   "name":"_ZN7android8hardware5audio6effect4V4_019BpHwBassBoostEffect5resetEv"
  },
  {
   "name":"_ZN7android8hardware5audio6effect4V4_019BpHwBassBoostEffect6enableEv"
  },
  {
   "name":"_ZN7android8hardware5audio6effect4V4_019BpHwBassBoostEffect7commandEjRKNS0_8hidl_vecIhEEjNSt3__18functionIFviS8_EEE"
  },
  {
   "name":"_ZN7android8hardware5audio6effect4V4_019BpHwBassBoostEffect7disableEv"
  },
  {
   "name":"_ZN7android8hardware5audio6effect4V4_019BpHwBassBoostEffect7offloadERKNS3_22EffectOffloadParameterE"
  },
  {
   "name":"_ZN7android8hardware5audio6effect4V4_019BpHwBassBoostEffect9getConfigENSt3__18functionIFvNS3_6ResultERKNS3_12EffectConfigEEEE"
  },
  {
   "name":"_ZN7android8hardware5audio6effect4V4_019BpHwBassBoostEffect9setConfigERKNS3_12EffectConfigERKNS_2spINS3_29IEffectBufferProviderCallbackEEESC_"
  },
  {
   "name":"_ZN7android8hardware5audio6effect4V4_019BpHwBassBoostEffect9setDeviceEj"
  },
  {
   "name":"_ZN7android8hardware5audio6effect4V4_019BpHwBassBoostEffectC1ERKNS_2spINS0_7IBinderEEE"
  },
  {
   "name":"_ZN7android8hardware5audio6effect4V4_019BpHwBassBoostEffectC2ERKNS_2spINS0_7IBinderEEE"
  },
  {
   "name":"_ZN7android8hardware5audio6effect4V4_019BpHwEqualizerEffect11getNumBandsENSt3__18functionIFvNS3_6ResultEtEEE"
  },
  {
   "name":"_ZN7android8hardware5audio6effect4V4_019BpHwEqualizerEffect11linkToDeathERKNS_2spINS0_20hidl_death_recipientEEEm"
  },
  {
   "name":"_ZN7android8hardware5audio6effect4V4_019BpHwEqualizerEffect12getBandLevelEtNSt3__18functionIFvNS3_6ResultEsEEE"
  },
  {
   "name":"_ZN7android8hardware5audio6effect4V4_019BpHwEqualizerEffect12getDebugInfoENSt3__18functionIFvRKNS_4hidl4base4V1_09DebugInfoEEEE"
  },
  {
   "name":"_ZN7android8hardware5audio6effect4V4_019BpHwEqualizerEffect12getHashChainENSt3__18functionIFvRKNS0_8hidl_vecINS0_10hidl_arrayIhLm32EJEEEEEEEE"
  },
  {
   "name":"_ZN7android8hardware5audio6effect4V4_019BpHwEqualizerEffect12getParameterERKNS0_8hidl_vecIhEEjNSt3__18functionIFvNS3_6ResultES8_EEE"
  },
  {
   "name":"_ZN7android8hardware5audio6effect4V4_019BpHwEqualizerEffect12setAudioModeENS1_6common4V4_09AudioModeE"
  },
  {
   "name":"_ZN7android8hardware5audio6effect4V4_019BpHwEqualizerEffect12setBandLevelEts"
  },
  {
   "name":"_ZN7android8hardware5audio6effect4V4_019BpHwEqualizerEffect12setParameterERKNS0_8hidl_vecIhEES8_"
  },
  {
   "name":"_ZN7android8hardware5audio6effect4V4_019BpHwEqualizerEffect13getDescriptorENSt3__18functionIFvNS3_6ResultERKNS3_16EffectDescriptorEEEE"
  },
  {
   "name":"_ZN7android8hardware5audio6effect4V4_019BpHwEqualizerEffect13getLevelRangeENSt3__18functionIFvNS3_6ResultEssEEE"
  },
  {
   "name":"_ZN7android8hardware5audio6effect4V4_019BpHwEqualizerEffect13unlinkToDeathERKNS_2spINS0_20hidl_death_recipientEEE"
  },
  {
   "name":"_ZN7android8hardware5audio6effect4V4_019BpHwEqualizerEffect14getPresetNamesENSt3__18functionIFvNS3_6ResultERKNS0_8hidl_vecINS0_11hidl_stringEEEEEE"
  },
  {
   "name":"_ZN7android8hardware5audio6effect4V4_019BpHwEqualizerEffect14interfaceChainENSt3__18functionIFvRKNS0_8hidl_vecINS0_11hidl_stringEEEEEE"
  },
  {
   "name":"_ZN7android8hardware5audio6effect4V4_019BpHwEqualizerEffect14setAudioSourceENS1_6common4V4_011AudioSourceE"
  },
  {
   "name":"_ZN7android8hardware5audio6effect4V4_019BpHwEqualizerEffect14setInputDeviceEj"
  },
  {
   "name":"_ZN7android8hardware5audio6effect4V4_019BpHwEqualizerEffect15setAndGetVolumeERKNS0_8hidl_vecIjEENSt3__18functionIFvNS3_6ResultES8_EEE"
  },
  {
   "name":"_ZN7android8hardware5audio6effect4V4_019BpHwEqualizerEffect16getAllPropertiesENSt3__18functionIFvNS3_6ResultERKNS3_16IEqualizerEffect13AllPropertiesEEEE"
  },
  {
   "name":"_ZN7android8hardware5audio6effect4V4_019BpHwEqualizerEffect16getConfigReverseENSt3__18functionIFvNS3_6ResultERKNS3_12EffectConfigEEEE"
  },
  {
   "name":"_ZN7android8hardware5audio6effect4V4_019BpHwEqualizerEffect16getCurrentPresetENSt3__18functionIFvNS3_6ResultEtEEE"
  },
  {
   "name":"_ZN7android8hardware5audio6effect4V4_019BpHwEqualizerEffect16setAllPropertiesERKNS3_16IEqualizerEffect13AllPropertiesE"
  },
  {
   "name":"_ZN7android8hardware5audio6effect4V4_019BpHwEqualizerEffect16setConfigReverseERKNS3_12EffectConfigERKNS_2spINS3_29IEffectBufferProviderCallbackEEESC_"
  },
  {
   "name":"_ZN7android8hardware5audio6effect4V4_019BpHwEqualizerEffect16setCurrentPresetEt"
  },
  {
   "name":"_ZN7android8hardware5audio6effect4V4_019BpHwEqualizerEffect17_hidl_getNumBandsEPNS0_10IInterfaceEPNS0_7details16HidlInstrumentorENSt3__18functionIFvNS3_6ResultEtEEE"
  },
  {
   "name":"_ZN7android8hardware5audio6effect4V4_019BpHwEqualizerEffect17setProcessBuffersERKNS3_11AudioBufferES7_"
  },
  {
   "name":"_ZN7android8hardware5audio6effect4V4_019BpHwEqualizerEffect18_hidl_getBandLevelEPNS0_10IInterfaceEPNS0_7details16HidlInstrumentorEtNSt3__18functionIFvNS3_6ResultEsEEE"
  },
  {
   "name":"_ZN7android8hardware5audio6effect4V4_019BpHwEqualizerEffect18_hidl_setBandLevelEPNS0_10IInterfaceEPNS0_7details16HidlInstrumentorEts"
  },
  {
   "name":"_ZN7android8hardware5audio6effect4V4_019BpHwEqualizerEffect19_hidl_getLevelRangeEPNS0_10IInterfaceEPNS0_7details16HidlInstrumentorENSt3__18functionIFvNS3_6ResultEssEEE"
  },
  {
   "name":"_ZN7android8hardware5audio6effect4V4_019BpHwEqualizerEffect19getBandForFrequencyEjNSt3__18functionIFvNS3_6ResultEtEEE"
  },
  {
