{
 "record_types":[
  {
   "vtable_components":[
    {
     "kind":"vbase_offset",
     "component_value":8
    },
    {
     "kind":"offset_to_top"
    },
    {
     "kind":"rtti",
     "mangled_component_name":"_ZTIN7android8hardware2tv3cec4V1_016IHdmiCecCallbackE"
    },
    {
     "mangled_component_name":"_ZNK7android8hardware2tv3cec4V1_016IHdmiCecCallback8isRemoteEv"
    },
    {
     "mangled_component_name":"_ZN7android8hardware2tv3cec4V1_016IHdmiCecCallback14interfaceChainENSt3__18functionIFvRKNS0_8hidl_vecINS0_11hidl_stringEEEEEE"
    },
    {
     "mangled_component_name":"_ZN7android8hardware2tv3cec4V1_016IHdmiCecCallback5debugERKNS0_11hidl_handleERKNS0_8hidl_vecINS0_11hidl_stringEEE"
    },
    {
     "mangled_component_name":"_ZN7android8hardware2tv3cec4V1_016IHdmiCecCallback19interfaceDescriptorENSt3__18functionIFvRKNS0_11hidl_stringEEEE"
    },
    {
     "mangled_component_name":"_ZN7android8hardware2tv3cec4V1_016IHdmiCecCallback12getHashChainENSt3__18functionIFvRKNS0_8hidl_vecINS0_10hidl_arrayIhLm32EJEEEEEEEE"
    },
    {
     "mangled_component_name":"_ZN7android8hardware2tv3cec4V1_016IHdmiCecCallback21setHALInstrumentationEv"
    },
    {
     "mangled_component_name":"_ZN7android8hardware2tv3cec4V1_016IHdmiCecCallback11linkToDeathERKNS_2spINS0_20hidl_death_recipientEEEm"
    },
    {
     "mangled_component_name":"_ZN7android8hardware2tv3cec4V1_016IHdmiCecCallback4pingEv"
    },
    {
     "mangled_component_name":"_ZN7android8hardware2tv3cec4V1_016IHdmiCecCallback12getDebugInfoENSt3__18functionIFvRKNS_4hidl4base4V1_09DebugInfoEEEE"
    },
    {
     "mangled_component_name":"_ZN7android8hardware2tv3cec4V1_016IHdmiCecCallback21notifySyspropsChangedEv"
    },
    {
     "mangled_component_name":"_ZN7android8hardware2tv3cec4V1_016IHdmiCecCallback13unlinkToDeathERKNS_2spINS0_20hidl_death_recipientEEE"
    },
    {
     "kind":"complete_dtor_pointer",
     "mangled_component_name":"_ZN7android8hardware2tv3cec4V1_016IHdmiCecCallbackD1Ev"
    },
    {
     "kind":"deleting_dtor_pointer",
     "mangled_component_name":"_ZN7android8hardware2tv3cec4V1_016IHdmiCecCallbackD0Ev"
    },
    {
     "is_pure":true,
     "mangled_component_name":"_ZN7android8hardware2tv3cec4V1_016IHdmiCecCallback12onCecMessageERKNS3_10CecMessageE"
    },
    {
     "is_pure":true,
     "mangled_component_name":"_ZN7android8hardware2tv3cec4V1_016IHdmiCecCallback14onHotplugEventERKNS3_12HotplugEventE"
    },
    {
     "kind":"vcall_offset"
    },
    {
     "kind":"vcall_offset"
    },
    {
     "kind":"vcall_offset"
    },
    {
     "kind":"vcall_offset"
    },
    {
     "kind":"vcall_offset",
     "component_value":-8
    },
    {
     "kind":"offset_to_top",
     "component_value":-8
    },
    {
     "kind":"rtti",
     "mangled_component_name":"_ZTIN7android8hardware2tv3cec4V1_016IHdmiCecCallbackE"
    },
    {
     "kind":"complete_dtor_pointer",
     "mangled_component_name":"_ZTv0_n24_N7android8hardware2tv3cec4V1_016IHdmiCecCallbackD1Ev"
    },
    {
     "kind":"deleting_dtor_pointer",
     "mangled_component_name":"_ZTv0_n24_N7android8hardware2tv3cec4V1_016IHdmiCecCallbackD0Ev"
    },
    {
     "mangled_component_name":"_ZN7android7RefBase10onFirstRefEv"
    },
    {
     "mangled_component_name":"_ZN7android7RefBase15onLastStrongRefEPKv"
    },
    {
     "mangled_component_name":"_ZN7android7RefBase20onIncStrongAttemptedEjPKv"
    },
    {
     "mangled_component_name":"_ZN7android7RefBase13onLastWeakRefEPKv"
    }
   ],
   "unique_id":"_ZTSN7android8hardware2tv3cec4V1_016IHdmiCecCallbackE"
  },
  {
   "vtable_components":[
    {
     "kind":"vbase_offset",
     "component_value":200
    },
    {
     "kind":"offset_to_top"
    },
    {
     "kind":"rtti",
     "mangled_component_name":"_ZTIN7android8hardware2tv3cec4V1_019BpHwHdmiCecCallbackE"
    },
    {
     "mangled_component_name":"_ZNK7android8hardware2tv3cec4V1_019BpHwHdmiCecCallback8isRemoteEv"
    },
    {
     "mangled_component_name":"_ZN7android8hardware2tv3cec4V1_019BpHwHdmiCecCallback14interfaceChainENSt3__18functionIFvRKNS0_8hidl_vecINS0_11hidl_stringEEEEEE"
    },
    {
     "mangled_component_name":"_ZN7android8hardware2tv3cec4V1_019BpHwHdmiCecCallback5debugERKNS0_11hidl_handleERKNS0_8hidl_vecINS0_11hidl_stringEEE"
    },
    {
     "mangled_component_name":"_ZN7android8hardware2tv3cec4V1_019BpHwHdmiCecCallback19interfaceDescriptorENSt3__18functionIFvRKNS0_11hidl_stringEEEE"
    },
    {
     "mangled_component_name":"_ZN7android8hardware2tv3cec4V1_019BpHwHdmiCecCallback12getHashChainENSt3__18functionIFvRKNS0_8hidl_vecINS0_10hidl_arrayIhLm32EJEEEEEEEE"
    },
    {
     "mangled_component_name":"_ZN7android8hardware2tv3cec4V1_019BpHwHdmiCecCallback21setHALInstrumentationEv"
    },
    {
     "mangled_component_name":"_ZN7android8hardware2tv3cec4V1_019BpHwHdmiCecCallback11linkToDeathERKNS_2spINS0_20hidl_death_recipientEEEm"
    },
    {
     "mangled_component_name":"_ZN7android8hardware2tv3cec4V1_019BpHwHdmiCecCallback4pingEv"
    },
    {
     "mangled_component_name":"_ZN7android8hardware2tv3cec4V1_019BpHwHdmiCecCallback12getDebugInfoENSt3__18functionIFvRKNS_4hidl4base4V1_09DebugInfoEEEE"
    },
    {
     "mangled_component_name":"_ZN7android8hardware2tv3cec4V1_019BpHwHdmiCecCallback21notifySyspropsChangedEv"
    },
    {
     "mangled_component_name":"_ZN7android8hardware2tv3cec4V1_019BpHwHdmiCecCallback13unlinkToDeathERKNS_2spINS0_20hidl_death_recipientEEE"
    },
    {
     "kind":"complete_dtor_pointer",
     "mangled_component_name":"_ZN7android8hardware2tv3cec4V1_019BpHwHdmiCecCallbackD1Ev"
    },
    {
     "kind":"deleting_dtor_pointer",
     "mangled_component_name":"_ZN7android8hardware2tv3cec4V1_019BpHwHdmiCecCallbackD0Ev"
    },
    {
     "mangled_component_name":"_ZN7android8hardware2tv3cec4V1_019BpHwHdmiCecCallback12onCecMessageERKNS3_10CecMessageE"
    },
    {
     "mangled_component_name":"_ZN7android8hardware2tv3cec4V1_019BpHwHdmiCecCallback14onHotplugEventERKNS3_12HotplugEventE"
    },
    {
     "mangled_component_name":"_ZN7android8hardware11BpInterfaceINS0_2tv3cec4V1_016IHdmiCecCallbackEE10onAsBinderEv"
    },
    {
     "kind":"vbase_offset",
     "component_value":192
    },
    {
     "kind":"offset_to_top",
     "component_value":-8
    },
    {
     "kind":"rtti",
     "mangled_component_name":"_ZTIN7android8hardware2tv3cec4V1_019BpHwHdmiCecCallbackE"
    },
    {
     "kind":"complete_dtor_pointer",
     "mangled_component_name":"_ZThn8_N7android8hardware2tv3cec4V1_019BpHwHdmiCecCallbackD1Ev"
    },
    {
     "kind":"deleting_dtor_pointer",
     "mangled_component_name":"_ZThn8_N7android8hardware2tv3cec4V1_019BpHwHdmiCecCallbackD0Ev"
    },
    {
     "mangled_component_name":"_ZThn8_N7android8hardware11BpInterfaceINS0_2tv3cec4V1_016IHdmiCecCallbackEE10onAsBinderEv"
    },
    {
     "kind":"vbase_offset",
     "component_value":184
    },
    {
     "kind":"offset_to_top",
     "component_value":-16
    },
    {
     "kind":"rtti",
     "mangled_component_name":"_ZTIN7android8hardware2tv3cec4V1_019BpHwHdmiCecCallbackE"
    },
    {
     "kind":"complete_dtor_pointer",
     "mangled_component_name":"_ZThn16_N7android8hardware2tv3cec4V1_019BpHwHdmiCecCallbackD1Ev"
    },
    {
     "kind":"deleting_dtor_pointer",
     "mangled_component_name":"_ZThn16_N7android8hardware2tv3cec4V1_019BpHwHdmiCecCallbackD0Ev"
    },
    {
     "mangled_component_name":"_ZN7android8hardware11BpHwRefBase10onFirstRefEv"
    },
    {
     "mangled_component_name":"_ZN7android8hardware11BpHwRefBase15onLastStrongRefEPKv"
    },
    {
     "mangled_component_name":"_ZN7android8hardware11BpHwRefBase20onIncStrongAttemptedEjPKv"
    },
    {
     "kind":"offset_to_top",
     "component_value":-48
    },
    {
     "kind":"rtti",
     "mangled_component_name":"_ZTIN7android8hardware2tv3cec4V1_019BpHwHdmiCecCallbackE"
    },
    {
     "kind":"complete_dtor_pointer",
     "mangled_component_name":"_ZThn48_N7android8hardware2tv3cec4V1_019BpHwHdmiCecCallbackD1Ev"
    },
    {
     "kind":"deleting_dtor_pointer",
     "mangled_component_name":"_ZThn48_N7android8hardware2tv3cec4V1_019BpHwHdmiCecCallbackD0Ev"
    },
    {
     "kind":"vcall_offset"
    },
    {
     "kind":"vcall_offset",
     "component_value":-184
    },
    {
     "kind":"vcall_offset",
     "component_value":-184
    },
    {
     "kind":"vcall_offset",
     "component_value":-184
    },
    {
     "kind":"vcall_offset",
     "component_value":-200
    },
    {
     "kind":"offset_to_top",
     "component_value":-200
    },
    {
     "kind":"rtti",
     "mangled_component_name":"_ZTIN7android8hardware2tv3cec4V1_019BpHwHdmiCecCallbackE"
    },
    {
     "kind":"complete_dtor_pointer",
     "mangled_component_name":"_ZTv0_n24_N7android8hardware2tv3cec4V1_019BpHwHdmiCecCallbackD1Ev"
    },
    {
     "kind":"deleting_dtor_pointer",
     "mangled_component_name":"_ZTv0_n24_N7android8hardware2tv3cec4V1_019BpHwHdmiCecCallbackD0Ev"
    },
    {
     "mangled_component_name":"_ZTv0_n32_N7android8hardware11BpHwRefBase10onFirstRefEv"
    },
    {
     "mangled_component_name":"_ZTv0_n40_N7android8hardware11BpHwRefBase15onLastStrongRefEPKv"
    },
    {
     "mangled_component_name":"_ZTv0_n48_N7android8hardware11BpHwRefBase20onIncStrongAttemptedEjPKv"
    },
    {
     "mangled_component_name":"_ZN7android7RefBase13onLastWeakRefEPKv"
    }
   ],
   "unique_id":"_ZTSN7android8hardware2tv3cec4V1_019BpHwHdmiCecCallbackE"
  },
  {
   "vtable_components":[
    {
     "kind":"vbase_offset",
     "component_value":8
    },
    {
     "kind":"offset_to_top"
    },
    {
     "kind":"rtti",
     "mangled_component_name":"_ZTIN7android8hardware2tv3cec4V1_08IHdmiCecE"
    },
    {
     "mangled_component_name":"_ZNK7android8hardware2tv3cec4V1_08IHdmiCec8isRemoteEv"
    },
    {
     "mangled_component_name":"_ZN7android8hardware2tv3cec4V1_08IHdmiCec14interfaceChainENSt3__18functionIFvRKNS0_8hidl_vecINS0_11hidl_stringEEEEEE"
    },
    {
     "mangled_component_name":"_ZN7android8hardware2tv3cec4V1_08IHdmiCec5debugERKNS0_11hidl_handleERKNS0_8hidl_vecINS0_11hidl_stringEEE"
    },
    {
     "mangled_component_name":"_ZN7android8hardware2tv3cec4V1_08IHdmiCec19interfaceDescriptorENSt3__18functionIFvRKNS0_11hidl_stringEEEE"
    },
    {
     "mangled_component_name":"_ZN7android8hardware2tv3cec4V1_08IHdmiCec12getHashChainENSt3__18functionIFvRKNS0_8hidl_vecINS0_10hidl_arrayIhLm32EJEEEEEEEE"
    },
    {
     "mangled_component_name":"_ZN7android8hardware2tv3cec4V1_08IHdmiCec21setHALInstrumentationEv"
    },
    {
     "mangled_component_name":"_ZN7android8hardware2tv3cec4V1_08IHdmiCec11linkToDeathERKNS_2spINS0_20hidl_death_recipientEEEm"
    },
    {
     "mangled_component_name":"_ZN7android8hardware2tv3cec4V1_08IHdmiCec4pingEv"
    },
    {
     "mangled_component_name":"_ZN7android8hardware2tv3cec4V1_08IHdmiCec12getDebugInfoENSt3__18functionIFvRKNS_4hidl4base4V1_09DebugInfoEEEE"
    },
    {
     "mangled_component_name":"_ZN7android8hardware2tv3cec4V1_08IHdmiCec21notifySyspropsChangedEv"
    },
    {
     "mangled_component_name":"_ZN7android8hardware2tv3cec4V1_08IHdmiCec13unlinkToDeathERKNS_2spINS0_20hidl_death_recipientEEE"
    },
    {
     "kind":"complete_dtor_pointer",
     "mangled_component_name":"_ZN7android8hardware2tv3cec4V1_08IHdmiCecD1Ev"
    },
    {
     "kind":"deleting_dtor_pointer",
     "mangled_component_name":"_ZN7android8hardware2tv3cec4V1_08IHdmiCecD0Ev"
    },
    {
     "is_pure":true,
     "mangled_component_name":"_ZN7android8hardware2tv3cec4V1_08IHdmiCec17addLogicalAddressENS3_17CecLogicalAddressE"
    },
    {
     "is_pure":true,
     "mangled_component_name":"_ZN7android8hardware2tv3cec4V1_08IHdmiCec19clearLogicalAddressEv"
    },
    {
     "is_pure":true,
     "mangled_component_name":"_ZN7android8hardware2tv3cec4V1_08IHdmiCec18getPhysicalAddressENSt3__18functionIFvNS3_6ResultEtEEE"
    },
    {
     "is_pure":true,
     "mangled_component_name":"_ZN7android8hardware2tv3cec4V1_08IHdmiCec11sendMessageERKNS3_10CecMessageE"
    },
    {
     "is_pure":true,
     "mangled_component_name":"_ZN7android8hardware2tv3cec4V1_08IHdmiCec11setCallbackERKNS_2spINS3_16IHdmiCecCallbackEEE"
    },
    {
     "is_pure":true,
     "mangled_component_name":"_ZN7android8hardware2tv3cec4V1_08IHdmiCec13getCecVersionEv"
    },
    {
     "is_pure":true,
     "mangled_component_name":"_ZN7android8hardware2tv3cec4V1_08IHdmiCec11getVendorIdEv"
    },
    {
     "is_pure":true,
     "mangled_component_name":"_ZN7android8hardware2tv3cec4V1_08IHdmiCec11getPortInfoENSt3__18functionIFvRKNS0_8hidl_vecINS3_12HdmiPortInfoEEEEEE"
    },
    {
     "is_pure":true,
     "mangled_component_name":"_ZN7android8hardware2tv3cec4V1_08IHdmiCec9setOptionENS3_9OptionKeyEb"
    },
    {
     "is_pure":true,
     "mangled_component_name":"_ZN7android8hardware2tv3cec4V1_08IHdmiCec11setLanguageERKNS0_11hidl_stringE"
    },
    {
     "is_pure":true,
     "mangled_component_name":"_ZN7android8hardware2tv3cec4V1_08IHdmiCec24enableAudioReturnChannelEib"
    },
    {
     "is_pure":true,
     "mangled_component_name":"_ZN7android8hardware2tv3cec4V1_08IHdmiCec11isConnectedEi"
    },
    {
     "kind":"vcall_offset"
    },
    {
     "kind":"vcall_offset"
    },
    {
     "kind":"vcall_offset"
    },
    {
     "kind":"vcall_offset"
    },
    {
     "kind":"vcall_offset",
     "component_value":-8
    },
    {
     "kind":"offset_to_top",
     "component_value":-8
    },
    {
     "kind":"rtti",
     "mangled_component_name":"_ZTIN7android8hardware2tv3cec4V1_08IHdmiCecE"
    },
    {
     "kind":"complete_dtor_pointer",
     "mangled_component_name":"_ZTv0_n24_N7android8hardware2tv3cec4V1_08IHdmiCecD1Ev"
    },
    {
     "kind":"deleting_dtor_pointer",
     "mangled_component_name":"_ZTv0_n24_N7android8hardware2tv3cec4V1_08IHdmiCecD0Ev"
    },
    {
     "mangled_component_name":"_ZN7android7RefBase10onFirstRefEv"
    },
    {
     "mangled_component_name":"_ZN7android7RefBase15onLastStrongRefEPKv"
    },
    {
     "mangled_component_name":"_ZN7android7RefBase20onIncStrongAttemptedEjPKv"
    },
    {
     "mangled_component_name":"_ZN7android7RefBase13onLastWeakRefEPKv"
    }
   ],
   "unique_id":"_ZTSN7android8hardware2tv3cec4V1_08IHdmiCecE"
  },
  {
   "vtable_components":[
    {
     "kind":"vbase_offset",
     "component_value":136
    },
    {
     "kind":"offset_to_top"
    },
    {
     "kind":"rtti",
     "mangled_component_name":"_ZTIN7android8hardware2tv3cec4V1_011BnHwHdmiCecE"
    },
    {
     "mangled_component_name":"_ZN7android8hardware9BHwBinder8transactEjRKNS0_6ParcelEPS2_jNSt3__18functionIFvRS2_EEE"
    },
    {
     "mangled_component_name":"_ZN7android8hardware9BHwBinder11linkToDeathERKNS_2spINS0_7IBinder14DeathRecipientEEEPvj"
    },
    {
     "mangled_component_name":"_ZN7android8hardware9BHwBinder13unlinkToDeathERKNS_2wpINS0_7IBinder14DeathRecipientEEEPvjPS5_"
    },
    {
     "mangled_component_name":"_ZNK7android8hardware7IBinder13checkSubclassEPKv"
    },
    {
     "mangled_component_name":"_ZN7android8hardware9BHwBinder12attachObjectEPKvPvS4_PFvS3_S4_S4_E"
    },
    {
     "mangled_component_name":"_ZNK7android8hardware9BHwBinder10findObjectEPKv"
    },
    {
     "mangled_component_name":"_ZN7android8hardware9BHwBinder12detachObjectEPKv"
    },
    {
     "mangled_component_name":"_ZN7android8hardware9BHwBinder11localBinderEv"
    },
    {
     "mangled_component_name":"_ZN7android8hardware7IBinder12remoteBinderEv"
    },
    {
     "kind":"complete_dtor_pointer",
     "mangled_component_name":"_ZN7android8hardware2tv3cec4V1_011BnHwHdmiCecD1Ev"
    },
    {
     "kind":"deleting_dtor_pointer",
     "mangled_component_name":"_ZN7android8hardware2tv3cec4V1_011BnHwHdmiCecD0Ev"
    },
    {
     "mangled_component_name":"_ZN7android8hardware2tv3cec4V1_011BnHwHdmiCec10onTransactEjRKNS0_6ParcelEPS5_jNSt3__18functionIFvRS5_EEE"
    },
    {
     "kind":"offset_to_top",
     "component_value":-32
    },
    {
     "kind":"rtti",
     "mangled_component_name":"_ZTIN7android8hardware2tv3cec4V1_011BnHwHdmiCecE"
    },
    {
     "kind":"complete_dtor_pointer",
     "mangled_component_name":"_ZThn32_N7android8hardware2tv3cec4V1_011BnHwHdmiCecD1Ev"
    },
    {
     "kind":"deleting_dtor_pointer",
     "mangled_component_name":"_ZThn32_N7android8hardware2tv3cec4V1_011BnHwHdmiCecD0Ev"
    },
    {
     "kind":"vcall_offset"
    },
    {
     "kind":"vcall_offset"
    },
    {
     "kind":"vcall_offset"
    },
    {
     "kind":"vcall_offset"
    },
    {
     "kind":"vcall_offset",
     "component_value":-136
    },
    {
     "kind":"offset_to_top",
     "component_value":-136
    },
    {
     "kind":"rtti",
     "mangled_component_name":"_ZTIN7android8hardware2tv3cec4V1_011BnHwHdmiCecE"
    },
    {
     "kind":"complete_dtor_pointer",
     "mangled_component_name":"_ZTv0_n24_N7android8hardware2tv3cec4V1_011BnHwHdmiCecD1Ev"
    },
    {
     "kind":"deleting_dtor_pointer",
     "mangled_component_name":"_ZTv0_n24_N7android8hardware2tv3cec4V1_011BnHwHdmiCecD0Ev"
    },
    {
     "mangled_component_name":"_ZN7android7RefBase10onFirstRefEv"
    },
    {
     "mangled_component_name":"_ZN7android7RefBase15onLastStrongRefEPKv"
    },
    {
     "mangled_component_name":"_ZN7android7RefBase20onIncStrongAttemptedEjPKv"
    },
    {
     "mangled_component_name":"_ZN7android7RefBase13onLastWeakRefEPKv"
    }
   ],
   "unique_id":"_ZTSN7android8hardware2tv3cec4V1_011BnHwHdmiCecE"
  },
  {
   "vtable_components":[
    {
     "kind":"vbase_offset",
     "component_value":136
    },
    {
     "kind":"offset_to_top"
    },
    {
     "kind":"rtti",
     "mangled_component_name":"_ZTIN7android8hardware2tv3cec4V1_019BnHwHdmiCecCallbackE"
    },
    {
     "mangled_component_name":"_ZN7android8hardware9BHwBinder8transactEjRKNS0_6ParcelEPS2_jNSt3__18functionIFvRS2_EEE"
    },
    {
     "mangled_component_name":"_ZN7android8hardware9BHwBinder11linkToDeathERKNS_2spINS0_7IBinder14DeathRecipientEEEPvj"
    },
    {
     "mangled_component_name":"_ZN7android8hardware9BHwBinder13unlinkToDeathERKNS_2wpINS0_7IBinder14DeathRecipientEEEPvjPS5_"
    },
    {
     "mangled_component_name":"_ZNK7android8hardware7IBinder13checkSubclassEPKv"
    },
    {
     "mangled_component_name":"_ZN7android8hardware9BHwBinder12attachObjectEPKvPvS4_PFvS3_S4_S4_E"
    },
    {
     "mangled_component_name":"_ZNK7android8hardware9BHwBinder10findObjectEPKv"
    },
    {
     "mangled_component_name":"_ZN7android8hardware9BHwBinder12detachObjectEPKv"
    },
    {
     "mangled_component_name":"_ZN7android8hardware9BHwBinder11localBinderEv"
    },
    {
     "mangled_component_name":"_ZN7android8hardware7IBinder12remoteBinderEv"
    },
    {
     "kind":"complete_dtor_pointer",
     "mangled_component_name":"_ZN7android8hardware2tv3cec4V1_019BnHwHdmiCecCallbackD1Ev"
    },
    {
     "kind":"deleting_dtor_pointer",
     "mangled_component_name":"_ZN7android8hardware2tv3cec4V1_019BnHwHdmiCecCallbackD0Ev"
    },
    {
     "mangled_component_name":"_ZN7android8hardware2tv3cec4V1_019BnHwHdmiCecCallback10onTransactEjRKNS0_6ParcelEPS5_jNSt3__18functionIFvRS5_EEE"
    },
    {
     "kind":"offset_to_top",
     "component_value":-32
    },
    {
     "kind":"rtti",
     "mangled_component_name":"_ZTIN7android8hardware2tv3cec4V1_019BnHwHdmiCecCallbackE"
    },
    {
     "kind":"complete_dtor_pointer",
     "mangled_component_name":"_ZThn32_N7android8hardware2tv3cec4V1_019BnHwHdmiCecCallbackD1Ev"
    },
    {
     "kind":"deleting_dtor_pointer",
     "mangled_component_name":"_ZThn32_N7android8hardware2tv3cec4V1_019BnHwHdmiCecCallbackD0Ev"
    },
    {
     "kind":"vcall_offset"
    },
    {
     "kind":"vcall_offset"
    },
    {
     "kind":"vcall_offset"
    },
    {
     "kind":"vcall_offset"
    },
    {
     "kind":"vcall_offset",
     "component_value":-136
    },
    {
     "kind":"offset_to_top",
     "component_value":-136
    },
    {
     "kind":"rtti",
     "mangled_component_name":"_ZTIN7android8hardware2tv3cec4V1_019BnHwHdmiCecCallbackE"
    },
    {
     "kind":"complete_dtor_pointer",
     "mangled_component_name":"_ZTv0_n24_N7android8hardware2tv3cec4V1_019BnHwHdmiCecCallbackD1Ev"
    },
    {
     "kind":"deleting_dtor_pointer",
     "mangled_component_name":"_ZTv0_n24_N7android8hardware2tv3cec4V1_019BnHwHdmiCecCallbackD0Ev"
    },
    {
     "mangled_component_name":"_ZN7android7RefBase10onFirstRefEv"
    },
    {
     "mangled_component_name":"_ZN7android7RefBase15onLastStrongRefEPKv"
    },
    {
     "mangled_component_name":"_ZN7android7RefBase20onIncStrongAttemptedEjPKv"
    },
    {
     "mangled_component_name":"_ZN7android7RefBase13onLastWeakRefEPKv"
    }
   ],
   "unique_id":"_ZTSN7android8hardware2tv3cec4V1_019BnHwHdmiCecCallbackE"
  },
  {
   "vtable_components":[
    {
     "kind":"vbase_offset",
     "component_value":200
    },
    {
     "kind":"offset_to_top"
    },
    {
     "kind":"rtti",
     "mangled_component_name":"_ZTIN7android8hardware2tv3cec4V1_011BpHwHdmiCecE"
    },
    {
     "mangled_component_name":"_ZNK7android8hardware2tv3cec4V1_011BpHwHdmiCec8isRemoteEv"
    },
    {
     "mangled_component_name":"_ZN7android8hardware2tv3cec4V1_011BpHwHdmiCec14interfaceChainENSt3__18functionIFvRKNS0_8hidl_vecINS0_11hidl_stringEEEEEE"
    },
    {
     "mangled_component_name":"_ZN7android8hardware2tv3cec4V1_011BpHwHdmiCec5debugERKNS0_11hidl_handleERKNS0_8hidl_vecINS0_11hidl_stringEEE"
    },
    {
     "mangled_component_name":"_ZN7android8hardware2tv3cec4V1_011BpHwHdmiCec19interfaceDescriptorENSt3__18functionIFvRKNS0_11hidl_stringEEEE"
    },
    {
     "mangled_component_name":"_ZN7android8hardware2tv3cec4V1_011BpHwHdmiCec12getHashChainENSt3__18functionIFvRKNS0_8hidl_vecINS0_10hidl_arrayIhLm32EJEEEEEEEE"
    },
    {
     "mangled_component_name":"_ZN7android8hardware2tv3cec4V1_011BpHwHdmiCec21setHALInstrumentationEv"
    },
    {
     "mangled_component_name":"_ZN7android8hardware2tv3cec4V1_011BpHwHdmiCec11linkToDeathERKNS_2spINS0_20hidl_death_recipientEEEm"
    },
    {
     "mangled_component_name":"_ZN7android8hardware2tv3cec4V1_011BpHwHdmiCec4pingEv"
    },
    {
     "mangled_component_name":"_ZN7android8hardware2tv3cec4V1_011BpHwHdmiCec12getDebugInfoENSt3__18functionIFvRKNS_4hidl4base4V1_09DebugInfoEEEE"
    },
    {
     "mangled_component_name":"_ZN7android8hardware2tv3cec4V1_011BpHwHdmiCec21notifySyspropsChangedEv"
    },
    {
     "mangled_component_name":"_ZN7android8hardware2tv3cec4V1_011BpHwHdmiCec13unlinkToDeathERKNS_2spINS0_20hidl_death_recipientEEE"
    },
    {
     "kind":"complete_dtor_pointer",
     "mangled_component_name":"_ZN7android8hardware2tv3cec4V1_011BpHwHdmiCecD1Ev"
    },
    {
     "kind":"deleting_dtor_pointer",
     "mangled_component_name":"_ZN7android8hardware2tv3cec4V1_011BpHwHdmiCecD0Ev"
    },
    {
     "mangled_component_name":"_ZN7android8hardware2tv3cec4V1_011BpHwHdmiCec17addLogicalAddressENS3_17CecLogicalAddressE"
    },
    {
     "mangled_component_name":"_ZN7android8hardware2tv3cec4V1_011BpHwHdmiCec19clearLogicalAddressEv"
    },
    {
     "mangled_component_name":"_ZN7android8hardware2tv3cec4V1_011BpHwHdmiCec18getPhysicalAddressENSt3__18functionIFvNS3_6ResultEtEEE"
    },
    {
     "mangled_component_name":"_ZN7android8hardware2tv3cec4V1_011BpHwHdmiCec11sendMessageERKNS3_10CecMessageE"
    },
    {
     "mangled_component_name":"_ZN7android8hardware2tv3cec4V1_011BpHwHdmiCec11setCallbackERKNS_2spINS3_16IHdmiCecCallbackEEE"
    },
    {
     "mangled_component_name":"_ZN7android8hardware2tv3cec4V1_011BpHwHdmiCec13getCecVersionEv"
    },
    {
     "mangled_component_name":"_ZN7android8hardware2tv3cec4V1_011BpHwHdmiCec11getVendorIdEv"
    },
    {
     "mangled_component_name":"_ZN7android8hardware2tv3cec4V1_011BpHwHdmiCec11getPortInfoENSt3__18functionIFvRKNS0_8hidl_vecINS3_12HdmiPortInfoEEEEEE"
    },
    {
     "mangled_component_name":"_ZN7android8hardware2tv3cec4V1_011BpHwHdmiCec9setOptionENS3_9OptionKeyEb"
    },
    {
     "mangled_component_name":"_ZN7android8hardware2tv3cec4V1_011BpHwHdmiCec11setLanguageERKNS0_11hidl_stringE"
    },
    {
     "mangled_component_name":"_ZN7android8hardware2tv3cec4V1_011BpHwHdmiCec24enableAudioReturnChannelEib"
    },
    {
     "mangled_component_name":"_ZN7android8hardware2tv3cec4V1_011BpHwHdmiCec11isConnectedEi"
    },
    {
     "mangled_component_name":"_ZN7android8hardware11BpInterfaceINS0_2tv3cec4V1_08IHdmiCecEE10onAsBinderEv"
    },
    {
     "kind":"vbase_offset",
     "component_value":192
    },
    {
     "kind":"offset_to_top",
     "component_value":-8
    },
    {
     "kind":"rtti",
     "mangled_component_name":"_ZTIN7android8hardware2tv3cec4V1_011BpHwHdmiCecE"
    },
    {
     "kind":"complete_dtor_pointer",
     "mangled_component_name":"_ZThn8_N7android8hardware2tv3cec4V1_011BpHwHdmiCecD1Ev"
    },
    {
     "kind":"deleting_dtor_pointer",
     "mangled_component_name":"_ZThn8_N7android8hardware2tv3cec4V1_011BpHwHdmiCecD0Ev"
    },
    {
     "mangled_component_name":"_ZThn8_N7android8hardware11BpInterfaceINS0_2tv3cec4V1_08IHdmiCecEE10onAsBinderEv"
    },
    {
     "kind":"vbase_offset",
     "component_value":184
    },
    {
     "kind":"offset_to_top",
     "component_value":-16
    },
    {
     "kind":"rtti",
     "mangled_component_name":"_ZTIN7android8hardware2tv3cec4V1_011BpHwHdmiCecE"
    },
    {
     "kind":"complete_dtor_pointer",
     "mangled_component_name":"_ZThn16_N7android8hardware2tv3cec4V1_011BpHwHdmiCecD1Ev"
    },
    {
     "kind":"deleting_dtor_pointer",
     "mangled_component_name":"_ZThn16_N7android8hardware2tv3cec4V1_011BpHwHdmiCecD0Ev"
    },
    {
     "mangled_component_name":"_ZN7android8hardware11BpHwRefBase10onFirstRefEv"
    },
    {
     "mangled_component_name":"_ZN7android8hardware11BpHwRefBase15onLastStrongRefEPKv"
    },
    {
     "mangled_component_name":"_ZN7android8hardware11BpHwRefBase20onIncStrongAttemptedEjPKv"
    },
    {
     "kind":"offset_to_top",
     "component_value":-48
    },
    {
     "kind":"rtti",
     "mangled_component_name":"_ZTIN7android8hardware2tv3cec4V1_011BpHwHdmiCecE"
    },
    {
     "kind":"complete_dtor_pointer",
     "mangled_component_name":"_ZThn48_N7android8hardware2tv3cec4V1_011BpHwHdmiCecD1Ev"
    },
    {
     "kind":"deleting_dtor_pointer",
     "mangled_component_name":"_ZThn48_N7android8hardware2tv3cec4V1_011BpHwHdmiCecD0Ev"
    },
    {
     "kind":"vcall_offset"
    },
    {
     "kind":"vcall_offset",
     "component_value":-184
    },
    {
     "kind":"vcall_offset",
     "component_value":-184
    },
    {
     "kind":"vcall_offset",
     "component_value":-184
    },
    {
     "kind":"vcall_offset",
     "component_value":-200
    },
    {
     "kind":"offset_to_top",
     "component_value":-200
    },
    {
     "kind":"rtti",
     "mangled_component_name":"_ZTIN7android8hardware2tv3cec4V1_011BpHwHdmiCecE"
    },
    {
     "kind":"complete_dtor_pointer",
     "mangled_component_name":"_ZTv0_n24_N7android8hardware2tv3cec4V1_011BpHwHdmiCecD1Ev"
    },
    {
     "kind":"deleting_dtor_pointer",
     "mangled_component_name":"_ZTv0_n24_N7android8hardware2tv3cec4V1_011BpHwHdmiCecD0Ev"
    },
    {
     "mangled_component_name":"_ZTv0_n32_N7android8hardware11BpHwRefBase10onFirstRefEv"
    },
    {
     "mangled_component_name":"_ZTv0_n40_N7android8hardware11BpHwRefBase15onLastStrongRefEPKv"
    },
    {
     "mangled_component_name":"_ZTv0_n48_N7android8hardware11BpHwRefBase20onIncStrongAttemptedEjPKv"
    },
    {
     "mangled_component_name":"_ZN7android7RefBase13onLastWeakRefEPKv"
    }
   ],
   "unique_id":"_ZTSN7android8hardware2tv3cec4V1_011BpHwHdmiCecE"
  },
  {
   "vtable_components":[
    {
     "kind":"vbase_offset",
     "component_value":120
    },
    {
     "kind":"offset_to_top"
    },
    {
     "kind":"rtti",
     "mangled_component_name":"_ZTIN7android8hardware2tv3cec4V1_09BsHdmiCecE"
    },
    {
     "mangled_component_name":"_ZNK7android8hardware2tv3cec4V1_08IHdmiCec8isRemoteEv"
    },
    {
     "mangled_component_name":"_ZN7android8hardware2tv3cec4V1_09BsHdmiCec14interfaceChainENSt3__18functionIFvRKNS0_8hidl_vecINS0_11hidl_stringEEEEEE"
    },
    {
     "mangled_component_name":"_ZN7android8hardware2tv3cec4V1_09BsHdmiCec5debugERKNS0_11hidl_handleERKNS0_8hidl_vecINS0_11hidl_stringEEE"
    },
    {
     "mangled_component_name":"_ZN7android8hardware2tv3cec4V1_09BsHdmiCec19interfaceDescriptorENSt3__18functionIFvRKNS0_11hidl_stringEEEE"
    },
    {
     "mangled_component_name":"_ZN7android8hardware2tv3cec4V1_09BsHdmiCec12getHashChainENSt3__18functionIFvRKNS0_8hidl_vecINS0_10hidl_arrayIhLm32EJEEEEEEEE"
    },
    {
     "mangled_component_name":"_ZN7android8hardware2tv3cec4V1_09BsHdmiCec21setHALInstrumentationEv"
    },
    {
     "mangled_component_name":"_ZN7android8hardware2tv3cec4V1_09BsHdmiCec11linkToDeathERKNS_2spINS0_20hidl_death_recipientEEEm"
    },
    {
     "mangled_component_name":"_ZN7android8hardware2tv3cec4V1_09BsHdmiCec4pingEv"
    },
    {
     "mangled_component_name":"_ZN7android8hardware2tv3cec4V1_09BsHdmiCec12getDebugInfoENSt3__18functionIFvRKNS_4hidl4base4V1_09DebugInfoEEEE"
    },
    {
     "mangled_component_name":"_ZN7android8hardware2tv3cec4V1_09BsHdmiCec21notifySyspropsChangedEv"
    },
    {
     "mangled_component_name":"_ZN7android8hardware2tv3cec4V1_09BsHdmiCec13unlinkToDeathERKNS_2spINS0_20hidl_death_recipientEEE"
    },
    {
     "kind":"complete_dtor_pointer",
     "mangled_component_name":"_ZN7android8hardware2tv3cec4V1_09BsHdmiCecD1Ev"
    },
    {
     "kind":"deleting_dtor_pointer",
     "mangled_component_name":"_ZN7android8hardware2tv3cec4V1_09BsHdmiCecD0Ev"
    },
    {
     "mangled_component_name":"_ZN7android8hardware2tv3cec4V1_09BsHdmiCec17addLogicalAddressENS3_17CecLogicalAddressE"
    },
    {
     "mangled_component_name":"_ZN7android8hardware2tv3cec4V1_09BsHdmiCec19clearLogicalAddressEv"
    },
    {
     "mangled_component_name":"_ZN7android8hardware2tv3cec4V1_09BsHdmiCec18getPhysicalAddressENSt3__18functionIFvNS3_6ResultEtEEE"
    },
    {
     "mangled_component_name":"_ZN7android8hardware2tv3cec4V1_09BsHdmiCec11sendMessageERKNS3_10CecMessageE"
    },
    {
     "mangled_component_name":"_ZN7android8hardware2tv3cec4V1_09BsHdmiCec11setCallbackERKNS_2spINS3_16IHdmiCecCallbackEEE"
    },
    {
     "mangled_component_name":"_ZN7android8hardware2tv3cec4V1_09BsHdmiCec13getCecVersionEv"
    },
    {
     "mangled_component_name":"_ZN7android8hardware2tv3cec4V1_09BsHdmiCec11getVendorIdEv"
    },
    {
     "mangled_component_name":"_ZN7android8hardware2tv3cec4V1_09BsHdmiCec11getPortInfoENSt3__18functionIFvRKNS0_8hidl_vecINS3_12HdmiPortInfoEEEEEE"
    },
    {
     "mangled_component_name":"_ZN7android8hardware2tv3cec4V1_09BsHdmiCec9setOptionENS3_9OptionKeyEb"
    },
    {
     "mangled_component_name":"_ZN7android8hardware2tv3cec4V1_09BsHdmiCec11setLanguageERKNS0_11hidl_stringE"
    },
    {
     "mangled_component_name":"_ZN7android8hardware2tv3cec4V1_09BsHdmiCec24enableAudioReturnChannelEib"
    },
    {
     "mangled_component_name":"_ZN7android8hardware2tv3cec4V1_09BsHdmiCec11isConnectedEi"
    },
    {
     "kind":"offset_to_top",
     "component_value":-8
    },
    {
     "kind":"rtti",
     "mangled_component_name":"_ZTIN7android8hardware2tv3cec4V1_09BsHdmiCecE"
    },
    {
     "kind":"complete_dtor_pointer",
     "mangled_component_name":"_ZThn8_N7android8hardware2tv3cec4V1_09BsHdmiCecD1Ev"
    },
    {
     "kind":"deleting_dtor_pointer",
     "mangled_component_name":"_ZThn8_N7android8hardware2tv3cec4V1_09BsHdmiCecD0Ev"
    },
    {
     "kind":"vcall_offset"
    },
    {
     "kind":"vcall_offset"
    },
    {
     "kind":"vcall_offset"
    },
    {
     "kind":"vcall_offset"
    },
    {
     "kind":"vcall_offset",
     "component_value":-120
    },
    {
     "kind":"offset_to_top",
     "component_value":-120
    },
    {
     "kind":"rtti",
     "mangled_component_name":"_ZTIN7android8hardware2tv3cec4V1_09BsHdmiCecE"
    },
    {
     "kind":"complete_dtor_pointer",
     "mangled_component_name":"_ZTv0_n24_N7android8hardware2tv3cec4V1_09BsHdmiCecD1Ev"
    },
    {
     "kind":"deleting_dtor_pointer",
     "mangled_component_name":"_ZTv0_n24_N7android8hardware2tv3cec4V1_09BsHdmiCecD0Ev"
    },
    {
     "mangled_component_name":"_ZN7android7RefBase10onFirstRefEv"
    },
    {
     "mangled_component_name":"_ZN7android7RefBase15onLastStrongRefEPKv"
    },
    {
     "mangled_component_name":"_ZN7android7RefBase20onIncStrongAttemptedEjPKv"
    },
    {
     "mangled_component_name":"_ZN7android7RefBase13onLastWeakRefEPKv"
    }
   ],
   "unique_id":"_ZTSN7android8hardware2tv3cec4V1_09BsHdmiCecE"
  },
  {
   "vtable_components":[
    {
     "kind":"vbase_offset",
     "component_value":120
    },
    {
     "kind":"offset_to_top"
    },
    {
     "kind":"rtti",
     "mangled_component_name":"_ZTIN7android8hardware2tv3cec4V1_017BsHdmiCecCallbackE"
    },
    {
     "mangled_component_name":"_ZNK7android8hardware2tv3cec4V1_016IHdmiCecCallback8isRemoteEv"
    },
    {
     "mangled_component_name":"_ZN7android8hardware2tv3cec4V1_017BsHdmiCecCallback14interfaceChainENSt3__18functionIFvRKNS0_8hidl_vecINS0_11hidl_stringEEEEEE"
    },
    {
     "mangled_component_name":"_ZN7android8hardware2tv3cec4V1_017BsHdmiCecCallback5debugERKNS0_11hidl_handleERKNS0_8hidl_vecINS0_11hidl_stringEEE"
    },
    {
     "mangled_component_name":"_ZN7android8hardware2tv3cec4V1_017BsHdmiCecCallback19interfaceDescriptorENSt3__18functionIFvRKNS0_11hidl_stringEEEE"
    },
    {
     "mangled_component_name":"_ZN7android8hardware2tv3cec4V1_017BsHdmiCecCallback12getHashChainENSt3__18functionIFvRKNS0_8hidl_vecINS0_10hidl_arrayIhLm32EJEEEEEEEE"
    },
    {
     "mangled_component_name":"_ZN7android8hardware2tv3cec4V1_017BsHdmiCecCallback21setHALInstrumentationEv"
    },
    {
     "mangled_component_name":"_ZN7android8hardware2tv3cec4V1_017BsHdmiCecCallback11linkToDeathERKNS_2spINS0_20hidl_death_recipientEEEm"
    },
    {
     "mangled_component_name":"_ZN7android8hardware2tv3cec4V1_017BsHdmiCecCallback4pingEv"
    },
    {
     "mangled_component_name":"_ZN7android8hardware2tv3cec4V1_017BsHdmiCecCallback12getDebugInfoENSt3__18functionIFvRKNS_4hidl4base4V1_09DebugInfoEEEE"
    },
    {
     "mangled_component_name":"_ZN7android8hardware2tv3cec4V1_017BsHdmiCecCallback21notifySyspropsChangedEv"
    },
    {
     "mangled_component_name":"_ZN7android8hardware2tv3cec4V1_017BsHdmiCecCallback13unlinkToDeathERKNS_2spINS0_20hidl_death_recipientEEE"
    },
    {
     "kind":"complete_dtor_pointer",
     "mangled_component_name":"_ZN7android8hardware2tv3cec4V1_017BsHdmiCecCallbackD1Ev"
    },
    {
     "kind":"deleting_dtor_pointer",
     "mangled_component_name":"_ZN7android8hardware2tv3cec4V1_017BsHdmiCecCallbackD0Ev"
    },
    {
     "mangled_component_name":"_ZN7android8hardware2tv3cec4V1_017BsHdmiCecCallback12onCecMessageERKNS3_10CecMessageE"
    },
    {
     "mangled_component_name":"_ZN7android8hardware2tv3cec4V1_017BsHdmiCecCallback14onHotplugEventERKNS3_12HotplugEventE"
    },
    {
     "kind":"offset_to_top",
     "component_value":-8
    },
    {
     "kind":"rtti",
     "mangled_component_name":"_ZTIN7android8hardware2tv3cec4V1_017BsHdmiCecCallbackE"
    },
    {
     "kind":"complete_dtor_pointer",
     "mangled_component_name":"_ZThn8_N7android8hardware2tv3cec4V1_017BsHdmiCecCallbackD1Ev"
    },
    {
     "kind":"deleting_dtor_pointer",
     "mangled_component_name":"_ZThn8_N7android8hardware2tv3cec4V1_017BsHdmiCecCallbackD0Ev"
    },
    {
     "kind":"vcall_offset"
    },
    {
     "kind":"vcall_offset"
    },
    {
     "kind":"vcall_offset"
    },
    {
     "kind":"vcall_offset"
    },
    {
     "kind":"vcall_offset",
     "component_value":-120
    },
    {
     "kind":"offset_to_top",
     "component_value":-120
    },
    {
     "kind":"rtti",
     "mangled_component_name":"_ZTIN7android8hardware2tv3cec4V1_017BsHdmiCecCallbackE"
    },
    {
     "kind":"complete_dtor_pointer",
     "mangled_component_name":"_ZTv0_n24_N7android8hardware2tv3cec4V1_017BsHdmiCecCallbackD1Ev"
    },
    {
     "kind":"deleting_dtor_pointer",
     "mangled_component_name":"_ZTv0_n24_N7android8hardware2tv3cec4V1_017BsHdmiCecCallbackD0Ev"
    },
    {
     "mangled_component_name":"_ZN7android7RefBase10onFirstRefEv"
    },
    {
     "mangled_component_name":"_ZN7android7RefBase15onLastStrongRefEPKv"
    },
    {
     "mangled_component_name":"_ZN7android7RefBase20onIncStrongAttemptedEjPKv"
    },
    {
     "mangled_component_name":"_ZN7android7RefBase13onLastWeakRefEPKv"
    }
   ],
   "unique_id":"_ZTSN7android8hardware2tv3cec4V1_017BsHdmiCecCallbackE"
  }
 ],
 "elf_functions":[
  {
   "binding":"weak",
   "name":"_ZN7android8hardware10fromBinderINS0_2tv3cec4V1_016IHdmiCecCallbackENS4_19BpHwHdmiCecCallbackENS4_19BnHwHdmiCecCallbackEEENS_2spIT_EERKNS8_INS0_7IBinderEEE"
  },
  {
   "name":"_ZN7android8hardware2tv3cec4V1_011BnHwHdmiCec10onTransactEjRKNS0_6ParcelEPS5_jNSt3__18functionIFvRS5_EEE"
  },
  {
   "name":"_ZN7android8hardware2tv3cec4V1_011BnHwHdmiCec12getDebugInfoENSt3__18functionIFvRKNS_4hidl4base4V1_09DebugInfoEEEE"
  },
  {
   "name":"_ZN7android8hardware2tv3cec4V1_011BnHwHdmiCec15_hidl_setOptionEPNS_4hidl4base4V1_08BnHwBaseERKNS0_6ParcelEPSA_NSt3__18functionIFvRSA_EEE"
  },
  {
   "name":"_ZN7android8hardware2tv3cec4V1_011BnHwHdmiCec17_hidl_getPortInfoEPNS_4hidl4base4V1_08BnHwBaseERKNS0_6ParcelEPSA_NSt3__18functionIFvRSA_EEE"
  },
  {
   "name":"_ZN7android8hardware2tv3cec4V1_011BnHwHdmiCec17_hidl_getVendorIdEPNS_4hidl4base4V1_08BnHwBaseERKNS0_6ParcelEPSA_NSt3__18functionIFvRSA_EEE"
  },
  {
   "name":"_ZN7android8hardware2tv3cec4V1_011BnHwHdmiCec17_hidl_isConnectedEPNS_4hidl4base4V1_08BnHwBaseERKNS0_6ParcelEPSA_NSt3__18functionIFvRSA_EEE"
  },
  {
   "name":"_ZN7android8hardware2tv3cec4V1_011BnHwHdmiCec17_hidl_sendMessageEPNS_4hidl4base4V1_08BnHwBaseERKNS0_6ParcelEPSA_NSt3__18functionIFvRSA_EEE"
  },
  {
   "name":"_ZN7android8hardware2tv3cec4V1_011BnHwHdmiCec17_hidl_setCallbackEPNS_4hidl4base4V1_08BnHwBaseERKNS0_6ParcelEPSA_NSt3__18functionIFvRSA_EEE"
  },
  {
   "name":"_ZN7android8hardware2tv3cec4V1_011BnHwHdmiCec17_hidl_setLanguageEPNS_4hidl4base4V1_08BnHwBaseERKNS0_6ParcelEPSA_NSt3__18functionIFvRSA_EEE"
  },
  {
   "name":"_ZN7android8hardware2tv3cec4V1_011BnHwHdmiCec19_hidl_getCecVersionEPNS_4hidl4base4V1_08BnHwBaseERKNS0_6ParcelEPSA_NSt3__18functionIFvRSA_EEE"
  },
  {
   "name":"_ZN7android8hardware2tv3cec4V1_011BnHwHdmiCec23_hidl_addLogicalAddressEPNS_4hidl4base4V1_08BnHwBaseERKNS0_6ParcelEPSA_NSt3__18functionIFvRSA_EEE"
  },
  {
   "name":"_ZN7android8hardware2tv3cec4V1_011BnHwHdmiCec24_hidl_getPhysicalAddressEPNS_4hidl4base4V1_08BnHwBaseERKNS0_6ParcelEPSA_NSt3__18functionIFvRSA_EEE"
  },
  {
   "name":"_ZN7android8hardware2tv3cec4V1_011BnHwHdmiCec25_hidl_clearLogicalAddressEPNS_4hidl4base4V1_08BnHwBaseERKNS0_6ParcelEPSA_NSt3__18functionIFvRSA_EEE"
  },
  {
   "name":"_ZN7android8hardware2tv3cec4V1_011BnHwHdmiCec30_hidl_enableAudioReturnChannelEPNS_4hidl4base4V1_08BnHwBaseERKNS0_6ParcelEPSA_NSt3__18functionIFvRSA_EEE"
  },
  {
   "name":"_ZN7android8hardware2tv3cec4V1_011BnHwHdmiCec4pingEv"
  },
  {
   "name":"_ZN7android8hardware2tv3cec4V1_011BnHwHdmiCecC1ERKNS_2spINS3_8IHdmiCecEEE"
  },
  {
   "name":"_ZN7android8hardware2tv3cec4V1_011BnHwHdmiCecC2ERKNS_2spINS3_8IHdmiCecEEE"
  },
  {
   "name":"_ZN7android8hardware2tv3cec4V1_011BnHwHdmiCecD0Ev"
  },
  {
   "name":"_ZN7android8hardware2tv3cec4V1_011BnHwHdmiCecD1Ev"
  },
  {
   "name":"_ZN7android8hardware2tv3cec4V1_011BnHwHdmiCecD2Ev"
  },
  {
   "name":"_ZN7android8hardware2tv3cec4V1_011BpHwHdmiCec11getPortInfoENSt3__18functionIFvRKNS0_8hidl_vecINS3_12HdmiPortInfoEEEEEE"
  },
  {
   "name":"_ZN7android8hardware2tv3cec4V1_011BpHwHdmiCec11getVendorIdEv"
  },
  {
   "name":"_ZN7android8hardware2tv3cec4V1_011BpHwHdmiCec11isConnectedEi"
  },
  {
   "name":"_ZN7android8hardware2tv3cec4V1_011BpHwHdmiCec11linkToDeathERKNS_2spINS0_20hidl_death_recipientEEEm"
  },
  {
   "name":"_ZN7android8hardware2tv3cec4V1_011BpHwHdmiCec11sendMessageERKNS3_10CecMessageE"
  },
  {
   "name":"_ZN7android8hardware2tv3cec4V1_011BpHwHdmiCec11setCallbackERKNS_2spINS3_16IHdmiCecCallbackEEE"
  },
  {
   "name":"_ZN7android8hardware2tv3cec4V1_011BpHwHdmiCec11setLanguageERKNS0_11hidl_stringE"
  },
  {
   "name":"_ZN7android8hardware2tv3cec4V1_011BpHwHdmiCec12getDebugInfoENSt3__18functionIFvRKNS_4hidl4base4V1_09DebugInfoEEEE"
  },
  {
   "name":"_ZN7android8hardware2tv3cec4V1_011BpHwHdmiCec12getHashChainENSt3__18functionIFvRKNS0_8hidl_vecINS0_10hidl_arrayIhLm32EJEEEEEEEE"
  },
  {
   "name":"_ZN7android8hardware2tv3cec4V1_011BpHwHdmiCec13getCecVersionEv"
  },
  {
   "name":"_ZN7android8hardware2tv3cec4V1_011BpHwHdmiCec13unlinkToDeathERKNS_2spINS0_20hidl_death_recipientEEE"
  },
  {
   "name":"_ZN7android8hardware2tv3cec4V1_011BpHwHdmiCec14interfaceChainENSt3__18functionIFvRKNS0_8hidl_vecINS0_11hidl_stringEEEEEE"
  },
  {
   "name":"_ZN7android8hardware2tv3cec4V1_011BpHwHdmiCec15_hidl_setOptionEPNS0_10IInterfaceEPNS0_7details16HidlInstrumentorENS3_9OptionKeyEb"
  },
  {
   "name":"_ZN7android8hardware2tv3cec4V1_011BpHwHdmiCec17_hidl_getPortInfoEPNS0_10IInterfaceEPNS0_7details16HidlInstrumentorENSt3__18functionIFvRKNS0_8hidl_vecINS3_12HdmiPortInfoEEEEEE"
  },
  {
   "name":"_ZN7android8hardware2tv3cec4V1_011BpHwHdmiCec17_hidl_getVendorIdEPNS0_10IInterfaceEPNS0_7details16HidlInstrumentorE"
  },
  {
   "name":"_ZN7android8hardware2tv3cec4V1_011BpHwHdmiCec17_hidl_isConnectedEPNS0_10IInterfaceEPNS0_7details16HidlInstrumentorEi"
  },
  {
   "name":"_ZN7android8hardware2tv3cec4V1_011BpHwHdmiCec17_hidl_sendMessageEPNS0_10IInterfaceEPNS0_7details16HidlInstrumentorERKNS3_10CecMessageE"
  },
  {
   "name":"_ZN7android8hardware2tv3cec4V1_011BpHwHdmiCec17_hidl_setCallbackEPNS0_10IInterfaceEPNS0_7details16HidlInstrumentorERKNS_2spINS3_16IHdmiCecCallbackEEE"
  },
  {
   "name":"_ZN7android8hardware2tv3cec4V1_011BpHwHdmiCec17_hidl_setLanguageEPNS0_10IInterfaceEPNS0_7details16HidlInstrumentorERKNS0_11hidl_stringE"
  },
  {
   "name":"_ZN7android8hardware2tv3cec4V1_011BpHwHdmiCec17addLogicalAddressENS3_17CecLogicalAddressE"
  },
  {
   "name":"_ZN7android8hardware2tv3cec4V1_011BpHwHdmiCec18getPhysicalAddressENSt3__18functionIFvNS3_6ResultEtEEE"
  },
  {
   "name":"_ZN7android8hardware2tv3cec4V1_011BpHwHdmiCec19_hidl_getCecVersionEPNS0_10IInterfaceEPNS0_7details16HidlInstrumentorE"
  },
  {
   "name":"_ZN7android8hardware2tv3cec4V1_011BpHwHdmiCec19clearLogicalAddressEv"
  },
  {
   "name":"_ZN7android8hardware2tv3cec4V1_011BpHwHdmiCec19interfaceDescriptorENSt3__18functionIFvRKNS0_11hidl_stringEEEE"
  },
  {
   "name":"_ZN7android8hardware2tv3cec4V1_011BpHwHdmiCec21notifySyspropsChangedEv"
  },
  {
   "name":"_ZN7android8hardware2tv3cec4V1_011BpHwHdmiCec21setHALInstrumentationEv"
  },
  {
   "name":"_ZN7android8hardware2tv3cec4V1_011BpHwHdmiCec23_hidl_addLogicalAddressEPNS0_10IInterfaceEPNS0_7details16HidlInstrumentorENS3_17CecLogicalAddressE"
  },
  {
   "name":"_ZN7android8hardware2tv3cec4V1_011BpHwHdmiCec24_hidl_getPhysicalAddressEPNS0_10IInterfaceEPNS0_7details16HidlInstrumentorENSt3__18functionIFvNS3_6ResultEtEEE"
  },
  {
   "name":"_ZN7android8hardware2tv3cec4V1_011BpHwHdmiCec24enableAudioReturnChannelEib"
  },
  {
   "name":"_ZN7android8hardware2tv3cec4V1_011BpHwHdmiCec25_hidl_clearLogicalAddressEPNS0_10IInterfaceEPNS0_7details16HidlInstrumentorE"
  },
  {
   "name":"_ZN7android8hardware2tv3cec4V1_011BpHwHdmiCec30_hidl_enableAudioReturnChannelEPNS0_10IInterfaceEPNS0_7details16HidlInstrumentorEib"
  },
  {
   "name":"_ZN7android8hardware2tv3cec4V1_011BpHwHdmiCec4pingEv"
  },
  {
   "name":"_ZN7android8hardware2tv3cec4V1_011BpHwHdmiCec5debugERKNS0_11hidl_handleERKNS0_8hidl_vecINS0_11hidl_stringEEE"
  },
  {
   "name":"_ZN7android8hardware2tv3cec4V1_011BpHwHdmiCec9setOptionENS3_9OptionKeyEb"
  },
  {
   "name":"_ZN7android8hardware2tv3cec4V1_011BpHwHdmiCecC1ERKNS_2spINS0_7IBinderEEE"
  },
  {
   "name":"_ZN7android8hardware2tv3cec4V1_011BpHwHdmiCecC2ERKNS_2spINS0_7IBinderEEE"
  },
  {
   "name":"_ZN7android8hardware2tv3cec4V1_016IHdmiCecCallback10getServiceERKNSt3__112basic_stringIcNS5_11char_traitsIcEENS5_9allocatorIcEEEEb"
  },
  {
   "name":"_ZN7android8hardware2tv3cec4V1_016IHdmiCecCallback11linkToDeathERKNS_2spINS0_20hidl_death_recipientEEEm"
  },
  {
   "name":"_ZN7android8hardware2tv3cec4V1_016IHdmiCecCallback12getDebugInfoENSt3__18functionIFvRKNS_4hidl4base4V1_09DebugInfoEEEE"
  },
  {
   "name":"_ZN7android8hardware2tv3cec4V1_016IHdmiCecCallback12getHashChainENSt3__18functionIFvRKNS0_8hidl_vecINS0_10hidl_arrayIhLm32EJEEEEEEEE"
  },
  {
   "name":"_ZN7android8hardware2tv3cec4V1_016IHdmiCecCallback13tryGetServiceERKNSt3__112basic_stringIcNS5_11char_traitsIcEENS5_9allocatorIcEEEEb"
  },
  {
   "name":"_ZN7android8hardware2tv3cec4V1_016IHdmiCecCallback13unlinkToDeathERKNS_2spINS0_20hidl_death_recipientEEE"
  },
  {
   "name":"_ZN7android8hardware2tv3cec4V1_016IHdmiCecCallback14interfaceChainENSt3__18functionIFvRKNS0_8hidl_vecINS0_11hidl_stringEEEEEE"
  },
  {
   "name":"_ZN7android8hardware2tv3cec4V1_016IHdmiCecCallback17registerAsServiceERKNSt3__112basic_stringIcNS5_11char_traitsIcEENS5_9allocatorIcEEEE"
  },
  {
   "name":"_ZN7android8hardware2tv3cec4V1_016IHdmiCecCallback19interfaceDescriptorENSt3__18functionIFvRKNS0_11hidl_stringEEEE"
  },
  {
   "name":"_ZN7android8hardware2tv3cec4V1_016IHdmiCecCallback21notifySyspropsChangedEv"
  },
  {
   "name":"_ZN7android8hardware2tv3cec4V1_016IHdmiCecCallback21setHALInstrumentationEv"
  },
  {
   "name":"_ZN7android8hardware2tv3cec4V1_016IHdmiCecCallback24registerForNotificationsERKNSt3__112basic_stringIcNS5_11char_traitsIcEENS5_9allocatorIcEEEERKNS_2spINS_4hidl7manager4V1_020IServiceNotificationEEE"
  },
  {
   "name":"_ZN7android8hardware2tv3cec4V1_016IHdmiCecCallback4pingEv"
  },
  {
   "name":"_ZN7android8hardware2tv3cec4V1_016IHdmiCecCallback5debugERKNS0_11hidl_handleERKNS0_8hidl_vecINS0_11hidl_stringEEE"
  },
  {
   "name":"_ZN7android8hardware2tv3cec4V1_016IHdmiCecCallback8castFromERKNS_2spINS_4hidl4base4V1_05IBaseEEEb"
  },
  {
   "name":"_ZN7android8hardware2tv3cec4V1_016IHdmiCecCallback8castFromERKNS_2spIS4_EEb"
  },
  {
   "name":"_ZN7android8hardware2tv3cec4V1_017BsHdmiCecCallback13addOnewayTaskENSt3__18functionIFvvEEE"
  },
  {
   "name":"_ZN7android8hardware2tv3cec4V1_017BsHdmiCecCallbackC1ENS_2spINS3_16IHdmiCecCallbackEEE"
  },
  {
   "name":"_ZN7android8hardware2tv3cec4V1_017BsHdmiCecCallbackC2ENS_2spINS3_16IHdmiCecCallbackEEE"
  },
  {
   "name":"_ZN7android8hardware2tv3cec4V1_019BnHwHdmiCecCallback10onTransactEjRKNS0_6ParcelEPS5_jNSt3__18functionIFvRS5_EEE"
  },
  {
   "name":"_ZN7android8hardware2tv3cec4V1_019BnHwHdmiCecCallback12getDebugInfoENSt3__18functionIFvRKNS_4hidl4base4V1_09DebugInfoEEEE"
  },
  {
   "name":"_ZN7android8hardware2tv3cec4V1_019BnHwHdmiCecCallback18_hidl_onCecMessageEPNS_4hidl4base4V1_08BnHwBaseERKNS0_6ParcelEPSA_NSt3__18functionIFvRSA_EEE"
  },
  {
   "name":"_ZN7android8hardware2tv3cec4V1_019BnHwHdmiCecCallback20_hidl_onHotplugEventEPNS_4hidl4base4V1_08BnHwBaseERKNS0_6ParcelEPSA_NSt3__18functionIFvRSA_EEE"
  },
  {
   "name":"_ZN7android8hardware2tv3cec4V1_019BnHwHdmiCecCallback4pingEv"
  },
  {
   "name":"_ZN7android8hardware2tv3cec4V1_019BnHwHdmiCecCallbackC1ERKNS_2spINS3_16IHdmiCecCallbackEEE"
  },
  {
   "name":"_ZN7android8hardware2tv3cec4V1_019BnHwHdmiCecCallbackC2ERKNS_2spINS3_16IHdmiCecCallbackEEE"
  },
  {
   "name":"_ZN7android8hardware2tv3cec4V1_019BnHwHdmiCecCallbackD0Ev"
  },
  {
   "name":"_ZN7android8hardware2tv3cec4V1_019BnHwHdmiCecCallbackD1Ev"
  },
  {
   "name":"_ZN7android8hardware2tv3cec4V1_019BnHwHdmiCecCallbackD2Ev"
  },
  {
   "name":"_ZN7android8hardware2tv3cec4V1_019BpHwHdmiCecCallback11linkToDeathERKNS_2spINS0_20hidl_death_recipientEEEm"
  },
  {
   "name":"_ZN7android8hardware2tv3cec4V1_019BpHwHdmiCecCallback12getDebugInfoENSt3__18functionIFvRKNS_4hidl4base4V1_09DebugInfoEEEE"
  },
  {
   "name":"_ZN7android8hardware2tv3cec4V1_019BpHwHdmiCecCallback12getHashChainENSt3__18functionIFvRKNS0_8hidl_vecINS0_10hidl_arrayIhLm32EJEEEEEEEE"
  },
  {
   "name":"_ZN7android8hardware2tv3cec4V1_019BpHwHdmiCecCallback12onCecMessageERKNS3_10CecMessageE"
  },
  {
   "name":"_ZN7android8hardware2tv3cec4V1_019BpHwHdmiCecCallback13unlinkToDeathERKNS_2spINS0_20hidl_death_recipientEEE"
  },
  {
   "name":"_ZN7android8hardware2tv3cec4V1_019BpHwHdmiCecCallback14interfaceChainENSt3__18functionIFvRKNS0_8hidl_vecINS0_11hidl_stringEEEEEE"
  },
  {
   "name":"_ZN7android8hardware2tv3cec4V1_019BpHwHdmiCecCallback14onHotplugEventERKNS3_12HotplugEventE"
  },
  {
   "name":"_ZN7android8hardware2tv3cec4V1_019BpHwHdmiCecCallback18_hidl_onCecMessageEPNS0_10IInterfaceEPNS0_7details16HidlInstrumentorERKNS3_10CecMessageE"
  },
  {
   "name":"_ZN7android8hardware2tv3cec4V1_019BpHwHdmiCecCallback19interfaceDescriptorENSt3__18functionIFvRKNS0_11hidl_stringEEEE"
  },
  {
   "name":"_ZN7android8hardware2tv3cec4V1_019BpHwHdmiCecCallback20_hidl_onHotplugEventEPNS0_10IInterfaceEPNS0_7details16HidlInstrumentorERKNS3_12HotplugEventE"
  },
  {
   "name":"_ZN7android8hardware2tv3cec4V1_019BpHwHdmiCecCallback21notifySyspropsChangedEv"
  },
  {
   "name":"_ZN7android8hardware2tv3cec4V1_019BpHwHdmiCecCallback21setHALInstrumentationEv"
  },
  {
   "name":"_ZN7android8hardware2tv3cec4V1_019BpHwHdmiCecCallback4pingEv"
  },
  {
   "name":"_ZN7android8hardware2tv3cec4V1_019BpHwHdmiCecCallback5debugERKNS0_11hidl_handleERKNS0_8hidl_vecINS0_11hidl_stringEEE"
  },
  {
   "name":"_ZN7android8hardware2tv3cec4V1_019BpHwHdmiCecCallbackC1ERKNS_2spINS0_7IBinderEEE"
  },
  {
   "name":"_ZN7android8hardware2tv3cec4V1_019BpHwHdmiCecCallbackC2ERKNS_2spINS0_7IBinderEEE"
  },
  {
   "name":"_ZN7android8hardware2tv3cec4V1_021writeEmbeddedToParcelERKNS3_10CecMessageEPNS0_6ParcelEmm"
  },
  {
   "name":"_ZN7android8hardware2tv3cec4V1_022readEmbeddedFromParcelERKNS3_10CecMessageERKNS0_6ParcelEmm"
  },
  {
   "name":"_ZN7android8hardware2tv3cec4V1_08IHdmiCec10getServiceERKNSt3__112basic_stringIcNS5_11char_traitsIcEENS5_9allocatorIcEEEEb"
  },
  {
   "name":"_ZN7android8hardware2tv3cec4V1_08IHdmiCec11linkToDeathERKNS_2spINS0_20hidl_death_recipientEEEm"
  },
  {
   "name":"_ZN7android8hardware2tv3cec4V1_08IHdmiCec12getDebugInfoENSt3__18functionIFvRKNS_4hidl4base4V1_09DebugInfoEEEE"
  },
  {
   "name":"_ZN7android8hardware2tv3cec4V1_08IHdmiCec12getHashChainENSt3__18functionIFvRKNS0_8hidl_vecINS0_10hidl_arrayIhLm32EJEEEEEEEE"
  },
  {
   "name":"_ZN7android8hardware2tv3cec4V1_08IHdmiCec13tryGetServiceERKNSt3__112basic_stringIcNS5_11char_traitsIcEENS5_9allocatorIcEEEEb"
  },
  {
   "name":"_ZN7android8hardware2tv3cec4V1_08IHdmiCec13unlinkToDeathERKNS_2spINS0_20hidl_death_recipientEEE"
  },
  {
   "name":"_ZN7android8hardware2tv3cec4V1_08IHdmiCec14interfaceChainENSt3__18functionIFvRKNS0_8hidl_vecINS0_11hidl_stringEEEEEE"
  },
  {
   "name":"_ZN7android8hardware2tv3cec4V1_08IHdmiCec17registerAsServiceERKNSt3__112basic_stringIcNS5_11char_traitsIcEENS5_9allocatorIcEEEE"
  },
  {
   "name":"_ZN7android8hardware2tv3cec4V1_08IHdmiCec19interfaceDescriptorENSt3__18functionIFvRKNS0_11hidl_stringEEEE"
  },
  {
   "name":"_ZN7android8hardware2tv3cec4V1_08IHdmiCec21notifySyspropsChangedEv"
  },
  {
   "name":"_ZN7android8hardware2tv3cec4V1_08IHdmiCec21setHALInstrumentationEv"
  },
  {
   "name":"_ZN7android8hardware2tv3cec4V1_08IHdmiCec24registerForNotificationsERKNSt3__112basic_stringIcNS5_11char_traitsIcEENS5_9allocatorIcEEEERKNS_2spINS_4hidl7manager4V1_020IServiceNotificationEEE"
  },
  {
   "name":"_ZN7android8hardware2tv3cec4V1_08IHdmiCec4pingEv"
  },
  {
   "name":"_ZN7android8hardware2tv3cec4V1_08IHdmiCec5debugERKNS0_11hidl_handleERKNS0_8hidl_vecINS0_11hidl_stringEEE"
  },
  {
   "name":"_ZN7android8hardware2tv3cec4V1_08IHdmiCec8castFromERKNS_2spINS_4hidl4base4V1_05IBaseEEEb"
  },
  {
   "name":"_ZN7android8hardware2tv3cec4V1_08IHdmiCec8castFromERKNS_2spIS4_EEb"
  },
  {
   "name":"_ZN7android8hardware2tv3cec4V1_09BsHdmiCec13addOnewayTaskENSt3__18functionIFvvEEE"
  },
  {
   "name":"_ZN7android8hardware2tv3cec4V1_09BsHdmiCecC1ENS_2spINS3_8IHdmiCecEEE"
  },
  {
   "name":"_ZN7android8hardware2tv3cec4V1_09BsHdmiCecC2ENS_2spINS3_8IHdmiCecEEE"
  },
  {
   "binding":"weak",
   "name":"_ZN7android8hardware7details13castInterfaceINS0_2tv3cec4V1_016IHdmiCecCallbackENS_4hidl4base4V1_05IBaseENS5_19BpHwHdmiCecCallbackEEENS0_6ReturnINS_2spIT_EEEENSD_IT0_EEPKcb"
  },
  {
   "binding":"weak",
   "name":"_ZN7android8hardware7details13castInterfaceINS0_2tv3cec4V1_08IHdmiCecENS_4hidl4base4V1_05IBaseENS5_11BpHwHdmiCecEEENS0_6ReturnINS_2spIT_EEEENSD_IT0_EEPKcb"
  },
  {
   "binding":"weak",
   "name":"_ZN7android8hardware7details15wrapPassthroughINS0_2tv3cec4V1_016IHdmiCecCallbackEvEENS_2spIT_EES9_"
  },
  {
   "binding":"weak",
   "name":"_ZN7android8hardware7details18getServiceInternalINS0_2tv3cec4V1_011BpHwHdmiCecENS5_8IHdmiCecEvvEENS_2spIT0_EERKNSt3__112basic_stringIcNSB_11char_traitsIcEENSB_9allocatorIcEEEEbb"
  },
  {
   "binding":"weak",
   "name":"_ZN7android8hardware7details18getServiceInternalINS0_2tv3cec4V1_019BpHwHdmiCecCallbackENS5_16IHdmiCecCallbackEvvEENS_2spIT0_EERKNSt3__112basic_stringIcNSB_11char_traitsIcEENSB_9allocatorIcEEEEbb"
  },
  {
   "binding":"weak",
   "name":"_ZN7android8hardware8toBinderINS0_2tv3cec4V1_016IHdmiCecCallbackEvEENS_2spINS0_7IBinderEEENS6_IT_EE"
  },
  {
   "binding":"weak",
   "name":"_ZN7android8hardware8toBinderINS_4hidl4base4V1_05IBaseEvEENS_2spINS0_7IBinderEEENS6_IT_EE"
  },
  {
   "name":"_ZThn32_N7android8hardware2tv3cec4V1_011BnHwHdmiCecD0Ev"
  },
  {
   "name":"_ZThn32_N7android8hardware2tv3cec4V1_011BnHwHdmiCecD1Ev"
  },
  {
   "name":"_ZThn32_N7android8hardware2tv3cec4V1_019BnHwHdmiCecCallbackD0Ev"
  },
  {
   "name":"_ZThn32_N7android8hardware2tv3cec4V1_019BnHwHdmiCecCallbackD1Ev"
  },
  {
   "name":"_ZTv0_n24_N7android8hardware2tv3cec4V1_011BnHwHdmiCecD0Ev"
  },
  {
   "name":"_ZTv0_n24_N7android8hardware2tv3cec4V1_011BnHwHdmiCecD1Ev"
  },
  {
   "name":"_ZTv0_n24_N7android8hardware2tv3cec4V1_019BnHwHdmiCecCallbackD0Ev"
  },
  {
   "name":"_ZTv0_n24_N7android8hardware2tv3cec4V1_019BnHwHdmiCecCallbackD1Ev"
  }
 ],
 "elf_objects":[
  {
   "name":"_ZN7android8hardware2tv3cec4V1_016IHdmiCecCallback10descriptorE"
  },
  {
   "name":"_ZN7android8hardware2tv3cec4V1_08IHdmiCec10descriptorE"
  },
  {
   "name":"_ZTTN7android8hardware2tv3cec4V1_011BnHwHdmiCecE"
  },
  {
   "name":"_ZTTN7android8hardware2tv3cec4V1_011BpHwHdmiCecE"
  },
  {
   "name":"_ZTTN7android8hardware2tv3cec4V1_016IHdmiCecCallbackE"
  },
  {
   "name":"_ZTTN7android8hardware2tv3cec4V1_019BnHwHdmiCecCallbackE"
  },
  {
   "name":"_ZTTN7android8hardware2tv3cec4V1_019BpHwHdmiCecCallbackE"
  },
  {
   "name":"_ZTTN7android8hardware2tv3cec4V1_08IHdmiCecE"
  },
  {
   "name":"_ZTVN7android8hardware2tv3cec4V1_011BnHwHdmiCecE"
  },
  {
   "name":"_ZTVN7android8hardware2tv3cec4V1_011BpHwHdmiCecE"
  },
  {
   "name":"_ZTVN7android8hardware2tv3cec4V1_016IHdmiCecCallbackE"
  },
  {
   "binding":"weak",
   "name":"_ZTVN7android8hardware2tv3cec4V1_017BsHdmiCecCallbackE"
  },
  {
   "name":"_ZTVN7android8hardware2tv3cec4V1_019BnHwHdmiCecCallbackE"
  },
  {
   "name":"_ZTVN7android8hardware2tv3cec4V1_019BpHwHdmiCecCallbackE"
  },
  {
   "name":"_ZTVN7android8hardware2tv3cec4V1_08IHdmiCecE"
  },
  {
   "binding":"weak",
   "name":"_ZTVN7android8hardware2tv3cec4V1_09BsHdmiCecE"
  }
 ]
}