{
 "record_types":[
  {
   "vtable_components":[
    {
     "kind":"vbase_offset",
     "component_value":120
    },
    {
     "kind":"offset_to_top"
    },
    {
     "kind":"rtti",
     "mangled_component_name":"_ZTIN7android8hardware4gnss4V1_014BsGnssBatchingE"
    },
    {
     "mangled_component_name":"_ZNK7android8hardware4gnss4V1_013IGnssBatching8isRemoteEv"
    },
    {
     "mangled_component_name":"_ZN7android8hardware4gnss4V1_014BsGnssBatching14interfaceChainENSt3__18functionIFvRKNS0_8hidl_vecINS0_11hidl_stringEEEEEE"
    },
    {
     "mangled_component_name":"_ZN7android8hardware4gnss4V1_014BsGnssBatching5debugERKNS0_11hidl_handleERKNS0_8hidl_vecINS0_11hidl_stringEEE"
    },
    {
     "mangled_component_name":"_ZN7android8hardware4gnss4V1_014BsGnssBatching19interfaceDescriptorENSt3__18functionIFvRKNS0_11hidl_stringEEEE"
    },
    {
     "mangled_component_name":"_ZN7android8hardware4gnss4V1_014BsGnssBatching12getHashChainENSt3__18functionIFvRKNS0_8hidl_vecINS0_10hidl_arrayIhLm32EJEEEEEEEE"
    },
    {
     "mangled_component_name":"_ZN7android8hardware4gnss4V1_014BsGnssBatching21setHALInstrumentationEv"
    },
    {
     "mangled_component_name":"_ZN7android8hardware4gnss4V1_014BsGnssBatching11linkToDeathERKNS_2spINS0_20hidl_death_recipientEEEm"
    },
    {
     "mangled_component_name":"_ZN7android8hardware4gnss4V1_014BsGnssBatching4pingEv"
    },
    {
     "mangled_component_name":"_ZN7android8hardware4gnss4V1_014BsGnssBatching12getDebugInfoENSt3__18functionIFvRKNS_4hidl4base4V1_09DebugInfoEEEE"
    },
    {
     "mangled_component_name":"_ZN7android8hardware4gnss4V1_014BsGnssBatching21notifySyspropsChangedEv"
    },
    {
     "mangled_component_name":"_ZN7android8hardware4gnss4V1_014BsGnssBatching13unlinkToDeathERKNS_2spINS0_20hidl_death_recipientEEE"
    },
    {
     "kind":"complete_dtor_pointer",
     "mangled_component_name":"_ZN7android8hardware4gnss4V1_014BsGnssBatchingD1Ev"
    },
    {
     "kind":"deleting_dtor_pointer",
     "mangled_component_name":"_ZN7android8hardware4gnss4V1_014BsGnssBatchingD0Ev"
    },
    {
     "mangled_component_name":"_ZN7android8hardware4gnss4V1_014BsGnssBatching4initERKNS_2spINS2_21IGnssBatchingCallbackEEE"
    },
    {
     "mangled_component_name":"_ZN7android8hardware4gnss4V1_014BsGnssBatching12getBatchSizeEv"
    },
    {
     "mangled_component_name":"_ZN7android8hardware4gnss4V1_014BsGnssBatching5startERKNS2_13IGnssBatching7OptionsE"
    },
    {
     "mangled_component_name":"_ZN7android8hardware4gnss4V1_014BsGnssBatching5flushEv"
    },
    {
     "mangled_component_name":"_ZN7android8hardware4gnss4V1_014BsGnssBatching4stopEv"
    },
    {
     "mangled_component_name":"_ZN7android8hardware4gnss4V1_014BsGnssBatching7cleanupEv"
    },
    {
     "kind":"offset_to_top",
     "component_value":-8
    },
    {
     "kind":"rtti",
     "mangled_component_name":"_ZTIN7android8hardware4gnss4V1_014BsGnssBatchingE"
    },
    {
     "kind":"complete_dtor_pointer",
     "mangled_component_name":"_ZThn8_N7android8hardware4gnss4V1_014BsGnssBatchingD1Ev"
    },
    {
     "kind":"deleting_dtor_pointer",
     "mangled_component_name":"_ZThn8_N7android8hardware4gnss4V1_014BsGnssBatchingD0Ev"
    },
    {
     "kind":"vcall_offset"
    },
    {
     "kind":"vcall_offset"
    },
    {
     "kind":"vcall_offset"
    },
    {
     "kind":"vcall_offset"
    },
    {
     "kind":"vcall_offset",
     "component_value":-120
    },
    {
     "kind":"offset_to_top",
     "component_value":-120
    },
    {
     "kind":"rtti",
     "mangled_component_name":"_ZTIN7android8hardware4gnss4V1_014BsGnssBatchingE"
    },
    {
     "kind":"complete_dtor_pointer",
     "mangled_component_name":"_ZTv0_n24_N7android8hardware4gnss4V1_014BsGnssBatchingD1Ev"
    },
    {
     "kind":"deleting_dtor_pointer",
     "mangled_component_name":"_ZTv0_n24_N7android8hardware4gnss4V1_014BsGnssBatchingD0Ev"
    },
    {
     "mangled_component_name":"_ZN7android7RefBase10onFirstRefEv"
    },
    {
     "mangled_component_name":"_ZN7android7RefBase15onLastStrongRefEPKv"
    },
    {
     "mangled_component_name":"_ZN7android7RefBase20onIncStrongAttemptedEjPKv"
    },
    {
     "mangled_component_name":"_ZN7android7RefBase13onLastWeakRefEPKv"
    }
   ],
   "unique_id":"_ZTSN7android8hardware4gnss4V1_014BsGnssBatchingE"
  },
  {
   "vtable_components":[
    {
     "kind":"vbase_offset",
     "component_value":120
    },
    {
     "kind":"offset_to_top"
    },
    {
     "kind":"rtti",
     "mangled_component_name":"_ZTIN7android8hardware4gnss4V1_022BsGnssBatchingCallbackE"
    },
    {
     "mangled_component_name":"_ZNK7android8hardware4gnss4V1_021IGnssBatchingCallback8isRemoteEv"
    },
    {
     "mangled_component_name":"_ZN7android8hardware4gnss4V1_022BsGnssBatchingCallback14interfaceChainENSt3__18functionIFvRKNS0_8hidl_vecINS0_11hidl_stringEEEEEE"
    },
    {
     "mangled_component_name":"_ZN7android8hardware4gnss4V1_022BsGnssBatchingCallback5debugERKNS0_11hidl_handleERKNS0_8hidl_vecINS0_11hidl_stringEEE"
    },
    {
     "mangled_component_name":"_ZN7android8hardware4gnss4V1_022BsGnssBatchingCallback19interfaceDescriptorENSt3__18functionIFvRKNS0_11hidl_stringEEEE"
    },
    {
     "mangled_component_name":"_ZN7android8hardware4gnss4V1_022BsGnssBatchingCallback12getHashChainENSt3__18functionIFvRKNS0_8hidl_vecINS0_10hidl_arrayIhLm32EJEEEEEEEE"
    },
    {
     "mangled_component_name":"_ZN7android8hardware4gnss4V1_022BsGnssBatchingCallback21setHALInstrumentationEv"
    },
    {
     "mangled_component_name":"_ZN7android8hardware4gnss4V1_022BsGnssBatchingCallback11linkToDeathERKNS_2spINS0_20hidl_death_recipientEEEm"
    },
    {
     "mangled_component_name":"_ZN7android8hardware4gnss4V1_022BsGnssBatchingCallback4pingEv"
    },
    {
     "mangled_component_name":"_ZN7android8hardware4gnss4V1_022BsGnssBatchingCallback12getDebugInfoENSt3__18functionIFvRKNS_4hidl4base4V1_09DebugInfoEEEE"
    },
    {
     "mangled_component_name":"_ZN7android8hardware4gnss4V1_022BsGnssBatchingCallback21notifySyspropsChangedEv"
    },
    {
     "mangled_component_name":"_ZN7android8hardware4gnss4V1_022BsGnssBatchingCallback13unlinkToDeathERKNS_2spINS0_20hidl_death_recipientEEE"
    },
    {
     "kind":"complete_dtor_pointer",
     "mangled_component_name":"_ZN7android8hardware4gnss4V1_022BsGnssBatchingCallbackD1Ev"
    },
    {
     "kind":"deleting_dtor_pointer",
     "mangled_component_name":"_ZN7android8hardware4gnss4V1_022BsGnssBatchingCallbackD0Ev"
    },
    {
     "mangled_component_name":"_ZN7android8hardware4gnss4V1_022BsGnssBatchingCallback19gnssLocationBatchCbERKNS0_8hidl_vecINS2_12GnssLocationEEE"
    },
    {
     "kind":"offset_to_top",
     "component_value":-8
    },
    {
     "kind":"rtti",
     "mangled_component_name":"_ZTIN7android8hardware4gnss4V1_022BsGnssBatchingCallbackE"
    },
    {
     "kind":"complete_dtor_pointer",
     "mangled_component_name":"_ZThn8_N7android8hardware4gnss4V1_022BsGnssBatchingCallbackD1Ev"
    },
    {
     "kind":"deleting_dtor_pointer",
     "mangled_component_name":"_ZThn8_N7android8hardware4gnss4V1_022BsGnssBatchingCallbackD0Ev"
    },
    {
     "kind":"vcall_offset"
    },
    {
     "kind":"vcall_offset"
    },
    {
     "kind":"vcall_offset"
    },
    {
     "kind":"vcall_offset"
    },
    {
     "kind":"vcall_offset",
     "component_value":-120
    },
    {
     "kind":"offset_to_top",
     "component_value":-120
    },
    {
     "kind":"rtti",
     "mangled_component_name":"_ZTIN7android8hardware4gnss4V1_022BsGnssBatchingCallbackE"
    },
    {
     "kind":"complete_dtor_pointer",
     "mangled_component_name":"_ZTv0_n24_N7android8hardware4gnss4V1_022BsGnssBatchingCallbackD1Ev"
    },
    {
     "kind":"deleting_dtor_pointer",
     "mangled_component_name":"_ZTv0_n24_N7android8hardware4gnss4V1_022BsGnssBatchingCallbackD0Ev"
    },
    {
     "mangled_component_name":"_ZN7android7RefBase10onFirstRefEv"
    },
    {
     "mangled_component_name":"_ZN7android7RefBase15onLastStrongRefEPKv"
    },
    {
     "mangled_component_name":"_ZN7android7RefBase20onIncStrongAttemptedEjPKv"
    },
    {
     "mangled_component_name":"_ZN7android7RefBase13onLastWeakRefEPKv"
    }
   ],
   "unique_id":"_ZTSN7android8hardware4gnss4V1_022BsGnssBatchingCallbackE"
  },
  {
   "vtable_components":[
    {
     "kind":"vbase_offset",
     "component_value":120
    },
    {
     "kind":"offset_to_top"
    },
    {
     "kind":"rtti",
     "mangled_component_name":"_ZTIN7android8hardware4gnss4V1_014BsGnssCallbackE"
    },
    {
     "mangled_component_name":"_ZNK7android8hardware4gnss4V1_013IGnssCallback8isRemoteEv"
    },
    {
     "mangled_component_name":"_ZN7android8hardware4gnss4V1_014BsGnssCallback14interfaceChainENSt3__18functionIFvRKNS0_8hidl_vecINS0_11hidl_stringEEEEEE"
    },
    {
     "mangled_component_name":"_ZN7android8hardware4gnss4V1_014BsGnssCallback5debugERKNS0_11hidl_handleERKNS0_8hidl_vecINS0_11hidl_stringEEE"
    },
    {
     "mangled_component_name":"_ZN7android8hardware4gnss4V1_014BsGnssCallback19interfaceDescriptorENSt3__18functionIFvRKNS0_11hidl_stringEEEE"
    },
    {
     "mangled_component_name":"_ZN7android8hardware4gnss4V1_014BsGnssCallback12getHashChainENSt3__18functionIFvRKNS0_8hidl_vecINS0_10hidl_arrayIhLm32EJEEEEEEEE"
    },
    {
     "mangled_component_name":"_ZN7android8hardware4gnss4V1_014BsGnssCallback21setHALInstrumentationEv"
    },
    {
     "mangled_component_name":"_ZN7android8hardware4gnss4V1_014BsGnssCallback11linkToDeathERKNS_2spINS0_20hidl_death_recipientEEEm"
    },
    {
     "mangled_component_name":"_ZN7android8hardware4gnss4V1_014BsGnssCallback4pingEv"
    },
    {
     "mangled_component_name":"_ZN7android8hardware4gnss4V1_014BsGnssCallback12getDebugInfoENSt3__18functionIFvRKNS_4hidl4base4V1_09DebugInfoEEEE"
    },
    {
     "mangled_component_name":"_ZN7android8hardware4gnss4V1_014BsGnssCallback21notifySyspropsChangedEv"
    },
    {
     "mangled_component_name":"_ZN7android8hardware4gnss4V1_014BsGnssCallback13unlinkToDeathERKNS_2spINS0_20hidl_death_recipientEEE"
    },
    {
     "kind":"complete_dtor_pointer",
     "mangled_component_name":"_ZN7android8hardware4gnss4V1_014BsGnssCallbackD1Ev"
    },
    {
     "kind":"deleting_dtor_pointer",
     "mangled_component_name":"_ZN7android8hardware4gnss4V1_014BsGnssCallbackD0Ev"
    },
    {
     "mangled_component_name":"_ZN7android8hardware4gnss4V1_014BsGnssCallback14gnssLocationCbERKNS2_12GnssLocationE"
    },
    {
     "mangled_component_name":"_ZN7android8hardware4gnss4V1_014BsGnssCallback12gnssStatusCbENS2_13IGnssCallback15GnssStatusValueE"
    },
    {
     "mangled_component_name":"_ZN7android8hardware4gnss4V1_014BsGnssCallback14gnssSvStatusCbERKNS2_13IGnssCallback12GnssSvStatusE"
    },
    {
     "mangled_component_name":"_ZN7android8hardware4gnss4V1_014BsGnssCallback10gnssNmeaCbElRKNS0_11hidl_stringE"
    },
    {
     "mangled_component_name":"_ZN7android8hardware4gnss4V1_014BsGnssCallback20gnssSetCapabilitesCbEj"
    },
    {
     "mangled_component_name":"_ZN7android8hardware4gnss4V1_014BsGnssCallback21gnssAcquireWakelockCbEv"
    },
    {
     "mangled_component_name":"_ZN7android8hardware4gnss4V1_014BsGnssCallback21gnssReleaseWakelockCbEv"
    },
    {
     "mangled_component_name":"_ZN7android8hardware4gnss4V1_014BsGnssCallback17gnssRequestTimeCbEv"
    },
    {
     "mangled_component_name":"_ZN7android8hardware4gnss4V1_014BsGnssCallback19gnssSetSystemInfoCbERKNS2_13IGnssCallback14GnssSystemInfoE"
    },
    {
     "kind":"offset_to_top",
     "component_value":-8
    },
    {
     "kind":"rtti",
     "mangled_component_name":"_ZTIN7android8hardware4gnss4V1_014BsGnssCallbackE"
    },
    {
     "kind":"complete_dtor_pointer",
     "mangled_component_name":"_ZThn8_N7android8hardware4gnss4V1_014BsGnssCallbackD1Ev"
    },
    {
     "kind":"deleting_dtor_pointer",
     "mangled_component_name":"_ZThn8_N7android8hardware4gnss4V1_014BsGnssCallbackD0Ev"
    },
    {
     "kind":"vcall_offset"
    },
    {
     "kind":"vcall_offset"
    },
    {
     "kind":"vcall_offset"
    },
    {
     "kind":"vcall_offset"
    },
    {
     "kind":"vcall_offset",
     "component_value":-120
    },
    {
     "kind":"offset_to_top",
     "component_value":-120
    },
    {
     "kind":"rtti",
     "mangled_component_name":"_ZTIN7android8hardware4gnss4V1_014BsGnssCallbackE"
    },
    {
     "kind":"complete_dtor_pointer",
     "mangled_component_name":"_ZTv0_n24_N7android8hardware4gnss4V1_014BsGnssCallbackD1Ev"
    },
    {
     "kind":"deleting_dtor_pointer",
     "mangled_component_name":"_ZTv0_n24_N7android8hardware4gnss4V1_014BsGnssCallbackD0Ev"
    },
    {
     "mangled_component_name":"_ZN7android7RefBase10onFirstRefEv"
    },
    {
     "mangled_component_name":"_ZN7android7RefBase15onLastStrongRefEPKv"
    },
    {
     "mangled_component_name":"_ZN7android7RefBase20onIncStrongAttemptedEjPKv"
    },
    {
     "mangled_component_name":"_ZN7android7RefBase13onLastWeakRefEPKv"
    }
   ],
   "unique_id":"_ZTSN7android8hardware4gnss4V1_014BsGnssCallbackE"
  },
  {
   "vtable_components":[
    {
     "kind":"vbase_offset",
     "component_value":136
    },
    {
     "kind":"offset_to_top"
    },
    {
     "kind":"rtti",
     "mangled_component_name":"_ZTIN7android8hardware4gnss4V1_012BnHwAGnssRilE"
    },
    {
     "mangled_component_name":"_ZN7android8hardware9BHwBinder8transactEjRKNS0_6ParcelEPS2_jNSt3__18functionIFvRS2_EEE"
    },
    {
     "mangled_component_name":"_ZN7android8hardware9BHwBinder11linkToDeathERKNS_2spINS0_7IBinder14DeathRecipientEEEPvj"
    },
    {
     "mangled_component_name":"_ZN7android8hardware9BHwBinder13unlinkToDeathERKNS_2wpINS0_7IBinder14DeathRecipientEEEPvjPS5_"
    },
    {
     "mangled_component_name":"_ZNK7android8hardware7IBinder13checkSubclassEPKv"
    },
    {
     "mangled_component_name":"_ZN7android8hardware9BHwBinder12attachObjectEPKvPvS4_PFvS3_S4_S4_E"
    },
    {
     "mangled_component_name":"_ZNK7android8hardware9BHwBinder10findObjectEPKv"
    },
    {
     "mangled_component_name":"_ZN7android8hardware9BHwBinder12detachObjectEPKv"
    },
    {
     "mangled_component_name":"_ZN7android8hardware9BHwBinder11localBinderEv"
    },
    {
     "mangled_component_name":"_ZN7android8hardware7IBinder12remoteBinderEv"
    },
    {
     "kind":"complete_dtor_pointer",
     "mangled_component_name":"_ZN7android8hardware4gnss4V1_012BnHwAGnssRilD1Ev"
    },
    {
     "kind":"deleting_dtor_pointer",
     "mangled_component_name":"_ZN7android8hardware4gnss4V1_012BnHwAGnssRilD0Ev"
    },
    {
     "mangled_component_name":"_ZN7android8hardware4gnss4V1_012BnHwAGnssRil10onTransactEjRKNS0_6ParcelEPS4_jNSt3__18functionIFvRS4_EEE"
    },
    {
     "kind":"offset_to_top",
     "component_value":-32
    },
    {
     "kind":"rtti",
     "mangled_component_name":"_ZTIN7android8hardware4gnss4V1_012BnHwAGnssRilE"
    },
    {
     "kind":"complete_dtor_pointer",
     "mangled_component_name":"_ZThn32_N7android8hardware4gnss4V1_012BnHwAGnssRilD1Ev"
    },
    {
     "kind":"deleting_dtor_pointer",
     "mangled_component_name":"_ZThn32_N7android8hardware4gnss4V1_012BnHwAGnssRilD0Ev"
    },
    {
     "kind":"vcall_offset"
    },
    {
     "kind":"vcall_offset"
    },
    {
     "kind":"vcall_offset"
    },
    {
     "kind":"vcall_offset"
    },
    {
     "kind":"vcall_offset",
     "component_value":-136
    },
    {
     "kind":"offset_to_top",
     "component_value":-136
    },
    {
     "kind":"rtti",
     "mangled_component_name":"_ZTIN7android8hardware4gnss4V1_012BnHwAGnssRilE"
    },
    {
     "kind":"complete_dtor_pointer",
     "mangled_component_name":"_ZTv0_n24_N7android8hardware4gnss4V1_012BnHwAGnssRilD1Ev"
    },
    {
     "kind":"deleting_dtor_pointer",
     "mangled_component_name":"_ZTv0_n24_N7android8hardware4gnss4V1_012BnHwAGnssRilD0Ev"
    },
    {
     "mangled_component_name":"_ZN7android7RefBase10onFirstRefEv"
    },
    {
     "mangled_component_name":"_ZN7android7RefBase15onLastStrongRefEPKv"
    },
    {
     "mangled_component_name":"_ZN7android7RefBase20onIncStrongAttemptedEjPKv"
    },
    {
     "mangled_component_name":"_ZN7android7RefBase13onLastWeakRefEPKv"
    }
   ],
   "unique_id":"_ZTSN7android8hardware4gnss4V1_012BnHwAGnssRilE"
  },
  {
   "vtable_components":[
    {
     "kind":"vbase_offset",
     "component_value":120
    },
    {
     "kind":"offset_to_top"
    },
    {
     "kind":"rtti",
     "mangled_component_name":"_ZTIN7android8hardware4gnss4V1_019BsGnssConfigurationE"
    },
    {
     "mangled_component_name":"_ZNK7android8hardware4gnss4V1_018IGnssConfiguration8isRemoteEv"
    },
    {
     "mangled_component_name":"_ZN7android8hardware4gnss4V1_019BsGnssConfiguration14interfaceChainENSt3__18functionIFvRKNS0_8hidl_vecINS0_11hidl_stringEEEEEE"
    },
    {
     "mangled_component_name":"_ZN7android8hardware4gnss4V1_019BsGnssConfiguration5debugERKNS0_11hidl_handleERKNS0_8hidl_vecINS0_11hidl_stringEEE"
    },
    {
     "mangled_component_name":"_ZN7android8hardware4gnss4V1_019BsGnssConfiguration19interfaceDescriptorENSt3__18functionIFvRKNS0_11hidl_stringEEEE"
    },
    {
     "mangled_component_name":"_ZN7android8hardware4gnss4V1_019BsGnssConfiguration12getHashChainENSt3__18functionIFvRKNS0_8hidl_vecINS0_10hidl_arrayIhLm32EJEEEEEEEE"
    },
    {
     "mangled_component_name":"_ZN7android8hardware4gnss4V1_019BsGnssConfiguration21setHALInstrumentationEv"
    },
    {
     "mangled_component_name":"_ZN7android8hardware4gnss4V1_019BsGnssConfiguration11linkToDeathERKNS_2spINS0_20hidl_death_recipientEEEm"
    },
    {
     "mangled_component_name":"_ZN7android8hardware4gnss4V1_019BsGnssConfiguration4pingEv"
    },
    {
     "mangled_component_name":"_ZN7android8hardware4gnss4V1_019BsGnssConfiguration12getDebugInfoENSt3__18functionIFvRKNS_4hidl4base4V1_09DebugInfoEEEE"
    },
    {
     "mangled_component_name":"_ZN7android8hardware4gnss4V1_019BsGnssConfiguration21notifySyspropsChangedEv"
    },
    {
     "mangled_component_name":"_ZN7android8hardware4gnss4V1_019BsGnssConfiguration13unlinkToDeathERKNS_2spINS0_20hidl_death_recipientEEE"
    },
    {
     "kind":"complete_dtor_pointer",
     "mangled_component_name":"_ZN7android8hardware4gnss4V1_019BsGnssConfigurationD1Ev"
    },
    {
     "kind":"deleting_dtor_pointer",
     "mangled_component_name":"_ZN7android8hardware4gnss4V1_019BsGnssConfigurationD0Ev"
    },
    {
     "mangled_component_name":"_ZN7android8hardware4gnss4V1_019BsGnssConfiguration9setSuplEsEb"
    },
    {
     "mangled_component_name":"_ZN7android8hardware4gnss4V1_019BsGnssConfiguration14setSuplVersionEj"
    },
    {
     "mangled_component_name":"_ZN7android8hardware4gnss4V1_019BsGnssConfiguration11setSuplModeEh"
    },
    {
     "mangled_component_name":"_ZN7android8hardware4gnss4V1_019BsGnssConfiguration10setGpsLockEh"
    },
    {
     "mangled_component_name":"_ZN7android8hardware4gnss4V1_019BsGnssConfiguration13setLppProfileEh"
    },
    {
     "mangled_component_name":"_ZN7android8hardware4gnss4V1_019BsGnssConfiguration29setGlonassPositioningProtocolEh"
    },
    {
     "mangled_component_name":"_ZN7android8hardware4gnss4V1_019BsGnssConfiguration19setEmergencySuplPdnEb"
    },
    {
     "kind":"offset_to_top",
     "component_value":-8
    },
    {
     "kind":"rtti",
     "mangled_component_name":"_ZTIN7android8hardware4gnss4V1_019BsGnssConfigurationE"
    },
    {
     "kind":"complete_dtor_pointer",
     "mangled_component_name":"_ZThn8_N7android8hardware4gnss4V1_019BsGnssConfigurationD1Ev"
    },
    {
     "kind":"deleting_dtor_pointer",
     "mangled_component_name":"_ZThn8_N7android8hardware4gnss4V1_019BsGnssConfigurationD0Ev"
    },
    {
     "kind":"vcall_offset"
    },
    {
     "kind":"vcall_offset"
    },
    {
     "kind":"vcall_offset"
    },
    {
     "kind":"vcall_offset"
    },
    {
     "kind":"vcall_offset",
     "component_value":-120
    },
    {
     "kind":"offset_to_top",
     "component_value":-120
    },
    {
     "kind":"rtti",
     "mangled_component_name":"_ZTIN7android8hardware4gnss4V1_019BsGnssConfigurationE"
    },
    {
     "kind":"complete_dtor_pointer",
     "mangled_component_name":"_ZTv0_n24_N7android8hardware4gnss4V1_019BsGnssConfigurationD1Ev"
    },
    {
     "kind":"deleting_dtor_pointer",
     "mangled_component_name":"_ZTv0_n24_N7android8hardware4gnss4V1_019BsGnssConfigurationD0Ev"
    },
    {
     "mangled_component_name":"_ZN7android7RefBase10onFirstRefEv"
    },
    {
     "mangled_component_name":"_ZN7android7RefBase15onLastStrongRefEPKv"
    },
    {
     "mangled_component_name":"_ZN7android7RefBase20onIncStrongAttemptedEjPKv"
    },
    {
     "mangled_component_name":"_ZN7android7RefBase13onLastWeakRefEPKv"
    }
   ],
   "unique_id":"_ZTSN7android8hardware4gnss4V1_019BsGnssConfigurationE"
  },
  {
   "vtable_components":[
    {
     "kind":"vbase_offset",
     "component_value":136
    },
    {
     "kind":"offset_to_top"
    },
    {
     "kind":"rtti",
     "mangled_component_name":"_ZTIN7android8hardware4gnss4V1_020BnHwAGnssRilCallbackE"
    },
    {
     "mangled_component_name":"_ZN7android8hardware9BHwBinder8transactEjRKNS0_6ParcelEPS2_jNSt3__18functionIFvRS2_EEE"
    },
    {
     "mangled_component_name":"_ZN7android8hardware9BHwBinder11linkToDeathERKNS_2spINS0_7IBinder14DeathRecipientEEEPvj"
    },
    {
     "mangled_component_name":"_ZN7android8hardware9BHwBinder13unlinkToDeathERKNS_2wpINS0_7IBinder14DeathRecipientEEEPvjPS5_"
    },
    {
     "mangled_component_name":"_ZNK7android8hardware7IBinder13checkSubclassEPKv"
    },
    {
     "mangled_component_name":"_ZN7android8hardware9BHwBinder12attachObjectEPKvPvS4_PFvS3_S4_S4_E"
    },
    {
     "mangled_component_name":"_ZNK7android8hardware9BHwBinder10findObjectEPKv"
    },
    {
     "mangled_component_name":"_ZN7android8hardware9BHwBinder12detachObjectEPKv"
    },
    {
     "mangled_component_name":"_ZN7android8hardware9BHwBinder11localBinderEv"
    },
    {
     "mangled_component_name":"_ZN7android8hardware7IBinder12remoteBinderEv"
    },
    {
     "kind":"complete_dtor_pointer",
     "mangled_component_name":"_ZN7android8hardware4gnss4V1_020BnHwAGnssRilCallbackD1Ev"
    },
    {
     "kind":"deleting_dtor_pointer",
     "mangled_component_name":"_ZN7android8hardware4gnss4V1_020BnHwAGnssRilCallbackD0Ev"
    },
    {
     "mangled_component_name":"_ZN7android8hardware4gnss4V1_020BnHwAGnssRilCallback10onTransactEjRKNS0_6ParcelEPS4_jNSt3__18functionIFvRS4_EEE"
    },
    {
     "kind":"offset_to_top",
     "component_value":-32
    },
    {
     "kind":"rtti",
     "mangled_component_name":"_ZTIN7android8hardware4gnss4V1_020BnHwAGnssRilCallbackE"
    },
    {
     "kind":"complete_dtor_pointer",
     "mangled_component_name":"_ZThn32_N7android8hardware4gnss4V1_020BnHwAGnssRilCallbackD1Ev"
    },
    {
     "kind":"deleting_dtor_pointer",
     "mangled_component_name":"_ZThn32_N7android8hardware4gnss4V1_020BnHwAGnssRilCallbackD0Ev"
    },
    {
     "kind":"vcall_offset"
    },
    {
     "kind":"vcall_offset"
    },
    {
     "kind":"vcall_offset"
    },
    {
     "kind":"vcall_offset"
    },
    {
     "kind":"vcall_offset",
     "component_value":-136
    },
    {
     "kind":"offset_to_top",
     "component_value":-136
    },
    {
     "kind":"rtti",
     "mangled_component_name":"_ZTIN7android8hardware4gnss4V1_020BnHwAGnssRilCallbackE"
    },
    {
     "kind":"complete_dtor_pointer",
     "mangled_component_name":"_ZTv0_n24_N7android8hardware4gnss4V1_020BnHwAGnssRilCallbackD1Ev"
    },
    {
     "kind":"deleting_dtor_pointer",
     "mangled_component_name":"_ZTv0_n24_N7android8hardware4gnss4V1_020BnHwAGnssRilCallbackD0Ev"
    },
    {
     "mangled_component_name":"_ZN7android7RefBase10onFirstRefEv"
    },
    {
     "mangled_component_name":"_ZN7android7RefBase15onLastStrongRefEPKv"
    },
    {
     "mangled_component_name":"_ZN7android7RefBase20onIncStrongAttemptedEjPKv"
    },
    {
     "mangled_component_name":"_ZN7android7RefBase13onLastWeakRefEPKv"
    }
   ],
   "unique_id":"_ZTSN7android8hardware4gnss4V1_020BnHwAGnssRilCallbackE"
  },
  {
   "vtable_components":[
    {
     "kind":"vbase_offset",
     "component_value":120
    },
    {
     "kind":"offset_to_top"
    },
    {
     "kind":"rtti",
     "mangled_component_name":"_ZTIN7android8hardware4gnss4V1_011BsGnssDebugE"
    },
    {
     "mangled_component_name":"_ZNK7android8hardware4gnss4V1_010IGnssDebug8isRemoteEv"
    },
    {
     "mangled_component_name":"_ZN7android8hardware4gnss4V1_011BsGnssDebug14interfaceChainENSt3__18functionIFvRKNS0_8hidl_vecINS0_11hidl_stringEEEEEE"
    },
    {
     "mangled_component_name":"_ZN7android8hardware4gnss4V1_011BsGnssDebug5debugERKNS0_11hidl_handleERKNS0_8hidl_vecINS0_11hidl_stringEEE"
    },
    {
     "mangled_component_name":"_ZN7android8hardware4gnss4V1_011BsGnssDebug19interfaceDescriptorENSt3__18functionIFvRKNS0_11hidl_stringEEEE"
    },
    {
     "mangled_component_name":"_ZN7android8hardware4gnss4V1_011BsGnssDebug12getHashChainENSt3__18functionIFvRKNS0_8hidl_vecINS0_10hidl_arrayIhLm32EJEEEEEEEE"
    },
    {
     "mangled_component_name":"_ZN7android8hardware4gnss4V1_011BsGnssDebug21setHALInstrumentationEv"
    },
    {
     "mangled_component_name":"_ZN7android8hardware4gnss4V1_011BsGnssDebug11linkToDeathERKNS_2spINS0_20hidl_death_recipientEEEm"
    },
    {
     "mangled_component_name":"_ZN7android8hardware4gnss4V1_011BsGnssDebug4pingEv"
    },
    {
     "mangled_component_name":"_ZN7android8hardware4gnss4V1_011BsGnssDebug12getDebugInfoENSt3__18functionIFvRKNS_4hidl4base4V1_09DebugInfoEEEE"
    },
    {
     "mangled_component_name":"_ZN7android8hardware4gnss4V1_011BsGnssDebug21notifySyspropsChangedEv"
    },
    {
     "mangled_component_name":"_ZN7android8hardware4gnss4V1_011BsGnssDebug13unlinkToDeathERKNS_2spINS0_20hidl_death_recipientEEE"
    },
    {
     "kind":"complete_dtor_pointer",
     "mangled_component_name":"_ZN7android8hardware4gnss4V1_011BsGnssDebugD1Ev"
    },
    {
     "kind":"deleting_dtor_pointer",
     "mangled_component_name":"_ZN7android8hardware4gnss4V1_011BsGnssDebugD0Ev"
    },
    {
     "mangled_component_name":"_ZN7android8hardware4gnss4V1_011BsGnssDebug12getDebugDataENSt3__18functionIFvRKNS2_10IGnssDebug9DebugDataEEEE"
    },
    {
     "kind":"offset_to_top",
     "component_value":-8
    },
    {
     "kind":"rtti",
     "mangled_component_name":"_ZTIN7android8hardware4gnss4V1_011BsGnssDebugE"
    },
    {
     "kind":"complete_dtor_pointer",
     "mangled_component_name":"_ZThn8_N7android8hardware4gnss4V1_011BsGnssDebugD1Ev"
    },
    {
     "kind":"deleting_dtor_pointer",
     "mangled_component_name":"_ZThn8_N7android8hardware4gnss4V1_011BsGnssDebugD0Ev"
    },
    {
     "kind":"vcall_offset"
    },
    {
     "kind":"vcall_offset"
    },
    {
     "kind":"vcall_offset"
    },
    {
     "kind":"vcall_offset"
    },
    {
     "kind":"vcall_offset",
     "component_value":-120
    },
    {
     "kind":"offset_to_top",
     "component_value":-120
    },
    {
     "kind":"rtti",
     "mangled_component_name":"_ZTIN7android8hardware4gnss4V1_011BsGnssDebugE"
    },
    {
     "kind":"complete_dtor_pointer",
     "mangled_component_name":"_ZTv0_n24_N7android8hardware4gnss4V1_011BsGnssDebugD1Ev"
    },
    {
     "kind":"deleting_dtor_pointer",
     "mangled_component_name":"_ZTv0_n24_N7android8hardware4gnss4V1_011BsGnssDebugD0Ev"
    },
    {
     "mangled_component_name":"_ZN7android7RefBase10onFirstRefEv"
    },
    {
     "mangled_component_name":"_ZN7android7RefBase15onLastStrongRefEPKv"
    },
    {
     "mangled_component_name":"_ZN7android7RefBase20onIncStrongAttemptedEjPKv"
    },
    {
     "mangled_component_name":"_ZN7android7RefBase13onLastWeakRefEPKv"
    }
   ],
   "unique_id":"_ZTSN7android8hardware4gnss4V1_011BsGnssDebugE"
  },
  {
   "vtable_components":[
    {
     "kind":"vbase_offset",
     "component_value":120
    },
    {
     "kind":"offset_to_top"
    },
    {
     "kind":"rtti",
     "mangled_component_name":"_ZTIN7android8hardware4gnss4V1_022BsGnssGeofenceCallbackE"
    },
    {
     "mangled_component_name":"_ZNK7android8hardware4gnss4V1_021IGnssGeofenceCallback8isRemoteEv"
    },
    {
     "mangled_component_name":"_ZN7android8hardware4gnss4V1_022BsGnssGeofenceCallback14interfaceChainENSt3__18functionIFvRKNS0_8hidl_vecINS0_11hidl_stringEEEEEE"
    },
    {
     "mangled_component_name":"_ZN7android8hardware4gnss4V1_022BsGnssGeofenceCallback5debugERKNS0_11hidl_handleERKNS0_8hidl_vecINS0_11hidl_stringEEE"
    },
    {
     "mangled_component_name":"_ZN7android8hardware4gnss4V1_022BsGnssGeofenceCallback19interfaceDescriptorENSt3__18functionIFvRKNS0_11hidl_stringEEEE"
    },
    {
     "mangled_component_name":"_ZN7android8hardware4gnss4V1_022BsGnssGeofenceCallback12getHashChainENSt3__18functionIFvRKNS0_8hidl_vecINS0_10hidl_arrayIhLm32EJEEEEEEEE"
    },
    {
     "mangled_component_name":"_ZN7android8hardware4gnss4V1_022BsGnssGeofenceCallback21setHALInstrumentationEv"
    },
    {
     "mangled_component_name":"_ZN7android8hardware4gnss4V1_022BsGnssGeofenceCallback11linkToDeathERKNS_2spINS0_20hidl_death_recipientEEEm"
    },
    {
     "mangled_component_name":"_ZN7android8hardware4gnss4V1_022BsGnssGeofenceCallback4pingEv"
    },
    {
     "mangled_component_name":"_ZN7android8hardware4gnss4V1_022BsGnssGeofenceCallback12getDebugInfoENSt3__18functionIFvRKNS_4hidl4base4V1_09DebugInfoEEEE"
    },
    {
     "mangled_component_name":"_ZN7android8hardware4gnss4V1_022BsGnssGeofenceCallback21notifySyspropsChangedEv"
    },
    {
     "mangled_component_name":"_ZN7android8hardware4gnss4V1_022BsGnssGeofenceCallback13unlinkToDeathERKNS_2spINS0_20hidl_death_recipientEEE"
    },
    {
     "kind":"complete_dtor_pointer",
     "mangled_component_name":"_ZN7android8hardware4gnss4V1_022BsGnssGeofenceCallbackD1Ev"
    },
    {
     "kind":"deleting_dtor_pointer",
     "mangled_component_name":"_ZN7android8hardware4gnss4V1_022BsGnssGeofenceCallbackD0Ev"
    },
    {
     "mangled_component_name":"_ZN7android8hardware4gnss4V1_022BsGnssGeofenceCallback24gnssGeofenceTransitionCbEiRKNS2_12GnssLocationENS2_21IGnssGeofenceCallback18GeofenceTransitionEl"
    },
    {
     "mangled_component_name":"_ZN7android8hardware4gnss4V1_022BsGnssGeofenceCallback20gnssGeofenceStatusCbENS2_21IGnssGeofenceCallback20GeofenceAvailabilityERKNS2_12GnssLocationE"
    },
    {
     "mangled_component_name":"_ZN7android8hardware4gnss4V1_022BsGnssGeofenceCallback17gnssGeofenceAddCbEiNS2_21IGnssGeofenceCallback14GeofenceStatusE"
    },
    {
     "mangled_component_name":"_ZN7android8hardware4gnss4V1_022BsGnssGeofenceCallback20gnssGeofenceRemoveCbEiNS2_21IGnssGeofenceCallback14GeofenceStatusE"
    },
    {
     "mangled_component_name":"_ZN7android8hardware4gnss4V1_022BsGnssGeofenceCallback19gnssGeofencePauseCbEiNS2_21IGnssGeofenceCallback14GeofenceStatusE"
    },
    {
     "mangled_component_name":"_ZN7android8hardware4gnss4V1_022BsGnssGeofenceCallback20gnssGeofenceResumeCbEiNS2_21IGnssGeofenceCallback14GeofenceStatusE"
    },
    {
     "kind":"offset_to_top",
     "component_value":-8
    },
    {
     "kind":"rtti",
     "mangled_component_name":"_ZTIN7android8hardware4gnss4V1_022BsGnssGeofenceCallbackE"
    },
    {
     "kind":"complete_dtor_pointer",
     "mangled_component_name":"_ZThn8_N7android8hardware4gnss4V1_022BsGnssGeofenceCallbackD1Ev"
    },
    {
     "kind":"deleting_dtor_pointer",
     "mangled_component_name":"_ZThn8_N7android8hardware4gnss4V1_022BsGnssGeofenceCallbackD0Ev"
    },
    {
     "kind":"vcall_offset"
    },
    {
     "kind":"vcall_offset"
    },
    {
     "kind":"vcall_offset"
    },
    {
     "kind":"vcall_offset"
    },
    {
     "kind":"vcall_offset",
     "component_value":-120
    },
    {
     "kind":"offset_to_top",
     "component_value":-120
    },
    {
     "kind":"rtti",
     "mangled_component_name":"_ZTIN7android8hardware4gnss4V1_022BsGnssGeofenceCallbackE"
    },
    {
     "kind":"complete_dtor_pointer",
     "mangled_component_name":"_ZTv0_n24_N7android8hardware4gnss4V1_022BsGnssGeofenceCallbackD1Ev"
    },
    {
     "kind":"deleting_dtor_pointer",
     "mangled_component_name":"_ZTv0_n24_N7android8hardware4gnss4V1_022BsGnssGeofenceCallbackD0Ev"
    },
    {
     "mangled_component_name":"_ZN7android7RefBase10onFirstRefEv"
    },
    {
     "mangled_component_name":"_ZN7android7RefBase15onLastStrongRefEPKv"
    },
    {
     "mangled_component_name":"_ZN7android7RefBase20onIncStrongAttemptedEjPKv"
    },
    {
     "mangled_component_name":"_ZN7android7RefBase13onLastWeakRefEPKv"
    }
   ],
   "unique_id":"_ZTSN7android8hardware4gnss4V1_022BsGnssGeofenceCallbackE"
  },
  {
   "vtable_components":[
    {
     "kind":"vbase_offset",
     "component_value":120
    },
    {
     "kind":"offset_to_top"
    },
    {
     "kind":"rtti",
     "mangled_component_name":"_ZTIN7android8hardware4gnss4V1_016BsGnssGeofencingE"
    },
    {
     "mangled_component_name":"_ZNK7android8hardware4gnss4V1_015IGnssGeofencing8isRemoteEv"
    },
    {
     "mangled_component_name":"_ZN7android8hardware4gnss4V1_016BsGnssGeofencing14interfaceChainENSt3__18functionIFvRKNS0_8hidl_vecINS0_11hidl_stringEEEEEE"
    },
    {
     "mangled_component_name":"_ZN7android8hardware4gnss4V1_016BsGnssGeofencing5debugERKNS0_11hidl_handleERKNS0_8hidl_vecINS0_11hidl_stringEEE"
    },
    {
     "mangled_component_name":"_ZN7android8hardware4gnss4V1_016BsGnssGeofencing19interfaceDescriptorENSt3__18functionIFvRKNS0_11hidl_stringEEEE"
    },
    {
     "mangled_component_name":"_ZN7android8hardware4gnss4V1_016BsGnssGeofencing12getHashChainENSt3__18functionIFvRKNS0_8hidl_vecINS0_10hidl_arrayIhLm32EJEEEEEEEE"
    },
    {
     "mangled_component_name":"_ZN7android8hardware4gnss4V1_016BsGnssGeofencing21setHALInstrumentationEv"
    },
    {
     "mangled_component_name":"_ZN7android8hardware4gnss4V1_016BsGnssGeofencing11linkToDeathERKNS_2spINS0_20hidl_death_recipientEEEm"
    },
    {
     "mangled_component_name":"_ZN7android8hardware4gnss4V1_016BsGnssGeofencing4pingEv"
    },
    {
     "mangled_component_name":"_ZN7android8hardware4gnss4V1_016BsGnssGeofencing12getDebugInfoENSt3__18functionIFvRKNS_4hidl4base4V1_09DebugInfoEEEE"
    },
    {
     "mangled_component_name":"_ZN7android8hardware4gnss4V1_016BsGnssGeofencing21notifySyspropsChangedEv"
    },
    {
     "mangled_component_name":"_ZN7android8hardware4gnss4V1_016BsGnssGeofencing13unlinkToDeathERKNS_2spINS0_20hidl_death_recipientEEE"
    },
    {
     "kind":"complete_dtor_pointer",
     "mangled_component_name":"_ZN7android8hardware4gnss4V1_016BsGnssGeofencingD1Ev"
    },
    {
     "kind":"deleting_dtor_pointer",
     "mangled_component_name":"_ZN7android8hardware4gnss4V1_016BsGnssGeofencingD0Ev"
    },
    {
     "mangled_component_name":"_ZN7android8hardware4gnss4V1_016BsGnssGeofencing11setCallbackERKNS_2spINS2_21IGnssGeofenceCallbackEEE"
    },
    {
     "mangled_component_name":"_ZN7android8hardware4gnss4V1_016BsGnssGeofencing11addGeofenceEidddNS2_21IGnssGeofenceCallback18GeofenceTransitionEijj"
    },
    {
     "mangled_component_name":"_ZN7android8hardware4gnss4V1_016BsGnssGeofencing13pauseGeofenceEi"
    },
    {
     "mangled_component_name":"_ZN7android8hardware4gnss4V1_016BsGnssGeofencing14resumeGeofenceEii"
    },
    {
     "mangled_component_name":"_ZN7android8hardware4gnss4V1_016BsGnssGeofencing14removeGeofenceEi"
    },
    {
     "kind":"offset_to_top",
     "component_value":-8
    },
    {
     "kind":"rtti",
     "mangled_component_name":"_ZTIN7android8hardware4gnss4V1_016BsGnssGeofencingE"
    },
    {
     "kind":"complete_dtor_pointer",
     "mangled_component_name":"_ZThn8_N7android8hardware4gnss4V1_016BsGnssGeofencingD1Ev"
    },
    {
     "kind":"deleting_dtor_pointer",
     "mangled_component_name":"_ZThn8_N7android8hardware4gnss4V1_016BsGnssGeofencingD0Ev"
    },
    {
     "kind":"vcall_offset"
    },
    {
     "kind":"vcall_offset"
    },
    {
     "kind":"vcall_offset"
    },
    {
     "kind":"vcall_offset"
    },
    {
     "kind":"vcall_offset",
     "component_value":-120
    },
    {
     "kind":"offset_to_top",
     "component_value":-120
    },
    {
     "kind":"rtti",
     "mangled_component_name":"_ZTIN7android8hardware4gnss4V1_016BsGnssGeofencingE"
    },
    {
     "kind":"complete_dtor_pointer",
     "mangled_component_name":"_ZTv0_n24_N7android8hardware4gnss4V1_016BsGnssGeofencingD1Ev"
    },
    {
     "kind":"deleting_dtor_pointer",
     "mangled_component_name":"_ZTv0_n24_N7android8hardware4gnss4V1_016BsGnssGeofencingD0Ev"
    },
    {
     "mangled_component_name":"_ZN7android7RefBase10onFirstRefEv"
    },
    {
     "mangled_component_name":"_ZN7android7RefBase15onLastStrongRefEPKv"
    },
    {
     "mangled_component_name":"_ZN7android7RefBase20onIncStrongAttemptedEjPKv"
    },
    {
     "mangled_component_name":"_ZN7android7RefBase13onLastWeakRefEPKv"
    }
   ],
   "unique_id":"_ZTSN7android8hardware4gnss4V1_016BsGnssGeofencingE"
  },
  {
   "vtable_components":[
    {
     "kind":"vbase_offset",
     "component_value":8
    },
    {
     "kind":"offset_to_top"
    },
    {
     "kind":"rtti",
     "mangled_component_name":"_ZTIN7android8hardware4gnss4V1_09IAGnssRilE"
    },
    {
     "mangled_component_name":"_ZNK7android8hardware4gnss4V1_09IAGnssRil8isRemoteEv"
    },
    {
     "mangled_component_name":"_ZN7android8hardware4gnss4V1_09IAGnssRil14interfaceChainENSt3__18functionIFvRKNS0_8hidl_vecINS0_11hidl_stringEEEEEE"
    },
    {
     "mangled_component_name":"_ZN7android8hardware4gnss4V1_09IAGnssRil5debugERKNS0_11hidl_handleERKNS0_8hidl_vecINS0_11hidl_stringEEE"
    },
    {
     "mangled_component_name":"_ZN7android8hardware4gnss4V1_09IAGnssRil19interfaceDescriptorENSt3__18functionIFvRKNS0_11hidl_stringEEEE"
    },
    {
     "mangled_component_name":"_ZN7android8hardware4gnss4V1_09IAGnssRil12getHashChainENSt3__18functionIFvRKNS0_8hidl_vecINS0_10hidl_arrayIhLm32EJEEEEEEEE"
    },
    {
     "mangled_component_name":"_ZN7android8hardware4gnss4V1_09IAGnssRil21setHALInstrumentationEv"
    },
    {
     "mangled_component_name":"_ZN7android8hardware4gnss4V1_09IAGnssRil11linkToDeathERKNS_2spINS0_20hidl_death_recipientEEEm"
    },
    {
     "mangled_component_name":"_ZN7android8hardware4gnss4V1_09IAGnssRil4pingEv"
    },
    {
     "mangled_component_name":"_ZN7android8hardware4gnss4V1_09IAGnssRil12getDebugInfoENSt3__18functionIFvRKNS_4hidl4base4V1_09DebugInfoEEEE"
    },
    {
     "mangled_component_name":"_ZN7android8hardware4gnss4V1_09IAGnssRil21notifySyspropsChangedEv"
    },
    {
     "mangled_component_name":"_ZN7android8hardware4gnss4V1_09IAGnssRil13unlinkToDeathERKNS_2spINS0_20hidl_death_recipientEEE"
    },
    {
     "kind":"complete_dtor_pointer",
     "mangled_component_name":"_ZN7android8hardware4gnss4V1_09IAGnssRilD1Ev"
    },
    {
     "kind":"deleting_dtor_pointer",
     "mangled_component_name":"_ZN7android8hardware4gnss4V1_09IAGnssRilD0Ev"
    },
    {
     "is_pure":true,
     "mangled_component_name":"_ZN7android8hardware4gnss4V1_09IAGnssRil11setCallbackERKNS_2spINS2_17IAGnssRilCallbackEEE"
    },
    {
     "is_pure":true,
     "mangled_component_name":"_ZN7android8hardware4gnss4V1_09IAGnssRil14setRefLocationERKNS3_16AGnssRefLocationE"
    },
    {
     "is_pure":true,
     "mangled_component_name":"_ZN7android8hardware4gnss4V1_09IAGnssRil8setSetIdENS3_9SetIDTypeERKNS0_11hidl_stringE"
    },
    {
     "is_pure":true,
     "mangled_component_name":"_ZN7android8hardware4gnss4V1_09IAGnssRil18updateNetworkStateEbNS3_11NetworkTypeEb"
    },
    {
     "is_pure":true,
     "mangled_component_name":"_ZN7android8hardware4gnss4V1_09IAGnssRil25updateNetworkAvailabilityEbRKNS0_11hidl_stringE"
    },
    {
     "kind":"vcall_offset"
    },
    {
     "kind":"vcall_offset"
    },
    {
     "kind":"vcall_offset"
    },
    {
     "kind":"vcall_offset"
    },
    {
     "kind":"vcall_offset",
     "component_value":-8
    },
    {
     "kind":"offset_to_top",
     "component_value":-8
    },
    {
     "kind":"rtti",
     "mangled_component_name":"_ZTIN7android8hardware4gnss4V1_09IAGnssRilE"
    },
    {
     "kind":"complete_dtor_pointer",
     "mangled_component_name":"_ZTv0_n24_N7android8hardware4gnss4V1_09IAGnssRilD1Ev"
    },
    {
     "kind":"deleting_dtor_pointer",
     "mangled_component_name":"_ZTv0_n24_N7android8hardware4gnss4V1_09IAGnssRilD0Ev"
    },
    {
     "mangled_component_name":"_ZN7android7RefBase10onFirstRefEv"
    },
    {
     "mangled_component_name":"_ZN7android7RefBase15onLastStrongRefEPKv"
    },
    {
     "mangled_component_name":"_ZN7android7RefBase20onIncStrongAttemptedEjPKv"
    },
    {
     "mangled_component_name":"_ZN7android7RefBase13onLastWeakRefEPKv"
    }
   ],
   "unique_id":"_ZTSN7android8hardware4gnss4V1_09IAGnssRilE"
  },
  {
   "vtable_components":[
    {
     "kind":"vbase_offset",
     "component_value":120
    },
    {
     "kind":"offset_to_top"
    },
    {
     "kind":"rtti",
     "mangled_component_name":"_ZTIN7android8hardware4gnss4V1_017BsGnssMeasurementE"
    },
    {
     "mangled_component_name":"_ZNK7android8hardware4gnss4V1_016IGnssMeasurement8isRemoteEv"
    },
    {
     "mangled_component_name":"_ZN7android8hardware4gnss4V1_017BsGnssMeasurement14interfaceChainENSt3__18functionIFvRKNS0_8hidl_vecINS0_11hidl_stringEEEEEE"
    },
    {
     "mangled_component_name":"_ZN7android8hardware4gnss4V1_017BsGnssMeasurement5debugERKNS0_11hidl_handleERKNS0_8hidl_vecINS0_11hidl_stringEEE"
    },
    {
     "mangled_component_name":"_ZN7android8hardware4gnss4V1_017BsGnssMeasurement19interfaceDescriptorENSt3__18functionIFvRKNS0_11hidl_stringEEEE"
    },
    {
     "mangled_component_name":"_ZN7android8hardware4gnss4V1_017BsGnssMeasurement12getHashChainENSt3__18functionIFvRKNS0_8hidl_vecINS0_10hidl_arrayIhLm32EJEEEEEEEE"
    },
    {
     "mangled_component_name":"_ZN7android8hardware4gnss4V1_017BsGnssMeasurement21setHALInstrumentationEv"
    },
    {
     "mangled_component_name":"_ZN7android8hardware4gnss4V1_017BsGnssMeasurement11linkToDeathERKNS_2spINS0_20hidl_death_recipientEEEm"
    },
    {
     "mangled_component_name":"_ZN7android8hardware4gnss4V1_017BsGnssMeasurement4pingEv"
    },
    {
     "mangled_component_name":"_ZN7android8hardware4gnss4V1_017BsGnssMeasurement12getDebugInfoENSt3__18functionIFvRKNS_4hidl4base4V1_09DebugInfoEEEE"
    },
    {
     "mangled_component_name":"_ZN7android8hardware4gnss4V1_017BsGnssMeasurement21notifySyspropsChangedEv"
    },
    {
     "mangled_component_name":"_ZN7android8hardware4gnss4V1_017BsGnssMeasurement13unlinkToDeathERKNS_2spINS0_20hidl_death_recipientEEE"
    },
    {
     "kind":"complete_dtor_pointer",
     "mangled_component_name":"_ZN7android8hardware4gnss4V1_017BsGnssMeasurementD1Ev"
    },
    {
     "kind":"deleting_dtor_pointer",
     "mangled_component_name":"_ZN7android8hardware4gnss4V1_017BsGnssMeasurementD0Ev"
    },
    {
     "mangled_component_name":"_ZN7android8hardware4gnss4V1_017BsGnssMeasurement11setCallbackERKNS_2spINS2_24IGnssMeasurementCallbackEEE"
    },
    {
     "mangled_component_name":"_ZN7android8hardware4gnss4V1_017BsGnssMeasurement5closeEv"
    },
    {
     "kind":"offset_to_top",
     "component_value":-8
    },
    {
     "kind":"rtti",
     "mangled_component_name":"_ZTIN7android8hardware4gnss4V1_017BsGnssMeasurementE"
    },
    {
     "kind":"complete_dtor_pointer",
     "mangled_component_name":"_ZThn8_N7android8hardware4gnss4V1_017BsGnssMeasurementD1Ev"
    },
    {
     "kind":"deleting_dtor_pointer",
     "mangled_component_name":"_ZThn8_N7android8hardware4gnss4V1_017BsGnssMeasurementD0Ev"
    },
    {
     "kind":"vcall_offset"
    },
    {
     "kind":"vcall_offset"
    },
    {
     "kind":"vcall_offset"
    },
    {
     "kind":"vcall_offset"
    },
    {
     "kind":"vcall_offset",
     "component_value":-120
    },
    {
     "kind":"offset_to_top",
     "component_value":-120
    },
    {
     "kind":"rtti",
     "mangled_component_name":"_ZTIN7android8hardware4gnss4V1_017BsGnssMeasurementE"
    },
    {
     "kind":"complete_dtor_pointer",
     "mangled_component_name":"_ZTv0_n24_N7android8hardware4gnss4V1_017BsGnssMeasurementD1Ev"
    },
    {
     "kind":"deleting_dtor_pointer",
     "mangled_component_name":"_ZTv0_n24_N7android8hardware4gnss4V1_017BsGnssMeasurementD0Ev"
    },
    {
     "mangled_component_name":"_ZN7android7RefBase10onFirstRefEv"
    },
    {
     "mangled_component_name":"_ZN7android7RefBase15onLastStrongRefEPKv"
    },
    {
     "mangled_component_name":"_ZN7android7RefBase20onIncStrongAttemptedEjPKv"
    },
    {
     "mangled_component_name":"_ZN7android7RefBase13onLastWeakRefEPKv"
    }
   ],
   "unique_id":"_ZTSN7android8hardware4gnss4V1_017BsGnssMeasurementE"
  },
  {
   "vtable_components":[
    {
     "kind":"vbase_offset",
     "component_value":136
    },
    {
     "kind":"offset_to_top"
    },
    {
     "kind":"rtti",
     "mangled_component_name":"_ZTIN7android8hardware4gnss4V1_017BnHwAGnssCallbackE"
    },
    {
     "mangled_component_name":"_ZN7android8hardware9BHwBinder8transactEjRKNS0_6ParcelEPS2_jNSt3__18functionIFvRS2_EEE"
    },
    {
     "mangled_component_name":"_ZN7android8hardware9BHwBinder11linkToDeathERKNS_2spINS0_7IBinder14DeathRecipientEEEPvj"
    },
    {
     "mangled_component_name":"_ZN7android8hardware9BHwBinder13unlinkToDeathERKNS_2wpINS0_7IBinder14DeathRecipientEEEPvjPS5_"
    },
    {
     "mangled_component_name":"_ZNK7android8hardware7IBinder13checkSubclassEPKv"
    },
    {
     "mangled_component_name":"_ZN7android8hardware9BHwBinder12attachObjectEPKvPvS4_PFvS3_S4_S4_E"
    },
    {
     "mangled_component_name":"_ZNK7android8hardware9BHwBinder10findObjectEPKv"
    },
    {
     "mangled_component_name":"_ZN7android8hardware9BHwBinder12detachObjectEPKv"
    },
    {
     "mangled_component_name":"_ZN7android8hardware9BHwBinder11localBinderEv"
    },
    {
     "mangled_component_name":"_ZN7android8hardware7IBinder12remoteBinderEv"
    },
    {
     "kind":"complete_dtor_pointer",
     "mangled_component_name":"_ZN7android8hardware4gnss4V1_017BnHwAGnssCallbackD1Ev"
    },
    {
     "kind":"deleting_dtor_pointer",
     "mangled_component_name":"_ZN7android8hardware4gnss4V1_017BnHwAGnssCallbackD0Ev"
    },
    {
     "mangled_component_name":"_ZN7android8hardware4gnss4V1_017BnHwAGnssCallback10onTransactEjRKNS0_6ParcelEPS4_jNSt3__18functionIFvRS4_EEE"
    },
    {
     "kind":"offset_to_top",
     "component_value":-32
    },
    {
     "kind":"rtti",
     "mangled_component_name":"_ZTIN7android8hardware4gnss4V1_017BnHwAGnssCallbackE"
    },
    {
     "kind":"complete_dtor_pointer",
     "mangled_component_name":"_ZThn32_N7android8hardware4gnss4V1_017BnHwAGnssCallbackD1Ev"
    },
    {
     "kind":"deleting_dtor_pointer",
     "mangled_component_name":"_ZThn32_N7android8hardware4gnss4V1_017BnHwAGnssCallbackD0Ev"
    },
    {
     "kind":"vcall_offset"
    },
    {
     "kind":"vcall_offset"
    },
    {
     "kind":"vcall_offset"
    },
    {
     "kind":"vcall_offset"
    },
    {
     "kind":"vcall_offset",
     "component_value":-136
    },
    {
     "kind":"offset_to_top",
     "component_value":-136
    },
    {
     "kind":"rtti",
     "mangled_component_name":"_ZTIN7android8hardware4gnss4V1_017BnHwAGnssCallbackE"
    },
    {
     "kind":"complete_dtor_pointer",
     "mangled_component_name":"_ZTv0_n24_N7android8hardware4gnss4V1_017BnHwAGnssCallbackD1Ev"
    },
    {
     "kind":"deleting_dtor_pointer",
     "mangled_component_name":"_ZTv0_n24_N7android8hardware4gnss4V1_017BnHwAGnssCallbackD0Ev"
    },
    {
     "mangled_component_name":"_ZN7android7RefBase10onFirstRefEv"
    },
    {
     "mangled_component_name":"_ZN7android7RefBase15onLastStrongRefEPKv"
    },
    {
     "mangled_component_name":"_ZN7android7RefBase20onIncStrongAttemptedEjPKv"
    },
    {
     "mangled_component_name":"_ZN7android7RefBase13onLastWeakRefEPKv"
    }
   ],
   "unique_id":"_ZTSN7android8hardware4gnss4V1_017BnHwAGnssCallbackE"
  },
  {
   "vtable_components":[
    {
     "kind":"vbase_offset",
     "component_value":120
    },
    {
     "kind":"offset_to_top"
    },
    {
     "kind":"rtti",
     "mangled_component_name":"_ZTIN7android8hardware4gnss4V1_07BsAGnssE"
    },
    {
     "mangled_component_name":"_ZNK7android8hardware4gnss4V1_06IAGnss8isRemoteEv"
    },
    {
     "mangled_component_name":"_ZN7android8hardware4gnss4V1_07BsAGnss14interfaceChainENSt3__18functionIFvRKNS0_8hidl_vecINS0_11hidl_stringEEEEEE"
    },
    {
     "mangled_component_name":"_ZN7android8hardware4gnss4V1_07BsAGnss5debugERKNS0_11hidl_handleERKNS0_8hidl_vecINS0_11hidl_stringEEE"
    },
    {
     "mangled_component_name":"_ZN7android8hardware4gnss4V1_07BsAGnss19interfaceDescriptorENSt3__18functionIFvRKNS0_11hidl_stringEEEE"
    },
    {
     "mangled_component_name":"_ZN7android8hardware4gnss4V1_07BsAGnss12getHashChainENSt3__18functionIFvRKNS0_8hidl_vecINS0_10hidl_arrayIhLm32EJEEEEEEEE"
    },
    {
     "mangled_component_name":"_ZN7android8hardware4gnss4V1_07BsAGnss21setHALInstrumentationEv"
    },
    {
     "mangled_component_name":"_ZN7android8hardware4gnss4V1_07BsAGnss11linkToDeathERKNS_2spINS0_20hidl_death_recipientEEEm"
    },
    {
     "mangled_component_name":"_ZN7android8hardware4gnss4V1_07BsAGnss4pingEv"
    },
    {
     "mangled_component_name":"_ZN7android8hardware4gnss4V1_07BsAGnss12getDebugInfoENSt3__18functionIFvRKNS_4hidl4base4V1_09DebugInfoEEEE"
    },
    {
     "mangled_component_name":"_ZN7android8hardware4gnss4V1_07BsAGnss21notifySyspropsChangedEv"
    },
    {
     "mangled_component_name":"_ZN7android8hardware4gnss4V1_07BsAGnss13unlinkToDeathERKNS_2spINS0_20hidl_death_recipientEEE"
    },
    {
     "kind":"complete_dtor_pointer",
     "mangled_component_name":"_ZN7android8hardware4gnss4V1_07BsAGnssD1Ev"
    },
    {
     "kind":"deleting_dtor_pointer",
     "mangled_component_name":"_ZN7android8hardware4gnss4V1_07BsAGnssD0Ev"
    },
    {
     "mangled_component_name":"_ZN7android8hardware4gnss4V1_07BsAGnss11setCallbackERKNS_2spINS2_14IAGnssCallbackEEE"
    },
    {
     "mangled_component_name":"_ZN7android8hardware4gnss4V1_07BsAGnss14dataConnClosedEv"
    },
    {
     "mangled_component_name":"_ZN7android8hardware4gnss4V1_07BsAGnss14dataConnFailedEv"
    },
    {
     "mangled_component_name":"_ZN7android8hardware4gnss4V1_07BsAGnss9setServerENS2_14IAGnssCallback9AGnssTypeERKNS0_11hidl_stringEi"
    },
    {
     "mangled_component_name":"_ZN7android8hardware4gnss4V1_07BsAGnss12dataConnOpenERKNS0_11hidl_stringENS2_6IAGnss9ApnIpTypeE"
    },
    {
     "kind":"offset_to_top",
     "component_value":-8
    },
    {
     "kind":"rtti",
     "mangled_component_name":"_ZTIN7android8hardware4gnss4V1_07BsAGnssE"
    },
    {
     "kind":"complete_dtor_pointer",
     "mangled_component_name":"_ZThn8_N7android8hardware4gnss4V1_07BsAGnssD1Ev"
    },
    {
     "kind":"deleting_dtor_pointer",
     "mangled_component_name":"_ZThn8_N7android8hardware4gnss4V1_07BsAGnssD0Ev"
    },
    {
     "kind":"vcall_offset"
    },
    {
     "kind":"vcall_offset"
    },
    {
     "kind":"vcall_offset"
    },
    {
     "kind":"vcall_offset"
    },
    {
     "kind":"vcall_offset",
     "component_value":-120
    },
    {
     "kind":"offset_to_top",
     "component_value":-120
    },
    {
     "kind":"rtti",
     "mangled_component_name":"_ZTIN7android8hardware4gnss4V1_07BsAGnssE"
    },
    {
     "kind":"complete_dtor_pointer",
     "mangled_component_name":"_ZTv0_n24_N7android8hardware4gnss4V1_07BsAGnssD1Ev"
    },
    {
     "kind":"deleting_dtor_pointer",
     "mangled_component_name":"_ZTv0_n24_N7android8hardware4gnss4V1_07BsAGnssD0Ev"
    },
    {
     "mangled_component_name":"_ZN7android7RefBase10onFirstRefEv"
    },
    {
     "mangled_component_name":"_ZN7android7RefBase15onLastStrongRefEPKv"
    },
    {
     "mangled_component_name":"_ZN7android7RefBase20onIncStrongAttemptedEjPKv"
    },
    {
     "mangled_component_name":"_ZN7android7RefBase13onLastWeakRefEPKv"
    }
   ],
   "unique_id":"_ZTSN7android8hardware4gnss4V1_07BsAGnssE"
  },
  {
   "vtable_components":[
    {
     "kind":"vbase_offset",
     "component_value":120
    },
    {
     "kind":"offset_to_top"
    },
    {
     "kind":"rtti",
     "mangled_component_name":"_ZTIN7android8hardware4gnss4V1_025BsGnssMeasurementCallbackE"
    },
    {
     "mangled_component_name":"_ZNK7android8hardware4gnss4V1_024IGnssMeasurementCallback8isRemoteEv"
    },
    {
     "mangled_component_name":"_ZN7android8hardware4gnss4V1_025BsGnssMeasurementCallback14interfaceChainENSt3__18functionIFvRKNS0_8hidl_vecINS0_11hidl_stringEEEEEE"
    },
    {
     "mangled_component_name":"_ZN7android8hardware4gnss4V1_025BsGnssMeasurementCallback5debugERKNS0_11hidl_handleERKNS0_8hidl_vecINS0_11hidl_stringEEE"
    },
    {
     "mangled_component_name":"_ZN7android8hardware4gnss4V1_025BsGnssMeasurementCallback19interfaceDescriptorENSt3__18functionIFvRKNS0_11hidl_stringEEEE"
    },
    {
     "mangled_component_name":"_ZN7android8hardware4gnss4V1_025BsGnssMeasurementCallback12getHashChainENSt3__18functionIFvRKNS0_8hidl_vecINS0_10hidl_arrayIhLm32EJEEEEEEEE"
    },
    {
     "mangled_component_name":"_ZN7android8hardware4gnss4V1_025BsGnssMeasurementCallback21setHALInstrumentationEv"
    },
    {
     "mangled_component_name":"_ZN7android8hardware4gnss4V1_025BsGnssMeasurementCallback11linkToDeathERKNS_2spINS0_20hidl_death_recipientEEEm"
    },
    {
     "mangled_component_name":"_ZN7android8hardware4gnss4V1_025BsGnssMeasurementCallback4pingEv"
    },
    {
     "mangled_component_name":"_ZN7android8hardware4gnss4V1_025BsGnssMeasurementCallback12getDebugInfoENSt3__18functionIFvRKNS_4hidl4base4V1_09DebugInfoEEEE"
    },
    {
     "mangled_component_name":"_ZN7android8hardware4gnss4V1_025BsGnssMeasurementCallback21notifySyspropsChangedEv"
    },
    {
     "mangled_component_name":"_ZN7android8hardware4gnss4V1_025BsGnssMeasurementCallback13unlinkToDeathERKNS_2spINS0_20hidl_death_recipientEEE"
    },
    {
     "kind":"complete_dtor_pointer",
     "mangled_component_name":"_ZN7android8hardware4gnss4V1_025BsGnssMeasurementCallbackD1Ev"
    },
    {
     "kind":"deleting_dtor_pointer",
     "mangled_component_name":"_ZN7android8hardware4gnss4V1_025BsGnssMeasurementCallbackD0Ev"
    },
    {
     "mangled_component_name":"_ZN7android8hardware4gnss4V1_025BsGnssMeasurementCallback17GnssMeasurementCbERKNS2_24IGnssMeasurementCallback8GnssDataE"
    },
    {
     "kind":"offset_to_top",
     "component_value":-8
    },
    {
     "kind":"rtti",
     "mangled_component_name":"_ZTIN7android8hardware4gnss4V1_025BsGnssMeasurementCallbackE"
    },
    {
     "kind":"complete_dtor_pointer",
     "mangled_component_name":"_ZThn8_N7android8hardware4gnss4V1_025BsGnssMeasurementCallbackD1Ev"
    },
    {
     "kind":"deleting_dtor_pointer",
     "mangled_component_name":"_ZThn8_N7android8hardware4gnss4V1_025BsGnssMeasurementCallbackD0Ev"
    },
    {
     "kind":"vcall_offset"
    },
    {
     "kind":"vcall_offset"
    },
    {
     "kind":"vcall_offset"
    },
    {
     "kind":"vcall_offset"
    },
    {
     "kind":"vcall_offset",
     "component_value":-120
    },
    {
     "kind":"offset_to_top",
     "component_value":-120
    },
    {
     "kind":"rtti",
     "mangled_component_name":"_ZTIN7android8hardware4gnss4V1_025BsGnssMeasurementCallbackE"
    },
    {
     "kind":"complete_dtor_pointer",
     "mangled_component_name":"_ZTv0_n24_N7android8hardware4gnss4V1_025BsGnssMeasurementCallbackD1Ev"
    },
    {
     "kind":"deleting_dtor_pointer",
     "mangled_component_name":"_ZTv0_n24_N7android8hardware4gnss4V1_025BsGnssMeasurementCallbackD0Ev"
    },
    {
     "mangled_component_name":"_ZN7android7RefBase10onFirstRefEv"
    },
    {
     "mangled_component_name":"_ZN7android7RefBase15onLastStrongRefEPKv"
    },
    {
     "mangled_component_name":"_ZN7android7RefBase20onIncStrongAttemptedEjPKv"
    },
    {
     "mangled_component_name":"_ZN7android7RefBase13onLastWeakRefEPKv"
    }
   ],
   "unique_id":"_ZTSN7android8hardware4gnss4V1_025BsGnssMeasurementCallbackE"
  },
  {
   "vtable_components":[
    {
     "kind":"vbase_offset",
     "component_value":200
    },
    {
     "kind":"offset_to_top"
    },
    {
     "kind":"rtti",
     "mangled_component_name":"_ZTIN7android8hardware4gnss4V1_09BpHwAGnssE"
    },
    {
     "mangled_component_name":"_ZNK7android8hardware4gnss4V1_09BpHwAGnss8isRemoteEv"
    },
    {
     "mangled_component_name":"_ZN7android8hardware4gnss4V1_09BpHwAGnss14interfaceChainENSt3__18functionIFvRKNS0_8hidl_vecINS0_11hidl_stringEEEEEE"
    },
    {
     "mangled_component_name":"_ZN7android8hardware4gnss4V1_09BpHwAGnss5debugERKNS0_11hidl_handleERKNS0_8hidl_vecINS0_11hidl_stringEEE"
    },
    {
     "mangled_component_name":"_ZN7android8hardware4gnss4V1_09BpHwAGnss19interfaceDescriptorENSt3__18functionIFvRKNS0_11hidl_stringEEEE"
    },
    {
     "mangled_component_name":"_ZN7android8hardware4gnss4V1_09BpHwAGnss12getHashChainENSt3__18functionIFvRKNS0_8hidl_vecINS0_10hidl_arrayIhLm32EJEEEEEEEE"
    },
    {
     "mangled_component_name":"_ZN7android8hardware4gnss4V1_09BpHwAGnss21setHALInstrumentationEv"
    },
    {
     "mangled_component_name":"_ZN7android8hardware4gnss4V1_09BpHwAGnss11linkToDeathERKNS_2spINS0_20hidl_death_recipientEEEm"
    },
    {
     "mangled_component_name":"_ZN7android8hardware4gnss4V1_09BpHwAGnss4pingEv"
    },
    {
     "mangled_component_name":"_ZN7android8hardware4gnss4V1_09BpHwAGnss12getDebugInfoENSt3__18functionIFvRKNS_4hidl4base4V1_09DebugInfoEEEE"
    },
    {
     "mangled_component_name":"_ZN7android8hardware4gnss4V1_09BpHwAGnss21notifySyspropsChangedEv"
    },
    {
     "mangled_component_name":"_ZN7android8hardware4gnss4V1_09BpHwAGnss13unlinkToDeathERKNS_2spINS0_20hidl_death_recipientEEE"
    },
    {
     "kind":"complete_dtor_pointer",
     "mangled_component_name":"_ZN7android8hardware4gnss4V1_09BpHwAGnssD1Ev"
    },
    {
     "kind":"deleting_dtor_pointer",
     "mangled_component_name":"_ZN7android8hardware4gnss4V1_09BpHwAGnssD0Ev"
    },
    {
     "mangled_component_name":"_ZN7android8hardware4gnss4V1_09BpHwAGnss11setCallbackERKNS_2spINS2_14IAGnssCallbackEEE"
    },
    {
     "mangled_component_name":"_ZN7android8hardware4gnss4V1_09BpHwAGnss14dataConnClosedEv"
    },
    {
     "mangled_component_name":"_ZN7android8hardware4gnss4V1_09BpHwAGnss14dataConnFailedEv"
    },
    {
     "mangled_component_name":"_ZN7android8hardware4gnss4V1_09BpHwAGnss9setServerENS2_14IAGnssCallback9AGnssTypeERKNS0_11hidl_stringEi"
    },
    {
     "mangled_component_name":"_ZN7android8hardware4gnss4V1_09BpHwAGnss12dataConnOpenERKNS0_11hidl_stringENS2_6IAGnss9ApnIpTypeE"
    },
    {
     "mangled_component_name":"_ZN7android8hardware11BpInterfaceINS0_4gnss4V1_06IAGnssEE10onAsBinderEv"
    },
    {
     "kind":"vbase_offset",
     "component_value":192
    },
    {
     "kind":"offset_to_top",
     "component_value":-8
    },
    {
     "kind":"rtti",
     "mangled_component_name":"_ZTIN7android8hardware4gnss4V1_09BpHwAGnssE"
    },
    {
     "kind":"complete_dtor_pointer",
     "mangled_component_name":"_ZThn8_N7android8hardware4gnss4V1_09BpHwAGnssD1Ev"
    },
    {
     "kind":"deleting_dtor_pointer",
     "mangled_component_name":"_ZThn8_N7android8hardware4gnss4V1_09BpHwAGnssD0Ev"
    },
    {
     "mangled_component_name":"_ZThn8_N7android8hardware11BpInterfaceINS0_4gnss4V1_06IAGnssEE10onAsBinderEv"
    },
    {
     "kind":"vbase_offset",
     "component_value":184
    },
    {
     "kind":"offset_to_top",
     "component_value":-16
    },
    {
     "kind":"rtti",
     "mangled_component_name":"_ZTIN7android8hardware4gnss4V1_09BpHwAGnssE"
    },
    {
     "kind":"complete_dtor_pointer",
     "mangled_component_name":"_ZThn16_N7android8hardware4gnss4V1_09BpHwAGnssD1Ev"
    },
    {
     "kind":"deleting_dtor_pointer",
     "mangled_component_name":"_ZThn16_N7android8hardware4gnss4V1_09BpHwAGnssD0Ev"
    },
    {
     "mangled_component_name":"_ZN7android8hardware11BpHwRefBase10onFirstRefEv"
    },
    {
     "mangled_component_name":"_ZN7android8hardware11BpHwRefBase15onLastStrongRefEPKv"
    },
    {
     "mangled_component_name":"_ZN7android8hardware11BpHwRefBase20onIncStrongAttemptedEjPKv"
    },
    {
     "kind":"offset_to_top",
     "component_value":-48
    },
    {
     "kind":"rtti",
     "mangled_component_name":"_ZTIN7android8hardware4gnss4V1_09BpHwAGnssE"
    },
    {
     "kind":"complete_dtor_pointer",
     "mangled_component_name":"_ZThn48_N7android8hardware4gnss4V1_09BpHwAGnssD1Ev"
    },
    {
     "kind":"deleting_dtor_pointer",
     "mangled_component_name":"_ZThn48_N7android8hardware4gnss4V1_09BpHwAGnssD0Ev"
    },
    {
     "kind":"vcall_offset"
    },
    {
     "kind":"vcall_offset",
     "component_value":-184
    },
    {
     "kind":"vcall_offset",
     "component_value":-184
    },
    {
     "kind":"vcall_offset",
     "component_value":-184
    },
    {
     "kind":"vcall_offset",
     "component_value":-200
    },
    {
     "kind":"offset_to_top",
     "component_value":-200
    },
    {
     "kind":"rtti",
     "mangled_component_name":"_ZTIN7android8hardware4gnss4V1_09BpHwAGnssE"
    },
    {
     "kind":"complete_dtor_pointer",
     "mangled_component_name":"_ZTv0_n24_N7android8hardware4gnss4V1_09BpHwAGnssD1Ev"
    },
    {
     "kind":"deleting_dtor_pointer",
     "mangled_component_name":"_ZTv0_n24_N7android8hardware4gnss4V1_09BpHwAGnssD0Ev"
    },
    {
     "mangled_component_name":"_ZTv0_n32_N7android8hardware11BpHwRefBase10onFirstRefEv"
    },
    {
     "mangled_component_name":"_ZTv0_n40_N7android8hardware11BpHwRefBase15onLastStrongRefEPKv"
    },
    {
     "mangled_component_name":"_ZTv0_n48_N7android8hardware11BpHwRefBase20onIncStrongAttemptedEjPKv"
    },
    {
     "mangled_component_name":"_ZN7android7RefBase13onLastWeakRefEPKv"
    }
   ],
   "unique_id":"_ZTSN7android8hardware4gnss4V1_09BpHwAGnssE"
  },
  {
   "vtable_components":[
    {
     "kind":"vbase_offset",
     "component_value":120
    },
    {
     "kind":"offset_to_top"
    },
    {
     "kind":"rtti",
     "mangled_component_name":"_ZTIN7android8hardware4gnss4V1_015BsAGnssCallbackE"
    },
    {
     "mangled_component_name":"_ZNK7android8hardware4gnss4V1_014IAGnssCallback8isRemoteEv"
    },
    {
     "mangled_component_name":"_ZN7android8hardware4gnss4V1_015BsAGnssCallback14interfaceChainENSt3__18functionIFvRKNS0_8hidl_vecINS0_11hidl_stringEEEEEE"
    },
    {
     "mangled_component_name":"_ZN7android8hardware4gnss4V1_015BsAGnssCallback5debugERKNS0_11hidl_handleERKNS0_8hidl_vecINS0_11hidl_stringEEE"
    },
    {
     "mangled_component_name":"_ZN7android8hardware4gnss4V1_015BsAGnssCallback19interfaceDescriptorENSt3__18functionIFvRKNS0_11hidl_stringEEEE"
    },
    {
     "mangled_component_name":"_ZN7android8hardware4gnss4V1_015BsAGnssCallback12getHashChainENSt3__18functionIFvRKNS0_8hidl_vecINS0_10hidl_arrayIhLm32EJEEEEEEEE"
    },
    {
     "mangled_component_name":"_ZN7android8hardware4gnss4V1_015BsAGnssCallback21setHALInstrumentationEv"
    },
    {
     "mangled_component_name":"_ZN7android8hardware4gnss4V1_015BsAGnssCallback11linkToDeathERKNS_2spINS0_20hidl_death_recipientEEEm"
    },
    {
     "mangled_component_name":"_ZN7android8hardware4gnss4V1_015BsAGnssCallback4pingEv"
    },
    {
     "mangled_component_name":"_ZN7android8hardware4gnss4V1_015BsAGnssCallback12getDebugInfoENSt3__18functionIFvRKNS_4hidl4base4V1_09DebugInfoEEEE"
    },
    {
     "mangled_component_name":"_ZN7android8hardware4gnss4V1_015BsAGnssCallback21notifySyspropsChangedEv"
    },
    {
     "mangled_component_name":"_ZN7android8hardware4gnss4V1_015BsAGnssCallback13unlinkToDeathERKNS_2spINS0_20hidl_death_recipientEEE"
    },
    {
     "kind":"complete_dtor_pointer",
     "mangled_component_name":"_ZN7android8hardware4gnss4V1_015BsAGnssCallbackD1Ev"
    },
    {
     "kind":"deleting_dtor_pointer",
     "mangled_component_name":"_ZN7android8hardware4gnss4V1_015BsAGnssCallbackD0Ev"
    },
    {
     "mangled_component_name":"_ZN7android8hardware4gnss4V1_015BsAGnssCallback17agnssStatusIpV4CbERKNS2_14IAGnssCallback15AGnssStatusIpV4E"
    },
    {
     "mangled_component_name":"_ZN7android8hardware4gnss4V1_015BsAGnssCallback17agnssStatusIpV6CbERKNS2_14IAGnssCallback15AGnssStatusIpV6E"
    },
    {
     "kind":"offset_to_top",
     "component_value":-8
    },
    {
     "kind":"rtti",
     "mangled_component_name":"_ZTIN7android8hardware4gnss4V1_015BsAGnssCallbackE"
    },
    {
     "kind":"complete_dtor_pointer",
     "mangled_component_name":"_ZThn8_N7android8hardware4gnss4V1_015BsAGnssCallbackD1Ev"
    },
    {
     "kind":"deleting_dtor_pointer",
     "mangled_component_name":"_ZThn8_N7android8hardware4gnss4V1_015BsAGnssCallbackD0Ev"
    },
    {
     "kind":"vcall_offset"
    },
    {
     "kind":"vcall_offset"
    },
    {
     "kind":"vcall_offset"
    },
    {
     "kind":"vcall_offset"
    },
    {
     "kind":"vcall_offset",
     "component_value":-120
    },
    {
     "kind":"offset_to_top",
     "component_value":-120
    },
    {
     "kind":"rtti",
     "mangled_component_name":"_ZTIN7android8hardware4gnss4V1_015BsAGnssCallbackE"
    },
    {
     "kind":"complete_dtor_pointer",
     "mangled_component_name":"_ZTv0_n24_N7android8hardware4gnss4V1_015BsAGnssCallbackD1Ev"
    },
    {
     "kind":"deleting_dtor_pointer",
     "mangled_component_name":"_ZTv0_n24_N7android8hardware4gnss4V1_015BsAGnssCallbackD0Ev"
    },
    {
     "mangled_component_name":"_ZN7android7RefBase10onFirstRefEv"
    },
    {
     "mangled_component_name":"_ZN7android7RefBase15onLastStrongRefEPKv"
    },
    {
     "mangled_component_name":"_ZN7android7RefBase20onIncStrongAttemptedEjPKv"
    },
    {
     "mangled_component_name":"_ZN7android7RefBase13onLastWeakRefEPKv"
    }
   ],
   "unique_id":"_ZTSN7android8hardware4gnss4V1_015BsAGnssCallbackE"
  },
  {
   "vtable_components":[
    {
     "kind":"vbase_offset",
     "component_value":120
    },
    {
     "kind":"offset_to_top"
    },
    {
     "kind":"rtti",
     "mangled_component_name":"_ZTIN7android8hardware4gnss4V1_018BsAGnssRilCallbackE"
    },
    {
     "mangled_component_name":"_ZNK7android8hardware4gnss4V1_017IAGnssRilCallback8isRemoteEv"
    },
    {
     "mangled_component_name":"_ZN7android8hardware4gnss4V1_018BsAGnssRilCallback14interfaceChainENSt3__18functionIFvRKNS0_8hidl_vecINS0_11hidl_stringEEEEEE"
    },
    {
     "mangled_component_name":"_ZN7android8hardware4gnss4V1_018BsAGnssRilCallback5debugERKNS0_11hidl_handleERKNS0_8hidl_vecINS0_11hidl_stringEEE"
    },
    {
     "mangled_component_name":"_ZN7android8hardware4gnss4V1_018BsAGnssRilCallback19interfaceDescriptorENSt3__18functionIFvRKNS0_11hidl_stringEEEE"
    },
    {
     "mangled_component_name":"_ZN7android8hardware4gnss4V1_018BsAGnssRilCallback12getHashChainENSt3__18functionIFvRKNS0_8hidl_vecINS0_10hidl_arrayIhLm32EJEEEEEEEE"
    },
    {
     "mangled_component_name":"_ZN7android8hardware4gnss4V1_018BsAGnssRilCallback21setHALInstrumentationEv"
    },
    {
     "mangled_component_name":"_ZN7android8hardware4gnss4V1_018BsAGnssRilCallback11linkToDeathERKNS_2spINS0_20hidl_death_recipientEEEm"
    },
    {
     "mangled_component_name":"_ZN7android8hardware4gnss4V1_018BsAGnssRilCallback4pingEv"
    },
    {
     "mangled_component_name":"_ZN7android8hardware4gnss4V1_018BsAGnssRilCallback12getDebugInfoENSt3__18functionIFvRKNS_4hidl4base4V1_09DebugInfoEEEE"
    },
    {
     "mangled_component_name":"_ZN7android8hardware4gnss4V1_018BsAGnssRilCallback21notifySyspropsChangedEv"
    },
    {
     "mangled_component_name":"_ZN7android8hardware4gnss4V1_018BsAGnssRilCallback13unlinkToDeathERKNS_2spINS0_20hidl_death_recipientEEE"
    },
    {
     "kind":"complete_dtor_pointer",
     "mangled_component_name":"_ZN7android8hardware4gnss4V1_018BsAGnssRilCallbackD1Ev"
    },
    {
     "kind":"deleting_dtor_pointer",
     "mangled_component_name":"_ZN7android8hardware4gnss4V1_018BsAGnssRilCallbackD0Ev"
    },
    {
     "mangled_component_name":"_ZN7android8hardware4gnss4V1_018BsAGnssRilCallback14requestSetIdCbEj"
    },
    {
     "mangled_component_name":"_ZN7android8hardware4gnss4V1_018BsAGnssRilCallback15requestRefLocCbEv"
    },
    {
     "kind":"offset_to_top",
     "component_value":-8
    },
    {
     "kind":"rtti",
     "mangled_component_name":"_ZTIN7android8hardware4gnss4V1_018BsAGnssRilCallbackE"
    },
    {
     "kind":"complete_dtor_pointer",
     "mangled_component_name":"_ZThn8_N7android8hardware4gnss4V1_018BsAGnssRilCallbackD1Ev"
    },
    {
     "kind":"deleting_dtor_pointer",
     "mangled_component_name":"_ZThn8_N7android8hardware4gnss4V1_018BsAGnssRilCallbackD0Ev"
    },
    {
     "kind":"vcall_offset"
    },
    {
     "kind":"vcall_offset"
    },
    {
     "kind":"vcall_offset"
    },
    {
     "kind":"vcall_offset"
    },
    {
     "kind":"vcall_offset",
     "component_value":-120
    },
    {
     "kind":"offset_to_top",
     "component_value":-120
    },
    {
     "kind":"rtti",
     "mangled_component_name":"_ZTIN7android8hardware4gnss4V1_018BsAGnssRilCallbackE"
    },
    {
     "kind":"complete_dtor_pointer",
     "mangled_component_name":"_ZTv0_n24_N7android8hardware4gnss4V1_018BsAGnssRilCallbackD1Ev"
    },
    {
     "kind":"deleting_dtor_pointer",
     "mangled_component_name":"_ZTv0_n24_N7android8hardware4gnss4V1_018BsAGnssRilCallbackD0Ev"
    },
    {
     "mangled_component_name":"_ZN7android7RefBase10onFirstRefEv"
    },
    {
     "mangled_component_name":"_ZN7android7RefBase15onLastStrongRefEPKv"
    },
    {
     "mangled_component_name":"_ZN7android7RefBase20onIncStrongAttemptedEjPKv"
    },
    {
     "mangled_component_name":"_ZN7android7RefBase13onLastWeakRefEPKv"
    }
   ],
   "unique_id":"_ZTSN7android8hardware4gnss4V1_018BsAGnssRilCallbackE"
  },
  {
   "vtable_components":[
    {
     "kind":"vbase_offset",
     "component_value":8
    },
    {
     "kind":"offset_to_top"
    },
    {
     "kind":"rtti",
     "mangled_component_name":"_ZTIN7android8hardware4gnss4V1_014IAGnssCallbackE"
    },
    {
     "mangled_component_name":"_ZNK7android8hardware4gnss4V1_014IAGnssCallback8isRemoteEv"
    },
    {
     "mangled_component_name":"_ZN7android8hardware4gnss4V1_014IAGnssCallback14interfaceChainENSt3__18functionIFvRKNS0_8hidl_vecINS0_11hidl_stringEEEEEE"
    },
    {
     "mangled_component_name":"_ZN7android8hardware4gnss4V1_014IAGnssCallback5debugERKNS0_11hidl_handleERKNS0_8hidl_vecINS0_11hidl_stringEEE"
    },
    {
     "mangled_component_name":"_ZN7android8hardware4gnss4V1_014IAGnssCallback19interfaceDescriptorENSt3__18functionIFvRKNS0_11hidl_stringEEEE"
    },
    {
     "mangled_component_name":"_ZN7android8hardware4gnss4V1_014IAGnssCallback12getHashChainENSt3__18functionIFvRKNS0_8hidl_vecINS0_10hidl_arrayIhLm32EJEEEEEEEE"
    },
    {
     "mangled_component_name":"_ZN7android8hardware4gnss4V1_014IAGnssCallback21setHALInstrumentationEv"
    },
    {
     "mangled_component_name":"_ZN7android8hardware4gnss4V1_014IAGnssCallback11linkToDeathERKNS_2spINS0_20hidl_death_recipientEEEm"
    },
    {
     "mangled_component_name":"_ZN7android8hardware4gnss4V1_014IAGnssCallback4pingEv"
    },
    {
     "mangled_component_name":"_ZN7android8hardware4gnss4V1_014IAGnssCallback12getDebugInfoENSt3__18functionIFvRKNS_4hidl4base4V1_09DebugInfoEEEE"
    },
    {
     "mangled_component_name":"_ZN7android8hardware4gnss4V1_014IAGnssCallback21notifySyspropsChangedEv"
    },
    {
     "mangled_component_name":"_ZN7android8hardware4gnss4V1_014IAGnssCallback13unlinkToDeathERKNS_2spINS0_20hidl_death_recipientEEE"
    },
    {
     "kind":"complete_dtor_pointer",
     "mangled_component_name":"_ZN7android8hardware4gnss4V1_014IAGnssCallbackD1Ev"
    },
    {
     "kind":"deleting_dtor_pointer",
     "mangled_component_name":"_ZN7android8hardware4gnss4V1_014IAGnssCallbackD0Ev"
    },
    {
     "is_pure":true,
     "mangled_component_name":"_ZN7android8hardware4gnss4V1_014IAGnssCallback17agnssStatusIpV4CbERKNS3_15AGnssStatusIpV4E"
    },
    {
     "is_pure":true,
     "mangled_component_name":"_ZN7android8hardware4gnss4V1_014IAGnssCallback17agnssStatusIpV6CbERKNS3_15AGnssStatusIpV6E"
    },
    {
     "kind":"vcall_offset"
    },
    {
     "kind":"vcall_offset"
    },
    {
     "kind":"vcall_offset"
    },
    {
     "kind":"vcall_offset"
    },
    {
     "kind":"vcall_offset",
     "component_value":-8
    },
    {
     "kind":"offset_to_top",
     "component_value":-8
    },
    {
     "kind":"rtti",
     "mangled_component_name":"_ZTIN7android8hardware4gnss4V1_014IAGnssCallbackE"
    },
    {
     "kind":"complete_dtor_pointer",
     "mangled_component_name":"_ZTv0_n24_N7android8hardware4gnss4V1_014IAGnssCallbackD1Ev"
    },
    {
     "kind":"deleting_dtor_pointer",
     "mangled_component_name":"_ZTv0_n24_N7android8hardware4gnss4V1_014IAGnssCallbackD0Ev"
    },
    {
     "mangled_component_name":"_ZN7android7RefBase10onFirstRefEv"
    },
    {
     "mangled_component_name":"_ZN7android7RefBase15onLastStrongRefEPKv"
    },
    {
     "mangled_component_name":"_ZN7android7RefBase20onIncStrongAttemptedEjPKv"
    },
    {
     "mangled_component_name":"_ZN7android7RefBase13onLastWeakRefEPKv"
    }
   ],
   "unique_id":"_ZTSN7android8hardware4gnss4V1_014IAGnssCallbackE"
  },
  {
   "vtable_components":[
    {
     "kind":"vbase_offset",
     "component_value":200
    },
    {
     "kind":"offset_to_top"
    },
    {
     "kind":"rtti",
     "mangled_component_name":"_ZTIN7android8hardware4gnss4V1_017BpHwAGnssCallbackE"
    },
    {
     "mangled_component_name":"_ZNK7android8hardware4gnss4V1_017BpHwAGnssCallback8isRemoteEv"
    },
    {
     "mangled_component_name":"_ZN7android8hardware4gnss4V1_017BpHwAGnssCallback14interfaceChainENSt3__18functionIFvRKNS0_8hidl_vecINS0_11hidl_stringEEEEEE"
    },
    {
     "mangled_component_name":"_ZN7android8hardware4gnss4V1_017BpHwAGnssCallback5debugERKNS0_11hidl_handleERKNS0_8hidl_vecINS0_11hidl_stringEEE"
    },
    {
     "mangled_component_name":"_ZN7android8hardware4gnss4V1_017BpHwAGnssCallback19interfaceDescriptorENSt3__18functionIFvRKNS0_11hidl_stringEEEE"
    },
    {
     "mangled_component_name":"_ZN7android8hardware4gnss4V1_017BpHwAGnssCallback12getHashChainENSt3__18functionIFvRKNS0_8hidl_vecINS0_10hidl_arrayIhLm32EJEEEEEEEE"
    },
    {
     "mangled_component_name":"_ZN7android8hardware4gnss4V1_017BpHwAGnssCallback21setHALInstrumentationEv"
    },
    {
     "mangled_component_name":"_ZN7android8hardware4gnss4V1_017BpHwAGnssCallback11linkToDeathERKNS_2spINS0_20hidl_death_recipientEEEm"
    },
    {
     "mangled_component_name":"_ZN7android8hardware4gnss4V1_017BpHwAGnssCallback4pingEv"
    },
    {
     "mangled_component_name":"_ZN7android8hardware4gnss4V1_017BpHwAGnssCallback12getDebugInfoENSt3__18functionIFvRKNS_4hidl4base4V1_09DebugInfoEEEE"
    },
    {
     "mangled_component_name":"_ZN7android8hardware4gnss4V1_017BpHwAGnssCallback21notifySyspropsChangedEv"
    },
    {
     "mangled_component_name":"_ZN7android8hardware4gnss4V1_017BpHwAGnssCallback13unlinkToDeathERKNS_2spINS0_20hidl_death_recipientEEE"
    },
    {
     "kind":"complete_dtor_pointer",
     "mangled_component_name":"_ZN7android8hardware4gnss4V1_017BpHwAGnssCallbackD1Ev"
    },
    {
     "kind":"deleting_dtor_pointer",
     "mangled_component_name":"_ZN7android8hardware4gnss4V1_017BpHwAGnssCallbackD0Ev"
    },
    {
     "mangled_component_name":"_ZN7android8hardware4gnss4V1_017BpHwAGnssCallback17agnssStatusIpV4CbERKNS2_14IAGnssCallback15AGnssStatusIpV4E"
    },
    {
     "mangled_component_name":"_ZN7android8hardware4gnss4V1_017BpHwAGnssCallback17agnssStatusIpV6CbERKNS2_14IAGnssCallback15AGnssStatusIpV6E"
    },
    {
     "mangled_component_name":"_ZN7android8hardware11BpInterfaceINS0_4gnss4V1_014IAGnssCallbackEE10onAsBinderEv"
    },
    {
     "kind":"vbase_offset",
     "component_value":192
    },
    {
     "kind":"offset_to_top",
     "component_value":-8
    },
    {
     "kind":"rtti",
     "mangled_component_name":"_ZTIN7android8hardware4gnss4V1_017BpHwAGnssCallbackE"
    },
    {
     "kind":"complete_dtor_pointer",
     "mangled_component_name":"_ZThn8_N7android8hardware4gnss4V1_017BpHwAGnssCallbackD1Ev"
    },
    {
     "kind":"deleting_dtor_pointer",
     "mangled_component_name":"_ZThn8_N7android8hardware4gnss4V1_017BpHwAGnssCallbackD0Ev"
    },
    {
     "mangled_component_name":"_ZThn8_N7android8hardware11BpInterfaceINS0_4gnss4V1_014IAGnssCallbackEE10onAsBinderEv"
    },
    {
     "kind":"vbase_offset",
     "component_value":184
    },
    {
     "kind":"offset_to_top",
     "component_value":-16
    },
    {
     "kind":"rtti",
     "mangled_component_name":"_ZTIN7android8hardware4gnss4V1_017BpHwAGnssCallbackE"
    },
    {
     "kind":"complete_dtor_pointer",
     "mangled_component_name":"_ZThn16_N7android8hardware4gnss4V1_017BpHwAGnssCallbackD1Ev"
    },
    {
     "kind":"deleting_dtor_pointer",
     "mangled_component_name":"_ZThn16_N7android8hardware4gnss4V1_017BpHwAGnssCallbackD0Ev"
    },
    {
     "mangled_component_name":"_ZN7android8hardware11BpHwRefBase10onFirstRefEv"
    },
    {
     "mangled_component_name":"_ZN7android8hardware11BpHwRefBase15onLastStrongRefEPKv"
    },
    {
     "mangled_component_name":"_ZN7android8hardware11BpHwRefBase20onIncStrongAttemptedEjPKv"
    },
    {
     "kind":"offset_to_top",
     "component_value":-48
    },
    {
     "kind":"rtti",
     "mangled_component_name":"_ZTIN7android8hardware4gnss4V1_017BpHwAGnssCallbackE"
    },
    {
     "kind":"complete_dtor_pointer",
     "mangled_component_name":"_ZThn48_N7android8hardware4gnss4V1_017BpHwAGnssCallbackD1Ev"
    },
    {
     "kind":"deleting_dtor_pointer",
     "mangled_component_name":"_ZThn48_N7android8hardware4gnss4V1_017BpHwAGnssCallbackD0Ev"
    },
    {
     "kind":"vcall_offset"
    },
    {
     "kind":"vcall_offset",
     "component_value":-184
    },
    {
     "kind":"vcall_offset",
     "component_value":-184
    },
    {
     "kind":"vcall_offset",
     "component_value":-184
    },
    {
     "kind":"vcall_offset",
     "component_value":-200
    },
    {
     "kind":"offset_to_top",
     "component_value":-200
    },
    {
     "kind":"rtti",
     "mangled_component_name":"_ZTIN7android8hardware4gnss4V1_017BpHwAGnssCallbackE"
    },
    {
     "kind":"complete_dtor_pointer",
     "mangled_component_name":"_ZTv0_n24_N7android8hardware4gnss4V1_017BpHwAGnssCallbackD1Ev"
    },
    {
     "kind":"deleting_dtor_pointer",
     "mangled_component_name":"_ZTv0_n24_N7android8hardware4gnss4V1_017BpHwAGnssCallbackD0Ev"
    },
    {
     "mangled_component_name":"_ZTv0_n32_N7android8hardware11BpHwRefBase10onFirstRefEv"
    },
    {
     "mangled_component_name":"_ZTv0_n40_N7android8hardware11BpHwRefBase15onLastStrongRefEPKv"
    },
    {
     "mangled_component_name":"_ZTv0_n48_N7android8hardware11BpHwRefBase20onIncStrongAttemptedEjPKv"
    },
    {
     "mangled_component_name":"_ZN7android7RefBase13onLastWeakRefEPKv"
    }
   ],
   "unique_id":"_ZTSN7android8hardware4gnss4V1_017BpHwAGnssCallbackE"
  },
  {
   "vtable_components":[
    {
     "kind":"vbase_offset",
     "component_value":8
    },
    {
     "kind":"offset_to_top"
    },
    {
     "kind":"rtti",
     "mangled_component_name":"_ZTIN7android8hardware4gnss4V1_06IAGnssE"
    },
    {
     "mangled_component_name":"_ZNK7android8hardware4gnss4V1_06IAGnss8isRemoteEv"
    },
    {
     "mangled_component_name":"_ZN7android8hardware4gnss4V1_06IAGnss14interfaceChainENSt3__18functionIFvRKNS0_8hidl_vecINS0_11hidl_stringEEEEEE"
    },
    {
     "mangled_component_name":"_ZN7android8hardware4gnss4V1_06IAGnss5debugERKNS0_11hidl_handleERKNS0_8hidl_vecINS0_11hidl_stringEEE"
    },
    {
     "mangled_component_name":"_ZN7android8hardware4gnss4V1_06IAGnss19interfaceDescriptorENSt3__18functionIFvRKNS0_11hidl_stringEEEE"
    },
    {
     "mangled_component_name":"_ZN7android8hardware4gnss4V1_06IAGnss12getHashChainENSt3__18functionIFvRKNS0_8hidl_vecINS0_10hidl_arrayIhLm32EJEEEEEEEE"
    },
    {
     "mangled_component_name":"_ZN7android8hardware4gnss4V1_06IAGnss21setHALInstrumentationEv"
    },
    {
     "mangled_component_name":"_ZN7android8hardware4gnss4V1_06IAGnss11linkToDeathERKNS_2spINS0_20hidl_death_recipientEEEm"
    },
    {
     "mangled_component_name":"_ZN7android8hardware4gnss4V1_06IAGnss4pingEv"
    },
    {
     "mangled_component_name":"_ZN7android8hardware4gnss4V1_06IAGnss12getDebugInfoENSt3__18functionIFvRKNS_4hidl4base4V1_09DebugInfoEEEE"
    },
    {
     "mangled_component_name":"_ZN7android8hardware4gnss4V1_06IAGnss21notifySyspropsChangedEv"
    },
    {
     "mangled_component_name":"_ZN7android8hardware4gnss4V1_06IAGnss13unlinkToDeathERKNS_2spINS0_20hidl_death_recipientEEE"
    },
    {
     "kind":"complete_dtor_pointer",
     "mangled_component_name":"_ZN7android8hardware4gnss4V1_06IAGnssD1Ev"
    },
    {
     "kind":"deleting_dtor_pointer",
     "mangled_component_name":"_ZN7android8hardware4gnss4V1_06IAGnssD0Ev"
    },
    {
     "is_pure":true,
     "mangled_component_name":"_ZN7android8hardware4gnss4V1_06IAGnss11setCallbackERKNS_2spINS2_14IAGnssCallbackEEE"
    },
    {
     "is_pure":true,
     "mangled_component_name":"_ZN7android8hardware4gnss4V1_06IAGnss14dataConnClosedEv"
    },
    {
     "is_pure":true,
     "mangled_component_name":"_ZN7android8hardware4gnss4V1_06IAGnss14dataConnFailedEv"
    },
    {
     "is_pure":true,
     "mangled_component_name":"_ZN7android8hardware4gnss4V1_06IAGnss9setServerENS2_14IAGnssCallback9AGnssTypeERKNS0_11hidl_stringEi"
    },
    {
     "is_pure":true,
     "mangled_component_name":"_ZN7android8hardware4gnss4V1_06IAGnss12dataConnOpenERKNS0_11hidl_stringENS3_9ApnIpTypeE"
    },
    {
     "kind":"vcall_offset"
    },
    {
     "kind":"vcall_offset"
    },
    {
     "kind":"vcall_offset"
    },
    {
     "kind":"vcall_offset"
    },
    {
     "kind":"vcall_offset",
     "component_value":-8
    },
    {
     "kind":"offset_to_top",
     "component_value":-8
    },
    {
     "kind":"rtti",
     "mangled_component_name":"_ZTIN7android8hardware4gnss4V1_06IAGnssE"
    },
    {
     "kind":"complete_dtor_pointer",
     "mangled_component_name":"_ZTv0_n24_N7android8hardware4gnss4V1_06IAGnssD1Ev"
    },
    {
     "kind":"deleting_dtor_pointer",
     "mangled_component_name":"_ZTv0_n24_N7android8hardware4gnss4V1_06IAGnssD0Ev"
    },
    {
     "mangled_component_name":"_ZN7android7RefBase10onFirstRefEv"
    },
    {
     "mangled_component_name":"_ZN7android7RefBase15onLastStrongRefEPKv"
    },
    {
     "mangled_component_name":"_ZN7android7RefBase20onIncStrongAttemptedEjPKv"
    },
    {
     "mangled_component_name":"_ZN7android7RefBase13onLastWeakRefEPKv"
    }
   ],
   "unique_id":"_ZTSN7android8hardware4gnss4V1_06IAGnssE"
  },
  {
   "vtable_components":[
    {
     "kind":"vbase_offset",
     "component_value":120
    },
    {
     "kind":"offset_to_top"
    },
    {
     "kind":"rtti",
     "mangled_component_name":"_ZTIN7android8hardware4gnss4V1_023BsGnssNavigationMessageE"
    },
    {
     "mangled_component_name":"_ZNK7android8hardware4gnss4V1_022IGnssNavigationMessage8isRemoteEv"
    },
    {
     "mangled_component_name":"_ZN7android8hardware4gnss4V1_023BsGnssNavigationMessage14interfaceChainENSt3__18functionIFvRKNS0_8hidl_vecINS0_11hidl_stringEEEEEE"
    },
    {
     "mangled_component_name":"_ZN7android8hardware4gnss4V1_023BsGnssNavigationMessage5debugERKNS0_11hidl_handleERKNS0_8hidl_vecINS0_11hidl_stringEEE"
    },
    {
     "mangled_component_name":"_ZN7android8hardware4gnss4V1_023BsGnssNavigationMessage19interfaceDescriptorENSt3__18functionIFvRKNS0_11hidl_stringEEEE"
    },
    {
     "mangled_component_name":"_ZN7android8hardware4gnss4V1_023BsGnssNavigationMessage12getHashChainENSt3__18functionIFvRKNS0_8hidl_vecINS0_10hidl_arrayIhLm32EJEEEEEEEE"
    },
    {
     "mangled_component_name":"_ZN7android8hardware4gnss4V1_023BsGnssNavigationMessage21setHALInstrumentationEv"
    },
    {
     "mangled_component_name":"_ZN7android8hardware4gnss4V1_023BsGnssNavigationMessage11linkToDeathERKNS_2spINS0_20hidl_death_recipientEEEm"
    },
    {
     "mangled_component_name":"_ZN7android8hardware4gnss4V1_023BsGnssNavigationMessage4pingEv"
    },
    {
     "mangled_component_name":"_ZN7android8hardware4gnss4V1_023BsGnssNavigationMessage12getDebugInfoENSt3__18functionIFvRKNS_4hidl4base4V1_09DebugInfoEEEE"
    },
    {
     "mangled_component_name":"_ZN7android8hardware4gnss4V1_023BsGnssNavigationMessage21notifySyspropsChangedEv"
    },
    {
     "mangled_component_name":"_ZN7android8hardware4gnss4V1_023BsGnssNavigationMessage13unlinkToDeathERKNS_2spINS0_20hidl_death_recipientEEE"
    },
    {
     "kind":"complete_dtor_pointer",
     "mangled_component_name":"_ZN7android8hardware4gnss4V1_023BsGnssNavigationMessageD1Ev"
    },
    {
     "kind":"deleting_dtor_pointer",
     "mangled_component_name":"_ZN7android8hardware4gnss4V1_023BsGnssNavigationMessageD0Ev"
    },
    {
     "mangled_component_name":"_ZN7android8hardware4gnss4V1_023BsGnssNavigationMessage11setCallbackERKNS_2spINS2_30IGnssNavigationMessageCallbackEEE"
    },
    {
     "mangled_component_name":"_ZN7android8hardware4gnss4V1_023BsGnssNavigationMessage5closeEv"
    },
    {
     "kind":"offset_to_top",
     "component_value":-8
    },
    {
     "kind":"rtti",
     "mangled_component_name":"_ZTIN7android8hardware4gnss4V1_023BsGnssNavigationMessageE"
    },
    {
     "kind":"complete_dtor_pointer",
     "mangled_component_name":"_ZThn8_N7android8hardware4gnss4V1_023BsGnssNavigationMessageD1Ev"
    },
    {
     "kind":"deleting_dtor_pointer",
     "mangled_component_name":"_ZThn8_N7android8hardware4gnss4V1_023BsGnssNavigationMessageD0Ev"
    },
    {
     "kind":"vcall_offset"
    },
    {
     "kind":"vcall_offset"
    },
    {
     "kind":"vcall_offset"
    },
    {
     "kind":"vcall_offset"
    },
    {
     "kind":"vcall_offset",
     "component_value":-120
    },
    {
     "kind":"offset_to_top",
     "component_value":-120
    },
    {
     "kind":"rtti",
     "mangled_component_name":"_ZTIN7android8hardware4gnss4V1_023BsGnssNavigationMessageE"
    },
    {
     "kind":"complete_dtor_pointer",
     "mangled_component_name":"_ZTv0_n24_N7android8hardware4gnss4V1_023BsGnssNavigationMessageD1Ev"
    },
    {
     "kind":"deleting_dtor_pointer",
     "mangled_component_name":"_ZTv0_n24_N7android8hardware4gnss4V1_023BsGnssNavigationMessageD0Ev"
    },
    {
     "mangled_component_name":"_ZN7android7RefBase10onFirstRefEv"
    },
    {
     "mangled_component_name":"_ZN7android7RefBase15onLastStrongRefEPKv"
    },
    {
     "mangled_component_name":"_ZN7android7RefBase20onIncStrongAttemptedEjPKv"
    },
    {
     "mangled_component_name":"_ZN7android7RefBase13onLastWeakRefEPKv"
    }
   ],
   "unique_id":"_ZTSN7android8hardware4gnss4V1_023BsGnssNavigationMessageE"
  },
  {
   "vtable_components":[
    {
     "kind":"vbase_offset",
     "component_value":8
    },
    {
     "kind":"offset_to_top"
    },
    {
     "kind":"rtti",
     "mangled_component_name":"_ZTIN7android8hardware4gnss4V1_017IAGnssRilCallbackE"
    },
    {
     "mangled_component_name":"_ZNK7android8hardware4gnss4V1_017IAGnssRilCallback8isRemoteEv"
    },
    {
     "mangled_component_name":"_ZN7android8hardware4gnss4V1_017IAGnssRilCallback14interfaceChainENSt3__18functionIFvRKNS0_8hidl_vecINS0_11hidl_stringEEEEEE"
    },
    {
     "mangled_component_name":"_ZN7android8hardware4gnss4V1_017IAGnssRilCallback5debugERKNS0_11hidl_handleERKNS0_8hidl_vecINS0_11hidl_stringEEE"
    },
    {
     "mangled_component_name":"_ZN7android8hardware4gnss4V1_017IAGnssRilCallback19interfaceDescriptorENSt3__18functionIFvRKNS0_11hidl_stringEEEE"
    },
    {
     "mangled_component_name":"_ZN7android8hardware4gnss4V1_017IAGnssRilCallback12getHashChainENSt3__18functionIFvRKNS0_8hidl_vecINS0_10hidl_arrayIhLm32EJEEEEEEEE"
    },
    {
     "mangled_component_name":"_ZN7android8hardware4gnss4V1_017IAGnssRilCallback21setHALInstrumentationEv"
    },
    {
     "mangled_component_name":"_ZN7android8hardware4gnss4V1_017IAGnssRilCallback11linkToDeathERKNS_2spINS0_20hidl_death_recipientEEEm"
    },
    {
     "mangled_component_name":"_ZN7android8hardware4gnss4V1_017IAGnssRilCallback4pingEv"
    },
    {
     "mangled_component_name":"_ZN7android8hardware4gnss4V1_017IAGnssRilCallback12getDebugInfoENSt3__18functionIFvRKNS_4hidl4base4V1_09DebugInfoEEEE"
    },
    {
     "mangled_component_name":"_ZN7android8hardware4gnss4V1_017IAGnssRilCallback21notifySyspropsChangedEv"
    },
    {
     "mangled_component_name":"_ZN7android8hardware4gnss4V1_017IAGnssRilCallback13unlinkToDeathERKNS_2spINS0_20hidl_death_recipientEEE"
    },
    {
     "kind":"complete_dtor_pointer",
     "mangled_component_name":"_ZN7android8hardware4gnss4V1_017IAGnssRilCallbackD1Ev"
    },
    {
     "kind":"deleting_dtor_pointer",
     "mangled_component_name":"_ZN7android8hardware4gnss4V1_017IAGnssRilCallbackD0Ev"
    },
    {
     "is_pure":true,
     "mangled_component_name":"_ZN7android8hardware4gnss4V1_017IAGnssRilCallback14requestSetIdCbEj"
    },
    {
     "is_pure":true,
     "mangled_component_name":"_ZN7android8hardware4gnss4V1_017IAGnssRilCallback15requestRefLocCbEv"
    },
    {
     "kind":"vcall_offset"
    },
    {
     "kind":"vcall_offset"
    },
    {
     "kind":"vcall_offset"
    },
    {
     "kind":"vcall_offset"
    },
    {
     "kind":"vcall_offset",
     "component_value":-8
    },
    {
     "kind":"offset_to_top",
     "component_value":-8
    },
    {
     "kind":"rtti",
     "mangled_component_name":"_ZTIN7android8hardware4gnss4V1_017IAGnssRilCallbackE"
    },
    {
     "kind":"complete_dtor_pointer",
     "mangled_component_name":"_ZTv0_n24_N7android8hardware4gnss4V1_017IAGnssRilCallbackD1Ev"
    },
    {
     "kind":"deleting_dtor_pointer",
     "mangled_component_name":"_ZTv0_n24_N7android8hardware4gnss4V1_017IAGnssRilCallbackD0Ev"
    },
    {
     "mangled_component_name":"_ZN7android7RefBase10onFirstRefEv"
    },
    {
     "mangled_component_name":"_ZN7android7RefBase15onLastStrongRefEPKv"
    },
    {
     "mangled_component_name":"_ZN7android7RefBase20onIncStrongAttemptedEjPKv"
    },
    {
     "mangled_component_name":"_ZN7android7RefBase13onLastWeakRefEPKv"
    }
   ],
   "unique_id":"_ZTSN7android8hardware4gnss4V1_017IAGnssRilCallbackE"
  },
  {
   "vtable_components":[
    {
     "kind":"vbase_offset",
     "component_value":120
    },
    {
     "kind":"offset_to_top"
    },
    {
     "kind":"rtti",
     "mangled_component_name":"_ZTIN7android8hardware4gnss4V1_031BsGnssNavigationMessageCallbackE"
    },
    {
     "mangled_component_name":"_ZNK7android8hardware4gnss4V1_030IGnssNavigationMessageCallback8isRemoteEv"
    },
    {
     "mangled_component_name":"_ZN7android8hardware4gnss4V1_031BsGnssNavigationMessageCallback14interfaceChainENSt3__18functionIFvRKNS0_8hidl_vecINS0_11hidl_stringEEEEEE"
    },
    {
     "mangled_component_name":"_ZN7android8hardware4gnss4V1_031BsGnssNavigationMessageCallback5debugERKNS0_11hidl_handleERKNS0_8hidl_vecINS0_11hidl_stringEEE"
    },
    {
     "mangled_component_name":"_ZN7android8hardware4gnss4V1_031BsGnssNavigationMessageCallback19interfaceDescriptorENSt3__18functionIFvRKNS0_11hidl_stringEEEE"
    },
    {
     "mangled_component_name":"_ZN7android8hardware4gnss4V1_031BsGnssNavigationMessageCallback12getHashChainENSt3__18functionIFvRKNS0_8hidl_vecINS0_10hidl_arrayIhLm32EJEEEEEEEE"
    },
    {
     "mangled_component_name":"_ZN7android8hardware4gnss4V1_031BsGnssNavigationMessageCallback21setHALInstrumentationEv"
    },
    {
     "mangled_component_name":"_ZN7android8hardware4gnss4V1_031BsGnssNavigationMessageCallback11linkToDeathERKNS_2spINS0_20hidl_death_recipientEEEm"
    },
    {
     "mangled_component_name":"_ZN7android8hardware4gnss4V1_031BsGnssNavigationMessageCallback4pingEv"
    },
    {
     "mangled_component_name":"_ZN7android8hardware4gnss4V1_031BsGnssNavigationMessageCallback12getDebugInfoENSt3__18functionIFvRKNS_4hidl4base4V1_09DebugInfoEEEE"
    },
    {
     "mangled_component_name":"_ZN7android8hardware4gnss4V1_031BsGnssNavigationMessageCallback21notifySyspropsChangedEv"
    },
    {
     "mangled_component_name":"_ZN7android8hardware4gnss4V1_031BsGnssNavigationMessageCallback13unlinkToDeathERKNS_2spINS0_20hidl_death_recipientEEE"
    },
    {
     "kind":"complete_dtor_pointer",
     "mangled_component_name":"_ZN7android8hardware4gnss4V1_031BsGnssNavigationMessageCallbackD1Ev"
    },
    {
     "kind":"deleting_dtor_pointer",
     "mangled_component_name":"_ZN7android8hardware4gnss4V1_031BsGnssNavigationMessageCallbackD0Ev"
    },
    {
     "mangled_component_name":"_ZN7android8hardware4gnss4V1_031BsGnssNavigationMessageCallback23gnssNavigationMessageCbERKNS2_30IGnssNavigationMessageCallback21GnssNavigationMessageE"
    },
    {
     "kind":"offset_to_top",
     "component_value":-8
    },
    {
     "kind":"rtti",
     "mangled_component_name":"_ZTIN7android8hardware4gnss4V1_031BsGnssNavigationMessageCallbackE"
    },
    {
     "kind":"complete_dtor_pointer",
     "mangled_component_name":"_ZThn8_N7android8hardware4gnss4V1_031BsGnssNavigationMessageCallbackD1Ev"
    },
    {
     "kind":"deleting_dtor_pointer",
     "mangled_component_name":"_ZThn8_N7android8hardware4gnss4V1_031BsGnssNavigationMessageCallbackD0Ev"
    },
    {
     "kind":"vcall_offset"
    },
    {
     "kind":"vcall_offset"
    },
    {
     "kind":"vcall_offset"
    },
    {
     "kind":"vcall_offset"
    },
    {
     "kind":"vcall_offset",
     "component_value":-120
    },
    {
     "kind":"offset_to_top",
     "component_value":-120
    },
    {
     "kind":"rtti",
     "mangled_component_name":"_ZTIN7android8hardware4gnss4V1_031BsGnssNavigationMessageCallbackE"
    },
    {
     "kind":"complete_dtor_pointer",
     "mangled_component_name":"_ZTv0_n24_N7android8hardware4gnss4V1_031BsGnssNavigationMessageCallbackD1Ev"
    },
    {
     "kind":"deleting_dtor_pointer",
     "mangled_component_name":"_ZTv0_n24_N7android8hardware4gnss4V1_031BsGnssNavigationMessageCallbackD0Ev"
    },
    {
     "mangled_component_name":"_ZN7android7RefBase10onFirstRefEv"
    },
    {
     "mangled_component_name":"_ZN7android7RefBase15onLastStrongRefEPKv"
    },
    {
     "mangled_component_name":"_ZN7android7RefBase20onIncStrongAttemptedEjPKv"
    },
    {
     "mangled_component_name":"_ZN7android7RefBase13onLastWeakRefEPKv"
    }
   ],
   "unique_id":"_ZTSN7android8hardware4gnss4V1_031BsGnssNavigationMessageCallbackE"
  },
  {
   "vtable_components":[
    {
     "kind":"vbase_offset",
     "component_value":120
    },
    {
     "kind":"offset_to_top"
    },
    {
     "kind":"rtti",
     "mangled_component_name":"_ZTIN7android8hardware4gnss4V1_08BsGnssNiE"
    },
    {
     "mangled_component_name":"_ZNK7android8hardware4gnss4V1_07IGnssNi8isRemoteEv"
    },
    {
     "mangled_component_name":"_ZN7android8hardware4gnss4V1_08BsGnssNi14interfaceChainENSt3__18functionIFvRKNS0_8hidl_vecINS0_11hidl_stringEEEEEE"
    },
    {
     "mangled_component_name":"_ZN7android8hardware4gnss4V1_08BsGnssNi5debugERKNS0_11hidl_handleERKNS0_8hidl_vecINS0_11hidl_stringEEE"
    },
    {
     "mangled_component_name":"_ZN7android8hardware4gnss4V1_08BsGnssNi19interfaceDescriptorENSt3__18functionIFvRKNS0_11hidl_stringEEEE"
    },
    {
     "mangled_component_name":"_ZN7android8hardware4gnss4V1_08BsGnssNi12getHashChainENSt3__18functionIFvRKNS0_8hidl_vecINS0_10hidl_arrayIhLm32EJEEEEEEEE"
    },
    {
     "mangled_component_name":"_ZN7android8hardware4gnss4V1_08BsGnssNi21setHALInstrumentationEv"
    },
    {
     "mangled_component_name":"_ZN7android8hardware4gnss4V1_08BsGnssNi11linkToDeathERKNS_2spINS0_20hidl_death_recipientEEEm"
    },
    {
     "mangled_component_name":"_ZN7android8hardware4gnss4V1_08BsGnssNi4pingEv"
    },
    {
     "mangled_component_name":"_ZN7android8hardware4gnss4V1_08BsGnssNi12getDebugInfoENSt3__18functionIFvRKNS_4hidl4base4V1_09DebugInfoEEEE"
    },
    {
     "mangled_component_name":"_ZN7android8hardware4gnss4V1_08BsGnssNi21notifySyspropsChangedEv"
    },
    {
     "mangled_component_name":"_ZN7android8hardware4gnss4V1_08BsGnssNi13unlinkToDeathERKNS_2spINS0_20hidl_death_recipientEEE"
    },
    {
     "kind":"complete_dtor_pointer",
     "mangled_component_name":"_ZN7android8hardware4gnss4V1_08BsGnssNiD1Ev"
    },
    {
     "kind":"deleting_dtor_pointer",
     "mangled_component_name":"_ZN7android8hardware4gnss4V1_08BsGnssNiD0Ev"
    },
    {
     "mangled_component_name":"_ZN7android8hardware4gnss4V1_08BsGnssNi11setCallbackERKNS_2spINS2_15IGnssNiCallbackEEE"
    },
    {
     "mangled_component_name":"_ZN7android8hardware4gnss4V1_08BsGnssNi7respondEiNS2_15IGnssNiCallback20GnssUserResponseTypeE"
    },
    {
     "kind":"offset_to_top",
     "component_value":-8
    },
    {
     "kind":"rtti",
     "mangled_component_name":"_ZTIN7android8hardware4gnss4V1_08BsGnssNiE"
    },
    {
     "kind":"complete_dtor_pointer",
     "mangled_component_name":"_ZThn8_N7android8hardware4gnss4V1_08BsGnssNiD1Ev"
    },
    {
     "kind":"deleting_dtor_pointer",
     "mangled_component_name":"_ZThn8_N7android8hardware4gnss4V1_08BsGnssNiD0Ev"
    },
    {
     "kind":"vcall_offset"
    },
    {
     "kind":"vcall_offset"
    },
    {
     "kind":"vcall_offset"
    },
    {
     "kind":"vcall_offset"
    },
    {
     "kind":"vcall_offset",
     "component_value":-120
    },
    {
     "kind":"offset_to_top",
     "component_value":-120
    },
    {
     "kind":"rtti",
     "mangled_component_name":"_ZTIN7android8hardware4gnss4V1_08BsGnssNiE"
    },
    {
     "kind":"complete_dtor_pointer",
     "mangled_component_name":"_ZTv0_n24_N7android8hardware4gnss4V1_08BsGnssNiD1Ev"
    },
    {
     "kind":"deleting_dtor_pointer",
     "mangled_component_name":"_ZTv0_n24_N7android8hardware4gnss4V1_08BsGnssNiD0Ev"
    },
    {
     "mangled_component_name":"_ZN7android7RefBase10onFirstRefEv"
    },
    {
     "mangled_component_name":"_ZN7android7RefBase15onLastStrongRefEPKv"
    },
    {
     "mangled_component_name":"_ZN7android7RefBase20onIncStrongAttemptedEjPKv"
    },
    {
     "mangled_component_name":"_ZN7android7RefBase13onLastWeakRefEPKv"
    }
   ],
   "unique_id":"_ZTSN7android8hardware4gnss4V1_08BsGnssNiE"
  },
  {
   "vtable_components":[
    {
     "kind":"vbase_offset",
     "component_value":120
    },
    {
     "kind":"offset_to_top"
    },
    {
     "kind":"rtti",
     "mangled_component_name":"_ZTIN7android8hardware4gnss4V1_016BsGnssNiCallbackE"
    },
    {
     "mangled_component_name":"_ZNK7android8hardware4gnss4V1_015IGnssNiCallback8isRemoteEv"
    },
    {
     "mangled_component_name":"_ZN7android8hardware4gnss4V1_016BsGnssNiCallback14interfaceChainENSt3__18functionIFvRKNS0_8hidl_vecINS0_11hidl_stringEEEEEE"
    },
    {
     "mangled_component_name":"_ZN7android8hardware4gnss4V1_016BsGnssNiCallback5debugERKNS0_11hidl_handleERKNS0_8hidl_vecINS0_11hidl_stringEEE"
    },
    {
     "mangled_component_name":"_ZN7android8hardware4gnss4V1_016BsGnssNiCallback19interfaceDescriptorENSt3__18functionIFvRKNS0_11hidl_stringEEEE"
    },
    {
     "mangled_component_name":"_ZN7android8hardware4gnss4V1_016BsGnssNiCallback12getHashChainENSt3__18functionIFvRKNS0_8hidl_vecINS0_10hidl_arrayIhLm32EJEEEEEEEE"
    },
    {
     "mangled_component_name":"_ZN7android8hardware4gnss4V1_016BsGnssNiCallback21setHALInstrumentationEv"
    },
    {
     "mangled_component_name":"_ZN7android8hardware4gnss4V1_016BsGnssNiCallback11linkToDeathERKNS_2spINS0_20hidl_death_recipientEEEm"
    },
    {
     "mangled_component_name":"_ZN7android8hardware4gnss4V1_016BsGnssNiCallback4pingEv"
    },
    {
     "mangled_component_name":"_ZN7android8hardware4gnss4V1_016BsGnssNiCallback12getDebugInfoENSt3__18functionIFvRKNS_4hidl4base4V1_09DebugInfoEEEE"
    },
    {
     "mangled_component_name":"_ZN7android8hardware4gnss4V1_016BsGnssNiCallback21notifySyspropsChangedEv"
    },
    {
     "mangled_component_name":"_ZN7android8hardware4gnss4V1_016BsGnssNiCallback13unlinkToDeathERKNS_2spINS0_20hidl_death_recipientEEE"
    },
    {
     "kind":"complete_dtor_pointer",
     "mangled_component_name":"_ZN7android8hardware4gnss4V1_016BsGnssNiCallbackD1Ev"
    },
    {
     "kind":"deleting_dtor_pointer",
     "mangled_component_name":"_ZN7android8hardware4gnss4V1_016BsGnssNiCallbackD0Ev"
    },
    {
     "mangled_component_name":"_ZN7android8hardware4gnss4V1_016BsGnssNiCallback10niNotifyCbERKNS2_15IGnssNiCallback18GnssNiNotificationE"
    },
    {
     "kind":"offset_to_top",
     "component_value":-8
    },
    {
     "kind":"rtti",
     "mangled_component_name":"_ZTIN7android8hardware4gnss4V1_016BsGnssNiCallbackE"
    },
    {
     "kind":"complete_dtor_pointer",
     "mangled_component_name":"_ZThn8_N7android8hardware4gnss4V1_016BsGnssNiCallbackD1Ev"
    },
    {
     "kind":"deleting_dtor_pointer",
     "mangled_component_name":"_ZThn8_N7android8hardware4gnss4V1_016BsGnssNiCallbackD0Ev"
    },
    {
     "kind":"vcall_offset"
    },
    {
     "kind":"vcall_offset"
    },
    {
     "kind":"vcall_offset"
    },
    {
     "kind":"vcall_offset"
    },
    {
     "kind":"vcall_offset",
     "component_value":-120
    },
    {
     "kind":"offset_to_top",
     "component_value":-120
    },
    {
     "kind":"rtti",
     "mangled_component_name":"_ZTIN7android8hardware4gnss4V1_016BsGnssNiCallbackE"
    },
    {
     "kind":"complete_dtor_pointer",
     "mangled_component_name":"_ZTv0_n24_N7android8hardware4gnss4V1_016BsGnssNiCallbackD1Ev"
    },
    {
     "kind":"deleting_dtor_pointer",
     "mangled_component_name":"_ZTv0_n24_N7android8hardware4gnss4V1_016BsGnssNiCallbackD0Ev"
    },
    {
     "mangled_component_name":"_ZN7android7RefBase10onFirstRefEv"
    },
    {
     "mangled_component_name":"_ZN7android7RefBase15onLastStrongRefEPKv"
    },
    {
     "mangled_component_name":"_ZN7android7RefBase20onIncStrongAttemptedEjPKv"
    },
    {
     "mangled_component_name":"_ZN7android7RefBase13onLastWeakRefEPKv"
    }
   ],
   "unique_id":"_ZTSN7android8hardware4gnss4V1_016BsGnssNiCallbackE"
  },
  {
   "vtable_components":[
    {
     "kind":"vbase_offset",
     "component_value":120
    },
    {
     "kind":"offset_to_top"
    },
    {
     "kind":"rtti",
     "mangled_component_name":"_ZTIN7android8hardware4gnss4V1_010BsGnssXtraE"
    },
    {
     "mangled_component_name":"_ZNK7android8hardware4gnss4V1_09IGnssXtra8isRemoteEv"
    },
    {
     "mangled_component_name":"_ZN7android8hardware4gnss4V1_010BsGnssXtra14interfaceChainENSt3__18functionIFvRKNS0_8hidl_vecINS0_11hidl_stringEEEEEE"
    },
    {
     "mangled_component_name":"_ZN7android8hardware4gnss4V1_010BsGnssXtra5debugERKNS0_11hidl_handleERKNS0_8hidl_vecINS0_11hidl_stringEEE"
    },
    {
     "mangled_component_name":"_ZN7android8hardware4gnss4V1_010BsGnssXtra19interfaceDescriptorENSt3__18functionIFvRKNS0_11hidl_stringEEEE"
    },
    {
     "mangled_component_name":"_ZN7android8hardware4gnss4V1_010BsGnssXtra12getHashChainENSt3__18functionIFvRKNS0_8hidl_vecINS0_10hidl_arrayIhLm32EJEEEEEEEE"
    },
    {
     "mangled_component_name":"_ZN7android8hardware4gnss4V1_010BsGnssXtra21setHALInstrumentationEv"
    },
    {
     "mangled_component_name":"_ZN7android8hardware4gnss4V1_010BsGnssXtra11linkToDeathERKNS_2spINS0_20hidl_death_recipientEEEm"
    },
    {
     "mangled_component_name":"_ZN7android8hardware4gnss4V1_010BsGnssXtra4pingEv"
    },
    {
     "mangled_component_name":"_ZN7android8hardware4gnss4V1_010BsGnssXtra12getDebugInfoENSt3__18functionIFvRKNS_4hidl4base4V1_09DebugInfoEEEE"
    },
    {
     "mangled_component_name":"_ZN7android8hardware4gnss4V1_010BsGnssXtra21notifySyspropsChangedEv"
    },
    {
     "mangled_component_name":"_ZN7android8hardware4gnss4V1_010BsGnssXtra13unlinkToDeathERKNS_2spINS0_20hidl_death_recipientEEE"
    },
    {
     "kind":"complete_dtor_pointer",
     "mangled_component_name":"_ZN7android8hardware4gnss4V1_010BsGnssXtraD1Ev"
    },
    {
     "kind":"deleting_dtor_pointer",
     "mangled_component_name":"_ZN7android8hardware4gnss4V1_010BsGnssXtraD0Ev"
    },
    {
     "mangled_component_name":"_ZN7android8hardware4gnss4V1_010BsGnssXtra11setCallbackERKNS_2spINS2_17IGnssXtraCallbackEEE"
    },
    {
     "mangled_component_name":"_ZN7android8hardware4gnss4V1_010BsGnssXtra14injectXtraDataERKNS0_11hidl_stringE"
    },
    {
     "kind":"offset_to_top",
     "component_value":-8
    },
    {
     "kind":"rtti",
     "mangled_component_name":"_ZTIN7android8hardware4gnss4V1_010BsGnssXtraE"
    },
    {
     "kind":"complete_dtor_pointer",
     "mangled_component_name":"_ZThn8_N7android8hardware4gnss4V1_010BsGnssXtraD1Ev"
    },
    {
     "kind":"deleting_dtor_pointer",
     "mangled_component_name":"_ZThn8_N7android8hardware4gnss4V1_010BsGnssXtraD0Ev"
    },
    {
     "kind":"vcall_offset"
    },
    {
     "kind":"vcall_offset"
    },
    {
     "kind":"vcall_offset"
    },
    {
     "kind":"vcall_offset"
    },
    {
     "kind":"vcall_offset",
     "component_value":-120
    },
    {
     "kind":"offset_to_top",
     "component_value":-120
    },
    {
     "kind":"rtti",
     "mangled_component_name":"_ZTIN7android8hardware4gnss4V1_010BsGnssXtraE"
    },
    {
     "kind":"complete_dtor_pointer",
     "mangled_component_name":"_ZTv0_n24_N7android8hardware4gnss4V1_010BsGnssXtraD1Ev"
    },
    {
     "kind":"deleting_dtor_pointer",
     "mangled_component_name":"_ZTv0_n24_N7android8hardware4gnss4V1_010BsGnssXtraD0Ev"
    },
    {
     "mangled_component_name":"_ZN7android7RefBase10onFirstRefEv"
    },
    {
     "mangled_component_name":"_ZN7android7RefBase15onLastStrongRefEPKv"
    },
    {
     "mangled_component_name":"_ZN7android7RefBase20onIncStrongAttemptedEjPKv"
    },
    {
     "mangled_component_name":"_ZN7android7RefBase13onLastWeakRefEPKv"
    }
   ],
   "unique_id":"_ZTSN7android8hardware4gnss4V1_010BsGnssXtraE"
  },
  {
   "vtable_components":[
    {
     "kind":"vbase_offset",
     "component_value":120
    },
    {
     "kind":"offset_to_top"
    },
    {
     "kind":"rtti",
     "mangled_component_name":"_ZTIN7android8hardware4gnss4V1_018BsGnssXtraCallbackE"
    },
    {
     "mangled_component_name":"_ZNK7android8hardware4gnss4V1_017IGnssXtraCallback8isRemoteEv"
    },
    {
     "mangled_component_name":"_ZN7android8hardware4gnss4V1_018BsGnssXtraCallback14interfaceChainENSt3__18functionIFvRKNS0_8hidl_vecINS0_11hidl_stringEEEEEE"
    },
    {
     "mangled_component_name":"_ZN7android8hardware4gnss4V1_018BsGnssXtraCallback5debugERKNS0_11hidl_handleERKNS0_8hidl_vecINS0_11hidl_stringEEE"
    },
    {
     "mangled_component_name":"_ZN7android8hardware4gnss4V1_018BsGnssXtraCallback19interfaceDescriptorENSt3__18functionIFvRKNS0_11hidl_stringEEEE"
    },
    {
     "mangled_component_name":"_ZN7android8hardware4gnss4V1_018BsGnssXtraCallback12getHashChainENSt3__18functionIFvRKNS0_8hidl_vecINS0_10hidl_arrayIhLm32EJEEEEEEEE"
    },
    {
     "mangled_component_name":"_ZN7android8hardware4gnss4V1_018BsGnssXtraCallback21setHALInstrumentationEv"
    },
    {
     "mangled_component_name":"_ZN7android8hardware4gnss4V1_018BsGnssXtraCallback11linkToDeathERKNS_2spINS0_20hidl_death_recipientEEEm"
    },
    {
     "mangled_component_name":"_ZN7android8hardware4gnss4V1_018BsGnssXtraCallback4pingEv"
    },
    {
     "mangled_component_name":"_ZN7android8hardware4gnss4V1_018BsGnssXtraCallback12getDebugInfoENSt3__18functionIFvRKNS_4hidl4base4V1_09DebugInfoEEEE"
    },
    {
     "mangled_component_name":"_ZN7android8hardware4gnss4V1_018BsGnssXtraCallback21notifySyspropsChangedEv"
    },
    {
     "mangled_component_name":"_ZN7android8hardware4gnss4V1_018BsGnssXtraCallback13unlinkToDeathERKNS_2spINS0_20hidl_death_recipientEEE"
    },
    {
     "kind":"complete_dtor_pointer",
     "mangled_component_name":"_ZN7android8hardware4gnss4V1_018BsGnssXtraCallbackD1Ev"
    },
    {
     "kind":"deleting_dtor_pointer",
     "mangled_component_name":"_ZN7android8hardware4gnss4V1_018BsGnssXtraCallbackD0Ev"
    },
    {
     "mangled_component_name":"_ZN7android8hardware4gnss4V1_018BsGnssXtraCallback17downloadRequestCbEv"
    },
    {
     "kind":"offset_to_top",
     "component_value":-8
    },
    {
     "kind":"rtti",
     "mangled_component_name":"_ZTIN7android8hardware4gnss4V1_018BsGnssXtraCallbackE"
    },
    {
     "kind":"complete_dtor_pointer",
     "mangled_component_name":"_ZThn8_N7android8hardware4gnss4V1_018BsGnssXtraCallbackD1Ev"
    },
    {
     "kind":"deleting_dtor_pointer",
     "mangled_component_name":"_ZThn8_N7android8hardware4gnss4V1_018BsGnssXtraCallbackD0Ev"
    },
    {
     "kind":"vcall_offset"
    },
    {
     "kind":"vcall_offset"
    },
    {
     "kind":"vcall_offset"
    },
    {
     "kind":"vcall_offset"
    },
    {
     "kind":"vcall_offset",
     "component_value":-120
    },
    {
     "kind":"offset_to_top",
     "component_value":-120
    },
    {
     "kind":"rtti",
     "mangled_component_name":"_ZTIN7android8hardware4gnss4V1_018BsGnssXtraCallbackE"
    },
    {
     "kind":"complete_dtor_pointer",
     "mangled_component_name":"_ZTv0_n24_N7android8hardware4gnss4V1_018BsGnssXtraCallbackD1Ev"
    },
    {
     "kind":"deleting_dtor_pointer",
     "mangled_component_name":"_ZTv0_n24_N7android8hardware4gnss4V1_018BsGnssXtraCallbackD0Ev"
    },
    {
     "mangled_component_name":"_ZN7android7RefBase10onFirstRefEv"
    },
    {
     "mangled_component_name":"_ZN7android7RefBase15onLastStrongRefEPKv"
    },
    {
     "mangled_component_name":"_ZN7android7RefBase20onIncStrongAttemptedEjPKv"
    },
    {
     "mangled_component_name":"_ZN7android7RefBase13onLastWeakRefEPKv"
    }
   ],
   "unique_id":"_ZTSN7android8hardware4gnss4V1_018BsGnssXtraCallbackE"
  },
  {
   "vtable_components":[
    {
     "kind":"vbase_offset",
     "component_value":8
    },
    {
     "kind":"offset_to_top"
    },
    {
     "kind":"rtti",
     "mangled_component_name":"_ZTIN7android8hardware4gnss4V1_021IGnssGeofenceCallbackE"
    },
    {
     "mangled_component_name":"_ZNK7android8hardware4gnss4V1_021IGnssGeofenceCallback8isRemoteEv"
    },
    {
     "mangled_component_name":"_ZN7android8hardware4gnss4V1_021IGnssGeofenceCallback14interfaceChainENSt3__18functionIFvRKNS0_8hidl_vecINS0_11hidl_stringEEEEEE"
    },
    {
     "mangled_component_name":"_ZN7android8hardware4gnss4V1_021IGnssGeofenceCallback5debugERKNS0_11hidl_handleERKNS0_8hidl_vecINS0_11hidl_stringEEE"
    },
    {
     "mangled_component_name":"_ZN7android8hardware4gnss4V1_021IGnssGeofenceCallback19interfaceDescriptorENSt3__18functionIFvRKNS0_11hidl_stringEEEE"
    },
    {
     "mangled_component_name":"_ZN7android8hardware4gnss4V1_021IGnssGeofenceCallback12getHashChainENSt3__18functionIFvRKNS0_8hidl_vecINS0_10hidl_arrayIhLm32EJEEEEEEEE"
    },
    {
     "mangled_component_name":"_ZN7android8hardware4gnss4V1_021IGnssGeofenceCallback21setHALInstrumentationEv"
    },
    {
     "mangled_component_name":"_ZN7android8hardware4gnss4V1_021IGnssGeofenceCallback11linkToDeathERKNS_2spINS0_20hidl_death_recipientEEEm"
    },
    {
     "mangled_component_name":"_ZN7android8hardware4gnss4V1_021IGnssGeofenceCallback4pingEv"
    },
    {
     "mangled_component_name":"_ZN7android8hardware4gnss4V1_021IGnssGeofenceCallback12getDebugInfoENSt3__18functionIFvRKNS_4hidl4base4V1_09DebugInfoEEEE"
    },
    {
     "mangled_component_name":"_ZN7android8hardware4gnss4V1_021IGnssGeofenceCallback21notifySyspropsChangedEv"
    },
    {
     "mangled_component_name":"_ZN7android8hardware4gnss4V1_021IGnssGeofenceCallback13unlinkToDeathERKNS_2spINS0_20hidl_death_recipientEEE"
    },
    {
     "kind":"complete_dtor_pointer",
     "mangled_component_name":"_ZN7android8hardware4gnss4V1_021IGnssGeofenceCallbackD1Ev"
    },
    {
     "kind":"deleting_dtor_pointer",
     "mangled_component_name":"_ZN7android8hardware4gnss4V1_021IGnssGeofenceCallbackD0Ev"
    },
    {
     "is_pure":true,
     "mangled_component_name":"_ZN7android8hardware4gnss4V1_021IGnssGeofenceCallback24gnssGeofenceTransitionCbEiRKNS2_12GnssLocationENS3_18GeofenceTransitionEl"
    },
    {
     "is_pure":true,
     "mangled_component_name":"_ZN7android8hardware4gnss4V1_021IGnssGeofenceCallback20gnssGeofenceStatusCbENS3_20GeofenceAvailabilityERKNS2_12GnssLocationE"
    },
    {
     "is_pure":true,
     "mangled_component_name":"_ZN7android8hardware4gnss4V1_021IGnssGeofenceCallback17gnssGeofenceAddCbEiNS3_14GeofenceStatusE"
    },
    {
     "is_pure":true,
     "mangled_component_name":"_ZN7android8hardware4gnss4V1_021IGnssGeofenceCallback20gnssGeofenceRemoveCbEiNS3_14GeofenceStatusE"
    },
    {
     "is_pure":true,
     "mangled_component_name":"_ZN7android8hardware4gnss4V1_021IGnssGeofenceCallback19gnssGeofencePauseCbEiNS3_14GeofenceStatusE"
    },
    {
     "is_pure":true,
     "mangled_component_name":"_ZN7android8hardware4gnss4V1_021IGnssGeofenceCallback20gnssGeofenceResumeCbEiNS3_14GeofenceStatusE"
    },
    {
     "kind":"vcall_offset"
    },
    {
     "kind":"vcall_offset"
    },
    {
     "kind":"vcall_offset"
    },
    {
     "kind":"vcall_offset"
    },
    {
     "kind":"vcall_offset",
     "component_value":-8
    },
    {
     "kind":"offset_to_top",
     "component_value":-8
    },
    {
     "kind":"rtti",
     "mangled_component_name":"_ZTIN7android8hardware4gnss4V1_021IGnssGeofenceCallbackE"
    },
    {
     "kind":"complete_dtor_pointer",
     "mangled_component_name":"_ZTv0_n24_N7android8hardware4gnss4V1_021IGnssGeofenceCallbackD1Ev"
    },
    {
     "kind":"deleting_dtor_pointer",
     "mangled_component_name":"_ZTv0_n24_N7android8hardware4gnss4V1_021IGnssGeofenceCallbackD0Ev"
    },
    {
     "mangled_component_name":"_ZN7android7RefBase10onFirstRefEv"
    },
    {
     "mangled_component_name":"_ZN7android7RefBase15onLastStrongRefEPKv"
    },
    {
     "mangled_component_name":"_ZN7android7RefBase20onIncStrongAttemptedEjPKv"
    },
    {
     "mangled_component_name":"_ZN7android7RefBase13onLastWeakRefEPKv"
    }
   ],
   "unique_id":"_ZTSN7android8hardware4gnss4V1_021IGnssGeofenceCallbackE"
  },
  {
   "vtable_components":[
    {
     "kind":"vbase_offset",
     "component_value":8
    },
    {
     "kind":"offset_to_top"
    },
    {
     "kind":"rtti",
     "mangled_component_name":"_ZTIN7android8hardware4gnss4V1_024IGnssMeasurementCallbackE"
    },
    {
     "mangled_component_name":"_ZNK7android8hardware4gnss4V1_024IGnssMeasurementCallback8isRemoteEv"
    },
    {
     "mangled_component_name":"_ZN7android8hardware4gnss4V1_024IGnssMeasurementCallback14interfaceChainENSt3__18functionIFvRKNS0_8hidl_vecINS0_11hidl_stringEEEEEE"
    },
    {
     "mangled_component_name":"_ZN7android8hardware4gnss4V1_024IGnssMeasurementCallback5debugERKNS0_11hidl_handleERKNS0_8hidl_vecINS0_11hidl_stringEEE"
    },
    {
     "mangled_component_name":"_ZN7android8hardware4gnss4V1_024IGnssMeasurementCallback19interfaceDescriptorENSt3__18functionIFvRKNS0_11hidl_stringEEEE"
    },
    {
     "mangled_component_name":"_ZN7android8hardware4gnss4V1_024IGnssMeasurementCallback12getHashChainENSt3__18functionIFvRKNS0_8hidl_vecINS0_10hidl_arrayIhLm32EJEEEEEEEE"
    },
    {
     "mangled_component_name":"_ZN7android8hardware4gnss4V1_024IGnssMeasurementCallback21setHALInstrumentationEv"
    },
    {
     "mangled_component_name":"_ZN7android8hardware4gnss4V1_024IGnssMeasurementCallback11linkToDeathERKNS_2spINS0_20hidl_death_recipientEEEm"
    },
    {
     "mangled_component_name":"_ZN7android8hardware4gnss4V1_024IGnssMeasurementCallback4pingEv"
    },
    {
     "mangled_component_name":"_ZN7android8hardware4gnss4V1_024IGnssMeasurementCallback12getDebugInfoENSt3__18functionIFvRKNS_4hidl4base4V1_09DebugInfoEEEE"
    },
    {
     "mangled_component_name":"_ZN7android8hardware4gnss4V1_024IGnssMeasurementCallback21notifySyspropsChangedEv"
    },
    {
     "mangled_component_name":"_ZN7android8hardware4gnss4V1_024IGnssMeasurementCallback13unlinkToDeathERKNS_2spINS0_20hidl_death_recipientEEE"
    },
    {
     "kind":"complete_dtor_pointer",
     "mangled_component_name":"_ZN7android8hardware4gnss4V1_024IGnssMeasurementCallbackD1Ev"
    },
    {
     "kind":"deleting_dtor_pointer",
     "mangled_component_name":"_ZN7android8hardware4gnss4V1_024IGnssMeasurementCallbackD0Ev"
    },
    {
     "is_pure":true,
     "mangled_component_name":"_ZN7android8hardware4gnss4V1_024IGnssMeasurementCallback17GnssMeasurementCbERKNS3_8GnssDataE"
    },
    {
     "kind":"vcall_offset"
    },
    {
     "kind":"vcall_offset"
    },
    {
     "kind":"vcall_offset"
    },
    {
     "kind":"vcall_offset"
    },
    {
     "kind":"vcall_offset",
     "component_value":-8
    },
    {
     "kind":"offset_to_top",
     "component_value":-8
    },
    {
     "kind":"rtti",
     "mangled_component_name":"_ZTIN7android8hardware4gnss4V1_024IGnssMeasurementCallbackE"
    },
    {
     "kind":"complete_dtor_pointer",
     "mangled_component_name":"_ZTv0_n24_N7android8hardware4gnss4V1_024IGnssMeasurementCallbackD1Ev"
    },
    {
     "kind":"deleting_dtor_pointer",
     "mangled_component_name":"_ZTv0_n24_N7android8hardware4gnss4V1_024IGnssMeasurementCallbackD0Ev"
    },
    {
     "mangled_component_name":"_ZN7android7RefBase10onFirstRefEv"
    },
    {
     "mangled_component_name":"_ZN7android7RefBase15onLastStrongRefEPKv"
    },
    {
     "mangled_component_name":"_ZN7android7RefBase20onIncStrongAttemptedEjPKv"
    },
    {
     "mangled_component_name":"_ZN7android7RefBase13onLastWeakRefEPKv"
    }
   ],
   "unique_id":"_ZTSN7android8hardware4gnss4V1_024IGnssMeasurementCallbackE"
  },
  {
   "vtable_components":[
    {
     "kind":"vbase_offset",
     "component_value":8
    },
    {
     "kind":"offset_to_top"
    },
    {
     "kind":"rtti",
     "mangled_component_name":"_ZTIN7android8hardware4gnss4V1_030IGnssNavigationMessageCallbackE"
    },
    {
     "mangled_component_name":"_ZNK7android8hardware4gnss4V1_030IGnssNavigationMessageCallback8isRemoteEv"
    },
    {
     "mangled_component_name":"_ZN7android8hardware4gnss4V1_030IGnssNavigationMessageCallback14interfaceChainENSt3__18functionIFvRKNS0_8hidl_vecINS0_11hidl_stringEEEEEE"
    },
    {
     "mangled_component_name":"_ZN7android8hardware4gnss4V1_030IGnssNavigationMessageCallback5debugERKNS0_11hidl_handleERKNS0_8hidl_vecINS0_11hidl_stringEEE"
    },
    {
     "mangled_component_name":"_ZN7android8hardware4gnss4V1_030IGnssNavigationMessageCallback19interfaceDescriptorENSt3__18functionIFvRKNS0_11hidl_stringEEEE"
    },
    {
     "mangled_component_name":"_ZN7android8hardware4gnss4V1_030IGnssNavigationMessageCallback12getHashChainENSt3__18functionIFvRKNS0_8hidl_vecINS0_10hidl_arrayIhLm32EJEEEEEEEE"
    },
    {
     "mangled_component_name":"_ZN7android8hardware4gnss4V1_030IGnssNavigationMessageCallback21setHALInstrumentationEv"
    },
    {
     "mangled_component_name":"_ZN7android8hardware4gnss4V1_030IGnssNavigationMessageCallback11linkToDeathERKNS_2spINS0_20hidl_death_recipientEEEm"
    },
    {
     "mangled_component_name":"_ZN7android8hardware4gnss4V1_030IGnssNavigationMessageCallback4pingEv"
    },
    {
     "mangled_component_name":"_ZN7android8hardware4gnss4V1_030IGnssNavigationMessageCallback12getDebugInfoENSt3__18functionIFvRKNS_4hidl4base4V1_09DebugInfoEEEE"
    },
    {
     "mangled_component_name":"_ZN7android8hardware4gnss4V1_030IGnssNavigationMessageCallback21notifySyspropsChangedEv"
    },
    {
     "mangled_component_name":"_ZN7android8hardware4gnss4V1_030IGnssNavigationMessageCallback13unlinkToDeathERKNS_2spINS0_20hidl_death_recipientEEE"
    },
    {
     "kind":"complete_dtor_pointer",
     "mangled_component_name":"_ZN7android8hardware4gnss4V1_030IGnssNavigationMessageCallbackD1Ev"
    },
    {
     "kind":"deleting_dtor_pointer",
     "mangled_component_name":"_ZN7android8hardware4gnss4V1_030IGnssNavigationMessageCallbackD0Ev"
    },
    {
     "is_pure":true,
     "mangled_component_name":"_ZN7android8hardware4gnss4V1_030IGnssNavigationMessageCallback23gnssNavigationMessageCbERKNS3_21GnssNavigationMessageE"
    },
    {
     "kind":"vcall_offset"
    },
    {
     "kind":"vcall_offset"
    },
    {
     "kind":"vcall_offset"
    },
    {
     "kind":"vcall_offset"
    },
    {
     "kind":"vcall_offset",
     "component_value":-8
    },
    {
     "kind":"offset_to_top",
     "component_value":-8
    },
    {
     "kind":"rtti",
     "mangled_component_name":"_ZTIN7android8hardware4gnss4V1_030IGnssNavigationMessageCallbackE"
    },
    {
     "kind":"complete_dtor_pointer",
     "mangled_component_name":"_ZTv0_n24_N7android8hardware4gnss4V1_030IGnssNavigationMessageCallbackD1Ev"
    },
    {
     "kind":"deleting_dtor_pointer",
     "mangled_component_name":"_ZTv0_n24_N7android8hardware4gnss4V1_030IGnssNavigationMessageCallbackD0Ev"
    },
    {
     "mangled_component_name":"_ZN7android7RefBase10onFirstRefEv"
    },
    {
     "mangled_component_name":"_ZN7android7RefBase15onLastStrongRefEPKv"
    },
    {
     "mangled_component_name":"_ZN7android7RefBase20onIncStrongAttemptedEjPKv"
    },
    {
     "mangled_component_name":"_ZN7android7RefBase13onLastWeakRefEPKv"
    }
   ],
   "unique_id":"_ZTSN7android8hardware4gnss4V1_030IGnssNavigationMessageCallbackE"
  },
  {
   "vtable_components":[
    {
     "kind":"vbase_offset",
     "component_value":8
    },
    {
     "kind":"offset_to_top"
    },
    {
     "kind":"rtti",
     "mangled_component_name":"_ZTIN7android8hardware4gnss4V1_015IGnssNiCallbackE"
    },
    {
     "mangled_component_name":"_ZNK7android8hardware4gnss4V1_015IGnssNiCallback8isRemoteEv"
    },
    {
     "mangled_component_name":"_ZN7android8hardware4gnss4V1_015IGnssNiCallback14interfaceChainENSt3__18functionIFvRKNS0_8hidl_vecINS0_11hidl_stringEEEEEE"
    },
    {
     "mangled_component_name":"_ZN7android8hardware4gnss4V1_015IGnssNiCallback5debugERKNS0_11hidl_handleERKNS0_8hidl_vecINS0_11hidl_stringEEE"
    },
    {
     "mangled_component_name":"_ZN7android8hardware4gnss4V1_015IGnssNiCallback19interfaceDescriptorENSt3__18functionIFvRKNS0_11hidl_stringEEEE"
    },
    {
     "mangled_component_name":"_ZN7android8hardware4gnss4V1_015IGnssNiCallback12getHashChainENSt3__18functionIFvRKNS0_8hidl_vecINS0_10hidl_arrayIhLm32EJEEEEEEEE"
    },
    {
     "mangled_component_name":"_ZN7android8hardware4gnss4V1_015IGnssNiCallback21setHALInstrumentationEv"
    },
    {
     "mangled_component_name":"_ZN7android8hardware4gnss4V1_015IGnssNiCallback11linkToDeathERKNS_2spINS0_20hidl_death_recipientEEEm"
    },
    {
     "mangled_component_name":"_ZN7android8hardware4gnss4V1_015IGnssNiCallback4pingEv"
    },
    {
     "mangled_component_name":"_ZN7android8hardware4gnss4V1_015IGnssNiCallback12getDebugInfoENSt3__18functionIFvRKNS_4hidl4base4V1_09DebugInfoEEEE"
    },
    {
     "mangled_component_name":"_ZN7android8hardware4gnss4V1_015IGnssNiCallback21notifySyspropsChangedEv"
    },
    {
     "mangled_component_name":"_ZN7android8hardware4gnss4V1_015IGnssNiCallback13unlinkToDeathERKNS_2spINS0_20hidl_death_recipientEEE"
    },
    {
     "kind":"complete_dtor_pointer",
     "mangled_component_name":"_ZN7android8hardware4gnss4V1_015IGnssNiCallbackD1Ev"
    },
    {
     "kind":"deleting_dtor_pointer",
     "mangled_component_name":"_ZN7android8hardware4gnss4V1_015IGnssNiCallbackD0Ev"
    },
    {
     "is_pure":true,
     "mangled_component_name":"_ZN7android8hardware4gnss4V1_015IGnssNiCallback10niNotifyCbERKNS3_18GnssNiNotificationE"
    },
    {
     "kind":"vcall_offset"
    },
    {
     "kind":"vcall_offset"
    },
    {
     "kind":"vcall_offset"
    },
    {
     "kind":"vcall_offset"
    },
    {
     "kind":"vcall_offset",
     "component_value":-8
    },
    {
     "kind":"offset_to_top",
     "component_value":-8
    },
    {
     "kind":"rtti",
     "mangled_component_name":"_ZTIN7android8hardware4gnss4V1_015IGnssNiCallbackE"
    },
    {
     "kind":"complete_dtor_pointer",
     "mangled_component_name":"_ZTv0_n24_N7android8hardware4gnss4V1_015IGnssNiCallbackD1Ev"
    },
    {
     "kind":"deleting_dtor_pointer",
     "mangled_component_name":"_ZTv0_n24_N7android8hardware4gnss4V1_015IGnssNiCallbackD0Ev"
    },
    {
     "mangled_component_name":"_ZN7android7RefBase10onFirstRefEv"
    },
    {
     "mangled_component_name":"_ZN7android7RefBase15onLastStrongRefEPKv"
    },
    {
     "mangled_component_name":"_ZN7android7RefBase20onIncStrongAttemptedEjPKv"
    },
    {
     "mangled_component_name":"_ZN7android7RefBase13onLastWeakRefEPKv"
    }
   ],
   "unique_id":"_ZTSN7android8hardware4gnss4V1_015IGnssNiCallbackE"
  },
  {
   "vtable_components":[
    {
     "kind":"vbase_offset",
     "component_value":8
    },
    {
     "kind":"offset_to_top"
    },
    {
     "kind":"rtti",
     "mangled_component_name":"_ZTIN7android8hardware4gnss4V1_017IGnssXtraCallbackE"
    },
    {
     "mangled_component_name":"_ZNK7android8hardware4gnss4V1_017IGnssXtraCallback8isRemoteEv"
    },
    {
     "mangled_component_name":"_ZN7android8hardware4gnss4V1_017IGnssXtraCallback14interfaceChainENSt3__18functionIFvRKNS0_8hidl_vecINS0_11hidl_stringEEEEEE"
    },
    {
     "mangled_component_name":"_ZN7android8hardware4gnss4V1_017IGnssXtraCallback5debugERKNS0_11hidl_handleERKNS0_8hidl_vecINS0_11hidl_stringEEE"
    },
    {
     "mangled_component_name":"_ZN7android8hardware4gnss4V1_017IGnssXtraCallback19interfaceDescriptorENSt3__18functionIFvRKNS0_11hidl_stringEEEE"
    },
    {
     "mangled_component_name":"_ZN7android8hardware4gnss4V1_017IGnssXtraCallback12getHashChainENSt3__18functionIFvRKNS0_8hidl_vecINS0_10hidl_arrayIhLm32EJEEEEEEEE"
    },
    {
     "mangled_component_name":"_ZN7android8hardware4gnss4V1_017IGnssXtraCallback21setHALInstrumentationEv"
    },
    {
     "mangled_component_name":"_ZN7android8hardware4gnss4V1_017IGnssXtraCallback11linkToDeathERKNS_2spINS0_20hidl_death_recipientEEEm"
    },
    {
     "mangled_component_name":"_ZN7android8hardware4gnss4V1_017IGnssXtraCallback4pingEv"
    },
    {
     "mangled_component_name":"_ZN7android8hardware4gnss4V1_017IGnssXtraCallback12getDebugInfoENSt3__18functionIFvRKNS_4hidl4base4V1_09DebugInfoEEEE"
    },
    {
     "mangled_component_name":"_ZN7android8hardware4gnss4V1_017IGnssXtraCallback21notifySyspropsChangedEv"
    },
    {
     "mangled_component_name":"_ZN7android8hardware4gnss4V1_017IGnssXtraCallback13unlinkToDeathERKNS_2spINS0_20hidl_death_recipientEEE"
    },
    {
     "kind":"complete_dtor_pointer",
     "mangled_component_name":"_ZN7android8hardware4gnss4V1_017IGnssXtraCallbackD1Ev"
    },
    {
     "kind":"deleting_dtor_pointer",
     "mangled_component_name":"_ZN7android8hardware4gnss4V1_017IGnssXtraCallbackD0Ev"
    },
    {
     "is_pure":true,
     "mangled_component_name":"_ZN7android8hardware4gnss4V1_017IGnssXtraCallback17downloadRequestCbEv"
    },
    {
     "kind":"vcall_offset"
    },
    {
     "kind":"vcall_offset"
    },
    {
     "kind":"vcall_offset"
    },
    {
     "kind":"vcall_offset"
    },
    {
     "kind":"vcall_offset",
     "component_value":-8
    },
    {
     "kind":"offset_to_top",
     "component_value":-8
    },
    {
     "kind":"rtti",
     "mangled_component_name":"_ZTIN7android8hardware4gnss4V1_017IGnssXtraCallbackE"
    },
    {
     "kind":"complete_dtor_pointer",
     "mangled_component_name":"_ZTv0_n24_N7android8hardware4gnss4V1_017IGnssXtraCallbackD1Ev"
    },
    {
     "kind":"deleting_dtor_pointer",
     "mangled_component_name":"_ZTv0_n24_N7android8hardware4gnss4V1_017IGnssXtraCallbackD0Ev"
    },
    {
     "mangled_component_name":"_ZN7android7RefBase10onFirstRefEv"
    },
    {
     "mangled_component_name":"_ZN7android7RefBase15onLastStrongRefEPKv"
    },
    {
     "mangled_component_name":"_ZN7android7RefBase20onIncStrongAttemptedEjPKv"
    },
    {
     "mangled_component_name":"_ZN7android7RefBase13onLastWeakRefEPKv"
    }
   ],
   "unique_id":"_ZTSN7android8hardware4gnss4V1_017IGnssXtraCallbackE"
  },
  {
   "vtable_components":[
    {
     "kind":"vbase_offset",
     "component_value":136
    },
    {
     "kind":"offset_to_top"
    },
    {
     "kind":"rtti",
     "mangled_component_name":"_ZTIN7android8hardware4gnss4V1_08BnHwGnssE"
    },
    {
     "mangled_component_name":"_ZN7android8hardware9BHwBinder8transactEjRKNS0_6ParcelEPS2_jNSt3__18functionIFvRS2_EEE"
    },
    {
     "mangled_component_name":"_ZN7android8hardware9BHwBinder11linkToDeathERKNS_2spINS0_7IBinder14DeathRecipientEEEPvj"
    },
    {
     "mangled_component_name":"_ZN7android8hardware9BHwBinder13unlinkToDeathERKNS_2wpINS0_7IBinder14DeathRecipientEEEPvjPS5_"
    },
    {
     "mangled_component_name":"_ZNK7android8hardware7IBinder13checkSubclassEPKv"
    },
    {
     "mangled_component_name":"_ZN7android8hardware9BHwBinder12attachObjectEPKvPvS4_PFvS3_S4_S4_E"
    },
    {
     "mangled_component_name":"_ZNK7android8hardware9BHwBinder10findObjectEPKv"
    },
    {
     "mangled_component_name":"_ZN7android8hardware9BHwBinder12detachObjectEPKv"
    },
    {
     "mangled_component_name":"_ZN7android8hardware9BHwBinder11localBinderEv"
    },
    {
     "mangled_component_name":"_ZN7android8hardware7IBinder12remoteBinderEv"
    },
    {
     "kind":"complete_dtor_pointer",
     "mangled_component_name":"_ZN7android8hardware4gnss4V1_08BnHwGnssD1Ev"
    },
    {
     "kind":"deleting_dtor_pointer",
     "mangled_component_name":"_ZN7android8hardware4gnss4V1_08BnHwGnssD0Ev"
    },
    {
     "mangled_component_name":"_ZN7android8hardware4gnss4V1_08BnHwGnss10onTransactEjRKNS0_6ParcelEPS4_jNSt3__18functionIFvRS4_EEE"
    },
    {
     "kind":"offset_to_top",
     "component_value":-32
    },
    {
     "kind":"rtti",
     "mangled_component_name":"_ZTIN7android8hardware4gnss4V1_08BnHwGnssE"
    },
    {
     "kind":"complete_dtor_pointer",
     "mangled_component_name":"_ZThn32_N7android8hardware4gnss4V1_08BnHwGnssD1Ev"
    },
    {
     "kind":"deleting_dtor_pointer",
     "mangled_component_name":"_ZThn32_N7android8hardware4gnss4V1_08BnHwGnssD0Ev"
    },
    {
     "kind":"vcall_offset"
    },
    {
     "kind":"vcall_offset"
    },
    {
     "kind":"vcall_offset"
    },
    {
     "kind":"vcall_offset"
    },
    {
     "kind":"vcall_offset",
     "component_value":-136
    },
    {
     "kind":"offset_to_top",
     "component_value":-136
    },
    {
     "kind":"rtti",
     "mangled_component_name":"_ZTIN7android8hardware4gnss4V1_08BnHwGnssE"
    },
    {
     "kind":"complete_dtor_pointer",
     "mangled_component_name":"_ZTv0_n24_N7android8hardware4gnss4V1_08BnHwGnssD1Ev"
    },
    {
     "kind":"deleting_dtor_pointer",
     "mangled_component_name":"_ZTv0_n24_N7android8hardware4gnss4V1_08BnHwGnssD0Ev"
    },
    {
     "mangled_component_name":"_ZN7android7RefBase10onFirstRefEv"
    },
    {
     "mangled_component_name":"_ZN7android7RefBase15onLastStrongRefEPKv"
    },
    {
     "mangled_component_name":"_ZN7android7RefBase20onIncStrongAttemptedEjPKv"
    },
    {
     "mangled_component_name":"_ZN7android7RefBase13onLastWeakRefEPKv"
    }
   ],
   "unique_id":"_ZTSN7android8hardware4gnss4V1_08BnHwGnssE"
  },
  {
   "vtable_components":[
    {
     "kind":"vbase_offset",
     "component_value":8
    },
    {
     "kind":"offset_to_top"
    },
    {
     "kind":"rtti",
     "mangled_component_name":"_ZTIN7android8hardware4gnss4V1_05IGnssE"
    },
    {
     "mangled_component_name":"_ZNK7android8hardware4gnss4V1_05IGnss8isRemoteEv"
    },
    {
     "mangled_component_name":"_ZN7android8hardware4gnss4V1_05IGnss14interfaceChainENSt3__18functionIFvRKNS0_8hidl_vecINS0_11hidl_stringEEEEEE"
    },
    {
     "mangled_component_name":"_ZN7android8hardware4gnss4V1_05IGnss5debugERKNS0_11hidl_handleERKNS0_8hidl_vecINS0_11hidl_stringEEE"
    },
    {
     "mangled_component_name":"_ZN7android8hardware4gnss4V1_05IGnss19interfaceDescriptorENSt3__18functionIFvRKNS0_11hidl_stringEEEE"
    },
    {
     "mangled_component_name":"_ZN7android8hardware4gnss4V1_05IGnss12getHashChainENSt3__18functionIFvRKNS0_8hidl_vecINS0_10hidl_arrayIhLm32EJEEEEEEEE"
    },
    {
     "mangled_component_name":"_ZN7android8hardware4gnss4V1_05IGnss21setHALInstrumentationEv"
    },
    {
     "mangled_component_name":"_ZN7android8hardware4gnss4V1_05IGnss11linkToDeathERKNS_2spINS0_20hidl_death_recipientEEEm"
    },
    {
     "mangled_component_name":"_ZN7android8hardware4gnss4V1_05IGnss4pingEv"
    },
    {
     "mangled_component_name":"_ZN7android8hardware4gnss4V1_05IGnss12getDebugInfoENSt3__18functionIFvRKNS_4hidl4base4V1_09DebugInfoEEEE"
    },
    {
     "mangled_component_name":"_ZN7android8hardware4gnss4V1_05IGnss21notifySyspropsChangedEv"
    },
    {
     "mangled_component_name":"_ZN7android8hardware4gnss4V1_05IGnss13unlinkToDeathERKNS_2spINS0_20hidl_death_recipientEEE"
    },
    {
     "kind":"complete_dtor_pointer",
     "mangled_component_name":"_ZN7android8hardware4gnss4V1_05IGnssD1Ev"
    },
    {
     "kind":"deleting_dtor_pointer",
     "mangled_component_name":"_ZN7android8hardware4gnss4V1_05IGnssD0Ev"
    },
    {
     "is_pure":true,
     "mangled_component_name":"_ZN7android8hardware4gnss4V1_05IGnss11setCallbackERKNS_2spINS2_13IGnssCallbackEEE"
    },
    {
     "is_pure":true,
     "mangled_component_name":"_ZN7android8hardware4gnss4V1_05IGnss5startEv"
    },
    {
     "is_pure":true,
     "mangled_component_name":"_ZN7android8hardware4gnss4V1_05IGnss4stopEv"
    },
    {
     "is_pure":true,
     "mangled_component_name":"_ZN7android8hardware4gnss4V1_05IGnss7cleanupEv"
    },
    {
     "is_pure":true,
     "mangled_component_name":"_ZN7android8hardware4gnss4V1_05IGnss10injectTimeElli"
    },
    {
     "is_pure":true,
     "mangled_component_name":"_ZN7android8hardware4gnss4V1_05IGnss14injectLocationEddf"
    },
    {
     "is_pure":true,
     "mangled_component_name":"_ZN7android8hardware4gnss4V1_05IGnss16deleteAidingDataENS3_14GnssAidingDataE"
    },
    {
     "is_pure":true,
     "mangled_component_name":"_ZN7android8hardware4gnss4V1_05IGnss15setPositionModeENS3_16GnssPositionModeENS3_22GnssPositionRecurrenceEjjj"
    },
    {
     "is_pure":true,
     "mangled_component_name":"_ZN7android8hardware4gnss4V1_05IGnss20getExtensionAGnssRilEv"
    },
    {
     "is_pure":true,
     "mangled_component_name":"_ZN7android8hardware4gnss4V1_05IGnss26getExtensionGnssGeofencingEv"
    },
    {
     "is_pure":true,
     "mangled_component_name":"_ZN7android8hardware4gnss4V1_05IGnss17getExtensionAGnssEv"
    },
    {
     "is_pure":true,
     "mangled_component_name":"_ZN7android8hardware4gnss4V1_05IGnss18getExtensionGnssNiEv"
    },
    {
     "is_pure":true,
     "mangled_component_name":"_ZN7android8hardware4gnss4V1_05IGnss27getExtensionGnssMeasurementEv"
    },
    {
     "is_pure":true,
     "mangled_component_name":"_ZN7android8hardware4gnss4V1_05IGnss33getExtensionGnssNavigationMessageEv"
    },
    {
     "is_pure":true,
     "mangled_component_name":"_ZN7android8hardware4gnss4V1_05IGnss16getExtensionXtraEv"
    },
    {
     "is_pure":true,
     "mangled_component_name":"_ZN7android8hardware4gnss4V1_05IGnss29getExtensionGnssConfigurationEv"
    },
    {
     "is_pure":true,
     "mangled_component_name":"_ZN7android8hardware4gnss4V1_05IGnss21getExtensionGnssDebugEv"
    },
    {
     "is_pure":true,
     "mangled_component_name":"_ZN7android8hardware4gnss4V1_05IGnss24getExtensionGnssBatchingEv"
    },
    {
     "kind":"vcall_offset"
    },
    {
     "kind":"vcall_offset"
    },
    {
     "kind":"vcall_offset"
    },
    {
     "kind":"vcall_offset"
    },
    {
     "kind":"vcall_offset",
     "component_value":-8
    },
    {
     "kind":"offset_to_top",
     "component_value":-8
    },
    {
     "kind":"rtti",
     "mangled_component_name":"_ZTIN7android8hardware4gnss4V1_05IGnssE"
    },
    {
     "kind":"complete_dtor_pointer",
     "mangled_component_name":"_ZTv0_n24_N7android8hardware4gnss4V1_05IGnssD1Ev"
    },
    {
     "kind":"deleting_dtor_pointer",
     "mangled_component_name":"_ZTv0_n24_N7android8hardware4gnss4V1_05IGnssD0Ev"
    },
    {
     "mangled_component_name":"_ZN7android7RefBase10onFirstRefEv"
    },
    {
     "mangled_component_name":"_ZN7android7RefBase15onLastStrongRefEPKv"
    },
    {
     "mangled_component_name":"_ZN7android7RefBase20onIncStrongAttemptedEjPKv"
    },
    {
     "mangled_component_name":"_ZN7android7RefBase13onLastWeakRefEPKv"
    }
   ],
   "unique_id":"_ZTSN7android8hardware4gnss4V1_05IGnssE"
  },
  {
   "vtable_components":[
    {
     "kind":"vbase_offset",
     "component_value":136
    },
    {
     "kind":"offset_to_top"
    },
    {
     "kind":"rtti",
     "mangled_component_name":"_ZTIN7android8hardware4gnss4V1_024BnHwGnssBatchingCallbackE"
    },
    {
     "mangled_component_name":"_ZN7android8hardware9BHwBinder8transactEjRKNS0_6ParcelEPS2_jNSt3__18functionIFvRS2_EEE"
    },
    {
     "mangled_component_name":"_ZN7android8hardware9BHwBinder11linkToDeathERKNS_2spINS0_7IBinder14DeathRecipientEEEPvj"
    },
    {
     "mangled_component_name":"_ZN7android8hardware9BHwBinder13unlinkToDeathERKNS_2wpINS0_7IBinder14DeathRecipientEEEPvjPS5_"
    },
    {
     "mangled_component_name":"_ZNK7android8hardware7IBinder13checkSubclassEPKv"
    },
    {
     "mangled_component_name":"_ZN7android8hardware9BHwBinder12attachObjectEPKvPvS4_PFvS3_S4_S4_E"
    },
    {
     "mangled_component_name":"_ZNK7android8hardware9BHwBinder10findObjectEPKv"
    },
    {
     "mangled_component_name":"_ZN7android8hardware9BHwBinder12detachObjectEPKv"
    },
    {
     "mangled_component_name":"_ZN7android8hardware9BHwBinder11localBinderEv"
    },
    {
     "mangled_component_name":"_ZN7android8hardware7IBinder12remoteBinderEv"
    },
    {
     "kind":"complete_dtor_pointer",
     "mangled_component_name":"_ZN7android8hardware4gnss4V1_024BnHwGnssBatchingCallbackD1Ev"
    },
    {
     "kind":"deleting_dtor_pointer",
     "mangled_component_name":"_ZN7android8hardware4gnss4V1_024BnHwGnssBatchingCallbackD0Ev"
    },
    {
     "mangled_component_name":"_ZN7android8hardware4gnss4V1_024BnHwGnssBatchingCallback10onTransactEjRKNS0_6ParcelEPS4_jNSt3__18functionIFvRS4_EEE"
    },
    {
     "kind":"offset_to_top",
     "component_value":-32
    },
    {
     "kind":"rtti",
     "mangled_component_name":"_ZTIN7android8hardware4gnss4V1_024BnHwGnssBatchingCallbackE"
    },
    {
     "kind":"complete_dtor_pointer",
     "mangled_component_name":"_ZThn32_N7android8hardware4gnss4V1_024BnHwGnssBatchingCallbackD1Ev"
    },
    {
     "kind":"deleting_dtor_pointer",
     "mangled_component_name":"_ZThn32_N7android8hardware4gnss4V1_024BnHwGnssBatchingCallbackD0Ev"
    },
    {
     "kind":"vcall_offset"
    },
    {
     "kind":"vcall_offset"
    },
    {
     "kind":"vcall_offset"
    },
    {
     "kind":"vcall_offset"
    },
    {
     "kind":"vcall_offset",
     "component_value":-136
    },
    {
     "kind":"offset_to_top",
     "component_value":-136
    },
    {
     "kind":"rtti",
     "mangled_component_name":"_ZTIN7android8hardware4gnss4V1_024BnHwGnssBatchingCallbackE"
    },
    {
     "kind":"complete_dtor_pointer",
     "mangled_component_name":"_ZTv0_n24_N7android8hardware4gnss4V1_024BnHwGnssBatchingCallbackD1Ev"
    },
    {
     "kind":"deleting_dtor_pointer",
     "mangled_component_name":"_ZTv0_n24_N7android8hardware4gnss4V1_024BnHwGnssBatchingCallbackD0Ev"
    },
    {
     "mangled_component_name":"_ZN7android7RefBase10onFirstRefEv"
    },
    {
     "mangled_component_name":"_ZN7android7RefBase15onLastStrongRefEPKv"
    },
    {
     "mangled_component_name":"_ZN7android7RefBase20onIncStrongAttemptedEjPKv"
    },
    {
     "mangled_component_name":"_ZN7android7RefBase13onLastWeakRefEPKv"
    }
   ],
   "unique_id":"_ZTSN7android8hardware4gnss4V1_024BnHwGnssBatchingCallbackE"
  },
  {
   "vtable_components":[
    {
     "kind":"vbase_offset",
     "component_value":8
    },
    {
     "kind":"offset_to_top"
    },
    {
     "kind":"rtti",
     "mangled_component_name":"_ZTIN7android8hardware4gnss4V1_021IGnssBatchingCallbackE"
    },
    {
     "mangled_component_name":"_ZNK7android8hardware4gnss4V1_021IGnssBatchingCallback8isRemoteEv"
    },
    {
     "mangled_component_name":"_ZN7android8hardware4gnss4V1_021IGnssBatchingCallback14interfaceChainENSt3__18functionIFvRKNS0_8hidl_vecINS0_11hidl_stringEEEEEE"
    },
    {
     "mangled_component_name":"_ZN7android8hardware4gnss4V1_021IGnssBatchingCallback5debugERKNS0_11hidl_handleERKNS0_8hidl_vecINS0_11hidl_stringEEE"
    },
    {
     "mangled_component_name":"_ZN7android8hardware4gnss4V1_021IGnssBatchingCallback19interfaceDescriptorENSt3__18functionIFvRKNS0_11hidl_stringEEEE"
    },
    {
     "mangled_component_name":"_ZN7android8hardware4gnss4V1_021IGnssBatchingCallback12getHashChainENSt3__18functionIFvRKNS0_8hidl_vecINS0_10hidl_arrayIhLm32EJEEEEEEEE"
    },
    {
     "mangled_component_name":"_ZN7android8hardware4gnss4V1_021IGnssBatchingCallback21setHALInstrumentationEv"
    },
    {
     "mangled_component_name":"_ZN7android8hardware4gnss4V1_021IGnssBatchingCallback11linkToDeathERKNS_2spINS0_20hidl_death_recipientEEEm"
    },
    {
     "mangled_component_name":"_ZN7android8hardware4gnss4V1_021IGnssBatchingCallback4pingEv"
    },
    {
     "mangled_component_name":"_ZN7android8hardware4gnss4V1_021IGnssBatchingCallback12getDebugInfoENSt3__18functionIFvRKNS_4hidl4base4V1_09DebugInfoEEEE"
    },
    {
     "mangled_component_name":"_ZN7android8hardware4gnss4V1_021IGnssBatchingCallback21notifySyspropsChangedEv"
    },
    {
     "mangled_component_name":"_ZN7android8hardware4gnss4V1_021IGnssBatchingCallback13unlinkToDeathERKNS_2spINS0_20hidl_death_recipientEEE"
    },
    {
     "kind":"complete_dtor_pointer",
     "mangled_component_name":"_ZN7android8hardware4gnss4V1_021IGnssBatchingCallbackD1Ev"
    },
    {
     "kind":"deleting_dtor_pointer",
     "mangled_component_name":"_ZN7android8hardware4gnss4V1_021IGnssBatchingCallbackD0Ev"
    },
    {
     "is_pure":true,
     "mangled_component_name":"_ZN7android8hardware4gnss4V1_021IGnssBatchingCallback19gnssLocationBatchCbERKNS0_8hidl_vecINS2_12GnssLocationEEE"
    },
    {
     "kind":"vcall_offset"
    },
    {
     "kind":"vcall_offset"
    },
    {
     "kind":"vcall_offset"
    },
    {
     "kind":"vcall_offset"
    },
    {
     "kind":"vcall_offset",
     "component_value":-8
    },
    {
     "kind":"offset_to_top",
     "component_value":-8
    },
    {
     "kind":"rtti",
     "mangled_component_name":"_ZTIN7android8hardware4gnss4V1_021IGnssBatchingCallbackE"
    },
    {
     "kind":"complete_dtor_pointer",
     "mangled_component_name":"_ZTv0_n24_N7android8hardware4gnss4V1_021IGnssBatchingCallbackD1Ev"
    },
    {
     "kind":"deleting_dtor_pointer",
     "mangled_component_name":"_ZTv0_n24_N7android8hardware4gnss4V1_021IGnssBatchingCallbackD0Ev"
    },
    {
     "mangled_component_name":"_ZN7android7RefBase10onFirstRefEv"
    },
    {
     "mangled_component_name":"_ZN7android7RefBase15onLastStrongRefEPKv"
    },
    {
     "mangled_component_name":"_ZN7android7RefBase20onIncStrongAttemptedEjPKv"
    },
    {
     "mangled_component_name":"_ZN7android7RefBase13onLastWeakRefEPKv"
    }
   ],
   "unique_id":"_ZTSN7android8hardware4gnss4V1_021IGnssBatchingCallbackE"
  },
  {
   "vtable_components":[
    {
     "kind":"vbase_offset",
     "component_value":200
    },
    {
     "kind":"offset_to_top"
    },
    {
     "kind":"rtti",
     "mangled_component_name":"_ZTIN7android8hardware4gnss4V1_024BpHwGnssBatchingCallbackE"
    },
    {
     "mangled_component_name":"_ZNK7android8hardware4gnss4V1_024BpHwGnssBatchingCallback8isRemoteEv"
    },
    {
     "mangled_component_name":"_ZN7android8hardware4gnss4V1_024BpHwGnssBatchingCallback14interfaceChainENSt3__18functionIFvRKNS0_8hidl_vecINS0_11hidl_stringEEEEEE"
    },
    {
     "mangled_component_name":"_ZN7android8hardware4gnss4V1_024BpHwGnssBatchingCallback5debugERKNS0_11hidl_handleERKNS0_8hidl_vecINS0_11hidl_stringEEE"
    },
    {
     "mangled_component_name":"_ZN7android8hardware4gnss4V1_024BpHwGnssBatchingCallback19interfaceDescriptorENSt3__18functionIFvRKNS0_11hidl_stringEEEE"
    },
    {
     "mangled_component_name":"_ZN7android8hardware4gnss4V1_024BpHwGnssBatchingCallback12getHashChainENSt3__18functionIFvRKNS0_8hidl_vecINS0_10hidl_arrayIhLm32EJEEEEEEEE"
    },
    {
     "mangled_component_name":"_ZN7android8hardware4gnss4V1_024BpHwGnssBatchingCallback21setHALInstrumentationEv"
    },
    {
     "mangled_component_name":"_ZN7android8hardware4gnss4V1_024BpHwGnssBatchingCallback11linkToDeathERKNS_2spINS0_20hidl_death_recipientEEEm"
    },
    {
     "mangled_component_name":"_ZN7android8hardware4gnss4V1_024BpHwGnssBatchingCallback4pingEv"
    },
    {
     "mangled_component_name":"_ZN7android8hardware4gnss4V1_024BpHwGnssBatchingCallback12getDebugInfoENSt3__18functionIFvRKNS_4hidl4base4V1_09DebugInfoEEEE"
    },
    {
     "mangled_component_name":"_ZN7android8hardware4gnss4V1_024BpHwGnssBatchingCallback21notifySyspropsChangedEv"
    },
    {
     "mangled_component_name":"_ZN7android8hardware4gnss4V1_024BpHwGnssBatchingCallback13unlinkToDeathERKNS_2spINS0_20hidl_death_recipientEEE"
    },
    {
     "kind":"complete_dtor_pointer",
     "mangled_component_name":"_ZN7android8hardware4gnss4V1_024BpHwGnssBatchingCallbackD1Ev"
    },
    {
     "kind":"deleting_dtor_pointer",
     "mangled_component_name":"_ZN7android8hardware4gnss4V1_024BpHwGnssBatchingCallbackD0Ev"
    },
    {
     "mangled_component_name":"_ZN7android8hardware4gnss4V1_024BpHwGnssBatchingCallback19gnssLocationBatchCbERKNS0_8hidl_vecINS2_12GnssLocationEEE"
    },
    {
     "mangled_component_name":"_ZN7android8hardware11BpInterfaceINS0_4gnss4V1_021IGnssBatchingCallbackEE10onAsBinderEv"
    },
    {
     "kind":"vbase_offset",
     "component_value":192
    },
    {
     "kind":"offset_to_top",
     "component_value":-8
    },
    {
     "kind":"rtti",
     "mangled_component_name":"_ZTIN7android8hardware4gnss4V1_024BpHwGnssBatchingCallbackE"
    },
    {
     "kind":"complete_dtor_pointer",
     "mangled_component_name":"_ZThn8_N7android8hardware4gnss4V1_024BpHwGnssBatchingCallbackD1Ev"
    },
    {
     "kind":"deleting_dtor_pointer",
     "mangled_component_name":"_ZThn8_N7android8hardware4gnss4V1_024BpHwGnssBatchingCallbackD0Ev"
    },
    {
     "mangled_component_name":"_ZThn8_N7android8hardware11BpInterfaceINS0_4gnss4V1_021IGnssBatchingCallbackEE10onAsBinderEv"
    },
    {
     "kind":"vbase_offset",
     "component_value":184
    },
    {
     "kind":"offset_to_top",
     "component_value":-16
    },
    {
     "kind":"rtti",
     "mangled_component_name":"_ZTIN7android8hardware4gnss4V1_024BpHwGnssBatchingCallbackE"
    },
    {
     "kind":"complete_dtor_pointer",
     "mangled_component_name":"_ZThn16_N7android8hardware4gnss4V1_024BpHwGnssBatchingCallbackD1Ev"
    },
    {
     "kind":"deleting_dtor_pointer",
     "mangled_component_name":"_ZThn16_N7android8hardware4gnss4V1_024BpHwGnssBatchingCallbackD0Ev"
    },
    {
     "mangled_component_name":"_ZN7android8hardware11BpHwRefBase10onFirstRefEv"
    },
    {
     "mangled_component_name":"_ZN7android8hardware11BpHwRefBase15onLastStrongRefEPKv"
    },
    {
     "mangled_component_name":"_ZN7android8hardware11BpHwRefBase20onIncStrongAttemptedEjPKv"
    },
    {
     "kind":"offset_to_top",
     "component_value":-48
    },
    {
     "kind":"rtti",
     "mangled_component_name":"_ZTIN7android8hardware4gnss4V1_024BpHwGnssBatchingCallbackE"
    },
    {
     "kind":"complete_dtor_pointer",
     "mangled_component_name":"_ZThn48_N7android8hardware4gnss4V1_024BpHwGnssBatchingCallbackD1Ev"
    },
    {
     "kind":"deleting_dtor_pointer",
     "mangled_component_name":"_ZThn48_N7android8hardware4gnss4V1_024BpHwGnssBatchingCallbackD0Ev"
    },
    {
     "kind":"vcall_offset"
    },
    {
     "kind":"vcall_offset",
     "component_value":-184
    },
    {
     "kind":"vcall_offset",
     "component_value":-184
    },
    {
     "kind":"vcall_offset",
     "component_value":-184
    },
    {
     "kind":"vcall_offset",
     "component_value":-200
    },
    {
     "kind":"offset_to_top",
     "component_value":-200
    },
    {
     "kind":"rtti",
     "mangled_component_name":"_ZTIN7android8hardware4gnss4V1_024BpHwGnssBatchingCallbackE"
    },
    {
     "kind":"complete_dtor_pointer",
     "mangled_component_name":"_ZTv0_n24_N7android8hardware4gnss4V1_024BpHwGnssBatchingCallbackD1Ev"
    },
    {
     "kind":"deleting_dtor_pointer",
     "mangled_component_name":"_ZTv0_n24_N7android8hardware4gnss4V1_024BpHwGnssBatchingCallbackD0Ev"
    },
    {
     "mangled_component_name":"_ZTv0_n32_N7android8hardware11BpHwRefBase10onFirstRefEv"
    },
    {
     "mangled_component_name":"_ZTv0_n40_N7android8hardware11BpHwRefBase15onLastStrongRefEPKv"
    },
    {
     "mangled_component_name":"_ZTv0_n48_N7android8hardware11BpHwRefBase20onIncStrongAttemptedEjPKv"
    },
    {
     "mangled_component_name":"_ZN7android7RefBase13onLastWeakRefEPKv"
    }
   ],
   "unique_id":"_ZTSN7android8hardware4gnss4V1_024BpHwGnssBatchingCallbackE"
  },
  {
   "vtable_components":[
    {
     "kind":"vbase_offset",
     "component_value":136
    },
    {
     "kind":"offset_to_top"
    },
    {
     "kind":"rtti",
     "mangled_component_name":"_ZTIN7android8hardware4gnss4V1_016BnHwGnssBatchingE"
    },
    {
     "mangled_component_name":"_ZN7android8hardware9BHwBinder8transactEjRKNS0_6ParcelEPS2_jNSt3__18functionIFvRS2_EEE"
    },
    {
     "mangled_component_name":"_ZN7android8hardware9BHwBinder11linkToDeathERKNS_2spINS0_7IBinder14DeathRecipientEEEPvj"
    },
    {
     "mangled_component_name":"_ZN7android8hardware9BHwBinder13unlinkToDeathERKNS_2wpINS0_7IBinder14DeathRecipientEEEPvjPS5_"
    },
    {
     "mangled_component_name":"_ZNK7android8hardware7IBinder13checkSubclassEPKv"
    },
    {
     "mangled_component_name":"_ZN7android8hardware9BHwBinder12attachObjectEPKvPvS4_PFvS3_S4_S4_E"
    },
    {
     "mangled_component_name":"_ZNK7android8hardware9BHwBinder10findObjectEPKv"
    },
    {
     "mangled_component_name":"_ZN7android8hardware9BHwBinder12detachObjectEPKv"
    },
    {
     "mangled_component_name":"_ZN7android8hardware9BHwBinder11localBinderEv"
    },
    {
     "mangled_component_name":"_ZN7android8hardware7IBinder12remoteBinderEv"
    },
    {
     "kind":"complete_dtor_pointer",
     "mangled_component_name":"_ZN7android8hardware4gnss4V1_016BnHwGnssBatchingD1Ev"
    },
    {
     "kind":"deleting_dtor_pointer",
     "mangled_component_name":"_ZN7android8hardware4gnss4V1_016BnHwGnssBatchingD0Ev"
    },
    {
     "mangled_component_name":"_ZN7android8hardware4gnss4V1_016BnHwGnssBatching10onTransactEjRKNS0_6ParcelEPS4_jNSt3__18functionIFvRS4_EEE"
    },
    {
     "kind":"offset_to_top",
     "component_value":-32
    },
    {
     "kind":"rtti",
     "mangled_component_name":"_ZTIN7android8hardware4gnss4V1_016BnHwGnssBatchingE"
    },
    {
     "kind":"complete_dtor_pointer",
     "mangled_component_name":"_ZThn32_N7android8hardware4gnss4V1_016BnHwGnssBatchingD1Ev"
    },
    {
     "kind":"deleting_dtor_pointer",
     "mangled_component_name":"_ZThn32_N7android8hardware4gnss4V1_016BnHwGnssBatchingD0Ev"
    },
    {
     "kind":"vcall_offset"
    },
    {
     "kind":"vcall_offset"
    },
    {
     "kind":"vcall_offset"
    },
    {
     "kind":"vcall_offset"
    },
    {
     "kind":"vcall_offset",
     "component_value":-136
    },
    {
     "kind":"offset_to_top",
     "component_value":-136
    },
    {
     "kind":"rtti",
     "mangled_component_name":"_ZTIN7android8hardware4gnss4V1_016BnHwGnssBatchingE"
    },
    {
     "kind":"complete_dtor_pointer",
     "mangled_component_name":"_ZTv0_n24_N7android8hardware4gnss4V1_016BnHwGnssBatchingD1Ev"
    },
    {
     "kind":"deleting_dtor_pointer",
     "mangled_component_name":"_ZTv0_n24_N7android8hardware4gnss4V1_016BnHwGnssBatchingD0Ev"
    },
    {
     "mangled_component_name":"_ZN7android7RefBase10onFirstRefEv"
    },
    {
     "mangled_component_name":"_ZN7android7RefBase15onLastStrongRefEPKv"
    },
    {
     "mangled_component_name":"_ZN7android7RefBase20onIncStrongAttemptedEjPKv"
    },
    {
     "mangled_component_name":"_ZN7android7RefBase13onLastWeakRefEPKv"
    }
   ],
   "unique_id":"_ZTSN7android8hardware4gnss4V1_016BnHwGnssBatchingE"
  },
  {
   "vtable_components":[
    {
     "kind":"vbase_offset",
     "component_value":8
    },
    {
     "kind":"offset_to_top"
    },
    {
     "kind":"rtti",
     "mangled_component_name":"_ZTIN7android8hardware4gnss4V1_013IGnssBatchingE"
    },
    {
     "mangled_component_name":"_ZNK7android8hardware4gnss4V1_013IGnssBatching8isRemoteEv"
    },
    {
     "mangled_component_name":"_ZN7android8hardware4gnss4V1_013IGnssBatching14interfaceChainENSt3__18functionIFvRKNS0_8hidl_vecINS0_11hidl_stringEEEEEE"
    },
    {
     "mangled_component_name":"_ZN7android8hardware4gnss4V1_013IGnssBatching5debugERKNS0_11hidl_handleERKNS0_8hidl_vecINS0_11hidl_stringEEE"
    },
    {
     "mangled_component_name":"_ZN7android8hardware4gnss4V1_013IGnssBatching19interfaceDescriptorENSt3__18functionIFvRKNS0_11hidl_stringEEEE"
    },
    {
     "mangled_component_name":"_ZN7android8hardware4gnss4V1_013IGnssBatching12getHashChainENSt3__18functionIFvRKNS0_8hidl_vecINS0_10hidl_arrayIhLm32EJEEEEEEEE"
    },
    {
     "mangled_component_name":"_ZN7android8hardware4gnss4V1_013IGnssBatching21setHALInstrumentationEv"
    },
    {
     "mangled_component_name":"_ZN7android8hardware4gnss4V1_013IGnssBatching11linkToDeathERKNS_2spINS0_20hidl_death_recipientEEEm"
    },
    {
     "mangled_component_name":"_ZN7android8hardware4gnss4V1_013IGnssBatching4pingEv"
    },
    {
     "mangled_component_name":"_ZN7android8hardware4gnss4V1_013IGnssBatching12getDebugInfoENSt3__18functionIFvRKNS_4hidl4base4V1_09DebugInfoEEEE"
    },
    {
     "mangled_component_name":"_ZN7android8hardware4gnss4V1_013IGnssBatching21notifySyspropsChangedEv"
    },
    {
     "mangled_component_name":"_ZN7android8hardware4gnss4V1_013IGnssBatching13unlinkToDeathERKNS_2spINS0_20hidl_death_recipientEEE"
    },
    {
     "kind":"complete_dtor_pointer",
     "mangled_component_name":"_ZN7android8hardware4gnss4V1_013IGnssBatchingD1Ev"
    },
    {
     "kind":"deleting_dtor_pointer",
     "mangled_component_name":"_ZN7android8hardware4gnss4V1_013IGnssBatchingD0Ev"
    },
    {
     "is_pure":true,
     "mangled_component_name":"_ZN7android8hardware4gnss4V1_013IGnssBatching4initERKNS_2spINS2_21IGnssBatchingCallbackEEE"
    },
    {
     "is_pure":true,
     "mangled_component_name":"_ZN7android8hardware4gnss4V1_013IGnssBatching12getBatchSizeEv"
    },
    {
     "is_pure":true,
     "mangled_component_name":"_ZN7android8hardware4gnss4V1_013IGnssBatching5startERKNS3_7OptionsE"
    },
    {
     "is_pure":true,
     "mangled_component_name":"_ZN7android8hardware4gnss4V1_013IGnssBatching5flushEv"
    },
    {
     "is_pure":true,
     "mangled_component_name":"_ZN7android8hardware4gnss4V1_013IGnssBatching4stopEv"
    },
    {
     "is_pure":true,
     "mangled_component_name":"_ZN7android8hardware4gnss4V1_013IGnssBatching7cleanupEv"
    },
    {
     "kind":"vcall_offset"
    },
    {
     "kind":"vcall_offset"
    },
    {
     "kind":"vcall_offset"
    },
    {
     "kind":"vcall_offset"
    },
    {
     "kind":"vcall_offset",
     "component_value":-8
    },
    {
     "kind":"offset_to_top",
     "component_value":-8
    },
    {
     "kind":"rtti",
     "mangled_component_name":"_ZTIN7android8hardware4gnss4V1_013IGnssBatchingE"
    },
    {
     "kind":"complete_dtor_pointer",
     "mangled_component_name":"_ZTv0_n24_N7android8hardware4gnss4V1_013IGnssBatchingD1Ev"
    },
    {
     "kind":"deleting_dtor_pointer",
     "mangled_component_name":"_ZTv0_n24_N7android8hardware4gnss4V1_013IGnssBatchingD0Ev"
    },
    {
     "mangled_component_name":"_ZN7android7RefBase10onFirstRefEv"
    },
    {
     "mangled_component_name":"_ZN7android7RefBase15onLastStrongRefEPKv"
    },
    {
     "mangled_component_name":"_ZN7android7RefBase20onIncStrongAttemptedEjPKv"
    },
    {
     "mangled_component_name":"_ZN7android7RefBase13onLastWeakRefEPKv"
    }
   ],
   "unique_id":"_ZTSN7android8hardware4gnss4V1_013IGnssBatchingE"
  },
  {
   "vtable_components":[
    {
     "kind":"vbase_offset",
     "component_value":200
    },
    {
     "kind":"offset_to_top"
    },
    {
     "kind":"rtti",
     "mangled_component_name":"_ZTIN7android8hardware4gnss4V1_016BpHwGnssBatchingE"
    },
    {
     "mangled_component_name":"_ZNK7android8hardware4gnss4V1_016BpHwGnssBatching8isRemoteEv"
    },
    {
     "mangled_component_name":"_ZN7android8hardware4gnss4V1_016BpHwGnssBatching14interfaceChainENSt3__18functionIFvRKNS0_8hidl_vecINS0_11hidl_stringEEEEEE"
    },
    {
     "mangled_component_name":"_ZN7android8hardware4gnss4V1_016BpHwGnssBatching5debugERKNS0_11hidl_handleERKNS0_8hidl_vecINS0_11hidl_stringEEE"
    },
    {
     "mangled_component_name":"_ZN7android8hardware4gnss4V1_016BpHwGnssBatching19interfaceDescriptorENSt3__18functionIFvRKNS0_11hidl_stringEEEE"
    },
    {
     "mangled_component_name":"_ZN7android8hardware4gnss4V1_016BpHwGnssBatching12getHashChainENSt3__18functionIFvRKNS0_8hidl_vecINS0_10hidl_arrayIhLm32EJEEEEEEEE"
    },
    {
     "mangled_component_name":"_ZN7android8hardware4gnss4V1_016BpHwGnssBatching21setHALInstrumentationEv"
    },
    {
     "mangled_component_name":"_ZN7android8hardware4gnss4V1_016BpHwGnssBatching11linkToDeathERKNS_2spINS0_20hidl_death_recipientEEEm"
    },
    {
     "mangled_component_name":"_ZN7android8hardware4gnss4V1_016BpHwGnssBatching4pingEv"
    },
    {
     "mangled_component_name":"_ZN7android8hardware4gnss4V1_016BpHwGnssBatching12getDebugInfoENSt3__18functionIFvRKNS_4hidl4base4V1_09DebugInfoEEEE"
    },
    {
     "mangled_component_name":"_ZN7android8hardware4gnss4V1_016BpHwGnssBatching21notifySyspropsChangedEv"
    },
    {
     "mangled_component_name":"_ZN7android8hardware4gnss4V1_016BpHwGnssBatching13unlinkToDeathERKNS_2spINS0_20hidl_death_recipientEEE"
    },
    {
     "kind":"complete_dtor_pointer",
     "mangled_component_name":"_ZN7android8hardware4gnss4V1_016BpHwGnssBatchingD1Ev"
    },
    {
     "kind":"deleting_dtor_pointer",
     "mangled_component_name":"_ZN7android8hardware4gnss4V1_016BpHwGnssBatchingD0Ev"
    },
    {
     "mangled_component_name":"_ZN7android8hardware4gnss4V1_016BpHwGnssBatching4initERKNS_2spINS2_21IGnssBatchingCallbackEEE"
    },
    {
     "mangled_component_name":"_ZN7android8hardware4gnss4V1_016BpHwGnssBatching12getBatchSizeEv"
    },
    {
     "mangled_component_name":"_ZN7android8hardware4gnss4V1_016BpHwGnssBatching5startERKNS2_13IGnssBatching7OptionsE"
    },
    {
     "mangled_component_name":"_ZN7android8hardware4gnss4V1_016BpHwGnssBatching5flushEv"
    },
    {
     "mangled_component_name":"_ZN7android8hardware4gnss4V1_016BpHwGnssBatching4stopEv"
    },
    {
     "mangled_component_name":"_ZN7android8hardware4gnss4V1_016BpHwGnssBatching7cleanupEv"
    },
    {
     "mangled_component_name":"_ZN7android8hardware11BpInterfaceINS0_4gnss4V1_013IGnssBatchingEE10onAsBinderEv"
    },
    {
     "kind":"vbase_offset",
     "component_value":192
    },
    {
     "kind":"offset_to_top",
     "component_value":-8
    },
    {
     "kind":"rtti",
     "mangled_component_name":"_ZTIN7android8hardware4gnss4V1_016BpHwGnssBatchingE"
    },
    {
     "kind":"complete_dtor_pointer",
     "mangled_component_name":"_ZThn8_N7android8hardware4gnss4V1_016BpHwGnssBatchingD1Ev"
    },
    {
     "kind":"deleting_dtor_pointer",
     "mangled_component_name":"_ZThn8_N7android8hardware4gnss4V1_016BpHwGnssBatchingD0Ev"
    },
    {
     "mangled_component_name":"_ZThn8_N7android8hardware11BpInterfaceINS0_4gnss4V1_013IGnssBatchingEE10onAsBinderEv"
    },
    {
     "kind":"vbase_offset",
     "component_value":184
    },
    {
     "kind":"offset_to_top",
     "component_value":-16
    },
    {
     "kind":"rtti",
     "mangled_component_name":"_ZTIN7android8hardware4gnss4V1_016BpHwGnssBatchingE"
    },
    {
     "kind":"complete_dtor_pointer",
     "mangled_component_name":"_ZThn16_N7android8hardware4gnss4V1_016BpHwGnssBatchingD1Ev"
    },
    {
     "kind":"deleting_dtor_pointer",
     "mangled_component_name":"_ZThn16_N7android8hardware4gnss4V1_016BpHwGnssBatchingD0Ev"
    },
    {
     "mangled_component_name":"_ZN7android8hardware11BpHwRefBase10onFirstRefEv"
    },
    {
     "mangled_component_name":"_ZN7android8hardware11BpHwRefBase15onLastStrongRefEPKv"
    },
    {
     "mangled_component_name":"_ZN7android8hardware11BpHwRefBase20onIncStrongAttemptedEjPKv"
    },
    {
     "kind":"offset_to_top",
     "component_value":-48
    },
    {
     "kind":"rtti",
     "mangled_component_name":"_ZTIN7android8hardware4gnss4V1_016BpHwGnssBatchingE"
    },
    {
     "kind":"complete_dtor_pointer",
     "mangled_component_name":"_ZThn48_N7android8hardware4gnss4V1_016BpHwGnssBatchingD1Ev"
    },
    {
     "kind":"deleting_dtor_pointer",
     "mangled_component_name":"_ZThn48_N7android8hardware4gnss4V1_016BpHwGnssBatchingD0Ev"
    },
    {
     "kind":"vcall_offset"
    },
    {
     "kind":"vcall_offset",
     "component_value":-184
    },
    {
     "kind":"vcall_offset",
     "component_value":-184
    },
    {
     "kind":"vcall_offset",
     "component_value":-184
    },
    {
     "kind":"vcall_offset",
     "component_value":-200
    },
    {
     "kind":"offset_to_top",
     "component_value":-200
    },
    {
     "kind":"rtti",
     "mangled_component_name":"_ZTIN7android8hardware4gnss4V1_016BpHwGnssBatchingE"
    },
    {
     "kind":"complete_dtor_pointer",
     "mangled_component_name":"_ZTv0_n24_N7android8hardware4gnss4V1_016BpHwGnssBatchingD1Ev"
    },
    {
     "kind":"deleting_dtor_pointer",
     "mangled_component_name":"_ZTv0_n24_N7android8hardware4gnss4V1_016BpHwGnssBatchingD0Ev"
    },
    {
     "mangled_component_name":"_ZTv0_n32_N7android8hardware11BpHwRefBase10onFirstRefEv"
    },
    {
     "mangled_component_name":"_ZTv0_n40_N7android8hardware11BpHwRefBase15onLastStrongRefEPKv"
    },
    {
     "mangled_component_name":"_ZTv0_n48_N7android8hardware11BpHwRefBase20onIncStrongAttemptedEjPKv"
    },
    {
     "mangled_component_name":"_ZN7android7RefBase13onLastWeakRefEPKv"
    }
   ],
   "unique_id":"_ZTSN7android8hardware4gnss4V1_016BpHwGnssBatchingE"
  },
  {
   "vtable_components":[
    {
     "kind":"vbase_offset",
     "component_value":136
    },
    {
     "kind":"offset_to_top"
    },
    {
     "kind":"rtti",
     "mangled_component_name":"_ZTIN7android8hardware4gnss4V1_016BnHwGnssCallbackE"
    },
    {
     "mangled_component_name":"_ZN7android8hardware9BHwBinder8transactEjRKNS0_6ParcelEPS2_jNSt3__18functionIFvRS2_EEE"
    },
    {
     "mangled_component_name":"_ZN7android8hardware9BHwBinder11linkToDeathERKNS_2spINS0_7IBinder14DeathRecipientEEEPvj"
    },
    {
     "mangled_component_name":"_ZN7android8hardware9BHwBinder13unlinkToDeathERKNS_2wpINS0_7IBinder14DeathRecipientEEEPvjPS5_"
    },
    {
     "mangled_component_name":"_ZNK7android8hardware7IBinder13checkSubclassEPKv"
    },
    {
     "mangled_component_name":"_ZN7android8hardware9BHwBinder12attachObjectEPKvPvS4_PFvS3_S4_S4_E"
    },
    {
     "mangled_component_name":"_ZNK7android8hardware9BHwBinder10findObjectEPKv"
    },
    {
     "mangled_component_name":"_ZN7android8hardware9BHwBinder12detachObjectEPKv"
    },
    {
     "mangled_component_name":"_ZN7android8hardware9BHwBinder11localBinderEv"
    },
    {
     "mangled_component_name":"_ZN7android8hardware7IBinder12remoteBinderEv"
    },
    {
     "kind":"complete_dtor_pointer",
     "mangled_component_name":"_ZN7android8hardware4gnss4V1_016BnHwGnssCallbackD1Ev"
    },
    {
     "kind":"deleting_dtor_pointer",
     "mangled_component_name":"_ZN7android8hardware4gnss4V1_016BnHwGnssCallbackD0Ev"
    },
    {
     "mangled_component_name":"_ZN7android8hardware4gnss4V1_016BnHwGnssCallback10onTransactEjRKNS0_6ParcelEPS4_jNSt3__18functionIFvRS4_EEE"
    },
    {
     "kind":"offset_to_top",
     "component_value":-32
    },
    {
     "kind":"rtti",
     "mangled_component_name":"_ZTIN7android8hardware4gnss4V1_016BnHwGnssCallbackE"
    },
    {
     "kind":"complete_dtor_pointer",
     "mangled_component_name":"_ZThn32_N7android8hardware4gnss4V1_016BnHwGnssCallbackD1Ev"
    },
    {
     "kind":"deleting_dtor_pointer",
     "mangled_component_name":"_ZThn32_N7android8hardware4gnss4V1_016BnHwGnssCallbackD0Ev"
    },
    {
     "kind":"vcall_offset"
    },
    {
     "kind":"vcall_offset"
    },
    {
     "kind":"vcall_offset"
    },
    {
     "kind":"vcall_offset"
    },
    {
     "kind":"vcall_offset",
     "component_value":-136
    },
    {
     "kind":"offset_to_top",
     "component_value":-136
    },
    {
     "kind":"rtti",
     "mangled_component_name":"_ZTIN7android8hardware4gnss4V1_016BnHwGnssCallbackE"
    },
    {
     "kind":"complete_dtor_pointer",
     "mangled_component_name":"_ZTv0_n24_N7android8hardware4gnss4V1_016BnHwGnssCallbackD1Ev"
    },
    {
     "kind":"deleting_dtor_pointer",
     "mangled_component_name":"_ZTv0_n24_N7android8hardware4gnss4V1_016BnHwGnssCallbackD0Ev"
    },
    {
     "mangled_component_name":"_ZN7android7RefBase10onFirstRefEv"
    },
    {
     "mangled_component_name":"_ZN7android7RefBase15onLastStrongRefEPKv"
    },
    {
     "mangled_component_name":"_ZN7android7RefBase20onIncStrongAttemptedEjPKv"
    },
    {
     "mangled_component_name":"_ZN7android7RefBase13onLastWeakRefEPKv"
    }
   ],
   "unique_id":"_ZTSN7android8hardware4gnss4V1_016BnHwGnssCallbackE"
  },
  {
   "vtable_components":[
    {
     "kind":"vbase_offset",
     "component_value":8
    },
    {
     "kind":"offset_to_top"
    },
    {
     "kind":"rtti",
     "mangled_component_name":"_ZTIN7android8hardware4gnss4V1_013IGnssCallbackE"
    },
    {
     "mangled_component_name":"_ZNK7android8hardware4gnss4V1_013IGnssCallback8isRemoteEv"
    },
    {
     "mangled_component_name":"_ZN7android8hardware4gnss4V1_013IGnssCallback14interfaceChainENSt3__18functionIFvRKNS0_8hidl_vecINS0_11hidl_stringEEEEEE"
    },
    {
     "mangled_component_name":"_ZN7android8hardware4gnss4V1_013IGnssCallback5debugERKNS0_11hidl_handleERKNS0_8hidl_vecINS0_11hidl_stringEEE"
    },
    {
     "mangled_component_name":"_ZN7android8hardware4gnss4V1_013IGnssCallback19interfaceDescriptorENSt3__18functionIFvRKNS0_11hidl_stringEEEE"
    },
    {
     "mangled_component_name":"_ZN7android8hardware4gnss4V1_013IGnssCallback12getHashChainENSt3__18functionIFvRKNS0_8hidl_vecINS0_10hidl_arrayIhLm32EJEEEEEEEE"
    },
    {
     "mangled_component_name":"_ZN7android8hardware4gnss4V1_013IGnssCallback21setHALInstrumentationEv"
    },
    {
     "mangled_component_name":"_ZN7android8hardware4gnss4V1_013IGnssCallback11linkToDeathERKNS_2spINS0_20hidl_death_recipientEEEm"
    },
    {
     "mangled_component_name":"_ZN7android8hardware4gnss4V1_013IGnssCallback4pingEv"
    },
    {
     "mangled_component_name":"_ZN7android8hardware4gnss4V1_013IGnssCallback12getDebugInfoENSt3__18functionIFvRKNS_4hidl4base4V1_09DebugInfoEEEE"
    },
    {
     "mangled_component_name":"_ZN7android8hardware4gnss4V1_013IGnssCallback21notifySyspropsChangedEv"
    },
    {
     "mangled_component_name":"_ZN7android8hardware4gnss4V1_013IGnssCallback13unlinkToDeathERKNS_2spINS0_20hidl_death_recipientEEE"
    },
    {
     "kind":"complete_dtor_pointer",
     "mangled_component_name":"_ZN7android8hardware4gnss4V1_013IGnssCallbackD1Ev"
    },
    {
     "kind":"deleting_dtor_pointer",
     "mangled_component_name":"_ZN7android8hardware4gnss4V1_013IGnssCallbackD0Ev"
    },
    {
     "is_pure":true,
     "mangled_component_name":"_ZN7android8hardware4gnss4V1_013IGnssCallback14gnssLocationCbERKNS2_12GnssLocationE"
    },
    {
     "is_pure":true,
     "mangled_component_name":"_ZN7android8hardware4gnss4V1_013IGnssCallback12gnssStatusCbENS3_15GnssStatusValueE"
    },
    {
     "is_pure":true,
     "mangled_component_name":"_ZN7android8hardware4gnss4V1_013IGnssCallback14gnssSvStatusCbERKNS3_12GnssSvStatusE"
    },
    {
     "is_pure":true,
     "mangled_component_name":"_ZN7android8hardware4gnss4V1_013IGnssCallback10gnssNmeaCbElRKNS0_11hidl_stringE"
    },
    {
     "is_pure":true,
     "mangled_component_name":"_ZN7android8hardware4gnss4V1_013IGnssCallback20gnssSetCapabilitesCbEj"
    },
    {
     "is_pure":true,
     "mangled_component_name":"_ZN7android8hardware4gnss4V1_013IGnssCallback21gnssAcquireWakelockCbEv"
    },
    {
     "is_pure":true,
     "mangled_component_name":"_ZN7android8hardware4gnss4V1_013IGnssCallback21gnssReleaseWakelockCbEv"
    },
    {
     "is_pure":true,
     "mangled_component_name":"_ZN7android8hardware4gnss4V1_013IGnssCallback17gnssRequestTimeCbEv"
    },
    {
     "is_pure":true,
     "mangled_component_name":"_ZN7android8hardware4gnss4V1_013IGnssCallback19gnssSetSystemInfoCbERKNS3_14GnssSystemInfoE"
    },
    {
     "kind":"vcall_offset"
    },
    {
     "kind":"vcall_offset"
    },
    {
     "kind":"vcall_offset"
    },
    {
     "kind":"vcall_offset"
    },
    {
     "kind":"vcall_offset",
     "component_value":-8
    },
    {
     "kind":"offset_to_top",
     "component_value":-8
    },
    {
     "kind":"rtti",
     "mangled_component_name":"_ZTIN7android8hardware4gnss4V1_013IGnssCallbackE"
    },
    {
     "kind":"complete_dtor_pointer",
     "mangled_component_name":"_ZTv0_n24_N7android8hardware4gnss4V1_013IGnssCallbackD1Ev"
    },
    {
     "kind":"deleting_dtor_pointer",
     "mangled_component_name":"_ZTv0_n24_N7android8hardware4gnss4V1_013IGnssCallbackD0Ev"
    },
    {
     "mangled_component_name":"_ZN7android7RefBase10onFirstRefEv"
    },
    {
     "mangled_component_name":"_ZN7android7RefBase15onLastStrongRefEPKv"
    },
    {
     "mangled_component_name":"_ZN7android7RefBase20onIncStrongAttemptedEjPKv"
    },
    {
     "mangled_component_name":"_ZN7android7RefBase13onLastWeakRefEPKv"
    }
   ],
   "unique_id":"_ZTSN7android8hardware4gnss4V1_013IGnssCallbackE"
  },
  {
   "vtable_components":[
    {
     "kind":"vbase_offset",
     "component_value":200
    },
    {
     "kind":"offset_to_top"
    },
    {
     "kind":"rtti",
     "mangled_component_name":"_ZTIN7android8hardware4gnss4V1_016BpHwGnssCallbackE"
    },
    {
     "mangled_component_name":"_ZNK7android8hardware4gnss4V1_016BpHwGnssCallback8isRemoteEv"
    },
    {
     "mangled_component_name":"_ZN7android8hardware4gnss4V1_016BpHwGnssCallback14interfaceChainENSt3__18functionIFvRKNS0_8hidl_vecINS0_11hidl_stringEEEEEE"
    },
    {
     "mangled_component_name":"_ZN7android8hardware4gnss4V1_016BpHwGnssCallback5debugERKNS0_11hidl_handleERKNS0_8hidl_vecINS0_11hidl_stringEEE"
    },
    {
     "mangled_component_name":"_ZN7android8hardware4gnss4V1_016BpHwGnssCallback19interfaceDescriptorENSt3__18functionIFvRKNS0_11hidl_stringEEEE"
    },
    {
     "mangled_component_name":"_ZN7android8hardware4gnss4V1_016BpHwGnssCallback12getHashChainENSt3__18functionIFvRKNS0_8hidl_vecINS0_10hidl_arrayIhLm32EJEEEEEEEE"
    },
    {
     "mangled_component_name":"_ZN7android8hardware4gnss4V1_016BpHwGnssCallback21setHALInstrumentationEv"
    },
    {
     "mangled_component_name":"_ZN7android8hardware4gnss4V1_016BpHwGnssCallback11linkToDeathERKNS_2spINS0_20hidl_death_recipientEEEm"
    },
    {
     "mangled_component_name":"_ZN7android8hardware4gnss4V1_016BpHwGnssCallback4pingEv"
    },
    {
     "mangled_component_name":"_ZN7android8hardware4gnss4V1_016BpHwGnssCallback12getDebugInfoENSt3__18functionIFvRKNS_4hidl4base4V1_09DebugInfoEEEE"
    },
    {
     "mangled_component_name":"_ZN7android8hardware4gnss4V1_016BpHwGnssCallback21notifySyspropsChangedEv"
    },
    {
     "mangled_component_name":"_ZN7android8hardware4gnss4V1_016BpHwGnssCallback13unlinkToDeathERKNS_2spINS0_20hidl_death_recipientEEE"
    },
    {
     "kind":"complete_dtor_pointer",
     "mangled_component_name":"_ZN7android8hardware4gnss4V1_016BpHwGnssCallbackD1Ev"
    },
    {
     "kind":"deleting_dtor_pointer",
     "mangled_component_name":"_ZN7android8hardware4gnss4V1_016BpHwGnssCallbackD0Ev"
    },
    {
     "mangled_component_name":"_ZN7android8hardware4gnss4V1_016BpHwGnssCallback14gnssLocationCbERKNS2_12GnssLocationE"
    },
    {
     "mangled_component_name":"_ZN7android8hardware4gnss4V1_016BpHwGnssCallback12gnssStatusCbENS2_13IGnssCallback15GnssStatusValueE"
    },
    {
     "mangled_component_name":"_ZN7android8hardware4gnss4V1_016BpHwGnssCallback14gnssSvStatusCbERKNS2_13IGnssCallback12GnssSvStatusE"
    },
    {
     "mangled_component_name":"_ZN7android8hardware4gnss4V1_016BpHwGnssCallback10gnssNmeaCbElRKNS0_11hidl_stringE"
    },
    {
     "mangled_component_name":"_ZN7android8hardware4gnss4V1_016BpHwGnssCallback20gnssSetCapabilitesCbEj"
    },
    {
     "mangled_component_name":"_ZN7android8hardware4gnss4V1_016BpHwGnssCallback21gnssAcquireWakelockCbEv"
    },
    {
     "mangled_component_name":"_ZN7android8hardware4gnss4V1_016BpHwGnssCallback21gnssReleaseWakelockCbEv"
    },
    {
     "mangled_component_name":"_ZN7android8hardware4gnss4V1_016BpHwGnssCallback17gnssRequestTimeCbEv"
    },
    {
     "mangled_component_name":"_ZN7android8hardware4gnss4V1_016BpHwGnssCallback19gnssSetSystemInfoCbERKNS2_13IGnssCallback14GnssSystemInfoE"
    },
    {
     "mangled_component_name":"_ZN7android8hardware11BpInterfaceINS0_4gnss4V1_013IGnssCallbackEE10onAsBinderEv"
    },
    {
     "kind":"vbase_offset",
     "component_value":192
    },
    {
     "kind":"offset_to_top",
     "component_value":-8
    },
    {
     "kind":"rtti",
     "mangled_component_name":"_ZTIN7android8hardware4gnss4V1_016BpHwGnssCallbackE"
    },
    {
     "kind":"complete_dtor_pointer",
     "mangled_component_name":"_ZThn8_N7android8hardware4gnss4V1_016BpHwGnssCallbackD1Ev"
    },
    {
     "kind":"deleting_dtor_pointer",
     "mangled_component_name":"_ZThn8_N7android8hardware4gnss4V1_016BpHwGnssCallbackD0Ev"
    },
    {
     "mangled_component_name":"_ZThn8_N7android8hardware11BpInterfaceINS0_4gnss4V1_013IGnssCallbackEE10onAsBinderEv"
    },
    {
     "kind":"vbase_offset",
     "component_value":184
    },
    {
     "kind":"offset_to_top",
     "component_value":-16
    },
    {
     "kind":"rtti",
     "mangled_component_name":"_ZTIN7android8hardware4gnss4V1_016BpHwGnssCallbackE"
    },
    {
     "kind":"complete_dtor_pointer",
     "mangled_component_name":"_ZThn16_N7android8hardware4gnss4V1_016BpHwGnssCallbackD1Ev"
    },
    {
     "kind":"deleting_dtor_pointer",
     "mangled_component_name":"_ZThn16_N7android8hardware4gnss4V1_016BpHwGnssCallbackD0Ev"
    },
    {
     "mangled_component_name":"_ZN7android8hardware11BpHwRefBase10onFirstRefEv"
    },
    {
     "mangled_component_name":"_ZN7android8hardware11BpHwRefBase15onLastStrongRefEPKv"
    },
    {
     "mangled_component_name":"_ZN7android8hardware11BpHwRefBase20onIncStrongAttemptedEjPKv"
    },
    {
     "kind":"offset_to_top",
     "component_value":-48
    },
    {
     "kind":"rtti",
     "mangled_component_name":"_ZTIN7android8hardware4gnss4V1_016BpHwGnssCallbackE"
    },
    {
     "kind":"complete_dtor_pointer",
     "mangled_component_name":"_ZThn48_N7android8hardware4gnss4V1_016BpHwGnssCallbackD1Ev"
    },
    {
     "kind":"deleting_dtor_pointer",
     "mangled_component_name":"_ZThn48_N7android8hardware4gnss4V1_016BpHwGnssCallbackD0Ev"
    },
    {
     "kind":"vcall_offset"
    },
    {
     "kind":"vcall_offset",
     "component_value":-184
    },
    {
     "kind":"vcall_offset",
     "component_value":-184
    },
    {
     "kind":"vcall_offset",
     "component_value":-184
    },
    {
     "kind":"vcall_offset",
     "component_value":-200
    },
    {
     "kind":"offset_to_top",
     "component_value":-200
    },
    {
     "kind":"rtti",
     "mangled_component_name":"_ZTIN7android8hardware4gnss4V1_016BpHwGnssCallbackE"
    },
    {
     "kind":"complete_dtor_pointer",
     "mangled_component_name":"_ZTv0_n24_N7android8hardware4gnss4V1_016BpHwGnssCallbackD1Ev"
    },
    {
     "kind":"deleting_dtor_pointer",
     "mangled_component_name":"_ZTv0_n24_N7android8hardware4gnss4V1_016BpHwGnssCallbackD0Ev"
    },
    {
     "mangled_component_name":"_ZTv0_n32_N7android8hardware11BpHwRefBase10onFirstRefEv"
    },
    {
     "mangled_component_name":"_ZTv0_n40_N7android8hardware11BpHwRefBase15onLastStrongRefEPKv"
    },
    {
     "mangled_component_name":"_ZTv0_n48_N7android8hardware11BpHwRefBase20onIncStrongAttemptedEjPKv"
    },
    {
     "mangled_component_name":"_ZN7android7RefBase13onLastWeakRefEPKv"
    }
   ],
   "unique_id":"_ZTSN7android8hardware4gnss4V1_016BpHwGnssCallbackE"
  },
  {
   "vtable_components":[
    {
     "kind":"vbase_offset",
     "component_value":136
    },
    {
     "kind":"offset_to_top"
    },
    {
     "kind":"rtti",
     "mangled_component_name":"_ZTIN7android8hardware4gnss4V1_021BnHwGnssConfigurationE"
    },
    {
     "mangled_component_name":"_ZN7android8hardware9BHwBinder8transactEjRKNS0_6ParcelEPS2_jNSt3__18functionIFvRS2_EEE"
    },
    {
     "mangled_component_name":"_ZN7android8hardware9BHwBinder11linkToDeathERKNS_2spINS0_7IBinder14DeathRecipientEEEPvj"
    },
    {
     "mangled_component_name":"_ZN7android8hardware9BHwBinder13unlinkToDeathERKNS_2wpINS0_7IBinder14DeathRecipientEEEPvjPS5_"
    },
    {
     "mangled_component_name":"_ZNK7android8hardware7IBinder13checkSubclassEPKv"
    },
    {
     "mangled_component_name":"_ZN7android8hardware9BHwBinder12attachObjectEPKvPvS4_PFvS3_S4_S4_E"
    },
    {
     "mangled_component_name":"_ZNK7android8hardware9BHwBinder10findObjectEPKv"
    },
    {
     "mangled_component_name":"_ZN7android8hardware9BHwBinder12detachObjectEPKv"
    },
    {
     "mangled_component_name":"_ZN7android8hardware9BHwBinder11localBinderEv"
    },
    {
     "mangled_component_name":"_ZN7android8hardware7IBinder12remoteBinderEv"
    },
    {
     "kind":"complete_dtor_pointer",
     "mangled_component_name":"_ZN7android8hardware4gnss4V1_021BnHwGnssConfigurationD1Ev"
    },
    {
     "kind":"deleting_dtor_pointer",
     "mangled_component_name":"_ZN7android8hardware4gnss4V1_021BnHwGnssConfigurationD0Ev"
    },
    {
     "mangled_component_name":"_ZN7android8hardware4gnss4V1_021BnHwGnssConfiguration10onTransactEjRKNS0_6ParcelEPS4_jNSt3__18functionIFvRS4_EEE"
    },
    {
     "kind":"offset_to_top",
     "component_value":-32
    },
    {
     "kind":"rtti",
     "mangled_component_name":"_ZTIN7android8hardware4gnss4V1_021BnHwGnssConfigurationE"
    },
    {
     "kind":"complete_dtor_pointer",
     "mangled_component_name":"_ZThn32_N7android8hardware4gnss4V1_021BnHwGnssConfigurationD1Ev"
    },
    {
     "kind":"deleting_dtor_pointer",
     "mangled_component_name":"_ZThn32_N7android8hardware4gnss4V1_021BnHwGnssConfigurationD0Ev"
    },
    {
     "kind":"vcall_offset"
    },
    {
     "kind":"vcall_offset"
    },
    {
     "kind":"vcall_offset"
    },
    {
     "kind":"vcall_offset"
    },
    {
     "kind":"vcall_offset",
     "component_value":-136
    },
    {
     "kind":"offset_to_top",
     "component_value":-136
    },
    {
     "kind":"rtti",
     "mangled_component_name":"_ZTIN7android8hardware4gnss4V1_021BnHwGnssConfigurationE"
    },
    {
     "kind":"complete_dtor_pointer",
     "mangled_component_name":"_ZTv0_n24_N7android8hardware4gnss4V1_021BnHwGnssConfigurationD1Ev"
    },
    {
     "kind":"deleting_dtor_pointer",
     "mangled_component_name":"_ZTv0_n24_N7android8hardware4gnss4V1_021BnHwGnssConfigurationD0Ev"
    },
    {
     "mangled_component_name":"_ZN7android7RefBase10onFirstRefEv"
    },
    {
     "mangled_component_name":"_ZN7android7RefBase15onLastStrongRefEPKv"
    },
    {
     "mangled_component_name":"_ZN7android7RefBase20onIncStrongAttemptedEjPKv"
    },
    {
     "mangled_component_name":"_ZN7android7RefBase13onLastWeakRefEPKv"
    }
   ],
   "unique_id":"_ZTSN7android8hardware4gnss4V1_021BnHwGnssConfigurationE"
  },
  {
   "vtable_components":[
    {
     "kind":"vbase_offset",
     "component_value":8
    },
    {
     "kind":"offset_to_top"
    },
    {
     "kind":"rtti",
     "mangled_component_name":"_ZTIN7android8hardware4gnss4V1_018IGnssConfigurationE"
    },
    {
     "mangled_component_name":"_ZNK7android8hardware4gnss4V1_018IGnssConfiguration8isRemoteEv"
    },
    {
     "mangled_component_name":"_ZN7android8hardware4gnss4V1_018IGnssConfiguration14interfaceChainENSt3__18functionIFvRKNS0_8hidl_vecINS0_11hidl_stringEEEEEE"
    },
    {
     "mangled_component_name":"_ZN7android8hardware4gnss4V1_018IGnssConfiguration5debugERKNS0_11hidl_handleERKNS0_8hidl_vecINS0_11hidl_stringEEE"
    },
    {
     "mangled_component_name":"_ZN7android8hardware4gnss4V1_018IGnssConfiguration19interfaceDescriptorENSt3__18functionIFvRKNS0_11hidl_stringEEEE"
    },
    {
     "mangled_component_name":"_ZN7android8hardware4gnss4V1_018IGnssConfiguration12getHashChainENSt3__18functionIFvRKNS0_8hidl_vecINS0_10hidl_arrayIhLm32EJEEEEEEEE"
    },
    {
     "mangled_component_name":"_ZN7android8hardware4gnss4V1_018IGnssConfiguration21setHALInstrumentationEv"
    },
    {
     "mangled_component_name":"_ZN7android8hardware4gnss4V1_018IGnssConfiguration11linkToDeathERKNS_2spINS0_20hidl_death_recipientEEEm"
    },
    {
     "mangled_component_name":"_ZN7android8hardware4gnss4V1_018IGnssConfiguration4pingEv"
    },
    {
     "mangled_component_name":"_ZN7android8hardware4gnss4V1_018IGnssConfiguration12getDebugInfoENSt3__18functionIFvRKNS_4hidl4base4V1_09DebugInfoEEEE"
    },
    {
     "mangled_component_name":"_ZN7android8hardware4gnss4V1_018IGnssConfiguration21notifySyspropsChangedEv"
    },
    {
     "mangled_component_name":"_ZN7android8hardware4gnss4V1_018IGnssConfiguration13unlinkToDeathERKNS_2spINS0_20hidl_death_recipientEEE"
    },
    {
     "kind":"complete_dtor_pointer",
     "mangled_component_name":"_ZN7android8hardware4gnss4V1_018IGnssConfigurationD1Ev"
    },
    {
     "kind":"deleting_dtor_pointer",
     "mangled_component_name":"_ZN7android8hardware4gnss4V1_018IGnssConfigurationD0Ev"
    },
    {
     "is_pure":true,
     "mangled_component_name":"_ZN7android8hardware4gnss4V1_018IGnssConfiguration9setSuplEsEb"
    },
    {
     "is_pure":true,
     "mangled_component_name":"_ZN7android8hardware4gnss4V1_018IGnssConfiguration14setSuplVersionEj"
    },
    {
     "is_pure":true,
     "mangled_component_name":"_ZN7android8hardware4gnss4V1_018IGnssConfiguration11setSuplModeEh"
    },
    {
     "is_pure":true,
     "mangled_component_name":"_ZN7android8hardware4gnss4V1_018IGnssConfiguration10setGpsLockEh"
    },
    {
     "is_pure":true,
     "mangled_component_name":"_ZN7android8hardware4gnss4V1_018IGnssConfiguration13setLppProfileEh"
    },
    {
     "is_pure":true,
     "mangled_component_name":"_ZN7android8hardware4gnss4V1_018IGnssConfiguration29setGlonassPositioningProtocolEh"
    },
    {
     "is_pure":true,
     "mangled_component_name":"_ZN7android8hardware4gnss4V1_018IGnssConfiguration19setEmergencySuplPdnEb"
    },
    {
     "kind":"vcall_offset"
    },
    {
     "kind":"vcall_offset"
    },
    {
     "kind":"vcall_offset"
    },
    {
     "kind":"vcall_offset"
    },
    {
     "kind":"vcall_offset",
     "component_value":-8
    },
    {
     "kind":"offset_to_top",
     "component_value":-8
    },
    {
     "kind":"rtti",
     "mangled_component_name":"_ZTIN7android8hardware4gnss4V1_018IGnssConfigurationE"
    },
    {
     "kind":"complete_dtor_pointer",
     "mangled_component_name":"_ZTv0_n24_N7android8hardware4gnss4V1_018IGnssConfigurationD1Ev"
    },
    {
     "kind":"deleting_dtor_pointer",
     "mangled_component_name":"_ZTv0_n24_N7android8hardware4gnss4V1_018IGnssConfigurationD0Ev"
    },
    {
     "mangled_component_name":"_ZN7android7RefBase10onFirstRefEv"
    },
    {
     "mangled_component_name":"_ZN7android7RefBase15onLastStrongRefEPKv"
    },
    {
     "mangled_component_name":"_ZN7android7RefBase20onIncStrongAttemptedEjPKv"
    },
    {
     "mangled_component_name":"_ZN7android7RefBase13onLastWeakRefEPKv"
    }
   ],
   "unique_id":"_ZTSN7android8hardware4gnss4V1_018IGnssConfigurationE"
  },
  {
   "vtable_components":[
    {
     "kind":"vbase_offset",
     "component_value":200
    },
    {
     "kind":"offset_to_top"
    },
    {
     "kind":"rtti",
     "mangled_component_name":"_ZTIN7android8hardware4gnss4V1_021BpHwGnssConfigurationE"
    },
    {
     "mangled_component_name":"_ZNK7android8hardware4gnss4V1_021BpHwGnssConfiguration8isRemoteEv"
    },
    {
     "mangled_component_name":"_ZN7android8hardware4gnss4V1_021BpHwGnssConfiguration14interfaceChainENSt3__18functionIFvRKNS0_8hidl_vecINS0_11hidl_stringEEEEEE"
    },
    {
     "mangled_component_name":"_ZN7android8hardware4gnss4V1_021BpHwGnssConfiguration5debugERKNS0_11hidl_handleERKNS0_8hidl_vecINS0_11hidl_stringEEE"
    },
    {
     "mangled_component_name":"_ZN7android8hardware4gnss4V1_021BpHwGnssConfiguration19interfaceDescriptorENSt3__18functionIFvRKNS0_11hidl_stringEEEE"
    },
    {
     "mangled_component_name":"_ZN7android8hardware4gnss4V1_021BpHwGnssConfiguration12getHashChainENSt3__18functionIFvRKNS0_8hidl_vecINS0_10hidl_arrayIhLm32EJEEEEEEEE"
    },
    {
     "mangled_component_name":"_ZN7android8hardware4gnss4V1_021BpHwGnssConfiguration21setHALInstrumentationEv"
    },
    {
     "mangled_component_name":"_ZN7android8hardware4gnss4V1_021BpHwGnssConfiguration11linkToDeathERKNS_2spINS0_20hidl_death_recipientEEEm"
    },
    {
     "mangled_component_name":"_ZN7android8hardware4gnss4V1_021BpHwGnssConfiguration4pingEv"
    },
    {
     "mangled_component_name":"_ZN7android8hardware4gnss4V1_021BpHwGnssConfiguration12getDebugInfoENSt3__18functionIFvRKNS_4hidl4base4V1_09DebugInfoEEEE"
    },
    {
     "mangled_component_name":"_ZN7android8hardware4gnss4V1_021BpHwGnssConfiguration21notifySyspropsChangedEv"
    },
    {
     "mangled_component_name":"_ZN7android8hardware4gnss4V1_021BpHwGnssConfiguration13unlinkToDeathERKNS_2spINS0_20hidl_death_recipientEEE"
    },
    {
     "kind":"complete_dtor_pointer",
     "mangled_component_name":"_ZN7android8hardware4gnss4V1_021BpHwGnssConfigurationD1Ev"
    },
    {
     "kind":"deleting_dtor_pointer",
     "mangled_component_name":"_ZN7android8hardware4gnss4V1_021BpHwGnssConfigurationD0Ev"
    },
    {
     "mangled_component_name":"_ZN7android8hardware4gnss4V1_021BpHwGnssConfiguration9setSuplEsEb"
    },
    {
     "mangled_component_name":"_ZN7android8hardware4gnss4V1_021BpHwGnssConfiguration14setSuplVersionEj"
    },
    {
     "mangled_component_name":"_ZN7android8hardware4gnss4V1_021BpHwGnssConfiguration11setSuplModeEh"
    },
    {
     "mangled_component_name":"_ZN7android8hardware4gnss4V1_021BpHwGnssConfiguration10setGpsLockEh"
    },
    {
     "mangled_component_name":"_ZN7android8hardware4gnss4V1_021BpHwGnssConfiguration13setLppProfileEh"
    },
    {
     "mangled_component_name":"_ZN7android8hardware4gnss4V1_021BpHwGnssConfiguration29setGlonassPositioningProtocolEh"
    },
    {
     "mangled_component_name":"_ZN7android8hardware4gnss4V1_021BpHwGnssConfiguration19setEmergencySuplPdnEb"
    },
    {
     "mangled_component_name":"_ZN7android8hardware11BpInterfaceINS0_4gnss4V1_018IGnssConfigurationEE10onAsBinderEv"
    },
    {
     "kind":"vbase_offset",
     "component_value":192
    },
    {
     "kind":"offset_to_top",
     "component_value":-8
    },
    {
     "kind":"rtti",
     "mangled_component_name":"_ZTIN7android8hardware4gnss4V1_021BpHwGnssConfigurationE"
    },
    {
     "kind":"complete_dtor_pointer",
     "mangled_component_name":"_ZThn8_N7android8hardware4gnss4V1_021BpHwGnssConfigurationD1Ev"
    },
    {
     "kind":"deleting_dtor_pointer",
     "mangled_component_name":"_ZThn8_N7android8hardware4gnss4V1_021BpHwGnssConfigurationD0Ev"
    },
    {
     "mangled_component_name":"_ZThn8_N7android8hardware11BpInterfaceINS0_4gnss4V1_018IGnssConfigurationEE10onAsBinderEv"
    },
    {
     "kind":"vbase_offset",
     "component_value":184
    },
    {
     "kind":"offset_to_top",
     "component_value":-16
    },
    {
     "kind":"rtti",
     "mangled_component_name":"_ZTIN7android8hardware4gnss4V1_021BpHwGnssConfigurationE"
    },
    {
     "kind":"complete_dtor_pointer",
     "mangled_component_name":"_ZThn16_N7android8hardware4gnss4V1_021BpHwGnssConfigurationD1Ev"
    },
    {
     "kind":"deleting_dtor_pointer",
     "mangled_component_name":"_ZThn16_N7android8hardware4gnss4V1_021BpHwGnssConfigurationD0Ev"
    },
    {
     "mangled_component_name":"_ZN7android8hardware11BpHwRefBase10onFirstRefEv"
    },
    {
     "mangled_component_name":"_ZN7android8hardware11BpHwRefBase15onLastStrongRefEPKv"
    },
    {
     "mangled_component_name":"_ZN7android8hardware11BpHwRefBase20onIncStrongAttemptedEjPKv"
    },
    {
     "kind":"offset_to_top",
     "component_value":-48
    },
    {
     "kind":"rtti",
     "mangled_component_name":"_ZTIN7android8hardware4gnss4V1_021BpHwGnssConfigurationE"
    },
    {
     "kind":"complete_dtor_pointer",
     "mangled_component_name":"_ZThn48_N7android8hardware4gnss4V1_021BpHwGnssConfigurationD1Ev"
    },
    {
     "kind":"deleting_dtor_pointer",
     "mangled_component_name":"_ZThn48_N7android8hardware4gnss4V1_021BpHwGnssConfigurationD0Ev"
    },
    {
     "kind":"vcall_offset"
    },
    {
     "kind":"vcall_offset",
     "component_value":-184
    },
    {
     "kind":"vcall_offset",
     "component_value":-184
    },
    {
     "kind":"vcall_offset",
     "component_value":-184
    },
    {
     "kind":"vcall_offset",
     "component_value":-200
    },
    {
     "kind":"offset_to_top",
     "component_value":-200
    },
    {
     "kind":"rtti",
     "mangled_component_name":"_ZTIN7android8hardware4gnss4V1_021BpHwGnssConfigurationE"
    },
    {
     "kind":"complete_dtor_pointer",
     "mangled_component_name":"_ZTv0_n24_N7android8hardware4gnss4V1_021BpHwGnssConfigurationD1Ev"
    },
    {
     "kind":"deleting_dtor_pointer",
     "mangled_component_name":"_ZTv0_n24_N7android8hardware4gnss4V1_021BpHwGnssConfigurationD0Ev"
    },
    {
     "mangled_component_name":"_ZTv0_n32_N7android8hardware11BpHwRefBase10onFirstRefEv"
    },
    {
     "mangled_component_name":"_ZTv0_n40_N7android8hardware11BpHwRefBase15onLastStrongRefEPKv"
    },
    {
     "mangled_component_name":"_ZTv0_n48_N7android8hardware11BpHwRefBase20onIncStrongAttemptedEjPKv"
    },
    {
     "mangled_component_name":"_ZN7android7RefBase13onLastWeakRefEPKv"
    }
   ],
   "unique_id":"_ZTSN7android8hardware4gnss4V1_021BpHwGnssConfigurationE"
  },
  {
   "vtable_components":[
    {
     "kind":"vbase_offset",
     "component_value":136
    },
    {
     "kind":"offset_to_top"
    },
    {
     "kind":"rtti",
     "mangled_component_name":"_ZTIN7android8hardware4gnss4V1_013BnHwGnssDebugE"
    },
    {
     "mangled_component_name":"_ZN7android8hardware9BHwBinder8transactEjRKNS0_6ParcelEPS2_jNSt3__18functionIFvRS2_EEE"
    },
    {
     "mangled_component_name":"_ZN7android8hardware9BHwBinder11linkToDeathERKNS_2spINS0_7IBinder14DeathRecipientEEEPvj"
    },
    {
     "mangled_component_name":"_ZN7android8hardware9BHwBinder13unlinkToDeathERKNS_2wpINS0_7IBinder14DeathRecipientEEEPvjPS5_"
    },
    {
     "mangled_component_name":"_ZNK7android8hardware7IBinder13checkSubclassEPKv"
    },
    {
     "mangled_component_name":"_ZN7android8hardware9BHwBinder12attachObjectEPKvPvS4_PFvS3_S4_S4_E"
    },
    {
     "mangled_component_name":"_ZNK7android8hardware9BHwBinder10findObjectEPKv"
    },
    {
     "mangled_component_name":"_ZN7android8hardware9BHwBinder12detachObjectEPKv"
    },
    {
     "mangled_component_name":"_ZN7android8hardware9BHwBinder11localBinderEv"
    },
    {
     "mangled_component_name":"_ZN7android8hardware7IBinder12remoteBinderEv"
    },
    {
     "kind":"complete_dtor_pointer",
     "mangled_component_name":"_ZN7android8hardware4gnss4V1_013BnHwGnssDebugD1Ev"
    },
    {
     "kind":"deleting_dtor_pointer",
     "mangled_component_name":"_ZN7android8hardware4gnss4V1_013BnHwGnssDebugD0Ev"
    },
    {
     "mangled_component_name":"_ZN7android8hardware4gnss4V1_013BnHwGnssDebug10onTransactEjRKNS0_6ParcelEPS4_jNSt3__18functionIFvRS4_EEE"
    },
    {
     "kind":"offset_to_top",
     "component_value":-32
    },
    {
     "kind":"rtti",
     "mangled_component_name":"_ZTIN7android8hardware4gnss4V1_013BnHwGnssDebugE"
    },
    {
     "kind":"complete_dtor_pointer",
     "mangled_component_name":"_ZThn32_N7android8hardware4gnss4V1_013BnHwGnssDebugD1Ev"
    },
    {
     "kind":"deleting_dtor_pointer",
     "mangled_component_name":"_ZThn32_N7android8hardware4gnss4V1_013BnHwGnssDebugD0Ev"
    },
    {
     "kind":"vcall_offset"
    },
    {
     "kind":"vcall_offset"
    },
    {
     "kind":"vcall_offset"
    },
    {
     "kind":"vcall_offset"
    },
    {
     "kind":"vcall_offset",
     "component_value":-136
    },
    {
     "kind":"offset_to_top",
     "component_value":-136
    },
    {
     "kind":"rtti",
     "mangled_component_name":"_ZTIN7android8hardware4gnss4V1_013BnHwGnssDebugE"
    },
    {
     "kind":"complete_dtor_pointer",
     "mangled_component_name":"_ZTv0_n24_N7android8hardware4gnss4V1_013BnHwGnssDebugD1Ev"
    },
    {
     "kind":"deleting_dtor_pointer",
     "mangled_component_name":"_ZTv0_n24_N7android8hardware4gnss4V1_013BnHwGnssDebugD0Ev"
    },
    {
     "mangled_component_name":"_ZN7android7RefBase10onFirstRefEv"
    },
    {
     "mangled_component_name":"_ZN7android7RefBase15onLastStrongRefEPKv"
    },
    {
     "mangled_component_name":"_ZN7android7RefBase20onIncStrongAttemptedEjPKv"
    },
    {
     "mangled_component_name":"_ZN7android7RefBase13onLastWeakRefEPKv"
    }
   ],
   "unique_id":"_ZTSN7android8hardware4gnss4V1_013BnHwGnssDebugE"
  },
  {
   "vtable_components":[
    {
     "kind":"vbase_offset",
     "component_value":8
    },
    {
     "kind":"offset_to_top"
    },
    {
     "kind":"rtti",
     "mangled_component_name":"_ZTIN7android8hardware4gnss4V1_010IGnssDebugE"
    },
    {
     "mangled_component_name":"_ZNK7android8hardware4gnss4V1_010IGnssDebug8isRemoteEv"
    },
    {
     "mangled_component_name":"_ZN7android8hardware4gnss4V1_010IGnssDebug14interfaceChainENSt3__18functionIFvRKNS0_8hidl_vecINS0_11hidl_stringEEEEEE"
    },
    {
     "mangled_component_name":"_ZN7android8hardware4gnss4V1_010IGnssDebug5debugERKNS0_11hidl_handleERKNS0_8hidl_vecINS0_11hidl_stringEEE"
    },
    {
     "mangled_component_name":"_ZN7android8hardware4gnss4V1_010IGnssDebug19interfaceDescriptorENSt3__18functionIFvRKNS0_11hidl_stringEEEE"
    },
    {
     "mangled_component_name":"_ZN7android8hardware4gnss4V1_010IGnssDebug12getHashChainENSt3__18functionIFvRKNS0_8hidl_vecINS0_10hidl_arrayIhLm32EJEEEEEEEE"
    },
    {
     "mangled_component_name":"_ZN7android8hardware4gnss4V1_010IGnssDebug21setHALInstrumentationEv"
    },
    {
     "mangled_component_name":"_ZN7android8hardware4gnss4V1_010IGnssDebug11linkToDeathERKNS_2spINS0_20hidl_death_recipientEEEm"
    },
    {
     "mangled_component_name":"_ZN7android8hardware4gnss4V1_010IGnssDebug4pingEv"
    },
    {
     "mangled_component_name":"_ZN7android8hardware4gnss4V1_010IGnssDebug12getDebugInfoENSt3__18functionIFvRKNS_4hidl4base4V1_09DebugInfoEEEE"
    },
    {
     "mangled_component_name":"_ZN7android8hardware4gnss4V1_010IGnssDebug21notifySyspropsChangedEv"
    },
    {
     "mangled_component_name":"_ZN7android8hardware4gnss4V1_010IGnssDebug13unlinkToDeathERKNS_2spINS0_20hidl_death_recipientEEE"
    },
    {
     "kind":"complete_dtor_pointer",
     "mangled_component_name":"_ZN7android8hardware4gnss4V1_010IGnssDebugD1Ev"
    },
    {
     "kind":"deleting_dtor_pointer",
     "mangled_component_name":"_ZN7android8hardware4gnss4V1_010IGnssDebugD0Ev"
    },
    {
     "is_pure":true,
     "mangled_component_name":"_ZN7android8hardware4gnss4V1_010IGnssDebug12getDebugDataENSt3__18functionIFvRKNS3_9DebugDataEEEE"
    },
    {
     "kind":"vcall_offset"
    },
    {
     "kind":"vcall_offset"
    },
    {
     "kind":"vcall_offset"
    },
    {
     "kind":"vcall_offset"
    },
    {
     "kind":"vcall_offset",
     "component_value":-8
    },
    {
     "kind":"offset_to_top",
     "component_value":-8
    },
    {
     "kind":"rtti",
     "mangled_component_name":"_ZTIN7android8hardware4gnss4V1_010IGnssDebugE"
    },
    {
     "kind":"complete_dtor_pointer",
     "mangled_component_name":"_ZTv0_n24_N7android8hardware4gnss4V1_010IGnssDebugD1Ev"
    },
    {
     "kind":"deleting_dtor_pointer",
     "mangled_component_name":"_ZTv0_n24_N7android8hardware4gnss4V1_010IGnssDebugD0Ev"
    },
    {
     "mangled_component_name":"_ZN7android7RefBase10onFirstRefEv"
    },
    {
     "mangled_component_name":"_ZN7android7RefBase15onLastStrongRefEPKv"
    },
    {
     "mangled_component_name":"_ZN7android7RefBase20onIncStrongAttemptedEjPKv"
    },
    {
     "mangled_component_name":"_ZN7android7RefBase13onLastWeakRefEPKv"
    }
   ],
   "unique_id":"_ZTSN7android8hardware4gnss4V1_010IGnssDebugE"
  },
  {
   "vtable_components":[
    {
     "kind":"vbase_offset",
     "component_value":200
    },
    {
     "kind":"offset_to_top"
    },
    {
     "kind":"rtti",
     "mangled_component_name":"_ZTIN7android8hardware4gnss4V1_013BpHwGnssDebugE"
    },
    {
     "mangled_component_name":"_ZNK7android8hardware4gnss4V1_013BpHwGnssDebug8isRemoteEv"
    },
    {
     "mangled_component_name":"_ZN7android8hardware4gnss4V1_013BpHwGnssDebug14interfaceChainENSt3__18functionIFvRKNS0_8hidl_vecINS0_11hidl_stringEEEEEE"
    },
    {
     "mangled_component_name":"_ZN7android8hardware4gnss4V1_013BpHwGnssDebug5debugERKNS0_11hidl_handleERKNS0_8hidl_vecINS0_11hidl_stringEEE"
    },
    {
     "mangled_component_name":"_ZN7android8hardware4gnss4V1_013BpHwGnssDebug19interfaceDescriptorENSt3__18functionIFvRKNS0_11hidl_stringEEEE"
    },
    {
     "mangled_component_name":"_ZN7android8hardware4gnss4V1_013BpHwGnssDebug12getHashChainENSt3__18functionIFvRKNS0_8hidl_vecINS0_10hidl_arrayIhLm32EJEEEEEEEE"
    },
    {
     "mangled_component_name":"_ZN7android8hardware4gnss4V1_013BpHwGnssDebug21setHALInstrumentationEv"
    },
    {
     "mangled_component_name":"_ZN7android8hardware4gnss4V1_013BpHwGnssDebug11linkToDeathERKNS_2spINS0_20hidl_death_recipientEEEm"
    },
    {
     "mangled_component_name":"_ZN7android8hardware4gnss4V1_013BpHwGnssDebug4pingEv"
    },
    {
     "mangled_component_name":"_ZN7android8hardware4gnss4V1_013BpHwGnssDebug12getDebugInfoENSt3__18functionIFvRKNS_4hidl4base4V1_09DebugInfoEEEE"
    },
    {
     "mangled_component_name":"_ZN7android8hardware4gnss4V1_013BpHwGnssDebug21notifySyspropsChangedEv"
    },
    {
     "mangled_component_name":"_ZN7android8hardware4gnss4V1_013BpHwGnssDebug13unlinkToDeathERKNS_2spINS0_20hidl_death_recipientEEE"
    },
    {
     "kind":"complete_dtor_pointer",
     "mangled_component_name":"_ZN7android8hardware4gnss4V1_013BpHwGnssDebugD1Ev"
    },
    {
     "kind":"deleting_dtor_pointer",
     "mangled_component_name":"_ZN7android8hardware4gnss4V1_013BpHwGnssDebugD0Ev"
    },
    {
     "mangled_component_name":"_ZN7android8hardware4gnss4V1_013BpHwGnssDebug12getDebugDataENSt3__18functionIFvRKNS2_10IGnssDebug9DebugDataEEEE"
    },
    {
     "mangled_component_name":"_ZN7android8hardware11BpInterfaceINS0_4gnss4V1_010IGnssDebugEE10onAsBinderEv"
    },
    {
     "kind":"vbase_offset",
     "component_value":192
    },
    {
     "kind":"offset_to_top",
     "component_value":-8
    },
    {
     "kind":"rtti",
     "mangled_component_name":"_ZTIN7android8hardware4gnss4V1_013BpHwGnssDebugE"
    },
    {
     "kind":"complete_dtor_pointer",
     "mangled_component_name":"_ZThn8_N7android8hardware4gnss4V1_013BpHwGnssDebugD1Ev"
    },
    {
     "kind":"deleting_dtor_pointer",
     "mangled_component_name":"_ZThn8_N7android8hardware4gnss4V1_013BpHwGnssDebugD0Ev"
    },
    {
     "mangled_component_name":"_ZThn8_N7android8hardware11BpInterfaceINS0_4gnss4V1_010IGnssDebugEE10onAsBinderEv"
    },
    {
     "kind":"vbase_offset",
     "component_value":184
    },
    {
     "kind":"offset_to_top",
     "component_value":-16
    },
    {
     "kind":"rtti",
     "mangled_component_name":"_ZTIN7android8hardware4gnss4V1_013BpHwGnssDebugE"
    },
    {
     "kind":"complete_dtor_pointer",
     "mangled_component_name":"_ZThn16_N7android8hardware4gnss4V1_013BpHwGnssDebugD1Ev"
    },
    {
     "kind":"deleting_dtor_pointer",
     "mangled_component_name":"_ZThn16_N7android8hardware4gnss4V1_013BpHwGnssDebugD0Ev"
    },
    {
     "mangled_component_name":"_ZN7android8hardware11BpHwRefBase10onFirstRefEv"
    },
    {
     "mangled_component_name":"_ZN7android8hardware11BpHwRefBase15onLastStrongRefEPKv"
    },
    {
     "mangled_component_name":"_ZN7android8hardware11BpHwRefBase20onIncStrongAttemptedEjPKv"
    },
    {
     "kind":"offset_to_top",
     "component_value":-48
    },
    {
     "kind":"rtti",
     "mangled_component_name":"_ZTIN7android8hardware4gnss4V1_013BpHwGnssDebugE"
    },
    {
     "kind":"complete_dtor_pointer",
     "mangled_component_name":"_ZThn48_N7android8hardware4gnss4V1_013BpHwGnssDebugD1Ev"
    },
    {
     "kind":"deleting_dtor_pointer",
     "mangled_component_name":"_ZThn48_N7android8hardware4gnss4V1_013BpHwGnssDebugD0Ev"
    },
    {
     "kind":"vcall_offset"
    },
    {
     "kind":"vcall_offset",
     "component_value":-184
    },
    {
     "kind":"vcall_offset",
     "component_value":-184
    },
    {
     "kind":"vcall_offset",
     "component_value":-184
    },
    {
     "kind":"vcall_offset",
     "component_value":-200
    },
    {
     "kind":"offset_to_top",
     "component_value":-200
    },
    {
     "kind":"rtti",
     "mangled_component_name":"_ZTIN7android8hardware4gnss4V1_013BpHwGnssDebugE"
    },
    {
     "kind":"complete_dtor_pointer",
     "mangled_component_name":"_ZTv0_n24_N7android8hardware4gnss4V1_013BpHwGnssDebugD1Ev"
    },
    {
     "kind":"deleting_dtor_pointer",
     "mangled_component_name":"_ZTv0_n24_N7android8hardware4gnss4V1_013BpHwGnssDebugD0Ev"
    },
    {
     "mangled_component_name":"_ZTv0_n32_N7android8hardware11BpHwRefBase10onFirstRefEv"
    },
    {
     "mangled_component_name":"_ZTv0_n40_N7android8hardware11BpHwRefBase15onLastStrongRefEPKv"
    },
    {
     "mangled_component_name":"_ZTv0_n48_N7android8hardware11BpHwRefBase20onIncStrongAttemptedEjPKv"
    },
    {
     "mangled_component_name":"_ZN7android7RefBase13onLastWeakRefEPKv"
    }
   ],
   "unique_id":"_ZTSN7android8hardware4gnss4V1_013BpHwGnssDebugE"
  },
  {
   "vtable_components":[
    {
     "kind":"vbase_offset",
     "component_value":136
    },
    {
     "kind":"offset_to_top"
    },
    {
     "kind":"rtti",
     "mangled_component_name":"_ZTIN7android8hardware4gnss4V1_024BnHwGnssGeofenceCallbackE"
    },
    {
     "mangled_component_name":"_ZN7android8hardware9BHwBinder8transactEjRKNS0_6ParcelEPS2_jNSt3__18functionIFvRS2_EEE"
    },
    {
     "mangled_component_name":"_ZN7android8hardware9BHwBinder11linkToDeathERKNS_2spINS0_7IBinder14DeathRecipientEEEPvj"
    },
    {
     "mangled_component_name":"_ZN7android8hardware9BHwBinder13unlinkToDeathERKNS_2wpINS0_7IBinder14DeathRecipientEEEPvjPS5_"
    },
    {
     "mangled_component_name":"_ZNK7android8hardware7IBinder13checkSubclassEPKv"
    },
    {
     "mangled_component_name":"_ZN7android8hardware9BHwBinder12attachObjectEPKvPvS4_PFvS3_S4_S4_E"
    },
    {
     "mangled_component_name":"_ZNK7android8hardware9BHwBinder10findObjectEPKv"
    },
    {
     "mangled_component_name":"_ZN7android8hardware9BHwBinder12detachObjectEPKv"
    },
    {
     "mangled_component_name":"_ZN7android8hardware9BHwBinder11localBinderEv"
    },
    {
     "mangled_component_name":"_ZN7android8hardware7IBinder12remoteBinderEv"
    },
    {
     "kind":"complete_dtor_pointer",
     "mangled_component_name":"_ZN7android8hardware4gnss4V1_024BnHwGnssGeofenceCallbackD1Ev"
    },
    {
     "kind":"deleting_dtor_pointer",
     "mangled_component_name":"_ZN7android8hardware4gnss4V1_024BnHwGnssGeofenceCallbackD0Ev"
    },
    {
     "mangled_component_name":"_ZN7android8hardware4gnss4V1_024BnHwGnssGeofenceCallback10onTransactEjRKNS0_6ParcelEPS4_jNSt3__18functionIFvRS4_EEE"
    },
    {
     "kind":"offset_to_top",
     "component_value":-32
    },
    {
     "kind":"rtti",
     "mangled_component_name":"_ZTIN7android8hardware4gnss4V1_024BnHwGnssGeofenceCallbackE"
    },
    {
     "kind":"complete_dtor_pointer",
     "mangled_component_name":"_ZThn32_N7android8hardware4gnss4V1_024BnHwGnssGeofenceCallbackD1Ev"
    },
    {
     "kind":"deleting_dtor_pointer",
     "mangled_component_name":"_ZThn32_N7android8hardware4gnss4V1_024BnHwGnssGeofenceCallbackD0Ev"
    },
    {
     "kind":"vcall_offset"
    },
    {
     "kind":"vcall_offset"
    },
    {
     "kind":"vcall_offset"
    },
    {
     "kind":"vcall_offset"
    },
    {
     "kind":"vcall_offset",
     "component_value":-136
    },
    {
     "kind":"offset_to_top",
     "component_value":-136
    },
    {
     "kind":"rtti",
     "mangled_component_name":"_ZTIN7android8hardware4gnss4V1_024BnHwGnssGeofenceCallbackE"
    },
    {
     "kind":"complete_dtor_pointer",
     "mangled_component_name":"_ZTv0_n24_N7android8hardware4gnss4V1_024BnHwGnssGeofenceCallbackD1Ev"
    },
    {
     "kind":"deleting_dtor_pointer",
     "mangled_component_name":"_ZTv0_n24_N7android8hardware4gnss4V1_024BnHwGnssGeofenceCallbackD0Ev"
    },
    {
     "mangled_component_name":"_ZN7android7RefBase10onFirstRefEv"
    },
    {
     "mangled_component_name":"_ZN7android7RefBase15onLastStrongRefEPKv"
    },
    {
     "mangled_component_name":"_ZN7android7RefBase20onIncStrongAttemptedEjPKv"
    },
    {
     "mangled_component_name":"_ZN7android7RefBase13onLastWeakRefEPKv"
    }
   ],
   "unique_id":"_ZTSN7android8hardware4gnss4V1_024BnHwGnssGeofenceCallbackE"
  },
  {
   "vtable_components":[
    {
     "kind":"vbase_offset",
     "component_value":200
    },
    {
     "kind":"offset_to_top"
    },
    {
     "kind":"rtti",
     "mangled_component_name":"_ZTIN7android8hardware4gnss4V1_024BpHwGnssGeofenceCallbackE"
    },
    {
     "mangled_component_name":"_ZNK7android8hardware4gnss4V1_024BpHwGnssGeofenceCallback8isRemoteEv"
    },
    {
     "mangled_component_name":"_ZN7android8hardware4gnss4V1_024BpHwGnssGeofenceCallback14interfaceChainENSt3__18functionIFvRKNS0_8hidl_vecINS0_11hidl_stringEEEEEE"
    },
    {
     "mangled_component_name":"_ZN7android8hardware4gnss4V1_024BpHwGnssGeofenceCallback5debugERKNS0_11hidl_handleERKNS0_8hidl_vecINS0_11hidl_stringEEE"
    },
    {
     "mangled_component_name":"_ZN7android8hardware4gnss4V1_024BpHwGnssGeofenceCallback19interfaceDescriptorENSt3__18functionIFvRKNS0_11hidl_stringEEEE"
    },
    {
     "mangled_component_name":"_ZN7android8hardware4gnss4V1_024BpHwGnssGeofenceCallback12getHashChainENSt3__18functionIFvRKNS0_8hidl_vecINS0_10hidl_arrayIhLm32EJEEEEEEEE"
    },
    {
     "mangled_component_name":"_ZN7android8hardware4gnss4V1_024BpHwGnssGeofenceCallback21setHALInstrumentationEv"
    },
    {
     "mangled_component_name":"_ZN7android8hardware4gnss4V1_024BpHwGnssGeofenceCallback11linkToDeathERKNS_2spINS0_20hidl_death_recipientEEEm"
    },
    {
     "mangled_component_name":"_ZN7android8hardware4gnss4V1_024BpHwGnssGeofenceCallback4pingEv"
    },
    {
     "mangled_component_name":"_ZN7android8hardware4gnss4V1_024BpHwGnssGeofenceCallback12getDebugInfoENSt3__18functionIFvRKNS_4hidl4base4V1_09DebugInfoEEEE"
    },
    {
     "mangled_component_name":"_ZN7android8hardware4gnss4V1_024BpHwGnssGeofenceCallback21notifySyspropsChangedEv"
    },
    {
     "mangled_component_name":"_ZN7android8hardware4gnss4V1_024BpHwGnssGeofenceCallback13unlinkToDeathERKNS_2spINS0_20hidl_death_recipientEEE"
    },
    {
     "kind":"complete_dtor_pointer",
     "mangled_component_name":"_ZN7android8hardware4gnss4V1_024BpHwGnssGeofenceCallbackD1Ev"
    },
    {
     "kind":"deleting_dtor_pointer",
     "mangled_component_name":"_ZN7android8hardware4gnss4V1_024BpHwGnssGeofenceCallbackD0Ev"
    },
    {
     "mangled_component_name":"_ZN7android8hardware4gnss4V1_024BpHwGnssGeofenceCallback24gnssGeofenceTransitionCbEiRKNS2_12GnssLocationENS2_21IGnssGeofenceCallback18GeofenceTransitionEl"
    },
    {
     "mangled_component_name":"_ZN7android8hardware4gnss4V1_024BpHwGnssGeofenceCallback20gnssGeofenceStatusCbENS2_21IGnssGeofenceCallback20GeofenceAvailabilityERKNS2_12GnssLocationE"
    },
    {
     "mangled_component_name":"_ZN7android8hardware4gnss4V1_024BpHwGnssGeofenceCallback17gnssGeofenceAddCbEiNS2_21IGnssGeofenceCallback14GeofenceStatusE"
    },
    {
     "mangled_component_name":"_ZN7android8hardware4gnss4V1_024BpHwGnssGeofenceCallback20gnssGeofenceRemoveCbEiNS2_21IGnssGeofenceCallback14GeofenceStatusE"
    },
    {
     "mangled_component_name":"_ZN7android8hardware4gnss4V1_024BpHwGnssGeofenceCallback19gnssGeofencePauseCbEiNS2_21IGnssGeofenceCallback14GeofenceStatusE"
    },
    {
     "mangled_component_name":"_ZN7android8hardware4gnss4V1_024BpHwGnssGeofenceCallback20gnssGeofenceResumeCbEiNS2_21IGnssGeofenceCallback14GeofenceStatusE"
    },
    {
     "mangled_component_name":"_ZN7android8hardware11BpInterfaceINS0_4gnss4V1_021IGnssGeofenceCallbackEE10onAsBinderEv"
    },
    {
     "kind":"vbase_offset",
     "component_value":192
    },
    {
     "kind":"offset_to_top",
     "component_value":-8
    },
    {
     "kind":"rtti",
     "mangled_component_name":"_ZTIN7android8hardware4gnss4V1_024BpHwGnssGeofenceCallbackE"
    },
    {
     "kind":"complete_dtor_pointer",
     "mangled_component_name":"_ZThn8_N7android8hardware4gnss4V1_024BpHwGnssGeofenceCallbackD1Ev"
    },
    {
     "kind":"deleting_dtor_pointer",
     "mangled_component_name":"_ZThn8_N7android8hardware4gnss4V1_024BpHwGnssGeofenceCallbackD0Ev"
    },
    {
     "mangled_component_name":"_ZThn8_N7android8hardware11BpInterfaceINS0_4gnss4V1_021IGnssGeofenceCallbackEE10onAsBinderEv"
    },
    {
     "kind":"vbase_offset",
     "component_value":184
    },
    {
     "kind":"offset_to_top",
     "component_value":-16
    },
    {
     "kind":"rtti",
     "mangled_component_name":"_ZTIN7android8hardware4gnss4V1_024BpHwGnssGeofenceCallbackE"
    },
    {
     "kind":"complete_dtor_pointer",
     "mangled_component_name":"_ZThn16_N7android8hardware4gnss4V1_024BpHwGnssGeofenceCallbackD1Ev"
    },
    {
     "kind":"deleting_dtor_pointer",
     "mangled_component_name":"_ZThn16_N7android8hardware4gnss4V1_024BpHwGnssGeofenceCallbackD0Ev"
    },
    {
     "mangled_component_name":"_ZN7android8hardware11BpHwRefBase10onFirstRefEv"
    },
    {
     "mangled_component_name":"_ZN7android8hardware11BpHwRefBase15onLastStrongRefEPKv"
    },
    {
     "mangled_component_name":"_ZN7android8hardware11BpHwRefBase20onIncStrongAttemptedEjPKv"
    },
    {
     "kind":"offset_to_top",
     "component_value":-48
    },
    {
     "kind":"rtti",
     "mangled_component_name":"_ZTIN7android8hardware4gnss4V1_024BpHwGnssGeofenceCallbackE"
    },
    {
     "kind":"complete_dtor_pointer",
     "mangled_component_name":"_ZThn48_N7android8hardware4gnss4V1_024BpHwGnssGeofenceCallbackD1Ev"
    },
    {
     "kind":"deleting_dtor_pointer",
     "mangled_component_name":"_ZThn48_N7android8hardware4gnss4V1_024BpHwGnssGeofenceCallbackD0Ev"
    },
    {
     "kind":"vcall_offset"
    },
    {
     "kind":"vcall_offset",
     "component_value":-184
    },
    {
     "kind":"vcall_offset",
     "component_value":-184
    },
    {
     "kind":"vcall_offset",
     "component_value":-184
    },
    {
     "kind":"vcall_offset",
     "component_value":-200
    },
    {
     "kind":"offset_to_top",
     "component_value":-200
    },
    {
     "kind":"rtti",
     "mangled_component_name":"_ZTIN7android8hardware4gnss4V1_024BpHwGnssGeofenceCallbackE"
    },
    {
     "kind":"complete_dtor_pointer",
     "mangled_component_name":"_ZTv0_n24_N7android8hardware4gnss4V1_024BpHwGnssGeofenceCallbackD1Ev"
    },
    {
     "kind":"deleting_dtor_pointer",
     "mangled_component_name":"_ZTv0_n24_N7android8hardware4gnss4V1_024BpHwGnssGeofenceCallbackD0Ev"
    },
    {
     "mangled_component_name":"_ZTv0_n32_N7android8hardware11BpHwRefBase10onFirstRefEv"
    },
    {
     "mangled_component_name":"_ZTv0_n40_N7android8hardware11BpHwRefBase15onLastStrongRefEPKv"
    },
    {
     "mangled_component_name":"_ZTv0_n48_N7android8hardware11BpHwRefBase20onIncStrongAttemptedEjPKv"
    },
    {
     "mangled_component_name":"_ZN7android7RefBase13onLastWeakRefEPKv"
    }
   ],
   "unique_id":"_ZTSN7android8hardware4gnss4V1_024BpHwGnssGeofenceCallbackE"
  },
  {
   "vtable_components":[
    {
     "kind":"vbase_offset",
     "component_value":136
    },
    {
     "kind":"offset_to_top"
    },
    {
     "kind":"rtti",
     "mangled_component_name":"_ZTIN7android8hardware4gnss4V1_018BnHwGnssGeofencingE"
    },
    {
     "mangled_component_name":"_ZN7android8hardware9BHwBinder8transactEjRKNS0_6ParcelEPS2_jNSt3__18functionIFvRS2_EEE"
    },
    {
     "mangled_component_name":"_ZN7android8hardware9BHwBinder11linkToDeathERKNS_2spINS0_7IBinder14DeathRecipientEEEPvj"
    },
    {
     "mangled_component_name":"_ZN7android8hardware9BHwBinder13unlinkToDeathERKNS_2wpINS0_7IBinder14DeathRecipientEEEPvjPS5_"
    },
    {
     "mangled_component_name":"_ZNK7android8hardware7IBinder13checkSubclassEPKv"
    },
    {
     "mangled_component_name":"_ZN7android8hardware9BHwBinder12attachObjectEPKvPvS4_PFvS3_S4_S4_E"
    },
    {
     "mangled_component_name":"_ZNK7android8hardware9BHwBinder10findObjectEPKv"
    },
    {
     "mangled_component_name":"_ZN7android8hardware9BHwBinder12detachObjectEPKv"
    },
    {
     "mangled_component_name":"_ZN7android8hardware9BHwBinder11localBinderEv"
    },
    {
     "mangled_component_name":"_ZN7android8hardware7IBinder12remoteBinderEv"
    },
    {
     "kind":"complete_dtor_pointer",
     "mangled_component_name":"_ZN7android8hardware4gnss4V1_018BnHwGnssGeofencingD1Ev"
    },
    {
     "kind":"deleting_dtor_pointer",
     "mangled_component_name":"_ZN7android8hardware4gnss4V1_018BnHwGnssGeofencingD0Ev"
    },
    {
     "mangled_component_name":"_ZN7android8hardware4gnss4V1_018BnHwGnssGeofencing10onTransactEjRKNS0_6ParcelEPS4_jNSt3__18functionIFvRS4_EEE"
    },
    {
     "kind":"offset_to_top",
     "component_value":-32
    },
    {
     "kind":"rtti",
     "mangled_component_name":"_ZTIN7android8hardware4gnss4V1_018BnHwGnssGeofencingE"
    },
    {
     "kind":"complete_dtor_pointer",
     "mangled_component_name":"_ZThn32_N7android8hardware4gnss4V1_018BnHwGnssGeofencingD1Ev"
    },
    {
     "kind":"deleting_dtor_pointer",
     "mangled_component_name":"_ZThn32_N7android8hardware4gnss4V1_018BnHwGnssGeofencingD0Ev"
    },
    {
     "kind":"vcall_offset"
    },
    {
     "kind":"vcall_offset"
    },
    {
     "kind":"vcall_offset"
    },
    {
     "kind":"vcall_offset"
    },
    {
     "kind":"vcall_offset",
     "component_value":-136
    },
    {
     "kind":"offset_to_top",
     "component_value":-136
    },
    {
     "kind":"rtti",
     "mangled_component_name":"_ZTIN7android8hardware4gnss4V1_018BnHwGnssGeofencingE"
    },
    {
     "kind":"complete_dtor_pointer",
     "mangled_component_name":"_ZTv0_n24_N7android8hardware4gnss4V1_018BnHwGnssGeofencingD1Ev"
    },
    {
     "kind":"deleting_dtor_pointer",
     "mangled_component_name":"_ZTv0_n24_N7android8hardware4gnss4V1_018BnHwGnssGeofencingD0Ev"
    },
    {
     "mangled_component_name":"_ZN7android7RefBase10onFirstRefEv"
    },
    {
     "mangled_component_name":"_ZN7android7RefBase15onLastStrongRefEPKv"
    },
    {
     "mangled_component_name":"_ZN7android7RefBase20onIncStrongAttemptedEjPKv"
    },
    {
     "mangled_component_name":"_ZN7android7RefBase13onLastWeakRefEPKv"
    }
   ],
   "unique_id":"_ZTSN7android8hardware4gnss4V1_018BnHwGnssGeofencingE"
  },
  {
   "vtable_components":[
    {
     "kind":"vbase_offset",
     "component_value":8
    },
    {
     "kind":"offset_to_top"
    },
    {
     "kind":"rtti",
     "mangled_component_name":"_ZTIN7android8hardware4gnss4V1_015IGnssGeofencingE"
    },
    {
     "mangled_component_name":"_ZNK7android8hardware4gnss4V1_015IGnssGeofencing8isRemoteEv"
    },
    {
     "mangled_component_name":"_ZN7android8hardware4gnss4V1_015IGnssGeofencing14interfaceChainENSt3__18functionIFvRKNS0_8hidl_vecINS0_11hidl_stringEEEEEE"
    },
    {
     "mangled_component_name":"_ZN7android8hardware4gnss4V1_015IGnssGeofencing5debugERKNS0_11hidl_handleERKNS0_8hidl_vecINS0_11hidl_stringEEE"
    },
    {
     "mangled_component_name":"_ZN7android8hardware4gnss4V1_015IGnssGeofencing19interfaceDescriptorENSt3__18functionIFvRKNS0_11hidl_stringEEEE"
    },
    {
     "mangled_component_name":"_ZN7android8hardware4gnss4V1_015IGnssGeofencing12getHashChainENSt3__18functionIFvRKNS0_8hidl_vecINS0_10hidl_arrayIhLm32EJEEEEEEEE"
    },
    {
     "mangled_component_name":"_ZN7android8hardware4gnss4V1_015IGnssGeofencing21setHALInstrumentationEv"
    },
    {
     "mangled_component_name":"_ZN7android8hardware4gnss4V1_015IGnssGeofencing11linkToDeathERKNS_2spINS0_20hidl_death_recipientEEEm"
    },
    {
     "mangled_component_name":"_ZN7android8hardware4gnss4V1_015IGnssGeofencing4pingEv"
    },
    {
     "mangled_component_name":"_ZN7android8hardware4gnss4V1_015IGnssGeofencing12getDebugInfoENSt3__18functionIFvRKNS_4hidl4base4V1_09DebugInfoEEEE"
    },
    {
     "mangled_component_name":"_ZN7android8hardware4gnss4V1_015IGnssGeofencing21notifySyspropsChangedEv"
    },
    {
     "mangled_component_name":"_ZN7android8hardware4gnss4V1_015IGnssGeofencing13unlinkToDeathERKNS_2spINS0_20hidl_death_recipientEEE"
    },
    {
     "kind":"complete_dtor_pointer",
     "mangled_component_name":"_ZN7android8hardware4gnss4V1_015IGnssGeofencingD1Ev"
    },
    {
     "kind":"deleting_dtor_pointer",
     "mangled_component_name":"_ZN7android8hardware4gnss4V1_015IGnssGeofencingD0Ev"
    },
    {
     "is_pure":true,
     "mangled_component_name":"_ZN7android8hardware4gnss4V1_015IGnssGeofencing11setCallbackERKNS_2spINS2_21IGnssGeofenceCallbackEEE"
    },
    {
     "is_pure":true,
     "mangled_component_name":"_ZN7android8hardware4gnss4V1_015IGnssGeofencing11addGeofenceEidddNS2_21IGnssGeofenceCallback18GeofenceTransitionEijj"
    },
    {
     "is_pure":true,
     "mangled_component_name":"_ZN7android8hardware4gnss4V1_015IGnssGeofencing13pauseGeofenceEi"
    },
    {
     "is_pure":true,
     "mangled_component_name":"_ZN7android8hardware4gnss4V1_015IGnssGeofencing14resumeGeofenceEii"
    },
    {
     "is_pure":true,
     "mangled_component_name":"_ZN7android8hardware4gnss4V1_015IGnssGeofencing14removeGeofenceEi"
    },
    {
     "kind":"vcall_offset"
    },
    {
     "kind":"vcall_offset"
    },
    {
     "kind":"vcall_offset"
    },
    {
     "kind":"vcall_offset"
    },
    {
     "kind":"vcall_offset",
     "component_value":-8
    },
    {
     "kind":"offset_to_top",
     "component_value":-8
    },
    {
     "kind":"rtti",
     "mangled_component_name":"_ZTIN7android8hardware4gnss4V1_015IGnssGeofencingE"
    },
    {
     "kind":"complete_dtor_pointer",
     "mangled_component_name":"_ZTv0_n24_N7android8hardware4gnss4V1_015IGnssGeofencingD1Ev"
    },
    {
     "kind":"deleting_dtor_pointer",
     "mangled_component_name":"_ZTv0_n24_N7android8hardware4gnss4V1_015IGnssGeofencingD0Ev"
    },
    {
     "mangled_component_name":"_ZN7android7RefBase10onFirstRefEv"
    },
    {
     "mangled_component_name":"_ZN7android7RefBase15onLastStrongRefEPKv"
    },
    {
     "mangled_component_name":"_ZN7android7RefBase20onIncStrongAttemptedEjPKv"
    },
    {
     "mangled_component_name":"_ZN7android7RefBase13onLastWeakRefEPKv"
    }
   ],
   "unique_id":"_ZTSN7android8hardware4gnss4V1_015IGnssGeofencingE"
  },
  {
   "vtable_components":[
    {
     "kind":"vbase_offset",
     "component_value":200
    },
    {
     "kind":"offset_to_top"
    },
    {
     "kind":"rtti",
     "mangled_component_name":"_ZTIN7android8hardware4gnss4V1_018BpHwGnssGeofencingE"
    },
    {
     "mangled_component_name":"_ZNK7android8hardware4gnss4V1_018BpHwGnssGeofencing8isRemoteEv"
    },
    {
     "mangled_component_name":"_ZN7android8hardware4gnss4V1_018BpHwGnssGeofencing14interfaceChainENSt3__18functionIFvRKNS0_8hidl_vecINS0_11hidl_stringEEEEEE"
    },
    {
     "mangled_component_name":"_ZN7android8hardware4gnss4V1_018BpHwGnssGeofencing5debugERKNS0_11hidl_handleERKNS0_8hidl_vecINS0_11hidl_stringEEE"
    },
    {
     "mangled_component_name":"_ZN7android8hardware4gnss4V1_018BpHwGnssGeofencing19interfaceDescriptorENSt3__18functionIFvRKNS0_11hidl_stringEEEE"
    },
    {
     "mangled_component_name":"_ZN7android8hardware4gnss4V1_018BpHwGnssGeofencing12getHashChainENSt3__18functionIFvRKNS0_8hidl_vecINS0_10hidl_arrayIhLm32EJEEEEEEEE"
    },
    {
     "mangled_component_name":"_ZN7android8hardware4gnss4V1_018BpHwGnssGeofencing21setHALInstrumentationEv"
    },
    {
     "mangled_component_name":"_ZN7android8hardware4gnss4V1_018BpHwGnssGeofencing11linkToDeathERKNS_2spINS0_20hidl_death_recipientEEEm"
    },
    {
     "mangled_component_name":"_ZN7android8hardware4gnss4V1_018BpHwGnssGeofencing4pingEv"
    },
    {
     "mangled_component_name":"_ZN7android8hardware4gnss4V1_018BpHwGnssGeofencing12getDebugInfoENSt3__18functionIFvRKNS_4hidl4base4V1_09DebugInfoEEEE"
    },
    {
     "mangled_component_name":"_ZN7android8hardware4gnss4V1_018BpHwGnssGeofencing21notifySyspropsChangedEv"
    },
    {
     "mangled_component_name":"_ZN7android8hardware4gnss4V1_018BpHwGnssGeofencing13unlinkToDeathERKNS_2spINS0_20hidl_death_recipientEEE"
    },
    {
     "kind":"complete_dtor_pointer",
     "mangled_component_name":"_ZN7android8hardware4gnss4V1_018BpHwGnssGeofencingD1Ev"
    },
    {
     "kind":"deleting_dtor_pointer",
     "mangled_component_name":"_ZN7android8hardware4gnss4V1_018BpHwGnssGeofencingD0Ev"
    },
    {
     "mangled_component_name":"_ZN7android8hardware4gnss4V1_018BpHwGnssGeofencing11setCallbackERKNS_2spINS2_21IGnssGeofenceCallbackEEE"
    },
    {
     "mangled_component_name":"_ZN7android8hardware4gnss4V1_018BpHwGnssGeofencing11addGeofenceEidddNS2_21IGnssGeofenceCallback18GeofenceTransitionEijj"
    },
    {
     "mangled_component_name":"_ZN7android8hardware4gnss4V1_018BpHwGnssGeofencing13pauseGeofenceEi"
    },
    {
     "mangled_component_name":"_ZN7android8hardware4gnss4V1_018BpHwGnssGeofencing14resumeGeofenceEii"
    },
    {
     "mangled_component_name":"_ZN7android8hardware4gnss4V1_018BpHwGnssGeofencing14removeGeofenceEi"
    },
    {
     "mangled_component_name":"_ZN7android8hardware11BpInterfaceINS0_4gnss4V1_015IGnssGeofencingEE10onAsBinderEv"
    },
    {
     "kind":"vbase_offset",
     "component_value":192
    },
    {
     "kind":"offset_to_top",
     "component_value":-8
    },
    {
     "kind":"rtti",
     "mangled_component_name":"_ZTIN7android8hardware4gnss4V1_018BpHwGnssGeofencingE"
    },
    {
     "kind":"complete_dtor_pointer",
     "mangled_component_name":"_ZThn8_N7android8hardware4gnss4V1_018BpHwGnssGeofencingD1Ev"
    },
    {
     "kind":"deleting_dtor_pointer",
     "mangled_component_name":"_ZThn8_N7android8hardware4gnss4V1_018BpHwGnssGeofencingD0Ev"
    },
    {
     "mangled_component_name":"_ZThn8_N7android8hardware11BpInterfaceINS0_4gnss4V1_015IGnssGeofencingEE10onAsBinderEv"
    },
    {
     "kind":"vbase_offset",
     "component_value":184
    },
    {
     "kind":"offset_to_top",
     "component_value":-16
    },
    {
     "kind":"rtti",
     "mangled_component_name":"_ZTIN7android8hardware4gnss4V1_018BpHwGnssGeofencingE"
    },
    {
     "kind":"complete_dtor_pointer",
     "mangled_component_name":"_ZThn16_N7android8hardware4gnss4V1_018BpHwGnssGeofencingD1Ev"
    },
    {
     "kind":"deleting_dtor_pointer",
     "mangled_component_name":"_ZThn16_N7android8hardware4gnss4V1_018BpHwGnssGeofencingD0Ev"
    },
    {
     "mangled_component_name":"_ZN7android8hardware11BpHwRefBase10onFirstRefEv"
    },
    {
     "mangled_component_name":"_ZN7android8hardware11BpHwRefBase15onLastStrongRefEPKv"
    },
    {
     "mangled_component_name":"_ZN7android8hardware11BpHwRefBase20onIncStrongAttemptedEjPKv"
    },
    {
     "kind":"offset_to_top",
     "component_value":-48
    },
    {
     "kind":"rtti",
     "mangled_component_name":"_ZTIN7android8hardware4gnss4V1_018BpHwGnssGeofencingE"
    },
    {
     "kind":"complete_dtor_pointer",
     "mangled_component_name":"_ZThn48_N7android8hardware4gnss4V1_018BpHwGnssGeofencingD1Ev"
    },
    {
     "kind":"deleting_dtor_pointer",
     "mangled_component_name":"_ZThn48_N7android8hardware4gnss4V1_018BpHwGnssGeofencingD0Ev"
    },
    {
     "kind":"vcall_offset"
    },
    {
     "kind":"vcall_offset",
     "component_value":-184
    },
    {
     "kind":"vcall_offset",
     "component_value":-184
    },
    {
     "kind":"vcall_offset",
     "component_value":-184
    },
    {
     "kind":"vcall_offset",
     "component_value":-200
    },
    {
     "kind":"offset_to_top",
     "component_value":-200
    },
    {
     "kind":"rtti",
     "mangled_component_name":"_ZTIN7android8hardware4gnss4V1_018BpHwGnssGeofencingE"
    },
    {
     "kind":"complete_dtor_pointer",
     "mangled_component_name":"_ZTv0_n24_N7android8hardware4gnss4V1_018BpHwGnssGeofencingD1Ev"
    },
    {
     "kind":"deleting_dtor_pointer",
     "mangled_component_name":"_ZTv0_n24_N7android8hardware4gnss4V1_018BpHwGnssGeofencingD0Ev"
    },
    {
     "mangled_component_name":"_ZTv0_n32_N7android8hardware11BpHwRefBase10onFirstRefEv"
    },
    {
     "mangled_component_name":"_ZTv0_n40_N7android8hardware11BpHwRefBase15onLastStrongRefEPKv"
    },
    {
     "mangled_component_name":"_ZTv0_n48_N7android8hardware11BpHwRefBase20onIncStrongAttemptedEjPKv"
    },
    {
     "mangled_component_name":"_ZN7android7RefBase13onLastWeakRefEPKv"
    }
   ],
   "unique_id":"_ZTSN7android8hardware4gnss4V1_018BpHwGnssGeofencingE"
  },
  {
   "vtable_components":[
    {
     "kind":"vbase_offset",
     "component_value":136
    },
    {
     "kind":"offset_to_top"
    },
    {
     "kind":"rtti",
     "mangled_component_name":"_ZTIN7android8hardware4gnss4V1_027BnHwGnssMeasurementCallbackE"
    },
    {
     "mangled_component_name":"_ZN7android8hardware9BHwBinder8transactEjRKNS0_6ParcelEPS2_jNSt3__18functionIFvRS2_EEE"
    },
    {
     "mangled_component_name":"_ZN7android8hardware9BHwBinder11linkToDeathERKNS_2spINS0_7IBinder14DeathRecipientEEEPvj"
    },
    {
     "mangled_component_name":"_ZN7android8hardware9BHwBinder13unlinkToDeathERKNS_2wpINS0_7IBinder14DeathRecipientEEEPvjPS5_"
    },
    {
     "mangled_component_name":"_ZNK7android8hardware7IBinder13checkSubclassEPKv"
    },
    {
     "mangled_component_name":"_ZN7android8hardware9BHwBinder12attachObjectEPKvPvS4_PFvS3_S4_S4_E"
    },
    {
     "mangled_component_name":"_ZNK7android8hardware9BHwBinder10findObjectEPKv"
    },
    {
     "mangled_component_name":"_ZN7android8hardware9BHwBinder12detachObjectEPKv"
    },
    {
     "mangled_component_name":"_ZN7android8hardware9BHwBinder11localBinderEv"
    },
    {
     "mangled_component_name":"_ZN7android8hardware7IBinder12remoteBinderEv"
    },
    {
     "kind":"complete_dtor_pointer",
     "mangled_component_name":"_ZN7android8hardware4gnss4V1_027BnHwGnssMeasurementCallbackD1Ev"
    },
    {
     "kind":"deleting_dtor_pointer",
     "mangled_component_name":"_ZN7android8hardware4gnss4V1_027BnHwGnssMeasurementCallbackD0Ev"
    },
    {
     "mangled_component_name":"_ZN7android8hardware4gnss4V1_027BnHwGnssMeasurementCallback10onTransactEjRKNS0_6ParcelEPS4_jNSt3__18functionIFvRS4_EEE"
    },
    {
     "kind":"offset_to_top",
     "component_value":-32
    },
    {
     "kind":"rtti",
     "mangled_component_name":"_ZTIN7android8hardware4gnss4V1_027BnHwGnssMeasurementCallbackE"
    },
    {
     "kind":"complete_dtor_pointer",
     "mangled_component_name":"_ZThn32_N7android8hardware4gnss4V1_027BnHwGnssMeasurementCallbackD1Ev"
    },
    {
     "kind":"deleting_dtor_pointer",
     "mangled_component_name":"_ZThn32_N7android8hardware4gnss4V1_027BnHwGnssMeasurementCallbackD0Ev"
    },
    {
     "kind":"vcall_offset"
    },
    {
     "kind":"vcall_offset"
    },
    {
     "kind":"vcall_offset"
    },
    {
     "kind":"vcall_offset"
    },
    {
     "kind":"vcall_offset",
     "component_value":-136
    },
    {
     "kind":"offset_to_top",
     "component_value":-136
    },
    {
     "kind":"rtti",
     "mangled_component_name":"_ZTIN7android8hardware4gnss4V1_027BnHwGnssMeasurementCallbackE"
    },
    {
     "kind":"complete_dtor_pointer",
     "mangled_component_name":"_ZTv0_n24_N7android8hardware4gnss4V1_027BnHwGnssMeasurementCallbackD1Ev"
    },
    {
     "kind":"deleting_dtor_pointer",
     "mangled_component_name":"_ZTv0_n24_N7android8hardware4gnss4V1_027BnHwGnssMeasurementCallbackD0Ev"
    },
    {
     "mangled_component_name":"_ZN7android7RefBase10onFirstRefEv"
    },
    {
     "mangled_component_name":"_ZN7android7RefBase15onLastStrongRefEPKv"
    },
    {
     "mangled_component_name":"_ZN7android7RefBase20onIncStrongAttemptedEjPKv"
    },
    {
     "mangled_component_name":"_ZN7android7RefBase13onLastWeakRefEPKv"
    }
   ],
   "unique_id":"_ZTSN7android8hardware4gnss4V1_027BnHwGnssMeasurementCallbackE"
  },
  {
   "vtable_components":[
    {
     "kind":"vbase_offset",
     "component_value":136
    },
    {
     "kind":"offset_to_top"
    },
    {
     "kind":"rtti",
     "mangled_component_name":"_ZTIN7android8hardware4gnss4V1_09BnHwAGnssE"
    },
    {
     "mangled_component_name":"_ZN7android8hardware9BHwBinder8transactEjRKNS0_6ParcelEPS2_jNSt3__18functionIFvRS2_EEE"
    },
    {
     "mangled_component_name":"_ZN7android8hardware9BHwBinder11linkToDeathERKNS_2spINS0_7IBinder14DeathRecipientEEEPvj"
    },
    {
     "mangled_component_name":"_ZN7android8hardware9BHwBinder13unlinkToDeathERKNS_2wpINS0_7IBinder14DeathRecipientEEEPvjPS5_"
    },
    {
     "mangled_component_name":"_ZNK7android8hardware7IBinder13checkSubclassEPKv"
    },
    {
     "mangled_component_name":"_ZN7android8hardware9BHwBinder12attachObjectEPKvPvS4_PFvS3_S4_S4_E"
    },
    {
     "mangled_component_name":"_ZNK7android8hardware9BHwBinder10findObjectEPKv"
    },
    {
     "mangled_component_name":"_ZN7android8hardware9BHwBinder12detachObjectEPKv"
    },
    {
     "mangled_component_name":"_ZN7android8hardware9BHwBinder11localBinderEv"
    },
    {
     "mangled_component_name":"_ZN7android8hardware7IBinder12remoteBinderEv"
    },
    {
     "kind":"complete_dtor_pointer",
     "mangled_component_name":"_ZN7android8hardware4gnss4V1_09BnHwAGnssD1Ev"
    },
    {
     "kind":"deleting_dtor_pointer",
     "mangled_component_name":"_ZN7android8hardware4gnss4V1_09BnHwAGnssD0Ev"
    },
    {
     "mangled_component_name":"_ZN7android8hardware4gnss4V1_09BnHwAGnss10onTransactEjRKNS0_6ParcelEPS4_jNSt3__18functionIFvRS4_EEE"
    },
    {
     "kind":"offset_to_top",
     "component_value":-32
    },
    {
     "kind":"rtti",
     "mangled_component_name":"_ZTIN7android8hardware4gnss4V1_09BnHwAGnssE"
    },
    {
     "kind":"complete_dtor_pointer",
     "mangled_component_name":"_ZThn32_N7android8hardware4gnss4V1_09BnHwAGnssD1Ev"
    },
    {
     "kind":"deleting_dtor_pointer",
     "mangled_component_name":"_ZThn32_N7android8hardware4gnss4V1_09BnHwAGnssD0Ev"
    },
    {
     "kind":"vcall_offset"
    },
    {
     "kind":"vcall_offset"
    },
    {
     "kind":"vcall_offset"
    },
    {
     "kind":"vcall_offset"
    },
    {
     "kind":"vcall_offset",
     "component_value":-136
    },
    {
     "kind":"offset_to_top",
     "component_value":-136
    },
    {
     "kind":"rtti",
     "mangled_component_name":"_ZTIN7android8hardware4gnss4V1_09BnHwAGnssE"
    },
    {
     "kind":"complete_dtor_pointer",
     "mangled_component_name":"_ZTv0_n24_N7android8hardware4gnss4V1_09BnHwAGnssD1Ev"
    },
    {
     "kind":"deleting_dtor_pointer",
     "mangled_component_name":"_ZTv0_n24_N7android8hardware4gnss4V1_09BnHwAGnssD0Ev"
    },
    {
     "mangled_component_name":"_ZN7android7RefBase10onFirstRefEv"
    },
    {
     "mangled_component_name":"_ZN7android7RefBase15onLastStrongRefEPKv"
    },
    {
     "mangled_component_name":"_ZN7android7RefBase20onIncStrongAttemptedEjPKv"
    },
    {
     "mangled_component_name":"_ZN7android7RefBase13onLastWeakRefEPKv"
    }
   ],
   "unique_id":"_ZTSN7android8hardware4gnss4V1_09BnHwAGnssE"
  },
  {
   "vtable_components":[
    {
     "kind":"vbase_offset",
     "component_value":200
    },
    {
     "kind":"offset_to_top"
    },
    {
     "kind":"rtti",
     "mangled_component_name":"_ZTIN7android8hardware4gnss4V1_027BpHwGnssMeasurementCallbackE"
    },
    {
     "mangled_component_name":"_ZNK7android8hardware4gnss4V1_027BpHwGnssMeasurementCallback8isRemoteEv"
    },
    {
     "mangled_component_name":"_ZN7android8hardware4gnss4V1_027BpHwGnssMeasurementCallback14interfaceChainENSt3__18functionIFvRKNS0_8hidl_vecINS0_11hidl_stringEEEEEE"
    },
    {
     "mangled_component_name":"_ZN7android8hardware4gnss4V1_027BpHwGnssMeasurementCallback5debugERKNS0_11hidl_handleERKNS0_8hidl_vecINS0_11hidl_stringEEE"
    },
    {
     "mangled_component_name":"_ZN7android8hardware4gnss4V1_027BpHwGnssMeasurementCallback19interfaceDescriptorENSt3__18functionIFvRKNS0_11hidl_stringEEEE"
    },
    {
     "mangled_component_name":"_ZN7android8hardware4gnss4V1_027BpHwGnssMeasurementCallback12getHashChainENSt3__18functionIFvRKNS0_8hidl_vecINS0_10hidl_arrayIhLm32EJEEEEEEEE"
    },
    {
     "mangled_component_name":"_ZN7android8hardware4gnss4V1_027BpHwGnssMeasurementCallback21setHALInstrumentationEv"
    },
    {
     "mangled_component_name":"_ZN7android8hardware4gnss4V1_027BpHwGnssMeasurementCallback11linkToDeathERKNS_2spINS0_20hidl_death_recipientEEEm"
    },
    {
     "mangled_component_name":"_ZN7android8hardware4gnss4V1_027BpHwGnssMeasurementCallback4pingEv"
    },
    {
     "mangled_component_name":"_ZN7android8hardware4gnss4V1_027BpHwGnssMeasurementCallback12getDebugInfoENSt3__18functionIFvRKNS_4hidl4base4V1_09DebugInfoEEEE"
    },
    {
     "mangled_component_name":"_ZN7android8hardware4gnss4V1_027BpHwGnssMeasurementCallback21notifySyspropsChangedEv"
    },
    {
     "mangled_component_name":"_ZN7android8hardware4gnss4V1_027BpHwGnssMeasurementCallback13unlinkToDeathERKNS_2spINS0_20hidl_death_recipientEEE"
    },
    {
     "kind":"complete_dtor_pointer",
     "mangled_component_name":"_ZN7android8hardware4gnss4V1_027BpHwGnssMeasurementCallbackD1Ev"
    },
    {
     "kind":"deleting_dtor_pointer",
     "mangled_component_name":"_ZN7android8hardware4gnss4V1_027BpHwGnssMeasurementCallbackD0Ev"
    },
    {
     "mangled_component_name":"_ZN7android8hardware4gnss4V1_027BpHwGnssMeasurementCallback17GnssMeasurementCbERKNS2_24IGnssMeasurementCallback8GnssDataE"
    },
    {
     "mangled_component_name":"_ZN7android8hardware11BpInterfaceINS0_4gnss4V1_024IGnssMeasurementCallbackEE10onAsBinderEv"
    },
    {
     "kind":"vbase_offset",
     "component_value":192
    },
    {
     "kind":"offset_to_top",
     "component_value":-8
    },
    {
     "kind":"rtti",
     "mangled_component_name":"_ZTIN7android8hardware4gnss4V1_027BpHwGnssMeasurementCallbackE"
    },
    {
     "kind":"complete_dtor_pointer",
     "mangled_component_name":"_ZThn8_N7android8hardware4gnss4V1_027BpHwGnssMeasurementCallbackD1Ev"
    },
    {
     "kind":"deleting_dtor_pointer",
     "mangled_component_name":"_ZThn8_N7android8hardware4gnss4V1_027BpHwGnssMeasurementCallbackD0Ev"
    },
    {
     "mangled_component_name":"_ZThn8_N7android8hardware11BpInterfaceINS0_4gnss4V1_024IGnssMeasurementCallbackEE10onAsBinderEv"
    },
    {
     "kind":"vbase_offset",
     "component_value":184
    },
    {
     "kind":"offset_to_top",
     "component_value":-16
    },
    {
     "kind":"rtti",
     "mangled_component_name":"_ZTIN7android8hardware4gnss4V1_027BpHwGnssMeasurementCallbackE"
    },
    {
     "kind":"complete_dtor_pointer",
     "mangled_component_name":"_ZThn16_N7android8hardware4gnss4V1_027BpHwGnssMeasurementCallbackD1Ev"
    },
    {
     "kind":"deleting_dtor_pointer",
     "mangled_component_name":"_ZThn16_N7android8hardware4gnss4V1_027BpHwGnssMeasurementCallbackD0Ev"
    },
    {
     "mangled_component_name":"_ZN7android8hardware11BpHwRefBase10onFirstRefEv"
    },
    {
     "mangled_component_name":"_ZN7android8hardware11BpHwRefBase15onLastStrongRefEPKv"
    },
    {
     "mangled_component_name":"_ZN7android8hardware11BpHwRefBase20onIncStrongAttemptedEjPKv"
    },
    {
     "kind":"offset_to_top",
     "component_value":-48
    },
    {
     "kind":"rtti",
     "mangled_component_name":"_ZTIN7android8hardware4gnss4V1_027BpHwGnssMeasurementCallbackE"
    },
    {
     "kind":"complete_dtor_pointer",
     "mangled_component_name":"_ZThn48_N7android8hardware4gnss4V1_027BpHwGnssMeasurementCallbackD1Ev"
    },
    {
     "kind":"deleting_dtor_pointer",
     "mangled_component_name":"_ZThn48_N7android8hardware4gnss4V1_027BpHwGnssMeasurementCallbackD0Ev"
    },
    {
     "kind":"vcall_offset"
    },
    {
     "kind":"vcall_offset",
     "component_value":-184
    },
    {
     "kind":"vcall_offset",
     "component_value":-184
    },
    {
     "kind":"vcall_offset",
     "component_value":-184
    },
    {
     "kind":"vcall_offset",
     "component_value":-200
    },
    {
     "kind":"offset_to_top",
     "component_value":-200
    },
    {
     "kind":"rtti",
     "mangled_component_name":"_ZTIN7android8hardware4gnss4V1_027BpHwGnssMeasurementCallbackE"
    },
    {
     "kind":"complete_dtor_pointer",
     "mangled_component_name":"_ZTv0_n24_N7android8hardware4gnss4V1_027BpHwGnssMeasurementCallbackD1Ev"
    },
    {
     "kind":"deleting_dtor_pointer",
     "mangled_component_name":"_ZTv0_n24_N7android8hardware4gnss4V1_027BpHwGnssMeasurementCallbackD0Ev"
    },
    {
     "mangled_component_name":"_ZTv0_n32_N7android8hardware11BpHwRefBase10onFirstRefEv"
    },
    {
     "mangled_component_name":"_ZTv0_n40_N7android8hardware11BpHwRefBase15onLastStrongRefEPKv"
    },
    {
     "mangled_component_name":"_ZTv0_n48_N7android8hardware11BpHwRefBase20onIncStrongAttemptedEjPKv"
    },
    {
     "mangled_component_name":"_ZN7android7RefBase13onLastWeakRefEPKv"
    }
   ],
   "unique_id":"_ZTSN7android8hardware4gnss4V1_027BpHwGnssMeasurementCallbackE"
  },
  {
   "vtable_components":[
    {
     "kind":"vbase_offset",
     "component_value":136
    },
    {
     "kind":"offset_to_top"
    },
    {
     "kind":"rtti",
     "mangled_component_name":"_ZTIN7android8hardware4gnss4V1_019BnHwGnssMeasurementE"
    },
    {
     "mangled_component_name":"_ZN7android8hardware9BHwBinder8transactEjRKNS0_6ParcelEPS2_jNSt3__18functionIFvRS2_EEE"
    },
    {
     "mangled_component_name":"_ZN7android8hardware9BHwBinder11linkToDeathERKNS_2spINS0_7IBinder14DeathRecipientEEEPvj"
    },
    {
     "mangled_component_name":"_ZN7android8hardware9BHwBinder13unlinkToDeathERKNS_2wpINS0_7IBinder14DeathRecipientEEEPvjPS5_"
    },
    {
     "mangled_component_name":"_ZNK7android8hardware7IBinder13checkSubclassEPKv"
    },
    {
     "mangled_component_name":"_ZN7android8hardware9BHwBinder12attachObjectEPKvPvS4_PFvS3_S4_S4_E"
    },
    {
     "mangled_component_name":"_ZNK7android8hardware9BHwBinder10findObjectEPKv"
    },
    {
     "mangled_component_name":"_ZN7android8hardware9BHwBinder12detachObjectEPKv"
    },
    {
     "mangled_component_name":"_ZN7android8hardware9BHwBinder11localBinderEv"
    },
    {
     "mangled_component_name":"_ZN7android8hardware7IBinder12remoteBinderEv"
    },
    {
     "kind":"complete_dtor_pointer",
     "mangled_component_name":"_ZN7android8hardware4gnss4V1_019BnHwGnssMeasurementD1Ev"
    },
    {
     "kind":"deleting_dtor_pointer",
     "mangled_component_name":"_ZN7android8hardware4gnss4V1_019BnHwGnssMeasurementD0Ev"
    },
    {
     "mangled_component_name":"_ZN7android8hardware4gnss4V1_019BnHwGnssMeasurement10onTransactEjRKNS0_6ParcelEPS4_jNSt3__18functionIFvRS4_EEE"
    },
    {
     "kind":"offset_to_top",
     "component_value":-32
    },
    {
     "kind":"rtti",
     "mangled_component_name":"_ZTIN7android8hardware4gnss4V1_019BnHwGnssMeasurementE"
    },
    {
     "kind":"complete_dtor_pointer",
     "mangled_component_name":"_ZThn32_N7android8hardware4gnss4V1_019BnHwGnssMeasurementD1Ev"
    },
    {
     "kind":"deleting_dtor_pointer",
     "mangled_component_name":"_ZThn32_N7android8hardware4gnss4V1_019BnHwGnssMeasurementD0Ev"
    },
    {
     "kind":"vcall_offset"
    },
    {
     "kind":"vcall_offset"
    },
    {
     "kind":"vcall_offset"
    },
    {
     "kind":"vcall_offset"
    },
    {
     "kind":"vcall_offset",
     "component_value":-136
    },
    {
     "kind":"offset_to_top",
     "component_value":-136
    },
    {
     "kind":"rtti",
     "mangled_component_name":"_ZTIN7android8hardware4gnss4V1_019BnHwGnssMeasurementE"
    },
    {
     "kind":"complete_dtor_pointer",
     "mangled_component_name":"_ZTv0_n24_N7android8hardware4gnss4V1_019BnHwGnssMeasurementD1Ev"
    },
    {
     "kind":"deleting_dtor_pointer",
     "mangled_component_name":"_ZTv0_n24_N7android8hardware4gnss4V1_019BnHwGnssMeasurementD0Ev"
    },
    {
     "mangled_component_name":"_ZN7android7RefBase10onFirstRefEv"
    },
    {
     "mangled_component_name":"_ZN7android7RefBase15onLastStrongRefEPKv"
    },
    {
     "mangled_component_name":"_ZN7android7RefBase20onIncStrongAttemptedEjPKv"
    },
    {
     "mangled_component_name":"_ZN7android7RefBase13onLastWeakRefEPKv"
    }
   ],
   "unique_id":"_ZTSN7android8hardware4gnss4V1_019BnHwGnssMeasurementE"
  },
  {
   "vtable_components":[
    {
     "kind":"vbase_offset",
     "component_value":8
    },
    {
     "kind":"offset_to_top"
    },
    {
     "kind":"rtti",
     "mangled_component_name":"_ZTIN7android8hardware4gnss4V1_016IGnssMeasurementE"
    },
    {
     "mangled_component_name":"_ZNK7android8hardware4gnss4V1_016IGnssMeasurement8isRemoteEv"
    },
    {
     "mangled_component_name":"_ZN7android8hardware4gnss4V1_016IGnssMeasurement14interfaceChainENSt3__18functionIFvRKNS0_8hidl_vecINS0_11hidl_stringEEEEEE"
    },
    {
     "mangled_component_name":"_ZN7android8hardware4gnss4V1_016IGnssMeasurement5debugERKNS0_11hidl_handleERKNS0_8hidl_vecINS0_11hidl_stringEEE"
    },
    {
     "mangled_component_name":"_ZN7android8hardware4gnss4V1_016IGnssMeasurement19interfaceDescriptorENSt3__18functionIFvRKNS0_11hidl_stringEEEE"
    },
    {
     "mangled_component_name":"_ZN7android8hardware4gnss4V1_016IGnssMeasurement12getHashChainENSt3__18functionIFvRKNS0_8hidl_vecINS0_10hidl_arrayIhLm32EJEEEEEEEE"
    },
    {
     "mangled_component_name":"_ZN7android8hardware4gnss4V1_016IGnssMeasurement21setHALInstrumentationEv"
    },
    {
     "mangled_component_name":"_ZN7android8hardware4gnss4V1_016IGnssMeasurement11linkToDeathERKNS_2spINS0_20hidl_death_recipientEEEm"
    },
    {
     "mangled_component_name":"_ZN7android8hardware4gnss4V1_016IGnssMeasurement4pingEv"
    },
    {
     "mangled_component_name":"_ZN7android8hardware4gnss4V1_016IGnssMeasurement12getDebugInfoENSt3__18functionIFvRKNS_4hidl4base4V1_09DebugInfoEEEE"
    },
    {
     "mangled_component_name":"_ZN7android8hardware4gnss4V1_016IGnssMeasurement21notifySyspropsChangedEv"
    },
    {
     "mangled_component_name":"_ZN7android8hardware4gnss4V1_016IGnssMeasurement13unlinkToDeathERKNS_2spINS0_20hidl_death_recipientEEE"
    },
    {
     "kind":"complete_dtor_pointer",
     "mangled_component_name":"_ZN7android8hardware4gnss4V1_016IGnssMeasurementD1Ev"
    },
    {
     "kind":"deleting_dtor_pointer",
     "mangled_component_name":"_ZN7android8hardware4gnss4V1_016IGnssMeasurementD0Ev"
    },
    {
     "is_pure":true,
     "mangled_component_name":"_ZN7android8hardware4gnss4V1_016IGnssMeasurement11setCallbackERKNS_2spINS2_24IGnssMeasurementCallbackEEE"
    },
    {
     "is_pure":true,
     "mangled_component_name":"_ZN7android8hardware4gnss4V1_016IGnssMeasurement5closeEv"
    },
    {
     "kind":"vcall_offset"
    },
    {
     "kind":"vcall_offset"
    },
    {
     "kind":"vcall_offset"
    },
    {
     "kind":"vcall_offset"
    },
    {
     "kind":"vcall_offset",
     "component_value":-8
    },
    {
     "kind":"offset_to_top",
     "component_value":-8
    },
    {
     "kind":"rtti",
     "mangled_component_name":"_ZTIN7android8hardware4gnss4V1_016IGnssMeasurementE"
    },
    {
     "kind":"complete_dtor_pointer",
     "mangled_component_name":"_ZTv0_n24_N7android8hardware4gnss4V1_016IGnssMeasurementD1Ev"
    },
    {
     "kind":"deleting_dtor_pointer",
     "mangled_component_name":"_ZTv0_n24_N7android8hardware4gnss4V1_016IGnssMeasurementD0Ev"
    },
    {
     "mangled_component_name":"_ZN7android7RefBase10onFirstRefEv"
    },
    {
     "mangled_component_name":"_ZN7android7RefBase15onLastStrongRefEPKv"
    },
    {
     "mangled_component_name":"_ZN7android7RefBase20onIncStrongAttemptedEjPKv"
    },
    {
     "mangled_component_name":"_ZN7android7RefBase13onLastWeakRefEPKv"
    }
   ],
   "unique_id":"_ZTSN7android8hardware4gnss4V1_016IGnssMeasurementE"
  },
  {
   "vtable_components":[
    {
     "kind":"vbase_offset",
     "component_value":200
    },
    {
     "kind":"offset_to_top"
    },
    {
     "kind":"rtti",
     "mangled_component_name":"_ZTIN7android8hardware4gnss4V1_019BpHwGnssMeasurementE"
    },
    {
     "mangled_component_name":"_ZNK7android8hardware4gnss4V1_019BpHwGnssMeasurement8isRemoteEv"
    },
    {
     "mangled_component_name":"_ZN7android8hardware4gnss4V1_019BpHwGnssMeasurement14interfaceChainENSt3__18functionIFvRKNS0_8hidl_vecINS0_11hidl_stringEEEEEE"
    },
    {
     "mangled_component_name":"_ZN7android8hardware4gnss4V1_019BpHwGnssMeasurement5debugERKNS0_11hidl_handleERKNS0_8hidl_vecINS0_11hidl_stringEEE"
    },
    {
     "mangled_component_name":"_ZN7android8hardware4gnss4V1_019BpHwGnssMeasurement19interfaceDescriptorENSt3__18functionIFvRKNS0_11hidl_stringEEEE"
    },
    {
     "mangled_component_name":"_ZN7android8hardware4gnss4V1_019BpHwGnssMeasurement12getHashChainENSt3__18functionIFvRKNS0_8hidl_vecINS0_10hidl_arrayIhLm32EJEEEEEEEE"
    },
    {
     "mangled_component_name":"_ZN7android8hardware4gnss4V1_019BpHwGnssMeasurement21setHALInstrumentationEv"
    },
    {
     "mangled_component_name":"_ZN7android8hardware4gnss4V1_019BpHwGnssMeasurement11linkToDeathERKNS_2spINS0_20hidl_death_recipientEEEm"
    },
    {
     "mangled_component_name":"_ZN7android8hardware4gnss4V1_019BpHwGnssMeasurement4pingEv"
    },
    {
     "mangled_component_name":"_ZN7android8hardware4gnss4V1_019BpHwGnssMeasurement12getDebugInfoENSt3__18functionIFvRKNS_4hidl4base4V1_09DebugInfoEEEE"
    },
    {
     "mangled_component_name":"_ZN7android8hardware4gnss4V1_019BpHwGnssMeasurement21notifySyspropsChangedEv"
    },
    {
     "mangled_component_name":"_ZN7android8hardware4gnss4V1_019BpHwGnssMeasurement13unlinkToDeathERKNS_2spINS0_20hidl_death_recipientEEE"
    },
    {
     "kind":"complete_dtor_pointer",
     "mangled_component_name":"_ZN7android8hardware4gnss4V1_019BpHwGnssMeasurementD1Ev"
    },
    {
     "kind":"deleting_dtor_pointer",
     "mangled_component_name":"_ZN7android8hardware4gnss4V1_019BpHwGnssMeasurementD0Ev"
    },
    {
     "mangled_component_name":"_ZN7android8hardware4gnss4V1_019BpHwGnssMeasurement11setCallbackERKNS_2spINS2_24IGnssMeasurementCallbackEEE"
    },
    {
     "mangled_component_name":"_ZN7android8hardware4gnss4V1_019BpHwGnssMeasurement5closeEv"
    },
    {
     "mangled_component_name":"_ZN7android8hardware11BpInterfaceINS0_4gnss4V1_016IGnssMeasurementEE10onAsBinderEv"
    },
    {
     "kind":"vbase_offset",
     "component_value":192
    },
    {
     "kind":"offset_to_top",
     "component_value":-8
    },
    {
     "kind":"rtti",
     "mangled_component_name":"_ZTIN7android8hardware4gnss4V1_019BpHwGnssMeasurementE"
    },
    {
     "kind":"complete_dtor_pointer",
     "mangled_component_name":"_ZThn8_N7android8hardware4gnss4V1_019BpHwGnssMeasurementD1Ev"
    },
    {
     "kind":"deleting_dtor_pointer",
     "mangled_component_name":"_ZThn8_N7android8hardware4gnss4V1_019BpHwGnssMeasurementD0Ev"
    },
    {
     "mangled_component_name":"_ZThn8_N7android8hardware11BpInterfaceINS0_4gnss4V1_016IGnssMeasurementEE10onAsBinderEv"
    },
    {
     "kind":"vbase_offset",
     "component_value":184
    },
    {
     "kind":"offset_to_top",
     "component_value":-16
    },
    {
     "kind":"rtti",
     "mangled_component_name":"_ZTIN7android8hardware4gnss4V1_019BpHwGnssMeasurementE"
    },
    {
     "kind":"complete_dtor_pointer",
     "mangled_component_name":"_ZThn16_N7android8hardware4gnss4V1_019BpHwGnssMeasurementD1Ev"
    },
    {
     "kind":"deleting_dtor_pointer",
     "mangled_component_name":"_ZThn16_N7android8hardware4gnss4V1_019BpHwGnssMeasurementD0Ev"
    },
    {
     "mangled_component_name":"_ZN7android8hardware11BpHwRefBase10onFirstRefEv"
    },
    {
     "mangled_component_name":"_ZN7android8hardware11BpHwRefBase15onLastStrongRefEPKv"
    },
    {
     "mangled_component_name":"_ZN7android8hardware11BpHwRefBase20onIncStrongAttemptedEjPKv"
    },
    {
     "kind":"offset_to_top",
     "component_value":-48
    },
    {
     "kind":"rtti",
     "mangled_component_name":"_ZTIN7android8hardware4gnss4V1_019BpHwGnssMeasurementE"
    },
    {
     "kind":"complete_dtor_pointer",
     "mangled_component_name":"_ZThn48_N7android8hardware4gnss4V1_019BpHwGnssMeasurementD1Ev"
    },
    {
     "kind":"deleting_dtor_pointer",
     "mangled_component_name":"_ZThn48_N7android8hardware4gnss4V1_019BpHwGnssMeasurementD0Ev"
    },
    {
     "kind":"vcall_offset"
    },
    {
     "kind":"vcall_offset",
     "component_value":-184
    },
    {
     "kind":"vcall_offset",
     "component_value":-184
    },
    {
     "kind":"vcall_offset",
     "component_value":-184
    },
    {
     "kind":"vcall_offset",
     "component_value":-200
    },
    {
     "kind":"offset_to_top",
     "component_value":-200
    },
    {
     "kind":"rtti",
     "mangled_component_name":"_ZTIN7android8hardware4gnss4V1_019BpHwGnssMeasurementE"
    },
    {
     "kind":"complete_dtor_pointer",
     "mangled_component_name":"_ZTv0_n24_N7android8hardware4gnss4V1_019BpHwGnssMeasurementD1Ev"
    },
    {
     "kind":"deleting_dtor_pointer",
     "mangled_component_name":"_ZTv0_n24_N7android8hardware4gnss4V1_019BpHwGnssMeasurementD0Ev"
    },
    {
     "mangled_component_name":"_ZTv0_n32_N7android8hardware11BpHwRefBase10onFirstRefEv"
    },
    {
     "mangled_component_name":"_ZTv0_n40_N7android8hardware11BpHwRefBase15onLastStrongRefEPKv"
    },
    {
     "mangled_component_name":"_ZTv0_n48_N7android8hardware11BpHwRefBase20onIncStrongAttemptedEjPKv"
    },
    {
     "mangled_component_name":"_ZN7android7RefBase13onLastWeakRefEPKv"
    }
   ],
   "unique_id":"_ZTSN7android8hardware4gnss4V1_019BpHwGnssMeasurementE"
  },
  {
   "vtable_components":[
    {
     "kind":"vbase_offset",
     "component_value":136
    },
    {
     "kind":"offset_to_top"
    },
    {
     "kind":"rtti",
     "mangled_component_name":"_ZTIN7android8hardware4gnss4V1_033BnHwGnssNavigationMessageCallbackE"
    },
    {
     "mangled_component_name":"_ZN7android8hardware9BHwBinder8transactEjRKNS0_6ParcelEPS2_jNSt3__18functionIFvRS2_EEE"
    },
    {
     "mangled_component_name":"_ZN7android8hardware9BHwBinder11linkToDeathERKNS_2spINS0_7IBinder14DeathRecipientEEEPvj"
    },
    {
     "mangled_component_name":"_ZN7android8hardware9BHwBinder13unlinkToDeathERKNS_2wpINS0_7IBinder14DeathRecipientEEEPvjPS5_"
    },
    {
     "mangled_component_name":"_ZNK7android8hardware7IBinder13checkSubclassEPKv"
    },
    {
     "mangled_component_name":"_ZN7android8hardware9BHwBinder12attachObjectEPKvPvS4_PFvS3_S4_S4_E"
    },
    {
     "mangled_component_name":"_ZNK7android8hardware9BHwBinder10findObjectEPKv"
    },
    {
     "mangled_component_name":"_ZN7android8hardware9BHwBinder12detachObjectEPKv"
    },
    {
     "mangled_component_name":"_ZN7android8hardware9BHwBinder11localBinderEv"
    },
    {
     "mangled_component_name":"_ZN7android8hardware7IBinder12remoteBinderEv"
    },
    {
     "kind":"complete_dtor_pointer",
     "mangled_component_name":"_ZN7android8hardware4gnss4V1_033BnHwGnssNavigationMessageCallbackD1Ev"
    },
    {
     "kind":"deleting_dtor_pointer",
     "mangled_component_name":"_ZN7android8hardware4gnss4V1_033BnHwGnssNavigationMessageCallbackD0Ev"
    },
    {
     "mangled_component_name":"_ZN7android8hardware4gnss4V1_033BnHwGnssNavigationMessageCallback10onTransactEjRKNS0_6ParcelEPS4_jNSt3__18functionIFvRS4_EEE"
    },
    {
     "kind":"offset_to_top",
     "component_value":-32
    },
    {
     "kind":"rtti",
     "mangled_component_name":"_ZTIN7android8hardware4gnss4V1_033BnHwGnssNavigationMessageCallbackE"
    },
    {
     "kind":"complete_dtor_pointer",
     "mangled_component_name":"_ZThn32_N7android8hardware4gnss4V1_033BnHwGnssNavigationMessageCallbackD1Ev"
    },
    {
     "kind":"deleting_dtor_pointer",
     "mangled_component_name":"_ZThn32_N7android8hardware4gnss4V1_033BnHwGnssNavigationMessageCallbackD0Ev"
    },
    {
     "kind":"vcall_offset"
    },
    {
     "kind":"vcall_offset"
    },
    {
     "kind":"vcall_offset"
    },
    {
     "kind":"vcall_offset"
    },
    {
     "kind":"vcall_offset",
     "component_value":-136
    },
    {
     "kind":"offset_to_top",
     "component_value":-136
    },
    {
     "kind":"rtti",
     "mangled_component_name":"_ZTIN7android8hardware4gnss4V1_033BnHwGnssNavigationMessageCallbackE"
    },
    {
     "kind":"complete_dtor_pointer",
     "mangled_component_name":"_ZTv0_n24_N7android8hardware4gnss4V1_033BnHwGnssNavigationMessageCallbackD1Ev"
    },
    {
     "kind":"deleting_dtor_pointer",
     "mangled_component_name":"_ZTv0_n24_N7android8hardware4gnss4V1_033BnHwGnssNavigationMessageCallbackD0Ev"
    },
    {
     "mangled_component_name":"_ZN7android7RefBase10onFirstRefEv"
    },
    {
     "mangled_component_name":"_ZN7android7RefBase15onLastStrongRefEPKv"
    },
    {
     "mangled_component_name":"_ZN7android7RefBase20onIncStrongAttemptedEjPKv"
    },
    {
     "mangled_component_name":"_ZN7android7RefBase13onLastWeakRefEPKv"
    }
   ],
   "unique_id":"_ZTSN7android8hardware4gnss4V1_033BnHwGnssNavigationMessageCallbackE"
  },
  {
   "vtable_components":[
    {
     "kind":"vbase_offset",
     "component_value":200
    },
    {
     "kind":"offset_to_top"
    },
    {
     "kind":"rtti",
     "mangled_component_name":"_ZTIN7android8hardware4gnss4V1_033BpHwGnssNavigationMessageCallbackE"
    },
    {
     "mangled_component_name":"_ZNK7android8hardware4gnss4V1_033BpHwGnssNavigationMessageCallback8isRemoteEv"
    },
    {
     "mangled_component_name":"_ZN7android8hardware4gnss4V1_033BpHwGnssNavigationMessageCallback14interfaceChainENSt3__18functionIFvRKNS0_8hidl_vecINS0_11hidl_stringEEEEEE"
    },
    {
     "mangled_component_name":"_ZN7android8hardware4gnss4V1_033BpHwGnssNavigationMessageCallback5debugERKNS0_11hidl_handleERKNS0_8hidl_vecINS0_11hidl_stringEEE"
    },
    {
     "mangled_component_name":"_ZN7android8hardware4gnss4V1_033BpHwGnssNavigationMessageCallback19interfaceDescriptorENSt3__18functionIFvRKNS0_11hidl_stringEEEE"
    },
    {
     "mangled_component_name":"_ZN7android8hardware4gnss4V1_033BpHwGnssNavigationMessageCallback12getHashChainENSt3__18functionIFvRKNS0_8hidl_vecINS0_10hidl_arrayIhLm32EJEEEEEEEE"
    },
    {
     "mangled_component_name":"_ZN7android8hardware4gnss4V1_033BpHwGnssNavigationMessageCallback21setHALInstrumentationEv"
    },
    {
     "mangled_component_name":"_ZN7android8hardware4gnss4V1_033BpHwGnssNavigationMessageCallback11linkToDeathERKNS_2spINS0_20hidl_death_recipientEEEm"
    },
    {
     "mangled_component_name":"_ZN7android8hardware4gnss4V1_033BpHwGnssNavigationMessageCallback4pingEv"
    },
    {
     "mangled_component_name":"_ZN7android8hardware4gnss4V1_033BpHwGnssNavigationMessageCallback12getDebugInfoENSt3__18functionIFvRKNS_4hidl4base4V1_09DebugInfoEEEE"
    },
    {
     "mangled_component_name":"_ZN7android8hardware4gnss4V1_033BpHwGnssNavigationMessageCallback21notifySyspropsChangedEv"
    },
    {
     "mangled_component_name":"_ZN7android8hardware4gnss4V1_033BpHwGnssNavigationMessageCallback13unlinkToDeathERKNS_2spINS0_20hidl_death_recipientEEE"
    },
    {
     "kind":"complete_dtor_pointer",
     "mangled_component_name":"_ZN7android8hardware4gnss4V1_033BpHwGnssNavigationMessageCallbackD1Ev"
    },
    {
     "kind":"deleting_dtor_pointer",
     "mangled_component_name":"_ZN7android8hardware4gnss4V1_033BpHwGnssNavigationMessageCallbackD0Ev"
    },
    {
     "mangled_component_name":"_ZN7android8hardware4gnss4V1_033BpHwGnssNavigationMessageCallback23gnssNavigationMessageCbERKNS2_30IGnssNavigationMessageCallback21GnssNavigationMessageE"
    },
    {
     "mangled_component_name":"_ZN7android8hardware11BpInterfaceINS0_4gnss4V1_030IGnssNavigationMessageCallbackEE10onAsBinderEv"
    },
    {
     "kind":"vbase_offset",
     "component_value":192
    },
    {
     "kind":"offset_to_top",
     "component_value":-8
    },
    {
     "kind":"rtti",
     "mangled_component_name":"_ZTIN7android8hardware4gnss4V1_033BpHwGnssNavigationMessageCallbackE"
    },
    {
     "kind":"complete_dtor_pointer",
     "mangled_component_name":"_ZThn8_N7android8hardware4gnss4V1_033BpHwGnssNavigationMessageCallbackD1Ev"
    },
    {
     "kind":"deleting_dtor_pointer",
     "mangled_component_name":"_ZThn8_N7android8hardware4gnss4V1_033BpHwGnssNavigationMessageCallbackD0Ev"
    },
    {
     "mangled_component_name":"_ZThn8_N7android8hardware11BpInterfaceINS0_4gnss4V1_030IGnssNavigationMessageCallbackEE10onAsBinderEv"
    },
    {
     "kind":"vbase_offset",
     "component_value":184
    },
    {
     "kind":"offset_to_top",
     "component_value":-16
    },
    {
     "kind":"rtti",
     "mangled_component_name":"_ZTIN7android8hardware4gnss4V1_033BpHwGnssNavigationMessageCallbackE"
    },
    {
     "kind":"complete_dtor_pointer",
     "mangled_component_name":"_ZThn16_N7android8hardware4gnss4V1_033BpHwGnssNavigationMessageCallbackD1Ev"
    },
    {
     "kind":"deleting_dtor_pointer",
     "mangled_component_name":"_ZThn16_N7android8hardware4gnss4V1_033BpHwGnssNavigationMessageCallbackD0Ev"
    },
    {
     "mangled_component_name":"_ZN7android8hardware11BpHwRefBase10onFirstRefEv"
    },
    {
     "mangled_component_name":"_ZN7android8hardware11BpHwRefBase15onLastStrongRefEPKv"
    },
    {
     "mangled_component_name":"_ZN7android8hardware11BpHwRefBase20onIncStrongAttemptedEjPKv"
    },
    {
     "kind":"offset_to_top",
     "component_value":-48
    },
    {
     "kind":"rtti",
     "mangled_component_name":"_ZTIN7android8hardware4gnss4V1_033BpHwGnssNavigationMessageCallbackE"
    },
    {
     "kind":"complete_dtor_pointer",
     "mangled_component_name":"_ZThn48_N7android8hardware4gnss4V1_033BpHwGnssNavigationMessageCallbackD1Ev"
    },
    {
     "kind":"deleting_dtor_pointer",
     "mangled_component_name":"_ZThn48_N7android8hardware4gnss4V1_033BpHwGnssNavigationMessageCallbackD0Ev"
    },
    {
     "kind":"vcall_offset"
    },
    {
     "kind":"vcall_offset",
     "component_value":-184
    },
    {
     "kind":"vcall_offset",
     "component_value":-184
    },
    {
     "kind":"vcall_offset",
     "component_value":-184
    },
    {
     "kind":"vcall_offset",
     "component_value":-200
    },
    {
     "kind":"offset_to_top",
     "component_value":-200
    },
    {
     "kind":"rtti",
     "mangled_component_name":"_ZTIN7android8hardware4gnss4V1_033BpHwGnssNavigationMessageCallbackE"
    },
    {
     "kind":"complete_dtor_pointer",
     "mangled_component_name":"_ZTv0_n24_N7android8hardware4gnss4V1_033BpHwGnssNavigationMessageCallbackD1Ev"
    },
    {
     "kind":"deleting_dtor_pointer",
     "mangled_component_name":"_ZTv0_n24_N7android8hardware4gnss4V1_033BpHwGnssNavigationMessageCallbackD0Ev"
    },
    {
     "mangled_component_name":"_ZTv0_n32_N7android8hardware11BpHwRefBase10onFirstRefEv"
    },
    {
     "mangled_component_name":"_ZTv0_n40_N7android8hardware11BpHwRefBase15onLastStrongRefEPKv"
    },
    {
     "mangled_component_name":"_ZTv0_n48_N7android8hardware11BpHwRefBase20onIncStrongAttemptedEjPKv"
    },
    {
     "mangled_component_name":"_ZN7android7RefBase13onLastWeakRefEPKv"
    }
   ],
   "unique_id":"_ZTSN7android8hardware4gnss4V1_033BpHwGnssNavigationMessageCallbackE"
  },
  {
   "vtable_components":[
    {
     "kind":"vbase_offset",
     "component_value":136
    },
    {
     "kind":"offset_to_top"
    },
    {
     "kind":"rtti",
     "mangled_component_name":"_ZTIN7android8hardware4gnss4V1_025BnHwGnssNavigationMessageE"
    },
    {
     "mangled_component_name":"_ZN7android8hardware9BHwBinder8transactEjRKNS0_6ParcelEPS2_jNSt3__18functionIFvRS2_EEE"
    },
    {
     "mangled_component_name":"_ZN7android8hardware9BHwBinder11linkToDeathERKNS_2spINS0_7IBinder14DeathRecipientEEEPvj"
    },
    {
     "mangled_component_name":"_ZN7android8hardware9BHwBinder13unlinkToDeathERKNS_2wpINS0_7IBinder14DeathRecipientEEEPvjPS5_"
    },
    {
     "mangled_component_name":"_ZNK7android8hardware7IBinder13checkSubclassEPKv"
    },
    {
     "mangled_component_name":"_ZN7android8hardware9BHwBinder12attachObjectEPKvPvS4_PFvS3_S4_S4_E"
    },
    {
     "mangled_component_name":"_ZNK7android8hardware9BHwBinder10findObjectEPKv"
    },
    {
     "mangled_component_name":"_ZN7android8hardware9BHwBinder12detachObjectEPKv"
    },
    {
     "mangled_component_name":"_ZN7android8hardware9BHwBinder11localBinderEv"
    },
    {
     "mangled_component_name":"_ZN7android8hardware7IBinder12remoteBinderEv"
    },
    {
     "kind":"complete_dtor_pointer",
     "mangled_component_name":"_ZN7android8hardware4gnss4V1_025BnHwGnssNavigationMessageD1Ev"
    },
    {
     "kind":"deleting_dtor_pointer",
     "mangled_component_name":"_ZN7android8hardware4gnss4V1_025BnHwGnssNavigationMessageD0Ev"
    },
    {
     "mangled_component_name":"_ZN7android8hardware4gnss4V1_025BnHwGnssNavigationMessage10onTransactEjRKNS0_6ParcelEPS4_jNSt3__18functionIFvRS4_EEE"
    },
    {
     "kind":"offset_to_top",
     "component_value":-32
    },
    {
     "kind":"rtti",
     "mangled_component_name":"_ZTIN7android8hardware4gnss4V1_025BnHwGnssNavigationMessageE"
    },
    {
     "kind":"complete_dtor_pointer",
     "mangled_component_name":"_ZThn32_N7android8hardware4gnss4V1_025BnHwGnssNavigationMessageD1Ev"
    },
    {
     "kind":"deleting_dtor_pointer",
     "mangled_component_name":"_ZThn32_N7android8hardware4gnss4V1_025BnHwGnssNavigationMessageD0Ev"
    },
    {
     "kind":"vcall_offset"
    },
    {
     "kind":"vcall_offset"
    },
    {
     "kind":"vcall_offset"
    },
    {
     "kind":"vcall_offset"
    },
    {
     "kind":"vcall_offset",
     "component_value":-136
    },
    {
     "kind":"offset_to_top",
     "component_value":-136
    },
    {
     "kind":"rtti",
     "mangled_component_name":"_ZTIN7android8hardware4gnss4V1_025BnHwGnssNavigationMessageE"
    },
    {
     "kind":"complete_dtor_pointer",
     "mangled_component_name":"_ZTv0_n24_N7android8hardware4gnss4V1_025BnHwGnssNavigationMessageD1Ev"
    },
    {
     "kind":"deleting_dtor_pointer",
     "mangled_component_name":"_ZTv0_n24_N7android8hardware4gnss4V1_025BnHwGnssNavigationMessageD0Ev"
    },
    {
     "mangled_component_name":"_ZN7android7RefBase10onFirstRefEv"
    },
    {
     "mangled_component_name":"_ZN7android7RefBase15onLastStrongRefEPKv"
    },
    {
     "mangled_component_name":"_ZN7android7RefBase20onIncStrongAttemptedEjPKv"
    },
    {
     "mangled_component_name":"_ZN7android7RefBase13onLastWeakRefEPKv"
    }
   ],
   "unique_id":"_ZTSN7android8hardware4gnss4V1_025BnHwGnssNavigationMessageE"
  },
  {
   "vtable_components":[
    {
     "kind":"vbase_offset",
     "component_value":8
    },
    {
     "kind":"offset_to_top"
    },
    {
     "kind":"rtti",
     "mangled_component_name":"_ZTIN7android8hardware4gnss4V1_022IGnssNavigationMessageE"
    },
    {
     "mangled_component_name":"_ZNK7android8hardware4gnss4V1_022IGnssNavigationMessage8isRemoteEv"
    },
    {
     "mangled_component_name":"_ZN7android8hardware4gnss4V1_022IGnssNavigationMessage14interfaceChainENSt3__18functionIFvRKNS0_8hidl_vecINS0_11hidl_stringEEEEEE"
    },
    {
     "mangled_component_name":"_ZN7android8hardware4gnss4V1_022IGnssNavigationMessage5debugERKNS0_11hidl_handleERKNS0_8hidl_vecINS0_11hidl_stringEEE"
    },
    {
     "mangled_component_name":"_ZN7android8hardware4gnss4V1_022IGnssNavigationMessage19interfaceDescriptorENSt3__18functionIFvRKNS0_11hidl_stringEEEE"
    },
    {
     "mangled_component_name":"_ZN7android8hardware4gnss4V1_022IGnssNavigationMessage12getHashChainENSt3__18functionIFvRKNS0_8hidl_vecINS0_10hidl_arrayIhLm32EJEEEEEEEE"
    },
    {
     "mangled_component_name":"_ZN7android8hardware4gnss4V1_022IGnssNavigationMessage21setHALInstrumentationEv"
    },
    {
     "mangled_component_name":"_ZN7android8hardware4gnss4V1_022IGnssNavigationMessage11linkToDeathERKNS_2spINS0_20hidl_death_recipientEEEm"
    },
    {
     "mangled_component_name":"_ZN7android8hardware4gnss4V1_022IGnssNavigationMessage4pingEv"
    },
    {
     "mangled_component_name":"_ZN7android8hardware4gnss4V1_022IGnssNavigationMessage12getDebugInfoENSt3__18functionIFvRKNS_4hidl4base4V1_09DebugInfoEEEE"
    },
    {
     "mangled_component_name":"_ZN7android8hardware4gnss4V1_022IGnssNavigationMessage21notifySyspropsChangedEv"
    },
    {
     "mangled_component_name":"_ZN7android8hardware4gnss4V1_022IGnssNavigationMessage13unlinkToDeathERKNS_2spINS0_20hidl_death_recipientEEE"
    },
    {
     "kind":"complete_dtor_pointer",
     "mangled_component_name":"_ZN7android8hardware4gnss4V1_022IGnssNavigationMessageD1Ev"
    },
    {
     "kind":"deleting_dtor_pointer",
     "mangled_component_name":"_ZN7android8hardware4gnss4V1_022IGnssNavigationMessageD0Ev"
    },
    {
     "is_pure":true,
     "mangled_component_name":"_ZN7android8hardware4gnss4V1_022IGnssNavigationMessage11setCallbackERKNS_2spINS2_30IGnssNavigationMessageCallbackEEE"
    },
    {
     "is_pure":true,
     "mangled_component_name":"_ZN7android8hardware4gnss4V1_022IGnssNavigationMessage5closeEv"
    },
    {
     "kind":"vcall_offset"
    },
    {
     "kind":"vcall_offset"
    },
    {
     "kind":"vcall_offset"
    },
    {
     "kind":"vcall_offset"
    },
    {
     "kind":"vcall_offset",
     "component_value":-8
    },
    {
     "kind":"offset_to_top",
     "component_value":-8
    },
    {
     "kind":"rtti",
     "mangled_component_name":"_ZTIN7android8hardware4gnss4V1_022IGnssNavigationMessageE"
    },
    {
     "kind":"complete_dtor_pointer",
     "mangled_component_name":"_ZTv0_n24_N7android8hardware4gnss4V1_022IGnssNavigationMessageD1Ev"
    },
    {
     "kind":"deleting_dtor_pointer",
     "mangled_component_name":"_ZTv0_n24_N7android8hardware4gnss4V1_022IGnssNavigationMessageD0Ev"
    },
    {
     "mangled_component_name":"_ZN7android7RefBase10onFirstRefEv"
    },
    {
     "mangled_component_name":"_ZN7android7RefBase15onLastStrongRefEPKv"
    },
    {
     "mangled_component_name":"_ZN7android7RefBase20onIncStrongAttemptedEjPKv"
    },
    {
     "mangled_component_name":"_ZN7android7RefBase13onLastWeakRefEPKv"
    }
   ],
   "unique_id":"_ZTSN7android8hardware4gnss4V1_022IGnssNavigationMessageE"
  },
  {
   "vtable_components":[
    {
     "kind":"vbase_offset",
     "component_value":200
    },
    {
     "kind":"offset_to_top"
    },
    {
     "kind":"rtti",
     "mangled_component_name":"_ZTIN7android8hardware4gnss4V1_025BpHwGnssNavigationMessageE"
    },
    {
     "mangled_component_name":"_ZNK7android8hardware4gnss4V1_025BpHwGnssNavigationMessage8isRemoteEv"
    },
    {
     "mangled_component_name":"_ZN7android8hardware4gnss4V1_025BpHwGnssNavigationMessage14interfaceChainENSt3__18functionIFvRKNS0_8hidl_vecINS0_11hidl_stringEEEEEE"
    },
    {
     "mangled_component_name":"_ZN7android8hardware4gnss4V1_025BpHwGnssNavigationMessage5debugERKNS0_11hidl_handleERKNS0_8hidl_vecINS0_11hidl_stringEEE"
    },
    {
     "mangled_component_name":"_ZN7android8hardware4gnss4V1_025BpHwGnssNavigationMessage19interfaceDescriptorENSt3__18functionIFvRKNS0_11hidl_stringEEEE"
    },
    {
     "mangled_component_name":"_ZN7android8hardware4gnss4V1_025BpHwGnssNavigationMessage12getHashChainENSt3__18functionIFvRKNS0_8hidl_vecINS0_10hidl_arrayIhLm32EJEEEEEEEE"
    },
    {
     "mangled_component_name":"_ZN7android8hardware4gnss4V1_025BpHwGnssNavigationMessage21setHALInstrumentationEv"
    },
    {
     "mangled_component_name":"_ZN7android8hardware4gnss4V1_025BpHwGnssNavigationMessage11linkToDeathERKNS_2spINS0_20hidl_death_recipientEEEm"
    },
    {
     "mangled_component_name":"_ZN7android8hardware4gnss4V1_025BpHwGnssNavigationMessage4pingEv"
    },
    {
     "mangled_component_name":"_ZN7android8hardware4gnss4V1_025BpHwGnssNavigationMessage12getDebugInfoENSt3__18functionIFvRKNS_4hidl4base4V1_09DebugInfoEEEE"
    },
    {
     "mangled_component_name":"_ZN7android8hardware4gnss4V1_025BpHwGnssNavigationMessage21notifySyspropsChangedEv"
    },
    {
     "mangled_component_name":"_ZN7android8hardware4gnss4V1_025BpHwGnssNavigationMessage13unlinkToDeathERKNS_2spINS0_20hidl_death_recipientEEE"
    },
    {
     "kind":"complete_dtor_pointer",
     "mangled_component_name":"_ZN7android8hardware4gnss4V1_025BpHwGnssNavigationMessageD1Ev"
    },
    {
     "kind":"deleting_dtor_pointer",
     "mangled_component_name":"_ZN7android8hardware4gnss4V1_025BpHwGnssNavigationMessageD0Ev"
    },
    {
     "mangled_component_name":"_ZN7android8hardware4gnss4V1_025BpHwGnssNavigationMessage11setCallbackERKNS_2spINS2_30IGnssNavigationMessageCallbackEEE"
    },
    {
     "mangled_component_name":"_ZN7android8hardware4gnss4V1_025BpHwGnssNavigationMessage5closeEv"
    },
    {
     "mangled_component_name":"_ZN7android8hardware11BpInterfaceINS0_4gnss4V1_022IGnssNavigationMessageEE10onAsBinderEv"
    },
    {
     "kind":"vbase_offset",
     "component_value":192
    },
    {
     "kind":"offset_to_top",
     "component_value":-8
    },
    {
     "kind":"rtti",
     "mangled_component_name":"_ZTIN7android8hardware4gnss4V1_025BpHwGnssNavigationMessageE"
    },
    {
     "kind":"complete_dtor_pointer",
     "mangled_component_name":"_ZThn8_N7android8hardware4gnss4V1_025BpHwGnssNavigationMessageD1Ev"
    },
    {
     "kind":"deleting_dtor_pointer",
     "mangled_component_name":"_ZThn8_N7android8hardware4gnss4V1_025BpHwGnssNavigationMessageD0Ev"
    },
    {
     "mangled_component_name":"_ZThn8_N7android8hardware11BpInterfaceINS0_4gnss4V1_022IGnssNavigationMessageEE10onAsBinderEv"
    },
    {
     "kind":"vbase_offset",
     "component_value":184
    },
    {
     "kind":"offset_to_top",
     "component_value":-16
    },
    {
     "kind":"rtti",
     "mangled_component_name":"_ZTIN7android8hardware4gnss4V1_025BpHwGnssNavigationMessageE"
    },
    {
     "kind":"complete_dtor_pointer",
     "mangled_component_name":"_ZThn16_N7android8hardware4gnss4V1_025BpHwGnssNavigationMessageD1Ev"
    },
    {
     "kind":"deleting_dtor_pointer",
     "mangled_component_name":"_ZThn16_N7android8hardware4gnss4V1_025BpHwGnssNavigationMessageD0Ev"
    },
    {
     "mangled_component_name":"_ZN7android8hardware11BpHwRefBase10onFirstRefEv"
    },
    {
     "mangled_component_name":"_ZN7android8hardware11BpHwRefBase15onLastStrongRefEPKv"
    },
    {
     "mangled_component_name":"_ZN7android8hardware11BpHwRefBase20onIncStrongAttemptedEjPKv"
    },
    {
     "kind":"offset_to_top",
     "component_value":-48
    },
    {
     "kind":"rtti",
     "mangled_component_name":"_ZTIN7android8hardware4gnss4V1_025BpHwGnssNavigationMessageE"
    },
    {
     "kind":"complete_dtor_pointer",
     "mangled_component_name":"_ZThn48_N7android8hardware4gnss4V1_025BpHwGnssNavigationMessageD1Ev"
    },
    {
     "kind":"deleting_dtor_pointer",
     "mangled_component_name":"_ZThn48_N7android8hardware4gnss4V1_025BpHwGnssNavigationMessageD0Ev"
    },
    {
     "kind":"vcall_offset"
    },
    {
     "kind":"vcall_offset",
     "component_value":-184
    },
    {
     "kind":"vcall_offset",
     "component_value":-184
    },
    {
     "kind":"vcall_offset",
     "component_value":-184
    },
    {
     "kind":"vcall_offset",
     "component_value":-200
    },
    {
     "kind":"offset_to_top",
     "component_value":-200
    },
    {
     "kind":"rtti",
     "mangled_component_name":"_ZTIN7android8hardware4gnss4V1_025BpHwGnssNavigationMessageE"
    },
    {
     "kind":"complete_dtor_pointer",
     "mangled_component_name":"_ZTv0_n24_N7android8hardware4gnss4V1_025BpHwGnssNavigationMessageD1Ev"
    },
    {
     "kind":"deleting_dtor_pointer",
     "mangled_component_name":"_ZTv0_n24_N7android8hardware4gnss4V1_025BpHwGnssNavigationMessageD0Ev"
    },
    {
     "mangled_component_name":"_ZTv0_n32_N7android8hardware11BpHwRefBase10onFirstRefEv"
    },
    {
     "mangled_component_name":"_ZTv0_n40_N7android8hardware11BpHwRefBase15onLastStrongRefEPKv"
    },
    {
     "mangled_component_name":"_ZTv0_n48_N7android8hardware11BpHwRefBase20onIncStrongAttemptedEjPKv"
    },
    {
     "mangled_component_name":"_ZN7android7RefBase13onLastWeakRefEPKv"
    }
   ],
   "unique_id":"_ZTSN7android8hardware4gnss4V1_025BpHwGnssNavigationMessageE"
  },
  {
   "vtable_components":[
    {
     "kind":"vbase_offset",
     "component_value":136
    },
    {
     "kind":"offset_to_top"
    },
    {
     "kind":"rtti",
     "mangled_component_name":"_ZTIN7android8hardware4gnss4V1_018BnHwGnssNiCallbackE"
    },
    {
     "mangled_component_name":"_ZN7android8hardware9BHwBinder8transactEjRKNS0_6ParcelEPS2_jNSt3__18functionIFvRS2_EEE"
    },
    {
     "mangled_component_name":"_ZN7android8hardware9BHwBinder11linkToDeathERKNS_2spINS0_7IBinder14DeathRecipientEEEPvj"
    },
    {
     "mangled_component_name":"_ZN7android8hardware9BHwBinder13unlinkToDeathERKNS_2wpINS0_7IBinder14DeathRecipientEEEPvjPS5_"
    },
    {
     "mangled_component_name":"_ZNK7android8hardware7IBinder13checkSubclassEPKv"
    },
    {
     "mangled_component_name":"_ZN7android8hardware9BHwBinder12attachObjectEPKvPvS4_PFvS3_S4_S4_E"
    },
    {
     "mangled_component_name":"_ZNK7android8hardware9BHwBinder10findObjectEPKv"
    },
    {
     "mangled_component_name":"_ZN7android8hardware9BHwBinder12detachObjectEPKv"
    },
    {
     "mangled_component_name":"_ZN7android8hardware9BHwBinder11localBinderEv"
    },
    {
     "mangled_component_name":"_ZN7android8hardware7IBinder12remoteBinderEv"
    },
    {
     "kind":"complete_dtor_pointer",
     "mangled_component_name":"_ZN7android8hardware4gnss4V1_018BnHwGnssNiCallbackD1Ev"
    },
    {
     "kind":"deleting_dtor_pointer",
     "mangled_component_name":"_ZN7android8hardware4gnss4V1_018BnHwGnssNiCallbackD0Ev"
    },
    {
     "mangled_component_name":"_ZN7android8hardware4gnss4V1_018BnHwGnssNiCallback10onTransactEjRKNS0_6ParcelEPS4_jNSt3__18functionIFvRS4_EEE"
    },
    {
     "kind":"offset_to_top",
     "component_value":-32
    },
    {
     "kind":"rtti",
     "mangled_component_name":"_ZTIN7android8hardware4gnss4V1_018BnHwGnssNiCallbackE"
    },
    {
     "kind":"complete_dtor_pointer",
     "mangled_component_name":"_ZThn32_N7android8hardware4gnss4V1_018BnHwGnssNiCallbackD1Ev"
    },
    {
     "kind":"deleting_dtor_pointer",
     "mangled_component_name":"_ZThn32_N7android8hardware4gnss4V1_018BnHwGnssNiCallbackD0Ev"
    },
    {
     "kind":"vcall_offset"
    },
    {
     "kind":"vcall_offset"
    },
    {
     "kind":"vcall_offset"
    },
    {
     "kind":"vcall_offset"
    },
    {
     "kind":"vcall_offset",
     "component_value":-136
    },
    {
     "kind":"offset_to_top",
     "component_value":-136
    },
    {
     "kind":"rtti",
     "mangled_component_name":"_ZTIN7android8hardware4gnss4V1_018BnHwGnssNiCallbackE"
    },
    {
     "kind":"complete_dtor_pointer",
     "mangled_component_name":"_ZTv0_n24_N7android8hardware4gnss4V1_018BnHwGnssNiCallbackD1Ev"
    },
    {
     "kind":"deleting_dtor_pointer",
     "mangled_component_name":"_ZTv0_n24_N7android8hardware4gnss4V1_018BnHwGnssNiCallbackD0Ev"
    },
    {
     "mangled_component_name":"_ZN7android7RefBase10onFirstRefEv"
    },
    {
     "mangled_component_name":"_ZN7android7RefBase15onLastStrongRefEPKv"
    },
    {
     "mangled_component_name":"_ZN7android7RefBase20onIncStrongAttemptedEjPKv"
    },
    {
     "mangled_component_name":"_ZN7android7RefBase13onLastWeakRefEPKv"
    }
   ],
   "unique_id":"_ZTSN7android8hardware4gnss4V1_018BnHwGnssNiCallbackE"
  },
  {
   "vtable_components":[
    {
     "kind":"vbase_offset",
     "component_value":200
    },
    {
     "kind":"offset_to_top"
    },
    {
     "kind":"rtti",
     "mangled_component_name":"_ZTIN7android8hardware4gnss4V1_018BpHwGnssNiCallbackE"
    },
    {
     "mangled_component_name":"_ZNK7android8hardware4gnss4V1_018BpHwGnssNiCallback8isRemoteEv"
    },
    {
     "mangled_component_name":"_ZN7android8hardware4gnss4V1_018BpHwGnssNiCallback14interfaceChainENSt3__18functionIFvRKNS0_8hidl_vecINS0_11hidl_stringEEEEEE"
    },
    {
     "mangled_component_name":"_ZN7android8hardware4gnss4V1_018BpHwGnssNiCallback5debugERKNS0_11hidl_handleERKNS0_8hidl_vecINS0_11hidl_stringEEE"
    },
    {
     "mangled_component_name":"_ZN7android8hardware4gnss4V1_018BpHwGnssNiCallback19interfaceDescriptorENSt3__18functionIFvRKNS0_11hidl_stringEEEE"
    },
    {
     "mangled_component_name":"_ZN7android8hardware4gnss4V1_018BpHwGnssNiCallback12getHashChainENSt3__18functionIFvRKNS0_8hidl_vecINS0_10hidl_arrayIhLm32EJEEEEEEEE"
    },
    {
     "mangled_component_name":"_ZN7android8hardware4gnss4V1_018BpHwGnssNiCallback21setHALInstrumentationEv"
    },
    {
     "mangled_component_name":"_ZN7android8hardware4gnss4V1_018BpHwGnssNiCallback11linkToDeathERKNS_2spINS0_20hidl_death_recipientEEEm"
    },
    {
     "mangled_component_name":"_ZN7android8hardware4gnss4V1_018BpHwGnssNiCallback4pingEv"
    },
    {
     "mangled_component_name":"_ZN7android8hardware4gnss4V1_018BpHwGnssNiCallback12getDebugInfoENSt3__18functionIFvRKNS_4hidl4base4V1_09DebugInfoEEEE"
    },
    {
     "mangled_component_name":"_ZN7android8hardware4gnss4V1_018BpHwGnssNiCallback21notifySyspropsChangedEv"
    },
    {
     "mangled_component_name":"_ZN7android8hardware4gnss4V1_018BpHwGnssNiCallback13unlinkToDeathERKNS_2spINS0_20hidl_death_recipientEEE"
    },
    {
     "kind":"complete_dtor_pointer",
     "mangled_component_name":"_ZN7android8hardware4gnss4V1_018BpHwGnssNiCallbackD1Ev"
    },
    {
     "kind":"deleting_dtor_pointer",
     "mangled_component_name":"_ZN7android8hardware4gnss4V1_018BpHwGnssNiCallbackD0Ev"
    },
    {
     "mangled_component_name":"_ZN7android8hardware4gnss4V1_018BpHwGnssNiCallback10niNotifyCbERKNS2_15IGnssNiCallback18GnssNiNotificationE"
    },
    {
     "mangled_component_name":"_ZN7android8hardware11BpInterfaceINS0_4gnss4V1_015IGnssNiCallbackEE10onAsBinderEv"
    },
    {
     "kind":"vbase_offset",
     "component_value":192
    },
    {
     "kind":"offset_to_top",
     "component_value":-8
    },
    {
     "kind":"rtti",
     "mangled_component_name":"_ZTIN7android8hardware4gnss4V1_018BpHwGnssNiCallbackE"
    },
    {
     "kind":"complete_dtor_pointer",
     "mangled_component_name":"_ZThn8_N7android8hardware4gnss4V1_018BpHwGnssNiCallbackD1Ev"
    },
    {
     "kind":"deleting_dtor_pointer",
     "mangled_component_name":"_ZThn8_N7android8hardware4gnss4V1_018BpHwGnssNiCallbackD0Ev"
    },
    {
     "mangled_component_name":"_ZThn8_N7android8hardware11BpInterfaceINS0_4gnss4V1_015IGnssNiCallbackEE10onAsBinderEv"
    },
    {
     "kind":"vbase_offset",
     "component_value":184
    },
    {
     "kind":"offset_to_top",
     "component_value":-16
    },
    {
     "kind":"rtti",
     "mangled_component_name":"_ZTIN7android8hardware4gnss4V1_018BpHwGnssNiCallbackE"
    },
    {
     "kind":"complete_dtor_pointer",
     "mangled_component_name":"_ZThn16_N7android8hardware4gnss4V1_018BpHwGnssNiCallbackD1Ev"
    },
    {
     "kind":"deleting_dtor_pointer",
     "mangled_component_name":"_ZThn16_N7android8hardware4gnss4V1_018BpHwGnssNiCallbackD0Ev"
    },
    {
     "mangled_component_name":"_ZN7android8hardware11BpHwRefBase10onFirstRefEv"
    },
    {
     "mangled_component_name":"_ZN7android8hardware11BpHwRefBase15onLastStrongRefEPKv"
    },
    {
     "mangled_component_name":"_ZN7android8hardware11BpHwRefBase20onIncStrongAttemptedEjPKv"
    },
    {
     "kind":"offset_to_top",
     "component_value":-48
    },
    {
     "kind":"rtti",
     "mangled_component_name":"_ZTIN7android8hardware4gnss4V1_018BpHwGnssNiCallbackE"
    },
    {
     "kind":"complete_dtor_pointer",
     "mangled_component_name":"_ZThn48_N7android8hardware4gnss4V1_018BpHwGnssNiCallbackD1Ev"
    },
    {
     "kind":"deleting_dtor_pointer",
     "mangled_component_name":"_ZThn48_N7android8hardware4gnss4V1_018BpHwGnssNiCallbackD0Ev"
    },
    {
     "kind":"vcall_offset"
    },
    {
     "kind":"vcall_offset",
     "component_value":-184
    },
    {
     "kind":"vcall_offset",
     "component_value":-184
    },
    {
     "kind":"vcall_offset",
     "component_value":-184
    },
    {
     "kind":"vcall_offset",
     "component_value":-200
    },
    {
     "kind":"offset_to_top",
     "component_value":-200
    },
    {
     "kind":"rtti",
     "mangled_component_name":"_ZTIN7android8hardware4gnss4V1_018BpHwGnssNiCallbackE"
    },
    {
     "kind":"complete_dtor_pointer",
     "mangled_component_name":"_ZTv0_n24_N7android8hardware4gnss4V1_018BpHwGnssNiCallbackD1Ev"
    },
    {
     "kind":"deleting_dtor_pointer",
     "mangled_component_name":"_ZTv0_n24_N7android8hardware4gnss4V1_018BpHwGnssNiCallbackD0Ev"
    },
    {
     "mangled_component_name":"_ZTv0_n32_N7android8hardware11BpHwRefBase10onFirstRefEv"
    },
    {
     "mangled_component_name":"_ZTv0_n40_N7android8hardware11BpHwRefBase15onLastStrongRefEPKv"
    },
    {
     "mangled_component_name":"_ZTv0_n48_N7android8hardware11BpHwRefBase20onIncStrongAttemptedEjPKv"
    },
    {
     "mangled_component_name":"_ZN7android7RefBase13onLastWeakRefEPKv"
    }
   ],
   "unique_id":"_ZTSN7android8hardware4gnss4V1_018BpHwGnssNiCallbackE"
  },
  {
   "vtable_components":[
    {
     "kind":"vbase_offset",
     "component_value":136
    },
    {
     "kind":"offset_to_top"
    },
    {
     "kind":"rtti",
     "mangled_component_name":"_ZTIN7android8hardware4gnss4V1_010BnHwGnssNiE"
    },
    {
     "mangled_component_name":"_ZN7android8hardware9BHwBinder8transactEjRKNS0_6ParcelEPS2_jNSt3__18functionIFvRS2_EEE"
    },
    {
     "mangled_component_name":"_ZN7android8hardware9BHwBinder11linkToDeathERKNS_2spINS0_7IBinder14DeathRecipientEEEPvj"
    },
    {
     "mangled_component_name":"_ZN7android8hardware9BHwBinder13unlinkToDeathERKNS_2wpINS0_7IBinder14DeathRecipientEEEPvjPS5_"
    },
    {
     "mangled_component_name":"_ZNK7android8hardware7IBinder13checkSubclassEPKv"
    },
    {
     "mangled_component_name":"_ZN7android8hardware9BHwBinder12attachObjectEPKvPvS4_PFvS3_S4_S4_E"
    },
    {
     "mangled_component_name":"_ZNK7android8hardware9BHwBinder10findObjectEPKv"
    },
    {
     "mangled_component_name":"_ZN7android8hardware9BHwBinder12detachObjectEPKv"
    },
    {
     "mangled_component_name":"_ZN7android8hardware9BHwBinder11localBinderEv"
    },
    {
     "mangled_component_name":"_ZN7android8hardware7IBinder12remoteBinderEv"
    },
    {
     "kind":"complete_dtor_pointer",
     "mangled_component_name":"_ZN7android8hardware4gnss4V1_010BnHwGnssNiD1Ev"
    },
    {
     "kind":"deleting_dtor_pointer",
     "mangled_component_name":"_ZN7android8hardware4gnss4V1_010BnHwGnssNiD0Ev"
    },
    {
     "mangled_component_name":"_ZN7android8hardware4gnss4V1_010BnHwGnssNi10onTransactEjRKNS0_6ParcelEPS4_jNSt3__18functionIFvRS4_EEE"
    },
    {
     "kind":"offset_to_top",
     "component_value":-32
    },
    {
     "kind":"rtti",
     "mangled_component_name":"_ZTIN7android8hardware4gnss4V1_010BnHwGnssNiE"
    },
    {
     "kind":"complete_dtor_pointer",
     "mangled_component_name":"_ZThn32_N7android8hardware4gnss4V1_010BnHwGnssNiD1Ev"
    },
    {
     "kind":"deleting_dtor_pointer",
     "mangled_component_name":"_ZThn32_N7android8hardware4gnss4V1_010BnHwGnssNiD0Ev"
    },
    {
     "kind":"vcall_offset"
    },
    {
     "kind":"vcall_offset"
    },
    {
     "kind":"vcall_offset"
    },
    {
     "kind":"vcall_offset"
    },
    {
     "kind":"vcall_offset",
     "component_value":-136
    },
    {
     "kind":"offset_to_top",
     "component_value":-136
    },
    {
     "kind":"rtti",
     "mangled_component_name":"_ZTIN7android8hardware4gnss4V1_010BnHwGnssNiE"
    },
    {
     "kind":"complete_dtor_pointer",
     "mangled_component_name":"_ZTv0_n24_N7android8hardware4gnss4V1_010BnHwGnssNiD1Ev"
    },
    {
     "kind":"deleting_dtor_pointer",
     "mangled_component_name":"_ZTv0_n24_N7android8hardware4gnss4V1_010BnHwGnssNiD0Ev"
    },
    {
     "mangled_component_name":"_ZN7android7RefBase10onFirstRefEv"
    },
    {
     "mangled_component_name":"_ZN7android7RefBase15onLastStrongRefEPKv"
    },
    {
     "mangled_component_name":"_ZN7android7RefBase20onIncStrongAttemptedEjPKv"
    },
    {
     "mangled_component_name":"_ZN7android7RefBase13onLastWeakRefEPKv"
    }
   ],
   "unique_id":"_ZTSN7android8hardware4gnss4V1_010BnHwGnssNiE"
  },
  {
   "vtable_components":[
    {
     "kind":"vbase_offset",
     "component_value":120
    },
    {
     "kind":"offset_to_top"
    },
    {
     "kind":"rtti",
     "mangled_component_name":"_ZTIN7android8hardware4gnss4V1_010BsAGnssRilE"
    },
    {
     "mangled_component_name":"_ZNK7android8hardware4gnss4V1_09IAGnssRil8isRemoteEv"
    },
    {
     "mangled_component_name":"_ZN7android8hardware4gnss4V1_010BsAGnssRil14interfaceChainENSt3__18functionIFvRKNS0_8hidl_vecINS0_11hidl_stringEEEEEE"
    },
    {
     "mangled_component_name":"_ZN7android8hardware4gnss4V1_010BsAGnssRil5debugERKNS0_11hidl_handleERKNS0_8hidl_vecINS0_11hidl_stringEEE"
    },
    {
     "mangled_component_name":"_ZN7android8hardware4gnss4V1_010BsAGnssRil19interfaceDescriptorENSt3__18functionIFvRKNS0_11hidl_stringEEEE"
    },
    {
     "mangled_component_name":"_ZN7android8hardware4gnss4V1_010BsAGnssRil12getHashChainENSt3__18functionIFvRKNS0_8hidl_vecINS0_10hidl_arrayIhLm32EJEEEEEEEE"
    },
    {
     "mangled_component_name":"_ZN7android8hardware4gnss4V1_010BsAGnssRil21setHALInstrumentationEv"
    },
    {
     "mangled_component_name":"_ZN7android8hardware4gnss4V1_010BsAGnssRil11linkToDeathERKNS_2spINS0_20hidl_death_recipientEEEm"
    },
    {
     "mangled_component_name":"_ZN7android8hardware4gnss4V1_010BsAGnssRil4pingEv"
    },
    {
     "mangled_component_name":"_ZN7android8hardware4gnss4V1_010BsAGnssRil12getDebugInfoENSt3__18functionIFvRKNS_4hidl4base4V1_09DebugInfoEEEE"
    },
    {
     "mangled_component_name":"_ZN7android8hardware4gnss4V1_010BsAGnssRil21notifySyspropsChangedEv"
    },
    {
     "mangled_component_name":"_ZN7android8hardware4gnss4V1_010BsAGnssRil13unlinkToDeathERKNS_2spINS0_20hidl_death_recipientEEE"
    },
    {
     "kind":"complete_dtor_pointer",
     "mangled_component_name":"_ZN7android8hardware4gnss4V1_010BsAGnssRilD1Ev"
    },
    {
     "kind":"deleting_dtor_pointer",
     "mangled_component_name":"_ZN7android8hardware4gnss4V1_010BsAGnssRilD0Ev"
    },
    {
     "mangled_component_name":"_ZN7android8hardware4gnss4V1_010BsAGnssRil11setCallbackERKNS_2spINS2_17IAGnssRilCallbackEEE"
    },
    {
     "mangled_component_name":"_ZN7android8hardware4gnss4V1_010BsAGnssRil14setRefLocationERKNS2_9IAGnssRil16AGnssRefLocationE"
    },
    {
     "mangled_component_name":"_ZN7android8hardware4gnss4V1_010BsAGnssRil8setSetIdENS2_9IAGnssRil9SetIDTypeERKNS0_11hidl_stringE"
    },
    {
     "mangled_component_name":"_ZN7android8hardware4gnss4V1_010BsAGnssRil18updateNetworkStateEbNS2_9IAGnssRil11NetworkTypeEb"
    },
    {
     "mangled_component_name":"_ZN7android8hardware4gnss4V1_010BsAGnssRil25updateNetworkAvailabilityEbRKNS0_11hidl_stringE"
    },
    {
     "kind":"offset_to_top",
     "component_value":-8
    },
    {
     "kind":"rtti",
     "mangled_component_name":"_ZTIN7android8hardware4gnss4V1_010BsAGnssRilE"
    },
    {
     "kind":"complete_dtor_pointer",
     "mangled_component_name":"_ZThn8_N7android8hardware4gnss4V1_010BsAGnssRilD1Ev"
    },
    {
     "kind":"deleting_dtor_pointer",
     "mangled_component_name":"_ZThn8_N7android8hardware4gnss4V1_010BsAGnssRilD0Ev"
    },
    {
     "kind":"vcall_offset"
    },
    {
     "kind":"vcall_offset"
    },
    {
     "kind":"vcall_offset"
    },
    {
     "kind":"vcall_offset"
    },
    {
     "kind":"vcall_offset",
     "component_value":-120
    },
    {
     "kind":"offset_to_top",
     "component_value":-120
    },
    {
     "kind":"rtti",
     "mangled_component_name":"_ZTIN7android8hardware4gnss4V1_010BsAGnssRilE"
    },
    {
     "kind":"complete_dtor_pointer",
     "mangled_component_name":"_ZTv0_n24_N7android8hardware4gnss4V1_010BsAGnssRilD1Ev"
    },
    {
     "kind":"deleting_dtor_pointer",
     "mangled_component_name":"_ZTv0_n24_N7android8hardware4gnss4V1_010BsAGnssRilD0Ev"
    },
    {
     "mangled_component_name":"_ZN7android7RefBase10onFirstRefEv"
    },
    {
     "mangled_component_name":"_ZN7android7RefBase15onLastStrongRefEPKv"
    },
    {
     "mangled_component_name":"_ZN7android7RefBase20onIncStrongAttemptedEjPKv"
    },
    {
     "mangled_component_name":"_ZN7android7RefBase13onLastWeakRefEPKv"
    }
   ],
   "unique_id":"_ZTSN7android8hardware4gnss4V1_010BsAGnssRilE"
  },
  {
   "vtable_components":[
    {
     "kind":"vbase_offset",
     "component_value":8
    },
    {
     "kind":"offset_to_top"
    },
    {
     "kind":"rtti",
     "mangled_component_name":"_ZTIN7android8hardware4gnss4V1_07IGnssNiE"
    },
    {
     "mangled_component_name":"_ZNK7android8hardware4gnss4V1_07IGnssNi8isRemoteEv"
    },
    {
     "mangled_component_name":"_ZN7android8hardware4gnss4V1_07IGnssNi14interfaceChainENSt3__18functionIFvRKNS0_8hidl_vecINS0_11hidl_stringEEEEEE"
    },
    {
     "mangled_component_name":"_ZN7android8hardware4gnss4V1_07IGnssNi5debugERKNS0_11hidl_handleERKNS0_8hidl_vecINS0_11hidl_stringEEE"
    },
    {
     "mangled_component_name":"_ZN7android8hardware4gnss4V1_07IGnssNi19interfaceDescriptorENSt3__18functionIFvRKNS0_11hidl_stringEEEE"
    },
    {
     "mangled_component_name":"_ZN7android8hardware4gnss4V1_07IGnssNi12getHashChainENSt3__18functionIFvRKNS0_8hidl_vecINS0_10hidl_arrayIhLm32EJEEEEEEEE"
    },
    {
     "mangled_component_name":"_ZN7android8hardware4gnss4V1_07IGnssNi21setHALInstrumentationEv"
    },
    {
     "mangled_component_name":"_ZN7android8hardware4gnss4V1_07IGnssNi11linkToDeathERKNS_2spINS0_20hidl_death_recipientEEEm"
    },
    {
     "mangled_component_name":"_ZN7android8hardware4gnss4V1_07IGnssNi4pingEv"
    },
    {
     "mangled_component_name":"_ZN7android8hardware4gnss4V1_07IGnssNi12getDebugInfoENSt3__18functionIFvRKNS_4hidl4base4V1_09DebugInfoEEEE"
    },
    {
     "mangled_component_name":"_ZN7android8hardware4gnss4V1_07IGnssNi21notifySyspropsChangedEv"
    },
    {
     "mangled_component_name":"_ZN7android8hardware4gnss4V1_07IGnssNi13unlinkToDeathERKNS_2spINS0_20hidl_death_recipientEEE"
    },
    {
     "kind":"complete_dtor_pointer",
     "mangled_component_name":"_ZN7android8hardware4gnss4V1_07IGnssNiD1Ev"
    },
    {
     "kind":"deleting_dtor_pointer",
     "mangled_component_name":"_ZN7android8hardware4gnss4V1_07IGnssNiD0Ev"
    },
    {
     "is_pure":true,
     "mangled_component_name":"_ZN7android8hardware4gnss4V1_07IGnssNi11setCallbackERKNS_2spINS2_15IGnssNiCallbackEEE"
    },
    {
     "is_pure":true,
     "mangled_component_name":"_ZN7android8hardware4gnss4V1_07IGnssNi7respondEiNS2_15IGnssNiCallback20GnssUserResponseTypeE"
    },
    {
     "kind":"vcall_offset"
    },
    {
     "kind":"vcall_offset"
    },
    {
     "kind":"vcall_offset"
    },
    {
     "kind":"vcall_offset"
    },
    {
     "kind":"vcall_offset",
     "component_value":-8
    },
    {
     "kind":"offset_to_top",
     "component_value":-8
    },
    {
     "kind":"rtti",
     "mangled_component_name":"_ZTIN7android8hardware4gnss4V1_07IGnssNiE"
    },
    {
     "kind":"complete_dtor_pointer",
     "mangled_component_name":"_ZTv0_n24_N7android8hardware4gnss4V1_07IGnssNiD1Ev"
    },
    {
     "kind":"deleting_dtor_pointer",
     "mangled_component_name":"_ZTv0_n24_N7android8hardware4gnss4V1_07IGnssNiD0Ev"
    },
    {
     "mangled_component_name":"_ZN7android7RefBase10onFirstRefEv"
    },
    {
     "mangled_component_name":"_ZN7android7RefBase15onLastStrongRefEPKv"
    },
    {
     "mangled_component_name":"_ZN7android7RefBase20onIncStrongAttemptedEjPKv"
    },
    {
     "mangled_component_name":"_ZN7android7RefBase13onLastWeakRefEPKv"
    }
   ],
   "unique_id":"_ZTSN7android8hardware4gnss4V1_07IGnssNiE"
  },
  {
   "vtable_components":[
    {
     "kind":"vbase_offset",
     "component_value":200
    },
    {
     "kind":"offset_to_top"
    },
    {
     "kind":"rtti",
     "mangled_component_name":"_ZTIN7android8hardware4gnss4V1_010BpHwGnssNiE"
    },
    {
     "mangled_component_name":"_ZNK7android8hardware4gnss4V1_010BpHwGnssNi8isRemoteEv"
    },
    {
     "mangled_component_name":"_ZN7android8hardware4gnss4V1_010BpHwGnssNi14interfaceChainENSt3__18functionIFvRKNS0_8hidl_vecINS0_11hidl_stringEEEEEE"
    },
    {
     "mangled_component_name":"_ZN7android8hardware4gnss4V1_010BpHwGnssNi5debugERKNS0_11hidl_handleERKNS0_8hidl_vecINS0_11hidl_stringEEE"
    },
    {
     "mangled_component_name":"_ZN7android8hardware4gnss4V1_010BpHwGnssNi19interfaceDescriptorENSt3__18functionIFvRKNS0_11hidl_stringEEEE"
    },
    {
     "mangled_component_name":"_ZN7android8hardware4gnss4V1_010BpHwGnssNi12getHashChainENSt3__18functionIFvRKNS0_8hidl_vecINS0_10hidl_arrayIhLm32EJEEEEEEEE"
    },
    {
     "mangled_component_name":"_ZN7android8hardware4gnss4V1_010BpHwGnssNi21setHALInstrumentationEv"
    },
    {
     "mangled_component_name":"_ZN7android8hardware4gnss4V1_010BpHwGnssNi11linkToDeathERKNS_2spINS0_20hidl_death_recipientEEEm"
    },
    {
     "mangled_component_name":"_ZN7android8hardware4gnss4V1_010BpHwGnssNi4pingEv"
    },
    {
     "mangled_component_name":"_ZN7android8hardware4gnss4V1_010BpHwGnssNi12getDebugInfoENSt3__18functionIFvRKNS_4hidl4base4V1_09DebugInfoEEEE"
    },
    {
     "mangled_component_name":"_ZN7android8hardware4gnss4V1_010BpHwGnssNi21notifySyspropsChangedEv"
    },
    {
     "mangled_component_name":"_ZN7android8hardware4gnss4V1_010BpHwGnssNi13unlinkToDeathERKNS_2spINS0_20hidl_death_recipientEEE"
    },
    {
     "kind":"complete_dtor_pointer",
     "mangled_component_name":"_ZN7android8hardware4gnss4V1_010BpHwGnssNiD1Ev"
    },
    {
     "kind":"deleting_dtor_pointer",
     "mangled_component_name":"_ZN7android8hardware4gnss4V1_010BpHwGnssNiD0Ev"
    },
    {
     "mangled_component_name":"_ZN7android8hardware4gnss4V1_010BpHwGnssNi11setCallbackERKNS_2spINS2_15IGnssNiCallbackEEE"
    },
    {
     "mangled_component_name":"_ZN7android8hardware4gnss4V1_010BpHwGnssNi7respondEiNS2_15IGnssNiCallback20GnssUserResponseTypeE"
    },
    {
     "mangled_component_name":"_ZN7android8hardware11BpInterfaceINS0_4gnss4V1_07IGnssNiEE10onAsBinderEv"
    },
    {
     "kind":"vbase_offset",
     "component_value":192
    },
    {
     "kind":"offset_to_top",
     "component_value":-8
    },
    {
     "kind":"rtti",
     "mangled_component_name":"_ZTIN7android8hardware4gnss4V1_010BpHwGnssNiE"
    },
    {
     "kind":"complete_dtor_pointer",
     "mangled_component_name":"_ZThn8_N7android8hardware4gnss4V1_010BpHwGnssNiD1Ev"
    },
    {
     "kind":"deleting_dtor_pointer",
     "mangled_component_name":"_ZThn8_N7android8hardware4gnss4V1_010BpHwGnssNiD0Ev"
    },
    {
     "mangled_component_name":"_ZThn8_N7android8hardware11BpInterfaceINS0_4gnss4V1_07IGnssNiEE10onAsBinderEv"
    },
    {
     "kind":"vbase_offset",
     "component_value":184
    },
    {
     "kind":"offset_to_top",
     "component_value":-16
    },
    {
     "kind":"rtti",
     "mangled_component_name":"_ZTIN7android8hardware4gnss4V1_010BpHwGnssNiE"
    },
    {
     "kind":"complete_dtor_pointer",
     "mangled_component_name":"_ZThn16_N7android8hardware4gnss4V1_010BpHwGnssNiD1Ev"
    },
    {
     "kind":"deleting_dtor_pointer",
     "mangled_component_name":"_ZThn16_N7android8hardware4gnss4V1_010BpHwGnssNiD0Ev"
    },
    {
     "mangled_component_name":"_ZN7android8hardware11BpHwRefBase10onFirstRefEv"
    },
    {
     "mangled_component_name":"_ZN7android8hardware11BpHwRefBase15onLastStrongRefEPKv"
    },
    {
     "mangled_component_name":"_ZN7android8hardware11BpHwRefBase20onIncStrongAttemptedEjPKv"
    },
    {
     "kind":"offset_to_top",
     "component_value":-48
    },
    {
     "kind":"rtti",
     "mangled_component_name":"_ZTIN7android8hardware4gnss4V1_010BpHwGnssNiE"
    },
    {
     "kind":"complete_dtor_pointer",
     "mangled_component_name":"_ZThn48_N7android8hardware4gnss4V1_010BpHwGnssNiD1Ev"
    },
    {
     "kind":"deleting_dtor_pointer",
     "mangled_component_name":"_ZThn48_N7android8hardware4gnss4V1_010BpHwGnssNiD0Ev"
    },
    {
     "kind":"vcall_offset"
    },
    {
     "kind":"vcall_offset",
     "component_value":-184
    },
    {
     "kind":"vcall_offset",
     "component_value":-184
    },
    {
     "kind":"vcall_offset",
     "component_value":-184
    },
    {
     "kind":"vcall_offset",
     "component_value":-200
    },
    {
     "kind":"offset_to_top",
     "component_value":-200
    },
    {
     "kind":"rtti",
     "mangled_component_name":"_ZTIN7android8hardware4gnss4V1_010BpHwGnssNiE"
    },
    {
     "kind":"complete_dtor_pointer",
     "mangled_component_name":"_ZTv0_n24_N7android8hardware4gnss4V1_010BpHwGnssNiD1Ev"
    },
    {
     "kind":"deleting_dtor_pointer",
     "mangled_component_name":"_ZTv0_n24_N7android8hardware4gnss4V1_010BpHwGnssNiD0Ev"
    },
    {
     "mangled_component_name":"_ZTv0_n32_N7android8hardware11BpHwRefBase10onFirstRefEv"
    },
    {
     "mangled_component_name":"_ZTv0_n40_N7android8hardware11BpHwRefBase15onLastStrongRefEPKv"
    },
    {
     "mangled_component_name":"_ZTv0_n48_N7android8hardware11BpHwRefBase20onIncStrongAttemptedEjPKv"
    },
    {
     "mangled_component_name":"_ZN7android7RefBase13onLastWeakRefEPKv"
    }
   ],
   "unique_id":"_ZTSN7android8hardware4gnss4V1_010BpHwGnssNiE"
  },
  {
   "vtable_components":[
    {
     "kind":"vbase_offset",
     "component_value":136
    },
    {
     "kind":"offset_to_top"
    },
    {
     "kind":"rtti",
     "mangled_component_name":"_ZTIN7android8hardware4gnss4V1_020BnHwGnssXtraCallbackE"
    },
    {
     "mangled_component_name":"_ZN7android8hardware9BHwBinder8transactEjRKNS0_6ParcelEPS2_jNSt3__18functionIFvRS2_EEE"
    },
    {
     "mangled_component_name":"_ZN7android8hardware9BHwBinder11linkToDeathERKNS_2spINS0_7IBinder14DeathRecipientEEEPvj"
    },
    {
     "mangled_component_name":"_ZN7android8hardware9BHwBinder13unlinkToDeathERKNS_2wpINS0_7IBinder14DeathRecipientEEEPvjPS5_"
    },
    {
     "mangled_component_name":"_ZNK7android8hardware7IBinder13checkSubclassEPKv"
    },
    {
     "mangled_component_name":"_ZN7android8hardware9BHwBinder12attachObjectEPKvPvS4_PFvS3_S4_S4_E"
    },
    {
     "mangled_component_name":"_ZNK7android8hardware9BHwBinder10findObjectEPKv"
    },
    {
     "mangled_component_name":"_ZN7android8hardware9BHwBinder12detachObjectEPKv"
    },
    {
     "mangled_component_name":"_ZN7android8hardware9BHwBinder11localBinderEv"
    },
    {
     "mangled_component_name":"_ZN7android8hardware7IBinder12remoteBinderEv"
    },
    {
     "kind":"complete_dtor_pointer",
     "mangled_component_name":"_ZN7android8hardware4gnss4V1_020BnHwGnssXtraCallbackD1Ev"
    },
    {
     "kind":"deleting_dtor_pointer",
     "mangled_component_name":"_ZN7android8hardware4gnss4V1_020BnHwGnssXtraCallbackD0Ev"
    },
    {
     "mangled_component_name":"_ZN7android8hardware4gnss4V1_020BnHwGnssXtraCallback10onTransactEjRKNS0_6ParcelEPS4_jNSt3__18functionIFvRS4_EEE"
    },
    {
     "kind":"offset_to_top",
     "component_value":-32
    },
    {
     "kind":"rtti",
     "mangled_component_name":"_ZTIN7android8hardware4gnss4V1_020BnHwGnssXtraCallbackE"
    },
    {
     "kind":"complete_dtor_pointer",
     "mangled_component_name":"_ZThn32_N7android8hardware4gnss4V1_020BnHwGnssXtraCallbackD1Ev"
    },
    {
     "kind":"deleting_dtor_pointer",
     "mangled_component_name":"_ZThn32_N7android8hardware4gnss4V1_020BnHwGnssXtraCallbackD0Ev"
    },
    {
     "kind":"vcall_offset"
    },
    {
     "kind":"vcall_offset"
    },
    {
     "kind":"vcall_offset"
    },
    {
     "kind":"vcall_offset"
    },
    {
     "kind":"vcall_offset",
     "component_value":-136
    },
    {
     "kind":"offset_to_top",
     "component_value":-136
    },
    {
     "kind":"rtti",
     "mangled_component_name":"_ZTIN7android8hardware4gnss4V1_020BnHwGnssXtraCallbackE"
    },
    {
     "kind":"complete_dtor_pointer",
     "mangled_component_name":"_ZTv0_n24_N7android8hardware4gnss4V1_020BnHwGnssXtraCallbackD1Ev"
    },
    {
     "kind":"deleting_dtor_pointer",
     "mangled_component_name":"_ZTv0_n24_N7android8hardware4gnss4V1_020BnHwGnssXtraCallbackD0Ev"
    },
    {
     "mangled_component_name":"_ZN7android7RefBase10onFirstRefEv"
    },
    {
     "mangled_component_name":"_ZN7android7RefBase15onLastStrongRefEPKv"
    },
    {
     "mangled_component_name":"_ZN7android7RefBase20onIncStrongAttemptedEjPKv"
    },
    {
     "mangled_component_name":"_ZN7android7RefBase13onLastWeakRefEPKv"
    }
   ],
   "unique_id":"_ZTSN7android8hardware4gnss4V1_020BnHwGnssXtraCallbackE"
  },
  {
   "vtable_components":[
    {
     "kind":"vbase_offset",
     "component_value":200
    },
    {
     "kind":"offset_to_top"
    },
    {
     "kind":"rtti",
     "mangled_component_name":"_ZTIN7android8hardware4gnss4V1_020BpHwGnssXtraCallbackE"
    },
    {
     "mangled_component_name":"_ZNK7android8hardware4gnss4V1_020BpHwGnssXtraCallback8isRemoteEv"
    },
    {
     "mangled_component_name":"_ZN7android8hardware4gnss4V1_020BpHwGnssXtraCallback14interfaceChainENSt3__18functionIFvRKNS0_8hidl_vecINS0_11hidl_stringEEEEEE"
    },
    {
     "mangled_component_name":"_ZN7android8hardware4gnss4V1_020BpHwGnssXtraCallback5debugERKNS0_11hidl_handleERKNS0_8hidl_vecINS0_11hidl_stringEEE"
    },
    {
     "mangled_component_name":"_ZN7android8hardware4gnss4V1_020BpHwGnssXtraCallback19interfaceDescriptorENSt3__18functionIFvRKNS0_11hidl_stringEEEE"
    },
    {
     "mangled_component_name":"_ZN7android8hardware4gnss4V1_020BpHwGnssXtraCallback12getHashChainENSt3__18functionIFvRKNS0_8hidl_vecINS0_10hidl_arrayIhLm32EJEEEEEEEE"
    },
    {
     "mangled_component_name":"_ZN7android8hardware4gnss4V1_020BpHwGnssXtraCallback21setHALInstrumentationEv"
    },
    {
     "mangled_component_name":"_ZN7android8hardware4gnss4V1_020BpHwGnssXtraCallback11linkToDeathERKNS_2spINS0_20hidl_death_recipientEEEm"
    },
    {
     "mangled_component_name":"_ZN7android8hardware4gnss4V1_020BpHwGnssXtraCallback4pingEv"
    },
    {
     "mangled_component_name":"_ZN7android8hardware4gnss4V1_020BpHwGnssXtraCallback12getDebugInfoENSt3__18functionIFvRKNS_4hidl4base4V1_09DebugInfoEEEE"
    },
    {
     "mangled_component_name":"_ZN7android8hardware4gnss4V1_020BpHwGnssXtraCallback21notifySyspropsChangedEv"
    },
    {
     "mangled_component_name":"_ZN7android8hardware4gnss4V1_020BpHwGnssXtraCallback13unlinkToDeathERKNS_2spINS0_20hidl_death_recipientEEE"
    },
    {
     "kind":"complete_dtor_pointer",
     "mangled_component_name":"_ZN7android8hardware4gnss4V1_020BpHwGnssXtraCallbackD1Ev"
    },
    {
     "kind":"deleting_dtor_pointer",
     "mangled_component_name":"_ZN7android8hardware4gnss4V1_020BpHwGnssXtraCallbackD0Ev"
    },
    {
     "mangled_component_name":"_ZN7android8hardware4gnss4V1_020BpHwGnssXtraCallback17downloadRequestCbEv"
    },
    {
     "mangled_component_name":"_ZN7android8hardware11BpInterfaceINS0_4gnss4V1_017IGnssXtraCallbackEE10onAsBinderEv"
    },
    {
     "kind":"vbase_offset",
     "component_value":192
    },
    {
     "kind":"offset_to_top",
     "component_value":-8
    },
    {
     "kind":"rtti",
     "mangled_component_name":"_ZTIN7android8hardware4gnss4V1_020BpHwGnssXtraCallbackE"
    },
    {
     "kind":"complete_dtor_pointer",
     "mangled_component_name":"_ZThn8_N7android8hardware4gnss4V1_020BpHwGnssXtraCallbackD1Ev"
    },
    {
     "kind":"deleting_dtor_pointer",
     "mangled_component_name":"_ZThn8_N7android8hardware4gnss4V1_020BpHwGnssXtraCallbackD0Ev"
    },
    {
     "mangled_component_name":"_ZThn8_N7android8hardware11BpInterfaceINS0_4gnss4V1_017IGnssXtraCallbackEE10onAsBinderEv"
    },
    {
     "kind":"vbase_offset",
     "component_value":184
    },
    {
     "kind":"offset_to_top",
     "component_value":-16
    },
    {
     "kind":"rtti",
     "mangled_component_name":"_ZTIN7android8hardware4gnss4V1_020BpHwGnssXtraCallbackE"
    },
    {
     "kind":"complete_dtor_pointer",
     "mangled_component_name":"_ZThn16_N7android8hardware4gnss4V1_020BpHwGnssXtraCallbackD1Ev"
    },
    {
     "kind":"deleting_dtor_pointer",
     "mangled_component_name":"_ZThn16_N7android8hardware4gnss4V1_020BpHwGnssXtraCallbackD0Ev"
    },
    {
     "mangled_component_name":"_ZN7android8hardware11BpHwRefBase10onFirstRefEv"
    },
    {
     "mangled_component_name":"_ZN7android8hardware11BpHwRefBase15onLastStrongRefEPKv"
    },
    {
     "mangled_component_name":"_ZN7android8hardware11BpHwRefBase20onIncStrongAttemptedEjPKv"
    },
    {
     "kind":"offset_to_top",
     "component_value":-48
    },
    {
     "kind":"rtti",
     "mangled_component_name":"_ZTIN7android8hardware4gnss4V1_020BpHwGnssXtraCallbackE"
    },
    {
     "kind":"complete_dtor_pointer",
     "mangled_component_name":"_ZThn48_N7android8hardware4gnss4V1_020BpHwGnssXtraCallbackD1Ev"
    },
    {
     "kind":"deleting_dtor_pointer",
     "mangled_component_name":"_ZThn48_N7android8hardware4gnss4V1_020BpHwGnssXtraCallbackD0Ev"
    },
    {
     "kind":"vcall_offset"
    },
    {
     "kind":"vcall_offset",
     "component_value":-184
    },
    {
     "kind":"vcall_offset",
     "component_value":-184
    },
    {
     "kind":"vcall_offset",
     "component_value":-184
    },
    {
     "kind":"vcall_offset",
     "component_value":-200
    },
    {
     "kind":"offset_to_top",
     "component_value":-200
    },
    {
     "kind":"rtti",
     "mangled_component_name":"_ZTIN7android8hardware4gnss4V1_020BpHwGnssXtraCallbackE"
    },
    {
     "kind":"complete_dtor_pointer",
     "mangled_component_name":"_ZTv0_n24_N7android8hardware4gnss4V1_020BpHwGnssXtraCallbackD1Ev"
    },
    {
     "kind":"deleting_dtor_pointer",
     "mangled_component_name":"_ZTv0_n24_N7android8hardware4gnss4V1_020BpHwGnssXtraCallbackD0Ev"
    },
    {
     "mangled_component_name":"_ZTv0_n32_N7android8hardware11BpHwRefBase10onFirstRefEv"
    },
    {
     "mangled_component_name":"_ZTv0_n40_N7android8hardware11BpHwRefBase15onLastStrongRefEPKv"
    },
    {
     "mangled_component_name":"_ZTv0_n48_N7android8hardware11BpHwRefBase20onIncStrongAttemptedEjPKv"
    },
    {
     "mangled_component_name":"_ZN7android7RefBase13onLastWeakRefEPKv"
    }
   ],
   "unique_id":"_ZTSN7android8hardware4gnss4V1_020BpHwGnssXtraCallbackE"
  },
  {
   "vtable_components":[
    {
     "kind":"vbase_offset",
     "component_value":136
    },
    {
     "kind":"offset_to_top"
    },
    {
     "kind":"rtti",
     "mangled_component_name":"_ZTIN7android8hardware4gnss4V1_012BnHwGnssXtraE"
    },
    {
     "mangled_component_name":"_ZN7android8hardware9BHwBinder8transactEjRKNS0_6ParcelEPS2_jNSt3__18functionIFvRS2_EEE"
    },
    {
     "mangled_component_name":"_ZN7android8hardware9BHwBinder11linkToDeathERKNS_2spINS0_7IBinder14DeathRecipientEEEPvj"
    },
    {
     "mangled_component_name":"_ZN7android8hardware9BHwBinder13unlinkToDeathERKNS_2wpINS0_7IBinder14DeathRecipientEEEPvjPS5_"
    },
    {
     "mangled_component_name":"_ZNK7android8hardware7IBinder13checkSubclassEPKv"
    },
    {
     "mangled_component_name":"_ZN7android8hardware9BHwBinder12attachObjectEPKvPvS4_PFvS3_S4_S4_E"
    },
    {
     "mangled_component_name":"_ZNK7android8hardware9BHwBinder10findObjectEPKv"
    },
    {
     "mangled_component_name":"_ZN7android8hardware9BHwBinder12detachObjectEPKv"
    },
    {
     "mangled_component_name":"_ZN7android8hardware9BHwBinder11localBinderEv"
    },
    {
     "mangled_component_name":"_ZN7android8hardware7IBinder12remoteBinderEv"
    },
    {
     "kind":"complete_dtor_pointer",
     "mangled_component_name":"_ZN7android8hardware4gnss4V1_012BnHwGnssXtraD1Ev"
    },
    {
     "kind":"deleting_dtor_pointer",
     "mangled_component_name":"_ZN7android8hardware4gnss4V1_012BnHwGnssXtraD0Ev"
    },
    {
     "mangled_component_name":"_ZN7android8hardware4gnss4V1_012BnHwGnssXtra10onTransactEjRKNS0_6ParcelEPS4_jNSt3__18functionIFvRS4_EEE"
    },
    {
     "kind":"offset_to_top",
     "component_value":-32
    },
    {
     "kind":"rtti",
     "mangled_component_name":"_ZTIN7android8hardware4gnss4V1_012BnHwGnssXtraE"
    },
    {
     "kind":"complete_dtor_pointer",
     "mangled_component_name":"_ZThn32_N7android8hardware4gnss4V1_012BnHwGnssXtraD1Ev"
    },
    {
     "kind":"deleting_dtor_pointer",
     "mangled_component_name":"_ZThn32_N7android8hardware4gnss4V1_012BnHwGnssXtraD0Ev"
    },
    {
     "kind":"vcall_offset"
    },
    {
     "kind":"vcall_offset"
    },
    {
     "kind":"vcall_offset"
    },
    {
     "kind":"vcall_offset"
    },
    {
     "kind":"vcall_offset",
     "component_value":-136
    },
    {
     "kind":"offset_to_top",
     "component_value":-136
    },
    {
     "kind":"rtti",
     "mangled_component_name":"_ZTIN7android8hardware4gnss4V1_012BnHwGnssXtraE"
    },
    {
     "kind":"complete_dtor_pointer",
     "mangled_component_name":"_ZTv0_n24_N7android8hardware4gnss4V1_012BnHwGnssXtraD1Ev"
    },
    {
     "kind":"deleting_dtor_pointer",
     "mangled_component_name":"_ZTv0_n24_N7android8hardware4gnss4V1_012BnHwGnssXtraD0Ev"
    },
    {
     "mangled_component_name":"_ZN7android7RefBase10onFirstRefEv"
    },
    {
     "mangled_component_name":"_ZN7android7RefBase15onLastStrongRefEPKv"
    },
    {
     "mangled_component_name":"_ZN7android7RefBase20onIncStrongAttemptedEjPKv"
    },
    {
     "mangled_component_name":"_ZN7android7RefBase13onLastWeakRefEPKv"
    }
   ],
   "unique_id":"_ZTSN7android8hardware4gnss4V1_012BnHwGnssXtraE"
  },
  {
   "vtable_components":[
    {
     "kind":"vbase_offset",
     "component_value":8
    },
    {
     "kind":"offset_to_top"
    },
    {
     "kind":"rtti",
     "mangled_component_name":"_ZTIN7android8hardware4gnss4V1_09IGnssXtraE"
    },
    {
     "mangled_component_name":"_ZNK7android8hardware4gnss4V1_09IGnssXtra8isRemoteEv"
    },
    {
     "mangled_component_name":"_ZN7android8hardware4gnss4V1_09IGnssXtra14interfaceChainENSt3__18functionIFvRKNS0_8hidl_vecINS0_11hidl_stringEEEEEE"
    },
    {
     "mangled_component_name":"_ZN7android8hardware4gnss4V1_09IGnssXtra5debugERKNS0_11hidl_handleERKNS0_8hidl_vecINS0_11hidl_stringEEE"
    },
    {
     "mangled_component_name":"_ZN7android8hardware4gnss4V1_09IGnssXtra19interfaceDescriptorENSt3__18functionIFvRKNS0_11hidl_stringEEEE"
    },
    {
     "mangled_component_name":"_ZN7android8hardware4gnss4V1_09IGnssXtra12getHashChainENSt3__18functionIFvRKNS0_8hidl_vecINS0_10hidl_arrayIhLm32EJEEEEEEEE"
    },
    {
     "mangled_component_name":"_ZN7android8hardware4gnss4V1_09IGnssXtra21setHALInstrumentationEv"
    },
    {
     "mangled_component_name":"_ZN7android8hardware4gnss4V1_09IGnssXtra11linkToDeathERKNS_2spINS0_20hidl_death_recipientEEEm"
    },
    {
     "mangled_component_name":"_ZN7android8hardware4gnss4V1_09IGnssXtra4pingEv"
    },
    {
     "mangled_component_name":"_ZN7android8hardware4gnss4V1_09IGnssXtra12getDebugInfoENSt3__18functionIFvRKNS_4hidl4base4V1_09DebugInfoEEEE"
    },
    {
     "mangled_component_name":"_ZN7android8hardware4gnss4V1_09IGnssXtra21notifySyspropsChangedEv"
    },
    {
     "mangled_component_name":"_ZN7android8hardware4gnss4V1_09IGnssXtra13unlinkToDeathERKNS_2spINS0_20hidl_death_recipientEEE"
    },
    {
     "kind":"complete_dtor_pointer",
     "mangled_component_name":"_ZN7android8hardware4gnss4V1_09IGnssXtraD1Ev"
    },
    {
     "kind":"deleting_dtor_pointer",
     "mangled_component_name":"_ZN7android8hardware4gnss4V1_09IGnssXtraD0Ev"
    },
    {
     "is_pure":true,
     "mangled_component_name":"_ZN7android8hardware4gnss4V1_09IGnssXtra11setCallbackERKNS_2spINS2_17IGnssXtraCallbackEEE"
    },
    {
     "is_pure":true,
     "mangled_component_name":"_ZN7android8hardware4gnss4V1_09IGnssXtra14injectXtraDataERKNS0_11hidl_stringE"
    },
    {
     "kind":"vcall_offset"
    },
    {
     "kind":"vcall_offset"
    },
    {
     "kind":"vcall_offset"
    },
    {
     "kind":"vcall_offset"
    },
    {
     "kind":"vcall_offset",
     "component_value":-8
    },
    {
     "kind":"offset_to_top",
     "component_value":-8
    },
    {
     "kind":"rtti",
     "mangled_component_name":"_ZTIN7android8hardware4gnss4V1_09IGnssXtraE"
    },
    {
     "kind":"complete_dtor_pointer",
     "mangled_component_name":"_ZTv0_n24_N7android8hardware4gnss4V1_09IGnssXtraD1Ev"
    },
    {
     "kind":"deleting_dtor_pointer",
     "mangled_component_name":"_ZTv0_n24_N7android8hardware4gnss4V1_09IGnssXtraD0Ev"
    },
    {
     "mangled_component_name":"_ZN7android7RefBase10onFirstRefEv"
    },
    {
     "mangled_component_name":"_ZN7android7RefBase15onLastStrongRefEPKv"
    },
    {
     "mangled_component_name":"_ZN7android7RefBase20onIncStrongAttemptedEjPKv"
    },
    {
     "mangled_component_name":"_ZN7android7RefBase13onLastWeakRefEPKv"
    }
   ],
   "unique_id":"_ZTSN7android8hardware4gnss4V1_09IGnssXtraE"
  },
  {
   "vtable_components":[
    {
     "kind":"vbase_offset",
     "component_value":200
    },
    {
     "kind":"offset_to_top"
    },
    {
     "kind":"rtti",
     "mangled_component_name":"_ZTIN7android8hardware4gnss4V1_012BpHwGnssXtraE"
    },
    {
     "mangled_component_name":"_ZNK7android8hardware4gnss4V1_012BpHwGnssXtra8isRemoteEv"
    },
    {
     "mangled_component_name":"_ZN7android8hardware4gnss4V1_012BpHwGnssXtra14interfaceChainENSt3__18functionIFvRKNS0_8hidl_vecINS0_11hidl_stringEEEEEE"
    },
    {
     "mangled_component_name":"_ZN7android8hardware4gnss4V1_012BpHwGnssXtra5debugERKNS0_11hidl_handleERKNS0_8hidl_vecINS0_11hidl_stringEEE"
    },
    {
     "mangled_component_name":"_ZN7android8hardware4gnss4V1_012BpHwGnssXtra19interfaceDescriptorENSt3__18functionIFvRKNS0_11hidl_stringEEEE"
    },
    {
     "mangled_component_name":"_ZN7android8hardware4gnss4V1_012BpHwGnssXtra12getHashChainENSt3__18functionIFvRKNS0_8hidl_vecINS0_10hidl_arrayIhLm32EJEEEEEEEE"
    },
    {
     "mangled_component_name":"_ZN7android8hardware4gnss4V1_012BpHwGnssXtra21setHALInstrumentationEv"
    },
    {
     "mangled_component_name":"_ZN7android8hardware4gnss4V1_012BpHwGnssXtra11linkToDeathERKNS_2spINS0_20hidl_death_recipientEEEm"
    },
    {
     "mangled_component_name":"_ZN7android8hardware4gnss4V1_012BpHwGnssXtra4pingEv"
    },
    {
     "mangled_component_name":"_ZN7android8hardware4gnss4V1_012BpHwGnssXtra12getDebugInfoENSt3__18functionIFvRKNS_4hidl4base4V1_09DebugInfoEEEE"
    },
    {
     "mangled_component_name":"_ZN7android8hardware4gnss4V1_012BpHwGnssXtra21notifySyspropsChangedEv"
    },
    {
     "mangled_component_name":"_ZN7android8hardware4gnss4V1_012BpHwGnssXtra13unlinkToDeathERKNS_2spINS0_20hidl_death_recipientEEE"
    },
    {
     "kind":"complete_dtor_pointer",
     "mangled_component_name":"_ZN7android8hardware4gnss4V1_012BpHwGnssXtraD1Ev"
    },
    {
     "kind":"deleting_dtor_pointer",
     "mangled_component_name":"_ZN7android8hardware4gnss4V1_012BpHwGnssXtraD0Ev"
    },
    {
     "mangled_component_name":"_ZN7android8hardware4gnss4V1_012BpHwGnssXtra11setCallbackERKNS_2spINS2_17IGnssXtraCallbackEEE"
    },
    {
     "mangled_component_name":"_ZN7android8hardware4gnss4V1_012BpHwGnssXtra14injectXtraDataERKNS0_11hidl_stringE"
    },
    {
     "mangled_component_name":"_ZN7android8hardware11BpInterfaceINS0_4gnss4V1_09IGnssXtraEE10onAsBinderEv"
    },
    {
     "kind":"vbase_offset",
     "component_value":192
    },
    {
     "kind":"offset_to_top",
     "component_value":-8
    },
    {
     "kind":"rtti",
     "mangled_component_name":"_ZTIN7android8hardware4gnss4V1_012BpHwGnssXtraE"
    },
    {
     "kind":"complete_dtor_pointer",
     "mangled_component_name":"_ZThn8_N7android8hardware4gnss4V1_012BpHwGnssXtraD1Ev"
    },
    {
     "kind":"deleting_dtor_pointer",
     "mangled_component_name":"_ZThn8_N7android8hardware4gnss4V1_012BpHwGnssXtraD0Ev"
    },
    {
     "mangled_component_name":"_ZThn8_N7android8hardware11BpInterfaceINS0_4gnss4V1_09IGnssXtraEE10onAsBinderEv"
    },
    {
     "kind":"vbase_offset",
     "component_value":184
    },
    {
     "kind":"offset_to_top",
     "component_value":-16
    },
    {
     "kind":"rtti",
     "mangled_component_name":"_ZTIN7android8hardware4gnss4V1_012BpHwGnssXtraE"
    },
    {
     "kind":"complete_dtor_pointer",
     "mangled_component_name":"_ZThn16_N7android8hardware4gnss4V1_012BpHwGnssXtraD1Ev"
    },
    {
     "kind":"deleting_dtor_pointer",
     "mangled_component_name":"_ZThn16_N7android8hardware4gnss4V1_012BpHwGnssXtraD0Ev"
    },
    {
     "mangled_component_name":"_ZN7android8hardware11BpHwRefBase10onFirstRefEv"
    },
    {
     "mangled_component_name":"_ZN7android8hardware11BpHwRefBase15onLastStrongRefEPKv"
    },
    {
     "mangled_component_name":"_ZN7android8hardware11BpHwRefBase20onIncStrongAttemptedEjPKv"
    },
    {
     "kind":"offset_to_top",
     "component_value":-48
    },
    {
     "kind":"rtti",
     "mangled_component_name":"_ZTIN7android8hardware4gnss4V1_012BpHwGnssXtraE"
    },
    {
     "kind":"complete_dtor_pointer",
     "mangled_component_name":"_ZThn48_N7android8hardware4gnss4V1_012BpHwGnssXtraD1Ev"
    },
    {
     "kind":"deleting_dtor_pointer",
     "mangled_component_name":"_ZThn48_N7android8hardware4gnss4V1_012BpHwGnssXtraD0Ev"
    },
    {
     "kind":"vcall_offset"
    },
    {
     "kind":"vcall_offset",
     "component_value":-184
    },
    {
     "kind":"vcall_offset",
     "component_value":-184
    },
    {
     "kind":"vcall_offset",
     "component_value":-184
    },
    {
     "kind":"vcall_offset",
     "component_value":-200
    },
    {
     "kind":"offset_to_top",
     "component_value":-200
    },
    {
     "kind":"rtti",
     "mangled_component_name":"_ZTIN7android8hardware4gnss4V1_012BpHwGnssXtraE"
    },
    {
     "kind":"complete_dtor_pointer",
     "mangled_component_name":"_ZTv0_n24_N7android8hardware4gnss4V1_012BpHwGnssXtraD1Ev"
    },
    {
     "kind":"deleting_dtor_pointer",
     "mangled_component_name":"_ZTv0_n24_N7android8hardware4gnss4V1_012BpHwGnssXtraD0Ev"
    },
    {
     "mangled_component_name":"_ZTv0_n32_N7android8hardware11BpHwRefBase10onFirstRefEv"
    },
    {
     "mangled_component_name":"_ZTv0_n40_N7android8hardware11BpHwRefBase15onLastStrongRefEPKv"
    },
    {
     "mangled_component_name":"_ZTv0_n48_N7android8hardware11BpHwRefBase20onIncStrongAttemptedEjPKv"
    },
    {
     "mangled_component_name":"_ZN7android7RefBase13onLastWeakRefEPKv"
    }
   ],
   "unique_id":"_ZTSN7android8hardware4gnss4V1_012BpHwGnssXtraE"
  },
  {
   "vtable_components":[
    {
     "kind":"vbase_offset",
     "component_value":200
    },
    {
     "kind":"offset_to_top"
    },
    {
     "kind":"rtti",
     "mangled_component_name":"_ZTIN7android8hardware4gnss4V1_08BpHwGnssE"
    },
    {
     "mangled_component_name":"_ZNK7android8hardware4gnss4V1_08BpHwGnss8isRemoteEv"
    },
    {
     "mangled_component_name":"_ZN7android8hardware4gnss4V1_08BpHwGnss14interfaceChainENSt3__18functionIFvRKNS0_8hidl_vecINS0_11hidl_stringEEEEEE"
    },
    {
     "mangled_component_name":"_ZN7android8hardware4gnss4V1_08BpHwGnss5debugERKNS0_11hidl_handleERKNS0_8hidl_vecINS0_11hidl_stringEEE"
    },
    {
     "mangled_component_name":"_ZN7android8hardware4gnss4V1_08BpHwGnss19interfaceDescriptorENSt3__18functionIFvRKNS0_11hidl_stringEEEE"
    },
    {
     "mangled_component_name":"_ZN7android8hardware4gnss4V1_08BpHwGnss12getHashChainENSt3__18functionIFvRKNS0_8hidl_vecINS0_10hidl_arrayIhLm32EJEEEEEEEE"
    },
    {
     "mangled_component_name":"_ZN7android8hardware4gnss4V1_08BpHwGnss21setHALInstrumentationEv"
    },
    {
     "mangled_component_name":"_ZN7android8hardware4gnss4V1_08BpHwGnss11linkToDeathERKNS_2spINS0_20hidl_death_recipientEEEm"
    },
    {
     "mangled_component_name":"_ZN7android8hardware4gnss4V1_08BpHwGnss4pingEv"
    },
    {
     "mangled_component_name":"_ZN7android8hardware4gnss4V1_08BpHwGnss12getDebugInfoENSt3__18functionIFvRKNS_4hidl4base4V1_09DebugInfoEEEE"
    },
    {
     "mangled_component_name":"_ZN7android8hardware4gnss4V1_08BpHwGnss21notifySyspropsChangedEv"
    },
    {
     "mangled_component_name":"_ZN7android8hardware4gnss4V1_08BpHwGnss13unlinkToDeathERKNS_2spINS0_20hidl_death_recipientEEE"
    },
    {
     "kind":"complete_dtor_pointer",
     "mangled_component_name":"_ZN7android8hardware4gnss4V1_08BpHwGnssD1Ev"
    },
    {
     "kind":"deleting_dtor_pointer",
     "mangled_component_name":"_ZN7android8hardware4gnss4V1_08BpHwGnssD0Ev"
    },
    {
     "mangled_component_name":"_ZN7android8hardware4gnss4V1_08BpHwGnss11setCallbackERKNS_2spINS2_13IGnssCallbackEEE"
    },
    {
     "mangled_component_name":"_ZN7android8hardware4gnss4V1_08BpHwGnss5startEv"
    },
    {
     "mangled_component_name":"_ZN7android8hardware4gnss4V1_08BpHwGnss4stopEv"
    },
    {
     "mangled_component_name":"_ZN7android8hardware4gnss4V1_08BpHwGnss7cleanupEv"
    },
    {
     "mangled_component_name":"_ZN7android8hardware4gnss4V1_08BpHwGnss10injectTimeElli"
    },
    {
     "mangled_component_name":"_ZN7android8hardware4gnss4V1_08BpHwGnss14injectLocationEddf"
    },
    {
     "mangled_component_name":"_ZN7android8hardware4gnss4V1_08BpHwGnss16deleteAidingDataENS2_5IGnss14GnssAidingDataE"
    },
    {
     "mangled_component_name":"_ZN7android8hardware4gnss4V1_08BpHwGnss15setPositionModeENS2_5IGnss16GnssPositionModeENS4_22GnssPositionRecurrenceEjjj"
    },
    {
     "mangled_component_name":"_ZN7android8hardware4gnss4V1_08BpHwGnss20getExtensionAGnssRilEv"
    },
    {
     "mangled_component_name":"_ZN7android8hardware4gnss4V1_08BpHwGnss26getExtensionGnssGeofencingEv"
    },
    {
     "mangled_component_name":"_ZN7android8hardware4gnss4V1_08BpHwGnss17getExtensionAGnssEv"
    },
    {
     "mangled_component_name":"_ZN7android8hardware4gnss4V1_08BpHwGnss18getExtensionGnssNiEv"
    },
    {
     "mangled_component_name":"_ZN7android8hardware4gnss4V1_08BpHwGnss27getExtensionGnssMeasurementEv"
    },
    {
     "mangled_component_name":"_ZN7android8hardware4gnss4V1_08BpHwGnss33getExtensionGnssNavigationMessageEv"
    },
    {
     "mangled_component_name":"_ZN7android8hardware4gnss4V1_08BpHwGnss16getExtensionXtraEv"
    },
    {
     "mangled_component_name":"_ZN7android8hardware4gnss4V1_08BpHwGnss29getExtensionGnssConfigurationEv"
    },
    {
     "mangled_component_name":"_ZN7android8hardware4gnss4V1_08BpHwGnss21getExtensionGnssDebugEv"
    },
    {
     "mangled_component_name":"_ZN7android8hardware4gnss4V1_08BpHwGnss24getExtensionGnssBatchingEv"
    },
    {
     "mangled_component_name":"_ZN7android8hardware11BpInterfaceINS0_4gnss4V1_05IGnssEE10onAsBinderEv"
    },
    {
     "kind":"vbase_offset",
     "component_value":192
    },
    {
     "kind":"offset_to_top",
     "component_value":-8
    },
    {
     "kind":"rtti",
     "mangled_component_name":"_ZTIN7android8hardware4gnss4V1_08BpHwGnssE"
    },
    {
     "kind":"complete_dtor_pointer",
     "mangled_component_name":"_ZThn8_N7android8hardware4gnss4V1_08BpHwGnssD1Ev"
    },
    {
     "kind":"deleting_dtor_pointer",
     "mangled_component_name":"_ZThn8_N7android8hardware4gnss4V1_08BpHwGnssD0Ev"
    },
    {
     "mangled_component_name":"_ZThn8_N7android8hardware11BpInterfaceINS0_4gnss4V1_05IGnssEE10onAsBinderEv"
    },
    {
     "kind":"vbase_offset",
     "component_value":184
    },
    {
     "kind":"offset_to_top",
     "component_value":-16
    },
    {
     "kind":"rtti",
     "mangled_component_name":"_ZTIN7android8hardware4gnss4V1_08BpHwGnssE"
    },
    {
     "kind":"complete_dtor_pointer",
     "mangled_component_name":"_ZThn16_N7android8hardware4gnss4V1_08BpHwGnssD1Ev"
    },
    {
     "kind":"deleting_dtor_pointer",
     "mangled_component_name":"_ZThn16_N7android8hardware4gnss4V1_08BpHwGnssD0Ev"
    },
    {
     "mangled_component_name":"_ZN7android8hardware11BpHwRefBase10onFirstRefEv"
    },
    {
     "mangled_component_name":"_ZN7android8hardware11BpHwRefBase15onLastStrongRefEPKv"
    },
    {
     "mangled_component_name":"_ZN7android8hardware11BpHwRefBase20onIncStrongAttemptedEjPKv"
    },
    {
     "kind":"offset_to_top",
     "component_value":-48
    },
    {
     "kind":"rtti",
     "mangled_component_name":"_ZTIN7android8hardware4gnss4V1_08BpHwGnssE"
    },
    {
     "kind":"complete_dtor_pointer",
     "mangled_component_name":"_ZThn48_N7android8hardware4gnss4V1_08BpHwGnssD1Ev"
    },
    {
     "kind":"deleting_dtor_pointer",
     "mangled_component_name":"_ZThn48_N7android8hardware4gnss4V1_08BpHwGnssD0Ev"
    },
    {
     "kind":"vcall_offset"
    },
    {
     "kind":"vcall_offset",
     "component_value":-184
    },
    {
     "kind":"vcall_offset",
     "component_value":-184
    },
    {
     "kind":"vcall_offset",
     "component_value":-184
    },
    {
     "kind":"vcall_offset",
     "component_value":-200
    },
    {
     "kind":"offset_to_top",
     "component_value":-200
    },
    {
     "kind":"rtti",
     "mangled_component_name":"_ZTIN7android8hardware4gnss4V1_08BpHwGnssE"
    },
    {
     "kind":"complete_dtor_pointer",
     "mangled_component_name":"_ZTv0_n24_N7android8hardware4gnss4V1_08BpHwGnssD1Ev"
    },
    {
     "kind":"deleting_dtor_pointer",
     "mangled_component_name":"_ZTv0_n24_N7android8hardware4gnss4V1_08BpHwGnssD0Ev"
    },
    {
     "mangled_component_name":"_ZTv0_n32_N7android8hardware11BpHwRefBase10onFirstRefEv"
    },
    {
     "mangled_component_name":"_ZTv0_n40_N7android8hardware11BpHwRefBase15onLastStrongRefEPKv"
    },
    {
     "mangled_component_name":"_ZTv0_n48_N7android8hardware11BpHwRefBase20onIncStrongAttemptedEjPKv"
    },
    {
     "mangled_component_name":"_ZN7android7RefBase13onLastWeakRefEPKv"
    }
   ],
   "unique_id":"_ZTSN7android8hardware4gnss4V1_08BpHwGnssE"
  },
  {
   "vtable_components":[
    {
     "kind":"vbase_offset",
     "component_value":120
    },
    {
     "kind":"offset_to_top"
    },
    {
     "kind":"rtti",
     "mangled_component_name":"_ZTIN7android8hardware4gnss4V1_06BsGnssE"
    },
    {
     "mangled_component_name":"_ZNK7android8hardware4gnss4V1_05IGnss8isRemoteEv"
    },
    {
     "mangled_component_name":"_ZN7android8hardware4gnss4V1_06BsGnss14interfaceChainENSt3__18functionIFvRKNS0_8hidl_vecINS0_11hidl_stringEEEEEE"
    },
    {
     "mangled_component_name":"_ZN7android8hardware4gnss4V1_06BsGnss5debugERKNS0_11hidl_handleERKNS0_8hidl_vecINS0_11hidl_stringEEE"
    },
    {
     "mangled_component_name":"_ZN7android8hardware4gnss4V1_06BsGnss19interfaceDescriptorENSt3__18functionIFvRKNS0_11hidl_stringEEEE"
    },
    {
     "mangled_component_name":"_ZN7android8hardware4gnss4V1_06BsGnss12getHashChainENSt3__18functionIFvRKNS0_8hidl_vecINS0_10hidl_arrayIhLm32EJEEEEEEEE"
    },
    {
     "mangled_component_name":"_ZN7android8hardware4gnss4V1_06BsGnss21setHALInstrumentationEv"
    },
    {
     "mangled_component_name":"_ZN7android8hardware4gnss4V1_06BsGnss11linkToDeathERKNS_2spINS0_20hidl_death_recipientEEEm"
    },
    {
     "mangled_component_name":"_ZN7android8hardware4gnss4V1_06BsGnss4pingEv"
    },
    {
     "mangled_component_name":"_ZN7android8hardware4gnss4V1_06BsGnss12getDebugInfoENSt3__18functionIFvRKNS_4hidl4base4V1_09DebugInfoEEEE"
    },
    {
     "mangled_component_name":"_ZN7android8hardware4gnss4V1_06BsGnss21notifySyspropsChangedEv"
    },
    {
     "mangled_component_name":"_ZN7android8hardware4gnss4V1_06BsGnss13unlinkToDeathERKNS_2spINS0_20hidl_death_recipientEEE"
    },
    {
     "kind":"complete_dtor_pointer",
     "mangled_component_name":"_ZN7android8hardware4gnss4V1_06BsGnssD1Ev"
    },
    {
     "kind":"deleting_dtor_pointer",
     "mangled_component_name":"_ZN7android8hardware4gnss4V1_06BsGnssD0Ev"
    },
    {
     "mangled_component_name":"_ZN7android8hardware4gnss4V1_06BsGnss11setCallbackERKNS_2spINS2_13IGnssCallbackEEE"
    },
    {
     "mangled_component_name":"_ZN7android8hardware4gnss4V1_06BsGnss5startEv"
    },
    {
     "mangled_component_name":"_ZN7android8hardware4gnss4V1_06BsGnss4stopEv"
    },
    {
     "mangled_component_name":"_ZN7android8hardware4gnss4V1_06BsGnss7cleanupEv"
    },
    {
     "mangled_component_name":"_ZN7android8hardware4gnss4V1_06BsGnss10injectTimeElli"
    },
    {
     "mangled_component_name":"_ZN7android8hardware4gnss4V1_06BsGnss14injectLocationEddf"
    },
    {
     "mangled_component_name":"_ZN7android8hardware4gnss4V1_06BsGnss16deleteAidingDataENS2_5IGnss14GnssAidingDataE"
    },
    {
     "mangled_component_name":"_ZN7android8hardware4gnss4V1_06BsGnss15setPositionModeENS2_5IGnss16GnssPositionModeENS4_22GnssPositionRecurrenceEjjj"
    },
    {
     "mangled_component_name":"_ZN7android8hardware4gnss4V1_06BsGnss20getExtensionAGnssRilEv"
    },
    {
     "mangled_component_name":"_ZN7android8hardware4gnss4V1_06BsGnss26getExtensionGnssGeofencingEv"
    },
    {
     "mangled_component_name":"_ZN7android8hardware4gnss4V1_06BsGnss17getExtensionAGnssEv"
    },
    {
     "mangled_component_name":"_ZN7android8hardware4gnss4V1_06BsGnss18getExtensionGnssNiEv"
    },
    {
     "mangled_component_name":"_ZN7android8hardware4gnss4V1_06BsGnss27getExtensionGnssMeasurementEv"
    },
    {
     "mangled_component_name":"_ZN7android8hardware4gnss4V1_06BsGnss33getExtensionGnssNavigationMessageEv"
    },
    {
     "mangled_component_name":"_ZN7android8hardware4gnss4V1_06BsGnss16getExtensionXtraEv"
    },
    {
     "mangled_component_name":"_ZN7android8hardware4gnss4V1_06BsGnss29getExtensionGnssConfigurationEv"
    },
    {
     "mangled_component_name":"_ZN7android8hardware4gnss4V1_06BsGnss21getExtensionGnssDebugEv"
    },
    {
     "mangled_component_name":"_ZN7android8hardware4gnss4V1_06BsGnss24getExtensionGnssBatchingEv"
    },
    {
     "kind":"offset_to_top",
     "component_value":-8
    },
    {
     "kind":"rtti",
     "mangled_component_name":"_ZTIN7android8hardware4gnss4V1_06BsGnssE"
    },
    {
     "kind":"complete_dtor_pointer",
     "mangled_component_name":"_ZThn8_N7android8hardware4gnss4V1_06BsGnssD1Ev"
    },
    {
     "kind":"deleting_dtor_pointer",
     "mangled_component_name":"_ZThn8_N7android8hardware4gnss4V1_06BsGnssD0Ev"
    },
    {
     "kind":"vcall_offset"
    },
    {
     "kind":"vcall_offset"
    },
    {
     "kind":"vcall_offset"
    },
    {
     "kind":"vcall_offset"
    },
    {
     "kind":"vcall_offset",
     "component_value":-120
    },
    {
     "kind":"offset_to_top",
     "component_value":-120
    },
    {
     "kind":"rtti",
     "mangled_component_name":"_ZTIN7android8hardware4gnss4V1_06BsGnssE"
    },
    {
     "kind":"complete_dtor_pointer",
     "mangled_component_name":"_ZTv0_n24_N7android8hardware4gnss4V1_06BsGnssD1Ev"
    },
    {
     "kind":"deleting_dtor_pointer",
     "mangled_component_name":"_ZTv0_n24_N7android8hardware4gnss4V1_06BsGnssD0Ev"
    },
    {
     "mangled_component_name":"_ZN7android7RefBase10onFirstRefEv"
    },
    {
     "mangled_component_name":"_ZN7android7RefBase15onLastStrongRefEPKv"
    },
    {
     "mangled_component_name":"_ZN7android7RefBase20onIncStrongAttemptedEjPKv"
    },
    {
     "mangled_component_name":"_ZN7android7RefBase13onLastWeakRefEPKv"
    }
   ],
   "unique_id":"_ZTSN7android8hardware4gnss4V1_06BsGnssE"
  },
  {
   "vtable_components":[
    {
     "kind":"vbase_offset",
     "component_value":200
    },
    {
     "kind":"offset_to_top"
    },
    {
     "kind":"rtti",
     "mangled_component_name":"_ZTIN7android8hardware4gnss4V1_012BpHwAGnssRilE"
    },
    {
     "mangled_component_name":"_ZNK7android8hardware4gnss4V1_012BpHwAGnssRil8isRemoteEv"
    },
    {
     "mangled_component_name":"_ZN7android8hardware4gnss4V1_012BpHwAGnssRil14interfaceChainENSt3__18functionIFvRKNS0_8hidl_vecINS0_11hidl_stringEEEEEE"
    },
    {
     "mangled_component_name":"_ZN7android8hardware4gnss4V1_012BpHwAGnssRil5debugERKNS0_11hidl_handleERKNS0_8hidl_vecINS0_11hidl_stringEEE"
    },
    {
     "mangled_component_name":"_ZN7android8hardware4gnss4V1_012BpHwAGnssRil19interfaceDescriptorENSt3__18functionIFvRKNS0_11hidl_stringEEEE"
    },
    {
     "mangled_component_name":"_ZN7android8hardware4gnss4V1_012BpHwAGnssRil12getHashChainENSt3__18functionIFvRKNS0_8hidl_vecINS0_10hidl_arrayIhLm32EJEEEEEEEE"
    },
    {
     "mangled_component_name":"_ZN7android8hardware4gnss4V1_012BpHwAGnssRil21setHALInstrumentationEv"
    },
    {
     "mangled_component_name":"_ZN7android8hardware4gnss4V1_012BpHwAGnssRil11linkToDeathERKNS_2spINS0_20hidl_death_recipientEEEm"
    },
    {
     "mangled_component_name":"_ZN7android8hardware4gnss4V1_012BpHwAGnssRil4pingEv"
    },
    {
     "mangled_component_name":"_ZN7android8hardware4gnss4V1_012BpHwAGnssRil12getDebugInfoENSt3__18functionIFvRKNS_4hidl4base4V1_09DebugInfoEEEE"
    },
    {
     "mangled_component_name":"_ZN7android8hardware4gnss4V1_012BpHwAGnssRil21notifySyspropsChangedEv"
    },
    {
     "mangled_component_name":"_ZN7android8hardware4gnss4V1_012BpHwAGnssRil13unlinkToDeathERKNS_2spINS0_20hidl_death_recipientEEE"
    },
    {
     "kind":"complete_dtor_pointer",
     "mangled_component_name":"_ZN7android8hardware4gnss4V1_012BpHwAGnssRilD1Ev"
    },
    {
     "kind":"deleting_dtor_pointer",
     "mangled_component_name":"_ZN7android8hardware4gnss4V1_012BpHwAGnssRilD0Ev"
    },
    {
     "mangled_component_name":"_ZN7android8hardware4gnss4V1_012BpHwAGnssRil11setCallbackERKNS_2spINS2_17IAGnssRilCallbackEEE"
    },
    {
     "mangled_component_name":"_ZN7android8hardware4gnss4V1_012BpHwAGnssRil14setRefLocationERKNS2_9IAGnssRil16AGnssRefLocationE"
    },
    {
     "mangled_component_name":"_ZN7android8hardware4gnss4V1_012BpHwAGnssRil8setSetIdENS2_9IAGnssRil9SetIDTypeERKNS0_11hidl_stringE"
    },
    {
     "mangled_component_name":"_ZN7android8hardware4gnss4V1_012BpHwAGnssRil18updateNetworkStateEbNS2_9IAGnssRil11NetworkTypeEb"
    },
    {
     "mangled_component_name":"_ZN7android8hardware4gnss4V1_012BpHwAGnssRil25updateNetworkAvailabilityEbRKNS0_11hidl_stringE"
    },
    {
     "mangled_component_name":"_ZN7android8hardware11BpInterfaceINS0_4gnss4V1_09IAGnssRilEE10onAsBinderEv"
    },
    {
     "kind":"vbase_offset",
     "component_value":192
    },
    {
     "kind":"offset_to_top",
     "component_value":-8
    },
    {
     "kind":"rtti",
     "mangled_component_name":"_ZTIN7android8hardware4gnss4V1_012BpHwAGnssRilE"
    },
    {
     "kind":"complete_dtor_pointer",
     "mangled_component_name":"_ZThn8_N7android8hardware4gnss4V1_012BpHwAGnssRilD1Ev"
    },
    {
     "kind":"deleting_dtor_pointer",
     "mangled_component_name":"_ZThn8_N7android8hardware4gnss4V1_012BpHwAGnssRilD0Ev"
    },
    {
     "mangled_component_name":"_ZThn8_N7android8hardware11BpInterfaceINS0_4gnss4V1_09IAGnssRilEE10onAsBinderEv"
    },
    {
     "kind":"vbase_offset",
     "component_value":184
    },
    {
     "kind":"offset_to_top",
     "component_value":-16
    },
    {
     "kind":"rtti",
     "mangled_component_name":"_ZTIN7android8hardware4gnss4V1_012BpHwAGnssRilE"
    },
    {
     "kind":"complete_dtor_pointer",
     "mangled_component_name":"_ZThn16_N7android8hardware4gnss4V1_012BpHwAGnssRilD1Ev"
    },
    {
     "kind":"deleting_dtor_pointer",
     "mangled_component_name":"_ZThn16_N7android8hardware4gnss4V1_012BpHwAGnssRilD0Ev"
    },
    {
     "mangled_component_name":"_ZN7android8hardware11BpHwRefBase10onFirstRefEv"
    },
    {
     "mangled_component_name":"_ZN7android8hardware11BpHwRefBase15onLastStrongRefEPKv"
    },
    {
     "mangled_component_name":"_ZN7android8hardware11BpHwRefBase20onIncStrongAttemptedEjPKv"
    },
    {
     "kind":"offset_to_top",
     "component_value":-48
    },
    {
     "kind":"rtti",
     "mangled_component_name":"_ZTIN7android8hardware4gnss4V1_012BpHwAGnssRilE"
    },
    {
     "kind":"complete_dtor_pointer",
     "mangled_component_name":"_ZThn48_N7android8hardware4gnss4V1_012BpHwAGnssRilD1Ev"
    },
    {
     "kind":"deleting_dtor_pointer",
     "mangled_component_name":"_ZThn48_N7android8hardware4gnss4V1_012BpHwAGnssRilD0Ev"
    },
    {
     "kind":"vcall_offset"
    },
    {
     "kind":"vcall_offset",
     "component_value":-184
    },
    {
     "kind":"vcall_offset",
     "component_value":-184
    },
    {
     "kind":"vcall_offset",
     "component_value":-184
    },
    {
     "kind":"vcall_offset",
     "component_value":-200
    },
    {
     "kind":"offset_to_top",
     "component_value":-200
    },
    {
     "kind":"rtti",
     "mangled_component_name":"_ZTIN7android8hardware4gnss4V1_012BpHwAGnssRilE"
    },
    {
     "kind":"complete_dtor_pointer",
     "mangled_component_name":"_ZTv0_n24_N7android8hardware4gnss4V1_012BpHwAGnssRilD1Ev"
    },
    {
     "kind":"deleting_dtor_pointer",
     "mangled_component_name":"_ZTv0_n24_N7android8hardware4gnss4V1_012BpHwAGnssRilD0Ev"
    },
    {
     "mangled_component_name":"_ZTv0_n32_N7android8hardware11BpHwRefBase10onFirstRefEv"
    },
    {
     "mangled_component_name":"_ZTv0_n40_N7android8hardware11BpHwRefBase15onLastStrongRefEPKv"
    },
    {
     "mangled_component_name":"_ZTv0_n48_N7android8hardware11BpHwRefBase20onIncStrongAttemptedEjPKv"
    },
    {
     "mangled_component_name":"_ZN7android7RefBase13onLastWeakRefEPKv"
    }
   ],
   "unique_id":"_ZTSN7android8hardware4gnss4V1_012BpHwAGnssRilE"
  },
  {
   "vtable_components":[
    {
     "kind":"vbase_offset",
     "component_value":200
    },
    {
     "kind":"offset_to_top"
    },
    {
     "kind":"rtti",
     "mangled_component_name":"_ZTIN7android8hardware4gnss4V1_020BpHwAGnssRilCallbackE"
    },
    {
     "mangled_component_name":"_ZNK7android8hardware4gnss4V1_020BpHwAGnssRilCallback8isRemoteEv"
    },
    {
     "mangled_component_name":"_ZN7android8hardware4gnss4V1_020BpHwAGnssRilCallback14interfaceChainENSt3__18functionIFvRKNS0_8hidl_vecINS0_11hidl_stringEEEEEE"
    },
    {
     "mangled_component_name":"_ZN7android8hardware4gnss4V1_020BpHwAGnssRilCallback5debugERKNS0_11hidl_handleERKNS0_8hidl_vecINS0_11hidl_stringEEE"
    },
    {
     "mangled_component_name":"_ZN7android8hardware4gnss4V1_020BpHwAGnssRilCallback19interfaceDescriptorENSt3__18functionIFvRKNS0_11hidl_stringEEEE"
    },
    {
     "mangled_component_name":"_ZN7android8hardware4gnss4V1_020BpHwAGnssRilCallback12getHashChainENSt3__18functionIFvRKNS0_8hidl_vecINS0_10hidl_arrayIhLm32EJEEEEEEEE"
    },
    {
     "mangled_component_name":"_ZN7android8hardware4gnss4V1_020BpHwAGnssRilCallback21setHALInstrumentationEv"
    },
    {
     "mangled_component_name":"_ZN7android8hardware4gnss4V1_020BpHwAGnssRilCallback11linkToDeathERKNS_2spINS0_20hidl_death_recipientEEEm"
    },
    {
     "mangled_component_name":"_ZN7android8hardware4gnss4V1_020BpHwAGnssRilCallback4pingEv"
    },
    {
     "mangled_component_name":"_ZN7android8hardware4gnss4V1_020BpHwAGnssRilCallback12getDebugInfoENSt3__18functionIFvRKNS_4hidl4base4V1_09DebugInfoEEEE"
    },
    {
     "mangled_component_name":"_ZN7android8hardware4gnss4V1_020BpHwAGnssRilCallback21notifySyspropsChangedEv"
    },
    {
     "mangled_component_name":"_ZN7android8hardware4gnss4V1_020BpHwAGnssRilCallback13unlinkToDeathERKNS_2spINS0_20hidl_death_recipientEEE"
    },
    {
     "kind":"complete_dtor_pointer",
     "mangled_component_name":"_ZN7android8hardware4gnss4V1_020BpHwAGnssRilCallbackD1Ev"
    },
    {
     "kind":"deleting_dtor_pointer",
     "mangled_component_name":"_ZN7android8hardware4gnss4V1_020BpHwAGnssRilCallbackD0Ev"
    },
    {
     "mangled_component_name":"_ZN7android8hardware4gnss4V1_020BpHwAGnssRilCallback14requestSetIdCbEj"
    },
    {
     "mangled_component_name":"_ZN7android8hardware4gnss4V1_020BpHwAGnssRilCallback15requestRefLocCbEv"
    },
    {
     "mangled_component_name":"_ZN7android8hardware11BpInterfaceINS0_4gnss4V1_017IAGnssRilCallbackEE10onAsBinderEv"
    },
    {
     "kind":"vbase_offset",
     "component_value":192
    },
    {
     "kind":"offset_to_top",
     "component_value":-8
    },
    {
     "kind":"rtti",
     "mangled_component_name":"_ZTIN7android8hardware4gnss4V1_020BpHwAGnssRilCallbackE"
    },
    {
     "kind":"complete_dtor_pointer",
     "mangled_component_name":"_ZThn8_N7android8hardware4gnss4V1_020BpHwAGnssRilCallbackD1Ev"
    },
    {
     "kind":"deleting_dtor_pointer",
     "mangled_component_name":"_ZThn8_N7android8hardware4gnss4V1_020BpHwAGnssRilCallbackD0Ev"
    },
    {
     "mangled_component_name":"_ZThn8_N7android8hardware11BpInterfaceINS0_4gnss4V1_017IAGnssRilCallbackEE10onAsBinderEv"
    },
    {
     "kind":"vbase_offset",
     "component_value":184
    },
    {
     "kind":"offset_to_top",
     "component_value":-16
    },
    {
     "kind":"rtti",
     "mangled_component_name":"_ZTIN7android8hardware4gnss4V1_020BpHwAGnssRilCallbackE"
    },
    {
     "kind":"complete_dtor_pointer",
     "mangled_component_name":"_ZThn16_N7android8hardware4gnss4V1_020BpHwAGnssRilCallbackD1Ev"
    },
    {
     "kind":"deleting_dtor_pointer",
     "mangled_component_name":"_ZThn16_N7android8hardware4gnss4V1_020BpHwAGnssRilCallbackD0Ev"
    },
    {
     "mangled_component_name":"_ZN7android8hardware11BpHwRefBase10onFirstRefEv"
    },
    {
     "mangled_component_name":"_ZN7android8hardware11BpHwRefBase15onLastStrongRefEPKv"
    },
    {
     "mangled_component_name":"_ZN7android8hardware11BpHwRefBase20onIncStrongAttemptedEjPKv"
    },
    {
     "kind":"offset_to_top",
     "component_value":-48
    },
    {
     "kind":"rtti",
     "mangled_component_name":"_ZTIN7android8hardware4gnss4V1_020BpHwAGnssRilCallbackE"
    },
    {
     "kind":"complete_dtor_pointer",
     "mangled_component_name":"_ZThn48_N7android8hardware4gnss4V1_020BpHwAGnssRilCallbackD1Ev"
    },
    {
     "kind":"deleting_dtor_pointer",
     "mangled_component_name":"_ZThn48_N7android8hardware4gnss4V1_020BpHwAGnssRilCallbackD0Ev"
    },
    {
     "kind":"vcall_offset"
    },
    {
     "kind":"vcall_offset",
     "component_value":-184
    },
    {
     "kind":"vcall_offset",
     "component_value":-184
    },
    {
     "kind":"vcall_offset",
     "component_value":-184
    },
    {
     "kind":"vcall_offset",
     "component_value":-200
    },
    {
     "kind":"offset_to_top",
     "component_value":-200
    },
    {
     "kind":"rtti",
     "mangled_component_name":"_ZTIN7android8hardware4gnss4V1_020BpHwAGnssRilCallbackE"
    },
    {
     "kind":"complete_dtor_pointer",
     "mangled_component_name":"_ZTv0_n24_N7android8hardware4gnss4V1_020BpHwAGnssRilCallbackD1Ev"
    },
    {
     "kind":"deleting_dtor_pointer",
     "mangled_component_name":"_ZTv0_n24_N7android8hardware4gnss4V1_020BpHwAGnssRilCallbackD0Ev"
    },
    {
     "mangled_component_name":"_ZTv0_n32_N7android8hardware11BpHwRefBase10onFirstRefEv"
    },
    {
     "mangled_component_name":"_ZTv0_n40_N7android8hardware11BpHwRefBase15onLastStrongRefEPKv"
    },
    {
     "mangled_component_name":"_ZTv0_n48_N7android8hardware11BpHwRefBase20onIncStrongAttemptedEjPKv"
    },
    {
     "mangled_component_name":"_ZN7android7RefBase13onLastWeakRefEPKv"
    }
   ],
   "unique_id":"_ZTSN7android8hardware4gnss4V1_020BpHwAGnssRilCallbackE"
  }
 ],
 "elf_functions":[
  {
   "binding":"weak",
   "name":"_ZN7android8hardware10fromBinderINS0_4gnss4V1_010IGnssDebugENS3_13BpHwGnssDebugENS3_13BnHwGnssDebugEEENS_2spIT_EERKNS7_INS0_7IBinderEEE"
  },
  {
   "binding":"weak",
   "name":"_ZN7android8hardware10fromBinderINS0_4gnss4V1_013IGnssBatchingENS3_16BpHwGnssBatchingENS3_16BnHwGnssBatchingEEENS_2spIT_EERKNS7_INS0_7IBinderEEE"
  },
  {
   "binding":"weak",
   "name":"_ZN7android8hardware10fromBinderINS0_4gnss4V1_013IGnssCallbackENS3_16BpHwGnssCallbackENS3_16BnHwGnssCallbackEEENS_2spIT_EERKNS7_INS0_7IBinderEEE"
  },
  {
   "binding":"weak",
   "name":"_ZN7android8hardware10fromBinderINS0_4gnss4V1_014IAGnssCallbackENS3_17BpHwAGnssCallbackENS3_17BnHwAGnssCallbackEEENS_2spIT_EERKNS7_INS0_7IBinderEEE"
  },
  {
   "binding":"weak",
   "name":"_ZN7android8hardware10fromBinderINS0_4gnss4V1_015IGnssGeofencingENS3_18BpHwGnssGeofencingENS3_18BnHwGnssGeofencingEEENS_2spIT_EERKNS7_INS0_7IBinderEEE"
  },
  {
   "binding":"weak",
   "name":"_ZN7android8hardware10fromBinderINS0_4gnss4V1_015IGnssNiCallbackENS3_18BpHwGnssNiCallbackENS3_18BnHwGnssNiCallbackEEENS_2spIT_EERKNS7_INS0_7IBinderEEE"
  },
  {
   "binding":"weak",
   "name":"_ZN7android8hardware10fromBinderINS0_4gnss4V1_016IGnssMeasurementENS3_19BpHwGnssMeasurementENS3_19BnHwGnssMeasurementEEENS_2spIT_EERKNS7_INS0_7IBinderEEE"
  },
  {
   "binding":"weak",
   "name":"_ZN7android8hardware10fromBinderINS0_4gnss4V1_017IAGnssRilCallbackENS3_20BpHwAGnssRilCallbackENS3_20BnHwAGnssRilCallbackEEENS_2spIT_EERKNS7_INS0_7IBinderEEE"
  },
  {
   "binding":"weak",
   "name":"_ZN7android8hardware10fromBinderINS0_4gnss4V1_017IGnssXtraCallbackENS3_20BpHwGnssXtraCallbackENS3_20BnHwGnssXtraCallbackEEENS_2spIT_EERKNS7_INS0_7IBinderEEE"
  },
  {
   "binding":"weak",
   "name":"_ZN7android8hardware10fromBinderINS0_4gnss4V1_018IGnssConfigurationENS3_21BpHwGnssConfigurationENS3_21BnHwGnssConfigurationEEENS_2spIT_EERKNS7_INS0_7IBinderEEE"
  },
  {
   "binding":"weak",
   "name":"_ZN7android8hardware10fromBinderINS0_4gnss4V1_021IGnssBatchingCallbackENS3_24BpHwGnssBatchingCallbackENS3_24BnHwGnssBatchingCallbackEEENS_2spIT_EERKNS7_INS0_7IBinderEEE"
  },
  {
   "binding":"weak",
   "name":"_ZN7android8hardware10fromBinderINS0_4gnss4V1_021IGnssGeofenceCallbackENS3_24BpHwGnssGeofenceCallbackENS3_24BnHwGnssGeofenceCallbackEEENS_2spIT_EERKNS7_INS0_7IBinderEEE"
  },
  {
   "binding":"weak",
   "name":"_ZN7android8hardware10fromBinderINS0_4gnss4V1_022IGnssNavigationMessageENS3_25BpHwGnssNavigationMessageENS3_25BnHwGnssNavigationMessageEEENS_2spIT_EERKNS7_INS0_7IBinderEEE"
  },
  {
   "binding":"weak",
   "name":"_ZN7android8hardware10fromBinderINS0_4gnss4V1_024IGnssMeasurementCallbackENS3_27BpHwGnssMeasurementCallbackENS3_27BnHwGnssMeasurementCallbackEEENS_2spIT_EERKNS7_INS0_7IBinderEEE"
  },
  {
   "binding":"weak",
   "name":"_ZN7android8hardware10fromBinderINS0_4gnss4V1_030IGnssNavigationMessageCallbackENS3_33BpHwGnssNavigationMessageCallbackENS3_33BnHwGnssNavigationMessageCallbackEEENS_2spIT_EERKNS7_INS0_7IBinderEEE"
  },
  {
   "binding":"weak",
   "name":"_ZN7android8hardware10fromBinderINS0_4gnss4V1_06IAGnssENS3_9BpHwAGnssENS3_9BnHwAGnssEEENS_2spIT_EERKNS7_INS0_7IBinderEEE"
  },
  {
   "binding":"weak",
   "name":"_ZN7android8hardware10fromBinderINS0_4gnss4V1_07IGnssNiENS3_10BpHwGnssNiENS3_10BnHwGnssNiEEENS_2spIT_EERKNS7_INS0_7IBinderEEE"
  },
  {
   "binding":"weak",
   "name":"_ZN7android8hardware10fromBinderINS0_4gnss4V1_09IAGnssRilENS3_12BpHwAGnssRilENS3_12BnHwAGnssRilEEENS_2spIT_EERKNS7_INS0_7IBinderEEE"
  },
  {
   "binding":"weak",
   "name":"_ZN7android8hardware10fromBinderINS0_4gnss4V1_09IGnssXtraENS3_12BpHwGnssXtraENS3_12BnHwGnssXtraEEENS_2spIT_EERKNS7_INS0_7IBinderEEE"
  },
  {
   "name":"_ZN7android8hardware4gnss4V1_010BnHwGnssNi10onTransactEjRKNS0_6ParcelEPS4_jNSt3__18functionIFvRS4_EEE"
  },
  {
   "name":"_ZN7android8hardware4gnss4V1_010BnHwGnssNi12getDebugInfoENSt3__18functionIFvRKNS_4hidl4base4V1_09DebugInfoEEEE"
  },
  {
   "name":"_ZN7android8hardware4gnss4V1_010BnHwGnssNi13_hidl_respondEPNS_4hidl4base4V1_08BnHwBaseERKNS0_6ParcelEPS9_NSt3__18functionIFvRS9_EEE"
  },
  {
   "name":"_ZN7android8hardware4gnss4V1_010BnHwGnssNi17_hidl_setCallbackEPNS_4hidl4base4V1_08BnHwBaseERKNS0_6ParcelEPS9_NSt3__18functionIFvRS9_EEE"
  },
  {
   "name":"_ZN7android8hardware4gnss4V1_010BnHwGnssNi4pingEv"
  },
  {
   "name":"_ZN7android8hardware4gnss4V1_010BnHwGnssNiC1ERKNS_2spINS2_7IGnssNiEEE"
  },
  {
   "name":"_ZN7android8hardware4gnss4V1_010BnHwGnssNiC2ERKNS_2spINS2_7IGnssNiEEE"
  },
  {
   "name":"_ZN7android8hardware4gnss4V1_010BnHwGnssNiD0Ev"
  },
  {
   "name":"_ZN7android8hardware4gnss4V1_010BnHwGnssNiD1Ev"
  },
  {
   "name":"_ZN7android8hardware4gnss4V1_010BnHwGnssNiD2Ev"
  },
  {
   "name":"_ZN7android8hardware4gnss4V1_010BpHwGnssNi11linkToDeathERKNS_2spINS0_20hidl_death_recipientEEEm"
  },
  {
   "name":"_ZN7android8hardware4gnss4V1_010BpHwGnssNi11setCallbackERKNS_2spINS2_15IGnssNiCallbackEEE"
  },
  {
   "name":"_ZN7android8hardware4gnss4V1_010BpHwGnssNi12getDebugInfoENSt3__18functionIFvRKNS_4hidl4base4V1_09DebugInfoEEEE"
  },
  {
   "name":"_ZN7android8hardware4gnss4V1_010BpHwGnssNi12getHashChainENSt3__18functionIFvRKNS0_8hidl_vecINS0_10hidl_arrayIhLm32EJEEEEEEEE"
  },
  {
   "name":"_ZN7android8hardware4gnss4V1_010BpHwGnssNi13_hidl_respondEPNS0_10IInterfaceEPNS0_7details16HidlInstrumentorEiNS2_15IGnssNiCallback20GnssUserResponseTypeE"
  },
  {
   "name":"_ZN7android8hardware4gnss4V1_010BpHwGnssNi13unlinkToDeathERKNS_2spINS0_20hidl_death_recipientEEE"
  },
  {
   "name":"_ZN7android8hardware4gnss4V1_010BpHwGnssNi14interfaceChainENSt3__18functionIFvRKNS0_8hidl_vecINS0_11hidl_stringEEEEEE"
  },
  {
   "name":"_ZN7android8hardware4gnss4V1_010BpHwGnssNi17_hidl_setCallbackEPNS0_10IInterfaceEPNS0_7details16HidlInstrumentorERKNS_2spINS2_15IGnssNiCallbackEEE"
  },
  {
   "name":"_ZN7android8hardware4gnss4V1_010BpHwGnssNi19interfaceDescriptorENSt3__18functionIFvRKNS0_11hidl_stringEEEE"
  },
  {
   "name":"_ZN7android8hardware4gnss4V1_010BpHwGnssNi21notifySyspropsChangedEv"
  },
  {
   "name":"_ZN7android8hardware4gnss4V1_010BpHwGnssNi21setHALInstrumentationEv"
  },
  {
   "name":"_ZN7android8hardware4gnss4V1_010BpHwGnssNi4pingEv"
  },
  {
   "name":"_ZN7android8hardware4gnss4V1_010BpHwGnssNi5debugERKNS0_11hidl_handleERKNS0_8hidl_vecINS0_11hidl_stringEEE"
  },
  {
   "name":"_ZN7android8hardware4gnss4V1_010BpHwGnssNi7respondEiNS2_15IGnssNiCallback20GnssUserResponseTypeE"
  },
  {
   "name":"_ZN7android8hardware4gnss4V1_010BpHwGnssNiC1ERKNS_2spINS0_7IBinderEEE"
  },
  {
   "name":"_ZN7android8hardware4gnss4V1_010BpHwGnssNiC2ERKNS_2spINS0_7IBinderEEE"
  },
  {
   "name":"_ZN7android8hardware4gnss4V1_010BsAGnssRil13addOnewayTaskENSt3__18functionIFvvEEE"
  },
  {
   "name":"_ZN7android8hardware4gnss4V1_010BsAGnssRilC1ENS_2spINS2_9IAGnssRilEEE"
  },
  {
   "name":"_ZN7android8hardware4gnss4V1_010BsAGnssRilC2ENS_2spINS2_9IAGnssRilEEE"
  },
  {
   "name":"_ZN7android8hardware4gnss4V1_010BsGnssXtra13addOnewayTaskENSt3__18functionIFvvEEE"
  },
  {
   "name":"_ZN7android8hardware4gnss4V1_010BsGnssXtraC1ENS_2spINS2_9IGnssXtraEEE"
  },
  {
   "name":"_ZN7android8hardware4gnss4V1_010BsGnssXtraC2ENS_2spINS2_9IGnssXtraEEE"
  },
  {
   "name":"_ZN7android8hardware4gnss4V1_010IGnssDebug10getServiceERKNSt3__112basic_stringIcNS4_11char_traitsIcEENS4_9allocatorIcEEEEb"
  },
  {
   "name":"_ZN7android8hardware4gnss4V1_010IGnssDebug11linkToDeathERKNS_2spINS0_20hidl_death_recipientEEEm"
  },
  {
   "name":"_ZN7android8hardware4gnss4V1_010IGnssDebug12getDebugInfoENSt3__18functionIFvRKNS_4hidl4base4V1_09DebugInfoEEEE"
  },
  {
   "name":"_ZN7android8hardware4gnss4V1_010IGnssDebug12getHashChainENSt3__18functionIFvRKNS0_8hidl_vecINS0_10hidl_arrayIhLm32EJEEEEEEEE"
  },
  {
   "name":"_ZN7android8hardware4gnss4V1_010IGnssDebug13tryGetServiceERKNSt3__112basic_stringIcNS4_11char_traitsIcEENS4_9allocatorIcEEEEb"
  },
  {
   "name":"_ZN7android8hardware4gnss4V1_010IGnssDebug13unlinkToDeathERKNS_2spINS0_20hidl_death_recipientEEE"
  },
  {
   "name":"_ZN7android8hardware4gnss4V1_010IGnssDebug14interfaceChainENSt3__18functionIFvRKNS0_8hidl_vecINS0_11hidl_stringEEEEEE"
  },
  {
   "name":"_ZN7android8hardware4gnss4V1_010IGnssDebug17registerAsServiceERKNSt3__112basic_stringIcNS4_11char_traitsIcEENS4_9allocatorIcEEEE"
  },
  {
   "name":"_ZN7android8hardware4gnss4V1_010IGnssDebug19interfaceDescriptorENSt3__18functionIFvRKNS0_11hidl_stringEEEE"
  },
  {
   "name":"_ZN7android8hardware4gnss4V1_010IGnssDebug21notifySyspropsChangedEv"
  },
  {
   "name":"_ZN7android8hardware4gnss4V1_010IGnssDebug21setHALInstrumentationEv"
  },
  {
   "name":"_ZN7android8hardware4gnss4V1_010IGnssDebug24registerForNotificationsERKNSt3__112basic_stringIcNS4_11char_traitsIcEENS4_9allocatorIcEEEERKNS_2spINS_4hidl7manager4V1_020IServiceNotificationEEE"
  },
  {
   "name":"_ZN7android8hardware4gnss4V1_010IGnssDebug4pingEv"
  },
  {
   "name":"_ZN7android8hardware4gnss4V1_010IGnssDebug5debugERKNS0_11hidl_handleERKNS0_8hidl_vecINS0_11hidl_stringEEE"
  },
  {
   "name":"_ZN7android8hardware4gnss4V1_010IGnssDebug8castFromERKNS_2spINS_4hidl4base4V1_05IBaseEEEb"
  },
  {
   "name":"_ZN7android8hardware4gnss4V1_010IGnssDebug8castFromERKNS_2spIS3_EEb"
  },
  {
   "name":"_ZN7android8hardware4gnss4V1_011BsGnssDebug13addOnewayTaskENSt3__18functionIFvvEEE"
  },
  {
   "name":"_ZN7android8hardware4gnss4V1_011BsGnssDebugC1ENS_2spINS2_10IGnssDebugEEE"
  },
  {
   "name":"_ZN7android8hardware4gnss4V1_011BsGnssDebugC2ENS_2spINS2_10IGnssDebugEEE"
  },
  {
   "name":"_ZN7android8hardware4gnss4V1_012BnHwAGnssRil10onTransactEjRKNS0_6ParcelEPS4_jNSt3__18functionIFvRS4_EEE"
  },
  {
   "name":"_ZN7android8hardware4gnss4V1_012BnHwAGnssRil12getDebugInfoENSt3__18functionIFvRKNS_4hidl4base4V1_09DebugInfoEEEE"
  },
  {
   "name":"_ZN7android8hardware4gnss4V1_012BnHwAGnssRil14_hidl_setSetIdEPNS_4hidl4base4V1_08BnHwBaseERKNS0_6ParcelEPS9_NSt3__18functionIFvRS9_EEE"
  },
  {
   "name":"_ZN7android8hardware4gnss4V1_012BnHwAGnssRil17_hidl_setCallbackEPNS_4hidl4base4V1_08BnHwBaseERKNS0_6ParcelEPS9_NSt3__18functionIFvRS9_EEE"
  },
  {
   "name":"_ZN7android8hardware4gnss4V1_012BnHwAGnssRil20_hidl_setRefLocationEPNS_4hidl4base4V1_08BnHwBaseERKNS0_6ParcelEPS9_NSt3__18functionIFvRS9_EEE"
  },
  {
   "name":"_ZN7android8hardware4gnss4V1_012BnHwAGnssRil24_hidl_updateNetworkStateEPNS_4hidl4base4V1_08BnHwBaseERKNS0_6ParcelEPS9_NSt3__18functionIFvRS9_EEE"
  },
  {
   "name":"_ZN7android8hardware4gnss4V1_012BnHwAGnssRil31_hidl_updateNetworkAvailabilityEPNS_4hidl4base4V1_08BnHwBaseERKNS0_6ParcelEPS9_NSt3__18functionIFvRS9_EEE"
  },
  {
   "name":"_ZN7android8hardware4gnss4V1_012BnHwAGnssRil4pingEv"
  },
  {
   "name":"_ZN7android8hardware4gnss4V1_012BnHwAGnssRilC1ERKNS_2spINS2_9IAGnssRilEEE"
  },
  {
   "name":"_ZN7android8hardware4gnss4V1_012BnHwAGnssRilC2ERKNS_2spINS2_9IAGnssRilEEE"
  },
  {
   "name":"_ZN7android8hardware4gnss4V1_012BnHwAGnssRilD0Ev"
  },
  {
   "name":"_ZN7android8hardware4gnss4V1_012BnHwAGnssRilD1Ev"
  },
  {
   "name":"_ZN7android8hardware4gnss4V1_012BnHwAGnssRilD2Ev"
  },
  {
   "name":"_ZN7android8hardware4gnss4V1_012BnHwGnssXtra10onTransactEjRKNS0_6ParcelEPS4_jNSt3__18functionIFvRS4_EEE"
  },
  {
   "name":"_ZN7android8hardware4gnss4V1_012BnHwGnssXtra12getDebugInfoENSt3__18functionIFvRKNS_4hidl4base4V1_09DebugInfoEEEE"
  },
  {
   "name":"_ZN7android8hardware4gnss4V1_012BnHwGnssXtra17_hidl_setCallbackEPNS_4hidl4base4V1_08BnHwBaseERKNS0_6ParcelEPS9_NSt3__18functionIFvRS9_EEE"
  },
  {
   "name":"_ZN7android8hardware4gnss4V1_012BnHwGnssXtra20_hidl_injectXtraDataEPNS_4hidl4base4V1_08BnHwBaseERKNS0_6ParcelEPS9_NSt3__18functionIFvRS9_EEE"
  },
  {
   "name":"_ZN7android8hardware4gnss4V1_012BnHwGnssXtra4pingEv"
  },
  {
   "name":"_ZN7android8hardware4gnss4V1_012BnHwGnssXtraC1ERKNS_2spINS2_9IGnssXtraEEE"
  },
  {
   "name":"_ZN7android8hardware4gnss4V1_012BnHwGnssXtraC2ERKNS_2spINS2_9IGnssXtraEEE"
  },
  {
   "name":"_ZN7android8hardware4gnss4V1_012BnHwGnssXtraD0Ev"
  },
  {
   "name":"_ZN7android8hardware4gnss4V1_012BnHwGnssXtraD1Ev"
  },
  {
   "name":"_ZN7android8hardware4gnss4V1_012BnHwGnssXtraD2Ev"
  },
  {
   "name":"_ZN7android8hardware4gnss4V1_012BpHwAGnssRil11linkToDeathERKNS_2spINS0_20hidl_death_recipientEEEm"
  },
  {
   "name":"_ZN7android8hardware4gnss4V1_012BpHwAGnssRil11setCallbackERKNS_2spINS2_17IAGnssRilCallbackEEE"
  },
  {
   "name":"_ZN7android8hardware4gnss4V1_012BpHwAGnssRil12getDebugInfoENSt3__18functionIFvRKNS_4hidl4base4V1_09DebugInfoEEEE"
  },
  {
   "name":"_ZN7android8hardware4gnss4V1_012BpHwAGnssRil12getHashChainENSt3__18functionIFvRKNS0_8hidl_vecINS0_10hidl_arrayIhLm32EJEEEEEEEE"
  },
  {
   "name":"_ZN7android8hardware4gnss4V1_012BpHwAGnssRil13unlinkToDeathERKNS_2spINS0_20hidl_death_recipientEEE"
  },
  {
   "name":"_ZN7android8hardware4gnss4V1_012BpHwAGnssRil14_hidl_setSetIdEPNS0_10IInterfaceEPNS0_7details16HidlInstrumentorENS2_9IAGnssRil9SetIDTypeERKNS0_11hidl_stringE"
  },
  {
   "name":"_ZN7android8hardware4gnss4V1_012BpHwAGnssRil14interfaceChainENSt3__18functionIFvRKNS0_8hidl_vecINS0_11hidl_stringEEEEEE"
  },
  {
   "name":"_ZN7android8hardware4gnss4V1_012BpHwAGnssRil14setRefLocationERKNS2_9IAGnssRil16AGnssRefLocationE"
  },
  {
   "name":"_ZN7android8hardware4gnss4V1_012BpHwAGnssRil17_hidl_setCallbackEPNS0_10IInterfaceEPNS0_7details16HidlInstrumentorERKNS_2spINS2_17IAGnssRilCallbackEEE"
  },
  {
   "name":"_ZN7android8hardware4gnss4V1_012BpHwAGnssRil18updateNetworkStateEbNS2_9IAGnssRil11NetworkTypeEb"
  },
  {
   "name":"_ZN7android8hardware4gnss4V1_012BpHwAGnssRil19interfaceDescriptorENSt3__18functionIFvRKNS0_11hidl_stringEEEE"
  },
  {
   "name":"_ZN7android8hardware4gnss4V1_012BpHwAGnssRil20_hidl_setRefLocationEPNS0_10IInterfaceEPNS0_7details16HidlInstrumentorERKNS2_9IAGnssRil16AGnssRefLocationE"
  },
  {
   "name":"_ZN7android8hardware4gnss4V1_012BpHwAGnssRil21notifySyspropsChangedEv"
  },
  {
   "name":"_ZN7android8hardware4gnss4V1_012BpHwAGnssRil21setHALInstrumentationEv"
  },
  {
   "name":"_ZN7android8hardware4gnss4V1_012BpHwAGnssRil24_hidl_updateNetworkStateEPNS0_10IInterfaceEPNS0_7details16HidlInstrumentorEbNS2_9IAGnssRil11NetworkTypeEb"
  },
  {
   "name":"_ZN7android8hardware4gnss4V1_012BpHwAGnssRil25updateNetworkAvailabilityEbRKNS0_11hidl_stringE"
  },
  {
   "name":"_ZN7android8hardware4gnss4V1_012BpHwAGnssRil31_hidl_updateNetworkAvailabilityEPNS0_10IInterfaceEPNS0_7details16HidlInstrumentorEbRKNS0_11hidl_stringE"
  },
  {
   "name":"_ZN7android8hardware4gnss4V1_012BpHwAGnssRil4pingEv"
  },
  {
   "name":"_ZN7android8hardware4gnss4V1_012BpHwAGnssRil5debugERKNS0_11hidl_handleERKNS0_8hidl_vecINS0_11hidl_stringEEE"
  },
  {
   "name":"_ZN7android8hardware4gnss4V1_012BpHwAGnssRil8setSetIdENS2_9IAGnssRil9SetIDTypeERKNS0_11hidl_stringE"
  },
  {
   "name":"_ZN7android8hardware4gnss4V1_012BpHwAGnssRilC1ERKNS_2spINS0_7IBinderEEE"
  },
  {
   "name":"_ZN7android8hardware4gnss4V1_012BpHwAGnssRilC2ERKNS_2spINS0_7IBinderEEE"
  },
  {
   "name":"_ZN7android8hardware4gnss4V1_012BpHwGnssXtra11linkToDeathERKNS_2spINS0_20hidl_death_recipientEEEm"
  },
  {
   "name":"_ZN7android8hardware4gnss4V1_012BpHwGnssXtra11setCallbackERKNS_2spINS2_17IGnssXtraCallbackEEE"
  },
  {
   "name":"_ZN7android8hardware4gnss4V1_012BpHwGnssXtra12getDebugInfoENSt3__18functionIFvRKNS_4hidl4base4V1_09DebugInfoEEEE"
  },
  {
   "name":"_ZN7android8hardware4gnss4V1_012BpHwGnssXtra12getHashChainENSt3__18functionIFvRKNS0_8hidl_vecINS0_10hidl_arrayIhLm32EJEEEEEEEE"
  },
  {
   "name":"_ZN7android8hardware4gnss4V1_012BpHwGnssXtra13unlinkToDeathERKNS_2spINS0_20hidl_death_recipientEEE"
  },
  {
   "name":"_ZN7android8hardware4gnss4V1_012BpHwGnssXtra14injectXtraDataERKNS0_11hidl_stringE"
  },
  {
   "name":"_ZN7android8hardware4gnss4V1_012BpHwGnssXtra14interfaceChainENSt3__18functionIFvRKNS0_8hidl_vecINS0_11hidl_stringEEEEEE"
  },
  {
   "name":"_ZN7android8hardware4gnss4V1_012BpHwGnssXtra17_hidl_setCallbackEPNS0_10IInterfaceEPNS0_7details16HidlInstrumentorERKNS_2spINS2_17IGnssXtraCallbackEEE"
  },
  {
   "name":"_ZN7android8hardware4gnss4V1_012BpHwGnssXtra19interfaceDescriptorENSt3__18functionIFvRKNS0_11hidl_stringEEEE"
  },
  {
   "name":"_ZN7android8hardware4gnss4V1_012BpHwGnssXtra20_hidl_injectXtraDataEPNS0_10IInterfaceEPNS0_7details16HidlInstrumentorERKNS0_11hidl_stringE"
  },
  {
   "name":"_ZN7android8hardware4gnss4V1_012BpHwGnssXtra21notifySyspropsChangedEv"
  },
  {
   "name":"_ZN7android8hardware4gnss4V1_012BpHwGnssXtra21setHALInstrumentationEv"
  },
  {
   "name":"_ZN7android8hardware4gnss4V1_012BpHwGnssXtra4pingEv"
  },
  {
   "name":"_ZN7android8hardware4gnss4V1_012BpHwGnssXtra5debugERKNS0_11hidl_handleERKNS0_8hidl_vecINS0_11hidl_stringEEE"
  },
  {
   "name":"_ZN7android8hardware4gnss4V1_012BpHwGnssXtraC1ERKNS_2spINS0_7IBinderEEE"
  },
  {
   "name":"_ZN7android8hardware4gnss4V1_012BpHwGnssXtraC2ERKNS_2spINS0_7IBinderEEE"
  },
  {
   "name":"_ZN7android8hardware4gnss4V1_013BnHwGnssDebug10onTransactEjRKNS0_6ParcelEPS4_jNSt3__18functionIFvRS4_EEE"
  },
  {
   "name":"_ZN7android8hardware4gnss4V1_013BnHwGnssDebug12getDebugInfoENSt3__18functionIFvRKNS_4hidl4base4V1_09DebugInfoEEEE"
  },
  {
   "name":"_ZN7android8hardware4gnss4V1_013BnHwGnssDebug18_hidl_getDebugDataEPNS_4hidl4base4V1_08BnHwBaseERKNS0_6ParcelEPS9_NSt3__18functionIFvRS9_EEE"
  },
  {
   "name":"_ZN7android8hardware4gnss4V1_013BnHwGnssDebug4pingEv"
  },
  {
   "name":"_ZN7android8hardware4gnss4V1_013BnHwGnssDebugC1ERKNS_2spINS2_10IGnssDebugEEE"
  },
  {
   "name":"_ZN7android8hardware4gnss4V1_013BnHwGnssDebugC2ERKNS_2spINS2_10IGnssDebugEEE"
  },
  {
   "name":"_ZN7android8hardware4gnss4V1_013BnHwGnssDebugD0Ev"
  },
  {
   "name":"_ZN7android8hardware4gnss4V1_013BnHwGnssDebugD1Ev"
  },
  {
   "name":"_ZN7android8hardware4gnss4V1_013BnHwGnssDebugD2Ev"
  },
  {
   "name":"_ZN7android8hardware4gnss4V1_013BpHwGnssDebug11linkToDeathERKNS_2spINS0_20hidl_death_recipientEEEm"
  },
  {
   "name":"_ZN7android8hardware4gnss4V1_013BpHwGnssDebug12getDebugDataENSt3__18functionIFvRKNS2_10IGnssDebug9DebugDataEEEE"
  },
  {
   "name":"_ZN7android8hardware4gnss4V1_013BpHwGnssDebug12getDebugInfoENSt3__18functionIFvRKNS_4hidl4base4V1_09DebugInfoEEEE"
  },
  {
   "name":"_ZN7android8hardware4gnss4V1_013BpHwGnssDebug12getHashChainENSt3__18functionIFvRKNS0_8hidl_vecINS0_10hidl_arrayIhLm32EJEEEEEEEE"
  },
  {
   "name":"_ZN7android8hardware4gnss4V1_013BpHwGnssDebug13unlinkToDeathERKNS_2spINS0_20hidl_death_recipientEEE"
  },
  {
   "name":"_ZN7android8hardware4gnss4V1_013BpHwGnssDebug14interfaceChainENSt3__18functionIFvRKNS0_8hidl_vecINS0_11hidl_stringEEEEEE"
  },
  {
   "name":"_ZN7android8hardware4gnss4V1_013BpHwGnssDebug18_hidl_getDebugDataEPNS0_10IInterfaceEPNS0_7details16HidlInstrumentorENSt3__18functionIFvRKNS2_10IGnssDebug9DebugDataEEEE"
  },
  {
   "name":"_ZN7android8hardware4gnss4V1_013BpHwGnssDebug19interfaceDescriptorENSt3__18functionIFvRKNS0_11hidl_stringEEEE"
  },
  {
   "name":"_ZN7android8hardware4gnss4V1_013BpHwGnssDebug21notifySyspropsChangedEv"
  },
  {
   "name":"_ZN7android8hardware4gnss4V1_013BpHwGnssDebug21setHALInstrumentationEv"
  },
  {
   "name":"_ZN7android8hardware4gnss4V1_013BpHwGnssDebug4pingEv"
  },
  {
   "name":"_ZN7android8hardware4gnss4V1_013BpHwGnssDebug5debugERKNS0_11hidl_handleERKNS0_8hidl_vecINS0_11hidl_stringEEE"
  },
  {
   "name":"_ZN7android8hardware4gnss4V1_013BpHwGnssDebugC1ERKNS_2spINS0_7IBinderEEE"
  },
  {
   "name":"_ZN7android8hardware4gnss4V1_013BpHwGnssDebugC2ERKNS_2spINS0_7IBinderEEE"
  },
  {
   "name":"_ZN7android8hardware4gnss4V1_013IGnssBatching10getServiceERKNSt3__112basic_stringIcNS4_11char_traitsIcEENS4_9allocatorIcEEEEb"
  },
  {
   "name":"_ZN7android8hardware4gnss4V1_013IGnssBatching11linkToDeathERKNS_2spINS0_20hidl_death_recipientEEEm"
  },
  {
   "name":"_ZN7android8hardware4gnss4V1_013IGnssBatching12getDebugInfoENSt3__18functionIFvRKNS_4hidl4base4V1_09DebugInfoEEEE"
  },
  {
   "name":"_ZN7android8hardware4gnss4V1_013IGnssBatching12getHashChainENSt3__18functionIFvRKNS0_8hidl_vecINS0_10hidl_arrayIhLm32EJEEEEEEEE"
  },
  {
   "name":"_ZN7android8hardware4gnss4V1_013IGnssBatching13tryGetServiceERKNSt3__112basic_stringIcNS4_11char_traitsIcEENS4_9allocatorIcEEEEb"
  },
  {
   "name":"_ZN7android8hardware4gnss4V1_013IGnssBatching13unlinkToDeathERKNS_2spINS0_20hidl_death_recipientEEE"
  },
  {
   "name":"_ZN7android8hardware4gnss4V1_013IGnssBatching14interfaceChainENSt3__18functionIFvRKNS0_8hidl_vecINS0_11hidl_stringEEEEEE"
  },
  {
   "name":"_ZN7android8hardware4gnss4V1_013IGnssBatching17registerAsServiceERKNSt3__112basic_stringIcNS4_11char_traitsIcEENS4_9allocatorIcEEEE"
  },
  {
   "name":"_ZN7android8hardware4gnss4V1_013IGnssBatching19interfaceDescriptorENSt3__18functionIFvRKNS0_11hidl_stringEEEE"
  },
  {
   "name":"_ZN7android8hardware4gnss4V1_013IGnssBatching21notifySyspropsChangedEv"
  },
  {
   "name":"_ZN7android8hardware4gnss4V1_013IGnssBatching21setHALInstrumentationEv"
  },
  {
   "name":"_ZN7android8hardware4gnss4V1_013IGnssBatching24registerForNotificationsERKNSt3__112basic_stringIcNS4_11char_traitsIcEENS4_9allocatorIcEEEERKNS_2spINS_4hidl7manager4V1_020IServiceNotificationEEE"
  },
  {
   "name":"_ZN7android8hardware4gnss4V1_013IGnssBatching4pingEv"
  },
  {
   "name":"_ZN7android8hardware4gnss4V1_013IGnssBatching5debugERKNS0_11hidl_handleERKNS0_8hidl_vecINS0_11hidl_stringEEE"
  },
  {
   "name":"_ZN7android8hardware4gnss4V1_013IGnssBatching8castFromERKNS_2spINS_4hidl4base4V1_05IBaseEEEb"
  },
  {
   "name":"_ZN7android8hardware4gnss4V1_013IGnssBatching8castFromERKNS_2spIS3_EEb"
  },
  {
   "name":"_ZN7android8hardware4gnss4V1_013IGnssCallback10getServiceERKNSt3__112basic_stringIcNS4_11char_traitsIcEENS4_9allocatorIcEEEEb"
  },
  {
   "name":"_ZN7android8hardware4gnss4V1_013IGnssCallback11linkToDeathERKNS_2spINS0_20hidl_death_recipientEEEm"
  },
  {
   "name":"_ZN7android8hardware4gnss4V1_013IGnssCallback12getDebugInfoENSt3__18functionIFvRKNS_4hidl4base4V1_09DebugInfoEEEE"
  },
  {
   "name":"_ZN7android8hardware4gnss4V1_013IGnssCallback12getHashChainENSt3__18functionIFvRKNS0_8hidl_vecINS0_10hidl_arrayIhLm32EJEEEEEEEE"
  },
  {
   "name":"_ZN7android8hardware4gnss4V1_013IGnssCallback13tryGetServiceERKNSt3__112basic_stringIcNS4_11char_traitsIcEENS4_9allocatorIcEEEEb"
  },
  {
   "name":"_ZN7android8hardware4gnss4V1_013IGnssCallback13unlinkToDeathERKNS_2spINS0_20hidl_death_recipientEEE"
  },
  {
   "name":"_ZN7android8hardware4gnss4V1_013IGnssCallback14interfaceChainENSt3__18functionIFvRKNS0_8hidl_vecINS0_11hidl_stringEEEEEE"
  },
  {
   "name":"_ZN7android8hardware4gnss4V1_013IGnssCallback17registerAsServiceERKNSt3__112basic_stringIcNS4_11char_traitsIcEENS4_9allocatorIcEEEE"
  },
  {
   "name":"_ZN7android8hardware4gnss4V1_013IGnssCallback19interfaceDescriptorENSt3__18functionIFvRKNS0_11hidl_stringEEEE"
  },
  {
   "name":"_ZN7android8hardware4gnss4V1_013IGnssCallback21notifySyspropsChangedEv"
  },
  {
   "name":"_ZN7android8hardware4gnss4V1_013IGnssCallback21setHALInstrumentationEv"
  },
  {
   "name":"_ZN7android8hardware4gnss4V1_013IGnssCallback24registerForNotificationsERKNSt3__112basic_stringIcNS4_11char_traitsIcEENS4_9allocatorIcEEEERKNS_2spINS_4hidl7manager4V1_020IServiceNotificationEEE"
  },
  {
   "name":"_ZN7android8hardware4gnss4V1_013IGnssCallback4pingEv"
  },
  {
   "name":"_ZN7android8hardware4gnss4V1_013IGnssCallback5debugERKNS0_11hidl_handleERKNS0_8hidl_vecINS0_11hidl_stringEEE"
  },
  {
   "name":"_ZN7android8hardware4gnss4V1_013IGnssCallback8castFromERKNS_2spINS_4hidl4base4V1_05IBaseEEEb"
  },
  {
   "name":"_ZN7android8hardware4gnss4V1_013IGnssCallback8castFromERKNS_2spIS3_EEb"
  },
  {
   "name":"_ZN7android8hardware4gnss4V1_014BsGnssBatching13addOnewayTaskENSt3__18functionIFvvEEE"
  },
  {
   "name":"_ZN7android8hardware4gnss4V1_014BsGnssBatchingC1ENS_2spINS2_13IGnssBatchingEEE"
  },
  {
   "name":"_ZN7android8hardware4gnss4V1_014BsGnssBatchingC2ENS_2spINS2_13IGnssBatchingEEE"
  },
  {
   "name":"_ZN7android8hardware4gnss4V1_014BsGnssCallback13addOnewayTaskENSt3__18functionIFvvEEE"
  },
  {
   "name":"_ZN7android8hardware4gnss4V1_014BsGnssCallbackC1ENS_2spINS2_13IGnssCallbackEEE"
  },
  {
   "name":"_ZN7android8hardware4gnss4V1_014BsGnssCallbackC2ENS_2spINS2_13IGnssCallbackEEE"
  },
  {
   "name":"_ZN7android8hardware4gnss4V1_014IAGnssCallback10getServiceERKNSt3__112basic_stringIcNS4_11char_traitsIcEENS4_9allocatorIcEEEEb"
  },
  {
   "name":"_ZN7android8hardware4gnss4V1_014IAGnssCallback11linkToDeathERKNS_2spINS0_20hidl_death_recipientEEEm"
  },
  {
   "name":"_ZN7android8hardware4gnss4V1_014IAGnssCallback12getDebugInfoENSt3__18functionIFvRKNS_4hidl4base4V1_09DebugInfoEEEE"
  },
  {
   "name":"_ZN7android8hardware4gnss4V1_014IAGnssCallback12getHashChainENSt3__18functionIFvRKNS0_8hidl_vecINS0_10hidl_arrayIhLm32EJEEEEEEEE"
  },
  {
   "name":"_ZN7android8hardware4gnss4V1_014IAGnssCallback13tryGetServiceERKNSt3__112basic_stringIcNS4_11char_traitsIcEENS4_9allocatorIcEEEEb"
  },
  {
   "name":"_ZN7android8hardware4gnss4V1_014IAGnssCallback13unlinkToDeathERKNS_2spINS0_20hidl_death_recipientEEE"
  },
  {
   "name":"_ZN7android8hardware4gnss4V1_014IAGnssCallback14interfaceChainENSt3__18functionIFvRKNS0_8hidl_vecINS0_11hidl_stringEEEEEE"
  },
  {
   "name":"_ZN7android8hardware4gnss4V1_014IAGnssCallback17registerAsServiceERKNSt3__112basic_stringIcNS4_11char_traitsIcEENS4_9allocatorIcEEEE"
  },
  {
   "name":"_ZN7android8hardware4gnss4V1_014IAGnssCallback19interfaceDescriptorENSt3__18functionIFvRKNS0_11hidl_stringEEEE"
  },
  {
   "name":"_ZN7android8hardware4gnss4V1_014IAGnssCallback21notifySyspropsChangedEv"
  },
  {
   "name":"_ZN7android8hardware4gnss4V1_014IAGnssCallback21setHALInstrumentationEv"
  },
  {
   "name":"_ZN7android8hardware4gnss4V1_014IAGnssCallback24registerForNotificationsERKNSt3__112basic_stringIcNS4_11char_traitsIcEENS4_9allocatorIcEEEERKNS_2spINS_4hidl7manager4V1_020IServiceNotificationEEE"
  },
  {
   "name":"_ZN7android8hardware4gnss4V1_014IAGnssCallback4pingEv"
  },
  {
   "name":"_ZN7android8hardware4gnss4V1_014IAGnssCallback5debugERKNS0_11hidl_handleERKNS0_8hidl_vecINS0_11hidl_stringEEE"
  },
  {
   "name":"_ZN7android8hardware4gnss4V1_014IAGnssCallback8castFromERKNS_2spINS_4hidl4base4V1_05IBaseEEEb"
  },
  {
   "name":"_ZN7android8hardware4gnss4V1_014IAGnssCallback8castFromERKNS_2spIS3_EEb"
  },
  {
   "name":"_ZN7android8hardware4gnss4V1_015BsAGnssCallback13addOnewayTaskENSt3__18functionIFvvEEE"
  },
  {
   "name":"_ZN7android8hardware4gnss4V1_015BsAGnssCallbackC1ENS_2spINS2_14IAGnssCallbackEEE"
  },
  {
   "name":"_ZN7android8hardware4gnss4V1_015BsAGnssCallbackC2ENS_2spINS2_14IAGnssCallbackEEE"
  },
  {
   "name":"_ZN7android8hardware4gnss4V1_015IGnssGeofencing10getServiceERKNSt3__112basic_stringIcNS4_11char_traitsIcEENS4_9allocatorIcEEEEb"
  },
  {
   "name":"_ZN7android8hardware4gnss4V1_015IGnssGeofencing11linkToDeathERKNS_2spINS0_20hidl_death_recipientEEEm"
  },
  {
   "name":"_ZN7android8hardware4gnss4V1_015IGnssGeofencing12getDebugInfoENSt3__18functionIFvRKNS_4hidl4base4V1_09DebugInfoEEEE"
  },
  {
   "name":"_ZN7android8hardware4gnss4V1_015IGnssGeofencing12getHashChainENSt3__18functionIFvRKNS0_8hidl_vecINS0_10hidl_arrayIhLm32EJEEEEEEEE"
  },
  {
   "name":"_ZN7android8hardware4gnss4V1_015IGnssGeofencing13tryGetServiceERKNSt3__112basic_stringIcNS4_11char_traitsIcEENS4_9allocatorIcEEEEb"
  },
  {
   "name":"_ZN7android8hardware4gnss4V1_015IGnssGeofencing13unlinkToDeathERKNS_2spINS0_20hidl_death_recipientEEE"
  },
  {
   "name":"_ZN7android8hardware4gnss4V1_015IGnssGeofencing14interfaceChainENSt3__18functionIFvRKNS0_8hidl_vecINS0_11hidl_stringEEEEEE"
  },
  {
   "name":"_ZN7android8hardware4gnss4V1_015IGnssGeofencing17registerAsServiceERKNSt3__112basic_stringIcNS4_11char_traitsIcEENS4_9allocatorIcEEEE"
  },
  {
   "name":"_ZN7android8hardware4gnss4V1_015IGnssGeofencing19interfaceDescriptorENSt3__18functionIFvRKNS0_11hidl_stringEEEE"
  },
  {
   "name":"_ZN7android8hardware4gnss4V1_015IGnssGeofencing21notifySyspropsChangedEv"
  },
  {
   "name":"_ZN7android8hardware4gnss4V1_015IGnssGeofencing21setHALInstrumentationEv"
  },
  {
   "name":"_ZN7android8hardware4gnss4V1_015IGnssGeofencing24registerForNotificationsERKNSt3__112basic_stringIcNS4_11char_traitsIcEENS4_9allocatorIcEEEERKNS_2spINS_4hidl7manager4V1_020IServiceNotificationEEE"
  },
  {
   "name":"_ZN7android8hardware4gnss4V1_015IGnssGeofencing4pingEv"
  },
  {
   "name":"_ZN7android8hardware4gnss4V1_015IGnssGeofencing5debugERKNS0_11hidl_handleERKNS0_8hidl_vecINS0_11hidl_stringEEE"
  },
  {
   "name":"_ZN7android8hardware4gnss4V1_015IGnssGeofencing8castFromERKNS_2spINS_4hidl4base4V1_05IBaseEEEb"
  },
  {
   "name":"_ZN7android8hardware4gnss4V1_015IGnssGeofencing8castFromERKNS_2spIS3_EEb"
  },
  {
   "name":"_ZN7android8hardware4gnss4V1_015IGnssNiCallback10getServiceERKNSt3__112basic_stringIcNS4_11char_traitsIcEENS4_9allocatorIcEEEEb"
  },
  {
   "name":"_ZN7android8hardware4gnss4V1_015IGnssNiCallback11linkToDeathERKNS_2spINS0_20hidl_death_recipientEEEm"
  },
  {
   "name":"_ZN7android8hardware4gnss4V1_015IGnssNiCallback12getDebugInfoENSt3__18functionIFvRKNS_4hidl4base4V1_09DebugInfoEEEE"
  },
  {
   "name":"_ZN7android8hardware4gnss4V1_015IGnssNiCallback12getHashChainENSt3__18functionIFvRKNS0_8hidl_vecINS0_10hidl_arrayIhLm32EJEEEEEEEE"
  },
  {
   "name":"_ZN7android8hardware4gnss4V1_015IGnssNiCallback13tryGetServiceERKNSt3__112basic_stringIcNS4_11char_traitsIcEENS4_9allocatorIcEEEEb"
  },
  {
   "name":"_ZN7android8hardware4gnss4V1_015IGnssNiCallback13unlinkToDeathERKNS_2spINS0_20hidl_death_recipientEEE"
  },
  {
   "name":"_ZN7android8hardware4gnss4V1_015IGnssNiCallback14interfaceChainENSt3__18functionIFvRKNS0_8hidl_vecINS0_11hidl_stringEEEEEE"
  },
  {
   "name":"_ZN7android8hardware4gnss4V1_015IGnssNiCallback17registerAsServiceERKNSt3__112basic_stringIcNS4_11char_traitsIcEENS4_9allocatorIcEEEE"
  },
  {
   "name":"_ZN7android8hardware4gnss4V1_015IGnssNiCallback19interfaceDescriptorENSt3__18functionIFvRKNS0_11hidl_stringEEEE"
  },
  {
   "name":"_ZN7android8hardware4gnss4V1_015IGnssNiCallback21notifySyspropsChangedEv"
  },
  {
   "name":"_ZN7android8hardware4gnss4V1_015IGnssNiCallback21setHALInstrumentationEv"
  },
  {
   "name":"_ZN7android8hardware4gnss4V1_015IGnssNiCallback24registerForNotificationsERKNSt3__112basic_stringIcNS4_11char_traitsIcEENS4_9allocatorIcEEEERKNS_2spINS_4hidl7manager4V1_020IServiceNotificationEEE"
  },
  {
   "name":"_ZN7android8hardware4gnss4V1_015IGnssNiCallback4pingEv"
  },
  {
   "name":"_ZN7android8hardware4gnss4V1_015IGnssNiCallback5debugERKNS0_11hidl_handleERKNS0_8hidl_vecINS0_11hidl_stringEEE"
  },
  {
   "name":"_ZN7android8hardware4gnss4V1_015IGnssNiCallback8castFromERKNS_2spINS_4hidl4base4V1_05IBaseEEEb"
  },
  {
   "name":"_ZN7android8hardware4gnss4V1_015IGnssNiCallback8castFromERKNS_2spIS3_EEb"
  },
  {
   "name":"_ZN7android8hardware4gnss4V1_016BnHwGnssBatching10_hidl_initEPNS_4hidl4base4V1_08BnHwBaseERKNS0_6ParcelEPS9_NSt3__18functionIFvRS9_EEE"
  },
  {
   "name":"_ZN7android8hardware4gnss4V1_016BnHwGnssBatching10_hidl_stopEPNS_4hidl4base4V1_08BnHwBaseERKNS0_6ParcelEPS9_NSt3__18functionIFvRS9_EEE"
  },
  {
   "name":"_ZN7android8hardware4gnss4V1_016BnHwGnssBatching10onTransactEjRKNS0_6ParcelEPS4_jNSt3__18functionIFvRS4_EEE"
  },
  {
   "name":"_ZN7android8hardware4gnss4V1_016BnHwGnssBatching11_hidl_flushEPNS_4hidl4base4V1_08BnHwBaseERKNS0_6ParcelEPS9_NSt3__18functionIFvRS9_EEE"
  },
  {
   "name":"_ZN7android8hardware4gnss4V1_016BnHwGnssBatching11_hidl_startEPNS_4hidl4base4V1_08BnHwBaseERKNS0_6ParcelEPS9_NSt3__18functionIFvRS9_EEE"
  },
  {
   "name":"_ZN7android8hardware4gnss4V1_016BnHwGnssBatching12getDebugInfoENSt3__18functionIFvRKNS_4hidl4base4V1_09DebugInfoEEEE"
  },
  {
   "name":"_ZN7android8hardware4gnss4V1_016BnHwGnssBatching13_hidl_cleanupEPNS_4hidl4base4V1_08BnHwBaseERKNS0_6ParcelEPS9_NSt3__18functionIFvRS9_EEE"
  },
  {
   "name":"_ZN7android8hardware4gnss4V1_016BnHwGnssBatching18_hidl_getBatchSizeEPNS_4hidl4base4V1_08BnHwBaseERKNS0_6ParcelEPS9_NSt3__18functionIFvRS9_EEE"
  },
  {
   "name":"_ZN7android8hardware4gnss4V1_016BnHwGnssBatching4pingEv"
  },
  {
   "name":"_ZN7android8hardware4gnss4V1_016BnHwGnssBatchingC1ERKNS_2spINS2_13IGnssBatchingEEE"
  },
  {
   "name":"_ZN7android8hardware4gnss4V1_016BnHwGnssBatchingC2ERKNS_2spINS2_13IGnssBatchingEEE"
  },
  {
   "name":"_ZN7android8hardware4gnss4V1_016BnHwGnssBatchingD0Ev"
  },
  {
   "name":"_ZN7android8hardware4gnss4V1_016BnHwGnssBatchingD1Ev"
  },
  {
   "name":"_ZN7android8hardware4gnss4V1_016BnHwGnssBatchingD2Ev"
  },
  {
   "name":"_ZN7android8hardware4gnss4V1_016BnHwGnssCallback10onTransactEjRKNS0_6ParcelEPS4_jNSt3__18functionIFvRS4_EEE"
  },
  {
   "name":"_ZN7android8hardware4gnss4V1_016BnHwGnssCallback12getDebugInfoENSt3__18functionIFvRKNS_4hidl4base4V1_09DebugInfoEEEE"
  },
  {
   "name":"_ZN7android8hardware4gnss4V1_016BnHwGnssCallback16_hidl_gnssNmeaCbEPNS_4hidl4base4V1_08BnHwBaseERKNS0_6ParcelEPS9_NSt3__18functionIFvRS9_EEE"
  },
  {
   "name":"_ZN7android8hardware4gnss4V1_016BnHwGnssCallback18_hidl_gnssStatusCbEPNS_4hidl4base4V1_08BnHwBaseERKNS0_6ParcelEPS9_NSt3__18functionIFvRS9_EEE"
  },
  {
   "name":"_ZN7android8hardware4gnss4V1_016BnHwGnssCallback20_hidl_gnssLocationCbEPNS_4hidl4base4V1_08BnHwBaseERKNS0_6ParcelEPS9_NSt3__18functionIFvRS9_EEE"
  },
  {
   "name":"_ZN7android8hardware4gnss4V1_016BnHwGnssCallback20_hidl_gnssSvStatusCbEPNS_4hidl4base4V1_08BnHwBaseERKNS0_6ParcelEPS9_NSt3__18functionIFvRS9_EEE"
  },
  {
   "name":"_ZN7android8hardware4gnss4V1_016BnHwGnssCallback23_hidl_gnssRequestTimeCbEPNS_4hidl4base4V1_08BnHwBaseERKNS0_6ParcelEPS9_NSt3__18functionIFvRS9_EEE"
  },
  {
   "name":"_ZN7android8hardware4gnss4V1_016BnHwGnssCallback25_hidl_gnssSetSystemInfoCbEPNS_4hidl4base4V1_08BnHwBaseERKNS0_6ParcelEPS9_NSt3__18functionIFvRS9_EEE"
  },
  {
   "name":"_ZN7android8hardware4gnss4V1_016BnHwGnssCallback26_hidl_gnssSetCapabilitesCbEPNS_4hidl4base4V1_08BnHwBaseERKNS0_6ParcelEPS9_NSt3__18functionIFvRS9_EEE"
  },
  {
   "name":"_ZN7android8hardware4gnss4V1_016BnHwGnssCallback27_hidl_gnssAcquireWakelockCbEPNS_4hidl4base4V1_08BnHwBaseERKNS0_6ParcelEPS9_NSt3__18functionIFvRS9_EEE"
  },
  {
   "name":"_ZN7android8hardware4gnss4V1_016BnHwGnssCallback27_hidl_gnssReleaseWakelockCbEPNS_4hidl4base4V1_08BnHwBaseERKNS0_6ParcelEPS9_NSt3__18functionIFvRS9_EEE"
  },
  {
   "name":"_ZN7android8hardware4gnss4V1_016BnHwGnssCallback4pingEv"
  },
  {
   "name":"_ZN7android8hardware4gnss4V1_016BnHwGnssCallbackC1ERKNS_2spINS2_13IGnssCallbackEEE"
  },
  {
   "name":"_ZN7android8hardware4gnss4V1_016BnHwGnssCallbackC2ERKNS_2spINS2_13IGnssCallbackEEE"
  },
  {
   "name":"_ZN7android8hardware4gnss4V1_016BnHwGnssCallbackD0Ev"
  },
  {
   "name":"_ZN7android8hardware4gnss4V1_016BnHwGnssCallbackD1Ev"
  },
  {
   "name":"_ZN7android8hardware4gnss4V1_016BnHwGnssCallbackD2Ev"
  },
  {
   "name":"_ZN7android8hardware4gnss4V1_016BpHwGnssBatching10_hidl_initEPNS0_10IInterfaceEPNS0_7details16HidlInstrumentorERKNS_2spINS2_21IGnssBatchingCallbackEEE"
  },
  {
   "name":"_ZN7android8hardware4gnss4V1_016BpHwGnssBatching10_hidl_stopEPNS0_10IInterfaceEPNS0_7details16HidlInstrumentorE"
  },
  {
   "name":"_ZN7android8hardware4gnss4V1_016BpHwGnssBatching11_hidl_flushEPNS0_10IInterfaceEPNS0_7details16HidlInstrumentorE"
  },
  {
   "name":"_ZN7android8hardware4gnss4V1_016BpHwGnssBatching11_hidl_startEPNS0_10IInterfaceEPNS0_7details16HidlInstrumentorERKNS2_13IGnssBatching7OptionsE"
  },
  {
   "name":"_ZN7android8hardware4gnss4V1_016BpHwGnssBatching11linkToDeathERKNS_2spINS0_20hidl_death_recipientEEEm"
  },
  {
   "name":"_ZN7android8hardware4gnss4V1_016BpHwGnssBatching12getBatchSizeEv"
  },
  {
   "name":"_ZN7android8hardware4gnss4V1_016BpHwGnssBatching12getDebugInfoENSt3__18functionIFvRKNS_4hidl4base4V1_09DebugInfoEEEE"
  },
  {
   "name":"_ZN7android8hardware4gnss4V1_016BpHwGnssBatching12getHashChainENSt3__18functionIFvRKNS0_8hidl_vecINS0_10hidl_arrayIhLm32EJEEEEEEEE"
  },
  {
   "name":"_ZN7android8hardware4gnss4V1_016BpHwGnssBatching13_hidl_cleanupEPNS0_10IInterfaceEPNS0_7details16HidlInstrumentorE"
  },
  {
   "name":"_ZN7android8hardware4gnss4V1_016BpHwGnssBatching13unlinkToDeathERKNS_2spINS0_20hidl_death_recipientEEE"
  },
  {
   "name":"_ZN7android8hardware4gnss4V1_016BpHwGnssBatching14interfaceChainENSt3__18functionIFvRKNS0_8hidl_vecINS0_11hidl_stringEEEEEE"
  },
  {
   "name":"_ZN7android8hardware4gnss4V1_016BpHwGnssBatching18_hidl_getBatchSizeEPNS0_10IInterfaceEPNS0_7details16HidlInstrumentorE"
  },
  {
   "name":"_ZN7android8hardware4gnss4V1_016BpHwGnssBatching19interfaceDescriptorENSt3__18functionIFvRKNS0_11hidl_stringEEEE"
  },
  {
   "name":"_ZN7android8hardware4gnss4V1_016BpHwGnssBatching21notifySyspropsChangedEv"
  },
  {
   "name":"_ZN7android8hardware4gnss4V1_016BpHwGnssBatching21setHALInstrumentationEv"
  },
  {
   "name":"_ZN7android8hardware4gnss4V1_016BpHwGnssBatching4initERKNS_2spINS2_21IGnssBatchingCallbackEEE"
  },
  {
   "name":"_ZN7android8hardware4gnss4V1_016BpHwGnssBatching4pingEv"
  },
  {
   "name":"_ZN7android8hardware4gnss4V1_016BpHwGnssBatching4stopEv"
  },
  {
   "name":"_ZN7android8hardware4gnss4V1_016BpHwGnssBatching5debugERKNS0_11hidl_handleERKNS0_8hidl_vecINS0_11hidl_stringEEE"
  },
  {
   "name":"_ZN7android8hardware4gnss4V1_016BpHwGnssBatching5flushEv"
  },
  {
   "name":"_ZN7android8hardware4gnss4V1_016BpHwGnssBatching5startERKNS2_13IGnssBatching7OptionsE"
  },
  {
   "name":"_ZN7android8hardware4gnss4V1_016BpHwGnssBatching7cleanupEv"
  },
  {
   "name":"_ZN7android8hardware4gnss4V1_016BpHwGnssBatchingC1ERKNS_2spINS0_7IBinderEEE"
  },
  {
   "name":"_ZN7android8hardware4gnss4V1_016BpHwGnssBatchingC2ERKNS_2spINS0_7IBinderEEE"
  },
  {
   "name":"_ZN7android8hardware4gnss4V1_016BpHwGnssCallback10gnssNmeaCbElRKNS0_11hidl_stringE"
  },
  {
   "name":"_ZN7android8hardware4gnss4V1_016BpHwGnssCallback11linkToDeathERKNS_2spINS0_20hidl_death_recipientEEEm"
  },
  {
   "name":"_ZN7android8hardware4gnss4V1_016BpHwGnssCallback12getDebugInfoENSt3__18functionIFvRKNS_4hidl4base4V1_09DebugInfoEEEE"
  },
  {
   "name":"_ZN7android8hardware4gnss4V1_016BpHwGnssCallback12getHashChainENSt3__18functionIFvRKNS0_8hidl_vecINS0_10hidl_arrayIhLm32EJEEEEEEEE"
  },
  {
   "name":"_ZN7android8hardware4gnss4V1_016BpHwGnssCallback12gnssStatusCbENS2_13IGnssCallback15GnssStatusValueE"
  },
  {
   "name":"_ZN7android8hardware4gnss4V1_016BpHwGnssCallback13unlinkToDeathERKNS_2spINS0_20hidl_death_recipientEEE"
  },
  {
   "name":"_ZN7android8hardware4gnss4V1_016BpHwGnssCallback14gnssLocationCbERKNS2_12GnssLocationE"
  },
  {
   "name":"_ZN7android8hardware4gnss4V1_016BpHwGnssCallback14gnssSvStatusCbERKNS2_13IGnssCallback12GnssSvStatusE"
  },
  {
   "name":"_ZN7android8hardware4gnss4V1_016BpHwGnssCallback14interfaceChainENSt3__18functionIFvRKNS0_8hidl_vecINS0_11hidl_stringEEEEEE"
  },
  {
   "name":"_ZN7android8hardware4gnss4V1_016BpHwGnssCallback16_hidl_gnssNmeaCbEPNS0_10IInterfaceEPNS0_7details16HidlInstrumentorElRKNS0_11hidl_stringE"
  },
  {
   "name":"_ZN7android8hardware4gnss4V1_016BpHwGnssCallback17gnssRequestTimeCbEv"
  },
  {
   "name":"_ZN7android8hardware4gnss4V1_016BpHwGnssCallback18_hidl_gnssStatusCbEPNS0_10IInterfaceEPNS0_7details16HidlInstrumentorENS2_13IGnssCallback15GnssStatusValueE"
  },
  {
   "name":"_ZN7android8hardware4gnss4V1_016BpHwGnssCallback19gnssSetSystemInfoCbERKNS2_13IGnssCallback14GnssSystemInfoE"
  },
  {
   "name":"_ZN7android8hardware4gnss4V1_016BpHwGnssCallback19interfaceDescriptorENSt3__18functionIFvRKNS0_11hidl_stringEEEE"
  },
  {
   "name":"_ZN7android8hardware4gnss4V1_016BpHwGnssCallback20_hidl_gnssLocationCbEPNS0_10IInterfaceEPNS0_7details16HidlInstrumentorERKNS2_12GnssLocationE"
  },
  {
   "name":"_ZN7android8hardware4gnss4V1_016BpHwGnssCallback20_hidl_gnssSvStatusCbEPNS0_10IInterfaceEPNS0_7details16HidlInstrumentorERKNS2_13IGnssCallback12GnssSvStatusE"
  },
  {
   "name":"_ZN7android8hardware4gnss4V1_016BpHwGnssCallback20gnssSetCapabilitesCbEj"
  },
  {
   "name":"_ZN7android8hardware4gnss4V1_016BpHwGnssCallback21gnssAcquireWakelockCbEv"
  },
  {
   "name":"_ZN7android8hardware4gnss4V1_016BpHwGnssCallback21gnssReleaseWakelockCbEv"
  },
  {
   "name":"_ZN7android8hardware4gnss4V1_016BpHwGnssCallback21notifySyspropsChangedEv"
  },
  {
   "name":"_ZN7android8hardware4gnss4V1_016BpHwGnssCallback21setHALInstrumentationEv"
  },
  {
   "name":"_ZN7android8hardware4gnss4V1_016BpHwGnssCallback23_hidl_gnssRequestTimeCbEPNS0_10IInterfaceEPNS0_7details16HidlInstrumentorE"
  },
  {
   "name":"_ZN7android8hardware4gnss4V1_016BpHwGnssCallback25_hidl_gnssSetSystemInfoCbEPNS0_10IInterfaceEPNS0_7details16HidlInstrumentorERKNS2_13IGnssCallback14GnssSystemInfoE"
  },
  {
   "name":"_ZN7android8hardware4gnss4V1_016BpHwGnssCallback26_hidl_gnssSetCapabilitesCbEPNS0_10IInterfaceEPNS0_7details16HidlInstrumentorEj"
  },
  {
   "name":"_ZN7android8hardware4gnss4V1_016BpHwGnssCallback27_hidl_gnssAcquireWakelockCbEPNS0_10IInterfaceEPNS0_7details16HidlInstrumentorE"
  },
  {
   "name":"_ZN7android8hardware4gnss4V1_016BpHwGnssCallback27_hidl_gnssReleaseWakelockCbEPNS0_10IInterfaceEPNS0_7details16HidlInstrumentorE"
  },
  {
   "name":"_ZN7android8hardware4gnss4V1_016BpHwGnssCallback4pingEv"
  },
  {
   "name":"_ZN7android8hardware4gnss4V1_016BpHwGnssCallback5debugERKNS0_11hidl_handleERKNS0_8hidl_vecINS0_11hidl_stringEEE"
  },
  {
   "name":"_ZN7android8hardware4gnss4V1_016BpHwGnssCallbackC1ERKNS_2spINS0_7IBinderEEE"
  },
  {
   "name":"_ZN7android8hardware4gnss4V1_016BpHwGnssCallbackC2ERKNS_2spINS0_7IBinderEEE"
  },
  {
   "name":"_ZN7android8hardware4gnss4V1_016BsGnssGeofencing13addOnewayTaskENSt3__18functionIFvvEEE"
  },
  {
   "name":"_ZN7android8hardware4gnss4V1_016BsGnssGeofencingC1ENS_2spINS2_15IGnssGeofencingEEE"
  },
  {
   "name":"_ZN7android8hardware4gnss4V1_016BsGnssGeofencingC2ENS_2spINS2_15IGnssGeofencingEEE"
  },
  {
   "name":"_ZN7android8hardware4gnss4V1_016BsGnssNiCallback13addOnewayTaskENSt3__18functionIFvvEEE"
  },
  {
   "name":"_ZN7android8hardware4gnss4V1_016BsGnssNiCallbackC1ENS_2spINS2_15IGnssNiCallbackEEE"
  },
  {
   "name":"_ZN7android8hardware4gnss4V1_016BsGnssNiCallbackC2ENS_2spINS2_15IGnssNiCallbackEEE"
  },
  {
   "name":"_ZN7android8hardware4gnss4V1_016IGnssMeasurement10getServiceERKNSt3__112basic_stringIcNS4_11char_traitsIcEENS4_9allocatorIcEEEEb"
  },
  {
   "name":"_ZN7android8hardware4gnss4V1_016IGnssMeasurement11linkToDeathERKNS_2spINS0_20hidl_death_recipientEEEm"
  },
  {
   "name":"_ZN7android8hardware4gnss4V1_016IGnssMeasurement12getDebugInfoENSt3__18functionIFvRKNS_4hidl4base4V1_09DebugInfoEEEE"
  },
  {
   "name":"_ZN7android8hardware4gnss4V1_016IGnssMeasurement12getHashChainENSt3__18functionIFvRKNS0_8hidl_vecINS0_10hidl_arrayIhLm32EJEEEEEEEE"
  },
  {
   "name":"_ZN7android8hardware4gnss4V1_016IGnssMeasurement13tryGetServiceERKNSt3__112basic_stringIcNS4_11char_traitsIcEENS4_9allocatorIcEEEEb"
  },
  {
   "name":"_ZN7android8hardware4gnss4V1_016IGnssMeasurement13unlinkToDeathERKNS_2spINS0_20hidl_death_recipientEEE"
  },
  {
   "name":"_ZN7android8hardware4gnss4V1_016IGnssMeasurement14interfaceChainENSt3__18functionIFvRKNS0_8hidl_vecINS0_11hidl_stringEEEEEE"
  },
  {
   "name":"_ZN7android8hardware4gnss4V1_016IGnssMeasurement17registerAsServiceERKNSt3__112basic_stringIcNS4_11char_traitsIcEENS4_9allocatorIcEEEE"
  },
  {
   "name":"_ZN7android8hardware4gnss4V1_016IGnssMeasurement19interfaceDescriptorENSt3__18functionIFvRKNS0_11hidl_stringEEEE"
  },
  {
   "name":"_ZN7android8hardware4gnss4V1_016IGnssMeasurement21notifySyspropsChangedEv"
  },
  {
   "name":"_ZN7android8hardware4gnss4V1_016IGnssMeasurement21setHALInstrumentationEv"
  },
  {
   "name":"_ZN7android8hardware4gnss4V1_016IGnssMeasurement24registerForNotificationsERKNSt3__112basic_stringIcNS4_11char_traitsIcEENS4_9allocatorIcEEEERKNS_2spINS_4hidl7manager4V1_020IServiceNotificationEEE"
  },
  {
   "name":"_ZN7android8hardware4gnss4V1_016IGnssMeasurement4pingEv"
  },
  {
   "name":"_ZN7android8hardware4gnss4V1_016IGnssMeasurement5debugERKNS0_11hidl_handleERKNS0_8hidl_vecINS0_11hidl_stringEEE"
  },
  {
   "name":"_ZN7android8hardware4gnss4V1_016IGnssMeasurement8castFromERKNS_2spINS_4hidl4base4V1_05IBaseEEEb"
  },
  {
   "name":"_ZN7android8hardware4gnss4V1_016IGnssMeasurement8castFromERKNS_2spIS3_EEb"
  },
  {
   "name":"_ZN7android8hardware4gnss4V1_017BnHwAGnssCallback10onTransactEjRKNS0_6ParcelEPS4_jNSt3__18functionIFvRS4_EEE"
  },
  {
   "name":"_ZN7android8hardware4gnss4V1_017BnHwAGnssCallback12getDebugInfoENSt3__18functionIFvRKNS_4hidl4base4V1_09DebugInfoEEEE"
  },
  {
   "name":"_ZN7android8hardware4gnss4V1_017BnHwAGnssCallback23_hidl_agnssStatusIpV4CbEPNS_4hidl4base4V1_08BnHwBaseERKNS0_6ParcelEPS9_NSt3__18functionIFvRS9_EEE"
  },
  {
   "name":"_ZN7android8hardware4gnss4V1_017BnHwAGnssCallback23_hidl_agnssStatusIpV6CbEPNS_4hidl4base4V1_08BnHwBaseERKNS0_6ParcelEPS9_NSt3__18functionIFvRS9_EEE"
  },
  {
   "name":"_ZN7android8hardware4gnss4V1_017BnHwAGnssCallback4pingEv"
  },
  {
   "name":"_ZN7android8hardware4gnss4V1_017BnHwAGnssCallbackC1ERKNS_2spINS2_14IAGnssCallbackEEE"
  },
  {
   "name":"_ZN7android8hardware4gnss4V1_017BnHwAGnssCallbackC2ERKNS_2spINS2_14IAGnssCallbackEEE"
  },
  {
   "name":"_ZN7android8hardware4gnss4V1_017BnHwAGnssCallbackD0Ev"
  },
  {
   "name":"_ZN7android8hardware4gnss4V1_017BnHwAGnssCallbackD1Ev"
  },
  {
   "name":"_ZN7android8hardware4gnss4V1_017BnHwAGnssCallbackD2Ev"
  },
  {
   "name":"_ZN7android8hardware4gnss4V1_017BpHwAGnssCallback11linkToDeathERKNS_2spINS0_20hidl_death_recipientEEEm"
  },
  {
   "name":"_ZN7android8hardware4gnss4V1_017BpHwAGnssCallback12getDebugInfoENSt3__18functionIFvRKNS_4hidl4base4V1_09DebugInfoEEEE"
  },
  {
   "name":"_ZN7android8hardware4gnss4V1_017BpHwAGnssCallback12getHashChainENSt3__18functionIFvRKNS0_8hidl_vecINS0_10hidl_arrayIhLm32EJEEEEEEEE"
  },
  {
   "name":"_ZN7android8hardware4gnss4V1_017BpHwAGnssCallback13unlinkToDeathERKNS_2spINS0_20hidl_death_recipientEEE"
  },
  {
   "name":"_ZN7android8hardware4gnss4V1_017BpHwAGnssCallback14interfaceChainENSt3__18functionIFvRKNS0_8hidl_vecINS0_11hidl_stringEEEEEE"
  },
  {
   "name":"_ZN7android8hardware4gnss4V1_017BpHwAGnssCallback17agnssStatusIpV4CbERKNS2_14IAGnssCallback15AGnssStatusIpV4E"
  },
  {
   "name":"_ZN7android8hardware4gnss4V1_017BpHwAGnssCallback17agnssStatusIpV6CbERKNS2_14IAGnssCallback15AGnssStatusIpV6E"
  },
  {
   "name":"_ZN7android8hardware4gnss4V1_017BpHwAGnssCallback19interfaceDescriptorENSt3__18functionIFvRKNS0_11hidl_stringEEEE"
  },
  {
   "name":"_ZN7android8hardware4gnss4V1_017BpHwAGnssCallback21notifySyspropsChangedEv"
  },
  {
   "name":"_ZN7android8hardware4gnss4V1_017BpHwAGnssCallback21setHALInstrumentationEv"
  },
  {
   "name":"_ZN7android8hardware4gnss4V1_017BpHwAGnssCallback23_hidl_agnssStatusIpV4CbEPNS0_10IInterfaceEPNS0_7details16HidlInstrumentorERKNS2_14IAGnssCallback15AGnssStatusIpV4E"
  },
  {
   "name":"_ZN7android8hardware4gnss4V1_017BpHwAGnssCallback23_hidl_agnssStatusIpV6CbEPNS0_10IInterfaceEPNS0_7details16HidlInstrumentorERKNS2_14IAGnssCallback15AGnssStatusIpV6E"
  },
  {
   "name":"_ZN7android8hardware4gnss4V1_017BpHwAGnssCallback4pingEv"
  },
  {
   "name":"_ZN7android8hardware4gnss4V1_017BpHwAGnssCallback5debugERKNS0_11hidl_handleERKNS0_8hidl_vecINS0_11hidl_stringEEE"
  },
  {
   "name":"_ZN7android8hardware4gnss4V1_017BpHwAGnssCallbackC1ERKNS_2spINS0_7IBinderEEE"
  },
  {
   "name":"_ZN7android8hardware4gnss4V1_017BpHwAGnssCallbackC2ERKNS_2spINS0_7IBinderEEE"
  },
  {
   "name":"_ZN7android8hardware4gnss4V1_017BsGnssMeasurement13addOnewayTaskENSt3__18functionIFvvEEE"
  },
  {
   "name":"_ZN7android8hardware4gnss4V1_017BsGnssMeasurementC1ENS_2spINS2_16IGnssMeasurementEEE"
  },
  {
   "name":"_ZN7android8hardware4gnss4V1_017BsGnssMeasurementC2ENS_2spINS2_16IGnssMeasurementEEE"
  },
  {
   "name":"_ZN7android8hardware4gnss4V1_017IAGnssRilCallback10getServiceERKNSt3__112basic_stringIcNS4_11char_traitsIcEENS4_9allocatorIcEEEEb"
  },
  {
   "name":"_ZN7android8hardware4gnss4V1_017IAGnssRilCallback11linkToDeathERKNS_2spINS0_20hidl_death_recipientEEEm"
  },
  {
   "name":"_ZN7android8hardware4gnss4V1_017IAGnssRilCallback12getDebugInfoENSt3__18functionIFvRKNS_4hidl4base4V1_09DebugInfoEEEE"
  },
  {
   "name":"_ZN7android8hardware4gnss4V1_017IAGnssRilCallback12getHashChainENSt3__18functionIFvRKNS0_8hidl_vecINS0_10hidl_arrayIhLm32EJEEEEEEEE"
  },
  {
   "name":"_ZN7android8hardware4gnss4V1_017IAGnssRilCallback13tryGetServiceERKNSt3__112basic_stringIcNS4_11char_traitsIcEENS4_9allocatorIcEEEEb"
  },
  {
   "name":"_ZN7android8hardware4gnss4V1_017IAGnssRilCallback13unlinkToDeathERKNS_2spINS0_20hidl_death_recipientEEE"
  },
  {
   "name":"_ZN7android8hardware4gnss4V1_017IAGnssRilCallback14interfaceChainENSt3__18functionIFvRKNS0_8hidl_vecINS0_11hidl_stringEEEEEE"
  },
  {
   "name":"_ZN7android8hardware4gnss4V1_017IAGnssRilCallback17registerAsServiceERKNSt3__112basic_stringIcNS4_11char_traitsIcEENS4_9allocatorIcEEEE"
  },
  {
   "name":"_ZN7android8hardware4gnss4V1_017IAGnssRilCallback19interfaceDescriptorENSt3__18functionIFvRKNS0_11hidl_stringEEEE"
  },
  {
   "name":"_ZN7android8hardware4gnss4V1_017IAGnssRilCallback21notifySyspropsChangedEv"
  },
  {
   "name":"_ZN7android8hardware4gnss4V1_017IAGnssRilCallback21setHALInstrumentationEv"
  },
  {
   "name":"_ZN7android8hardware4gnss4V1_017IAGnssRilCallback24registerForNotificationsERKNSt3__112basic_stringIcNS4_11char_traitsIcEENS4_9allocatorIcEEEERKNS_2spINS_4hidl7manager4V1_020IServiceNotificationEEE"
  },
  {
   "name":"_ZN7android8hardware4gnss4V1_017IAGnssRilCallback4pingEv"
  },
  {
   "name":"_ZN7android8hardware4gnss4V1_017IAGnssRilCallback5debugERKNS0_11hidl_handleERKNS0_8hidl_vecINS0_11hidl_stringEEE"
  },
  {
   "name":"_ZN7android8hardware4gnss4V1_017IAGnssRilCallback8castFromERKNS_2spINS_4hidl4base4V1_05IBaseEEEb"
  },
  {
   "name":"_ZN7android8hardware4gnss4V1_017IAGnssRilCallback8castFromERKNS_2spIS3_EEb"
  },
  {
   "name":"_ZN7android8hardware4gnss4V1_017IGnssXtraCallback10getServiceERKNSt3__112basic_stringIcNS4_11char_traitsIcEENS4_9allocatorIcEEEEb"
  },
  {
   "name":"_ZN7android8hardware4gnss4V1_017IGnssXtraCallback11linkToDeathERKNS_2spINS0_20hidl_death_recipientEEEm"
  },
  {
   "name":"_ZN7android8hardware4gnss4V1_017IGnssXtraCallback12getDebugInfoENSt3__18functionIFvRKNS_4hidl4base4V1_09DebugInfoEEEE"
  },
  {
   "name":"_ZN7android8hardware4gnss4V1_017IGnssXtraCallback12getHashChainENSt3__18functionIFvRKNS0_8hidl_vecINS0_10hidl_arrayIhLm32EJEEEEEEEE"
  },
  {
   "name":"_ZN7android8hardware4gnss4V1_017IGnssXtraCallback13tryGetServiceERKNSt3__112basic_stringIcNS4_11char_traitsIcEENS4_9allocatorIcEEEEb"
  },
  {
   "name":"_ZN7android8hardware4gnss4V1_017IGnssXtraCallback13unlinkToDeathERKNS_2spINS0_20hidl_death_recipientEEE"
  },
  {
   "name":"_ZN7android8hardware4gnss4V1_017IGnssXtraCallback14interfaceChainENSt3__18functionIFvRKNS0_8hidl_vecINS0_11hidl_stringEEEEEE"
  },
  {
   "name":"_ZN7android8hardware4gnss4V1_017IGnssXtraCallback17registerAsServiceERKNSt3__112basic_stringIcNS4_11char_traitsIcEENS4_9allocatorIcEEEE"
  },
  {
   "name":"_ZN7android8hardware4gnss4V1_017IGnssXtraCallback19interfaceDescriptorENSt3__18functionIFvRKNS0_11hidl_stringEEEE"
  },
  {
   "name":"_ZN7android8hardware4gnss4V1_017IGnssXtraCallback21notifySyspropsChangedEv"
  },
  {
   "name":"_ZN7android8hardware4gnss4V1_017IGnssXtraCallback21setHALInstrumentationEv"
  },
  {
   "name":"_ZN7android8hardware4gnss4V1_017IGnssXtraCallback24registerForNotificationsERKNSt3__112basic_stringIcNS4_11char_traitsIcEENS4_9allocatorIcEEEERKNS_2spINS_4hidl7manager4V1_020IServiceNotificationEEE"
  },
  {
   "name":"_ZN7android8hardware4gnss4V1_017IGnssXtraCallback4pingEv"
  },
  {
   "name":"_ZN7android8hardware4gnss4V1_017IGnssXtraCallback5debugERKNS0_11hidl_handleERKNS0_8hidl_vecINS0_11hidl_stringEEE"
  },
  {
   "name":"_ZN7android8hardware4gnss4V1_017IGnssXtraCallback8castFromERKNS_2spINS_4hidl4base4V1_05IBaseEEEb"
  },
  {
   "name":"_ZN7android8hardware4gnss4V1_017IGnssXtraCallback8castFromERKNS_2spIS3_EEb"
  },
  {
   "name":"_ZN7android8hardware4gnss4V1_018BnHwGnssGeofencing10onTransactEjRKNS0_6ParcelEPS4_jNSt3__18functionIFvRS4_EEE"
  },
  {
   "name":"_ZN7android8hardware4gnss4V1_018BnHwGnssGeofencing12getDebugInfoENSt3__18functionIFvRKNS_4hidl4base4V1_09DebugInfoEEEE"
  },
  {
   "name":"_ZN7android8hardware4gnss4V1_018BnHwGnssGeofencing17_hidl_addGeofenceEPNS_4hidl4base4V1_08BnHwBaseERKNS0_6ParcelEPS9_NSt3__18functionIFvRS9_EEE"
  },
  {
   "name":"_ZN7android8hardware4gnss4V1_018BnHwGnssGeofencing17_hidl_setCallbackEPNS_4hidl4base4V1_08BnHwBaseERKNS0_6ParcelEPS9_NSt3__18functionIFvRS9_EEE"
  },
  {
   "name":"_ZN7android8hardware4gnss4V1_018BnHwGnssGeofencing19_hidl_pauseGeofenceEPNS_4hidl4base4V1_08BnHwBaseERKNS0_6ParcelEPS9_NSt3__18functionIFvRS9_EEE"
  },
  {
   "name":"_ZN7android8hardware4gnss4V1_018BnHwGnssGeofencing20_hidl_removeGeofenceEPNS_4hidl4base4V1_08BnHwBaseERKNS0_6ParcelEPS9_NSt3__18functionIFvRS9_EEE"
  },
  {
   "name":"_ZN7android8hardware4gnss4V1_018BnHwGnssGeofencing20_hidl_resumeGeofenceEPNS_4hidl4base4V1_08BnHwBaseERKNS0_6ParcelEPS9_NSt3__18functionIFvRS9_EEE"
  },
  {
   "name":"_ZN7android8hardware4gnss4V1_018BnHwGnssGeofencing4pingEv"
  },
  {
   "name":"_ZN7android8hardware4gnss4V1_018BnHwGnssGeofencingC1ERKNS_2spINS2_15IGnssGeofencingEEE"
  },
  {
   "name":"_ZN7android8hardware4gnss4V1_018BnHwGnssGeofencingC2ERKNS_2spINS2_15IGnssGeofencingEEE"
  },
  {
   "name":"_ZN7android8hardware4gnss4V1_018BnHwGnssGeofencingD0Ev"
  },
  {
   "name":"_ZN7android8hardware4gnss4V1_018BnHwGnssGeofencingD1Ev"
  },
  {
   "name":"_ZN7android8hardware4gnss4V1_018BnHwGnssGeofencingD2Ev"
  },
  {
   "name":"_ZN7android8hardware4gnss4V1_018BnHwGnssNiCallback10onTransactEjRKNS0_6ParcelEPS4_jNSt3__18functionIFvRS4_EEE"
  },
  {
   "name":"_ZN7android8hardware4gnss4V1_018BnHwGnssNiCallback12getDebugInfoENSt3__18functionIFvRKNS_4hidl4base4V1_09DebugInfoEEEE"
  },
  {
   "name":"_ZN7android8hardware4gnss4V1_018BnHwGnssNiCallback16_hidl_niNotifyCbEPNS_4hidl4base4V1_08BnHwBaseERKNS0_6ParcelEPS9_NSt3__18functionIFvRS9_EEE"
  },
  {
   "name":"_ZN7android8hardware4gnss4V1_018BnHwGnssNiCallback4pingEv"
  },
  {
   "name":"_ZN7android8hardware4gnss4V1_018BnHwGnssNiCallbackC1ERKNS_2spINS2_15IGnssNiCallbackEEE"
  },
  {
   "name":"_ZN7android8hardware4gnss4V1_018BnHwGnssNiCallbackC2ERKNS_2spINS2_15IGnssNiCallbackEEE"
  },
  {
   "name":"_ZN7android8hardware4gnss4V1_018BnHwGnssNiCallbackD0Ev"
  },
  {
   "name":"_ZN7android8hardware4gnss4V1_018BnHwGnssNiCallbackD1Ev"
  },
  {
   "name":"_ZN7android8hardware4gnss4V1_018BnHwGnssNiCallbackD2Ev"
  },
  {
   "name":"_ZN7android8hardware4gnss4V1_018BpHwGnssGeofencing11addGeofenceEidddNS2_21IGnssGeofenceCallback18GeofenceTransitionEijj"
  },
  {
   "name":"_ZN7android8hardware4gnss4V1_018BpHwGnssGeofencing11linkToDeathERKNS_2spINS0_20hidl_death_recipientEEEm"
  },
  {
   "name":"_ZN7android8hardware4gnss4V1_018BpHwGnssGeofencing11setCallbackERKNS_2spINS2_21IGnssGeofenceCallbackEEE"
  },
  {
   "name":"_ZN7android8hardware4gnss4V1_018BpHwGnssGeofencing12getDebugInfoENSt3__18functionIFvRKNS_4hidl4base4V1_09DebugInfoEEEE"
  },
  {
   "name":"_ZN7android8hardware4gnss4V1_018BpHwGnssGeofencing12getHashChainENSt3__18functionIFvRKNS0_8hidl_vecINS0_10hidl_arrayIhLm32EJEEEEEEEE"
  },
  {
   "name":"_ZN7android8hardware4gnss4V1_018BpHwGnssGeofencing13pauseGeofenceEi"
  },
  {
   "name":"_ZN7android8hardware4gnss4V1_018BpHwGnssGeofencing13unlinkToDeathERKNS_2spINS0_20hidl_death_recipientEEE"
  },
  {
   "name":"_ZN7android8hardware4gnss4V1_018BpHwGnssGeofencing14interfaceChainENSt3__18functionIFvRKNS0_8hidl_vecINS0_11hidl_stringEEEEEE"
  },
  {
   "name":"_ZN7android8hardware4gnss4V1_018BpHwGnssGeofencing14removeGeofenceEi"
  },
  {
   "name":"_ZN7android8hardware4gnss4V1_018BpHwGnssGeofencing14resumeGeofenceEii"
  },
  {
   "name":"_ZN7android8hardware4gnss4V1_018BpHwGnssGeofencing17_hidl_addGeofenceEPNS0_10IInterfaceEPNS0_7details16HidlInstrumentorEidddNS2_21IGnssGeofenceCallback18GeofenceTransitionEijj"
  },
  {
   "name":"_ZN7android8hardware4gnss4V1_018BpHwGnssGeofencing17_hidl_setCallbackEPNS0_10IInterfaceEPNS0_7details16HidlInstrumentorERKNS_2spINS2_21IGnssGeofenceCallbackEEE"
  },
  {
   "name":"_ZN7android8hardware4gnss4V1_018BpHwGnssGeofencing19_hidl_pauseGeofenceEPNS0_10IInterfaceEPNS0_7details16HidlInstrumentorEi"
  },
  {
   "name":"_ZN7android8hardware4gnss4V1_018BpHwGnssGeofencing19interfaceDescriptorENSt3__18functionIFvRKNS0_11hidl_stringEEEE"
  },
  {
   "name":"_ZN7android8hardware4gnss4V1_018BpHwGnssGeofencing20_hidl_removeGeofenceEPNS0_10IInterfaceEPNS0_7details16HidlInstrumentorEi"
  },
  {
   "name":"_ZN7android8hardware4gnss4V1_018BpHwGnssGeofencing20_hidl_resumeGeofenceEPNS0_10IInterfaceEPNS0_7details16HidlInstrumentorEii"
  },
  {
   "name":"_ZN7android8hardware4gnss4V1_018BpHwGnssGeofencing21notifySyspropsChangedEv"
  },
  {
   "name":"_ZN7android8hardware4gnss4V1_018BpHwGnssGeofencing21setHALInstrumentationEv"
  },
  {
   "name":"_ZN7android8hardware4gnss4V1_018BpHwGnssGeofencing4pingEv"
  },
  {
   "name":"_ZN7android8hardware4gnss4V1_018BpHwGnssGeofencing5debugERKNS0_11hidl_handleERKNS0_8hidl_vecINS0_11hidl_stringEEE"
  },
  {
   "name":"_ZN7android8hardware4gnss4V1_018BpHwGnssGeofencingC1ERKNS_2spINS0_7IBinderEEE"
  },
  {
   "name":"_ZN7android8hardware4gnss4V1_018BpHwGnssGeofencingC2ERKNS_2spINS0_7IBinderEEE"
  },
  {
   "name":"_ZN7android8hardware4gnss4V1_018BpHwGnssNiCallback10niNotifyCbERKNS2_15IGnssNiCallback18GnssNiNotificationE"
  },
  {
   "name":"_ZN7android8hardware4gnss4V1_018BpHwGnssNiCallback11linkToDeathERKNS_2spINS0_20hidl_death_recipientEEEm"
  },
  {
   "name":"_ZN7android8hardware4gnss4V1_018BpHwGnssNiCallback12getDebugInfoENSt3__18functionIFvRKNS_4hidl4base4V1_09DebugInfoEEEE"
  },
  {
   "name":"_ZN7android8hardware4gnss4V1_018BpHwGnssNiCallback12getHashChainENSt3__18functionIFvRKNS0_8hidl_vecINS0_10hidl_arrayIhLm32EJEEEEEEEE"
  },
  {
   "name":"_ZN7android8hardware4gnss4V1_018BpHwGnssNiCallback13unlinkToDeathERKNS_2spINS0_20hidl_death_recipientEEE"
  },
  {
   "name":"_ZN7android8hardware4gnss4V1_018BpHwGnssNiCallback14interfaceChainENSt3__18functionIFvRKNS0_8hidl_vecINS0_11hidl_stringEEEEEE"
  },
  {
   "name":"_ZN7android8hardware4gnss4V1_018BpHwGnssNiCallback16_hidl_niNotifyCbEPNS0_10IInterfaceEPNS0_7details16HidlInstrumentorERKNS2_15IGnssNiCallback18GnssNiNotificationE"
  },
  {
   "name":"_ZN7android8hardware4gnss4V1_018BpHwGnssNiCallback19interfaceDescriptorENSt3__18functionIFvRKNS0_11hidl_stringEEEE"
  },
  {
   "name":"_ZN7android8hardware4gnss4V1_018BpHwGnssNiCallback21notifySyspropsChangedEv"
  },
  {
   "name":"_ZN7android8hardware4gnss4V1_018BpHwGnssNiCallback21setHALInstrumentationEv"
  },
  {
   "name":"_ZN7android8hardware4gnss4V1_018BpHwGnssNiCallback4pingEv"
  },
  {
   "name":"_ZN7android8hardware4gnss4V1_018BpHwGnssNiCallback5debugERKNS0_11hidl_handleERKNS0_8hidl_vecINS0_11hidl_stringEEE"
  },
  {
   "name":"_ZN7android8hardware4gnss4V1_018BpHwGnssNiCallbackC1ERKNS_2spINS0_7IBinderEEE"
  },
  {
   "name":"_ZN7android8hardware4gnss4V1_018BpHwGnssNiCallbackC2ERKNS_2spINS0_7IBinderEEE"
  },
  {
   "name":"_ZN7android8hardware4gnss4V1_018BsAGnssRilCallback13addOnewayTaskENSt3__18functionIFvvEEE"
  },
  {
   "name":"_ZN7android8hardware4gnss4V1_018BsAGnssRilCallbackC1ENS_2spINS2_17IAGnssRilCallbackEEE"
  },
  {
   "name":"_ZN7android8hardware4gnss4V1_018BsAGnssRilCallbackC2ENS_2spINS2_17IAGnssRilCallbackEEE"
  },
  {
   "name":"_ZN7android8hardware4gnss4V1_018BsGnssXtraCallback13addOnewayTaskENSt3__18functionIFvvEEE"
  },
  {
   "name":"_ZN7android8hardware4gnss4V1_018BsGnssXtraCallbackC1ENS_2spINS2_17IGnssXtraCallbackEEE"
  },
  {
   "name":"_ZN7android8hardware4gnss4V1_018BsGnssXtraCallbackC2ENS_2spINS2_17IGnssXtraCallbackEEE"
  },
  {
   "name":"_ZN7android8hardware4gnss4V1_018IGnssConfiguration10getServiceERKNSt3__112basic_stringIcNS4_11char_traitsIcEENS4_9allocatorIcEEEEb"
  },
  {
   "name":"_ZN7android8hardware4gnss4V1_018IGnssConfiguration11linkToDeathERKNS_2spINS0_20hidl_death_recipientEEEm"
  },
  {
   "name":"_ZN7android8hardware4gnss4V1_018IGnssConfiguration12getDebugInfoENSt3__18functionIFvRKNS_4hidl4base4V1_09DebugInfoEEEE"
  },
  {
   "name":"_ZN7android8hardware4gnss4V1_018IGnssConfiguration12getHashChainENSt3__18functionIFvRKNS0_8hidl_vecINS0_10hidl_arrayIhLm32EJEEEEEEEE"
  },
  {
   "name":"_ZN7android8hardware4gnss4V1_018IGnssConfiguration13tryGetServiceERKNSt3__112basic_stringIcNS4_11char_traitsIcEENS4_9allocatorIcEEEEb"
  },
  {
   "name":"_ZN7android8hardware4gnss4V1_018IGnssConfiguration13unlinkToDeathERKNS_2spINS0_20hidl_death_recipientEEE"
  },
  {
   "name":"_ZN7android8hardware4gnss4V1_018IGnssConfiguration14interfaceChainENSt3__18functionIFvRKNS0_8hidl_vecINS0_11hidl_stringEEEEEE"
  },
  {
   "name":"_ZN7android8hardware4gnss4V1_018IGnssConfiguration17registerAsServiceERKNSt3__112basic_stringIcNS4_11char_traitsIcEENS4_9allocatorIcEEEE"
  },
  {
   "name":"_ZN7android8hardware4gnss4V1_018IGnssConfiguration19interfaceDescriptorENSt3__18functionIFvRKNS0_11hidl_stringEEEE"
  },
  {
   "name":"_ZN7android8hardware4gnss4V1_018IGnssConfiguration21notifySyspropsChangedEv"
  },
  {
   "name":"_ZN7android8hardware4gnss4V1_018IGnssConfiguration21setHALInstrumentationEv"
  },
  {
   "name":"_ZN7android8hardware4gnss4V1_018IGnssConfiguration24registerForNotificationsERKNSt3__112basic_stringIcNS4_11char_traitsIcEENS4_9allocatorIcEEEERKNS_2spINS_4hidl7manager4V1_020IServiceNotificationEEE"
  },
  {
   "name":"_ZN7android8hardware4gnss4V1_018IGnssConfiguration4pingEv"
  },
  {
   "name":"_ZN7android8hardware4gnss4V1_018IGnssConfiguration5debugERKNS0_11hidl_handleERKNS0_8hidl_vecINS0_11hidl_stringEEE"
  },
  {
   "name":"_ZN7android8hardware4gnss4V1_018IGnssConfiguration8castFromERKNS_2spINS_4hidl4base4V1_05IBaseEEEb"
  },
  {
   "name":"_ZN7android8hardware4gnss4V1_018IGnssConfiguration8castFromERKNS_2spIS3_EEb"
  },
  {
   "name":"_ZN7android8hardware4gnss4V1_019BnHwGnssMeasurement10onTransactEjRKNS0_6ParcelEPS4_jNSt3__18functionIFvRS4_EEE"
  },
  {
   "name":"_ZN7android8hardware4gnss4V1_019BnHwGnssMeasurement11_hidl_closeEPNS_4hidl4base4V1_08BnHwBaseERKNS0_6ParcelEPS9_NSt3__18functionIFvRS9_EEE"
  },
  {
   "name":"_ZN7android8hardware4gnss4V1_019BnHwGnssMeasurement12getDebugInfoENSt3__18functionIFvRKNS_4hidl4base4V1_09DebugInfoEEEE"
  },
  {
   "name":"_ZN7android8hardware4gnss4V1_019BnHwGnssMeasurement17_hidl_setCallbackEPNS_4hidl4base4V1_08BnHwBaseERKNS0_6ParcelEPS9_NSt3__18functionIFvRS9_EEE"
  },
  {
   "name":"_ZN7android8hardware4gnss4V1_019BnHwGnssMeasurement4pingEv"
  },
  {
   "name":"_ZN7android8hardware4gnss4V1_019BnHwGnssMeasurementC1ERKNS_2spINS2_16IGnssMeasurementEEE"
  },
  {
   "name":"_ZN7android8hardware4gnss4V1_019BnHwGnssMeasurementC2ERKNS_2spINS2_16IGnssMeasurementEEE"
  },
  {
   "name":"_ZN7android8hardware4gnss4V1_019BnHwGnssMeasurementD0Ev"
  },
  {
   "name":"_ZN7android8hardware4gnss4V1_019BnHwGnssMeasurementD1Ev"
  },
  {
   "name":"_ZN7android8hardware4gnss4V1_019BnHwGnssMeasurementD2Ev"
  },
  {
   "name":"_ZN7android8hardware4gnss4V1_019BpHwGnssMeasurement11_hidl_closeEPNS0_10IInterfaceEPNS0_7details16HidlInstrumentorE"
  },
  {
   "name":"_ZN7android8hardware4gnss4V1_019BpHwGnssMeasurement11linkToDeathERKNS_2spINS0_20hidl_death_recipientEEEm"
  },
  {
   "name":"_ZN7android8hardware4gnss4V1_019BpHwGnssMeasurement11setCallbackERKNS_2spINS2_24IGnssMeasurementCallbackEEE"
  },
  {
   "name":"_ZN7android8hardware4gnss4V1_019BpHwGnssMeasurement12getDebugInfoENSt3__18functionIFvRKNS_4hidl4base4V1_09DebugInfoEEEE"
  },
  {
   "name":"_ZN7android8hardware4gnss4V1_019BpHwGnssMeasurement12getHashChainENSt3__18functionIFvRKNS0_8hidl_vecINS0_10hidl_arrayIhLm32EJEEEEEEEE"
  },
  {
   "name":"_ZN7android8hardware4gnss4V1_019BpHwGnssMeasurement13unlinkToDeathERKNS_2spINS0_20hidl_death_recipientEEE"
  },
  {
   "name":"_ZN7android8hardware4gnss4V1_019BpHwGnssMeasurement14interfaceChainENSt3__18functionIFvRKNS0_8hidl_vecINS0_11hidl_stringEEEEEE"
  },
  {
   "name":"_ZN7android8hardware4gnss4V1_019BpHwGnssMeasurement17_hidl_setCallbackEPNS0_10IInterfaceEPNS0_7details16HidlInstrumentorERKNS_2spINS2_24IGnssMeasurementCallbackEEE"
  },
  {
   "name":"_ZN7android8hardware4gnss4V1_019BpHwGnssMeasurement19interfaceDescriptorENSt3__18functionIFvRKNS0_11hidl_stringEEEE"
  },
  {
   "name":"_ZN7android8hardware4gnss4V1_019BpHwGnssMeasurement21notifySyspropsChangedEv"
  },
  {
   "name":"_ZN7android8hardware4gnss4V1_019BpHwGnssMeasurement21setHALInstrumentationEv"
  },
  {
   "name":"_ZN7android8hardware4gnss4V1_019BpHwGnssMeasurement4pingEv"
  },
  {
   "name":"_ZN7android8hardware4gnss4V1_019BpHwGnssMeasurement5closeEv"
  },
  {
   "name":"_ZN7android8hardware4gnss4V1_019BpHwGnssMeasurement5debugERKNS0_11hidl_handleERKNS0_8hidl_vecINS0_11hidl_stringEEE"
  },
  {
   "name":"_ZN7android8hardware4gnss4V1_019BpHwGnssMeasurementC1ERKNS_2spINS0_7IBinderEEE"
  },
  {
   "name":"_ZN7android8hardware4gnss4V1_019BpHwGnssMeasurementC2ERKNS_2spINS0_7IBinderEEE"
  },
  {
   "name":"_ZN7android8hardware4gnss4V1_019BsGnssConfiguration13addOnewayTaskENSt3__18functionIFvvEEE"
  },
  {
   "name":"_ZN7android8hardware4gnss4V1_019BsGnssConfigurationC1ENS_2spINS2_18IGnssConfigurationEEE"
  },
  {
   "name":"_ZN7android8hardware4gnss4V1_019BsGnssConfigurationC2ENS_2spINS2_18IGnssConfigurationEEE"
  },
  {
   "name":"_ZN7android8hardware4gnss4V1_020BnHwAGnssRilCallback10onTransactEjRKNS0_6ParcelEPS4_jNSt3__18functionIFvRS4_EEE"
  },
  {
   "name":"_ZN7android8hardware4gnss4V1_020BnHwAGnssRilCallback12getDebugInfoENSt3__18functionIFvRKNS_4hidl4base4V1_09DebugInfoEEEE"
  },
  {
   "name":"_ZN7android8hardware4gnss4V1_020BnHwAGnssRilCallback20_hidl_requestSetIdCbEPNS_4hidl4base4V1_08BnHwBaseERKNS0_6ParcelEPS9_NSt3__18functionIFvRS9_EEE"
  },
  {
   "name":"_ZN7android8hardware4gnss4V1_020BnHwAGnssRilCallback21_hidl_requestRefLocCbEPNS_4hidl4base4V1_08BnHwBaseERKNS0_6ParcelEPS9_NSt3__18functionIFvRS9_EEE"
  },
  {
   "name":"_ZN7android8hardware4gnss4V1_020BnHwAGnssRilCallback4pingEv"
  },
  {
   "name":"_ZN7android8hardware4gnss4V1_020BnHwAGnssRilCallbackC1ERKNS_2spINS2_17IAGnssRilCallbackEEE"
  },
  {
   "name":"_ZN7android8hardware4gnss4V1_020BnHwAGnssRilCallbackC2ERKNS_2spINS2_17IAGnssRilCallbackEEE"
  },
  {
   "name":"_ZN7android8hardware4gnss4V1_020BnHwAGnssRilCallbackD0Ev"
  },
  {
   "name":"_ZN7android8hardware4gnss4V1_020BnHwAGnssRilCallbackD1Ev"
  },
  {
   "name":"_ZN7android8hardware4gnss4V1_020BnHwAGnssRilCallbackD2Ev"
  },
  {
   "name":"_ZN7android8hardware4gnss4V1_020BnHwGnssXtraCallback10onTransactEjRKNS0_6ParcelEPS4_jNSt3__18functionIFvRS4_EEE"
  },
  {
   "name":"_ZN7android8hardware4gnss4V1_020BnHwGnssXtraCallback12getDebugInfoENSt3__18functionIFvRKNS_4hidl4base4V1_09DebugInfoEEEE"
  },
  {
   "name":"_ZN7android8hardware4gnss4V1_020BnHwGnssXtraCallback23_hidl_downloadRequestCbEPNS_4hidl4base4V1_08BnHwBaseERKNS0_6ParcelEPS9_NSt3__18functionIFvRS9_EEE"
  },
  {
   "name":"_ZN7android8hardware4gnss4V1_020BnHwGnssXtraCallback4pingEv"
  },
  {
   "name":"_ZN7android8hardware4gnss4V1_020BnHwGnssXtraCallbackC1ERKNS_2spINS2_17IGnssXtraCallbackEEE"
  },
  {
   "name":"_ZN7android8hardware4gnss4V1_020BnHwGnssXtraCallbackC2ERKNS_2spINS2_17IGnssXtraCallbackEEE"
  },
  {
   "name":"_ZN7android8hardware4gnss4V1_020BnHwGnssXtraCallbackD0Ev"
  },
  {
   "name":"_ZN7android8hardware4gnss4V1_020BnHwGnssXtraCallbackD1Ev"
  },
  {
   "name":"_ZN7android8hardware4gnss4V1_020BnHwGnssXtraCallbackD2Ev"
  },
  {
   "name":"_ZN7android8hardware4gnss4V1_020BpHwAGnssRilCallback11linkToDeathERKNS_2spINS0_20hidl_death_recipientEEEm"
  },
  {
   "name":"_ZN7android8hardware4gnss4V1_020BpHwAGnssRilCallback12getDebugInfoENSt3__18functionIFvRKNS_4hidl4base4V1_09DebugInfoEEEE"
  },
  {
   "name":"_ZN7android8hardware4gnss4V1_020BpHwAGnssRilCallback12getHashChainENSt3__18functionIFvRKNS0_8hidl_vecINS0_10hidl_arrayIhLm32EJEEEEEEEE"
  },
  {
   "name":"_ZN7android8hardware4gnss4V1_020BpHwAGnssRilCallback13unlinkToDeathERKNS_2spINS0_20hidl_death_recipientEEE"
  },
  {
   "name":"_ZN7android8hardware4gnss4V1_020BpHwAGnssRilCallback14interfaceChainENSt3__18functionIFvRKNS0_8hidl_vecINS0_11hidl_stringEEEEEE"
  },
  {
   "name":"_ZN7android8hardware4gnss4V1_020BpHwAGnssRilCallback14requestSetIdCbEj"
  },
  {
   "name":"_ZN7android8hardware4gnss4V1_020BpHwAGnssRilCallback15requestRefLocCbEv"
  },
  {
   "name":"_ZN7android8hardware4gnss4V1_020BpHwAGnssRilCallback19interfaceDescriptorENSt3__18functionIFvRKNS0_11hidl_stringEEEE"
  },
  {
   "name":"_ZN7android8hardware4gnss4V1_020BpHwAGnssRilCallback20_hidl_requestSetIdCbEPNS0_10IInterfaceEPNS0_7details16HidlInstrumentorEj"
  },
  {
   "name":"_ZN7android8hardware4gnss4V1_020BpHwAGnssRilCallback21_hidl_requestRefLocCbEPNS0_10IInterfaceEPNS0_7details16HidlInstrumentorE"
  },
  {
   "name":"_ZN7android8hardware4gnss4V1_020BpHwAGnssRilCallback21notifySyspropsChangedEv"
  },
  {
   "name":"_ZN7android8hardware4gnss4V1_020BpHwAGnssRilCallback21setHALInstrumentationEv"
  },
  {
   "name":"_ZN7android8hardware4gnss4V1_020BpHwAGnssRilCallback4pingEv"
  },
  {
   "name":"_ZN7android8hardware4gnss4V1_020BpHwAGnssRilCallback5debugERKNS0_11hidl_handleERKNS0_8hidl_vecINS0_11hidl_stringEEE"
  },
  {
   "name":"_ZN7android8hardware4gnss4V1_020BpHwAGnssRilCallbackC1ERKNS_2spINS0_7IBinderEEE"
  },
  {
   "name":"_ZN7android8hardware4gnss4V1_020BpHwAGnssRilCallbackC2ERKNS_2spINS0_7IBinderEEE"
  },
  {
   "name":"_ZN7android8hardware4gnss4V1_020BpHwGnssXtraCallback11linkToDeathERKNS_2spINS0_20hidl_death_recipientEEEm"
  },
  {
   "name":"_ZN7android8hardware4gnss4V1_020BpHwGnssXtraCallback12getDebugInfoENSt3__18functionIFvRKNS_4hidl4base4V1_09DebugInfoEEEE"
  },
  {
   "name":"_ZN7android8hardware4gnss4V1_020BpHwGnssXtraCallback12getHashChainENSt3__18functionIFvRKNS0_8hidl_vecINS0_10hidl_arrayIhLm32EJEEEEEEEE"
  },
  {
   "name":"_ZN7android8hardware4gnss4V1_020BpHwGnssXtraCallback13unlinkToDeathERKNS_2spINS0_20hidl_death_recipientEEE"
  },
  {
   "name":"_ZN7android8hardware4gnss4V1_020BpHwGnssXtraCallback14interfaceChainENSt3__18functionIFvRKNS0_8hidl_vecINS0_11hidl_stringEEEEEE"
  },
  {
   "name":"_ZN7android8hardware4gnss4V1_020BpHwGnssXtraCallback17downloadRequestCbEv"
  },
  {
   "name":"_ZN7android8hardware4gnss4V1_020BpHwGnssXtraCallback19interfaceDescriptorENSt3__18functionIFvRKNS0_11hidl_stringEEEE"
  },
  {
   "name":"_ZN7android8hardware4gnss4V1_020BpHwGnssXtraCallback21notifySyspropsChangedEv"
  },
  {
   "name":"_ZN7android8hardware4gnss4V1_020BpHwGnssXtraCallback21setHALInstrumentationEv"
  },
  {
   "name":"_ZN7android8hardware4gnss4V1_020BpHwGnssXtraCallback23_hidl_downloadRequestCbEPNS0_10IInterfaceEPNS0_7details16HidlInstrumentorE"
  },
  {
   "name":"_ZN7android8hardware4gnss4V1_020BpHwGnssXtraCallback4pingEv"
  },
  {
   "name":"_ZN7android8hardware4gnss4V1_020BpHwGnssXtraCallback5debugERKNS0_11hidl_handleERKNS0_8hidl_vecINS0_11hidl_stringEEE"
  },
  {
   "name":"_ZN7android8hardware4gnss4V1_020BpHwGnssXtraCallbackC1ERKNS_2spINS0_7IBinderEEE"
  },
  {
   "name":"_ZN7android8hardware4gnss4V1_020BpHwGnssXtraCallbackC2ERKNS_2spINS0_7IBinderEEE"
  },
  {
   "name":"_ZN7android8hardware4gnss4V1_021BnHwGnssConfiguration10onTransactEjRKNS0_6ParcelEPS4_jNSt3__18functionIFvRS4_EEE"
  },
  {
   "name":"_ZN7android8hardware4gnss4V1_021BnHwGnssConfiguration12getDebugInfoENSt3__18functionIFvRKNS_4hidl4base4V1_09DebugInfoEEEE"
  },
  {
   "name":"_ZN7android8hardware4gnss4V1_021BnHwGnssConfiguration15_hidl_setSuplEsEPNS_4hidl4base4V1_08BnHwBaseERKNS0_6ParcelEPS9_NSt3__18functionIFvRS9_EEE"
  },
  {
   "name":"_ZN7android8hardware4gnss4V1_021BnHwGnssConfiguration16_hidl_setGpsLockEPNS_4hidl4base4V1_08BnHwBaseERKNS0_6ParcelEPS9_NSt3__18functionIFvRS9_EEE"
  },
  {
   "name":"_ZN7android8hardware4gnss4V1_021BnHwGnssConfiguration17_hidl_setSuplModeEPNS_4hidl4base4V1_08BnHwBaseERKNS0_6ParcelEPS9_NSt3__18functionIFvRS9_EEE"
  },
  {
   "name":"_ZN7android8hardware4gnss4V1_021BnHwGnssConfiguration19_hidl_setLppProfileEPNS_4hidl4base4V1_08BnHwBaseERKNS0_6ParcelEPS9_NSt3__18functionIFvRS9_EEE"
  },
  {
   "name":"_ZN7android8hardware4gnss4V1_021BnHwGnssConfiguration20_hidl_setSuplVersionEPNS_4hidl4base4V1_08BnHwBaseERKNS0_6ParcelEPS9_NSt3__18functionIFvRS9_EEE"
  },
  {
   "name":"_ZN7android8hardware4gnss4V1_021BnHwGnssConfiguration25_hidl_setEmergencySuplPdnEPNS_4hidl4base4V1_08BnHwBaseERKNS0_6ParcelEPS9_NSt3__18functionIFvRS9_EEE"
  },
  {
   "name":"_ZN7android8hardware4gnss4V1_021BnHwGnssConfiguration35_hidl_setGlonassPositioningProtocolEPNS_4hidl4base4V1_08BnHwBaseERKNS0_6ParcelEPS9_NSt3__18functionIFvRS9_EEE"
  },
  {
   "name":"_ZN7android8hardware4gnss4V1_021BnHwGnssConfiguration4pingEv"
  },
  {
   "name":"_ZN7android8hardware4gnss4V1_021BnHwGnssConfigurationC1ERKNS_2spINS2_18IGnssConfigurationEEE"
  },
  {
   "name":"_ZN7android8hardware4gnss4V1_021BnHwGnssConfigurationC2ERKNS_2spINS2_18IGnssConfigurationEEE"
  },
  {
   "name":"_ZN7android8hardware4gnss4V1_021BnHwGnssConfigurationD0Ev"
  },
  {
   "name":"_ZN7android8hardware4gnss4V1_021BnHwGnssConfigurationD1Ev"
  },
  {
   "name":"_ZN7android8hardware4gnss4V1_021BnHwGnssConfigurationD2Ev"
  },
  {
   "name":"_ZN7android8hardware4gnss4V1_021BpHwGnssConfiguration10setGpsLockEh"
  },
  {
   "name":"_ZN7android8hardware4gnss4V1_021BpHwGnssConfiguration11linkToDeathERKNS_2spINS0_20hidl_death_recipientEEEm"
  },
  {
   "name":"_ZN7android8hardware4gnss4V1_021BpHwGnssConfiguration11setSuplModeEh"
  },
  {
   "name":"_ZN7android8hardware4gnss4V1_021BpHwGnssConfiguration12getDebugInfoENSt3__18functionIFvRKNS_4hidl4base4V1_09DebugInfoEEEE"
  },
  {
   "name":"_ZN7android8hardware4gnss4V1_021BpHwGnssConfiguration12getHashChainENSt3__18functionIFvRKNS0_8hidl_vecINS0_10hidl_arrayIhLm32EJEEEEEEEE"
  },
  {
   "name":"_ZN7android8hardware4gnss4V1_021BpHwGnssConfiguration13setLppProfileEh"
  },
  {
   "name":"_ZN7android8hardware4gnss4V1_021BpHwGnssConfiguration13unlinkToDeathERKNS_2spINS0_20hidl_death_recipientEEE"
  },
  {
   "name":"_ZN7android8hardware4gnss4V1_021BpHwGnssConfiguration14interfaceChainENSt3__18functionIFvRKNS0_8hidl_vecINS0_11hidl_stringEEEEEE"
  },
  {
   "name":"_ZN7android8hardware4gnss4V1_021BpHwGnssConfiguration14setSuplVersionEj"
  },
  {
   "name":"_ZN7android8hardware4gnss4V1_021BpHwGnssConfiguration15_hidl_setSuplEsEPNS0_10IInterfaceEPNS0_7details16HidlInstrumentorEb"
  },
  {
   "name":"_ZN7android8hardware4gnss4V1_021BpHwGnssConfiguration16_hidl_setGpsLockEPNS0_10IInterfaceEPNS0_7details16HidlInstrumentorEh"
  },
  {
   "name":"_ZN7android8hardware4gnss4V1_021BpHwGnssConfiguration17_hidl_setSuplModeEPNS0_10IInterfaceEPNS0_7details16HidlInstrumentorEh"
  },
  {
   "name":"_ZN7android8hardware4gnss4V1_021BpHwGnssConfiguration19_hidl_setLppProfileEPNS0_10IInterfaceEPNS0_7details16HidlInstrumentorEh"
  },
  {
   "name":"_ZN7android8hardware4gnss4V1_021BpHwGnssConfiguration19interfaceDescriptorENSt3__18functionIFvRKNS0_11hidl_stringEEEE"
  },
  {
   "name":"_ZN7android8hardware4gnss4V1_021BpHwGnssConfiguration19setEmergencySuplPdnEb"
  },
  {
   "name":"_ZN7android8hardware4gnss4V1_021BpHwGnssConfiguration20_hidl_setSuplVersionEPNS0_10IInterfaceEPNS0_7details16HidlInstrumentorEj"
  },
  {
   "name":"_ZN7android8hardware4gnss4V1_021BpHwGnssConfiguration21notifySyspropsChangedEv"
  },
  {
   "name":"_ZN7android8hardware4gnss4V1_021BpHwGnssConfiguration21setHALInstrumentationEv"
  },
  {
   "name":"_ZN7android8hardware4gnss4V1_021BpHwGnssConfiguration25_hidl_setEmergencySuplPdnEPNS0_10IInterfaceEPNS0_7details16HidlInstrumentorEb"
  },
  {
   "name":"_ZN7android8hardware4gnss4V1_021BpHwGnssConfiguration29setGlonassPositioningProtocolEh"
  },
  {
   "name":"_ZN7android8hardware4gnss4V1_021BpHwGnssConfiguration35_hidl_setGlonassPositioningProtocolEPNS0_10IInterfaceEPNS0_7details16HidlInstrumentorEh"
  },
  {
   "name":"_ZN7android8hardware4gnss4V1_021BpHwGnssConfiguration4pingEv"
  },
  {
   "name":"_ZN7android8hardware4gnss4V1_021BpHwGnssConfiguration5debugERKNS0_11hidl_handleERKNS0_8hidl_vecINS0_11hidl_stringEEE"
  },
  {
   "name":"_ZN7android8hardware4gnss4V1_021BpHwGnssConfiguration9setSuplEsEb"
  },
  {
   "name":"_ZN7android8hardware4gnss4V1_021BpHwGnssConfigurationC1ERKNS_2spINS0_7IBinderEEE"
  },
  {
   "name":"_ZN7android8hardware4gnss4V1_021BpHwGnssConfigurationC2ERKNS_2spINS0_7IBinderEEE"
  },
  {
   "name":"_ZN7android8hardware4gnss4V1_021IGnssBatchingCallback10getServiceERKNSt3__112basic_stringIcNS4_11char_traitsIcEENS4_9allocatorIcEEEEb"
  },
  {
   "name":"_ZN7android8hardware4gnss4V1_021IGnssBatchingCallback11linkToDeathERKNS_2spINS0_20hidl_death_recipientEEEm"
  },
  {
   "name":"_ZN7android8hardware4gnss4V1_021IGnssBatchingCallback12getDebugInfoENSt3__18functionIFvRKNS_4hidl4base4V1_09DebugInfoEEEE"
  },
  {
   "name":"_ZN7android8hardware4gnss4V1_021IGnssBatchingCallback12getHashChainENSt3__18functionIFvRKNS0_8hidl_vecINS0_10hidl_arrayIhLm32EJEEEEEEEE"
  },
  {
   "name":"_ZN7android8hardware4gnss4V1_021IGnssBatchingCallback13tryGetServiceERKNSt3__112basic_stringIcNS4_11char_traitsIcEENS4_9allocatorIcEEEEb"
  },
  {
   "name":"_ZN7android8hardware4gnss4V1_021IGnssBatchingCallback13unlinkToDeathERKNS_2spINS0_20hidl_death_recipientEEE"
  },
  {
   "name":"_ZN7android8hardware4gnss4V1_021IGnssBatchingCallback14interfaceChainENSt3__18functionIFvRKNS0_8hidl_vecINS0_11hidl_stringEEEEEE"
  },
  {
   "name":"_ZN7android8hardware4gnss4V1_021IGnssBatchingCallback17registerAsServiceERKNSt3__112basic_stringIcNS4_11char_traitsIcEENS4_9allocatorIcEEEE"
  },
  {
   "name":"_ZN7android8hardware4gnss4V1_021IGnssBatchingCallback19interfaceDescriptorENSt3__18functionIFvRKNS0_11hidl_stringEEEE"
  },
  {
   "name":"_ZN7android8hardware4gnss4V1_021IGnssBatchingCallback21notifySyspropsChangedEv"
  },
  {
   "name":"_ZN7android8hardware4gnss4V1_021IGnssBatchingCallback21setHALInstrumentationEv"
  },
  {
   "name":"_ZN7android8hardware4gnss4V1_021IGnssBatchingCallback24registerForNotificationsERKNSt3__112basic_stringIcNS4_11char_traitsIcEENS4_9allocatorIcEEEERKNS_2spINS_4hidl7manager4V1_020IServiceNotificationEEE"
  },
  {
   "name":"_ZN7android8hardware4gnss4V1_021IGnssBatchingCallback4pingEv"
  },
  {
   "name":"_ZN7android8hardware4gnss4V1_021IGnssBatchingCallback5debugERKNS0_11hidl_handleERKNS0_8hidl_vecINS0_11hidl_stringEEE"
  },
  {
   "name":"_ZN7android8hardware4gnss4V1_021IGnssBatchingCallback8castFromERKNS_2spINS_4hidl4base4V1_05IBaseEEEb"
  },
  {
   "name":"_ZN7android8hardware4gnss4V1_021IGnssBatchingCallback8castFromERKNS_2spIS3_EEb"
  },
  {
   "name":"_ZN7android8hardware4gnss4V1_021IGnssGeofenceCallback10getServiceERKNSt3__112basic_stringIcNS4_11char_traitsIcEENS4_9allocatorIcEEEEb"
  },
  {
   "name":"_ZN7android8hardware4gnss4V1_021IGnssGeofenceCallback11linkToDeathERKNS_2spINS0_20hidl_death_recipientEEEm"
  },
  {
   "name":"_ZN7android8hardware4gnss4V1_021IGnssGeofenceCallback12getDebugInfoENSt3__18functionIFvRKNS_4hidl4base4V1_09DebugInfoEEEE"
  },
  {
   "name":"_ZN7android8hardware4gnss4V1_021IGnssGeofenceCallback12getHashChainENSt3__18functionIFvRKNS0_8hidl_vecINS0_10hidl_arrayIhLm32EJEEEEEEEE"
  },
  {
   "name":"_ZN7android8hardware4gnss4V1_021IGnssGeofenceCallback13tryGetServiceERKNSt3__112basic_stringIcNS4_11char_traitsIcEENS4_9allocatorIcEEEEb"
  },
  {
   "name":"_ZN7android8hardware4gnss4V1_021IGnssGeofenceCallback13unlinkToDeathERKNS_2spINS0_20hidl_death_recipientEEE"
  },
  {
   "name":"_ZN7android8hardware4gnss4V1_021IGnssGeofenceCallback14interfaceChainENSt3__18functionIFvRKNS0_8hidl_vecINS0_11hidl_stringEEEEEE"
  },
  {
   "name":"_ZN7android8hardware4gnss4V1_021IGnssGeofenceCallback17registerAsServiceERKNSt3__112basic_stringIcNS4_11char_traitsIcEENS4_9allocatorIcEEEE"
  },
  {
   "name":"_ZN7android8hardware4gnss4V1_021IGnssGeofenceCallback19interfaceDescriptorENSt3__18functionIFvRKNS0_11hidl_stringEEEE"
  },
  {
   "name":"_ZN7android8hardware4gnss4V1_021IGnssGeofenceCallback21notifySyspropsChangedEv"
  },
  {
   "name":"_ZN7android8hardware4gnss4V1_021IGnssGeofenceCallback21setHALInstrumentationEv"
  },
  {
   "name":"_ZN7android8hardware4gnss4V1_021IGnssGeofenceCallback24registerForNotificationsERKNSt3__112basic_stringIcNS4_11char_traitsIcEENS4_9allocatorIcEEEERKNS_2spINS_4hidl7manager4V1_020IServiceNotificationEEE"
  },
  {
   "name":"_ZN7android8hardware4gnss4V1_021IGnssGeofenceCallback4pingEv"
  },
  {
   "name":"_ZN7android8hardware4gnss4V1_021IGnssGeofenceCallback5debugERKNS0_11hidl_handleERKNS0_8hidl_vecINS0_11hidl_stringEEE"
  },
  {
   "name":"_ZN7android8hardware4gnss4V1_021IGnssGeofenceCallback8castFromERKNS_2spINS_4hidl4base4V1_05IBaseEEEb"
  },
  {
   "name":"_ZN7android8hardware4gnss4V1_021IGnssGeofenceCallback8castFromERKNS_2spIS3_EEb"
  },
  {
   "name":"_ZN7android8hardware4gnss4V1_021writeEmbeddedToParcelERKNS2_10IGnssDebug9DebugDataEPNS0_6ParcelEmm"
  },
  {
   "name":"_ZN7android8hardware4gnss4V1_021writeEmbeddedToParcelERKNS2_15IGnssNiCallback18GnssNiNotificationEPNS0_6ParcelEmm"
  },
  {
   "name":"_ZN7android8hardware4gnss4V1_021writeEmbeddedToParcelERKNS2_30IGnssNavigationMessageCallback21GnssNavigationMessageEPNS0_6ParcelEmm"
  },
  {
   "name":"_ZN7android8hardware4gnss4V1_022BsGnssBatchingCallback13addOnewayTaskENSt3__18functionIFvvEEE"
  },
  {
   "name":"_ZN7android8hardware4gnss4V1_022BsGnssBatchingCallbackC1ENS_2spINS2_21IGnssBatchingCallbackEEE"
  },
  {
   "name":"_ZN7android8hardware4gnss4V1_022BsGnssBatchingCallbackC2ENS_2spINS2_21IGnssBatchingCallbackEEE"
  },
  {
   "name":"_ZN7android8hardware4gnss4V1_022BsGnssGeofenceCallback13addOnewayTaskENSt3__18functionIFvvEEE"
  },
  {
   "name":"_ZN7android8hardware4gnss4V1_022BsGnssGeofenceCallbackC1ENS_2spINS2_21IGnssGeofenceCallbackEEE"
  },
  {
   "name":"_ZN7android8hardware4gnss4V1_022BsGnssGeofenceCallbackC2ENS_2spINS2_21IGnssGeofenceCallbackEEE"
  },
  {
   "name":"_ZN7android8hardware4gnss4V1_022IGnssNavigationMessage10getServiceERKNSt3__112basic_stringIcNS4_11char_traitsIcEENS4_9allocatorIcEEEEb"
  },
  {
   "name":"_ZN7android8hardware4gnss4V1_022IGnssNavigationMessage11linkToDeathERKNS_2spINS0_20hidl_death_recipientEEEm"
  },
  {
   "name":"_ZN7android8hardware4gnss4V1_022IGnssNavigationMessage12getDebugInfoENSt3__18functionIFvRKNS_4hidl4base4V1_09DebugInfoEEEE"
  },
  {
   "name":"_ZN7android8hardware4gnss4V1_022IGnssNavigationMessage12getHashChainENSt3__18functionIFvRKNS0_8hidl_vecINS0_10hidl_arrayIhLm32EJEEEEEEEE"
  },
  {
   "name":"_ZN7android8hardware4gnss4V1_022IGnssNavigationMessage13tryGetServiceERKNSt3__112basic_stringIcNS4_11char_traitsIcEENS4_9allocatorIcEEEEb"
  },
  {
   "name":"_ZN7android8hardware4gnss4V1_022IGnssNavigationMessage13unlinkToDeathERKNS_2spINS0_20hidl_death_recipientEEE"
  },
  {
   "name":"_ZN7android8hardware4gnss4V1_022IGnssNavigationMessage14interfaceChainENSt3__18functionIFvRKNS0_8hidl_vecINS0_11hidl_stringEEEEEE"
  },
  {
   "name":"_ZN7android8hardware4gnss4V1_022IGnssNavigationMessage17registerAsServiceERKNSt3__112basic_stringIcNS4_11char_traitsIcEENS4_9allocatorIcEEEE"
  },
  {
   "name":"_ZN7android8hardware4gnss4V1_022IGnssNavigationMessage19interfaceDescriptorENSt3__18functionIFvRKNS0_11hidl_stringEEEE"
  },
  {
   "name":"_ZN7android8hardware4gnss4V1_022IGnssNavigationMessage21notifySyspropsChangedEv"
  },
  {
   "name":"_ZN7android8hardware4gnss4V1_022IGnssNavigationMessage21setHALInstrumentationEv"
  },
  {
   "name":"_ZN7android8hardware4gnss4V1_022IGnssNavigationMessage24registerForNotificationsERKNSt3__112basic_stringIcNS4_11char_traitsIcEENS4_9allocatorIcEEEERKNS_2spINS_4hidl7manager4V1_020IServiceNotificationEEE"
  },
  {
   "name":"_ZN7android8hardware4gnss4V1_022IGnssNavigationMessage4pingEv"
  },
  {
   "name":"_ZN7android8hardware4gnss4V1_022IGnssNavigationMessage5debugERKNS0_11hidl_handleERKNS0_8hidl_vecINS0_11hidl_stringEEE"
  },
  {
   "name":"_ZN7android8hardware4gnss4V1_022IGnssNavigationMessage8castFromERKNS_2spINS_4hidl4base4V1_05IBaseEEEb"
  },
  {
   "name":"_ZN7android8hardware4gnss4V1_022IGnssNavigationMessage8castFromERKNS_2spIS3_EEb"
  },
  {
   "name":"_ZN7android8hardware4gnss4V1_022readEmbeddedFromParcelERKNS2_10IGnssDebug9DebugDataERKNS0_6ParcelEmm"
  },
  {
   "name":"_ZN7android8hardware4gnss4V1_022readEmbeddedFromParcelERKNS2_15IGnssNiCallback18GnssNiNotificationERKNS0_6ParcelEmm"
  },
  {
   "name":"_ZN7android8hardware4gnss4V1_022readEmbeddedFromParcelERKNS2_30IGnssNavigationMessageCallback21GnssNavigationMessageERKNS0_6ParcelEmm"
  },
  {
   "name":"_ZN7android8hardware4gnss4V1_023BsGnssNavigationMessage13addOnewayTaskENSt3__18functionIFvvEEE"
  },
  {
   "name":"_ZN7android8hardware4gnss4V1_023BsGnssNavigationMessageC1ENS_2spINS2_22IGnssNavigationMessageEEE"
  },
  {
   "name":"_ZN7android8hardware4gnss4V1_023BsGnssNavigationMessageC2ENS_2spINS2_22IGnssNavigationMessageEEE"
  },
  {
   "name":"_ZN7android8hardware4gnss4V1_024BnHwGnssBatchingCallback10onTransactEjRKNS0_6ParcelEPS4_jNSt3__18functionIFvRS4_EEE"
  },
  {
   "name":"_ZN7android8hardware4gnss4V1_024BnHwGnssBatchingCallback12getDebugInfoENSt3__18functionIFvRKNS_4hidl4base4V1_09DebugInfoEEEE"
  },
  {
   "name":"_ZN7android8hardware4gnss4V1_024BnHwGnssBatchingCallback25_hidl_gnssLocationBatchCbEPNS_4hidl4base4V1_08BnHwBaseERKNS0_6ParcelEPS9_NSt3__18functionIFvRS9_EEE"
  },
  {
   "name":"_ZN7android8hardware4gnss4V1_024BnHwGnssBatchingCallback4pingEv"
  },
  {
   "name":"_ZN7android8hardware4gnss4V1_024BnHwGnssBatchingCallbackC1ERKNS_2spINS2_21IGnssBatchingCallbackEEE"
  },
  {
   "name":"_ZN7android8hardware4gnss4V1_024BnHwGnssBatchingCallbackC2ERKNS_2spINS2_21IGnssBatchingCallbackEEE"
  },
  {
   "name":"_ZN7android8hardware4gnss4V1_024BnHwGnssBatchingCallbackD0Ev"
  },
  {
   "name":"_ZN7android8hardware4gnss4V1_024BnHwGnssBatchingCallbackD1Ev"
  },
  {
   "name":"_ZN7android8hardware4gnss4V1_024BnHwGnssBatchingCallbackD2Ev"
  },
  {
   "name":"_ZN7android8hardware4gnss4V1_024BnHwGnssGeofenceCallback10onTransactEjRKNS0_6ParcelEPS4_jNSt3__18functionIFvRS4_EEE"
  },
  {
   "name":"_ZN7android8hardware4gnss4V1_024BnHwGnssGeofenceCallback12getDebugInfoENSt3__18functionIFvRKNS_4hidl4base4V1_09DebugInfoEEEE"
  },
  {
   "name":"_ZN7android8hardware4gnss4V1_024BnHwGnssGeofenceCallback23_hidl_gnssGeofenceAddCbEPNS_4hidl4base4V1_08BnHwBaseERKNS0_6ParcelEPS9_NSt3__18functionIFvRS9_EEE"
  },
  {
   "name":"_ZN7android8hardware4gnss4V1_024BnHwGnssGeofenceCallback25_hidl_gnssGeofencePauseCbEPNS_4hidl4base4V1_08BnHwBaseERKNS0_6ParcelEPS9_NSt3__18functionIFvRS9_EEE"
  },
  {
   "name":"_ZN7android8hardware4gnss4V1_024BnHwGnssGeofenceCallback26_hidl_gnssGeofenceRemoveCbEPNS_4hidl4base4V1_08BnHwBaseERKNS0_6ParcelEPS9_NSt3__18functionIFvRS9_EEE"
  },
  {
   "name":"_ZN7android8hardware4gnss4V1_024BnHwGnssGeofenceCallback26_hidl_gnssGeofenceResumeCbEPNS_4hidl4base4V1_08BnHwBaseERKNS0_6ParcelEPS9_NSt3__18functionIFvRS9_EEE"
  },
  {
   "name":"_ZN7android8hardware4gnss4V1_024BnHwGnssGeofenceCallback26_hidl_gnssGeofenceStatusCbEPNS_4hidl4base4V1_08BnHwBaseERKNS0_6ParcelEPS9_NSt3__18functionIFvRS9_EEE"
  },
  {
   "name":"_ZN7android8hardware4gnss4V1_024BnHwGnssGeofenceCallback30_hidl_gnssGeofenceTransitionCbEPNS_4hidl4base4V1_08BnHwBaseERKNS0_6ParcelEPS9_NSt3__18functionIFvRS9_EEE"
  },
  {
   "name":"_ZN7android8hardware4gnss4V1_024BnHwGnssGeofenceCallback4pingEv"
  },
  {
   "name":"_ZN7android8hardware4gnss4V1_024BnHwGnssGeofenceCallbackC1ERKNS_2spINS2_21IGnssGeofenceCallbackEEE"
  },
  {
   "name":"_ZN7android8hardware4gnss4V1_024BnHwGnssGeofenceCallbackC2ERKNS_2spINS2_21IGnssGeofenceCallbackEEE"
  },
  {
   "name":"_ZN7android8hardware4gnss4V1_024BnHwGnssGeofenceCallbackD0Ev"
  },
  {
   "name":"_ZN7android8hardware4gnss4V1_024BnHwGnssGeofenceCallbackD1Ev"
  },
  {
   "name":"_ZN7android8hardware4gnss4V1_024BnHwGnssGeofenceCallbackD2Ev"
  },
  {
   "name":"_ZN7android8hardware4gnss4V1_024BpHwGnssBatchingCallback11linkToDeathERKNS_2spINS0_20hidl_death_recipientEEEm"
  },
  {
   "name":"_ZN7android8hardware4gnss4V1_024BpHwGnssBatchingCallback12getDebugInfoENSt3__18functionIFvRKNS_4hidl4base4V1_09DebugInfoEEEE"
  },
  {
   "name":"_ZN7android8hardware4gnss4V1_024BpHwGnssBatchingCallback12getHashChainENSt3__18functionIFvRKNS0_8hidl_vecINS0_10hidl_arrayIhLm32EJEEEEEEEE"
  },
  {
   "name":"_ZN7android8hardware4gnss4V1_024BpHwGnssBatchingCallback13unlinkToDeathERKNS_2spINS0_20hidl_death_recipientEEE"
  },
  {
   "name":"_ZN7android8hardware4gnss4V1_024BpHwGnssBatchingCallback14interfaceChainENSt3__18functionIFvRKNS0_8hidl_vecINS0_11hidl_stringEEEEEE"
  },
  {
   "name":"_ZN7android8hardware4gnss4V1_024BpHwGnssBatchingCallback19gnssLocationBatchCbERKNS0_8hidl_vecINS2_12GnssLocationEEE"
  },
  {
   "name":"_ZN7android8hardware4gnss4V1_024BpHwGnssBatchingCallback19interfaceDescriptorENSt3__18functionIFvRKNS0_11hidl_stringEEEE"
  },
  {
   "name":"_ZN7android8hardware4gnss4V1_024BpHwGnssBatchingCallback21notifySyspropsChangedEv"
  },
  {
   "name":"_ZN7android8hardware4gnss4V1_024BpHwGnssBatchingCallback21setHALInstrumentationEv"
  },
  {
   "name":"_ZN7android8hardware4gnss4V1_024BpHwGnssBatchingCallback25_hidl_gnssLocationBatchCbEPNS0_10IInterfaceEPNS0_7details16HidlInstrumentorERKNS0_8hidl_vecINS2_12GnssLocationEEE"
  },
  {
   "name":"_ZN7android8hardware4gnss4V1_024BpHwGnssBatchingCallback4pingEv"
  },
  {
   "name":"_ZN7android8hardware4gnss4V1_024BpHwGnssBatchingCallback5debugERKNS0_11hidl_handleERKNS0_8hidl_vecINS0_11hidl_stringEEE"
  },
  {
   "name":"_ZN7android8hardware4gnss4V1_024BpHwGnssBatchingCallbackC1ERKNS_2spINS0_7IBinderEEE"
  },
  {
   "name":"_ZN7android8hardware4gnss4V1_024BpHwGnssBatchingCallbackC2ERKNS_2spINS0_7IBinderEEE"
  },
  {
   "name":"_ZN7android8hardware4gnss4V1_024BpHwGnssGeofenceCallback11linkToDeathERKNS_2spINS0_20hidl_death_recipientEEEm"
  },
  {
   "name":"_ZN7android8hardware4gnss4V1_024BpHwGnssGeofenceCallback12getDebugInfoENSt3__18functionIFvRKNS_4hidl4base4V1_09DebugInfoEEEE"
  },
  {
   "name":"_ZN7android8hardware4gnss4V1_024BpHwGnssGeofenceCallback12getHashChainENSt3__18functionIFvRKNS0_8hidl_vecINS0_10hidl_arrayIhLm32EJEEEEEEEE"
  },
  {
   "name":"_ZN7android8hardware4gnss4V1_024BpHwGnssGeofenceCallback13unlinkToDeathERKNS_2spINS0_20hidl_death_recipientEEE"
  },
  {
   "name":"_ZN7android8hardware4gnss4V1_024BpHwGnssGeofenceCallback14interfaceChainENSt3__18functionIFvRKNS0_8hidl_vecINS0_11hidl_stringEEEEEE"
  },
  {
   "name":"_ZN7android8hardware4gnss4V1_024BpHwGnssGeofenceCallback17gnssGeofenceAddCbEiNS2_21IGnssGeofenceCallback14GeofenceStatusE"
  },
  {
   "name":"_ZN7android8hardware4gnss4V1_024BpHwGnssGeofenceCallback19gnssGeofencePauseCbEiNS2_21IGnssGeofenceCallback14GeofenceStatusE"
  },
  {
   "name":"_ZN7android8hardware4gnss4V1_024BpHwGnssGeofenceCallback19interfaceDescriptorENSt3__18functionIFvRKNS0_11hidl_stringEEEE"
  },
  {
   "name":"_ZN7android8hardware4gnss4V1_024BpHwGnssGeofenceCallback20gnssGeofenceRemoveCbEiNS2_21IGnssGeofenceCallback14GeofenceStatusE"
  },
  {
   "name":"_ZN7android8hardware4gnss4V1_024BpHwGnssGeofenceCallback20gnssGeofenceResumeCbEiNS2_21IGnssGeofenceCallback14GeofenceStatusE"
  },
  {
   "name":"_ZN7android8hardware4gnss4V1_024BpHwGnssGeofenceCallback20gnssGeofenceStatusCbENS2_21IGnssGeofenceCallback20GeofenceAvailabilityERKNS2_12GnssLocationE"
  },
  {
   "name":"_ZN7android8hardware4gnss4V1_024BpHwGnssGeofenceCallback21notifySyspropsChangedEv"
  },
  {
   "name":"_ZN7android8hardware4gnss4V1_024BpHwGnssGeofenceCallback21setHALInstrumentationEv"
  },
  {
   "name":"_ZN7android8hardware4gnss4V1_024BpHwGnssGeofenceCallback23_hidl_gnssGeofenceAddCbEPNS0_10IInterfaceEPNS0_7details16HidlInstrumentorEiNS2_21IGnssGeofenceCallback14GeofenceStatusE"
  },
  {
   "name":"_ZN7android8hardware4gnss4V1_024BpHwGnssGeofenceCallback24gnssGeofenceTransitionCbEiRKNS2_12GnssLocationENS2_21IGnssGeofenceCallback18GeofenceTransitionEl"
  },
  {
   "name":"_ZN7android8hardware4gnss4V1_024BpHwGnssGeofenceCallback25_hidl_gnssGeofencePauseCbEPNS0_10IInterfaceEPNS0_7details16HidlInstrumentorEiNS2_21IGnssGeofenceCallback14GeofenceStatusE"
  },
  {
   "name":"_ZN7android8hardware4gnss4V1_024BpHwGnssGeofenceCallback26_hidl_gnssGeofenceRemoveCbEPNS0_10IInterfaceEPNS0_7details16HidlInstrumentorEiNS2_21IGnssGeofenceCallback14GeofenceStatusE"
  },
  {
   "name":"_ZN7android8hardware4gnss4V1_024BpHwGnssGeofenceCallback26_hidl_gnssGeofenceResumeCbEPNS0_10IInterfaceEPNS0_7details16HidlInstrumentorEiNS2_21IGnssGeofenceCallback14GeofenceStatusE"
  },
  {
   "name":"_ZN7android8hardware4gnss4V1_024BpHwGnssGeofenceCallback26_hidl_gnssGeofenceStatusCbEPNS0_10IInterfaceEPNS0_7details16HidlInstrumentorENS2_21IGnssGeofenceCallback20GeofenceAvailabilityERKNS2_12GnssLocationE"
  },
  {
   "name":"_ZN7android8hardware4gnss4V1_024BpHwGnssGeofenceCallback30_hidl_gnssGeofenceTransitionCbEPNS0_10IInterfaceEPNS0_7details16HidlInstrumentorEiRKNS2_12GnssLocationENS2_21IGnssGeofenceCallback18GeofenceTransitionEl"
  },
  {
   "name":"_ZN7android8hardware4gnss4V1_024BpHwGnssGeofenceCallback4pingEv"
  },
  {
   "name":"_ZN7android8hardware4gnss4V1_024BpHwGnssGeofenceCallback5debugERKNS0_11hidl_handleERKNS0_8hidl_vecINS0_11hidl_stringEEE"
  },
  {
   "name":"_ZN7android8hardware4gnss4V1_024BpHwGnssGeofenceCallbackC1ERKNS_2spINS0_7IBinderEEE"
  },
  {
   "name":"_ZN7android8hardware4gnss4V1_024BpHwGnssGeofenceCallbackC2ERKNS_2spINS0_7IBinderEEE"
  },
  {
   "name":"_ZN7android8hardware4gnss4V1_024IGnssMeasurementCallback10getServiceERKNSt3__112basic_stringIcNS4_11char_traitsIcEENS4_9allocatorIcEEEEb"
  },
  {
   "name":"_ZN7android8hardware4gnss4V1_024IGnssMeasurementCallback11linkToDeathERKNS_2spINS0_20hidl_death_recipientEEEm"
  },
  {
   "name":"_ZN7android8hardware4gnss4V1_024IGnssMeasurementCallback12getDebugInfoENSt3__18functionIFvRKNS_4hidl4base4V1_09DebugInfoEEEE"
  },
  {
   "name":"_ZN7android8hardware4gnss4V1_024IGnssMeasurementCallback12getHashChainENSt3__18functionIFvRKNS0_8hidl_vecINS0_10hidl_arrayIhLm32EJEEEEEEEE"
  },
  {
   "name":"_ZN7android8hardware4gnss4V1_024IGnssMeasurementCallback13tryGetServiceERKNSt3__112basic_stringIcNS4_11char_traitsIcEENS4_9allocatorIcEEEEb"
  },
  {
   "name":"_ZN7android8hardware4gnss4V1_024IGnssMeasurementCallback13unlinkToDeathERKNS_2spINS0_20hidl_death_recipientEEE"
  },
  {
   "name":"_ZN7android8hardware4gnss4V1_024IGnssMeasurementCallback14interfaceChainENSt3__18functionIFvRKNS0_8hidl_vecINS0_11hidl_stringEEEEEE"
  },
  {
   "name":"_ZN7android8hardware4gnss4V1_024IGnssMeasurementCallback17registerAsServiceERKNSt3__112basic_stringIcNS4_11char_traitsIcEENS4_9allocatorIcEEEE"
  },
  {
   "name":"_ZN7android8hardware4gnss4V1_024IGnssMeasurementCallback19interfaceDescriptorENSt3__18functionIFvRKNS0_11hidl_stringEEEE"
  },
  {
   "name":"_ZN7android8hardware4gnss4V1_024IGnssMeasurementCallback21notifySyspropsChangedEv"
  },
  {
   "name":"_ZN7android8hardware4gnss4V1_024IGnssMeasurementCallback21setHALInstrumentationEv"
  },
  {
   "name":"_ZN7android8hardware4gnss4V1_024IGnssMeasurementCallback24registerForNotificationsERKNSt3__112basic_stringIcNS4_11char_traitsIcEENS4_9allocatorIcEEEERKNS_2spINS_4hidl7manager4V1_020IServiceNotificationEEE"
  },
  {
   "name":"_ZN7android8hardware4gnss4V1_024IGnssMeasurementCallback4pingEv"
  },
  {
   "name":"_ZN7android8hardware4gnss4V1_024IGnssMeasurementCallback5debugERKNS0_11hidl_handleERKNS0_8hidl_vecINS0_11hidl_stringEEE"
  },
  {
   "name":"_ZN7android8hardware4gnss4V1_024IGnssMeasurementCallback8castFromERKNS_2spINS_4hidl4base4V1_05IBaseEEEb"
  },
  {
   "name":"_ZN7android8hardware4gnss4V1_024IGnssMeasurementCallback8castFromERKNS_2spIS3_EEb"
  },
  {
   "name":"_ZN7android8hardware4gnss4V1_025BnHwGnssNavigationMessage10onTransactEjRKNS0_6ParcelEPS4_jNSt3__18functionIFvRS4_EEE"
  },
  {
   "name":"_ZN7android8hardware4gnss4V1_025BnHwGnssNavigationMessage11_hidl_closeEPNS_4hidl4base4V1_08BnHwBaseERKNS0_6ParcelEPS9_NSt3__18functionIFvRS9_EEE"
  },
  {
   "name":"_ZN7android8hardware4gnss4V1_025BnHwGnssNavigationMessage12getDebugInfoENSt3__18functionIFvRKNS_4hidl4base4V1_09DebugInfoEEEE"
  },
  {
   "name":"_ZN7android8hardware4gnss4V1_025BnHwGnssNavigationMessage17_hidl_setCallbackEPNS_4hidl4base4V1_08BnHwBaseERKNS0_6ParcelEPS9_NSt3__18functionIFvRS9_EEE"
  },
  {
   "name":"_ZN7android8hardware4gnss4V1_025BnHwGnssNavigationMessage4pingEv"
  },
  {
   "name":"_ZN7android8hardware4gnss4V1_025BnHwGnssNavigationMessageC1ERKNS_2spINS2_22IGnssNavigationMessageEEE"
  },
  {
   "name":"_ZN7android8hardware4gnss4V1_025BnHwGnssNavigationMessageC2ERKNS_2spINS2_22IGnssNavigationMessageEEE"
  },
  {
   "name":"_ZN7android8hardware4gnss4V1_025BnHwGnssNavigationMessageD0Ev"
  },
  {
   "name":"_ZN7android8hardware4gnss4V1_025BnHwGnssNavigationMessageD1Ev"
  },
  {
   "name":"_ZN7android8hardware4gnss4V1_025BnHwGnssNavigationMessageD2Ev"
  },
  {
   "name":"_ZN7android8hardware4gnss4V1_025BpHwGnssNavigationMessage11_hidl_closeEPNS0_10IInterfaceEPNS0_7details16HidlInstrumentorE"
  },
  {
   "name":"_ZN7android8hardware4gnss4V1_025BpHwGnssNavigationMessage11linkToDeathERKNS_2spINS0_20hidl_death_recipientEEEm"
  },
  {
   "name":"_ZN7android8hardware4gnss4V1_025BpHwGnssNavigationMessage11setCallbackERKNS_2spINS2_30IGnssNavigationMessageCallbackEEE"
  },
  {
   "name":"_ZN7android8hardware4gnss4V1_025BpHwGnssNavigationMessage12getDebugInfoENSt3__18functionIFvRKNS_4hidl4base4V1_09DebugInfoEEEE"
  },
  {
   "name":"_ZN7android8hardware4gnss4V1_025BpHwGnssNavigationMessage12getHashChainENSt3__18functionIFvRKNS0_8hidl_vecINS0_10hidl_arrayIhLm32EJEEEEEEEE"
  },
  {
   "name":"_ZN7android8hardware4gnss4V1_025BpHwGnssNavigationMessage13unlinkToDeathERKNS_2spINS0_20hidl_death_recipientEEE"
  },
  {
   "name":"_ZN7android8hardware4gnss4V1_025BpHwGnssNavigationMessage14interfaceChainENSt3__18functionIFvRKNS0_8hidl_vecINS0_11hidl_stringEEEEEE"
  },
  {
   "name":"_ZN7android8hardware4gnss4V1_025BpHwGnssNavigationMessage17_hidl_setCallbackEPNS0_10IInterfaceEPNS0_7details16HidlInstrumentorERKNS_2spINS2_30IGnssNavigationMessageCallbackEEE"
  },
  {
   "name":"_ZN7android8hardware4gnss4V1_025BpHwGnssNavigationMessage19interfaceDescriptorENSt3__18functionIFvRKNS0_11hidl_stringEEEE"
  },
  {
   "name":"_ZN7android8hardware4gnss4V1_025BpHwGnssNavigationMessage21notifySyspropsChangedEv"
  },
  {
   "name":"_ZN7android8hardware4gnss4V1_025BpHwGnssNavigationMessage21setHALInstrumentationEv"
  },
  {
   "name":"_ZN7android8hardware4gnss4V1_025BpHwGnssNavigationMessage4pingEv"
  },
  {
   "name":"_ZN7android8hardware4gnss4V1_025BpHwGnssNavigationMessage5closeEv"
  },
  {
   "name":"_ZN7android8hardware4gnss4V1_025BpHwGnssNavigationMessage5debugERKNS0_11hidl_handleERKNS0_8hidl_vecINS0_11hidl_stringEEE"
  },
  {
   "name":"_ZN7android8hardware4gnss4V1_025BpHwGnssNavigationMessageC1ERKNS_2spINS0_7IBinderEEE"
  },
  {
   "name":"_ZN7android8hardware4gnss4V1_025BpHwGnssNavigationMessageC2ERKNS_2spINS0_7IBinderEEE"
  },
  {
   "name":"_ZN7android8hardware4gnss4V1_025BsGnssMeasurementCallback13addOnewayTaskENSt3__18functionIFvvEEE"
  },
  {
   "name":"_ZN7android8hardware4gnss4V1_025BsGnssMeasurementCallbackC1ENS_2spINS2_24IGnssMeasurementCallbackEEE"
  },
  {
   "name":"_ZN7android8hardware4gnss4V1_025BsGnssMeasurementCallbackC2ENS_2spINS2_24IGnssMeasurementCallbackEEE"
  },
  {
   "name":"_ZN7android8hardware4gnss4V1_027BnHwGnssMeasurementCallback10onTransactEjRKNS0_6ParcelEPS4_jNSt3__18functionIFvRS4_EEE"
  },
  {
   "name":"_ZN7android8hardware4gnss4V1_027BnHwGnssMeasurementCallback12getDebugInfoENSt3__18functionIFvRKNS_4hidl4base4V1_09DebugInfoEEEE"
  },
  {
   "name":"_ZN7android8hardware4gnss4V1_027BnHwGnssMeasurementCallback23_hidl_GnssMeasurementCbEPNS_4hidl4base4V1_08BnHwBaseERKNS0_6ParcelEPS9_NSt3__18functionIFvRS9_EEE"
  },
  {
   "name":"_ZN7android8hardware4gnss4V1_027BnHwGnssMeasurementCallback4pingEv"
  },
  {
   "name":"_ZN7android8hardware4gnss4V1_027BnHwGnssMeasurementCallbackC1ERKNS_2spINS2_24IGnssMeasurementCallbackEEE"
  },
  {
   "name":"_ZN7android8hardware4gnss4V1_027BnHwGnssMeasurementCallbackC2ERKNS_2spINS2_24IGnssMeasurementCallbackEEE"
  },
  {
   "name":"_ZN7android8hardware4gnss4V1_027BnHwGnssMeasurementCallbackD0Ev"
  },
  {
   "name":"_ZN7android8hardware4gnss4V1_027BnHwGnssMeasurementCallbackD1Ev"
  },
  {
   "name":"_ZN7android8hardware4gnss4V1_027BnHwGnssMeasurementCallbackD2Ev"
  },
  {
   "name":"_ZN7android8hardware4gnss4V1_027BpHwGnssMeasurementCallback11linkToDeathERKNS_2spINS0_20hidl_death_recipientEEEm"
  },
  {
   "name":"_ZN7android8hardware4gnss4V1_027BpHwGnssMeasurementCallback12getDebugInfoENSt3__18functionIFvRKNS_4hidl4base4V1_09DebugInfoEEEE"
  },
  {
   "name":"_ZN7android8hardware4gnss4V1_027BpHwGnssMeasurementCallback12getHashChainENSt3__18functionIFvRKNS0_8hidl_vecINS0_10hidl_arrayIhLm32EJEEEEEEEE"
  },
  {
   "name":"_ZN7android8hardware4gnss4V1_027BpHwGnssMeasurementCallback13unlinkToDeathERKNS_2spINS0_20hidl_death_recipientEEE"
  },
  {
   "name":"_ZN7android8hardware4gnss4V1_027BpHwGnssMeasurementCallback14interfaceChainENSt3__18functionIFvRKNS0_8hidl_vecINS0_11hidl_stringEEEEEE"
  },
  {
   "name":"_ZN7android8hardware4gnss4V1_027BpHwGnssMeasurementCallback17GnssMeasurementCbERKNS2_24IGnssMeasurementCallback8GnssDataE"
  },
  {
   "name":"_ZN7android8hardware4gnss4V1_027BpHwGnssMeasurementCallback19interfaceDescriptorENSt3__18functionIFvRKNS0_11hidl_stringEEEE"
  },
  {
   "name":"_ZN7android8hardware4gnss4V1_027BpHwGnssMeasurementCallback21notifySyspropsChangedEv"
  },
  {
   "name":"_ZN7android8hardware4gnss4V1_027BpHwGnssMeasurementCallback21setHALInstrumentationEv"
  },
  {
   "name":"_ZN7android8hardware4gnss4V1_027BpHwGnssMeasurementCallback23_hidl_GnssMeasurementCbEPNS0_10IInterfaceEPNS0_7details16HidlInstrumentorERKNS2_24IGnssMeasurementCallback8GnssDataE"
  },
  {
   "name":"_ZN7android8hardware4gnss4V1_027BpHwGnssMeasurementCallback4pingEv"
  },
  {
   "name":"_ZN7android8hardware4gnss4V1_027BpHwGnssMeasurementCallback5debugERKNS0_11hidl_handleERKNS0_8hidl_vecINS0_11hidl_stringEEE"
  },
  {
   "name":"_ZN7android8hardware4gnss4V1_027BpHwGnssMeasurementCallbackC1ERKNS_2spINS0_7IBinderEEE"
  },
  {
   "name":"_ZN7android8hardware4gnss4V1_027BpHwGnssMeasurementCallbackC2ERKNS_2spINS0_7IBinderEEE"
  },
  {
   "name":"_ZN7android8hardware4gnss4V1_030IGnssNavigationMessageCallback10getServiceERKNSt3__112basic_stringIcNS4_11char_traitsIcEENS4_9allocatorIcEEEEb"
  },
  {
   "name":"_ZN7android8hardware4gnss4V1_030IGnssNavigationMessageCallback11linkToDeathERKNS_2spINS0_20hidl_death_recipientEEEm"
  },
  {
   "name":"_ZN7android8hardware4gnss4V1_030IGnssNavigationMessageCallback12getDebugInfoENSt3__18functionIFvRKNS_4hidl4base4V1_09DebugInfoEEEE"
  },
  {
   "name":"_ZN7android8hardware4gnss4V1_030IGnssNavigationMessageCallback12getHashChainENSt3__18functionIFvRKNS0_8hidl_vecINS0_10hidl_arrayIhLm32EJEEEEEEEE"
  },
  {
   "name":"_ZN7android8hardware4gnss4V1_030IGnssNavigationMessageCallback13tryGetServiceERKNSt3__112basic_stringIcNS4_11char_traitsIcEENS4_9allocatorIcEEEEb"
  },
  {
   "name":"_ZN7android8hardware4gnss4V1_030IGnssNavigationMessageCallback13unlinkToDeathERKNS_2spINS0_20hidl_death_recipientEEE"
  },
  {
   "name":"_ZN7android8hardware4gnss4V1_030IGnssNavigationMessageCallback14interfaceChainENSt3__18functionIFvRKNS0_8hidl_vecINS0_11hidl_stringEEEEEE"
  },
  {
   "name":"_ZN7android8hardware4gnss4V1_030IGnssNavigationMessageCallback17registerAsServiceERKNSt3__112basic_stringIcNS4_11char_traitsIcEENS4_9allocatorIcEEEE"
  },
  {
   "name":"_ZN7android8hardware4gnss4V1_030IGnssNavigationMessageCallback19interfaceDescriptorENSt3__18functionIFvRKNS0_11hidl_stringEEEE"
  },
  {
   "name":"_ZN7android8hardware4gnss4V1_030IGnssNavigationMessageCallback21notifySyspropsChangedEv"
  },
  {
   "name":"_ZN7android8hardware4gnss4V1_030IGnssNavigationMessageCallback21setHALInstrumentationEv"
  },
  {
   "name":"_ZN7android8hardware4gnss4V1_030IGnssNavigationMessageCallback24registerForNotificationsERKNSt3__112basic_stringIcNS4_11char_traitsIcEENS4_9allocatorIcEEEERKNS_2spINS_4hidl7manager4V1_020IServiceNotificationEEE"
  },
  {
   "name":"_ZN7android8hardware4gnss4V1_030IGnssNavigationMessageCallback4pingEv"
  },
  {
   "name":"_ZN7android8hardware4gnss4V1_030IGnssNavigationMessageCallback5debugERKNS0_11hidl_handleERKNS0_8hidl_vecINS0_11hidl_stringEEE"
  },
  {
   "name":"_ZN7android8hardware4gnss4V1_030IGnssNavigationMessageCallback8castFromERKNS_2spINS_4hidl4base4V1_05IBaseEEEb"
  },
  {
   "name":"_ZN7android8hardware4gnss4V1_030IGnssNavigationMessageCallback8castFromERKNS_2spIS3_EEb"
  },
  {
   "name":"_ZN7android8hardware4gnss4V1_031BsGnssNavigationMessageCallback13addOnewayTaskENSt3__18functionIFvvEEE"
  },
  {
   "name":"_ZN7android8hardware4gnss4V1_031BsGnssNavigationMessageCallbackC1ENS_2spINS2_30IGnssNavigationMessageCallbackEEE"
  },
  {
   "name":"_ZN7android8hardware4gnss4V1_031BsGnssNavigationMessageCallbackC2ENS_2spINS2_30IGnssNavigationMessageCallbackEEE"
  },
  {
   "name":"_ZN7android8hardware4gnss4V1_033BnHwGnssNavigationMessageCallback10onTransactEjRKNS0_6ParcelEPS4_jNSt3__18functionIFvRS4_EEE"
  },
  {
   "name":"_ZN7android8hardware4gnss4V1_033BnHwGnssNavigationMessageCallback12getDebugInfoENSt3__18functionIFvRKNS_4hidl4base4V1_09DebugInfoEEEE"
  },
  {
   "name":"_ZN7android8hardware4gnss4V1_033BnHwGnssNavigationMessageCallback29_hidl_gnssNavigationMessageCbEPNS_4hidl4base4V1_08BnHwBaseERKNS0_6ParcelEPS9_NSt3__18functionIFvRS9_EEE"
  },
  {
   "name":"_ZN7android8hardware4gnss4V1_033BnHwGnssNavigationMessageCallback4pingEv"
  },
  {
   "name":"_ZN7android8hardware4gnss4V1_033BnHwGnssNavigationMessageCallbackC1ERKNS_2spINS2_30IGnssNavigationMessageCallbackEEE"
  },
  {
   "name":"_ZN7android8hardware4gnss4V1_033BnHwGnssNavigationMessageCallbackC2ERKNS_2spINS2_30IGnssNavigationMessageCallbackEEE"
  },
  {
   "name":"_ZN7android8hardware4gnss4V1_033BnHwGnssNavigationMessageCallbackD0Ev"
  },
  {
   "name":"_ZN7android8hardware4gnss4V1_033BnHwGnssNavigationMessageCallbackD1Ev"
  },
  {
   "name":"_ZN7android8hardware4gnss4V1_033BnHwGnssNavigationMessageCallbackD2Ev"
  },
  {
   "name":"_ZN7android8hardware4gnss4V1_033BpHwGnssNavigationMessageCallback11linkToDeathERKNS_2spINS0_20hidl_death_recipientEEEm"
  },
  {
   "name":"_ZN7android8hardware4gnss4V1_033BpHwGnssNavigationMessageCallback12getDebugInfoENSt3__18functionIFvRKNS_4hidl4base4V1_09DebugInfoEEEE"
  },
  {
   "name":"_ZN7android8hardware4gnss4V1_033BpHwGnssNavigationMessageCallback12getHashChainENSt3__18functionIFvRKNS0_8hidl_vecINS0_10hidl_arrayIhLm32EJEEEEEEEE"
  },
  {
   "name":"_ZN7android8hardware4gnss4V1_033BpHwGnssNavigationMessageCallback13unlinkToDeathERKNS_2spINS0_20hidl_death_recipientEEE"
  },
  {
   "name":"_ZN7android8hardware4gnss4V1_033BpHwGnssNavigationMessageCallback14interfaceChainENSt3__18functionIFvRKNS0_8hidl_vecINS0_11hidl_stringEEEEEE"
  },
  {
   "name":"_ZN7android8hardware4gnss4V1_033BpHwGnssNavigationMessageCallback19interfaceDescriptorENSt3__18functionIFvRKNS0_11hidl_stringEEEE"
  },
  {
   "name":"_ZN7android8hardware4gnss4V1_033BpHwGnssNavigationMessageCallback21notifySyspropsChangedEv"
  },
  {
   "name":"_ZN7android8hardware4gnss4V1_033BpHwGnssNavigationMessageCallback21setHALInstrumentationEv"
  },
  {
   "name":"_ZN7android8hardware4gnss4V1_033BpHwGnssNavigationMessageCallback23gnssNavigationMessageCbERKNS2_30IGnssNavigationMessageCallback21GnssNavigationMessageE"
  },
  {
   "name":"_ZN7android8hardware4gnss4V1_033BpHwGnssNavigationMessageCallback29_hidl_gnssNavigationMessageCbEPNS0_10IInterfaceEPNS0_7details16HidlInstrumentorERKNS2_30IGnssNavigationMessageCallback21GnssNavigationMessageE"
  },
  {
   "name":"_ZN7android8hardware4gnss4V1_033BpHwGnssNavigationMessageCallback4pingEv"
  },
  {
   "name":"_ZN7android8hardware4gnss4V1_033BpHwGnssNavigationMessageCallback5debugERKNS0_11hidl_handleERKNS0_8hidl_vecINS0_11hidl_stringEEE"
  },
  {
   "name":"_ZN7android8hardware4gnss4V1_033BpHwGnssNavigationMessageCallbackC1ERKNS_2spINS0_7IBinderEEE"
  },
  {
   "name":"_ZN7android8hardware4gnss4V1_033BpHwGnssNavigationMessageCallbackC2ERKNS_2spINS0_7IBinderEEE"
  },
  {
   "name":"_ZN7android8hardware4gnss4V1_05IGnss10getServiceERKNSt3__112basic_stringIcNS4_11char_traitsIcEENS4_9allocatorIcEEEEb"
  },
  {
   "name":"_ZN7android8hardware4gnss4V1_05IGnss11linkToDeathERKNS_2spINS0_20hidl_death_recipientEEEm"
  },
  {
   "name":"_ZN7android8hardware4gnss4V1_05IGnss12getDebugInfoENSt3__18functionIFvRKNS_4hidl4base4V1_09DebugInfoEEEE"
  },
  {
   "name":"_ZN7android8hardware4gnss4V1_05IGnss12getHashChainENSt3__18functionIFvRKNS0_8hidl_vecINS0_10hidl_arrayIhLm32EJEEEEEEEE"
  },
  {
   "name":"_ZN7android8hardware4gnss4V1_05IGnss13tryGetServiceERKNSt3__112basic_stringIcNS4_11char_traitsIcEENS4_9allocatorIcEEEEb"
  },
  {
   "name":"_ZN7android8hardware4gnss4V1_05IGnss13unlinkToDeathERKNS_2spINS0_20hidl_death_recipientEEE"
  },
  {
   "name":"_ZN7android8hardware4gnss4V1_05IGnss14interfaceChainENSt3__18functionIFvRKNS0_8hidl_vecINS0_11hidl_stringEEEEEE"
  },
  {
   "name":"_ZN7android8hardware4gnss4V1_05IGnss17registerAsServiceERKNSt3__112basic_stringIcNS4_11char_traitsIcEENS4_9allocatorIcEEEE"
  },
  {
   "name":"_ZN7android8hardware4gnss4V1_05IGnss19interfaceDescriptorENSt3__18functionIFvRKNS0_11hidl_stringEEEE"
  },
  {
   "name":"_ZN7android8hardware4gnss4V1_05IGnss21notifySyspropsChangedEv"
  },
  {
   "name":"_ZN7android8hardware4gnss4V1_05IGnss21setHALInstrumentationEv"
  },
  {
   "name":"_ZN7android8hardware4gnss4V1_05IGnss24registerForNotificationsERKNSt3__112basic_stringIcNS4_11char_traitsIcEENS4_9allocatorIcEEEERKNS_2spINS_4hidl7manager4V1_020IServiceNotificationEEE"
  },
  {
   "name":"_ZN7android8hardware4gnss4V1_05IGnss4pingEv"
  },
  {
   "name":"_ZN7android8hardware4gnss4V1_05IGnss5debugERKNS0_11hidl_handleERKNS0_8hidl_vecINS0_11hidl_stringEEE"
  },
  {
   "name":"_ZN7android8hardware4gnss4V1_05IGnss8castFromERKNS_2spINS_4hidl4base4V1_05IBaseEEEb"
  },
  {
   "name":"_ZN7android8hardware4gnss4V1_05IGnss8castFromERKNS_2spIS3_EEb"
  },
  {
   "name":"_ZN7android8hardware4gnss4V1_06BsGnss13addOnewayTaskENSt3__18functionIFvvEEE"
  },
  {
   "name":"_ZN7android8hardware4gnss4V1_06BsGnssC1ENS_2spINS2_5IGnssEEE"
  },
  {
   "name":"_ZN7android8hardware4gnss4V1_06BsGnssC2ENS_2spINS2_5IGnssEEE"
  },
  {
   "name":"_ZN7android8hardware4gnss4V1_06IAGnss10getServiceERKNSt3__112basic_stringIcNS4_11char_traitsIcEENS4_9allocatorIcEEEEb"
  },
  {
   "name":"_ZN7android8hardware4gnss4V1_06IAGnss11linkToDeathERKNS_2spINS0_20hidl_death_recipientEEEm"
  },
  {
   "name":"_ZN7android8hardware4gnss4V1_06IAGnss12getDebugInfoENSt3__18functionIFvRKNS_4hidl4base4V1_09DebugInfoEEEE"
  },
  {
   "name":"_ZN7android8hardware4gnss4V1_06IAGnss12getHashChainENSt3__18functionIFvRKNS0_8hidl_vecINS0_10hidl_arrayIhLm32EJEEEEEEEE"
  },
  {
   "name":"_ZN7android8hardware4gnss4V1_06IAGnss13tryGetServiceERKNSt3__112basic_stringIcNS4_11char_traitsIcEENS4_9allocatorIcEEEEb"
  },
  {
   "name":"_ZN7android8hardware4gnss4V1_06IAGnss13unlinkToDeathERKNS_2spINS0_20hidl_death_recipientEEE"
  },
  {
   "name":"_ZN7android8hardware4gnss4V1_06IAGnss14interfaceChainENSt3__18functionIFvRKNS0_8hidl_vecINS0_11hidl_stringEEEEEE"
  },
  {
   "name":"_ZN7android8hardware4gnss4V1_06IAGnss17registerAsServiceERKNSt3__112basic_stringIcNS4_11char_traitsIcEENS4_9allocatorIcEEEE"
  },
  {
   "name":"_ZN7android8hardware4gnss4V1_06IAGnss19interfaceDescriptorENSt3__18functionIFvRKNS0_11hidl_stringEEEE"
  },
  {
   "name":"_ZN7android8hardware4gnss4V1_06IAGnss21notifySyspropsChangedEv"
  },
  {
   "name":"_ZN7android8hardware4gnss4V1_06IAGnss21setHALInstrumentationEv"
  },
  {
   "name":"_ZN7android8hardware4gnss4V1_06IAGnss24registerForNotificationsERKNSt3__112basic_stringIcNS4_11char_traitsIcEENS4_9allocatorIcEEEERKNS_2spINS_4hidl7manager4V1_020IServiceNotificationEEE"
  },
  {
   "name":"_ZN7android8hardware4gnss4V1_06IAGnss4pingEv"
  },
  {
   "name":"_ZN7android8hardware4gnss4V1_06IAGnss5debugERKNS0_11hidl_handleERKNS0_8hidl_vecINS0_11hidl_stringEEE"
  },
  {
   "name":"_ZN7android8hardware4gnss4V1_06IAGnss8castFromERKNS_2spINS_4hidl4base4V1_05IBaseEEEb"
  },
  {
   "name":"_ZN7android8hardware4gnss4V1_06IAGnss8castFromERKNS_2spIS3_EEb"
  },
  {
   "name":"_ZN7android8hardware4gnss4V1_07BsAGnss13addOnewayTaskENSt3__18functionIFvvEEE"
  },
  {
   "name":"_ZN7android8hardware4gnss4V1_07BsAGnssC1ENS_2spINS2_6IAGnssEEE"
  },
  {
   "name":"_ZN7android8hardware4gnss4V1_07BsAGnssC2ENS_2spINS2_6IAGnssEEE"
  },
  {
   "name":"_ZN7android8hardware4gnss4V1_07IGnssNi10getServiceERKNSt3__112basic_stringIcNS4_11char_traitsIcEENS4_9allocatorIcEEEEb"
  },
  {
   "name":"_ZN7android8hardware4gnss4V1_07IGnssNi11linkToDeathERKNS_2spINS0_20hidl_death_recipientEEEm"
  },
  {
   "name":"_ZN7android8hardware4gnss4V1_07IGnssNi12getDebugInfoENSt3__18functionIFvRKNS_4hidl4base4V1_09DebugInfoEEEE"
  },
  {
   "name":"_ZN7android8hardware4gnss4V1_07IGnssNi12getHashChainENSt3__18functionIFvRKNS0_8hidl_vecINS0_10hidl_arrayIhLm32EJEEEEEEEE"
  },
  {
   "name":"_ZN7android8hardware4gnss4V1_07IGnssNi13tryGetServiceERKNSt3__112basic_stringIcNS4_11char_traitsIcEENS4_9allocatorIcEEEEb"
  },
  {
   "name":"_ZN7android8hardware4gnss4V1_07IGnssNi13unlinkToDeathERKNS_2spINS0_20hidl_death_recipientEEE"
  },
  {
   "name":"_ZN7android8hardware4gnss4V1_07IGnssNi14interfaceChainENSt3__18functionIFvRKNS0_8hidl_vecINS0_11hidl_stringEEEEEE"
  },
  {
   "name":"_ZN7android8hardware4gnss4V1_07IGnssNi17registerAsServiceERKNSt3__112basic_stringIcNS4_11char_traitsIcEENS4_9allocatorIcEEEE"
  },
  {
   "name":"_ZN7android8hardware4gnss4V1_07IGnssNi19interfaceDescriptorENSt3__18functionIFvRKNS0_11hidl_stringEEEE"
  },
  {
   "name":"_ZN7android8hardware4gnss4V1_07IGnssNi21notifySyspropsChangedEv"
  },
  {
   "name":"_ZN7android8hardware4gnss4V1_07IGnssNi21setHALInstrumentationEv"
  },
  {
   "name":"_ZN7android8hardware4gnss4V1_07IGnssNi24registerForNotificationsERKNSt3__112basic_stringIcNS4_11char_traitsIcEENS4_9allocatorIcEEEERKNS_2spINS_4hidl7manager4V1_020IServiceNotificationEEE"
  },
  {
   "name":"_ZN7android8hardware4gnss4V1_07IGnssNi4pingEv"
  },
  {
   "name":"_ZN7android8hardware4gnss4V1_07IGnssNi5debugERKNS0_11hidl_handleERKNS0_8hidl_vecINS0_11hidl_stringEEE"
  },
  {
   "name":"_ZN7android8hardware4gnss4V1_07IGnssNi8castFromERKNS_2spINS_4hidl4base4V1_05IBaseEEEb"
  },
  {
   "name":"_ZN7android8hardware4gnss4V1_07IGnssNi8castFromERKNS_2spIS3_EEb"
  },
  {
   "name":"_ZN7android8hardware4gnss4V1_08BnHwGnss10_hidl_stopEPNS_4hidl4base4V1_08BnHwBaseERKNS0_6ParcelEPS9_NSt3__18functionIFvRS9_EEE"
  },
  {
   "name":"_ZN7android8hardware4gnss4V1_08BnHwGnss10onTransactEjRKNS0_6ParcelEPS4_jNSt3__18functionIFvRS4_EEE"
  },
  {
   "name":"_ZN7android8hardware4gnss4V1_08BnHwGnss11_hidl_startEPNS_4hidl4base4V1_08BnHwBaseERKNS0_6ParcelEPS9_NSt3__18functionIFvRS9_EEE"
  },
  {
   "name":"_ZN7android8hardware4gnss4V1_08BnHwGnss12getDebugInfoENSt3__18functionIFvRKNS_4hidl4base4V1_09DebugInfoEEEE"
  },
  {
   "name":"_ZN7android8hardware4gnss4V1_08BnHwGnss13_hidl_cleanupEPNS_4hidl4base4V1_08BnHwBaseERKNS0_6ParcelEPS9_NSt3__18functionIFvRS9_EEE"
  },
  {
   "name":"_ZN7android8hardware4gnss4V1_08BnHwGnss16_hidl_injectTimeEPNS_4hidl4base4V1_08BnHwBaseERKNS0_6ParcelEPS9_NSt3__18functionIFvRS9_EEE"
  },
  {
   "name":"_ZN7android8hardware4gnss4V1_08BnHwGnss17_hidl_setCallbackEPNS_4hidl4base4V1_08BnHwBaseERKNS0_6ParcelEPS9_NSt3__18functionIFvRS9_EEE"
  },
  {
   "name":"_ZN7android8hardware4gnss4V1_08BnHwGnss20_hidl_injectLocationEPNS_4hidl4base4V1_08BnHwBaseERKNS0_6ParcelEPS9_NSt3__18functionIFvRS9_EEE"
  },
  {
   "name":"_ZN7android8hardware4gnss4V1_08BnHwGnss21_hidl_setPositionModeEPNS_4hidl4base4V1_08BnHwBaseERKNS0_6ParcelEPS9_NSt3__18functionIFvRS9_EEE"
  },
  {
   "name":"_ZN7android8hardware4gnss4V1_08BnHwGnss22_hidl_deleteAidingDataEPNS_4hidl4base4V1_08BnHwBaseERKNS0_6ParcelEPS9_NSt3__18functionIFvRS9_EEE"
  },
  {
   "name":"_ZN7android8hardware4gnss4V1_08BnHwGnss22_hidl_getExtensionXtraEPNS_4hidl4base4V1_08BnHwBaseERKNS0_6ParcelEPS9_NSt3__18functionIFvRS9_EEE"
  },
  {
   "name":"_ZN7android8hardware4gnss4V1_08BnHwGnss23_hidl_getExtensionAGnssEPNS_4hidl4base4V1_08BnHwBaseERKNS0_6ParcelEPS9_NSt3__18functionIFvRS9_EEE"
  },
  {
   "name":"_ZN7android8hardware4gnss4V1_08BnHwGnss24_hidl_getExtensionGnssNiEPNS_4hidl4base4V1_08BnHwBaseERKNS0_6ParcelEPS9_NSt3__18functionIFvRS9_EEE"
  },
  {
   "name":"_ZN7android8hardware4gnss4V1_08BnHwGnss26_hidl_getExtensionAGnssRilEPNS_4hidl4base4V1_08BnHwBaseERKNS0_6ParcelEPS9_NSt3__18functionIFvRS9_EEE"
  },
  {
   "name":"_ZN7android8hardware4gnss4V1_08BnHwGnss27_hidl_getExtensionGnssDebugEPNS_4hidl4base4V1_08BnHwBaseERKNS0_6ParcelEPS9_NSt3__18functionIFvRS9_EEE"
  },
  {
   "name":"_ZN7android8hardware4gnss4V1_08BnHwGnss30_hidl_getExtensionGnssBatchingEPNS_4hidl4base4V1_08BnHwBaseERKNS0_6ParcelEPS9_NSt3__18functionIFvRS9_EEE"
  },
  {
   "name":"_ZN7android8hardware4gnss4V1_08BnHwGnss32_hidl_getExtensionGnssGeofencingEPNS_4hidl4base4V1_08BnHwBaseERKNS0_6ParcelEPS9_NSt3__18functionIFvRS9_EEE"
  },
  {
   "name":"_ZN7android8hardware4gnss4V1_08BnHwGnss33_hidl_getExtensionGnssMeasurementEPNS_4hidl4base4V1_08BnHwBaseERKNS0_6ParcelEPS9_NSt3__18functionIFvRS9_EEE"
  },
  {
   "name":"_ZN7android8hardware4gnss4V1_08BnHwGnss35_hidl_getExtensionGnssConfigurationEPNS_4hidl4base4V1_08BnHwBaseERKNS0_6ParcelEPS9_NSt3__18functionIFvRS9_EEE"
  },
  {
   "name":"_ZN7android8hardware4gnss4V1_08BnHwGnss39_hidl_getExtensionGnssNavigationMessageEPNS_4hidl4base4V1_08BnHwBaseERKNS0_6ParcelEPS9_NSt3__18functionIFvRS9_EEE"
  },
  {
   "name":"_ZN7android8hardware4gnss4V1_08BnHwGnss4pingEv"
  },
  {
   "name":"_ZN7android8hardware4gnss4V1_08BnHwGnssC1ERKNS_2spINS2_5IGnssEEE"
  },
  {
   "name":"_ZN7android8hardware4gnss4V1_08BnHwGnssC2ERKNS_2spINS2_5IGnssEEE"
  },
  {
   "name":"_ZN7android8hardware4gnss4V1_08BnHwGnssD0Ev"
  },
  {
   "name":"_ZN7android8hardware4gnss4V1_08BnHwGnssD1Ev"
  },
  {
   "name":"_ZN7android8hardware4gnss4V1_08BnHwGnssD2Ev"
  },
  {
   "name":"_ZN7android8hardware4gnss4V1_08BpHwGnss10_hidl_stopEPNS0_10IInterfaceEPNS0_7details16HidlInstrumentorE"
  },
  {
   "name":"_ZN7android8hardware4gnss4V1_08BpHwGnss10injectTimeElli"
  },
  {
   "name":"_ZN7android8hardware4gnss4V1_08BpHwGnss11_hidl_startEPNS0_10IInterfaceEPNS0_7details16HidlInstrumentorE"
  },
  {
   "name":"_ZN7android8hardware4gnss4V1_08BpHwGnss11linkToDeathERKNS_2spINS0_20hidl_death_recipientEEEm"
  },
  {
   "name":"_ZN7android8hardware4gnss4V1_08BpHwGnss11setCallbackERKNS_2spINS2_13IGnssCallbackEEE"
  },
  {
   "name":"_ZN7android8hardware4gnss4V1_08BpHwGnss12getDebugInfoENSt3__18functionIFvRKNS_4hidl4base4V1_09DebugInfoEEEE"
  },
  {
   "name":"_ZN7android8hardware4gnss4V1_08BpHwGnss12getHashChainENSt3__18functionIFvRKNS0_8hidl_vecINS0_10hidl_arrayIhLm32EJEEEEEEEE"
  },
  {
   "name":"_ZN7android8hardware4gnss4V1_08BpHwGnss13_hidl_cleanupEPNS0_10IInterfaceEPNS0_7details16HidlInstrumentorE"
  },
  {
   "name":"_ZN7android8hardware4gnss4V1_08BpHwGnss13unlinkToDeathERKNS_2spINS0_20hidl_death_recipientEEE"
  },
  {
   "name":"_ZN7android8hardware4gnss4V1_08BpHwGnss14injectLocationEddf"
  },
  {
   "name":"_ZN7android8hardware4gnss4V1_08BpHwGnss14interfaceChainENSt3__18functionIFvRKNS0_8hidl_vecINS0_11hidl_stringEEEEEE"
  },
  {
   "name":"_ZN7android8hardware4gnss4V1_08BpHwGnss15setPositionModeENS2_5IGnss16GnssPositionModeENS4_22GnssPositionRecurrenceEjjj"
  },
  {
   "name":"_ZN7android8hardware4gnss4V1_08BpHwGnss16_hidl_injectTimeEPNS0_10IInterfaceEPNS0_7details16HidlInstrumentorElli"
  },
  {
   "name":"_ZN7android8hardware4gnss4V1_08BpHwGnss16deleteAidingDataENS2_5IGnss14GnssAidingDataE"
  },
  {
   "name":"_ZN7android8hardware4gnss4V1_08BpHwGnss16getExtensionXtraEv"
  },
  {
   "name":"_ZN7android8hardware4gnss4V1_08BpHwGnss17_hidl_setCallbackEPNS0_10IInterfaceEPNS0_7details16HidlInstrumentorERKNS_2spINS2_13IGnssCallbackEEE"
  },
  {
   "name":"_ZN7android8hardware4gnss4V1_08BpHwGnss17getExtensionAGnssEv"
  },
  {
   "name":"_ZN7android8hardware4gnss4V1_08BpHwGnss18getExtensionGnssNiEv"
  },
  {
   "name":"_ZN7android8hardware4gnss4V1_08BpHwGnss19interfaceDescriptorENSt3__18functionIFvRKNS0_11hidl_stringEEEE"
  },
  {
   "name":"_ZN7android8hardware4gnss4V1_08BpHwGnss20_hidl_injectLocationEPNS0_10IInterfaceEPNS0_7details16HidlInstrumentorEddf"
  },
  {
   "name":"_ZN7android8hardware4gnss4V1_08BpHwGnss20getExtensionAGnssRilEv"
  },
  {
   "name":"_ZN7android8hardware4gnss4V1_08BpHwGnss21_hidl_setPositionModeEPNS0_10IInterfaceEPNS0_7details16HidlInstrumentorENS2_5IGnss16GnssPositionModeENS9_22GnssPositionRecurrenceEjjj"
  },
  {
   "name":"_ZN7android8hardware4gnss4V1_08BpHwGnss21getExtensionGnssDebugEv"
  },
  {
   "name":"_ZN7android8hardware4gnss4V1_08BpHwGnss21notifySyspropsChangedEv"
  },
  {
   "name":"_ZN7android8hardware4gnss4V1_08BpHwGnss21setHALInstrumentationEv"
  },
  {
   "name":"_ZN7android8hardware4gnss4V1_08BpHwGnss22_hidl_deleteAidingDataEPNS0_10IInterfaceEPNS0_7details16HidlInstrumentorENS2_5IGnss14GnssAidingDataE"
  },
  {
   "name":"_ZN7android8hardware4gnss4V1_08BpHwGnss22_hidl_getExtensionXtraEPNS0_10IInterfaceEPNS0_7details16HidlInstrumentorE"
  },
  {
   "name":"_ZN7android8hardware4gnss4V1_08BpHwGnss23_hidl_getExtensionAGnssEPNS0_10IInterfaceEPNS0_7details16HidlInstrumentorE"
  },
  {
   "name":"_ZN7android8hardware4gnss4V1_08BpHwGnss24_hidl_getExtensionGnssNiEPNS0_10IInterfaceEPNS0_7details16HidlInstrumentorE"
  },
  {
   "name":"_ZN7android8hardware4gnss4V1_08BpHwGnss24getExtensionGnssBatchingEv"
  },
  {
   "name":"_ZN7android8hardware4gnss4V1_08BpHwGnss26_hidl_getExtensionAGnssRilEPNS0_10IInterfaceEPNS0_7details16HidlInstrumentorE"
  },
  {
   "name":"_ZN7android8hardware4gnss4V1_08BpHwGnss26getExtensionGnssGeofencingEv"
  },
  {
   "name":"_ZN7android8hardware4gnss4V1_08BpHwGnss27_hidl_getExtensionGnssDebugEPNS0_10IInterfaceEPNS0_7details16HidlInstrumentorE"
  },
  {
   "name":"_ZN7android8hardware4gnss4V1_08BpHwGnss27getExtensionGnssMeasurementEv"
  },
  {
   "name":"_ZN7android8hardware4gnss4V1_08BpHwGnss29getExtensionGnssConfigurationEv"
  },
  {
   "name":"_ZN7android8hardware4gnss4V1_08BpHwGnss30_hidl_getExtensionGnssBatchingEPNS0_10IInterfaceEPNS0_7details16HidlInstrumentorE"
  },
  {
   "name":"_ZN7android8hardware4gnss4V1_08BpHwGnss32_hidl_getExtensionGnssGeofencingEPNS0_10IInterfaceEPNS0_7details16HidlInstrumentorE"
  },
  {
   "name":"_ZN7android8hardware4gnss4V1_08BpHwGnss33_hidl_getExtensionGnssMeasurementEPNS0_10IInterfaceEPNS0_7details16HidlInstrumentorE"
  },
  {
   "name":"_ZN7android8hardware4gnss4V1_08BpHwGnss33getExtensionGnssNavigationMessageEv"
  },
  {
   "name":"_ZN7android8hardware4gnss4V1_08BpHwGnss35_hidl_getExtensionGnssConfigurationEPNS0_10IInterfaceEPNS0_7details16HidlInstrumentorE"
  },
  {
   "name":"_ZN7android8hardware4gnss4V1_08BpHwGnss39_hidl_getExtensionGnssNavigationMessageEPNS0_10IInterfaceEPNS0_7details16HidlInstrumentorE"
  },
  {
   "name":"_ZN7android8hardware4gnss4V1_08BpHwGnss4pingEv"
  },
  {
   "name":"_ZN7android8hardware4gnss4V1_08BpHwGnss4stopEv"
  },
  {
   "name":"_ZN7android8hardware4gnss4V1_08BpHwGnss5debugERKNS0_11hidl_handleERKNS0_8hidl_vecINS0_11hidl_stringEEE"
  },
  {
   "name":"_ZN7android8hardware4gnss4V1_08BpHwGnss5startEv"
  },
  {
   "name":"_ZN7android8hardware4gnss4V1_08BpHwGnss7cleanupEv"
  },
  {
   "name":"_ZN7android8hardware4gnss4V1_08BpHwGnssC1ERKNS_2spINS0_7IBinderEEE"
  },
  {
   "name":"_ZN7android8hardware4gnss4V1_08BpHwGnssC2ERKNS_2spINS0_7IBinderEEE"
  },
  {
   "name":"_ZN7android8hardware4gnss4V1_08BsGnssNi13addOnewayTaskENSt3__18functionIFvvEEE"
  },
  {
   "name":"_ZN7android8hardware4gnss4V1_08BsGnssNiC1ENS_2spINS2_7IGnssNiEEE"
  },
  {
   "name":"_ZN7android8hardware4gnss4V1_08BsGnssNiC2ENS_2spINS2_7IGnssNiEEE"
  },
  {
   "name":"_ZN7android8hardware4gnss4V1_09BnHwAGnss10onTransactEjRKNS0_6ParcelEPS4_jNSt3__18functionIFvRS4_EEE"
  },
  {
   "name":"_ZN7android8hardware4gnss4V1_09BnHwAGnss12getDebugInfoENSt3__18functionIFvRKNS_4hidl4base4V1_09DebugInfoEEEE"
  },
  {
   "name":"_ZN7android8hardware4gnss4V1_09BnHwAGnss15_hidl_setServerEPNS_4hidl4base4V1_08BnHwBaseERKNS0_6ParcelEPS9_NSt3__18functionIFvRS9_EEE"
  },
  {
   "name":"_ZN7android8hardware4gnss4V1_09BnHwAGnss17_hidl_setCallbackEPNS_4hidl4base4V1_08BnHwBaseERKNS0_6ParcelEPS9_NSt3__18functionIFvRS9_EEE"
  },
  {
   "name":"_ZN7android8hardware4gnss4V1_09BnHwAGnss18_hidl_dataConnOpenEPNS_4hidl4base4V1_08BnHwBaseERKNS0_6ParcelEPS9_NSt3__18functionIFvRS9_EEE"
  },
  {
   "name":"_ZN7android8hardware4gnss4V1_09BnHwAGnss20_hidl_dataConnClosedEPNS_4hidl4base4V1_08BnHwBaseERKNS0_6ParcelEPS9_NSt3__18functionIFvRS9_EEE"
  },
  {
   "name":"_ZN7android8hardware4gnss4V1_09BnHwAGnss20_hidl_dataConnFailedEPNS_4hidl4base4V1_08BnHwBaseERKNS0_6ParcelEPS9_NSt3__18functionIFvRS9_EEE"
  },
  {
   "name":"_ZN7android8hardware4gnss4V1_09BnHwAGnss4pingEv"
  },
  {
   "name":"_ZN7android8hardware4gnss4V1_09BnHwAGnssC1ERKNS_2spINS2_6IAGnssEEE"
  },
  {
   "name":"_ZN7android8hardware4gnss4V1_09BnHwAGnssC2ERKNS_2spINS2_6IAGnssEEE"
  },
  {
   "name":"_ZN7android8hardware4gnss4V1_09BnHwAGnssD0Ev"
  },
  {
   "name":"_ZN7android8hardware4gnss4V1_09BnHwAGnssD1Ev"
  },
  {
   "name":"_ZN7android8hardware4gnss4V1_09BnHwAGnssD2Ev"
  },
  {
   "name":"_ZN7android8hardware4gnss4V1_09BpHwAGnss11linkToDeathERKNS_2spINS0_20hidl_death_recipientEEEm"
  },
  {
   "name":"_ZN7android8hardware4gnss4V1_09BpHwAGnss11setCallbackERKNS_2spINS2_14IAGnssCallbackEEE"
  },
  {
   "name":"_ZN7android8hardware4gnss4V1_09BpHwAGnss12dataConnOpenERKNS0_11hidl_stringENS2_6IAGnss9ApnIpTypeE"
  },
  {
   "name":"_ZN7android8hardware4gnss4V1_09BpHwAGnss12getDebugInfoENSt3__18functionIFvRKNS_4hidl4base4V1_09DebugInfoEEEE"
  },
  {
   "name":"_ZN7android8hardware4gnss4V1_09BpHwAGnss12getHashChainENSt3__18functionIFvRKNS0_8hidl_vecINS0_10hidl_arrayIhLm32EJEEEEEEEE"
  },
  {
   "name":"_ZN7android8hardware4gnss4V1_09BpHwAGnss13unlinkToDeathERKNS_2spINS0_20hidl_death_recipientEEE"
  },
  {
   "name":"_ZN7android8hardware4gnss4V1_09BpHwAGnss14dataConnClosedEv"
  },
  {
   "name":"_ZN7android8hardware4gnss4V1_09BpHwAGnss14dataConnFailedEv"
  },
  {
   "name":"_ZN7android8hardware4gnss4V1_09BpHwAGnss14interfaceChainENSt3__18functionIFvRKNS0_8hidl_vecINS0_11hidl_stringEEEEEE"
  },
  {
   "name":"_ZN7android8hardware4gnss4V1_09BpHwAGnss15_hidl_setServerEPNS0_10IInterfaceEPNS0_7details16HidlInstrumentorENS2_14IAGnssCallback9AGnssTypeERKNS0_11hidl_stringEi"
  },
  {
   "name":"_ZN7android8hardware4gnss4V1_09BpHwAGnss17_hidl_setCallbackEPNS0_10IInterfaceEPNS0_7details16HidlInstrumentorERKNS_2spINS2_14IAGnssCallbackEEE"
  },
  {
   "name":"_ZN7android8hardware4gnss4V1_09BpHwAGnss18_hidl_dataConnOpenEPNS0_10IInterfaceEPNS0_7details16HidlInstrumentorERKNS0_11hidl_stringENS2_6IAGnss9ApnIpTypeE"
  },
  {
   "name":"_ZN7android8hardware4gnss4V1_09BpHwAGnss19interfaceDescriptorENSt3__18functionIFvRKNS0_11hidl_stringEEEE"
  },
  {
   "name":"_ZN7android8hardware4gnss4V1_09BpHwAGnss20_hidl_dataConnClosedEPNS0_10IInterfaceEPNS0_7details16HidlInstrumentorE"
  },
  {
   "name":"_ZN7android8hardware4gnss4V1_09BpHwAGnss20_hidl_dataConnFailedEPNS0_10IInterfaceEPNS0_7details16HidlInstrumentorE"
  },
  {
   "name":"_ZN7android8hardware4gnss4V1_09BpHwAGnss21notifySyspropsChangedEv"
  },
  {
   "name":"_ZN7android8hardware4gnss4V1_09BpHwAGnss21setHALInstrumentationEv"
  },
  {
   "name":"_ZN7android8hardware4gnss4V1_09BpHwAGnss4pingEv"
  },
  {
   "name":"_ZN7android8hardware4gnss4V1_09BpHwAGnss5debugERKNS0_11hidl_handleERKNS0_8hidl_vecINS0_11hidl_stringEEE"
  },
  {
   "name":"_ZN7android8hardware4gnss4V1_09BpHwAGnss9setServerENS2_14IAGnssCallback9AGnssTypeERKNS0_11hidl_stringEi"
  },
  {
   "name":"_ZN7android8hardware4gnss4V1_09BpHwAGnssC1ERKNS_2spINS0_7IBinderEEE"
  },
  {
   "name":"_ZN7android8hardware4gnss4V1_09BpHwAGnssC2ERKNS_2spINS0_7IBinderEEE"
  },
  {
   "name":"_ZN7android8hardware4gnss4V1_09IAGnssRil10getServiceERKNSt3__112basic_stringIcNS4_11char_traitsIcEENS4_9allocatorIcEEEEb"
  },
  {
   "name":"_ZN7android8hardware4gnss4V1_09IAGnssRil11linkToDeathERKNS_2spINS0_20hidl_death_recipientEEEm"
  },
  {
   "name":"_ZN7android8hardware4gnss4V1_09IAGnssRil12getDebugInfoENSt3__18functionIFvRKNS_4hidl4base4V1_09DebugInfoEEEE"
  },
  {
   "name":"_ZN7android8hardware4gnss4V1_09IAGnssRil12getHashChainENSt3__18functionIFvRKNS0_8hidl_vecINS0_10hidl_arrayIhLm32EJEEEEEEEE"
  },
  {
   "name":"_ZN7android8hardware4gnss4V1_09IAGnssRil13tryGetServiceERKNSt3__112basic_stringIcNS4_11char_traitsIcEENS4_9allocatorIcEEEEb"
  },
  {
   "name":"_ZN7android8hardware4gnss4V1_09IAGnssRil13unlinkToDeathERKNS_2spINS0_20hidl_death_recipientEEE"
  },
  {
   "name":"_ZN7android8hardware4gnss4V1_09IAGnssRil14interfaceChainENSt3__18functionIFvRKNS0_8hidl_vecINS0_11hidl_stringEEEEEE"
  },
  {
   "name":"_ZN7android8hardware4gnss4V1_09IAGnssRil17registerAsServiceERKNSt3__112basic_stringIcNS4_11char_traitsIcEENS4_9allocatorIcEEEE"
  },
  {
   "name":"_ZN7android8hardware4gnss4V1_09IAGnssRil19interfaceDescriptorENSt3__18functionIFvRKNS0_11hidl_stringEEEE"
  },
  {
   "name":"_ZN7android8hardware4gnss4V1_09IAGnssRil21notifySyspropsChangedEv"
  },
  {
   "name":"_ZN7android8hardware4gnss4V1_09IAGnssRil21setHALInstrumentationEv"
  },
  {
   "name":"_ZN7android8hardware4gnss4V1_09IAGnssRil24registerForNotificationsERKNSt3__112basic_stringIcNS4_11char_traitsIcEENS4_9allocatorIcEEEERKNS_2spINS_4hidl7manager4V1_020IServiceNotificationEEE"
  },
  {
   "name":"_ZN7android8hardware4gnss4V1_09IAGnssRil4pingEv"
  },
  {
   "name":"_ZN7android8hardware4gnss4V1_09IAGnssRil5debugERKNS0_11hidl_handleERKNS0_8hidl_vecINS0_11hidl_stringEEE"
  },
  {
   "name":"_ZN7android8hardware4gnss4V1_09IAGnssRil8castFromERKNS_2spINS_4hidl4base4V1_05IBaseEEEb"
  },
  {
   "name":"_ZN7android8hardware4gnss4V1_09IAGnssRil8castFromERKNS_2spIS3_EEb"
  },
  {
   "name":"_ZN7android8hardware4gnss4V1_09IGnssXtra10getServiceERKNSt3__112basic_stringIcNS4_11char_traitsIcEENS4_9allocatorIcEEEEb"
  },
  {
   "name":"_ZN7android8hardware4gnss4V1_09IGnssXtra11linkToDeathERKNS_2spINS0_20hidl_death_recipientEEEm"
  },
  {
   "name":"_ZN7android8hardware4gnss4V1_09IGnssXtra12getDebugInfoENSt3__18functionIFvRKNS_4hidl4base4V1_09DebugInfoEEEE"
  },
  {
   "name":"_ZN7android8hardware4gnss4V1_09IGnssXtra12getHashChainENSt3__18functionIFvRKNS0_8hidl_vecINS0_10hidl_arrayIhLm32EJEEEEEEEE"
  },
  {
   "name":"_ZN7android8hardware4gnss4V1_09IGnssXtra13tryGetServiceERKNSt3__112basic_stringIcNS4_11char_traitsIcEENS4_9allocatorIcEEEEb"
  },
  {
   "name":"_ZN7android8hardware4gnss4V1_09IGnssXtra13unlinkToDeathERKNS_2spINS0_20hidl_death_recipientEEE"
  },
  {
   "name":"_ZN7android8hardware4gnss4V1_09IGnssXtra14interfaceChainENSt3__18functionIFvRKNS0_8hidl_vecINS0_11hidl_stringEEEEEE"
  },
  {
   "name":"_ZN7android8hardware4gnss4V1_09IGnssXtra17registerAsServiceERKNSt3__112basic_stringIcNS4_11char_traitsIcEENS4_9allocatorIcEEEE"
  },
  {
   "name":"_ZN7android8hardware4gnss4V1_09IGnssXtra19interfaceDescriptorENSt3__18functionIFvRKNS0_11hidl_stringEEEE"
  },
  {
   "name":"_ZN7android8hardware4gnss4V1_09IGnssXtra21notifySyspropsChangedEv"
  },
  {
   "name":"_ZN7android8hardware4gnss4V1_09IGnssXtra21setHALInstrumentationEv"
  },
  {
   "name":"_ZN7android8hardware4gnss4V1_09IGnssXtra24registerForNotificationsERKNSt3__112basic_stringIcNS4_11char_traitsIcEENS4_9allocatorIcEEEERKNS_2spINS_4hidl7manager4V1_020IServiceNotificationEEE"
  },
  {
   "name":"_ZN7android8hardware4gnss4V1_09IGnssXtra4pingEv"
  },
  {
   "name":"_ZN7android8hardware4gnss4V1_09IGnssXtra5debugERKNS0_11hidl_handleERKNS0_8hidl_vecINS0_11hidl_stringEEE"
  },
  {
   "name":"_ZN7android8hardware4gnss4V1_09IGnssXtra8castFromERKNS_2spINS_4hidl4base4V1_05IBaseEEEb"
  },
  {
   "name":"_ZN7android8hardware4gnss4V1_09IGnssXtra8castFromERKNS_2spIS3_EEb"
  },
  {
   "binding":"weak",
   "name":"_ZN7android8hardware7details13castInterfaceINS0_4gnss4V1_010IGnssDebugENS_4hidl4base4V1_05IBaseENS4_13BpHwGnssDebugEEENS0_6ReturnINS_2spIT_EEEENSC_IT0_EEPKcb"
  },
  {
   "binding":"weak",
   "name":"_ZN7android8hardware7details13castInterfaceINS0_4gnss4V1_013IGnssBatchingENS_4hidl4base4V1_05IBaseENS4_16BpHwGnssBatchingEEENS0_6ReturnINS_2spIT_EEEENSC_IT0_EEPKcb"
  },
  {
   "binding":"weak",
   "name":"_ZN7android8hardware7details13castInterfaceINS0_4gnss4V1_013IGnssCallbackENS_4hidl4base4V1_05IBaseENS4_16BpHwGnssCallbackEEENS0_6ReturnINS_2spIT_EEEENSC_IT0_EEPKcb"
  },
  {
   "binding":"weak",
   "name":"_ZN7android8hardware7details13castInterfaceINS0_4gnss4V1_014IAGnssCallbackENS_4hidl4base4V1_05IBaseENS4_17BpHwAGnssCallbackEEENS0_6ReturnINS_2spIT_EEEENSC_IT0_EEPKcb"
  },
  {
   "binding":"weak",
   "name":"_ZN7android8hardware7details13castInterfaceINS0_4gnss4V1_015IGnssGeofencingENS_4hidl4base4V1_05IBaseENS4_18BpHwGnssGeofencingEEENS0_6ReturnINS_2spIT_EEEENSC_IT0_EEPKcb"
  },
  {
   "binding":"weak",
   "name":"_ZN7android8hardware7details13castInterfaceINS0_4gnss4V1_015IGnssNiCallbackENS_4hidl4base4V1_05IBaseENS4_18BpHwGnssNiCallbackEEENS0_6ReturnINS_2spIT_EEEENSC_IT0_EEPKcb"
  },
  {
   "binding":"weak",
   "name":"_ZN7android8hardware7details13castInterfaceINS0_4gnss4V1_016IGnssMeasurementENS_4hidl4base4V1_05IBaseENS4_19BpHwGnssMeasurementEEENS0_6ReturnINS_2spIT_EEEENSC_IT0_EEPKcb"
  },
  {
   "binding":"weak",
   "name":"_ZN7android8hardware7details13castInterfaceINS0_4gnss4V1_017IAGnssRilCallbackENS_4hidl4base4V1_05IBaseENS4_20BpHwAGnssRilCallbackEEENS0_6ReturnINS_2spIT_EEEENSC_IT0_EEPKcb"
  },
  {
   "binding":"weak",
   "name":"_ZN7android8hardware7details13castInterfaceINS0_4gnss4V1_017IGnssXtraCallbackENS_4hidl4base4V1_05IBaseENS4_20BpHwGnssXtraCallbackEEENS0_6ReturnINS_2spIT_EEEENSC_IT0_EEPKcb"
  },
  {
   "binding":"weak",
   "name":"_ZN7android8hardware7details13castInterfaceINS0_4gnss4V1_018IGnssConfigurationENS_4hidl4base4V1_05IBaseENS4_21BpHwGnssConfigurationEEENS0_6ReturnINS_2spIT_EEEENSC_IT0_EEPKcb"
  },
  {
   "binding":"weak",
   "name":"_ZN7android8hardware7details13castInterfaceINS0_4gnss4V1_021IGnssBatchingCallbackENS_4hidl4base4V1_05IBaseENS4_24BpHwGnssBatchingCallbackEEENS0_6ReturnINS_2spIT_EEEENSC_IT0_EEPKcb"
  },
  {
   "binding":"weak",
   "name":"_ZN7android8hardware7details13castInterfaceINS0_4gnss4V1_021IGnssGeofenceCallbackENS_4hidl4base4V1_05IBaseENS4_24BpHwGnssGeofenceCallbackEEENS0_6ReturnINS_2spIT_EEEENSC_IT0_EEPKcb"
  },
  {
   "binding":"weak",
   "name":"_ZN7android8hardware7details13castInterfaceINS0_4gnss4V1_022IGnssNavigationMessageENS_4hidl4base4V1_05IBaseENS4_25BpHwGnssNavigationMessageEEENS0_6ReturnINS_2spIT_EEEENSC_IT0_EEPKcb"
  },
  {
   "binding":"weak",
   "name":"_ZN7android8hardware7details13castInterfaceINS0_4gnss4V1_024IGnssMeasurementCallbackENS_4hidl4base4V1_05IBaseENS4_27BpHwGnssMeasurementCallbackEEENS0_6ReturnINS_2spIT_EEEENSC_IT0_EEPKcb"
  },
  {
   "binding":"weak",
   "name":"_ZN7android8hardware7details13castInterfaceINS0_4gnss4V1_030IGnssNavigationMessageCallbackENS_4hidl4base4V1_05IBaseENS4_33BpHwGnssNavigationMessageCallbackEEENS0_6ReturnINS_2spIT_EEEENSC_IT0_EEPKcb"
  },
  {
   "binding":"weak",
   "name":"_ZN7android8hardware7details13castInterfaceINS0_4gnss4V1_05IGnssENS_4hidl4base4V1_05IBaseENS4_8BpHwGnssEEENS0_6ReturnINS_2spIT_EEEENSC_IT0_EEPKcb"
  },
  {
   "binding":"weak",
   "name":"_ZN7android8hardware7details13castInterfaceINS0_4gnss4V1_06IAGnssENS_4hidl4base4V1_05IBaseENS4_9BpHwAGnssEEENS0_6ReturnINS_2spIT_EEEENSC_IT0_EEPKcb"
  },
  {
   "binding":"weak",
   "name":"_ZN7android8hardware7details13castInterfaceINS0_4gnss4V1_07IGnssNiENS_4hidl4base4V1_05IBaseENS4_10BpHwGnssNiEEENS0_6ReturnINS_2spIT_EEEENSC_IT0_EEPKcb"
  },
  {
   "binding":"weak",
   "name":"_ZN7android8hardware7details13castInterfaceINS0_4gnss4V1_09IAGnssRilENS_4hidl4base4V1_05IBaseENS4_12BpHwAGnssRilEEENS0_6ReturnINS_2spIT_EEEENSC_IT0_EEPKcb"
  },
  {
   "binding":"weak",
   "name":"_ZN7android8hardware7details13castInterfaceINS0_4gnss4V1_09IGnssXtraENS_4hidl4base4V1_05IBaseENS4_12BpHwGnssXtraEEENS0_6ReturnINS_2spIT_EEEENSC_IT0_EEPKcb"
  },
  {
   "binding":"weak",
   "name":"_ZN7android8hardware7details15wrapPassthroughINS0_4gnss4V1_013IGnssCallbackEvEENS_2spIT_EES8_"
  },
  {
   "binding":"weak",
   "name":"_ZN7android8hardware7details15wrapPassthroughINS0_4gnss4V1_014IAGnssCallbackEvEENS_2spIT_EES8_"
  },
  {
   "binding":"weak",
   "name":"_ZN7android8hardware7details15wrapPassthroughINS0_4gnss4V1_015IGnssNiCallbackEvEENS_2spIT_EES8_"
  },
  {
   "binding":"weak",
   "name":"_ZN7android8hardware7details15wrapPassthroughINS0_4gnss4V1_017IAGnssRilCallbackEvEENS_2spIT_EES8_"
  },
  {
   "binding":"weak",
   "name":"_ZN7android8hardware7details15wrapPassthroughINS0_4gnss4V1_017IGnssXtraCallbackEvEENS_2spIT_EES8_"
  },
  {
   "binding":"weak",
   "name":"_ZN7android8hardware7details15wrapPassthroughINS0_4gnss4V1_021IGnssBatchingCallbackEvEENS_2spIT_EES8_"
  },
  {
   "binding":"weak",
   "name":"_ZN7android8hardware7details15wrapPassthroughINS0_4gnss4V1_021IGnssGeofenceCallbackEvEENS_2spIT_EES8_"
  },
  {
   "binding":"weak",
   "name":"_ZN7android8hardware7details15wrapPassthroughINS0_4gnss4V1_024IGnssMeasurementCallbackEvEENS_2spIT_EES8_"
  },
  {
   "binding":"weak",
   "name":"_ZN7android8hardware7details15wrapPassthroughINS0_4gnss4V1_030IGnssNavigationMessageCallbackEvEENS_2spIT_EES8_"
  },
  {
   "binding":"weak",
   "name":"_ZN7android8hardware7details18getServiceInternalINS0_4gnss4V1_010BpHwGnssNiENS4_7IGnssNiEvvEENS_2spIT0_EERKNSt3__112basic_stringIcNSA_11char_traitsIcEENSA_9allocatorIcEEEEbb"
  },
  {
   "binding":"weak",
   "name":"_ZN7android8hardware7details18getServiceInternalINS0_4gnss4V1_012BpHwAGnssRilENS4_9IAGnssRilEvvEENS_2spIT0_EERKNSt3__112basic_stringIcNSA_11char_traitsIcEENSA_9allocatorIcEEEEbb"
  },
  {
   "binding":"weak",
   "name":"_ZN7android8hardware7details18getServiceInternalINS0_4gnss4V1_012BpHwGnssXtraENS4_9IGnssXtraEvvEENS_2spIT0_EERKNSt3__112basic_stringIcNSA_11char_traitsIcEENSA_9allocatorIcEEEEbb"
  },
  {
   "binding":"weak",
   "name":"_ZN7android8hardware7details18getServiceInternalINS0_4gnss4V1_013BpHwGnssDebugENS4_10IGnssDebugEvvEENS_2spIT0_EERKNSt3__112basic_stringIcNSA_11char_traitsIcEENSA_9allocatorIcEEEEbb"
  },
  {
   "binding":"weak",
   "name":"_ZN7android8hardware7details18getServiceInternalINS0_4gnss4V1_016BpHwGnssBatchingENS4_13IGnssBatchingEvvEENS_2spIT0_EERKNSt3__112basic_stringIcNSA_11char_traitsIcEENSA_9allocatorIcEEEEbb"
  },
  {
   "binding":"weak",
   "name":"_ZN7android8hardware7details18getServiceInternalINS0_4gnss4V1_016BpHwGnssCallbackENS4_13IGnssCallbackEvvEENS_2spIT0_EERKNSt3__112basic_stringIcNSA_11char_traitsIcEENSA_9allocatorIcEEEEbb"
  },
  {
   "binding":"weak",
   "name":"_ZN7android8hardware7details18getServiceInternalINS0_4gnss4V1_017BpHwAGnssCallbackENS4_14IAGnssCallbackEvvEENS_2spIT0_EERKNSt3__112basic_stringIcNSA_11char_traitsIcEENSA_9allocatorIcEEEEbb"
  },
  {
   "binding":"weak",
   "name":"_ZN7android8hardware7details18getServiceInternalINS0_4gnss4V1_018BpHwGnssGeofencingENS4_15IGnssGeofencingEvvEENS_2spIT0_EERKNSt3__112basic_stringIcNSA_11char_traitsIcEENSA_9allocatorIcEEEEbb"
  },
  {
   "binding":"weak",
   "name":"_ZN7android8hardware7details18getServiceInternalINS0_4gnss4V1_018BpHwGnssNiCallbackENS4_15IGnssNiCallbackEvvEENS_2spIT0_EERKNSt3__112basic_stringIcNSA_11char_traitsIcEENSA_9allocatorIcEEEEbb"
  },
  {
   "binding":"weak",
   "name":"_ZN7android8hardware7details18getServiceInternalINS0_4gnss4V1_019BpHwGnssMeasurementENS4_16IGnssMeasurementEvvEENS_2spIT0_EERKNSt3__112basic_stringIcNSA_11char_traitsIcEENSA_9allocatorIcEEEEbb"
  },
  {
   "binding":"weak",
   "name":"_ZN7android8hardware7details18getServiceInternalINS0_4gnss4V1_020BpHwAGnssRilCallbackENS4_17IAGnssRilCallbackEvvEENS_2spIT0_EERKNSt3__112basic_stringIcNSA_11char_traitsIcEENSA_9allocatorIcEEEEbb"
  },
  {
   "binding":"weak",
   "name":"_ZN7android8hardware7details18getServiceInternalINS0_4gnss4V1_020BpHwGnssXtraCallbackENS4_17IGnssXtraCallbackEvvEENS_2spIT0_EERKNSt3__112basic_stringIcNSA_11char_traitsIcEENSA_9allocatorIcEEEEbb"
  },
  {
   "binding":"weak",
   "name":"_ZN7android8hardware7details18getServiceInternalINS0_4gnss4V1_021BpHwGnssConfigurationENS4_18IGnssConfigurationEvvEENS_2spIT0_EERKNSt3__112basic_stringIcNSA_11char_traitsIcEENSA_9allocatorIcEEEEbb"
  },
  {
   "binding":"weak",
   "name":"_ZN7android8hardware7details18getServiceInternalINS0_4gnss4V1_024BpHwGnssBatchingCallbackENS4_21IGnssBatchingCallbackEvvEENS_2spIT0_EERKNSt3__112basic_stringIcNSA_11char_traitsIcEENSA_9allocatorIcEEEEbb"
  },
  {
   "binding":"weak",
   "name":"_ZN7android8hardware7details18getServiceInternalINS0_4gnss4V1_024BpHwGnssGeofenceCallbackENS4_21IGnssGeofenceCallbackEvvEENS_2spIT0_EERKNSt3__112basic_stringIcNSA_11char_traitsIcEENSA_9allocatorIcEEEEbb"
  },
  {
   "binding":"weak",
   "name":"_ZN7android8hardware7details18getServiceInternalINS0_4gnss4V1_025BpHwGnssNavigationMessageENS4_22IGnssNavigationMessageEvvEENS_2spIT0_EERKNSt3__112basic_stringIcNSA_11char_traitsIcEENSA_9allocatorIcEEEEbb"
  },
  {
   "binding":"weak",
   "name":"_ZN7android8hardware7details18getServiceInternalINS0_4gnss4V1_027BpHwGnssMeasurementCallbackENS4_24IGnssMeasurementCallbackEvvEENS_2spIT0_EERKNSt3__112basic_stringIcNSA_11char_traitsIcEENSA_9allocatorIcEEEEbb"
  },
  {
   "binding":"weak",
   "name":"_ZN7android8hardware7details18getServiceInternalINS0_4gnss4V1_033BpHwGnssNavigationMessageCallbackENS4_30IGnssNavigationMessageCallbackEvvEENS_2spIT0_EERKNSt3__112basic_stringIcNSA_11char_traitsIcEENSA_9allocatorIcEEEEbb"
  },
  {
   "binding":"weak",
   "name":"_ZN7android8hardware7details18getServiceInternalINS0_4gnss4V1_08BpHwGnssENS4_5IGnssEvvEENS_2spIT0_EERKNSt3__112basic_stringIcNSA_11char_traitsIcEENSA_9allocatorIcEEEEbb"
  },
  {
   "binding":"weak",
   "name":"_ZN7android8hardware7details18getServiceInternalINS0_4gnss4V1_09BpHwAGnssENS4_6IAGnssEvvEENS_2spIT0_EERKNSt3__112basic_stringIcNSA_11char_traitsIcEENSA_9allocatorIcEEEEbb"
  },
  {
   "binding":"weak",
   "name":"_ZN7android8hardware8toBinderINS0_4gnss4V1_010IGnssDebugEvEENS_2spINS0_7IBinderEEENS5_IT_EE"
  },
  {
   "binding":"weak",
   "name":"_ZN7android8hardware8toBinderINS0_4gnss4V1_013IGnssBatchingEvEENS_2spINS0_7IBinderEEENS5_IT_EE"
  },
  {
   "binding":"weak",
   "name":"_ZN7android8hardware8toBinderINS0_4gnss4V1_013IGnssCallbackEvEENS_2spINS0_7IBinderEEENS5_IT_EE"
  },
  {
   "binding":"weak",
   "name":"_ZN7android8hardware8toBinderINS0_4gnss4V1_014IAGnssCallbackEvEENS_2spINS0_7IBinderEEENS5_IT_EE"
  },
  {
   "binding":"weak",
   "name":"_ZN7android8hardware8toBinderINS0_4gnss4V1_015IGnssGeofencingEvEENS_2spINS0_7IBinderEEENS5_IT_EE"
  },
  {
   "binding":"weak",
   "name":"_ZN7android8hardware8toBinderINS0_4gnss4V1_015IGnssNiCallbackEvEENS_2spINS0_7IBinderEEENS5_IT_EE"
  },
  {
   "binding":"weak",
   "name":"_ZN7android8hardware8toBinderINS0_4gnss4V1_016IGnssMeasurementEvEENS_2spINS0_7IBinderEEENS5_IT_EE"
  },
  {
   "binding":"weak",
   "name":"_ZN7android8hardware8toBinderINS0_4gnss4V1_017IAGnssRilCallbackEvEENS_2spINS0_7IBinderEEENS5_IT_EE"
  },
  {
   "binding":"weak",
   "name":"_ZN7android8hardware8toBinderINS0_4gnss4V1_017IGnssXtraCallbackEvEENS_2spINS0_7IBinderEEENS5_IT_EE"
  },
  {
   "binding":"weak",
   "name":"_ZN7android8hardware8toBinderINS0_4gnss4V1_018IGnssConfigurationEvEENS_2spINS0_7IBinderEEENS5_IT_EE"
  },
  {
   "binding":"weak",
   "name":"_ZN7android8hardware8toBinderINS0_4gnss4V1_021IGnssBatchingCallbackEvEENS_2spINS0_7IBinderEEENS5_IT_EE"
  },
  {
   "binding":"weak",
   "name":"_ZN7android8hardware8toBinderINS0_4gnss4V1_021IGnssGeofenceCallbackEvEENS_2spINS0_7IBinderEEENS5_IT_EE"
  },
  {
   "binding":"weak",
   "name":"_ZN7android8hardware8toBinderINS0_4gnss4V1_022IGnssNavigationMessageEvEENS_2spINS0_7IBinderEEENS5_IT_EE"
  },
  {
   "binding":"weak",
   "name":"_ZN7android8hardware8toBinderINS0_4gnss4V1_024IGnssMeasurementCallbackEvEENS_2spINS0_7IBinderEEENS5_IT_EE"
  },
  {
   "binding":"weak",
   "name":"_ZN7android8hardware8toBinderINS0_4gnss4V1_030IGnssNavigationMessageCallbackEvEENS_2spINS0_7IBinderEEENS5_IT_EE"
  },
  {
   "binding":"weak",
   "name":"_ZN7android8hardware8toBinderINS0_4gnss4V1_06IAGnssEvEENS_2spINS0_7IBinderEEENS5_IT_EE"
  },
  {
   "binding":"weak",
   "name":"_ZN7android8hardware8toBinderINS0_4gnss4V1_07IGnssNiEvEENS_2spINS0_7IBinderEEENS5_IT_EE"
  },
  {
   "binding":"weak",
   "name":"_ZN7android8hardware8toBinderINS0_4gnss4V1_09IAGnssRilEvEENS_2spINS0_7IBinderEEENS5_IT_EE"
  },
  {
   "binding":"weak",
   "name":"_ZN7android8hardware8toBinderINS0_4gnss4V1_09IGnssXtraEvEENS_2spINS0_7IBinderEEENS5_IT_EE"
  },
  {
   "binding":"weak",
   "name":"_ZN7android8hardware8toBinderINS_4hidl4base4V1_05IBaseEvEENS_2spINS0_7IBinderEEENS6_IT_EE"
  },
  {
   "name":"_ZThn32_N7android8hardware4gnss4V1_010BnHwGnssNiD0Ev"
  },
  {
   "name":"_ZThn32_N7android8hardware4gnss4V1_010BnHwGnssNiD1Ev"
  },
  {
   "name":"_ZThn32_N7android8hardware4gnss4V1_012BnHwAGnssRilD0Ev"
  },
  {
   "name":"_ZThn32_N7android8hardware4gnss4V1_012BnHwAGnssRilD1Ev"
  },
  {
   "name":"_ZThn32_N7android8hardware4gnss4V1_012BnHwGnssXtraD0Ev"
  },
  {
   "name":"_ZThn32_N7android8hardware4gnss4V1_012BnHwGnssXtraD1Ev"
  },
  {
   "name":"_ZThn32_N7android8hardware4gnss4V1_013BnHwGnssDebugD0Ev"
  },
  {
   "name":"_ZThn32_N7android8hardware4gnss4V1_013BnHwGnssDebugD1Ev"
  },
  {
   "name":"_ZThn32_N7android8hardware4gnss4V1_016BnHwGnssBatchingD0Ev"
  },
  {
   "name":"_ZThn32_N7android8hardware4gnss4V1_016BnHwGnssBatchingD1Ev"
  },
  {
   "name":"_ZThn32_N7android8hardware4gnss4V1_016BnHwGnssCallbackD0Ev"
  },
  {
   "name":"_ZThn32_N7android8hardware4gnss4V1_016BnHwGnssCallbackD1Ev"
  },
  {
   "name":"_ZThn32_N7android8hardware4gnss4V1_017BnHwAGnssCallbackD0Ev"
  },
  {
   "name":"_ZThn32_N7android8hardware4gnss4V1_017BnHwAGnssCallbackD1Ev"
  },
  {
   "name":"_ZThn32_N7android8hardware4gnss4V1_018BnHwGnssGeofencingD0Ev"
  },
  {
   "name":"_ZThn32_N7android8hardware4gnss4V1_018BnHwGnssGeofencingD1Ev"
  },
  {
   "name":"_ZThn32_N7android8hardware4gnss4V1_018BnHwGnssNiCallbackD0Ev"
  },
  {
   "name":"_ZThn32_N7android8hardware4gnss4V1_018BnHwGnssNiCallbackD1Ev"
  },
  {
   "name":"_ZThn32_N7android8hardware4gnss4V1_019BnHwGnssMeasurementD0Ev"
  },
  {
   "name":"_ZThn32_N7android8hardware4gnss4V1_019BnHwGnssMeasurementD1Ev"
  },
  {
   "name":"_ZThn32_N7android8hardware4gnss4V1_020BnHwAGnssRilCallbackD0Ev"
  },
  {
   "name":"_ZThn32_N7android8hardware4gnss4V1_020BnHwAGnssRilCallbackD1Ev"
  },
  {
   "name":"_ZThn32_N7android8hardware4gnss4V1_020BnHwGnssXtraCallbackD0Ev"
  },
  {
   "name":"_ZThn32_N7android8hardware4gnss4V1_020BnHwGnssXtraCallbackD1Ev"
  },
  {
   "name":"_ZThn32_N7android8hardware4gnss4V1_021BnHwGnssConfigurationD0Ev"
  },
  {
   "name":"_ZThn32_N7android8hardware4gnss4V1_021BnHwGnssConfigurationD1Ev"
  },
  {
   "name":"_ZThn32_N7android8hardware4gnss4V1_024BnHwGnssBatchingCallbackD0Ev"
  },
  {
   "name":"_ZThn32_N7android8hardware4gnss4V1_024BnHwGnssBatchingCallbackD1Ev"
  },
  {
   "name":"_ZThn32_N7android8hardware4gnss4V1_024BnHwGnssGeofenceCallbackD0Ev"
  },
  {
   "name":"_ZThn32_N7android8hardware4gnss4V1_024BnHwGnssGeofenceCallbackD1Ev"
  },
  {
   "name":"_ZThn32_N7android8hardware4gnss4V1_025BnHwGnssNavigationMessageD0Ev"
  },
  {
   "name":"_ZThn32_N7android8hardware4gnss4V1_025BnHwGnssNavigationMessageD1Ev"
  },
  {
   "name":"_ZThn32_N7android8hardware4gnss4V1_027BnHwGnssMeasurementCallbackD0Ev"
  },
  {
   "name":"_ZThn32_N7android8hardware4gnss4V1_027BnHwGnssMeasurementCallbackD1Ev"
  },
  {
   "name":"_ZThn32_N7android8hardware4gnss4V1_033BnHwGnssNavigationMessageCallbackD0Ev"
  },
  {
   "name":"_ZThn32_N7android8hardware4gnss4V1_033BnHwGnssNavigationMessageCallbackD1Ev"
  },
  {
   "name":"_ZThn32_N7android8hardware4gnss4V1_08BnHwGnssD0Ev"
  },
  {
   "name":"_ZThn32_N7android8hardware4gnss4V1_08BnHwGnssD1Ev"
  },
  {
   "name":"_ZThn32_N7android8hardware4gnss4V1_09BnHwAGnssD0Ev"
  },
  {
   "name":"_ZThn32_N7android8hardware4gnss4V1_09BnHwAGnssD1Ev"
  },
  {
   "name":"_ZTv0_n24_N7android8hardware4gnss4V1_010BnHwGnssNiD0Ev"
  },
  {
   "name":"_ZTv0_n24_N7android8hardware4gnss4V1_010BnHwGnssNiD1Ev"
  },
  {
   "name":"_ZTv0_n24_N7android8hardware4gnss4V1_012BnHwAGnssRilD0Ev"
  },
  {
   "name":"_ZTv0_n24_N7android8hardware4gnss4V1_012BnHwAGnssRilD1Ev"
  },
  {
   "name":"_ZTv0_n24_N7android8hardware4gnss4V1_012BnHwGnssXtraD0Ev"
  },
  {
   "name":"_ZTv0_n24_N7android8hardware4gnss4V1_012BnHwGnssXtraD1Ev"
  },
  {
   "name":"_ZTv0_n24_N7android8hardware4gnss4V1_013BnHwGnssDebugD0Ev"
  },
  {
   "name":"_ZTv0_n24_N7android8hardware4gnss4V1_013BnHwGnssDebugD1Ev"
  },
  {
   "name":"_ZTv0_n24_N7android8hardware4gnss4V1_016BnHwGnssBatchingD0Ev"
  },
  {
   "name":"_ZTv0_n24_N7android8hardware4gnss4V1_016BnHwGnssBatchingD1Ev"
  },
  {
   "name":"_ZTv0_n24_N7android8hardware4gnss4V1_016BnHwGnssCallbackD0Ev"
  },
  {
   "name":"_ZTv0_n24_N7android8hardware4gnss4V1_016BnHwGnssCallbackD1Ev"
  },
  {
   "name":"_ZTv0_n24_N7android8hardware4gnss4V1_017BnHwAGnssCallbackD0Ev"
  },
  {
   "name":"_ZTv0_n24_N7android8hardware4gnss4V1_017BnHwAGnssCallbackD1Ev"
  },
  {
   "name":"_ZTv0_n24_N7android8hardware4gnss4V1_018BnHwGnssGeofencingD0Ev"
  },
  {
   "name":"_ZTv0_n24_N7android8hardware4gnss4V1_018BnHwGnssGeofencingD1Ev"
  },
  {
   "name":"_ZTv0_n24_N7android8hardware4gnss4V1_018BnHwGnssNiCallbackD0Ev"
  },
  {
   "name":"_ZTv0_n24_N7android8hardware4gnss4V1_018BnHwGnssNiCallbackD1Ev"
  },
  {
   "name":"_ZTv0_n24_N7android8hardware4gnss4V1_019BnHwGnssMeasurementD0Ev"
  },
  {
   "name":"_ZTv0_n24_N7android8hardware4gnss4V1_019BnHwGnssMeasurementD1Ev"
  },
  {
   "name":"_ZTv0_n24_N7android8hardware4gnss4V1_020BnHwAGnssRilCallbackD0Ev"
  },
  {
   "name":"_ZTv0_n24_N7android8hardware4gnss4V1_020BnHwAGnssRilCallbackD1Ev"
  },
  {
   "name":"_ZTv0_n24_N7android8hardware4gnss4V1_020BnHwGnssXtraCallbackD0Ev"
  },
  {
   "name":"_ZTv0_n24_N7android8hardware4gnss4V1_020BnHwGnssXtraCallbackD1Ev"
  },
  {
   "name":"_ZTv0_n24_N7android8hardware4gnss4V1_021BnHwGnssConfigurationD0Ev"
  },
  {
   "name":"_ZTv0_n24_N7android8hardware4gnss4V1_021BnHwGnssConfigurationD1Ev"
  },
  {
   "name":"_ZTv0_n24_N7android8hardware4gnss4V1_024BnHwGnssBatchingCallbackD0Ev"
  },
  {
   "name":"_ZTv0_n24_N7android8hardware4gnss4V1_024BnHwGnssBatchingCallbackD1Ev"
  },
  {
   "name":"_ZTv0_n24_N7android8hardware4gnss4V1_024BnHwGnssGeofenceCallbackD0Ev"
  },
  {
   "name":"_ZTv0_n24_N7android8hardware4gnss4V1_024BnHwGnssGeofenceCallbackD1Ev"
  },
  {
   "name":"_ZTv0_n24_N7android8hardware4gnss4V1_025BnHwGnssNavigationMessageD0Ev"
  },
  {
   "name":"_ZTv0_n24_N7android8hardware4gnss4V1_025BnHwGnssNavigationMessageD1Ev"
  },
  {
   "name":"_ZTv0_n24_N7android8hardware4gnss4V1_027BnHwGnssMeasurementCallbackD0Ev"
  },
  {
   "name":"_ZTv0_n24_N7android8hardware4gnss4V1_027BnHwGnssMeasurementCallbackD1Ev"
  },
  {
   "name":"_ZTv0_n24_N7android8hardware4gnss4V1_033BnHwGnssNavigationMessageCallbackD0Ev"
  },
  {
   "name":"_ZTv0_n24_N7android8hardware4gnss4V1_033BnHwGnssNavigationMessageCallbackD1Ev"
  },
  {
   "name":"_ZTv0_n24_N7android8hardware4gnss4V1_08BnHwGnssD0Ev"
  },
  {
   "name":"_ZTv0_n24_N7android8hardware4gnss4V1_08BnHwGnssD1Ev"
  },
  {
   "name":"_ZTv0_n24_N7android8hardware4gnss4V1_09BnHwAGnssD0Ev"
  },
  {
   "name":"_ZTv0_n24_N7android8hardware4gnss4V1_09BnHwAGnssD1Ev"
  }
 ],
 "elf_objects":[
  {
   "name":"_ZN7android8hardware4gnss4V1_010IGnssDebug10descriptorE"
  },
  {
   "name":"_ZN7android8hardware4gnss4V1_013IGnssBatching10descriptorE"
  },
  {
   "name":"_ZN7android8hardware4gnss4V1_013IGnssCallback10descriptorE"
  },
  {
   "name":"_ZN7android8hardware4gnss4V1_014IAGnssCallback10descriptorE"
  },
  {
   "name":"_ZN7android8hardware4gnss4V1_015IGnssGeofencing10descriptorE"
  },
  {
   "name":"_ZN7android8hardware4gnss4V1_015IGnssNiCallback10descriptorE"
  },
  {
   "name":"_ZN7android8hardware4gnss4V1_016IGnssMeasurement10descriptorE"
  },
  {
   "name":"_ZN7android8hardware4gnss4V1_017IAGnssRilCallback10descriptorE"
  },
  {
   "name":"_ZN7android8hardware4gnss4V1_017IGnssXtraCallback10descriptorE"
  },
  {
   "name":"_ZN7android8hardware4gnss4V1_018IGnssConfiguration10descriptorE"
  },
  {
   "name":"_ZN7android8hardware4gnss4V1_021IGnssBatchingCallback10descriptorE"
  },
  {
   "name":"_ZN7android8hardware4gnss4V1_021IGnssGeofenceCallback10descriptorE"
  },
  {
   "name":"_ZN7android8hardware4gnss4V1_022IGnssNavigationMessage10descriptorE"
  },
  {
   "name":"_ZN7android8hardware4gnss4V1_024IGnssMeasurementCallback10descriptorE"
  },
  {
   "name":"_ZN7android8hardware4gnss4V1_030IGnssNavigationMessageCallback10descriptorE"
  },
  {
   "name":"_ZN7android8hardware4gnss4V1_05IGnss10descriptorE"
  },
  {
   "name":"_ZN7android8hardware4gnss4V1_06IAGnss10descriptorE"
  },
  {
   "name":"_ZN7android8hardware4gnss4V1_07IGnssNi10descriptorE"
  },
  {
   "name":"_ZN7android8hardware4gnss4V1_09IAGnssRil10descriptorE"
  },
  {
   "name":"_ZN7android8hardware4gnss4V1_09IGnssXtra10descriptorE"
  },
  {
   "name":"_ZTTN7android8hardware4gnss4V1_010BnHwGnssNiE"
  },
  {
   "name":"_ZTTN7android8hardware4gnss4V1_010BpHwGnssNiE"
  },
  {
   "name":"_ZTTN7android8hardware4gnss4V1_010IGnssDebugE"
  },
  {
   "name":"_ZTTN7android8hardware4gnss4V1_012BnHwAGnssRilE"
  },
  {
   "name":"_ZTTN7android8hardware4gnss4V1_012BnHwGnssXtraE"
  },
  {
   "name":"_ZTTN7android8hardware4gnss4V1_012BpHwAGnssRilE"
  },
  {
   "name":"_ZTTN7android8hardware4gnss4V1_012BpHwGnssXtraE"
  },
  {
   "name":"_ZTTN7android8hardware4gnss4V1_013BnHwGnssDebugE"
  },
  {
   "name":"_ZTTN7android8hardware4gnss4V1_013BpHwGnssDebugE"
  },
  {
   "name":"_ZTTN7android8hardware4gnss4V1_013IGnssBatchingE"
  },
  {
   "name":"_ZTTN7android8hardware4gnss4V1_013IGnssCallbackE"
  },
  {
   "name":"_ZTTN7android8hardware4gnss4V1_014IAGnssCallbackE"
  },
  {
   "name":"_ZTTN7android8hardware4gnss4V1_015IGnssGeofencingE"
  },
  {
   "name":"_ZTTN7android8hardware4gnss4V1_015IGnssNiCallbackE"
  },
  {
   "name":"_ZTTN7android8hardware4gnss4V1_016BnHwGnssBatchingE"
  },
  {
   "name":"_ZTTN7android8hardware4gnss4V1_016BnHwGnssCallbackE"
  },
  {
   "name":"_ZTTN7android8hardware4gnss4V1_016BpHwGnssBatchingE"
  },
  {
   "name":"_ZTTN7android8hardware4gnss4V1_016BpHwGnssCallbackE"
  },
  {
   "name":"_ZTTN7android8hardware4gnss4V1_016IGnssMeasurementE"
  },
  {
   "name":"_ZTTN7android8hardware4gnss4V1_017BnHwAGnssCallbackE"
  },
  {
   "name":"_ZTTN7android8hardware4gnss4V1_017BpHwAGnssCallbackE"
  },
  {
   "name":"_ZTTN7android8hardware4gnss4V1_017IAGnssRilCallbackE"
  },
  {
   "name":"_ZTTN7android8hardware4gnss4V1_017IGnssXtraCallbackE"
  },
  {
   "name":"_ZTTN7android8hardware4gnss4V1_018BnHwGnssGeofencingE"
  },
  {
   "name":"_ZTTN7android8hardware4gnss4V1_018BnHwGnssNiCallbackE"
  },
  {
   "name":"_ZTTN7android8hardware4gnss4V1_018BpHwGnssGeofencingE"
  },
  {
   "name":"_ZTTN7android8hardware4gnss4V1_018BpHwGnssNiCallbackE"
  },
  {
   "name":"_ZTTN7android8hardware4gnss4V1_018IGnssConfigurationE"
  },
  {
   "name":"_ZTTN7android8hardware4gnss4V1_019BnHwGnssMeasurementE"
  },
  {
   "name":"_ZTTN7android8hardware4gnss4V1_019BpHwGnssMeasurementE"
  },
  {
   "name":"_ZTTN7android8hardware4gnss4V1_020BnHwAGnssRilCallbackE"
  },
  {
   "name":"_ZTTN7android8hardware4gnss4V1_020BnHwGnssXtraCallbackE"
  },
  {
   "name":"_ZTTN7android8hardware4gnss4V1_020BpHwAGnssRilCallbackE"
  },
  {
   "name":"_ZTTN7android8hardware4gnss4V1_020BpHwGnssXtraCallbackE"
  },
  {
