{
 "record_types":[
  {
   "vtable_components":[
    {
     "kind":"vbase_offset",
     "component_value":136
    },
    {
     "kind":"offset_to_top"
    },
    {
     "kind":"rtti",
     "mangled_component_name":"_ZTIN7android8hardware11configstore4V1_125BnHwSurfaceFlingerConfigsE"
    },
    {
     "mangled_component_name":"_ZN7android8hardware9BHwBinder8transactEjRKNS0_6ParcelEPS2_jNSt3__18functionIFvRS2_EEE"
    },
    {
     "mangled_component_name":"_ZN7android8hardware9BHwBinder11linkToDeathERKNS_2spINS0_7IBinder14DeathRecipientEEEPvj"
    },
    {
     "mangled_component_name":"_ZN7android8hardware9BHwBinder13unlinkToDeathERKNS_2wpINS0_7IBinder14DeathRecipientEEEPvjPS5_"
    },
    {
     "mangled_component_name":"_ZNK7android8hardware7IBinder13checkSubclassEPKv"
    },
    {
     "mangled_component_name":"_ZN7android8hardware9BHwBinder12attachObjectEPKvPvS4_PFvS3_S4_S4_E"
    },
    {
     "mangled_component_name":"_ZNK7android8hardware9BHwBinder10findObjectEPKv"
    },
    {
     "mangled_component_name":"_ZN7android8hardware9BHwBinder12detachObjectEPKv"
    },
    {
     "mangled_component_name":"_ZN7android8hardware9BHwBinder11localBinderEv"
    },
    {
     "mangled_component_name":"_ZN7android8hardware7IBinder12remoteBinderEv"
    },
    {
     "kind":"complete_dtor_pointer",
     "mangled_component_name":"_ZN7android8hardware11configstore4V1_125BnHwSurfaceFlingerConfigsD1Ev"
    },
    {
     "kind":"deleting_dtor_pointer",
     "mangled_component_name":"_ZN7android8hardware11configstore4V1_125BnHwSurfaceFlingerConfigsD0Ev"
    },
    {
     "mangled_component_name":"_ZN7android8hardware11configstore4V1_125BnHwSurfaceFlingerConfigs10onTransactEjRKNS0_6ParcelEPS4_jNSt3__18functionIFvRS4_EEE"
    },
    {
     "kind":"offset_to_top",
     "component_value":-32
    },
    {
     "kind":"rtti",
     "mangled_component_name":"_ZTIN7android8hardware11configstore4V1_125BnHwSurfaceFlingerConfigsE"
    },
    {
     "kind":"complete_dtor_pointer",
     "mangled_component_name":"_ZThn32_N7android8hardware11configstore4V1_125BnHwSurfaceFlingerConfigsD1Ev"
    },
    {
     "kind":"deleting_dtor_pointer",
     "mangled_component_name":"_ZThn32_N7android8hardware11configstore4V1_125BnHwSurfaceFlingerConfigsD0Ev"
    },
    {
     "kind":"vcall_offset"
    },
    {
     "kind":"vcall_offset"
    },
    {
     "kind":"vcall_offset"
    },
    {
     "kind":"vcall_offset"
    },
    {
     "kind":"vcall_offset",
     "component_value":-136
    },
    {
     "kind":"offset_to_top",
     "component_value":-136
    },
    {
     "kind":"rtti",
     "mangled_component_name":"_ZTIN7android8hardware11configstore4V1_125BnHwSurfaceFlingerConfigsE"
    },
    {
     "kind":"complete_dtor_pointer",
     "mangled_component_name":"_ZTv0_n24_N7android8hardware11configstore4V1_125BnHwSurfaceFlingerConfigsD1Ev"
    },
    {
     "kind":"deleting_dtor_pointer",
     "mangled_component_name":"_ZTv0_n24_N7android8hardware11configstore4V1_125BnHwSurfaceFlingerConfigsD0Ev"
    },
    {
     "mangled_component_name":"_ZN7android7RefBase10onFirstRefEv"
    },
    {
     "mangled_component_name":"_ZN7android7RefBase15onLastStrongRefEPKv"
    },
    {
     "mangled_component_name":"_ZN7android7RefBase20onIncStrongAttemptedEjPKv"
    },
    {
     "mangled_component_name":"_ZN7android7RefBase13onLastWeakRefEPKv"
    }
   ],
   "unique_id":"_ZTSN7android8hardware11configstore4V1_125BnHwSurfaceFlingerConfigsE"
  },
  {
   "vtable_components":[
    {
     "kind":"vbase_offset",
     "component_value":120
    },
    {
     "kind":"offset_to_top"
    },
    {
     "kind":"rtti",
     "mangled_component_name":"_ZTIN7android8hardware11configstore4V1_123BsSurfaceFlingerConfigsE"
    },
    {
     "mangled_component_name":"_ZNK7android8hardware11configstore4V1_122ISurfaceFlingerConfigs8isRemoteEv"
    },
    {
     "mangled_component_name":"_ZN7android8hardware11configstore4V1_123BsSurfaceFlingerConfigs14interfaceChainENSt3__18functionIFvRKNS0_8hidl_vecINS0_11hidl_stringEEEEEE"
    },
    {
     "mangled_component_name":"_ZN7android8hardware11configstore4V1_123BsSurfaceFlingerConfigs5debugERKNS0_11hidl_handleERKNS0_8hidl_vecINS0_11hidl_stringEEE"
    },
    {
     "mangled_component_name":"_ZN7android8hardware11configstore4V1_123BsSurfaceFlingerConfigs19interfaceDescriptorENSt3__18functionIFvRKNS0_11hidl_stringEEEE"
    },
    {
     "mangled_component_name":"_ZN7android8hardware11configstore4V1_123BsSurfaceFlingerConfigs12getHashChainENSt3__18functionIFvRKNS0_8hidl_vecINS0_10hidl_arrayIhLm32EJEEEEEEEE"
    },
    {
     "mangled_component_name":"_ZN7android8hardware11configstore4V1_123BsSurfaceFlingerConfigs21setHALInstrumentationEv"
    },
    {
     "mangled_component_name":"_ZN7android8hardware11configstore4V1_123BsSurfaceFlingerConfigs11linkToDeathERKNS_2spINS0_20hidl_death_recipientEEEm"
    },
    {
     "mangled_component_name":"_ZN7android8hardware11configstore4V1_123BsSurfaceFlingerConfigs4pingEv"
    },
    {
     "mangled_component_name":"_ZN7android8hardware11configstore4V1_123BsSurfaceFlingerConfigs12getDebugInfoENSt3__18functionIFvRKNS_4hidl4base4V1_09DebugInfoEEEE"
    },
    {
     "mangled_component_name":"_ZN7android8hardware11configstore4V1_123BsSurfaceFlingerConfigs21notifySyspropsChangedEv"
    },
    {
     "mangled_component_name":"_ZN7android8hardware11configstore4V1_123BsSurfaceFlingerConfigs13unlinkToDeathERKNS_2spINS0_20hidl_death_recipientEEE"
    },
    {
     "kind":"complete_dtor_pointer",
     "mangled_component_name":"_ZN7android8hardware11configstore4V1_123BsSurfaceFlingerConfigsD1Ev"
    },
    {
     "kind":"deleting_dtor_pointer",
     "mangled_component_name":"_ZN7android8hardware11configstore4V1_123BsSurfaceFlingerConfigsD0Ev"
    },
    {
     "mangled_component_name":"_ZN7android8hardware11configstore4V1_123BsSurfaceFlingerConfigs23vsyncEventPhaseOffsetNsENSt3__18functionIFvRKNS1_4V1_013OptionalInt64EEEE"
    },
    {
     "mangled_component_name":"_ZN7android8hardware11configstore4V1_123BsSurfaceFlingerConfigs25vsyncSfEventPhaseOffsetNsENSt3__18functionIFvRKNS1_4V1_013OptionalInt64EEEE"
    },
    {
     "mangled_component_name":"_ZN7android8hardware11configstore4V1_123BsSurfaceFlingerConfigs18useContextPriorityENSt3__18functionIFvRKNS1_4V1_012OptionalBoolEEEE"
    },
    {
     "mangled_component_name":"_ZN7android8hardware11configstore4V1_123BsSurfaceFlingerConfigs19hasWideColorDisplayENSt3__18functionIFvRKNS1_4V1_012OptionalBoolEEEE"
    },
    {
     "mangled_component_name":"_ZN7android8hardware11configstore4V1_123BsSurfaceFlingerConfigs13hasHDRDisplayENSt3__18functionIFvRKNS1_4V1_012OptionalBoolEEEE"
    },
    {
     "mangled_component_name":"_ZN7android8hardware11configstore4V1_123BsSurfaceFlingerConfigs28presentTimeOffsetFromVSyncNsENSt3__18functionIFvRKNS1_4V1_013OptionalInt64EEEE"
    },
    {
     "mangled_component_name":"_ZN7android8hardware11configstore4V1_123BsSurfaceFlingerConfigs17useHwcForRGBtoYUVENSt3__18functionIFvRKNS1_4V1_012OptionalBoolEEEE"
    },
    {
     "mangled_component_name":"_ZN7android8hardware11configstore4V1_123BsSurfaceFlingerConfigs21maxVirtualDisplaySizeENSt3__18functionIFvRKNS1_4V1_014OptionalUInt64EEEE"
    },
    {
     "mangled_component_name":"_ZN7android8hardware11configstore4V1_123BsSurfaceFlingerConfigs16hasSyncFrameworkENSt3__18functionIFvRKNS1_4V1_012OptionalBoolEEEE"
    },
    {
     "mangled_component_name":"_ZN7android8hardware11configstore4V1_123BsSurfaceFlingerConfigs12useVrFlingerENSt3__18functionIFvRKNS1_4V1_012OptionalBoolEEEE"
    },
    {
     "mangled_component_name":"_ZN7android8hardware11configstore4V1_123BsSurfaceFlingerConfigs29maxFrameBufferAcquiredBuffersENSt3__18functionIFvRKNS1_4V1_013OptionalInt64EEEE"
    },
    {
     "mangled_component_name":"_ZN7android8hardware11configstore4V1_123BsSurfaceFlingerConfigs29startGraphicsAllocatorServiceENSt3__18functionIFvRKNS1_4V1_012OptionalBoolEEEE"
    },
    {
     "mangled_component_name":"_ZN7android8hardware11configstore4V1_123BsSurfaceFlingerConfigs25primaryDisplayOrientationENSt3__18functionIFvRKNS2_26OptionalDisplayOrientationEEEE"
    },
    {
     "kind":"offset_to_top",
     "component_value":-8
    },
    {
     "kind":"rtti",
     "mangled_component_name":"_ZTIN7android8hardware11configstore4V1_123BsSurfaceFlingerConfigsE"
    },
    {
     "kind":"complete_dtor_pointer",
     "mangled_component_name":"_ZThn8_N7android8hardware11configstore4V1_123BsSurfaceFlingerConfigsD1Ev"
    },
    {
     "kind":"deleting_dtor_pointer",
     "mangled_component_name":"_ZThn8_N7android8hardware11configstore4V1_123BsSurfaceFlingerConfigsD0Ev"
    },
    {
     "kind":"vcall_offset"
    },
    {
     "kind":"vcall_offset"
    },
    {
     "kind":"vcall_offset"
    },
    {
     "kind":"vcall_offset"
    },
    {
     "kind":"vcall_offset",
     "component_value":-120
    },
    {
     "kind":"offset_to_top",
     "component_value":-120
    },
    {
     "kind":"rtti",
     "mangled_component_name":"_ZTIN7android8hardware11configstore4V1_123BsSurfaceFlingerConfigsE"
    },
    {
     "kind":"complete_dtor_pointer",
     "mangled_component_name":"_ZTv0_n24_N7android8hardware11configstore4V1_123BsSurfaceFlingerConfigsD1Ev"
    },
    {
     "kind":"deleting_dtor_pointer",
     "mangled_component_name":"_ZTv0_n24_N7android8hardware11configstore4V1_123BsSurfaceFlingerConfigsD0Ev"
    },
    {
     "mangled_component_name":"_ZN7android7RefBase10onFirstRefEv"
    },
    {
     "mangled_component_name":"_ZN7android7RefBase15onLastStrongRefEPKv"
    },
    {
     "mangled_component_name":"_ZN7android7RefBase20onIncStrongAttemptedEjPKv"
    },
    {
     "mangled_component_name":"_ZN7android7RefBase13onLastWeakRefEPKv"
    }
   ],
   "unique_id":"_ZTSN7android8hardware11configstore4V1_123BsSurfaceFlingerConfigsE"
  },
  {
   "vtable_components":[
    {
     "kind":"vbase_offset",
     "component_value":200
    },
    {
     "kind":"offset_to_top"
    },
    {
     "kind":"rtti",
     "mangled_component_name":"_ZTIN7android8hardware11configstore4V1_125BpHwSurfaceFlingerConfigsE"
    },
    {
     "mangled_component_name":"_ZNK7android8hardware11configstore4V1_125BpHwSurfaceFlingerConfigs8isRemoteEv"
    },
    {
     "mangled_component_name":"_ZN7android8hardware11configstore4V1_125BpHwSurfaceFlingerConfigs14interfaceChainENSt3__18functionIFvRKNS0_8hidl_vecINS0_11hidl_stringEEEEEE"
    },
    {
     "mangled_component_name":"_ZN7android8hardware11configstore4V1_125BpHwSurfaceFlingerConfigs5debugERKNS0_11hidl_handleERKNS0_8hidl_vecINS0_11hidl_stringEEE"
    },
    {
     "mangled_component_name":"_ZN7android8hardware11configstore4V1_125BpHwSurfaceFlingerConfigs19interfaceDescriptorENSt3__18functionIFvRKNS0_11hidl_stringEEEE"
    },
    {
     "mangled_component_name":"_ZN7android8hardware11configstore4V1_125BpHwSurfaceFlingerConfigs12getHashChainENSt3__18functionIFvRKNS0_8hidl_vecINS0_10hidl_arrayIhLm32EJEEEEEEEE"
    },
    {
     "mangled_component_name":"_ZN7android8hardware11configstore4V1_125BpHwSurfaceFlingerConfigs21setHALInstrumentationEv"
    },
    {
     "mangled_component_name":"_ZN7android8hardware11configstore4V1_125BpHwSurfaceFlingerConfigs11linkToDeathERKNS_2spINS0_20hidl_death_recipientEEEm"
    },
    {
     "mangled_component_name":"_ZN7android8hardware11configstore4V1_125BpHwSurfaceFlingerConfigs4pingEv"
    },
    {
     "mangled_component_name":"_ZN7android8hardware11configstore4V1_125BpHwSurfaceFlingerConfigs12getDebugInfoENSt3__18functionIFvRKNS_4hidl4base4V1_09DebugInfoEEEE"
    },
    {
     "mangled_component_name":"_ZN7android8hardware11configstore4V1_125BpHwSurfaceFlingerConfigs21notifySyspropsChangedEv"
    },
    {
     "mangled_component_name":"_ZN7android8hardware11configstore4V1_125BpHwSurfaceFlingerConfigs13unlinkToDeathERKNS_2spINS0_20hidl_death_recipientEEE"
    },
    {
     "kind":"complete_dtor_pointer",
     "mangled_component_name":"_ZN7android8hardware11configstore4V1_125BpHwSurfaceFlingerConfigsD1Ev"
    },
    {
     "kind":"deleting_dtor_pointer",
     "mangled_component_name":"_ZN7android8hardware11configstore4V1_125BpHwSurfaceFlingerConfigsD0Ev"
    },
    {
     "mangled_component_name":"_ZN7android8hardware11configstore4V1_125BpHwSurfaceFlingerConfigs23vsyncEventPhaseOffsetNsENSt3__18functionIFvRKNS1_4V1_013OptionalInt64EEEE"
    },
    {
     "mangled_component_name":"_ZN7android8hardware11configstore4V1_125BpHwSurfaceFlingerConfigs25vsyncSfEventPhaseOffsetNsENSt3__18functionIFvRKNS1_4V1_013OptionalInt64EEEE"
    },
    {
     "mangled_component_name":"_ZN7android8hardware11configstore4V1_125BpHwSurfaceFlingerConfigs18useContextPriorityENSt3__18functionIFvRKNS1_4V1_012OptionalBoolEEEE"
    },
    {
     "mangled_component_name":"_ZN7android8hardware11configstore4V1_125BpHwSurfaceFlingerConfigs19hasWideColorDisplayENSt3__18functionIFvRKNS1_4V1_012OptionalBoolEEEE"
    },
    {
     "mangled_component_name":"_ZN7android8hardware11configstore4V1_125BpHwSurfaceFlingerConfigs13hasHDRDisplayENSt3__18functionIFvRKNS1_4V1_012OptionalBoolEEEE"
    },
    {
     "mangled_component_name":"_ZN7android8hardware11configstore4V1_125BpHwSurfaceFlingerConfigs28presentTimeOffsetFromVSyncNsENSt3__18functionIFvRKNS1_4V1_013OptionalInt64EEEE"
    },
    {
     "mangled_component_name":"_ZN7android8hardware11configstore4V1_125BpHwSurfaceFlingerConfigs17useHwcForRGBtoYUVENSt3__18functionIFvRKNS1_4V1_012OptionalBoolEEEE"
    },
    {
     "mangled_component_name":"_ZN7android8hardware11configstore4V1_125BpHwSurfaceFlingerConfigs21maxVirtualDisplaySizeENSt3__18functionIFvRKNS1_4V1_014OptionalUInt64EEEE"
    },
    {
     "mangled_component_name":"_ZN7android8hardware11configstore4V1_125BpHwSurfaceFlingerConfigs16hasSyncFrameworkENSt3__18functionIFvRKNS1_4V1_012OptionalBoolEEEE"
    },
    {
     "mangled_component_name":"_ZN7android8hardware11configstore4V1_125BpHwSurfaceFlingerConfigs12useVrFlingerENSt3__18functionIFvRKNS1_4V1_012OptionalBoolEEEE"
    },
    {
     "mangled_component_name":"_ZN7android8hardware11configstore4V1_125BpHwSurfaceFlingerConfigs29maxFrameBufferAcquiredBuffersENSt3__18functionIFvRKNS1_4V1_013OptionalInt64EEEE"
    },
    {
     "mangled_component_name":"_ZN7android8hardware11configstore4V1_125BpHwSurfaceFlingerConfigs29startGraphicsAllocatorServiceENSt3__18functionIFvRKNS1_4V1_012OptionalBoolEEEE"
    },
    {
     "mangled_component_name":"_ZN7android8hardware11configstore4V1_125BpHwSurfaceFlingerConfigs25primaryDisplayOrientationENSt3__18functionIFvRKNS2_26OptionalDisplayOrientationEEEE"
    },
    {
     "mangled_component_name":"_ZN7android8hardware11BpInterfaceINS0_11configstore4V1_122ISurfaceFlingerConfigsEE10onAsBinderEv"
    },
    {
     "kind":"vbase_offset",
     "component_value":192
    },
    {
     "kind":"offset_to_top",
     "component_value":-8
    },
    {
     "kind":"rtti",
     "mangled_component_name":"_ZTIN7android8hardware11configstore4V1_125BpHwSurfaceFlingerConfigsE"
    },
    {
     "kind":"complete_dtor_pointer",
     "mangled_component_name":"_ZThn8_N7android8hardware11configstore4V1_125BpHwSurfaceFlingerConfigsD1Ev"
    },
    {
     "kind":"deleting_dtor_pointer",
     "mangled_component_name":"_ZThn8_N7android8hardware11configstore4V1_125BpHwSurfaceFlingerConfigsD0Ev"
    },
    {
     "mangled_component_name":"_ZThn8_N7android8hardware11BpInterfaceINS0_11configstore4V1_122ISurfaceFlingerConfigsEE10onAsBinderEv"
    },
    {
     "kind":"vbase_offset",
     "component_value":184
    },
    {
     "kind":"offset_to_top",
     "component_value":-16
    },
    {
     "kind":"rtti",
     "mangled_component_name":"_ZTIN7android8hardware11configstore4V1_125BpHwSurfaceFlingerConfigsE"
    },
    {
     "kind":"complete_dtor_pointer",
     "mangled_component_name":"_ZThn16_N7android8hardware11configstore4V1_125BpHwSurfaceFlingerConfigsD1Ev"
    },
    {
     "kind":"deleting_dtor_pointer",
     "mangled_component_name":"_ZThn16_N7android8hardware11configstore4V1_125BpHwSurfaceFlingerConfigsD0Ev"
    },
    {
     "mangled_component_name":"_ZN7android8hardware11BpHwRefBase10onFirstRefEv"
    },
    {
     "mangled_component_name":"_ZN7android8hardware11BpHwRefBase15onLastStrongRefEPKv"
    },
    {
     "mangled_component_name":"_ZN7android8hardware11BpHwRefBase20onIncStrongAttemptedEjPKv"
    },
    {
     "kind":"offset_to_top",
     "component_value":-48
    },
    {
     "kind":"rtti",
     "mangled_component_name":"_ZTIN7android8hardware11configstore4V1_125BpHwSurfaceFlingerConfigsE"
    },
    {
     "kind":"complete_dtor_pointer",
     "mangled_component_name":"_ZThn48_N7android8hardware11configstore4V1_125BpHwSurfaceFlingerConfigsD1Ev"
    },
    {
     "kind":"deleting_dtor_pointer",
     "mangled_component_name":"_ZThn48_N7android8hardware11configstore4V1_125BpHwSurfaceFlingerConfigsD0Ev"
    },
    {
     "kind":"vcall_offset"
    },
    {
     "kind":"vcall_offset",
     "component_value":-184
    },
    {
     "kind":"vcall_offset",
     "component_value":-184
    },
    {
     "kind":"vcall_offset",
     "component_value":-184
    },
    {
     "kind":"vcall_offset",
     "component_value":-200
    },
    {
     "kind":"offset_to_top",
     "component_value":-200
    },
    {
     "kind":"rtti",
     "mangled_component_name":"_ZTIN7android8hardware11configstore4V1_125BpHwSurfaceFlingerConfigsE"
    },
    {
     "kind":"complete_dtor_pointer",
     "mangled_component_name":"_ZTv0_n24_N7android8hardware11configstore4V1_125BpHwSurfaceFlingerConfigsD1Ev"
    },
    {
     "kind":"deleting_dtor_pointer",
     "mangled_component_name":"_ZTv0_n24_N7android8hardware11configstore4V1_125BpHwSurfaceFlingerConfigsD0Ev"
    },
    {
     "mangled_component_name":"_ZTv0_n32_N7android8hardware11BpHwRefBase10onFirstRefEv"
    },
    {
     "mangled_component_name":"_ZTv0_n40_N7android8hardware11BpHwRefBase15onLastStrongRefEPKv"
    },
    {
     "mangled_component_name":"_ZTv0_n48_N7android8hardware11BpHwRefBase20onIncStrongAttemptedEjPKv"
    },
    {
     "mangled_component_name":"_ZN7android7RefBase13onLastWeakRefEPKv"
    }
   ],
   "unique_id":"_ZTSN7android8hardware11configstore4V1_125BpHwSurfaceFlingerConfigsE"
  },
  {
   "vtable_components":[
    {
     "kind":"vbase_offset",
     "component_value":8
    },
    {
     "kind":"offset_to_top"
    },
    {
     "kind":"rtti",
     "mangled_component_name":"_ZTIN7android8hardware11configstore4V1_122ISurfaceFlingerConfigsE"
    },
    {
     "mangled_component_name":"_ZNK7android8hardware11configstore4V1_122ISurfaceFlingerConfigs8isRemoteEv"
    },
    {
     "mangled_component_name":"_ZN7android8hardware11configstore4V1_122ISurfaceFlingerConfigs14interfaceChainENSt3__18functionIFvRKNS0_8hidl_vecINS0_11hidl_stringEEEEEE"
    },
    {
     "mangled_component_name":"_ZN7android8hardware11configstore4V1_122ISurfaceFlingerConfigs5debugERKNS0_11hidl_handleERKNS0_8hidl_vecINS0_11hidl_stringEEE"
    },
    {
     "mangled_component_name":"_ZN7android8hardware11configstore4V1_122ISurfaceFlingerConfigs19interfaceDescriptorENSt3__18functionIFvRKNS0_11hidl_stringEEEE"
    },
    {
     "mangled_component_name":"_ZN7android8hardware11configstore4V1_122ISurfaceFlingerConfigs12getHashChainENSt3__18functionIFvRKNS0_8hidl_vecINS0_10hidl_arrayIhLm32EJEEEEEEEE"
    },
    {
     "mangled_component_name":"_ZN7android8hardware11configstore4V1_122ISurfaceFlingerConfigs21setHALInstrumentationEv"
    },
    {
     "mangled_component_name":"_ZN7android8hardware11configstore4V1_122ISurfaceFlingerConfigs11linkToDeathERKNS_2spINS0_20hidl_death_recipientEEEm"
    },
    {
     "mangled_component_name":"_ZN7android8hardware11configstore4V1_122ISurfaceFlingerConfigs4pingEv"
    },
    {
     "mangled_component_name":"_ZN7android8hardware11configstore4V1_122ISurfaceFlingerConfigs12getDebugInfoENSt3__18functionIFvRKNS_4hidl4base4V1_09DebugInfoEEEE"
    },
    {
     "mangled_component_name":"_ZN7android8hardware11configstore4V1_122ISurfaceFlingerConfigs21notifySyspropsChangedEv"
    },
    {
     "mangled_component_name":"_ZN7android8hardware11configstore4V1_122ISurfaceFlingerConfigs13unlinkToDeathERKNS_2spINS0_20hidl_death_recipientEEE"
    },
    {
     "kind":"complete_dtor_pointer",
     "mangled_component_name":"_ZN7android8hardware11configstore4V1_122ISurfaceFlingerConfigsD1Ev"
    },
    {
     "kind":"deleting_dtor_pointer",
     "mangled_component_name":"_ZN7android8hardware11configstore4V1_122ISurfaceFlingerConfigsD0Ev"
    },
    {
     "is_pure":true,
     "mangled_component_name":"_ZN7android8hardware11configstore4V1_122ISurfaceFlingerConfigs23vsyncEventPhaseOffsetNsENSt3__18functionIFvRKNS1_4V1_013OptionalInt64EEEE"
    },
    {
     "is_pure":true,
     "mangled_component_name":"_ZN7android8hardware11configstore4V1_122ISurfaceFlingerConfigs25vsyncSfEventPhaseOffsetNsENSt3__18functionIFvRKNS1_4V1_013OptionalInt64EEEE"
    },
    {
     "is_pure":true,
     "mangled_component_name":"_ZN7android8hardware11configstore4V1_122ISurfaceFlingerConfigs18useContextPriorityENSt3__18functionIFvRKNS1_4V1_012OptionalBoolEEEE"
    },
    {
     "is_pure":true,
     "mangled_component_name":"_ZN7android8hardware11configstore4V1_122ISurfaceFlingerConfigs19hasWideColorDisplayENSt3__18functionIFvRKNS1_4V1_012OptionalBoolEEEE"
    },
    {
     "is_pure":true,
     "mangled_component_name":"_ZN7android8hardware11configstore4V1_122ISurfaceFlingerConfigs13hasHDRDisplayENSt3__18functionIFvRKNS1_4V1_012OptionalBoolEEEE"
    },
    {
     "is_pure":true,
     "mangled_component_name":"_ZN7android8hardware11configstore4V1_122ISurfaceFlingerConfigs28presentTimeOffsetFromVSyncNsENSt3__18functionIFvRKNS1_4V1_013OptionalInt64EEEE"
    },
    {
     "is_pure":true,
     "mangled_component_name":"_ZN7android8hardware11configstore4V1_122ISurfaceFlingerConfigs17useHwcForRGBtoYUVENSt3__18functionIFvRKNS1_4V1_012OptionalBoolEEEE"
    },
    {
     "is_pure":true,
     "mangled_component_name":"_ZN7android8hardware11configstore4V1_122ISurfaceFlingerConfigs21maxVirtualDisplaySizeENSt3__18functionIFvRKNS1_4V1_014OptionalUInt64EEEE"
    },
    {
     "is_pure":true,
     "mangled_component_name":"_ZN7android8hardware11configstore4V1_122ISurfaceFlingerConfigs16hasSyncFrameworkENSt3__18functionIFvRKNS1_4V1_012OptionalBoolEEEE"
    },
    {
     "is_pure":true,
     "mangled_component_name":"_ZN7android8hardware11configstore4V1_122ISurfaceFlingerConfigs12useVrFlingerENSt3__18functionIFvRKNS1_4V1_012OptionalBoolEEEE"
    },
    {
     "is_pure":true,
     "mangled_component_name":"_ZN7android8hardware11configstore4V1_122ISurfaceFlingerConfigs29maxFrameBufferAcquiredBuffersENSt3__18functionIFvRKNS1_4V1_013OptionalInt64EEEE"
    },
    {
     "is_pure":true,
     "mangled_component_name":"_ZN7android8hardware11configstore4V1_122ISurfaceFlingerConfigs29startGraphicsAllocatorServiceENSt3__18functionIFvRKNS1_4V1_012OptionalBoolEEEE"
    },
    {
     "is_pure":true,
     "mangled_component_name":"_ZN7android8hardware11configstore4V1_122ISurfaceFlingerConfigs25primaryDisplayOrientationENSt3__18functionIFvRKNS2_26OptionalDisplayOrientationEEEE"
    },
    {
     "kind":"vcall_offset"
    },
    {
     "kind":"vcall_offset"
    },
    {
     "kind":"vcall_offset"
    },
    {
     "kind":"vcall_offset"
    },
    {
     "kind":"vcall_offset",
     "component_value":-8
    },
    {
     "kind":"offset_to_top",
     "component_value":-8
    },
    {
     "kind":"rtti",
     "mangled_component_name":"_ZTIN7android8hardware11configstore4V1_122ISurfaceFlingerConfigsE"
    },
    {
     "kind":"complete_dtor_pointer",
     "mangled_component_name":"_ZTv0_n24_N7android8hardware11configstore4V1_122ISurfaceFlingerConfigsD1Ev"
    },
    {
     "kind":"deleting_dtor_pointer",
     "mangled_component_name":"_ZTv0_n24_N7android8hardware11configstore4V1_122ISurfaceFlingerConfigsD0Ev"
    },
    {
     "mangled_component_name":"_ZN7android7RefBase10onFirstRefEv"
    },
    {
     "mangled_component_name":"_ZN7android7RefBase15onLastStrongRefEPKv"
    },
    {
     "mangled_component_name":"_ZN7android7RefBase20onIncStrongAttemptedEjPKv"
    },
    {
     "mangled_component_name":"_ZN7android7RefBase13onLastWeakRefEPKv"
    }
   ],
   "unique_id":"_ZTSN7android8hardware11configstore4V1_122ISurfaceFlingerConfigsE"
  }
 ],
 "elf_functions":[
  {
   "name":"_ZN7android8hardware11configstore4V1_122ISurfaceFlingerConfigs10getServiceERKNSt3__112basic_stringIcNS4_11char_traitsIcEENS4_9allocatorIcEEEEb"
  },
  {
   "name":"_ZN7android8hardware11configstore4V1_122ISurfaceFlingerConfigs11linkToDeathERKNS_2spINS0_20hidl_death_recipientEEEm"
  },
  {
   "name":"_ZN7android8hardware11configstore4V1_122ISurfaceFlingerConfigs12getDebugInfoENSt3__18functionIFvRKNS_4hidl4base4V1_09DebugInfoEEEE"
  },
  {
   "name":"_ZN7android8hardware11configstore4V1_122ISurfaceFlingerConfigs12getHashChainENSt3__18functionIFvRKNS0_8hidl_vecINS0_10hidl_arrayIhLm32EJEEEEEEEE"
  },
  {
   "name":"_ZN7android8hardware11configstore4V1_122ISurfaceFlingerConfigs13tryGetServiceERKNSt3__112basic_stringIcNS4_11char_traitsIcEENS4_9allocatorIcEEEEb"
  },
  {
   "name":"_ZN7android8hardware11configstore4V1_122ISurfaceFlingerConfigs13unlinkToDeathERKNS_2spINS0_20hidl_death_recipientEEE"
  },
  {
   "name":"_ZN7android8hardware11configstore4V1_122ISurfaceFlingerConfigs14interfaceChainENSt3__18functionIFvRKNS0_8hidl_vecINS0_11hidl_stringEEEEEE"
  },
  {
   "name":"_ZN7android8hardware11configstore4V1_122ISurfaceFlingerConfigs17registerAsServiceERKNSt3__112basic_stringIcNS4_11char_traitsIcEENS4_9allocatorIcEEEE"
  },
  {
   "name":"_ZN7android8hardware11configstore4V1_122ISurfaceFlingerConfigs19interfaceDescriptorENSt3__18functionIFvRKNS0_11hidl_stringEEEE"
  },
  {
   "name":"_ZN7android8hardware11configstore4V1_122ISurfaceFlingerConfigs21notifySyspropsChangedEv"
  },
  {
   "name":"_ZN7android8hardware11configstore4V1_122ISurfaceFlingerConfigs21setHALInstrumentationEv"
  },
  {
   "name":"_ZN7android8hardware11configstore4V1_122ISurfaceFlingerConfigs24registerForNotificationsERKNSt3__112basic_stringIcNS4_11char_traitsIcEENS4_9allocatorIcEEEERKNS_2spINS_4hidl7manager4V1_020IServiceNotificationEEE"
  },
  {
   "name":"_ZN7android8hardware11configstore4V1_122ISurfaceFlingerConfigs4pingEv"
  },
  {
   "name":"_ZN7android8hardware11configstore4V1_122ISurfaceFlingerConfigs5debugERKNS0_11hidl_handleERKNS0_8hidl_vecINS0_11hidl_stringEEE"
  },
  {
   "name":"_ZN7android8hardware11configstore4V1_122ISurfaceFlingerConfigs8castFromERKNS_2spINS1_4V1_022ISurfaceFlingerConfigsEEEb"
  },
  {
   "name":"_ZN7android8hardware11configstore4V1_122ISurfaceFlingerConfigs8castFromERKNS_2spINS_4hidl4base4V1_05IBaseEEEb"
  },
  {
   "name":"_ZN7android8hardware11configstore4V1_122ISurfaceFlingerConfigs8castFromERKNS_2spIS3_EEb"
  },
  {
   "name":"_ZN7android8hardware11configstore4V1_123BsSurfaceFlingerConfigs13addOnewayTaskENSt3__18functionIFvvEEE"
  },
  {
   "name":"_ZN7android8hardware11configstore4V1_123BsSurfaceFlingerConfigsC1ENS_2spINS2_22ISurfaceFlingerConfigsEEE"
  },
  {
   "name":"_ZN7android8hardware11configstore4V1_123BsSurfaceFlingerConfigsC2ENS_2spINS2_22ISurfaceFlingerConfigsEEE"
  },
  {
   "name":"_ZN7android8hardware11configstore4V1_125BnHwSurfaceFlingerConfigs10onTransactEjRKNS0_6ParcelEPS4_jNSt3__18functionIFvRS4_EEE"
  },
  {
   "name":"_ZN7android8hardware11configstore4V1_125BnHwSurfaceFlingerConfigs12getDebugInfoENSt3__18functionIFvRKNS_4hidl4base4V1_09DebugInfoEEEE"
  },
  {
   "name":"_ZN7android8hardware11configstore4V1_125BnHwSurfaceFlingerConfigs31_hidl_primaryDisplayOrientationEPNS_4hidl4base4V1_08BnHwBaseERKNS0_6ParcelEPS9_NSt3__18functionIFvRS9_EEE"
  },
  {
   "name":"_ZN7android8hardware11configstore4V1_125BnHwSurfaceFlingerConfigs4pingEv"
  },
  {
   "name":"_ZN7android8hardware11configstore4V1_125BnHwSurfaceFlingerConfigsC1ERKNS_2spINS2_22ISurfaceFlingerConfigsEEE"
  },
  {
   "name":"_ZN7android8hardware11configstore4V1_125BnHwSurfaceFlingerConfigsC2ERKNS_2spINS2_22ISurfaceFlingerConfigsEEE"
  },
  {
   "name":"_ZN7android8hardware11configstore4V1_125BnHwSurfaceFlingerConfigsD0Ev"
  },
  {
   "name":"_ZN7android8hardware11configstore4V1_125BnHwSurfaceFlingerConfigsD1Ev"
  },
  {
   "name":"_ZN7android8hardware11configstore4V1_125BnHwSurfaceFlingerConfigsD2Ev"
  },
  {
   "name":"_ZN7android8hardware11configstore4V1_125BpHwSurfaceFlingerConfigs11linkToDeathERKNS_2spINS0_20hidl_death_recipientEEEm"
  },
  {
   "name":"_ZN7android8hardware11configstore4V1_125BpHwSurfaceFlingerConfigs12getDebugInfoENSt3__18functionIFvRKNS_4hidl4base4V1_09DebugInfoEEEE"
  },
  {
   "name":"_ZN7android8hardware11configstore4V1_125BpHwSurfaceFlingerConfigs12getHashChainENSt3__18functionIFvRKNS0_8hidl_vecINS0_10hidl_arrayIhLm32EJEEEEEEEE"
  },
  {
   "name":"_ZN7android8hardware11configstore4V1_125BpHwSurfaceFlingerConfigs12useVrFlingerENSt3__18functionIFvRKNS1_4V1_012OptionalBoolEEEE"
  },
  {
   "name":"_ZN7android8hardware11configstore4V1_125BpHwSurfaceFlingerConfigs13hasHDRDisplayENSt3__18functionIFvRKNS1_4V1_012OptionalBoolEEEE"
  },
  {
   "name":"_ZN7android8hardware11configstore4V1_125BpHwSurfaceFlingerConfigs13unlinkToDeathERKNS_2spINS0_20hidl_death_recipientEEE"
  },
  {
   "name":"_ZN7android8hardware11configstore4V1_125BpHwSurfaceFlingerConfigs14interfaceChainENSt3__18functionIFvRKNS0_8hidl_vecINS0_11hidl_stringEEEEEE"
  },
  {
   "name":"_ZN7android8hardware11configstore4V1_125BpHwSurfaceFlingerConfigs16hasSyncFrameworkENSt3__18functionIFvRKNS1_4V1_012OptionalBoolEEEE"
  },
  {
   "name":"_ZN7android8hardware11configstore4V1_125BpHwSurfaceFlingerConfigs17useHwcForRGBtoYUVENSt3__18functionIFvRKNS1_4V1_012OptionalBoolEEEE"
  },
  {
   "name":"_ZN7android8hardware11configstore4V1_125BpHwSurfaceFlingerConfigs18useContextPriorityENSt3__18functionIFvRKNS1_4V1_012OptionalBoolEEEE"
  },
  {
   "name":"_ZN7android8hardware11configstore4V1_125BpHwSurfaceFlingerConfigs19hasWideColorDisplayENSt3__18functionIFvRKNS1_4V1_012OptionalBoolEEEE"
  },
  {
   "name":"_ZN7android8hardware11configstore4V1_125BpHwSurfaceFlingerConfigs19interfaceDescriptorENSt3__18functionIFvRKNS0_11hidl_stringEEEE"
  },
  {
   "name":"_ZN7android8hardware11configstore4V1_125BpHwSurfaceFlingerConfigs21maxVirtualDisplaySizeENSt3__18functionIFvRKNS1_4V1_014OptionalUInt64EEEE"
  },
  {
   "name":"_ZN7android8hardware11configstore4V1_125BpHwSurfaceFlingerConfigs21notifySyspropsChangedEv"
  },
  {
   "name":"_ZN7android8hardware11configstore4V1_125BpHwSurfaceFlingerConfigs21setHALInstrumentationEv"
  },
  {
   "name":"_ZN7android8hardware11configstore4V1_125BpHwSurfaceFlingerConfigs23vsyncEventPhaseOffsetNsENSt3__18functionIFvRKNS1_4V1_013OptionalInt64EEEE"
  },
  {
   "name":"_ZN7android8hardware11configstore4V1_125BpHwSurfaceFlingerConfigs25primaryDisplayOrientationENSt3__18functionIFvRKNS2_26OptionalDisplayOrientationEEEE"
  },
  {
   "name":"_ZN7android8hardware11configstore4V1_125BpHwSurfaceFlingerConfigs25vsyncSfEventPhaseOffsetNsENSt3__18functionIFvRKNS1_4V1_013OptionalInt64EEEE"
  },
  {
   "name":"_ZN7android8hardware11configstore4V1_125BpHwSurfaceFlingerConfigs28presentTimeOffsetFromVSyncNsENSt3__18functionIFvRKNS1_4V1_013OptionalInt64EEEE"
  },
  {
   "name":"_ZN7android8hardware11configstore4V1_125BpHwSurfaceFlingerConfigs29maxFrameBufferAcquiredBuffersENSt3__18functionIFvRKNS1_4V1_013OptionalInt64EEEE"
  },
  {
   "name":"_ZN7android8hardware11configstore4V1_125BpHwSurfaceFlingerConfigs29startGraphicsAllocatorServiceENSt3__18functionIFvRKNS1_4V1_012OptionalBoolEEEE"
  },
  {
   "name":"_ZN7android8hardware11configstore4V1_125BpHwSurfaceFlingerConfigs31_hidl_primaryDisplayOrientationEPNS0_10IInterfaceEPNS0_7details16HidlInstrumentorENSt3__18functionIFvRKNS2_26OptionalDisplayOrientationEEEE"
  },
  {
   "name":"_ZN7android8hardware11configstore4V1_125BpHwSurfaceFlingerConfigs4pingEv"
  },
  {
   "name":"_ZN7android8hardware11configstore4V1_125BpHwSurfaceFlingerConfigs5debugERKNS0_11hidl_handleERKNS0_8hidl_vecINS0_11hidl_stringEEE"
  },
  {
   "name":"_ZN7android8hardware11configstore4V1_125BpHwSurfaceFlingerConfigsC1ERKNS_2spINS0_7IBinderEEE"
  },
  {
   "name":"_ZN7android8hardware11configstore4V1_125BpHwSurfaceFlingerConfigsC2ERKNS_2spINS0_7IBinderEEE"
  },
  {
   "binding":"weak",
   "name":"_ZN7android8hardware7details13castInterfaceINS0_11configstore4V1_122ISurfaceFlingerConfigsENS3_4V1_022ISurfaceFlingerConfigsENS4_25BpHwSurfaceFlingerConfigsEEENS0_6ReturnINS_2spIT_EEEENSA_IT0_EEPKcb"
  },
  {
   "binding":"weak",
   "name":"_ZN7android8hardware7details13castInterfaceINS0_11configstore4V1_122ISurfaceFlingerConfigsENS_4hidl4base4V1_05IBaseENS4_25BpHwSurfaceFlingerConfigsEEENS0_6ReturnINS_2spIT_EEEENSC_IT0_EEPKcb"
  },
  {
   "binding":"weak",
   "name":"_ZN7android8hardware7details18getServiceInternalINS0_11configstore4V1_125BpHwSurfaceFlingerConfigsENS4_22ISurfaceFlingerConfigsEvvEENS_2spIT0_EERKNSt3__112basic_stringIcNSA_11char_traitsIcEENSA_9allocatorIcEEEEbb"
  },
  {
   "binding":"weak",
   "name":"_ZN7android8hardware8toBinderINS0_11configstore4V1_022ISurfaceFlingerConfigsEvEENS_2spINS0_7IBinderEEENS5_IT_EE"
  },
  {
   "binding":"weak",
   "name":"_ZN7android8hardware8toBinderINS_4hidl4base4V1_05IBaseEvEENS_2spINS0_7IBinderEEENS6_IT_EE"
  },
  {
   "name":"_ZThn32_N7android8hardware11configstore4V1_125BnHwSurfaceFlingerConfigsD0Ev"
  },
  {
   "name":"_ZThn32_N7android8hardware11configstore4V1_125BnHwSurfaceFlingerConfigsD1Ev"
  },
  {
   "name":"_ZTv0_n24_N7android8hardware11configstore4V1_125BnHwSurfaceFlingerConfigsD0Ev"
  },
  {
   "name":"_ZTv0_n24_N7android8hardware11configstore4V1_125BnHwSurfaceFlingerConfigsD1Ev"
  }
 ],
 "elf_objects":[
  {
   "name":"_ZN7android8hardware11configstore4V1_122ISurfaceFlingerConfigs10descriptorE"
  },
  {
   "name":"_ZTTN7android8hardware11configstore4V1_122ISurfaceFlingerConfigsE"
  },
  {
   "name":"_ZTTN7android8hardware11configstore4V1_125BnHwSurfaceFlingerConfigsE"
  },
  {
   "name":"_ZTTN7android8hardware11configstore4V1_125BpHwSurfaceFlingerConfigsE"
  },
  {
   "name":"_ZTVN7android8hardware11configstore4V1_122ISurfaceFlingerConfigsE"
  },
  {
   "binding":"weak",
   "name":"_ZTVN7android8hardware11configstore4V1_123BsSurfaceFlingerConfigsE"
  },
  {
   "name":"_ZTVN7android8hardware11configstore4V1_125BnHwSurfaceFlingerConfigsE"
  },
  {
   "name":"_ZTVN7android8hardware11configstore4V1_125BpHwSurfaceFlingerConfigsE"
  }
 ]
}