{
 "record_types":[
  {
   "vtable_components":[
    {
     "kind":"vbase_offset",
     "component_value":136
    },
    {
     "kind":"offset_to_top"
    },
    {
     "kind":"rtti",
     "mangled_component_name":"_ZTIN7android8hardware5radio4V1_29BnHwRadioE"
    },
    {
     "mangled_component_name":"_ZN7android8hardware9BHwBinder8transactEjRKNS0_6ParcelEPS2_jNSt3__18functionIFvRS2_EEE"
    },
    {
     "mangled_component_name":"_ZN7android8hardware9BHwBinder11linkToDeathERKNS_2spINS0_7IBinder14DeathRecipientEEEPvj"
    },
    {
     "mangled_component_name":"_ZN7android8hardware9BHwBinder13unlinkToDeathERKNS_2wpINS0_7IBinder14DeathRecipientEEEPvjPS5_"
    },
    {
     "mangled_component_name":"_ZNK7android8hardware7IBinder13checkSubclassEPKv"
    },
    {
     "mangled_component_name":"_ZN7android8hardware9BHwBinder12attachObjectEPKvPvS4_PFvS3_S4_S4_E"
    },
    {
     "mangled_component_name":"_ZNK7android8hardware9BHwBinder10findObjectEPKv"
    },
    {
     "mangled_component_name":"_ZN7android8hardware9BHwBinder12detachObjectEPKv"
    },
    {
     "mangled_component_name":"_ZN7android8hardware9BHwBinder11localBinderEv"
    },
    {
     "mangled_component_name":"_ZN7android8hardware7IBinder12remoteBinderEv"
    },
    {
     "kind":"complete_dtor_pointer",
     "mangled_component_name":"_ZN7android8hardware5radio4V1_29BnHwRadioD1Ev"
    },
    {
     "kind":"deleting_dtor_pointer",
     "mangled_component_name":"_ZN7android8hardware5radio4V1_29BnHwRadioD0Ev"
    },
    {
     "mangled_component_name":"_ZN7android8hardware5radio4V1_29BnHwRadio10onTransactEjRKNS0_6ParcelEPS4_jNSt3__18functionIFvRS4_EEE"
    },
    {
     "kind":"offset_to_top",
     "component_value":-32
    },
    {
     "kind":"rtti",
     "mangled_component_name":"_ZTIN7android8hardware5radio4V1_29BnHwRadioE"
    },
    {
     "kind":"complete_dtor_pointer",
     "mangled_component_name":"_ZThn32_N7android8hardware5radio4V1_29BnHwRadioD1Ev"
    },
    {
     "kind":"deleting_dtor_pointer",
     "mangled_component_name":"_ZThn32_N7android8hardware5radio4V1_29BnHwRadioD0Ev"
    },
    {
     "kind":"vcall_offset"
    },
    {
     "kind":"vcall_offset"
    },
    {
     "kind":"vcall_offset"
    },
    {
     "kind":"vcall_offset"
    },
    {
     "kind":"vcall_offset",
     "component_value":-136
    },
    {
     "kind":"offset_to_top",
     "component_value":-136
    },
    {
     "kind":"rtti",
     "mangled_component_name":"_ZTIN7android8hardware5radio4V1_29BnHwRadioE"
    },
    {
     "kind":"complete_dtor_pointer",
     "mangled_component_name":"_ZTv0_n24_N7android8hardware5radio4V1_29BnHwRadioD1Ev"
    },
    {
     "kind":"deleting_dtor_pointer",
     "mangled_component_name":"_ZTv0_n24_N7android8hardware5radio4V1_29BnHwRadioD0Ev"
    },
    {
     "mangled_component_name":"_ZN7android7RefBase10onFirstRefEv"
    },
    {
     "mangled_component_name":"_ZN7android7RefBase15onLastStrongRefEPKv"
    },
    {
     "mangled_component_name":"_ZN7android7RefBase20onIncStrongAttemptedEjPKv"
    },
    {
     "mangled_component_name":"_ZN7android7RefBase13onLastWeakRefEPKv"
    }
   ],
   "unique_id":"_ZTSN7android8hardware5radio4V1_29BnHwRadioE"
  },
  {
   "vtable_components":[
    {
     "kind":"vbase_offset",
     "component_value":120
    },
    {
     "kind":"offset_to_top"
    },
    {
     "kind":"rtti",
     "mangled_component_name":"_ZTIN7android8hardware5radio4V1_27BsRadioE"
    },
    {
     "mangled_component_name":"_ZNK7android8hardware5radio4V1_26IRadio8isRemoteEv"
    },
    {
     "mangled_component_name":"_ZN7android8hardware5radio4V1_27BsRadio14interfaceChainENSt3__18functionIFvRKNS0_8hidl_vecINS0_11hidl_stringEEEEEE"
    },
    {
     "mangled_component_name":"_ZN7android8hardware5radio4V1_27BsRadio5debugERKNS0_11hidl_handleERKNS0_8hidl_vecINS0_11hidl_stringEEE"
    },
    {
     "mangled_component_name":"_ZN7android8hardware5radio4V1_27BsRadio19interfaceDescriptorENSt3__18functionIFvRKNS0_11hidl_stringEEEE"
    },
    {
     "mangled_component_name":"_ZN7android8hardware5radio4V1_27BsRadio12getHashChainENSt3__18functionIFvRKNS0_8hidl_vecINS0_10hidl_arrayIhLm32EJEEEEEEEE"
    },
    {
     "mangled_component_name":"_ZN7android8hardware5radio4V1_27BsRadio21setHALInstrumentationEv"
    },
    {
     "mangled_component_name":"_ZN7android8hardware5radio4V1_27BsRadio11linkToDeathERKNS_2spINS0_20hidl_death_recipientEEEm"
    },
    {
     "mangled_component_name":"_ZN7android8hardware5radio4V1_27BsRadio4pingEv"
    },
    {
     "mangled_component_name":"_ZN7android8hardware5radio4V1_27BsRadio12getDebugInfoENSt3__18functionIFvRKNS_4hidl4base4V1_09DebugInfoEEEE"
    },
    {
     "mangled_component_name":"_ZN7android8hardware5radio4V1_27BsRadio21notifySyspropsChangedEv"
    },
    {
     "mangled_component_name":"_ZN7android8hardware5radio4V1_27BsRadio13unlinkToDeathERKNS_2spINS0_20hidl_death_recipientEEE"
    },
    {
     "kind":"complete_dtor_pointer",
     "mangled_component_name":"_ZN7android8hardware5radio4V1_27BsRadioD1Ev"
    },
    {
     "kind":"deleting_dtor_pointer",
     "mangled_component_name":"_ZN7android8hardware5radio4V1_27BsRadioD0Ev"
    },
    {
     "mangled_component_name":"_ZN7android8hardware5radio4V1_27BsRadio20setResponseFunctionsERKNS_2spINS1_4V1_014IRadioResponseEEERKNS4_INS5_16IRadioIndicationEEE"
    },
    {
     "mangled_component_name":"_ZN7android8hardware5radio4V1_27BsRadio16getIccCardStatusEi"
    },
    {
     "mangled_component_name":"_ZN7android8hardware5radio4V1_27BsRadio18supplyIccPinForAppEiRKNS0_11hidl_stringES6_"
    },
    {
     "mangled_component_name":"_ZN7android8hardware5radio4V1_27BsRadio18supplyIccPukForAppEiRKNS0_11hidl_stringES6_S6_"
    },
    {
     "mangled_component_name":"_ZN7android8hardware5radio4V1_27BsRadio19supplyIccPin2ForAppEiRKNS0_11hidl_stringES6_"
    },
    {
     "mangled_component_name":"_ZN7android8hardware5radio4V1_27BsRadio19supplyIccPuk2ForAppEiRKNS0_11hidl_stringES6_S6_"
    },
    {
     "mangled_component_name":"_ZN7android8hardware5radio4V1_27BsRadio18changeIccPinForAppEiRKNS0_11hidl_stringES6_S6_"
    },
    {
     "mangled_component_name":"_ZN7android8hardware5radio4V1_27BsRadio19changeIccPin2ForAppEiRKNS0_11hidl_stringES6_S6_"
    },
    {
     "mangled_component_name":"_ZN7android8hardware5radio4V1_27BsRadio30supplyNetworkDepersonalizationEiRKNS0_11hidl_stringE"
    },
    {
     "mangled_component_name":"_ZN7android8hardware5radio4V1_27BsRadio15getCurrentCallsEi"
    },
    {
     "mangled_component_name":"_ZN7android8hardware5radio4V1_27BsRadio4dialEiRKNS1_4V1_04DialE"
    },
    {
     "mangled_component_name":"_ZN7android8hardware5radio4V1_27BsRadio13getImsiForAppEiRKNS0_11hidl_stringE"
    },
    {
     "mangled_component_name":"_ZN7android8hardware5radio4V1_27BsRadio6hangupEii"
    },
    {
     "mangled_component_name":"_ZN7android8hardware5radio4V1_27BsRadio25hangupWaitingOrBackgroundEi"
    },
    {
     "mangled_component_name":"_ZN7android8hardware5radio4V1_27BsRadio32hangupForegroundResumeBackgroundEi"
    },
    {
     "mangled_component_name":"_ZN7android8hardware5radio4V1_27BsRadio31switchWaitingOrHoldingAndActiveEi"
    },
    {
     "mangled_component_name":"_ZN7android8hardware5radio4V1_27BsRadio10conferenceEi"
    },
    {
     "mangled_component_name":"_ZN7android8hardware5radio4V1_27BsRadio10rejectCallEi"
    },
    {
     "mangled_component_name":"_ZN7android8hardware5radio4V1_27BsRadio20getLastCallFailCauseEi"
    },
    {
     "mangled_component_name":"_ZN7android8hardware5radio4V1_27BsRadio17getSignalStrengthEi"
    },
    {
     "mangled_component_name":"_ZN7android8hardware5radio4V1_27BsRadio25getVoiceRegistrationStateEi"
    },
    {
     "mangled_component_name":"_ZN7android8hardware5radio4V1_27BsRadio24getDataRegistrationStateEi"
    },
    {
     "mangled_component_name":"_ZN7android8hardware5radio4V1_27BsRadio11getOperatorEi"
    },
    {
     "mangled_component_name":"_ZN7android8hardware5radio4V1_27BsRadio13setRadioPowerEib"
    },
    {
     "mangled_component_name":"_ZN7android8hardware5radio4V1_27BsRadio8sendDtmfEiRKNS0_11hidl_stringE"
    },
    {
     "mangled_component_name":"_ZN7android8hardware5radio4V1_27BsRadio7sendSmsEiRKNS1_4V1_013GsmSmsMessageE"
    },
    {
     "mangled_component_name":"_ZN7android8hardware5radio4V1_27BsRadio17sendSMSExpectMoreEiRKNS1_4V1_013GsmSmsMessageE"
    },
    {
     "mangled_component_name":"_ZN7android8hardware5radio4V1_27BsRadio13setupDataCallEiNS1_4V1_015RadioTechnologyERKNS4_15DataProfileInfoEbbb"
    },
    {
     "mangled_component_name":"_ZN7android8hardware5radio4V1_27BsRadio11iccIOForAppEiRKNS1_4V1_05IccIoE"
    },
    {
     "mangled_component_name":"_ZN7android8hardware5radio4V1_27BsRadio8sendUssdEiRKNS0_11hidl_stringE"
    },
    {
     "mangled_component_name":"_ZN7android8hardware5radio4V1_27BsRadio17cancelPendingUssdEi"
    },
    {
     "mangled_component_name":"_ZN7android8hardware5radio4V1_27BsRadio7getClirEi"
    },
    {
     "mangled_component_name":"_ZN7android8hardware5radio4V1_27BsRadio7setClirEii"
    },
    {
     "mangled_component_name":"_ZN7android8hardware5radio4V1_27BsRadio20getCallForwardStatusEiRKNS1_4V1_015CallForwardInfoE"
    },
    {
     "mangled_component_name":"_ZN7android8hardware5radio4V1_27BsRadio14setCallForwardEiRKNS1_4V1_015CallForwardInfoE"
    },
    {
     "mangled_component_name":"_ZN7android8hardware5radio4V1_27BsRadio14getCallWaitingEii"
    },
    {
     "mangled_component_name":"_ZN7android8hardware5radio4V1_27BsRadio14setCallWaitingEibi"
    },
    {
     "mangled_component_name":"_ZN7android8hardware5radio4V1_27BsRadio29acknowledgeLastIncomingGsmSmsEibNS1_4V1_023SmsAcknowledgeFailCauseE"
    },
    {
     "mangled_component_name":"_ZN7android8hardware5radio4V1_27BsRadio10acceptCallEi"
    },
    {
     "mangled_component_name":"_ZN7android8hardware5radio4V1_27BsRadio18deactivateDataCallEiib"
    },
    {
     "mangled_component_name":"_ZN7android8hardware5radio4V1_27BsRadio21getFacilityLockForAppEiRKNS0_11hidl_stringES6_iS6_"
    },
    {
     "mangled_component_name":"_ZN7android8hardware5radio4V1_27BsRadio21setFacilityLockForAppEiRKNS0_11hidl_stringEbS6_iS6_"
    },
    {
     "mangled_component_name":"_ZN7android8hardware5radio4V1_27BsRadio18setBarringPasswordEiRKNS0_11hidl_stringES6_S6_"
    },
    {
     "mangled_component_name":"_ZN7android8hardware5radio4V1_27BsRadio23getNetworkSelectionModeEi"
    },
    {
     "mangled_component_name":"_ZN7android8hardware5radio4V1_27BsRadio32setNetworkSelectionModeAutomaticEi"
    },
    {
     "mangled_component_name":"_ZN7android8hardware5radio4V1_27BsRadio29setNetworkSelectionModeManualEiRKNS0_11hidl_stringE"
    },
    {
     "mangled_component_name":"_ZN7android8hardware5radio4V1_27BsRadio20getAvailableNetworksEi"
    },
    {
     "mangled_component_name":"_ZN7android8hardware5radio4V1_27BsRadio9startDtmfEiRKNS0_11hidl_stringE"
    },
    {
     "mangled_component_name":"_ZN7android8hardware5radio4V1_27BsRadio8stopDtmfEi"
    },
    {
     "mangled_component_name":"_ZN7android8hardware5radio4V1_27BsRadio18getBasebandVersionEi"
    },
    {
     "mangled_component_name":"_ZN7android8hardware5radio4V1_27BsRadio18separateConnectionEii"
    },
    {
     "mangled_component_name":"_ZN7android8hardware5radio4V1_27BsRadio7setMuteEib"
    },
    {
     "mangled_component_name":"_ZN7android8hardware5radio4V1_27BsRadio7getMuteEi"
    },
    {
     "mangled_component_name":"_ZN7android8hardware5radio4V1_27BsRadio7getClipEi"
    },
    {
     "mangled_component_name":"_ZN7android8hardware5radio4V1_27BsRadio15getDataCallListEi"
    },
    {
     "mangled_component_name":"_ZN7android8hardware5radio4V1_27BsRadio27setSuppServiceNotificationsEib"
    },
    {
     "mangled_component_name":"_ZN7android8hardware5radio4V1_27BsRadio13writeSmsToSimEiRKNS1_4V1_012SmsWriteArgsE"
    },
    {
     "mangled_component_name":"_ZN7android8hardware5radio4V1_27BsRadio14deleteSmsOnSimEii"
    },
    {
     "mangled_component_name":"_ZN7android8hardware5radio4V1_27BsRadio11setBandModeEiNS1_4V1_013RadioBandModeE"
    },
    {
     "mangled_component_name":"_ZN7android8hardware5radio4V1_27BsRadio21getAvailableBandModesEi"
    },
    {
     "mangled_component_name":"_ZN7android8hardware5radio4V1_27BsRadio12sendEnvelopeEiRKNS0_11hidl_stringE"
    },
    {
     "mangled_component_name":"_ZN7android8hardware5radio4V1_27BsRadio25sendTerminalResponseToSimEiRKNS0_11hidl_stringE"
    },
    {
     "mangled_component_name":"_ZN7android8hardware5radio4V1_27BsRadio32handleStkCallSetupRequestFromSimEib"
    },
    {
     "mangled_component_name":"_ZN7android8hardware5radio4V1_27BsRadio20explicitCallTransferEi"
    },
    {
     "mangled_component_name":"_ZN7android8hardware5radio4V1_27BsRadio23setPreferredNetworkTypeEiNS1_4V1_020PreferredNetworkTypeE"
    },
    {
     "mangled_component_name":"_ZN7android8hardware5radio4V1_27BsRadio23getPreferredNetworkTypeEi"
    },
    {
     "mangled_component_name":"_ZN7android8hardware5radio4V1_27BsRadio18getNeighboringCidsEi"
    },
    {
     "mangled_component_name":"_ZN7android8hardware5radio4V1_27BsRadio18setLocationUpdatesEib"
    },
    {
     "mangled_component_name":"_ZN7android8hardware5radio4V1_27BsRadio25setCdmaSubscriptionSourceEiNS1_4V1_022CdmaSubscriptionSourceE"
    },
    {
     "mangled_component_name":"_ZN7android8hardware5radio4V1_27BsRadio24setCdmaRoamingPreferenceEiNS1_4V1_015CdmaRoamingTypeE"
    },
    {
     "mangled_component_name":"_ZN7android8hardware5radio4V1_27BsRadio24getCdmaRoamingPreferenceEi"
    },
    {
     "mangled_component_name":"_ZN7android8hardware5radio4V1_27BsRadio10setTTYModeEiNS1_4V1_07TtyModeE"
    },
    {
     "mangled_component_name":"_ZN7android8hardware5radio4V1_27BsRadio10getTTYModeEi"
    },
    {
     "mangled_component_name":"_ZN7android8hardware5radio4V1_27BsRadio24setPreferredVoicePrivacyEib"
    },
    {
     "mangled_component_name":"_ZN7android8hardware5radio4V1_27BsRadio24getPreferredVoicePrivacyEi"
    },
    {
     "mangled_component_name":"_ZN7android8hardware5radio4V1_27BsRadio19sendCDMAFeatureCodeEiRKNS0_11hidl_stringE"
    },
    {
     "mangled_component_name":"_ZN7android8hardware5radio4V1_27BsRadio13sendBurstDtmfEiRKNS0_11hidl_stringEii"
    },
    {
     "mangled_component_name":"_ZN7android8hardware5radio4V1_27BsRadio11sendCdmaSmsEiRKNS1_4V1_014CdmaSmsMessageE"
    },
    {
     "mangled_component_name":"_ZN7android8hardware5radio4V1_27BsRadio30acknowledgeLastIncomingCdmaSmsEiRKNS1_4V1_010CdmaSmsAckE"
    },
    {
     "mangled_component_name":"_ZN7android8hardware5radio4V1_27BsRadio21getGsmBroadcastConfigEi"
    },
    {
     "mangled_component_name":"_ZN7android8hardware5radio4V1_27BsRadio21setGsmBroadcastConfigEiRKNS0_8hidl_vecINS1_4V1_025GsmBroadcastSmsConfigInfoEEE"
    },
    {
     "mangled_component_name":"_ZN7android8hardware5radio4V1_27BsRadio25setGsmBroadcastActivationEib"
    },
    {
     "mangled_component_name":"_ZN7android8hardware5radio4V1_27BsRadio22getCdmaBroadcastConfigEi"
    },
    {
     "mangled_component_name":"_ZN7android8hardware5radio4V1_27BsRadio22setCdmaBroadcastConfigEiRKNS0_8hidl_vecINS1_4V1_026CdmaBroadcastSmsConfigInfoEEE"
    },
    {
     "mangled_component_name":"_ZN7android8hardware5radio4V1_27BsRadio26setCdmaBroadcastActivationEib"
    },
    {
     "mangled_component_name":"_ZN7android8hardware5radio4V1_27BsRadio19getCDMASubscriptionEi"
    },
    {
     "mangled_component_name":"_ZN7android8hardware5radio4V1_27BsRadio14writeSmsToRuimEiRKNS1_4V1_016CdmaSmsWriteArgsE"
    },
    {
     "mangled_component_name":"_ZN7android8hardware5radio4V1_27BsRadio15deleteSmsOnRuimEii"
    },
    {
     "mangled_component_name":"_ZN7android8hardware5radio4V1_27BsRadio17getDeviceIdentityEi"
    },
    {
     "mangled_component_name":"_ZN7android8hardware5radio4V1_27BsRadio25exitEmergencyCallbackModeEi"
    },
    {
     "mangled_component_name":"_ZN7android8hardware5radio4V1_27BsRadio14getSmscAddressEi"
    },
    {
     "mangled_component_name":"_ZN7android8hardware5radio4V1_27BsRadio14setSmscAddressEiRKNS0_11hidl_stringE"
    },
    {
     "mangled_component_name":"_ZN7android8hardware5radio4V1_27BsRadio21reportSmsMemoryStatusEib"
    },
    {
     "mangled_component_name":"_ZN7android8hardware5radio4V1_27BsRadio25reportStkServiceIsRunningEi"
    },
    {
     "mangled_component_name":"_ZN7android8hardware5radio4V1_27BsRadio25getCdmaSubscriptionSourceEi"
    },
    {
     "mangled_component_name":"_ZN7android8hardware5radio4V1_27BsRadio25requestIsimAuthenticationEiRKNS0_11hidl_stringE"
    },
    {
     "mangled_component_name":"_ZN7android8hardware5radio4V1_27BsRadio32acknowledgeIncomingGsmSmsWithPduEibRKNS0_11hidl_stringE"
    },
    {
     "mangled_component_name":"_ZN7android8hardware5radio4V1_27BsRadio22sendEnvelopeWithStatusEiRKNS0_11hidl_stringE"
    },
    {
     "mangled_component_name":"_ZN7android8hardware5radio4V1_27BsRadio23getVoiceRadioTechnologyEi"
    },
    {
     "mangled_component_name":"_ZN7android8hardware5radio4V1_27BsRadio15getCellInfoListEi"
    },
    {
     "mangled_component_name":"_ZN7android8hardware5radio4V1_27BsRadio19setCellInfoListRateEii"
    },
    {
     "mangled_component_name":"_ZN7android8hardware5radio4V1_27BsRadio19setInitialAttachApnEiRKNS1_4V1_015DataProfileInfoEbb"
    },
    {
     "mangled_component_name":"_ZN7android8hardware5radio4V1_27BsRadio23getImsRegistrationStateEi"
    },
    {
     "mangled_component_name":"_ZN7android8hardware5radio4V1_27BsRadio10sendImsSmsEiRKNS1_4V1_013ImsSmsMessageE"
    },
    {
     "mangled_component_name":"_ZN7android8hardware5radio4V1_27BsRadio27iccTransmitApduBasicChannelEiRKNS1_4V1_07SimApduE"
    },
    {
     "mangled_component_name":"_ZN7android8hardware5radio4V1_27BsRadio21iccOpenLogicalChannelEiRKNS0_11hidl_stringEi"
    },
    {
     "mangled_component_name":"_ZN7android8hardware5radio4V1_27BsRadio22iccCloseLogicalChannelEii"
    },
    {
     "mangled_component_name":"_ZN7android8hardware5radio4V1_27BsRadio29iccTransmitApduLogicalChannelEiRKNS1_4V1_07SimApduE"
    },
    {
     "mangled_component_name":"_ZN7android8hardware5radio4V1_27BsRadio10nvReadItemEiNS1_4V1_06NvItemE"
    },
    {
     "mangled_component_name":"_ZN7android8hardware5radio4V1_27BsRadio11nvWriteItemEiRKNS1_4V1_011NvWriteItemE"
    },
    {
     "mangled_component_name":"_ZN7android8hardware5radio4V1_27BsRadio14nvWriteCdmaPrlEiRKNS0_8hidl_vecIhEE"
    },
    {
     "mangled_component_name":"_ZN7android8hardware5radio4V1_27BsRadio13nvResetConfigEiNS1_4V1_011ResetNvTypeE"
    },
    {
     "mangled_component_name":"_ZN7android8hardware5radio4V1_27BsRadio19setUiccSubscriptionEiRKNS1_4V1_013SelectUiccSubE"
    },
    {
     "mangled_component_name":"_ZN7android8hardware5radio4V1_27BsRadio14setDataAllowedEib"
    },
    {
     "mangled_component_name":"_ZN7android8hardware5radio4V1_27BsRadio17getHardwareConfigEi"
    },
    {
     "mangled_component_name":"_ZN7android8hardware5radio4V1_27BsRadio27requestIccSimAuthenticationEiiRKNS0_11hidl_stringES6_"
    },
    {
     "mangled_component_name":"_ZN7android8hardware5radio4V1_27BsRadio14setDataProfileEiRKNS0_8hidl_vecINS1_4V1_015DataProfileInfoEEEb"
    },
    {
     "mangled_component_name":"_ZN7android8hardware5radio4V1_27BsRadio15requestShutdownEi"
    },
    {
     "mangled_component_name":"_ZN7android8hardware5radio4V1_27BsRadio18getRadioCapabilityEi"
    },
    {
     "mangled_component_name":"_ZN7android8hardware5radio4V1_27BsRadio18setRadioCapabilityEiRKNS1_4V1_015RadioCapabilityE"
    },
    {
     "mangled_component_name":"_ZN7android8hardware5radio4V1_27BsRadio15startLceServiceEiib"
    },
    {
     "mangled_component_name":"_ZN7android8hardware5radio4V1_27BsRadio14stopLceServiceEi"
    },
    {
     "mangled_component_name":"_ZN7android8hardware5radio4V1_27BsRadio11pullLceDataEi"
    },
    {
     "mangled_component_name":"_ZN7android8hardware5radio4V1_27BsRadio20getModemActivityInfoEi"
    },
    {
     "mangled_component_name":"_ZN7android8hardware5radio4V1_27BsRadio18setAllowedCarriersEibRKNS1_4V1_019CarrierRestrictionsE"
    },
    {
     "mangled_component_name":"_ZN7android8hardware5radio4V1_27BsRadio18getAllowedCarriersEi"
    },
    {
     "mangled_component_name":"_ZN7android8hardware5radio4V1_27BsRadio15sendDeviceStateEiNS1_4V1_015DeviceStateTypeEb"
    },
    {
     "mangled_component_name":"_ZN7android8hardware5radio4V1_27BsRadio19setIndicationFilterEii"
    },
    {
     "mangled_component_name":"_ZN7android8hardware5radio4V1_27BsRadio15setSimCardPowerEib"
    },
    {
     "mangled_component_name":"_ZN7android8hardware5radio4V1_27BsRadio23responseAcknowledgementEv"
    },
    {
     "mangled_component_name":"_ZN7android8hardware5radio4V1_27BsRadio31setCarrierInfoForImsiEncryptionEiRKNS1_4V1_118ImsiEncryptionInfoE"
    },
    {
     "mangled_component_name":"_ZN7android8hardware5radio4V1_27BsRadio19setSimCardPower_1_1EiNS1_4V1_114CardPowerStateE"
    },
    {
     "mangled_component_name":"_ZN7android8hardware5radio4V1_27BsRadio16startNetworkScanEiRKNS1_4V1_118NetworkScanRequestE"
    },
    {
     "mangled_component_name":"_ZN7android8hardware5radio4V1_27BsRadio15stopNetworkScanEi"
    },
    {
     "mangled_component_name":"_ZN7android8hardware5radio4V1_27BsRadio14startKeepaliveEiRKNS1_4V1_116KeepaliveRequestE"
    },
    {
     "mangled_component_name":"_ZN7android8hardware5radio4V1_27BsRadio13stopKeepaliveEii"
    },
    {
     "mangled_component_name":"_ZN7android8hardware5radio4V1_27BsRadio20startNetworkScan_1_2EiRKNS2_18NetworkScanRequestE"
    },
    {
     "mangled_component_name":"_ZN7android8hardware5radio4V1_27BsRadio23setIndicationFilter_1_2Eii"
    },
    {
     "mangled_component_name":"_ZN7android8hardware5radio4V1_27BsRadio34setSignalStrengthReportingCriteriaEiiiRKNS0_8hidl_vecIiEENS2_13AccessNetworkE"
    },
    {
     "mangled_component_name":"_ZN7android8hardware5radio4V1_27BsRadio32setLinkCapacityReportingCriteriaEiiiiRKNS0_8hidl_vecIiEES7_NS2_13AccessNetworkE"
    },
    {
     "mangled_component_name":"_ZN7android8hardware5radio4V1_27BsRadio17setupDataCall_1_2EiNS2_13AccessNetworkERKNS1_4V1_015DataProfileInfoEbbbNS2_17DataRequestReasonERKNS0_8hidl_vecINS0_11hidl_stringEEESE_"
    },
    {
     "mangled_component_name":"_ZN7android8hardware5radio4V1_27BsRadio22deactivateDataCall_1_2EiiNS2_17DataRequestReasonE"
    },
    {
     "kind":"offset_to_top",
     "component_value":-8
    },
    {
     "kind":"rtti",
     "mangled_component_name":"_ZTIN7android8hardware5radio4V1_27BsRadioE"
    },
    {
     "kind":"complete_dtor_pointer",
     "mangled_component_name":"_ZThn8_N7android8hardware5radio4V1_27BsRadioD1Ev"
    },
    {
     "kind":"deleting_dtor_pointer",
     "mangled_component_name":"_ZThn8_N7android8hardware5radio4V1_27BsRadioD0Ev"
    },
    {
     "kind":"vcall_offset"
    },
    {
     "kind":"vcall_offset"
    },
    {
     "kind":"vcall_offset"
    },
    {
     "kind":"vcall_offset"
    },
    {
     "kind":"vcall_offset",
     "component_value":-120
    },
    {
     "kind":"offset_to_top",
     "component_value":-120
    },
    {
     "kind":"rtti",
     "mangled_component_name":"_ZTIN7android8hardware5radio4V1_27BsRadioE"
    },
    {
     "kind":"complete_dtor_pointer",
     "mangled_component_name":"_ZTv0_n24_N7android8hardware5radio4V1_27BsRadioD1Ev"
    },
    {
     "kind":"deleting_dtor_pointer",
     "mangled_component_name":"_ZTv0_n24_N7android8hardware5radio4V1_27BsRadioD0Ev"
    },
    {
     "mangled_component_name":"_ZN7android7RefBase10onFirstRefEv"
    },
    {
     "mangled_component_name":"_ZN7android7RefBase15onLastStrongRefEPKv"
    },
    {
     "mangled_component_name":"_ZN7android7RefBase20onIncStrongAttemptedEjPKv"
    },
    {
     "mangled_component_name":"_ZN7android7RefBase13onLastWeakRefEPKv"
    }
   ],
   "unique_id":"_ZTSN7android8hardware5radio4V1_27BsRadioE"
  },
  {
   "vtable_components":[
    {
     "kind":"vbase_offset",
     "component_value":8
    },
    {
     "kind":"offset_to_top"
    },
    {
     "kind":"rtti",
     "mangled_component_name":"_ZTIN7android8hardware5radio4V1_216IRadioIndicationE"
    },
    {
     "mangled_component_name":"_ZNK7android8hardware5radio4V1_216IRadioIndication8isRemoteEv"
    },
    {
     "mangled_component_name":"_ZN7android8hardware5radio4V1_216IRadioIndication14interfaceChainENSt3__18functionIFvRKNS0_8hidl_vecINS0_11hidl_stringEEEEEE"
    },
    {
     "mangled_component_name":"_ZN7android8hardware5radio4V1_216IRadioIndication5debugERKNS0_11hidl_handleERKNS0_8hidl_vecINS0_11hidl_stringEEE"
    },
    {
     "mangled_component_name":"_ZN7android8hardware5radio4V1_216IRadioIndication19interfaceDescriptorENSt3__18functionIFvRKNS0_11hidl_stringEEEE"
    },
    {
     "mangled_component_name":"_ZN7android8hardware5radio4V1_216IRadioIndication12getHashChainENSt3__18functionIFvRKNS0_8hidl_vecINS0_10hidl_arrayIhLm32EJEEEEEEEE"
    },
    {
     "mangled_component_name":"_ZN7android8hardware5radio4V1_216IRadioIndication21setHALInstrumentationEv"
    },
    {
     "mangled_component_name":"_ZN7android8hardware5radio4V1_216IRadioIndication11linkToDeathERKNS_2spINS0_20hidl_death_recipientEEEm"
    },
    {
     "mangled_component_name":"_ZN7android8hardware5radio4V1_216IRadioIndication4pingEv"
    },
    {
     "mangled_component_name":"_ZN7android8hardware5radio4V1_216IRadioIndication12getDebugInfoENSt3__18functionIFvRKNS_4hidl4base4V1_09DebugInfoEEEE"
    },
    {
     "mangled_component_name":"_ZN7android8hardware5radio4V1_216IRadioIndication21notifySyspropsChangedEv"
    },
    {
     "mangled_component_name":"_ZN7android8hardware5radio4V1_216IRadioIndication13unlinkToDeathERKNS_2spINS0_20hidl_death_recipientEEE"
    },
    {
     "kind":"complete_dtor_pointer",
     "mangled_component_name":"_ZN7android8hardware5radio4V1_216IRadioIndicationD1Ev"
    },
    {
     "kind":"deleting_dtor_pointer",
     "mangled_component_name":"_ZN7android8hardware5radio4V1_216IRadioIndicationD0Ev"
    },
    {
     "is_pure":true,
     "mangled_component_name":"_ZN7android8hardware5radio4V1_216IRadioIndication17radioStateChangedENS1_4V1_019RadioIndicationTypeENS4_10RadioStateE"
    },
    {
     "is_pure":true,
     "mangled_component_name":"_ZN7android8hardware5radio4V1_216IRadioIndication16callStateChangedENS1_4V1_019RadioIndicationTypeE"
    },
    {
     "is_pure":true,
     "mangled_component_name":"_ZN7android8hardware5radio4V1_216IRadioIndication19networkStateChangedENS1_4V1_019RadioIndicationTypeE"
    },
    {
     "is_pure":true,
     "mangled_component_name":"_ZN7android8hardware5radio4V1_216IRadioIndication6newSmsENS1_4V1_019RadioIndicationTypeERKNS0_8hidl_vecIhEE"
    },
    {
     "is_pure":true,
     "mangled_component_name":"_ZN7android8hardware5radio4V1_216IRadioIndication18newSmsStatusReportENS1_4V1_019RadioIndicationTypeERKNS0_8hidl_vecIhEE"
    },
    {
     "is_pure":true,
     "mangled_component_name":"_ZN7android8hardware5radio4V1_216IRadioIndication11newSmsOnSimENS1_4V1_019RadioIndicationTypeEi"
    },
    {
     "is_pure":true,
     "mangled_component_name":"_ZN7android8hardware5radio4V1_216IRadioIndication6onUssdENS1_4V1_019RadioIndicationTypeENS4_12UssdModeTypeERKNS0_11hidl_stringE"
    },
    {
     "is_pure":true,
     "mangled_component_name":"_ZN7android8hardware5radio4V1_216IRadioIndication16nitzTimeReceivedENS1_4V1_019RadioIndicationTypeERKNS0_11hidl_stringEm"
    },
    {
     "is_pure":true,
     "mangled_component_name":"_ZN7android8hardware5radio4V1_216IRadioIndication21currentSignalStrengthENS1_4V1_019RadioIndicationTypeERKNS4_14SignalStrengthE"
    },
    {
     "is_pure":true,
     "mangled_component_name":"_ZN7android8hardware5radio4V1_216IRadioIndication19dataCallListChangedENS1_4V1_019RadioIndicationTypeERKNS0_8hidl_vecINS4_19SetupDataCallResultEEE"
    },
    {
     "is_pure":true,
     "mangled_component_name":"_ZN7android8hardware5radio4V1_216IRadioIndication13suppSvcNotifyENS1_4V1_019RadioIndicationTypeERKNS4_19SuppSvcNotificationE"
    },
    {
     "is_pure":true,
     "mangled_component_name":"_ZN7android8hardware5radio4V1_216IRadioIndication13stkSessionEndENS1_4V1_019RadioIndicationTypeE"
    },
    {
     "is_pure":true,
     "mangled_component_name":"_ZN7android8hardware5radio4V1_216IRadioIndication19stkProactiveCommandENS1_4V1_019RadioIndicationTypeERKNS0_11hidl_stringE"
    },
    {
     "is_pure":true,
     "mangled_component_name":"_ZN7android8hardware5radio4V1_216IRadioIndication14stkEventNotifyENS1_4V1_019RadioIndicationTypeERKNS0_11hidl_stringE"
    },
    {
     "is_pure":true,
     "mangled_component_name":"_ZN7android8hardware5radio4V1_216IRadioIndication12stkCallSetupENS1_4V1_019RadioIndicationTypeEl"
    },
    {
     "is_pure":true,
     "mangled_component_name":"_ZN7android8hardware5radio4V1_216IRadioIndication17simSmsStorageFullENS1_4V1_019RadioIndicationTypeE"
    },
    {
     "is_pure":true,
     "mangled_component_name":"_ZN7android8hardware5radio4V1_216IRadioIndication10simRefreshENS1_4V1_019RadioIndicationTypeERKNS4_16SimRefreshResultE"
    },
    {
     "is_pure":true,
     "mangled_component_name":"_ZN7android8hardware5radio4V1_216IRadioIndication8callRingENS1_4V1_019RadioIndicationTypeEbRKNS4_20CdmaSignalInfoRecordE"
    },
    {
     "is_pure":true,
     "mangled_component_name":"_ZN7android8hardware5radio4V1_216IRadioIndication16simStatusChangedENS1_4V1_019RadioIndicationTypeE"
    },
    {
     "is_pure":true,
     "mangled_component_name":"_ZN7android8hardware5radio4V1_216IRadioIndication10cdmaNewSmsENS1_4V1_019RadioIndicationTypeERKNS4_14CdmaSmsMessageE"
    },
    {
     "is_pure":true,
     "mangled_component_name":"_ZN7android8hardware5radio4V1_216IRadioIndication15newBroadcastSmsENS1_4V1_019RadioIndicationTypeERKNS0_8hidl_vecIhEE"
    },
    {
     "is_pure":true,
     "mangled_component_name":"_ZN7android8hardware5radio4V1_216IRadioIndication22cdmaRuimSmsStorageFullENS1_4V1_019RadioIndicationTypeE"
    },
    {
     "is_pure":true,
     "mangled_component_name":"_ZN7android8hardware5radio4V1_216IRadioIndication22restrictedStateChangedENS1_4V1_019RadioIndicationTypeENS4_20PhoneRestrictedStateE"
    },
    {
     "is_pure":true,
     "mangled_component_name":"_ZN7android8hardware5radio4V1_216IRadioIndication26enterEmergencyCallbackModeENS1_4V1_019RadioIndicationTypeE"
    },
    {
     "is_pure":true,
     "mangled_component_name":"_ZN7android8hardware5radio4V1_216IRadioIndication15cdmaCallWaitingENS1_4V1_019RadioIndicationTypeERKNS4_15CdmaCallWaitingE"
    },
    {
     "is_pure":true,
     "mangled_component_name":"_ZN7android8hardware5radio4V1_216IRadioIndication22cdmaOtaProvisionStatusENS1_4V1_019RadioIndicationTypeENS4_22CdmaOtaProvisionStatusE"
    },
    {
     "is_pure":true,
     "mangled_component_name":"_ZN7android8hardware5radio4V1_216IRadioIndication11cdmaInfoRecENS1_4V1_019RadioIndicationTypeERKNS4_22CdmaInformationRecordsE"
    },
    {
     "is_pure":true,
     "mangled_component_name":"_ZN7android8hardware5radio4V1_216IRadioIndication20indicateRingbackToneENS1_4V1_019RadioIndicationTypeEb"
    },
    {
     "is_pure":true,
     "mangled_component_name":"_ZN7android8hardware5radio4V1_216IRadioIndication16resendIncallMuteENS1_4V1_019RadioIndicationTypeE"
    },
    {
     "is_pure":true,
     "mangled_component_name":"_ZN7android8hardware5radio4V1_216IRadioIndication29cdmaSubscriptionSourceChangedENS1_4V1_019RadioIndicationTypeENS4_22CdmaSubscriptionSourceE"
    },
    {
     "is_pure":true,
     "mangled_component_name":"_ZN7android8hardware5radio4V1_216IRadioIndication14cdmaPrlChangedENS1_4V1_019RadioIndicationTypeEi"
    },
    {
     "is_pure":true,
     "mangled_component_name":"_ZN7android8hardware5radio4V1_216IRadioIndication25exitEmergencyCallbackModeENS1_4V1_019RadioIndicationTypeE"
    },
    {
     "is_pure":true,
     "mangled_component_name":"_ZN7android8hardware5radio4V1_216IRadioIndication12rilConnectedENS1_4V1_019RadioIndicationTypeE"
    },
    {
     "is_pure":true,
     "mangled_component_name":"_ZN7android8hardware5radio4V1_216IRadioIndication21voiceRadioTechChangedENS1_4V1_019RadioIndicationTypeENS4_15RadioTechnologyE"
    },
    {
     "is_pure":true,
     "mangled_component_name":"_ZN7android8hardware5radio4V1_216IRadioIndication12cellInfoListENS1_4V1_019RadioIndicationTypeERKNS0_8hidl_vecINS4_8CellInfoEEE"
    },
    {
     "is_pure":true,
     "mangled_component_name":"_ZN7android8hardware5radio4V1_216IRadioIndication22imsNetworkStateChangedENS1_4V1_019RadioIndicationTypeE"
    },
    {
     "is_pure":true,
     "mangled_component_name":"_ZN7android8hardware5radio4V1_216IRadioIndication25subscriptionStatusChangedENS1_4V1_019RadioIndicationTypeEb"
    },
    {
     "is_pure":true,
     "mangled_component_name":"_ZN7android8hardware5radio4V1_216IRadioIndication16srvccStateNotifyENS1_4V1_019RadioIndicationTypeENS4_10SrvccStateE"
    },
    {
     "is_pure":true,
     "mangled_component_name":"_ZN7android8hardware5radio4V1_216IRadioIndication21hardwareConfigChangedENS1_4V1_019RadioIndicationTypeERKNS0_8hidl_vecINS4_14HardwareConfigEEE"
    },
    {
     "is_pure":true,
     "mangled_component_name":"_ZN7android8hardware5radio4V1_216IRadioIndication25radioCapabilityIndicationENS1_4V1_019RadioIndicationTypeERKNS4_15RadioCapabilityE"
    },
    {
     "is_pure":true,
     "mangled_component_name":"_ZN7android8hardware5radio4V1_216IRadioIndication32onSupplementaryServiceIndicationENS1_4V1_019RadioIndicationTypeERKNS4_18StkCcUnsolSsResultE"
    },
    {
     "is_pure":true,
     "mangled_component_name":"_ZN7android8hardware5radio4V1_216IRadioIndication25stkCallControlAlphaNotifyENS1_4V1_019RadioIndicationTypeERKNS0_11hidl_stringE"
    },
    {
     "is_pure":true,
     "mangled_component_name":"_ZN7android8hardware5radio4V1_216IRadioIndication7lceDataENS1_4V1_019RadioIndicationTypeERKNS4_11LceDataInfoE"
    },
    {
     "is_pure":true,
     "mangled_component_name":"_ZN7android8hardware5radio4V1_216IRadioIndication7pcoDataENS1_4V1_019RadioIndicationTypeERKNS4_11PcoDataInfoE"
    },
    {
     "is_pure":true,
     "mangled_component_name":"_ZN7android8hardware5radio4V1_216IRadioIndication10modemResetENS1_4V1_019RadioIndicationTypeERKNS0_11hidl_stringE"
    },
    {
     "is_pure":true,
     "mangled_component_name":"_ZN7android8hardware5radio4V1_216IRadioIndication28carrierInfoForImsiEncryptionENS1_4V1_019RadioIndicationTypeE"
    },
    {
     "is_pure":true,
     "mangled_component_name":"_ZN7android8hardware5radio4V1_216IRadioIndication17networkScanResultENS1_4V1_019RadioIndicationTypeERKNS1_4V1_117NetworkScanResultE"
    },
    {
     "is_pure":true,
     "mangled_component_name":"_ZN7android8hardware5radio4V1_216IRadioIndication15keepaliveStatusENS1_4V1_019RadioIndicationTypeERKNS1_4V1_115KeepaliveStatusE"
    },
    {
     "is_pure":true,
     "mangled_component_name":"_ZN7android8hardware5radio4V1_216IRadioIndication21networkScanResult_1_2ENS1_4V1_019RadioIndicationTypeERKNS2_17NetworkScanResultE"
    },
    {
     "is_pure":true,
     "mangled_component_name":"_ZN7android8hardware5radio4V1_216IRadioIndication16cellInfoList_1_2ENS1_4V1_019RadioIndicationTypeERKNS0_8hidl_vecINS2_8CellInfoEEE"
    },
    {
     "is_pure":true,
     "mangled_component_name":"_ZN7android8hardware5radio4V1_216IRadioIndication27currentLinkCapacityEstimateENS1_4V1_019RadioIndicationTypeERKNS2_20LinkCapacityEstimateE"
    },
    {
     "is_pure":true,
     "mangled_component_name":"_ZN7android8hardware5radio4V1_216IRadioIndication29currentPhysicalChannelConfigsENS1_4V1_019RadioIndicationTypeERKNS0_8hidl_vecINS2_21PhysicalChannelConfigEEE"
    },
    {
     "is_pure":true,
     "mangled_component_name":"_ZN7android8hardware5radio4V1_216IRadioIndication25currentSignalStrength_1_2ENS1_4V1_019RadioIndicationTypeERKNS2_14SignalStrengthE"
    },
    {
     "kind":"vcall_offset"
    },
    {
     "kind":"vcall_offset"
    },
    {
     "kind":"vcall_offset"
    },
    {
     "kind":"vcall_offset"
    },
    {
     "kind":"vcall_offset",
     "component_value":-8
    },
    {
     "kind":"offset_to_top",
     "component_value":-8
    },
    {
     "kind":"rtti",
     "mangled_component_name":"_ZTIN7android8hardware5radio4V1_216IRadioIndicationE"
    },
    {
     "kind":"complete_dtor_pointer",
     "mangled_component_name":"_ZTv0_n24_N7android8hardware5radio4V1_216IRadioIndicationD1Ev"
    },
    {
     "kind":"deleting_dtor_pointer",
     "mangled_component_name":"_ZTv0_n24_N7android8hardware5radio4V1_216IRadioIndicationD0Ev"
    },
    {
     "mangled_component_name":"_ZN7android7RefBase10onFirstRefEv"
    },
    {
     "mangled_component_name":"_ZN7android7RefBase15onLastStrongRefEPKv"
    },
    {
     "mangled_component_name":"_ZN7android7RefBase20onIncStrongAttemptedEjPKv"
    },
    {
     "mangled_component_name":"_ZN7android7RefBase13onLastWeakRefEPKv"
    }
   ],
   "unique_id":"_ZTSN7android8hardware5radio4V1_216IRadioIndicationE"
  },
  {
   "vtable_components":[
    {
     "kind":"vbase_offset",
     "component_value":200
    },
    {
     "kind":"offset_to_top"
    },
    {
     "kind":"rtti",
     "mangled_component_name":"_ZTIN7android8hardware5radio4V1_219BpHwRadioIndicationE"
    },
    {
     "mangled_component_name":"_ZNK7android8hardware5radio4V1_219BpHwRadioIndication8isRemoteEv"
    },
    {
     "mangled_component_name":"_ZN7android8hardware5radio4V1_219BpHwRadioIndication14interfaceChainENSt3__18functionIFvRKNS0_8hidl_vecINS0_11hidl_stringEEEEEE"
    },
    {
     "mangled_component_name":"_ZN7android8hardware5radio4V1_219BpHwRadioIndication5debugERKNS0_11hidl_handleERKNS0_8hidl_vecINS0_11hidl_stringEEE"
    },
    {
     "mangled_component_name":"_ZN7android8hardware5radio4V1_219BpHwRadioIndication19interfaceDescriptorENSt3__18functionIFvRKNS0_11hidl_stringEEEE"
    },
    {
     "mangled_component_name":"_ZN7android8hardware5radio4V1_219BpHwRadioIndication12getHashChainENSt3__18functionIFvRKNS0_8hidl_vecINS0_10hidl_arrayIhLm32EJEEEEEEEE"
    },
    {
     "mangled_component_name":"_ZN7android8hardware5radio4V1_219BpHwRadioIndication21setHALInstrumentationEv"
    },
    {
     "mangled_component_name":"_ZN7android8hardware5radio4V1_219BpHwRadioIndication11linkToDeathERKNS_2spINS0_20hidl_death_recipientEEEm"
    },
    {
     "mangled_component_name":"_ZN7android8hardware5radio4V1_219BpHwRadioIndication4pingEv"
    },
    {
     "mangled_component_name":"_ZN7android8hardware5radio4V1_219BpHwRadioIndication12getDebugInfoENSt3__18functionIFvRKNS_4hidl4base4V1_09DebugInfoEEEE"
    },
    {
     "mangled_component_name":"_ZN7android8hardware5radio4V1_219BpHwRadioIndication21notifySyspropsChangedEv"
    },
    {
     "mangled_component_name":"_ZN7android8hardware5radio4V1_219BpHwRadioIndication13unlinkToDeathERKNS_2spINS0_20hidl_death_recipientEEE"
    },
    {
     "kind":"complete_dtor_pointer",
     "mangled_component_name":"_ZN7android8hardware5radio4V1_219BpHwRadioIndicationD1Ev"
    },
    {
     "kind":"deleting_dtor_pointer",
     "mangled_component_name":"_ZN7android8hardware5radio4V1_219BpHwRadioIndicationD0Ev"
    },
    {
     "mangled_component_name":"_ZN7android8hardware5radio4V1_219BpHwRadioIndication17radioStateChangedENS1_4V1_019RadioIndicationTypeENS4_10RadioStateE"
    },
    {
     "mangled_component_name":"_ZN7android8hardware5radio4V1_219BpHwRadioIndication16callStateChangedENS1_4V1_019RadioIndicationTypeE"
    },
    {
     "mangled_component_name":"_ZN7android8hardware5radio4V1_219BpHwRadioIndication19networkStateChangedENS1_4V1_019RadioIndicationTypeE"
    },
    {
     "mangled_component_name":"_ZN7android8hardware5radio4V1_219BpHwRadioIndication6newSmsENS1_4V1_019RadioIndicationTypeERKNS0_8hidl_vecIhEE"
    },
    {
     "mangled_component_name":"_ZN7android8hardware5radio4V1_219BpHwRadioIndication18newSmsStatusReportENS1_4V1_019RadioIndicationTypeERKNS0_8hidl_vecIhEE"
    },
    {
     "mangled_component_name":"_ZN7android8hardware5radio4V1_219BpHwRadioIndication11newSmsOnSimENS1_4V1_019RadioIndicationTypeEi"
    },
    {
     "mangled_component_name":"_ZN7android8hardware5radio4V1_219BpHwRadioIndication6onUssdENS1_4V1_019RadioIndicationTypeENS4_12UssdModeTypeERKNS0_11hidl_stringE"
    },
    {
     "mangled_component_name":"_ZN7android8hardware5radio4V1_219BpHwRadioIndication16nitzTimeReceivedENS1_4V1_019RadioIndicationTypeERKNS0_11hidl_stringEm"
    },
    {
     "mangled_component_name":"_ZN7android8hardware5radio4V1_219BpHwRadioIndication21currentSignalStrengthENS1_4V1_019RadioIndicationTypeERKNS4_14SignalStrengthE"
    },
    {
     "mangled_component_name":"_ZN7android8hardware5radio4V1_219BpHwRadioIndication19dataCallListChangedENS1_4V1_019RadioIndicationTypeERKNS0_8hidl_vecINS4_19SetupDataCallResultEEE"
    },
    {
     "mangled_component_name":"_ZN7android8hardware5radio4V1_219BpHwRadioIndication13suppSvcNotifyENS1_4V1_019RadioIndicationTypeERKNS4_19SuppSvcNotificationE"
    },
    {
     "mangled_component_name":"_ZN7android8hardware5radio4V1_219BpHwRadioIndication13stkSessionEndENS1_4V1_019RadioIndicationTypeE"
    },
    {
     "mangled_component_name":"_ZN7android8hardware5radio4V1_219BpHwRadioIndication19stkProactiveCommandENS1_4V1_019RadioIndicationTypeERKNS0_11hidl_stringE"
    },
    {
     "mangled_component_name":"_ZN7android8hardware5radio4V1_219BpHwRadioIndication14stkEventNotifyENS1_4V1_019RadioIndicationTypeERKNS0_11hidl_stringE"
    },
    {
     "mangled_component_name":"_ZN7android8hardware5radio4V1_219BpHwRadioIndication12stkCallSetupENS1_4V1_019RadioIndicationTypeEl"
    },
    {
     "mangled_component_name":"_ZN7android8hardware5radio4V1_219BpHwRadioIndication17simSmsStorageFullENS1_4V1_019RadioIndicationTypeE"
    },
    {
     "mangled_component_name":"_ZN7android8hardware5radio4V1_219BpHwRadioIndication10simRefreshENS1_4V1_019RadioIndicationTypeERKNS4_16SimRefreshResultE"
    },
    {
     "mangled_component_name":"_ZN7android8hardware5radio4V1_219BpHwRadioIndication8callRingENS1_4V1_019RadioIndicationTypeEbRKNS4_20CdmaSignalInfoRecordE"
    },
    {
     "mangled_component_name":"_ZN7android8hardware5radio4V1_219BpHwRadioIndication16simStatusChangedENS1_4V1_019RadioIndicationTypeE"
    },
    {
     "mangled_component_name":"_ZN7android8hardware5radio4V1_219BpHwRadioIndication10cdmaNewSmsENS1_4V1_019RadioIndicationTypeERKNS4_14CdmaSmsMessageE"
    },
    {
     "mangled_component_name":"_ZN7android8hardware5radio4V1_219BpHwRadioIndication15newBroadcastSmsENS1_4V1_019RadioIndicationTypeERKNS0_8hidl_vecIhEE"
    },
    {
     "mangled_component_name":"_ZN7android8hardware5radio4V1_219BpHwRadioIndication22cdmaRuimSmsStorageFullENS1_4V1_019RadioIndicationTypeE"
    },
    {
     "mangled_component_name":"_ZN7android8hardware5radio4V1_219BpHwRadioIndication22restrictedStateChangedENS1_4V1_019RadioIndicationTypeENS4_20PhoneRestrictedStateE"
    },
    {
     "mangled_component_name":"_ZN7android8hardware5radio4V1_219BpHwRadioIndication26enterEmergencyCallbackModeENS1_4V1_019RadioIndicationTypeE"
    },
    {
     "mangled_component_name":"_ZN7android8hardware5radio4V1_219BpHwRadioIndication15cdmaCallWaitingENS1_4V1_019RadioIndicationTypeERKNS4_15CdmaCallWaitingE"
    },
    {
     "mangled_component_name":"_ZN7android8hardware5radio4V1_219BpHwRadioIndication22cdmaOtaProvisionStatusENS1_4V1_019RadioIndicationTypeENS4_22CdmaOtaProvisionStatusE"
    },
    {
     "mangled_component_name":"_ZN7android8hardware5radio4V1_219BpHwRadioIndication11cdmaInfoRecENS1_4V1_019RadioIndicationTypeERKNS4_22CdmaInformationRecordsE"
    },
    {
     "mangled_component_name":"_ZN7android8hardware5radio4V1_219BpHwRadioIndication20indicateRingbackToneENS1_4V1_019RadioIndicationTypeEb"
    },
    {
     "mangled_component_name":"_ZN7android8hardware5radio4V1_219BpHwRadioIndication16resendIncallMuteENS1_4V1_019RadioIndicationTypeE"
    },
    {
     "mangled_component_name":"_ZN7android8hardware5radio4V1_219BpHwRadioIndication29cdmaSubscriptionSourceChangedENS1_4V1_019RadioIndicationTypeENS4_22CdmaSubscriptionSourceE"
    },
    {
     "mangled_component_name":"_ZN7android8hardware5radio4V1_219BpHwRadioIndication14cdmaPrlChangedENS1_4V1_019RadioIndicationTypeEi"
    },
    {
     "mangled_component_name":"_ZN7android8hardware5radio4V1_219BpHwRadioIndication25exitEmergencyCallbackModeENS1_4V1_019RadioIndicationTypeE"
    },
    {
     "mangled_component_name":"_ZN7android8hardware5radio4V1_219BpHwRadioIndication12rilConnectedENS1_4V1_019RadioIndicationTypeE"
    },
    {
     "mangled_component_name":"_ZN7android8hardware5radio4V1_219BpHwRadioIndication21voiceRadioTechChangedENS1_4V1_019RadioIndicationTypeENS4_15RadioTechnologyE"
    },
    {
     "mangled_component_name":"_ZN7android8hardware5radio4V1_219BpHwRadioIndication12cellInfoListENS1_4V1_019RadioIndicationTypeERKNS0_8hidl_vecINS4_8CellInfoEEE"
    },
    {
     "mangled_component_name":"_ZN7android8hardware5radio4V1_219BpHwRadioIndication22imsNetworkStateChangedENS1_4V1_019RadioIndicationTypeE"
    },
    {
     "mangled_component_name":"_ZN7android8hardware5radio4V1_219BpHwRadioIndication25subscriptionStatusChangedENS1_4V1_019RadioIndicationTypeEb"
    },
    {
     "mangled_component_name":"_ZN7android8hardware5radio4V1_219BpHwRadioIndication16srvccStateNotifyENS1_4V1_019RadioIndicationTypeENS4_10SrvccStateE"
    },
    {
     "mangled_component_name":"_ZN7android8hardware5radio4V1_219BpHwRadioIndication21hardwareConfigChangedENS1_4V1_019RadioIndicationTypeERKNS0_8hidl_vecINS4_14HardwareConfigEEE"
    },
    {
     "mangled_component_name":"_ZN7android8hardware5radio4V1_219BpHwRadioIndication25radioCapabilityIndicationENS1_4V1_019RadioIndicationTypeERKNS4_15RadioCapabilityE"
    },
    {
     "mangled_component_name":"_ZN7android8hardware5radio4V1_219BpHwRadioIndication32onSupplementaryServiceIndicationENS1_4V1_019RadioIndicationTypeERKNS4_18StkCcUnsolSsResultE"
    },
    {
     "mangled_component_name":"_ZN7android8hardware5radio4V1_219BpHwRadioIndication25stkCallControlAlphaNotifyENS1_4V1_019RadioIndicationTypeERKNS0_11hidl_stringE"
    },
    {
     "mangled_component_name":"_ZN7android8hardware5radio4V1_219BpHwRadioIndication7lceDataENS1_4V1_019RadioIndicationTypeERKNS4_11LceDataInfoE"
    },
    {
     "mangled_component_name":"_ZN7android8hardware5radio4V1_219BpHwRadioIndication7pcoDataENS1_4V1_019RadioIndicationTypeERKNS4_11PcoDataInfoE"
    },
    {
     "mangled_component_name":"_ZN7android8hardware5radio4V1_219BpHwRadioIndication10modemResetENS1_4V1_019RadioIndicationTypeERKNS0_11hidl_stringE"
    },
    {
     "mangled_component_name":"_ZN7android8hardware5radio4V1_219BpHwRadioIndication28carrierInfoForImsiEncryptionENS1_4V1_019RadioIndicationTypeE"
    },
    {
     "mangled_component_name":"_ZN7android8hardware5radio4V1_219BpHwRadioIndication17networkScanResultENS1_4V1_019RadioIndicationTypeERKNS1_4V1_117NetworkScanResultE"
    },
    {
     "mangled_component_name":"_ZN7android8hardware5radio4V1_219BpHwRadioIndication15keepaliveStatusENS1_4V1_019RadioIndicationTypeERKNS1_4V1_115KeepaliveStatusE"
    },
    {
     "mangled_component_name":"_ZN7android8hardware5radio4V1_219BpHwRadioIndication21networkScanResult_1_2ENS1_4V1_019RadioIndicationTypeERKNS2_17NetworkScanResultE"
    },
    {
     "mangled_component_name":"_ZN7android8hardware5radio4V1_219BpHwRadioIndication16cellInfoList_1_2ENS1_4V1_019RadioIndicationTypeERKNS0_8hidl_vecINS2_8CellInfoEEE"
    },
    {
     "mangled_component_name":"_ZN7android8hardware5radio4V1_219BpHwRadioIndication27currentLinkCapacityEstimateENS1_4V1_019RadioIndicationTypeERKNS2_20LinkCapacityEstimateE"
    },
    {
     "mangled_component_name":"_ZN7android8hardware5radio4V1_219BpHwRadioIndication29currentPhysicalChannelConfigsENS1_4V1_019RadioIndicationTypeERKNS0_8hidl_vecINS2_21PhysicalChannelConfigEEE"
    },
    {
     "mangled_component_name":"_ZN7android8hardware5radio4V1_219BpHwRadioIndication25currentSignalStrength_1_2ENS1_4V1_019RadioIndicationTypeERKNS2_14SignalStrengthE"
    },
    {
     "mangled_component_name":"_ZN7android8hardware11BpInterfaceINS0_5radio4V1_216IRadioIndicationEE10onAsBinderEv"
    },
    {
     "kind":"vbase_offset",
     "component_value":192
    },
    {
     "kind":"offset_to_top",
     "component_value":-8
    },
    {
     "kind":"rtti",
     "mangled_component_name":"_ZTIN7android8hardware5radio4V1_219BpHwRadioIndicationE"
    },
    {
     "kind":"complete_dtor_pointer",
     "mangled_component_name":"_ZThn8_N7android8hardware5radio4V1_219BpHwRadioIndicationD1Ev"
    },
    {
     "kind":"deleting_dtor_pointer",
     "mangled_component_name":"_ZThn8_N7android8hardware5radio4V1_219BpHwRadioIndicationD0Ev"
    },
    {
     "mangled_component_name":"_ZThn8_N7android8hardware11BpInterfaceINS0_5radio4V1_216IRadioIndicationEE10onAsBinderEv"
    },
    {
     "kind":"vbase_offset",
     "component_value":184
    },
    {
     "kind":"offset_to_top",
     "component_value":-16
    },
    {
     "kind":"rtti",
     "mangled_component_name":"_ZTIN7android8hardware5radio4V1_219BpHwRadioIndicationE"
    },
    {
     "kind":"complete_dtor_pointer",
     "mangled_component_name":"_ZThn16_N7android8hardware5radio4V1_219BpHwRadioIndicationD1Ev"
    },
    {
     "kind":"deleting_dtor_pointer",
     "mangled_component_name":"_ZThn16_N7android8hardware5radio4V1_219BpHwRadioIndicationD0Ev"
    },
    {
     "mangled_component_name":"_ZN7android8hardware11BpHwRefBase10onFirstRefEv"
    },
    {
     "mangled_component_name":"_ZN7android8hardware11BpHwRefBase15onLastStrongRefEPKv"
    },
    {
     "mangled_component_name":"_ZN7android8hardware11BpHwRefBase20onIncStrongAttemptedEjPKv"
    },
    {
     "kind":"offset_to_top",
     "component_value":-48
    },
    {
     "kind":"rtti",
     "mangled_component_name":"_ZTIN7android8hardware5radio4V1_219BpHwRadioIndicationE"
    },
    {
     "kind":"complete_dtor_pointer",
     "mangled_component_name":"_ZThn48_N7android8hardware5radio4V1_219BpHwRadioIndicationD1Ev"
    },
    {
     "kind":"deleting_dtor_pointer",
     "mangled_component_name":"_ZThn48_N7android8hardware5radio4V1_219BpHwRadioIndicationD0Ev"
    },
    {
     "kind":"vcall_offset"
    },
    {
     "kind":"vcall_offset",
     "component_value":-184
    },
    {
     "kind":"vcall_offset",
     "component_value":-184
    },
    {
     "kind":"vcall_offset",
     "component_value":-184
    },
    {
     "kind":"vcall_offset",
     "component_value":-200
    },
    {
     "kind":"offset_to_top",
     "component_value":-200
    },
    {
     "kind":"rtti",
     "mangled_component_name":"_ZTIN7android8hardware5radio4V1_219BpHwRadioIndicationE"
    },
    {
     "kind":"complete_dtor_pointer",
     "mangled_component_name":"_ZTv0_n24_N7android8hardware5radio4V1_219BpHwRadioIndicationD1Ev"
    },
    {
     "kind":"deleting_dtor_pointer",
     "mangled_component_name":"_ZTv0_n24_N7android8hardware5radio4V1_219BpHwRadioIndicationD0Ev"
    },
    {
     "mangled_component_name":"_ZTv0_n32_N7android8hardware11BpHwRefBase10onFirstRefEv"
    },
    {
     "mangled_component_name":"_ZTv0_n40_N7android8hardware11BpHwRefBase15onLastStrongRefEPKv"
    },
    {
     "mangled_component_name":"_ZTv0_n48_N7android8hardware11BpHwRefBase20onIncStrongAttemptedEjPKv"
    },
    {
     "mangled_component_name":"_ZN7android7RefBase13onLastWeakRefEPKv"
    }
   ],
   "unique_id":"_ZTSN7android8hardware5radio4V1_219BpHwRadioIndicationE"
  },
  {
   "vtable_components":[
    {
     "kind":"vbase_offset",
     "component_value":136
    },
    {
     "kind":"offset_to_top"
    },
    {
     "kind":"rtti",
     "mangled_component_name":"_ZTIN7android8hardware5radio4V1_219BnHwRadioIndicationE"
    },
    {
     "mangled_component_name":"_ZN7android8hardware9BHwBinder8transactEjRKNS0_6ParcelEPS2_jNSt3__18functionIFvRS2_EEE"
    },
    {
     "mangled_component_name":"_ZN7android8hardware9BHwBinder11linkToDeathERKNS_2spINS0_7IBinder14DeathRecipientEEEPvj"
    },
    {
     "mangled_component_name":"_ZN7android8hardware9BHwBinder13unlinkToDeathERKNS_2wpINS0_7IBinder14DeathRecipientEEEPvjPS5_"
    },
    {
     "mangled_component_name":"_ZNK7android8hardware7IBinder13checkSubclassEPKv"
    },
    {
     "mangled_component_name":"_ZN7android8hardware9BHwBinder12attachObjectEPKvPvS4_PFvS3_S4_S4_E"
    },
    {
     "mangled_component_name":"_ZNK7android8hardware9BHwBinder10findObjectEPKv"
    },
    {
     "mangled_component_name":"_ZN7android8hardware9BHwBinder12detachObjectEPKv"
    },
    {
     "mangled_component_name":"_ZN7android8hardware9BHwBinder11localBinderEv"
    },
    {
     "mangled_component_name":"_ZN7android8hardware7IBinder12remoteBinderEv"
    },
    {
     "kind":"complete_dtor_pointer",
     "mangled_component_name":"_ZN7android8hardware5radio4V1_219BnHwRadioIndicationD1Ev"
    },
    {
     "kind":"deleting_dtor_pointer",
     "mangled_component_name":"_ZN7android8hardware5radio4V1_219BnHwRadioIndicationD0Ev"
    },
    {
     "mangled_component_name":"_ZN7android8hardware5radio4V1_219BnHwRadioIndication10onTransactEjRKNS0_6ParcelEPS4_jNSt3__18functionIFvRS4_EEE"
    },
    {
     "kind":"offset_to_top",
     "component_value":-32
    },
    {
     "kind":"rtti",
     "mangled_component_name":"_ZTIN7android8hardware5radio4V1_219BnHwRadioIndicationE"
    },
    {
     "kind":"complete_dtor_pointer",
     "mangled_component_name":"_ZThn32_N7android8hardware5radio4V1_219BnHwRadioIndicationD1Ev"
    },
    {
     "kind":"deleting_dtor_pointer",
     "mangled_component_name":"_ZThn32_N7android8hardware5radio4V1_219BnHwRadioIndicationD0Ev"
    },
    {
     "kind":"vcall_offset"
    },
    {
     "kind":"vcall_offset"
    },
    {
     "kind":"vcall_offset"
    },
    {
     "kind":"vcall_offset"
    },
    {
     "kind":"vcall_offset",
     "component_value":-136
    },
    {
     "kind":"offset_to_top",
     "component_value":-136
    },
    {
     "kind":"rtti",
     "mangled_component_name":"_ZTIN7android8hardware5radio4V1_219BnHwRadioIndicationE"
    },
    {
     "kind":"complete_dtor_pointer",
     "mangled_component_name":"_ZTv0_n24_N7android8hardware5radio4V1_219BnHwRadioIndicationD1Ev"
    },
    {
     "kind":"deleting_dtor_pointer",
     "mangled_component_name":"_ZTv0_n24_N7android8hardware5radio4V1_219BnHwRadioIndicationD0Ev"
    },
    {
     "mangled_component_name":"_ZN7android7RefBase10onFirstRefEv"
    },
    {
     "mangled_component_name":"_ZN7android7RefBase15onLastStrongRefEPKv"
    },
    {
     "mangled_component_name":"_ZN7android7RefBase20onIncStrongAttemptedEjPKv"
    },
    {
     "mangled_component_name":"_ZN7android7RefBase13onLastWeakRefEPKv"
    }
   ],
   "unique_id":"_ZTSN7android8hardware5radio4V1_219BnHwRadioIndicationE"
  },
  {
   "vtable_components":[
    {
     "kind":"vbase_offset",
     "component_value":120
    },
    {
     "kind":"offset_to_top"
    },
    {
     "kind":"rtti",
     "mangled_component_name":"_ZTIN7android8hardware5radio4V1_217BsRadioIndicationE"
    },
    {
     "mangled_component_name":"_ZNK7android8hardware5radio4V1_216IRadioIndication8isRemoteEv"
    },
    {
     "mangled_component_name":"_ZN7android8hardware5radio4V1_217BsRadioIndication14interfaceChainENSt3__18functionIFvRKNS0_8hidl_vecINS0_11hidl_stringEEEEEE"
    },
    {
     "mangled_component_name":"_ZN7android8hardware5radio4V1_217BsRadioIndication5debugERKNS0_11hidl_handleERKNS0_8hidl_vecINS0_11hidl_stringEEE"
    },
    {
     "mangled_component_name":"_ZN7android8hardware5radio4V1_217BsRadioIndication19interfaceDescriptorENSt3__18functionIFvRKNS0_11hidl_stringEEEE"
    },
    {
     "mangled_component_name":"_ZN7android8hardware5radio4V1_217BsRadioIndication12getHashChainENSt3__18functionIFvRKNS0_8hidl_vecINS0_10hidl_arrayIhLm32EJEEEEEEEE"
    },
    {
     "mangled_component_name":"_ZN7android8hardware5radio4V1_217BsRadioIndication21setHALInstrumentationEv"
    },
    {
     "mangled_component_name":"_ZN7android8hardware5radio4V1_217BsRadioIndication11linkToDeathERKNS_2spINS0_20hidl_death_recipientEEEm"
    },
    {
     "mangled_component_name":"_ZN7android8hardware5radio4V1_217BsRadioIndication4pingEv"
    },
    {
     "mangled_component_name":"_ZN7android8hardware5radio4V1_217BsRadioIndication12getDebugInfoENSt3__18functionIFvRKNS_4hidl4base4V1_09DebugInfoEEEE"
    },
    {
     "mangled_component_name":"_ZN7android8hardware5radio4V1_217BsRadioIndication21notifySyspropsChangedEv"
    },
    {
     "mangled_component_name":"_ZN7android8hardware5radio4V1_217BsRadioIndication13unlinkToDeathERKNS_2spINS0_20hidl_death_recipientEEE"
    },
    {
     "kind":"complete_dtor_pointer",
     "mangled_component_name":"_ZN7android8hardware5radio4V1_217BsRadioIndicationD1Ev"
    },
    {
     "kind":"deleting_dtor_pointer",
     "mangled_component_name":"_ZN7android8hardware5radio4V1_217BsRadioIndicationD0Ev"
    },
    {
     "mangled_component_name":"_ZN7android8hardware5radio4V1_217BsRadioIndication17radioStateChangedENS1_4V1_019RadioIndicationTypeENS4_10RadioStateE"
    },
    {
     "mangled_component_name":"_ZN7android8hardware5radio4V1_217BsRadioIndication16callStateChangedENS1_4V1_019RadioIndicationTypeE"
    },
    {
     "mangled_component_name":"_ZN7android8hardware5radio4V1_217BsRadioIndication19networkStateChangedENS1_4V1_019RadioIndicationTypeE"
    },
    {
     "mangled_component_name":"_ZN7android8hardware5radio4V1_217BsRadioIndication6newSmsENS1_4V1_019RadioIndicationTypeERKNS0_8hidl_vecIhEE"
    },
    {
     "mangled_component_name":"_ZN7android8hardware5radio4V1_217BsRadioIndication18newSmsStatusReportENS1_4V1_019RadioIndicationTypeERKNS0_8hidl_vecIhEE"
    },
    {
     "mangled_component_name":"_ZN7android8hardware5radio4V1_217BsRadioIndication11newSmsOnSimENS1_4V1_019RadioIndicationTypeEi"
    },
    {
     "mangled_component_name":"_ZN7android8hardware5radio4V1_217BsRadioIndication6onUssdENS1_4V1_019RadioIndicationTypeENS4_12UssdModeTypeERKNS0_11hidl_stringE"
    },
    {
     "mangled_component_name":"_ZN7android8hardware5radio4V1_217BsRadioIndication16nitzTimeReceivedENS1_4V1_019RadioIndicationTypeERKNS0_11hidl_stringEm"
    },
    {
     "mangled_component_name":"_ZN7android8hardware5radio4V1_217BsRadioIndication21currentSignalStrengthENS1_4V1_019RadioIndicationTypeERKNS4_14SignalStrengthE"
    },
    {
     "mangled_component_name":"_ZN7android8hardware5radio4V1_217BsRadioIndication19dataCallListChangedENS1_4V1_019RadioIndicationTypeERKNS0_8hidl_vecINS4_19SetupDataCallResultEEE"
    },
    {
     "mangled_component_name":"_ZN7android8hardware5radio4V1_217BsRadioIndication13suppSvcNotifyENS1_4V1_019RadioIndicationTypeERKNS4_19SuppSvcNotificationE"
    },
    {
     "mangled_component_name":"_ZN7android8hardware5radio4V1_217BsRadioIndication13stkSessionEndENS1_4V1_019RadioIndicationTypeE"
    },
    {
     "mangled_component_name":"_ZN7android8hardware5radio4V1_217BsRadioIndication19stkProactiveCommandENS1_4V1_019RadioIndicationTypeERKNS0_11hidl_stringE"
    },
    {
     "mangled_component_name":"_ZN7android8hardware5radio4V1_217BsRadioIndication14stkEventNotifyENS1_4V1_019RadioIndicationTypeERKNS0_11hidl_stringE"
    },
    {
     "mangled_component_name":"_ZN7android8hardware5radio4V1_217BsRadioIndication12stkCallSetupENS1_4V1_019RadioIndicationTypeEl"
    },
    {
     "mangled_component_name":"_ZN7android8hardware5radio4V1_217BsRadioIndication17simSmsStorageFullENS1_4V1_019RadioIndicationTypeE"
    },
    {
     "mangled_component_name":"_ZN7android8hardware5radio4V1_217BsRadioIndication10simRefreshENS1_4V1_019RadioIndicationTypeERKNS4_16SimRefreshResultE"
    },
    {
     "mangled_component_name":"_ZN7android8hardware5radio4V1_217BsRadioIndication8callRingENS1_4V1_019RadioIndicationTypeEbRKNS4_20CdmaSignalInfoRecordE"
    },
    {
     "mangled_component_name":"_ZN7android8hardware5radio4V1_217BsRadioIndication16simStatusChangedENS1_4V1_019RadioIndicationTypeE"
    },
    {
     "mangled_component_name":"_ZN7android8hardware5radio4V1_217BsRadioIndication10cdmaNewSmsENS1_4V1_019RadioIndicationTypeERKNS4_14CdmaSmsMessageE"
    },
    {
     "mangled_component_name":"_ZN7android8hardware5radio4V1_217BsRadioIndication15newBroadcastSmsENS1_4V1_019RadioIndicationTypeERKNS0_8hidl_vecIhEE"
    },
    {
     "mangled_component_name":"_ZN7android8hardware5radio4V1_217BsRadioIndication22cdmaRuimSmsStorageFullENS1_4V1_019RadioIndicationTypeE"
    },
    {
     "mangled_component_name":"_ZN7android8hardware5radio4V1_217BsRadioIndication22restrictedStateChangedENS1_4V1_019RadioIndicationTypeENS4_20PhoneRestrictedStateE"
    },
    {
     "mangled_component_name":"_ZN7android8hardware5radio4V1_217BsRadioIndication26enterEmergencyCallbackModeENS1_4V1_019RadioIndicationTypeE"
    },
    {
     "mangled_component_name":"_ZN7android8hardware5radio4V1_217BsRadioIndication15cdmaCallWaitingENS1_4V1_019RadioIndicationTypeERKNS4_15CdmaCallWaitingE"
    },
    {
     "mangled_component_name":"_ZN7android8hardware5radio4V1_217BsRadioIndication22cdmaOtaProvisionStatusENS1_4V1_019RadioIndicationTypeENS4_22CdmaOtaProvisionStatusE"
    },
    {
     "mangled_component_name":"_ZN7android8hardware5radio4V1_217BsRadioIndication11cdmaInfoRecENS1_4V1_019RadioIndicationTypeERKNS4_22CdmaInformationRecordsE"
    },
    {
     "mangled_component_name":"_ZN7android8hardware5radio4V1_217BsRadioIndication20indicateRingbackToneENS1_4V1_019RadioIndicationTypeEb"
    },
    {
     "mangled_component_name":"_ZN7android8hardware5radio4V1_217BsRadioIndication16resendIncallMuteENS1_4V1_019RadioIndicationTypeE"
    },
    {
     "mangled_component_name":"_ZN7android8hardware5radio4V1_217BsRadioIndication29cdmaSubscriptionSourceChangedENS1_4V1_019RadioIndicationTypeENS4_22CdmaSubscriptionSourceE"
    },
    {
     "mangled_component_name":"_ZN7android8hardware5radio4V1_217BsRadioIndication14cdmaPrlChangedENS1_4V1_019RadioIndicationTypeEi"
    },
    {
     "mangled_component_name":"_ZN7android8hardware5radio4V1_217BsRadioIndication25exitEmergencyCallbackModeENS1_4V1_019RadioIndicationTypeE"
    },
    {
     "mangled_component_name":"_ZN7android8hardware5radio4V1_217BsRadioIndication12rilConnectedENS1_4V1_019RadioIndicationTypeE"
    },
    {
     "mangled_component_name":"_ZN7android8hardware5radio4V1_217BsRadioIndication21voiceRadioTechChangedENS1_4V1_019RadioIndicationTypeENS4_15RadioTechnologyE"
    },
    {
     "mangled_component_name":"_ZN7android8hardware5radio4V1_217BsRadioIndication12cellInfoListENS1_4V1_019RadioIndicationTypeERKNS0_8hidl_vecINS4_8CellInfoEEE"
    },
    {
     "mangled_component_name":"_ZN7android8hardware5radio4V1_217BsRadioIndication22imsNetworkStateChangedENS1_4V1_019RadioIndicationTypeE"
    },
    {
     "mangled_component_name":"_ZN7android8hardware5radio4V1_217BsRadioIndication25subscriptionStatusChangedENS1_4V1_019RadioIndicationTypeEb"
    },
    {
     "mangled_component_name":"_ZN7android8hardware5radio4V1_217BsRadioIndication16srvccStateNotifyENS1_4V1_019RadioIndicationTypeENS4_10SrvccStateE"
    },
    {
     "mangled_component_name":"_ZN7android8hardware5radio4V1_217BsRadioIndication21hardwareConfigChangedENS1_4V1_019RadioIndicationTypeERKNS0_8hidl_vecINS4_14HardwareConfigEEE"
    },
    {
     "mangled_component_name":"_ZN7android8hardware5radio4V1_217BsRadioIndication25radioCapabilityIndicationENS1_4V1_019RadioIndicationTypeERKNS4_15RadioCapabilityE"
    },
    {
     "mangled_component_name":"_ZN7android8hardware5radio4V1_217BsRadioIndication32onSupplementaryServiceIndicationENS1_4V1_019RadioIndicationTypeERKNS4_18StkCcUnsolSsResultE"
    },
    {
     "mangled_component_name":"_ZN7android8hardware5radio4V1_217BsRadioIndication25stkCallControlAlphaNotifyENS1_4V1_019RadioIndicationTypeERKNS0_11hidl_stringE"
    },
    {
     "mangled_component_name":"_ZN7android8hardware5radio4V1_217BsRadioIndication7lceDataENS1_4V1_019RadioIndicationTypeERKNS4_11LceDataInfoE"
    },
    {
     "mangled_component_name":"_ZN7android8hardware5radio4V1_217BsRadioIndication7pcoDataENS1_4V1_019RadioIndicationTypeERKNS4_11PcoDataInfoE"
    },
    {
     "mangled_component_name":"_ZN7android8hardware5radio4V1_217BsRadioIndication10modemResetENS1_4V1_019RadioIndicationTypeERKNS0_11hidl_stringE"
    },
    {
     "mangled_component_name":"_ZN7android8hardware5radio4V1_217BsRadioIndication28carrierInfoForImsiEncryptionENS1_4V1_019RadioIndicationTypeE"
    },
    {
     "mangled_component_name":"_ZN7android8hardware5radio4V1_217BsRadioIndication17networkScanResultENS1_4V1_019RadioIndicationTypeERKNS1_4V1_117NetworkScanResultE"
    },
    {
     "mangled_component_name":"_ZN7android8hardware5radio4V1_217BsRadioIndication15keepaliveStatusENS1_4V1_019RadioIndicationTypeERKNS1_4V1_115KeepaliveStatusE"
    },
    {
     "mangled_component_name":"_ZN7android8hardware5radio4V1_217BsRadioIndication21networkScanResult_1_2ENS1_4V1_019RadioIndicationTypeERKNS2_17NetworkScanResultE"
    },
    {
     "mangled_component_name":"_ZN7android8hardware5radio4V1_217BsRadioIndication16cellInfoList_1_2ENS1_4V1_019RadioIndicationTypeERKNS0_8hidl_vecINS2_8CellInfoEEE"
    },
    {
     "mangled_component_name":"_ZN7android8hardware5radio4V1_217BsRadioIndication27currentLinkCapacityEstimateENS1_4V1_019RadioIndicationTypeERKNS2_20LinkCapacityEstimateE"
    },
    {
     "mangled_component_name":"_ZN7android8hardware5radio4V1_217BsRadioIndication29currentPhysicalChannelConfigsENS1_4V1_019RadioIndicationTypeERKNS0_8hidl_vecINS2_21PhysicalChannelConfigEEE"
    },
    {
     "mangled_component_name":"_ZN7android8hardware5radio4V1_217BsRadioIndication25currentSignalStrength_1_2ENS1_4V1_019RadioIndicationTypeERKNS2_14SignalStrengthE"
    },
    {
     "kind":"offset_to_top",
     "component_value":-8
    },
    {
     "kind":"rtti",
     "mangled_component_name":"_ZTIN7android8hardware5radio4V1_217BsRadioIndicationE"
    },
    {
     "kind":"complete_dtor_pointer",
     "mangled_component_name":"_ZThn8_N7android8hardware5radio4V1_217BsRadioIndicationD1Ev"
    },
    {
     "kind":"deleting_dtor_pointer",
     "mangled_component_name":"_ZThn8_N7android8hardware5radio4V1_217BsRadioIndicationD0Ev"
    },
    {
     "kind":"vcall_offset"
    },
    {
     "kind":"vcall_offset"
    },
    {
     "kind":"vcall_offset"
    },
    {
     "kind":"vcall_offset"
    },
    {
     "kind":"vcall_offset",
     "component_value":-120
    },
    {
     "kind":"offset_to_top",
     "component_value":-120
    },
    {
     "kind":"rtti",
     "mangled_component_name":"_ZTIN7android8hardware5radio4V1_217BsRadioIndicationE"
    },
    {
     "kind":"complete_dtor_pointer",
     "mangled_component_name":"_ZTv0_n24_N7android8hardware5radio4V1_217BsRadioIndicationD1Ev"
    },
    {
     "kind":"deleting_dtor_pointer",
     "mangled_component_name":"_ZTv0_n24_N7android8hardware5radio4V1_217BsRadioIndicationD0Ev"
    },
    {
     "mangled_component_name":"_ZN7android7RefBase10onFirstRefEv"
    },
    {
     "mangled_component_name":"_ZN7android7RefBase15onLastStrongRefEPKv"
    },
    {
     "mangled_component_name":"_ZN7android7RefBase20onIncStrongAttemptedEjPKv"
    },
    {
     "mangled_component_name":"_ZN7android7RefBase13onLastWeakRefEPKv"
    }
   ],
   "unique_id":"_ZTSN7android8hardware5radio4V1_217BsRadioIndicationE"
  },
  {
   "vtable_components":[
    {
     "kind":"vbase_offset",
     "component_value":8
    },
    {
     "kind":"offset_to_top"
    },
    {
     "kind":"rtti",
     "mangled_component_name":"_ZTIN7android8hardware5radio4V1_214IRadioResponseE"
    },
    {
     "mangled_component_name":"_ZNK7android8hardware5radio4V1_214IRadioResponse8isRemoteEv"
    },
    {
     "mangled_component_name":"_ZN7android8hardware5radio4V1_214IRadioResponse14interfaceChainENSt3__18functionIFvRKNS0_8hidl_vecINS0_11hidl_stringEEEEEE"
    },
    {
     "mangled_component_name":"_ZN7android8hardware5radio4V1_214IRadioResponse5debugERKNS0_11hidl_handleERKNS0_8hidl_vecINS0_11hidl_stringEEE"
    },
    {
     "mangled_component_name":"_ZN7android8hardware5radio4V1_214IRadioResponse19interfaceDescriptorENSt3__18functionIFvRKNS0_11hidl_stringEEEE"
    },
    {
     "mangled_component_name":"_ZN7android8hardware5radio4V1_214IRadioResponse12getHashChainENSt3__18functionIFvRKNS0_8hidl_vecINS0_10hidl_arrayIhLm32EJEEEEEEEE"
    },
    {
     "mangled_component_name":"_ZN7android8hardware5radio4V1_214IRadioResponse21setHALInstrumentationEv"
    },
    {
     "mangled_component_name":"_ZN7android8hardware5radio4V1_214IRadioResponse11linkToDeathERKNS_2spINS0_20hidl_death_recipientEEEm"
    },
    {
     "mangled_component_name":"_ZN7android8hardware5radio4V1_214IRadioResponse4pingEv"
    },
    {
     "mangled_component_name":"_ZN7android8hardware5radio4V1_214IRadioResponse12getDebugInfoENSt3__18functionIFvRKNS_4hidl4base4V1_09DebugInfoEEEE"
    },
    {
     "mangled_component_name":"_ZN7android8hardware5radio4V1_214IRadioResponse21notifySyspropsChangedEv"
    },
    {
     "mangled_component_name":"_ZN7android8hardware5radio4V1_214IRadioResponse13unlinkToDeathERKNS_2spINS0_20hidl_death_recipientEEE"
    },
    {
     "kind":"complete_dtor_pointer",
     "mangled_component_name":"_ZN7android8hardware5radio4V1_214IRadioResponseD1Ev"
    },
    {
     "kind":"deleting_dtor_pointer",
     "mangled_component_name":"_ZN7android8hardware5radio4V1_214IRadioResponseD0Ev"
    },
    {
     "is_pure":true,
     "mangled_component_name":"_ZN7android8hardware5radio4V1_214IRadioResponse24getIccCardStatusResponseERKNS1_4V1_017RadioResponseInfoERKNS4_10CardStatusE"
    },
    {
     "is_pure":true,
     "mangled_component_name":"_ZN7android8hardware5radio4V1_214IRadioResponse26supplyIccPinForAppResponseERKNS1_4V1_017RadioResponseInfoEi"
    },
    {
     "is_pure":true,
     "mangled_component_name":"_ZN7android8hardware5radio4V1_214IRadioResponse26supplyIccPukForAppResponseERKNS1_4V1_017RadioResponseInfoEi"
    },
    {
     "is_pure":true,
     "mangled_component_name":"_ZN7android8hardware5radio4V1_214IRadioResponse27supplyIccPin2ForAppResponseERKNS1_4V1_017RadioResponseInfoEi"
    },
    {
     "is_pure":true,
     "mangled_component_name":"_ZN7android8hardware5radio4V1_214IRadioResponse27supplyIccPuk2ForAppResponseERKNS1_4V1_017RadioResponseInfoEi"
    },
    {
     "is_pure":true,
     "mangled_component_name":"_ZN7android8hardware5radio4V1_214IRadioResponse26changeIccPinForAppResponseERKNS1_4V1_017RadioResponseInfoEi"
    },
    {
     "is_pure":true,
     "mangled_component_name":"_ZN7android8hardware5radio4V1_214IRadioResponse27changeIccPin2ForAppResponseERKNS1_4V1_017RadioResponseInfoEi"
    },
    {
     "is_pure":true,
     "mangled_component_name":"_ZN7android8hardware5radio4V1_214IRadioResponse38supplyNetworkDepersonalizationResponseERKNS1_4V1_017RadioResponseInfoEi"
    },
    {
     "is_pure":true,
     "mangled_component_name":"_ZN7android8hardware5radio4V1_214IRadioResponse23getCurrentCallsResponseERKNS1_4V1_017RadioResponseInfoERKNS0_8hidl_vecINS4_4CallEEE"
    },
    {
     "is_pure":true,
     "mangled_component_name":"_ZN7android8hardware5radio4V1_214IRadioResponse12dialResponseERKNS1_4V1_017RadioResponseInfoE"
    },
    {
     "is_pure":true,
     "mangled_component_name":"_ZN7android8hardware5radio4V1_214IRadioResponse21getIMSIForAppResponseERKNS1_4V1_017RadioResponseInfoERKNS0_11hidl_stringE"
    },
    {
     "is_pure":true,
     "mangled_component_name":"_ZN7android8hardware5radio4V1_214IRadioResponse24hangupConnectionResponseERKNS1_4V1_017RadioResponseInfoE"
    },
    {
     "is_pure":true,
     "mangled_component_name":"_ZN7android8hardware5radio4V1_214IRadioResponse33hangupWaitingOrBackgroundResponseERKNS1_4V1_017RadioResponseInfoE"
    },
    {
     "is_pure":true,
     "mangled_component_name":"_ZN7android8hardware5radio4V1_214IRadioResponse40hangupForegroundResumeBackgroundResponseERKNS1_4V1_017RadioResponseInfoE"
    },
    {
     "is_pure":true,
     "mangled_component_name":"_ZN7android8hardware5radio4V1_214IRadioResponse39switchWaitingOrHoldingAndActiveResponseERKNS1_4V1_017RadioResponseInfoE"
    },
    {
     "is_pure":true,
     "mangled_component_name":"_ZN7android8hardware5radio4V1_214IRadioResponse18conferenceResponseERKNS1_4V1_017RadioResponseInfoE"
    },
    {
     "is_pure":true,
     "mangled_component_name":"_ZN7android8hardware5radio4V1_214IRadioResponse18rejectCallResponseERKNS1_4V1_017RadioResponseInfoE"
    },
    {
     "is_pure":true,
     "mangled_component_name":"_ZN7android8hardware5radio4V1_214IRadioResponse28getLastCallFailCauseResponseERKNS1_4V1_017RadioResponseInfoERKNS4_21LastCallFailCauseInfoE"
    },
    {
     "is_pure":true,
     "mangled_component_name":"_ZN7android8hardware5radio4V1_214IRadioResponse25getSignalStrengthResponseERKNS1_4V1_017RadioResponseInfoERKNS4_14SignalStrengthE"
    },
    {
     "is_pure":true,
     "mangled_component_name":"_ZN7android8hardware5radio4V1_214IRadioResponse33getVoiceRegistrationStateResponseERKNS1_4V1_017RadioResponseInfoERKNS4_19VoiceRegStateResultE"
    },
    {
     "is_pure":true,
     "mangled_component_name":"_ZN7android8hardware5radio4V1_214IRadioResponse32getDataRegistrationStateResponseERKNS1_4V1_017RadioResponseInfoERKNS4_18DataRegStateResultE"
    },
    {
     "is_pure":true,
     "mangled_component_name":"_ZN7android8hardware5radio4V1_214IRadioResponse19getOperatorResponseERKNS1_4V1_017RadioResponseInfoERKNS0_11hidl_stringESA_SA_"
    },
    {
     "is_pure":true,
     "mangled_component_name":"_ZN7android8hardware5radio4V1_214IRadioResponse21setRadioPowerResponseERKNS1_4V1_017RadioResponseInfoE"
    },
    {
     "is_pure":true,
     "mangled_component_name":"_ZN7android8hardware5radio4V1_214IRadioResponse16sendDtmfResponseERKNS1_4V1_017RadioResponseInfoE"
    },
    {
     "is_pure":true,
     "mangled_component_name":"_ZN7android8hardware5radio4V1_214IRadioResponse15sendSmsResponseERKNS1_4V1_017RadioResponseInfoERKNS4_13SendSmsResultE"
    },
    {
     "is_pure":true,
     "mangled_component_name":"_ZN7android8hardware5radio4V1_214IRadioResponse25sendSMSExpectMoreResponseERKNS1_4V1_017RadioResponseInfoERKNS4_13SendSmsResultE"
    },
    {
     "is_pure":true,
     "mangled_component_name":"_ZN7android8hardware5radio4V1_214IRadioResponse21setupDataCallResponseERKNS1_4V1_017RadioResponseInfoERKNS4_19SetupDataCallResultE"
    },
    {
     "is_pure":true,
     "mangled_component_name":"_ZN7android8hardware5radio4V1_214IRadioResponse19iccIOForAppResponseERKNS1_4V1_017RadioResponseInfoERKNS4_11IccIoResultE"
    },
    {
     "is_pure":true,
     "mangled_component_name":"_ZN7android8hardware5radio4V1_214IRadioResponse16sendUssdResponseERKNS1_4V1_017RadioResponseInfoE"
    },
    {
     "is_pure":true,
     "mangled_component_name":"_ZN7android8hardware5radio4V1_214IRadioResponse25cancelPendingUssdResponseERKNS1_4V1_017RadioResponseInfoE"
    },
    {
     "is_pure":true,
     "mangled_component_name":"_ZN7android8hardware5radio4V1_214IRadioResponse15getClirResponseERKNS1_4V1_017RadioResponseInfoEii"
    },
    {
     "is_pure":true,
     "mangled_component_name":"_ZN7android8hardware5radio4V1_214IRadioResponse15setClirResponseERKNS1_4V1_017RadioResponseInfoE"
    },
    {
     "is_pure":true,
     "mangled_component_name":"_ZN7android8hardware5radio4V1_214IRadioResponse28getCallForwardStatusResponseERKNS1_4V1_017RadioResponseInfoERKNS0_8hidl_vecINS4_15CallForwardInfoEEE"
    },
    {
     "is_pure":true,
     "mangled_component_name":"_ZN7android8hardware5radio4V1_214IRadioResponse22setCallForwardResponseERKNS1_4V1_017RadioResponseInfoE"
    },
    {
     "is_pure":true,
     "mangled_component_name":"_ZN7android8hardware5radio4V1_214IRadioResponse22getCallWaitingResponseERKNS1_4V1_017RadioResponseInfoEbi"
    },
    {
     "is_pure":true,
     "mangled_component_name":"_ZN7android8hardware5radio4V1_214IRadioResponse22setCallWaitingResponseERKNS1_4V1_017RadioResponseInfoE"
    },
    {
     "is_pure":true,
     "mangled_component_name":"_ZN7android8hardware5radio4V1_214IRadioResponse37acknowledgeLastIncomingGsmSmsResponseERKNS1_4V1_017RadioResponseInfoE"
    },
    {
     "is_pure":true,
     "mangled_component_name":"_ZN7android8hardware5radio4V1_214IRadioResponse18acceptCallResponseERKNS1_4V1_017RadioResponseInfoE"
    },
    {
     "is_pure":true,
     "mangled_component_name":"_ZN7android8hardware5radio4V1_214IRadioResponse26deactivateDataCallResponseERKNS1_4V1_017RadioResponseInfoE"
    },
    {
     "is_pure":true,
     "mangled_component_name":"_ZN7android8hardware5radio4V1_214IRadioResponse29getFacilityLockForAppResponseERKNS1_4V1_017RadioResponseInfoEi"
    },
    {
     "is_pure":true,
     "mangled_component_name":"_ZN7android8hardware5radio4V1_214IRadioResponse29setFacilityLockForAppResponseERKNS1_4V1_017RadioResponseInfoEi"
    },
    {
     "is_pure":true,
     "mangled_component_name":"_ZN7android8hardware5radio4V1_214IRadioResponse26setBarringPasswordResponseERKNS1_4V1_017RadioResponseInfoE"
    },
    {
     "is_pure":true,
     "mangled_component_name":"_ZN7android8hardware5radio4V1_214IRadioResponse31getNetworkSelectionModeResponseERKNS1_4V1_017RadioResponseInfoEb"
    },
    {
     "is_pure":true,
     "mangled_component_name":"_ZN7android8hardware5radio4V1_214IRadioResponse40setNetworkSelectionModeAutomaticResponseERKNS1_4V1_017RadioResponseInfoE"
    },
    {
     "is_pure":true,
     "mangled_component_name":"_ZN7android8hardware5radio4V1_214IRadioResponse37setNetworkSelectionModeManualResponseERKNS1_4V1_017RadioResponseInfoE"
    },
    {
     "is_pure":true,
     "mangled_component_name":"_ZN7android8hardware5radio4V1_214IRadioResponse28getAvailableNetworksResponseERKNS1_4V1_017RadioResponseInfoERKNS0_8hidl_vecINS4_12OperatorInfoEEE"
    },
    {
     "is_pure":true,
     "mangled_component_name":"_ZN7android8hardware5radio4V1_214IRadioResponse17startDtmfResponseERKNS1_4V1_017RadioResponseInfoE"
    },
    {
     "is_pure":true,
     "mangled_component_name":"_ZN7android8hardware5radio4V1_214IRadioResponse16stopDtmfResponseERKNS1_4V1_017RadioResponseInfoE"
    },
    {
     "is_pure":true,
     "mangled_component_name":"_ZN7android8hardware5radio4V1_214IRadioResponse26getBasebandVersionResponseERKNS1_4V1_017RadioResponseInfoERKNS0_11hidl_stringE"
    },
    {
     "is_pure":true,
     "mangled_component_name":"_ZN7android8hardware5radio4V1_214IRadioResponse26separateConnectionResponseERKNS1_4V1_017RadioResponseInfoE"
    },
    {
     "is_pure":true,
     "mangled_component_name":"_ZN7android8hardware5radio4V1_214IRadioResponse15setMuteResponseERKNS1_4V1_017RadioResponseInfoE"
    },
    {
     "is_pure":true,
     "mangled_component_name":"_ZN7android8hardware5radio4V1_214IRadioResponse15getMuteResponseERKNS1_4V1_017RadioResponseInfoEb"
    },
    {
     "is_pure":true,
     "mangled_component_name":"_ZN7android8hardware5radio4V1_214IRadioResponse15getClipResponseERKNS1_4V1_017RadioResponseInfoENS4_10ClipStatusE"
    },
    {
     "is_pure":true,
     "mangled_component_name":"_ZN7android8hardware5radio4V1_214IRadioResponse23getDataCallListResponseERKNS1_4V1_017RadioResponseInfoERKNS0_8hidl_vecINS4_19SetupDataCallResultEEE"
    },
    {
     "is_pure":true,
     "mangled_component_name":"_ZN7android8hardware5radio4V1_214IRadioResponse35setSuppServiceNotificationsResponseERKNS1_4V1_017RadioResponseInfoE"
    },
    {
     "is_pure":true,
     "mangled_component_name":"_ZN7android8hardware5radio4V1_214IRadioResponse21writeSmsToSimResponseERKNS1_4V1_017RadioResponseInfoEi"
    },
    {
     "is_pure":true,
     "mangled_component_name":"_ZN7android8hardware5radio4V1_214IRadioResponse22deleteSmsOnSimResponseERKNS1_4V1_017RadioResponseInfoE"
    },
    {
     "is_pure":true,
     "mangled_component_name":"_ZN7android8hardware5radio4V1_214IRadioResponse19setBandModeResponseERKNS1_4V1_017RadioResponseInfoE"
    },
    {
     "is_pure":true,
     "mangled_component_name":"_ZN7android8hardware5radio4V1_214IRadioResponse29getAvailableBandModesResponseERKNS1_4V1_017RadioResponseInfoERKNS0_8hidl_vecINS4_13RadioBandModeEEE"
    },
    {
     "is_pure":true,
     "mangled_component_name":"_ZN7android8hardware5radio4V1_214IRadioResponse20sendEnvelopeResponseERKNS1_4V1_017RadioResponseInfoERKNS0_11hidl_stringE"
    },
    {
     "is_pure":true,
     "mangled_component_name":"_ZN7android8hardware5radio4V1_214IRadioResponse33sendTerminalResponseToSimResponseERKNS1_4V1_017RadioResponseInfoE"
    },
    {
     "is_pure":true,
     "mangled_component_name":"_ZN7android8hardware5radio4V1_214IRadioResponse40handleStkCallSetupRequestFromSimResponseERKNS1_4V1_017RadioResponseInfoE"
    },
    {
     "is_pure":true,
     "mangled_component_name":"_ZN7android8hardware5radio4V1_214IRadioResponse28explicitCallTransferResponseERKNS1_4V1_017RadioResponseInfoE"
    },
    {
     "is_pure":true,
     "mangled_component_name":"_ZN7android8hardware5radio4V1_214IRadioResponse31setPreferredNetworkTypeResponseERKNS1_4V1_017RadioResponseInfoE"
    },
    {
     "is_pure":true,
     "mangled_component_name":"_ZN7android8hardware5radio4V1_214IRadioResponse31getPreferredNetworkTypeResponseERKNS1_4V1_017RadioResponseInfoENS4_20PreferredNetworkTypeE"
    },
    {
     "is_pure":true,
     "mangled_component_name":"_ZN7android8hardware5radio4V1_214IRadioResponse26getNeighboringCidsResponseERKNS1_4V1_017RadioResponseInfoERKNS0_8hidl_vecINS4_15NeighboringCellEEE"
    },
    {
     "is_pure":true,
     "mangled_component_name":"_ZN7android8hardware5radio4V1_214IRadioResponse26setLocationUpdatesResponseERKNS1_4V1_017RadioResponseInfoE"
    },
    {
     "is_pure":true,
     "mangled_component_name":"_ZN7android8hardware5radio4V1_214IRadioResponse33setCdmaSubscriptionSourceResponseERKNS1_4V1_017RadioResponseInfoE"
    },
    {
     "is_pure":true,
     "mangled_component_name":"_ZN7android8hardware5radio4V1_214IRadioResponse32setCdmaRoamingPreferenceResponseERKNS1_4V1_017RadioResponseInfoE"
    },
    {
     "is_pure":true,
     "mangled_component_name":"_ZN7android8hardware5radio4V1_214IRadioResponse32getCdmaRoamingPreferenceResponseERKNS1_4V1_017RadioResponseInfoENS4_15CdmaRoamingTypeE"
    },
    {
     "is_pure":true,
     "mangled_component_name":"_ZN7android8hardware5radio4V1_214IRadioResponse18setTTYModeResponseERKNS1_4V1_017RadioResponseInfoE"
    },
    {
     "is_pure":true,
     "mangled_component_name":"_ZN7android8hardware5radio4V1_214IRadioResponse18getTTYModeResponseERKNS1_4V1_017RadioResponseInfoENS4_7TtyModeE"
    },
    {
     "is_pure":true,
     "mangled_component_name":"_ZN7android8hardware5radio4V1_214IRadioResponse32setPreferredVoicePrivacyResponseERKNS1_4V1_017RadioResponseInfoE"
    },
    {
     "is_pure":true,
     "mangled_component_name":"_ZN7android8hardware5radio4V1_214IRadioResponse32getPreferredVoicePrivacyResponseERKNS1_4V1_017RadioResponseInfoEb"
    },
    {
     "is_pure":true,
     "mangled_component_name":"_ZN7android8hardware5radio4V1_214IRadioResponse27sendCDMAFeatureCodeResponseERKNS1_4V1_017RadioResponseInfoE"
    },
    {
     "is_pure":true,
     "mangled_component_name":"_ZN7android8hardware5radio4V1_214IRadioResponse21sendBurstDtmfResponseERKNS1_4V1_017RadioResponseInfoE"
    },
    {
     "is_pure":true,
     "mangled_component_name":"_ZN7android8hardware5radio4V1_214IRadioResponse19sendCdmaSmsResponseERKNS1_4V1_017RadioResponseInfoERKNS4_13SendSmsResultE"
    },
    {
     "is_pure":true,
     "mangled_component_name":"_ZN7android8hardware5radio4V1_214IRadioResponse38acknowledgeLastIncomingCdmaSmsResponseERKNS1_4V1_017RadioResponseInfoE"
    },
    {
     "is_pure":true,
     "mangled_component_name":"_ZN7android8hardware5radio4V1_214IRadioResponse29getGsmBroadcastConfigResponseERKNS1_4V1_017RadioResponseInfoERKNS0_8hidl_vecINS4_25GsmBroadcastSmsConfigInfoEEE"
    },
    {
     "is_pure":true,
     "mangled_component_name":"_ZN7android8hardware5radio4V1_214IRadioResponse29setGsmBroadcastConfigResponseERKNS1_4V1_017RadioResponseInfoE"
    },
    {
     "is_pure":true,
     "mangled_component_name":"_ZN7android8hardware5radio4V1_214IRadioResponse33setGsmBroadcastActivationResponseERKNS1_4V1_017RadioResponseInfoE"
    },
    {
     "is_pure":true,
     "mangled_component_name":"_ZN7android8hardware5radio4V1_214IRadioResponse30getCdmaBroadcastConfigResponseERKNS1_4V1_017RadioResponseInfoERKNS0_8hidl_vecINS4_26CdmaBroadcastSmsConfigInfoEEE"
    },
    {
     "is_pure":true,
     "mangled_component_name":"_ZN7android8hardware5radio4V1_214IRadioResponse30setCdmaBroadcastConfigResponseERKNS1_4V1_017RadioResponseInfoE"
    },
    {
     "is_pure":true,
     "mangled_component_name":"_ZN7android8hardware5radio4V1_214IRadioResponse34setCdmaBroadcastActivationResponseERKNS1_4V1_017RadioResponseInfoE"
    },
    {
     "is_pure":true,
     "mangled_component_name":"_ZN7android8hardware5radio4V1_214IRadioResponse27getCDMASubscriptionResponseERKNS1_4V1_017RadioResponseInfoERKNS0_11hidl_stringESA_SA_SA_SA_"
    },
    {
     "is_pure":true,
     "mangled_component_name":"_ZN7android8hardware5radio4V1_214IRadioResponse22writeSmsToRuimResponseERKNS1_4V1_017RadioResponseInfoEj"
    },
    {
     "is_pure":true,
     "mangled_component_name":"_ZN7android8hardware5radio4V1_214IRadioResponse23deleteSmsOnRuimResponseERKNS1_4V1_017RadioResponseInfoE"
    },
    {
     "is_pure":true,
     "mangled_component_name":"_ZN7android8hardware5radio4V1_214IRadioResponse25getDeviceIdentityResponseERKNS1_4V1_017RadioResponseInfoERKNS0_11hidl_stringESA_SA_SA_"
    },
    {
     "is_pure":true,
     "mangled_component_name":"_ZN7android8hardware5radio4V1_214IRadioResponse33exitEmergencyCallbackModeResponseERKNS1_4V1_017RadioResponseInfoE"
    },
    {
     "is_pure":true,
     "mangled_component_name":"_ZN7android8hardware5radio4V1_214IRadioResponse22getSmscAddressResponseERKNS1_4V1_017RadioResponseInfoERKNS0_11hidl_stringE"
    },
    {
     "is_pure":true,
     "mangled_component_name":"_ZN7android8hardware5radio4V1_214IRadioResponse22setSmscAddressResponseERKNS1_4V1_017RadioResponseInfoE"
    },
    {
     "is_pure":true,
     "mangled_component_name":"_ZN7android8hardware5radio4V1_214IRadioResponse29reportSmsMemoryStatusResponseERKNS1_4V1_017RadioResponseInfoE"
    },
    {
     "is_pure":true,
     "mangled_component_name":"_ZN7android8hardware5radio4V1_214IRadioResponse33reportStkServiceIsRunningResponseERKNS1_4V1_017RadioResponseInfoE"
    },
    {
     "is_pure":true,
     "mangled_component_name":"_ZN7android8hardware5radio4V1_214IRadioResponse33getCdmaSubscriptionSourceResponseERKNS1_4V1_017RadioResponseInfoENS4_22CdmaSubscriptionSourceE"
    },
    {
     "is_pure":true,
     "mangled_component_name":"_ZN7android8hardware5radio4V1_214IRadioResponse33requestIsimAuthenticationResponseERKNS1_4V1_017RadioResponseInfoERKNS0_11hidl_stringE"
    },
    {
     "is_pure":true,
     "mangled_component_name":"_ZN7android8hardware5radio4V1_214IRadioResponse40acknowledgeIncomingGsmSmsWithPduResponseERKNS1_4V1_017RadioResponseInfoE"
    },
    {
     "is_pure":true,
     "mangled_component_name":"_ZN7android8hardware5radio4V1_214IRadioResponse30sendEnvelopeWithStatusResponseERKNS1_4V1_017RadioResponseInfoERKNS4_11IccIoResultE"
    },
    {
     "is_pure":true,
     "mangled_component_name":"_ZN7android8hardware5radio4V1_214IRadioResponse31getVoiceRadioTechnologyResponseERKNS1_4V1_017RadioResponseInfoENS4_15RadioTechnologyE"
    },
    {
     "is_pure":true,
     "mangled_component_name":"_ZN7android8hardware5radio4V1_214IRadioResponse23getCellInfoListResponseERKNS1_4V1_017RadioResponseInfoERKNS0_8hidl_vecINS4_8CellInfoEEE"
    },
    {
     "is_pure":true,
     "mangled_component_name":"_ZN7android8hardware5radio4V1_214IRadioResponse27setCellInfoListRateResponseERKNS1_4V1_017RadioResponseInfoE"
    },
    {
     "is_pure":true,
     "mangled_component_name":"_ZN7android8hardware5radio4V1_214IRadioResponse27setInitialAttachApnResponseERKNS1_4V1_017RadioResponseInfoE"
    },
    {
     "is_pure":true,
     "mangled_component_name":"_ZN7android8hardware5radio4V1_214IRadioResponse31getImsRegistrationStateResponseERKNS1_4V1_017RadioResponseInfoEbNS4_21RadioTechnologyFamilyE"
    },
    {
     "is_pure":true,
     "mangled_component_name":"_ZN7android8hardware5radio4V1_214IRadioResponse18sendImsSmsResponseERKNS1_4V1_017RadioResponseInfoERKNS4_13SendSmsResultE"
    },
    {
     "is_pure":true,
     "mangled_component_name":"_ZN7android8hardware5radio4V1_214IRadioResponse35iccTransmitApduBasicChannelResponseERKNS1_4V1_017RadioResponseInfoERKNS4_11IccIoResultE"
    },
    {
     "is_pure":true,
     "mangled_component_name":"_ZN7android8hardware5radio4V1_214IRadioResponse29iccOpenLogicalChannelResponseERKNS1_4V1_017RadioResponseInfoEiRKNS0_8hidl_vecIaEE"
    },
    {
     "is_pure":true,
     "mangled_component_name":"_ZN7android8hardware5radio4V1_214IRadioResponse30iccCloseLogicalChannelResponseERKNS1_4V1_017RadioResponseInfoE"
    },
    {
     "is_pure":true,
     "mangled_component_name":"_ZN7android8hardware5radio4V1_214IRadioResponse37iccTransmitApduLogicalChannelResponseERKNS1_4V1_017RadioResponseInfoERKNS4_11IccIoResultE"
    },
    {
     "is_pure":true,
     "mangled_component_name":"_ZN7android8hardware5radio4V1_214IRadioResponse18nvReadItemResponseERKNS1_4V1_017RadioResponseInfoERKNS0_11hidl_stringE"
    },
    {
     "is_pure":true,
     "mangled_component_name":"_ZN7android8hardware5radio4V1_214IRadioResponse19nvWriteItemResponseERKNS1_4V1_017RadioResponseInfoE"
    },
    {
     "is_pure":true,
     "mangled_component_name":"_ZN7android8hardware5radio4V1_214IRadioResponse22nvWriteCdmaPrlResponseERKNS1_4V1_017RadioResponseInfoE"
    },
    {
     "is_pure":true,
     "mangled_component_name":"_ZN7android8hardware5radio4V1_214IRadioResponse21nvResetConfigResponseERKNS1_4V1_017RadioResponseInfoE"
    },
    {
     "is_pure":true,
     "mangled_component_name":"_ZN7android8hardware5radio4V1_214IRadioResponse27setUiccSubscriptionResponseERKNS1_4V1_017RadioResponseInfoE"
    },
    {
     "is_pure":true,
     "mangled_component_name":"_ZN7android8hardware5radio4V1_214IRadioResponse22setDataAllowedResponseERKNS1_4V1_017RadioResponseInfoE"
    },
    {
     "is_pure":true,
     "mangled_component_name":"_ZN7android8hardware5radio4V1_214IRadioResponse25getHardwareConfigResponseERKNS1_4V1_017RadioResponseInfoERKNS0_8hidl_vecINS4_14HardwareConfigEEE"
    },
    {
     "is_pure":true,
     "mangled_component_name":"_ZN7android8hardware5radio4V1_214IRadioResponse35requestIccSimAuthenticationResponseERKNS1_4V1_017RadioResponseInfoERKNS4_11IccIoResultE"
    },
    {
     "is_pure":true,
     "mangled_component_name":"_ZN7android8hardware5radio4V1_214IRadioResponse22setDataProfileResponseERKNS1_4V1_017RadioResponseInfoE"
    },
    {
     "is_pure":true,
     "mangled_component_name":"_ZN7android8hardware5radio4V1_214IRadioResponse23requestShutdownResponseERKNS1_4V1_017RadioResponseInfoE"
    },
    {
     "is_pure":true,
     "mangled_component_name":"_ZN7android8hardware5radio4V1_214IRadioResponse26getRadioCapabilityResponseERKNS1_4V1_017RadioResponseInfoERKNS4_15RadioCapabilityE"
    },
    {
     "is_pure":true,
     "mangled_component_name":"_ZN7android8hardware5radio4V1_214IRadioResponse26setRadioCapabilityResponseERKNS1_4V1_017RadioResponseInfoERKNS4_15RadioCapabilityE"
    },
    {
     "is_pure":true,
     "mangled_component_name":"_ZN7android8hardware5radio4V1_214IRadioResponse23startLceServiceResponseERKNS1_4V1_017RadioResponseInfoERKNS4_13LceStatusInfoE"
    },
    {
     "is_pure":true,
     "mangled_component_name":"_ZN7android8hardware5radio4V1_214IRadioResponse22stopLceServiceResponseERKNS1_4V1_017RadioResponseInfoERKNS4_13LceStatusInfoE"
    },
    {
     "is_pure":true,
     "mangled_component_name":"_ZN7android8hardware5radio4V1_214IRadioResponse19pullLceDataResponseERKNS1_4V1_017RadioResponseInfoERKNS4_11LceDataInfoE"
    },
    {
     "is_pure":true,
     "mangled_component_name":"_ZN7android8hardware5radio4V1_214IRadioResponse28getModemActivityInfoResponseERKNS1_4V1_017RadioResponseInfoERKNS4_17ActivityStatsInfoE"
    },
    {
     "is_pure":true,
     "mangled_component_name":"_ZN7android8hardware5radio4V1_214IRadioResponse26setAllowedCarriersResponseERKNS1_4V1_017RadioResponseInfoEi"
    },
    {
     "is_pure":true,
     "mangled_component_name":"_ZN7android8hardware5radio4V1_214IRadioResponse26getAllowedCarriersResponseERKNS1_4V1_017RadioResponseInfoEbRKNS4_19CarrierRestrictionsE"
    },
    {
     "is_pure":true,
     "mangled_component_name":"_ZN7android8hardware5radio4V1_214IRadioResponse23sendDeviceStateResponseERKNS1_4V1_017RadioResponseInfoE"
    },
    {
     "is_pure":true,
     "mangled_component_name":"_ZN7android8hardware5radio4V1_214IRadioResponse27setIndicationFilterResponseERKNS1_4V1_017RadioResponseInfoE"
    },
    {
     "is_pure":true,
     "mangled_component_name":"_ZN7android8hardware5radio4V1_214IRadioResponse23setSimCardPowerResponseERKNS1_4V1_017RadioResponseInfoE"
    },
    {
     "is_pure":true,
     "mangled_component_name":"_ZN7android8hardware5radio4V1_214IRadioResponse18acknowledgeRequestEi"
    },
    {
     "is_pure":true,
     "mangled_component_name":"_ZN7android8hardware5radio4V1_214IRadioResponse39setCarrierInfoForImsiEncryptionResponseERKNS1_4V1_017RadioResponseInfoE"
    },
    {
     "is_pure":true,
     "mangled_component_name":"_ZN7android8hardware5radio4V1_214IRadioResponse27setSimCardPowerResponse_1_1ERKNS1_4V1_017RadioResponseInfoE"
    },
    {
     "is_pure":true,
     "mangled_component_name":"_ZN7android8hardware5radio4V1_214IRadioResponse24startNetworkScanResponseERKNS1_4V1_017RadioResponseInfoE"
    },
    {
     "is_pure":true,
     "mangled_component_name":"_ZN7android8hardware5radio4V1_214IRadioResponse23stopNetworkScanResponseERKNS1_4V1_017RadioResponseInfoE"
    },
    {
     "is_pure":true,
     "mangled_component_name":"_ZN7android8hardware5radio4V1_214IRadioResponse22startKeepaliveResponseERKNS1_4V1_017RadioResponseInfoERKNS1_4V1_115KeepaliveStatusE"
    },
    {
     "is_pure":true,
     "mangled_component_name":"_ZN7android8hardware5radio4V1_214IRadioResponse21stopKeepaliveResponseERKNS1_4V1_017RadioResponseInfoE"
    },
    {
     "is_pure":true,
     "mangled_component_name":"_ZN7android8hardware5radio4V1_214IRadioResponse27getCellInfoListResponse_1_2ERKNS1_4V1_017RadioResponseInfoERKNS0_8hidl_vecINS2_8CellInfoEEE"
    },
    {
     "is_pure":true,
     "mangled_component_name":"_ZN7android8hardware5radio4V1_214IRadioResponse28getIccCardStatusResponse_1_2ERKNS1_4V1_017RadioResponseInfoERKNS2_10CardStatusE"
    },
    {
     "is_pure":true,
     "mangled_component_name":"_ZN7android8hardware5radio4V1_214IRadioResponse42setSignalStrengthReportingCriteriaResponseERKNS1_4V1_017RadioResponseInfoE"
    },
    {
     "is_pure":true,
     "mangled_component_name":"_ZN7android8hardware5radio4V1_214IRadioResponse40setLinkCapacityReportingCriteriaResponseERKNS1_4V1_017RadioResponseInfoE"
    },
    {
     "is_pure":true,
     "mangled_component_name":"_ZN7android8hardware5radio4V1_214IRadioResponse27getCurrentCallsResponse_1_2ERKNS1_4V1_017RadioResponseInfoERKNS0_8hidl_vecINS2_4CallEEE"
    },
    {
     "is_pure":true,
     "mangled_component_name":"_ZN7android8hardware5radio4V1_214IRadioResponse29getSignalStrengthResponse_1_2ERKNS1_4V1_017RadioResponseInfoERKNS2_14SignalStrengthE"
    },
    {
     "is_pure":true,
     "mangled_component_name":"_ZN7android8hardware5radio4V1_214IRadioResponse37getVoiceRegistrationStateResponse_1_2ERKNS1_4V1_017RadioResponseInfoERKNS2_19VoiceRegStateResultE"
    },
    {
     "is_pure":true,
     "mangled_component_name":"_ZN7android8hardware5radio4V1_214IRadioResponse36getDataRegistrationStateResponse_1_2ERKNS1_4V1_017RadioResponseInfoERKNS2_18DataRegStateResultE"
    },
    {
     "kind":"vcall_offset"
    },
    {
     "kind":"vcall_offset"
    },
    {
     "kind":"vcall_offset"
    },
    {
     "kind":"vcall_offset"
    },
    {
     "kind":"vcall_offset",
     "component_value":-8
    },
    {
     "kind":"offset_to_top",
     "component_value":-8
    },
    {
     "kind":"rtti",
     "mangled_component_name":"_ZTIN7android8hardware5radio4V1_214IRadioResponseE"
    },
    {
     "kind":"complete_dtor_pointer",
     "mangled_component_name":"_ZTv0_n24_N7android8hardware5radio4V1_214IRadioResponseD1Ev"
    },
    {
     "kind":"deleting_dtor_pointer",
     "mangled_component_name":"_ZTv0_n24_N7android8hardware5radio4V1_214IRadioResponseD0Ev"
    },
    {
     "mangled_component_name":"_ZN7android7RefBase10onFirstRefEv"
    },
    {
     "mangled_component_name":"_ZN7android7RefBase15onLastStrongRefEPKv"
    },
    {
     "mangled_component_name":"_ZN7android7RefBase20onIncStrongAttemptedEjPKv"
    },
    {
     "mangled_component_name":"_ZN7android7RefBase13onLastWeakRefEPKv"
    }
   ],
   "unique_id":"_ZTSN7android8hardware5radio4V1_214IRadioResponseE"
  },
  {
   "vtable_components":[
    {
     "kind":"vbase_offset",
     "component_value":200
    },
    {
     "kind":"offset_to_top"
    },
    {
     "kind":"rtti",
     "mangled_component_name":"_ZTIN7android8hardware5radio4V1_217BpHwRadioResponseE"
    },
    {
     "mangled_component_name":"_ZNK7android8hardware5radio4V1_217BpHwRadioResponse8isRemoteEv"
    },
    {
     "mangled_component_name":"_ZN7android8hardware5radio4V1_217BpHwRadioResponse14interfaceChainENSt3__18functionIFvRKNS0_8hidl_vecINS0_11hidl_stringEEEEEE"
    },
    {
     "mangled_component_name":"_ZN7android8hardware5radio4V1_217BpHwRadioResponse5debugERKNS0_11hidl_handleERKNS0_8hidl_vecINS0_11hidl_stringEEE"
    },
    {
     "mangled_component_name":"_ZN7android8hardware5radio4V1_217BpHwRadioResponse19interfaceDescriptorENSt3__18functionIFvRKNS0_11hidl_stringEEEE"
    },
    {
     "mangled_component_name":"_ZN7android8hardware5radio4V1_217BpHwRadioResponse12getHashChainENSt3__18functionIFvRKNS0_8hidl_vecINS0_10hidl_arrayIhLm32EJEEEEEEEE"
    },
    {
     "mangled_component_name":"_ZN7android8hardware5radio4V1_217BpHwRadioResponse21setHALInstrumentationEv"
    },
    {
     "mangled_component_name":"_ZN7android8hardware5radio4V1_217BpHwRadioResponse11linkToDeathERKNS_2spINS0_20hidl_death_recipientEEEm"
    },
    {
     "mangled_component_name":"_ZN7android8hardware5radio4V1_217BpHwRadioResponse4pingEv"
    },
    {
     "mangled_component_name":"_ZN7android8hardware5radio4V1_217BpHwRadioResponse12getDebugInfoENSt3__18functionIFvRKNS_4hidl4base4V1_09DebugInfoEEEE"
    },
    {
     "mangled_component_name":"_ZN7android8hardware5radio4V1_217BpHwRadioResponse21notifySyspropsChangedEv"
    },
    {
     "mangled_component_name":"_ZN7android8hardware5radio4V1_217BpHwRadioResponse13unlinkToDeathERKNS_2spINS0_20hidl_death_recipientEEE"
    },
    {
     "kind":"complete_dtor_pointer",
     "mangled_component_name":"_ZN7android8hardware5radio4V1_217BpHwRadioResponseD1Ev"
    },
    {
     "kind":"deleting_dtor_pointer",
     "mangled_component_name":"_ZN7android8hardware5radio4V1_217BpHwRadioResponseD0Ev"
    },
    {
     "mangled_component_name":"_ZN7android8hardware5radio4V1_217BpHwRadioResponse24getIccCardStatusResponseERKNS1_4V1_017RadioResponseInfoERKNS4_10CardStatusE"
    },
    {
     "mangled_component_name":"_ZN7android8hardware5radio4V1_217BpHwRadioResponse26supplyIccPinForAppResponseERKNS1_4V1_017RadioResponseInfoEi"
    },
    {
     "mangled_component_name":"_ZN7android8hardware5radio4V1_217BpHwRadioResponse26supplyIccPukForAppResponseERKNS1_4V1_017RadioResponseInfoEi"
    },
    {
     "mangled_component_name":"_ZN7android8hardware5radio4V1_217BpHwRadioResponse27supplyIccPin2ForAppResponseERKNS1_4V1_017RadioResponseInfoEi"
    },
    {
     "mangled_component_name":"_ZN7android8hardware5radio4V1_217BpHwRadioResponse27supplyIccPuk2ForAppResponseERKNS1_4V1_017RadioResponseInfoEi"
    },
    {
     "mangled_component_name":"_ZN7android8hardware5radio4V1_217BpHwRadioResponse26changeIccPinForAppResponseERKNS1_4V1_017RadioResponseInfoEi"
    },
    {
     "mangled_component_name":"_ZN7android8hardware5radio4V1_217BpHwRadioResponse27changeIccPin2ForAppResponseERKNS1_4V1_017RadioResponseInfoEi"
    },
    {
     "mangled_component_name":"_ZN7android8hardware5radio4V1_217BpHwRadioResponse38supplyNetworkDepersonalizationResponseERKNS1_4V1_017RadioResponseInfoEi"
    },
    {
     "mangled_component_name":"_ZN7android8hardware5radio4V1_217BpHwRadioResponse23getCurrentCallsResponseERKNS1_4V1_017RadioResponseInfoERKNS0_8hidl_vecINS4_4CallEEE"
    },
    {
     "mangled_component_name":"_ZN7android8hardware5radio4V1_217BpHwRadioResponse12dialResponseERKNS1_4V1_017RadioResponseInfoE"
    },
    {
     "mangled_component_name":"_ZN7android8hardware5radio4V1_217BpHwRadioResponse21getIMSIForAppResponseERKNS1_4V1_017RadioResponseInfoERKNS0_11hidl_stringE"
    },
    {
     "mangled_component_name":"_ZN7android8hardware5radio4V1_217BpHwRadioResponse24hangupConnectionResponseERKNS1_4V1_017RadioResponseInfoE"
    },
    {
     "mangled_component_name":"_ZN7android8hardware5radio4V1_217BpHwRadioResponse33hangupWaitingOrBackgroundResponseERKNS1_4V1_017RadioResponseInfoE"
    },
    {
     "mangled_component_name":"_ZN7android8hardware5radio4V1_217BpHwRadioResponse40hangupForegroundResumeBackgroundResponseERKNS1_4V1_017RadioResponseInfoE"
    },
    {
     "mangled_component_name":"_ZN7android8hardware5radio4V1_217BpHwRadioResponse39switchWaitingOrHoldingAndActiveResponseERKNS1_4V1_017RadioResponseInfoE"
    },
    {
     "mangled_component_name":"_ZN7android8hardware5radio4V1_217BpHwRadioResponse18conferenceResponseERKNS1_4V1_017RadioResponseInfoE"
    },
    {
     "mangled_component_name":"_ZN7android8hardware5radio4V1_217BpHwRadioResponse18rejectCallResponseERKNS1_4V1_017RadioResponseInfoE"
    },
    {
     "mangled_component_name":"_ZN7android8hardware5radio4V1_217BpHwRadioResponse28getLastCallFailCauseResponseERKNS1_4V1_017RadioResponseInfoERKNS4_21LastCallFailCauseInfoE"
    },
    {
     "mangled_component_name":"_ZN7android8hardware5radio4V1_217BpHwRadioResponse25getSignalStrengthResponseERKNS1_4V1_017RadioResponseInfoERKNS4_14SignalStrengthE"
    },
    {
     "mangled_component_name":"_ZN7android8hardware5radio4V1_217BpHwRadioResponse33getVoiceRegistrationStateResponseERKNS1_4V1_017RadioResponseInfoERKNS4_19VoiceRegStateResultE"
    },
    {
     "mangled_component_name":"_ZN7android8hardware5radio4V1_217BpHwRadioResponse32getDataRegistrationStateResponseERKNS1_4V1_017RadioResponseInfoERKNS4_18DataRegStateResultE"
    },
    {
     "mangled_component_name":"_ZN7android8hardware5radio4V1_217BpHwRadioResponse19getOperatorResponseERKNS1_4V1_017RadioResponseInfoERKNS0_11hidl_stringESA_SA_"
    },
    {
     "mangled_component_name":"_ZN7android8hardware5radio4V1_217BpHwRadioResponse21setRadioPowerResponseERKNS1_4V1_017RadioResponseInfoE"
    },
    {
     "mangled_component_name":"_ZN7android8hardware5radio4V1_217BpHwRadioResponse16sendDtmfResponseERKNS1_4V1_017RadioResponseInfoE"
    },
    {
     "mangled_component_name":"_ZN7android8hardware5radio4V1_217BpHwRadioResponse15sendSmsResponseERKNS1_4V1_017RadioResponseInfoERKNS4_13SendSmsResultE"
    },
    {
     "mangled_component_name":"_ZN7android8hardware5radio4V1_217BpHwRadioResponse25sendSMSExpectMoreResponseERKNS1_4V1_017RadioResponseInfoERKNS4_13SendSmsResultE"
    },
    {
     "mangled_component_name":"_ZN7android8hardware5radio4V1_217BpHwRadioResponse21setupDataCallResponseERKNS1_4V1_017RadioResponseInfoERKNS4_19SetupDataCallResultE"
    },
    {
     "mangled_component_name":"_ZN7android8hardware5radio4V1_217BpHwRadioResponse19iccIOForAppResponseERKNS1_4V1_017RadioResponseInfoERKNS4_11IccIoResultE"
    },
    {
     "mangled_component_name":"_ZN7android8hardware5radio4V1_217BpHwRadioResponse16sendUssdResponseERKNS1_4V1_017RadioResponseInfoE"
    },
    {
     "mangled_component_name":"_ZN7android8hardware5radio4V1_217BpHwRadioResponse25cancelPendingUssdResponseERKNS1_4V1_017RadioResponseInfoE"
    },
    {
     "mangled_component_name":"_ZN7android8hardware5radio4V1_217BpHwRadioResponse15getClirResponseERKNS1_4V1_017RadioResponseInfoEii"
    },
    {
     "mangled_component_name":"_ZN7android8hardware5radio4V1_217BpHwRadioResponse15setClirResponseERKNS1_4V1_017RadioResponseInfoE"
    },
    {
     "mangled_component_name":"_ZN7android8hardware5radio4V1_217BpHwRadioResponse28getCallForwardStatusResponseERKNS1_4V1_017RadioResponseInfoERKNS0_8hidl_vecINS4_15CallForwardInfoEEE"
    },
    {
     "mangled_component_name":"_ZN7android8hardware5radio4V1_217BpHwRadioResponse22setCallForwardResponseERKNS1_4V1_017RadioResponseInfoE"
    },
    {
     "mangled_component_name":"_ZN7android8hardware5radio4V1_217BpHwRadioResponse22getCallWaitingResponseERKNS1_4V1_017RadioResponseInfoEbi"
    },
    {
     "mangled_component_name":"_ZN7android8hardware5radio4V1_217BpHwRadioResponse22setCallWaitingResponseERKNS1_4V1_017RadioResponseInfoE"
    },
    {
     "mangled_component_name":"_ZN7android8hardware5radio4V1_217BpHwRadioResponse37acknowledgeLastIncomingGsmSmsResponseERKNS1_4V1_017RadioResponseInfoE"
    },
    {
     "mangled_component_name":"_ZN7android8hardware5radio4V1_217BpHwRadioResponse18acceptCallResponseERKNS1_4V1_017RadioResponseInfoE"
    },
    {
     "mangled_component_name":"_ZN7android8hardware5radio4V1_217BpHwRadioResponse26deactivateDataCallResponseERKNS1_4V1_017RadioResponseInfoE"
    },
    {
     "mangled_component_name":"_ZN7android8hardware5radio4V1_217BpHwRadioResponse29getFacilityLockForAppResponseERKNS1_4V1_017RadioResponseInfoEi"
    },
    {
     "mangled_component_name":"_ZN7android8hardware5radio4V1_217BpHwRadioResponse29setFacilityLockForAppResponseERKNS1_4V1_017RadioResponseInfoEi"
    },
    {
     "mangled_component_name":"_ZN7android8hardware5radio4V1_217BpHwRadioResponse26setBarringPasswordResponseERKNS1_4V1_017RadioResponseInfoE"
    },
    {
     "mangled_component_name":"_ZN7android8hardware5radio4V1_217BpHwRadioResponse31getNetworkSelectionModeResponseERKNS1_4V1_017RadioResponseInfoEb"
    },
    {
     "mangled_component_name":"_ZN7android8hardware5radio4V1_217BpHwRadioResponse40setNetworkSelectionModeAutomaticResponseERKNS1_4V1_017RadioResponseInfoE"
    },
    {
     "mangled_component_name":"_ZN7android8hardware5radio4V1_217BpHwRadioResponse37setNetworkSelectionModeManualResponseERKNS1_4V1_017RadioResponseInfoE"
    },
    {
     "mangled_component_name":"_ZN7android8hardware5radio4V1_217BpHwRadioResponse28getAvailableNetworksResponseERKNS1_4V1_017RadioResponseInfoERKNS0_8hidl_vecINS4_12OperatorInfoEEE"
    },
    {
     "mangled_component_name":"_ZN7android8hardware5radio4V1_217BpHwRadioResponse17startDtmfResponseERKNS1_4V1_017RadioResponseInfoE"
    },
    {
     "mangled_component_name":"_ZN7android8hardware5radio4V1_217BpHwRadioResponse16stopDtmfResponseERKNS1_4V1_017RadioResponseInfoE"
    },
    {
     "mangled_component_name":"_ZN7android8hardware5radio4V1_217BpHwRadioResponse26getBasebandVersionResponseERKNS1_4V1_017RadioResponseInfoERKNS0_11hidl_stringE"
    },
    {
     "mangled_component_name":"_ZN7android8hardware5radio4V1_217BpHwRadioResponse26separateConnectionResponseERKNS1_4V1_017RadioResponseInfoE"
    },
    {
     "mangled_component_name":"_ZN7android8hardware5radio4V1_217BpHwRadioResponse15setMuteResponseERKNS1_4V1_017RadioResponseInfoE"
    },
    {
     "mangled_component_name":"_ZN7android8hardware5radio4V1_217BpHwRadioResponse15getMuteResponseERKNS1_4V1_017RadioResponseInfoEb"
    },
    {
     "mangled_component_name":"_ZN7android8hardware5radio4V1_217BpHwRadioResponse15getClipResponseERKNS1_4V1_017RadioResponseInfoENS4_10ClipStatusE"
    },
    {
     "mangled_component_name":"_ZN7android8hardware5radio4V1_217BpHwRadioResponse23getDataCallListResponseERKNS1_4V1_017RadioResponseInfoERKNS0_8hidl_vecINS4_19SetupDataCallResultEEE"
    },
    {
     "mangled_component_name":"_ZN7android8hardware5radio4V1_217BpHwRadioResponse35setSuppServiceNotificationsResponseERKNS1_4V1_017RadioResponseInfoE"
    },
    {
     "mangled_component_name":"_ZN7android8hardware5radio4V1_217BpHwRadioResponse21writeSmsToSimResponseERKNS1_4V1_017RadioResponseInfoEi"
    },
    {
     "mangled_component_name":"_ZN7android8hardware5radio4V1_217BpHwRadioResponse22deleteSmsOnSimResponseERKNS1_4V1_017RadioResponseInfoE"
    },
    {
     "mangled_component_name":"_ZN7android8hardware5radio4V1_217BpHwRadioResponse19setBandModeResponseERKNS1_4V1_017RadioResponseInfoE"
    },
    {
     "mangled_component_name":"_ZN7android8hardware5radio4V1_217BpHwRadioResponse29getAvailableBandModesResponseERKNS1_4V1_017RadioResponseInfoERKNS0_8hidl_vecINS4_13RadioBandModeEEE"
    },
    {
     "mangled_component_name":"_ZN7android8hardware5radio4V1_217BpHwRadioResponse20sendEnvelopeResponseERKNS1_4V1_017RadioResponseInfoERKNS0_11hidl_stringE"
    },
    {
     "mangled_component_name":"_ZN7android8hardware5radio4V1_217BpHwRadioResponse33sendTerminalResponseToSimResponseERKNS1_4V1_017RadioResponseInfoE"
    },
    {
     "mangled_component_name":"_ZN7android8hardware5radio4V1_217BpHwRadioResponse40handleStkCallSetupRequestFromSimResponseERKNS1_4V1_017RadioResponseInfoE"
    },
    {
     "mangled_component_name":"_ZN7android8hardware5radio4V1_217BpHwRadioResponse28explicitCallTransferResponseERKNS1_4V1_017RadioResponseInfoE"
    },
    {
     "mangled_component_name":"_ZN7android8hardware5radio4V1_217BpHwRadioResponse31setPreferredNetworkTypeResponseERKNS1_4V1_017RadioResponseInfoE"
    },
    {
     "mangled_component_name":"_ZN7android8hardware5radio4V1_217BpHwRadioResponse31getPreferredNetworkTypeResponseERKNS1_4V1_017RadioResponseInfoENS4_20PreferredNetworkTypeE"
    },
    {
     "mangled_component_name":"_ZN7android8hardware5radio4V1_217BpHwRadioResponse26getNeighboringCidsResponseERKNS1_4V1_017RadioResponseInfoERKNS0_8hidl_vecINS4_15NeighboringCellEEE"
    },
    {
     "mangled_component_name":"_ZN7android8hardware5radio4V1_217BpHwRadioResponse26setLocationUpdatesResponseERKNS1_4V1_017RadioResponseInfoE"
    },
    {
     "mangled_component_name":"_ZN7android8hardware5radio4V1_217BpHwRadioResponse33setCdmaSubscriptionSourceResponseERKNS1_4V1_017RadioResponseInfoE"
    },
    {
     "mangled_component_name":"_ZN7android8hardware5radio4V1_217BpHwRadioResponse32setCdmaRoamingPreferenceResponseERKNS1_4V1_017RadioResponseInfoE"
    },
    {
     "mangled_component_name":"_ZN7android8hardware5radio4V1_217BpHwRadioResponse32getCdmaRoamingPreferenceResponseERKNS1_4V1_017RadioResponseInfoENS4_15CdmaRoamingTypeE"
    },
    {
     "mangled_component_name":"_ZN7android8hardware5radio4V1_217BpHwRadioResponse18setTTYModeResponseERKNS1_4V1_017RadioResponseInfoE"
    },
    {
     "mangled_component_name":"_ZN7android8hardware5radio4V1_217BpHwRadioResponse18getTTYModeResponseERKNS1_4V1_017RadioResponseInfoENS4_7TtyModeE"
    },
    {
     "mangled_component_name":"_ZN7android8hardware5radio4V1_217BpHwRadioResponse32setPreferredVoicePrivacyResponseERKNS1_4V1_017RadioResponseInfoE"
    },
    {
     "mangled_component_name":"_ZN7android8hardware5radio4V1_217BpHwRadioResponse32getPreferredVoicePrivacyResponseERKNS1_4V1_017RadioResponseInfoEb"
    },
    {
     "mangled_component_name":"_ZN7android8hardware5radio4V1_217BpHwRadioResponse27sendCDMAFeatureCodeResponseERKNS1_4V1_017RadioResponseInfoE"
    },
    {
     "mangled_component_name":"_ZN7android8hardware5radio4V1_217BpHwRadioResponse21sendBurstDtmfResponseERKNS1_4V1_017RadioResponseInfoE"
    },
    {
     "mangled_component_name":"_ZN7android8hardware5radio4V1_217BpHwRadioResponse19sendCdmaSmsResponseERKNS1_4V1_017RadioResponseInfoERKNS4_13SendSmsResultE"
    },
    {
     "mangled_component_name":"_ZN7android8hardware5radio4V1_217BpHwRadioResponse38acknowledgeLastIncomingCdmaSmsResponseERKNS1_4V1_017RadioResponseInfoE"
    },
    {
     "mangled_component_name":"_ZN7android8hardware5radio4V1_217BpHwRadioResponse29getGsmBroadcastConfigResponseERKNS1_4V1_017RadioResponseInfoERKNS0_8hidl_vecINS4_25GsmBroadcastSmsConfigInfoEEE"
    },
    {
     "mangled_component_name":"_ZN7android8hardware5radio4V1_217BpHwRadioResponse29setGsmBroadcastConfigResponseERKNS1_4V1_017RadioResponseInfoE"
    },
    {
     "mangled_component_name":"_ZN7android8hardware5radio4V1_217BpHwRadioResponse33setGsmBroadcastActivationResponseERKNS1_4V1_017RadioResponseInfoE"
    },
    {
     "mangled_component_name":"_ZN7android8hardware5radio4V1_217BpHwRadioResponse30getCdmaBroadcastConfigResponseERKNS1_4V1_017RadioResponseInfoERKNS0_8hidl_vecINS4_26CdmaBroadcastSmsConfigInfoEEE"
    },
    {
     "mangled_component_name":"_ZN7android8hardware5radio4V1_217BpHwRadioResponse30setCdmaBroadcastConfigResponseERKNS1_4V1_017RadioResponseInfoE"
    },
    {
     "mangled_component_name":"_ZN7android8hardware5radio4V1_217BpHwRadioResponse34setCdmaBroadcastActivationResponseERKNS1_4V1_017RadioResponseInfoE"
    },
    {
     "mangled_component_name":"_ZN7android8hardware5radio4V1_217BpHwRadioResponse27getCDMASubscriptionResponseERKNS1_4V1_017RadioResponseInfoERKNS0_11hidl_stringESA_SA_SA_SA_"
    },
    {
     "mangled_component_name":"_ZN7android8hardware5radio4V1_217BpHwRadioResponse22writeSmsToRuimResponseERKNS1_4V1_017RadioResponseInfoEj"
    },
    {
     "mangled_component_name":"_ZN7android8hardware5radio4V1_217BpHwRadioResponse23deleteSmsOnRuimResponseERKNS1_4V1_017RadioResponseInfoE"
    },
    {
     "mangled_component_name":"_ZN7android8hardware5radio4V1_217BpHwRadioResponse25getDeviceIdentityResponseERKNS1_4V1_017RadioResponseInfoERKNS0_11hidl_stringESA_SA_SA_"
    },
    {
     "mangled_component_name":"_ZN7android8hardware5radio4V1_217BpHwRadioResponse33exitEmergencyCallbackModeResponseERKNS1_4V1_017RadioResponseInfoE"
    },
    {
     "mangled_component_name":"_ZN7android8hardware5radio4V1_217BpHwRadioResponse22getSmscAddressResponseERKNS1_4V1_017RadioResponseInfoERKNS0_11hidl_stringE"
    },
    {
     "mangled_component_name":"_ZN7android8hardware5radio4V1_217BpHwRadioResponse22setSmscAddressResponseERKNS1_4V1_017RadioResponseInfoE"
    },
    {
     "mangled_component_name":"_ZN7android8hardware5radio4V1_217BpHwRadioResponse29reportSmsMemoryStatusResponseERKNS1_4V1_017RadioResponseInfoE"
    },
    {
     "mangled_component_name":"_ZN7android8hardware5radio4V1_217BpHwRadioResponse33reportStkServiceIsRunningResponseERKNS1_4V1_017RadioResponseInfoE"
    },
    {
     "mangled_component_name":"_ZN7android8hardware5radio4V1_217BpHwRadioResponse33getCdmaSubscriptionSourceResponseERKNS1_4V1_017RadioResponseInfoENS4_22CdmaSubscriptionSourceE"
    },
    {
     "mangled_component_name":"_ZN7android8hardware5radio4V1_217BpHwRadioResponse33requestIsimAuthenticationResponseERKNS1_4V1_017RadioResponseInfoERKNS0_11hidl_stringE"
    },
    {
     "mangled_component_name":"_ZN7android8hardware5radio4V1_217BpHwRadioResponse40acknowledgeIncomingGsmSmsWithPduResponseERKNS1_4V1_017RadioResponseInfoE"
    },
    {
     "mangled_component_name":"_ZN7android8hardware5radio4V1_217BpHwRadioResponse30sendEnvelopeWithStatusResponseERKNS1_4V1_017RadioResponseInfoERKNS4_11IccIoResultE"
    },
    {
     "mangled_component_name":"_ZN7android8hardware5radio4V1_217BpHwRadioResponse31getVoiceRadioTechnologyResponseERKNS1_4V1_017RadioResponseInfoENS4_15RadioTechnologyE"
    },
    {
     "mangled_component_name":"_ZN7android8hardware5radio4V1_217BpHwRadioResponse23getCellInfoListResponseERKNS1_4V1_017RadioResponseInfoERKNS0_8hidl_vecINS4_8CellInfoEEE"
    },
    {
     "mangled_component_name":"_ZN7android8hardware5radio4V1_217BpHwRadioResponse27setCellInfoListRateResponseERKNS1_4V1_017RadioResponseInfoE"
    },
    {
     "mangled_component_name":"_ZN7android8hardware5radio4V1_217BpHwRadioResponse27setInitialAttachApnResponseERKNS1_4V1_017RadioResponseInfoE"
    },
    {
     "mangled_component_name":"_ZN7android8hardware5radio4V1_217BpHwRadioResponse31getImsRegistrationStateResponseERKNS1_4V1_017RadioResponseInfoEbNS4_21RadioTechnologyFamilyE"
    },
    {
     "mangled_component_name":"_ZN7android8hardware5radio4V1_217BpHwRadioResponse18sendImsSmsResponseERKNS1_4V1_017RadioResponseInfoERKNS4_13SendSmsResultE"
    },
    {
     "mangled_component_name":"_ZN7android8hardware5radio4V1_217BpHwRadioResponse35iccTransmitApduBasicChannelResponseERKNS1_4V1_017RadioResponseInfoERKNS4_11IccIoResultE"
    },
    {
     "mangled_component_name":"_ZN7android8hardware5radio4V1_217BpHwRadioResponse29iccOpenLogicalChannelResponseERKNS1_4V1_017RadioResponseInfoEiRKNS0_8hidl_vecIaEE"
    },
    {
     "mangled_component_name":"_ZN7android8hardware5radio4V1_217BpHwRadioResponse30iccCloseLogicalChannelResponseERKNS1_4V1_017RadioResponseInfoE"
    },
    {
     "mangled_component_name":"_ZN7android8hardware5radio4V1_217BpHwRadioResponse37iccTransmitApduLogicalChannelResponseERKNS1_4V1_017RadioResponseInfoERKNS4_11IccIoResultE"
    },
    {
     "mangled_component_name":"_ZN7android8hardware5radio4V1_217BpHwRadioResponse18nvReadItemResponseERKNS1_4V1_017RadioResponseInfoERKNS0_11hidl_stringE"
    },
    {
     "mangled_component_name":"_ZN7android8hardware5radio4V1_217BpHwRadioResponse19nvWriteItemResponseERKNS1_4V1_017RadioResponseInfoE"
    },
    {
     "mangled_component_name":"_ZN7android8hardware5radio4V1_217BpHwRadioResponse22nvWriteCdmaPrlResponseERKNS1_4V1_017RadioResponseInfoE"
    },
    {
     "mangled_component_name":"_ZN7android8hardware5radio4V1_217BpHwRadioResponse21nvResetConfigResponseERKNS1_4V1_017RadioResponseInfoE"
    },
    {
     "mangled_component_name":"_ZN7android8hardware5radio4V1_217BpHwRadioResponse27setUiccSubscriptionResponseERKNS1_4V1_017RadioResponseInfoE"
    },
    {
     "mangled_component_name":"_ZN7android8hardware5radio4V1_217BpHwRadioResponse22setDataAllowedResponseERKNS1_4V1_017RadioResponseInfoE"
    },
    {
     "mangled_component_name":"_ZN7android8hardware5radio4V1_217BpHwRadioResponse25getHardwareConfigResponseERKNS1_4V1_017RadioResponseInfoERKNS0_8hidl_vecINS4_14HardwareConfigEEE"
    },
    {
     "mangled_component_name":"_ZN7android8hardware5radio4V1_217BpHwRadioResponse35requestIccSimAuthenticationResponseERKNS1_4V1_017RadioResponseInfoERKNS4_11IccIoResultE"
    },
    {
     "mangled_component_name":"_ZN7android8hardware5radio4V1_217BpHwRadioResponse22setDataProfileResponseERKNS1_4V1_017RadioResponseInfoE"
    },
    {
     "mangled_component_name":"_ZN7android8hardware5radio4V1_217BpHwRadioResponse23requestShutdownResponseERKNS1_4V1_017RadioResponseInfoE"
    },
    {
     "mangled_component_name":"_ZN7android8hardware5radio4V1_217BpHwRadioResponse26getRadioCapabilityResponseERKNS1_4V1_017RadioResponseInfoERKNS4_15RadioCapabilityE"
    },
    {
     "mangled_component_name":"_ZN7android8hardware5radio4V1_217BpHwRadioResponse26setRadioCapabilityResponseERKNS1_4V1_017RadioResponseInfoERKNS4_15RadioCapabilityE"
    },
    {
     "mangled_component_name":"_ZN7android8hardware5radio4V1_217BpHwRadioResponse23startLceServiceResponseERKNS1_4V1_017RadioResponseInfoERKNS4_13LceStatusInfoE"
    },
    {
     "mangled_component_name":"_ZN7android8hardware5radio4V1_217BpHwRadioResponse22stopLceServiceResponseERKNS1_4V1_017RadioResponseInfoERKNS4_13LceStatusInfoE"
    },
    {
     "mangled_component_name":"_ZN7android8hardware5radio4V1_217BpHwRadioResponse19pullLceDataResponseERKNS1_4V1_017RadioResponseInfoERKNS4_11LceDataInfoE"
    },
    {
     "mangled_component_name":"_ZN7android8hardware5radio4V1_217BpHwRadioResponse28getModemActivityInfoResponseERKNS1_4V1_017RadioResponseInfoERKNS4_17ActivityStatsInfoE"
    },
    {
     "mangled_component_name":"_ZN7android8hardware5radio4V1_217BpHwRadioResponse26setAllowedCarriersResponseERKNS1_4V1_017RadioResponseInfoEi"
    },
    {
     "mangled_component_name":"_ZN7android8hardware5radio4V1_217BpHwRadioResponse26getAllowedCarriersResponseERKNS1_4V1_017RadioResponseInfoEbRKNS4_19CarrierRestrictionsE"
    },
    {
     "mangled_component_name":"_ZN7android8hardware5radio4V1_217BpHwRadioResponse23sendDeviceStateResponseERKNS1_4V1_017RadioResponseInfoE"
    },
    {
     "mangled_component_name":"_ZN7android8hardware5radio4V1_217BpHwRadioResponse27setIndicationFilterResponseERKNS1_4V1_017RadioResponseInfoE"
    },
    {
     "mangled_component_name":"_ZN7android8hardware5radio4V1_217BpHwRadioResponse23setSimCardPowerResponseERKNS1_4V1_017RadioResponseInfoE"
    },
    {
     "mangled_component_name":"_ZN7android8hardware5radio4V1_217BpHwRadioResponse18acknowledgeRequestEi"
    },
    {
     "mangled_component_name":"_ZN7android8hardware5radio4V1_217BpHwRadioResponse39setCarrierInfoForImsiEncryptionResponseERKNS1_4V1_017RadioResponseInfoE"
    },
    {
     "mangled_component_name":"_ZN7android8hardware5radio4V1_217BpHwRadioResponse27setSimCardPowerResponse_1_1ERKNS1_4V1_017RadioResponseInfoE"
    },
    {
     "mangled_component_name":"_ZN7android8hardware5radio4V1_217BpHwRadioResponse24startNetworkScanResponseERKNS1_4V1_017RadioResponseInfoE"
    },
    {
     "mangled_component_name":"_ZN7android8hardware5radio4V1_217BpHwRadioResponse23stopNetworkScanResponseERKNS1_4V1_017RadioResponseInfoE"
    },
    {
     "mangled_component_name":"_ZN7android8hardware5radio4V1_217BpHwRadioResponse22startKeepaliveResponseERKNS1_4V1_017RadioResponseInfoERKNS1_4V1_115KeepaliveStatusE"
    },
    {
     "mangled_component_name":"_ZN7android8hardware5radio4V1_217BpHwRadioResponse21stopKeepaliveResponseERKNS1_4V1_017RadioResponseInfoE"
    },
    {
     "mangled_component_name":"_ZN7android8hardware5radio4V1_217BpHwRadioResponse27getCellInfoListResponse_1_2ERKNS1_4V1_017RadioResponseInfoERKNS0_8hidl_vecINS2_8CellInfoEEE"
    },
    {
     "mangled_component_name":"_ZN7android8hardware5radio4V1_217BpHwRadioResponse28getIccCardStatusResponse_1_2ERKNS1_4V1_017RadioResponseInfoERKNS2_10CardStatusE"
    },
    {
     "mangled_component_name":"_ZN7android8hardware5radio4V1_217BpHwRadioResponse42setSignalStrengthReportingCriteriaResponseERKNS1_4V1_017RadioResponseInfoE"
    },
    {
     "mangled_component_name":"_ZN7android8hardware5radio4V1_217BpHwRadioResponse40setLinkCapacityReportingCriteriaResponseERKNS1_4V1_017RadioResponseInfoE"
    },
    {
     "mangled_component_name":"_ZN7android8hardware5radio4V1_217BpHwRadioResponse27getCurrentCallsResponse_1_2ERKNS1_4V1_017RadioResponseInfoERKNS0_8hidl_vecINS2_4CallEEE"
    },
    {
     "mangled_component_name":"_ZN7android8hardware5radio4V1_217BpHwRadioResponse29getSignalStrengthResponse_1_2ERKNS1_4V1_017RadioResponseInfoERKNS2_14SignalStrengthE"
    },
    {
     "mangled_component_name":"_ZN7android8hardware5radio4V1_217BpHwRadioResponse37getVoiceRegistrationStateResponse_1_2ERKNS1_4V1_017RadioResponseInfoERKNS2_19VoiceRegStateResultE"
    },
    {
     "mangled_component_name":"_ZN7android8hardware5radio4V1_217BpHwRadioResponse36getDataRegistrationStateResponse_1_2ERKNS1_4V1_017RadioResponseInfoERKNS2_18DataRegStateResultE"
    },
    {
     "mangled_component_name":"_ZN7android8hardware11BpInterfaceINS0_5radio4V1_214IRadioResponseEE10onAsBinderEv"
    },
    {
     "kind":"vbase_offset",
     "component_value":192
    },
    {
     "kind":"offset_to_top",
     "component_value":-8
    },
    {
     "kind":"rtti",
     "mangled_component_name":"_ZTIN7android8hardware5radio4V1_217BpHwRadioResponseE"
    },
    {
     "kind":"complete_dtor_pointer",
     "mangled_component_name":"_ZThn8_N7android8hardware5radio4V1_217BpHwRadioResponseD1Ev"
    },
    {
     "kind":"deleting_dtor_pointer",
     "mangled_component_name":"_ZThn8_N7android8hardware5radio4V1_217BpHwRadioResponseD0Ev"
    },
    {
     "mangled_component_name":"_ZThn8_N7android8hardware11BpInterfaceINS0_5radio4V1_214IRadioResponseEE10onAsBinderEv"
    },
    {
     "kind":"vbase_offset",
     "component_value":184
    },
    {
     "kind":"offset_to_top",
     "component_value":-16
    },
    {
     "kind":"rtti",
     "mangled_component_name":"_ZTIN7android8hardware5radio4V1_217BpHwRadioResponseE"
    },
    {
     "kind":"complete_dtor_pointer",
     "mangled_component_name":"_ZThn16_N7android8hardware5radio4V1_217BpHwRadioResponseD1Ev"
    },
    {
     "kind":"deleting_dtor_pointer",
     "mangled_component_name":"_ZThn16_N7android8hardware5radio4V1_217BpHwRadioResponseD0Ev"
    },
    {
     "mangled_component_name":"_ZN7android8hardware11BpHwRefBase10onFirstRefEv"
    },
    {
     "mangled_component_name":"_ZN7android8hardware11BpHwRefBase15onLastStrongRefEPKv"
    },
    {
     "mangled_component_name":"_ZN7android8hardware11BpHwRefBase20onIncStrongAttemptedEjPKv"
    },
    {
     "kind":"offset_to_top",
     "component_value":-48
    },
    {
     "kind":"rtti",
     "mangled_component_name":"_ZTIN7android8hardware5radio4V1_217BpHwRadioResponseE"
    },
    {
     "kind":"complete_dtor_pointer",
     "mangled_component_name":"_ZThn48_N7android8hardware5radio4V1_217BpHwRadioResponseD1Ev"
    },
    {
     "kind":"deleting_dtor_pointer",
     "mangled_component_name":"_ZThn48_N7android8hardware5radio4V1_217BpHwRadioResponseD0Ev"
    },
    {
     "kind":"vcall_offset"
    },
    {
     "kind":"vcall_offset",
     "component_value":-184
    },
    {
     "kind":"vcall_offset",
     "component_value":-184
    },
    {
     "kind":"vcall_offset",
     "component_value":-184
    },
    {
     "kind":"vcall_offset",
     "component_value":-200
    },
    {
     "kind":"offset_to_top",
     "component_value":-200
    },
    {
     "kind":"rtti",
     "mangled_component_name":"_ZTIN7android8hardware5radio4V1_217BpHwRadioResponseE"
    },
    {
     "kind":"complete_dtor_pointer",
     "mangled_component_name":"_ZTv0_n24_N7android8hardware5radio4V1_217BpHwRadioResponseD1Ev"
    },
    {
     "kind":"deleting_dtor_pointer",
     "mangled_component_name":"_ZTv0_n24_N7android8hardware5radio4V1_217BpHwRadioResponseD0Ev"
    },
    {
     "mangled_component_name":"_ZTv0_n32_N7android8hardware11BpHwRefBase10onFirstRefEv"
    },
    {
     "mangled_component_name":"_ZTv0_n40_N7android8hardware11BpHwRefBase15onLastStrongRefEPKv"
    },
    {
     "mangled_component_name":"_ZTv0_n48_N7android8hardware11BpHwRefBase20onIncStrongAttemptedEjPKv"
    },
    {
     "mangled_component_name":"_ZN7android7RefBase13onLastWeakRefEPKv"
    }
   ],
   "unique_id":"_ZTSN7android8hardware5radio4V1_217BpHwRadioResponseE"
  },
  {
   "vtable_components":[
    {
     "kind":"vbase_offset",
     "component_value":136
    },
    {
     "kind":"offset_to_top"
    },
    {
     "kind":"rtti",
     "mangled_component_name":"_ZTIN7android8hardware5radio4V1_217BnHwRadioResponseE"
    },
    {
     "mangled_component_name":"_ZN7android8hardware9BHwBinder8transactEjRKNS0_6ParcelEPS2_jNSt3__18functionIFvRS2_EEE"
    },
    {
     "mangled_component_name":"_ZN7android8hardware9BHwBinder11linkToDeathERKNS_2spINS0_7IBinder14DeathRecipientEEEPvj"
    },
    {
     "mangled_component_name":"_ZN7android8hardware9BHwBinder13unlinkToDeathERKNS_2wpINS0_7IBinder14DeathRecipientEEEPvjPS5_"
    },
    {
     "mangled_component_name":"_ZNK7android8hardware7IBinder13checkSubclassEPKv"
    },
    {
     "mangled_component_name":"_ZN7android8hardware9BHwBinder12attachObjectEPKvPvS4_PFvS3_S4_S4_E"
    },
    {
     "mangled_component_name":"_ZNK7android8hardware9BHwBinder10findObjectEPKv"
    },
    {
     "mangled_component_name":"_ZN7android8hardware9BHwBinder12detachObjectEPKv"
    },
    {
     "mangled_component_name":"_ZN7android8hardware9BHwBinder11localBinderEv"
    },
    {
     "mangled_component_name":"_ZN7android8hardware7IBinder12remoteBinderEv"
    },
    {
     "kind":"complete_dtor_pointer",
     "mangled_component_name":"_ZN7android8hardware5radio4V1_217BnHwRadioResponseD1Ev"
    },
    {
     "kind":"deleting_dtor_pointer",
     "mangled_component_name":"_ZN7android8hardware5radio4V1_217BnHwRadioResponseD0Ev"
    },
    {
     "mangled_component_name":"_ZN7android8hardware5radio4V1_217BnHwRadioResponse10onTransactEjRKNS0_6ParcelEPS4_jNSt3__18functionIFvRS4_EEE"
    },
    {
     "kind":"offset_to_top",
     "component_value":-32
    },
    {
     "kind":"rtti",
     "mangled_component_name":"_ZTIN7android8hardware5radio4V1_217BnHwRadioResponseE"
    },
    {
     "kind":"complete_dtor_pointer",
     "mangled_component_name":"_ZThn32_N7android8hardware5radio4V1_217BnHwRadioResponseD1Ev"
    },
    {
     "kind":"deleting_dtor_pointer",
     "mangled_component_name":"_ZThn32_N7android8hardware5radio4V1_217BnHwRadioResponseD0Ev"
    },
    {
     "kind":"vcall_offset"
    },
    {
     "kind":"vcall_offset"
    },
    {
     "kind":"vcall_offset"
    },
    {
     "kind":"vcall_offset"
    },
    {
     "kind":"vcall_offset",
     "component_value":-136
    },
    {
     "kind":"offset_to_top",
     "component_value":-136
    },
    {
     "kind":"rtti",
     "mangled_component_name":"_ZTIN7android8hardware5radio4V1_217BnHwRadioResponseE"
    },
    {
     "kind":"complete_dtor_pointer",
     "mangled_component_name":"_ZTv0_n24_N7android8hardware5radio4V1_217BnHwRadioResponseD1Ev"
    },
    {
     "kind":"deleting_dtor_pointer",
     "mangled_component_name":"_ZTv0_n24_N7android8hardware5radio4V1_217BnHwRadioResponseD0Ev"
    },
    {
     "mangled_component_name":"_ZN7android7RefBase10onFirstRefEv"
    },
    {
     "mangled_component_name":"_ZN7android7RefBase15onLastStrongRefEPKv"
    },
    {
     "mangled_component_name":"_ZN7android7RefBase20onIncStrongAttemptedEjPKv"
    },
    {
     "mangled_component_name":"_ZN7android7RefBase13onLastWeakRefEPKv"
    }
   ],
   "unique_id":"_ZTSN7android8hardware5radio4V1_217BnHwRadioResponseE"
  },
  {
   "vtable_components":[
    {
     "kind":"vbase_offset",
     "component_value":120
    },
    {
     "kind":"offset_to_top"
    },
    {
     "kind":"rtti",
     "mangled_component_name":"_ZTIN7android8hardware5radio4V1_215BsRadioResponseE"
    },
    {
     "mangled_component_name":"_ZNK7android8hardware5radio4V1_214IRadioResponse8isRemoteEv"
    },
    {
     "mangled_component_name":"_ZN7android8hardware5radio4V1_215BsRadioResponse14interfaceChainENSt3__18functionIFvRKNS0_8hidl_vecINS0_11hidl_stringEEEEEE"
    },
    {
     "mangled_component_name":"_ZN7android8hardware5radio4V1_215BsRadioResponse5debugERKNS0_11hidl_handleERKNS0_8hidl_vecINS0_11hidl_stringEEE"
    },
    {
     "mangled_component_name":"_ZN7android8hardware5radio4V1_215BsRadioResponse19interfaceDescriptorENSt3__18functionIFvRKNS0_11hidl_stringEEEE"
    },
    {
     "mangled_component_name":"_ZN7android8hardware5radio4V1_215BsRadioResponse12getHashChainENSt3__18functionIFvRKNS0_8hidl_vecINS0_10hidl_arrayIhLm32EJEEEEEEEE"
    },
    {
     "mangled_component_name":"_ZN7android8hardware5radio4V1_215BsRadioResponse21setHALInstrumentationEv"
    },
    {
     "mangled_component_name":"_ZN7android8hardware5radio4V1_215BsRadioResponse11linkToDeathERKNS_2spINS0_20hidl_death_recipientEEEm"
    },
    {
     "mangled_component_name":"_ZN7android8hardware5radio4V1_215BsRadioResponse4pingEv"
    },
    {
     "mangled_component_name":"_ZN7android8hardware5radio4V1_215BsRadioResponse12getDebugInfoENSt3__18functionIFvRKNS_4hidl4base4V1_09DebugInfoEEEE"
    },
    {
     "mangled_component_name":"_ZN7android8hardware5radio4V1_215BsRadioResponse21notifySyspropsChangedEv"
    },
    {
     "mangled_component_name":"_ZN7android8hardware5radio4V1_215BsRadioResponse13unlinkToDeathERKNS_2spINS0_20hidl_death_recipientEEE"
    },
    {
     "kind":"complete_dtor_pointer",
     "mangled_component_name":"_ZN7android8hardware5radio4V1_215BsRadioResponseD1Ev"
    },
    {
     "kind":"deleting_dtor_pointer",
     "mangled_component_name":"_ZN7android8hardware5radio4V1_215BsRadioResponseD0Ev"
    },
    {
     "mangled_component_name":"_ZN7android8hardware5radio4V1_215BsRadioResponse24getIccCardStatusResponseERKNS1_4V1_017RadioResponseInfoERKNS4_10CardStatusE"
    },
    {
     "mangled_component_name":"_ZN7android8hardware5radio4V1_215BsRadioResponse26supplyIccPinForAppResponseERKNS1_4V1_017RadioResponseInfoEi"
    },
    {
     "mangled_component_name":"_ZN7android8hardware5radio4V1_215BsRadioResponse26supplyIccPukForAppResponseERKNS1_4V1_017RadioResponseInfoEi"
    },
    {
     "mangled_component_name":"_ZN7android8hardware5radio4V1_215BsRadioResponse27supplyIccPin2ForAppResponseERKNS1_4V1_017RadioResponseInfoEi"
    },
    {
     "mangled_component_name":"_ZN7android8hardware5radio4V1_215BsRadioResponse27supplyIccPuk2ForAppResponseERKNS1_4V1_017RadioResponseInfoEi"
    },
    {
     "mangled_component_name":"_ZN7android8hardware5radio4V1_215BsRadioResponse26changeIccPinForAppResponseERKNS1_4V1_017RadioResponseInfoEi"
    },
    {
     "mangled_component_name":"_ZN7android8hardware5radio4V1_215BsRadioResponse27changeIccPin2ForAppResponseERKNS1_4V1_017RadioResponseInfoEi"
    },
    {
     "mangled_component_name":"_ZN7android8hardware5radio4V1_215BsRadioResponse38supplyNetworkDepersonalizationResponseERKNS1_4V1_017RadioResponseInfoEi"
    },
    {
     "mangled_component_name":"_ZN7android8hardware5radio4V1_215BsRadioResponse23getCurrentCallsResponseERKNS1_4V1_017RadioResponseInfoERKNS0_8hidl_vecINS4_4CallEEE"
    },
    {
     "mangled_component_name":"_ZN7android8hardware5radio4V1_215BsRadioResponse12dialResponseERKNS1_4V1_017RadioResponseInfoE"
    },
    {
     "mangled_component_name":"_ZN7android8hardware5radio4V1_215BsRadioResponse21getIMSIForAppResponseERKNS1_4V1_017RadioResponseInfoERKNS0_11hidl_stringE"
    },
    {
     "mangled_component_name":"_ZN7android8hardware5radio4V1_215BsRadioResponse24hangupConnectionResponseERKNS1_4V1_017RadioResponseInfoE"
    },
    {
     "mangled_component_name":"_ZN7android8hardware5radio4V1_215BsRadioResponse33hangupWaitingOrBackgroundResponseERKNS1_4V1_017RadioResponseInfoE"
    },
    {
     "mangled_component_name":"_ZN7android8hardware5radio4V1_215BsRadioResponse40hangupForegroundResumeBackgroundResponseERKNS1_4V1_017RadioResponseInfoE"
    },
    {
     "mangled_component_name":"_ZN7android8hardware5radio4V1_215BsRadioResponse39switchWaitingOrHoldingAndActiveResponseERKNS1_4V1_017RadioResponseInfoE"
    },
    {
     "mangled_component_name":"_ZN7android8hardware5radio4V1_215BsRadioResponse18conferenceResponseERKNS1_4V1_017RadioResponseInfoE"
    },
    {
     "mangled_component_name":"_ZN7android8hardware5radio4V1_215BsRadioResponse18rejectCallResponseERKNS1_4V1_017RadioResponseInfoE"
    },
    {
     "mangled_component_name":"_ZN7android8hardware5radio4V1_215BsRadioResponse28getLastCallFailCauseResponseERKNS1_4V1_017RadioResponseInfoERKNS4_21LastCallFailCauseInfoE"
    },
    {
     "mangled_component_name":"_ZN7android8hardware5radio4V1_215BsRadioResponse25getSignalStrengthResponseERKNS1_4V1_017RadioResponseInfoERKNS4_14SignalStrengthE"
    },
    {
     "mangled_component_name":"_ZN7android8hardware5radio4V1_215BsRadioResponse33getVoiceRegistrationStateResponseERKNS1_4V1_017RadioResponseInfoERKNS4_19VoiceRegStateResultE"
    },
    {
     "mangled_component_name":"_ZN7android8hardware5radio4V1_215BsRadioResponse32getDataRegistrationStateResponseERKNS1_4V1_017RadioResponseInfoERKNS4_18DataRegStateResultE"
    },
    {
     "mangled_component_name":"_ZN7android8hardware5radio4V1_215BsRadioResponse19getOperatorResponseERKNS1_4V1_017RadioResponseInfoERKNS0_11hidl_stringESA_SA_"
    },
    {
     "mangled_component_name":"_ZN7android8hardware5radio4V1_215BsRadioResponse21setRadioPowerResponseERKNS1_4V1_017RadioResponseInfoE"
    },
    {
     "mangled_component_name":"_ZN7android8hardware5radio4V1_215BsRadioResponse16sendDtmfResponseERKNS1_4V1_017RadioResponseInfoE"
    },
    {
     "mangled_component_name":"_ZN7android8hardware5radio4V1_215BsRadioResponse15sendSmsResponseERKNS1_4V1_017RadioResponseInfoERKNS4_13SendSmsResultE"
    },
    {
     "mangled_component_name":"_ZN7android8hardware5radio4V1_215BsRadioResponse25sendSMSExpectMoreResponseERKNS1_4V1_017RadioResponseInfoERKNS4_13SendSmsResultE"
    },
    {
     "mangled_component_name":"_ZN7android8hardware5radio4V1_215BsRadioResponse21setupDataCallResponseERKNS1_4V1_017RadioResponseInfoERKNS4_19SetupDataCallResultE"
    },
    {
     "mangled_component_name":"_ZN7android8hardware5radio4V1_215BsRadioResponse19iccIOForAppResponseERKNS1_4V1_017RadioResponseInfoERKNS4_11IccIoResultE"
    },
    {
     "mangled_component_name":"_ZN7android8hardware5radio4V1_215BsRadioResponse16sendUssdResponseERKNS1_4V1_017RadioResponseInfoE"
    },
    {
     "mangled_component_name":"_ZN7android8hardware5radio4V1_215BsRadioResponse25cancelPendingUssdResponseERKNS1_4V1_017RadioResponseInfoE"
    },
    {
     "mangled_component_name":"_ZN7android8hardware5radio4V1_215BsRadioResponse15getClirResponseERKNS1_4V1_017RadioResponseInfoEii"
    },
    {
     "mangled_component_name":"_ZN7android8hardware5radio4V1_215BsRadioResponse15setClirResponseERKNS1_4V1_017RadioResponseInfoE"
    },
    {
     "mangled_component_name":"_ZN7android8hardware5radio4V1_215BsRadioResponse28getCallForwardStatusResponseERKNS1_4V1_017RadioResponseInfoERKNS0_8hidl_vecINS4_15CallForwardInfoEEE"
    },
    {
     "mangled_component_name":"_ZN7android8hardware5radio4V1_215BsRadioResponse22setCallForwardResponseERKNS1_4V1_017RadioResponseInfoE"
    },
    {
     "mangled_component_name":"_ZN7android8hardware5radio4V1_215BsRadioResponse22getCallWaitingResponseERKNS1_4V1_017RadioResponseInfoEbi"
    },
    {
     "mangled_component_name":"_ZN7android8hardware5radio4V1_215BsRadioResponse22setCallWaitingResponseERKNS1_4V1_017RadioResponseInfoE"
    },
    {
     "mangled_component_name":"_ZN7android8hardware5radio4V1_215BsRadioResponse37acknowledgeLastIncomingGsmSmsResponseERKNS1_4V1_017RadioResponseInfoE"
    },
    {
     "mangled_component_name":"_ZN7android8hardware5radio4V1_215BsRadioResponse18acceptCallResponseERKNS1_4V1_017RadioResponseInfoE"
    },
    {
     "mangled_component_name":"_ZN7android8hardware5radio4V1_215BsRadioResponse26deactivateDataCallResponseERKNS1_4V1_017RadioResponseInfoE"
    },
    {
     "mangled_component_name":"_ZN7android8hardware5radio4V1_215BsRadioResponse29getFacilityLockForAppResponseERKNS1_4V1_017RadioResponseInfoEi"
    },
    {
     "mangled_component_name":"_ZN7android8hardware5radio4V1_215BsRadioResponse29setFacilityLockForAppResponseERKNS1_4V1_017RadioResponseInfoEi"
    },
    {
     "mangled_component_name":"_ZN7android8hardware5radio4V1_215BsRadioResponse26setBarringPasswordResponseERKNS1_4V1_017RadioResponseInfoE"
    },
    {
     "mangled_component_name":"_ZN7android8hardware5radio4V1_215BsRadioResponse31getNetworkSelectionModeResponseERKNS1_4V1_017RadioResponseInfoEb"
    },
    {
     "mangled_component_name":"_ZN7android8hardware5radio4V1_215BsRadioResponse40setNetworkSelectionModeAutomaticResponseERKNS1_4V1_017RadioResponseInfoE"
    },
    {
     "mangled_component_name":"_ZN7android8hardware5radio4V1_215BsRadioResponse37setNetworkSelectionModeManualResponseERKNS1_4V1_017RadioResponseInfoE"
    },
    {
     "mangled_component_name":"_ZN7android8hardware5radio4V1_215BsRadioResponse28getAvailableNetworksResponseERKNS1_4V1_017RadioResponseInfoERKNS0_8hidl_vecINS4_12OperatorInfoEEE"
    },
    {
     "mangled_component_name":"_ZN7android8hardware5radio4V1_215BsRadioResponse17startDtmfResponseERKNS1_4V1_017RadioResponseInfoE"
    },
    {
     "mangled_component_name":"_ZN7android8hardware5radio4V1_215BsRadioResponse16stopDtmfResponseERKNS1_4V1_017RadioResponseInfoE"
    },
    {
     "mangled_component_name":"_ZN7android8hardware5radio4V1_215BsRadioResponse26getBasebandVersionResponseERKNS1_4V1_017RadioResponseInfoERKNS0_11hidl_stringE"
    },
    {
     "mangled_component_name":"_ZN7android8hardware5radio4V1_215BsRadioResponse26separateConnectionResponseERKNS1_4V1_017RadioResponseInfoE"
    },
    {
     "mangled_component_name":"_ZN7android8hardware5radio4V1_215BsRadioResponse15setMuteResponseERKNS1_4V1_017RadioResponseInfoE"
    },
    {
     "mangled_component_name":"_ZN7android8hardware5radio4V1_215BsRadioResponse15getMuteResponseERKNS1_4V1_017RadioResponseInfoEb"
    },
    {
     "mangled_component_name":"_ZN7android8hardware5radio4V1_215BsRadioResponse15getClipResponseERKNS1_4V1_017RadioResponseInfoENS4_10ClipStatusE"
    },
    {
     "mangled_component_name":"_ZN7android8hardware5radio4V1_215BsRadioResponse23getDataCallListResponseERKNS1_4V1_017RadioResponseInfoERKNS0_8hidl_vecINS4_19SetupDataCallResultEEE"
    },
    {
     "mangled_component_name":"_ZN7android8hardware5radio4V1_215BsRadioResponse35setSuppServiceNotificationsResponseERKNS1_4V1_017RadioResponseInfoE"
    },
    {
     "mangled_component_name":"_ZN7android8hardware5radio4V1_215BsRadioResponse21writeSmsToSimResponseERKNS1_4V1_017RadioResponseInfoEi"
    },
    {
     "mangled_component_name":"_ZN7android8hardware5radio4V1_215BsRadioResponse22deleteSmsOnSimResponseERKNS1_4V1_017RadioResponseInfoE"
    },
    {
     "mangled_component_name":"_ZN7android8hardware5radio4V1_215BsRadioResponse19setBandModeResponseERKNS1_4V1_017RadioResponseInfoE"
    },
    {
     "mangled_component_name":"_ZN7android8hardware5radio4V1_215BsRadioResponse29getAvailableBandModesResponseERKNS1_4V1_017RadioResponseInfoERKNS0_8hidl_vecINS4_13RadioBandModeEEE"
    },
    {
     "mangled_component_name":"_ZN7android8hardware5radio4V1_215BsRadioResponse20sendEnvelopeResponseERKNS1_4V1_017RadioResponseInfoERKNS0_11hidl_stringE"
    },
    {
     "mangled_component_name":"_ZN7android8hardware5radio4V1_215BsRadioResponse33sendTerminalResponseToSimResponseERKNS1_4V1_017RadioResponseInfoE"
    },
    {
     "mangled_component_name":"_ZN7android8hardware5radio4V1_215BsRadioResponse40handleStkCallSetupRequestFromSimResponseERKNS1_4V1_017RadioResponseInfoE"
    },
    {
     "mangled_component_name":"_ZN7android8hardware5radio4V1_215BsRadioResponse28explicitCallTransferResponseERKNS1_4V1_017RadioResponseInfoE"
    },
    {
     "mangled_component_name":"_ZN7android8hardware5radio4V1_215BsRadioResponse31setPreferredNetworkTypeResponseERKNS1_4V1_017RadioResponseInfoE"
    },
    {
     "mangled_component_name":"_ZN7android8hardware5radio4V1_215BsRadioResponse31getPreferredNetworkTypeResponseERKNS1_4V1_017RadioResponseInfoENS4_20PreferredNetworkTypeE"
    },
    {
     "mangled_component_name":"_ZN7android8hardware5radio4V1_215BsRadioResponse26getNeighboringCidsResponseERKNS1_4V1_017RadioResponseInfoERKNS0_8hidl_vecINS4_15NeighboringCellEEE"
    },
    {
     "mangled_component_name":"_ZN7android8hardware5radio4V1_215BsRadioResponse26setLocationUpdatesResponseERKNS1_4V1_017RadioResponseInfoE"
    },
    {
     "mangled_component_name":"_ZN7android8hardware5radio4V1_215BsRadioResponse33setCdmaSubscriptionSourceResponseERKNS1_4V1_017RadioResponseInfoE"
    },
    {
     "mangled_component_name":"_ZN7android8hardware5radio4V1_215BsRadioResponse32setCdmaRoamingPreferenceResponseERKNS1_4V1_017RadioResponseInfoE"
    },
    {
     "mangled_component_name":"_ZN7android8hardware5radio4V1_215BsRadioResponse32getCdmaRoamingPreferenceResponseERKNS1_4V1_017RadioResponseInfoENS4_15CdmaRoamingTypeE"
    },
    {
     "mangled_component_name":"_ZN7android8hardware5radio4V1_215BsRadioResponse18setTTYModeResponseERKNS1_4V1_017RadioResponseInfoE"
    },
    {
     "mangled_component_name":"_ZN7android8hardware5radio4V1_215BsRadioResponse18getTTYModeResponseERKNS1_4V1_017RadioResponseInfoENS4_7TtyModeE"
    },
    {
     "mangled_component_name":"_ZN7android8hardware5radio4V1_215BsRadioResponse32setPreferredVoicePrivacyResponseERKNS1_4V1_017RadioResponseInfoE"
    },
    {
     "mangled_component_name":"_ZN7android8hardware5radio4V1_215BsRadioResponse32getPreferredVoicePrivacyResponseERKNS1_4V1_017RadioResponseInfoEb"
    },
    {
     "mangled_component_name":"_ZN7android8hardware5radio4V1_215BsRadioResponse27sendCDMAFeatureCodeResponseERKNS1_4V1_017RadioResponseInfoE"
    },
    {
     "mangled_component_name":"_ZN7android8hardware5radio4V1_215BsRadioResponse21sendBurstDtmfResponseERKNS1_4V1_017RadioResponseInfoE"
    },
    {
     "mangled_component_name":"_ZN7android8hardware5radio4V1_215BsRadioResponse19sendCdmaSmsResponseERKNS1_4V1_017RadioResponseInfoERKNS4_13SendSmsResultE"
    },
    {
     "mangled_component_name":"_ZN7android8hardware5radio4V1_215BsRadioResponse38acknowledgeLastIncomingCdmaSmsResponseERKNS1_4V1_017RadioResponseInfoE"
    },
    {
     "mangled_component_name":"_ZN7android8hardware5radio4V1_215BsRadioResponse29getGsmBroadcastConfigResponseERKNS1_4V1_017RadioResponseInfoERKNS0_8hidl_vecINS4_25GsmBroadcastSmsConfigInfoEEE"
    },
    {
     "mangled_component_name":"_ZN7android8hardware5radio4V1_215BsRadioResponse29setGsmBroadcastConfigResponseERKNS1_4V1_017RadioResponseInfoE"
    },
    {
     "mangled_component_name":"_ZN7android8hardware5radio4V1_215BsRadioResponse33setGsmBroadcastActivationResponseERKNS1_4V1_017RadioResponseInfoE"
    },
    {
     "mangled_component_name":"_ZN7android8hardware5radio4V1_215BsRadioResponse30getCdmaBroadcastConfigResponseERKNS1_4V1_017RadioResponseInfoERKNS0_8hidl_vecINS4_26CdmaBroadcastSmsConfigInfoEEE"
    },
    {
     "mangled_component_name":"_ZN7android8hardware5radio4V1_215BsRadioResponse30setCdmaBroadcastConfigResponseERKNS1_4V1_017RadioResponseInfoE"
    },
    {
     "mangled_component_name":"_ZN7android8hardware5radio4V1_215BsRadioResponse34setCdmaBroadcastActivationResponseERKNS1_4V1_017RadioResponseInfoE"
    },
    {
     "mangled_component_name":"_ZN7android8hardware5radio4V1_215BsRadioResponse27getCDMASubscriptionResponseERKNS1_4V1_017RadioResponseInfoERKNS0_11hidl_stringESA_SA_SA_SA_"
    },
    {
     "mangled_component_name":"_ZN7android8hardware5radio4V1_215BsRadioResponse22writeSmsToRuimResponseERKNS1_4V1_017RadioResponseInfoEj"
    },
    {
     "mangled_component_name":"_ZN7android8hardware5radio4V1_215BsRadioResponse23deleteSmsOnRuimResponseERKNS1_4V1_017RadioResponseInfoE"
    },
    {
     "mangled_component_name":"_ZN7android8hardware5radio4V1_215BsRadioResponse25getDeviceIdentityResponseERKNS1_4V1_017RadioResponseInfoERKNS0_11hidl_stringESA_SA_SA_"
    },
    {
     "mangled_component_name":"_ZN7android8hardware5radio4V1_215BsRadioResponse33exitEmergencyCallbackModeResponseERKNS1_4V1_017RadioResponseInfoE"
    },
    {
     "mangled_component_name":"_ZN7android8hardware5radio4V1_215BsRadioResponse22getSmscAddressResponseERKNS1_4V1_017RadioResponseInfoERKNS0_11hidl_stringE"
    },
    {
     "mangled_component_name":"_ZN7android8hardware5radio4V1_215BsRadioResponse22setSmscAddressResponseERKNS1_4V1_017RadioResponseInfoE"
    },
    {
     "mangled_component_name":"_ZN7android8hardware5radio4V1_215BsRadioResponse29reportSmsMemoryStatusResponseERKNS1_4V1_017RadioResponseInfoE"
    },
    {
     "mangled_component_name":"_ZN7android8hardware5radio4V1_215BsRadioResponse33reportStkServiceIsRunningResponseERKNS1_4V1_017RadioResponseInfoE"
    },
    {
     "mangled_component_name":"_ZN7android8hardware5radio4V1_215BsRadioResponse33getCdmaSubscriptionSourceResponseERKNS1_4V1_017RadioResponseInfoENS4_22CdmaSubscriptionSourceE"
    },
    {
     "mangled_component_name":"_ZN7android8hardware5radio4V1_215BsRadioResponse33requestIsimAuthenticationResponseERKNS1_4V1_017RadioResponseInfoERKNS0_11hidl_stringE"
    },
    {
     "mangled_component_name":"_ZN7android8hardware5radio4V1_215BsRadioResponse40acknowledgeIncomingGsmSmsWithPduResponseERKNS1_4V1_017RadioResponseInfoE"
    },
    {
     "mangled_component_name":"_ZN7android8hardware5radio4V1_215BsRadioResponse30sendEnvelopeWithStatusResponseERKNS1_4V1_017RadioResponseInfoERKNS4_11IccIoResultE"
    },
    {
     "mangled_component_name":"_ZN7android8hardware5radio4V1_215BsRadioResponse31getVoiceRadioTechnologyResponseERKNS1_4V1_017RadioResponseInfoENS4_15RadioTechnologyE"
    },
    {
     "mangled_component_name":"_ZN7android8hardware5radio4V1_215BsRadioResponse23getCellInfoListResponseERKNS1_4V1_017RadioResponseInfoERKNS0_8hidl_vecINS4_8CellInfoEEE"
    },
    {
     "mangled_component_name":"_ZN7android8hardware5radio4V1_215BsRadioResponse27setCellInfoListRateResponseERKNS1_4V1_017RadioResponseInfoE"
    },
    {
     "mangled_component_name":"_ZN7android8hardware5radio4V1_215BsRadioResponse27setInitialAttachApnResponseERKNS1_4V1_017RadioResponseInfoE"
    },
    {
     "mangled_component_name":"_ZN7android8hardware5radio4V1_215BsRadioResponse31getImsRegistrationStateResponseERKNS1_4V1_017RadioResponseInfoEbNS4_21RadioTechnologyFamilyE"
    },
    {
     "mangled_component_name":"_ZN7android8hardware5radio4V1_215BsRadioResponse18sendImsSmsResponseERKNS1_4V1_017RadioResponseInfoERKNS4_13SendSmsResultE"
    },
    {
     "mangled_component_name":"_ZN7android8hardware5radio4V1_215BsRadioResponse35iccTransmitApduBasicChannelResponseERKNS1_4V1_017RadioResponseInfoERKNS4_11IccIoResultE"
    },
    {
     "mangled_component_name":"_ZN7android8hardware5radio4V1_215BsRadioResponse29iccOpenLogicalChannelResponseERKNS1_4V1_017RadioResponseInfoEiRKNS0_8hidl_vecIaEE"
    },
    {
     "mangled_component_name":"_ZN7android8hardware5radio4V1_215BsRadioResponse30iccCloseLogicalChannelResponseERKNS1_4V1_017RadioResponseInfoE"
    },
    {
     "mangled_component_name":"_ZN7android8hardware5radio4V1_215BsRadioResponse37iccTransmitApduLogicalChannelResponseERKNS1_4V1_017RadioResponseInfoERKNS4_11IccIoResultE"
    },
    {
     "mangled_component_name":"_ZN7android8hardware5radio4V1_215BsRadioResponse18nvReadItemResponseERKNS1_4V1_017RadioResponseInfoERKNS0_11hidl_stringE"
    },
    {
     "mangled_component_name":"_ZN7android8hardware5radio4V1_215BsRadioResponse19nvWriteItemResponseERKNS1_4V1_017RadioResponseInfoE"
    },
    {
     "mangled_component_name":"_ZN7android8hardware5radio4V1_215BsRadioResponse22nvWriteCdmaPrlResponseERKNS1_4V1_017RadioResponseInfoE"
    },
    {
     "mangled_component_name":"_ZN7android8hardware5radio4V1_215BsRadioResponse21nvResetConfigResponseERKNS1_4V1_017RadioResponseInfoE"
    },
    {
     "mangled_component_name":"_ZN7android8hardware5radio4V1_215BsRadioResponse27setUiccSubscriptionResponseERKNS1_4V1_017RadioResponseInfoE"
    },
    {
     "mangled_component_name":"_ZN7android8hardware5radio4V1_215BsRadioResponse22setDataAllowedResponseERKNS1_4V1_017RadioResponseInfoE"
    },
    {
     "mangled_component_name":"_ZN7android8hardware5radio4V1_215BsRadioResponse25getHardwareConfigResponseERKNS1_4V1_017RadioResponseInfoERKNS0_8hidl_vecINS4_14HardwareConfigEEE"
    },
    {
     "mangled_component_name":"_ZN7android8hardware5radio4V1_215BsRadioResponse35requestIccSimAuthenticationResponseERKNS1_4V1_017RadioResponseInfoERKNS4_11IccIoResultE"
    },
    {
     "mangled_component_name":"_ZN7android8hardware5radio4V1_215BsRadioResponse22setDataProfileResponseERKNS1_4V1_017RadioResponseInfoE"
    },
    {
     "mangled_component_name":"_ZN7android8hardware5radio4V1_215BsRadioResponse23requestShutdownResponseERKNS1_4V1_017RadioResponseInfoE"
    },
    {
     "mangled_component_name":"_ZN7android8hardware5radio4V1_215BsRadioResponse26getRadioCapabilityResponseERKNS1_4V1_017RadioResponseInfoERKNS4_15RadioCapabilityE"
    },
    {
     "mangled_component_name":"_ZN7android8hardware5radio4V1_215BsRadioResponse26setRadioCapabilityResponseERKNS1_4V1_017RadioResponseInfoERKNS4_15RadioCapabilityE"
    },
    {
     "mangled_component_name":"_ZN7android8hardware5radio4V1_215BsRadioResponse23startLceServiceResponseERKNS1_4V1_017RadioResponseInfoERKNS4_13LceStatusInfoE"
    },
    {
     "mangled_component_name":"_ZN7android8hardware5radio4V1_215BsRadioResponse22stopLceServiceResponseERKNS1_4V1_017RadioResponseInfoERKNS4_13LceStatusInfoE"
    },
    {
     "mangled_component_name":"_ZN7android8hardware5radio4V1_215BsRadioResponse19pullLceDataResponseERKNS1_4V1_017RadioResponseInfoERKNS4_11LceDataInfoE"
    },
    {
     "mangled_component_name":"_ZN7android8hardware5radio4V1_215BsRadioResponse28getModemActivityInfoResponseERKNS1_4V1_017RadioResponseInfoERKNS4_17ActivityStatsInfoE"
    },
    {
     "mangled_component_name":"_ZN7android8hardware5radio4V1_215BsRadioResponse26setAllowedCarriersResponseERKNS1_4V1_017RadioResponseInfoEi"
    },
    {
     "mangled_component_name":"_ZN7android8hardware5radio4V1_215BsRadioResponse26getAllowedCarriersResponseERKNS1_4V1_017RadioResponseInfoEbRKNS4_19CarrierRestrictionsE"
    },
    {
     "mangled_component_name":"_ZN7android8hardware5radio4V1_215BsRadioResponse23sendDeviceStateResponseERKNS1_4V1_017RadioResponseInfoE"
    },
    {
     "mangled_component_name":"_ZN7android8hardware5radio4V1_215BsRadioResponse27setIndicationFilterResponseERKNS1_4V1_017RadioResponseInfoE"
    },
    {
     "mangled_component_name":"_ZN7android8hardware5radio4V1_215BsRadioResponse23setSimCardPowerResponseERKNS1_4V1_017RadioResponseInfoE"
    },
    {
     "mangled_component_name":"_ZN7android8hardware5radio4V1_215BsRadioResponse18acknowledgeRequestEi"
    },
    {
     "mangled_component_name":"_ZN7android8hardware5radio4V1_215BsRadioResponse39setCarrierInfoForImsiEncryptionResponseERKNS1_4V1_017RadioResponseInfoE"
    },
    {
     "mangled_component_name":"_ZN7android8hardware5radio4V1_215BsRadioResponse27setSimCardPowerResponse_1_1ERKNS1_4V1_017RadioResponseInfoE"
    },
    {
     "mangled_component_name":"_ZN7android8hardware5radio4V1_215BsRadioResponse24startNetworkScanResponseERKNS1_4V1_017RadioResponseInfoE"
    },
    {
     "mangled_component_name":"_ZN7android8hardware5radio4V1_215BsRadioResponse23stopNetworkScanResponseERKNS1_4V1_017RadioResponseInfoE"
    },
    {
     "mangled_component_name":"_ZN7android8hardware5radio4V1_215BsRadioResponse22startKeepaliveResponseERKNS1_4V1_017RadioResponseInfoERKNS1_4V1_115KeepaliveStatusE"
    },
    {
     "mangled_component_name":"_ZN7android8hardware5radio4V1_215BsRadioResponse21stopKeepaliveResponseERKNS1_4V1_017RadioResponseInfoE"
    },
    {
     "mangled_component_name":"_ZN7android8hardware5radio4V1_215BsRadioResponse27getCellInfoListResponse_1_2ERKNS1_4V1_017RadioResponseInfoERKNS0_8hidl_vecINS2_8CellInfoEEE"
    },
    {
     "mangled_component_name":"_ZN7android8hardware5radio4V1_215BsRadioResponse28getIccCardStatusResponse_1_2ERKNS1_4V1_017RadioResponseInfoERKNS2_10CardStatusE"
    },
    {
     "mangled_component_name":"_ZN7android8hardware5radio4V1_215BsRadioResponse42setSignalStrengthReportingCriteriaResponseERKNS1_4V1_017RadioResponseInfoE"
    },
    {
     "mangled_component_name":"_ZN7android8hardware5radio4V1_215BsRadioResponse40setLinkCapacityReportingCriteriaResponseERKNS1_4V1_017RadioResponseInfoE"
    },
    {
     "mangled_component_name":"_ZN7android8hardware5radio4V1_215BsRadioResponse27getCurrentCallsResponse_1_2ERKNS1_4V1_017RadioResponseInfoERKNS0_8hidl_vecINS2_4CallEEE"
    },
    {
     "mangled_component_name":"_ZN7android8hardware5radio4V1_215BsRadioResponse29getSignalStrengthResponse_1_2ERKNS1_4V1_017RadioResponseInfoERKNS2_14SignalStrengthE"
    },
    {
     "mangled_component_name":"_ZN7android8hardware5radio4V1_215BsRadioResponse37getVoiceRegistrationStateResponse_1_2ERKNS1_4V1_017RadioResponseInfoERKNS2_19VoiceRegStateResultE"
    },
    {
     "mangled_component_name":"_ZN7android8hardware5radio4V1_215BsRadioResponse36getDataRegistrationStateResponse_1_2ERKNS1_4V1_017RadioResponseInfoERKNS2_18DataRegStateResultE"
    },
    {
     "kind":"offset_to_top",
     "component_value":-8
    },
    {
     "kind":"rtti",
     "mangled_component_name":"_ZTIN7android8hardware5radio4V1_215BsRadioResponseE"
    },
    {
     "kind":"complete_dtor_pointer",
     "mangled_component_name":"_ZThn8_N7android8hardware5radio4V1_215BsRadioResponseD1Ev"
    },
    {
     "kind":"deleting_dtor_pointer",
     "mangled_component_name":"_ZThn8_N7android8hardware5radio4V1_215BsRadioResponseD0Ev"
    },
    {
     "kind":"vcall_offset"
    },
    {
     "kind":"vcall_offset"
    },
    {
     "kind":"vcall_offset"
    },
    {
     "kind":"vcall_offset"
    },
    {
     "kind":"vcall_offset",
     "component_value":-120
    },
    {
     "kind":"offset_to_top",
     "component_value":-120
    },
    {
     "kind":"rtti",
     "mangled_component_name":"_ZTIN7android8hardware5radio4V1_215BsRadioResponseE"
    },
    {
     "kind":"complete_dtor_pointer",
     "mangled_component_name":"_ZTv0_n24_N7android8hardware5radio4V1_215BsRadioResponseD1Ev"
    },
    {
     "kind":"deleting_dtor_pointer",
     "mangled_component_name":"_ZTv0_n24_N7android8hardware5radio4V1_215BsRadioResponseD0Ev"
    },
    {
     "mangled_component_name":"_ZN7android7RefBase10onFirstRefEv"
    },
    {
     "mangled_component_name":"_ZN7android7RefBase15onLastStrongRefEPKv"
    },
    {
     "mangled_component_name":"_ZN7android7RefBase20onIncStrongAttemptedEjPKv"
    },
    {
     "mangled_component_name":"_ZN7android7RefBase13onLastWeakRefEPKv"
    }
   ],
   "unique_id":"_ZTSN7android8hardware5radio4V1_215BsRadioResponseE"
  },
  {
   "vtable_components":[
    {
     "kind":"vbase_offset",
     "component_value":8
    },
    {
     "kind":"offset_to_top"
    },
    {
     "kind":"rtti",
     "mangled_component_name":"_ZTIN7android8hardware5radio4V1_24ISapE"
    },
    {
     "mangled_component_name":"_ZNK7android8hardware5radio4V1_24ISap8isRemoteEv"
    },
    {
     "mangled_component_name":"_ZN7android8hardware5radio4V1_24ISap14interfaceChainENSt3__18functionIFvRKNS0_8hidl_vecINS0_11hidl_stringEEEEEE"
    },
    {
     "mangled_component_name":"_ZN7android8hardware5radio4V1_24ISap5debugERKNS0_11hidl_handleERKNS0_8hidl_vecINS0_11hidl_stringEEE"
    },
    {
     "mangled_component_name":"_ZN7android8hardware5radio4V1_24ISap19interfaceDescriptorENSt3__18functionIFvRKNS0_11hidl_stringEEEE"
    },
    {
     "mangled_component_name":"_ZN7android8hardware5radio4V1_24ISap12getHashChainENSt3__18functionIFvRKNS0_8hidl_vecINS0_10hidl_arrayIhLm32EJEEEEEEEE"
    },
    {
     "mangled_component_name":"_ZN7android8hardware5radio4V1_24ISap21setHALInstrumentationEv"
    },
    {
     "mangled_component_name":"_ZN7android8hardware5radio4V1_24ISap11linkToDeathERKNS_2spINS0_20hidl_death_recipientEEEm"
    },
    {
     "mangled_component_name":"_ZN7android8hardware5radio4V1_24ISap4pingEv"
    },
    {
     "mangled_component_name":"_ZN7android8hardware5radio4V1_24ISap12getDebugInfoENSt3__18functionIFvRKNS_4hidl4base4V1_09DebugInfoEEEE"
    },
    {
     "mangled_component_name":"_ZN7android8hardware5radio4V1_24ISap21notifySyspropsChangedEv"
    },
    {
     "mangled_component_name":"_ZN7android8hardware5radio4V1_24ISap13unlinkToDeathERKNS_2spINS0_20hidl_death_recipientEEE"
    },
    {
     "kind":"complete_dtor_pointer",
     "mangled_component_name":"_ZN7android8hardware5radio4V1_24ISapD1Ev"
    },
    {
     "kind":"deleting_dtor_pointer",
     "mangled_component_name":"_ZN7android8hardware5radio4V1_24ISapD0Ev"
    },
    {
     "is_pure":true,
     "mangled_component_name":"_ZN7android8hardware5radio4V1_24ISap11setCallbackERKNS_2spINS1_4V1_012ISapCallbackEEE"
    },
    {
     "is_pure":true,
     "mangled_component_name":"_ZN7android8hardware5radio4V1_24ISap10connectReqEii"
    },
    {
     "is_pure":true,
     "mangled_component_name":"_ZN7android8hardware5radio4V1_24ISap13disconnectReqEi"
    },
    {
     "is_pure":true,
     "mangled_component_name":"_ZN7android8hardware5radio4V1_24ISap7apduReqEiNS1_4V1_011SapApduTypeERKNS0_8hidl_vecIhEE"
    },
    {
     "is_pure":true,
     "mangled_component_name":"_ZN7android8hardware5radio4V1_24ISap14transferAtrReqEi"
    },
    {
     "is_pure":true,
     "mangled_component_name":"_ZN7android8hardware5radio4V1_24ISap8powerReqEib"
    },
    {
     "is_pure":true,
     "mangled_component_name":"_ZN7android8hardware5radio4V1_24ISap11resetSimReqEi"
    },
    {
     "is_pure":true,
     "mangled_component_name":"_ZN7android8hardware5radio4V1_24ISap27transferCardReaderStatusReqEi"
    },
    {
     "is_pure":true,
     "mangled_component_name":"_ZN7android8hardware5radio4V1_24ISap22setTransferProtocolReqEiNS1_4V1_019SapTransferProtocolE"
    },
    {
     "kind":"vcall_offset"
    },
    {
     "kind":"vcall_offset"
    },
    {
     "kind":"vcall_offset"
    },
    {
     "kind":"vcall_offset"
    },
    {
     "kind":"vcall_offset",
     "component_value":-8
    },
    {
     "kind":"offset_to_top",
     "component_value":-8
    },
    {
     "kind":"rtti",
     "mangled_component_name":"_ZTIN7android8hardware5radio4V1_24ISapE"
    },
    {
     "kind":"complete_dtor_pointer",
     "mangled_component_name":"_ZTv0_n24_N7android8hardware5radio4V1_24ISapD1Ev"
    },
    {
     "kind":"deleting_dtor_pointer",
     "mangled_component_name":"_ZTv0_n24_N7android8hardware5radio4V1_24ISapD0Ev"
    },
    {
     "mangled_component_name":"_ZN7android7RefBase10onFirstRefEv"
    },
    {
     "mangled_component_name":"_ZN7android7RefBase15onLastStrongRefEPKv"
    },
    {
     "mangled_component_name":"_ZN7android7RefBase20onIncStrongAttemptedEjPKv"
    },
    {
     "mangled_component_name":"_ZN7android7RefBase13onLastWeakRefEPKv"
    }
   ],
   "unique_id":"_ZTSN7android8hardware5radio4V1_24ISapE"
  },
  {
   "vtable_components":[
    {
     "kind":"vbase_offset",
     "component_value":200
    },
    {
     "kind":"offset_to_top"
    },
    {
     "kind":"rtti",
     "mangled_component_name":"_ZTIN7android8hardware5radio4V1_27BpHwSapE"
    },
    {
     "mangled_component_name":"_ZNK7android8hardware5radio4V1_27BpHwSap8isRemoteEv"
    },
    {
     "mangled_component_name":"_ZN7android8hardware5radio4V1_27BpHwSap14interfaceChainENSt3__18functionIFvRKNS0_8hidl_vecINS0_11hidl_stringEEEEEE"
    },
    {
     "mangled_component_name":"_ZN7android8hardware5radio4V1_27BpHwSap5debugERKNS0_11hidl_handleERKNS0_8hidl_vecINS0_11hidl_stringEEE"
    },
    {
     "mangled_component_name":"_ZN7android8hardware5radio4V1_27BpHwSap19interfaceDescriptorENSt3__18functionIFvRKNS0_11hidl_stringEEEE"
    },
    {
     "mangled_component_name":"_ZN7android8hardware5radio4V1_27BpHwSap12getHashChainENSt3__18functionIFvRKNS0_8hidl_vecINS0_10hidl_arrayIhLm32EJEEEEEEEE"
    },
    {
     "mangled_component_name":"_ZN7android8hardware5radio4V1_27BpHwSap21setHALInstrumentationEv"
    },
    {
     "mangled_component_name":"_ZN7android8hardware5radio4V1_27BpHwSap11linkToDeathERKNS_2spINS0_20hidl_death_recipientEEEm"
    },
    {
     "mangled_component_name":"_ZN7android8hardware5radio4V1_27BpHwSap4pingEv"
    },
    {
     "mangled_component_name":"_ZN7android8hardware5radio4V1_27BpHwSap12getDebugInfoENSt3__18functionIFvRKNS_4hidl4base4V1_09DebugInfoEEEE"
    },
    {
     "mangled_component_name":"_ZN7android8hardware5radio4V1_27BpHwSap21notifySyspropsChangedEv"
    },
    {
     "mangled_component_name":"_ZN7android8hardware5radio4V1_27BpHwSap13unlinkToDeathERKNS_2spINS0_20hidl_death_recipientEEE"
    },
    {
     "kind":"complete_dtor_pointer",
     "mangled_component_name":"_ZN7android8hardware5radio4V1_27BpHwSapD1Ev"
    },
    {
     "kind":"deleting_dtor_pointer",
     "mangled_component_name":"_ZN7android8hardware5radio4V1_27BpHwSapD0Ev"
    },
    {
     "mangled_component_name":"_ZN7android8hardware5radio4V1_27BpHwSap11setCallbackERKNS_2spINS1_4V1_012ISapCallbackEEE"
    },
    {
     "mangled_component_name":"_ZN7android8hardware5radio4V1_27BpHwSap10connectReqEii"
    },
    {
     "mangled_component_name":"_ZN7android8hardware5radio4V1_27BpHwSap13disconnectReqEi"
    },
    {
     "mangled_component_name":"_ZN7android8hardware5radio4V1_27BpHwSap7apduReqEiNS1_4V1_011SapApduTypeERKNS0_8hidl_vecIhEE"
    },
    {
     "mangled_component_name":"_ZN7android8hardware5radio4V1_27BpHwSap14transferAtrReqEi"
    },
    {
     "mangled_component_name":"_ZN7android8hardware5radio4V1_27BpHwSap8powerReqEib"
    },
    {
     "mangled_component_name":"_ZN7android8hardware5radio4V1_27BpHwSap11resetSimReqEi"
    },
    {
     "mangled_component_name":"_ZN7android8hardware5radio4V1_27BpHwSap27transferCardReaderStatusReqEi"
    },
    {
     "mangled_component_name":"_ZN7android8hardware5radio4V1_27BpHwSap22setTransferProtocolReqEiNS1_4V1_019SapTransferProtocolE"
    },
    {
     "mangled_component_name":"_ZN7android8hardware11BpInterfaceINS0_5radio4V1_24ISapEE10onAsBinderEv"
    },
    {
     "kind":"vbase_offset",
     "component_value":192
    },
    {
     "kind":"offset_to_top",
     "component_value":-8
    },
    {
     "kind":"rtti",
     "mangled_component_name":"_ZTIN7android8hardware5radio4V1_27BpHwSapE"
    },
    {
     "kind":"complete_dtor_pointer",
     "mangled_component_name":"_ZThn8_N7android8hardware5radio4V1_27BpHwSapD1Ev"
    },
    {
     "kind":"deleting_dtor_pointer",
     "mangled_component_name":"_ZThn8_N7android8hardware5radio4V1_27BpHwSapD0Ev"
    },
    {
     "mangled_component_name":"_ZThn8_N7android8hardware11BpInterfaceINS0_5radio4V1_24ISapEE10onAsBinderEv"
    },
    {
     "kind":"vbase_offset",
     "component_value":184
    },
    {
     "kind":"offset_to_top",
     "component_value":-16
    },
    {
     "kind":"rtti",
     "mangled_component_name":"_ZTIN7android8hardware5radio4V1_27BpHwSapE"
    },
    {
     "kind":"complete_dtor_pointer",
     "mangled_component_name":"_ZThn16_N7android8hardware5radio4V1_27BpHwSapD1Ev"
    },
    {
     "kind":"deleting_dtor_pointer",
     "mangled_component_name":"_ZThn16_N7android8hardware5radio4V1_27BpHwSapD0Ev"
    },
    {
     "mangled_component_name":"_ZN7android8hardware11BpHwRefBase10onFirstRefEv"
    },
    {
     "mangled_component_name":"_ZN7android8hardware11BpHwRefBase15onLastStrongRefEPKv"
    },
    {
     "mangled_component_name":"_ZN7android8hardware11BpHwRefBase20onIncStrongAttemptedEjPKv"
    },
    {
     "kind":"offset_to_top",
     "component_value":-48
    },
    {
     "kind":"rtti",
     "mangled_component_name":"_ZTIN7android8hardware5radio4V1_27BpHwSapE"
    },
    {
     "kind":"complete_dtor_pointer",
     "mangled_component_name":"_ZThn48_N7android8hardware5radio4V1_27BpHwSapD1Ev"
    },
    {
     "kind":"deleting_dtor_pointer",
     "mangled_component_name":"_ZThn48_N7android8hardware5radio4V1_27BpHwSapD0Ev"
    },
    {
     "kind":"vcall_offset"
    },
    {
     "kind":"vcall_offset",
     "component_value":-184
    },
    {
     "kind":"vcall_offset",
     "component_value":-184
    },
    {
     "kind":"vcall_offset",
     "component_value":-184
    },
    {
     "kind":"vcall_offset",
     "component_value":-200
    },
    {
     "kind":"offset_to_top",
     "component_value":-200
    },
    {
     "kind":"rtti",
     "mangled_component_name":"_ZTIN7android8hardware5radio4V1_27BpHwSapE"
    },
    {
     "kind":"complete_dtor_pointer",
     "mangled_component_name":"_ZTv0_n24_N7android8hardware5radio4V1_27BpHwSapD1Ev"
    },
    {
     "kind":"deleting_dtor_pointer",
     "mangled_component_name":"_ZTv0_n24_N7android8hardware5radio4V1_27BpHwSapD0Ev"
    },
    {
     "mangled_component_name":"_ZTv0_n32_N7android8hardware11BpHwRefBase10onFirstRefEv"
    },
    {
     "mangled_component_name":"_ZTv0_n40_N7android8hardware11BpHwRefBase15onLastStrongRefEPKv"
    },
    {
     "mangled_component_name":"_ZTv0_n48_N7android8hardware11BpHwRefBase20onIncStrongAttemptedEjPKv"
    },
    {
     "mangled_component_name":"_ZN7android7RefBase13onLastWeakRefEPKv"
    }
   ],
   "unique_id":"_ZTSN7android8hardware5radio4V1_27BpHwSapE"
  },
  {
   "vtable_components":[
    {
     "kind":"vbase_offset",
     "component_value":136
    },
    {
     "kind":"offset_to_top"
    },
    {
     "kind":"rtti",
     "mangled_component_name":"_ZTIN7android8hardware5radio4V1_27BnHwSapE"
    },
    {
     "mangled_component_name":"_ZN7android8hardware9BHwBinder8transactEjRKNS0_6ParcelEPS2_jNSt3__18functionIFvRS2_EEE"
    },
    {
     "mangled_component_name":"_ZN7android8hardware9BHwBinder11linkToDeathERKNS_2spINS0_7IBinder14DeathRecipientEEEPvj"
    },
    {
     "mangled_component_name":"_ZN7android8hardware9BHwBinder13unlinkToDeathERKNS_2wpINS0_7IBinder14DeathRecipientEEEPvjPS5_"
    },
    {
     "mangled_component_name":"_ZNK7android8hardware7IBinder13checkSubclassEPKv"
    },
    {
     "mangled_component_name":"_ZN7android8hardware9BHwBinder12attachObjectEPKvPvS4_PFvS3_S4_S4_E"
    },
    {
     "mangled_component_name":"_ZNK7android8hardware9BHwBinder10findObjectEPKv"
    },
    {
     "mangled_component_name":"_ZN7android8hardware9BHwBinder12detachObjectEPKv"
    },
    {
     "mangled_component_name":"_ZN7android8hardware9BHwBinder11localBinderEv"
    },
    {
     "mangled_component_name":"_ZN7android8hardware7IBinder12remoteBinderEv"
    },
    {
     "kind":"complete_dtor_pointer",
     "mangled_component_name":"_ZN7android8hardware5radio4V1_27BnHwSapD1Ev"
    },
    {
     "kind":"deleting_dtor_pointer",
     "mangled_component_name":"_ZN7android8hardware5radio4V1_27BnHwSapD0Ev"
    },
    {
     "mangled_component_name":"_ZN7android8hardware5radio4V1_27BnHwSap10onTransactEjRKNS0_6ParcelEPS4_jNSt3__18functionIFvRS4_EEE"
    },
    {
     "kind":"offset_to_top",
     "component_value":-32
    },
    {
     "kind":"rtti",
     "mangled_component_name":"_ZTIN7android8hardware5radio4V1_27BnHwSapE"
    },
    {
     "kind":"complete_dtor_pointer",
     "mangled_component_name":"_ZThn32_N7android8hardware5radio4V1_27BnHwSapD1Ev"
    },
    {
     "kind":"deleting_dtor_pointer",
     "mangled_component_name":"_ZThn32_N7android8hardware5radio4V1_27BnHwSapD0Ev"
    },
    {
     "kind":"vcall_offset"
    },
    {
     "kind":"vcall_offset"
    },
    {
     "kind":"vcall_offset"
    },
    {
     "kind":"vcall_offset"
    },
    {
     "kind":"vcall_offset",
     "component_value":-136
    },
    {
     "kind":"offset_to_top",
     "component_value":-136
    },
    {
     "kind":"rtti",
     "mangled_component_name":"_ZTIN7android8hardware5radio4V1_27BnHwSapE"
    },
    {
     "kind":"complete_dtor_pointer",
     "mangled_component_name":"_ZTv0_n24_N7android8hardware5radio4V1_27BnHwSapD1Ev"
    },
    {
     "kind":"deleting_dtor_pointer",
     "mangled_component_name":"_ZTv0_n24_N7android8hardware5radio4V1_27BnHwSapD0Ev"
    },
    {
     "mangled_component_name":"_ZN7android7RefBase10onFirstRefEv"
    },
    {
     "mangled_component_name":"_ZN7android7RefBase15onLastStrongRefEPKv"
    },
    {
     "mangled_component_name":"_ZN7android7RefBase20onIncStrongAttemptedEjPKv"
    },
    {
     "mangled_component_name":"_ZN7android7RefBase13onLastWeakRefEPKv"
    }
   ],
   "unique_id":"_ZTSN7android8hardware5radio4V1_27BnHwSapE"
  },
  {
   "vtable_components":[
    {
     "kind":"vbase_offset",
     "component_value":120
    },
    {
     "kind":"offset_to_top"
    },
    {
     "kind":"rtti",
     "mangled_component_name":"_ZTIN7android8hardware5radio4V1_25BsSapE"
    },
    {
     "mangled_component_name":"_ZNK7android8hardware5radio4V1_24ISap8isRemoteEv"
    },
    {
     "mangled_component_name":"_ZN7android8hardware5radio4V1_25BsSap14interfaceChainENSt3__18functionIFvRKNS0_8hidl_vecINS0_11hidl_stringEEEEEE"
    },
    {
     "mangled_component_name":"_ZN7android8hardware5radio4V1_25BsSap5debugERKNS0_11hidl_handleERKNS0_8hidl_vecINS0_11hidl_stringEEE"
    },
    {
     "mangled_component_name":"_ZN7android8hardware5radio4V1_25BsSap19interfaceDescriptorENSt3__18functionIFvRKNS0_11hidl_stringEEEE"
    },
    {
     "mangled_component_name":"_ZN7android8hardware5radio4V1_25BsSap12getHashChainENSt3__18functionIFvRKNS0_8hidl_vecINS0_10hidl_arrayIhLm32EJEEEEEEEE"
    },
    {
     "mangled_component_name":"_ZN7android8hardware5radio4V1_25BsSap21setHALInstrumentationEv"
    },
    {
     "mangled_component_name":"_ZN7android8hardware5radio4V1_25BsSap11linkToDeathERKNS_2spINS0_20hidl_death_recipientEEEm"
    },
    {
     "mangled_component_name":"_ZN7android8hardware5radio4V1_25BsSap4pingEv"
    },
    {
     "mangled_component_name":"_ZN7android8hardware5radio4V1_25BsSap12getDebugInfoENSt3__18functionIFvRKNS_4hidl4base4V1_09DebugInfoEEEE"
    },
    {
     "mangled_component_name":"_ZN7android8hardware5radio4V1_25BsSap21notifySyspropsChangedEv"
    },
    {
     "mangled_component_name":"_ZN7android8hardware5radio4V1_25BsSap13unlinkToDeathERKNS_2spINS0_20hidl_death_recipientEEE"
    },
    {
     "kind":"complete_dtor_pointer",
     "mangled_component_name":"_ZN7android8hardware5radio4V1_25BsSapD1Ev"
    },
    {
     "kind":"deleting_dtor_pointer",
     "mangled_component_name":"_ZN7android8hardware5radio4V1_25BsSapD0Ev"
    },
    {
     "mangled_component_name":"_ZN7android8hardware5radio4V1_25BsSap11setCallbackERKNS_2spINS1_4V1_012ISapCallbackEEE"
    },
    {
     "mangled_component_name":"_ZN7android8hardware5radio4V1_25BsSap10connectReqEii"
    },
    {
     "mangled_component_name":"_ZN7android8hardware5radio4V1_25BsSap13disconnectReqEi"
    },
    {
     "mangled_component_name":"_ZN7android8hardware5radio4V1_25BsSap7apduReqEiNS1_4V1_011SapApduTypeERKNS0_8hidl_vecIhEE"
    },
    {
     "mangled_component_name":"_ZN7android8hardware5radio4V1_25BsSap14transferAtrReqEi"
    },
    {
     "mangled_component_name":"_ZN7android8hardware5radio4V1_25BsSap8powerReqEib"
    },
    {
     "mangled_component_name":"_ZN7android8hardware5radio4V1_25BsSap11resetSimReqEi"
    },
    {
     "mangled_component_name":"_ZN7android8hardware5radio4V1_25BsSap27transferCardReaderStatusReqEi"
    },
    {
     "mangled_component_name":"_ZN7android8hardware5radio4V1_25BsSap22setTransferProtocolReqEiNS1_4V1_019SapTransferProtocolE"
    },
    {
     "kind":"offset_to_top",
     "component_value":-8
    },
    {
     "kind":"rtti",
     "mangled_component_name":"_ZTIN7android8hardware5radio4V1_25BsSapE"
    },
    {
     "kind":"complete_dtor_pointer",
     "mangled_component_name":"_ZThn8_N7android8hardware5radio4V1_25BsSapD1Ev"
    },
    {
     "kind":"deleting_dtor_pointer",
     "mangled_component_name":"_ZThn8_N7android8hardware5radio4V1_25BsSapD0Ev"
    },
    {
     "kind":"vcall_offset"
    },
    {
     "kind":"vcall_offset"
    },
    {
     "kind":"vcall_offset"
    },
    {
     "kind":"vcall_offset"
    },
    {
     "kind":"vcall_offset",
     "component_value":-120
    },
    {
     "kind":"offset_to_top",
     "component_value":-120
    },
    {
     "kind":"rtti",
     "mangled_component_name":"_ZTIN7android8hardware5radio4V1_25BsSapE"
    },
    {
     "kind":"complete_dtor_pointer",
     "mangled_component_name":"_ZTv0_n24_N7android8hardware5radio4V1_25BsSapD1Ev"
    },
    {
     "kind":"deleting_dtor_pointer",
     "mangled_component_name":"_ZTv0_n24_N7android8hardware5radio4V1_25BsSapD0Ev"
    },
    {
     "mangled_component_name":"_ZN7android7RefBase10onFirstRefEv"
    },
    {
     "mangled_component_name":"_ZN7android7RefBase15onLastStrongRefEPKv"
    },
    {
     "mangled_component_name":"_ZN7android7RefBase20onIncStrongAttemptedEjPKv"
    },
    {
     "mangled_component_name":"_ZN7android7RefBase13onLastWeakRefEPKv"
    }
   ],
   "unique_id":"_ZTSN7android8hardware5radio4V1_25BsSapE"
  },
  {
   "vtable_components":[
    {
     "kind":"vbase_offset",
     "component_value":8
    },
    {
     "kind":"offset_to_top"
    },
    {
     "kind":"rtti",
     "mangled_component_name":"_ZTIN7android8hardware5radio4V1_26IRadioE"
    },
    {
     "mangled_component_name":"_ZNK7android8hardware5radio4V1_26IRadio8isRemoteEv"
    },
    {
     "mangled_component_name":"_ZN7android8hardware5radio4V1_26IRadio14interfaceChainENSt3__18functionIFvRKNS0_8hidl_vecINS0_11hidl_stringEEEEEE"
    },
    {
     "mangled_component_name":"_ZN7android8hardware5radio4V1_26IRadio5debugERKNS0_11hidl_handleERKNS0_8hidl_vecINS0_11hidl_stringEEE"
    },
    {
     "mangled_component_name":"_ZN7android8hardware5radio4V1_26IRadio19interfaceDescriptorENSt3__18functionIFvRKNS0_11hidl_stringEEEE"
    },
    {
     "mangled_component_name":"_ZN7android8hardware5radio4V1_26IRadio12getHashChainENSt3__18functionIFvRKNS0_8hidl_vecINS0_10hidl_arrayIhLm32EJEEEEEEEE"
    },
    {
     "mangled_component_name":"_ZN7android8hardware5radio4V1_26IRadio21setHALInstrumentationEv"
    },
    {
     "mangled_component_name":"_ZN7android8hardware5radio4V1_26IRadio11linkToDeathERKNS_2spINS0_20hidl_death_recipientEEEm"
    },
    {
     "mangled_component_name":"_ZN7android8hardware5radio4V1_26IRadio4pingEv"
    },
    {
     "mangled_component_name":"_ZN7android8hardware5radio4V1_26IRadio12getDebugInfoENSt3__18functionIFvRKNS_4hidl4base4V1_09DebugInfoEEEE"
    },
    {
     "mangled_component_name":"_ZN7android8hardware5radio4V1_26IRadio21notifySyspropsChangedEv"
    },
    {
     "mangled_component_name":"_ZN7android8hardware5radio4V1_26IRadio13unlinkToDeathERKNS_2spINS0_20hidl_death_recipientEEE"
    },
    {
     "kind":"complete_dtor_pointer",
     "mangled_component_name":"_ZN7android8hardware5radio4V1_26IRadioD1Ev"
    },
    {
     "kind":"deleting_dtor_pointer",
     "mangled_component_name":"_ZN7android8hardware5radio4V1_26IRadioD0Ev"
    },
    {
     "is_pure":true,
     "mangled_component_name":"_ZN7android8hardware5radio4V1_26IRadio20setResponseFunctionsERKNS_2spINS1_4V1_014IRadioResponseEEERKNS4_INS5_16IRadioIndicationEEE"
    },
    {
     "is_pure":true,
     "mangled_component_name":"_ZN7android8hardware5radio4V1_26IRadio16getIccCardStatusEi"
    },
    {
     "is_pure":true,
     "mangled_component_name":"_ZN7android8hardware5radio4V1_26IRadio18supplyIccPinForAppEiRKNS0_11hidl_stringES6_"
    },
    {
     "is_pure":true,
     "mangled_component_name":"_ZN7android8hardware5radio4V1_26IRadio18supplyIccPukForAppEiRKNS0_11hidl_stringES6_S6_"
    },
    {
     "is_pure":true,
     "mangled_component_name":"_ZN7android8hardware5radio4V1_26IRadio19supplyIccPin2ForAppEiRKNS0_11hidl_stringES6_"
    },
    {
     "is_pure":true,
     "mangled_component_name":"_ZN7android8hardware5radio4V1_26IRadio19supplyIccPuk2ForAppEiRKNS0_11hidl_stringES6_S6_"
    },
    {
     "is_pure":true,
     "mangled_component_name":"_ZN7android8hardware5radio4V1_26IRadio18changeIccPinForAppEiRKNS0_11hidl_stringES6_S6_"
    },
    {
     "is_pure":true,
     "mangled_component_name":"_ZN7android8hardware5radio4V1_26IRadio19changeIccPin2ForAppEiRKNS0_11hidl_stringES6_S6_"
    },
    {
     "is_pure":true,
     "mangled_component_name":"_ZN7android8hardware5radio4V1_26IRadio30supplyNetworkDepersonalizationEiRKNS0_11hidl_stringE"
    },
    {
     "is_pure":true,
     "mangled_component_name":"_ZN7android8hardware5radio4V1_26IRadio15getCurrentCallsEi"
    },
    {
     "is_pure":true,
     "mangled_component_name":"_ZN7android8hardware5radio4V1_26IRadio4dialEiRKNS1_4V1_04DialE"
    },
    {
     "is_pure":true,
     "mangled_component_name":"_ZN7android8hardware5radio4V1_26IRadio13getImsiForAppEiRKNS0_11hidl_stringE"
    },
    {
     "is_pure":true,
     "mangled_component_name":"_ZN7android8hardware5radio4V1_26IRadio6hangupEii"
    },
    {
     "is_pure":true,
     "mangled_component_name":"_ZN7android8hardware5radio4V1_26IRadio25hangupWaitingOrBackgroundEi"
    },
    {
     "is_pure":true,
     "mangled_component_name":"_ZN7android8hardware5radio4V1_26IRadio32hangupForegroundResumeBackgroundEi"
    },
    {
     "is_pure":true,
     "mangled_component_name":"_ZN7android8hardware5radio4V1_26IRadio31switchWaitingOrHoldingAndActiveEi"
    },
    {
     "is_pure":true,
     "mangled_component_name":"_ZN7android8hardware5radio4V1_26IRadio10conferenceEi"
    },
    {
     "is_pure":true,
     "mangled_component_name":"_ZN7android8hardware5radio4V1_26IRadio10rejectCallEi"
    },
    {
     "is_pure":true,
     "mangled_component_name":"_ZN7android8hardware5radio4V1_26IRadio20getLastCallFailCauseEi"
    },
    {
     "is_pure":true,
     "mangled_component_name":"_ZN7android8hardware5radio4V1_26IRadio17getSignalStrengthEi"
    },
    {
     "is_pure":true,
     "mangled_component_name":"_ZN7android8hardware5radio4V1_26IRadio25getVoiceRegistrationStateEi"
    },
    {
     "is_pure":true,
     "mangled_component_name":"_ZN7android8hardware5radio4V1_26IRadio24getDataRegistrationStateEi"
    },
    {
     "is_pure":true,
     "mangled_component_name":"_ZN7android8hardware5radio4V1_26IRadio11getOperatorEi"
    },
    {
     "is_pure":true,
     "mangled_component_name":"_ZN7android8hardware5radio4V1_26IRadio13setRadioPowerEib"
    },
    {
     "is_pure":true,
     "mangled_component_name":"_ZN7android8hardware5radio4V1_26IRadio8sendDtmfEiRKNS0_11hidl_stringE"
    },
    {
     "is_pure":true,
     "mangled_component_name":"_ZN7android8hardware5radio4V1_26IRadio7sendSmsEiRKNS1_4V1_013GsmSmsMessageE"
    },
    {
     "is_pure":true,
     "mangled_component_name":"_ZN7android8hardware5radio4V1_26IRadio17sendSMSExpectMoreEiRKNS1_4V1_013GsmSmsMessageE"
    },
    {
     "is_pure":true,
     "mangled_component_name":"_ZN7android8hardware5radio4V1_26IRadio13setupDataCallEiNS1_4V1_015RadioTechnologyERKNS4_15DataProfileInfoEbbb"
    },
    {
     "is_pure":true,
     "mangled_component_name":"_ZN7android8hardware5radio4V1_26IRadio11iccIOForAppEiRKNS1_4V1_05IccIoE"
    },
    {
     "is_pure":true,
     "mangled_component_name":"_ZN7android8hardware5radio4V1_26IRadio8sendUssdEiRKNS0_11hidl_stringE"
    },
    {
     "is_pure":true,
     "mangled_component_name":"_ZN7android8hardware5radio4V1_26IRadio17cancelPendingUssdEi"
    },
    {
     "is_pure":true,
     "mangled_component_name":"_ZN7android8hardware5radio4V1_26IRadio7getClirEi"
    },
    {
     "is_pure":true,
     "mangled_component_name":"_ZN7android8hardware5radio4V1_26IRadio7setClirEii"
    },
    {
     "is_pure":true,
     "mangled_component_name":"_ZN7android8hardware5radio4V1_26IRadio20getCallForwardStatusEiRKNS1_4V1_015CallForwardInfoE"
    },
    {
     "is_pure":true,
     "mangled_component_name":"_ZN7android8hardware5radio4V1_26IRadio14setCallForwardEiRKNS1_4V1_015CallForwardInfoE"
    },
    {
     "is_pure":true,
     "mangled_component_name":"_ZN7android8hardware5radio4V1_26IRadio14getCallWaitingEii"
    },
    {
     "is_pure":true,
     "mangled_component_name":"_ZN7android8hardware5radio4V1_26IRadio14setCallWaitingEibi"
    },
    {
     "is_pure":true,
     "mangled_component_name":"_ZN7android8hardware5radio4V1_26IRadio29acknowledgeLastIncomingGsmSmsEibNS1_4V1_023SmsAcknowledgeFailCauseE"
    },
    {
     "is_pure":true,
     "mangled_component_name":"_ZN7android8hardware5radio4V1_26IRadio10acceptCallEi"
    },
    {
     "is_pure":true,
     "mangled_component_name":"_ZN7android8hardware5radio4V1_26IRadio18deactivateDataCallEiib"
    },
    {
     "is_pure":true,
     "mangled_component_name":"_ZN7android8hardware5radio4V1_26IRadio21getFacilityLockForAppEiRKNS0_11hidl_stringES6_iS6_"
    },
    {
     "is_pure":true,
     "mangled_component_name":"_ZN7android8hardware5radio4V1_26IRadio21setFacilityLockForAppEiRKNS0_11hidl_stringEbS6_iS6_"
    },
    {
     "is_pure":true,
     "mangled_component_name":"_ZN7android8hardware5radio4V1_26IRadio18setBarringPasswordEiRKNS0_11hidl_stringES6_S6_"
    },
    {
     "is_pure":true,
     "mangled_component_name":"_ZN7android8hardware5radio4V1_26IRadio23getNetworkSelectionModeEi"
    },
    {
     "is_pure":true,
     "mangled_component_name":"_ZN7android8hardware5radio4V1_26IRadio32setNetworkSelectionModeAutomaticEi"
    },
    {
     "is_pure":true,
     "mangled_component_name":"_ZN7android8hardware5radio4V1_26IRadio29setNetworkSelectionModeManualEiRKNS0_11hidl_stringE"
    },
    {
     "is_pure":true,
     "mangled_component_name":"_ZN7android8hardware5radio4V1_26IRadio20getAvailableNetworksEi"
    },
    {
     "is_pure":true,
     "mangled_component_name":"_ZN7android8hardware5radio4V1_26IRadio9startDtmfEiRKNS0_11hidl_stringE"
    },
    {
     "is_pure":true,
     "mangled_component_name":"_ZN7android8hardware5radio4V1_26IRadio8stopDtmfEi"
    },
    {
     "is_pure":true,
     "mangled_component_name":"_ZN7android8hardware5radio4V1_26IRadio18getBasebandVersionEi"
    },
    {
     "is_pure":true,
     "mangled_component_name":"_ZN7android8hardware5radio4V1_26IRadio18separateConnectionEii"
    },
    {
     "is_pure":true,
     "mangled_component_name":"_ZN7android8hardware5radio4V1_26IRadio7setMuteEib"
    },
    {
     "is_pure":true,
     "mangled_component_name":"_ZN7android8hardware5radio4V1_26IRadio7getMuteEi"
    },
    {
     "is_pure":true,
     "mangled_component_name":"_ZN7android8hardware5radio4V1_26IRadio7getClipEi"
    },
    {
     "is_pure":true,
     "mangled_component_name":"_ZN7android8hardware5radio4V1_26IRadio15getDataCallListEi"
    },
    {
     "is_pure":true,
     "mangled_component_name":"_ZN7android8hardware5radio4V1_26IRadio27setSuppServiceNotificationsEib"
    },
    {
     "is_pure":true,
     "mangled_component_name":"_ZN7android8hardware5radio4V1_26IRadio13writeSmsToSimEiRKNS1_4V1_012SmsWriteArgsE"
    },
    {
     "is_pure":true,
     "mangled_component_name":"_ZN7android8hardware5radio4V1_26IRadio14deleteSmsOnSimEii"
    },
    {
     "is_pure":true,
     "mangled_component_name":"_ZN7android8hardware5radio4V1_26IRadio11setBandModeEiNS1_4V1_013RadioBandModeE"
    },
    {
     "is_pure":true,
     "mangled_component_name":"_ZN7android8hardware5radio4V1_26IRadio21getAvailableBandModesEi"
    },
    {
     "is_pure":true,
     "mangled_component_name":"_ZN7android8hardware5radio4V1_26IRadio12sendEnvelopeEiRKNS0_11hidl_stringE"
    },
    {
     "is_pure":true,
     "mangled_component_name":"_ZN7android8hardware5radio4V1_26IRadio25sendTerminalResponseToSimEiRKNS0_11hidl_stringE"
    },
    {
     "is_pure":true,
     "mangled_component_name":"_ZN7android8hardware5radio4V1_26IRadio32handleStkCallSetupRequestFromSimEib"
    },
    {
     "is_pure":true,
     "mangled_component_name":"_ZN7android8hardware5radio4V1_26IRadio20explicitCallTransferEi"
    },
    {
     "is_pure":true,
     "mangled_component_name":"_ZN7android8hardware5radio4V1_26IRadio23setPreferredNetworkTypeEiNS1_4V1_020PreferredNetworkTypeE"
    },
    {
     "is_pure":true,
     "mangled_component_name":"_ZN7android8hardware5radio4V1_26IRadio23getPreferredNetworkTypeEi"
    },
    {
     "is_pure":true,
     "mangled_component_name":"_ZN7android8hardware5radio4V1_26IRadio18getNeighboringCidsEi"
    },
    {
     "is_pure":true,
     "mangled_component_name":"_ZN7android8hardware5radio4V1_26IRadio18setLocationUpdatesEib"
    },
    {
     "is_pure":true,
     "mangled_component_name":"_ZN7android8hardware5radio4V1_26IRadio25setCdmaSubscriptionSourceEiNS1_4V1_022CdmaSubscriptionSourceE"
    },
    {
     "is_pure":true,
     "mangled_component_name":"_ZN7android8hardware5radio4V1_26IRadio24setCdmaRoamingPreferenceEiNS1_4V1_015CdmaRoamingTypeE"
    },
    {
     "is_pure":true,
     "mangled_component_name":"_ZN7android8hardware5radio4V1_26IRadio24getCdmaRoamingPreferenceEi"
    },
    {
     "is_pure":true,
     "mangled_component_name":"_ZN7android8hardware5radio4V1_26IRadio10setTTYModeEiNS1_4V1_07TtyModeE"
    },
    {
     "is_pure":true,
     "mangled_component_name":"_ZN7android8hardware5radio4V1_26IRadio10getTTYModeEi"
    },
    {
     "is_pure":true,
     "mangled_component_name":"_ZN7android8hardware5radio4V1_26IRadio24setPreferredVoicePrivacyEib"
    },
    {
     "is_pure":true,
     "mangled_component_name":"_ZN7android8hardware5radio4V1_26IRadio24getPreferredVoicePrivacyEi"
    },
    {
     "is_pure":true,
     "mangled_component_name":"_ZN7android8hardware5radio4V1_26IRadio19sendCDMAFeatureCodeEiRKNS0_11hidl_stringE"
    },
    {
     "is_pure":true,
     "mangled_component_name":"_ZN7android8hardware5radio4V1_26IRadio13sendBurstDtmfEiRKNS0_11hidl_stringEii"
    },
    {
     "is_pure":true,
     "mangled_component_name":"_ZN7android8hardware5radio4V1_26IRadio11sendCdmaSmsEiRKNS1_4V1_014CdmaSmsMessageE"
    },
    {
     "is_pure":true,
     "mangled_component_name":"_ZN7android8hardware5radio4V1_26IRadio30acknowledgeLastIncomingCdmaSmsEiRKNS1_4V1_010CdmaSmsAckE"
    },
    {
     "is_pure":true,
     "mangled_component_name":"_ZN7android8hardware5radio4V1_26IRadio21getGsmBroadcastConfigEi"
    },
    {
     "is_pure":true,
     "mangled_component_name":"_ZN7android8hardware5radio4V1_26IRadio21setGsmBroadcastConfigEiRKNS0_8hidl_vecINS1_4V1_025GsmBroadcastSmsConfigInfoEEE"
    },
    {
     "is_pure":true,
     "mangled_component_name":"_ZN7android8hardware5radio4V1_26IRadio25setGsmBroadcastActivationEib"
    },
    {
     "is_pure":true,
     "mangled_component_name":"_ZN7android8hardware5radio4V1_26IRadio22getCdmaBroadcastConfigEi"
    },
    {
     "is_pure":true,
     "mangled_component_name":"_ZN7android8hardware5radio4V1_26IRadio22setCdmaBroadcastConfigEiRKNS0_8hidl_vecINS1_4V1_026CdmaBroadcastSmsConfigInfoEEE"
    },
    {
     "is_pure":true,
     "mangled_component_name":"_ZN7android8hardware5radio4V1_26IRadio26setCdmaBroadcastActivationEib"
    },
    {
     "is_pure":true,
     "mangled_component_name":"_ZN7android8hardware5radio4V1_26IRadio19getCDMASubscriptionEi"
    },
    {
     "is_pure":true,
     "mangled_component_name":"_ZN7android8hardware5radio4V1_26IRadio14writeSmsToRuimEiRKNS1_4V1_016CdmaSmsWriteArgsE"
    },
    {
     "is_pure":true,
     "mangled_component_name":"_ZN7android8hardware5radio4V1_26IRadio15deleteSmsOnRuimEii"
    },
    {
     "is_pure":true,
     "mangled_component_name":"_ZN7android8hardware5radio4V1_26IRadio17getDeviceIdentityEi"
    },
    {
     "is_pure":true,
     "mangled_component_name":"_ZN7android8hardware5radio4V1_26IRadio25exitEmergencyCallbackModeEi"
    },
    {
     "is_pure":true,
     "mangled_component_name":"_ZN7android8hardware5radio4V1_26IRadio14getSmscAddressEi"
    },
    {
     "is_pure":true,
     "mangled_component_name":"_ZN7android8hardware5radio4V1_26IRadio14setSmscAddressEiRKNS0_11hidl_stringE"
    },
    {
     "is_pure":true,
     "mangled_component_name":"_ZN7android8hardware5radio4V1_26IRadio21reportSmsMemoryStatusEib"
    },
    {
     "is_pure":true,
     "mangled_component_name":"_ZN7android8hardware5radio4V1_26IRadio25reportStkServiceIsRunningEi"
    },
    {
     "is_pure":true,
     "mangled_component_name":"_ZN7android8hardware5radio4V1_26IRadio25getCdmaSubscriptionSourceEi"
    },
    {
     "is_pure":true,
     "mangled_component_name":"_ZN7android8hardware5radio4V1_26IRadio25requestIsimAuthenticationEiRKNS0_11hidl_stringE"
    },
    {
     "is_pure":true,
     "mangled_component_name":"_ZN7android8hardware5radio4V1_26IRadio32acknowledgeIncomingGsmSmsWithPduEibRKNS0_11hidl_stringE"
    },
    {
     "is_pure":true,
     "mangled_component_name":"_ZN7android8hardware5radio4V1_26IRadio22sendEnvelopeWithStatusEiRKNS0_11hidl_stringE"
    },
    {
     "is_pure":true,
     "mangled_component_name":"_ZN7android8hardware5radio4V1_26IRadio23getVoiceRadioTechnologyEi"
    },
    {
     "is_pure":true,
     "mangled_component_name":"_ZN7android8hardware5radio4V1_26IRadio15getCellInfoListEi"
    },
    {
     "is_pure":true,
     "mangled_component_name":"_ZN7android8hardware5radio4V1_26IRadio19setCellInfoListRateEii"
    },
    {
     "is_pure":true,
     "mangled_component_name":"_ZN7android8hardware5radio4V1_26IRadio19setInitialAttachApnEiRKNS1_4V1_015DataProfileInfoEbb"
    },
    {
     "is_pure":true,
     "mangled_component_name":"_ZN7android8hardware5radio4V1_26IRadio23getImsRegistrationStateEi"
    },
    {
     "is_pure":true,
     "mangled_component_name":"_ZN7android8hardware5radio4V1_26IRadio10sendImsSmsEiRKNS1_4V1_013ImsSmsMessageE"
    },
    {
     "is_pure":true,
     "mangled_component_name":"_ZN7android8hardware5radio4V1_26IRadio27iccTransmitApduBasicChannelEiRKNS1_4V1_07SimApduE"
    },
    {
     "is_pure":true,
     "mangled_component_name":"_ZN7android8hardware5radio4V1_26IRadio21iccOpenLogicalChannelEiRKNS0_11hidl_stringEi"
    },
    {
     "is_pure":true,
     "mangled_component_name":"_ZN7android8hardware5radio4V1_26IRadio22iccCloseLogicalChannelEii"
    },
    {
     "is_pure":true,
     "mangled_component_name":"_ZN7android8hardware5radio4V1_26IRadio29iccTransmitApduLogicalChannelEiRKNS1_4V1_07SimApduE"
    },
    {
     "is_pure":true,
     "mangled_component_name":"_ZN7android8hardware5radio4V1_26IRadio10nvReadItemEiNS1_4V1_06NvItemE"
    },
    {
     "is_pure":true,
     "mangled_component_name":"_ZN7android8hardware5radio4V1_26IRadio11nvWriteItemEiRKNS1_4V1_011NvWriteItemE"
    },
    {
     "is_pure":true,
     "mangled_component_name":"_ZN7android8hardware5radio4V1_26IRadio14nvWriteCdmaPrlEiRKNS0_8hidl_vecIhEE"
    },
    {
     "is_pure":true,
     "mangled_component_name":"_ZN7android8hardware5radio4V1_26IRadio13nvResetConfigEiNS1_4V1_011ResetNvTypeE"
    },
    {
     "is_pure":true,
     "mangled_component_name":"_ZN7android8hardware5radio4V1_26IRadio19setUiccSubscriptionEiRKNS1_4V1_013SelectUiccSubE"
    },
    {
     "is_pure":true,
     "mangled_component_name":"_ZN7android8hardware5radio4V1_26IRadio14setDataAllowedEib"
    },
    {
     "is_pure":true,
     "mangled_component_name":"_ZN7android8hardware5radio4V1_26IRadio17getHardwareConfigEi"
    },
    {
     "is_pure":true,
     "mangled_component_name":"_ZN7android8hardware5radio4V1_26IRadio27requestIccSimAuthenticationEiiRKNS0_11hidl_stringES6_"
    },
    {
     "is_pure":true,
     "mangled_component_name":"_ZN7android8hardware5radio4V1_26IRadio14setDataProfileEiRKNS0_8hidl_vecINS1_4V1_015DataProfileInfoEEEb"
    },
    {
     "is_pure":true,
     "mangled_component_name":"_ZN7android8hardware5radio4V1_26IRadio15requestShutdownEi"
    },
    {
     "is_pure":true,
     "mangled_component_name":"_ZN7android8hardware5radio4V1_26IRadio18getRadioCapabilityEi"
    },
    {
     "is_pure":true,
     "mangled_component_name":"_ZN7android8hardware5radio4V1_26IRadio18setRadioCapabilityEiRKNS1_4V1_015RadioCapabilityE"
    },
    {
     "is_pure":true,
     "mangled_component_name":"_ZN7android8hardware5radio4V1_26IRadio15startLceServiceEiib"
    },
    {
     "is_pure":true,
     "mangled_component_name":"_ZN7android8hardware5radio4V1_26IRadio14stopLceServiceEi"
    },
    {
     "is_pure":true,
     "mangled_component_name":"_ZN7android8hardware5radio4V1_26IRadio11pullLceDataEi"
    },
    {
     "is_pure":true,
     "mangled_component_name":"_ZN7android8hardware5radio4V1_26IRadio20getModemActivityInfoEi"
    },
    {
     "is_pure":true,
     "mangled_component_name":"_ZN7android8hardware5radio4V1_26IRadio18setAllowedCarriersEibRKNS1_4V1_019CarrierRestrictionsE"
    },
    {
     "is_pure":true,
     "mangled_component_name":"_ZN7android8hardware5radio4V1_26IRadio18getAllowedCarriersEi"
    },
    {
     "is_pure":true,
     "mangled_component_name":"_ZN7android8hardware5radio4V1_26IRadio15sendDeviceStateEiNS1_4V1_015DeviceStateTypeEb"
    },
    {
     "is_pure":true,
     "mangled_component_name":"_ZN7android8hardware5radio4V1_26IRadio19setIndicationFilterEii"
    },
    {
     "is_pure":true,
     "mangled_component_name":"_ZN7android8hardware5radio4V1_26IRadio15setSimCardPowerEib"
    },
    {
     "is_pure":true,
     "mangled_component_name":"_ZN7android8hardware5radio4V1_26IRadio23responseAcknowledgementEv"
    },
    {
     "is_pure":true,
     "mangled_component_name":"_ZN7android8hardware5radio4V1_26IRadio31setCarrierInfoForImsiEncryptionEiRKNS1_4V1_118ImsiEncryptionInfoE"
    },
    {
     "is_pure":true,
     "mangled_component_name":"_ZN7android8hardware5radio4V1_26IRadio19setSimCardPower_1_1EiNS1_4V1_114CardPowerStateE"
    },
    {
     "is_pure":true,
     "mangled_component_name":"_ZN7android8hardware5radio4V1_26IRadio16startNetworkScanEiRKNS1_4V1_118NetworkScanRequestE"
    },
    {
     "is_pure":true,
     "mangled_component_name":"_ZN7android8hardware5radio4V1_26IRadio15stopNetworkScanEi"
    },
    {
     "is_pure":true,
     "mangled_component_name":"_ZN7android8hardware5radio4V1_26IRadio14startKeepaliveEiRKNS1_4V1_116KeepaliveRequestE"
    },
    {
     "is_pure":true,
     "mangled_component_name":"_ZN7android8hardware5radio4V1_26IRadio13stopKeepaliveEii"
    },
    {
     "is_pure":true,
     "mangled_component_name":"_ZN7android8hardware5radio4V1_26IRadio20startNetworkScan_1_2EiRKNS2_18NetworkScanRequestE"
    },
    {
     "is_pure":true,
     "mangled_component_name":"_ZN7android8hardware5radio4V1_26IRadio23setIndicationFilter_1_2Eii"
    },
    {
     "is_pure":true,
     "mangled_component_name":"_ZN7android8hardware5radio4V1_26IRadio34setSignalStrengthReportingCriteriaEiiiRKNS0_8hidl_vecIiEENS2_13AccessNetworkE"
    },
    {
     "is_pure":true,
     "mangled_component_name":"_ZN7android8hardware5radio4V1_26IRadio32setLinkCapacityReportingCriteriaEiiiiRKNS0_8hidl_vecIiEES7_NS2_13AccessNetworkE"
    },
    {
     "is_pure":true,
     "mangled_component_name":"_ZN7android8hardware5radio4V1_26IRadio17setupDataCall_1_2EiNS2_13AccessNetworkERKNS1_4V1_015DataProfileInfoEbbbNS2_17DataRequestReasonERKNS0_8hidl_vecINS0_11hidl_stringEEESE_"
    },
    {
     "is_pure":true,
     "mangled_component_name":"_ZN7android8hardware5radio4V1_26IRadio22deactivateDataCall_1_2EiiNS2_17DataRequestReasonE"
    },
    {
     "kind":"vcall_offset"
    },
    {
     "kind":"vcall_offset"
    },
    {
     "kind":"vcall_offset"
    },
    {
     "kind":"vcall_offset"
    },
    {
     "kind":"vcall_offset",
     "component_value":-8
    },
    {
     "kind":"offset_to_top",
     "component_value":-8
    },
    {
     "kind":"rtti",
     "mangled_component_name":"_ZTIN7android8hardware5radio4V1_26IRadioE"
    },
    {
     "kind":"complete_dtor_pointer",
     "mangled_component_name":"_ZTv0_n24_N7android8hardware5radio4V1_26IRadioD1Ev"
    },
    {
     "kind":"deleting_dtor_pointer",
     "mangled_component_name":"_ZTv0_n24_N7android8hardware5radio4V1_26IRadioD0Ev"
    },
    {
     "mangled_component_name":"_ZN7android7RefBase10onFirstRefEv"
    },
    {
     "mangled_component_name":"_ZN7android7RefBase15onLastStrongRefEPKv"
    },
    {
     "mangled_component_name":"_ZN7android7RefBase20onIncStrongAttemptedEjPKv"
    },
    {
     "mangled_component_name":"_ZN7android7RefBase13onLastWeakRefEPKv"
    }
   ],
   "unique_id":"_ZTSN7android8hardware5radio4V1_26IRadioE"
  },
  {
   "vtable_components":[
    {
     "kind":"vbase_offset",
     "component_value":200
    },
    {
     "kind":"offset_to_top"
    },
    {
     "kind":"rtti",
     "mangled_component_name":"_ZTIN7android8hardware5radio4V1_29BpHwRadioE"
    },
    {
     "mangled_component_name":"_ZNK7android8hardware5radio4V1_29BpHwRadio8isRemoteEv"
    },
    {
     "mangled_component_name":"_ZN7android8hardware5radio4V1_29BpHwRadio14interfaceChainENSt3__18functionIFvRKNS0_8hidl_vecINS0_11hidl_stringEEEEEE"
    },
    {
     "mangled_component_name":"_ZN7android8hardware5radio4V1_29BpHwRadio5debugERKNS0_11hidl_handleERKNS0_8hidl_vecINS0_11hidl_stringEEE"
    },
    {
     "mangled_component_name":"_ZN7android8hardware5radio4V1_29BpHwRadio19interfaceDescriptorENSt3__18functionIFvRKNS0_11hidl_stringEEEE"
    },
    {
     "mangled_component_name":"_ZN7android8hardware5radio4V1_29BpHwRadio12getHashChainENSt3__18functionIFvRKNS0_8hidl_vecINS0_10hidl_arrayIhLm32EJEEEEEEEE"
    },
    {
     "mangled_component_name":"_ZN7android8hardware5radio4V1_29BpHwRadio21setHALInstrumentationEv"
    },
    {
     "mangled_component_name":"_ZN7android8hardware5radio4V1_29BpHwRadio11linkToDeathERKNS_2spINS0_20hidl_death_recipientEEEm"
    },
    {
     "mangled_component_name":"_ZN7android8hardware5radio4V1_29BpHwRadio4pingEv"
    },
    {
     "mangled_component_name":"_ZN7android8hardware5radio4V1_29BpHwRadio12getDebugInfoENSt3__18functionIFvRKNS_4hidl4base4V1_09DebugInfoEEEE"
    },
    {
     "mangled_component_name":"_ZN7android8hardware5radio4V1_29BpHwRadio21notifySyspropsChangedEv"
    },
    {
     "mangled_component_name":"_ZN7android8hardware5radio4V1_29BpHwRadio13unlinkToDeathERKNS_2spINS0_20hidl_death_recipientEEE"
    },
    {
     "kind":"complete_dtor_pointer",
     "mangled_component_name":"_ZN7android8hardware5radio4V1_29BpHwRadioD1Ev"
    },
    {
     "kind":"deleting_dtor_pointer",
     "mangled_component_name":"_ZN7android8hardware5radio4V1_29BpHwRadioD0Ev"
    },
    {
     "mangled_component_name":"_ZN7android8hardware5radio4V1_29BpHwRadio20setResponseFunctionsERKNS_2spINS1_4V1_014IRadioResponseEEERKNS4_INS5_16IRadioIndicationEEE"
    },
    {
     "mangled_component_name":"_ZN7android8hardware5radio4V1_29BpHwRadio16getIccCardStatusEi"
    },
    {
     "mangled_component_name":"_ZN7android8hardware5radio4V1_29BpHwRadio18supplyIccPinForAppEiRKNS0_11hidl_stringES6_"
    },
    {
     "mangled_component_name":"_ZN7android8hardware5radio4V1_29BpHwRadio18supplyIccPukForAppEiRKNS0_11hidl_stringES6_S6_"
    },
    {
     "mangled_component_name":"_ZN7android8hardware5radio4V1_29BpHwRadio19supplyIccPin2ForAppEiRKNS0_11hidl_stringES6_"
    },
    {
     "mangled_component_name":"_ZN7android8hardware5radio4V1_29BpHwRadio19supplyIccPuk2ForAppEiRKNS0_11hidl_stringES6_S6_"
    },
    {
     "mangled_component_name":"_ZN7android8hardware5radio4V1_29BpHwRadio18changeIccPinForAppEiRKNS0_11hidl_stringES6_S6_"
    },
    {
     "mangled_component_name":"_ZN7android8hardware5radio4V1_29BpHwRadio19changeIccPin2ForAppEiRKNS0_11hidl_stringES6_S6_"
    },
    {
     "mangled_component_name":"_ZN7android8hardware5radio4V1_29BpHwRadio30supplyNetworkDepersonalizationEiRKNS0_11hidl_stringE"
    },
    {
     "mangled_component_name":"_ZN7android8hardware5radio4V1_29BpHwRadio15getCurrentCallsEi"
    },
    {
     "mangled_component_name":"_ZN7android8hardware5radio4V1_29BpHwRadio4dialEiRKNS1_4V1_04DialE"
    },
    {
     "mangled_component_name":"_ZN7android8hardware5radio4V1_29BpHwRadio13getImsiForAppEiRKNS0_11hidl_stringE"
    },
    {
     "mangled_component_name":"_ZN7android8hardware5radio4V1_29BpHwRadio6hangupEii"
    },
    {
     "mangled_component_name":"_ZN7android8hardware5radio4V1_29BpHwRadio25hangupWaitingOrBackgroundEi"
    },
    {
     "mangled_component_name":"_ZN7android8hardware5radio4V1_29BpHwRadio32hangupForegroundResumeBackgroundEi"
    },
    {
     "mangled_component_name":"_ZN7android8hardware5radio4V1_29BpHwRadio31switchWaitingOrHoldingAndActiveEi"
    },
    {
     "mangled_component_name":"_ZN7android8hardware5radio4V1_29BpHwRadio10conferenceEi"
    },
    {
     "mangled_component_name":"_ZN7android8hardware5radio4V1_29BpHwRadio10rejectCallEi"
    },
    {
     "mangled_component_name":"_ZN7android8hardware5radio4V1_29BpHwRadio20getLastCallFailCauseEi"
    },
    {
     "mangled_component_name":"_ZN7android8hardware5radio4V1_29BpHwRadio17getSignalStrengthEi"
    },
    {
     "mangled_component_name":"_ZN7android8hardware5radio4V1_29BpHwRadio25getVoiceRegistrationStateEi"
    },
    {
     "mangled_component_name":"_ZN7android8hardware5radio4V1_29BpHwRadio24getDataRegistrationStateEi"
    },
    {
     "mangled_component_name":"_ZN7android8hardware5radio4V1_29BpHwRadio11getOperatorEi"
    },
    {
     "mangled_component_name":"_ZN7android8hardware5radio4V1_29BpHwRadio13setRadioPowerEib"
    },
    {
     "mangled_component_name":"_ZN7android8hardware5radio4V1_29BpHwRadio8sendDtmfEiRKNS0_11hidl_stringE"
    },
    {
     "mangled_component_name":"_ZN7android8hardware5radio4V1_29BpHwRadio7sendSmsEiRKNS1_4V1_013GsmSmsMessageE"
    },
    {
     "mangled_component_name":"_ZN7android8hardware5radio4V1_29BpHwRadio17sendSMSExpectMoreEiRKNS1_4V1_013GsmSmsMessageE"
    },
    {
     "mangled_component_name":"_ZN7android8hardware5radio4V1_29BpHwRadio13setupDataCallEiNS1_4V1_015RadioTechnologyERKNS4_15DataProfileInfoEbbb"
    },
    {
     "mangled_component_name":"_ZN7android8hardware5radio4V1_29BpHwRadio11iccIOForAppEiRKNS1_4V1_05IccIoE"
    },
    {
     "mangled_component_name":"_ZN7android8hardware5radio4V1_29BpHwRadio8sendUssdEiRKNS0_11hidl_stringE"
    },
    {
     "mangled_component_name":"_ZN7android8hardware5radio4V1_29BpHwRadio17cancelPendingUssdEi"
    },
    {
     "mangled_component_name":"_ZN7android8hardware5radio4V1_29BpHwRadio7getClirEi"
    },
    {
     "mangled_component_name":"_ZN7android8hardware5radio4V1_29BpHwRadio7setClirEii"
    },
    {
     "mangled_component_name":"_ZN7android8hardware5radio4V1_29BpHwRadio20getCallForwardStatusEiRKNS1_4V1_015CallForwardInfoE"
    },
    {
     "mangled_component_name":"_ZN7android8hardware5radio4V1_29BpHwRadio14setCallForwardEiRKNS1_4V1_015CallForwardInfoE"
    },
    {
     "mangled_component_name":"_ZN7android8hardware5radio4V1_29BpHwRadio14getCallWaitingEii"
    },
    {
     "mangled_component_name":"_ZN7android8hardware5radio4V1_29BpHwRadio14setCallWaitingEibi"
    },
    {
     "mangled_component_name":"_ZN7android8hardware5radio4V1_29BpHwRadio29acknowledgeLastIncomingGsmSmsEibNS1_4V1_023SmsAcknowledgeFailCauseE"
    },
    {
     "mangled_component_name":"_ZN7android8hardware5radio4V1_29BpHwRadio10acceptCallEi"
    },
    {
     "mangled_component_name":"_ZN7android8hardware5radio4V1_29BpHwRadio18deactivateDataCallEiib"
    },
    {
     "mangled_component_name":"_ZN7android8hardware5radio4V1_29BpHwRadio21getFacilityLockForAppEiRKNS0_11hidl_stringES6_iS6_"
    },
    {
     "mangled_component_name":"_ZN7android8hardware5radio4V1_29BpHwRadio21setFacilityLockForAppEiRKNS0_11hidl_stringEbS6_iS6_"
    },
    {
     "mangled_component_name":"_ZN7android8hardware5radio4V1_29BpHwRadio18setBarringPasswordEiRKNS0_11hidl_stringES6_S6_"
    },
    {
     "mangled_component_name":"_ZN7android8hardware5radio4V1_29BpHwRadio23getNetworkSelectionModeEi"
    },
    {
     "mangled_component_name":"_ZN7android8hardware5radio4V1_29BpHwRadio32setNetworkSelectionModeAutomaticEi"
    },
    {
     "mangled_component_name":"_ZN7android8hardware5radio4V1_29BpHwRadio29setNetworkSelectionModeManualEiRKNS0_11hidl_stringE"
    },
    {
     "mangled_component_name":"_ZN7android8hardware5radio4V1_29BpHwRadio20getAvailableNetworksEi"
    },
    {
     "mangled_component_name":"_ZN7android8hardware5radio4V1_29BpHwRadio9startDtmfEiRKNS0_11hidl_stringE"
    },
    {
     "mangled_component_name":"_ZN7android8hardware5radio4V1_29BpHwRadio8stopDtmfEi"
    },
    {
     "mangled_component_name":"_ZN7android8hardware5radio4V1_29BpHwRadio18getBasebandVersionEi"
    },
    {
     "mangled_component_name":"_ZN7android8hardware5radio4V1_29BpHwRadio18separateConnectionEii"
    },
    {
     "mangled_component_name":"_ZN7android8hardware5radio4V1_29BpHwRadio7setMuteEib"
    },
    {
     "mangled_component_name":"_ZN7android8hardware5radio4V1_29BpHwRadio7getMuteEi"
    },
    {
     "mangled_component_name":"_ZN7android8hardware5radio4V1_29BpHwRadio7getClipEi"
    },
    {
     "mangled_component_name":"_ZN7android8hardware5radio4V1_29BpHwRadio15getDataCallListEi"
    },
    {
     "mangled_component_name":"_ZN7android8hardware5radio4V1_29BpHwRadio27setSuppServiceNotificationsEib"
    },
    {
     "mangled_component_name":"_ZN7android8hardware5radio4V1_29BpHwRadio13writeSmsToSimEiRKNS1_4V1_012SmsWriteArgsE"
    },
    {
     "mangled_component_name":"_ZN7android8hardware5radio4V1_29BpHwRadio14deleteSmsOnSimEii"
    },
    {
     "mangled_component_name":"_ZN7android8hardware5radio4V1_29BpHwRadio11setBandModeEiNS1_4V1_013RadioBandModeE"
    },
    {
     "mangled_component_name":"_ZN7android8hardware5radio4V1_29BpHwRadio21getAvailableBandModesEi"
    },
    {
     "mangled_component_name":"_ZN7android8hardware5radio4V1_29BpHwRadio12sendEnvelopeEiRKNS0_11hidl_stringE"
    },
    {
     "mangled_component_name":"_ZN7android8hardware5radio4V1_29BpHwRadio25sendTerminalResponseToSimEiRKNS0_11hidl_stringE"
    },
    {
     "mangled_component_name":"_ZN7android8hardware5radio4V1_29BpHwRadio32handleStkCallSetupRequestFromSimEib"
    },
    {
     "mangled_component_name":"_ZN7android8hardware5radio4V1_29BpHwRadio20explicitCallTransferEi"
    },
    {
     "mangled_component_name":"_ZN7android8hardware5radio4V1_29BpHwRadio23setPreferredNetworkTypeEiNS1_4V1_020PreferredNetworkTypeE"
    },
    {
     "mangled_component_name":"_ZN7android8hardware5radio4V1_29BpHwRadio23getPreferredNetworkTypeEi"
    },
    {
     "mangled_component_name":"_ZN7android8hardware5radio4V1_29BpHwRadio18getNeighboringCidsEi"
    },
    {
     "mangled_component_name":"_ZN7android8hardware5radio4V1_29BpHwRadio18setLocationUpdatesEib"
    },
    {
     "mangled_component_name":"_ZN7android8hardware5radio4V1_29BpHwRadio25setCdmaSubscriptionSourceEiNS1_4V1_022CdmaSubscriptionSourceE"
    },
    {
     "mangled_component_name":"_ZN7android8hardware5radio4V1_29BpHwRadio24setCdmaRoamingPreferenceEiNS1_4V1_015CdmaRoamingTypeE"
    },
    {
     "mangled_component_name":"_ZN7android8hardware5radio4V1_29BpHwRadio24getCdmaRoamingPreferenceEi"
    },
    {
     "mangled_component_name":"_ZN7android8hardware5radio4V1_29BpHwRadio10setTTYModeEiNS1_4V1_07TtyModeE"
    },
    {
     "mangled_component_name":"_ZN7android8hardware5radio4V1_29BpHwRadio10getTTYModeEi"
    },
    {
     "mangled_component_name":"_ZN7android8hardware5radio4V1_29BpHwRadio24setPreferredVoicePrivacyEib"
    },
    {
     "mangled_component_name":"_ZN7android8hardware5radio4V1_29BpHwRadio24getPreferredVoicePrivacyEi"
    },
    {
     "mangled_component_name":"_ZN7android8hardware5radio4V1_29BpHwRadio19sendCDMAFeatureCodeEiRKNS0_11hidl_stringE"
    },
    {
     "mangled_component_name":"_ZN7android8hardware5radio4V1_29BpHwRadio13sendBurstDtmfEiRKNS0_11hidl_stringEii"
    },
    {
     "mangled_component_name":"_ZN7android8hardware5radio4V1_29BpHwRadio11sendCdmaSmsEiRKNS1_4V1_014CdmaSmsMessageE"
    },
    {
     "mangled_component_name":"_ZN7android8hardware5radio4V1_29BpHwRadio30acknowledgeLastIncomingCdmaSmsEiRKNS1_4V1_010CdmaSmsAckE"
    },
    {
     "mangled_component_name":"_ZN7android8hardware5radio4V1_29BpHwRadio21getGsmBroadcastConfigEi"
    },
    {
     "mangled_component_name":"_ZN7android8hardware5radio4V1_29BpHwRadio21setGsmBroadcastConfigEiRKNS0_8hidl_vecINS1_4V1_025GsmBroadcastSmsConfigInfoEEE"
    },
    {
     "mangled_component_name":"_ZN7android8hardware5radio4V1_29BpHwRadio25setGsmBroadcastActivationEib"
    },
    {
     "mangled_component_name":"_ZN7android8hardware5radio4V1_29BpHwRadio22getCdmaBroadcastConfigEi"
    },
    {
     "mangled_component_name":"_ZN7android8hardware5radio4V1_29BpHwRadio22setCdmaBroadcastConfigEiRKNS0_8hidl_vecINS1_4V1_026CdmaBroadcastSmsConfigInfoEEE"
    },
    {
     "mangled_component_name":"_ZN7android8hardware5radio4V1_29BpHwRadio26setCdmaBroadcastActivationEib"
    },
    {
     "mangled_component_name":"_ZN7android8hardware5radio4V1_29BpHwRadio19getCDMASubscriptionEi"
    },
    {
     "mangled_component_name":"_ZN7android8hardware5radio4V1_29BpHwRadio14writeSmsToRuimEiRKNS1_4V1_016CdmaSmsWriteArgsE"
    },
    {
     "mangled_component_name":"_ZN7android8hardware5radio4V1_29BpHwRadio15deleteSmsOnRuimEii"
    },
    {
     "mangled_component_name":"_ZN7android8hardware5radio4V1_29BpHwRadio17getDeviceIdentityEi"
    },
    {
     "mangled_component_name":"_ZN7android8hardware5radio4V1_29BpHwRadio25exitEmergencyCallbackModeEi"
    },
    {
     "mangled_component_name":"_ZN7android8hardware5radio4V1_29BpHwRadio14getSmscAddressEi"
    },
    {
     "mangled_component_name":"_ZN7android8hardware5radio4V1_29BpHwRadio14setSmscAddressEiRKNS0_11hidl_stringE"
    },
    {
     "mangled_component_name":"_ZN7android8hardware5radio4V1_29BpHwRadio21reportSmsMemoryStatusEib"
    },
    {
     "mangled_component_name":"_ZN7android8hardware5radio4V1_29BpHwRadio25reportStkServiceIsRunningEi"
    },
    {
     "mangled_component_name":"_ZN7android8hardware5radio4V1_29BpHwRadio25getCdmaSubscriptionSourceEi"
    },
    {
     "mangled_component_name":"_ZN7android8hardware5radio4V1_29BpHwRadio25requestIsimAuthenticationEiRKNS0_11hidl_stringE"
    },
    {
     "mangled_component_name":"_ZN7android8hardware5radio4V1_29BpHwRadio32acknowledgeIncomingGsmSmsWithPduEibRKNS0_11hidl_stringE"
    },
    {
     "mangled_component_name":"_ZN7android8hardware5radio4V1_29BpHwRadio22sendEnvelopeWithStatusEiRKNS0_11hidl_stringE"
    },
    {
     "mangled_component_name":"_ZN7android8hardware5radio4V1_29BpHwRadio23getVoiceRadioTechnologyEi"
    },
    {
     "mangled_component_name":"_ZN7android8hardware5radio4V1_29BpHwRadio15getCellInfoListEi"
    },
    {
     "mangled_component_name":"_ZN7android8hardware5radio4V1_29BpHwRadio19setCellInfoListRateEii"
    },
    {
     "mangled_component_name":"_ZN7android8hardware5radio4V1_29BpHwRadio19setInitialAttachApnEiRKNS1_4V1_015DataProfileInfoEbb"
    },
    {
     "mangled_component_name":"_ZN7android8hardware5radio4V1_29BpHwRadio23getImsRegistrationStateEi"
    },
    {
     "mangled_component_name":"_ZN7android8hardware5radio4V1_29BpHwRadio10sendImsSmsEiRKNS1_4V1_013ImsSmsMessageE"
    },
    {
     "mangled_component_name":"_ZN7android8hardware5radio4V1_29BpHwRadio27iccTransmitApduBasicChannelEiRKNS1_4V1_07SimApduE"
    },
    {
     "mangled_component_name":"_ZN7android8hardware5radio4V1_29BpHwRadio21iccOpenLogicalChannelEiRKNS0_11hidl_stringEi"
    },
    {
     "mangled_component_name":"_ZN7android8hardware5radio4V1_29BpHwRadio22iccCloseLogicalChannelEii"
    },
    {
     "mangled_component_name":"_ZN7android8hardware5radio4V1_29BpHwRadio29iccTransmitApduLogicalChannelEiRKNS1_4V1_07SimApduE"
    },
    {
     "mangled_component_name":"_ZN7android8hardware5radio4V1_29BpHwRadio10nvReadItemEiNS1_4V1_06NvItemE"
    },
    {
     "mangled_component_name":"_ZN7android8hardware5radio4V1_29BpHwRadio11nvWriteItemEiRKNS1_4V1_011NvWriteItemE"
    },
    {
     "mangled_component_name":"_ZN7android8hardware5radio4V1_29BpHwRadio14nvWriteCdmaPrlEiRKNS0_8hidl_vecIhEE"
    },
    {
     "mangled_component_name":"_ZN7android8hardware5radio4V1_29BpHwRadio13nvResetConfigEiNS1_4V1_011ResetNvTypeE"
    },
    {
     "mangled_component_name":"_ZN7android8hardware5radio4V1_29BpHwRadio19setUiccSubscriptionEiRKNS1_4V1_013SelectUiccSubE"
    },
    {
     "mangled_component_name":"_ZN7android8hardware5radio4V1_29BpHwRadio14setDataAllowedEib"
    },
    {
     "mangled_component_name":"_ZN7android8hardware5radio4V1_29BpHwRadio17getHardwareConfigEi"
    },
    {
     "mangled_component_name":"_ZN7android8hardware5radio4V1_29BpHwRadio27requestIccSimAuthenticationEiiRKNS0_11hidl_stringES6_"
    },
    {
     "mangled_component_name":"_ZN7android8hardware5radio4V1_29BpHwRadio14setDataProfileEiRKNS0_8hidl_vecINS1_4V1_015DataProfileInfoEEEb"
    },
    {
     "mangled_component_name":"_ZN7android8hardware5radio4V1_29BpHwRadio15requestShutdownEi"
    },
    {
     "mangled_component_name":"_ZN7android8hardware5radio4V1_29BpHwRadio18getRadioCapabilityEi"
    },
    {
     "mangled_component_name":"_ZN7android8hardware5radio4V1_29BpHwRadio18setRadioCapabilityEiRKNS1_4V1_015RadioCapabilityE"
    },
    {
     "mangled_component_name":"_ZN7android8hardware5radio4V1_29BpHwRadio15startLceServiceEiib"
    },
    {
     "mangled_component_name":"_ZN7android8hardware5radio4V1_29BpHwRadio14stopLceServiceEi"
    },
    {
     "mangled_component_name":"_ZN7android8hardware5radio4V1_29BpHwRadio11pullLceDataEi"
    },
    {
     "mangled_component_name":"_ZN7android8hardware5radio4V1_29BpHwRadio20getModemActivityInfoEi"
    },
    {
     "mangled_component_name":"_ZN7android8hardware5radio4V1_29BpHwRadio18setAllowedCarriersEibRKNS1_4V1_019CarrierRestrictionsE"
    },
    {
     "mangled_component_name":"_ZN7android8hardware5radio4V1_29BpHwRadio18getAllowedCarriersEi"
    },
    {
     "mangled_component_name":"_ZN7android8hardware5radio4V1_29BpHwRadio15sendDeviceStateEiNS1_4V1_015DeviceStateTypeEb"
    },
    {
     "mangled_component_name":"_ZN7android8hardware5radio4V1_29BpHwRadio19setIndicationFilterEii"
    },
    {
     "mangled_component_name":"_ZN7android8hardware5radio4V1_29BpHwRadio15setSimCardPowerEib"
    },
    {
     "mangled_component_name":"_ZN7android8hardware5radio4V1_29BpHwRadio23responseAcknowledgementEv"
    },
    {
     "mangled_component_name":"_ZN7android8hardware5radio4V1_29BpHwRadio31setCarrierInfoForImsiEncryptionEiRKNS1_4V1_118ImsiEncryptionInfoE"
    },
    {
     "mangled_component_name":"_ZN7android8hardware5radio4V1_29BpHwRadio19setSimCardPower_1_1EiNS1_4V1_114CardPowerStateE"
    },
    {
     "mangled_component_name":"_ZN7android8hardware5radio4V1_29BpHwRadio16startNetworkScanEiRKNS1_4V1_118NetworkScanRequestE"
    },
    {
     "mangled_component_name":"_ZN7android8hardware5radio4V1_29BpHwRadio15stopNetworkScanEi"
    },
    {
     "mangled_component_name":"_ZN7android8hardware5radio4V1_29BpHwRadio14startKeepaliveEiRKNS1_4V1_116KeepaliveRequestE"
    },
    {
     "mangled_component_name":"_ZN7android8hardware5radio4V1_29BpHwRadio13stopKeepaliveEii"
    },
    {
     "mangled_component_name":"_ZN7android8hardware5radio4V1_29BpHwRadio20startNetworkScan_1_2EiRKNS2_18NetworkScanRequestE"
    },
    {
     "mangled_component_name":"_ZN7android8hardware5radio4V1_29BpHwRadio23setIndicationFilter_1_2Eii"
    },
    {
     "mangled_component_name":"_ZN7android8hardware5radio4V1_29BpHwRadio34setSignalStrengthReportingCriteriaEiiiRKNS0_8hidl_vecIiEENS2_13AccessNetworkE"
    },
    {
     "mangled_component_name":"_ZN7android8hardware5radio4V1_29BpHwRadio32setLinkCapacityReportingCriteriaEiiiiRKNS0_8hidl_vecIiEES7_NS2_13AccessNetworkE"
    },
    {
     "mangled_component_name":"_ZN7android8hardware5radio4V1_29BpHwRadio17setupDataCall_1_2EiNS2_13AccessNetworkERKNS1_4V1_015DataProfileInfoEbbbNS2_17DataRequestReasonERKNS0_8hidl_vecINS0_11hidl_stringEEESE_"
    },
    {
     "mangled_component_name":"_ZN7android8hardware5radio4V1_29BpHwRadio22deactivateDataCall_1_2EiiNS2_17DataRequestReasonE"
    },
    {
     "mangled_component_name":"_ZN7android8hardware11BpInterfaceINS0_5radio4V1_26IRadioEE10onAsBinderEv"
    },
    {
     "kind":"vbase_offset",
     "component_value":192
    },
    {
     "kind":"offset_to_top",
     "component_value":-8
    },
    {
     "kind":"rtti",
     "mangled_component_name":"_ZTIN7android8hardware5radio4V1_29BpHwRadioE"
    },
    {
     "kind":"complete_dtor_pointer",
     "mangled_component_name":"_ZThn8_N7android8hardware5radio4V1_29BpHwRadioD1Ev"
    },
    {
     "kind":"deleting_dtor_pointer",
     "mangled_component_name":"_ZThn8_N7android8hardware5radio4V1_29BpHwRadioD0Ev"
    },
    {
     "mangled_component_name":"_ZThn8_N7android8hardware11BpInterfaceINS0_5radio4V1_26IRadioEE10onAsBinderEv"
    },
    {
     "kind":"vbase_offset",
     "component_value":184
    },
    {
     "kind":"offset_to_top",
     "component_value":-16
    },
    {
     "kind":"rtti",
     "mangled_component_name":"_ZTIN7android8hardware5radio4V1_29BpHwRadioE"
    },
    {
     "kind":"complete_dtor_pointer",
     "mangled_component_name":"_ZThn16_N7android8hardware5radio4V1_29BpHwRadioD1Ev"
    },
    {
     "kind":"deleting_dtor_pointer",
     "mangled_component_name":"_ZThn16_N7android8hardware5radio4V1_29BpHwRadioD0Ev"
    },
    {
     "mangled_component_name":"_ZN7android8hardware11BpHwRefBase10onFirstRefEv"
    },
    {
     "mangled_component_name":"_ZN7android8hardware11BpHwRefBase15onLastStrongRefEPKv"
    },
    {
     "mangled_component_name":"_ZN7android8hardware11BpHwRefBase20onIncStrongAttemptedEjPKv"
    },
    {
     "kind":"offset_to_top",
     "component_value":-48
    },
    {
     "kind":"rtti",
     "mangled_component_name":"_ZTIN7android8hardware5radio4V1_29BpHwRadioE"
    },
    {
     "kind":"complete_dtor_pointer",
     "mangled_component_name":"_ZThn48_N7android8hardware5radio4V1_29BpHwRadioD1Ev"
    },
    {
     "kind":"deleting_dtor_pointer",
     "mangled_component_name":"_ZThn48_N7android8hardware5radio4V1_29BpHwRadioD0Ev"
    },
    {
     "kind":"vcall_offset"
    },
    {
     "kind":"vcall_offset",
     "component_value":-184
    },
    {
     "kind":"vcall_offset",
     "component_value":-184
    },
    {
     "kind":"vcall_offset",
     "component_value":-184
    },
    {
     "kind":"vcall_offset",
     "component_value":-200
    },
    {
     "kind":"offset_to_top",
     "component_value":-200
    },
    {
     "kind":"rtti",
     "mangled_component_name":"_ZTIN7android8hardware5radio4V1_29BpHwRadioE"
    },
    {
     "kind":"complete_dtor_pointer",
     "mangled_component_name":"_ZTv0_n24_N7android8hardware5radio4V1_29BpHwRadioD1Ev"
    },
    {
     "kind":"deleting_dtor_pointer",
     "mangled_component_name":"_ZTv0_n24_N7android8hardware5radio4V1_29BpHwRadioD0Ev"
    },
    {
     "mangled_component_name":"_ZTv0_n32_N7android8hardware11BpHwRefBase10onFirstRefEv"
    },
    {
     "mangled_component_name":"_ZTv0_n40_N7android8hardware11BpHwRefBase15onLastStrongRefEPKv"
    },
    {
     "mangled_component_name":"_ZTv0_n48_N7android8hardware11BpHwRefBase20onIncStrongAttemptedEjPKv"
    },
    {
     "mangled_component_name":"_ZN7android7RefBase13onLastWeakRefEPKv"
    }
   ],
   "unique_id":"_ZTSN7android8hardware5radio4V1_29BpHwRadioE"
  }
 ],
 "elf_functions":[
  {
   "name":"_ZN7android8hardware5radio4V1_214IRadioResponse10getServiceERKNSt3__112basic_stringIcNS4_11char_traitsIcEENS4_9allocatorIcEEEEb"
  },
  {
   "name":"_ZN7android8hardware5radio4V1_214IRadioResponse11linkToDeathERKNS_2spINS0_20hidl_death_recipientEEEm"
  },
  {
   "name":"_ZN7android8hardware5radio4V1_214IRadioResponse12getDebugInfoENSt3__18functionIFvRKNS_4hidl4base4V1_09DebugInfoEEEE"
  },
  {
   "name":"_ZN7android8hardware5radio4V1_214IRadioResponse12getHashChainENSt3__18functionIFvRKNS0_8hidl_vecINS0_10hidl_arrayIhLm32EJEEEEEEEE"
  },
  {
   "name":"_ZN7android8hardware5radio4V1_214IRadioResponse13tryGetServiceERKNSt3__112basic_stringIcNS4_11char_traitsIcEENS4_9allocatorIcEEEEb"
  },
  {
   "name":"_ZN7android8hardware5radio4V1_214IRadioResponse13unlinkToDeathERKNS_2spINS0_20hidl_death_recipientEEE"
  },
  {
   "name":"_ZN7android8hardware5radio4V1_214IRadioResponse14interfaceChainENSt3__18functionIFvRKNS0_8hidl_vecINS0_11hidl_stringEEEEEE"
  },
  {
   "name":"_ZN7android8hardware5radio4V1_214IRadioResponse17registerAsServiceERKNSt3__112basic_stringIcNS4_11char_traitsIcEENS4_9allocatorIcEEEE"
  },
  {
   "name":"_ZN7android8hardware5radio4V1_214IRadioResponse19interfaceDescriptorENSt3__18functionIFvRKNS0_11hidl_stringEEEE"
  },
  {
   "name":"_ZN7android8hardware5radio4V1_214IRadioResponse21notifySyspropsChangedEv"
  },
  {
   "name":"_ZN7android8hardware5radio4V1_214IRadioResponse21setHALInstrumentationEv"
  },
  {
   "name":"_ZN7android8hardware5radio4V1_214IRadioResponse24registerForNotificationsERKNSt3__112basic_stringIcNS4_11char_traitsIcEENS4_9allocatorIcEEEERKNS_2spINS_4hidl7manager4V1_020IServiceNotificationEEE"
  },
  {
   "name":"_ZN7android8hardware5radio4V1_214IRadioResponse4pingEv"
  },
  {
   "name":"_ZN7android8hardware5radio4V1_214IRadioResponse5debugERKNS0_11hidl_handleERKNS0_8hidl_vecINS0_11hidl_stringEEE"
  },
  {
   "name":"_ZN7android8hardware5radio4V1_214IRadioResponse8castFromERKNS_2spINS1_4V1_014IRadioResponseEEEb"
  },
  {
   "name":"_ZN7android8hardware5radio4V1_214IRadioResponse8castFromERKNS_2spINS1_4V1_114IRadioResponseEEEb"
  },
  {
   "name":"_ZN7android8hardware5radio4V1_214IRadioResponse8castFromERKNS_2spINS_4hidl4base4V1_05IBaseEEEb"
  },
  {
   "name":"_ZN7android8hardware5radio4V1_214IRadioResponse8castFromERKNS_2spIS3_EEb"
  },
  {
   "name":"_ZN7android8hardware5radio4V1_215BsRadioResponse13addOnewayTaskENSt3__18functionIFvvEEE"
  },
  {
   "name":"_ZN7android8hardware5radio4V1_215BsRadioResponseC1ENS_2spINS2_14IRadioResponseEEE"
  },
  {
   "name":"_ZN7android8hardware5radio4V1_215BsRadioResponseC2ENS_2spINS2_14IRadioResponseEEE"
  },
  {
   "name":"_ZN7android8hardware5radio4V1_216IRadioIndication10getServiceERKNSt3__112basic_stringIcNS4_11char_traitsIcEENS4_9allocatorIcEEEEb"
  },
  {
   "name":"_ZN7android8hardware5radio4V1_216IRadioIndication11linkToDeathERKNS_2spINS0_20hidl_death_recipientEEEm"
  },
  {
   "name":"_ZN7android8hardware5radio4V1_216IRadioIndication12getDebugInfoENSt3__18functionIFvRKNS_4hidl4base4V1_09DebugInfoEEEE"
  },
  {
   "name":"_ZN7android8hardware5radio4V1_216IRadioIndication12getHashChainENSt3__18functionIFvRKNS0_8hidl_vecINS0_10hidl_arrayIhLm32EJEEEEEEEE"
  },
  {
   "name":"_ZN7android8hardware5radio4V1_216IRadioIndication13tryGetServiceERKNSt3__112basic_stringIcNS4_11char_traitsIcEENS4_9allocatorIcEEEEb"
  },
  {
   "name":"_ZN7android8hardware5radio4V1_216IRadioIndication13unlinkToDeathERKNS_2spINS0_20hidl_death_recipientEEE"
  },
  {
   "name":"_ZN7android8hardware5radio4V1_216IRadioIndication14interfaceChainENSt3__18functionIFvRKNS0_8hidl_vecINS0_11hidl_stringEEEEEE"
  },
  {
   "name":"_ZN7android8hardware5radio4V1_216IRadioIndication17registerAsServiceERKNSt3__112basic_stringIcNS4_11char_traitsIcEENS4_9allocatorIcEEEE"
  },
  {
   "name":"_ZN7android8hardware5radio4V1_216IRadioIndication19interfaceDescriptorENSt3__18functionIFvRKNS0_11hidl_stringEEEE"
  },
  {
   "name":"_ZN7android8hardware5radio4V1_216IRadioIndication21notifySyspropsChangedEv"
  },
  {
   "name":"_ZN7android8hardware5radio4V1_216IRadioIndication21setHALInstrumentationEv"
  },
  {
   "name":"_ZN7android8hardware5radio4V1_216IRadioIndication24registerForNotificationsERKNSt3__112basic_stringIcNS4_11char_traitsIcEENS4_9allocatorIcEEEERKNS_2spINS_4hidl7manager4V1_020IServiceNotificationEEE"
  },
  {
   "name":"_ZN7android8hardware5radio4V1_216IRadioIndication4pingEv"
  },
  {
   "name":"_ZN7android8hardware5radio4V1_216IRadioIndication5debugERKNS0_11hidl_handleERKNS0_8hidl_vecINS0_11hidl_stringEEE"
  },
  {
   "name":"_ZN7android8hardware5radio4V1_216IRadioIndication8castFromERKNS_2spINS1_4V1_016IRadioIndicationEEEb"
  },
  {
   "name":"_ZN7android8hardware5radio4V1_216IRadioIndication8castFromERKNS_2spINS1_4V1_116IRadioIndicationEEEb"
  },
  {
   "name":"_ZN7android8hardware5radio4V1_216IRadioIndication8castFromERKNS_2spINS_4hidl4base4V1_05IBaseEEEb"
  },
  {
   "name":"_ZN7android8hardware5radio4V1_216IRadioIndication8castFromERKNS_2spIS3_EEb"
  },
  {
   "name":"_ZN7android8hardware5radio4V1_217BnHwRadioResponse10onTransactEjRKNS0_6ParcelEPS4_jNSt3__18functionIFvRS4_EEE"
  },
  {
   "name":"_ZN7android8hardware5radio4V1_217BnHwRadioResponse12getDebugInfoENSt3__18functionIFvRKNS_4hidl4base4V1_09DebugInfoEEEE"
  },
  {
   "name":"_ZN7android8hardware5radio4V1_217BnHwRadioResponse33_hidl_getCellInfoListResponse_1_2EPNS_4hidl4base4V1_08BnHwBaseERKNS0_6ParcelEPS9_NSt3__18functionIFvRS9_EEE"
  },
  {
   "name":"_ZN7android8hardware5radio4V1_217BnHwRadioResponse33_hidl_getCurrentCallsResponse_1_2EPNS_4hidl4base4V1_08BnHwBaseERKNS0_6ParcelEPS9_NSt3__18functionIFvRS9_EEE"
  },
  {
   "name":"_ZN7android8hardware5radio4V1_217BnHwRadioResponse34_hidl_getIccCardStatusResponse_1_2EPNS_4hidl4base4V1_08BnHwBaseERKNS0_6ParcelEPS9_NSt3__18functionIFvRS9_EEE"
  },
  {
   "name":"_ZN7android8hardware5radio4V1_217BnHwRadioResponse35_hidl_getSignalStrengthResponse_1_2EPNS_4hidl4base4V1_08BnHwBaseERKNS0_6ParcelEPS9_NSt3__18functionIFvRS9_EEE"
  },
  {
   "name":"_ZN7android8hardware5radio4V1_217BnHwRadioResponse42_hidl_getDataRegistrationStateResponse_1_2EPNS_4hidl4base4V1_08BnHwBaseERKNS0_6ParcelEPS9_NSt3__18functionIFvRS9_EEE"
  },
  {
   "name":"_ZN7android8hardware5radio4V1_217BnHwRadioResponse43_hidl_getVoiceRegistrationStateResponse_1_2EPNS_4hidl4base4V1_08BnHwBaseERKNS0_6ParcelEPS9_NSt3__18functionIFvRS9_EEE"
  },
  {
   "name":"_ZN7android8hardware5radio4V1_217BnHwRadioResponse46_hidl_setLinkCapacityReportingCriteriaResponseEPNS_4hidl4base4V1_08BnHwBaseERKNS0_6ParcelEPS9_NSt3__18functionIFvRS9_EEE"
  },
  {
   "name":"_ZN7android8hardware5radio4V1_217BnHwRadioResponse48_hidl_setSignalStrengthReportingCriteriaResponseEPNS_4hidl4base4V1_08BnHwBaseERKNS0_6ParcelEPS9_NSt3__18functionIFvRS9_EEE"
  },
  {
   "name":"_ZN7android8hardware5radio4V1_217BnHwRadioResponse4pingEv"
  },
  {
   "name":"_ZN7android8hardware5radio4V1_217BnHwRadioResponseC1ERKNS_2spINS2_14IRadioResponseEEE"
  },
  {
   "name":"_ZN7android8hardware5radio4V1_217BnHwRadioResponseC2ERKNS_2spINS2_14IRadioResponseEEE"
  },
  {
   "name":"_ZN7android8hardware5radio4V1_217BnHwRadioResponseD0Ev"
  },
  {
   "name":"_ZN7android8hardware5radio4V1_217BnHwRadioResponseD1Ev"
  },
  {
   "name":"_ZN7android8hardware5radio4V1_217BnHwRadioResponseD2Ev"
  },
  {
   "name":"_ZN7android8hardware5radio4V1_217BpHwRadioResponse11linkToDeathERKNS_2spINS0_20hidl_death_recipientEEEm"
  },
  {
   "name":"_ZN7android8hardware5radio4V1_217BpHwRadioResponse12dialResponseERKNS1_4V1_017RadioResponseInfoE"
  },
  {
   "name":"_ZN7android8hardware5radio4V1_217BpHwRadioResponse12getDebugInfoENSt3__18functionIFvRKNS_4hidl4base4V1_09DebugInfoEEEE"
  },
  {
   "name":"_ZN7android8hardware5radio4V1_217BpHwRadioResponse12getHashChainENSt3__18functionIFvRKNS0_8hidl_vecINS0_10hidl_arrayIhLm32EJEEEEEEEE"
  },
  {
   "name":"_ZN7android8hardware5radio4V1_217BpHwRadioResponse13unlinkToDeathERKNS_2spINS0_20hidl_death_recipientEEE"
  },
  {
   "name":"_ZN7android8hardware5radio4V1_217BpHwRadioResponse14interfaceChainENSt3__18functionIFvRKNS0_8hidl_vecINS0_11hidl_stringEEEEEE"
  },
  {
   "name":"_ZN7android8hardware5radio4V1_217BpHwRadioResponse15getClipResponseERKNS1_4V1_017RadioResponseInfoENS4_10ClipStatusE"
  },
  {
   "name":"_ZN7android8hardware5radio4V1_217BpHwRadioResponse15getClirResponseERKNS1_4V1_017RadioResponseInfoEii"
  },
  {
   "name":"_ZN7android8hardware5radio4V1_217BpHwRadioResponse15getMuteResponseERKNS1_4V1_017RadioResponseInfoEb"
  },
  {
   "name":"_ZN7android8hardware5radio4V1_217BpHwRadioResponse15sendSmsResponseERKNS1_4V1_017RadioResponseInfoERKNS4_13SendSmsResultE"
  },
  {
   "name":"_ZN7android8hardware5radio4V1_217BpHwRadioResponse15setClirResponseERKNS1_4V1_017RadioResponseInfoE"
  },
  {
   "name":"_ZN7android8hardware5radio4V1_217BpHwRadioResponse15setMuteResponseERKNS1_4V1_017RadioResponseInfoE"
  },
  {
   "name":"_ZN7android8hardware5radio4V1_217BpHwRadioResponse16sendDtmfResponseERKNS1_4V1_017RadioResponseInfoE"
  },
  {
   "name":"_ZN7android8hardware5radio4V1_217BpHwRadioResponse16sendUssdResponseERKNS1_4V1_017RadioResponseInfoE"
  },
  {
   "name":"_ZN7android8hardware5radio4V1_217BpHwRadioResponse16stopDtmfResponseERKNS1_4V1_017RadioResponseInfoE"
  },
  {
   "name":"_ZN7android8hardware5radio4V1_217BpHwRadioResponse17startDtmfResponseERKNS1_4V1_017RadioResponseInfoE"
  },
  {
   "name":"_ZN7android8hardware5radio4V1_217BpHwRadioResponse18acceptCallResponseERKNS1_4V1_017RadioResponseInfoE"
  },
  {
   "name":"_ZN7android8hardware5radio4V1_217BpHwRadioResponse18acknowledgeRequestEi"
  },
  {
   "name":"_ZN7android8hardware5radio4V1_217BpHwRadioResponse18conferenceResponseERKNS1_4V1_017RadioResponseInfoE"
  },
  {
   "name":"_ZN7android8hardware5radio4V1_217BpHwRadioResponse18getTTYModeResponseERKNS1_4V1_017RadioResponseInfoENS4_7TtyModeE"
  },
  {
   "name":"_ZN7android8hardware5radio4V1_217BpHwRadioResponse18nvReadItemResponseERKNS1_4V1_017RadioResponseInfoERKNS0_11hidl_stringE"
  },
  {
   "name":"_ZN7android8hardware5radio4V1_217BpHwRadioResponse18rejectCallResponseERKNS1_4V1_017RadioResponseInfoE"
  },
  {
   "name":"_ZN7android8hardware5radio4V1_217BpHwRadioResponse18sendImsSmsResponseERKNS1_4V1_017RadioResponseInfoERKNS4_13SendSmsResultE"
  },
  {
   "name":"_ZN7android8hardware5radio4V1_217BpHwRadioResponse18setTTYModeResponseERKNS1_4V1_017RadioResponseInfoE"
  },
  {
   "name":"_ZN7android8hardware5radio4V1_217BpHwRadioResponse19getOperatorResponseERKNS1_4V1_017RadioResponseInfoERKNS0_11hidl_stringESA_SA_"
  },
  {
   "name":"_ZN7android8hardware5radio4V1_217BpHwRadioResponse19iccIOForAppResponseERKNS1_4V1_017RadioResponseInfoERKNS4_11IccIoResultE"
  },
  {
   "name":"_ZN7android8hardware5radio4V1_217BpHwRadioResponse19interfaceDescriptorENSt3__18functionIFvRKNS0_11hidl_stringEEEE"
  },
  {
   "name":"_ZN7android8hardware5radio4V1_217BpHwRadioResponse19nvWriteItemResponseERKNS1_4V1_017RadioResponseInfoE"
  },
  {
   "name":"_ZN7android8hardware5radio4V1_217BpHwRadioResponse19pullLceDataResponseERKNS1_4V1_017RadioResponseInfoERKNS4_11LceDataInfoE"
  },
  {
   "name":"_ZN7android8hardware5radio4V1_217BpHwRadioResponse19sendCdmaSmsResponseERKNS1_4V1_017RadioResponseInfoERKNS4_13SendSmsResultE"
  },
  {
   "name":"_ZN7android8hardware5radio4V1_217BpHwRadioResponse19setBandModeResponseERKNS1_4V1_017RadioResponseInfoE"
  },
  {
   "name":"_ZN7android8hardware5radio4V1_217BpHwRadioResponse20sendEnvelopeResponseERKNS1_4V1_017RadioResponseInfoERKNS0_11hidl_stringE"
  },
  {
   "name":"_ZN7android8hardware5radio4V1_217BpHwRadioResponse21getIMSIForAppResponseERKNS1_4V1_017RadioResponseInfoERKNS0_11hidl_stringE"
  },
  {
   "name":"_ZN7android8hardware5radio4V1_217BpHwRadioResponse21notifySyspropsChangedEv"
  },
  {
   "name":"_ZN7android8hardware5radio4V1_217BpHwRadioResponse21nvResetConfigResponseERKNS1_4V1_017RadioResponseInfoE"
  },
  {
   "name":"_ZN7android8hardware5radio4V1_217BpHwRadioResponse21sendBurstDtmfResponseERKNS1_4V1_017RadioResponseInfoE"
  },
  {
   "name":"_ZN7android8hardware5radio4V1_217BpHwRadioResponse21setHALInstrumentationEv"
  },
  {
   "name":"_ZN7android8hardware5radio4V1_217BpHwRadioResponse21setRadioPowerResponseERKNS1_4V1_017RadioResponseInfoE"
  },
  {
   "name":"_ZN7android8hardware5radio4V1_217BpHwRadioResponse21setupDataCallResponseERKNS1_4V1_017RadioResponseInfoERKNS4_19SetupDataCallResultE"
  },
  {
   "name":"_ZN7android8hardware5radio4V1_217BpHwRadioResponse21stopKeepaliveResponseERKNS1_4V1_017RadioResponseInfoE"
  },
  {
   "name":"_ZN7android8hardware5radio4V1_217BpHwRadioResponse21writeSmsToSimResponseERKNS1_4V1_017RadioResponseInfoEi"
  },
  {
   "name":"_ZN7android8hardware5radio4V1_217BpHwRadioResponse22deleteSmsOnSimResponseERKNS1_4V1_017RadioResponseInfoE"
  },
  {
   "name":"_ZN7android8hardware5radio4V1_217BpHwRadioResponse22getCallWaitingResponseERKNS1_4V1_017RadioResponseInfoEbi"
  },
  {
   "name":"_ZN7android8hardware5radio4V1_217BpHwRadioResponse22getSmscAddressResponseERKNS1_4V1_017RadioResponseInfoERKNS0_11hidl_stringE"
  },
  {
   "name":"_ZN7android8hardware5radio4V1_217BpHwRadioResponse22nvWriteCdmaPrlResponseERKNS1_4V1_017RadioResponseInfoE"
  },
  {
   "name":"_ZN7android8hardware5radio4V1_217BpHwRadioResponse22setCallForwardResponseERKNS1_4V1_017RadioResponseInfoE"
  },
  {
   "name":"_ZN7android8hardware5radio4V1_217BpHwRadioResponse22setCallWaitingResponseERKNS1_4V1_017RadioResponseInfoE"
  },
  {
   "name":"_ZN7android8hardware5radio4V1_217BpHwRadioResponse22setDataAllowedResponseERKNS1_4V1_017RadioResponseInfoE"
  },
  {
   "name":"_ZN7android8hardware5radio4V1_217BpHwRadioResponse22setDataProfileResponseERKNS1_4V1_017RadioResponseInfoE"
  },
  {
   "name":"_ZN7android8hardware5radio4V1_217BpHwRadioResponse22setSmscAddressResponseERKNS1_4V1_017RadioResponseInfoE"
  },
  {
   "name":"_ZN7android8hardware5radio4V1_217BpHwRadioResponse22startKeepaliveResponseERKNS1_4V1_017RadioResponseInfoERKNS1_4V1_115KeepaliveStatusE"
  },
  {
   "name":"_ZN7android8hardware5radio4V1_217BpHwRadioResponse22stopLceServiceResponseERKNS1_4V1_017RadioResponseInfoERKNS4_13LceStatusInfoE"
  },
  {
   "name":"_ZN7android8hardware5radio4V1_217BpHwRadioResponse22writeSmsToRuimResponseERKNS1_4V1_017RadioResponseInfoEj"
  },
  {
   "name":"_ZN7android8hardware5radio4V1_217BpHwRadioResponse23deleteSmsOnRuimResponseERKNS1_4V1_017RadioResponseInfoE"
  },
  {
   "name":"_ZN7android8hardware5radio4V1_217BpHwRadioResponse23getCellInfoListResponseERKNS1_4V1_017RadioResponseInfoERKNS0_8hidl_vecINS4_8CellInfoEEE"
  },
  {
   "name":"_ZN7android8hardware5radio4V1_217BpHwRadioResponse23getCurrentCallsResponseERKNS1_4V1_017RadioResponseInfoERKNS0_8hidl_vecINS4_4CallEEE"
  },
  {
   "name":"_ZN7android8hardware5radio4V1_217BpHwRadioResponse23getDataCallListResponseERKNS1_4V1_017RadioResponseInfoERKNS0_8hidl_vecINS4_19SetupDataCallResultEEE"
  },
  {
   "name":"_ZN7android8hardware5radio4V1_217BpHwRadioResponse23requestShutdownResponseERKNS1_4V1_017RadioResponseInfoE"
  },
  {
   "name":"_ZN7android8hardware5radio4V1_217BpHwRadioResponse23sendDeviceStateResponseERKNS1_4V1_017RadioResponseInfoE"
  },
  {
   "name":"_ZN7android8hardware5radio4V1_217BpHwRadioResponse23setSimCardPowerResponseERKNS1_4V1_017RadioResponseInfoE"
  },
  {
   "name":"_ZN7android8hardware5radio4V1_217BpHwRadioResponse23startLceServiceResponseERKNS1_4V1_017RadioResponseInfoERKNS4_13LceStatusInfoE"
  },
  {
   "name":"_ZN7android8hardware5radio4V1_217BpHwRadioResponse23stopNetworkScanResponseERKNS1_4V1_017RadioResponseInfoE"
  },
  {
   "name":"_ZN7android8hardware5radio4V1_217BpHwRadioResponse24getIccCardStatusResponseERKNS1_4V1_017RadioResponseInfoERKNS4_10CardStatusE"
  },
  {
   "name":"_ZN7android8hardware5radio4V1_217BpHwRadioResponse24hangupConnectionResponseERKNS1_4V1_017RadioResponseInfoE"
  },
  {
   "name":"_ZN7android8hardware5radio4V1_217BpHwRadioResponse24startNetworkScanResponseERKNS1_4V1_017RadioResponseInfoE"
  },
  {
   "name":"_ZN7android8hardware5radio4V1_217BpHwRadioResponse25cancelPendingUssdResponseERKNS1_4V1_017RadioResponseInfoE"
  },
  {
   "name":"_ZN7android8hardware5radio4V1_217BpHwRadioResponse25getDeviceIdentityResponseERKNS1_4V1_017RadioResponseInfoERKNS0_11hidl_stringESA_SA_SA_"
  },
  {
   "name":"_ZN7android8hardware5radio4V1_217BpHwRadioResponse25getHardwareConfigResponseERKNS1_4V1_017RadioResponseInfoERKNS0_8hidl_vecINS4_14HardwareConfigEEE"
  },
  {
   "name":"_ZN7android8hardware5radio4V1_217BpHwRadioResponse25getSignalStrengthResponseERKNS1_4V1_017RadioResponseInfoERKNS4_14SignalStrengthE"
  },
  {
   "name":"_ZN7android8hardware5radio4V1_217BpHwRadioResponse25sendSMSExpectMoreResponseERKNS1_4V1_017RadioResponseInfoERKNS4_13SendSmsResultE"
  },
  {
   "name":"_ZN7android8hardware5radio4V1_217BpHwRadioResponse26changeIccPinForAppResponseERKNS1_4V1_017RadioResponseInfoEi"
  },
  {
   "name":"_ZN7android8hardware5radio4V1_217BpHwRadioResponse26deactivateDataCallResponseERKNS1_4V1_017RadioResponseInfoE"
  },
  {
   "name":"_ZN7android8hardware5radio4V1_217BpHwRadioResponse26getAllowedCarriersResponseERKNS1_4V1_017RadioResponseInfoEbRKNS4_19CarrierRestrictionsE"
  },
  {
   "name":"_ZN7android8hardware5radio4V1_217BpHwRadioResponse26getBasebandVersionResponseERKNS1_4V1_017RadioResponseInfoERKNS0_11hidl_stringE"
  },
  {
   "name":"_ZN7android8hardware5radio4V1_217BpHwRadioResponse26getNeighboringCidsResponseERKNS1_4V1_017RadioResponseInfoERKNS0_8hidl_vecINS4_15NeighboringCellEEE"
  },
  {
   "name":"_ZN7android8hardware5radio4V1_217BpHwRadioResponse26getRadioCapabilityResponseERKNS1_4V1_017RadioResponseInfoERKNS4_15RadioCapabilityE"
  },
  {
   "name":"_ZN7android8hardware5radio4V1_217BpHwRadioResponse26separateConnectionResponseERKNS1_4V1_017RadioResponseInfoE"
  },
  {
   "name":"_ZN7android8hardware5radio4V1_217BpHwRadioResponse26setAllowedCarriersResponseERKNS1_4V1_017RadioResponseInfoEi"
  },
  {
   "name":"_ZN7android8hardware5radio4V1_217BpHwRadioResponse26setBarringPasswordResponseERKNS1_4V1_017RadioResponseInfoE"
  },
  {
   "name":"_ZN7android8hardware5radio4V1_217BpHwRadioResponse26setLocationUpdatesResponseERKNS1_4V1_017RadioResponseInfoE"
  },
  {
   "name":"_ZN7android8hardware5radio4V1_217BpHwRadioResponse26setRadioCapabilityResponseERKNS1_4V1_017RadioResponseInfoERKNS4_15RadioCapabilityE"
  },
  {
   "name":"_ZN7android8hardware5radio4V1_217BpHwRadioResponse26supplyIccPinForAppResponseERKNS1_4V1_017RadioResponseInfoEi"
  },
  {
   "name":"_ZN7android8hardware5radio4V1_217BpHwRadioResponse26supplyIccPukForAppResponseERKNS1_4V1_017RadioResponseInfoEi"
  },
  {
   "name":"_ZN7android8hardware5radio4V1_217BpHwRadioResponse27changeIccPin2ForAppResponseERKNS1_4V1_017RadioResponseInfoEi"
  },
  {
   "name":"_ZN7android8hardware5radio4V1_217BpHwRadioResponse27getCDMASubscriptionResponseERKNS1_4V1_017RadioResponseInfoERKNS0_11hidl_stringESA_SA_SA_SA_"
  },
  {
   "name":"_ZN7android8hardware5radio4V1_217BpHwRadioResponse27getCellInfoListResponse_1_2ERKNS1_4V1_017RadioResponseInfoERKNS0_8hidl_vecINS2_8CellInfoEEE"
  },
  {
   "name":"_ZN7android8hardware5radio4V1_217BpHwRadioResponse27getCurrentCallsResponse_1_2ERKNS1_4V1_017RadioResponseInfoERKNS0_8hidl_vecINS2_4CallEEE"
  },
  {
   "name":"_ZN7android8hardware5radio4V1_217BpHwRadioResponse27sendCDMAFeatureCodeResponseERKNS1_4V1_017RadioResponseInfoE"
  },
  {
   "name":"_ZN7android8hardware5radio4V1_217BpHwRadioResponse27setCellInfoListRateResponseERKNS1_4V1_017RadioResponseInfoE"
  },
  {
   "name":"_ZN7android8hardware5radio4V1_217BpHwRadioResponse27setIndicationFilterResponseERKNS1_4V1_017RadioResponseInfoE"
  },
  {
   "name":"_ZN7android8hardware5radio4V1_217BpHwRadioResponse27setInitialAttachApnResponseERKNS1_4V1_017RadioResponseInfoE"
  },
  {
   "name":"_ZN7android8hardware5radio4V1_217BpHwRadioResponse27setSimCardPowerResponse_1_1ERKNS1_4V1_017RadioResponseInfoE"
  },
  {
   "name":"_ZN7android8hardware5radio4V1_217BpHwRadioResponse27setUiccSubscriptionResponseERKNS1_4V1_017RadioResponseInfoE"
  },
  {
   "name":"_ZN7android8hardware5radio4V1_217BpHwRadioResponse27supplyIccPin2ForAppResponseERKNS1_4V1_017RadioResponseInfoEi"
  },
  {
   "name":"_ZN7android8hardware5radio4V1_217BpHwRadioResponse27supplyIccPuk2ForAppResponseERKNS1_4V1_017RadioResponseInfoEi"
  },
  {
   "name":"_ZN7android8hardware5radio4V1_217BpHwRadioResponse28explicitCallTransferResponseERKNS1_4V1_017RadioResponseInfoE"
  },
  {
   "name":"_ZN7android8hardware5radio4V1_217BpHwRadioResponse28getAvailableNetworksResponseERKNS1_4V1_017RadioResponseInfoERKNS0_8hidl_vecINS4_12OperatorInfoEEE"
  },
  {
   "name":"_ZN7android8hardware5radio4V1_217BpHwRadioResponse28getCallForwardStatusResponseERKNS1_4V1_017RadioResponseInfoERKNS0_8hidl_vecINS4_15CallForwardInfoEEE"
  },
  {
   "name":"_ZN7android8hardware5radio4V1_217BpHwRadioResponse28getIccCardStatusResponse_1_2ERKNS1_4V1_017RadioResponseInfoERKNS2_10CardStatusE"
  },
  {
   "name":"_ZN7android8hardware5radio4V1_217BpHwRadioResponse28getLastCallFailCauseResponseERKNS1_4V1_017RadioResponseInfoERKNS4_21LastCallFailCauseInfoE"
  },
  {
   "name":"_ZN7android8hardware5radio4V1_217BpHwRadioResponse28getModemActivityInfoResponseERKNS1_4V1_017RadioResponseInfoERKNS4_17ActivityStatsInfoE"
  },
  {
   "name":"_ZN7android8hardware5radio4V1_217BpHwRadioResponse29getAvailableBandModesResponseERKNS1_4V1_017RadioResponseInfoERKNS0_8hidl_vecINS4_13RadioBandModeEEE"
  },
  {
   "name":"_ZN7android8hardware5radio4V1_217BpHwRadioResponse29getFacilityLockForAppResponseERKNS1_4V1_017RadioResponseInfoEi"
  },
  {
   "name":"_ZN7android8hardware5radio4V1_217BpHwRadioResponse29getGsmBroadcastConfigResponseERKNS1_4V1_017RadioResponseInfoERKNS0_8hidl_vecINS4_25GsmBroadcastSmsConfigInfoEEE"
  },
  {
   "name":"_ZN7android8hardware5radio4V1_217BpHwRadioResponse29getSignalStrengthResponse_1_2ERKNS1_4V1_017RadioResponseInfoERKNS2_14SignalStrengthE"
  },
  {
   "name":"_ZN7android8hardware5radio4V1_217BpHwRadioResponse29iccOpenLogicalChannelResponseERKNS1_4V1_017RadioResponseInfoEiRKNS0_8hidl_vecIaEE"
  },
  {
   "name":"_ZN7android8hardware5radio4V1_217BpHwRadioResponse29reportSmsMemoryStatusResponseERKNS1_4V1_017RadioResponseInfoE"
  },
  {
   "name":"_ZN7android8hardware5radio4V1_217BpHwRadioResponse29setFacilityLockForAppResponseERKNS1_4V1_017RadioResponseInfoEi"
  },
  {
   "name":"_ZN7android8hardware5radio4V1_217BpHwRadioResponse29setGsmBroadcastConfigResponseERKNS1_4V1_017RadioResponseInfoE"
  },
  {
   "name":"_ZN7android8hardware5radio4V1_217BpHwRadioResponse30getCdmaBroadcastConfigResponseERKNS1_4V1_017RadioResponseInfoERKNS0_8hidl_vecINS4_26CdmaBroadcastSmsConfigInfoEEE"
  },
  {
   "name":"_ZN7android8hardware5radio4V1_217BpHwRadioResponse30iccCloseLogicalChannelResponseERKNS1_4V1_017RadioResponseInfoE"
  },
  {
   "name":"_ZN7android8hardware5radio4V1_217BpHwRadioResponse30sendEnvelopeWithStatusResponseERKNS1_4V1_017RadioResponseInfoERKNS4_11IccIoResultE"
  },
  {
   "name":"_ZN7android8hardware5radio4V1_217BpHwRadioResponse30setCdmaBroadcastConfigResponseERKNS1_4V1_017RadioResponseInfoE"
  },
  {
   "name":"_ZN7android8hardware5radio4V1_217BpHwRadioResponse31getImsRegistrationStateResponseERKNS1_4V1_017RadioResponseInfoEbNS4_21RadioTechnologyFamilyE"
  },
  {
   "name":"_ZN7android8hardware5radio4V1_217BpHwRadioResponse31getNetworkSelectionModeResponseERKNS1_4V1_017RadioResponseInfoEb"
  },
  {
   "name":"_ZN7android8hardware5radio4V1_217BpHwRadioResponse31getPreferredNetworkTypeResponseERKNS1_4V1_017RadioResponseInfoENS4_20PreferredNetworkTypeE"
  },
  {
   "name":"_ZN7android8hardware5radio4V1_217BpHwRadioResponse31getVoiceRadioTechnologyResponseERKNS1_4V1_017RadioResponseInfoENS4_15RadioTechnologyE"
  },
  {
   "name":"_ZN7android8hardware5radio4V1_217BpHwRadioResponse31setPreferredNetworkTypeResponseERKNS1_4V1_017RadioResponseInfoE"
  },
  {
   "name":"_ZN7android8hardware5radio4V1_217BpHwRadioResponse32getCdmaRoamingPreferenceResponseERKNS1_4V1_017RadioResponseInfoENS4_15CdmaRoamingTypeE"
  },
  {
   "name":"_ZN7android8hardware5radio4V1_217BpHwRadioResponse32getDataRegistrationStateResponseERKNS1_4V1_017RadioResponseInfoERKNS4_18DataRegStateResultE"
  },
  {
   "name":"_ZN7android8hardware5radio4V1_217BpHwRadioResponse32getPreferredVoicePrivacyResponseERKNS1_4V1_017RadioResponseInfoEb"
  },
  {
   "name":"_ZN7android8hardware5radio4V1_217BpHwRadioResponse32setCdmaRoamingPreferenceResponseERKNS1_4V1_017RadioResponseInfoE"
  },
  {
   "name":"_ZN7android8hardware5radio4V1_217BpHwRadioResponse32setPreferredVoicePrivacyResponseERKNS1_4V1_017RadioResponseInfoE"
  },
  {
   "name":"_ZN7android8hardware5radio4V1_217BpHwRadioResponse33_hidl_getCellInfoListResponse_1_2EPNS0_10IInterfaceEPNS0_7details16HidlInstrumentorERKNS1_4V1_017RadioResponseInfoERKNS0_8hidl_vecINS2_8CellInfoEEE"
  },
  {
   "name":"_ZN7android8hardware5radio4V1_217BpHwRadioResponse33_hidl_getCurrentCallsResponse_1_2EPNS0_10IInterfaceEPNS0_7details16HidlInstrumentorERKNS1_4V1_017RadioResponseInfoERKNS0_8hidl_vecINS2_4CallEEE"
  },
  {
   "name":"_ZN7android8hardware5radio4V1_217BpHwRadioResponse33exitEmergencyCallbackModeResponseERKNS1_4V1_017RadioResponseInfoE"
  },
  {
   "name":"_ZN7android8hardware5radio4V1_217BpHwRadioResponse33getCdmaSubscriptionSourceResponseERKNS1_4V1_017RadioResponseInfoENS4_22CdmaSubscriptionSourceE"
  },
  {
   "name":"_ZN7android8hardware5radio4V1_217BpHwRadioResponse33getVoiceRegistrationStateResponseERKNS1_4V1_017RadioResponseInfoERKNS4_19VoiceRegStateResultE"
  },
  {
   "name":"_ZN7android8hardware5radio4V1_217BpHwRadioResponse33hangupWaitingOrBackgroundResponseERKNS1_4V1_017RadioResponseInfoE"
  },
  {
   "name":"_ZN7android8hardware5radio4V1_217BpHwRadioResponse33reportStkServiceIsRunningResponseERKNS1_4V1_017RadioResponseInfoE"
  },
  {
   "name":"_ZN7android8hardware5radio4V1_217BpHwRadioResponse33requestIsimAuthenticationResponseERKNS1_4V1_017RadioResponseInfoERKNS0_11hidl_stringE"
  },
  {
   "name":"_ZN7android8hardware5radio4V1_217BpHwRadioResponse33sendTerminalResponseToSimResponseERKNS1_4V1_017RadioResponseInfoE"
  },
  {
   "name":"_ZN7android8hardware5radio4V1_217BpHwRadioResponse33setCdmaSubscriptionSourceResponseERKNS1_4V1_017RadioResponseInfoE"
  },
  {
   "name":"_ZN7android8hardware5radio4V1_217BpHwRadioResponse33setGsmBroadcastActivationResponseERKNS1_4V1_017RadioResponseInfoE"
  },
  {
   "name":"_ZN7android8hardware5radio4V1_217BpHwRadioResponse34_hidl_getIccCardStatusResponse_1_2EPNS0_10IInterfaceEPNS0_7details16HidlInstrumentorERKNS1_4V1_017RadioResponseInfoERKNS2_10CardStatusE"
  },
  {
   "name":"_ZN7android8hardware5radio4V1_217BpHwRadioResponse34setCdmaBroadcastActivationResponseERKNS1_4V1_017RadioResponseInfoE"
  },
  {
   "name":"_ZN7android8hardware5radio4V1_217BpHwRadioResponse35_hidl_getSignalStrengthResponse_1_2EPNS0_10IInterfaceEPNS0_7details16HidlInstrumentorERKNS1_4V1_017RadioResponseInfoERKNS2_14SignalStrengthE"
  },
  {
   "name":"_ZN7android8hardware5radio4V1_217BpHwRadioResponse35iccTransmitApduBasicChannelResponseERKNS1_4V1_017RadioResponseInfoERKNS4_11IccIoResultE"
  },
  {
   "name":"_ZN7android8hardware5radio4V1_217BpHwRadioResponse35requestIccSimAuthenticationResponseERKNS1_4V1_017RadioResponseInfoERKNS4_11IccIoResultE"
  },
  {
   "name":"_ZN7android8hardware5radio4V1_217BpHwRadioResponse35setSuppServiceNotificationsResponseERKNS1_4V1_017RadioResponseInfoE"
  },
  {
   "name":"_ZN7android8hardware5radio4V1_217BpHwRadioResponse36getDataRegistrationStateResponse_1_2ERKNS1_4V1_017RadioResponseInfoERKNS2_18DataRegStateResultE"
  },
  {
   "name":"_ZN7android8hardware5radio4V1_217BpHwRadioResponse37acknowledgeLastIncomingGsmSmsResponseERKNS1_4V1_017RadioResponseInfoE"
  },
  {
   "name":"_ZN7android8hardware5radio4V1_217BpHwRadioResponse37getVoiceRegistrationStateResponse_1_2ERKNS1_4V1_017RadioResponseInfoERKNS2_19VoiceRegStateResultE"
  },
  {
   "name":"_ZN7android8hardware5radio4V1_217BpHwRadioResponse37iccTransmitApduLogicalChannelResponseERKNS1_4V1_017RadioResponseInfoERKNS4_11IccIoResultE"
  },
  {
   "name":"_ZN7android8hardware5radio4V1_217BpHwRadioResponse37setNetworkSelectionModeManualResponseERKNS1_4V1_017RadioResponseInfoE"
  },
  {
   "name":"_ZN7android8hardware5radio4V1_217BpHwRadioResponse38acknowledgeLastIncomingCdmaSmsResponseERKNS1_4V1_017RadioResponseInfoE"
  },
  {
   "name":"_ZN7android8hardware5radio4V1_217BpHwRadioResponse38supplyNetworkDepersonalizationResponseERKNS1_4V1_017RadioResponseInfoEi"
  },
  {
   "name":"_ZN7android8hardware5radio4V1_217BpHwRadioResponse39setCarrierInfoForImsiEncryptionResponseERKNS1_4V1_017RadioResponseInfoE"
  },
  {
   "name":"_ZN7android8hardware5radio4V1_217BpHwRadioResponse39switchWaitingOrHoldingAndActiveResponseERKNS1_4V1_017RadioResponseInfoE"
  },
  {
   "name":"_ZN7android8hardware5radio4V1_217BpHwRadioResponse40acknowledgeIncomingGsmSmsWithPduResponseERKNS1_4V1_017RadioResponseInfoE"
  },
  {
   "name":"_ZN7android8hardware5radio4V1_217BpHwRadioResponse40handleStkCallSetupRequestFromSimResponseERKNS1_4V1_017RadioResponseInfoE"
  },
  {
   "name":"_ZN7android8hardware5radio4V1_217BpHwRadioResponse40hangupForegroundResumeBackgroundResponseERKNS1_4V1_017RadioResponseInfoE"
  },
  {
   "name":"_ZN7android8hardware5radio4V1_217BpHwRadioResponse40setLinkCapacityReportingCriteriaResponseERKNS1_4V1_017RadioResponseInfoE"
  },
  {
   "name":"_ZN7android8hardware5radio4V1_217BpHwRadioResponse40setNetworkSelectionModeAutomaticResponseERKNS1_4V1_017RadioResponseInfoE"
  },
  {
   "name":"_ZN7android8hardware5radio4V1_217BpHwRadioResponse42_hidl_getDataRegistrationStateResponse_1_2EPNS0_10IInterfaceEPNS0_7details16HidlInstrumentorERKNS1_4V1_017RadioResponseInfoERKNS2_18DataRegStateResultE"
  },
  {
   "name":"_ZN7android8hardware5radio4V1_217BpHwRadioResponse42setSignalStrengthReportingCriteriaResponseERKNS1_4V1_017RadioResponseInfoE"
  },
  {
   "name":"_ZN7android8hardware5radio4V1_217BpHwRadioResponse43_hidl_getVoiceRegistrationStateResponse_1_2EPNS0_10IInterfaceEPNS0_7details16HidlInstrumentorERKNS1_4V1_017RadioResponseInfoERKNS2_19VoiceRegStateResultE"
  },
  {
   "name":"_ZN7android8hardware5radio4V1_217BpHwRadioResponse46_hidl_setLinkCapacityReportingCriteriaResponseEPNS0_10IInterfaceEPNS0_7details16HidlInstrumentorERKNS1_4V1_017RadioResponseInfoE"
  },
  {
   "name":"_ZN7android8hardware5radio4V1_217BpHwRadioResponse48_hidl_setSignalStrengthReportingCriteriaResponseEPNS0_10IInterfaceEPNS0_7details16HidlInstrumentorERKNS1_4V1_017RadioResponseInfoE"
  },
  {
   "name":"_ZN7android8hardware5radio4V1_217BpHwRadioResponse4pingEv"
  },
  {
   "name":"_ZN7android8hardware5radio4V1_217BpHwRadioResponse5debugERKNS0_11hidl_handleERKNS0_8hidl_vecINS0_11hidl_stringEEE"
  },
  {
   "name":"_ZN7android8hardware5radio4V1_217BpHwRadioResponseC1ERKNS_2spINS0_7IBinderEEE"
  },
  {
   "name":"_ZN7android8hardware5radio4V1_217BpHwRadioResponseC2ERKNS_2spINS0_7IBinderEEE"
  },
  {
   "name":"_ZN7android8hardware5radio4V1_217BsRadioIndication13addOnewayTaskENSt3__18functionIFvvEEE"
  },
  {
   "name":"_ZN7android8hardware5radio4V1_217BsRadioIndicationC1ENS_2spINS2_16IRadioIndicationEEE"
  },
  {
   "name":"_ZN7android8hardware5radio4V1_217BsRadioIndicationC2ENS_2spINS2_16IRadioIndicationEEE"
  },
  {
   "name":"_ZN7android8hardware5radio4V1_219BnHwRadioIndication10onTransactEjRKNS0_6ParcelEPS4_jNSt3__18functionIFvRS4_EEE"
  },
  {
   "name":"_ZN7android8hardware5radio4V1_219BnHwRadioIndication12getDebugInfoENSt3__18functionIFvRKNS_4hidl4base4V1_09DebugInfoEEEE"
  },
  {
   "name":"_ZN7android8hardware5radio4V1_219BnHwRadioIndication22_hidl_cellInfoList_1_2EPNS_4hidl4base4V1_08BnHwBaseERKNS0_6ParcelEPS9_NSt3__18functionIFvRS9_EEE"
  },
  {
   "name":"_ZN7android8hardware5radio4V1_219BnHwRadioIndication27_hidl_networkScanResult_1_2EPNS_4hidl4base4V1_08BnHwBaseERKNS0_6ParcelEPS9_NSt3__18functionIFvRS9_EEE"
  },
  {
   "name":"_ZN7android8hardware5radio4V1_219BnHwRadioIndication31_hidl_currentSignalStrength_1_2EPNS_4hidl4base4V1_08BnHwBaseERKNS0_6ParcelEPS9_NSt3__18functionIFvRS9_EEE"
  },
  {
   "name":"_ZN7android8hardware5radio4V1_219BnHwRadioIndication33_hidl_currentLinkCapacityEstimateEPNS_4hidl4base4V1_08BnHwBaseERKNS0_6ParcelEPS9_NSt3__18functionIFvRS9_EEE"
  },
  {
   "name":"_ZN7android8hardware5radio4V1_219BnHwRadioIndication35_hidl_currentPhysicalChannelConfigsEPNS_4hidl4base4V1_08BnHwBaseERKNS0_6ParcelEPS9_NSt3__18functionIFvRS9_EEE"
  },
  {
   "name":"_ZN7android8hardware5radio4V1_219BnHwRadioIndication4pingEv"
  },
  {
   "name":"_ZN7android8hardware5radio4V1_219BnHwRadioIndicationC1ERKNS_2spINS2_16IRadioIndicationEEE"
  },
  {
   "name":"_ZN7android8hardware5radio4V1_219BnHwRadioIndicationC2ERKNS_2spINS2_16IRadioIndicationEEE"
  },
  {
   "name":"_ZN7android8hardware5radio4V1_219BnHwRadioIndicationD0Ev"
  },
  {
   "name":"_ZN7android8hardware5radio4V1_219BnHwRadioIndicationD1Ev"
  },
  {
   "name":"_ZN7android8hardware5radio4V1_219BnHwRadioIndicationD2Ev"
  },
  {
   "name":"_ZN7android8hardware5radio4V1_219BpHwRadioIndication10cdmaNewSmsENS1_4V1_019RadioIndicationTypeERKNS4_14CdmaSmsMessageE"
  },
  {
   "name":"_ZN7android8hardware5radio4V1_219BpHwRadioIndication10modemResetENS1_4V1_019RadioIndicationTypeERKNS0_11hidl_stringE"
  },
  {
   "name":"_ZN7android8hardware5radio4V1_219BpHwRadioIndication10simRefreshENS1_4V1_019RadioIndicationTypeERKNS4_16SimRefreshResultE"
  },
  {
   "name":"_ZN7android8hardware5radio4V1_219BpHwRadioIndication11cdmaInfoRecENS1_4V1_019RadioIndicationTypeERKNS4_22CdmaInformationRecordsE"
  },
  {
   "name":"_ZN7android8hardware5radio4V1_219BpHwRadioIndication11linkToDeathERKNS_2spINS0_20hidl_death_recipientEEEm"
  },
  {
   "name":"_ZN7android8hardware5radio4V1_219BpHwRadioIndication11newSmsOnSimENS1_4V1_019RadioIndicationTypeEi"
  },
  {
   "name":"_ZN7android8hardware5radio4V1_219BpHwRadioIndication12cellInfoListENS1_4V1_019RadioIndicationTypeERKNS0_8hidl_vecINS4_8CellInfoEEE"
  },
  {
   "name":"_ZN7android8hardware5radio4V1_219BpHwRadioIndication12getDebugInfoENSt3__18functionIFvRKNS_4hidl4base4V1_09DebugInfoEEEE"
  },
  {
   "name":"_ZN7android8hardware5radio4V1_219BpHwRadioIndication12getHashChainENSt3__18functionIFvRKNS0_8hidl_vecINS0_10hidl_arrayIhLm32EJEEEEEEEE"
  },
  {
   "name":"_ZN7android8hardware5radio4V1_219BpHwRadioIndication12rilConnectedENS1_4V1_019RadioIndicationTypeE"
  },
  {
   "name":"_ZN7android8hardware5radio4V1_219BpHwRadioIndication12stkCallSetupENS1_4V1_019RadioIndicationTypeEl"
  },
  {
   "name":"_ZN7android8hardware5radio4V1_219BpHwRadioIndication13stkSessionEndENS1_4V1_019RadioIndicationTypeE"
  },
  {
   "name":"_ZN7android8hardware5radio4V1_219BpHwRadioIndication13suppSvcNotifyENS1_4V1_019RadioIndicationTypeERKNS4_19SuppSvcNotificationE"
  },
  {
   "name":"_ZN7android8hardware5radio4V1_219BpHwRadioIndication13unlinkToDeathERKNS_2spINS0_20hidl_death_recipientEEE"
  },
  {
   "name":"_ZN7android8hardware5radio4V1_219BpHwRadioIndication14cdmaPrlChangedENS1_4V1_019RadioIndicationTypeEi"
  },
  {
   "name":"_ZN7android8hardware5radio4V1_219BpHwRadioIndication14interfaceChainENSt3__18functionIFvRKNS0_8hidl_vecINS0_11hidl_stringEEEEEE"
  },
  {
   "name":"_ZN7android8hardware5radio4V1_219BpHwRadioIndication14stkEventNotifyENS1_4V1_019RadioIndicationTypeERKNS0_11hidl_stringE"
  },
  {
   "name":"_ZN7android8hardware5radio4V1_219BpHwRadioIndication15cdmaCallWaitingENS1_4V1_019RadioIndicationTypeERKNS4_15CdmaCallWaitingE"
  },
  {
   "name":"_ZN7android8hardware5radio4V1_219BpHwRadioIndication15keepaliveStatusENS1_4V1_019RadioIndicationTypeERKNS1_4V1_115KeepaliveStatusE"
  },
  {
   "name":"_ZN7android8hardware5radio4V1_219BpHwRadioIndication15newBroadcastSmsENS1_4V1_019RadioIndicationTypeERKNS0_8hidl_vecIhEE"
  },
  {
   "name":"_ZN7android8hardware5radio4V1_219BpHwRadioIndication16callStateChangedENS1_4V1_019RadioIndicationTypeE"
  },
  {
   "name":"_ZN7android8hardware5radio4V1_219BpHwRadioIndication16cellInfoList_1_2ENS1_4V1_019RadioIndicationTypeERKNS0_8hidl_vecINS2_8CellInfoEEE"
  },
  {
   "name":"_ZN7android8hardware5radio4V1_219BpHwRadioIndication16nitzTimeReceivedENS1_4V1_019RadioIndicationTypeERKNS0_11hidl_stringEm"
  },
  {
   "name":"_ZN7android8hardware5radio4V1_219BpHwRadioIndication16resendIncallMuteENS1_4V1_019RadioIndicationTypeE"
  },
  {
   "name":"_ZN7android8hardware5radio4V1_219BpHwRadioIndication16simStatusChangedENS1_4V1_019RadioIndicationTypeE"
  },
  {
   "name":"_ZN7android8hardware5radio4V1_219BpHwRadioIndication16srvccStateNotifyENS1_4V1_019RadioIndicationTypeENS4_10SrvccStateE"
  },
  {
   "name":"_ZN7android8hardware5radio4V1_219BpHwRadioIndication17networkScanResultENS1_4V1_019RadioIndicationTypeERKNS1_4V1_117NetworkScanResultE"
  },
  {
   "name":"_ZN7android8hardware5radio4V1_219BpHwRadioIndication17radioStateChangedENS1_4V1_019RadioIndicationTypeENS4_10RadioStateE"
  },
  {
   "name":"_ZN7android8hardware5radio4V1_219BpHwRadioIndication17simSmsStorageFullENS1_4V1_019RadioIndicationTypeE"
  },
  {
   "name":"_ZN7android8hardware5radio4V1_219BpHwRadioIndication18newSmsStatusReportENS1_4V1_019RadioIndicationTypeERKNS0_8hidl_vecIhEE"
  },
  {
   "name":"_ZN7android8hardware5radio4V1_219BpHwRadioIndication19dataCallListChangedENS1_4V1_019RadioIndicationTypeERKNS0_8hidl_vecINS4_19SetupDataCallResultEEE"
  },
  {
   "name":"_ZN7android8hardware5radio4V1_219BpHwRadioIndication19interfaceDescriptorENSt3__18functionIFvRKNS0_11hidl_stringEEEE"
  },
  {
   "name":"_ZN7android8hardware5radio4V1_219BpHwRadioIndication19networkStateChangedENS1_4V1_019RadioIndicationTypeE"
  },
  {
   "name":"_ZN7android8hardware5radio4V1_219BpHwRadioIndication19stkProactiveCommandENS1_4V1_019RadioIndicationTypeERKNS0_11hidl_stringE"
  },
  {
   "name":"_ZN7android8hardware5radio4V1_219BpHwRadioIndication20indicateRingbackToneENS1_4V1_019RadioIndicationTypeEb"
  },
  {
   "name":"_ZN7android8hardware5radio4V1_219BpHwRadioIndication21currentSignalStrengthENS1_4V1_019RadioIndicationTypeERKNS4_14SignalStrengthE"
  },
  {
   "name":"_ZN7android8hardware5radio4V1_219BpHwRadioIndication21hardwareConfigChangedENS1_4V1_019RadioIndicationTypeERKNS0_8hidl_vecINS4_14HardwareConfigEEE"
  },
  {
   "name":"_ZN7android8hardware5radio4V1_219BpHwRadioIndication21networkScanResult_1_2ENS1_4V1_019RadioIndicationTypeERKNS2_17NetworkScanResultE"
  },
  {
   "name":"_ZN7android8hardware5radio4V1_219BpHwRadioIndication21notifySyspropsChangedEv"
  },
  {
   "name":"_ZN7android8hardware5radio4V1_219BpHwRadioIndication21setHALInstrumentationEv"
  },
  {
   "name":"_ZN7android8hardware5radio4V1_219BpHwRadioIndication21voiceRadioTechChangedENS1_4V1_019RadioIndicationTypeENS4_15RadioTechnologyE"
  },
  {
   "name":"_ZN7android8hardware5radio4V1_219BpHwRadioIndication22_hidl_cellInfoList_1_2EPNS0_10IInterfaceEPNS0_7details16HidlInstrumentorENS1_4V1_019RadioIndicationTypeERKNS0_8hidl_vecINS2_8CellInfoEEE"
  },
  {
   "name":"_ZN7android8hardware5radio4V1_219BpHwRadioIndication22cdmaOtaProvisionStatusENS1_4V1_019RadioIndicationTypeENS4_22CdmaOtaProvisionStatusE"
  },
  {
   "name":"_ZN7android8hardware5radio4V1_219BpHwRadioIndication22cdmaRuimSmsStorageFullENS1_4V1_019RadioIndicationTypeE"
  },
  {
   "name":"_ZN7android8hardware5radio4V1_219BpHwRadioIndication22imsNetworkStateChangedENS1_4V1_019RadioIndicationTypeE"
  },
  {
   "name":"_ZN7android8hardware5radio4V1_219BpHwRadioIndication22restrictedStateChangedENS1_4V1_019RadioIndicationTypeENS4_20PhoneRestrictedStateE"
  },
  {
   "name":"_ZN7android8hardware5radio4V1_219BpHwRadioIndication25currentSignalStrength_1_2ENS1_4V1_019RadioIndicationTypeERKNS2_14SignalStrengthE"
  },
  {
   "name":"_ZN7android8hardware5radio4V1_219BpHwRadioIndication25exitEmergencyCallbackModeENS1_4V1_019RadioIndicationTypeE"
  },
  {
   "name":"_ZN7android8hardware5radio4V1_219BpHwRadioIndication25radioCapabilityIndicationENS1_4V1_019RadioIndicationTypeERKNS4_15RadioCapabilityE"
  },
  {
   "name":"_ZN7android8hardware5radio4V1_219BpHwRadioIndication25stkCallControlAlphaNotifyENS1_4V1_019RadioIndicationTypeERKNS0_11hidl_stringE"
  },
  {
   "name":"_ZN7android8hardware5radio4V1_219BpHwRadioIndication25subscriptionStatusChangedENS1_4V1_019RadioIndicationTypeEb"
  },
  {
   "name":"_ZN7android8hardware5radio4V1_219BpHwRadioIndication26enterEmergencyCallbackModeENS1_4V1_019RadioIndicationTypeE"
  },
  {
   "name":"_ZN7android8hardware5radio4V1_219BpHwRadioIndication27_hidl_networkScanResult_1_2EPNS0_10IInterfaceEPNS0_7details16HidlInstrumentorENS1_4V1_019RadioIndicationTypeERKNS2_17NetworkScanResultE"
  },
  {
   "name":"_ZN7android8hardware5radio4V1_219BpHwRadioIndication27currentLinkCapacityEstimateENS1_4V1_019RadioIndicationTypeERKNS2_20LinkCapacityEstimateE"
  },
  {
   "name":"_ZN7android8hardware5radio4V1_219BpHwRadioIndication28carrierInfoForImsiEncryptionENS1_4V1_019RadioIndicationTypeE"
  },
  {
   "name":"_ZN7android8hardware5radio4V1_219BpHwRadioIndication29cdmaSubscriptionSourceChangedENS1_4V1_019RadioIndicationTypeENS4_22CdmaSubscriptionSourceE"
  },
  {
   "name":"_ZN7android8hardware5radio4V1_219BpHwRadioIndication29currentPhysicalChannelConfigsENS1_4V1_019RadioIndicationTypeERKNS0_8hidl_vecINS2_21PhysicalChannelConfigEEE"
  },
  {
   "name":"_ZN7android8hardware5radio4V1_219BpHwRadioIndication31_hidl_currentSignalStrength_1_2EPNS0_10IInterfaceEPNS0_7details16HidlInstrumentorENS1_4V1_019RadioIndicationTypeERKNS2_14SignalStrengthE"
  },
  {
   "name":"_ZN7android8hardware5radio4V1_219BpHwRadioIndication32onSupplementaryServiceIndicationENS1_4V1_019RadioIndicationTypeERKNS4_18StkCcUnsolSsResultE"
  },
  {
   "name":"_ZN7android8hardware5radio4V1_219BpHwRadioIndication33_hidl_currentLinkCapacityEstimateEPNS0_10IInterfaceEPNS0_7details16HidlInstrumentorENS1_4V1_019RadioIndicationTypeERKNS2_20LinkCapacityEstimateE"
  },
  {
   "name":"_ZN7android8hardware5radio4V1_219BpHwRadioIndication35_hidl_currentPhysicalChannelConfigsEPNS0_10IInterfaceEPNS0_7details16HidlInstrumentorENS1_4V1_019RadioIndicationTypeERKNS0_8hidl_vecINS2_21PhysicalChannelConfigEEE"
  },
  {
   "name":"_ZN7android8hardware5radio4V1_219BpHwRadioIndication4pingEv"
  },
  {
   "name":"_ZN7android8hardware5radio4V1_219BpHwRadioIndication5debugERKNS0_11hidl_handleERKNS0_8hidl_vecINS0_11hidl_stringEEE"
  },
  {
   "name":"_ZN7android8hardware5radio4V1_219BpHwRadioIndication6newSmsENS1_4V1_019RadioIndicationTypeERKNS0_8hidl_vecIhEE"
  },
  {
   "name":"_ZN7android8hardware5radio4V1_219BpHwRadioIndication6onUssdENS1_4V1_019RadioIndicationTypeENS4_12UssdModeTypeERKNS0_11hidl_stringE"
  },
  {
   "name":"_ZN7android8hardware5radio4V1_219BpHwRadioIndication7lceDataENS1_4V1_019RadioIndicationTypeERKNS4_11LceDataInfoE"
  },
  {
   "name":"_ZN7android8hardware5radio4V1_219BpHwRadioIndication7pcoDataENS1_4V1_019RadioIndicationTypeERKNS4_11PcoDataInfoE"
  },
  {
   "name":"_ZN7android8hardware5radio4V1_219BpHwRadioIndication8callRingENS1_4V1_019RadioIndicationTypeEbRKNS4_20CdmaSignalInfoRecordE"
  },
  {
   "name":"_ZN7android8hardware5radio4V1_219BpHwRadioIndicationC1ERKNS_2spINS0_7IBinderEEE"
  },
  {
   "name":"_ZN7android8hardware5radio4V1_219BpHwRadioIndicationC2ERKNS_2spINS0_7IBinderEEE"
  },
  {
   "name":"_ZN7android8hardware5radio4V1_221writeEmbeddedToParcelERKNS2_10CardStatusEPNS0_6ParcelEmm"
  },
  {
   "name":"_ZN7android8hardware5radio4V1_221writeEmbeddedToParcelERKNS2_11CellInfoGsmEPNS0_6ParcelEmm"
  },
  {
   "name":"_ZN7android8hardware5radio4V1_221writeEmbeddedToParcelERKNS2_11CellInfoLteEPNS0_6ParcelEmm"
  },
  {
   "name":"_ZN7android8hardware5radio4V1_221writeEmbeddedToParcelERKNS2_12CellIdentityEPNS0_6ParcelEmm"
  },
  {
   "name":"_ZN7android8hardware5radio4V1_221writeEmbeddedToParcelERKNS2_12CellInfoCdmaEPNS0_6ParcelEmm"
  },
  {
   "name":"_ZN7android8hardware5radio4V1_221writeEmbeddedToParcelERKNS2_13CellInfoWcdmaEPNS0_6ParcelEmm"
  },
  {
   "name":"_ZN7android8hardware5radio4V1_221writeEmbeddedToParcelERKNS2_15CellIdentityGsmEPNS0_6ParcelEmm"
  },
  {
   "name":"_ZN7android8hardware5radio4V1_221writeEmbeddedToParcelERKNS2_15CellIdentityLteEPNS0_6ParcelEmm"
  },
  {
   "name":"_ZN7android8hardware5radio4V1_221writeEmbeddedToParcelERKNS2_15CellInfoTdscdmaEPNS0_6ParcelEmm"
  },
  {
   "name":"_ZN7android8hardware5radio4V1_221writeEmbeddedToParcelERKNS2_16CellIdentityCdmaEPNS0_6ParcelEmm"
  },
  {
   "name":"_ZN7android8hardware5radio4V1_221writeEmbeddedToParcelERKNS2_17CellIdentityWcdmaEPNS0_6ParcelEmm"
  },
  {
   "name":"_ZN7android8hardware5radio4V1_221writeEmbeddedToParcelERKNS2_17NetworkScanResultEPNS0_6ParcelEmm"
  },
  {
   "name":"_ZN7android8hardware5radio4V1_221writeEmbeddedToParcelERKNS2_18DataRegStateResultEPNS0_6ParcelEmm"
  },
  {
   "name":"_ZN7android8hardware5radio4V1_221writeEmbeddedToParcelERKNS2_18NetworkScanRequestEPNS0_6ParcelEmm"
  },
  {
   "name":"_ZN7android8hardware5radio4V1_221writeEmbeddedToParcelERKNS2_19CellIdentityTdscdmaEPNS0_6ParcelEmm"
  },
  {
   "name":"_ZN7android8hardware5radio4V1_221writeEmbeddedToParcelERKNS2_19VoiceRegStateResultEPNS0_6ParcelEmm"
  },
  {
   "name":"_ZN7android8hardware5radio4V1_221writeEmbeddedToParcelERKNS2_25CellIdentityOperatorNamesEPNS0_6ParcelEmm"
  },
  {
   "name":"_ZN7android8hardware5radio4V1_221writeEmbeddedToParcelERKNS2_4CallEPNS0_6ParcelEmm"
  },
  {
   "name":"_ZN7android8hardware5radio4V1_221writeEmbeddedToParcelERKNS2_8CellInfoEPNS0_6ParcelEmm"
  },
  {
   "name":"_ZN7android8hardware5radio4V1_222readEmbeddedFromParcelERKNS2_10CardStatusERKNS0_6ParcelEmm"
  },
  {
   "name":"_ZN7android8hardware5radio4V1_222readEmbeddedFromParcelERKNS2_11CellInfoGsmERKNS0_6ParcelEmm"
  },
  {
   "name":"_ZN7android8hardware5radio4V1_222readEmbeddedFromParcelERKNS2_11CellInfoLteERKNS0_6ParcelEmm"
  },
  {
   "name":"_ZN7android8hardware5radio4V1_222readEmbeddedFromParcelERKNS2_12CellIdentityERKNS0_6ParcelEmm"
  },
  {
   "name":"_ZN7android8hardware5radio4V1_222readEmbeddedFromParcelERKNS2_12CellInfoCdmaERKNS0_6ParcelEmm"
  },
  {
   "name":"_ZN7android8hardware5radio4V1_222readEmbeddedFromParcelERKNS2_13CellInfoWcdmaERKNS0_6ParcelEmm"
  },
  {
   "name":"_ZN7android8hardware5radio4V1_222readEmbeddedFromParcelERKNS2_15CellIdentityGsmERKNS0_6ParcelEmm"
  },
  {
   "name":"_ZN7android8hardware5radio4V1_222readEmbeddedFromParcelERKNS2_15CellIdentityLteERKNS0_6ParcelEmm"
  },
  {
   "name":"_ZN7android8hardware5radio4V1_222readEmbeddedFromParcelERKNS2_15CellInfoTdscdmaERKNS0_6ParcelEmm"
  },
  {
   "name":"_ZN7android8hardware5radio4V1_222readEmbeddedFromParcelERKNS2_16CellIdentityCdmaERKNS0_6ParcelEmm"
  },
  {
   "name":"_ZN7android8hardware5radio4V1_222readEmbeddedFromParcelERKNS2_17CellIdentityWcdmaERKNS0_6ParcelEmm"
  },
  {
   "name":"_ZN7android8hardware5radio4V1_222readEmbeddedFromParcelERKNS2_17NetworkScanResultERKNS0_6ParcelEmm"
  },
  {
   "name":"_ZN7android8hardware5radio4V1_222readEmbeddedFromParcelERKNS2_18DataRegStateResultERKNS0_6ParcelEmm"
  },
  {
   "name":"_ZN7android8hardware5radio4V1_222readEmbeddedFromParcelERKNS2_18NetworkScanRequestERKNS0_6ParcelEmm"
  },
  {
   "name":"_ZN7android8hardware5radio4V1_222readEmbeddedFromParcelERKNS2_19CellIdentityTdscdmaERKNS0_6ParcelEmm"
  },
  {
   "name":"_ZN7android8hardware5radio4V1_222readEmbeddedFromParcelERKNS2_19VoiceRegStateResultERKNS0_6ParcelEmm"
  },
  {
   "name":"_ZN7android8hardware5radio4V1_222readEmbeddedFromParcelERKNS2_25CellIdentityOperatorNamesERKNS0_6ParcelEmm"
  },
  {
   "name":"_ZN7android8hardware5radio4V1_222readEmbeddedFromParcelERKNS2_4CallERKNS0_6ParcelEmm"
  },
  {
   "name":"_ZN7android8hardware5radio4V1_222readEmbeddedFromParcelERKNS2_8CellInfoERKNS0_6ParcelEmm"
  },
  {
   "name":"_ZN7android8hardware5radio4V1_24ISap10getServiceERKNSt3__112basic_stringIcNS4_11char_traitsIcEENS4_9allocatorIcEEEEb"
  },
  {
   "name":"_ZN7android8hardware5radio4V1_24ISap11linkToDeathERKNS_2spINS0_20hidl_death_recipientEEEm"
  },
  {
   "name":"_ZN7android8hardware5radio4V1_24ISap12getDebugInfoENSt3__18functionIFvRKNS_4hidl4base4V1_09DebugInfoEEEE"
  },
  {
   "name":"_ZN7android8hardware5radio4V1_24ISap12getHashChainENSt3__18functionIFvRKNS0_8hidl_vecINS0_10hidl_arrayIhLm32EJEEEEEEEE"
  },
  {
   "name":"_ZN7android8hardware5radio4V1_24ISap13tryGetServiceERKNSt3__112basic_stringIcNS4_11char_traitsIcEENS4_9allocatorIcEEEEb"
  },
  {
   "name":"_ZN7android8hardware5radio4V1_24ISap13unlinkToDeathERKNS_2spINS0_20hidl_death_recipientEEE"
  },
  {
   "name":"_ZN7android8hardware5radio4V1_24ISap14interfaceChainENSt3__18functionIFvRKNS0_8hidl_vecINS0_11hidl_stringEEEEEE"
  },
  {
   "name":"_ZN7android8hardware5radio4V1_24ISap17registerAsServiceERKNSt3__112basic_stringIcNS4_11char_traitsIcEENS4_9allocatorIcEEEE"
  },
  {
   "name":"_ZN7android8hardware5radio4V1_24ISap19interfaceDescriptorENSt3__18functionIFvRKNS0_11hidl_stringEEEE"
  },
  {
   "name":"_ZN7android8hardware5radio4V1_24ISap21notifySyspropsChangedEv"
  },
  {
   "name":"_ZN7android8hardware5radio4V1_24ISap21setHALInstrumentationEv"
  },
  {
   "name":"_ZN7android8hardware5radio4V1_24ISap24registerForNotificationsERKNSt3__112basic_stringIcNS4_11char_traitsIcEENS4_9allocatorIcEEEERKNS_2spINS_4hidl7manager4V1_020IServiceNotificationEEE"
  },
  {
   "name":"_ZN7android8hardware5radio4V1_24ISap4pingEv"
  },
  {
   "name":"_ZN7android8hardware5radio4V1_24ISap5debugERKNS0_11hidl_handleERKNS0_8hidl_vecINS0_11hidl_stringEEE"
  },
  {
   "name":"_ZN7android8hardware5radio4V1_24ISap8castFromERKNS_2spINS1_4V1_04ISapEEEb"
  },
  {
   "name":"_ZN7android8hardware5radio4V1_24ISap8castFromERKNS_2spINS1_4V1_14ISapEEEb"
  },
  {
   "name":"_ZN7android8hardware5radio4V1_24ISap8castFromERKNS_2spINS_4hidl4base4V1_05IBaseEEEb"
  },
  {
   "name":"_ZN7android8hardware5radio4V1_24ISap8castFromERKNS_2spIS3_EEb"
  },
  {
   "name":"_ZN7android8hardware5radio4V1_25BsSap13addOnewayTaskENSt3__18functionIFvvEEE"
  },
  {
   "name":"_ZN7android8hardware5radio4V1_25BsSapC1ENS_2spINS2_4ISapEEE"
  },
  {
   "name":"_ZN7android8hardware5radio4V1_25BsSapC2ENS_2spINS2_4ISapEEE"
  },
  {
   "name":"_ZN7android8hardware5radio4V1_26IRadio10getServiceERKNSt3__112basic_stringIcNS4_11char_traitsIcEENS4_9allocatorIcEEEEb"
  },
  {
   "name":"_ZN7android8hardware5radio4V1_26IRadio11linkToDeathERKNS_2spINS0_20hidl_death_recipientEEEm"
  },
  {
   "name":"_ZN7android8hardware5radio4V1_26IRadio12getDebugInfoENSt3__18functionIFvRKNS_4hidl4base4V1_09DebugInfoEEEE"
  },
  {
   "name":"_ZN7android8hardware5radio4V1_26IRadio12getHashChainENSt3__18functionIFvRKNS0_8hidl_vecINS0_10hidl_arrayIhLm32EJEEEEEEEE"
  },
  {
   "name":"_ZN7android8hardware5radio4V1_26IRadio13tryGetServiceERKNSt3__112basic_stringIcNS4_11char_traitsIcEENS4_9allocatorIcEEEEb"
  },
  {
   "name":"_ZN7android8hardware5radio4V1_26IRadio13unlinkToDeathERKNS_2spINS0_20hidl_death_recipientEEE"
  },
  {
   "name":"_ZN7android8hardware5radio4V1_26IRadio14interfaceChainENSt3__18functionIFvRKNS0_8hidl_vecINS0_11hidl_stringEEEEEE"
  },
  {
   "name":"_ZN7android8hardware5radio4V1_26IRadio17registerAsServiceERKNSt3__112basic_stringIcNS4_11char_traitsIcEENS4_9allocatorIcEEEE"
  },
  {
   "name":"_ZN7android8hardware5radio4V1_26IRadio19interfaceDescriptorENSt3__18functionIFvRKNS0_11hidl_stringEEEE"
  },
  {
   "name":"_ZN7android8hardware5radio4V1_26IRadio21notifySyspropsChangedEv"
  },
  {
   "name":"_ZN7android8hardware5radio4V1_26IRadio21setHALInstrumentationEv"
  },
  {
   "name":"_ZN7android8hardware5radio4V1_26IRadio24registerForNotificationsERKNSt3__112basic_stringIcNS4_11char_traitsIcEENS4_9allocatorIcEEEERKNS_2spINS_4hidl7manager4V1_020IServiceNotificationEEE"
  },
  {
   "name":"_ZN7android8hardware5radio4V1_26IRadio4pingEv"
  },
  {
   "name":"_ZN7android8hardware5radio4V1_26IRadio5debugERKNS0_11hidl_handleERKNS0_8hidl_vecINS0_11hidl_stringEEE"
  },
  {
   "name":"_ZN7android8hardware5radio4V1_26IRadio8castFromERKNS_2spINS1_4V1_06IRadioEEEb"
  },
  {
   "name":"_ZN7android8hardware5radio4V1_26IRadio8castFromERKNS_2spINS1_4V1_16IRadioEEEb"
  },
  {
   "name":"_ZN7android8hardware5radio4V1_26IRadio8castFromERKNS_2spINS_4hidl4base4V1_05IBaseEEEb"
  },
  {
   "name":"_ZN7android8hardware5radio4V1_26IRadio8castFromERKNS_2spIS3_EEb"
  },
  {
   "name":"_ZN7android8hardware5radio4V1_27BnHwSap10onTransactEjRKNS0_6ParcelEPS4_jNSt3__18functionIFvRS4_EEE"
  },
  {
   "name":"_ZN7android8hardware5radio4V1_27BnHwSap12getDebugInfoENSt3__18functionIFvRKNS_4hidl4base4V1_09DebugInfoEEEE"
  },
  {
   "name":"_ZN7android8hardware5radio4V1_27BnHwSap4pingEv"
  },
  {
   "name":"_ZN7android8hardware5radio4V1_27BnHwSapC1ERKNS_2spINS2_4ISapEEE"
  },
  {
   "name":"_ZN7android8hardware5radio4V1_27BnHwSapC2ERKNS_2spINS2_4ISapEEE"
  },
  {
   "name":"_ZN7android8hardware5radio4V1_27BnHwSapD0Ev"
  },
  {
   "name":"_ZN7android8hardware5radio4V1_27BnHwSapD1Ev"
  },
  {
   "name":"_ZN7android8hardware5radio4V1_27BnHwSapD2Ev"
  },
  {
   "name":"_ZN7android8hardware5radio4V1_27BpHwSap10connectReqEii"
  },
  {
   "name":"_ZN7android8hardware5radio4V1_27BpHwSap11linkToDeathERKNS_2spINS0_20hidl_death_recipientEEEm"
  },
  {
   "name":"_ZN7android8hardware5radio4V1_27BpHwSap11resetSimReqEi"
  },
  {
   "name":"_ZN7android8hardware5radio4V1_27BpHwSap11setCallbackERKNS_2spINS1_4V1_012ISapCallbackEEE"
  },
  {
   "name":"_ZN7android8hardware5radio4V1_27BpHwSap12getDebugInfoENSt3__18functionIFvRKNS_4hidl4base4V1_09DebugInfoEEEE"
  },
  {
   "name":"_ZN7android8hardware5radio4V1_27BpHwSap12getHashChainENSt3__18functionIFvRKNS0_8hidl_vecINS0_10hidl_arrayIhLm32EJEEEEEEEE"
  },
  {
   "name":"_ZN7android8hardware5radio4V1_27BpHwSap13disconnectReqEi"
  },
  {
   "name":"_ZN7android8hardware5radio4V1_27BpHwSap13unlinkToDeathERKNS_2spINS0_20hidl_death_recipientEEE"
  },
  {
   "name":"_ZN7android8hardware5radio4V1_27BpHwSap14interfaceChainENSt3__18functionIFvRKNS0_8hidl_vecINS0_11hidl_stringEEEEEE"
  },
  {
   "name":"_ZN7android8hardware5radio4V1_27BpHwSap14transferAtrReqEi"
  },
  {
   "name":"_ZN7android8hardware5radio4V1_27BpHwSap19interfaceDescriptorENSt3__18functionIFvRKNS0_11hidl_stringEEEE"
  },
  {
   "name":"_ZN7android8hardware5radio4V1_27BpHwSap21notifySyspropsChangedEv"
  },
  {
   "name":"_ZN7android8hardware5radio4V1_27BpHwSap21setHALInstrumentationEv"
  },
  {
   "name":"_ZN7android8hardware5radio4V1_27BpHwSap22setTransferProtocolReqEiNS1_4V1_019SapTransferProtocolE"
  },
  {
   "name":"_ZN7android8hardware5radio4V1_27BpHwSap27transferCardReaderStatusReqEi"
  },
  {
   "name":"_ZN7android8hardware5radio4V1_27BpHwSap4pingEv"
  },
  {
   "name":"_ZN7android8hardware5radio4V1_27BpHwSap5debugERKNS0_11hidl_handleERKNS0_8hidl_vecINS0_11hidl_stringEEE"
  },
  {
   "name":"_ZN7android8hardware5radio4V1_27BpHwSap7apduReqEiNS1_4V1_011SapApduTypeERKNS0_8hidl_vecIhEE"
  },
  {
   "name":"_ZN7android8hardware5radio4V1_27BpHwSap8powerReqEib"
  },
  {
   "name":"_ZN7android8hardware5radio4V1_27BpHwSapC1ERKNS_2spINS0_7IBinderEEE"
  },
  {
   "name":"_ZN7android8hardware5radio4V1_27BpHwSapC2ERKNS_2spINS0_7IBinderEEE"
  },
  {
   "name":"_ZN7android8hardware5radio4V1_27BsRadio13addOnewayTaskENSt3__18functionIFvvEEE"
  },
  {
   "name":"_ZN7android8hardware5radio4V1_27BsRadioC1ENS_2spINS2_6IRadioEEE"
  },
  {
   "name":"_ZN7android8hardware5radio4V1_27BsRadioC2ENS_2spINS2_6IRadioEEE"
  },
  {
   "name":"_ZN7android8hardware5radio4V1_29BnHwRadio10onTransactEjRKNS0_6ParcelEPS4_jNSt3__18functionIFvRS4_EEE"
  },
  {
   "name":"_ZN7android8hardware5radio4V1_29BnHwRadio12getDebugInfoENSt3__18functionIFvRKNS_4hidl4base4V1_09DebugInfoEEEE"
  },
  {
   "name":"_ZN7android8hardware5radio4V1_29BnHwRadio23_hidl_setupDataCall_1_2EPNS_4hidl4base4V1_08BnHwBaseERKNS0_6ParcelEPS9_NSt3__18functionIFvRS9_EEE"
  },
  {
   "name":"_ZN7android8hardware5radio4V1_29BnHwRadio26_hidl_startNetworkScan_1_2EPNS_4hidl4base4V1_08BnHwBaseERKNS0_6ParcelEPS9_NSt3__18functionIFvRS9_EEE"
  },
  {
   "name":"_ZN7android8hardware5radio4V1_29BnHwRadio28_hidl_deactivateDataCall_1_2EPNS_4hidl4base4V1_08BnHwBaseERKNS0_6ParcelEPS9_NSt3__18functionIFvRS9_EEE"
  },
  {
   "name":"_ZN7android8hardware5radio4V1_29BnHwRadio29_hidl_setIndicationFilter_1_2EPNS_4hidl4base4V1_08BnHwBaseERKNS0_6ParcelEPS9_NSt3__18functionIFvRS9_EEE"
  },
  {
   "name":"_ZN7android8hardware5radio4V1_29BnHwRadio38_hidl_setLinkCapacityReportingCriteriaEPNS_4hidl4base4V1_08BnHwBaseERKNS0_6ParcelEPS9_NSt3__18functionIFvRS9_EEE"
  },
  {
   "name":"_ZN7android8hardware5radio4V1_29BnHwRadio40_hidl_setSignalStrengthReportingCriteriaEPNS_4hidl4base4V1_08BnHwBaseERKNS0_6ParcelEPS9_NSt3__18functionIFvRS9_EEE"
  },
  {
   "name":"_ZN7android8hardware5radio4V1_29BnHwRadio4pingEv"
  },
  {
   "name":"_ZN7android8hardware5radio4V1_29BnHwRadioC1ERKNS_2spINS2_6IRadioEEE"
  },
  {
   "name":"_ZN7android8hardware5radio4V1_29BnHwRadioC2ERKNS_2spINS2_6IRadioEEE"
  },
  {
   "name":"_ZN7android8hardware5radio4V1_29BnHwRadioD0Ev"
  },
  {
   "name":"_ZN7android8hardware5radio4V1_29BnHwRadioD1Ev"
  },
  {
   "name":"_ZN7android8hardware5radio4V1_29BnHwRadioD2Ev"
  },
  {
   "name":"_ZN7android8hardware5radio4V1_29BpHwRadio10acceptCallEi"
  },
  {
   "name":"_ZN7android8hardware5radio4V1_29BpHwRadio10conferenceEi"
  },
  {
   "name":"_ZN7android8hardware5radio4V1_29BpHwRadio10getTTYModeEi"
  },
  {
   "name":"_ZN7android8hardware5radio4V1_29BpHwRadio10nvReadItemEiNS1_4V1_06NvItemE"
  },
  {
   "name":"_ZN7android8hardware5radio4V1_29BpHwRadio10rejectCallEi"
  },
  {
   "name":"_ZN7android8hardware5radio4V1_29BpHwRadio10sendImsSmsEiRKNS1_4V1_013ImsSmsMessageE"
  },
  {
   "name":"_ZN7android8hardware5radio4V1_29BpHwRadio10setTTYModeEiNS1_4V1_07TtyModeE"
  },
  {
   "name":"_ZN7android8hardware5radio4V1_29BpHwRadio11getOperatorEi"
  },
  {
   "name":"_ZN7android8hardware5radio4V1_29BpHwRadio11iccIOForAppEiRKNS1_4V1_05IccIoE"
  },
  {
   "name":"_ZN7android8hardware5radio4V1_29BpHwRadio11linkToDeathERKNS_2spINS0_20hidl_death_recipientEEEm"
  },
  {
   "name":"_ZN7android8hardware5radio4V1_29BpHwRadio11nvWriteItemEiRKNS1_4V1_011NvWriteItemE"
  },
  {
   "name":"_ZN7android8hardware5radio4V1_29BpHwRadio11pullLceDataEi"
  },
  {
   "name":"_ZN7android8hardware5radio4V1_29BpHwRadio11sendCdmaSmsEiRKNS1_4V1_014CdmaSmsMessageE"
  },
  {
   "name":"_ZN7android8hardware5radio4V1_29BpHwRadio11setBandModeEiNS1_4V1_013RadioBandModeE"
  },
  {
   "name":"_ZN7android8hardware5radio4V1_29BpHwRadio12getDebugInfoENSt3__18functionIFvRKNS_4hidl4base4V1_09DebugInfoEEEE"
  },
  {
   "name":"_ZN7android8hardware5radio4V1_29BpHwRadio12getHashChainENSt3__18functionIFvRKNS0_8hidl_vecINS0_10hidl_arrayIhLm32EJEEEEEEEE"
  },
  {
   "name":"_ZN7android8hardware5radio4V1_29BpHwRadio12sendEnvelopeEiRKNS0_11hidl_stringE"
  },
  {
   "name":"_ZN7android8hardware5radio4V1_29BpHwRadio13getImsiForAppEiRKNS0_11hidl_stringE"
  },
  {
   "name":"_ZN7android8hardware5radio4V1_29BpHwRadio13nvResetConfigEiNS1_4V1_011ResetNvTypeE"
  },
  {
   "name":"_ZN7android8hardware5radio4V1_29BpHwRadio13sendBurstDtmfEiRKNS0_11hidl_stringEii"
  },
  {
   "name":"_ZN7android8hardware5radio4V1_29BpHwRadio13setRadioPowerEib"
  },
  {
   "name":"_ZN7android8hardware5radio4V1_29BpHwRadio13setupDataCallEiNS1_4V1_015RadioTechnologyERKNS4_15DataProfileInfoEbbb"
  },
  {
   "name":"_ZN7android8hardware5radio4V1_29BpHwRadio13stopKeepaliveEii"
  },
  {
   "name":"_ZN7android8hardware5radio4V1_29BpHwRadio13unlinkToDeathERKNS_2spINS0_20hidl_death_recipientEEE"
  },
  {
   "name":"_ZN7android8hardware5radio4V1_29BpHwRadio13writeSmsToSimEiRKNS1_4V1_012SmsWriteArgsE"
  },
  {
   "name":"_ZN7android8hardware5radio4V1_29BpHwRadio14deleteSmsOnSimEii"
  },
  {
   "name":"_ZN7android8hardware5radio4V1_29BpHwRadio14getCallWaitingEii"
  },
  {
   "name":"_ZN7android8hardware5radio4V1_29BpHwRadio14getSmscAddressEi"
  },
  {
   "name":"_ZN7android8hardware5radio4V1_29BpHwRadio14interfaceChainENSt3__18functionIFvRKNS0_8hidl_vecINS0_11hidl_stringEEEEEE"
  },
  {
   "name":"_ZN7android8hardware5radio4V1_29BpHwRadio14nvWriteCdmaPrlEiRKNS0_8hidl_vecIhEE"
  },
  {
   "name":"_ZN7android8hardware5radio4V1_29BpHwRadio14setCallForwardEiRKNS1_4V1_015CallForwardInfoE"
  },
  {
   "name":"_ZN7android8hardware5radio4V1_29BpHwRadio14setCallWaitingEibi"
  },
  {
   "name":"_ZN7android8hardware5radio4V1_29BpHwRadio14setDataAllowedEib"
  },
  {
   "name":"_ZN7android8hardware5radio4V1_29BpHwRadio14setDataProfileEiRKNS0_8hidl_vecINS1_4V1_015DataProfileInfoEEEb"
  },
  {
   "name":"_ZN7android8hardware5radio4V1_29BpHwRadio14setSmscAddressEiRKNS0_11hidl_stringE"
  },
  {
   "name":"_ZN7android8hardware5radio4V1_29BpHwRadio14startKeepaliveEiRKNS1_4V1_116KeepaliveRequestE"
  },
  {
   "name":"_ZN7android8hardware5radio4V1_29BpHwRadio14stopLceServiceEi"
  },
  {
   "name":"_ZN7android8hardware5radio4V1_29BpHwRadio14writeSmsToRuimEiRKNS1_4V1_016CdmaSmsWriteArgsE"
  },
  {
   "name":"_ZN7android8hardware5radio4V1_29BpHwRadio15deleteSmsOnRuimEii"
  },
  {
   "name":"_ZN7android8hardware5radio4V1_29BpHwRadio15getCellInfoListEi"
  },
  {
   "name":"_ZN7android8hardware5radio4V1_29BpHwRadio15getCurrentCallsEi"
  },
  {
   "name":"_ZN7android8hardware5radio4V1_29BpHwRadio15getDataCallListEi"
  },
  {
   "name":"_ZN7android8hardware5radio4V1_29BpHwRadio15requestShutdownEi"
  },
  {
   "name":"_ZN7android8hardware5radio4V1_29BpHwRadio15sendDeviceStateEiNS1_4V1_015DeviceStateTypeEb"
  },
  {
   "name":"_ZN7android8hardware5radio4V1_29BpHwRadio15setSimCardPowerEib"
  },
  {
   "name":"_ZN7android8hardware5radio4V1_29BpHwRadio15startLceServiceEiib"
  },
  {
   "name":"_ZN7android8hardware5radio4V1_29BpHwRadio15stopNetworkScanEi"
  },
  {
   "name":"_ZN7android8hardware5radio4V1_29BpHwRadio16getIccCardStatusEi"
  },
  {
   "name":"_ZN7android8hardware5radio4V1_29BpHwRadio16startNetworkScanEiRKNS1_4V1_118NetworkScanRequestE"
  },
  {
   "name":"_ZN7android8hardware5radio4V1_29BpHwRadio17cancelPendingUssdEi"
  },
  {
   "name":"_ZN7android8hardware5radio4V1_29BpHwRadio17getDeviceIdentityEi"
  },
  {
   "name":"_ZN7android8hardware5radio4V1_29BpHwRadio17getHardwareConfigEi"
  },
  {
   "name":"_ZN7android8hardware5radio4V1_29BpHwRadio17getSignalStrengthEi"
  },
  {
   "name":"_ZN7android8hardware5radio4V1_29BpHwRadio17sendSMSExpectMoreEiRKNS1_4V1_013GsmSmsMessageE"
  },
  {
   "name":"_ZN7android8hardware5radio4V1_29BpHwRadio17setupDataCall_1_2EiNS2_13AccessNetworkERKNS1_4V1_015DataProfileInfoEbbbNS2_17DataRequestReasonERKNS0_8hidl_vecINS0_11hidl_stringEEESE_"
  },
  {
   "name":"_ZN7android8hardware5radio4V1_29BpHwRadio18changeIccPinForAppEiRKNS0_11hidl_stringES6_S6_"
  },
  {
   "name":"_ZN7android8hardware5radio4V1_29BpHwRadio18deactivateDataCallEiib"
  },
  {
   "name":"_ZN7android8hardware5radio4V1_29BpHwRadio18getAllowedCarriersEi"
  },
  {
   "name":"_ZN7android8hardware5radio4V1_29BpHwRadio18getBasebandVersionEi"
  },
  {
   "name":"_ZN7android8hardware5radio4V1_29BpHwRadio18getNeighboringCidsEi"
  },
  {
   "name":"_ZN7android8hardware5radio4V1_29BpHwRadio18getRadioCapabilityEi"
  },
  {
   "name":"_ZN7android8hardware5radio4V1_29BpHwRadio18separateConnectionEii"
  },
  {
   "name":"_ZN7android8hardware5radio4V1_29BpHwRadio18setAllowedCarriersEibRKNS1_4V1_019CarrierRestrictionsE"
  },
  {
   "name":"_ZN7android8hardware5radio4V1_29BpHwRadio18setBarringPasswordEiRKNS0_11hidl_stringES6_S6_"
  },
  {
   "name":"_ZN7android8hardware5radio4V1_29BpHwRadio18setLocationUpdatesEib"
  },
  {
   "name":"_ZN7android8hardware5radio4V1_29BpHwRadio18setRadioCapabilityEiRKNS1_4V1_015RadioCapabilityE"
  },
  {
   "name":"_ZN7android8hardware5radio4V1_29BpHwRadio18supplyIccPinForAppEiRKNS0_11hidl_stringES6_"
  },
  {
   "name":"_ZN7android8hardware5radio4V1_29BpHwRadio18supplyIccPukForAppEiRKNS0_11hidl_stringES6_S6_"
  },
  {
   "name":"_ZN7android8hardware5radio4V1_29BpHwRadio19changeIccPin2ForAppEiRKNS0_11hidl_stringES6_S6_"
  },
  {
   "name":"_ZN7android8hardware5radio4V1_29BpHwRadio19getCDMASubscriptionEi"
  },
  {
   "name":"_ZN7android8hardware5radio4V1_29BpHwRadio19interfaceDescriptorENSt3__18functionIFvRKNS0_11hidl_stringEEEE"
  },
  {
   "name":"_ZN7android8hardware5radio4V1_29BpHwRadio19sendCDMAFeatureCodeEiRKNS0_11hidl_stringE"
  },
  {
   "name":"_ZN7android8hardware5radio4V1_29BpHwRadio19setCellInfoListRateEii"
  },
  {
   "name":"_ZN7android8hardware5radio4V1_29BpHwRadio19setIndicationFilterEii"
  },
  {
   "name":"_ZN7android8hardware5radio4V1_29BpHwRadio19setInitialAttachApnEiRKNS1_4V1_015DataProfileInfoEbb"
  },
  {
   "name":"_ZN7android8hardware5radio4V1_29BpHwRadio19setSimCardPower_1_1EiNS1_4V1_114CardPowerStateE"
  },
  {
   "name":"_ZN7android8hardware5radio4V1_29BpHwRadio19setUiccSubscriptionEiRKNS1_4V1_013SelectUiccSubE"
  },
  {
   "name":"_ZN7android8hardware5radio4V1_29BpHwRadio19supplyIccPin2ForAppEiRKNS0_11hidl_stringES6_"
  },
  {
   "name":"_ZN7android8hardware5radio4V1_29BpHwRadio19supplyIccPuk2ForAppEiRKNS0_11hidl_stringES6_S6_"
  },
  {
   "name":"_ZN7android8hardware5radio4V1_29BpHwRadio20explicitCallTransferEi"
  },
  {
   "name":"_ZN7android8hardware5radio4V1_29BpHwRadio20getAvailableNetworksEi"
  },
  {
   "name":"_ZN7android8hardware5radio4V1_29BpHwRadio20getCallForwardStatusEiRKNS1_4V1_015CallForwardInfoE"
  },
  {
   "name":"_ZN7android8hardware5radio4V1_29BpHwRadio20getLastCallFailCauseEi"
  },
  {
   "name":"_ZN7android8hardware5radio4V1_29BpHwRadio20getModemActivityInfoEi"
  },
  {
   "name":"_ZN7android8hardware5radio4V1_29BpHwRadio20setResponseFunctionsERKNS_2spINS1_4V1_014IRadioResponseEEERKNS4_INS5_16IRadioIndicationEEE"
  },
  {
   "name":"_ZN7android8hardware5radio4V1_29BpHwRadio20startNetworkScan_1_2EiRKNS2_18NetworkScanRequestE"
  },
  {
   "name":"_ZN7android8hardware5radio4V1_29BpHwRadio21getAvailableBandModesEi"
  },
  {
   "name":"_ZN7android8hardware5radio4V1_29BpHwRadio21getFacilityLockForAppEiRKNS0_11hidl_stringES6_iS6_"
  },
  {
   "name":"_ZN7android8hardware5radio4V1_29BpHwRadio21getGsmBroadcastConfigEi"
  },
  {
   "name":"_ZN7android8hardware5radio4V1_29BpHwRadio21iccOpenLogicalChannelEiRKNS0_11hidl_stringEi"
  },
  {
   "name":"_ZN7android8hardware5radio4V1_29BpHwRadio21notifySyspropsChangedEv"
  },
  {
   "name":"_ZN7android8hardware5radio4V1_29BpHwRadio21reportSmsMemoryStatusEib"
  },
  {
   "name":"_ZN7android8hardware5radio4V1_29BpHwRadio21setFacilityLockForAppEiRKNS0_11hidl_stringEbS6_iS6_"
  },
  {
   "name":"_ZN7android8hardware5radio4V1_29BpHwRadio21setGsmBroadcastConfigEiRKNS0_8hidl_vecINS1_4V1_025GsmBroadcastSmsConfigInfoEEE"
  },
  {
   "name":"_ZN7android8hardware5radio4V1_29BpHwRadio21setHALInstrumentationEv"
  },
  {
   "name":"_ZN7android8hardware5radio4V1_29BpHwRadio22deactivateDataCall_1_2EiiNS2_17DataRequestReasonE"
  },
  {
   "name":"_ZN7android8hardware5radio4V1_29BpHwRadio22getCdmaBroadcastConfigEi"
  },
  {
   "name":"_ZN7android8hardware5radio4V1_29BpHwRadio22iccCloseLogicalChannelEii"
  },
  {
   "name":"_ZN7android8hardware5radio4V1_29BpHwRadio22sendEnvelopeWithStatusEiRKNS0_11hidl_stringE"
  },
  {
   "name":"_ZN7android8hardware5radio4V1_29BpHwRadio22setCdmaBroadcastConfigEiRKNS0_8hidl_vecINS1_4V1_026CdmaBroadcastSmsConfigInfoEEE"
  },
  {
   "name":"_ZN7android8hardware5radio4V1_29BpHwRadio23_hidl_setupDataCall_1_2EPNS0_10IInterfaceEPNS0_7details16HidlInstrumentorEiNS2_13AccessNetworkERKNS1_4V1_015DataProfileInfoEbbbNS2_17DataRequestReasonERKNS0_8hidl_vecINS0_11hidl_stringEEESJ_"
  },
  {
   "name":"_ZN7android8hardware5radio4V1_29BpHwRadio23getImsRegistrationStateEi"
  },
  {
   "name":"_ZN7android8hardware5radio4V1_29BpHwRadio23getNetworkSelectionModeEi"
  },
  {
   "name":"_ZN7android8hardware5radio4V1_29BpHwRadio23getPreferredNetworkTypeEi"
  },
  {
   "name":"_ZN7android8hardware5radio4V1_29BpHwRadio23getVoiceRadioTechnologyEi"
  },
  {
   "name":"_ZN7android8hardware5radio4V1_29BpHwRadio23responseAcknowledgementEv"
  },
  {
   "name":"_ZN7android8hardware5radio4V1_29BpHwRadio23setIndicationFilter_1_2Eii"
  },
  {
   "name":"_ZN7android8hardware5radio4V1_29BpHwRadio23setPreferredNetworkTypeEiNS1_4V1_020PreferredNetworkTypeE"
  },
  {
   "name":"_ZN7android8hardware5radio4V1_29BpHwRadio24getCdmaRoamingPreferenceEi"
  },
  {
   "name":"_ZN7android8hardware5radio4V1_29BpHwRadio24getDataRegistrationStateEi"
  },
  {
   "name":"_ZN7android8hardware5radio4V1_29BpHwRadio24getPreferredVoicePrivacyEi"
  },
  {
   "name":"_ZN7android8hardware5radio4V1_29BpHwRadio24setCdmaRoamingPreferenceEiNS1_4V1_015CdmaRoamingTypeE"
  },
  {
   "name":"_ZN7android8hardware5radio4V1_29BpHwRadio24setPreferredVoicePrivacyEib"
  },
  {
   "name":"_ZN7android8hardware5radio4V1_29BpHwRadio25exitEmergencyCallbackModeEi"
  },
  {
   "name":"_ZN7android8hardware5radio4V1_29BpHwRadio25getCdmaSubscriptionSourceEi"
  },
  {
   "name":"_ZN7android8hardware5radio4V1_29BpHwRadio25getVoiceRegistrationStateEi"
  },
  {
   "name":"_ZN7android8hardware5radio4V1_29BpHwRadio25hangupWaitingOrBackgroundEi"
  },
  {
   "name":"_ZN7android8hardware5radio4V1_29BpHwRadio25reportStkServiceIsRunningEi"
  },
  {
   "name":"_ZN7android8hardware5radio4V1_29BpHwRadio25requestIsimAuthenticationEiRKNS0_11hidl_stringE"
  },
  {
   "name":"_ZN7android8hardware5radio4V1_29BpHwRadio25sendTerminalResponseToSimEiRKNS0_11hidl_stringE"
  },
  {
   "name":"_ZN7android8hardware5radio4V1_29BpHwRadio25setCdmaSubscriptionSourceEiNS1_4V1_022CdmaSubscriptionSourceE"
  },
  {
   "name":"_ZN7android8hardware5radio4V1_29BpHwRadio25setGsmBroadcastActivationEib"
  },
  {
   "name":"_ZN7android8hardware5radio4V1_29BpHwRadio26_hidl_startNetworkScan_1_2EPNS0_10IInterfaceEPNS0_7details16HidlInstrumentorEiRKNS2_18NetworkScanRequestE"
  },
  {
   "name":"_ZN7android8hardware5radio4V1_29BpHwRadio26setCdmaBroadcastActivationEib"
  },
  {
   "name":"_ZN7android8hardware5radio4V1_29BpHwRadio27iccTransmitApduBasicChannelEiRKNS1_4V1_07SimApduE"
  },
  {
   "name":"_ZN7android8hardware5radio4V1_29BpHwRadio27requestIccSimAuthenticationEiiRKNS0_11hidl_stringES6_"
  },
  {
   "name":"_ZN7android8hardware5radio4V1_29BpHwRadio27setSuppServiceNotificationsEib"
  },
  {
   "name":"_ZN7android8hardware5radio4V1_29BpHwRadio28_hidl_deactivateDataCall_1_2EPNS0_10IInterfaceEPNS0_7details16HidlInstrumentorEiiNS2_17DataRequestReasonE"
  },
  {
   "name":"_ZN7android8hardware5radio4V1_29BpHwRadio29_hidl_setIndicationFilter_1_2EPNS0_10IInterfaceEPNS0_7details16HidlInstrumentorEii"
  },
  {
   "name":"_ZN7android8hardware5radio4V1_29BpHwRadio29acknowledgeLastIncomingGsmSmsEibNS1_4V1_023SmsAcknowledgeFailCauseE"
  },
  {
   "name":"_ZN7android8hardware5radio4V1_29BpHwRadio29iccTransmitApduLogicalChannelEiRKNS1_4V1_07SimApduE"
  },
  {
   "name":"_ZN7android8hardware5radio4V1_29BpHwRadio29setNetworkSelectionModeManualEiRKNS0_11hidl_stringE"
  },
  {
   "name":"_ZN7android8hardware5radio4V1_29BpHwRadio30acknowledgeLastIncomingCdmaSmsEiRKNS1_4V1_010CdmaSmsAckE"
  },
  {
   "name":"_ZN7android8hardware5radio4V1_29BpHwRadio30supplyNetworkDepersonalizationEiRKNS0_11hidl_stringE"
  },
  {
   "name":"_ZN7android8hardware5radio4V1_29BpHwRadio31setCarrierInfoForImsiEncryptionEiRKNS1_4V1_118ImsiEncryptionInfoE"
  },
  {
   "name":"_ZN7android8hardware5radio4V1_29BpHwRadio31switchWaitingOrHoldingAndActiveEi"
  },
  {
   "name":"_ZN7android8hardware5radio4V1_29BpHwRadio32acknowledgeIncomingGsmSmsWithPduEibRKNS0_11hidl_stringE"
  },
  {
   "name":"_ZN7android8hardware5radio4V1_29BpHwRadio32handleStkCallSetupRequestFromSimEib"
  },
  {
   "name":"_ZN7android8hardware5radio4V1_29BpHwRadio32hangupForegroundResumeBackgroundEi"
  },
  {
   "name":"_ZN7android8hardware5radio4V1_29BpHwRadio32setLinkCapacityReportingCriteriaEiiiiRKNS0_8hidl_vecIiEES7_NS2_13AccessNetworkE"
  },
  {
   "name":"_ZN7android8hardware5radio4V1_29BpHwRadio32setNetworkSelectionModeAutomaticEi"
  },
  {
   "name":"_ZN7android8hardware5radio4V1_29BpHwRadio34setSignalStrengthReportingCriteriaEiiiRKNS0_8hidl_vecIiEENS2_13AccessNetworkE"
  },
  {
   "name":"_ZN7android8hardware5radio4V1_29BpHwRadio38_hidl_setLinkCapacityReportingCriteriaEPNS0_10IInterfaceEPNS0_7details16HidlInstrumentorEiiiiRKNS0_8hidl_vecIiEESC_NS2_13AccessNetworkE"
  },
  {
   "name":"_ZN7android8hardware5radio4V1_29BpHwRadio40_hidl_setSignalStrengthReportingCriteriaEPNS0_10IInterfaceEPNS0_7details16HidlInstrumentorEiiiRKNS0_8hidl_vecIiEENS2_13AccessNetworkE"
  },
  {
   "name":"_ZN7android8hardware5radio4V1_29BpHwRadio4dialEiRKNS1_4V1_04DialE"
  },
  {
   "name":"_ZN7android8hardware5radio4V1_29BpHwRadio4pingEv"
  },
  {
   "name":"_ZN7android8hardware5radio4V1_29BpHwRadio5debugERKNS0_11hidl_handleERKNS0_8hidl_vecINS0_11hidl_stringEEE"
  },
  {
   "name":"_ZN7android8hardware5radio4V1_29BpHwRadio6hangupEii"
  },
  {
   "name":"_ZN7android8hardware5radio4V1_29BpHwRadio7getClipEi"
  },
  {
   "name":"_ZN7android8hardware5radio4V1_29BpHwRadio7getClirEi"
  },
  {
   "name":"_ZN7android8hardware5radio4V1_29BpHwRadio7getMuteEi"
  },
  {
   "name":"_ZN7android8hardware5radio4V1_29BpHwRadio7sendSmsEiRKNS1_4V1_013GsmSmsMessageE"
  },
  {
   "name":"_ZN7android8hardware5radio4V1_29BpHwRadio7setClirEii"
  },
  {
   "name":"_ZN7android8hardware5radio4V1_29BpHwRadio7setMuteEib"
  },
  {
   "name":"_ZN7android8hardware5radio4V1_29BpHwRadio8sendDtmfEiRKNS0_11hidl_stringE"
  },
  {
   "name":"_ZN7android8hardware5radio4V1_29BpHwRadio8sendUssdEiRKNS0_11hidl_stringE"
  },
  {
   "name":"_ZN7android8hardware5radio4V1_29BpHwRadio8stopDtmfEi"
  },
  {
   "name":"_ZN7android8hardware5radio4V1_29BpHwRadio9startDtmfEiRKNS0_11hidl_stringE"
  },
  {
   "name":"_ZN7android8hardware5radio4V1_29BpHwRadioC1ERKNS_2spINS0_7IBinderEEE"
  },
  {
   "name":"_ZN7android8hardware5radio4V1_29BpHwRadioC2ERKNS_2spINS0_7IBinderEEE"
  },
  {
   "binding":"weak",
   "name":"_ZN7android8hardware7details13castInterfaceINS0_5radio4V1_214IRadioResponseENS3_4V1_014IRadioResponseENS4_17BpHwRadioResponseEEENS0_6ReturnINS_2spIT_EEEENSA_IT0_EEPKcb"
  },
  {
   "binding":"weak",
   "name":"_ZN7android8hardware7details13castInterfaceINS0_5radio4V1_214IRadioResponseENS3_4V1_114IRadioResponseENS4_17BpHwRadioResponseEEENS0_6ReturnINS_2spIT_EEEENSA_IT0_EEPKcb"
  },
  {
   "binding":"weak",
   "name":"_ZN7android8hardware7details13castInterfaceINS0_5radio4V1_214IRadioResponseENS_4hidl4base4V1_05IBaseENS4_17BpHwRadioResponseEEENS0_6ReturnINS_2spIT_EEEENSC_IT0_EEPKcb"
  },
  {
   "binding":"weak",
   "name":"_ZN7android8hardware7details13castInterfaceINS0_5radio4V1_216IRadioIndicationENS3_4V1_016IRadioIndicationENS4_19BpHwRadioIndicationEEENS0_6ReturnINS_2spIT_EEEENSA_IT0_EEPKcb"
  },
  {
   "binding":"weak",
   "name":"_ZN7android8hardware7details13castInterfaceINS0_5radio4V1_216IRadioIndicationENS3_4V1_116IRadioIndicationENS4_19BpHwRadioIndicationEEENS0_6ReturnINS_2spIT_EEEENSA_IT0_EEPKcb"
  },
  {
   "binding":"weak",
   "name":"_ZN7android8hardware7details13castInterfaceINS0_5radio4V1_216IRadioIndicationENS_4hidl4base4V1_05IBaseENS4_19BpHwRadioIndicationEEENS0_6ReturnINS_2spIT_EEEENSC_IT0_EEPKcb"
  },
  {
   "binding":"weak",
   "name":"_ZN7android8hardware7details13castInterfaceINS0_5radio4V1_24ISapENS3_4V1_04ISapENS4_7BpHwSapEEENS0_6ReturnINS_2spIT_EEEENSA_IT0_EEPKcb"
  },
  {
   "binding":"weak",
   "name":"_ZN7android8hardware7details13castInterfaceINS0_5radio4V1_24ISapENS3_4V1_14ISapENS4_7BpHwSapEEENS0_6ReturnINS_2spIT_EEEENSA_IT0_EEPKcb"
  },
  {
   "binding":"weak",
   "name":"_ZN7android8hardware7details13castInterfaceINS0_5radio4V1_24ISapENS_4hidl4base4V1_05IBaseENS4_7BpHwSapEEENS0_6ReturnINS_2spIT_EEEENSC_IT0_EEPKcb"
  },
  {
   "binding":"weak",
   "name":"_ZN7android8hardware7details13castInterfaceINS0_5radio4V1_26IRadioENS3_4V1_06IRadioENS4_9BpHwRadioEEENS0_6ReturnINS_2spIT_EEEENSA_IT0_EEPKcb"
  },
  {
   "binding":"weak",
   "name":"_ZN7android8hardware7details13castInterfaceINS0_5radio4V1_26IRadioENS3_4V1_16IRadioENS4_9BpHwRadioEEENS0_6ReturnINS_2spIT_EEEENSA_IT0_EEPKcb"
  },
  {
   "binding":"weak",
   "name":"_ZN7android8hardware7details13castInterfaceINS0_5radio4V1_26IRadioENS_4hidl4base4V1_05IBaseENS4_9BpHwRadioEEENS0_6ReturnINS_2spIT_EEEENSC_IT0_EEPKcb"
  },
  {
   "binding":"weak",
   "name":"_ZN7android8hardware7details15wrapPassthroughINS0_5radio4V1_012ISapCallbackEvEENS_2spIT_EES8_"
  },
  {
   "binding":"weak",
   "name":"_ZN7android8hardware7details15wrapPassthroughINS0_5radio4V1_014IRadioResponseEvEENS_2spIT_EES8_"
  },
  {
   "binding":"weak",
   "name":"_ZN7android8hardware7details15wrapPassthroughINS0_5radio4V1_016IRadioIndicationEvEENS_2spIT_EES8_"
  },
  {
   "binding":"weak",
   "name":"_ZN7android8hardware7details18getServiceInternalINS0_5radio4V1_217BpHwRadioResponseENS4_14IRadioResponseEvvEENS_2spIT0_EERKNSt3__112basic_stringIcNSA_11char_traitsIcEENSA_9allocatorIcEEEEbb"
  },
  {
   "binding":"weak",
   "name":"_ZN7android8hardware7details18getServiceInternalINS0_5radio4V1_219BpHwRadioIndicationENS4_16IRadioIndicationEvvEENS_2spIT0_EERKNSt3__112basic_stringIcNSA_11char_traitsIcEENSA_9allocatorIcEEEEbb"
  },
  {
   "binding":"weak",
   "name":"_ZN7android8hardware7details18getServiceInternalINS0_5radio4V1_27BpHwSapENS4_4ISapEvvEENS_2spIT0_EERKNSt3__112basic_stringIcNSA_11char_traitsIcEENSA_9allocatorIcEEEEbb"
  },
  {
   "binding":"weak",
   "name":"_ZN7android8hardware7details18getServiceInternalINS0_5radio4V1_29BpHwRadioENS4_6IRadioEvvEENS_2spIT0_EERKNSt3__112basic_stringIcNSA_11char_traitsIcEENSA_9allocatorIcEEEEbb"
  },
  {
   "binding":"weak",
   "name":"_ZN7android8hardware8toBinderINS0_5radio4V1_014IRadioResponseEvEENS_2spINS0_7IBinderEEENS5_IT_EE"
  },
  {
   "binding":"weak",
   "name":"_ZN7android8hardware8toBinderINS0_5radio4V1_016IRadioIndicationEvEENS_2spINS0_7IBinderEEENS5_IT_EE"
  },
  {
   "binding":"weak",
   "name":"_ZN7android8hardware8toBinderINS0_5radio4V1_04ISapEvEENS_2spINS0_7IBinderEEENS5_IT_EE"
  },
  {
   "binding":"weak",
   "name":"_ZN7android8hardware8toBinderINS0_5radio4V1_06IRadioEvEENS_2spINS0_7IBinderEEENS5_IT_EE"
  },
  {
   "binding":"weak",
   "name":"_ZN7android8hardware8toBinderINS0_5radio4V1_114IRadioResponseEvEENS_2spINS0_7IBinderEEENS5_IT_EE"
  },
  {
   "binding":"weak",
   "name":"_ZN7android8hardware8toBinderINS0_5radio4V1_116IRadioIndicationEvEENS_2spINS0_7IBinderEEENS5_IT_EE"
  },
  {
   "binding":"weak",
   "name":"_ZN7android8hardware8toBinderINS0_5radio4V1_14ISapEvEENS_2spINS0_7IBinderEEENS5_IT_EE"
  },
  {
   "binding":"weak",
   "name":"_ZN7android8hardware8toBinderINS0_5radio4V1_16IRadioEvEENS_2spINS0_7IBinderEEENS5_IT_EE"
  },
  {
   "binding":"weak",
   "name":"_ZN7android8hardware8toBinderINS_4hidl4base4V1_05IBaseEvEENS_2spINS0_7IBinderEEENS6_IT_EE"
  },
  {
   "name":"_ZThn32_N7android8hardware5radio4V1_217BnHwRadioResponseD0Ev"
  },
  {
   "name":"_ZThn32_N7android8hardware5radio4V1_217BnHwRadioResponseD1Ev"
  },
  {
   "name":"_ZThn32_N7android8hardware5radio4V1_219BnHwRadioIndicationD0Ev"
  },
  {
   "name":"_ZThn32_N7android8hardware5radio4V1_219BnHwRadioIndicationD1Ev"
  },
  {
   "name":"_ZThn32_N7android8hardware5radio4V1_27BnHwSapD0Ev"
  },
  {
   "name":"_ZThn32_N7android8hardware5radio4V1_27BnHwSapD1Ev"
  },
  {
   "name":"_ZThn32_N7android8hardware5radio4V1_29BnHwRadioD0Ev"
  },
  {
   "name":"_ZThn32_N7android8hardware5radio4V1_29BnHwRadioD1Ev"
  },
  {
   "name":"_ZTv0_n24_N7android8hardware5radio4V1_217BnHwRadioResponseD0Ev"
  },
  {
   "name":"_ZTv0_n24_N7android8hardware5radio4V1_217BnHwRadioResponseD1Ev"
  },
  {
   "name":"_ZTv0_n24_N7android8hardware5radio4V1_219BnHwRadioIndicationD0Ev"
  },
  {
   "name":"_ZTv0_n24_N7android8hardware5radio4V1_219BnHwRadioIndicationD1Ev"
  },
  {
   "name":"_ZTv0_n24_N7android8hardware5radio4V1_27BnHwSapD0Ev"
  },
  {
   "name":"_ZTv0_n24_N7android8hardware5radio4V1_27BnHwSapD1Ev"
  },
  {
   "name":"_ZTv0_n24_N7android8hardware5radio4V1_29BnHwRadioD0Ev"
  },
  {
   "name":"_ZTv0_n24_N7android8hardware5radio4V1_29BnHwRadioD1Ev"
  }
 ],
 "elf_objects":[
  {
   "name":"_ZN7android8hardware5radio4V1_214IRadioResponse10descriptorE"
  },
  {
   "name":"_ZN7android8hardware5radio4V1_216IRadioIndication10descriptorE"
  },
  {
   "name":"_ZN7android8hardware5radio4V1_24ISap10descriptorE"
  },
  {
   "name":"_ZN7android8hardware5radio4V1_26IRadio10descriptorE"
  },
  {
   "name":"_ZTTN7android8hardware5radio4V1_214IRadioResponseE"
  },
  {
   "name":"_ZTTN7android8hardware5radio4V1_216IRadioIndicationE"
  },
  {
   "name":"_ZTTN7android8hardware5radio4V1_217BnHwRadioResponseE"
  },
  {
   "name":"_ZTTN7android8hardware5radio4V1_217BpHwRadioResponseE"
  },
  {
   "name":"_ZTTN7android8hardware5radio4V1_219BnHwRadioIndicationE"
  },
  {
   "name":"_ZTTN7android8hardware5radio4V1_219BpHwRadioIndicationE"
  },
  {
   "name":"_ZTTN7android8hardware5radio4V1_24ISapE"
  },
  {
   "name":"_ZTTN7android8hardware5radio4V1_26IRadioE"
  },
  {
   "name":"_ZTTN7android8hardware5radio4V1_27BnHwSapE"
  },
  {
   "name":"_ZTTN7android8hardware5radio4V1_27BpHwSapE"
  },
  {
   "name":"_ZTTN7android8hardware5radio4V1_29BnHwRadioE"
  },
  {
   "name":"_ZTTN7android8hardware5radio4V1_29BpHwRadioE"
  },
  {
   "name":"_ZTVN7android8hardware5radio4V1_214IRadioResponseE"
  },
  {
   "binding":"weak",
   "name":"_ZTVN7android8hardware5radio4V1_215BsRadioResponseE"
  },
  {
   "name":"_ZTVN7android8hardware5radio4V1_216IRadioIndicationE"
  },
  {
   "name":"_ZTVN7android8hardware5radio4V1_217BnHwRadioResponseE"
  },
  {
   "name":"_ZTVN7android8hardware5radio4V1_217BpHwRadioResponseE"
  },
  {
   "binding":"weak",
   "name":"_ZTVN7android8hardware5radio4V1_217BsRadioIndicationE"
  },
  {
   "name":"_ZTVN7android8hardware5radio4V1_219BnHwRadioIndicationE"
  },
  {
   "name":"_ZTVN7android8hardware5radio4V1_219BpHwRadioIndicationE"
  },
  {
   "name":"_ZTVN7android8hardware5radio4V1_24ISapE"
  },
  {
   "binding":"weak",
   "name":"_ZTVN7android8hardware5radio4V1_25BsSapE"
  },
  {
   "name":"_ZTVN7android8hardware5radio4V1_26IRadioE"
  },
  {
   "name":"_ZTVN7android8hardware5radio4V1_27BnHwSapE"
  },
  {
   "name":"_ZTVN7android8hardware5radio4V1_27BpHwSapE"
  },
  {
   "binding":"weak",
   "name":"_ZTVN7android8hardware5radio4V1_27BsRadioE"
  },
  {
   "name":"_ZTVN7android8hardware5radio4V1_29BnHwRadioE"
  },
  {
   "name":"_ZTVN7android8hardware5radio4V1_29BpHwRadioE"
  }
 ]
}