{
 "record_types":[
  {
   "vtable_components":[
    {
     "kind":"vbase_offset",
     "component_value":136
    },
    {
     "kind":"offset_to_top"
    },
    {
     "kind":"rtti",
     "mangled_component_name":"_ZTIN7android6system3net4netd4V1_18BnHwNetdE"
    },
    {
     "mangled_component_name":"_ZN7android8hardware9BHwBinder8transactEjRKNS0_6ParcelEPS2_jNSt3__18functionIFvRS2_EEE"
    },
    {
     "mangled_component_name":"_ZN7android8hardware9BHwBinder11linkToDeathERKNS_2spINS0_7IBinder14DeathRecipientEEEPvj"
    },
    {
     "mangled_component_name":"_ZN7android8hardware9BHwBinder13unlinkToDeathERKNS_2wpINS0_7IBinder14DeathRecipientEEEPvjPS5_"
    },
    {
     "mangled_component_name":"_ZNK7android8hardware7IBinder13checkSubclassEPKv"
    },
    {
     "mangled_component_name":"_ZN7android8hardware9BHwBinder12attachObjectEPKvPvS4_PFvS3_S4_S4_E"
    },
    {
     "mangled_component_name":"_ZNK7android8hardware9BHwBinder10findObjectEPKv"
    },
    {
     "mangled_component_name":"_ZN7android8hardware9BHwBinder12detachObjectEPKv"
    },
    {
     "mangled_component_name":"_ZN7android8hardware9BHwBinder11localBinderEv"
    },
    {
     "mangled_component_name":"_ZN7android8hardware7IBinder12remoteBinderEv"
    },
    {
     "kind":"complete_dtor_pointer",
     "mangled_component_name":"_ZN7android6system3net4netd4V1_18BnHwNetdD1Ev"
    },
    {
     "kind":"deleting_dtor_pointer",
     "mangled_component_name":"_ZN7android6system3net4netd4V1_18BnHwNetdD0Ev"
    },
    {
     "mangled_component_name":"_ZN7android6system3net4netd4V1_18BnHwNetd10onTransactEjRKNS_8hardware6ParcelEPS6_jNSt3__18functionIFvRS6_EEE"
    },
    {
     "kind":"offset_to_top",
     "component_value":-32
    },
    {
     "kind":"rtti",
     "mangled_component_name":"_ZTIN7android6system3net4netd4V1_18BnHwNetdE"
    },
    {
     "kind":"complete_dtor_pointer",
     "mangled_component_name":"_ZThn32_N7android6system3net4netd4V1_18BnHwNetdD1Ev"
    },
    {
     "kind":"deleting_dtor_pointer",
     "mangled_component_name":"_ZThn32_N7android6system3net4netd4V1_18BnHwNetdD0Ev"
    },
    {
     "kind":"vcall_offset"
    },
    {
     "kind":"vcall_offset"
    },
    {
     "kind":"vcall_offset"
    },
    {
     "kind":"vcall_offset"
    },
    {
     "kind":"vcall_offset",
     "component_value":-136
    },
    {
     "kind":"offset_to_top",
     "component_value":-136
    },
    {
     "kind":"rtti",
     "mangled_component_name":"_ZTIN7android6system3net4netd4V1_18BnHwNetdE"
    },
    {
     "kind":"complete_dtor_pointer",
     "mangled_component_name":"_ZTv0_n24_N7android6system3net4netd4V1_18BnHwNetdD1Ev"
    },
    {
     "kind":"deleting_dtor_pointer",
     "mangled_component_name":"_ZTv0_n24_N7android6system3net4netd4V1_18BnHwNetdD0Ev"
    },
    {
     "mangled_component_name":"_ZN7android7RefBase10onFirstRefEv"
    },
    {
     "mangled_component_name":"_ZN7android7RefBase15onLastStrongRefEPKv"
    },
    {
     "mangled_component_name":"_ZN7android7RefBase20onIncStrongAttemptedEjPKv"
    },
    {
     "mangled_component_name":"_ZN7android7RefBase13onLastWeakRefEPKv"
    }
   ],
   "unique_id":"_ZTSN7android6system3net4netd4V1_18BnHwNetdE"
  },
  {
   "vtable_components":[
    {
     "kind":"vbase_offset",
     "component_value":120
    },
    {
     "kind":"offset_to_top"
    },
    {
     "kind":"rtti",
     "mangled_component_name":"_ZTIN7android6system3net4netd4V1_16BsNetdE"
    },
    {
     "mangled_component_name":"_ZNK7android6system3net4netd4V1_15INetd8isRemoteEv"
    },
    {
     "mangled_component_name":"_ZN7android6system3net4netd4V1_16BsNetd14interfaceChainENSt3__18functionIFvRKNS_8hardware8hidl_vecINS7_11hidl_stringEEEEEE"
    },
    {
     "mangled_component_name":"_ZN7android6system3net4netd4V1_16BsNetd5debugERKNS_8hardware11hidl_handleERKNS5_8hidl_vecINS5_11hidl_stringEEE"
    },
    {
     "mangled_component_name":"_ZN7android6system3net4netd4V1_16BsNetd19interfaceDescriptorENSt3__18functionIFvRKNS_8hardware11hidl_stringEEEE"
    },
    {
     "mangled_component_name":"_ZN7android6system3net4netd4V1_16BsNetd12getHashChainENSt3__18functionIFvRKNS_8hardware8hidl_vecINS7_10hidl_arrayIhLm32EJEEEEEEEE"
    },
    {
     "mangled_component_name":"_ZN7android6system3net4netd4V1_16BsNetd21setHALInstrumentationEv"
    },
    {
     "mangled_component_name":"_ZN7android6system3net4netd4V1_16BsNetd11linkToDeathERKNS_2spINS_8hardware20hidl_death_recipientEEEm"
    },
    {
     "mangled_component_name":"_ZN7android6system3net4netd4V1_16BsNetd4pingEv"
    },
    {
     "mangled_component_name":"_ZN7android6system3net4netd4V1_16BsNetd12getDebugInfoENSt3__18functionIFvRKNS_4hidl4base4V1_09DebugInfoEEEE"
    },
    {
     "mangled_component_name":"_ZN7android6system3net4netd4V1_16BsNetd21notifySyspropsChangedEv"
    },
    {
     "mangled_component_name":"_ZN7android6system3net4netd4V1_16BsNetd13unlinkToDeathERKNS_2spINS_8hardware20hidl_death_recipientEEE"
    },
    {
     "kind":"complete_dtor_pointer",
     "mangled_component_name":"_ZN7android6system3net4netd4V1_16BsNetdD1Ev"
    },
    {
     "kind":"deleting_dtor_pointer",
     "mangled_component_name":"_ZN7android6system3net4netd4V1_16BsNetdD0Ev"
    },
    {
     "mangled_component_name":"_ZN7android6system3net4netd4V1_16BsNetd16createOemNetworkENSt3__18functionIFvmjNS2_4V1_05INetd10StatusCodeEEEE"
    },
    {
     "mangled_component_name":"_ZN7android6system3net4netd4V1_16BsNetd17destroyOemNetworkEm"
    },
    {
     "mangled_component_name":"_ZN7android6system3net4netd4V1_16BsNetd20addRouteToOemNetworkEmRKNS_8hardware11hidl_stringES8_S8_"
    },
    {
     "mangled_component_name":"_ZN7android6system3net4netd4V1_16BsNetd25removeRouteFromOemNetworkEmRKNS_8hardware11hidl_stringES8_S8_"
    },
    {
     "mangled_component_name":"_ZN7android6system3net4netd4V1_16BsNetd24addInterfaceToOemNetworkEmRKNS_8hardware11hidl_stringE"
    },
    {
     "mangled_component_name":"_ZN7android6system3net4netd4V1_16BsNetd29removeInterfaceFromOemNetworkEmRKNS_8hardware11hidl_stringE"
    },
    {
     "mangled_component_name":"_ZN7android6system3net4netd4V1_16BsNetd18setIpForwardEnableEb"
    },
    {
     "mangled_component_name":"_ZN7android6system3net4netd4V1_16BsNetd30setForwardingBetweenInterfacesERKNS_8hardware11hidl_stringES8_b"
    },
    {
     "kind":"offset_to_top",
     "component_value":-8
    },
    {
     "kind":"rtti",
     "mangled_component_name":"_ZTIN7android6system3net4netd4V1_16BsNetdE"
    },
    {
     "kind":"complete_dtor_pointer",
     "mangled_component_name":"_ZThn8_N7android6system3net4netd4V1_16BsNetdD1Ev"
    },
    {
     "kind":"deleting_dtor_pointer",
     "mangled_component_name":"_ZThn8_N7android6system3net4netd4V1_16BsNetdD0Ev"
    },
    {
     "kind":"vcall_offset"
    },
    {
     "kind":"vcall_offset"
    },
    {
     "kind":"vcall_offset"
    },
    {
     "kind":"vcall_offset"
    },
    {
     "kind":"vcall_offset",
     "component_value":-120
    },
    {
     "kind":"offset_to_top",
     "component_value":-120
    },
    {
     "kind":"rtti",
     "mangled_component_name":"_ZTIN7android6system3net4netd4V1_16BsNetdE"
    },
    {
     "kind":"complete_dtor_pointer",
     "mangled_component_name":"_ZTv0_n24_N7android6system3net4netd4V1_16BsNetdD1Ev"
    },
    {
     "kind":"deleting_dtor_pointer",
     "mangled_component_name":"_ZTv0_n24_N7android6system3net4netd4V1_16BsNetdD0Ev"
    },
    {
     "mangled_component_name":"_ZN7android7RefBase10onFirstRefEv"
    },
    {
     "mangled_component_name":"_ZN7android7RefBase15onLastStrongRefEPKv"
    },
    {
     "mangled_component_name":"_ZN7android7RefBase20onIncStrongAttemptedEjPKv"
    },
    {
     "mangled_component_name":"_ZN7android7RefBase13onLastWeakRefEPKv"
    }
   ],
   "unique_id":"_ZTSN7android6system3net4netd4V1_16BsNetdE"
  },
  {
   "vtable_components":[
    {
     "kind":"vbase_offset",
     "component_value":200
    },
    {
     "kind":"offset_to_top"
    },
    {
     "kind":"rtti",
     "mangled_component_name":"_ZTIN7android6system3net4netd4V1_18BpHwNetdE"
    },
    {
     "mangled_component_name":"_ZNK7android6system3net4netd4V1_18BpHwNetd8isRemoteEv"
    },
    {
     "mangled_component_name":"_ZN7android6system3net4netd4V1_18BpHwNetd14interfaceChainENSt3__18functionIFvRKNS_8hardware8hidl_vecINS7_11hidl_stringEEEEEE"
    },
    {
     "mangled_component_name":"_ZN7android6system3net4netd4V1_18BpHwNetd5debugERKNS_8hardware11hidl_handleERKNS5_8hidl_vecINS5_11hidl_stringEEE"
    },
    {
     "mangled_component_name":"_ZN7android6system3net4netd4V1_18BpHwNetd19interfaceDescriptorENSt3__18functionIFvRKNS_8hardware11hidl_stringEEEE"
    },
    {
     "mangled_component_name":"_ZN7android6system3net4netd4V1_18BpHwNetd12getHashChainENSt3__18functionIFvRKNS_8hardware8hidl_vecINS7_10hidl_arrayIhLm32EJEEEEEEEE"
    },
    {
     "mangled_component_name":"_ZN7android6system3net4netd4V1_18BpHwNetd21setHALInstrumentationEv"
    },
    {
     "mangled_component_name":"_ZN7android6system3net4netd4V1_18BpHwNetd11linkToDeathERKNS_2spINS_8hardware20hidl_death_recipientEEEm"
    },
    {
     "mangled_component_name":"_ZN7android6system3net4netd4V1_18BpHwNetd4pingEv"
    },
    {
     "mangled_component_name":"_ZN7android6system3net4netd4V1_18BpHwNetd12getDebugInfoENSt3__18functionIFvRKNS_4hidl4base4V1_09DebugInfoEEEE"
    },
    {
     "mangled_component_name":"_ZN7android6system3net4netd4V1_18BpHwNetd21notifySyspropsChangedEv"
    },
    {
     "mangled_component_name":"_ZN7android6system3net4netd4V1_18BpHwNetd13unlinkToDeathERKNS_2spINS_8hardware20hidl_death_recipientEEE"
    },
    {
     "kind":"complete_dtor_pointer",
     "mangled_component_name":"_ZN7android6system3net4netd4V1_18BpHwNetdD1Ev"
    },
    {
     "kind":"deleting_dtor_pointer",
     "mangled_component_name":"_ZN7android6system3net4netd4V1_18BpHwNetdD0Ev"
    },
    {
     "mangled_component_name":"_ZN7android6system3net4netd4V1_18BpHwNetd16createOemNetworkENSt3__18functionIFvmjNS2_4V1_05INetd10StatusCodeEEEE"
    },
    {
     "mangled_component_name":"_ZN7android6system3net4netd4V1_18BpHwNetd17destroyOemNetworkEm"
    },
    {
     "mangled_component_name":"_ZN7android6system3net4netd4V1_18BpHwNetd20addRouteToOemNetworkEmRKNS_8hardware11hidl_stringES8_S8_"
    },
    {
     "mangled_component_name":"_ZN7android6system3net4netd4V1_18BpHwNetd25removeRouteFromOemNetworkEmRKNS_8hardware11hidl_stringES8_S8_"
    },
    {
     "mangled_component_name":"_ZN7android6system3net4netd4V1_18BpHwNetd24addInterfaceToOemNetworkEmRKNS_8hardware11hidl_stringE"
    },
    {
     "mangled_component_name":"_ZN7android6system3net4netd4V1_18BpHwNetd29removeInterfaceFromOemNetworkEmRKNS_8hardware11hidl_stringE"
    },
    {
     "mangled_component_name":"_ZN7android6system3net4netd4V1_18BpHwNetd18setIpForwardEnableEb"
    },
    {
     "mangled_component_name":"_ZN7android6system3net4netd4V1_18BpHwNetd30setForwardingBetweenInterfacesERKNS_8hardware11hidl_stringES8_b"
    },
    {
     "mangled_component_name":"_ZN7android8hardware11BpInterfaceINS_6system3net4netd4V1_15INetdEE10onAsBinderEv"
    },
    {
     "kind":"vbase_offset",
     "component_value":192
    },
    {
     "kind":"offset_to_top",
     "component_value":-8
    },
    {
     "kind":"rtti",
     "mangled_component_name":"_ZTIN7android6system3net4netd4V1_18BpHwNetdE"
    },
    {
     "kind":"complete_dtor_pointer",
     "mangled_component_name":"_ZThn8_N7android6system3net4netd4V1_18BpHwNetdD1Ev"
    },
    {
     "kind":"deleting_dtor_pointer",
     "mangled_component_name":"_ZThn8_N7android6system3net4netd4V1_18BpHwNetdD0Ev"
    },
    {
     "mangled_component_name":"_ZThn8_N7android8hardware11BpInterfaceINS_6system3net4netd4V1_15INetdEE10onAsBinderEv"
    },
    {
     "kind":"vbase_offset",
     "component_value":184
    },
    {
     "kind":"offset_to_top",
     "component_value":-16
    },
    {
     "kind":"rtti",
     "mangled_component_name":"_ZTIN7android6system3net4netd4V1_18BpHwNetdE"
    },
    {
     "kind":"complete_dtor_pointer",
     "mangled_component_name":"_ZThn16_N7android6system3net4netd4V1_18BpHwNetdD1Ev"
    },
    {
     "kind":"deleting_dtor_pointer",
     "mangled_component_name":"_ZThn16_N7android6system3net4netd4V1_18BpHwNetdD0Ev"
    },
    {
     "mangled_component_name":"_ZN7android8hardware11BpHwRefBase10onFirstRefEv"
    },
    {
     "mangled_component_name":"_ZN7android8hardware11BpHwRefBase15onLastStrongRefEPKv"
    },
    {
     "mangled_component_name":"_ZN7android8hardware11BpHwRefBase20onIncStrongAttemptedEjPKv"
    },
    {
     "kind":"offset_to_top",
     "component_value":-48
    },
    {
     "kind":"rtti",
     "mangled_component_name":"_ZTIN7android6system3net4netd4V1_18BpHwNetdE"
    },
    {
     "kind":"complete_dtor_pointer",
     "mangled_component_name":"_ZThn48_N7android6system3net4netd4V1_18BpHwNetdD1Ev"
    },
    {
     "kind":"deleting_dtor_pointer",
     "mangled_component_name":"_ZThn48_N7android6system3net4netd4V1_18BpHwNetdD0Ev"
    },
    {
     "kind":"vcall_offset"
    },
    {
     "kind":"vcall_offset",
     "component_value":-184
    },
    {
     "kind":"vcall_offset",
     "component_value":-184
    },
    {
     "kind":"vcall_offset",
     "component_value":-184
    },
    {
     "kind":"vcall_offset",
     "component_value":-200
    },
    {
     "kind":"offset_to_top",
     "component_value":-200
    },
    {
     "kind":"rtti",
     "mangled_component_name":"_ZTIN7android6system3net4netd4V1_18BpHwNetdE"
    },
    {
     "kind":"complete_dtor_pointer",
     "mangled_component_name":"_ZTv0_n24_N7android6system3net4netd4V1_18BpHwNetdD1Ev"
    },
    {
     "kind":"deleting_dtor_pointer",
     "mangled_component_name":"_ZTv0_n24_N7android6system3net4netd4V1_18BpHwNetdD0Ev"
    },
    {
     "mangled_component_name":"_ZTv0_n32_N7android8hardware11BpHwRefBase10onFirstRefEv"
    },
    {
     "mangled_component_name":"_ZTv0_n40_N7android8hardware11BpHwRefBase15onLastStrongRefEPKv"
    },
    {
     "mangled_component_name":"_ZTv0_n48_N7android8hardware11BpHwRefBase20onIncStrongAttemptedEjPKv"
    },
    {
     "mangled_component_name":"_ZN7android7RefBase13onLastWeakRefEPKv"
    }
   ],
   "unique_id":"_ZTSN7android6system3net4netd4V1_18BpHwNetdE"
  },
  {
   "vtable_components":[
    {
     "kind":"vbase_offset",
     "component_value":8
    },
    {
     "kind":"offset_to_top"
    },
    {
     "kind":"rtti",
     "mangled_component_name":"_ZTIN7android6system3net4netd4V1_15INetdE"
    },
    {
     "mangled_component_name":"_ZNK7android6system3net4netd4V1_15INetd8isRemoteEv"
    },
    {
     "mangled_component_name":"_ZN7android6system3net4netd4V1_15INetd14interfaceChainENSt3__18functionIFvRKNS_8hardware8hidl_vecINS7_11hidl_stringEEEEEE"
    },
    {
     "mangled_component_name":"_ZN7android6system3net4netd4V1_15INetd5debugERKNS_8hardware11hidl_handleERKNS5_8hidl_vecINS5_11hidl_stringEEE"
    },
    {
     "mangled_component_name":"_ZN7android6system3net4netd4V1_15INetd19interfaceDescriptorENSt3__18functionIFvRKNS_8hardware11hidl_stringEEEE"
    },
    {
     "mangled_component_name":"_ZN7android6system3net4netd4V1_15INetd12getHashChainENSt3__18functionIFvRKNS_8hardware8hidl_vecINS7_10hidl_arrayIhLm32EJEEEEEEEE"
    },
    {
     "mangled_component_name":"_ZN7android6system3net4netd4V1_15INetd21setHALInstrumentationEv"
    },
    {
     "mangled_component_name":"_ZN7android6system3net4netd4V1_15INetd11linkToDeathERKNS_2spINS_8hardware20hidl_death_recipientEEEm"
    },
    {
     "mangled_component_name":"_ZN7android6system3net4netd4V1_15INetd4pingEv"
    },
    {
     "mangled_component_name":"_ZN7android6system3net4netd4V1_15INetd12getDebugInfoENSt3__18functionIFvRKNS_4hidl4base4V1_09DebugInfoEEEE"
    },
    {
     "mangled_component_name":"_ZN7android6system3net4netd4V1_15INetd21notifySyspropsChangedEv"
    },
    {
     "mangled_component_name":"_ZN7android6system3net4netd4V1_15INetd13unlinkToDeathERKNS_2spINS_8hardware20hidl_death_recipientEEE"
    },
    {
     "kind":"complete_dtor_pointer",
     "mangled_component_name":"_ZN7android6system3net4netd4V1_15INetdD1Ev"
    },
    {
     "kind":"deleting_dtor_pointer",
     "mangled_component_name":"_ZN7android6system3net4netd4V1_15INetdD0Ev"
    },
    {
     "is_pure":true,
     "mangled_component_name":"_ZN7android6system3net4netd4V1_15INetd16createOemNetworkENSt3__18functionIFvmjNS2_4V1_05INetd10StatusCodeEEEE"
    },
    {
     "is_pure":true,
     "mangled_component_name":"_ZN7android6system3net4netd4V1_15INetd17destroyOemNetworkEm"
    },
    {
     "is_pure":true,
     "mangled_component_name":"_ZN7android6system3net4netd4V1_15INetd20addRouteToOemNetworkEmRKNS_8hardware11hidl_stringES8_S8_"
    },
    {
     "is_pure":true,
     "mangled_component_name":"_ZN7android6system3net4netd4V1_15INetd25removeRouteFromOemNetworkEmRKNS_8hardware11hidl_stringES8_S8_"
    },
    {
     "is_pure":true,
     "mangled_component_name":"_ZN7android6system3net4netd4V1_15INetd24addInterfaceToOemNetworkEmRKNS_8hardware11hidl_stringE"
    },
    {
     "is_pure":true,
     "mangled_component_name":"_ZN7android6system3net4netd4V1_15INetd29removeInterfaceFromOemNetworkEmRKNS_8hardware11hidl_stringE"
    },
    {
     "is_pure":true,
     "mangled_component_name":"_ZN7android6system3net4netd4V1_15INetd18setIpForwardEnableEb"
    },
    {
     "is_pure":true,
     "mangled_component_name":"_ZN7android6system3net4netd4V1_15INetd30setForwardingBetweenInterfacesERKNS_8hardware11hidl_stringES8_b"
    },
    {
     "kind":"vcall_offset"
    },
    {
     "kind":"vcall_offset"
    },
    {
     "kind":"vcall_offset"
    },
    {
     "kind":"vcall_offset"
    },
    {
     "kind":"vcall_offset",
     "component_value":-8
    },
    {
     "kind":"offset_to_top",
     "component_value":-8
    },
    {
     "kind":"rtti",
     "mangled_component_name":"_ZTIN7android6system3net4netd4V1_15INetdE"
    },
    {
     "kind":"complete_dtor_pointer",
     "mangled_component_name":"_ZTv0_n24_N7android6system3net4netd4V1_15INetdD1Ev"
    },
    {
     "kind":"deleting_dtor_pointer",
     "mangled_component_name":"_ZTv0_n24_N7android6system3net4netd4V1_15INetdD0Ev"
    },
    {
     "mangled_component_name":"_ZN7android7RefBase10onFirstRefEv"
    },
    {
     "mangled_component_name":"_ZN7android7RefBase15onLastStrongRefEPKv"
    },
    {
     "mangled_component_name":"_ZN7android7RefBase20onIncStrongAttemptedEjPKv"
    },
    {
     "mangled_component_name":"_ZN7android7RefBase13onLastWeakRefEPKv"
    }
   ],
   "unique_id":"_ZTSN7android6system3net4netd4V1_15INetdE"
  }
 ],
 "elf_functions":[
  {
   "name":"_ZN7android6system3net4netd4V1_15INetd10getServiceERKNSt3__112basic_stringIcNS5_11char_traitsIcEENS5_9allocatorIcEEEEb"
  },
  {
   "name":"_ZN7android6system3net4netd4V1_15INetd11linkToDeathERKNS_2spINS_8hardware20hidl_death_recipientEEEm"
  },
  {
   "name":"_ZN7android6system3net4netd4V1_15INetd12getDebugInfoENSt3__18functionIFvRKNS_4hidl4base4V1_09DebugInfoEEEE"
  },
  {
   "name":"_ZN7android6system3net4netd4V1_15INetd12getHashChainENSt3__18functionIFvRKNS_8hardware8hidl_vecINS7_10hidl_arrayIhLm32EJEEEEEEEE"
  },
  {
   "name":"_ZN7android6system3net4netd4V1_15INetd13tryGetServiceERKNSt3__112basic_stringIcNS5_11char_traitsIcEENS5_9allocatorIcEEEEb"
  },
  {
   "name":"_ZN7android6system3net4netd4V1_15INetd13unlinkToDeathERKNS_2spINS_8hardware20hidl_death_recipientEEE"
  },
  {
   "name":"_ZN7android6system3net4netd4V1_15INetd14interfaceChainENSt3__18functionIFvRKNS_8hardware8hidl_vecINS7_11hidl_stringEEEEEE"
  },
  {
   "name":"_ZN7android6system3net4netd4V1_15INetd17registerAsServiceERKNSt3__112basic_stringIcNS5_11char_traitsIcEENS5_9allocatorIcEEEE"
  },
  {
   "name":"_ZN7android6system3net4netd4V1_15INetd19interfaceDescriptorENSt3__18functionIFvRKNS_8hardware11hidl_stringEEEE"
  },
  {
   "name":"_ZN7android6system3net4netd4V1_15INetd21notifySyspropsChangedEv"
  },
  {
   "name":"_ZN7android6system3net4netd4V1_15INetd21setHALInstrumentationEv"
  },
  {
   "name":"_ZN7android6system3net4netd4V1_15INetd24registerForNotificationsERKNSt3__112basic_stringIcNS5_11char_traitsIcEENS5_9allocatorIcEEEERKNS_2spINS_4hidl7manager4V1_020IServiceNotificationEEE"
  },
  {
   "name":"_ZN7android6system3net4netd4V1_15INetd4pingEv"
  },
  {
   "name":"_ZN7android6system3net4netd4V1_15INetd5debugERKNS_8hardware11hidl_handleERKNS5_8hidl_vecINS5_11hidl_stringEEE"
  },
  {
   "name":"_ZN7android6system3net4netd4V1_15INetd8castFromERKNS_2spINS2_4V1_05INetdEEEb"
  },
  {
   "name":"_ZN7android6system3net4netd4V1_15INetd8castFromERKNS_2spINS_4hidl4base4V1_05IBaseEEEb"
  },
  {
   "name":"_ZN7android6system3net4netd4V1_15INetd8castFromERKNS_2spIS4_EEb"
  },
  {
   "name":"_ZN7android6system3net4netd4V1_16BsNetd13addOnewayTaskENSt3__18functionIFvvEEE"
  },
  {
   "name":"_ZN7android6system3net4netd4V1_16BsNetdC1ENS_2spINS3_5INetdEEE"
  },
  {
   "name":"_ZN7android6system3net4netd4V1_16BsNetdC2ENS_2spINS3_5INetdEEE"
  },
  {
   "name":"_ZN7android6system3net4netd4V1_18BnHwNetd10onTransactEjRKNS_8hardware6ParcelEPS6_jNSt3__18functionIFvRS6_EEE"
  },
  {
   "name":"_ZN7android6system3net4netd4V1_18BnHwNetd12getDebugInfoENSt3__18functionIFvRKNS_4hidl4base4V1_09DebugInfoEEEE"
  },
  {
   "name":"_ZN7android6system3net4netd4V1_18BnHwNetd24_hidl_setIpForwardEnableEPNS_4hidl4base4V1_08BnHwBaseERKNS_8hardware6ParcelEPSB_NSt3__18functionIFvRSB_EEE"
  },
  {
   "name":"_ZN7android6system3net4netd4V1_18BnHwNetd26_hidl_addRouteToOemNetworkEPNS_4hidl4base4V1_08BnHwBaseERKNS_8hardware6ParcelEPSB_NSt3__18functionIFvRSB_EEE"
  },
  {
   "name":"_ZN7android6system3net4netd4V1_18BnHwNetd30_hidl_addInterfaceToOemNetworkEPNS_4hidl4base4V1_08BnHwBaseERKNS_8hardware6ParcelEPSB_NSt3__18functionIFvRSB_EEE"
  },
  {
   "name":"_ZN7android6system3net4netd4V1_18BnHwNetd31_hidl_removeRouteFromOemNetworkEPNS_4hidl4base4V1_08BnHwBaseERKNS_8hardware6ParcelEPSB_NSt3__18functionIFvRSB_EEE"
  },
  {
   "name":"_ZN7android6system3net4netd4V1_18BnHwNetd35_hidl_removeInterfaceFromOemNetworkEPNS_4hidl4base4V1_08BnHwBaseERKNS_8hardware6ParcelEPSB_NSt3__18functionIFvRSB_EEE"
  },
  {
   "name":"_ZN7android6system3net4netd4V1_18BnHwNetd36_hidl_setForwardingBetweenInterfacesEPNS_4hidl4base4V1_08BnHwBaseERKNS_8hardware6ParcelEPSB_NSt3__18functionIFvRSB_EEE"
  },
  {
   "name":"_ZN7android6system3net4netd4V1_18BnHwNetd4pingEv"
  },
  {
   "name":"_ZN7android6system3net4netd4V1_18BnHwNetdC1ERKNS_2spINS3_5INetdEEE"
  },
  {
   "name":"_ZN7android6system3net4netd4V1_18BnHwNetdC2ERKNS_2spINS3_5INetdEEE"
  },
  {
   "name":"_ZN7android6system3net4netd4V1_18BnHwNetdD0Ev"
  },
  {
   "name":"_ZN7android6system3net4netd4V1_18BnHwNetdD1Ev"
  },
  {
   "name":"_ZN7android6system3net4netd4V1_18BnHwNetdD2Ev"
  },
  {
   "name":"_ZN7android6system3net4netd4V1_18BpHwNetd11linkToDeathERKNS_2spINS_8hardware20hidl_death_recipientEEEm"
  },
  {
   "name":"_ZN7android6system3net4netd4V1_18BpHwNetd12getDebugInfoENSt3__18functionIFvRKNS_4hidl4base4V1_09DebugInfoEEEE"
  },
  {
   "name":"_ZN7android6system3net4netd4V1_18BpHwNetd12getHashChainENSt3__18functionIFvRKNS_8hardware8hidl_vecINS7_10hidl_arrayIhLm32EJEEEEEEEE"
  },
  {
   "name":"_ZN7android6system3net4netd4V1_18BpHwNetd13unlinkToDeathERKNS_2spINS_8hardware20hidl_death_recipientEEE"
  },
  {
   "name":"_ZN7android6system3net4netd4V1_18BpHwNetd14interfaceChainENSt3__18functionIFvRKNS_8hardware8hidl_vecINS7_11hidl_stringEEEEEE"
  },
  {
   "name":"_ZN7android6system3net4netd4V1_18BpHwNetd16createOemNetworkENSt3__18functionIFvmjNS2_4V1_05INetd10StatusCodeEEEE"
  },
  {
   "name":"_ZN7android6system3net4netd4V1_18BpHwNetd17destroyOemNetworkEm"
  },
  {
   "name":"_ZN7android6system3net4netd4V1_18BpHwNetd18setIpForwardEnableEb"
  },
  {
   "name":"_ZN7android6system3net4netd4V1_18BpHwNetd19interfaceDescriptorENSt3__18functionIFvRKNS_8hardware11hidl_stringEEEE"
  },
  {
   "name":"_ZN7android6system3net4netd4V1_18BpHwNetd20addRouteToOemNetworkEmRKNS_8hardware11hidl_stringES8_S8_"
  },
  {
   "name":"_ZN7android6system3net4netd4V1_18BpHwNetd21notifySyspropsChangedEv"
  },
  {
   "name":"_ZN7android6system3net4netd4V1_18BpHwNetd21setHALInstrumentationEv"
  },
  {
   "name":"_ZN7android6system3net4netd4V1_18BpHwNetd24_hidl_setIpForwardEnableEPNS_8hardware10IInterfaceEPNS5_7details16HidlInstrumentorEb"
  },
  {
   "name":"_ZN7android6system3net4netd4V1_18BpHwNetd24addInterfaceToOemNetworkEmRKNS_8hardware11hidl_stringE"
  },
  {
   "name":"_ZN7android6system3net4netd4V1_18BpHwNetd25removeRouteFromOemNetworkEmRKNS_8hardware11hidl_stringES8_S8_"
  },
  {
   "name":"_ZN7android6system3net4netd4V1_18BpHwNetd26_hidl_addRouteToOemNetworkEPNS_8hardware10IInterfaceEPNS5_7details16HidlInstrumentorEmRKNS5_11hidl_stringESD_SD_"
  },
  {
   "name":"_ZN7android6system3net4netd4V1_18BpHwNetd29removeInterfaceFromOemNetworkEmRKNS_8hardware11hidl_stringE"
  },
  {
   "name":"_ZN7android6system3net4netd4V1_18BpHwNetd30_hidl_addInterfaceToOemNetworkEPNS_8hardware10IInterfaceEPNS5_7details16HidlInstrumentorEmRKNS5_11hidl_stringE"
  },
  {
   "name":"_ZN7android6system3net4netd4V1_18BpHwNetd30setForwardingBetweenInterfacesERKNS_8hardware11hidl_stringES8_b"
  },
  {
   "name":"_ZN7android6system3net4netd4V1_18BpHwNetd31_hidl_removeRouteFromOemNetworkEPNS_8hardware10IInterfaceEPNS5_7details16HidlInstrumentorEmRKNS5_11hidl_stringESD_SD_"
  },
  {
   "name":"_ZN7android6system3net4netd4V1_18BpHwNetd35_hidl_removeInterfaceFromOemNetworkEPNS_8hardware10IInterfaceEPNS5_7details16HidlInstrumentorEmRKNS5_11hidl_stringE"
  },
  {
   "name":"_ZN7android6system3net4netd4V1_18BpHwNetd36_hidl_setForwardingBetweenInterfacesEPNS_8hardware10IInterfaceEPNS5_7details16HidlInstrumentorERKNS5_11hidl_stringESD_b"
  },
  {
   "name":"_ZN7android6system3net4netd4V1_18BpHwNetd4pingEv"
  },
  {
   "name":"_ZN7android6system3net4netd4V1_18BpHwNetd5debugERKNS_8hardware11hidl_handleERKNS5_8hidl_vecINS5_11hidl_stringEEE"
  },
  {
   "name":"_ZN7android6system3net4netd4V1_18BpHwNetdC1ERKNS_2spINS_8hardware7IBinderEEE"
  },
  {
   "name":"_ZN7android6system3net4netd4V1_18BpHwNetdC2ERKNS_2spINS_8hardware7IBinderEEE"
  },
  {
   "binding":"weak",
   "name":"_ZN7android8hardware7details13castInterfaceINS_6system3net4netd4V1_15INetdENS5_4V1_05INetdENS6_8BpHwNetdEEENS0_6ReturnINS_2spIT_EEEENSC_IT0_EEPKcb"
  },
  {
   "binding":"weak",
   "name":"_ZN7android8hardware7details13castInterfaceINS_6system3net4netd4V1_15INetdENS_4hidl4base4V1_05IBaseENS6_8BpHwNetdEEENS0_6ReturnINS_2spIT_EEEENSE_IT0_EEPKcb"
  },
  {
   "binding":"weak",
   "name":"_ZN7android8hardware7details18getServiceInternalINS_6system3net4netd4V1_18BpHwNetdENS6_5INetdEvvEENS_2spIT0_EERKNSt3__112basic_stringIcNSC_11char_traitsIcEENSC_9allocatorIcEEEEbb"
  },
  {
   "binding":"weak",
   "name":"_ZN7android8hardware8toBinderINS_4hidl4base4V1_05IBaseEvEENS_2spINS0_7IBinderEEENS6_IT_EE"
  },
  {
   "binding":"weak",
   "name":"_ZN7android8hardware8toBinderINS_6system3net4netd4V1_05INetdEvEENS_2spINS0_7IBinderEEENS7_IT_EE"
  },
  {
   "name":"_ZThn32_N7android6system3net4netd4V1_18BnHwNetdD0Ev"
  },
  {
   "name":"_ZThn32_N7android6system3net4netd4V1_18BnHwNetdD1Ev"
  },
  {
   "name":"_ZTv0_n24_N7android6system3net4netd4V1_18BnHwNetdD0Ev"
  },
  {
   "name":"_ZTv0_n24_N7android6system3net4netd4V1_18BnHwNetdD1Ev"
  }
 ],
 "elf_objects":[
  {
   "name":"_ZN7android6system3net4netd4V1_15INetd10descriptorE"
  },
  {
   "name":"_ZTTN7android6system3net4netd4V1_15INetdE"
  },
  {
   "name":"_ZTTN7android6system3net4netd4V1_18BnHwNetdE"
  },
  {
   "name":"_ZTTN7android6system3net4netd4V1_18BpHwNetdE"
  },
  {
   "name":"_ZTVN7android6system3net4netd4V1_15INetdE"
  },
  {
   "binding":"weak",
   "name":"_ZTVN7android6system3net4netd4V1_16BsNetdE"
  },
  {
   "name":"_ZTVN7android6system3net4netd4V1_18BnHwNetdE"
  },
  {
   "name":"_ZTVN7android6system3net4netd4V1_18BpHwNetdE"
  }
 ]
}