{
 "record_types":[
  {
   "vtable_components":[
    {
     "kind":"vbase_offset",
     "component_value":24
    },
    {
     "kind":"offset_to_top"
    },
    {
     "kind":"rtti",
     "mangled_component_name":"_ZTIN7android7BBinderE"
    },
    {
     "mangled_component_name":"_ZN7android7IBinder19queryLocalInterfaceERKNS_8String16E"
    },
    {
     "mangled_component_name":"_ZNK7android7BBinder22getInterfaceDescriptorEv"
    },
    {
     "mangled_component_name":"_ZNK7android7BBinder13isBinderAliveEv"
    },
    {
     "mangled_component_name":"_ZN7android7BBinder10pingBinderEv"
    },
    {
     "mangled_component_name":"_ZN7android7BBinder4dumpEiRKNS_6VectorINS_8String16EEE"
    },
    {
     "mangled_component_name":"_ZN7android7BBinder8transactEjRKNS_6ParcelEPS1_j"
    },
    {
     "mangled_component_name":"_ZN7android7BBinder11linkToDeathERKNS_2spINS_7IBinder14DeathRecipientEEEPvj"
    },
    {
     "mangled_component_name":"_ZN7android7BBinder13unlinkToDeathERKNS_2wpINS_7IBinder14DeathRecipientEEEPvjPS4_"
    },
    {
     "mangled_component_name":"_ZNK7android7IBinder13checkSubclassEPKv"
    },
    {
     "mangled_component_name":"_ZN7android7BBinder12attachObjectEPKvPvS3_PFvS2_S3_S3_E"
    },
    {
     "mangled_component_name":"_ZNK7android7BBinder10findObjectEPKv"
    },
    {
     "mangled_component_name":"_ZN7android7BBinder12detachObjectEPKv"
    },
    {
     "mangled_component_name":"_ZN7android7BBinder11localBinderEv"
    },
    {
     "mangled_component_name":"_ZN7android7IBinder12remoteBinderEv"
    },
    {
     "kind":"complete_dtor_pointer",
     "mangled_component_name":"_ZN7android7BBinderD1Ev"
    },
    {
     "kind":"deleting_dtor_pointer",
     "mangled_component_name":"_ZN7android7BBinderD0Ev"
    },
    {
     "mangled_component_name":"_ZN7android7BBinder10onTransactEjRKNS_6ParcelEPS1_j"
    },
    {
     "kind":"vcall_offset"
    },
    {
     "kind":"vcall_offset"
    },
    {
     "kind":"vcall_offset"
    },
    {
     "kind":"vcall_offset"
    },
    {
     "kind":"vcall_offset",
     "component_value":-24
    },
    {
     "kind":"offset_to_top",
     "component_value":-24
    },
    {
     "kind":"rtti",
     "mangled_component_name":"_ZTIN7android7BBinderE"
    },
    {
     "kind":"complete_dtor_pointer",
     "mangled_component_name":"_ZTv0_n24_N7android7BBinderD1Ev"
    },
    {
     "kind":"deleting_dtor_pointer",
     "mangled_component_name":"_ZTv0_n24_N7android7BBinderD0Ev"
    },
    {
     "mangled_component_name":"_ZN7android7RefBase10onFirstRefEv"
    },
    {
     "mangled_component_name":"_ZN7android7RefBase15onLastStrongRefEPKv"
    },
    {
     "mangled_component_name":"_ZN7android7RefBase20onIncStrongAttemptedEjPKv"
    },
    {
     "mangled_component_name":"_ZN7android7RefBase13onLastWeakRefEPKv"
    }
   ],
   "unique_id":"_ZTSN7android7BBinderE"
  },
  {
   "vtable_components":[
    {
     "kind":"offset_to_top"
    },
    {
     "kind":"rtti",
     "mangled_component_name":"_ZTIN7android12SortedVectorINS_16key_value_pair_tINS_2wpINS_7IBinderEEENS_9HeapCache11heap_info_tEEEEE"
    },
    {
     "kind":"complete_dtor_pointer",
     "mangled_component_name":"_ZN7android12SortedVectorINS_16key_value_pair_tINS_2wpINS_7IBinderEEENS_9HeapCache11heap_info_tEEEED1Ev"
    },
    {
     "kind":"deleting_dtor_pointer",
     "mangled_component_name":"_ZN7android12SortedVectorINS_16key_value_pair_tINS_2wpINS_7IBinderEEENS_9HeapCache11heap_info_tEEEED0Ev"
    },
    {
     "mangled_component_name":"_ZNK7android12SortedVectorINS_16key_value_pair_tINS_2wpINS_7IBinderEEENS_9HeapCache11heap_info_tEEEE12do_constructEPvm"
    },
    {
     "mangled_component_name":"_ZNK7android12SortedVectorINS_16key_value_pair_tINS_2wpINS_7IBinderEEENS_9HeapCache11heap_info_tEEEE10do_destroyEPvm"
    },
    {
     "mangled_component_name":"_ZNK7android12SortedVectorINS_16key_value_pair_tINS_2wpINS_7IBinderEEENS_9HeapCache11heap_info_tEEEE7do_copyEPvPKvm"
    },
    {
     "mangled_component_name":"_ZNK7android12SortedVectorINS_16key_value_pair_tINS_2wpINS_7IBinderEEENS_9HeapCache11heap_info_tEEEE8do_splatEPvPKvm"
    },
    {
     "mangled_component_name":"_ZNK7android12SortedVectorINS_16key_value_pair_tINS_2wpINS_7IBinderEEENS_9HeapCache11heap_info_tEEEE15do_move_forwardEPvPKvm"
    },
    {
     "mangled_component_name":"_ZNK7android12SortedVectorINS_16key_value_pair_tINS_2wpINS_7IBinderEEENS_9HeapCache11heap_info_tEEEE16do_move_backwardEPvPKvm"
    },
    {
     "mangled_component_name":"_ZNK7android12SortedVectorINS_16key_value_pair_tINS_2wpINS_7IBinderEEENS_9HeapCache11heap_info_tEEEE10do_compareEPKvSA_"
    }
   ],
   "unique_id":"_ZTSN7android12SortedVectorINS_16key_value_pair_tINS_2wpINS_7IBinderEEENS_9HeapCache11heap_info_tEEEEE"
  },
  {
   "vtable_components":[
    {
     "kind":"offset_to_top"
    },
    {
     "kind":"rtti",
     "mangled_component_name":"_ZTIN7android6VectorIPNS_7BBinderEEE"
    },
    {
     "kind":"complete_dtor_pointer",
     "mangled_component_name":"_ZN7android6VectorIPNS_7BBinderEED1Ev"
    },
    {
     "kind":"deleting_dtor_pointer",
     "mangled_component_name":"_ZN7android6VectorIPNS_7BBinderEED0Ev"
    },
    {
     "mangled_component_name":"_ZNK7android6VectorIPNS_7BBinderEE12do_constructEPvm"
    },
    {
     "mangled_component_name":"_ZNK7android6VectorIPNS_7BBinderEE10do_destroyEPvm"
    },
    {
     "mangled_component_name":"_ZNK7android6VectorIPNS_7BBinderEE7do_copyEPvPKvm"
    },
    {
     "mangled_component_name":"_ZNK7android6VectorIPNS_7BBinderEE8do_splatEPvPKvm"
    },
    {
     "mangled_component_name":"_ZNK7android6VectorIPNS_7BBinderEE15do_move_forwardEPvPKvm"
    },
    {
     "mangled_component_name":"_ZNK7android6VectorIPNS_7BBinderEE16do_move_backwardEPvPKvm"
    }
   ],
   "unique_id":"_ZTSN7android6VectorIPNS_7BBinderEEE"
  },
  {
   "vtable_components":[
    {
     "kind":"offset_to_top"
    },
    {
     "kind":"rtti",
     "mangled_component_name":"_ZTIN7android6VectorIPNS_7RefBase12weakref_typeEEE"
    },
    {
     "kind":"complete_dtor_pointer",
     "mangled_component_name":"_ZN7android6VectorIPNS_7RefBase12weakref_typeEED1Ev"
    },
    {
     "kind":"deleting_dtor_pointer",
     "mangled_component_name":"_ZN7android6VectorIPNS_7RefBase12weakref_typeEED0Ev"
    },
    {
     "mangled_component_name":"_ZNK7android6VectorIPNS_7RefBase12weakref_typeEE12do_constructEPvm"
    },
    {
     "mangled_component_name":"_ZNK7android6VectorIPNS_7RefBase12weakref_typeEE10do_destroyEPvm"
    },
    {
     "mangled_component_name":"_ZNK7android6VectorIPNS_7RefBase12weakref_typeEE7do_copyEPvPKvm"
    },
    {
     "mangled_component_name":"_ZNK7android6VectorIPNS_7RefBase12weakref_typeEE8do_splatEPvPKvm"
    },
    {
     "mangled_component_name":"_ZNK7android6VectorIPNS_7RefBase12weakref_typeEE15do_move_forwardEPvPKvm"
    },
    {
     "mangled_component_name":"_ZNK7android6VectorIPNS_7RefBase12weakref_typeEE16do_move_backwardEPvPKvm"
    }
   ],
   "unique_id":"_ZTSN7android6VectorIPNS_7RefBase12weakref_typeEEE"
  },
  {
   "vtable_components":[
    {
     "kind":"offset_to_top"
    },
    {
     "kind":"rtti",
     "mangled_component_name":"_ZTIN7android6VectorIPNS_7RefBaseEEE"
    },
    {
     "kind":"complete_dtor_pointer",
     "mangled_component_name":"_ZN7android6VectorIPNS_7RefBaseEED1Ev"
    },
    {
     "kind":"deleting_dtor_pointer",
     "mangled_component_name":"_ZN7android6VectorIPNS_7RefBaseEED0Ev"
    },
    {
     "mangled_component_name":"_ZNK7android6VectorIPNS_7RefBaseEE12do_constructEPvm"
    },
    {
     "mangled_component_name":"_ZNK7android6VectorIPNS_7RefBaseEE10do_destroyEPvm"
    },
    {
     "mangled_component_name":"_ZNK7android6VectorIPNS_7RefBaseEE7do_copyEPvPKvm"
    },
    {
     "mangled_component_name":"_ZNK7android6VectorIPNS_7RefBaseEE8do_splatEPvPKvm"
    },
    {
     "mangled_component_name":"_ZNK7android6VectorIPNS_7RefBaseEE15do_move_forwardEPvPKvm"
    },
    {
     "mangled_component_name":"_ZNK7android6VectorIPNS_7RefBaseEE16do_move_backwardEPvPKvm"
    }
   ],
   "unique_id":"_ZTSN7android6VectorIPNS_7RefBaseEEE"
  },
  {
   "vtable_components":[
    {
     "kind":"vbase_offset",
     "component_value":304
    },
    {
     "kind":"offset_to_top"
    },
    {
     "kind":"rtti",
     "mangled_component_name":"_ZTIN7android12ProcessStateE"
    },
    {
     "kind":"complete_dtor_pointer",
     "mangled_component_name":"_ZN7android12ProcessStateD1Ev"
    },
    {
     "kind":"deleting_dtor_pointer",
     "mangled_component_name":"_ZN7android12ProcessStateD0Ev"
    },
    {
     "kind":"vcall_offset"
    },
    {
     "kind":"vcall_offset"
    },
    {
     "kind":"vcall_offset"
    },
    {
     "kind":"vcall_offset"
    },
    {
     "kind":"vcall_offset",
     "component_value":-304
    },
    {
     "kind":"offset_to_top",
     "component_value":-304
    },
    {
     "kind":"rtti",
     "mangled_component_name":"_ZTIN7android12ProcessStateE"
    },
    {
     "kind":"complete_dtor_pointer",
     "mangled_component_name":"_ZTv0_n24_N7android12ProcessStateD1Ev"
    },
    {
     "kind":"deleting_dtor_pointer",
     "mangled_component_name":"_ZTv0_n24_N7android12ProcessStateD0Ev"
    },
    {
     "mangled_component_name":"_ZN7android7RefBase10onFirstRefEv"
    },
    {
     "mangled_component_name":"_ZN7android7RefBase15onLastStrongRefEPKv"
    },
    {
     "mangled_component_name":"_ZN7android7RefBase20onIncStrongAttemptedEjPKv"
    },
    {
     "mangled_component_name":"_ZN7android7RefBase13onLastWeakRefEPKv"
    }
   ],
   "unique_id":"_ZTSN7android12ProcessStateE"
  },
  {
   "vtable_components":[
    {
     "kind":"vbase_offset",
     "component_value":8
    },
    {
     "kind":"offset_to_top"
    },
    {
     "kind":"rtti",
     "mangled_component_name":"_ZTIN7android11IMemoryHeapE"
    },
    {
     "kind":"complete_dtor_pointer",
     "mangled_component_name":"_ZN7android11IMemoryHeapD1Ev"
    },
    {
     "kind":"deleting_dtor_pointer",
     "mangled_component_name":"_ZN7android11IMemoryHeapD0Ev"
    },
    {
     "is_pure":true,
     "mangled_component_name":"_ZN7android10IInterface10onAsBinderEv"
    },
    {
     "mangled_component_name":"_ZNK7android11IMemoryHeap22getInterfaceDescriptorEv"
    },
    {
     "is_pure":true,
     "mangled_component_name":"_ZNK7android11IMemoryHeap9getHeapIDEv"
    },
    {
     "is_pure":true,
     "mangled_component_name":"_ZNK7android11IMemoryHeap7getBaseEv"
    },
    {
     "is_pure":true,
     "mangled_component_name":"_ZNK7android11IMemoryHeap7getSizeEv"
    },
    {
     "is_pure":true,
     "mangled_component_name":"_ZNK7android11IMemoryHeap8getFlagsEv"
    },
    {
     "is_pure":true,
     "mangled_component_name":"_ZNK7android11IMemoryHeap9getOffsetEv"
    },
    {
     "kind":"vcall_offset"
    },
    {
     "kind":"vcall_offset"
    },
    {
     "kind":"vcall_offset"
    },
    {
     "kind":"vcall_offset"
    },
    {
     "kind":"vcall_offset",
     "component_value":-8
    },
    {
     "kind":"offset_to_top",
     "component_value":-8
    },
    {
     "kind":"rtti",
     "mangled_component_name":"_ZTIN7android11IMemoryHeapE"
    },
    {
     "kind":"complete_dtor_pointer",
     "mangled_component_name":"_ZTv0_n24_N7android11IMemoryHeapD1Ev"
    },
    {
     "kind":"deleting_dtor_pointer",
     "mangled_component_name":"_ZTv0_n24_N7android11IMemoryHeapD0Ev"
    },
    {
     "mangled_component_name":"_ZN7android7RefBase10onFirstRefEv"
    },
    {
     "mangled_component_name":"_ZN7android7RefBase15onLastStrongRefEPKv"
    },
    {
     "mangled_component_name":"_ZN7android7RefBase20onIncStrongAttemptedEjPKv"
    },
    {
     "mangled_component_name":"_ZN7android7RefBase13onLastWeakRefEPKv"
    }
   ],
   "unique_id":"_ZTSN7android11IMemoryHeapE"
  },
  {
   "vtable_components":[
    {
     "kind":"offset_to_top"
    },
    {
     "kind":"rtti",
     "mangled_component_name":"_ZTIN7android6VectorINS_12ProcessState12handle_entryEEE"
    },
    {
     "kind":"complete_dtor_pointer",
     "mangled_component_name":"_ZN7android6VectorINS_12ProcessState12handle_entryEED1Ev"
    },
    {
     "kind":"deleting_dtor_pointer",
     "mangled_component_name":"_ZN7android6VectorINS_12ProcessState12handle_entryEED0Ev"
    },
    {
     "mangled_component_name":"_ZNK7android6VectorINS_12ProcessState12handle_entryEE12do_constructEPvm"
    },
    {
     "mangled_component_name":"_ZNK7android6VectorINS_12ProcessState12handle_entryEE10do_destroyEPvm"
    },
    {
     "mangled_component_name":"_ZNK7android6VectorINS_12ProcessState12handle_entryEE7do_copyEPvPKvm"
    },
    {
     "mangled_component_name":"_ZNK7android6VectorINS_12ProcessState12handle_entryEE8do_splatEPvPKvm"
    },
    {
     "mangled_component_name":"_ZNK7android6VectorINS_12ProcessState12handle_entryEE15do_move_forwardEPvPKvm"
    },
    {
     "mangled_component_name":"_ZNK7android6VectorINS_12ProcessState12handle_entryEE16do_move_backwardEPvPKvm"
    }
   ],
   "unique_id":"_ZTSN7android6VectorINS_12ProcessState12handle_entryEEE"
  },
  {
   "vtable_components":[
    {
     "kind":"vbase_offset",
     "component_value":8
    },
    {
     "kind":"offset_to_top"
    },
    {
     "kind":"rtti",
     "mangled_component_name":"_ZTIN7android10IInterfaceE"
    },
    {
     "kind":"complete_dtor_pointer",
     "mangled_component_name":"_ZN7android10IInterfaceD1Ev"
    },
    {
     "kind":"deleting_dtor_pointer",
     "mangled_component_name":"_ZN7android10IInterfaceD0Ev"
    },
    {
     "is_pure":true,
     "mangled_component_name":"_ZN7android10IInterface10onAsBinderEv"
    },
    {
     "kind":"vcall_offset"
    },
    {
     "kind":"vcall_offset"
    },
    {
     "kind":"vcall_offset"
    },
    {
     "kind":"vcall_offset"
    },
    {
     "kind":"vcall_offset",
     "component_value":-8
    },
    {
     "kind":"offset_to_top",
     "component_value":-8
    },
    {
     "kind":"rtti",
     "mangled_component_name":"_ZTIN7android10IInterfaceE"
    },
    {
     "kind":"complete_dtor_pointer",
     "mangled_component_name":"_ZTv0_n24_N7android10IInterfaceD1Ev"
    },
    {
     "kind":"deleting_dtor_pointer",
     "mangled_component_name":"_ZTv0_n24_N7android10IInterfaceD0Ev"
    },
    {
     "mangled_component_name":"_ZN7android7RefBase10onFirstRefEv"
    },
    {
     "mangled_component_name":"_ZN7android7RefBase15onLastStrongRefEPKv"
    },
    {
     "mangled_component_name":"_ZN7android7RefBase20onIncStrongAttemptedEjPKv"
    },
    {
     "mangled_component_name":"_ZN7android7RefBase13onLastWeakRefEPKv"
    }
   ],
   "unique_id":"_ZTSN7android10IInterfaceE"
  },
  {
   "vtable_components":[
    {
     "kind":"offset_to_top"
    },
    {
     "kind":"rtti",
     "mangled_component_name":"_ZTIN7android12SortedVectorINS_16key_value_pair_tINS_8String16ENS_2spINS_7IBinderEEEEEEE"
    },
    {
     "kind":"complete_dtor_pointer",
     "mangled_component_name":"_ZN7android12SortedVectorINS_16key_value_pair_tINS_8String16ENS_2spINS_7IBinderEEEEEED1Ev"
    },
    {
     "kind":"deleting_dtor_pointer",
     "mangled_component_name":"_ZN7android12SortedVectorINS_16key_value_pair_tINS_8String16ENS_2spINS_7IBinderEEEEEED0Ev"
    },
    {
     "mangled_component_name":"_ZNK7android12SortedVectorINS_16key_value_pair_tINS_8String16ENS_2spINS_7IBinderEEEEEE12do_constructEPvm"
    },
    {
     "mangled_component_name":"_ZNK7android12SortedVectorINS_16key_value_pair_tINS_8String16ENS_2spINS_7IBinderEEEEEE10do_destroyEPvm"
    },
    {
     "mangled_component_name":"_ZNK7android12SortedVectorINS_16key_value_pair_tINS_8String16ENS_2spINS_7IBinderEEEEEE7do_copyEPvPKvm"
    },
    {
     "mangled_component_name":"_ZNK7android12SortedVectorINS_16key_value_pair_tINS_8String16ENS_2spINS_7IBinderEEEEEE8do_splatEPvPKvm"
    },
    {
     "mangled_component_name":"_ZNK7android12SortedVectorINS_16key_value_pair_tINS_8String16ENS_2spINS_7IBinderEEEEEE15do_move_forwardEPvPKvm"
    },
    {
     "mangled_component_name":"_ZNK7android12SortedVectorINS_16key_value_pair_tINS_8String16ENS_2spINS_7IBinderEEEEEE16do_move_backwardEPvPKvm"
    },
    {
     "mangled_component_name":"_ZNK7android12SortedVectorINS_16key_value_pair_tINS_8String16ENS_2spINS_7IBinderEEEEEE10do_compareEPKvS9_"
    }
   ],
   "unique_id":"_ZTSN7android12SortedVectorINS_16key_value_pair_tINS_8String16ENS_2spINS_7IBinderEEEEEEE"
  },
  {
   "vtable_components":[
    {
     "kind":"offset_to_top"
    },
    {
     "kind":"rtti",
     "mangled_component_name":"_ZTIN7android12SortedVectorINS_16key_value_pair_tIPKvNS_8BpBinder13ObjectManager7entry_tEEEEE"
    },
    {
     "kind":"complete_dtor_pointer",
     "mangled_component_name":"_ZN7android12SortedVectorINS_16key_value_pair_tIPKvNS_8BpBinder13ObjectManager7entry_tEEEED1Ev"
    },
    {
     "kind":"deleting_dtor_pointer",
     "mangled_component_name":"_ZN7android12SortedVectorINS_16key_value_pair_tIPKvNS_8BpBinder13ObjectManager7entry_tEEEED0Ev"
    },
    {
     "mangled_component_name":"_ZNK7android12SortedVectorINS_16key_value_pair_tIPKvNS_8BpBinder13ObjectManager7entry_tEEEE12do_constructEPvm"
    },
    {
     "mangled_component_name":"_ZNK7android12SortedVectorINS_16key_value_pair_tIPKvNS_8BpBinder13ObjectManager7entry_tEEEE10do_destroyEPvm"
    },
    {
     "mangled_component_name":"_ZNK7android12SortedVectorINS_16key_value_pair_tIPKvNS_8BpBinder13ObjectManager7entry_tEEEE7do_copyEPvS3_m"
    },
    {
     "mangled_component_name":"_ZNK7android12SortedVectorINS_16key_value_pair_tIPKvNS_8BpBinder13ObjectManager7entry_tEEEE8do_splatEPvS3_m"
    },
    {
     "mangled_component_name":"_ZNK7android12SortedVectorINS_16key_value_pair_tIPKvNS_8BpBinder13ObjectManager7entry_tEEEE15do_move_forwardEPvS3_m"
    },
    {
     "mangled_component_name":"_ZNK7android12SortedVectorINS_16key_value_pair_tIPKvNS_8BpBinder13ObjectManager7entry_tEEEE16do_move_backwardEPvS3_m"
    },
    {
     "mangled_component_name":"_ZNK7android12SortedVectorINS_16key_value_pair_tIPKvNS_8BpBinder13ObjectManager7entry_tEEEE10do_compareES3_S3_"
    }
   ],
   "unique_id":"_ZTSN7android12SortedVectorINS_16key_value_pair_tIPKvNS_8BpBinder13ObjectManager7entry_tEEEEE"
  },
  {
   "vtable_components":[
    {
     "kind":"offset_to_top"
    },
    {
     "kind":"rtti",
     "mangled_component_name":"_ZTIN7android6VectorINS_8String16EEE"
    },
    {
     "kind":"complete_dtor_pointer",
     "mangled_component_name":"_ZN7android6VectorINS_8String16EED1Ev"
    },
    {
     "kind":"deleting_dtor_pointer",
     "mangled_component_name":"_ZN7android6VectorINS_8String16EED0Ev"
    },
    {
     "mangled_component_name":"_ZNK7android6VectorINS_8String16EE12do_constructEPvm"
    },
    {
     "mangled_component_name":"_ZNK7android6VectorINS_8String16EE10do_destroyEPvm"
    },
    {
     "mangled_component_name":"_ZNK7android6VectorINS_8String16EE7do_copyEPvPKvm"
    },
    {
     "mangled_component_name":"_ZNK7android6VectorINS_8String16EE8do_splatEPvPKvm"
    },
    {
     "mangled_component_name":"_ZNK7android6VectorINS_8String16EE15do_move_forwardEPvPKvm"
    },
    {
     "mangled_component_name":"_ZNK7android6VectorINS_8String16EE16do_move_backwardEPvPKvm"
    }
   ],
   "unique_id":"_ZTSN7android6VectorINS_8String16EEE"
  },
  {
   "vtable_components":[
    {
     "kind":"vbase_offset",
     "component_value":8
    },
    {
     "kind":"offset_to_top"
    },
    {
     "kind":"rtti",
     "mangled_component_name":"_ZTIN7android15IResultReceiverE"
    },
    {
     "kind":"complete_dtor_pointer",
     "mangled_component_name":"_ZN7android15IResultReceiverD1Ev"
    },
    {
     "kind":"deleting_dtor_pointer",
     "mangled_component_name":"_ZN7android15IResultReceiverD0Ev"
    },
    {
     "is_pure":true,
     "mangled_component_name":"_ZN7android10IInterface10onAsBinderEv"
    },
    {
     "mangled_component_name":"_ZNK7android15IResultReceiver22getInterfaceDescriptorEv"
    },
    {
     "is_pure":true,
     "mangled_component_name":"_ZN7android15IResultReceiver4sendEi"
    },
    {
     "kind":"vcall_offset"
    },
    {
     "kind":"vcall_offset"
    },
    {
     "kind":"vcall_offset"
    },
    {
     "kind":"vcall_offset"
    },
    {
     "kind":"vcall_offset",
     "component_value":-8
    },
    {
     "kind":"offset_to_top",
     "component_value":-8
    },
    {
     "kind":"rtti",
     "mangled_component_name":"_ZTIN7android15IResultReceiverE"
    },
    {
     "kind":"complete_dtor_pointer",
     "mangled_component_name":"_ZTv0_n24_N7android15IResultReceiverD1Ev"
    },
    {
     "kind":"deleting_dtor_pointer",
     "mangled_component_name":"_ZTv0_n24_N7android15IResultReceiverD0Ev"
    },
    {
     "mangled_component_name":"_ZN7android7RefBase10onFirstRefEv"
    },
    {
     "mangled_component_name":"_ZN7android7RefBase15onLastStrongRefEPKv"
    },
    {
     "mangled_component_name":"_ZN7android7RefBase20onIncStrongAttemptedEjPKv"
    },
    {
     "mangled_component_name":"_ZN7android7RefBase13onLastWeakRefEPKv"
    }
   ],
   "unique_id":"_ZTSN7android15IResultReceiverE"
  },
  {
   "vtable_components":[
    {
     "kind":"vbase_offset",
     "component_value":8
    },
    {
     "kind":"offset_to_top"
    },
    {
     "kind":"rtti",
     "mangled_component_name":"_ZTIN7android7IMemoryE"
    },
    {
     "kind":"complete_dtor_pointer",
     "mangled_component_name":"_ZN7android7IMemoryD1Ev"
    },
    {
     "kind":"deleting_dtor_pointer",
     "mangled_component_name":"_ZN7android7IMemoryD0Ev"
    },
    {
     "is_pure":true,
     "mangled_component_name":"_ZN7android10IInterface10onAsBinderEv"
    },
    {
     "mangled_component_name":"_ZNK7android7IMemory22getInterfaceDescriptorEv"
    },
    {
     "is_pure":true,
     "mangled_component_name":"_ZNK7android7IMemory9getMemoryEPlPm"
    },
    {
     "kind":"vcall_offset"
    },
    {
     "kind":"vcall_offset"
    },
    {
     "kind":"vcall_offset"
    },
    {
     "kind":"vcall_offset"
    },
    {
     "kind":"vcall_offset",
     "component_value":-8
    },
    {
     "kind":"offset_to_top",
     "component_value":-8
    },
    {
     "kind":"rtti",
     "mangled_component_name":"_ZTIN7android7IMemoryE"
    },
    {
     "kind":"complete_dtor_pointer",
     "mangled_component_name":"_ZTv0_n24_N7android7IMemoryD1Ev"
    },
    {
     "kind":"deleting_dtor_pointer",
     "mangled_component_name":"_ZTv0_n24_N7android7IMemoryD0Ev"
    },
    {
     "mangled_component_name":"_ZN7android7RefBase10onFirstRefEv"
    },
    {
     "mangled_component_name":"_ZN7android7RefBase15onLastStrongRefEPKv"
    },
    {
     "mangled_component_name":"_ZN7android7RefBase20onIncStrongAttemptedEjPKv"
    },
    {
     "mangled_component_name":"_ZN7android7RefBase13onLastWeakRefEPKv"
    }
   ],
   "unique_id":"_ZTSN7android7IMemoryE"
  },
  {
   "vtable_components":[
    {
     "kind":"vbase_offset",
     "component_value":32
    },
    {
     "kind":"offset_to_top"
    },
    {
     "kind":"rtti",
     "mangled_component_name":"_ZTIN7android9BpRefBaseE"
    },
    {
     "kind":"complete_dtor_pointer",
     "mangled_component_name":"_ZN7android9BpRefBaseD1Ev"
    },
    {
     "kind":"deleting_dtor_pointer",
     "mangled_component_name":"_ZN7android9BpRefBaseD0Ev"
    },
    {
     "mangled_component_name":"_ZN7android9BpRefBase10onFirstRefEv"
    },
    {
     "mangled_component_name":"_ZN7android9BpRefBase15onLastStrongRefEPKv"
    },
    {
     "mangled_component_name":"_ZN7android9BpRefBase20onIncStrongAttemptedEjPKv"
    },
    {
     "kind":"vcall_offset"
    },
    {
     "kind":"vcall_offset",
     "component_value":-32
    },
    {
     "kind":"vcall_offset",
     "component_value":-32
    },
    {
     "kind":"vcall_offset",
     "component_value":-32
    },
    {
     "kind":"vcall_offset",
     "component_value":-32
    },
    {
     "kind":"offset_to_top",
     "component_value":-32
    },
    {
     "kind":"rtti",
     "mangled_component_name":"_ZTIN7android9BpRefBaseE"
    },
    {
     "kind":"complete_dtor_pointer",
     "mangled_component_name":"_ZTv0_n24_N7android9BpRefBaseD1Ev"
    },
    {
     "kind":"deleting_dtor_pointer",
     "mangled_component_name":"_ZTv0_n24_N7android9BpRefBaseD0Ev"
    },
    {
     "mangled_component_name":"_ZTv0_n32_N7android9BpRefBase10onFirstRefEv"
    },
    {
     "mangled_component_name":"_ZTv0_n40_N7android9BpRefBase15onLastStrongRefEPKv"
    },
    {
     "mangled_component_name":"_ZTv0_n48_N7android9BpRefBase20onIncStrongAttemptedEjPKv"
    },
    {
     "mangled_component_name":"_ZN7android7RefBase13onLastWeakRefEPKv"
    }
   ],
   "unique_id":"_ZTSN7android9BpRefBaseE"
  },
  {
   "vtable_components":[
    {
     "kind":"vbase_offset",
     "component_value":32
    },
    {
     "kind":"offset_to_top"
    },
    {
     "kind":"rtti",
     "mangled_component_name":"_ZTIN7android16BnResultReceiverE"
    },
    {
     "kind":"complete_dtor_pointer",
     "mangled_component_name":"_ZN7android16BnResultReceiverD1Ev"
    },
    {
     "kind":"deleting_dtor_pointer",
     "mangled_component_name":"_ZN7android16BnResultReceiverD0Ev"
    },
    {
     "mangled_component_name":"_ZN7android11BnInterfaceINS_15IResultReceiverEE10onAsBinderEv"
    },
    {
     "mangled_component_name":"_ZNK7android11BnInterfaceINS_15IResultReceiverEE22getInterfaceDescriptorEv"
    },
    {
     "is_pure":true,
     "mangled_component_name":"_ZN7android15IResultReceiver4sendEi"
    },
    {
     "mangled_component_name":"_ZN7android11BnInterfaceINS_15IResultReceiverEE19queryLocalInterfaceERKNS_8String16E"
    },
    {
     "mangled_component_name":"_ZN7android16BnResultReceiver10onTransactEjRKNS_6ParcelEPS1_j"
    },
    {
     "kind":"vbase_offset",
     "component_value":24
    },
    {
     "kind":"offset_to_top",
     "component_value":-8
    },
    {
     "kind":"rtti",
     "mangled_component_name":"_ZTIN7android16BnResultReceiverE"
    },
    {
     "mangled_component_name":"_ZThn8_N7android11BnInterfaceINS_15IResultReceiverEE19queryLocalInterfaceERKNS_8String16E"
    },
    {
     "mangled_component_name":"_ZThn8_NK7android11BnInterfaceINS_15IResultReceiverEE22getInterfaceDescriptorEv"
    },
    {
     "mangled_component_name":"_ZNK7android7BBinder13isBinderAliveEv"
    },
    {
     "mangled_component_name":"_ZN7android7BBinder10pingBinderEv"
    },
    {
     "mangled_component_name":"_ZN7android7BBinder4dumpEiRKNS_6VectorINS_8String16EEE"
    },
    {
     "mangled_component_name":"_ZN7android7BBinder8transactEjRKNS_6ParcelEPS1_j"
    },
    {
     "mangled_component_name":"_ZN7android7BBinder11linkToDeathERKNS_2spINS_7IBinder14DeathRecipientEEEPvj"
    },
    {
     "mangled_component_name":"_ZN7android7BBinder13unlinkToDeathERKNS_2wpINS_7IBinder14DeathRecipientEEEPvjPS4_"
    },
    {
     "mangled_component_name":"_ZNK7android7IBinder13checkSubclassEPKv"
    },
    {
     "mangled_component_name":"_ZN7android7BBinder12attachObjectEPKvPvS3_PFvS2_S3_S3_E"
    },
    {
     "mangled_component_name":"_ZNK7android7BBinder10findObjectEPKv"
    },
    {
     "mangled_component_name":"_ZN7android7BBinder12detachObjectEPKv"
    },
    {
     "mangled_component_name":"_ZN7android7BBinder11localBinderEv"
    },
    {
     "mangled_component_name":"_ZN7android7IBinder12remoteBinderEv"
    },
    {
     "kind":"complete_dtor_pointer",
     "mangled_component_name":"_ZThn8_N7android16BnResultReceiverD1Ev"
    },
    {
     "kind":"deleting_dtor_pointer",
     "mangled_component_name":"_ZThn8_N7android16BnResultReceiverD0Ev"
    },
    {
     "mangled_component_name":"_ZThn8_N7android16BnResultReceiver10onTransactEjRKNS_6ParcelEPS1_j"
    },
    {
     "kind":"vcall_offset"
    },
    {
     "kind":"vcall_offset"
    },
    {
     "kind":"vcall_offset"
    },
    {
     "kind":"vcall_offset"
    },
    {
     "kind":"vcall_offset",
     "component_value":-32
    },
    {
     "kind":"offset_to_top",
     "component_value":-32
    },
    {
     "kind":"rtti",
     "mangled_component_name":"_ZTIN7android16BnResultReceiverE"
    },
    {
     "kind":"complete_dtor_pointer",
     "mangled_component_name":"_ZTv0_n24_N7android16BnResultReceiverD1Ev"
    },
    {
     "kind":"deleting_dtor_pointer",
     "mangled_component_name":"_ZTv0_n24_N7android16BnResultReceiverD0Ev"
    },
    {
     "mangled_component_name":"_ZN7android7RefBase10onFirstRefEv"
    },
    {
     "mangled_component_name":"_ZN7android7RefBase15onLastStrongRefEPKv"
    },
    {
     "mangled_component_name":"_ZN7android7RefBase20onIncStrongAttemptedEjPKv"
    },
    {
     "mangled_component_name":"_ZN7android7RefBase13onLastWeakRefEPKv"
    }
   ],
   "unique_id":"_ZTSN7android16BnResultReceiverE"
  },
  {
   "vtable_components":[
    {
     "kind":"vbase_offset",
     "component_value":136
    },
    {
     "kind":"offset_to_top"
    },
    {
     "kind":"rtti",
     "mangled_component_name":"_ZTIN7android8BpBinderE"
    },
    {
     "mangled_component_name":"_ZN7android7IBinder19queryLocalInterfaceERKNS_8String16E"
    },
    {
     "mangled_component_name":"_ZNK7android8BpBinder22getInterfaceDescriptorEv"
    },
    {
     "mangled_component_name":"_ZNK7android8BpBinder13isBinderAliveEv"
    },
    {
     "mangled_component_name":"_ZN7android8BpBinder10pingBinderEv"
    },
    {
     "mangled_component_name":"_ZN7android8BpBinder4dumpEiRKNS_6VectorINS_8String16EEE"
    },
    {
     "mangled_component_name":"_ZN7android8BpBinder8transactEjRKNS_6ParcelEPS1_j"
    },
    {
     "mangled_component_name":"_ZN7android8BpBinder11linkToDeathERKNS_2spINS_7IBinder14DeathRecipientEEEPvj"
    },
    {
     "mangled_component_name":"_ZN7android8BpBinder13unlinkToDeathERKNS_2wpINS_7IBinder14DeathRecipientEEEPvjPS4_"
    },
    {
     "mangled_component_name":"_ZNK7android7IBinder13checkSubclassEPKv"
    },
    {
     "mangled_component_name":"_ZN7android8BpBinder12attachObjectEPKvPvS3_PFvS2_S3_S3_E"
    },
    {
     "mangled_component_name":"_ZNK7android8BpBinder10findObjectEPKv"
    },
    {
     "mangled_component_name":"_ZN7android8BpBinder12detachObjectEPKv"
    },
    {
     "mangled_component_name":"_ZN7android7IBinder11localBinderEv"
    },
    {
     "mangled_component_name":"_ZN7android8BpBinder12remoteBinderEv"
    },
    {
     "kind":"complete_dtor_pointer",
     "mangled_component_name":"_ZN7android8BpBinderD1Ev"
    },
    {
     "kind":"deleting_dtor_pointer",
     "mangled_component_name":"_ZN7android8BpBinderD0Ev"
    },
    {
     "mangled_component_name":"_ZN7android8BpBinder10onFirstRefEv"
    },
    {
     "mangled_component_name":"_ZN7android8BpBinder15onLastStrongRefEPKv"
    },
    {
     "mangled_component_name":"_ZN7android8BpBinder20onIncStrongAttemptedEjPKv"
    },
    {
     "kind":"vcall_offset"
    },
    {
     "kind":"vcall_offset",
     "component_value":-136
    },
    {
     "kind":"vcall_offset",
     "component_value":-136
    },
    {
     "kind":"vcall_offset",
     "component_value":-136
    },
    {
     "kind":"vcall_offset",
     "component_value":-136
    },
    {
     "kind":"offset_to_top",
     "component_value":-136
    },
    {
     "kind":"rtti",
     "mangled_component_name":"_ZTIN7android8BpBinderE"
    },
    {
     "kind":"complete_dtor_pointer",
     "mangled_component_name":"_ZTv0_n24_N7android8BpBinderD1Ev"
    },
    {
     "kind":"deleting_dtor_pointer",
     "mangled_component_name":"_ZTv0_n24_N7android8BpBinderD0Ev"
    },
    {
     "mangled_component_name":"_ZTv0_n32_N7android8BpBinder10onFirstRefEv"
    },
    {
     "mangled_component_name":"_ZTv0_n40_N7android8BpBinder15onLastStrongRefEPKv"
    },
    {
     "mangled_component_name":"_ZTv0_n48_N7android8BpBinder20onIncStrongAttemptedEjPKv"
    },
    {
     "mangled_component_name":"_ZN7android7RefBase13onLastWeakRefEPKv"
    }
   ],
   "unique_id":"_ZTSN7android8BpBinderE"
  },
  {
   "vtable_components":[
    {
     "kind":"vbase_offset",
     "component_value":8
    },
    {
     "kind":"offset_to_top"
    },
    {
     "kind":"rtti",
     "mangled_component_name":"_ZTIN7android15IServiceManagerE"
    },
    {
     "kind":"complete_dtor_pointer",
     "mangled_component_name":"_ZN7android15IServiceManagerD1Ev"
    },
    {
     "kind":"deleting_dtor_pointer",
     "mangled_component_name":"_ZN7android15IServiceManagerD0Ev"
    },
    {
     "is_pure":true,
     "mangled_component_name":"_ZN7android10IInterface10onAsBinderEv"
    },
    {
     "mangled_component_name":"_ZNK7android15IServiceManager22getInterfaceDescriptorEv"
    },
    {
     "is_pure":true,
     "mangled_component_name":"_ZNK7android15IServiceManager10getServiceERKNS_8String16E"
    },
    {
     "is_pure":true,
     "mangled_component_name":"_ZNK7android15IServiceManager12checkServiceERKNS_8String16E"
    },
    {
     "is_pure":true,
     "mangled_component_name":"_ZN7android15IServiceManager10addServiceERKNS_8String16ERKNS_2spINS_7IBinderEEEbi"
    },
    {
     "is_pure":true,
     "mangled_component_name":"_ZN7android15IServiceManager12listServicesEi"
    },
    {
     "kind":"vcall_offset"
    },
    {
     "kind":"vcall_offset"
    },
    {
     "kind":"vcall_offset"
    },
    {
     "kind":"vcall_offset"
    },
    {
     "kind":"vcall_offset",
     "component_value":-8
    },
    {
     "kind":"offset_to_top",
     "component_value":-8
    },
    {
     "kind":"rtti",
     "mangled_component_name":"_ZTIN7android15IServiceManagerE"
    },
    {
     "kind":"complete_dtor_pointer",
     "mangled_component_name":"_ZTv0_n24_N7android15IServiceManagerD1Ev"
    },
    {
     "kind":"deleting_dtor_pointer",
     "mangled_component_name":"_ZTv0_n24_N7android15IServiceManagerD0Ev"
    },
    {
     "mangled_component_name":"_ZN7android7RefBase10onFirstRefEv"
    },
    {
     "mangled_component_name":"_ZN7android7RefBase15onLastStrongRefEPKv"
    },
    {
     "mangled_component_name":"_ZN7android7RefBase20onIncStrongAttemptedEjPKv"
    },
    {
     "mangled_component_name":"_ZN7android7RefBase13onLastWeakRefEPKv"
    }
   ],
   "unique_id":"_ZTSN7android15IServiceManagerE"
  },
  {
   "vtable_components":[
    {
     "kind":"vbase_offset",
     "component_value":8
    },
    {
     "kind":"offset_to_top"
    },
    {
     "kind":"rtti",
     "mangled_component_name":"_ZTIN7android14IShellCallbackE"
    },
    {
     "kind":"complete_dtor_pointer",
     "mangled_component_name":"_ZN7android14IShellCallbackD1Ev"
    },
    {
     "kind":"deleting_dtor_pointer",
     "mangled_component_name":"_ZN7android14IShellCallbackD0Ev"
    },
    {
     "is_pure":true,
     "mangled_component_name":"_ZN7android10IInterface10onAsBinderEv"
    },
    {
     "mangled_component_name":"_ZNK7android14IShellCallback22getInterfaceDescriptorEv"
    },
    {
     "is_pure":true,
     "mangled_component_name":"_ZN7android14IShellCallback8openFileERKNS_8String16ES3_S3_"
    },
    {
     "kind":"vcall_offset"
    },
    {
     "kind":"vcall_offset"
    },
    {
     "kind":"vcall_offset"
    },
    {
     "kind":"vcall_offset"
    },
    {
     "kind":"vcall_offset",
     "component_value":-8
    },
    {
     "kind":"offset_to_top",
     "component_value":-8
    },
    {
     "kind":"rtti",
     "mangled_component_name":"_ZTIN7android14IShellCallbackE"
    },
    {
     "kind":"complete_dtor_pointer",
     "mangled_component_name":"_ZTv0_n24_N7android14IShellCallbackD1Ev"
    },
    {
     "kind":"deleting_dtor_pointer",
     "mangled_component_name":"_ZTv0_n24_N7android14IShellCallbackD0Ev"
    },
    {
     "mangled_component_name":"_ZN7android7RefBase10onFirstRefEv"
    },
    {
     "mangled_component_name":"_ZN7android7RefBase15onLastStrongRefEPKv"
    },
    {
     "mangled_component_name":"_ZN7android7RefBase20onIncStrongAttemptedEjPKv"
    },
    {
     "mangled_component_name":"_ZN7android7RefBase13onLastWeakRefEPKv"
    }
   ],
   "unique_id":"_ZTSN7android14IShellCallbackE"
  },
  {
   "vtable_components":[
    {
     "kind":"vbase_offset",
     "component_value":32
    },
    {
     "kind":"offset_to_top"
    },
    {
     "kind":"rtti",
     "mangled_component_name":"_ZTIN7android15BnShellCallbackE"
    },
    {
     "kind":"complete_dtor_pointer",
     "mangled_component_name":"_ZN7android15BnShellCallbackD1Ev"
    },
    {
     "kind":"deleting_dtor_pointer",
     "mangled_component_name":"_ZN7android15BnShellCallbackD0Ev"
    },
    {
     "mangled_component_name":"_ZN7android11BnInterfaceINS_14IShellCallbackEE10onAsBinderEv"
    },
    {
     "mangled_component_name":"_ZNK7android11BnInterfaceINS_14IShellCallbackEE22getInterfaceDescriptorEv"
    },
    {
     "is_pure":true,
     "mangled_component_name":"_ZN7android14IShellCallback8openFileERKNS_8String16ES3_S3_"
    },
    {
     "mangled_component_name":"_ZN7android11BnInterfaceINS_14IShellCallbackEE19queryLocalInterfaceERKNS_8String16E"
    },
    {
     "mangled_component_name":"_ZN7android15BnShellCallback10onTransactEjRKNS_6ParcelEPS1_j"
    },
    {
     "kind":"vbase_offset",
     "component_value":24
    },
    {
     "kind":"offset_to_top",
     "component_value":-8
    },
    {
     "kind":"rtti",
     "mangled_component_name":"_ZTIN7android15BnShellCallbackE"
    },
    {
     "mangled_component_name":"_ZThn8_N7android11BnInterfaceINS_14IShellCallbackEE19queryLocalInterfaceERKNS_8String16E"
    },
    {
     "mangled_component_name":"_ZThn8_NK7android11BnInterfaceINS_14IShellCallbackEE22getInterfaceDescriptorEv"
    },
    {
     "mangled_component_name":"_ZNK7android7BBinder13isBinderAliveEv"
    },
    {
     "mangled_component_name":"_ZN7android7BBinder10pingBinderEv"
    },
    {
     "mangled_component_name":"_ZN7android7BBinder4dumpEiRKNS_6VectorINS_8String16EEE"
    },
    {
     "mangled_component_name":"_ZN7android7BBinder8transactEjRKNS_6ParcelEPS1_j"
    },
    {
     "mangled_component_name":"_ZN7android7BBinder11linkToDeathERKNS_2spINS_7IBinder14DeathRecipientEEEPvj"
    },
    {
     "mangled_component_name":"_ZN7android7BBinder13unlinkToDeathERKNS_2wpINS_7IBinder14DeathRecipientEEEPvjPS4_"
    },
    {
     "mangled_component_name":"_ZNK7android7IBinder13checkSubclassEPKv"
    },
    {
     "mangled_component_name":"_ZN7android7BBinder12attachObjectEPKvPvS3_PFvS2_S3_S3_E"
    },
    {
     "mangled_component_name":"_ZNK7android7BBinder10findObjectEPKv"
    },
    {
     "mangled_component_name":"_ZN7android7BBinder12detachObjectEPKv"
    },
    {
     "mangled_component_name":"_ZN7android7BBinder11localBinderEv"
    },
    {
     "mangled_component_name":"_ZN7android7IBinder12remoteBinderEv"
    },
    {
     "kind":"complete_dtor_pointer",
     "mangled_component_name":"_ZThn8_N7android15BnShellCallbackD1Ev"
    },
    {
     "kind":"deleting_dtor_pointer",
     "mangled_component_name":"_ZThn8_N7android15BnShellCallbackD0Ev"
    },
    {
     "mangled_component_name":"_ZThn8_N7android15BnShellCallback10onTransactEjRKNS_6ParcelEPS1_j"
    },
    {
     "kind":"vcall_offset"
    },
    {
     "kind":"vcall_offset"
    },
    {
     "kind":"vcall_offset"
    },
    {
     "kind":"vcall_offset"
    },
    {
     "kind":"vcall_offset",
     "component_value":-32
    },
    {
     "kind":"offset_to_top",
     "component_value":-32
    },
    {
     "kind":"rtti",
     "mangled_component_name":"_ZTIN7android15BnShellCallbackE"
    },
    {
     "kind":"complete_dtor_pointer",
     "mangled_component_name":"_ZTv0_n24_N7android15BnShellCallbackD1Ev"
    },
    {
     "kind":"deleting_dtor_pointer",
     "mangled_component_name":"_ZTv0_n24_N7android15BnShellCallbackD0Ev"
    },
    {
     "mangled_component_name":"_ZN7android7RefBase10onFirstRefEv"
    },
    {
     "mangled_component_name":"_ZN7android7RefBase15onLastStrongRefEPKv"
    },
    {
     "mangled_component_name":"_ZN7android7RefBase20onIncStrongAttemptedEjPKv"
    },
    {
     "mangled_component_name":"_ZN7android7RefBase13onLastWeakRefEPKv"
    }
   ],
   "unique_id":"_ZTSN7android15BnShellCallbackE"
  },
  {
   "vtable_components":[
    {
     "kind":"vbase_offset",
     "component_value":56
    },
    {
     "kind":"offset_to_top"
    },
    {
     "kind":"rtti",
     "mangled_component_name":"_ZTIN7android10MemoryBaseE"
    },
    {
     "kind":"complete_dtor_pointer",
     "mangled_component_name":"_ZN7android10MemoryBaseD1Ev"
    },
    {
     "kind":"deleting_dtor_pointer",
     "mangled_component_name":"_ZN7android10MemoryBaseD0Ev"
    },
    {
     "mangled_component_name":"_ZN7android11BnInterfaceINS_7IMemoryEE10onAsBinderEv"
    },
    {
     "mangled_component_name":"_ZNK7android11BnInterfaceINS_7IMemoryEE22getInterfaceDescriptorEv"
    },
    {
     "mangled_component_name":"_ZNK7android10MemoryBase9getMemoryEPlPm"
    },
    {
     "mangled_component_name":"_ZN7android11BnInterfaceINS_7IMemoryEE19queryLocalInterfaceERKNS_8String16E"
    },
    {
     "mangled_component_name":"_ZN7android8BnMemory10onTransactEjRKNS_6ParcelEPS1_j"
    },
    {
     "kind":"vbase_offset",
     "component_value":48
    },
    {
     "kind":"offset_to_top",
     "component_value":-8
    },
    {
     "kind":"rtti",
     "mangled_component_name":"_ZTIN7android10MemoryBaseE"
    },
    {
     "mangled_component_name":"_ZThn8_N7android11BnInterfaceINS_7IMemoryEE19queryLocalInterfaceERKNS_8String16E"
    },
    {
     "mangled_component_name":"_ZThn8_NK7android11BnInterfaceINS_7IMemoryEE22getInterfaceDescriptorEv"
    },
    {
     "mangled_component_name":"_ZNK7android7BBinder13isBinderAliveEv"
    },
    {
     "mangled_component_name":"_ZN7android7BBinder10pingBinderEv"
    },
    {
     "mangled_component_name":"_ZN7android7BBinder4dumpEiRKNS_6VectorINS_8String16EEE"
    },
    {
     "mangled_component_name":"_ZN7android7BBinder8transactEjRKNS_6ParcelEPS1_j"
    },
    {
     "mangled_component_name":"_ZN7android7BBinder11linkToDeathERKNS_2spINS_7IBinder14DeathRecipientEEEPvj"
    },
    {
     "mangled_component_name":"_ZN7android7BBinder13unlinkToDeathERKNS_2wpINS_7IBinder14DeathRecipientEEEPvjPS4_"
    },
    {
     "mangled_component_name":"_ZNK7android7IBinder13checkSubclassEPKv"
    },
    {
     "mangled_component_name":"_ZN7android7BBinder12attachObjectEPKvPvS3_PFvS2_S3_S3_E"
    },
    {
     "mangled_component_name":"_ZNK7android7BBinder10findObjectEPKv"
    },
    {
     "mangled_component_name":"_ZN7android7BBinder12detachObjectEPKv"
    },
    {
     "mangled_component_name":"_ZN7android7BBinder11localBinderEv"
    },
    {
     "mangled_component_name":"_ZN7android7IBinder12remoteBinderEv"
    },
    {
     "kind":"complete_dtor_pointer",
     "mangled_component_name":"_ZThn8_N7android10MemoryBaseD1Ev"
    },
    {
     "kind":"deleting_dtor_pointer",
     "mangled_component_name":"_ZThn8_N7android10MemoryBaseD0Ev"
    },
    {
     "mangled_component_name":"_ZThn8_N7android8BnMemory10onTransactEjRKNS_6ParcelEPS1_j"
    },
    {
     "kind":"vcall_offset"
    },
    {
     "kind":"vcall_offset"
    },
    {
     "kind":"vcall_offset"
    },
    {
     "kind":"vcall_offset"
    },
    {
     "kind":"vcall_offset",
     "component_value":-56
    },
    {
     "kind":"offset_to_top",
     "component_value":-56
    },
    {
     "kind":"rtti",
     "mangled_component_name":"_ZTIN7android10MemoryBaseE"
    },
    {
     "kind":"complete_dtor_pointer",
     "mangled_component_name":"_ZTv0_n24_N7android10MemoryBaseD1Ev"
    },
    {
     "kind":"deleting_dtor_pointer",
     "mangled_component_name":"_ZTv0_n24_N7android10MemoryBaseD0Ev"
    },
    {
     "mangled_component_name":"_ZN7android7RefBase10onFirstRefEv"
    },
    {
     "mangled_component_name":"_ZN7android7RefBase15onLastStrongRefEPKv"
    },
    {
     "mangled_component_name":"_ZN7android7RefBase20onIncStrongAttemptedEjPKv"
    },
    {
     "mangled_component_name":"_ZN7android7RefBase13onLastWeakRefEPKv"
    }
   ],
   "unique_id":"_ZTSN7android10MemoryBaseE"
  },
  {
   "vtable_components":[
    {
     "kind":"vbase_offset",
     "component_value":32
    },
    {
     "kind":"offset_to_top"
    },
    {
     "kind":"rtti",
     "mangled_component_name":"_ZTIN7android8BnMemoryE"
    },
    {
     "kind":"complete_dtor_pointer",
     "mangled_component_name":"_ZN7android8BnMemoryD1Ev"
    },
    {
     "kind":"deleting_dtor_pointer",
     "mangled_component_name":"_ZN7android8BnMemoryD0Ev"
    },
    {
     "mangled_component_name":"_ZN7android11BnInterfaceINS_7IMemoryEE10onAsBinderEv"
    },
    {
     "mangled_component_name":"_ZNK7android11BnInterfaceINS_7IMemoryEE22getInterfaceDescriptorEv"
    },
    {
     "is_pure":true,
     "mangled_component_name":"_ZNK7android7IMemory9getMemoryEPlPm"
    },
    {
     "mangled_component_name":"_ZN7android11BnInterfaceINS_7IMemoryEE19queryLocalInterfaceERKNS_8String16E"
    },
    {
     "mangled_component_name":"_ZN7android8BnMemory10onTransactEjRKNS_6ParcelEPS1_j"
    },
    {
     "kind":"vbase_offset",
     "component_value":24
    },
    {
     "kind":"offset_to_top",
     "component_value":-8
    },
    {
     "kind":"rtti",
     "mangled_component_name":"_ZTIN7android8BnMemoryE"
    },
    {
     "mangled_component_name":"_ZThn8_N7android11BnInterfaceINS_7IMemoryEE19queryLocalInterfaceERKNS_8String16E"
    },
    {
     "mangled_component_name":"_ZThn8_NK7android11BnInterfaceINS_7IMemoryEE22getInterfaceDescriptorEv"
    },
    {
     "mangled_component_name":"_ZNK7android7BBinder13isBinderAliveEv"
    },
    {
     "mangled_component_name":"_ZN7android7BBinder10pingBinderEv"
    },
    {
     "mangled_component_name":"_ZN7android7BBinder4dumpEiRKNS_6VectorINS_8String16EEE"
    },
    {
     "mangled_component_name":"_ZN7android7BBinder8transactEjRKNS_6ParcelEPS1_j"
    },
    {
     "mangled_component_name":"_ZN7android7BBinder11linkToDeathERKNS_2spINS_7IBinder14DeathRecipientEEEPvj"
    },
    {
     "mangled_component_name":"_ZN7android7BBinder13unlinkToDeathERKNS_2wpINS_7IBinder14DeathRecipientEEEPvjPS4_"
    },
    {
     "mangled_component_name":"_ZNK7android7IBinder13checkSubclassEPKv"
    },
    {
     "mangled_component_name":"_ZN7android7BBinder12attachObjectEPKvPvS3_PFvS2_S3_S3_E"
    },
    {
     "mangled_component_name":"_ZNK7android7BBinder10findObjectEPKv"
    },
    {
     "mangled_component_name":"_ZN7android7BBinder12detachObjectEPKv"
    },
    {
     "mangled_component_name":"_ZN7android7BBinder11localBinderEv"
    },
    {
     "mangled_component_name":"_ZN7android7IBinder12remoteBinderEv"
    },
    {
     "kind":"complete_dtor_pointer",
     "mangled_component_name":"_ZThn8_N7android8BnMemoryD1Ev"
    },
    {
     "kind":"deleting_dtor_pointer",
     "mangled_component_name":"_ZThn8_N7android8BnMemoryD0Ev"
    },
    {
     "mangled_component_name":"_ZThn8_N7android8BnMemory10onTransactEjRKNS_6ParcelEPS1_j"
    },
    {
     "kind":"vcall_offset"
    },
    {
     "kind":"vcall_offset"
    },
    {
     "kind":"vcall_offset"
    },
    {
     "kind":"vcall_offset"
    },
    {
     "kind":"vcall_offset",
     "component_value":-32
    },
    {
     "kind":"offset_to_top",
     "component_value":-32
    },
    {
     "kind":"rtti",
     "mangled_component_name":"_ZTIN7android8BnMemoryE"
    },
    {
     "kind":"complete_dtor_pointer",
     "mangled_component_name":"_ZTv0_n24_N7android8BnMemoryD1Ev"
    },
    {
     "kind":"deleting_dtor_pointer",
     "mangled_component_name":"_ZTv0_n24_N7android8BnMemoryD0Ev"
    },
    {
     "mangled_component_name":"_ZN7android7RefBase10onFirstRefEv"
    },
    {
     "mangled_component_name":"_ZN7android7RefBase15onLastStrongRefEPKv"
    },
    {
     "mangled_component_name":"_ZN7android7RefBase20onIncStrongAttemptedEjPKv"
    },
    {
     "mangled_component_name":"_ZN7android7RefBase13onLastWeakRefEPKv"
    }
   ],
   "unique_id":"_ZTSN7android8BnMemoryE"
  },
  {
   "vtable_components":[
    {
     "kind":"offset_to_top"
    },
    {
     "kind":"rtti",
     "mangled_component_name":"_ZTIN7android12MemoryDealerE"
    },
    {
     "kind":"complete_dtor_pointer",
     "mangled_component_name":"_ZN7android12MemoryDealerD1Ev"
    },
    {
     "kind":"deleting_dtor_pointer",
     "mangled_component_name":"_ZN7android12MemoryDealerD0Ev"
    },
    {
     "mangled_component_name":"_ZN7android7RefBase10onFirstRefEv"
    },
    {
     "mangled_component_name":"_ZN7android7RefBase15onLastStrongRefEPKv"
    },
    {
     "mangled_component_name":"_ZN7android7RefBase20onIncStrongAttemptedEjPKv"
    },
    {
     "mangled_component_name":"_ZN7android7RefBase13onLastWeakRefEPKv"
    },
    {
     "mangled_component_name":"_ZN7android12MemoryDealer8allocateEm"
    },
    {
     "mangled_component_name":"_ZN7android12MemoryDealer10deallocateEm"
    },
    {
     "mangled_component_name":"_ZNK7android12MemoryDealer4dumpEPKc"
    }
   ],
   "unique_id":"_ZTSN7android12MemoryDealerE"
  },
  {
   "vtable_components":[
    {
     "kind":"vbase_offset",
     "component_value":88
    },
    {
     "kind":"vbase_offset",
     "component_value":56
    },
    {
     "kind":"offset_to_top"
    },
    {
     "kind":"rtti",
     "mangled_component_name":"_ZTIN7android14MemoryHeapBaseE"
    },
    {
     "kind":"complete_dtor_pointer",
     "mangled_component_name":"_ZN7android14MemoryHeapBaseD1Ev"
    },
    {
     "kind":"deleting_dtor_pointer",
     "mangled_component_name":"_ZN7android14MemoryHeapBaseD0Ev"
    },
    {
     "mangled_component_name":"_ZNK7android14MemoryHeapBase9getHeapIDEv"
    },
    {
     "mangled_component_name":"_ZNK7android14MemoryHeapBase7getBaseEv"
    },
    {
     "mangled_component_name":"_ZNK7android14MemoryHeapBase7getSizeEv"
    },
    {
     "mangled_component_name":"_ZNK7android14MemoryHeapBase8getFlagsEv"
    },
    {
     "mangled_component_name":"_ZNK7android14MemoryHeapBase9getOffsetEv"
    },
    {
     "kind":"vcall_offset"
    },
    {
     "kind":"vcall_offset",
     "component_value":8
    },
    {
     "kind":"vcall_offset",
     "component_value":8
    },
    {
     "kind":"vcall_offset",
     "component_value":8
    },
    {
     "kind":"vcall_offset",
     "component_value":8
    },
    {
     "kind":"vcall_offset",
     "component_value":8
    },
    {
     "kind":"vcall_offset",
     "component_value":8
    },
    {
     "kind":"vcall_offset",
     "component_value":8
    },
    {
     "kind":"vcall_offset",
     "component_value":8
    },
    {
     "kind":"vcall_offset",
     "component_value":8
    },
    {
     "kind":"vcall_offset",
     "component_value":8
    },
    {
     "kind":"vcall_offset",
     "component_value":8
    },
    {
     "kind":"vcall_offset",
     "component_value":8
    },
    {
     "kind":"vcall_offset"
    },
    {
     "kind":"vcall_offset",
     "component_value":-56
    },
    {
     "kind":"vcall_offset",
     "component_value":-56
    },
    {
     "kind":"vcall_offset",
     "component_value":-56
    },
    {
     "kind":"vcall_offset",
     "component_value":-56
    },
    {
     "kind":"vcall_offset",
     "component_value":-56
    },
    {
     "kind":"vcall_offset"
    },
    {
     "kind":"vcall_offset"
    },
    {
     "kind":"vcall_offset",
     "component_value":-56
    },
    {
     "kind":"vbase_offset",
     "component_value":32
    },
    {
     "kind":"offset_to_top",
     "component_value":-56
    },
    {
     "kind":"rtti",
     "mangled_component_name":"_ZTIN7android14MemoryHeapBaseE"
    },
    {
     "kind":"complete_dtor_pointer",
     "mangled_component_name":"_ZTv0_n32_N7android14MemoryHeapBaseD1Ev"
    },
    {
     "kind":"deleting_dtor_pointer",
     "mangled_component_name":"_ZTv0_n32_N7android14MemoryHeapBaseD0Ev"
    },
    {
     "mangled_component_name":"_ZN7android11BnInterfaceINS_11IMemoryHeapEE10onAsBinderEv"
    },
    {
     "mangled_component_name":"_ZNK7android11BnInterfaceINS_11IMemoryHeapEE22getInterfaceDescriptorEv"
    },
    {
     "mangled_component_name":"_ZTv0_n56_NK7android14MemoryHeapBase9getHeapIDEv"
    },
    {
     "mangled_component_name":"_ZTv0_n64_NK7android14MemoryHeapBase7getBaseEv"
    },
    {
     "mangled_component_name":"_ZTv0_n72_NK7android14MemoryHeapBase7getSizeEv"
    },
    {
     "mangled_component_name":"_ZTv0_n80_NK7android14MemoryHeapBase8getFlagsEv"
    },
    {
     "mangled_component_name":"_ZTv0_n88_NK7android14MemoryHeapBase9getOffsetEv"
    },
    {
     "mangled_component_name":"_ZN7android11BnInterfaceINS_11IMemoryHeapEE19queryLocalInterfaceERKNS_8String16E"
    },
    {
     "mangled_component_name":"_ZN7android12BnMemoryHeap10onTransactEjRKNS_6ParcelEPS1_j"
    },
    {
     "kind":"vbase_offset",
     "component_value":24
    },
    {
     "kind":"offset_to_top",
     "component_value":-64
    },
    {
     "kind":"rtti",
     "mangled_component_name":"_ZTIN7android14MemoryHeapBaseE"
    },
    {
     "mangled_component_name":"_ZThn8_N7android11BnInterfaceINS_11IMemoryHeapEE19queryLocalInterfaceERKNS_8String16E"
    },
    {
     "mangled_component_name":"_ZThn8_NK7android11BnInterfaceINS_11IMemoryHeapEE22getInterfaceDescriptorEv"
    },
    {
     "mangled_component_name":"_ZNK7android7BBinder13isBinderAliveEv"
    },
    {
     "mangled_component_name":"_ZN7android7BBinder10pingBinderEv"
    },
    {
     "mangled_component_name":"_ZN7android7BBinder4dumpEiRKNS_6VectorINS_8String16EEE"
    },
    {
     "mangled_component_name":"_ZN7android7BBinder8transactEjRKNS_6ParcelEPS1_j"
    },
    {
     "mangled_component_name":"_ZN7android7BBinder11linkToDeathERKNS_2spINS_7IBinder14DeathRecipientEEEPvj"
    },
    {
     "mangled_component_name":"_ZN7android7BBinder13unlinkToDeathERKNS_2wpINS_7IBinder14DeathRecipientEEEPvjPS4_"
    },
    {
     "mangled_component_name":"_ZNK7android7IBinder13checkSubclassEPKv"
    },
    {
     "mangled_component_name":"_ZN7android7BBinder12attachObjectEPKvPvS3_PFvS2_S3_S3_E"
    },
    {
     "mangled_component_name":"_ZNK7android7BBinder10findObjectEPKv"
    },
    {
     "mangled_component_name":"_ZN7android7BBinder12detachObjectEPKv"
    },
    {
     "mangled_component_name":"_ZN7android7BBinder11localBinderEv"
    },
    {
     "mangled_component_name":"_ZN7android7IBinder12remoteBinderEv"
    },
    {
     "kind":"complete_dtor_pointer",
     "mangled_component_name":"_ZTvn8_n32_N7android14MemoryHeapBaseD1Ev"
    },
    {
     "kind":"deleting_dtor_pointer",
     "mangled_component_name":"_ZTvn8_n32_N7android14MemoryHeapBaseD0Ev"
    },
    {
     "mangled_component_name":"_ZThn8_N7android12BnMemoryHeap10onTransactEjRKNS_6ParcelEPS1_j"
    },
    {
     "kind":"vcall_offset"
    },
    {
     "kind":"vcall_offset"
    },
    {
     "kind":"vcall_offset"
    },
    {
     "kind":"vcall_offset"
    },
    {
     "kind":"vcall_offset",
     "component_value":-88
    },
    {
     "kind":"offset_to_top",
     "component_value":-88
    },
    {
     "kind":"rtti",
     "mangled_component_name":"_ZTIN7android14MemoryHeapBaseE"
    },
    {
     "kind":"complete_dtor_pointer",
     "mangled_component_name":"_ZTv0_n24_N7android14MemoryHeapBaseD1Ev"
    },
    {
     "kind":"deleting_dtor_pointer",
     "mangled_component_name":"_ZTv0_n24_N7android14MemoryHeapBaseD0Ev"
    },
    {
     "mangled_component_name":"_ZN7android7RefBase10onFirstRefEv"
    },
    {
     "mangled_component_name":"_ZN7android7RefBase15onLastStrongRefEPKv"
    },
    {
     "mangled_component_name":"_ZN7android7RefBase20onIncStrongAttemptedEjPKv"
    },
    {
     "mangled_component_name":"_ZN7android7RefBase13onLastWeakRefEPKv"
    }
   ],
   "unique_id":"_ZTSN7android14MemoryHeapBaseE"
  },
  {
   "vtable_components":[
    {
     "kind":"vbase_offset",
     "component_value":32
    },
    {
     "kind":"offset_to_top"
    },
    {
     "kind":"rtti",
     "mangled_component_name":"_ZTIN7android12BnMemoryHeapE"
    },
    {
     "kind":"complete_dtor_pointer",
     "mangled_component_name":"_ZN7android12BnMemoryHeapD1Ev"
    },
    {
     "kind":"deleting_dtor_pointer",
     "mangled_component_name":"_ZN7android12BnMemoryHeapD0Ev"
    },
    {
     "mangled_component_name":"_ZN7android11BnInterfaceINS_11IMemoryHeapEE10onAsBinderEv"
    },
    {
     "mangled_component_name":"_ZNK7android11BnInterfaceINS_11IMemoryHeapEE22getInterfaceDescriptorEv"
    },
    {
     "is_pure":true,
     "mangled_component_name":"_ZNK7android11IMemoryHeap9getHeapIDEv"
    },
    {
     "is_pure":true,
     "mangled_component_name":"_ZNK7android11IMemoryHeap7getBaseEv"
    },
    {
     "is_pure":true,
     "mangled_component_name":"_ZNK7android11IMemoryHeap7getSizeEv"
    },
    {
     "is_pure":true,
     "mangled_component_name":"_ZNK7android11IMemoryHeap8getFlagsEv"
    },
    {
     "is_pure":true,
     "mangled_component_name":"_ZNK7android11IMemoryHeap9getOffsetEv"
    },
    {
     "mangled_component_name":"_ZN7android11BnInterfaceINS_11IMemoryHeapEE19queryLocalInterfaceERKNS_8String16E"
    },
    {
     "mangled_component_name":"_ZN7android12BnMemoryHeap10onTransactEjRKNS_6ParcelEPS1_j"
    },
    {
     "kind":"vbase_offset",
     "component_value":24
    },
    {
     "kind":"offset_to_top",
     "component_value":-8
    },
    {
     "kind":"rtti",
     "mangled_component_name":"_ZTIN7android12BnMemoryHeapE"
    },
    {
     "mangled_component_name":"_ZThn8_N7android11BnInterfaceINS_11IMemoryHeapEE19queryLocalInterfaceERKNS_8String16E"
    },
    {
     "mangled_component_name":"_ZThn8_NK7android11BnInterfaceINS_11IMemoryHeapEE22getInterfaceDescriptorEv"
    },
    {
     "mangled_component_name":"_ZNK7android7BBinder13isBinderAliveEv"
    },
    {
     "mangled_component_name":"_ZN7android7BBinder10pingBinderEv"
    },
    {
     "mangled_component_name":"_ZN7android7BBinder4dumpEiRKNS_6VectorINS_8String16EEE"
    },
    {
     "mangled_component_name":"_ZN7android7BBinder8transactEjRKNS_6ParcelEPS1_j"
    },
    {
     "mangled_component_name":"_ZN7android7BBinder11linkToDeathERKNS_2spINS_7IBinder14DeathRecipientEEEPvj"
    },
    {
     "mangled_component_name":"_ZN7android7BBinder13unlinkToDeathERKNS_2wpINS_7IBinder14DeathRecipientEEEPvjPS4_"
    },
    {
     "mangled_component_name":"_ZNK7android7IBinder13checkSubclassEPKv"
    },
    {
     "mangled_component_name":"_ZN7android7BBinder12attachObjectEPKvPvS3_PFvS2_S3_S3_E"
    },
    {
     "mangled_component_name":"_ZNK7android7BBinder10findObjectEPKv"
    },
    {
     "mangled_component_name":"_ZN7android7BBinder12detachObjectEPKv"
    },
    {
     "mangled_component_name":"_ZN7android7BBinder11localBinderEv"
    },
    {
     "mangled_component_name":"_ZN7android7IBinder12remoteBinderEv"
    },
    {
     "kind":"complete_dtor_pointer",
     "mangled_component_name":"_ZThn8_N7android12BnMemoryHeapD1Ev"
    },
    {
     "kind":"deleting_dtor_pointer",
     "mangled_component_name":"_ZThn8_N7android12BnMemoryHeapD0Ev"
    },
    {
     "mangled_component_name":"_ZThn8_N7android12BnMemoryHeap10onTransactEjRKNS_6ParcelEPS1_j"
    },
    {
     "kind":"vcall_offset"
    },
    {
     "kind":"vcall_offset"
    },
    {
     "kind":"vcall_offset"
    },
    {
     "kind":"vcall_offset"
    },
    {
     "kind":"vcall_offset",
     "component_value":-32
    },
    {
     "kind":"offset_to_top",
     "component_value":-32
    },
    {
     "kind":"rtti",
     "mangled_component_name":"_ZTIN7android12BnMemoryHeapE"
    },
    {
     "kind":"complete_dtor_pointer",
     "mangled_component_name":"_ZTv0_n24_N7android12BnMemoryHeapD1Ev"
    },
    {
     "kind":"deleting_dtor_pointer",
     "mangled_component_name":"_ZTv0_n24_N7android12BnMemoryHeapD0Ev"
    },
    {
     "mangled_component_name":"_ZN7android7RefBase10onFirstRefEv"
    },
    {
     "mangled_component_name":"_ZN7android7RefBase15onLastStrongRefEPKv"
    },
    {
     "mangled_component_name":"_ZN7android7RefBase20onIncStrongAttemptedEjPKv"
    },
    {
     "mangled_component_name":"_ZN7android7RefBase13onLastWeakRefEPKv"
    }
   ],
   "unique_id":"_ZTSN7android12BnMemoryHeapE"
  },
  {
   "vtable_components":[
    {
     "kind":"offset_to_top"
    },
    {
     "kind":"rtti",
     "mangled_component_name":"_ZTIN7android6binder5ValueE"
    },
    {
     "kind":"complete_dtor_pointer",
     "mangled_component_name":"_ZN7android6binder5ValueD1Ev"
    },
    {
     "kind":"deleting_dtor_pointer",
     "mangled_component_name":"_ZN7android6binder5ValueD0Ev"
    }
   ],
   "unique_id":"_ZTSN7android6binder5ValueE"
  },
  {
   "vtable_components":[
    {
     "kind":"vbase_offset",
     "component_value":8
    },
    {
     "kind":"offset_to_top"
    },
    {
     "kind":"rtti",
     "mangled_component_name":"_ZTIN7android7IBinderE"
    },
    {
     "mangled_component_name":"_ZN7android7IBinder19queryLocalInterfaceERKNS_8String16E"
    },
    {
     "is_pure":true,
     "mangled_component_name":"_ZNK7android7IBinder22getInterfaceDescriptorEv"
    },
    {
     "is_pure":true,
     "mangled_component_name":"_ZNK7android7IBinder13isBinderAliveEv"
    },
    {
     "is_pure":true,
     "mangled_component_name":"_ZN7android7IBinder10pingBinderEv"
    },
    {
     "is_pure":true,
     "mangled_component_name":"_ZN7android7IBinder4dumpEiRKNS_6VectorINS_8String16EEE"
    },
    {
     "is_pure":true,
     "mangled_component_name":"_ZN7android7IBinder8transactEjRKNS_6ParcelEPS1_j"
    },
    {
     "is_pure":true,
     "mangled_component_name":"_ZN7android7IBinder11linkToDeathERKNS_2spINS0_14DeathRecipientEEEPvj"
    },
    {
     "is_pure":true,
     "mangled_component_name":"_ZN7android7IBinder13unlinkToDeathERKNS_2wpINS0_14DeathRecipientEEEPvjPS3_"
    },
    {
     "mangled_component_name":"_ZNK7android7IBinder13checkSubclassEPKv"
    },
    {
     "is_pure":true,
     "mangled_component_name":"_ZN7android7IBinder12attachObjectEPKvPvS3_PFvS2_S3_S3_E"
    },
    {
     "is_pure":true,
     "mangled_component_name":"_ZNK7android7IBinder10findObjectEPKv"
    },
    {
     "is_pure":true,
     "mangled_component_name":"_ZN7android7IBinder12detachObjectEPKv"
    },
    {
     "mangled_component_name":"_ZN7android7IBinder11localBinderEv"
    },
    {
     "mangled_component_name":"_ZN7android7IBinder12remoteBinderEv"
    },
    {
     "kind":"complete_dtor_pointer",
     "mangled_component_name":"_ZN7android7IBinderD1Ev"
    },
    {
     "kind":"deleting_dtor_pointer",
     "mangled_component_name":"_ZN7android7IBinderD0Ev"
    },
    {
     "kind":"vcall_offset"
    },
    {
     "kind":"vcall_offset"
    },
    {
     "kind":"vcall_offset"
    },
    {
     "kind":"vcall_offset"
    },
    {
     "kind":"vcall_offset",
     "component_value":-8
    },
    {
     "kind":"offset_to_top",
     "component_value":-8
    },
    {
     "kind":"rtti",
     "mangled_component_name":"_ZTIN7android7IBinderE"
    },
    {
     "kind":"complete_dtor_pointer",
     "mangled_component_name":"_ZTv0_n24_N7android7IBinderD1Ev"
    },
    {
     "kind":"deleting_dtor_pointer",
     "mangled_component_name":"_ZTv0_n24_N7android7IBinderD0Ev"
    },
    {
     "mangled_component_name":"_ZN7android7RefBase10onFirstRefEv"
    },
    {
     "mangled_component_name":"_ZN7android7RefBase15onLastStrongRefEPKv"
    },
    {
     "mangled_component_name":"_ZN7android7RefBase20onIncStrongAttemptedEjPKv"
    },
    {
     "mangled_component_name":"_ZN7android7RefBase13onLastWeakRefEPKv"
    }
   ],
   "unique_id":"_ZTSN7android7IBinderE"
  },
  {
   "vtable_components":[
    {
     "kind":"offset_to_top"
    },
    {
     "kind":"rtti",
     "mangled_component_name":"_ZTIN7android2os17PersistableBundleE"
    },
    {
     "kind":"complete_dtor_pointer",
     "mangled_component_name":"_ZN7android2os17PersistableBundleD1Ev"
    },
    {
     "kind":"deleting_dtor_pointer",
     "mangled_component_name":"_ZN7android2os17PersistableBundleD0Ev"
    },
    {
     "mangled_component_name":"_ZNK7android2os17PersistableBundle13writeToParcelEPNS_6ParcelE"
    },
    {
     "mangled_component_name":"_ZN7android2os17PersistableBundle14readFromParcelEPKNS_6ParcelE"
    }
   ],
   "unique_id":"_ZTSN7android2os17PersistableBundleE"
  },
  {
   "vtable_components":[
    {
     "kind":"offset_to_top"
    },
    {
     "kind":"rtti",
     "mangled_component_name":"_ZTIN7android6VectorINS_8BpBinder8ObituaryEEE"
    },
    {
     "kind":"complete_dtor_pointer",
     "mangled_component_name":"_ZN7android6VectorINS_8BpBinder8ObituaryEED1Ev"
    },
    {
     "kind":"deleting_dtor_pointer",
     "mangled_component_name":"_ZN7android6VectorINS_8BpBinder8ObituaryEED0Ev"
    },
    {
     "mangled_component_name":"_ZNK7android6VectorINS_8BpBinder8ObituaryEE12do_constructEPvm"
    },
    {
     "mangled_component_name":"_ZNK7android6VectorINS_8BpBinder8ObituaryEE10do_destroyEPvm"
    },
    {
     "mangled_component_name":"_ZNK7android6VectorINS_8BpBinder8ObituaryEE7do_copyEPvPKvm"
    },
    {
     "mangled_component_name":"_ZNK7android6VectorINS_8BpBinder8ObituaryEE8do_splatEPvPKvm"
    },
    {
     "mangled_component_name":"_ZNK7android6VectorINS_8BpBinder8ObituaryEE15do_move_forwardEPvPKvm"
    },
    {
     "mangled_component_name":"_ZNK7android6VectorINS_8BpBinder8ObituaryEE16do_move_backwardEPvPKvm"
    }
   ],
   "unique_id":"_ZTSN7android6VectorINS_8BpBinder8ObituaryEEE"
  },
  {
   "vtable_components":[
    {
     "kind":"offset_to_top"
    },
    {
     "kind":"rtti",
     "mangled_component_name":"_ZTIN7android10TextOutputE"
    },
    {
     "kind":"complete_dtor_pointer",
     "mangled_component_name":"_ZN7android10TextOutputD1Ev"
    },
    {
     "kind":"deleting_dtor_pointer",
     "mangled_component_name":"_ZN7android10TextOutputD0Ev"
    },
    {
     "is_pure":true,
     "mangled_component_name":"_ZN7android10TextOutput5printEPKcm"
    },
    {
     "is_pure":true,
     "mangled_component_name":"_ZN7android10TextOutput10moveIndentEi"
    },
    {
     "is_pure":true,
     "mangled_component_name":"_ZN7android10TextOutput10pushBundleEv"
    },
    {
     "is_pure":true,
     "mangled_component_name":"_ZN7android10TextOutput9popBundleEv"
    }
   ],
   "unique_id":"_ZTSN7android10TextOutputE"
  },
  {
   "vtable_components":[
    {
     "kind":"offset_to_top"
    },
    {
     "kind":"rtti",
     "mangled_component_name":"_ZTIN7android18BufferedTextOutputE"
    },
    {
     "kind":"complete_dtor_pointer",
     "mangled_component_name":"_ZN7android18BufferedTextOutputD1Ev"
    },
    {
     "kind":"deleting_dtor_pointer",
     "mangled_component_name":"_ZN7android18BufferedTextOutputD0Ev"
    },
    {
     "mangled_component_name":"_ZN7android18BufferedTextOutput5printEPKcm"
    },
    {
     "mangled_component_name":"_ZN7android18BufferedTextOutput10moveIndentEi"
    },
    {
     "mangled_component_name":"_ZN7android18BufferedTextOutput10pushBundleEv"
    },
    {
     "mangled_component_name":"_ZN7android18BufferedTextOutput9popBundleEv"
    },
    {
     "is_pure":true,
     "mangled_component_name":"_ZN7android18BufferedTextOutput10writeLinesERK5iovecm"
    }
   ],
   "unique_id":"_ZTSN7android18BufferedTextOutputE"
  },
  {
   "vtable_components":[
    {
     "kind":"offset_to_top"
    },
    {
     "kind":"rtti",
     "mangled_component_name":"_ZTIN7android6VectorIiEE"
    },
    {
     "kind":"complete_dtor_pointer",
     "mangled_component_name":"_ZN7android6VectorIiED1Ev"
    },
    {
     "kind":"deleting_dtor_pointer",
     "mangled_component_name":"_ZN7android6VectorIiED0Ev"
    },
    {
     "mangled_component_name":"_ZNK7android6VectorIiE12do_constructEPvm"
    },
    {
     "mangled_component_name":"_ZNK7android6VectorIiE10do_destroyEPvm"
    },
    {
     "mangled_component_name":"_ZNK7android6VectorIiE7do_copyEPvPKvm"
    },
    {
     "mangled_component_name":"_ZNK7android6VectorIiE8do_splatEPvPKvm"
    },
    {
     "mangled_component_name":"_ZNK7android6VectorIiE15do_move_forwardEPvPKvm"
    },
    {
     "mangled_component_name":"_ZNK7android6VectorIiE16do_move_backwardEPvPKvm"
    }
   ],
   "unique_id":"_ZTSN7android6VectorIiEE"
  },
  {
   "vtable_components":[
    {
     "kind":"offset_to_top"
    },
    {
     "kind":"rtti",
     "mangled_component_name":"_ZTIN7android6VectorINS_2spINS_18BufferedTextOutput11BufferStateEEEEE"
    },
    {
     "kind":"complete_dtor_pointer",
     "mangled_component_name":"_ZN7android6VectorINS_2spINS_18BufferedTextOutput11BufferStateEEEED1Ev"
    },
    {
     "kind":"deleting_dtor_pointer",
     "mangled_component_name":"_ZN7android6VectorINS_2spINS_18BufferedTextOutput11BufferStateEEEED0Ev"
    },
    {
     "mangled_component_name":"_ZNK7android6VectorINS_2spINS_18BufferedTextOutput11BufferStateEEEE12do_constructEPvm"
    },
    {
     "mangled_component_name":"_ZNK7android6VectorINS_2spINS_18BufferedTextOutput11BufferStateEEEE10do_destroyEPvm"
    },
    {
     "mangled_component_name":"_ZNK7android6VectorINS_2spINS_18BufferedTextOutput11BufferStateEEEE7do_copyEPvPKvm"
    },
    {
     "mangled_component_name":"_ZNK7android6VectorINS_2spINS_18BufferedTextOutput11BufferStateEEEE8do_splatEPvPKvm"
    },
    {
     "mangled_component_name":"_ZNK7android6VectorINS_2spINS_18BufferedTextOutput11BufferStateEEEE15do_move_forwardEPvPKvm"
    },
    {
     "mangled_component_name":"_ZNK7android6VectorINS_2spINS_18BufferedTextOutput11BufferStateEEEE16do_move_backwardEPvPKvm"
    }
   ],
   "unique_id":"_ZTSN7android6VectorINS_2spINS_18BufferedTextOutput11BufferStateEEEEE"
  }
 ],
 "elf_functions":[
  {
   "name":"_ZN7android10IInterface8asBinderEPKS0_"
  },
  {
   "name":"_ZN7android10IInterface8asBinderERKNS_2spIS0_EE"
  },
  {
   "name":"_ZN7android10IInterfaceC2Ev"
  },
  {
   "name":"_ZN7android10IInterfaceD0Ev"
  },
  {
   "name":"_ZN7android10IInterfaceD1Ev"
  },
  {
   "name":"_ZN7android10IInterfaceD2Ev"
  },
  {
   "name":"_ZN7android10MemoryBaseC1ERKNS_2spINS_11IMemoryHeapEEElm"
  },
  {
   "name":"_ZN7android10MemoryBaseC2ERKNS_2spINS_11IMemoryHeapEEElm"
  },
  {
   "name":"_ZN7android10MemoryBaseD0Ev"
  },
  {
   "name":"_ZN7android10MemoryBaseD1Ev"
  },
  {
   "name":"_ZN7android10MemoryBaseD2Ev"
  },
  {
   "name":"_ZN7android10TextOutputC2Ev"
  },
  {
   "name":"_ZN7android10TextOutputD0Ev"
  },
  {
   "name":"_ZN7android10TextOutputD1Ev"
  },
  {
   "name":"_ZN7android10TextOutputD2Ev"
  },
  {
   "binding":"weak",
   "name":"_ZN7android11BnInterfaceINS_11IMemoryHeapEE10onAsBinderEv"
  },
  {
   "binding":"weak",
   "name":"_ZN7android11BnInterfaceINS_14IShellCallbackEE10onAsBinderEv"
  },
  {
   "binding":"weak",
   "name":"_ZN7android11BnInterfaceINS_15IResultReceiverEE10onAsBinderEv"
  },
  {
   "binding":"weak",
   "name":"_ZN7android11BnInterfaceINS_7IMemoryEE10onAsBinderEv"
  },
  {
   "name":"_ZN7android11IMemoryHeap11asInterfaceERKNS_2spINS_7IBinderEEE"
  },
  {
   "name":"_ZN7android11IMemoryHeapC2Ev"
  },
  {
   "name":"_ZN7android11IMemoryHeapD0Ev"
  },
  {
   "name":"_ZN7android11IMemoryHeapD1Ev"
  },
  {
   "name":"_ZN7android11IMemoryHeapD2Ev"
  },
  {
   "name":"_ZN7android12BnMemoryHeap10onTransactEjRKNS_6ParcelEPS1_j"
  },
  {
   "name":"_ZN7android12BnMemoryHeapC2Ev"
  },
  {
   "name":"_ZN7android12BnMemoryHeapD0Ev"
  },
  {
   "name":"_ZN7android12BnMemoryHeapD1Ev"
  },
  {
   "name":"_ZN7android12BnMemoryHeapD2Ev"
  },
  {
   "name":"_ZN7android12MemoryDealer10deallocateEm"
  },
  {
   "name":"_ZN7android12MemoryDealer22getAllocationAlignmentEv"
  },
  {
   "name":"_ZN7android12MemoryDealer8allocateEm"
  },
  {
   "name":"_ZN7android12MemoryDealerC1EmPKcj"
  },
  {
   "name":"_ZN7android12MemoryDealerC2EmPKcj"
  },
  {
   "name":"_ZN7android12MemoryDealerD0Ev"
  },
  {
   "name":"_ZN7android12MemoryDealerD1Ev"
  },
  {
   "name":"_ZN7android12MemoryDealerD2Ev"
  },
  {
   "name":"_ZN7android12ProcessState10selfOrNullEv"
  },
  {
   "name":"_ZN7android12ProcessState13expungeHandleEiPNS_7IBinderE"
  },
  {
   "name":"_ZN7android12ProcessState13getDriverNameEv"
  },
  {
   "name":"_ZN7android12ProcessState14initWithDriverEPKc"
  },
  {
   "name":"_ZN7android12ProcessState15startThreadPoolEv"
  },
  {
   "name":"_ZN7android12ProcessState16getContextObjectERKNS_2spINS_7IBinderEEE"
  },
  {
   "name":"_ZN7android12ProcessState16getContextObjectERKNS_8String16ERKNS_2spINS_7IBinderEEE"
  },
  {
   "name":"_ZN7android12ProcessState16setContextObjectERKNS_2spINS_7IBinderEEE"
  },
  {
   "name":"_ZN7android12ProcessState16setContextObjectERKNS_2spINS_7IBinderEEERKNS_8String16E"
  },
  {
   "name":"_ZN7android12ProcessState17spawnPooledThreadEb"
  },
  {
   "name":"_ZN7android12ProcessState18giveThreadPoolNameEv"
  },
  {
   "name":"_ZN7android12ProcessState18lookupHandleLockedEi"
  },
  {
   "name":"_ZN7android12ProcessState19getKernelReferencesEmPm"
  },
  {
   "name":"_ZN7android12ProcessState20becomeContextManagerEPFbRKNS_8String16ERKNS_2spINS_7IBinderEEEPvES9_"
  },
  {
   "name":"_ZN7android12ProcessState20makeBinderThreadNameEv"
  },
  {
   "name":"_ZN7android12ProcessState21getWeakProxyForHandleEi"
  },
  {
   "name":"_ZN7android12ProcessState23getStrongProxyForHandleEi"
  },
  {
   "name":"_ZN7android12ProcessState27setThreadPoolMaxThreadCountEm"
  },
  {
   "name":"_ZN7android12ProcessState4selfEv"
  },
  {
   "name":"_ZN7android12ProcessStateC1EPKc"
  },
  {
   "name":"_ZN7android12ProcessStateC2EPKc"
  },
  {
   "name":"_ZN7android12ProcessStateD0Ev"
  },
  {
   "name":"_ZN7android12ProcessStateD1Ev"
  },
  {
   "name":"_ZN7android12ProcessStateD2Ev"
  },
  {
   "name":"_ZN7android14IPCThreadState10freeBufferEPNS_6ParcelEPKhmPKymPv"
  },
  {
   "name":"_ZN7android14IPCThreadState10selfOrNullEv"
  },
  {
   "name":"_ZN7android14IPCThreadState11clearCallerEv"
  },
  {
   "name":"_ZN7android14IPCThreadState11stopProcessEb"
  },
  {
   "name":"_ZN7android14IPCThreadState12setupPollingEPi"
  },
  {
   "name":"_ZN7android14IPCThreadState13decWeakHandleEi"
  },
  {
   "name":"_ZN7android14IPCThreadState13expungeHandleEiPNS_7IBinderE"
  },
  {
   "name":"_ZN7android14IPCThreadState13flushCommandsEv"
  },
  {
   "name":"_ZN7android14IPCThreadState13incWeakHandleEiPNS_8BpBinderE"
  },
  {
   "name":"_ZN7android14IPCThreadState14clearLastErrorEv"
  },
  {
   "name":"_ZN7android14IPCThreadState14executeCommandEi"
  },
  {
   "name":"_ZN7android14IPCThreadState14joinThreadPoolEb"
  },
  {
   "name":"_ZN7android14IPCThreadState14talkWithDriverEb"
  },
  {
   "name":"_ZN7android14IPCThreadState15decStrongHandleEi"
  },
  {
   "name":"_ZN7android14IPCThreadState15incStrongHandleEiPNS_8BpBinderE"
  },
  {
   "name":"_ZN7android14IPCThreadState15waitForResponseEPNS_6ParcelEPi"
  },
  {
   "name":"_ZN7android14IPCThreadState16threadDestructorEPv"
  },
  {
   "name":"_ZN7android14IPCThreadState19setStrictModePolicyEi"
  },
  {
   "name":"_ZN7android14IPCThreadState20clearCallingIdentityEv"
  },
  {
   "name":"_ZN7android14IPCThreadState20getAndExecuteCommandEv"
  },
  {
   "name":"_ZN7android14IPCThreadState20handlePolledCommandsEv"
  },
  {
   "name":"_ZN7android14IPCThreadState20processPendingDerefsEv"
  },
  {
   "name":"_ZN7android14IPCThreadState20writeTransactionDataEijijRKNS_6ParcelEPi"
  },
  {
   "name":"_ZN7android14IPCThreadState22attemptIncStrongHandleEi"
  },
  {
   "name":"_ZN7android14IPCThreadState22clearDeathNotificationEiPNS_8BpBinderE"
  },
  {
   "name":"_ZN7android14IPCThreadState22processPostWriteDerefsEv"
  },
  {
   "name":"_ZN7android14IPCThreadState22restoreCallingIdentityEl"
  },
  {
   "name":"_ZN7android14IPCThreadState24requestDeathNotificationEiPNS_8BpBinderE"
  },
  {
   "name":"_ZN7android14IPCThreadState25blockUntilThreadAvailableEv"
  },
  {
   "name":"_ZN7android14IPCThreadState27disableBackgroundSchedulingEb"
  },
  {
   "name":"_ZN7android14IPCThreadState28backgroundSchedulingDisabledEv"
  },
  {
   "name":"_ZN7android14IPCThreadState29setLastTransactionBinderFlagsEi"
  },
  {
   "name":"_ZN7android14IPCThreadState4selfEv"
  },
  {
   "name":"_ZN7android14IPCThreadState7processEv"
  },
  {
   "name":"_ZN7android14IPCThreadState8shutdownEv"
  },
  {
   "name":"_ZN7android14IPCThreadState8transactEijRKNS_6ParcelEPS1_j"
  },
  {
   "name":"_ZN7android14IPCThreadState9sendReplyERKNS_6ParcelEj"
  },
  {
   "name":"_ZN7android14IPCThreadStateC1Ev"
  },
  {
   "name":"_ZN7android14IPCThreadStateC2Ev"
  },
  {
   "name":"_ZN7android14IPCThreadStateD1Ev"
  },
  {
   "name":"_ZN7android14IPCThreadStateD2Ev"
  },
  {
   "name":"_ZN7android14IShellCallback11asInterfaceERKNS_2spINS_7IBinderEEE"
  },
  {
   "name":"_ZN7android14IShellCallbackC2Ev"
  },
  {
   "name":"_ZN7android14IShellCallbackD0Ev"
  },
  {
   "name":"_ZN7android14IShellCallbackD1Ev"
  },
  {
   "name":"_ZN7android14IShellCallbackD2Ev"
  },
  {
   "name":"_ZN7android14MemoryHeapBase4initEiPviiPKc"
  },
  {
   "name":"_ZN7android14MemoryHeapBase5mapfdEimj"
  },
  {
   "name":"_ZN7android14MemoryHeapBase7disposeEv"
  },
  {
   "name":"_ZN7android14MemoryHeapBaseC1EPKcmj"
  },
  {
   "name":"_ZN7android14MemoryHeapBaseC1Eimjj"
  },
  {
   "name":"_ZN7android14MemoryHeapBaseC1EmjPKc"
  },
  {
   "name":"_ZN7android14MemoryHeapBaseC1Ev"
  },
  {
   "name":"_ZN7android14MemoryHeapBaseC2EPKcmj"
  },
  {
   "name":"_ZN7android14MemoryHeapBaseC2Eimjj"
  },
  {
   "name":"_ZN7android14MemoryHeapBaseC2EmjPKc"
  },
  {
   "name":"_ZN7android14MemoryHeapBaseC2Ev"
  },
  {
   "name":"_ZN7android14MemoryHeapBaseD0Ev"
  },
  {
   "name":"_ZN7android14MemoryHeapBaseD1Ev"
  },
  {
   "name":"_ZN7android14MemoryHeapBaseD2Ev"
  },
  {
   "name":"_ZN7android14acquire_objectERKNS_2spINS_12ProcessStateEEERK18flat_binder_objectPKv"
  },
  {
   "name":"_ZN7android14release_objectERKNS_2spINS_12ProcessStateEEERK18flat_binder_objectPKv"
  },
  {
   "name":"_ZN7android15BnShellCallback10onTransactEjRKNS_6ParcelEPS1_j"
  },
  {
   "name":"_ZN7android15IResultReceiver11asInterfaceERKNS_2spINS_7IBinderEEE"
  },
  {
   "name":"_ZN7android15IResultReceiverC2Ev"
  },
  {
   "name":"_ZN7android15IResultReceiverD0Ev"
  },
  {
   "name":"_ZN7android15IResultReceiverD1Ev"
  },
  {
   "name":"_ZN7android15IResultReceiverD2Ev"
  },
  {
   "name":"_ZN7android15IServiceManager11asInterfaceERKNS_2spINS_7IBinderEEE"
  },
  {
   "name":"_ZN7android15IServiceManagerC2Ev"
  },
  {
   "name":"_ZN7android15IServiceManagerD0Ev"
  },
  {
   "name":"_ZN7android15IServiceManagerD1Ev"
  },
  {
   "name":"_ZN7android15IServiceManagerD2Ev"
  },
  {
   "name":"_ZN7android16BnResultReceiver10onTransactEjRKNS_6ParcelEPS1_j"
  },
  {
   "name":"_ZN7android18BufferedTextOutput10moveIndentEi"
  },
  {
   "name":"_ZN7android18BufferedTextOutput10pushBundleEv"
  },
  {
   "name":"_ZN7android18BufferedTextOutput14getThreadStateEv"
  },
  {
   "name":"_ZN7android18BufferedTextOutput16threadDestructorEPv"
  },
  {
   "name":"_ZN7android18BufferedTextOutput5printEPKcm"
  },
  {
   "name":"_ZN7android18BufferedTextOutput9popBundleEv"
  },
  {
   "name":"_ZN7android18BufferedTextOutputC2Ej"
  },
  {
   "name":"_ZN7android18BufferedTextOutputD0Ev"
  },
  {
   "name":"_ZN7android18BufferedTextOutputD1Ev"
  },
  {
   "name":"_ZN7android18BufferedTextOutputD2Ev"
  },
  {
   "name":"_ZN7android21defaultServiceManagerEv"
  },
  {
   "name":"_ZN7android2os17PersistableBundle10putBooleanERKNS_8String16Eb"
  },
  {
   "name":"_ZN7android2os17PersistableBundle12putIntVectorERKNS_8String16ERKNSt3__16vectorIiNS5_9allocatorIiEEEE"
  },
  {
   "name":"_ZN7android2os17PersistableBundle13putLongVectorERKNS_8String16ERKNSt3__16vectorIlNS5_9allocatorIlEEEE"
  },
  {
   "name":"_ZN7android2os17PersistableBundle14readFromParcelEPKNS_6ParcelE"
  },
  {
   "name":"_ZN7android2os17PersistableBundle15putDoubleVectorERKNS_8String16ERKNSt3__16vectorIdNS5_9allocatorIdEEEE"
  },
  {
   "name":"_ZN7android2os17PersistableBundle15putStringVectorERKNS_8String16ERKNSt3__16vectorIS2_NS5_9allocatorIS2_EEEE"
  },
  {
   "name":"_ZN7android2os17PersistableBundle16putBooleanVectorERKNS_8String16ERKNSt3__16vectorIbNS5_9allocatorIbEEEE"
  },
  {
   "name":"_ZN7android2os17PersistableBundle19readFromParcelInnerEPKNS_6ParcelEm"
  },
  {
   "name":"_ZN7android2os17PersistableBundle20putPersistableBundleERKNS_8String16ERKS1_"
  },
  {
   "name":"_ZN7android2os17PersistableBundle5eraseERKNS_8String16E"
  },
  {
   "name":"_ZN7android2os17PersistableBundle6putIntERKNS_8String16Ei"
  },
  {
   "name":"_ZN7android2os17PersistableBundle7putLongERKNS_8String16El"
  },
  {
   "name":"_ZN7android2os17PersistableBundle9putDoubleERKNS_8String16Ed"
  },
  {
   "name":"_ZN7android2os17PersistableBundle9putStringERKNS_8String16ES4_"
  },
  {
   "binding":"weak",
   "name":"_ZN7android2spINS_12ProcessStateEED2Ev"
  },
  {
   "binding":"weak",
   "name":"_ZN7android2spINS_15IServiceManagerEED2Ev"
  },
  {
   "binding":"weak",
   "name":"_ZN7android2spINS_7BBinderEED2Ev"
  },
  {
   "binding":"weak",
   "name":"_ZN7android2spINS_9HeapCacheEED2Ev"
  },
  {
   "name":"_ZN7android6Parcel10appendFromEPKS0_mm"
  },
  {
   "name":"_ZN7android6Parcel10writeFloatEf"
  },
  {
   "name":"_ZN7android6Parcel10writeInt32Ei"
  },
  {
   "name":"_ZN7android6Parcel10writeInt64El"
  },
  {
   "name":"_ZN7android6Parcel10writeValueERKNS_6binder5ValueE"
  },
  {
   "name":"_ZN7android6Parcel11compareDataERKS0_"
  },
  {
   "name":"_ZN7android6Parcel11finishWriteEm"
  },
  {
   "name":"_ZN7android6Parcel11setDataSizeEm"
  },
  {
   "name":"_ZN7android6Parcel11writeDoubleEd"
  },
  {
   "name":"_ZN7android6Parcel11writeObjectERK18flat_binder_objectb"
  },
  {
   "name":"_ZN7android6Parcel11writeUint32Ej"
  },
  {
   "name":"_ZN7android6Parcel11writeUint64Em"
  },
  {
   "name":"_ZN7android6Parcel12pushAllowFdsEb"
  },
  {
   "name":"_ZN7android6Parcel12restartWriteEm"
  },
  {
   "binding":"weak",
   "name":"_ZN7android6Parcel12writeAlignedIdEEiT_"
  },
  {
   "binding":"weak",
   "name":"_ZN7android6Parcel12writeAlignedIfEEiT_"
  },
  {
   "binding":"weak",
   "name":"_ZN7android6Parcel12writeAlignedIiEEiT_"
  },
  {
   "binding":"weak",
   "name":"_ZN7android6Parcel12writeAlignedIjEEiT_"
  },
  {
   "binding":"weak",
   "name":"_ZN7android6Parcel12writeAlignedIlEEiT_"
  },
  {
   "binding":"weak",
   "name":"_ZN7android6Parcel12writeAlignedImEEiT_"
  },
  {
   "binding":"weak",
   "name":"_ZN7android6Parcel12writeAlignedIyEEiT_"
  },
  {
   "name":"_ZN7android6Parcel12writeCStringEPKc"
  },
  {
   "name":"_ZN7android6Parcel12writeInplaceEm"
  },
  {
   "name":"_ZN7android6Parcel12writePointerEm"
  },
  {
   "name":"_ZN7android6Parcel12writeString8ERKNS_7String8E"
  },
  {
   "name":"_ZN7android6Parcel13continueWriteEm"
  },
  {
   "name":"_ZN7android6Parcel13writeString16EPKDsm"
  },
  {
   "name":"_ZN7android6Parcel13writeString16ERKNS_8String16E"
  },
  {
   "name":"_ZN7android6Parcel13writeString16ERKNSt3__110unique_ptrINS_8String16ENS1_14default_deleteIS3_EEEE"
  },
  {
   "name":"_ZN7android6Parcel13writeUnpaddedEPKvm"
  },
  {
   "name":"_ZN7android6Parcel14acquireObjectsEv"
  },
  {
   "name":"_ZN7android6Parcel14freeDataNoInitEv"
  },
  {
   "name":"_ZN7android6Parcel14releaseObjectsEv"
  },
  {
   "name":"_ZN7android6Parcel14writeByteArrayEmPKh"
  },
  {
   "name":"_ZN7android6Parcel15restoreAllowFdsEb"
  },
  {
   "name":"_ZN7android6Parcel15setDataCapacityEm"
  },
  {
   "name":"_ZN7android6Parcel15writeBoolVectorERKNSt3__110unique_ptrINS1_6vectorIbNS1_9allocatorIbEEEENS1_14default_deleteIS6_EEEE"
  },
  {
   "name":"_ZN7android6Parcel15writeBoolVectorERKNSt3__16vectorIbNS1_9allocatorIbEEEE"
  },
  {
   "name":"_ZN7android6Parcel15writeByteVectorERKNSt3__110unique_ptrINS1_6vectorIaNS1_9allocatorIaEEEENS1_14default_deleteIS6_EEEE"
  },
  {
   "name":"_ZN7android6Parcel15writeByteVectorERKNSt3__110unique_ptrINS1_6vectorIhNS1_9allocatorIhEEEENS1_14default_deleteIS6_EEEE"
  },
  {
   "name":"_ZN7android6Parcel15writeByteVectorERKNSt3__16vectorIaNS1_9allocatorIaEEEE"
  },
  {
   "name":"_ZN7android6Parcel15writeByteVectorERKNSt3__16vectorIhNS1_9allocatorIhEEEE"
  },
  {
   "name":"_ZN7android6Parcel15writeCharVectorERKNSt3__110unique_ptrINS1_6vectorIDsNS1_9allocatorIDsEEEENS1_14default_deleteIS6_EEEE"
  },
  {
   "name":"_ZN7android6Parcel15writeCharVectorERKNSt3__16vectorIDsNS1_9allocatorIDsEEEE"
  },
  {
   "name":"_ZN7android6Parcel15writeInt32ArrayEmPKi"
  },
  {
   "name":"_ZN7android6Parcel15writeParcelableERKNS_10ParcelableE"
  },
  {
   "name":"_ZN7android6Parcel15writeWeakBinderERKNS_2wpINS_7IBinderEEE"
  },
  {
   "name":"_ZN7android6Parcel16writeFloatVectorERKNSt3__110unique_ptrINS1_6vectorIfNS1_9allocatorIfEEEENS1_14default_deleteIS6_EEEE"
  },
  {
   "name":"_ZN7android6Parcel16writeFloatVectorERKNSt3__16vectorIfNS1_9allocatorIfEEEE"
  },
  {
   "name":"_ZN7android6Parcel16writeInt32VectorERKNSt3__110unique_ptrINS1_6vectorIiNS1_9allocatorIiEEEENS1_14default_deleteIS6_EEEE"
  },
  {
   "name":"_ZN7android6Parcel16writeInt32VectorERKNSt3__16vectorIiNS1_9allocatorIiEEEE"
  },
  {
   "name":"_ZN7android6Parcel16writeInt64VectorERKNSt3__110unique_ptrINS1_6vectorIlNS1_9allocatorIlEEEENS1_14default_deleteIS6_EEEE"
  },
  {
   "name":"_ZN7android6Parcel16writeInt64VectorERKNSt3__16vectorIlNS1_9allocatorIlEEEE"
  },
  {
   "name":"_ZN7android6Parcel16writeNoExceptionEv"
  },
  {
   "name":"_ZN7android6Parcel16writeNullableMapERKNSt3__110unique_ptrINS1_3mapINS1_12basic_stringIcNS1_11char_traitsIcEENS1_9allocatorIcEEEENS_6binder5ValueENS1_4lessIS9_EENS7_INS1_4pairIKS9_SB_EEEEEENS1_14default_deleteISI_EEEE"
  },
  {
   "name":"_ZN7android6Parcel16writeUtf8AsUtf16ERKNSt3__110unique_ptrINS1_12basic_stringIcNS1_11char_traitsIcEENS1_9allocatorIcEEEENS1_14default_deleteIS8_EEEE"
  },
  {
   "name":"_ZN7android6Parcel16writeUtf8AsUtf16ERKNSt3__112basic_stringIcNS1_11char_traitsIcEENS1_9allocatorIcEEEE"
  },
  {
   "name":"_ZN7android6Parcel17writeDoubleVectorERKNSt3__110unique_ptrINS1_6vectorIdNS1_9allocatorIdEEEENS1_14default_deleteIS6_EEEE"
  },
  {
   "name":"_ZN7android6Parcel17writeDoubleVectorERKNSt3__16vectorIdNS1_9allocatorIdEEEE"
  },
  {
   "name":"_ZN7android6Parcel17writeNativeHandleEPK13native_handle"
  },
  {
   "name":"_ZN7android6Parcel17writeStrongBinderERKNS_2spINS_7IBinderEEE"
  },
  {
   "name":"_ZN7android6Parcel18getGlobalAllocSizeEv"
  },
  {
   "name":"_ZN7android6Parcel19getGlobalAllocCountEv"
  },
  {
   "name":"_ZN7android6Parcel19ipcSetDataReferenceEPKhmPKymPFvPS0_S2_mS4_mPvES6_"
  },
  {
   "name":"_ZN7android6Parcel19writeFileDescriptorEib"
  },
  {
   "name":"_ZN7android6Parcel19writeInterfaceTokenERKNS_8String16E"
  },
  {
   "name":"_ZN7android6Parcel19writeString16VectorERKNSt3__110unique_ptrINS1_6vectorINS2_INS_8String16ENS1_14default_deleteIS4_EEEENS1_9allocatorIS7_EEEENS5_ISA_EEEE"
  },
  {
   "name":"_ZN7android6Parcel19writeString16VectorERKNSt3__16vectorINS_8String16ENS1_9allocatorIS3_EEEE"
  },
  {
   "name":"_ZN7android6Parcel20closeFileDescriptorsEv"
  },
  {
   "name":"_ZN7android6Parcel22writeDupFileDescriptorEi"
  },
  {
   "name":"_ZN7android6Parcel23writeStrongBinderVectorERKNSt3__110unique_ptrINS1_6vectorINS_2spINS_7IBinderEEENS1_9allocatorIS6_EEEENS1_14default_deleteIS9_EEEE"
  },
  {
   "name":"_ZN7android6Parcel23writeStrongBinderVectorERKNSt3__16vectorINS_2spINS_7IBinderEEENS1_9allocatorIS5_EEEE"
  },
  {
   "name":"_ZN7android6Parcel25writeParcelFileDescriptorEib"
  },
  {
   "name":"_ZN7android6Parcel25writeUniqueFileDescriptorERKNS_4base14unique_fd_implINS1_13DefaultCloserEEE"
  },
  {
   "name":"_ZN7android6Parcel26writeRawNullableParcelableEPKNS_10ParcelableE"
  },
  {
   "name":"_ZN7android6Parcel28writeUtf8VectorAsUtf16VectorERKNSt3__110unique_ptrINS1_6vectorINS2_INS1_12basic_stringIcNS1_11char_traitsIcEENS1_9allocatorIcEEEENS1_14default_deleteIS9_EEEENS7_ISC_EEEENSA_ISE_EEEE"
  },
  {
   "name":"_ZN7android6Parcel28writeUtf8VectorAsUtf16VectorERKNSt3__16vectorINS1_12basic_stringIcNS1_11char_traitsIcEENS1_9allocatorIcEEEENS6_IS8_EEEE"
  },
  {
   "name":"_ZN7android6Parcel31writeUniqueFileDescriptorVectorERKNSt3__110unique_ptrINS1_6vectorINS_4base14unique_fd_implINS4_13DefaultCloserEEENS1_9allocatorIS7_EEEENS1_14default_deleteISA_EEEE"
  },
  {
   "name":"_ZN7android6Parcel31writeUniqueFileDescriptorVectorERKNSt3__16vectorINS_4base14unique_fd_implINS3_13DefaultCloserEEENS1_9allocatorIS6_EEEE"
  },
  {
   "name":"_ZN7android6Parcel35writeDupImmutableBlobFileDescriptorEi"
  },
  {
   "name":"_ZN7android6Parcel4Blob4initEiPvmb"
  },
  {
   "name":"_ZN7android6Parcel4Blob5clearEv"
  },
  {
   "name":"_ZN7android6Parcel4Blob7releaseEv"
  },
  {
   "name":"_ZN7android6Parcel4BlobC1Ev"
  },
  {
   "name":"_ZN7android6Parcel4BlobC2Ev"
  },
  {
   "name":"_ZN7android6Parcel4BlobD1Ev"
  },
  {
   "name":"_ZN7android6Parcel4BlobD2Ev"
  },
  {
   "name":"_ZN7android6Parcel5writeEPKvm"
  },
  {
   "name":"_ZN7android6Parcel5writeERKNS0_26FlattenableHelperInterfaceE"
  },
  {
   "name":"_ZN7android6Parcel6removeEmm"
  },
  {
   "name":"_ZN7android6Parcel7setDataEPKhm"
  },
  {
   "name":"_ZN7android6Parcel8freeDataEv"
  },
  {
   "name":"_ZN7android6Parcel8growDataEm"
  },
  {
   "name":"_ZN7android6Parcel8setErrorEi"
  },
  {
   "name":"_ZN7android6Parcel8writeMapERKNSt3__13mapINS1_12basic_stringIcNS1_11char_traitsIcEENS1_9allocatorIcEEEENS_6binder5ValueENS1_4lessIS8_EENS6_INS1_4pairIKS8_SA_EEEEEE"
  },
  {
   "name":"_ZN7android6Parcel9initStateEv"
  },
  {
   "name":"_ZN7android6Parcel9writeBlobEmbPNS0_12WritableBlobE"
  },
  {
   "name":"_ZN7android6Parcel9writeBoolEb"
  },
  {
   "name":"_ZN7android6Parcel9writeByteEa"
  },
  {
   "name":"_ZN7android6Parcel9writeCharEDs"
  },
  {
   "name":"_ZN7android6ParcelC1Ev"
  },
  {
   "name":"_ZN7android6ParcelC2Ev"
  },
  {
   "name":"_ZN7android6ParcelD1Ev"
  },
  {
   "name":"_ZN7android6ParcelD2Ev"
  },
  {
   "name":"_ZN7android6binder5Value10putBooleanERKb"
  },
  {
   "name":"_ZN7android6binder5Value12putIntVectorERKNSt3__16vectorIiNS2_9allocatorIiEEEE"
  },
  {
   "name":"_ZN7android6binder5Value13putByteVectorERKNSt3__16vectorIhNS2_9allocatorIhEEEE"
  },
  {
   "name":"_ZN7android6binder5Value13putLongVectorERKNSt3__16vectorIlNS2_9allocatorIlEEEE"
  },
  {
   "name":"_ZN7android6binder5Value14readFromParcelEPKNS_6ParcelE"
  },
  {
   "name":"_ZN7android6binder5Value15putDoubleVectorERKNSt3__16vectorIdNS2_9allocatorIdEEEE"
  },
  {
   "name":"_ZN7android6binder5Value15putStringVectorERKNSt3__16vectorINS_8String16ENS2_9allocatorIS4_EEEE"
  },
  {
   "name":"_ZN7android6binder5Value16putBooleanVectorERKNSt3__16vectorIbNS2_9allocatorIbEEEE"
  },
  {
   "name":"_ZN7android6binder5Value20putPersistableBundleERKNS_2os17PersistableBundleE"
  },
  {
   "name":"_ZN7android6binder5Value4swapERS1_"
  },
  {
   "name":"_ZN7android6binder5Value5clearEv"
  },
  {
   "name":"_ZN7android6binder5Value6putIntERKi"
  },
  {
   "name":"_ZN7android6binder5Value6putMapERKNSt3__13mapINS2_12basic_stringIcNS2_11char_traitsIcEENS2_9allocatorIcEEEES1_NS2_4lessIS9_EENS7_INS2_4pairIKS9_S1_EEEEEE"
  },
  {
   "name":"_ZN7android6binder5Value7putByteERKa"
  },
  {
   "name":"_ZN7android6binder5Value7putLongERKl"
  },
  {
   "name":"_ZN7android6binder5Value9putDoubleERKd"
  },
  {
   "name":"_ZN7android6binder5Value9putStringERKNS_8String16E"
  },
  {
   "name":"_ZN7android6binder5ValueC1ERKNS_2os17PersistableBundleE"
  },
  {
   "name":"_ZN7android6binder5ValueC1ERKNS_8String16E"
  },
  {
   "name":"_ZN7android6binder5ValueC1ERKNSt3__13mapINS2_12basic_stringIcNS2_11char_traitsIcEENS2_9allocatorIcEEEES1_NS2_4lessIS9_EENS7_INS2_4pairIKS9_S1_EEEEEE"
  },
  {
   "name":"_ZN7android6binder5ValueC1ERKNSt3__16vectorINS_8String16ENS2_9allocatorIS4_EEEE"
  },
  {
   "name":"_ZN7android6binder5ValueC1ERKNSt3__16vectorIbNS2_9allocatorIbEEEE"
  },
  {
   "name":"_ZN7android6binder5ValueC1ERKNSt3__16vectorIdNS2_9allocatorIdEEEE"
  },
  {
   "name":"_ZN7android6binder5ValueC1ERKNSt3__16vectorIhNS2_9allocatorIhEEEE"
  },
  {
   "name":"_ZN7android6binder5ValueC1ERKNSt3__16vectorIiNS2_9allocatorIiEEEE"
  },
  {
   "name":"_ZN7android6binder5ValueC1ERKNSt3__16vectorIlNS2_9allocatorIlEEEE"
  },
  {
   "name":"_ZN7android6binder5ValueC1ERKS1_"
  },
  {
   "name":"_ZN7android6binder5ValueC1ERKa"
  },
  {
   "name":"_ZN7android6binder5ValueC1ERKb"
  },
  {
   "name":"_ZN7android6binder5ValueC1ERKd"
  },
  {
   "name":"_ZN7android6binder5ValueC1ERKi"
  },
  {
   "name":"_ZN7android6binder5ValueC1ERKl"
  },
  {
   "name":"_ZN7android6binder5ValueC1Ev"
  },
  {
   "name":"_ZN7android6binder5ValueC2ERKNS_2os17PersistableBundleE"
  },
  {
   "name":"_ZN7android6binder5ValueC2ERKNS_8String16E"
  },
  {
   "name":"_ZN7android6binder5ValueC2ERKNSt3__13mapINS2_12basic_stringIcNS2_11char_traitsIcEENS2_9allocatorIcEEEES1_NS2_4lessIS9_EENS7_INS2_4pairIKS9_S1_EEEEEE"
  },
  {
   "name":"_ZN7android6binder5ValueC2ERKNSt3__16vectorINS_8String16ENS2_9allocatorIS4_EEEE"
  },
  {
   "name":"_ZN7android6binder5ValueC2ERKNSt3__16vectorIbNS2_9allocatorIbEEEE"
  },
  {
   "name":"_ZN7android6binder5ValueC2ERKNSt3__16vectorIdNS2_9allocatorIdEEEE"
  },
  {
   "name":"_ZN7android6binder5ValueC2ERKNSt3__16vectorIhNS2_9allocatorIhEEEE"
  },
  {
   "name":"_ZN7android6binder5ValueC2ERKNSt3__16vectorIiNS2_9allocatorIiEEEE"
  },
  {
   "name":"_ZN7android6binder5ValueC2ERKNSt3__16vectorIlNS2_9allocatorIlEEEE"
  },
  {
   "name":"_ZN7android6binder5ValueC2ERKS1_"
  },
  {
   "name":"_ZN7android6binder5ValueC2ERKa"
  },
  {
   "name":"_ZN7android6binder5ValueC2ERKb"
  },
  {
   "name":"_ZN7android6binder5ValueC2ERKd"
  },
  {
   "name":"_ZN7android6binder5ValueC2ERKi"
  },
  {
   "name":"_ZN7android6binder5ValueC2ERKl"
  },
  {
   "name":"_ZN7android6binder5ValueC2Ev"
  },
  {
   "name":"_ZN7android6binder5ValueD0Ev"
  },
  {
   "name":"_ZN7android6binder5ValueD1Ev"
  },
  {
   "name":"_ZN7android6binder5ValueD2Ev"
  },
  {
   "name":"_ZN7android6binder5ValueaSERKNS_2os17PersistableBundleE"
  },
  {
   "name":"_ZN7android6binder5ValueaSERKNS_8String16E"
  },
  {
   "name":"_ZN7android6binder5ValueaSERKNSt3__13mapINS2_12basic_stringIcNS2_11char_traitsIcEENS2_9allocatorIcEEEES1_NS2_4lessIS9_EENS7_INS2_4pairIKS9_S1_EEEEEE"
  },
  {
   "name":"_ZN7android6binder5ValueaSERKNSt3__16vectorINS_8String16ENS2_9allocatorIS4_EEEE"
  },
  {
   "name":"_ZN7android6binder5ValueaSERKNSt3__16vectorIbNS2_9allocatorIbEEEE"
  },
  {
   "name":"_ZN7android6binder5ValueaSERKNSt3__16vectorIdNS2_9allocatorIdEEEE"
  },
  {
   "name":"_ZN7android6binder5ValueaSERKNSt3__16vectorIhNS2_9allocatorIhEEEE"
  },
  {
   "name":"_ZN7android6binder5ValueaSERKNSt3__16vectorIiNS2_9allocatorIiEEEE"
  },
  {
   "name":"_ZN7android6binder5ValueaSERKNSt3__16vectorIlNS2_9allocatorIlEEEE"
  },
  {
   "name":"_ZN7android6binder5ValueaSERKS1_"
  },
  {
   "name":"_ZN7android6binder5ValueaSERKa"
  },
  {
   "name":"_ZN7android6binder5ValueaSERKb"
  },
  {
   "name":"_ZN7android6binder5ValueaSERKd"
  },
  {
   "name":"_ZN7android6binder5ValueaSERKi"
  },
  {
   "name":"_ZN7android6binder5ValueaSERKl"
  },
  {
   "name":"_ZN7android6binder6Status11fromStatusTEi"
  },
  {
   "name":"_ZN7android6binder6Status12setExceptionEiRKNS_7String8E"
  },
  {
   "name":"_ZN7android6binder6Status14readFromParcelERKNS_6ParcelE"
  },
  {
   "name":"_ZN7android6binder6Status14setFromStatusTEi"
  },
  {
   "name":"_ZN7android6binder6Status17fromExceptionCodeEi"
  },
  {
   "name":"_ZN7android6binder6Status17fromExceptionCodeEiPKc"
  },
  {
   "name":"_ZN7android6binder6Status17fromExceptionCodeEiRKNS_7String8E"
  },
  {
   "name":"_ZN7android6binder6Status23setServiceSpecificErrorEiRKNS_7String8E"
  },
  {
   "name":"_ZN7android6binder6Status24fromServiceSpecificErrorEi"
  },
  {
   "name":"_ZN7android6binder6Status24fromServiceSpecificErrorEiPKc"
  },
  {
   "name":"_ZN7android6binder6Status24fromServiceSpecificErrorEiRKNS_7String8E"
  },
  {
   "name":"_ZN7android6binder6Status2okEv"
  },
  {
   "name":"_ZN7android6binder6StatusC1Eii"
  },
  {
   "name":"_ZN7android6binder6StatusC1EiiRKNS_7String8E"
  },
  {
   "name":"_ZN7android6binder6StatusC2Eii"
  },
  {
   "name":"_ZN7android6binder6StatusC2EiiRKNS_7String8E"
  },
  {
   "name":"_ZN7android6binderlsERNSt3__118basic_stringstreamIcNS1_11char_traitsIcEENS1_9allocatorIcEEEERKNS0_6StatusE"
  },
  {
   "name":"_ZN7android7BBinder10onTransactEjRKNS_6ParcelEPS1_j"
  },
  {
   "name":"_ZN7android7BBinder10pingBinderEv"
  },
  {
   "name":"_ZN7android7BBinder11linkToDeathERKNS_2spINS_7IBinder14DeathRecipientEEEPvj"
  },
  {
   "name":"_ZN7android7BBinder11localBinderEv"
  },
  {
   "name":"_ZN7android7BBinder12attachObjectEPKvPvS3_PFvS2_S3_S3_E"
  },
  {
   "name":"_ZN7android7BBinder12detachObjectEPKv"
  },
  {
   "name":"_ZN7android7BBinder13unlinkToDeathERKNS_2wpINS_7IBinder14DeathRecipientEEEPvjPS4_"
  },
  {
   "name":"_ZN7android7BBinder4dumpEiRKNS_6VectorINS_8String16EEE"
  },
  {
   "name":"_ZN7android7BBinder8transactEjRKNS_6ParcelEPS1_j"
  },
  {
   "name":"_ZN7android7BBinderC1Ev"
  },
  {
   "name":"_ZN7android7BBinderC2Ev"
  },
  {
   "name":"_ZN7android7BBinderD0Ev"
  },
  {
   "name":"_ZN7android7BBinderD1Ev"
  },
  {
   "name":"_ZN7android7BBinderD2Ev"
  },
  {
   "name":"_ZN7android7HexDumpC1EPKvmm"
  },
  {
   "name":"_ZN7android7HexDumpC2EPKvmm"
  },
  {
   "name":"_ZN7android7IBinder11localBinderEv"
  },
  {
   "name":"_ZN7android7IBinder12remoteBinderEv"
  },
  {
   "name":"_ZN7android7IBinder12shellCommandERKNS_2spIS0_EEiiiRNS_6VectorINS_8String16EEERKNS1_INS_14IShellCallbackEEERKNS1_INS_15IResultReceiverEEE"
  },
  {
   "name":"_ZN7android7IBinder19queryLocalInterfaceERKNS_8String16E"
  },
  {
   "name":"_ZN7android7IBinderC2Ev"
  },
  {
   "name":"_ZN7android7IBinderD0Ev"
  },
  {
   "name":"_ZN7android7IBinderD1Ev"
  },
  {
   "name":"_ZN7android7IBinderD2Ev"
  },
  {
   "name":"_ZN7android7IMemory11asInterfaceERKNS_2spINS_7IBinderEEE"
  },
  {
   "name":"_ZN7android7IMemoryC2Ev"
  },
  {
   "name":"_ZN7android7IMemoryD0Ev"
  },
  {
   "name":"_ZN7android7IMemoryD1Ev"
  },
  {
   "name":"_ZN7android7IMemoryD2Ev"
  },
  {
   "name":"_ZN7android8BnMemory10onTransactEjRKNS_6ParcelEPS1_j"
  },
  {
   "name":"_ZN7android8BnMemoryC2Ev"
  },
  {
   "name":"_ZN7android8BnMemoryD0Ev"
  },
  {
   "name":"_ZN7android8BnMemoryD1Ev"
  },
  {
   "name":"_ZN7android8BnMemoryD2Ev"
  },
  {
   "name":"_ZN7android8BpBinder10onFirstRefEv"
  },
  {
   "name":"_ZN7android8BpBinder10pingBinderEv"
  },
  {
   "name":"_ZN7android8BpBinder11linkToDeathERKNS_2spINS_7IBinder14DeathRecipientEEEPvj"
  },
  {
   "name":"_ZN7android8BpBinder12attachObjectEPKvPvS3_PFvS2_S3_S3_E"
  },
  {
   "name":"_ZN7android8BpBinder12detachObjectEPKv"
  },
  {
   "name":"_ZN7android8BpBinder12remoteBinderEv"
  },
  {
   "name":"_ZN7android8BpBinder12sendObituaryEv"
  },
  {
   "name":"_ZN7android8BpBinder13ObjectManager4killEv"
  },
  {
   "name":"_ZN7android8BpBinder13ObjectManager6attachEPKvPvS4_PFvS3_S4_S4_E"
  },
  {
   "name":"_ZN7android8BpBinder13ObjectManager6detachEPKv"
  },
  {
   "name":"_ZN7android8BpBinder13ObjectManagerC1Ev"
  },
  {
   "name":"_ZN7android8BpBinder13ObjectManagerC2Ev"
  },
  {
   "name":"_ZN7android8BpBinder13ObjectManagerD1Ev"
  },
  {
   "name":"_ZN7android8BpBinder13ObjectManagerD2Ev"
  },
  {
   "name":"_ZN7android8BpBinder13getCountByUidERNS_6VectorIjEES3_"
  },
  {
   "name":"_ZN7android8BpBinder13unlinkToDeathERKNS_2wpINS_7IBinder14DeathRecipientEEEPvjPS4_"
  },
  {
   "name":"_ZN7android8BpBinder14reportOneDeathERKNS0_8ObituaryE"
  },
  {
   "name":"_ZN7android8BpBinder15onLastStrongRefEPKv"
  },
  {
   "name":"_ZN7android8BpBinder16enableCountByUidEv"
  },
  {
   "name":"_ZN7android8BpBinder16setLimitCallbackEPFviE"
  },
  {
   "name":"_ZN7android8BpBinder17disableCountByUidEv"
  },
  {
   "name":"_ZN7android8BpBinder19getBinderProxyCountEj"
  },
  {
   "name":"_ZN7android8BpBinder20onIncStrongAttemptedEjPKv"
  },
  {
   "name":"_ZN7android8BpBinder20setCountByUidEnabledEb"
  },
  {
   "name":"_ZN7android8BpBinder29setBinderProxyCountWatermarksEii"
  },
  {
   "name":"_ZN7android8BpBinder4dumpEiRKNS_6VectorINS_8String16EEE"
  },
  {
   "name":"_ZN7android8BpBinder6createEi"
  },
  {
   "name":"_ZN7android8BpBinder8transactEjRKNS_6ParcelEPS1_j"
  },
  {
   "name":"_ZN7android8BpBinderC1Eii"
  },
  {
   "name":"_ZN7android8BpBinderC2Eii"
  },
  {
   "name":"_ZN7android8BpBinderD0Ev"
  },
  {
   "name":"_ZN7android8BpBinderD1Ev"
  },
  {
   "name":"_ZN7android8BpBinderD2Ev"
  },
  {
   "name":"_ZN7android9BpRefBase10onFirstRefEv"
  },
  {
   "name":"_ZN7android9BpRefBase15onLastStrongRefEPKv"
  },
  {
   "name":"_ZN7android9BpRefBase20onIncStrongAttemptedEjPKv"
  },
  {
   "name":"_ZN7android9BpRefBaseC1ERKNS_2spINS_7IBinderEEE"
  },
  {
   "name":"_ZN7android9BpRefBaseC2ERKNS_2spINS_7IBinderEEE"
  },
  {
   "name":"_ZN7android9BpRefBaseD0Ev"
  },
  {
   "name":"_ZN7android9BpRefBaseD1Ev"
  },
  {
   "name":"_ZN7android9BpRefBaseD2Ev"
  },
  {
   "name":"_ZN7androidlsERNS_10TextOutputERKNS_7HexDumpE"
  },
  {
   "name":"_ZN7androidlsERNS_10TextOutputERKNS_8TypeCodeE"
  },
  {
   "binding":"weak",
   "name":"_ZN7androidlsIA2_cEERNS_10TextOutputES3_RKT_"
  },
  {
   "binding":"weak",
   "name":"_ZN7androidlsIA3_cEERNS_10TextOutputES3_RKT_"
  },
  {
   "binding":"weak",
   "name":"_ZN7androidlsIA4_cEERNS_10TextOutputES3_RKT_"
  },
  {
   "binding":"weak",
   "name":"_ZN7androidlsIA5_cEERNS_10TextOutputES3_RKT_"
  },
  {
   "binding":"weak",
   "name":"_ZN7androidlsIA8_cEERNS_10TextOutputES3_RKT_"
  },
  {
   "binding":"weak",
   "name":"_ZN7androidlsIA9_cEERNS_10TextOutputES3_RKT_"
  },
  {
   "binding":"weak",
   "name":"_ZN7androidlsIPcEERNS_10TextOutputES3_RKT_"
  },
  {
   "binding":"weak",
   "name":"_ZN7androidlsIPvEERNS_10TextOutputES3_RKT_"
  },
  {
   "binding":"weak",
   "name":"_ZN7androidlsImEERNS_10TextOutputES2_RKT_"
  },
  {
   "binding":"weak",
   "name":"_ZN7androidlsIyEERNS_10TextOutputES2_RKT_"
  },
  {
   "name":"_ZNK7android10MemoryBase9getMemoryEPlPm"
  },
  {
   "name":"_ZNK7android11IMemoryHeap22getInterfaceDescriptorEv"
  },
  {
   "name":"_ZNK7android12MemoryDealer4dumpEPKc"
  },
  {
   "name":"_ZNK7android12MemoryDealer4heapEv"
  },
  {
   "name":"_ZNK7android12MemoryDealer9allocatorEv"
  },
  {
   "name":"_ZNK7android12ProcessState16isContextManagerEv"
  },
  {
   "binding":"weak",
   "name":"_ZNK7android12SortedVectorINS_16key_value_pair_tINS_2wpINS_7IBinderEEENS_9HeapCache11heap_info_tEEEE10do_compareEPKvSA_"
  },
  {
   "binding":"weak",
   "name":"_ZNK7android12SortedVectorINS_16key_value_pair_tINS_2wpINS_7IBinderEEENS_9HeapCache11heap_info_tEEEE10do_destroyEPvm"
  },
  {
   "binding":"weak",
   "name":"_ZNK7android12SortedVectorINS_16key_value_pair_tINS_2wpINS_7IBinderEEENS_9HeapCache11heap_info_tEEEE12do_constructEPvm"
  },
  {
   "binding":"weak",
   "name":"_ZNK7android12SortedVectorINS_16key_value_pair_tINS_2wpINS_7IBinderEEENS_9HeapCache11heap_info_tEEEE15do_move_forwardEPvPKvm"
  },
  {
   "binding":"weak",
   "name":"_ZNK7android12SortedVectorINS_16key_value_pair_tINS_2wpINS_7IBinderEEENS_9HeapCache11heap_info_tEEEE16do_move_backwardEPvPKvm"
  },
  {
   "binding":"weak",
   "name":"_ZNK7android12SortedVectorINS_16key_value_pair_tINS_2wpINS_7IBinderEEENS_9HeapCache11heap_info_tEEEE7do_copyEPvPKvm"
  },
  {
   "binding":"weak",
   "name":"_ZNK7android12SortedVectorINS_16key_value_pair_tINS_2wpINS_7IBinderEEENS_9HeapCache11heap_info_tEEEE8do_splatEPvPKvm"
  },
  {
   "binding":"weak",
   "name":"_ZNK7android12SortedVectorINS_16key_value_pair_tINS_8String16ENS_2spINS_7IBinderEEEEEE10do_compareEPKvS9_"
  },
  {
   "binding":"weak",
   "name":"_ZNK7android12SortedVectorINS_16key_value_pair_tINS_8String16ENS_2spINS_7IBinderEEEEEE10do_destroyEPvm"
  },
  {
   "binding":"weak",
   "name":"_ZNK7android12SortedVectorINS_16key_value_pair_tINS_8String16ENS_2spINS_7IBinderEEEEEE12do_constructEPvm"
  },
  {
   "binding":"weak",
   "name":"_ZNK7android12SortedVectorINS_16key_value_pair_tINS_8String16ENS_2spINS_7IBinderEEEEEE15do_move_forwardEPvPKvm"
  },
  {
   "binding":"weak",
   "name":"_ZNK7android12SortedVectorINS_16key_value_pair_tINS_8String16ENS_2spINS_7IBinderEEEEEE16do_move_backwardEPvPKvm"
  },
  {
   "binding":"weak",
   "name":"_ZNK7android12SortedVectorINS_16key_value_pair_tINS_8String16ENS_2spINS_7IBinderEEEEEE7do_copyEPvPKvm"
  },
  {
   "binding":"weak",
   "name":"_ZNK7android12SortedVectorINS_16key_value_pair_tINS_8String16ENS_2spINS_7IBinderEEEEEE8do_splatEPvPKvm"
  },
  {
   "binding":"weak",
   "name":"_ZNK7android12SortedVectorINS_16key_value_pair_tIPKvNS_8BpBinder13ObjectManager7entry_tEEEE10do_compareES3_S3_"
  },
  {
   "binding":"weak",
   "name":"_ZNK7android12SortedVectorINS_16key_value_pair_tIPKvNS_8BpBinder13ObjectManager7entry_tEEEE10do_destroyEPvm"
  },
  {
   "binding":"weak",
   "name":"_ZNK7android12SortedVectorINS_16key_value_pair_tIPKvNS_8BpBinder13ObjectManager7entry_tEEEE12do_constructEPvm"
  },
  {
   "binding":"weak",
   "name":"_ZNK7android12SortedVectorINS_16key_value_pair_tIPKvNS_8BpBinder13ObjectManager7entry_tEEEE15do_move_forwardEPvS3_m"
  },
  {
   "binding":"weak",
   "name":"_ZNK7android12SortedVectorINS_16key_value_pair_tIPKvNS_8BpBinder13ObjectManager7entry_tEEEE16do_move_backwardEPvS3_m"
  },
  {
   "binding":"weak",
   "name":"_ZNK7android12SortedVectorINS_16key_value_pair_tIPKvNS_8BpBinder13ObjectManager7entry_tEEEE7do_copyEPvS3_m"
  },
  {
   "binding":"weak",
   "name":"_ZNK7android12SortedVectorINS_16key_value_pair_tIPKvNS_8BpBinder13ObjectManager7entry_tEEEE8do_splatEPvS3_m"
  },
  {
   "name":"_ZNK7android14IPCThreadState13getCallingPidEv"
  },
  {
   "name":"_ZNK7android14IPCThreadState13getCallingUidEv"
  },
  {
   "name":"_ZNK7android14IPCThreadState19getStrictModePolicyEv"
  },
  {
   "name":"_ZNK7android14IPCThreadState29getLastTransactionBinderFlagsEv"
  },
  {
   "name":"_ZNK7android14IShellCallback22getInterfaceDescriptorEv"
  },
  {
   "name":"_ZNK7android14MemoryHeapBase7getBaseEv"
  },
  {
   "name":"_ZNK7android14MemoryHeapBase7getSizeEv"
  },
  {
   "name":"_ZNK7android14MemoryHeapBase8getFlagsEv"
  },
  {
   "name":"_ZNK7android14MemoryHeapBase9getDeviceEv"
  },
  {
   "name":"_ZNK7android14MemoryHeapBase9getHeapIDEv"
  },
  {
   "name":"_ZNK7android14MemoryHeapBase9getOffsetEv"
  },
  {
   "name":"_ZNK7android15IResultReceiver22getInterfaceDescriptorEv"
  },
  {
   "name":"_ZNK7android15IServiceManager22getInterfaceDescriptorEv"
  },
  {
   "name":"_ZNK7android18BufferedTextOutput9getBufferEv"
  },
  {
   "name":"_ZNK7android2os17PersistableBundle10getBooleanERKNS_8String16EPb"
  },
  {
   "name":"_ZNK7android2os17PersistableBundle10getIntKeysEv"
  },
  {
   "name":"_ZNK7android2os17PersistableBundle11getLongKeysEv"
  },
  {
   "name":"_ZNK7android2os17PersistableBundle12getIntVectorERKNS_8String16EPNSt3__16vectorIiNS5_9allocatorIiEEEE"
  },
  {
   "name":"_ZNK7android2os17PersistableBundle13getDoubleKeysEv"
  },
  {
   "name":"_ZNK7android2os17PersistableBundle13getLongVectorERKNS_8String16EPNSt3__16vectorIlNS5_9allocatorIlEEEE"
  },
  {
   "name":"_ZNK7android2os17PersistableBundle13getStringKeysEv"
  },
  {
   "name":"_ZNK7android2os17PersistableBundle13writeToParcelEPNS_6ParcelE"
  },
  {
   "name":"_ZNK7android2os17PersistableBundle14getBooleanKeysEv"
  },
  {
   "name":"_ZNK7android2os17PersistableBundle15getDoubleVectorERKNS_8String16EPNSt3__16vectorIdNS5_9allocatorIdEEEE"
  },
  {
   "name":"_ZNK7android2os17PersistableBundle15getStringVectorERKNS_8String16EPNSt3__16vectorIS2_NS5_9allocatorIS2_EEEE"
  },
  {
   "name":"_ZNK7android2os17PersistableBundle16getBooleanVectorERKNS_8String16EPNSt3__16vectorIbNS5_9allocatorIbEEEE"
  },
  {
   "name":"_ZNK7android2os17PersistableBundle16getIntVectorKeysEv"
  },
  {
   "name":"_ZNK7android2os17PersistableBundle17getLongVectorKeysEv"
  },
  {
   "name":"_ZNK7android2os17PersistableBundle18writeToParcelInnerEPNS_6ParcelE"
  },
  {
   "name":"_ZNK7android2os17PersistableBundle19getDoubleVectorKeysEv"
  },
  {
   "name":"_ZNK7android2os17PersistableBundle19getStringVectorKeysEv"
  },
  {
   "name":"_ZNK7android2os17PersistableBundle20getBooleanVectorKeysEv"
  },
  {
   "name":"_ZNK7android2os17PersistableBundle20getPersistableBundleERKNS_8String16EPS1_"
  },
  {
   "name":"_ZNK7android2os17PersistableBundle24getPersistableBundleKeysEv"
  },
  {
   "name":"_ZNK7android2os17PersistableBundle4sizeEv"
  },
  {
   "name":"_ZNK7android2os17PersistableBundle5emptyEv"
  },
  {
   "name":"_ZNK7android2os17PersistableBundle6getIntERKNS_8String16EPi"
  },
  {
   "name":"_ZNK7android2os17PersistableBundle7getLongERKNS_8String16EPl"
  },
  {
   "name":"_ZNK7android2os17PersistableBundle9getDoubleERKNS_8String16EPd"
  },
  {
   "name":"_ZNK7android2os17PersistableBundle9getStringERKNS_8String16EPS2_"
  },
  {
   "name":"_ZNK7android6Parcel10errorCheckEv"
  },
  {
   "name":"_ZNK7android6Parcel10ipcObjectsEv"
  },
  {
   "name":"_ZNK7android6Parcel10readDoubleEPd"
  },
  {
   "name":"_ZNK7android6Parcel10readDoubleEv"
  },
  {
   "name":"_ZNK7android6Parcel10readIntPtrEPl"
  },
  {
   "name":"_ZNK7android6Parcel10readIntPtrEv"
  },
  {
   "name":"_ZNK7android6Parcel10readObjectEb"
  },
  {
   "name":"_ZNK7android6Parcel10readUint32EPj"
  },
  {
   "name":"_ZNK7android6Parcel10readUint32Ev"
  },
  {
   "name":"_ZNK7android6Parcel10readUint64EPm"
  },
  {
   "name":"_ZNK7android6Parcel10readUint64Ev"
  },
  {
   "name":"_ZNK7android6Parcel10scanForFdsEv"
  },
  {
   "name":"_ZNK7android6Parcel11ipcDataSizeEv"
  },
  {
   "name":"_ZNK7android6Parcel11readCStringEv"
  },
  {
   "name":"_ZNK7android6Parcel11readInplaceEm"
  },
  {
   "name":"_ZNK7android6Parcel11readPointerEPm"
  },
  {
   "name":"_ZNK7android6Parcel11readPointerEv"
  },
  {
   "name":"_ZNK7android6Parcel11readString8EPNS_7String8E"
  },
  {
   "name":"_ZNK7android6Parcel11readString8Ev"
  },
  {
   "name":"_ZNK7android6Parcel12dataCapacityEv"
  },
  {
   "name":"_ZNK7android6Parcel12dataPositionEv"
  },
  {
   "name":"_ZNK7android6Parcel12objectsCountEv"
  },
  {
   "name":"_ZNK7android6Parcel12readString16EPNS_8String16E"
  },
  {
   "name":"_ZNK7android6Parcel12readString16EPNSt3__110unique_ptrINS_8String16ENS1_14default_deleteIS3_EEEE"
  },
  {
   "name":"_ZNK7android6Parcel12readString16Ev"
  },
  {
   "name":"_ZNK7android6Parcel14checkInterfaceEPNS_7IBinderE"
  },
  {
   "name":"_ZNK7android6Parcel14readBoolVectorEPNSt3__110unique_ptrINS1_6vectorIbNS1_9allocatorIbEEEENS1_14default_deleteIS6_EEEE"
  },
  {
   "name":"_ZNK7android6Parcel14readBoolVectorEPNSt3__16vectorIbNS1_9allocatorIbEEEE"
  },
  {
   "name":"_ZNK7android6Parcel14readByteVectorEPNSt3__110unique_ptrINS1_6vectorIaNS1_9allocatorIaEEEENS1_14default_deleteIS6_EEEE"
  },
  {
   "name":"_ZNK7android6Parcel14readByteVectorEPNSt3__110unique_ptrINS1_6vectorIhNS1_9allocatorIhEEEENS1_14default_deleteIS6_EEEE"
  },
  {
   "name":"_ZNK7android6Parcel14readByteVectorEPNSt3__16vectorIaNS1_9allocatorIaEEEE"
  },
  {
   "name":"_ZNK7android6Parcel14readByteVectorEPNSt3__16vectorIhNS1_9allocatorIhEEEE"
  },
  {
   "name":"_ZNK7android6Parcel14readCharVectorEPNSt3__110unique_ptrINS1_6vectorIDsNS1_9allocatorIDsEEEENS1_14default_deleteIS6_EEEE"
  },
  {
   "name":"_ZNK7android6Parcel14readCharVectorEPNSt3__16vectorIDsNS1_9allocatorIDsEEEE"
  },
  {
   "name":"_ZNK7android6Parcel14readParcelableEPNS_10ParcelableE"
  },
  {
   "name":"_ZNK7android6Parcel14readWeakBinderEv"
  },
  {
   "name":"_ZNK7android6Parcel15ipcObjectsCountEv"
  },
  {
   "name":"_ZNK7android6Parcel15readFloatVectorEPNSt3__110unique_ptrINS1_6vectorIfNS1_9allocatorIfEEEENS1_14default_deleteIS6_EEEE"
  },
  {
   "name":"_ZNK7android6Parcel15readFloatVectorEPNSt3__16vectorIfNS1_9allocatorIfEEEE"
  },
  {
   "name":"_ZNK7android6Parcel15readInt32VectorEPNSt3__110unique_ptrINS1_6vectorIiNS1_9allocatorIiEEEENS1_14default_deleteIS6_EEEE"
  },
  {
   "name":"_ZNK7android6Parcel15readInt32VectorEPNSt3__16vectorIiNS1_9allocatorIiEEEE"
  },
  {
   "name":"_ZNK7android6Parcel15readInt64VectorEPNSt3__110unique_ptrINS1_6vectorIlNS1_9allocatorIlEEEENS1_14default_deleteIS6_EEEE"
  },
  {
   "name":"_ZNK7android6Parcel15readInt64VectorEPNSt3__16vectorIlNS1_9allocatorIlEEEE"
  },
  {
   "name":"_ZNK7android6Parcel15readNullableMapEPNSt3__110unique_ptrINS1_3mapINS1_12basic_stringIcNS1_11char_traitsIcEENS1_9allocatorIcEEEENS_6binder5ValueENS1_4lessIS9_EENS7_INS1_4pairIKS9_SB_EEEEEENS1_14default_deleteISI_EEEE"
  },
  {
   "name":"_ZNK7android6Parcel15setDataPositionEm"
  },
  {
   "name":"_ZNK7android6Parcel16enforceInterfaceERKNS_8String16EPNS_14IPCThreadStateE"
  },
  {
   "name":"_ZNK7android6Parcel16readDoubleVectorEPNSt3__110unique_ptrINS1_6vectorIdNS1_9allocatorIdEEEENS1_14default_deleteIS6_EEEE"
  },
  {
   "name":"_ZNK7android6Parcel16readDoubleVectorEPNSt3__16vectorIdNS1_9allocatorIdEEEE"
  },
  {
   "name":"_ZNK7android6Parcel16readNativeHandleEv"
  },
  {
   "name":"_ZNK7android6Parcel16readStrongBinderEPNS_2spINS_7IBinderEEE"
  },
  {
   "name":"_ZNK7android6Parcel16readStrongBinderEv"
  },
  {
   "name":"_ZNK7android6Parcel16validateReadDataEm"
  },
  {
   "name":"_ZNK7android6Parcel17getBlobAshmemSizeEv"
  },
  {
   "name":"_ZNK7android6Parcel17getOpenAshmemSizeEv"
  },
  {
   "name":"_ZNK7android6Parcel17readExceptionCodeEv"
  },
  {
   "name":"_ZNK7android6Parcel17readUtf8FromUtf16EPNSt3__110unique_ptrINS1_12basic_stringIcNS1_11char_traitsIcEENS1_9allocatorIcEEEENS1_14default_deleteIS8_EEEE"
  },
  {
   "name":"_ZNK7android6Parcel17readUtf8FromUtf16EPNSt3__112basic_stringIcNS1_11char_traitsIcEENS1_9allocatorIcEEEE"
  },
  {
   "name":"_ZNK7android6Parcel18hasFileDescriptorsEv"
  },
  {
   "name":"_ZNK7android6Parcel18readFileDescriptorEv"
  },
  {
   "name":"_ZNK7android6Parcel18readString16VectorEPNSt3__110unique_ptrINS1_6vectorINS2_INS_8String16ENS1_14default_deleteIS4_EEEENS1_9allocatorIS7_EEEENS5_ISA_EEEE"
  },
  {
   "name":"_ZNK7android6Parcel18readString16VectorEPNSt3__16vectorINS_8String16ENS1_9allocatorIS3_EEEE"
  },
  {
   "name":"_ZNK7android6Parcel19readString16InplaceEPm"
  },
  {
   "binding":"weak",
   "name":"_ZNK7android6Parcel21unsafeReadTypedVectorIDsDsEEiPNSt3__16vectorIT_NS2_9allocatorIS4_EEEEMS0_KFiPT0_E"
  },
  {
   "binding":"weak",
   "name":"_ZNK7android6Parcel21unsafeReadTypedVectorINS_2spINS_7IBinderEEES4_EEiPNSt3__16vectorIT_NS5_9allocatorIS7_EEEEMS0_KFiPT0_E"
  },
  {
   "binding":"weak",
   "name":"_ZNK7android6Parcel21unsafeReadTypedVectorINS_4base14unique_fd_implINS2_13DefaultCloserEEES5_EEiPNSt3__16vectorIT_NS6_9allocatorIS8_EEEEMS0_KFiPT0_E"
  },
  {
   "binding":"weak",
   "name":"_ZNK7android6Parcel21unsafeReadTypedVectorINS_8String16ES2_EEiPNSt3__16vectorIT_NS3_9allocatorIS5_EEEEMS0_KFiPT0_E"
  },
  {
   "binding":"weak",
   "name":"_ZNK7android6Parcel21unsafeReadTypedVectorINSt3__110unique_ptrINS2_12basic_stringIcNS2_11char_traitsIcEENS2_9allocatorIcEEEENS2_14default_deleteIS9_EEEESC_EEiPNS2_6vectorIT_NS7_ISE_EEEEMS0_KFiPT0_E"
  },
  {
   "binding":"weak",
   "name":"_ZNK7android6Parcel21unsafeReadTypedVectorINSt3__110unique_ptrINS_8String16ENS2_14default_deleteIS4_EEEES7_EEiPNS2_6vectorIT_NS2_9allocatorIS9_EEEEMS0_KFiPT0_E"
  },
  {
   "binding":"weak",
   "name":"_ZNK7android6Parcel21unsafeReadTypedVectorINSt3__112basic_stringIcNS2_11char_traitsIcEENS2_9allocatorIcEEEES8_EEiPNS2_6vectorIT_NS6_ISA_EEEEMS0_KFiPT0_E"
  },
  {
   "binding":"weak",
   "name":"_ZNK7android6Parcel21unsafeReadTypedVectorIddEEiPNSt3__16vectorIT_NS2_9allocatorIS4_EEEEMS0_KFiPT0_E"
  },
  {
   "binding":"weak",
   "name":"_ZNK7android6Parcel21unsafeReadTypedVectorIffEEiPNSt3__16vectorIT_NS2_9allocatorIS4_EEEEMS0_KFiPT0_E"
  },
  {
   "binding":"weak",
   "name":"_ZNK7android6Parcel21unsafeReadTypedVectorIiiEEiPNSt3__16vectorIT_NS2_9allocatorIS4_EEEEMS0_KFiPT0_E"
  },
  {
   "binding":"weak",
   "name":"_ZNK7android6Parcel21unsafeReadTypedVectorIllEEiPNSt3__16vectorIT_NS2_9allocatorIS4_EEEEMS0_KFiPT0_E"
  },
  {
   "name":"_ZNK7android6Parcel22readStrongBinderVectorEPNSt3__110unique_ptrINS1_6vectorINS_2spINS_7IBinderEEENS1_9allocatorIS6_EEEENS1_14default_deleteIS9_EEEE"
  },
  {
   "name":"_ZNK7android6Parcel22readStrongBinderVectorEPNSt3__16vectorINS_2spINS_7IBinderEEENS1_9allocatorIS5_EEEE"
  },
  {
   "binding":"weak",
   "name":"_ZNK7android6Parcel23readNullableTypedVectorIDsEEiPNSt3__110unique_ptrINS2_6vectorIT_NS2_9allocatorIS5_EEEENS2_14default_deleteIS8_EEEEMS0_KFiPS5_E"
  },
  {
   "binding":"weak",
   "name":"_ZNK7android6Parcel23readNullableTypedVectorINS_2spINS_7IBinderEEEEEiPNSt3__110unique_ptrINS5_6vectorIT_NS5_9allocatorIS8_EEEENS5_14default_deleteISB_EEEEMS0_KFiPS8_E"
  },
  {
   "binding":"weak",
   "name":"_ZNK7android6Parcel23readNullableTypedVectorINS_4base14unique_fd_implINS2_13DefaultCloserEEEEEiPNSt3__110unique_ptrINS6_6vectorIT_NS6_9allocatorIS9_EEEENS6_14default_deleteISC_EEEEMS0_KFiPS9_E"
  },
  {
   "binding":"weak",
   "name":"_ZNK7android6Parcel23readNullableTypedVectorINSt3__110unique_ptrINS2_12basic_stringIcNS2_11char_traitsIcEENS2_9allocatorIcEEEENS2_14default_deleteIS9_EEEEEEiPNS3_INS2_6vectorIT_NS7_ISE_EEEENSA_ISG_EEEEMS0_KFiPSE_E"
  },
  {
   "binding":"weak",
   "name":"_ZNK7android6Parcel23readNullableTypedVectorINSt3__110unique_ptrINS_8String16ENS2_14default_deleteIS4_EEEEEEiPNS3_INS2_6vectorIT_NS2_9allocatorIS9_EEEENS5_ISC_EEEEMS0_KFiPS9_E"
  },
  {
   "binding":"weak",
   "name":"_ZNK7android6Parcel23readNullableTypedVectorIdEEiPNSt3__110unique_ptrINS2_6vectorIT_NS2_9allocatorIS5_EEEENS2_14default_deleteIS8_EEEEMS0_KFiPS5_E"
  },
  {
   "binding":"weak",
   "name":"_ZNK7android6Parcel23readNullableTypedVectorIfEEiPNSt3__110unique_ptrINS2_6vectorIT_NS2_9allocatorIS5_EEEENS2_14default_deleteIS8_EEEEMS0_KFiPS5_E"
  },
  {
   "binding":"weak",
   "name":"_ZNK7android6Parcel23readNullableTypedVectorIiEEiPNSt3__110unique_ptrINS2_6vectorIT_NS2_9allocatorIS5_EEEENS2_14default_deleteIS8_EEEEMS0_KFiPS5_E"
  },
  {
   "binding":"weak",
   "name":"_ZNK7android6Parcel23readNullableTypedVectorIlEEiPNSt3__110unique_ptrINS2_6vectorIT_NS2_9allocatorIS5_EEEENS2_14default_deleteIS8_EEEEMS0_KFiPS5_E"
  },
  {
   "name":"_ZNK7android6Parcel24readNullableStrongBinderEPNS_2spINS_7IBinderEEE"
  },
  {
   "name":"_ZNK7android6Parcel24readParcelFileDescriptorEv"
  },
  {
   "name":"_ZNK7android6Parcel24readUniqueFileDescriptorEPNS_4base14unique_fd_implINS1_13DefaultCloserEEE"
  },
  {
   "name":"_ZNK7android6Parcel29readUtf8VectorFromUtf16VectorEPNSt3__110unique_ptrINS1_6vectorINS2_INS1_12basic_stringIcNS1_11char_traitsIcEENS1_9allocatorIcEEEENS1_14default_deleteIS9_EEEENS7_ISC_EEEENSA_ISE_EEEE"
  },
  {
   "name":"_ZNK7android6Parcel29readUtf8VectorFromUtf16VectorEPNSt3__16vectorINS1_12basic_stringIcNS1_11char_traitsIcEENS1_9allocatorIcEEEENS6_IS8_EEEE"
  },
  {
   "name":"_ZNK7android6Parcel30readUniqueFileDescriptorVectorEPNSt3__110unique_ptrINS1_6vectorINS_4base14unique_fd_implINS4_13DefaultCloserEEENS1_9allocatorIS7_EEEENS1_14default_deleteISA_EEEE"
  },
  {
   "name":"_ZNK7android6Parcel30readUniqueFileDescriptorVectorEPNSt3__16vectorINS_4base14unique_fd_implINS3_13DefaultCloserEEENS1_9allocatorIS6_EEEE"
  },
  {
   "name":"_ZNK7android6Parcel4dataEv"
  },
  {
   "name":"_ZNK7android6Parcel4readEPvm"
  },
  {
   "name":"_ZNK7android6Parcel4readERNS0_26FlattenableHelperInterfaceE"
  },
  {
   "name":"_ZNK7android6Parcel5printERNS_10TextOutputEj"
  },
  {
   "name":"_ZNK7android6Parcel7ipcDataEv"
  },
  {
   "name":"_ZNK7android6Parcel7objectsEv"
  },
  {
   "name":"_ZNK7android6Parcel7readMapEPNSt3__13mapINS1_12basic_stringIcNS1_11char_traitsIcEENS1_9allocatorIcEEEENS_6binder5ValueENS1_4lessIS8_EENS6_INS1_4pairIKS8_SA_EEEEEE"
  },
  {
   "name":"_ZNK7android6Parcel8allowFdsEv"
  },
  {
   "name":"_ZNK7android6Parcel8dataSizeEv"
  },
  {
   "name":"_ZNK7android6Parcel8readBlobEmPNS0_12ReadableBlobE"
  },
  {
   "name":"_ZNK7android6Parcel8readBoolEPb"
  },
  {
   "name":"_ZNK7android6Parcel8readBoolEv"
  },
  {
   "name":"_ZNK7android6Parcel8readByteEPa"
  },
  {
   "name":"_ZNK7android6Parcel8readByteEv"
  },
  {
   "name":"_ZNK7android6Parcel8readCharEPDs"
  },
  {
   "name":"_ZNK7android6Parcel8readCharEv"
  },
  {
   "name":"_ZNK7android6Parcel9dataAvailEv"
  },
  {
   "name":"_ZNK7android6Parcel9readFloatEPf"
  },
  {
   "name":"_ZNK7android6Parcel9readFloatEv"
  },
  {
   "name":"_ZNK7android6Parcel9readInt32EPi"
  },
  {
   "name":"_ZNK7android6Parcel9readInt32Ev"
  },
  {
   "name":"_ZNK7android6Parcel9readInt64EPl"
  },
  {
   "name":"_ZNK7android6Parcel9readInt64Ev"
  },
  {
   "name":"_ZNK7android6Parcel9readValueEPNS_6binder5ValueE"
  },
  {
   "binding":"weak",
   "name":"_ZNK7android6VectorINS_12ProcessState12handle_entryEE10do_destroyEPvm"
  },
  {
   "binding":"weak",
   "name":"_ZNK7android6VectorINS_12ProcessState12handle_entryEE12do_constructEPvm"
  },
  {
   "binding":"weak",
   "name":"_ZNK7android6VectorINS_12ProcessState12handle_entryEE15do_move_forwardEPvPKvm"
  },
  {
   "binding":"weak",
   "name":"_ZNK7android6VectorINS_12ProcessState12handle_entryEE16do_move_backwardEPvPKvm"
  },
  {
   "binding":"weak",
   "name":"_ZNK7android6VectorINS_12ProcessState12handle_entryEE7do_copyEPvPKvm"
  },
  {
   "binding":"weak",
   "name":"_ZNK7android6VectorINS_12ProcessState12handle_entryEE8do_splatEPvPKvm"
  },
  {
   "binding":"weak",
   "name":"_ZNK7android6VectorINS_2spINS_18BufferedTextOutput11BufferStateEEEE10do_destroyEPvm"
  },
  {
   "binding":"weak",
   "name":"_ZNK7android6VectorINS_2spINS_18BufferedTextOutput11BufferStateEEEE12do_constructEPvm"
  },
  {
   "binding":"weak",
   "name":"_ZNK7android6VectorINS_2spINS_18BufferedTextOutput11BufferStateEEEE15do_move_forwardEPvPKvm"
  },
  {
   "binding":"weak",
   "name":"_ZNK7android6VectorINS_2spINS_18BufferedTextOutput11BufferStateEEEE16do_move_backwardEPvPKvm"
  },
  {
   "binding":"weak",
   "name":"_ZNK7android6VectorINS_2spINS_18BufferedTextOutput11BufferStateEEEE7do_copyEPvPKvm"
  },
  {
   "binding":"weak",
   "name":"_ZNK7android6VectorINS_2spINS_18BufferedTextOutput11BufferStateEEEE8do_splatEPvPKvm"
  },
  {
   "binding":"weak",
   "name":"_ZNK7android6VectorINS_8BpBinder8ObituaryEE10do_destroyEPvm"
  },
  {
   "binding":"weak",
   "name":"_ZNK7android6VectorINS_8BpBinder8ObituaryEE12do_constructEPvm"
  },
  {
   "binding":"weak",
   "name":"_ZNK7android6VectorINS_8BpBinder8ObituaryEE15do_move_forwardEPvPKvm"
  },
  {
   "binding":"weak",
   "name":"_ZNK7android6VectorINS_8BpBinder8ObituaryEE16do_move_backwardEPvPKvm"
  },
  {
   "binding":"weak",
   "name":"_ZNK7android6VectorINS_8BpBinder8ObituaryEE7do_copyEPvPKvm"
  },
  {
   "binding":"weak",
   "name":"_ZNK7android6VectorINS_8BpBinder8ObituaryEE8do_splatEPvPKvm"
  },
  {
   "binding":"weak",
   "name":"_ZNK7android6VectorINS_8String16EE10do_destroyEPvm"
  },
  {
   "binding":"weak",
   "name":"_ZNK7android6VectorINS_8String16EE12do_constructEPvm"
  },
  {
   "binding":"weak",
   "name":"_ZNK7android6VectorINS_8String16EE15do_move_forwardEPvPKvm"
  },
  {
   "binding":"weak",
   "name":"_ZNK7android6VectorINS_8String16EE16do_move_backwardEPvPKvm"
  },
  {
   "binding":"weak",
   "name":"_ZNK7android6VectorINS_8String16EE7do_copyEPvPKvm"
  },
  {
   "binding":"weak",
   "name":"_ZNK7android6VectorINS_8String16EE8do_splatEPvPKvm"
  },
  {
   "binding":"weak",
   "name":"_ZNK7android6VectorIPNS_7BBinderEE10do_destroyEPvm"
  },
  {
   "binding":"weak",
   "name":"_ZNK7android6VectorIPNS_7BBinderEE12do_constructEPvm"
  },
  {
   "binding":"weak",
   "name":"_ZNK7android6VectorIPNS_7BBinderEE15do_move_forwardEPvPKvm"
  },
  {
   "binding":"weak",
   "name":"_ZNK7android6VectorIPNS_7BBinderEE16do_move_backwardEPvPKvm"
  },
  {
   "binding":"weak",
   "name":"_ZNK7android6VectorIPNS_7BBinderEE7do_copyEPvPKvm"
  },
  {
   "binding":"weak",
   "name":"_ZNK7android6VectorIPNS_7BBinderEE8do_splatEPvPKvm"
  },
  {
   "binding":"weak",
   "name":"_ZNK7android6VectorIPNS_7RefBase12weakref_typeEE10do_destroyEPvm"
  },
  {
   "binding":"weak",
   "name":"_ZNK7android6VectorIPNS_7RefBase12weakref_typeEE12do_constructEPvm"
  },
  {
   "binding":"weak",
   "name":"_ZNK7android6VectorIPNS_7RefBase12weakref_typeEE15do_move_forwardEPvPKvm"
  },
  {
   "binding":"weak",
   "name":"_ZNK7android6VectorIPNS_7RefBase12weakref_typeEE16do_move_backwardEPvPKvm"
  },
  {
   "binding":"weak",
   "name":"_ZNK7android6VectorIPNS_7RefBase12weakref_typeEE7do_copyEPvPKvm"
  },
  {
   "binding":"weak",
   "name":"_ZNK7android6VectorIPNS_7RefBase12weakref_typeEE8do_splatEPvPKvm"
  },
  {
   "binding":"weak",
   "name":"_ZNK7android6VectorIPNS_7RefBaseEE10do_destroyEPvm"
  },
  {
   "binding":"weak",
   "name":"_ZNK7android6VectorIPNS_7RefBaseEE12do_constructEPvm"
  },
  {
   "binding":"weak",
   "name":"_ZNK7android6VectorIPNS_7RefBaseEE15do_move_forwardEPvPKvm"
  },
  {
   "binding":"weak",
   "name":"_ZNK7android6VectorIPNS_7RefBaseEE16do_move_backwardEPvPKvm"
  },
  {
   "binding":"weak",
   "name":"_ZNK7android6VectorIPNS_7RefBaseEE7do_copyEPvPKvm"
  },
  {
   "binding":"weak",
   "name":"_ZNK7android6VectorIPNS_7RefBaseEE8do_splatEPvPKvm"
  },
  {
   "binding":"weak",
   "name":"_ZNK7android6VectorIiE10do_destroyEPvm"
  },
  {
   "binding":"weak",
   "name":"_ZNK7android6VectorIiE12do_constructEPvm"
  },
  {
   "binding":"weak",
   "name":"_ZNK7android6VectorIiE15do_move_forwardEPvPKvm"
  },
  {
   "binding":"weak",
   "name":"_ZNK7android6VectorIiE16do_move_backwardEPvPKvm"
  },
  {
   "binding":"weak",
   "name":"_ZNK7android6VectorIiE7do_copyEPvPKvm"
  },
  {
   "binding":"weak",
   "name":"_ZNK7android6VectorIiE8do_splatEPvPKvm"
  },
  {
   "name":"_ZNK7android6binder5Value10getBooleanEPb"
  },
  {
   "name":"_ZNK7android6binder5Value10parcelTypeEv"
  },
  {
   "name":"_ZNK7android6binder5Value11isIntVectorEv"
  },
  {
   "name":"_ZNK7android6binder5Value12getIntVectorEPNSt3__16vectorIiNS2_9allocatorIiEEEE"
  },
  {
   "name":"_ZNK7android6binder5Value12isByteVectorEv"
  },
  {
   "name":"_ZNK7android6binder5Value12isLongVectorEv"
  },
  {
   "name":"_ZNK7android6binder5Value13getByteVectorEPNSt3__16vectorIhNS2_9allocatorIhEEEE"
  },
  {
   "name":"_ZNK7android6binder5Value13getLongVectorEPNSt3__16vectorIlNS2_9allocatorIlEEEE"
  },
  {
   "name":"_ZNK7android6binder5Value13writeToParcelEPNS_6ParcelE"
  },
  {
   "name":"_ZNK7android6binder5Value14isDoubleVectorEv"
  },
  {
   "name":"_ZNK7android6binder5Value14isStringVectorEv"
  },
  {
   "name":"_ZNK7android6binder5Value15getDoubleVectorEPNSt3__16vectorIdNS2_9allocatorIdEEEE"
  },
  {
   "name":"_ZNK7android6binder5Value15getStringVectorEPNSt3__16vectorINS_8String16ENS2_9allocatorIS4_EEEE"
  },
  {
   "name":"_ZNK7android6binder5Value15isBooleanVectorEv"
  },
  {
   "name":"_ZNK7android6binder5Value16getBooleanVectorEPNSt3__16vectorIbNS2_9allocatorIbEEEE"
  },
  {
   "name":"_ZNK7android6binder5Value19isPersistableBundleEv"
  },
  {
   "name":"_ZNK7android6binder5Value20getPersistableBundleEPNS_2os17PersistableBundleE"
  },
  {
   "name":"_ZNK7android6binder5Value5emptyEv"
  },
  {
   "name":"_ZNK7android6binder5Value5isIntEv"
  },
  {
   "name":"_ZNK7android6binder5Value5isMapEv"
  },
  {
   "name":"_ZNK7android6binder5Value6getIntEPi"
  },
  {
   "name":"_ZNK7android6binder5Value6getMapEPNSt3__13mapINS2_12basic_stringIcNS2_11char_traitsIcEENS2_9allocatorIcEEEES1_NS2_4lessIS9_EENS7_INS2_4pairIKS9_S1_EEEEEE"
  },
  {
   "name":"_ZNK7android6binder5Value6isByteEv"
  },
  {
   "name":"_ZNK7android6binder5Value6isLongEv"
  },
  {
   "name":"_ZNK7android6binder5Value7getByteEPa"
  },
  {
   "name":"_ZNK7android6binder5Value7getLongEPl"
  },
  {
   "name":"_ZNK7android6binder5Value8isDoubleEv"
  },
  {
   "name":"_ZNK7android6binder5Value8isStringEv"
  },
  {
   "name":"_ZNK7android6binder5Value9getDoubleEPd"
  },
  {
   "name":"_ZNK7android6binder5Value9getStringEPNS_7String8E"
  },
  {
   "name":"_ZNK7android6binder5Value9getStringEPNS_8String16E"
  },
  {
   "name":"_ZNK7android6binder5Value9getStringEPNSt3__112basic_stringIcNS2_11char_traitsIcEENS2_9allocatorIcEEEE"
  },
  {
   "name":"_ZNK7android6binder5Value9isBooleanEv"
  },
  {
   "name":"_ZNK7android6binder5ValueeqERKS1_"
  },
  {
   "name":"_ZNK7android6binder6Status13writeToParcelEPNS_6ParcelE"
  },
  {
   "name":"_ZNK7android6binder6Status9toString8Ev"
  },
  {
   "name":"_ZNK7android7BBinder10findObjectEPKv"
  },
  {
   "name":"_ZNK7android7BBinder13isBinderAliveEv"
  },
  {
   "name":"_ZNK7android7BBinder22getInterfaceDescriptorEv"
  },
  {
   "name":"_ZNK7android7IBinder13checkSubclassEPKv"
  },
  {
   "name":"_ZNK7android7IMemory11fastPointerERKNS_2spINS_7IBinderEEEl"
  },
  {
   "name":"_ZNK7android7IMemory22getInterfaceDescriptorEv"
  },
  {
   "name":"_ZNK7android7IMemory4sizeEv"
  },
  {
   "name":"_ZNK7android7IMemory6offsetEv"
  },
  {
   "name":"_ZNK7android7IMemory7pointerEv"
  },
  {
   "name":"_ZNK7android8BpBinder10findObjectEPKv"
  },
  {
   "name":"_ZNK7android8BpBinder13ObjectManager4findEPKv"
  },
  {
   "name":"_ZNK7android8BpBinder13isBinderAliveEv"
  },
  {
   "name":"_ZNK7android8BpBinder18isDescriptorCachedEv"
  },
  {
   "name":"_ZNK7android8BpBinder22getInterfaceDescriptorEv"
  },
  {
   "name":"_ZThn8_N7android10MemoryBaseD0Ev"
  },
  {
   "name":"_ZThn8_N7android10MemoryBaseD1Ev"
  },
  {
   "name":"_ZThn8_N7android12BnMemoryHeap10onTransactEjRKNS_6ParcelEPS1_j"
  },
  {
   "name":"_ZThn8_N7android12BnMemoryHeapD0Ev"
  },
  {
   "name":"_ZThn8_N7android12BnMemoryHeapD1Ev"
  },
  {
   "name":"_ZThn8_N7android15BnShellCallback10onTransactEjRKNS_6ParcelEPS1_j"
  },
  {
   "name":"_ZThn8_N7android16BnResultReceiver10onTransactEjRKNS_6ParcelEPS1_j"
  },
  {
   "name":"_ZThn8_N7android8BnMemory10onTransactEjRKNS_6ParcelEPS1_j"
  },
  {
   "name":"_ZThn8_N7android8BnMemoryD0Ev"
  },
  {
   "name":"_ZThn8_N7android8BnMemoryD1Ev"
  },
  {
   "name":"_ZTv0_n24_N7android10IInterfaceD0Ev"
  },
  {
   "name":"_ZTv0_n24_N7android10IInterfaceD1Ev"
  },
  {
   "name":"_ZTv0_n24_N7android10MemoryBaseD0Ev"
  },
  {
   "name":"_ZTv0_n24_N7android10MemoryBaseD1Ev"
  },
  {
   "name":"_ZTv0_n24_N7android11IMemoryHeapD0Ev"
  },
  {
   "name":"_ZTv0_n24_N7android11IMemoryHeapD1Ev"
  },
  {
   "name":"_ZTv0_n24_N7android12BnMemoryHeapD0Ev"
  },
  {
   "name":"_ZTv0_n24_N7android12BnMemoryHeapD1Ev"
  },
  {
   "name":"_ZTv0_n24_N7android12ProcessStateD0Ev"
  },
  {
   "name":"_ZTv0_n24_N7android12ProcessStateD1Ev"
  },
  {
   "name":"_ZTv0_n24_N7android14IShellCallbackD0Ev"
  },
  {
   "name":"_ZTv0_n24_N7android14IShellCallbackD1Ev"
  },
  {
   "name":"_ZTv0_n24_N7android14MemoryHeapBaseD0Ev"
  },
  {
   "name":"_ZTv0_n24_N7android14MemoryHeapBaseD1Ev"
  },
  {
   "name":"_ZTv0_n24_N7android15IResultReceiverD0Ev"
  },
  {
   "name":"_ZTv0_n24_N7android15IResultReceiverD1Ev"
  },
  {
   "name":"_ZTv0_n24_N7android15IServiceManagerD0Ev"
  },
  {
   "name":"_ZTv0_n24_N7android15IServiceManagerD1Ev"
  },
  {
   "name":"_ZTv0_n24_N7android7BBinderD0Ev"
  },
  {
   "name":"_ZTv0_n24_N7android7BBinderD1Ev"
  },
  {
   "name":"_ZTv0_n24_N7android7IBinderD0Ev"
  },
  {
   "name":"_ZTv0_n24_N7android7IBinderD1Ev"
  },
  {
   "name":"_ZTv0_n24_N7android7IMemoryD0Ev"
  },
  {
   "name":"_ZTv0_n24_N7android7IMemoryD1Ev"
  },
  {
   "name":"_ZTv0_n24_N7android8BnMemoryD0Ev"
  },
  {
   "name":"_ZTv0_n24_N7android8BnMemoryD1Ev"
  },
  {
   "name":"_ZTv0_n24_N7android8BpBinderD0Ev"
  },
  {
   "name":"_ZTv0_n24_N7android8BpBinderD1Ev"
  },
  {
   "name":"_ZTv0_n24_N7android9BpRefBaseD0Ev"
  },
  {
   "name":"_ZTv0_n24_N7android9BpRefBaseD1Ev"
  },
  {
   "name":"_ZTv0_n32_N7android14MemoryHeapBaseD0Ev"
  },
  {
   "name":"_ZTv0_n32_N7android14MemoryHeapBaseD1Ev"
  },
  {
   "name":"_ZTv0_n32_N7android8BpBinder10onFirstRefEv"
  },
  {
   "name":"_ZTv0_n32_N7android9BpRefBase10onFirstRefEv"
  },
  {
   "name":"_ZTv0_n40_N7android8BpBinder15onLastStrongRefEPKv"
  },
  {
   "name":"_ZTv0_n40_N7android9BpRefBase15onLastStrongRefEPKv"
  },
  {
   "name":"_ZTv0_n48_N7android8BpBinder20onIncStrongAttemptedEjPKv"
  },
  {
   "name":"_ZTv0_n48_N7android9BpRefBase20onIncStrongAttemptedEjPKv"
  },
  {
   "name":"_ZTv0_n56_NK7android14MemoryHeapBase9getHeapIDEv"
  },
  {
   "name":"_ZTv0_n64_NK7android14MemoryHeapBase7getBaseEv"
  },
  {
   "name":"_ZTv0_n72_NK7android14MemoryHeapBase7getSizeEv"
  },
  {
   "name":"_ZTv0_n80_NK7android14MemoryHeapBase8getFlagsEv"
  },
  {
   "name":"_ZTv0_n88_NK7android14MemoryHeapBase9getOffsetEv"
  },
  {
   "name":"_ZTvn8_n32_N7android14MemoryHeapBaseD0Ev"
  },
  {
   "name":"_ZTvn8_n32_N7android14MemoryHeapBaseD1Ev"
  },
  {
   "name":"getBinderKernelReferences"
  },
  {
   "name":"printHexData"
  },
  {
   "name":"printTypeCode"
  },
  {
   "name":"stringForIndent"
  }
 ],
 "elf_objects":[
  {
   "name":"_ZN7android11IMemoryHeap10descriptorE"
  },
  {
   "name":"_ZN7android12gTextBuffersE"
  },
  {
   "name":"_ZN7android13gProcessMutexE"
  },
  {
   "name":"_ZN7android14IShellCallback10descriptorE"
  },
  {
   "name":"_ZN7android15IResultReceiver10descriptorE"
  },
  {
   "name":"_ZN7android15IServiceManager10descriptorE"
  },
  {
   "name":"_ZN7android20gSystemBootCompletedE"
  },
  {
   "name":"_ZN7android22gDefaultServiceManagerE"
  },
  {
   "name":"_ZN7android26gDefaultServiceManagerLockE"
  },
  {
   "name":"_ZN7android4aerrE"
  },
  {
   "name":"_ZN7android4alogE"
  },
  {
   "name":"_ZN7android4aoutE"
  },
  {
   "name":"_ZN7android7IMemory10descriptorE"
  },
  {
   "name":"_ZN7android8BpBinder12sTrackingMapE"
  },
  {
   "name":"_ZN7android8BpBinder13sTrackingLockE"
  },
  {
   "name":"_ZN7android8BpBinder14sLimitCallbackE"
  },
  {
   "name":"_ZN7android8BpBinder15sNumTrackedUidsE"
  },
  {
   "name":"_ZN7android8BpBinder18sCountByUidEnabledE"
  },
  {
   "name":"_ZN7android8BpBinder26sBinderProxyThrottleCreateE"
  },
  {
   "name":"_ZN7android8BpBinder29sBinderProxyCountLowWatermarkE"
  },
  {
   "name":"_ZN7android8BpBinder30sBinderProxyCountHighWatermarkE"
  },
  {
   "name":"_ZN7android8gProcessE"
  },
  {
   "name":"_ZTTN7android10IInterfaceE"
  },
  {
   "name":"_ZTTN7android10MemoryBaseE"
  },
  {
   "name":"_ZTTN7android11IMemoryHeapE"
  },
  {
   "name":"_ZTTN7android12BnMemoryHeapE"
  },
  {
   "name":"_ZTTN7android12ProcessStateE"
  },
  {
   "name":"_ZTTN7android14IShellCallbackE"
  },
  {
   "name":"_ZTTN7android14MemoryHeapBaseE"
  },
  {
   "name":"_ZTTN7android15BnShellCallbackE"
  },
  {
   "name":"_ZTTN7android15IResultReceiverE"
  },
  {
   "name":"_ZTTN7android15IServiceManagerE"
  },
  {
   "name":"_ZTTN7android16BnResultReceiverE"
  },
  {
   "name":"_ZTTN7android7BBinderE"
  },
  {
   "name":"_ZTTN7android7IBinderE"
  },
  {
   "name":"_ZTTN7android7IMemoryE"
  },
  {
   "name":"_ZTTN7android8BnMemoryE"
  },
  {
   "name":"_ZTTN7android8BpBinderE"
  },
  {
   "name":"_ZTTN7android9BpRefBaseE"
  },
  {
   "name":"_ZTVN7android10IInterfaceE"
  },
  {
   "name":"_ZTVN7android10MemoryBaseE"
  },
  {
   "name":"_ZTVN7android10TextOutputE"
  },
  {
   "name":"_ZTVN7android11IMemoryHeapE"
  },
  {
   "name":"_ZTVN7android12BnMemoryHeapE"
  },
  {
   "name":"_ZTVN7android12MemoryDealerE"
  },
  {
   "name":"_ZTVN7android12ProcessStateE"
  },
  {
   "binding":"weak",
   "name":"_ZTVN7android12SortedVectorINS_16key_value_pair_tINS_2wpINS_7IBinderEEENS_9HeapCache11heap_info_tEEEEE"
  },
  {
   "binding":"weak",
   "name":"_ZTVN7android12SortedVectorINS_16key_value_pair_tINS_8String16ENS_2spINS_7IBinderEEEEEEE"
  },
  {
   "binding":"weak",
   "name":"_ZTVN7android12SortedVectorINS_16key_value_pair_tIPKvNS_8BpBinder13ObjectManager7entry_tEEEEE"
  },
  {
   "name":"_ZTVN7android14IShellCallbackE"
  },
  {
   "name":"_ZTVN7android14MemoryHeapBaseE"
  },
  {
   "name":"_ZTVN7android15BnShellCallbackE"
  },
  {
   "name":"_ZTVN7android15IResultReceiverE"
  },
  {
   "name":"_ZTVN7android15IServiceManagerE"
  },
  {
   "name":"_ZTVN7android16BnResultReceiverE"
  },
  {
   "name":"_ZTVN7android18BufferedTextOutputE"
  },
  {
   "name":"_ZTVN7android2os17PersistableBundleE"
  },
  {
   "binding":"weak",
   "name":"_ZTVN7android6VectorINS_12ProcessState12handle_entryEEE"
  },
  {
   "binding":"weak",
   "name":"_ZTVN7android6VectorINS_2spINS_18BufferedTextOutput11BufferStateEEEEE"
  },
  {
   "binding":"weak",
   "name":"_ZTVN7android6VectorINS_8BpBinder8ObituaryEEE"
  },
  {
   "binding":"weak",
   "name":"_ZTVN7android6VectorINS_8String16EEE"
  },
  {
   "binding":"weak",
   "name":"_ZTVN7android6VectorIPNS_7BBinderEEE"
  },
  {
   "binding":"weak",
   "name":"_ZTVN7android6VectorIPNS_7RefBase12weakref_typeEEE"
  },
  {
   "binding":"weak",
   "name":"_ZTVN7android6VectorIPNS_7RefBaseEEE"
  },
  {
   "binding":"weak",
   "name":"_ZTVN7android6VectorIiEE"
  },
  {
   "name":"_ZTVN7android6binder5ValueE"
  },
  {
   "name":"_ZTVN7android7BBinderE"
  },
  {
   "name":"_ZTVN7android7IBinderE"
  },
  {
   "name":"_ZTVN7android7IMemoryE"
  },
  {
   "name":"_ZTVN7android8BnMemoryE"
  },
  {
   "name":"_ZTVN7android8BpBinderE"
  },
  {
   "name":"_ZTVN7android9BpRefBaseE"
  }
 ]
}