{
 "record_types":[
  {
   "vtable_components":[
    {
     "kind":"offset_to_top"
    },
    {
     "kind":"rtti",
     "mangled_component_name":"_ZTIN7android8hardware12MemoryDealerE"
    },
    {
     "kind":"complete_dtor_pointer",
     "mangled_component_name":"_ZN7android8hardware12MemoryDealerD1Ev"
    },
    {
     "kind":"deleting_dtor_pointer",
     "mangled_component_name":"_ZN7android8hardware12MemoryDealerD0Ev"
    },
    {
     "mangled_component_name":"_ZN7android7RefBase10onFirstRefEv"
    },
    {
     "mangled_component_name":"_ZN7android7RefBase15onLastStrongRefEPKv"
    },
    {
     "mangled_component_name":"_ZN7android7RefBase20onIncStrongAttemptedEjPKv"
    },
    {
     "mangled_component_name":"_ZN7android7RefBase13onLastWeakRefEPKv"
    },
    {
     "mangled_component_name":"_ZN7android8hardware12MemoryDealer14allocateOffsetEm"
    },
    {
     "mangled_component_name":"_ZN7android8hardware12MemoryDealer10deallocateEm"
    },
    {
     "mangled_component_name":"_ZNK7android8hardware12MemoryDealer4dumpEPKc"
    }
   ],
   "unique_id":"_ZTSN7android8hardware12MemoryDealerE"
  },
  {
   "vtable_components":[
    {
     "kind":"offset_to_top"
    },
    {
     "kind":"rtti",
     "mangled_component_name":"_ZTIN7android8hardware16HidlMemoryDealerE"
    },
    {
     "kind":"complete_dtor_pointer",
     "mangled_component_name":"_ZN7android8hardware16HidlMemoryDealerD1Ev"
    },
    {
     "kind":"deleting_dtor_pointer",
     "mangled_component_name":"_ZN7android8hardware16HidlMemoryDealerD0Ev"
    },
    {
     "mangled_component_name":"_ZN7android7RefBase10onFirstRefEv"
    },
    {
     "mangled_component_name":"_ZN7android7RefBase15onLastStrongRefEPKv"
    },
    {
     "mangled_component_name":"_ZN7android7RefBase20onIncStrongAttemptedEjPKv"
    },
    {
     "mangled_component_name":"_ZN7android7RefBase13onLastWeakRefEPKv"
    },
    {
     "mangled_component_name":"_ZN7android8hardware12MemoryDealer14allocateOffsetEm"
    },
    {
     "mangled_component_name":"_ZN7android8hardware12MemoryDealer10deallocateEm"
    },
    {
     "mangled_component_name":"_ZNK7android8hardware12MemoryDealer4dumpEPKc"
    },
    {
     "mangled_component_name":"_ZN7android8hardware16HidlMemoryDealer8allocateEm"
    },
    {
     "mangled_component_name":"_ZN7android8hardware16HidlMemoryDealer4heapEv"
    }
   ],
   "unique_id":"_ZTSN7android8hardware16HidlMemoryDealerE"
  }
 ],
 "elf_functions":[
  {
   "binding":"weak",
   "name":"_ZN7android2spINS_8hardware15HidlMemoryCacheEED2Ev"
  },
  {
   "name":"_ZN7android8hardware12MemoryDealer10deallocateEm"
  },
  {
   "name":"_ZN7android8hardware12MemoryDealer14allocateOffsetEm"
  },
  {
   "name":"_ZN7android8hardware12MemoryDealer22getAllocationAlignmentEv"
  },
  {
   "name":"_ZN7android8hardware12MemoryDealerC1Em"
  },
  {
   "name":"_ZN7android8hardware12MemoryDealerC2Em"
  },
  {
   "name":"_ZN7android8hardware12MemoryDealerD0Ev"
  },
  {
   "name":"_ZN7android8hardware12MemoryDealerD1Ev"
  },
  {
   "name":"_ZN7android8hardware12MemoryDealerD2Ev"
  },
  {
   "name":"_ZN7android8hardware16HidlMemoryDealer11getInstanceERKNS0_11hidl_memoryE"
  },
  {
   "name":"_ZN7android8hardware16HidlMemoryDealer4heapEv"
  },
  {
   "name":"_ZN7android8hardware16HidlMemoryDealer4isOkERKNS_4hidl6memory5block4V1_011MemoryBlockE"
  },
  {
   "name":"_ZN7android8hardware16HidlMemoryDealer8allocateEm"
  },
  {
   "name":"_ZN7android8hardware16HidlMemoryDealerC1ENS_2spINS_4hidl6memory4V1_07IMemoryEEERKNS0_11hidl_memoryE"
  },
  {
   "name":"_ZN7android8hardware16HidlMemoryDealerC2ENS_2spINS_4hidl6memory4V1_07IMemoryEEERKNS0_11hidl_memoryE"
  },
  {
   "binding":"weak",
   "name":"_ZN7android8hardware8toBinderINS_4hidl6memory5token4V1_012IMemoryTokenEvEENS_2spINS0_7IBinderEEENS7_IT_EE"
  },
  {
   "name":"_ZNK7android8hardware12MemoryDealer4dumpEPKc"
  }
 ],
 "elf_objects":[
  {
   "name":"_ZTVN7android8hardware12MemoryDealerE"
  },
  {
   "name":"_ZTVN7android8hardware16HidlMemoryDealerE"
  }
 ]
}