{
 "record_types":[
  {
   "vtable_components":[
    {
     "kind":"vbase_offset"
    },
    {
     "kind":"vcall_offset"
    },
    {
     "kind":"vcall_offset"
    },
    {
     "kind":"vcall_offset"
    },
    {
     "kind":"vcall_offset"
    },
    {
     "kind":"vcall_offset"
    },
    {
     "kind":"vcall_offset"
    },
    {
     "kind":"vcall_offset"
    },
    {
     "kind":"vcall_offset"
    },
    {
     "kind":"vcall_offset"
    },
    {
     "kind":"vcall_offset"
    },
    {
     "kind":"vcall_offset"
    },
    {
     "kind":"vcall_offset"
    },
    {
     "kind":"vcall_offset"
    },
    {
     "kind":"vbase_offset",
     "component_value":16
    },
    {
     "kind":"offset_to_top"
    },
    {
     "kind":"rtti",
     "mangled_component_name":"_ZTIN7android8hardware15HidlMemoryTokenE"
    },
    {
     "mangled_component_name":"_ZNK7android4hidl6memory5token4V1_012IMemoryToken8isRemoteEv"
    },
    {
     "mangled_component_name":"_ZN7android4hidl6memory5token4V1_012IMemoryToken14interfaceChainENSt3__18functionIFvRKNS_8hardware8hidl_vecINS7_11hidl_stringEEEEEE"
    },
    {
     "mangled_component_name":"_ZN7android4hidl6memory5token4V1_012IMemoryToken5debugERKNS_8hardware11hidl_handleERKNS5_8hidl_vecINS5_11hidl_stringEEE"
    },
    {
     "mangled_component_name":"_ZN7android4hidl6memory5token4V1_012IMemoryToken19interfaceDescriptorENSt3__18functionIFvRKNS_8hardware11hidl_stringEEEE"
    },
    {
     "mangled_component_name":"_ZN7android4hidl6memory5token4V1_012IMemoryToken12getHashChainENSt3__18functionIFvRKNS_8hardware8hidl_vecINS7_10hidl_arrayIhLm32EJEEEEEEEE"
    },
    {
     "mangled_component_name":"_ZN7android4hidl6memory5token4V1_012IMemoryToken21setHALInstrumentationEv"
    },
    {
     "mangled_component_name":"_ZN7android4hidl6memory5token4V1_012IMemoryToken11linkToDeathERKNS_2spINS_8hardware20hidl_death_recipientEEEm"
    },
    {
     "mangled_component_name":"_ZN7android4hidl6memory5token4V1_012IMemoryToken4pingEv"
    },
    {
     "mangled_component_name":"_ZN7android4hidl6memory5token4V1_012IMemoryToken12getDebugInfoENSt3__18functionIFvRKNS0_4base4V1_09DebugInfoEEEE"
    },
    {
     "mangled_component_name":"_ZN7android4hidl6memory5token4V1_012IMemoryToken21notifySyspropsChangedEv"
    },
    {
     "mangled_component_name":"_ZN7android4hidl6memory5token4V1_012IMemoryToken13unlinkToDeathERKNS_2spINS_8hardware20hidl_death_recipientEEE"
    },
    {
     "kind":"complete_dtor_pointer",
     "mangled_component_name":"_ZN7android8hardware15HidlMemoryTokenD1Ev"
    },
    {
     "kind":"deleting_dtor_pointer",
     "mangled_component_name":"_ZN7android8hardware15HidlMemoryTokenD0Ev"
    },
    {
     "mangled_component_name":"_ZN7android8hardware15HidlMemoryToken3getENSt3__18functionIFvRKNS0_11hidl_memoryEEEE"
    },
    {
     "kind":"vcall_offset"
    },
    {
     "kind":"vcall_offset"
    },
    {
     "kind":"vcall_offset"
    },
    {
     "kind":"vcall_offset"
    },
    {
     "kind":"vcall_offset",
     "component_value":-16
    },
    {
     "kind":"offset_to_top",
     "component_value":-16
    },
    {
     "kind":"rtti",
     "mangled_component_name":"_ZTIN7android8hardware15HidlMemoryTokenE"
    },
    {
     "kind":"complete_dtor_pointer",
     "mangled_component_name":"_ZTv0_n24_N7android8hardware15HidlMemoryTokenD1Ev"
    },
    {
     "kind":"deleting_dtor_pointer",
     "mangled_component_name":"_ZTv0_n24_N7android8hardware15HidlMemoryTokenD0Ev"
    },
    {
     "mangled_component_name":"_ZN7android7RefBase10onFirstRefEv"
    },
    {
     "mangled_component_name":"_ZN7android7RefBase15onLastStrongRefEPKv"
    },
    {
     "mangled_component_name":"_ZN7android7RefBase20onIncStrongAttemptedEjPKv"
    },
    {
     "mangled_component_name":"_ZN7android7RefBase13onLastWeakRefEPKv"
    }
   ],
   "unique_id":"_ZTSN7android8hardware15HidlMemoryTokenE"
  }
 ],
 "elf_functions":[
  {
   "name":"_ZN7android8hardware15HidlMemoryToken3getENSt3__18functionIFvRKNS0_11hidl_memoryEEEE"
  },
  {
   "name":"_ZN7android8hardware15HidlMemoryTokenC1ENS_2spINS0_10HidlMemoryEEE"
  },
  {
   "name":"_ZN7android8hardware15HidlMemoryTokenC2ENS_2spINS0_10HidlMemoryEEE"
  },
  {
   "name":"_ZN7android8hardware9mapMemoryERKNS0_11hidl_memoryE"
  },
  {
   "name":"_ZTv0_n128_N7android8hardware15HidlMemoryToken3getENSt3__18functionIFvRKNS0_11hidl_memoryEEEE"
  }
 ],
 "elf_objects":[
  {
   "name":"_ZTTN7android8hardware15HidlMemoryTokenE"
  },
  {
   "name":"_ZTVN7android8hardware15HidlMemoryTokenE"
  }
 ]
}