{
 "record_types":[
  {
   "vtable_components":[
    {
     "kind":"offset_to_top"
    },
    {
     "kind":"rtti",
     "mangled_component_name":"_ZTIN7android12renderscript32RsdCpuScriptIntrinsicColorMatrixE"
    },
    {
     "mangled_component_name":"_ZN7android12renderscript32RsdCpuScriptIntrinsicColorMatrix14populateScriptEPNS0_6ScriptE"
    },
    {
     "mangled_component_name":"_ZN7android12renderscript21RsdCpuScriptIntrinsic14invokeFunctionEjPKvm"
    },
    {
     "mangled_component_name":"_ZN7android12renderscript21RsdCpuScriptIntrinsic10invokeRootEv"
    },
    {
     "mangled_component_name":"_ZN7android12renderscript21RsdCpuScriptIntrinsic13invokeForEachEjPPKNS0_10AllocationEjPS2_PKvjPK12RsScriptCall"
    },
    {
     "mangled_component_name":"_ZN7android12renderscript16RsdCpuScriptImpl12invokeReduceEjPPKNS0_10AllocationEjPS2_PK12RsScriptCall"
    },
    {
     "mangled_component_name":"_ZN7android12renderscript21RsdCpuScriptIntrinsic10invokeInitEv"
    },
    {
     "mangled_component_name":"_ZN7android12renderscript21RsdCpuScriptIntrinsic18invokeFreeChildrenEv"
    },
    {
     "mangled_component_name":"_ZN7android12renderscript32RsdCpuScriptIntrinsicColorMatrix12setGlobalVarEjPKvm"
    },
    {
     "mangled_component_name":"_ZN7android12renderscript16RsdCpuScriptImpl12getGlobalVarEjPvm"
    },
    {
     "mangled_component_name":"_ZN7android12renderscript21RsdCpuScriptIntrinsic24setGlobalVarWithElemDimsEjPKvmPKNS0_7ElementEPKjm"
    },
    {
     "mangled_component_name":"_ZN7android12renderscript21RsdCpuScriptIntrinsic13setGlobalBindEjPNS0_10AllocationE"
    },
    {
     "mangled_component_name":"_ZN7android12renderscript21RsdCpuScriptIntrinsic12setGlobalObjEjPNS0_10ObjectBaseE"
    },
    {
     "mangled_component_name":"_ZNK7android12renderscript16RsdCpuScriptImpl23getAllocationForPointerEPKv"
    },
    {
     "mangled_component_name":"_ZNK7android12renderscript16RsdCpuScriptImpl16getGlobalEntriesEv"
    },
    {
     "mangled_component_name":"_ZNK7android12renderscript16RsdCpuScriptImpl13getGlobalNameEi"
    },
    {
     "mangled_component_name":"_ZNK7android12renderscript16RsdCpuScriptImpl16getGlobalAddressEi"
    },
    {
     "mangled_component_name":"_ZNK7android12renderscript16RsdCpuScriptImpl13getGlobalSizeEi"
    },
    {
     "mangled_component_name":"_ZNK7android12renderscript16RsdCpuScriptImpl19getGlobalPropertiesEi"
    },
    {
     "kind":"complete_dtor_pointer",
     "mangled_component_name":"_ZN7android12renderscript32RsdCpuScriptIntrinsicColorMatrixD1Ev"
    },
    {
     "kind":"deleting_dtor_pointer",
     "mangled_component_name":"_ZN7android12renderscript32RsdCpuScriptIntrinsicColorMatrixD0Ev"
    },
    {
     "mangled_component_name":"_ZN7android12renderscript32RsdCpuScriptIntrinsicColorMatrix9preLaunchEjPPKNS0_10AllocationEjPS2_PKvjPK12RsScriptCall"
    },
    {
     "mangled_component_name":"_ZN7android12renderscript21RsdCpuScriptIntrinsic10postLaunchEjPPKNS0_10AllocationEjPS2_PKvjPK12RsScriptCall"
    },
    {
     "mangled_component_name":"_ZN7android12renderscript21RsdCpuScriptIntrinsic18forEachKernelSetupEjPNS0_21MTLaunchStructForEachE"
    },
    {
     "mangled_component_name":"_ZN7android12renderscript16RsdCpuScriptImpl17reduceKernelSetupEjPNS0_20MTLaunchStructReduceE"
    }
   ],
   "unique_id":"_ZTSN7android12renderscript32RsdCpuScriptIntrinsicColorMatrixE"
  },
  {
   "vtable_components":[
    {
     "kind":"offset_to_top"
    },
    {
     "kind":"rtti",
     "mangled_component_name":"_ZTIN7android12renderscript32RsdCpuScriptIntrinsicConvolve3x3E"
    },
    {
     "mangled_component_name":"_ZN7android12renderscript32RsdCpuScriptIntrinsicConvolve3x314populateScriptEPNS0_6ScriptE"
    },
    {
     "mangled_component_name":"_ZN7android12renderscript21RsdCpuScriptIntrinsic14invokeFunctionEjPKvm"
    },
    {
     "mangled_component_name":"_ZN7android12renderscript21RsdCpuScriptIntrinsic10invokeRootEv"
    },
    {
     "mangled_component_name":"_ZN7android12renderscript21RsdCpuScriptIntrinsic13invokeForEachEjPPKNS0_10AllocationEjPS2_PKvjPK12RsScriptCall"
    },
    {
     "mangled_component_name":"_ZN7android12renderscript16RsdCpuScriptImpl12invokeReduceEjPPKNS0_10AllocationEjPS2_PK12RsScriptCall"
    },
    {
     "mangled_component_name":"_ZN7android12renderscript21RsdCpuScriptIntrinsic10invokeInitEv"
    },
    {
     "mangled_component_name":"_ZN7android12renderscript32RsdCpuScriptIntrinsicConvolve3x318invokeFreeChildrenEv"
    },
    {
     "mangled_component_name":"_ZN7android12renderscript32RsdCpuScriptIntrinsicConvolve3x312setGlobalVarEjPKvm"
    },
    {
     "mangled_component_name":"_ZN7android12renderscript16RsdCpuScriptImpl12getGlobalVarEjPvm"
    },
    {
     "mangled_component_name":"_ZN7android12renderscript21RsdCpuScriptIntrinsic24setGlobalVarWithElemDimsEjPKvmPKNS0_7ElementEPKjm"
    },
    {
     "mangled_component_name":"_ZN7android12renderscript21RsdCpuScriptIntrinsic13setGlobalBindEjPNS0_10AllocationE"
    },
    {
     "mangled_component_name":"_ZN7android12renderscript32RsdCpuScriptIntrinsicConvolve3x312setGlobalObjEjPNS0_10ObjectBaseE"
    },
    {
     "mangled_component_name":"_ZNK7android12renderscript16RsdCpuScriptImpl23getAllocationForPointerEPKv"
    },
    {
     "mangled_component_name":"_ZNK7android12renderscript16RsdCpuScriptImpl16getGlobalEntriesEv"
    },
    {
     "mangled_component_name":"_ZNK7android12renderscript16RsdCpuScriptImpl13getGlobalNameEi"
    },
    {
     "mangled_component_name":"_ZNK7android12renderscript16RsdCpuScriptImpl16getGlobalAddressEi"
    },
    {
     "mangled_component_name":"_ZNK7android12renderscript16RsdCpuScriptImpl13getGlobalSizeEi"
    },
    {
     "mangled_component_name":"_ZNK7android12renderscript16RsdCpuScriptImpl19getGlobalPropertiesEi"
    },
    {
     "kind":"complete_dtor_pointer",
     "mangled_component_name":"_ZN7android12renderscript32RsdCpuScriptIntrinsicConvolve3x3D1Ev"
    },
    {
     "kind":"deleting_dtor_pointer",
     "mangled_component_name":"_ZN7android12renderscript32RsdCpuScriptIntrinsicConvolve3x3D0Ev"
    },
    {
     "mangled_component_name":"_ZN7android12renderscript21RsdCpuScriptIntrinsic9preLaunchEjPPKNS0_10AllocationEjPS2_PKvjPK12RsScriptCall"
    },
    {
     "mangled_component_name":"_ZN7android12renderscript21RsdCpuScriptIntrinsic10postLaunchEjPPKNS0_10AllocationEjPS2_PKvjPK12RsScriptCall"
    },
    {
     "mangled_component_name":"_ZN7android12renderscript21RsdCpuScriptIntrinsic18forEachKernelSetupEjPNS0_21MTLaunchStructForEachE"
    },
    {
     "mangled_component_name":"_ZN7android12renderscript16RsdCpuScriptImpl17reduceKernelSetupEjPNS0_20MTLaunchStructReduceE"
    }
   ],
   "unique_id":"_ZTSN7android12renderscript32RsdCpuScriptIntrinsicConvolve3x3E"
  },
  {
   "vtable_components":[
    {
     "kind":"offset_to_top"
    },
    {
     "kind":"rtti",
     "mangled_component_name":"_ZTIN7android12renderscript32RsdCpuScriptIntrinsicConvolve5x5E"
    },
    {
     "mangled_component_name":"_ZN7android12renderscript32RsdCpuScriptIntrinsicConvolve5x514populateScriptEPNS0_6ScriptE"
    },
    {
     "mangled_component_name":"_ZN7android12renderscript21RsdCpuScriptIntrinsic14invokeFunctionEjPKvm"
    },
    {
     "mangled_component_name":"_ZN7android12renderscript21RsdCpuScriptIntrinsic10invokeRootEv"
    },
    {
     "mangled_component_name":"_ZN7android12renderscript21RsdCpuScriptIntrinsic13invokeForEachEjPPKNS0_10AllocationEjPS2_PKvjPK12RsScriptCall"
    },
    {
     "mangled_component_name":"_ZN7android12renderscript16RsdCpuScriptImpl12invokeReduceEjPPKNS0_10AllocationEjPS2_PK12RsScriptCall"
    },
    {
     "mangled_component_name":"_ZN7android12renderscript21RsdCpuScriptIntrinsic10invokeInitEv"
    },
    {
     "mangled_component_name":"_ZN7android12renderscript32RsdCpuScriptIntrinsicConvolve5x518invokeFreeChildrenEv"
    },
    {
     "mangled_component_name":"_ZN7android12renderscript32RsdCpuScriptIntrinsicConvolve5x512setGlobalVarEjPKvm"
    },
    {
     "mangled_component_name":"_ZN7android12renderscript16RsdCpuScriptImpl12getGlobalVarEjPvm"
    },
    {
     "mangled_component_name":"_ZN7android12renderscript21RsdCpuScriptIntrinsic24setGlobalVarWithElemDimsEjPKvmPKNS0_7ElementEPKjm"
    },
    {
     "mangled_component_name":"_ZN7android12renderscript21RsdCpuScriptIntrinsic13setGlobalBindEjPNS0_10AllocationE"
    },
    {
     "mangled_component_name":"_ZN7android12renderscript32RsdCpuScriptIntrinsicConvolve5x512setGlobalObjEjPNS0_10ObjectBaseE"
    },
    {
     "mangled_component_name":"_ZNK7android12renderscript16RsdCpuScriptImpl23getAllocationForPointerEPKv"
    },
    {
     "mangled_component_name":"_ZNK7android12renderscript16RsdCpuScriptImpl16getGlobalEntriesEv"
    },
    {
     "mangled_component_name":"_ZNK7android12renderscript16RsdCpuScriptImpl13getGlobalNameEi"
    },
    {
     "mangled_component_name":"_ZNK7android12renderscript16RsdCpuScriptImpl16getGlobalAddressEi"
    },
    {
     "mangled_component_name":"_ZNK7android12renderscript16RsdCpuScriptImpl13getGlobalSizeEi"
    },
    {
     "mangled_component_name":"_ZNK7android12renderscript16RsdCpuScriptImpl19getGlobalPropertiesEi"
    },
    {
     "kind":"complete_dtor_pointer",
     "mangled_component_name":"_ZN7android12renderscript32RsdCpuScriptIntrinsicConvolve5x5D1Ev"
    },
    {
     "kind":"deleting_dtor_pointer",
     "mangled_component_name":"_ZN7android12renderscript32RsdCpuScriptIntrinsicConvolve5x5D0Ev"
    },
    {
     "mangled_component_name":"_ZN7android12renderscript21RsdCpuScriptIntrinsic9preLaunchEjPPKNS0_10AllocationEjPS2_PKvjPK12RsScriptCall"
    },
    {
     "mangled_component_name":"_ZN7android12renderscript21RsdCpuScriptIntrinsic10postLaunchEjPPKNS0_10AllocationEjPS2_PKvjPK12RsScriptCall"
    },
    {
     "mangled_component_name":"_ZN7android12renderscript21RsdCpuScriptIntrinsic18forEachKernelSetupEjPNS0_21MTLaunchStructForEachE"
    },
    {
     "mangled_component_name":"_ZN7android12renderscript16RsdCpuScriptImpl17reduceKernelSetupEjPNS0_20MTLaunchStructReduceE"
    }
   ],
   "unique_id":"_ZTSN7android12renderscript32RsdCpuScriptIntrinsicConvolve5x5E"
  },
  {
   "vtable_components":[
    {
     "kind":"offset_to_top"
    },
    {
     "kind":"rtti",
     "mangled_component_name":"_ZTIN7android12renderscript19CpuScriptGroup2ImplE"
    },
    {
     "mangled_component_name":"_ZN7android12renderscript19CpuScriptGroup2Impl7executeEv"
    },
    {
     "kind":"complete_dtor_pointer",
     "mangled_component_name":"_ZN7android12renderscript19CpuScriptGroup2ImplD1Ev"
    },
    {
     "kind":"deleting_dtor_pointer",
     "mangled_component_name":"_ZN7android12renderscript19CpuScriptGroup2ImplD0Ev"
    }
   ],
   "unique_id":"_ZTSN7android12renderscript19CpuScriptGroup2ImplE"
  },
  {
   "vtable_components":[
    {
     "kind":"offset_to_top"
    },
    {
     "kind":"rtti",
     "mangled_component_name":"_ZTIN7android12renderscript30RsdCpuScriptIntrinsicHistogramE"
    },
    {
     "mangled_component_name":"_ZN7android12renderscript30RsdCpuScriptIntrinsicHistogram14populateScriptEPNS0_6ScriptE"
    },
    {
     "mangled_component_name":"_ZN7android12renderscript21RsdCpuScriptIntrinsic14invokeFunctionEjPKvm"
    },
    {
     "mangled_component_name":"_ZN7android12renderscript21RsdCpuScriptIntrinsic10invokeRootEv"
    },
    {
     "mangled_component_name":"_ZN7android12renderscript21RsdCpuScriptIntrinsic13invokeForEachEjPPKNS0_10AllocationEjPS2_PKvjPK12RsScriptCall"
    },
    {
     "mangled_component_name":"_ZN7android12renderscript16RsdCpuScriptImpl12invokeReduceEjPPKNS0_10AllocationEjPS2_PK12RsScriptCall"
    },
    {
     "mangled_component_name":"_ZN7android12renderscript21RsdCpuScriptIntrinsic10invokeInitEv"
    },
    {
     "mangled_component_name":"_ZN7android12renderscript30RsdCpuScriptIntrinsicHistogram18invokeFreeChildrenEv"
    },
    {
     "mangled_component_name":"_ZN7android12renderscript30RsdCpuScriptIntrinsicHistogram12setGlobalVarEjPKvm"
    },
    {
     "mangled_component_name":"_ZN7android12renderscript16RsdCpuScriptImpl12getGlobalVarEjPvm"
    },
    {
     "mangled_component_name":"_ZN7android12renderscript21RsdCpuScriptIntrinsic24setGlobalVarWithElemDimsEjPKvmPKNS0_7ElementEPKjm"
    },
    {
     "mangled_component_name":"_ZN7android12renderscript21RsdCpuScriptIntrinsic13setGlobalBindEjPNS0_10AllocationE"
    },
    {
     "mangled_component_name":"_ZN7android12renderscript30RsdCpuScriptIntrinsicHistogram12setGlobalObjEjPNS0_10ObjectBaseE"
    },
    {
     "mangled_component_name":"_ZNK7android12renderscript16RsdCpuScriptImpl23getAllocationForPointerEPKv"
    },
    {
     "mangled_component_name":"_ZNK7android12renderscript16RsdCpuScriptImpl16getGlobalEntriesEv"
    },
    {
     "mangled_component_name":"_ZNK7android12renderscript16RsdCpuScriptImpl13getGlobalNameEi"
    },
    {
     "mangled_component_name":"_ZNK7android12renderscript16RsdCpuScriptImpl16getGlobalAddressEi"
    },
    {
     "mangled_component_name":"_ZNK7android12renderscript16RsdCpuScriptImpl13getGlobalSizeEi"
    },
    {
     "mangled_component_name":"_ZNK7android12renderscript16RsdCpuScriptImpl19getGlobalPropertiesEi"
    },
    {
     "kind":"complete_dtor_pointer",
     "mangled_component_name":"_ZN7android12renderscript30RsdCpuScriptIntrinsicHistogramD1Ev"
    },
    {
     "kind":"deleting_dtor_pointer",
     "mangled_component_name":"_ZN7android12renderscript30RsdCpuScriptIntrinsicHistogramD0Ev"
    },
    {
     "mangled_component_name":"_ZN7android12renderscript30RsdCpuScriptIntrinsicHistogram9preLaunchEjPPKNS0_10AllocationEjPS2_PKvjPK12RsScriptCall"
    },
    {
     "mangled_component_name":"_ZN7android12renderscript30RsdCpuScriptIntrinsicHistogram10postLaunchEjPPKNS0_10AllocationEjPS2_PKvjPK12RsScriptCall"
    },
    {
     "mangled_component_name":"_ZN7android12renderscript21RsdCpuScriptIntrinsic18forEachKernelSetupEjPNS0_21MTLaunchStructForEachE"
    },
    {
     "mangled_component_name":"_ZN7android12renderscript16RsdCpuScriptImpl17reduceKernelSetupEjPNS0_20MTLaunchStructReduceE"
    }
   ],
   "unique_id":"_ZTSN7android12renderscript30RsdCpuScriptIntrinsicHistogramE"
  },
  {
   "vtable_components":[
    {
     "kind":"offset_to_top"
    },
    {
     "kind":"rtti",
     "mangled_component_name":"_ZTIN7android12renderscript27RsdCpuScriptIntrinsicResizeE"
    },
    {
     "mangled_component_name":"_ZN7android12renderscript27RsdCpuScriptIntrinsicResize14populateScriptEPNS0_6ScriptE"
    },
    {
     "mangled_component_name":"_ZN7android12renderscript21RsdCpuScriptIntrinsic14invokeFunctionEjPKvm"
    },
    {
     "mangled_component_name":"_ZN7android12renderscript21RsdCpuScriptIntrinsic10invokeRootEv"
    },
    {
     "mangled_component_name":"_ZN7android12renderscript21RsdCpuScriptIntrinsic13invokeForEachEjPPKNS0_10AllocationEjPS2_PKvjPK12RsScriptCall"
    },
    {
     "mangled_component_name":"_ZN7android12renderscript16RsdCpuScriptImpl12invokeReduceEjPPKNS0_10AllocationEjPS2_PK12RsScriptCall"
    },
    {
     "mangled_component_name":"_ZN7android12renderscript21RsdCpuScriptIntrinsic10invokeInitEv"
    },
    {
     "mangled_component_name":"_ZN7android12renderscript27RsdCpuScriptIntrinsicResize18invokeFreeChildrenEv"
    },
    {
     "mangled_component_name":"_ZN7android12renderscript21RsdCpuScriptIntrinsic12setGlobalVarEjPKvm"
    },
    {
     "mangled_component_name":"_ZN7android12renderscript16RsdCpuScriptImpl12getGlobalVarEjPvm"
    },
    {
     "mangled_component_name":"_ZN7android12renderscript21RsdCpuScriptIntrinsic24setGlobalVarWithElemDimsEjPKvmPKNS0_7ElementEPKjm"
    },
    {
     "mangled_component_name":"_ZN7android12renderscript21RsdCpuScriptIntrinsic13setGlobalBindEjPNS0_10AllocationE"
    },
    {
     "mangled_component_name":"_ZN7android12renderscript27RsdCpuScriptIntrinsicResize12setGlobalObjEjPNS0_10ObjectBaseE"
    },
    {
     "mangled_component_name":"_ZNK7android12renderscript16RsdCpuScriptImpl23getAllocationForPointerEPKv"
    },
    {
     "mangled_component_name":"_ZNK7android12renderscript16RsdCpuScriptImpl16getGlobalEntriesEv"
    },
    {
     "mangled_component_name":"_ZNK7android12renderscript16RsdCpuScriptImpl13getGlobalNameEi"
    },
    {
     "mangled_component_name":"_ZNK7android12renderscript16RsdCpuScriptImpl16getGlobalAddressEi"
    },
    {
     "mangled_component_name":"_ZNK7android12renderscript16RsdCpuScriptImpl13getGlobalSizeEi"
    },
    {
     "mangled_component_name":"_ZNK7android12renderscript16RsdCpuScriptImpl19getGlobalPropertiesEi"
    },
    {
     "kind":"complete_dtor_pointer",
     "mangled_component_name":"_ZN7android12renderscript27RsdCpuScriptIntrinsicResizeD1Ev"
    },
    {
     "kind":"deleting_dtor_pointer",
     "mangled_component_name":"_ZN7android12renderscript27RsdCpuScriptIntrinsicResizeD0Ev"
    },
    {
     "mangled_component_name":"_ZN7android12renderscript27RsdCpuScriptIntrinsicResize9preLaunchEjPPKNS0_10AllocationEjPS2_PKvjPK12RsScriptCall"
    },
    {
     "mangled_component_name":"_ZN7android12renderscript21RsdCpuScriptIntrinsic10postLaunchEjPPKNS0_10AllocationEjPS2_PKvjPK12RsScriptCall"
    },
    {
     "mangled_component_name":"_ZN7android12renderscript21RsdCpuScriptIntrinsic18forEachKernelSetupEjPNS0_21MTLaunchStructForEachE"
    },
    {
     "mangled_component_name":"_ZN7android12renderscript16RsdCpuScriptImpl17reduceKernelSetupEjPNS0_20MTLaunchStructReduceE"
    }
   ],
   "unique_id":"_ZTSN7android12renderscript27RsdCpuScriptIntrinsicResizeE"
  },
  {
   "vtable_components":[
    {
     "kind":"offset_to_top"
    },
    {
     "kind":"rtti",
     "mangled_component_name":"_ZTIN7android12renderscript24RsdCpuScriptIntrinsicLUTE"
    },
    {
     "mangled_component_name":"_ZN7android12renderscript24RsdCpuScriptIntrinsicLUT14populateScriptEPNS0_6ScriptE"
    },
    {
     "mangled_component_name":"_ZN7android12renderscript21RsdCpuScriptIntrinsic14invokeFunctionEjPKvm"
    },
    {
     "mangled_component_name":"_ZN7android12renderscript21RsdCpuScriptIntrinsic10invokeRootEv"
    },
    {
     "mangled_component_name":"_ZN7android12renderscript21RsdCpuScriptIntrinsic13invokeForEachEjPPKNS0_10AllocationEjPS2_PKvjPK12RsScriptCall"
    },
    {
     "mangled_component_name":"_ZN7android12renderscript16RsdCpuScriptImpl12invokeReduceEjPPKNS0_10AllocationEjPS2_PK12RsScriptCall"
    },
    {
     "mangled_component_name":"_ZN7android12renderscript21RsdCpuScriptIntrinsic10invokeInitEv"
    },
    {
     "mangled_component_name":"_ZN7android12renderscript24RsdCpuScriptIntrinsicLUT18invokeFreeChildrenEv"
    },
    {
     "mangled_component_name":"_ZN7android12renderscript21RsdCpuScriptIntrinsic12setGlobalVarEjPKvm"
    },
    {
     "mangled_component_name":"_ZN7android12renderscript16RsdCpuScriptImpl12getGlobalVarEjPvm"
    },
    {
     "mangled_component_name":"_ZN7android12renderscript21RsdCpuScriptIntrinsic24setGlobalVarWithElemDimsEjPKvmPKNS0_7ElementEPKjm"
    },
    {
     "mangled_component_name":"_ZN7android12renderscript21RsdCpuScriptIntrinsic13setGlobalBindEjPNS0_10AllocationE"
    },
    {
     "mangled_component_name":"_ZN7android12renderscript24RsdCpuScriptIntrinsicLUT12setGlobalObjEjPNS0_10ObjectBaseE"
    },
    {
     "mangled_component_name":"_ZNK7android12renderscript16RsdCpuScriptImpl23getAllocationForPointerEPKv"
    },
    {
     "mangled_component_name":"_ZNK7android12renderscript16RsdCpuScriptImpl16getGlobalEntriesEv"
    },
    {
     "mangled_component_name":"_ZNK7android12renderscript16RsdCpuScriptImpl13getGlobalNameEi"
    },
    {
     "mangled_component_name":"_ZNK7android12renderscript16RsdCpuScriptImpl16getGlobalAddressEi"
    },
    {
     "mangled_component_name":"_ZNK7android12renderscript16RsdCpuScriptImpl13getGlobalSizeEi"
    },
    {
     "mangled_component_name":"_ZNK7android12renderscript16RsdCpuScriptImpl19getGlobalPropertiesEi"
    },
    {
     "kind":"complete_dtor_pointer",
     "mangled_component_name":"_ZN7android12renderscript24RsdCpuScriptIntrinsicLUTD1Ev"
    },
    {
     "kind":"deleting_dtor_pointer",
     "mangled_component_name":"_ZN7android12renderscript24RsdCpuScriptIntrinsicLUTD0Ev"
    },
    {
     "mangled_component_name":"_ZN7android12renderscript21RsdCpuScriptIntrinsic9preLaunchEjPPKNS0_10AllocationEjPS2_PKvjPK12RsScriptCall"
    },
    {
     "mangled_component_name":"_ZN7android12renderscript21RsdCpuScriptIntrinsic10postLaunchEjPPKNS0_10AllocationEjPS2_PKvjPK12RsScriptCall"
    },
    {
     "mangled_component_name":"_ZN7android12renderscript21RsdCpuScriptIntrinsic18forEachKernelSetupEjPNS0_21MTLaunchStructForEachE"
    },
    {
     "mangled_component_name":"_ZN7android12renderscript16RsdCpuScriptImpl17reduceKernelSetupEjPNS0_20MTLaunchStructReduceE"
    }
   ],
   "unique_id":"_ZTSN7android12renderscript24RsdCpuScriptIntrinsicLUTE"
  },
  {
   "vtable_components":[
    {
     "kind":"offset_to_top"
    },
    {
     "kind":"rtti",
     "mangled_component_name":"_ZTIN7android12renderscript29RsdCpuScriptIntrinsicYuvToRGBE"
    },
    {
     "mangled_component_name":"_ZN7android12renderscript29RsdCpuScriptIntrinsicYuvToRGB14populateScriptEPNS0_6ScriptE"
    },
    {
     "mangled_component_name":"_ZN7android12renderscript21RsdCpuScriptIntrinsic14invokeFunctionEjPKvm"
    },
    {
     "mangled_component_name":"_ZN7android12renderscript21RsdCpuScriptIntrinsic10invokeRootEv"
    },
    {
     "mangled_component_name":"_ZN7android12renderscript21RsdCpuScriptIntrinsic13invokeForEachEjPPKNS0_10AllocationEjPS2_PKvjPK12RsScriptCall"
    },
    {
     "mangled_component_name":"_ZN7android12renderscript16RsdCpuScriptImpl12invokeReduceEjPPKNS0_10AllocationEjPS2_PK12RsScriptCall"
    },
    {
     "mangled_component_name":"_ZN7android12renderscript21RsdCpuScriptIntrinsic10invokeInitEv"
    },
    {
     "mangled_component_name":"_ZN7android12renderscript29RsdCpuScriptIntrinsicYuvToRGB18invokeFreeChildrenEv"
    },
    {
     "mangled_component_name":"_ZN7android12renderscript21RsdCpuScriptIntrinsic12setGlobalVarEjPKvm"
    },
    {
     "mangled_component_name":"_ZN7android12renderscript16RsdCpuScriptImpl12getGlobalVarEjPvm"
    },
    {
     "mangled_component_name":"_ZN7android12renderscript21RsdCpuScriptIntrinsic24setGlobalVarWithElemDimsEjPKvmPKNS0_7ElementEPKjm"
    },
    {
     "mangled_component_name":"_ZN7android12renderscript21RsdCpuScriptIntrinsic13setGlobalBindEjPNS0_10AllocationE"
    },
    {
     "mangled_component_name":"_ZN7android12renderscript29RsdCpuScriptIntrinsicYuvToRGB12setGlobalObjEjPNS0_10ObjectBaseE"
    },
    {
     "mangled_component_name":"_ZNK7android12renderscript16RsdCpuScriptImpl23getAllocationForPointerEPKv"
    },
    {
     "mangled_component_name":"_ZNK7android12renderscript16RsdCpuScriptImpl16getGlobalEntriesEv"
    },
    {
     "mangled_component_name":"_ZNK7android12renderscript16RsdCpuScriptImpl13getGlobalNameEi"
    },
    {
     "mangled_component_name":"_ZNK7android12renderscript16RsdCpuScriptImpl16getGlobalAddressEi"
    },
    {
     "mangled_component_name":"_ZNK7android12renderscript16RsdCpuScriptImpl13getGlobalSizeEi"
    },
    {
     "mangled_component_name":"_ZNK7android12renderscript16RsdCpuScriptImpl19getGlobalPropertiesEi"
    },
    {
     "kind":"complete_dtor_pointer",
     "mangled_component_name":"_ZN7android12renderscript29RsdCpuScriptIntrinsicYuvToRGBD1Ev"
    },
    {
     "kind":"deleting_dtor_pointer",
     "mangled_component_name":"_ZN7android12renderscript29RsdCpuScriptIntrinsicYuvToRGBD0Ev"
    },
    {
     "mangled_component_name":"_ZN7android12renderscript21RsdCpuScriptIntrinsic9preLaunchEjPPKNS0_10AllocationEjPS2_PKvjPK12RsScriptCall"
    },
    {
     "mangled_component_name":"_ZN7android12renderscript21RsdCpuScriptIntrinsic10postLaunchEjPPKNS0_10AllocationEjPS2_PKvjPK12RsScriptCall"
    },
    {
     "mangled_component_name":"_ZN7android12renderscript21RsdCpuScriptIntrinsic18forEachKernelSetupEjPNS0_21MTLaunchStructForEachE"
    },
    {
     "mangled_component_name":"_ZN7android12renderscript16RsdCpuScriptImpl17reduceKernelSetupEjPNS0_20MTLaunchStructReduceE"
    }
   ],
   "unique_id":"_ZTSN7android12renderscript29RsdCpuScriptIntrinsicYuvToRGBE"
  },
  {
   "vtable_components":[
    {
     "kind":"offset_to_top"
    },
    {
     "kind":"rtti",
     "mangled_component_name":"_ZTIN7android12renderscript21RsdCpuScriptIntrinsicE"
    },
    {
     "is_pure":true,
     "mangled_component_name":"_ZN7android12renderscript21RsdCpuScriptIntrinsic14populateScriptEPNS0_6ScriptE"
    },
    {
     "mangled_component_name":"_ZN7android12renderscript21RsdCpuScriptIntrinsic14invokeFunctionEjPKvm"
    },
    {
     "mangled_component_name":"_ZN7android12renderscript21RsdCpuScriptIntrinsic10invokeRootEv"
    },
    {
     "mangled_component_name":"_ZN7android12renderscript21RsdCpuScriptIntrinsic13invokeForEachEjPPKNS0_10AllocationEjPS2_PKvjPK12RsScriptCall"
    },
    {
     "mangled_component_name":"_ZN7android12renderscript16RsdCpuScriptImpl12invokeReduceEjPPKNS0_10AllocationEjPS2_PK12RsScriptCall"
    },
    {
     "mangled_component_name":"_ZN7android12renderscript21RsdCpuScriptIntrinsic10invokeInitEv"
    },
    {
     "mangled_component_name":"_ZN7android12renderscript21RsdCpuScriptIntrinsic18invokeFreeChildrenEv"
    },
    {
     "mangled_component_name":"_ZN7android12renderscript21RsdCpuScriptIntrinsic12setGlobalVarEjPKvm"
    },
    {
     "mangled_component_name":"_ZN7android12renderscript16RsdCpuScriptImpl12getGlobalVarEjPvm"
    },
    {
     "mangled_component_name":"_ZN7android12renderscript21RsdCpuScriptIntrinsic24setGlobalVarWithElemDimsEjPKvmPKNS0_7ElementEPKjm"
    },
    {
     "mangled_component_name":"_ZN7android12renderscript21RsdCpuScriptIntrinsic13setGlobalBindEjPNS0_10AllocationE"
    },
    {
     "mangled_component_name":"_ZN7android12renderscript21RsdCpuScriptIntrinsic12setGlobalObjEjPNS0_10ObjectBaseE"
    },
    {
     "mangled_component_name":"_ZNK7android12renderscript16RsdCpuScriptImpl23getAllocationForPointerEPKv"
    },
    {
     "mangled_component_name":"_ZNK7android12renderscript16RsdCpuScriptImpl16getGlobalEntriesEv"
    },
    {
     "mangled_component_name":"_ZNK7android12renderscript16RsdCpuScriptImpl13getGlobalNameEi"
    },
    {
     "mangled_component_name":"_ZNK7android12renderscript16RsdCpuScriptImpl16getGlobalAddressEi"
    },
    {
     "mangled_component_name":"_ZNK7android12renderscript16RsdCpuScriptImpl13getGlobalSizeEi"
    },
    {
     "mangled_component_name":"_ZNK7android12renderscript16RsdCpuScriptImpl19getGlobalPropertiesEi"
    },
    {
     "kind":"complete_dtor_pointer",
     "mangled_component_name":"_ZN7android12renderscript21RsdCpuScriptIntrinsicD1Ev"
    },
    {
     "kind":"deleting_dtor_pointer",
     "mangled_component_name":"_ZN7android12renderscript21RsdCpuScriptIntrinsicD0Ev"
    },
    {
     "mangled_component_name":"_ZN7android12renderscript21RsdCpuScriptIntrinsic9preLaunchEjPPKNS0_10AllocationEjPS2_PKvjPK12RsScriptCall"
    },
    {
     "mangled_component_name":"_ZN7android12renderscript21RsdCpuScriptIntrinsic10postLaunchEjPPKNS0_10AllocationEjPS2_PKvjPK12RsScriptCall"
    },
    {
     "mangled_component_name":"_ZN7android12renderscript21RsdCpuScriptIntrinsic18forEachKernelSetupEjPNS0_21MTLaunchStructForEachE"
    },
    {
     "mangled_component_name":"_ZN7android12renderscript16RsdCpuScriptImpl17reduceKernelSetupEjPNS0_20MTLaunchStructReduceE"
    }
   ],
   "unique_id":"_ZTSN7android12renderscript21RsdCpuScriptIntrinsicE"
  },
  {
   "vtable_components":[
    {
     "kind":"vbase_offset",
     "component_value":176
    },
    {
     "kind":"offset_to_top"
    },
    {
     "kind":"rtti",
     "mangled_component_name":"_ZTINSt3__114basic_ofstreamIcNS_11char_traitsIcEEEE"
    },
    {
     "kind":"complete_dtor_pointer",
     "mangled_component_name":"_ZNSt3__114basic_ofstreamIcNS_11char_traitsIcEEED1Ev"
    },
    {
     "kind":"deleting_dtor_pointer",
     "mangled_component_name":"_ZNSt3__114basic_ofstreamIcNS_11char_traitsIcEEED0Ev"
    },
    {
     "kind":"vcall_offset",
     "component_value":-176
    },
    {
     "kind":"offset_to_top",
     "component_value":-176
    },
    {
     "kind":"rtti",
     "mangled_component_name":"_ZTINSt3__114basic_ofstreamIcNS_11char_traitsIcEEEE"
    },
    {
     "kind":"complete_dtor_pointer",
     "mangled_component_name":"_ZTv0_n24_NSt3__114basic_ofstreamIcNS_11char_traitsIcEEED1Ev"
    },
    {
     "kind":"deleting_dtor_pointer",
     "mangled_component_name":"_ZTv0_n24_NSt3__114basic_ofstreamIcNS_11char_traitsIcEEED0Ev"
    }
   ],
   "unique_id":"_ZTSNSt3__114basic_ofstreamIcNS_11char_traitsIcEEEE"
  },
  {
   "vtable_components":[
    {
     "kind":"offset_to_top"
    },
    {
     "kind":"rtti",
     "mangled_component_name":"_ZTINSt3__113basic_filebufIcNS_11char_traitsIcEEEE"
    },
    {
     "kind":"complete_dtor_pointer",
     "mangled_component_name":"_ZNSt3__113basic_filebufIcNS_11char_traitsIcEEED1Ev"
    },
    {
     "kind":"deleting_dtor_pointer",
     "mangled_component_name":"_ZNSt3__113basic_filebufIcNS_11char_traitsIcEEED0Ev"
    },
    {
     "mangled_component_name":"_ZNSt3__113basic_filebufIcNS_11char_traitsIcEEE5imbueERKNS_6localeE"
    },
    {
     "mangled_component_name":"_ZNSt3__113basic_filebufIcNS_11char_traitsIcEEE6setbufEPcl"
    },
    {
     "mangled_component_name":"_ZNSt3__113basic_filebufIcNS_11char_traitsIcEEE7seekoffExNS_8ios_base7seekdirEj"
    },
    {
     "mangled_component_name":"_ZNSt3__113basic_filebufIcNS_11char_traitsIcEEE7seekposENS_4fposI9mbstate_tEEj"
    },
    {
     "mangled_component_name":"_ZNSt3__113basic_filebufIcNS_11char_traitsIcEEE4syncEv"
    },
    {
     "mangled_component_name":"_ZNSt3__115basic_streambufIcNS_11char_traitsIcEEE9showmanycEv"
    },
    {
     "mangled_component_name":"_ZNSt3__115basic_streambufIcNS_11char_traitsIcEEE6xsgetnEPcl"
    },
    {
     "mangled_component_name":"_ZNSt3__113basic_filebufIcNS_11char_traitsIcEEE9underflowEv"
    },
    {
     "mangled_component_name":"_ZNSt3__115basic_streambufIcNS_11char_traitsIcEEE5uflowEv"
    },
    {
     "mangled_component_name":"_ZNSt3__113basic_filebufIcNS_11char_traitsIcEEE9pbackfailEi"
    },
    {
     "mangled_component_name":"_ZNSt3__115basic_streambufIcNS_11char_traitsIcEEE6xsputnEPKcl"
    },
    {
     "mangled_component_name":"_ZNSt3__113basic_filebufIcNS_11char_traitsIcEEE8overflowEi"
    }
   ],
   "unique_id":"_ZTSNSt3__113basic_filebufIcNS_11char_traitsIcEEEE"
  },
  {
   "vtable_components":[
    {
     "kind":"offset_to_top"
    },
    {
     "kind":"rtti",
     "mangled_component_name":"_ZTIN7android12renderscript18CpuScriptGroupImplE"
    },
    {
     "mangled_component_name":"_ZN7android12renderscript18CpuScriptGroupImpl7executeEv"
    },
    {
     "kind":"complete_dtor_pointer",
     "mangled_component_name":"_ZN7android12renderscript18CpuScriptGroupImplD1Ev"
    },
    {
     "kind":"deleting_dtor_pointer",
     "mangled_component_name":"_ZN7android12renderscript18CpuScriptGroupImplD0Ev"
    },
    {
     "mangled_component_name":"_ZN7android12renderscript18CpuScriptGroupImpl8setInputEPKNS0_14ScriptKernelIDEPNS0_10AllocationE"
    },
    {
     "mangled_component_name":"_ZN7android12renderscript18CpuScriptGroupImpl9setOutputEPKNS0_14ScriptKernelIDEPNS0_10AllocationE"
    }
   ],
   "unique_id":"_ZTSN7android12renderscript18CpuScriptGroupImplE"
  },
  {
   "vtable_components":[
    {
     "kind":"offset_to_top"
    },
    {
     "kind":"rtti",
     "mangled_component_name":"_ZTIN7android12renderscript19RsdCpuReferenceImplE"
    },
    {
     "kind":"complete_dtor_pointer",
     "mangled_component_name":"_ZN7android12renderscript19RsdCpuReferenceImplD1Ev"
    },
    {
     "kind":"deleting_dtor_pointer",
     "mangled_component_name":"_ZN7android12renderscript19RsdCpuReferenceImplD0Ev"
    },
    {
     "mangled_component_name":"_ZN7android12renderscript19RsdCpuReferenceImpl11setPriorityEi"
    },
    {
     "mangled_component_name":"_ZN7android12renderscript19RsdCpuReferenceImpl12createScriptEPKNS0_7ScriptCEPKcS6_PKhmj"
    },
    {
     "mangled_component_name":"_ZN7android12renderscript19RsdCpuReferenceImpl15createIntrinsicEPKNS0_6ScriptE19RsScriptIntrinsicIDPNS0_7ElementE"
    },
    {
     "mangled_component_name":"_ZN7android12renderscript19RsdCpuReferenceImpl17createScriptGroupEPKNS0_15ScriptGroupBaseE"
    },
    {
     "mangled_component_name":"_ZN7android12renderscript19RsdCpuReferenceImpl11getInKernelEv"
    },
    {
     "mangled_component_name":"_ZN7android12renderscript19RsdCpuReferenceImpl18setEmbedGlobalInfoEb"
    },
    {
     "mangled_component_name":"_ZNK7android12renderscript19RsdCpuReferenceImpl18getEmbedGlobalInfoEv"
    },
    {
     "mangled_component_name":"_ZN7android12renderscript19RsdCpuReferenceImpl30setEmbedGlobalInfoSkipConstantEb"
    },
    {
     "mangled_component_name":"_ZNK7android12renderscript19RsdCpuReferenceImpl30getEmbedGlobalInfoSkipConstantEv"
    },
    {
     "mangled_component_name":"_ZN7android12renderscript19RsdCpuReferenceImpl13launchThreadsEPFvPvjES2_"
    },
    {
     "mangled_component_name":"_ZN7android12renderscript19RsdCpuReferenceImpl16setBccPluginNameEPKc"
    },
    {
     "mangled_component_name":"_ZNK7android12renderscript19RsdCpuReferenceImpl16getBccPluginNameEv"
    }
   ],
   "unique_id":"_ZTSN7android12renderscript19RsdCpuReferenceImplE"
  },
  {
   "vtable_components":[
    {
     "kind":"offset_to_top"
    },
    {
     "kind":"rtti",
     "mangled_component_name":"_ZTIN7android12renderscript16RsdCpuScriptImplE"
    },
    {
     "mangled_component_name":"_ZN7android12renderscript16RsdCpuScriptImpl14populateScriptEPNS0_6ScriptE"
    },
    {
     "mangled_component_name":"_ZN7android12renderscript16RsdCpuScriptImpl14invokeFunctionEjPKvm"
    },
    {
     "mangled_component_name":"_ZN7android12renderscript16RsdCpuScriptImpl10invokeRootEv"
    },
    {
     "mangled_component_name":"_ZN7android12renderscript16RsdCpuScriptImpl13invokeForEachEjPPKNS0_10AllocationEjPS2_PKvjPK12RsScriptCall"
    },
    {
     "mangled_component_name":"_ZN7android12renderscript16RsdCpuScriptImpl12invokeReduceEjPPKNS0_10AllocationEjPS2_PK12RsScriptCall"
    },
    {
     "mangled_component_name":"_ZN7android12renderscript16RsdCpuScriptImpl10invokeInitEv"
    },
    {
     "mangled_component_name":"_ZN7android12renderscript16RsdCpuScriptImpl18invokeFreeChildrenEv"
    },
    {
     "mangled_component_name":"_ZN7android12renderscript16RsdCpuScriptImpl12setGlobalVarEjPKvm"
    },
    {
     "mangled_component_name":"_ZN7android12renderscript16RsdCpuScriptImpl12getGlobalVarEjPvm"
    },
    {
     "mangled_component_name":"_ZN7android12renderscript16RsdCpuScriptImpl24setGlobalVarWithElemDimsEjPKvmPKNS0_7ElementEPKjm"
    },
    {
     "mangled_component_name":"_ZN7android12renderscript16RsdCpuScriptImpl13setGlobalBindEjPNS0_10AllocationE"
    },
    {
     "mangled_component_name":"_ZN7android12renderscript16RsdCpuScriptImpl12setGlobalObjEjPNS0_10ObjectBaseE"
    },
    {
     "mangled_component_name":"_ZNK7android12renderscript16RsdCpuScriptImpl23getAllocationForPointerEPKv"
    },
    {
     "mangled_component_name":"_ZNK7android12renderscript16RsdCpuScriptImpl16getGlobalEntriesEv"
    },
    {
     "mangled_component_name":"_ZNK7android12renderscript16RsdCpuScriptImpl13getGlobalNameEi"
    },
    {
     "mangled_component_name":"_ZNK7android12renderscript16RsdCpuScriptImpl16getGlobalAddressEi"
    },
    {
     "mangled_component_name":"_ZNK7android12renderscript16RsdCpuScriptImpl13getGlobalSizeEi"
    },
    {
     "mangled_component_name":"_ZNK7android12renderscript16RsdCpuScriptImpl19getGlobalPropertiesEi"
    },
    {
     "kind":"complete_dtor_pointer",
     "mangled_component_name":"_ZN7android12renderscript16RsdCpuScriptImplD1Ev"
    },
    {
     "kind":"deleting_dtor_pointer",
     "mangled_component_name":"_ZN7android12renderscript16RsdCpuScriptImplD0Ev"
    },
    {
     "mangled_component_name":"_ZN7android12renderscript16RsdCpuScriptImpl9preLaunchEjPPKNS0_10AllocationEjPS2_PKvjPK12RsScriptCall"
    },
    {
     "mangled_component_name":"_ZN7android12renderscript16RsdCpuScriptImpl10postLaunchEjPPKNS0_10AllocationEjPS2_PKvjPK12RsScriptCall"
    },
    {
     "mangled_component_name":"_ZN7android12renderscript16RsdCpuScriptImpl18forEachKernelSetupEjPNS0_21MTLaunchStructForEachE"
    },
    {
     "mangled_component_name":"_ZN7android12renderscript16RsdCpuScriptImpl17reduceKernelSetupEjPNS0_20MTLaunchStructReduceE"
    }
   ],
   "unique_id":"_ZTSN7android12renderscript16RsdCpuScriptImplE"
  },
  {
   "vtable_components":[
    {
     "kind":"offset_to_top"
    },
    {
     "kind":"rtti",
     "mangled_component_name":"_ZTIN7android12renderscript15RsdCpuReferenceE"
    },
    {
     "kind":"complete_dtor_pointer",
     "mangled_component_name":"_ZN7android12renderscript15RsdCpuReferenceD1Ev"
    },
    {
     "kind":"deleting_dtor_pointer",
     "mangled_component_name":"_ZN7android12renderscript15RsdCpuReferenceD0Ev"
    },
    {
     "is_pure":true,
     "mangled_component_name":"_ZN7android12renderscript15RsdCpuReference11setPriorityEi"
    },
    {
     "is_pure":true,
     "mangled_component_name":"_ZN7android12renderscript15RsdCpuReference12createScriptEPKNS0_7ScriptCEPKcS6_PKhmj"
    },
    {
     "is_pure":true,
     "mangled_component_name":"_ZN7android12renderscript15RsdCpuReference15createIntrinsicEPKNS0_6ScriptE19RsScriptIntrinsicIDPNS0_7ElementE"
    },
    {
     "is_pure":true,
     "mangled_component_name":"_ZN7android12renderscript15RsdCpuReference17createScriptGroupEPKNS0_15ScriptGroupBaseE"
    },
    {
     "is_pure":true,
     "mangled_component_name":"_ZN7android12renderscript15RsdCpuReference11getInKernelEv"
    },
    {
     "is_pure":true,
     "mangled_component_name":"_ZN7android12renderscript15RsdCpuReference18setEmbedGlobalInfoEb"
    },
    {
     "is_pure":true,
     "mangled_component_name":"_ZNK7android12renderscript15RsdCpuReference18getEmbedGlobalInfoEv"
    },
    {
     "is_pure":true,
     "mangled_component_name":"_ZN7android12renderscript15RsdCpuReference30setEmbedGlobalInfoSkipConstantEb"
    },
    {
     "is_pure":true,
     "mangled_component_name":"_ZNK7android12renderscript15RsdCpuReference30getEmbedGlobalInfoSkipConstantEv"
    }
   ],
   "unique_id":"_ZTSN7android12renderscript15RsdCpuReferenceE"
  },
  {
   "vtable_components":[
    {
     "kind":"vbase_offset",
     "component_value":184
    },
    {
     "kind":"offset_to_top"
    },
    {
     "kind":"rtti",
     "mangled_component_name":"_ZTINSt3__114basic_ifstreamIcNS_11char_traitsIcEEEE"
    },
    {
     "kind":"complete_dtor_pointer",
     "mangled_component_name":"_ZNSt3__114basic_ifstreamIcNS_11char_traitsIcEEED1Ev"
    },
    {
     "kind":"deleting_dtor_pointer",
     "mangled_component_name":"_ZNSt3__114basic_ifstreamIcNS_11char_traitsIcEEED0Ev"
    },
    {
     "kind":"vcall_offset",
     "component_value":-184
    },
    {
     "kind":"offset_to_top",
     "component_value":-184
    },
    {
     "kind":"rtti",
     "mangled_component_name":"_ZTINSt3__114basic_ifstreamIcNS_11char_traitsIcEEEE"
    },
    {
     "kind":"complete_dtor_pointer",
     "mangled_component_name":"_ZTv0_n24_NSt3__114basic_ifstreamIcNS_11char_traitsIcEEED1Ev"
    },
    {
     "kind":"deleting_dtor_pointer",
     "mangled_component_name":"_ZTv0_n24_NSt3__114basic_ifstreamIcNS_11char_traitsIcEEED0Ev"
    }
   ],
   "unique_id":"_ZTSNSt3__114basic_ifstreamIcNS_11char_traitsIcEEEE"
  },
  {
   "vtable_components":[
    {
     "kind":"vbase_offset",
     "component_value":128
    },
    {
     "kind":"offset_to_top"
    },
    {
     "kind":"rtti",
     "mangled_component_name":"_ZTINSt3__118basic_stringstreamIcNS_11char_traitsIcEENS_9allocatorIcEEEE"
    },
    {
     "kind":"complete_dtor_pointer",
     "mangled_component_name":"_ZNSt3__118basic_stringstreamIcNS_11char_traitsIcEENS_9allocatorIcEEED1Ev"
    },
    {
     "kind":"deleting_dtor_pointer",
     "mangled_component_name":"_ZNSt3__118basic_stringstreamIcNS_11char_traitsIcEENS_9allocatorIcEEED0Ev"
    },
    {
     "kind":"vbase_offset",
     "component_value":112
    },
    {
     "kind":"offset_to_top",
     "component_value":-16
    },
    {
     "kind":"rtti",
     "mangled_component_name":"_ZTINSt3__118basic_stringstreamIcNS_11char_traitsIcEENS_9allocatorIcEEEE"
    },
    {
     "kind":"complete_dtor_pointer",
     "mangled_component_name":"_ZThn16_NSt3__118basic_stringstreamIcNS_11char_traitsIcEENS_9allocatorIcEEED1Ev"
    },
    {
     "kind":"deleting_dtor_pointer",
     "mangled_component_name":"_ZThn16_NSt3__118basic_stringstreamIcNS_11char_traitsIcEENS_9allocatorIcEEED0Ev"
    },
    {
     "kind":"vcall_offset",
     "component_value":-128
    },
    {
     "kind":"offset_to_top",
     "component_value":-128
    },
    {
     "kind":"rtti",
     "mangled_component_name":"_ZTINSt3__118basic_stringstreamIcNS_11char_traitsIcEENS_9allocatorIcEEEE"
    },
    {
     "kind":"complete_dtor_pointer",
     "mangled_component_name":"_ZTv0_n24_NSt3__118basic_stringstreamIcNS_11char_traitsIcEENS_9allocatorIcEEED1Ev"
    },
    {
     "kind":"deleting_dtor_pointer",
     "mangled_component_name":"_ZTv0_n24_NSt3__118basic_stringstreamIcNS_11char_traitsIcEENS_9allocatorIcEEED0Ev"
    }
   ],
   "unique_id":"_ZTSNSt3__118basic_stringstreamIcNS_11char_traitsIcEENS_9allocatorIcEEEE"
  },
  {
   "vtable_components":[
    {
     "kind":"offset_to_top"
    },
    {
     "kind":"rtti",
     "mangled_component_name":"_ZTINSt3__115basic_stringbufIcNS_11char_traitsIcEENS_9allocatorIcEEEE"
    },
    {
     "kind":"complete_dtor_pointer",
     "mangled_component_name":"_ZNSt3__115basic_stringbufIcNS_11char_traitsIcEENS_9allocatorIcEEED1Ev"
    },
    {
     "kind":"deleting_dtor_pointer",
     "mangled_component_name":"_ZNSt3__115basic_stringbufIcNS_11char_traitsIcEENS_9allocatorIcEEED0Ev"
    },
    {
     "mangled_component_name":"_ZNSt3__115basic_streambufIcNS_11char_traitsIcEEE5imbueERKNS_6localeE"
    },
    {
     "mangled_component_name":"_ZNSt3__115basic_streambufIcNS_11char_traitsIcEEE6setbufEPcl"
    },
    {
     "mangled_component_name":"_ZNSt3__115basic_stringbufIcNS_11char_traitsIcEENS_9allocatorIcEEE7seekoffExNS_8ios_base7seekdirEj"
    },
    {
     "mangled_component_name":"_ZNSt3__115basic_stringbufIcNS_11char_traitsIcEENS_9allocatorIcEEE7seekposENS_4fposI9mbstate_tEEj"
    },
    {
     "mangled_component_name":"_ZNSt3__115basic_streambufIcNS_11char_traitsIcEEE4syncEv"
    },
    {
     "mangled_component_name":"_ZNSt3__115basic_streambufIcNS_11char_traitsIcEEE9showmanycEv"
    },
    {
     "mangled_component_name":"_ZNSt3__115basic_streambufIcNS_11char_traitsIcEEE6xsgetnEPcl"
    },
    {
     "mangled_component_name":"_ZNSt3__115basic_stringbufIcNS_11char_traitsIcEENS_9allocatorIcEEE9underflowEv"
    },
    {
     "mangled_component_name":"_ZNSt3__115basic_streambufIcNS_11char_traitsIcEEE5uflowEv"
    },
    {
     "mangled_component_name":"_ZNSt3__115basic_stringbufIcNS_11char_traitsIcEENS_9allocatorIcEEE9pbackfailEi"
    },
    {
     "mangled_component_name":"_ZNSt3__115basic_streambufIcNS_11char_traitsIcEEE6xsputnEPKcl"
    },
    {
     "mangled_component_name":"_ZNSt3__115basic_stringbufIcNS_11char_traitsIcEENS_9allocatorIcEEE8overflowEi"
    }
   ],
   "unique_id":"_ZTSNSt3__115basic_stringbufIcNS_11char_traitsIcEENS_9allocatorIcEEEE"
  },
  {
   "vtable_components":[
    {
     "kind":"offset_to_top"
    },
    {
     "kind":"rtti",
     "mangled_component_name":"_ZTIN7android12renderscript26RsdCpuScriptIntrinsic3DLUTE"
    },
    {
     "mangled_component_name":"_ZN7android12renderscript26RsdCpuScriptIntrinsic3DLUT14populateScriptEPNS0_6ScriptE"
    },
    {
     "mangled_component_name":"_ZN7android12renderscript21RsdCpuScriptIntrinsic14invokeFunctionEjPKvm"
    },
    {
     "mangled_component_name":"_ZN7android12renderscript21RsdCpuScriptIntrinsic10invokeRootEv"
    },
    {
     "mangled_component_name":"_ZN7android12renderscript21RsdCpuScriptIntrinsic13invokeForEachEjPPKNS0_10AllocationEjPS2_PKvjPK12RsScriptCall"
    },
    {
     "mangled_component_name":"_ZN7android12renderscript16RsdCpuScriptImpl12invokeReduceEjPPKNS0_10AllocationEjPS2_PK12RsScriptCall"
    },
    {
     "mangled_component_name":"_ZN7android12renderscript21RsdCpuScriptIntrinsic10invokeInitEv"
    },
    {
     "mangled_component_name":"_ZN7android12renderscript26RsdCpuScriptIntrinsic3DLUT18invokeFreeChildrenEv"
    },
    {
     "mangled_component_name":"_ZN7android12renderscript21RsdCpuScriptIntrinsic12setGlobalVarEjPKvm"
    },
    {
     "mangled_component_name":"_ZN7android12renderscript16RsdCpuScriptImpl12getGlobalVarEjPvm"
    },
    {
     "mangled_component_name":"_ZN7android12renderscript21RsdCpuScriptIntrinsic24setGlobalVarWithElemDimsEjPKvmPKNS0_7ElementEPKjm"
    },
    {
     "mangled_component_name":"_ZN7android12renderscript21RsdCpuScriptIntrinsic13setGlobalBindEjPNS0_10AllocationE"
    },
    {
     "mangled_component_name":"_ZN7android12renderscript26RsdCpuScriptIntrinsic3DLUT12setGlobalObjEjPNS0_10ObjectBaseE"
    },
    {
     "mangled_component_name":"_ZNK7android12renderscript16RsdCpuScriptImpl23getAllocationForPointerEPKv"
    },
    {
     "mangled_component_name":"_ZNK7android12renderscript16RsdCpuScriptImpl16getGlobalEntriesEv"
    },
    {
     "mangled_component_name":"_ZNK7android12renderscript16RsdCpuScriptImpl13getGlobalNameEi"
    },
    {
     "mangled_component_name":"_ZNK7android12renderscript16RsdCpuScriptImpl16getGlobalAddressEi"
    },
    {
     "mangled_component_name":"_ZNK7android12renderscript16RsdCpuScriptImpl13getGlobalSizeEi"
    },
    {
     "mangled_component_name":"_ZNK7android12renderscript16RsdCpuScriptImpl19getGlobalPropertiesEi"
    },
    {
     "kind":"complete_dtor_pointer",
     "mangled_component_name":"_ZN7android12renderscript26RsdCpuScriptIntrinsic3DLUTD1Ev"
    },
    {
     "kind":"deleting_dtor_pointer",
     "mangled_component_name":"_ZN7android12renderscript26RsdCpuScriptIntrinsic3DLUTD0Ev"
    },
    {
     "mangled_component_name":"_ZN7android12renderscript21RsdCpuScriptIntrinsic9preLaunchEjPPKNS0_10AllocationEjPS2_PKvjPK12RsScriptCall"
    },
    {
     "mangled_component_name":"_ZN7android12renderscript21RsdCpuScriptIntrinsic10postLaunchEjPPKNS0_10AllocationEjPS2_PKvjPK12RsScriptCall"
    },
    {
     "mangled_component_name":"_ZN7android12renderscript21RsdCpuScriptIntrinsic18forEachKernelSetupEjPNS0_21MTLaunchStructForEachE"
    },
    {
     "mangled_component_name":"_ZN7android12renderscript16RsdCpuScriptImpl17reduceKernelSetupEjPNS0_20MTLaunchStructReduceE"
    }
   ],
   "unique_id":"_ZTSN7android12renderscript26RsdCpuScriptIntrinsic3DLUTE"
  },
  {
   "vtable_components":[
    {
     "kind":"offset_to_top"
    },
    {
     "kind":"rtti",
     "mangled_component_name":"_ZTIN7android12renderscript25RsdCpuScriptIntrinsicBLASE"
    },
    {
     "mangled_component_name":"_ZN7android12renderscript25RsdCpuScriptIntrinsicBLAS14populateScriptEPNS0_6ScriptE"
    },
    {
     "mangled_component_name":"_ZN7android12renderscript21RsdCpuScriptIntrinsic14invokeFunctionEjPKvm"
    },
    {
     "mangled_component_name":"_ZN7android12renderscript21RsdCpuScriptIntrinsic10invokeRootEv"
    },
    {
     "mangled_component_name":"_ZN7android12renderscript25RsdCpuScriptIntrinsicBLAS13invokeForEachEjPPKNS0_10AllocationEjPS2_PKvjPK12RsScriptCall"
    },
    {
     "mangled_component_name":"_ZN7android12renderscript16RsdCpuScriptImpl12invokeReduceEjPPKNS0_10AllocationEjPS2_PK12RsScriptCall"
    },
    {
     "mangled_component_name":"_ZN7android12renderscript21RsdCpuScriptIntrinsic10invokeInitEv"
    },
    {
     "mangled_component_name":"_ZN7android12renderscript21RsdCpuScriptIntrinsic18invokeFreeChildrenEv"
    },
    {
     "mangled_component_name":"_ZN7android12renderscript21RsdCpuScriptIntrinsic12setGlobalVarEjPKvm"
    },
    {
     "mangled_component_name":"_ZN7android12renderscript16RsdCpuScriptImpl12getGlobalVarEjPvm"
    },
    {
     "mangled_component_name":"_ZN7android12renderscript21RsdCpuScriptIntrinsic24setGlobalVarWithElemDimsEjPKvmPKNS0_7ElementEPKjm"
    },
    {
     "mangled_component_name":"_ZN7android12renderscript21RsdCpuScriptIntrinsic13setGlobalBindEjPNS0_10AllocationE"
    },
    {
     "mangled_component_name":"_ZN7android12renderscript21RsdCpuScriptIntrinsic12setGlobalObjEjPNS0_10ObjectBaseE"
    },
    {
     "mangled_component_name":"_ZNK7android12renderscript16RsdCpuScriptImpl23getAllocationForPointerEPKv"
    },
    {
     "mangled_component_name":"_ZNK7android12renderscript16RsdCpuScriptImpl16getGlobalEntriesEv"
    },
    {
     "mangled_component_name":"_ZNK7android12renderscript16RsdCpuScriptImpl13getGlobalNameEi"
    },
    {
     "mangled_component_name":"_ZNK7android12renderscript16RsdCpuScriptImpl16getGlobalAddressEi"
    },
    {
     "mangled_component_name":"_ZNK7android12renderscript16RsdCpuScriptImpl13getGlobalSizeEi"
    },
    {
     "mangled_component_name":"_ZNK7android12renderscript16RsdCpuScriptImpl19getGlobalPropertiesEi"
    },
    {
     "kind":"complete_dtor_pointer",
     "mangled_component_name":"_ZN7android12renderscript25RsdCpuScriptIntrinsicBLASD1Ev"
    },
    {
     "kind":"deleting_dtor_pointer",
     "mangled_component_name":"_ZN7android12renderscript25RsdCpuScriptIntrinsicBLASD0Ev"
    },
    {
     "mangled_component_name":"_ZN7android12renderscript21RsdCpuScriptIntrinsic9preLaunchEjPPKNS0_10AllocationEjPS2_PKvjPK12RsScriptCall"
    },
    {
     "mangled_component_name":"_ZN7android12renderscript21RsdCpuScriptIntrinsic10postLaunchEjPPKNS0_10AllocationEjPS2_PKvjPK12RsScriptCall"
    },
    {
     "mangled_component_name":"_ZN7android12renderscript21RsdCpuScriptIntrinsic18forEachKernelSetupEjPNS0_21MTLaunchStructForEachE"
    },
    {
     "mangled_component_name":"_ZN7android12renderscript16RsdCpuScriptImpl17reduceKernelSetupEjPNS0_20MTLaunchStructReduceE"
    }
   ],
   "unique_id":"_ZTSN7android12renderscript25RsdCpuScriptIntrinsicBLASE"
  },
  {
   "vtable_components":[
    {
     "kind":"offset_to_top"
    },
    {
     "kind":"rtti",
     "mangled_component_name":"_ZTIN7android12renderscript26RsdCpuScriptIntrinsicBlendE"
    },
    {
     "mangled_component_name":"_ZN7android12renderscript26RsdCpuScriptIntrinsicBlend14populateScriptEPNS0_6ScriptE"
    },
    {
     "mangled_component_name":"_ZN7android12renderscript21RsdCpuScriptIntrinsic14invokeFunctionEjPKvm"
    },
    {
     "mangled_component_name":"_ZN7android12renderscript21RsdCpuScriptIntrinsic10invokeRootEv"
    },
    {
     "mangled_component_name":"_ZN7android12renderscript21RsdCpuScriptIntrinsic13invokeForEachEjPPKNS0_10AllocationEjPS2_PKvjPK12RsScriptCall"
    },
    {
     "mangled_component_name":"_ZN7android12renderscript16RsdCpuScriptImpl12invokeReduceEjPPKNS0_10AllocationEjPS2_PK12RsScriptCall"
    },
    {
     "mangled_component_name":"_ZN7android12renderscript21RsdCpuScriptIntrinsic10invokeInitEv"
    },
    {
     "mangled_component_name":"_ZN7android12renderscript21RsdCpuScriptIntrinsic18invokeFreeChildrenEv"
    },
    {
     "mangled_component_name":"_ZN7android12renderscript21RsdCpuScriptIntrinsic12setGlobalVarEjPKvm"
    },
    {
     "mangled_component_name":"_ZN7android12renderscript16RsdCpuScriptImpl12getGlobalVarEjPvm"
    },
    {
     "mangled_component_name":"_ZN7android12renderscript21RsdCpuScriptIntrinsic24setGlobalVarWithElemDimsEjPKvmPKNS0_7ElementEPKjm"
    },
    {
     "mangled_component_name":"_ZN7android12renderscript21RsdCpuScriptIntrinsic13setGlobalBindEjPNS0_10AllocationE"
    },
    {
     "mangled_component_name":"_ZN7android12renderscript21RsdCpuScriptIntrinsic12setGlobalObjEjPNS0_10ObjectBaseE"
    },
    {
     "mangled_component_name":"_ZNK7android12renderscript16RsdCpuScriptImpl23getAllocationForPointerEPKv"
    },
    {
     "mangled_component_name":"_ZNK7android12renderscript16RsdCpuScriptImpl16getGlobalEntriesEv"
    },
    {
     "mangled_component_name":"_ZNK7android12renderscript16RsdCpuScriptImpl13getGlobalNameEi"
    },
    {
     "mangled_component_name":"_ZNK7android12renderscript16RsdCpuScriptImpl16getGlobalAddressEi"
    },
    {
     "mangled_component_name":"_ZNK7android12renderscript16RsdCpuScriptImpl13getGlobalSizeEi"
    },
    {
     "mangled_component_name":"_ZNK7android12renderscript16RsdCpuScriptImpl19getGlobalPropertiesEi"
    },
    {
     "kind":"complete_dtor_pointer",
     "mangled_component_name":"_ZN7android12renderscript26RsdCpuScriptIntrinsicBlendD1Ev"
    },
    {
     "kind":"deleting_dtor_pointer",
     "mangled_component_name":"_ZN7android12renderscript26RsdCpuScriptIntrinsicBlendD0Ev"
    },
    {
     "mangled_component_name":"_ZN7android12renderscript21RsdCpuScriptIntrinsic9preLaunchEjPPKNS0_10AllocationEjPS2_PKvjPK12RsScriptCall"
    },
    {
     "mangled_component_name":"_ZN7android12renderscript21RsdCpuScriptIntrinsic10postLaunchEjPPKNS0_10AllocationEjPS2_PKvjPK12RsScriptCall"
    },
    {
     "mangled_component_name":"_ZN7android12renderscript21RsdCpuScriptIntrinsic18forEachKernelSetupEjPNS0_21MTLaunchStructForEachE"
    },
    {
     "mangled_component_name":"_ZN7android12renderscript16RsdCpuScriptImpl17reduceKernelSetupEjPNS0_20MTLaunchStructReduceE"
    }
   ],
   "unique_id":"_ZTSN7android12renderscript26RsdCpuScriptIntrinsicBlendE"
  },
  {
   "vtable_components":[
    {
     "kind":"offset_to_top"
    },
    {
     "kind":"rtti",
     "mangled_component_name":"_ZTIN7android12renderscript25RsdCpuScriptIntrinsicBlurE"
    },
    {
     "mangled_component_name":"_ZN7android12renderscript25RsdCpuScriptIntrinsicBlur14populateScriptEPNS0_6ScriptE"
    },
    {
     "mangled_component_name":"_ZN7android12renderscript21RsdCpuScriptIntrinsic14invokeFunctionEjPKvm"
    },
    {
     "mangled_component_name":"_ZN7android12renderscript21RsdCpuScriptIntrinsic10invokeRootEv"
    },
    {
     "mangled_component_name":"_ZN7android12renderscript21RsdCpuScriptIntrinsic13invokeForEachEjPPKNS0_10AllocationEjPS2_PKvjPK12RsScriptCall"
    },
    {
     "mangled_component_name":"_ZN7android12renderscript16RsdCpuScriptImpl12invokeReduceEjPPKNS0_10AllocationEjPS2_PK12RsScriptCall"
    },
    {
     "mangled_component_name":"_ZN7android12renderscript21RsdCpuScriptIntrinsic10invokeInitEv"
    },
    {
     "mangled_component_name":"_ZN7android12renderscript25RsdCpuScriptIntrinsicBlur18invokeFreeChildrenEv"
    },
    {
     "mangled_component_name":"_ZN7android12renderscript25RsdCpuScriptIntrinsicBlur12setGlobalVarEjPKvm"
    },
    {
     "mangled_component_name":"_ZN7android12renderscript16RsdCpuScriptImpl12getGlobalVarEjPvm"
    },
    {
     "mangled_component_name":"_ZN7android12renderscript21RsdCpuScriptIntrinsic24setGlobalVarWithElemDimsEjPKvmPKNS0_7ElementEPKjm"
    },
    {
     "mangled_component_name":"_ZN7android12renderscript21RsdCpuScriptIntrinsic13setGlobalBindEjPNS0_10AllocationE"
    },
    {
     "mangled_component_name":"_ZN7android12renderscript25RsdCpuScriptIntrinsicBlur12setGlobalObjEjPNS0_10ObjectBaseE"
    },
    {
     "mangled_component_name":"_ZNK7android12renderscript16RsdCpuScriptImpl23getAllocationForPointerEPKv"
    },
    {
     "mangled_component_name":"_ZNK7android12renderscript16RsdCpuScriptImpl16getGlobalEntriesEv"
    },
    {
     "mangled_component_name":"_ZNK7android12renderscript16RsdCpuScriptImpl13getGlobalNameEi"
    },
    {
     "mangled_component_name":"_ZNK7android12renderscript16RsdCpuScriptImpl16getGlobalAddressEi"
    },
    {
     "mangled_component_name":"_ZNK7android12renderscript16RsdCpuScriptImpl13getGlobalSizeEi"
    },
    {
     "mangled_component_name":"_ZNK7android12renderscript16RsdCpuScriptImpl19getGlobalPropertiesEi"
    },
    {
     "kind":"complete_dtor_pointer",
     "mangled_component_name":"_ZN7android12renderscript25RsdCpuScriptIntrinsicBlurD1Ev"
    },
    {
     "kind":"deleting_dtor_pointer",
     "mangled_component_name":"_ZN7android12renderscript25RsdCpuScriptIntrinsicBlurD0Ev"
    },
    {
     "mangled_component_name":"_ZN7android12renderscript21RsdCpuScriptIntrinsic9preLaunchEjPPKNS0_10AllocationEjPS2_PKvjPK12RsScriptCall"
    },
    {
     "mangled_component_name":"_ZN7android12renderscript21RsdCpuScriptIntrinsic10postLaunchEjPPKNS0_10AllocationEjPS2_PKvjPK12RsScriptCall"
    },
    {
     "mangled_component_name":"_ZN7android12renderscript21RsdCpuScriptIntrinsic18forEachKernelSetupEjPNS0_21MTLaunchStructForEachE"
    },
    {
     "mangled_component_name":"_ZN7android12renderscript16RsdCpuScriptImpl17reduceKernelSetupEjPNS0_20MTLaunchStructReduceE"
    }
   ],
   "unique_id":"_ZTSN7android12renderscript25RsdCpuScriptIntrinsicBlurE"
  }
 ],
 "elf_functions":[
  {
   "name":"_Z10SC_abs_i32i"
  },
  {
   "name":"_Z10SC_lgammaff"
  },
  {
   "name":"_Z10SC_remquofffPi"
  },
  {
   "name":"_Z10SC_tgammaff"
  },
  {
   "name":"_Z12SC_copysignfff"
  },
  {
   "name":"_Z12SC_lgammaf_rfPi"
  },
  {
   "name":"_Z13SC_nextafterfff"
  },
  {
   "name":"_Z13SC_remainderfff"
  },
  {
   "name":"_Z13rsMatrixScaleP12rs_matrix4x4fff"
  },
  {
   "name":"_Z14rsMatrixRotateP12rs_matrix4x4ffff"
  },
  {
   "name":"_Z15rsMatrixInverseP12rs_matrix4x4"
  },
  {
   "name":"_Z17rsMatrixLoadOrthoP12rs_matrix4x4ffffff"
  },
  {
   "name":"_Z17rsMatrixLoadScaleP12rs_matrix4x4fff"
  },
  {
   "name":"_Z17rsMatrixTranslateP12rs_matrix4x4fff"
  },
  {
   "name":"_Z17rsMatrixTransposeP12rs_matrix2x2"
  },
  {
   "name":"_Z17rsMatrixTransposeP12rs_matrix3x3"
  },
  {
   "name":"_Z17rsMatrixTransposeP12rs_matrix4x4"
  },
  {
   "name":"_Z18rsMatrixLoadRotateP12rs_matrix4x4ffff"
  },
  {
   "name":"_Z19rsMatrixLoadFrustumP12rs_matrix4x4ffffff"
  },
  {
   "name":"_Z21rsMatrixLoadTranslateP12rs_matrix4x4fff"
  },
  {
   "name":"_Z23rsMatrixLoadPerspectiveP12rs_matrix4x4ffff"
  },
  {
   "name":"_Z24rsMatrixInverseTransposeP12rs_matrix4x4"
  },
  {
   "name":"_Z7SC_cosff"
  },
  {
   "name":"_Z7SC_erfff"
  },
  {
   "name":"_Z7SC_expff"
  },
  {
   "name":"_Z7SC_fmaffff"
  },
  {
   "name":"_Z7SC_logff"
  },
  {
   "name":"_Z7SC_powfff"
  },
  {
   "name":"_Z7SC_sinff"
  },
  {
   "name":"_Z7SC_tanff"
  },
  {
   "name":"_Z8SC_acosff"
  },
  {
   "name":"_Z8SC_asinff"
  },
  {
   "name":"_Z8SC_atanff"
  },
  {
   "name":"_Z8SC_cbrtff"
  },
  {
   "name":"_Z8SC_ceilff"
  },
  {
   "name":"_Z8SC_coshff"
  },
  {
   "name":"_Z8SC_erfcff"
  },
  {
   "name":"_Z8SC_exp2ff"
  },
  {
   "name":"_Z8SC_fdimfff"
  },
  {
   "name":"_Z8SC_fmaxfff"
  },
  {
   "name":"_Z8SC_fminfff"
  },
  {
   "name":"_Z8SC_fmodfff"
  },
  {
   "name":"_Z8SC_logbff"
  },
  {
   "name":"_Z8SC_modfffPf"
  },
  {
   "name":"_Z8SC_rintff"
  },
  {
   "name":"_Z8SC_sinhff"
  },
  {
   "name":"_Z8SC_sqrtff"
  },
  {
   "name":"_Z8SC_tanhff"
  },
  {
   "name":"_Z9SC_acoshff"
  },
  {
   "name":"_Z9SC_asinhff"
  },
  {
   "name":"_Z9SC_atan2fff"
  },
  {
   "name":"_Z9SC_atanhff"
  },
  {
   "name":"_Z9SC_expm1ff"
  },
  {
   "name":"_Z9SC_floorff"
  },
  {
   "name":"_Z9SC_frexpffPi"
  },
  {
   "name":"_Z9SC_hypotfff"
  },
  {
   "name":"_Z9SC_ilogbff"
  },
  {
   "name":"_Z9SC_ldexpffi"
  },
  {
   "name":"_Z9SC_log10ff"
  },
  {
   "name":"_Z9SC_log1pff"
  },
  {
   "name":"_Z9SC_randf2ff"
  },
  {
   "name":"_Z9SC_roundff"
  },
  {
   "name":"_Z9SC_truncff"
  },
  {
   "name":"_ZN7android12renderscript15RsdCpuReference12getTlsScriptEv"
  },
  {
   "name":"_ZN7android12renderscript15RsdCpuReference13getTlsContextEv"
  },
  {
   "name":"_ZN7android12renderscript15RsdCpuReference15getThreadTLSKeyEv"
  },
  {
   "name":"_ZN7android12renderscript15RsdCpuReference6createEPNS0_7ContextEjjPFPKNS1_9CpuSymbolES3_PKcEPFPNS1_9CpuScriptES3_PKNS0_6ScriptEEPFS8_S8_mES8_"
  },
  {
   "name":"_ZN7android12renderscript15RsdCpuReferenceD0Ev"
  },
  {
   "name":"_ZN7android12renderscript15RsdCpuReferenceD1Ev"
  },
  {
   "name":"_ZN7android12renderscript15RsdCpuReferenceD2Ev"
  },
  {
   "name":"_ZN7android12renderscript16RsdCpuScriptImpl10invokeInitEv"
  },
  {
   "name":"_ZN7android12renderscript16RsdCpuScriptImpl10invokeRootEv"
  },
  {
   "name":"_ZN7android12renderscript16RsdCpuScriptImpl10postLaunchEjPPKNS0_10AllocationEjPS2_PKvjPK12RsScriptCall"
  },
  {
   "name":"_ZN7android12renderscript16RsdCpuScriptImpl11findCoreLibERKN6bcinfo17MetadataExtractorEPKcm"
  },
  {
   "name":"_ZN7android12renderscript16RsdCpuScriptImpl12getGlobalVarEjPvm"
  },
  {
   "name":"_ZN7android12renderscript16RsdCpuScriptImpl12invokeReduceEjPPKNS0_10AllocationEjPS2_PK12RsScriptCall"
  },
  {
   "name":"_ZN7android12renderscript16RsdCpuScriptImpl12setGlobalObjEjPNS0_10ObjectBaseE"
  },
  {
   "name":"_ZN7android12renderscript16RsdCpuScriptImpl12setGlobalVarEjPKvm"
  },
  {
   "name":"_ZN7android12renderscript16RsdCpuScriptImpl13invokeForEachEjPPKNS0_10AllocationEjPS2_PKvjPK12RsScriptCall"
  },
  {
   "name":"_ZN7android12renderscript16RsdCpuScriptImpl13setGlobalBindEjPNS0_10AllocationE"
  },
  {
   "name":"_ZN7android12renderscript16RsdCpuScriptImpl14invokeFunctionEjPKvm"
  },
  {
   "name":"_ZN7android12renderscript16RsdCpuScriptImpl14populateScriptEPNS0_6ScriptE"
  },
  {
   "name":"_ZN7android12renderscript16RsdCpuScriptImpl15reduceMtlsSetupEPPKNS0_10AllocationEjS4_PK12RsScriptCallPNS0_20MTLaunchStructReduceE"
  },
  {
   "name":"_ZN7android12renderscript16RsdCpuScriptImpl16forEachMtlsSetupEPPKNS0_10AllocationEjPS2_PKvjPK12RsScriptCallPNS0_21MTLaunchStructForEachE"
  },
  {
   "name":"_ZN7android12renderscript16RsdCpuScriptImpl17reduceKernelSetupEjPNS0_20MTLaunchStructReduceE"
  },
  {
   "name":"_ZN7android12renderscript16RsdCpuScriptImpl17storeRSInfoFromSOEv"
  },
  {
   "name":"_ZN7android12renderscript16RsdCpuScriptImpl18forEachKernelSetupEjPNS0_21MTLaunchStructForEachE"
  },
  {
   "name":"_ZN7android12renderscript16RsdCpuScriptImpl18invokeFreeChildrenEv"
  },
  {
   "name":"_ZN7android12renderscript16RsdCpuScriptImpl19setUpMtlsDimensionsEPNS0_20MTLaunchStructCommonERK18RsLaunchDimensionsPK12RsScriptCall"
  },
  {
   "name":"_ZN7android12renderscript16RsdCpuScriptImpl24setGlobalVarWithElemDimsEjPKvmPKNS0_7ElementEPKjm"
  },
  {
   "name":"_ZN7android12renderscript16RsdCpuScriptImpl4initEPKcS3_PKhmjS3_"
  },
  {
   "name":"_ZN7android12renderscript16RsdCpuScriptImpl9preLaunchEjPPKNS0_10AllocationEjPS2_PKvjPK12RsScriptCall"
  },
  {
   "name":"_ZN7android12renderscript16RsdCpuScriptImplC1EPNS0_19RsdCpuReferenceImplEPKNS0_6ScriptE"
  },
  {
   "name":"_ZN7android12renderscript16RsdCpuScriptImplC2EPNS0_19RsdCpuReferenceImplEPKNS0_6ScriptE"
  },
  {
   "name":"_ZN7android12renderscript16RsdCpuScriptImplD0Ev"
  },
  {
   "name":"_ZN7android12renderscript16RsdCpuScriptImplD1Ev"
  },
  {
   "name":"_ZN7android12renderscript16RsdCpuScriptImplD2Ev"
  },
  {
   "name":"_ZN7android12renderscript16ScriptExecutable22createFromSharedObjectEPvj"
  },
  {
   "name":"_ZN7android12renderscript16rsdIntrinsic_LUTEPNS0_19RsdCpuReferenceImplEPKNS0_6ScriptEPKNS0_7ElementE"
  },
  {
   "name":"_ZN7android12renderscript17rsdIntrinsic_BLASEPNS0_19RsdCpuReferenceImplEPKNS0_6ScriptEPKNS0_7ElementE"
  },
  {
   "name":"_ZN7android12renderscript17rsdIntrinsic_BlurEPNS0_19RsdCpuReferenceImplEPKNS0_6ScriptEPKNS0_7ElementE"
  },
  {
   "name":"_ZN7android12renderscript18CpuScriptGroupImpl15scriptGroupRootEPK24RsExpandKernelDriverInfojjj"
  },
  {
   "name":"_ZN7android12renderscript18CpuScriptGroupImpl4initEv"
  },
  {
   "name":"_ZN7android12renderscript18CpuScriptGroupImpl7executeEv"
  },
  {
   "name":"_ZN7android12renderscript18CpuScriptGroupImpl8setInputEPKNS0_14ScriptKernelIDEPNS0_10AllocationE"
  },
  {
   "name":"_ZN7android12renderscript18CpuScriptGroupImpl9setOutputEPKNS0_14ScriptKernelIDEPNS0_10AllocationE"
  },
  {
   "name":"_ZN7android12renderscript18CpuScriptGroupImplC1EPNS0_19RsdCpuReferenceImplEPKNS0_15ScriptGroupBaseE"
  },
  {
   "name":"_ZN7android12renderscript18CpuScriptGroupImplC2EPNS0_19RsdCpuReferenceImplEPKNS0_15ScriptGroupBaseE"
  },
  {
   "name":"_ZN7android12renderscript18CpuScriptGroupImplD0Ev"
  },
  {
   "name":"_ZN7android12renderscript18CpuScriptGroupImplD1Ev"
  },
  {
   "name":"_ZN7android12renderscript18CpuScriptGroupImplD2Ev"
  },
  {
   "name":"_ZN7android12renderscript18SharedLibraryUtils12loadSOHelperEPKcS3_S3_Pb"
  },
  {
   "name":"_ZN7android12renderscript18SharedLibraryUtils15getRandomStringEm"
  },
  {
   "name":"_ZN7android12renderscript18SharedLibraryUtils17loadSharedLibraryEPKcS3_S3_Pb"
  },
  {
   "name":"_ZN7android12renderscript18SharedLibraryUtils19createSharedLibraryEPKcS3_S3_bPNSt3__112basic_stringIcNS4_11char_traitsIcEENS4_9allocatorIcEEEE"
  },
  {
   "name":"_ZN7android12renderscript18SharedLibraryUtils26loadAndDeleteSharedLibraryEPKc"
  },
  {
   "name":"_ZN7android12renderscript18rsdIntrinsic_3DLUTEPNS0_19RsdCpuReferenceImplEPKNS0_6ScriptEPKNS0_7ElementE"
  },
  {
   "name":"_ZN7android12renderscript18rsdIntrinsic_BlendEPNS0_19RsdCpuReferenceImplEPKNS0_6ScriptEPKNS0_7ElementE"
  },
  {
   "name":"_ZN7android12renderscript19CpuScriptGroup2Impl7compileEPKc"
  },
  {
   "name":"_ZN7android12renderscript19CpuScriptGroup2Impl7executeEv"
  },
  {
   "name":"_ZN7android12renderscript19CpuScriptGroup2ImplC1EPNS0_19RsdCpuReferenceImplEPKNS0_15ScriptGroupBaseE"
  },
  {
   "name":"_ZN7android12renderscript19CpuScriptGroup2ImplC2EPNS0_19RsdCpuReferenceImplEPKNS0_15ScriptGroupBaseE"
  },
  {
   "name":"_ZN7android12renderscript19CpuScriptGroup2ImplD0Ev"
  },
  {
   "name":"_ZN7android12renderscript19CpuScriptGroup2ImplD1Ev"
  },
  {
   "name":"_ZN7android12renderscript19CpuScriptGroup2ImplD2Ev"
  },
  {
   "name":"_ZN7android12renderscript19RsdCpuReferenceImpl11setPriorityEi"
  },
  {
   "name":"_ZN7android12renderscript19RsdCpuReferenceImpl11unlockMutexEv"
  },
  {
   "name":"_ZN7android12renderscript19RsdCpuReferenceImpl12createScriptEPKNS0_7ScriptCEPKcS6_PKhmj"
  },
  {
   "name":"_ZN7android12renderscript19RsdCpuReferenceImpl12launchReduceEPPKNS0_10AllocationEjPS2_PNS0_20MTLaunchStructReduceE"
  },
  {
   "name":"_ZN7android12renderscript19RsdCpuReferenceImpl13launchForEachEPPKNS0_10AllocationEjPS2_PK12RsScriptCallPNS0_21MTLaunchStructForEachE"
  },
  {
   "name":"_ZN7android12renderscript19RsdCpuReferenceImpl13launchThreadsEPFvPvjES2_"
  },
  {
   "name":"_ZN7android12renderscript19RsdCpuReferenceImpl15createIntrinsicEPKNS0_6ScriptE19RsScriptIntrinsicIDPNS0_7ElementE"
  },
  {
   "name":"_ZN7android12renderscript19RsdCpuReferenceImpl16helperThreadProcEPv"
  },
  {
   "name":"_ZN7android12renderscript19RsdCpuReferenceImpl17createScriptGroupEPKNS0_15ScriptGroupBaseE"
  },
  {
   "name":"_ZN7android12renderscript19RsdCpuReferenceImpl18launchReduceSerialEPPKNS0_10AllocationEjPS2_PNS0_20MTLaunchStructReduceE"
  },
  {
   "name":"_ZN7android12renderscript19RsdCpuReferenceImpl20launchReduceParallelEPPKNS0_10AllocationEjPS2_PNS0_20MTLaunchStructReduceE"
  },
  {
   "name":"_ZN7android12renderscript19RsdCpuReferenceImpl4initEjjPFPKNS0_15RsdCpuReference9CpuSymbolEPNS0_7ContextEPKcEPFPNS2_9CpuScriptES7_PKNS0_6ScriptEE"
  },
  {
   "name":"_ZN7android12renderscript19RsdCpuReferenceImpl6setTLSEPNS0_16RsdCpuScriptImplE"
  },
  {
   "name":"_ZN7android12renderscript19RsdCpuReferenceImpl9lockMutexEv"
  },
  {
   "name":"_ZN7android12renderscript19RsdCpuReferenceImpl9symLookupEPKc"
  },
  {
   "name":"_ZN7android12renderscript19RsdCpuReferenceImplC1EPNS0_7ContextE"
  },
  {
   "name":"_ZN7android12renderscript19RsdCpuReferenceImplC2EPNS0_7ContextE"
  },
  {
   "name":"_ZN7android12renderscript19RsdCpuReferenceImplD0Ev"
  },
  {
   "name":"_ZN7android12renderscript19RsdCpuReferenceImplD1Ev"
  },
  {
   "name":"_ZN7android12renderscript19RsdCpuReferenceImplD2Ev"
  },
  {
   "name":"_ZN7android12renderscript19rsdIntrinsic_ResizeEPNS0_19RsdCpuReferenceImplEPKNS0_6ScriptEPKNS0_7ElementE"
  },
  {
   "name":"_ZN7android12renderscript21RsdCpuScriptIntrinsic10invokeInitEv"
  },
  {
   "name":"_ZN7android12renderscript21RsdCpuScriptIntrinsic10invokeRootEv"
  },
  {
   "name":"_ZN7android12renderscript21RsdCpuScriptIntrinsic10postLaunchEjPPKNS0_10AllocationEjPS2_PKvjPK12RsScriptCall"
  },
  {
   "name":"_ZN7android12renderscript21RsdCpuScriptIntrinsic12setGlobalObjEjPNS0_10ObjectBaseE"
  },
  {
   "name":"_ZN7android12renderscript21RsdCpuScriptIntrinsic12setGlobalVarEjPKvm"
  },
  {
   "name":"_ZN7android12renderscript21RsdCpuScriptIntrinsic13invokeForEachEjPPKNS0_10AllocationEjPS2_PKvjPK12RsScriptCall"
  },
  {
   "name":"_ZN7android12renderscript21RsdCpuScriptIntrinsic13setGlobalBindEjPNS0_10AllocationE"
  },
  {
   "name":"_ZN7android12renderscript21RsdCpuScriptIntrinsic14invokeFunctionEjPKvm"
  },
  {
   "name":"_ZN7android12renderscript21RsdCpuScriptIntrinsic18forEachKernelSetupEjPNS0_21MTLaunchStructForEachE"
  },
  {
   "name":"_ZN7android12renderscript21RsdCpuScriptIntrinsic18invokeFreeChildrenEv"
  },
  {
   "name":"_ZN7android12renderscript21RsdCpuScriptIntrinsic24setGlobalVarWithElemDimsEjPKvmPKNS0_7ElementEPKjm"
  },
  {
   "name":"_ZN7android12renderscript21RsdCpuScriptIntrinsic9preLaunchEjPPKNS0_10AllocationEjPS2_PKvjPK12RsScriptCall"
  },
  {
   "name":"_ZN7android12renderscript21RsdCpuScriptIntrinsicC2EPNS0_19RsdCpuReferenceImplEPKNS0_6ScriptEPKNS0_7ElementE19RsScriptIntrinsicID"
  },
  {
   "name":"_ZN7android12renderscript21RsdCpuScriptIntrinsicD0Ev"
  },
  {
   "name":"_ZN7android12renderscript21RsdCpuScriptIntrinsicD1Ev"
  },
  {
   "name":"_ZN7android12renderscript21RsdCpuScriptIntrinsicD2Ev"
  },
  {
   "binding":"weak",
   "name":"_ZN7android12renderscript21debugHintScriptGroup2EPKcjPKPFvPK24RsExpandKernelDriverInfojjjEj"
  },
  {
   "name":"_ZN7android12renderscript21rsdIntrinsic_YuvToRGBEPNS0_19RsdCpuReferenceImplEPKNS0_6ScriptEPKNS0_7ElementE"
  },
  {
   "name":"_ZN7android12renderscript22constructBuildChecksumEPKhmPKcPS4_m"
  },
  {
   "name":"_ZN7android12renderscript22rsdIntrinsic_HistogramEPNS0_19RsdCpuReferenceImplEPKNS0_6ScriptEPKNS0_7ElementE"
  },
  {
   "name":"_ZN7android12renderscript24RsdCpuScriptIntrinsicLUT12setGlobalObjEjPNS0_10ObjectBaseE"
  },
  {
   "name":"_ZN7android12renderscript24RsdCpuScriptIntrinsicLUT14populateScriptEPNS0_6ScriptE"
  },
  {
   "name":"_ZN7android12renderscript24RsdCpuScriptIntrinsicLUT18invokeFreeChildrenEv"
  },
  {
   "name":"_ZN7android12renderscript24RsdCpuScriptIntrinsicLUT6kernelEPK24RsExpandKernelDriverInfojjj"
  },
  {
   "name":"_ZN7android12renderscript24RsdCpuScriptIntrinsicLUTC1EPNS0_19RsdCpuReferenceImplEPKNS0_6ScriptEPKNS0_7ElementE"
  },
  {
   "name":"_ZN7android12renderscript24RsdCpuScriptIntrinsicLUTC2EPNS0_19RsdCpuReferenceImplEPKNS0_6ScriptEPKNS0_7ElementE"
  },
  {
   "name":"_ZN7android12renderscript24RsdCpuScriptIntrinsicLUTD0Ev"
  },
  {
   "name":"_ZN7android12renderscript24RsdCpuScriptIntrinsicLUTD1Ev"
  },
  {
   "name":"_ZN7android12renderscript24RsdCpuScriptIntrinsicLUTD2Ev"
  },
  {
   "name":"_ZN7android12renderscript24rsdIntrinsic_ColorMatrixEPNS0_19RsdCpuReferenceImplEPKNS0_6ScriptEPKNS0_7ElementE"
  },
  {
   "name":"_ZN7android12renderscript24rsdIntrinsic_Convolve3x3EPNS0_19RsdCpuReferenceImplEPKNS0_6ScriptEPKNS0_7ElementE"
  },
  {
   "name":"_ZN7android12renderscript24rsdIntrinsic_Convolve5x5EPNS0_19RsdCpuReferenceImplEPKNS0_6ScriptEPKNS0_7ElementE"
  },
  {
   "name":"_ZN7android12renderscript25RsdCpuScriptIntrinsicBLAS10kernelBNNMEmmmPKhhmS3_hmPhimi"
  },
  {
   "name":"_ZN7android12renderscript25RsdCpuScriptIntrinsicBLAS13invokeForEachEjPPKNS0_10AllocationEjPS2_PKvjPK12RsScriptCall"
  },
  {
   "name":"_ZN7android12renderscript25RsdCpuScriptIntrinsicBLAS14populateScriptEPNS0_6ScriptE"
  },
  {
   "name":"_ZN7android12renderscript25RsdCpuScriptIntrinsicBLASC1EPNS0_19RsdCpuReferenceImplEPKNS0_6ScriptE"
  },
  {
   "name":"_ZN7android12renderscript25RsdCpuScriptIntrinsicBLASC2EPNS0_19RsdCpuReferenceImplEPKNS0_6ScriptE"
  },
  {
   "name":"_ZN7android12renderscript25RsdCpuScriptIntrinsicBLASD0Ev"
  },
  {
   "name":"_ZN7android12renderscript25RsdCpuScriptIntrinsicBLASD1Ev"
  },
  {
   "name":"_ZN7android12renderscript25RsdCpuScriptIntrinsicBLASD2Ev"
  },
  {
   "name":"_ZN7android12renderscript25RsdCpuScriptIntrinsicBlur12setGlobalObjEjPNS0_10ObjectBaseE"
  },
  {
   "name":"_ZN7android12renderscript25RsdCpuScriptIntrinsicBlur12setGlobalVarEjPKvm"
  },
  {
   "name":"_ZN7android12renderscript25RsdCpuScriptIntrinsicBlur14populateScriptEPNS0_6ScriptE"
  },
  {
   "name":"_ZN7android12renderscript25RsdCpuScriptIntrinsicBlur18invokeFreeChildrenEv"
  },
  {
   "name":"_ZN7android12renderscript25RsdCpuScriptIntrinsicBlur22ComputeGaussianWeightsEv"
  },
  {
   "name":"_ZN7android12renderscript25RsdCpuScriptIntrinsicBlur8kernelU1EPK24RsExpandKernelDriverInfojjj"
  },
  {
   "name":"_ZN7android12renderscript25RsdCpuScriptIntrinsicBlur8kernelU4EPK24RsExpandKernelDriverInfojjj"
  },
  {
   "name":"_ZN7android12renderscript25RsdCpuScriptIntrinsicBlurC1EPNS0_19RsdCpuReferenceImplEPKNS0_6ScriptEPKNS0_7ElementE"
  },
  {
   "name":"_ZN7android12renderscript25RsdCpuScriptIntrinsicBlurC2EPNS0_19RsdCpuReferenceImplEPKNS0_6ScriptEPKNS0_7ElementE"
  },
  {
   "name":"_ZN7android12renderscript25RsdCpuScriptIntrinsicBlurD0Ev"
  },
  {
   "name":"_ZN7android12renderscript25RsdCpuScriptIntrinsicBlurD1Ev"
  },
  {
   "name":"_ZN7android12renderscript25RsdCpuScriptIntrinsicBlurD2Ev"
  },
  {
   "name":"_ZN7android12renderscript26RsdCpuScriptIntrinsic3DLUT12setGlobalObjEjPNS0_10ObjectBaseE"
  },
  {
   "name":"_ZN7android12renderscript26RsdCpuScriptIntrinsic3DLUT14populateScriptEPNS0_6ScriptE"
  },
  {
   "name":"_ZN7android12renderscript26RsdCpuScriptIntrinsic3DLUT18invokeFreeChildrenEv"
  },
  {
   "name":"_ZN7android12renderscript26RsdCpuScriptIntrinsic3DLUT6kernelEPK24RsExpandKernelDriverInfojjj"
  },
  {
   "name":"_ZN7android12renderscript26RsdCpuScriptIntrinsic3DLUTC1EPNS0_19RsdCpuReferenceImplEPKNS0_6ScriptEPKNS0_7ElementE"
  },
  {
   "name":"_ZN7android12renderscript26RsdCpuScriptIntrinsic3DLUTC2EPNS0_19RsdCpuReferenceImplEPKNS0_6ScriptEPKNS0_7ElementE"
  },
  {
   "name":"_ZN7android12renderscript26RsdCpuScriptIntrinsic3DLUTD0Ev"
  },
  {
   "name":"_ZN7android12renderscript26RsdCpuScriptIntrinsic3DLUTD1Ev"
  },
  {
   "name":"_ZN7android12renderscript26RsdCpuScriptIntrinsic3DLUTD2Ev"
  },
  {
   "name":"_ZN7android12renderscript26RsdCpuScriptIntrinsicBlend14populateScriptEPNS0_6ScriptE"
  },
  {
   "name":"_ZN7android12renderscript26RsdCpuScriptIntrinsicBlend6kernelEPK24RsExpandKernelDriverInfojjj"
  },
  {
   "name":"_ZN7android12renderscript26RsdCpuScriptIntrinsicBlendC1EPNS0_19RsdCpuReferenceImplEPKNS0_6ScriptEPKNS0_7ElementE"
  },
  {
   "name":"_ZN7android12renderscript26RsdCpuScriptIntrinsicBlendC2EPNS0_19RsdCpuReferenceImplEPKNS0_6ScriptEPKNS0_7ElementE"
  },
  {
   "name":"_ZN7android12renderscript26RsdCpuScriptIntrinsicBlendD0Ev"
  },
  {
   "name":"_ZN7android12renderscript26RsdCpuScriptIntrinsicBlendD1Ev"
  },
  {
   "name":"_ZN7android12renderscript26RsdCpuScriptIntrinsicBlendD2Ev"
  },
  {
   "name":"_ZN7android12renderscript27RsdCpuScriptIntrinsicResize12setGlobalObjEjPNS0_10ObjectBaseE"
  },
  {
   "name":"_ZN7android12renderscript27RsdCpuScriptIntrinsicResize14populateScriptEPNS0_6ScriptE"
  },
  {
   "name":"_ZN7android12renderscript27RsdCpuScriptIntrinsicResize18invokeFreeChildrenEv"
  },
  {
   "name":"_ZN7android12renderscript27RsdCpuScriptIntrinsicResize8kernelF1EPK24RsExpandKernelDriverInfojjj"
  },
  {
   "name":"_ZN7android12renderscript27RsdCpuScriptIntrinsicResize8kernelF2EPK24RsExpandKernelDriverInfojjj"
  },
  {
   "name":"_ZN7android12renderscript27RsdCpuScriptIntrinsicResize8kernelF4EPK24RsExpandKernelDriverInfojjj"
  },
  {
   "name":"_ZN7android12renderscript27RsdCpuScriptIntrinsicResize8kernelU1EPK24RsExpandKernelDriverInfojjj"
  },
  {
   "name":"_ZN7android12renderscript27RsdCpuScriptIntrinsicResize8kernelU2EPK24RsExpandKernelDriverInfojjj"
  },
  {
   "name":"_ZN7android12renderscript27RsdCpuScriptIntrinsicResize8kernelU4EPK24RsExpandKernelDriverInfojjj"
  },
  {
   "name":"_ZN7android12renderscript27RsdCpuScriptIntrinsicResize9preLaunchEjPPKNS0_10AllocationEjPS2_PKvjPK12RsScriptCall"
  },
  {
   "name":"_ZN7android12renderscript27RsdCpuScriptIntrinsicResizeC1EPNS0_19RsdCpuReferenceImplEPKNS0_6ScriptEPKNS0_7ElementE"
  },
  {
   "name":"_ZN7android12renderscript27RsdCpuScriptIntrinsicResizeC2EPNS0_19RsdCpuReferenceImplEPKNS0_6ScriptEPKNS0_7ElementE"
  },
  {
   "name":"_ZN7android12renderscript27RsdCpuScriptIntrinsicResizeD0Ev"
  },
  {
   "name":"_ZN7android12renderscript27RsdCpuScriptIntrinsicResizeD1Ev"
  },
  {
   "name":"_ZN7android12renderscript27RsdCpuScriptIntrinsicResizeD2Ev"
  },
  {
   "name":"_ZN7android12renderscript29RsdCpuScriptIntrinsicYuvToRGB12setGlobalObjEjPNS0_10ObjectBaseE"
  },
  {
   "name":"_ZN7android12renderscript29RsdCpuScriptIntrinsicYuvToRGB14populateScriptEPNS0_6ScriptE"
  },
  {
   "name":"_ZN7android12renderscript29RsdCpuScriptIntrinsicYuvToRGB18invokeFreeChildrenEv"
  },
  {
   "name":"_ZN7android12renderscript29RsdCpuScriptIntrinsicYuvToRGB6kernelEPK24RsExpandKernelDriverInfojjj"
  },
  {
   "name":"_ZN7android12renderscript29RsdCpuScriptIntrinsicYuvToRGBC1EPNS0_19RsdCpuReferenceImplEPKNS0_6ScriptEPKNS0_7ElementE"
  },
  {
   "name":"_ZN7android12renderscript29RsdCpuScriptIntrinsicYuvToRGBC2EPNS0_19RsdCpuReferenceImplEPKNS0_6ScriptEPKNS0_7ElementE"
  },
  {
   "name":"_ZN7android12renderscript29RsdCpuScriptIntrinsicYuvToRGBD0Ev"
  },
  {
   "name":"_ZN7android12renderscript29RsdCpuScriptIntrinsicYuvToRGBD1Ev"
  },
  {
   "name":"_ZN7android12renderscript29RsdCpuScriptIntrinsicYuvToRGBD2Ev"
  },
  {
   "name":"_ZN7android12renderscript30RsdCpuScriptIntrinsicHistogram10kernelP1L1EPK24RsExpandKernelDriverInfojjj"
  },
  {
   "name":"_ZN7android12renderscript30RsdCpuScriptIntrinsicHistogram10kernelP1L2EPK24RsExpandKernelDriverInfojjj"
  },
  {
   "name":"_ZN7android12renderscript30RsdCpuScriptIntrinsicHistogram10kernelP1L3EPK24RsExpandKernelDriverInfojjj"
  },
  {
   "name":"_ZN7android12renderscript30RsdCpuScriptIntrinsicHistogram10kernelP1L4EPK24RsExpandKernelDriverInfojjj"
  },
  {
   "name":"_ZN7android12renderscript30RsdCpuScriptIntrinsicHistogram10kernelP1U1EPK24RsExpandKernelDriverInfojjj"
  },
  {
   "name":"_ZN7android12renderscript30RsdCpuScriptIntrinsicHistogram10kernelP1U2EPK24RsExpandKernelDriverInfojjj"
  },
  {
   "name":"_ZN7android12renderscript30RsdCpuScriptIntrinsicHistogram10kernelP1U3EPK24RsExpandKernelDriverInfojjj"
  },
  {
   "name":"_ZN7android12renderscript30RsdCpuScriptIntrinsicHistogram10kernelP1U4EPK24RsExpandKernelDriverInfojjj"
  },
  {
   "name":"_ZN7android12renderscript30RsdCpuScriptIntrinsicHistogram10postLaunchEjPPKNS0_10AllocationEjPS2_PKvjPK12RsScriptCall"
  },
  {
   "name":"_ZN7android12renderscript30RsdCpuScriptIntrinsicHistogram12setGlobalObjEjPNS0_10ObjectBaseE"
  },
  {
   "name":"_ZN7android12renderscript30RsdCpuScriptIntrinsicHistogram12setGlobalVarEjPKvm"
  },
  {
   "name":"_ZN7android12renderscript30RsdCpuScriptIntrinsicHistogram14populateScriptEPNS0_6ScriptE"
  },
  {
   "name":"_ZN7android12renderscript30RsdCpuScriptIntrinsicHistogram18invokeFreeChildrenEv"
  },
  {
   "name":"_ZN7android12renderscript30RsdCpuScriptIntrinsicHistogram9preLaunchEjPPKNS0_10AllocationEjPS2_PKvjPK12RsScriptCall"
  },
  {
   "name":"_ZN7android12renderscript30RsdCpuScriptIntrinsicHistogramC1EPNS0_19RsdCpuReferenceImplEPKNS0_6ScriptEPKNS0_7ElementE"
  },
  {
   "name":"_ZN7android12renderscript30RsdCpuScriptIntrinsicHistogramC2EPNS0_19RsdCpuReferenceImplEPKNS0_6ScriptEPKNS0_7ElementE"
  },
  {
   "name":"_ZN7android12renderscript30RsdCpuScriptIntrinsicHistogramD0Ev"
  },
  {
   "name":"_ZN7android12renderscript30RsdCpuScriptIntrinsicHistogramD1Ev"
  },
  {
   "name":"_ZN7android12renderscript30RsdCpuScriptIntrinsicHistogramD2Ev"
  },
  {
   "name":"_ZN7android12renderscript32RsdCpuScriptIntrinsicColorMatrix10computeKeyEPKNS0_7ElementES4_"
  },
  {
   "name":"_ZN7android12renderscript32RsdCpuScriptIntrinsicColorMatrix12setGlobalVarEjPKvm"
  },
  {
   "name":"_ZN7android12renderscript32RsdCpuScriptIntrinsicColorMatrix14populateScriptEPNS0_6ScriptE"
  },
  {
   "name":"_ZN7android12renderscript32RsdCpuScriptIntrinsicColorMatrix16updateCoeffCacheEff"
  },
  {
   "name":"_ZN7android12renderscript32RsdCpuScriptIntrinsicColorMatrix5buildENS0_5Key_tE"
  },
  {
   "name":"_ZN7android12renderscript32RsdCpuScriptIntrinsicColorMatrix6kernelEPK24RsExpandKernelDriverInfojjj"
  },
  {
   "name":"_ZN7android12renderscript32RsdCpuScriptIntrinsicColorMatrix9preLaunchEjPPKNS0_10AllocationEjPS2_PKvjPK12RsScriptCall"
  },
  {
   "name":"_ZN7android12renderscript32RsdCpuScriptIntrinsicColorMatrixC1EPNS0_19RsdCpuReferenceImplEPKNS0_6ScriptEPKNS0_7ElementE"
  },
  {
   "name":"_ZN7android12renderscript32RsdCpuScriptIntrinsicColorMatrixC2EPNS0_19RsdCpuReferenceImplEPKNS0_6ScriptEPKNS0_7ElementE"
  },
  {
   "name":"_ZN7android12renderscript32RsdCpuScriptIntrinsicColorMatrixD0Ev"
  },
  {
   "name":"_ZN7android12renderscript32RsdCpuScriptIntrinsicColorMatrixD1Ev"
  },
  {
   "name":"_ZN7android12renderscript32RsdCpuScriptIntrinsicColorMatrixD2Ev"
  },
  {
   "name":"_ZN7android12renderscript32RsdCpuScriptIntrinsicConvolve3x312setGlobalObjEjPNS0_10ObjectBaseE"
  },
  {
   "name":"_ZN7android12renderscript32RsdCpuScriptIntrinsicConvolve3x312setGlobalVarEjPKvm"
  },
  {
   "name":"_ZN7android12renderscript32RsdCpuScriptIntrinsicConvolve3x314populateScriptEPNS0_6ScriptE"
  },
  {
   "name":"_ZN7android12renderscript32RsdCpuScriptIntrinsicConvolve3x318invokeFreeChildrenEv"
  },
  {
   "name":"_ZN7android12renderscript32RsdCpuScriptIntrinsicConvolve3x38kernelF1EPK24RsExpandKernelDriverInfojjj"
  },
  {
   "name":"_ZN7android12renderscript32RsdCpuScriptIntrinsicConvolve3x38kernelF2EPK24RsExpandKernelDriverInfojjj"
  },
  {
   "name":"_ZN7android12renderscript32RsdCpuScriptIntrinsicConvolve3x38kernelF4EPK24RsExpandKernelDriverInfojjj"
  },
  {
   "name":"_ZN7android12renderscript32RsdCpuScriptIntrinsicConvolve3x38kernelU1EPK24RsExpandKernelDriverInfojjj"
  },
  {
   "name":"_ZN7android12renderscript32RsdCpuScriptIntrinsicConvolve3x38kernelU2EPK24RsExpandKernelDriverInfojjj"
  },
  {
   "name":"_ZN7android12renderscript32RsdCpuScriptIntrinsicConvolve3x38kernelU4EPK24RsExpandKernelDriverInfojjj"
  },
  {
   "name":"_ZN7android12renderscript32RsdCpuScriptIntrinsicConvolve3x3C1EPNS0_19RsdCpuReferenceImplEPKNS0_6ScriptEPKNS0_7ElementE"
  },
  {
   "name":"_ZN7android12renderscript32RsdCpuScriptIntrinsicConvolve3x3C2EPNS0_19RsdCpuReferenceImplEPKNS0_6ScriptEPKNS0_7ElementE"
  },
  {
   "name":"_ZN7android12renderscript32RsdCpuScriptIntrinsicConvolve3x3D0Ev"
  },
  {
   "name":"_ZN7android12renderscript32RsdCpuScriptIntrinsicConvolve3x3D1Ev"
  },
  {
   "name":"_ZN7android12renderscript32RsdCpuScriptIntrinsicConvolve3x3D2Ev"
  },
  {
   "name":"_ZN7android12renderscript32RsdCpuScriptIntrinsicConvolve5x512setGlobalObjEjPNS0_10ObjectBaseE"
  },
  {
   "name":"_ZN7android12renderscript32RsdCpuScriptIntrinsicConvolve5x512setGlobalVarEjPKvm"
  },
  {
   "name":"_ZN7android12renderscript32RsdCpuScriptIntrinsicConvolve5x514populateScriptEPNS0_6ScriptE"
  },
  {
   "name":"_ZN7android12renderscript32RsdCpuScriptIntrinsicConvolve5x518invokeFreeChildrenEv"
  },
  {
   "name":"_ZN7android12renderscript32RsdCpuScriptIntrinsicConvolve5x58kernelF1EPK24RsExpandKernelDriverInfojjj"
  },
  {
   "name":"_ZN7android12renderscript32RsdCpuScriptIntrinsicConvolve5x58kernelF2EPK24RsExpandKernelDriverInfojjj"
  },
  {
   "name":"_ZN7android12renderscript32RsdCpuScriptIntrinsicConvolve5x58kernelF4EPK24RsExpandKernelDriverInfojjj"
  },
  {
   "name":"_ZN7android12renderscript32RsdCpuScriptIntrinsicConvolve5x58kernelU1EPK24RsExpandKernelDriverInfojjj"
  },
  {
   "name":"_ZN7android12renderscript32RsdCpuScriptIntrinsicConvolve5x58kernelU2EPK24RsExpandKernelDriverInfojjj"
  },
  {
   "name":"_ZN7android12renderscript32RsdCpuScriptIntrinsicConvolve5x58kernelU4EPK24RsExpandKernelDriverInfojjj"
  },
  {
   "name":"_ZN7android12renderscript32RsdCpuScriptIntrinsicConvolve5x5C1EPNS0_19RsdCpuReferenceImplEPKNS0_6ScriptEPKNS0_7ElementE"
  },
  {
   "name":"_ZN7android12renderscript32RsdCpuScriptIntrinsicConvolve5x5C2EPNS0_19RsdCpuReferenceImplEPKNS0_6ScriptEPKNS0_7ElementE"
  },
  {
   "name":"_ZN7android12renderscript32RsdCpuScriptIntrinsicConvolve5x5D0Ev"
  },
  {
   "name":"_ZN7android12renderscript32RsdCpuScriptIntrinsicConvolve5x5D1Ev"
  },
  {
   "name":"_ZN7android12renderscript32RsdCpuScriptIntrinsicConvolve5x5D2Ev"
  },
  {
   "name":"_ZN7android12renderscript5Batch14resolveFuncPtrEPv"
  },
  {
   "name":"_ZN7android12renderscript5Batch18setGlobalsForBatchEv"
  },
  {
   "name":"_ZN7android12renderscript5Batch3runEv"
  },
  {
   "name":"_ZN7android12renderscript5BatchC1EPNS0_19CpuScriptGroup2ImplEPKc"
  },
  {
   "name":"_ZN7android12renderscript5BatchC2EPNS0_19CpuScriptGroup2ImplEPKc"
  },
  {
   "name":"_ZN7android12renderscript5BatchD1Ev"
  },
  {
   "name":"_ZN7android12renderscript5BatchD2Ev"
  },
  {
   "name":"_ZN8gemmlowp18eight_bit_int_gemm15EightBitIntGemmEbbbiiiPKhiiS2_iiPffiNS0_15BitDepthSettingE"
  },
  {
   "name":"_ZN8gemmlowp18eight_bit_int_gemm15EightBitIntGemmEbbbiiiPKhiiS2_iiPhiiiiNS0_15BitDepthSettingE"
  },
  {
   "name":"_ZN8gemmlowp18eight_bit_int_gemm16SetMaxNumThreadsEi"
  },
  {
   "name":"_ZN8gemmlowp18eight_bit_int_gemm23FreePersistentResourcesEv"
  },
  {
   "name":"_ZNK7android12renderscript16RsdCpuScriptImpl12getFieldNameEj"
  },
  {
   "name":"_ZNK7android12renderscript16RsdCpuScriptImpl13getGlobalNameEi"
  },
  {
   "name":"_ZNK7android12renderscript16RsdCpuScriptImpl13getGlobalSizeEi"
  },
  {
   "name":"_ZNK7android12renderscript16RsdCpuScriptImpl16getGlobalAddressEi"
  },
  {
   "name":"_ZNK7android12renderscript16RsdCpuScriptImpl16getGlobalEntriesEv"
  },
  {
   "name":"_ZNK7android12renderscript16RsdCpuScriptImpl19getGlobalPropertiesEi"
  },
  {
   "name":"_ZNK7android12renderscript16RsdCpuScriptImpl23getAllocationForPointerEPKv"
  },
  {
   "name":"_ZNK7android12renderscript16ScriptExecutable14dumpGlobalInfoEv"
  },
  {
   "name":"_ZNK7android12renderscript16ScriptExecutable15getFieldAddressEPKc"
  },
  {
   "name":"_ZNK7android12renderscript5Batch8conflictEPNS0_10CPUClosureE"
  },
  {
   "binding":"weak",
   "name":"_ZNKSt3__115basic_stringbufIcNS_11char_traitsIcEENS_9allocatorIcEEE3strEv"
  },
  {
   "binding":"weak",
   "name":"_ZNSt3__113basic_filebufIcNS_11char_traitsIcEEE4syncEv"
  },
  {
   "binding":"weak",
   "name":"_ZNSt3__113basic_filebufIcNS_11char_traitsIcEEE5imbueERKNS_6localeE"
  },
  {
   "binding":"weak",
   "name":"_ZNSt3__113basic_filebufIcNS_11char_traitsIcEEE6setbufEPcl"
  },
  {
   "binding":"weak",
   "name":"_ZNSt3__113basic_filebufIcNS_11char_traitsIcEEE7seekoffExNS_8ios_base7seekdirEj"
  },
  {
   "binding":"weak",
   "name":"_ZNSt3__113basic_filebufIcNS_11char_traitsIcEEE7seekposENS_4fposI9mbstate_tEEj"
  },
  {
   "binding":"weak",
   "name":"_ZNSt3__113basic_filebufIcNS_11char_traitsIcEEE8overflowEi"
  },
  {
   "binding":"weak",
   "name":"_ZNSt3__113basic_filebufIcNS_11char_traitsIcEEE9pbackfailEi"
  },
  {
   "binding":"weak",
   "name":"_ZNSt3__113basic_filebufIcNS_11char_traitsIcEEE9underflowEv"
  },
  {
   "binding":"weak",
   "name":"_ZNSt3__113basic_filebufIcNS_11char_traitsIcEEEC2Ev"
  },
  {
   "binding":"weak",
   "name":"_ZNSt3__113basic_filebufIcNS_11char_traitsIcEEED0Ev"
  },
  {
   "binding":"weak",
   "name":"_ZNSt3__113basic_filebufIcNS_11char_traitsIcEEED2Ev"
  },
  {
   "binding":"weak",
   "name":"_ZNSt3__115basic_stringbufIcNS_11char_traitsIcEENS_9allocatorIcEEE7seekoffExNS_8ios_base7seekdirEj"
  },
  {
   "binding":"weak",
   "name":"_ZNSt3__115basic_stringbufIcNS_11char_traitsIcEENS_9allocatorIcEEE8overflowEi"
  },
  {
   "binding":"weak",
   "name":"_ZNSt3__115basic_stringbufIcNS_11char_traitsIcEENS_9allocatorIcEEE9pbackfailEi"
  },
  {
   "binding":"weak",
   "name":"_ZNSt3__115basic_stringbufIcNS_11char_traitsIcEENS_9allocatorIcEEE9underflowEv"
  },
  {
   "binding":"weak",
   "name":"_ZNSt3__124__put_character_sequenceIcNS_11char_traitsIcEEEERNS_13basic_ostreamIT_T0_EES7_PKS4_m"
  },
  {
   "binding":"weak",
   "name":"_ZNSt3__127__tree_balance_after_insertIPNS_16__tree_node_baseIPvEEEEvT_S5_"
  },
  {
   "binding":"weak",
   "name":"_ZNSt3__16__treeINS_12basic_stringIcNS_11char_traitsIcEENS_9allocatorIcEEEENS_4lessIS6_EENS4_IS6_EEE12__find_equalIS6_EERPNS_16__tree_node_baseIPvEERPNS_15__tree_end_nodeISF_EERKT_"
  },
  {
   "binding":"weak",
   "name":"_ZNSt3__16__treeINS_12basic_stringIcNS_11char_traitsIcEENS_9allocatorIcEEEENS_4lessIS6_EENS4_IS6_EEE4findIS6_EENS_15__tree_iteratorIS6_PNS_11__tree_nodeIS6_PvEElEERKT_"
  },
  {
   "binding":"weak",
   "name":"_ZNSt3__16__treeINS_12basic_stringIcNS_11char_traitsIcEENS_9allocatorIcEEEENS_4lessIS6_EENS4_IS6_EEE7destroyEPNS_11__tree_nodeIS6_PvEE"
  },
  {
   "binding":"weak",
   "name":"_ZNSt3__16vectorINS_12basic_stringIcNS_11char_traitsIcEENS_9allocatorIcEEEENS4_IS6_EEE21__push_back_slow_pathIS6_EEvOT_"
  },
  {
   "binding":"weak",
   "name":"_ZNSt3__16vectorIPFvPK24RsExpandKernelDriverInfojjjENS_9allocatorIS5_EEE21__push_back_slow_pathIRKS5_EEvOT_"
  },
  {
   "binding":"weak",
   "name":"_ZNSt3__16vectorIPKN7android12renderscript14ScriptKernelIDENS_9allocatorIS5_EEE21__push_back_slow_pathIRKS5_EEvOT_"
  },
  {
   "binding":"weak",
   "name":"_ZNSt3__16vectorIPKcNS_9allocatorIS2_EEE21__push_back_slow_pathIRKS2_EEvOT_"
  },
  {
   "binding":"weak",
   "name":"_ZNSt3__16vectorIPKcNS_9allocatorIS2_EEE21__push_back_slow_pathIS2_EEvOT_"
  },
  {
   "binding":"weak",
   "name":"_ZNSt3__16vectorIPKcNS_9allocatorIS2_EEEC2INS_21__tree_const_iteratorIS2_PNS_11__tree_nodeIS2_PvEElEEEET_NS_9enable_ifIXaasr21__is_forward_iteratorISD_EE5valuesr16is_constructibleIS2_NS_15iterator_traitsISD_E9referenceEEE5valueESD_E4typeE"
  },
  {
   "binding":"weak",
   "name":"_ZNSt3__16vectorIPKvNS_9allocatorIS2_EEE21__push_back_slow_pathIRKS2_EEvOT_"
  },
  {
   "binding":"weak",
   "name":"_ZNSt3__16vectorIPKvNS_9allocatorIS2_EEE21__push_back_slow_pathIS2_EEvOT_"
  },
  {
   "binding":"weak",
   "name":"_ZNSt3__16vectorIPN7android12renderscript10AllocationENS_9allocatorIS4_EEE21__push_back_slow_pathIRKS4_EEvOT_"
  },
  {
   "binding":"weak",
   "name":"_ZNSt3__16vectorIhNS_9allocatorIhEEE21__push_back_slow_pathIhEEvOT_"
  },
  {
   "binding":"weak",
   "name":"_ZNSt3__16vectorIjNS_9allocatorIjEEE21__push_back_slow_pathIRKjEEvOT_"
  },
  {
   "binding":"weak",
   "name":"_ZNSt3__1lsINS_11char_traitsIcEEEERNS_13basic_ostreamIcT_EES6_PKc"
  }
 ],
 "elf_objects":[
  {
   "name":"_ZN7android12renderscript12gArchUseSIMDE"
  },
  {
   "name":"_ZN7android12renderscript16RsdCpuScriptImpl12BCC_EXE_PATHE"
  },
  {
   "name":"_ZN7android12renderscript18SharedLibraryUtils11LD_EXE_PATHE"
  },
  {
   "name":"_ZN7android12renderscript18SharedLibraryUtils12RS_CACHE_DIRE"
  },
  {
   "binding":"weak",
   "name":"_ZTTNSt3__114basic_ifstreamIcNS_11char_traitsIcEEEE"
  },
  {
   "binding":"weak",
   "name":"_ZTTNSt3__114basic_ofstreamIcNS_11char_traitsIcEEEE"
  },
  {
   "binding":"weak",
   "name":"_ZTTNSt3__118basic_stringstreamIcNS_11char_traitsIcEENS_9allocatorIcEEEE"
  },
  {
   "name":"_ZTVN7android12renderscript15RsdCpuReferenceE"
  },
  {
   "name":"_ZTVN7android12renderscript16RsdCpuScriptImplE"
  },
  {
   "name":"_ZTVN7android12renderscript18CpuScriptGroupImplE"
  },
  {
   "name":"_ZTVN7android12renderscript19CpuScriptGroup2ImplE"
  },
  {
   "name":"_ZTVN7android12renderscript19RsdCpuReferenceImplE"
  },
  {
   "name":"_ZTVN7android12renderscript21RsdCpuScriptIntrinsicE"
  },
  {
   "name":"_ZTVN7android12renderscript24RsdCpuScriptIntrinsicLUTE"
  },
  {
   "name":"_ZTVN7android12renderscript25RsdCpuScriptIntrinsicBLASE"
  },
  {
   "name":"_ZTVN7android12renderscript25RsdCpuScriptIntrinsicBlurE"
  },
  {
   "name":"_ZTVN7android12renderscript26RsdCpuScriptIntrinsic3DLUTE"
  },
  {
   "name":"_ZTVN7android12renderscript26RsdCpuScriptIntrinsicBlendE"
  },
  {
   "name":"_ZTVN7android12renderscript27RsdCpuScriptIntrinsicResizeE"
  },
  {
   "name":"_ZTVN7android12renderscript29RsdCpuScriptIntrinsicYuvToRGBE"
  },
  {
   "name":"_ZTVN7android12renderscript30RsdCpuScriptIntrinsicHistogramE"
  },
  {
   "name":"_ZTVN7android12renderscript32RsdCpuScriptIntrinsicColorMatrixE"
  },
  {
   "name":"_ZTVN7android12renderscript32RsdCpuScriptIntrinsicConvolve3x3E"
  },
  {
   "name":"_ZTVN7android12renderscript32RsdCpuScriptIntrinsicConvolve5x5E"
  },
  {
   "binding":"weak",
   "name":"_ZTVNSt3__113basic_filebufIcNS_11char_traitsIcEEEE"
  },
  {
   "binding":"weak",
   "name":"_ZTVNSt3__114basic_ifstreamIcNS_11char_traitsIcEEEE"
  },
  {
   "binding":"weak",
   "name":"_ZTVNSt3__114basic_ofstreamIcNS_11char_traitsIcEEEE"
  },
  {
   "binding":"weak",
   "name":"_ZTVNSt3__115basic_stringbufIcNS_11char_traitsIcEENS_9allocatorIcEEEE"
  },
  {
   "binding":"weak",
   "name":"_ZTVNSt3__118basic_stringstreamIcNS_11char_traitsIcEENS_9allocatorIcEEEE"
  }
 ]
}