{
 "record_types":[
  {
   "vtable_components":[
    {
     "kind":"offset_to_top"
    },
    {
     "kind":"rtti",
     "mangled_component_name":"_ZTIN7android11FLACDecoderE"
    },
    {
     "kind":"complete_dtor_pointer",
     "mangled_component_name":"_ZN7android11FLACDecoderD1Ev"
    },
    {
     "kind":"deleting_dtor_pointer",
     "mangled_component_name":"_ZN7android11FLACDecoderD0Ev"
    }
   ],
   "unique_id":"_ZTSN7android11FLACDecoderE"
  }
 ],
 "elf_functions":[
  {
   "name":"_ZN7android11FLACDecoder12readCallbackEPhPm"
  },
  {
   "name":"_ZN7android11FLACDecoder13errorCallbackE30FLAC__StreamDecoderErrorStatus"
  },
  {
   "name":"_ZN7android11FLACDecoder13parseMetadataEPKhm"
  },
  {
   "name":"_ZN7android11FLACDecoder13writeCallbackEPK11FLAC__FramePKPKi"
  },
  {
   "name":"_ZN7android11FLACDecoder14decodeOneFrameEPKhmPsPm"
  },
  {
   "name":"_ZN7android11FLACDecoder15addDataToBufferEPKhm"
  },
  {
   "name":"_ZN7android11FLACDecoder16metadataCallbackEPK20FLAC__StreamMetadata"
  },
  {
   "name":"_ZN7android11FLACDecoder4initEv"
  },
  {
   "name":"_ZN7android11FLACDecoder5flushEv"
  },
  {
   "name":"_ZN7android11FLACDecoder6CreateEv"
  },
  {
   "name":"_ZN7android11FLACDecoderC1Ev"
  },
  {
   "name":"_ZN7android11FLACDecoderC2Ev"
  },
  {
   "name":"_ZN7android11FLACDecoderD0Ev"
  },
  {
   "name":"_ZN7android11FLACDecoderD1Ev"
  },
  {
   "name":"_ZN7android11FLACDecoderD2Ev"
  }
 ],
 "elf_objects":[
  {
   "name":"_ZTVN7android11FLACDecoderE"
  }
 ]
}