{
 "record_types":[
  {
   "vtable_components":[
    {
     "kind":"offset_to_top"
    },
    {
     "kind":"rtti",
     "mangled_component_name":"_ZTIN11zip_archive6WriterE"
    },
    {
     "is_pure":true,
     "mangled_component_name":"_ZN11zip_archive6Writer6AppendEPhm"
    },
    {
     "kind":"complete_dtor_pointer",
     "mangled_component_name":"_ZN11zip_archive6WriterD1Ev"
    },
    {
     "kind":"deleting_dtor_pointer",
     "mangled_component_name":"_ZN11zip_archive6WriterD0Ev"
    }
   ],
   "unique_id":"_ZTSN11zip_archive6WriterE"
  },
  {
   "vtable_components":[
    {
     "kind":"offset_to_top"
    },
    {
     "kind":"rtti",
     "mangled_component_name":"_ZTIN11zip_archive6ReaderE"
    },
    {
     "is_pure":true,
     "mangled_component_name":"_ZNK11zip_archive6Reader12ReadAtOffsetEPhmj"
    },
    {
     "kind":"complete_dtor_pointer",
     "mangled_component_name":"_ZN11zip_archive6ReaderD1Ev"
    },
    {
     "kind":"deleting_dtor_pointer",
     "mangled_component_name":"_ZN11zip_archive6ReaderD0Ev"
    }
   ],
   "unique_id":"_ZTSN11zip_archive6ReaderE"
  },
  {
   "vtable_components":[
    {
     "kind":"offset_to_top"
    },
    {
     "kind":"rtti",
     "mangled_component_name":"_ZTI21ZipArchiveStreamEntry"
    },
    {
     "kind":"complete_dtor_pointer",
     "mangled_component_name":"_ZN21ZipArchiveStreamEntryD1Ev"
    },
    {
     "kind":"deleting_dtor_pointer",
     "mangled_component_name":"_ZN21ZipArchiveStreamEntryD0Ev"
    },
    {
     "is_pure":true,
     "mangled_component_name":"_ZN21ZipArchiveStreamEntry4ReadEv"
    },
    {
     "is_pure":true,
     "mangled_component_name":"_ZN21ZipArchiveStreamEntry6VerifyEv"
    },
    {
     "mangled_component_name":"_ZN21ZipArchiveStreamEntry4InitERK8ZipEntry"
    }
   ],
   "unique_id":"_ZTS21ZipArchiveStreamEntry"
  }
 ],
 "elf_functions":[
  {
   "name":"_Z11OpenArchivePKcPPv"
  },
  {
   "name":"_Z12CloseArchivePv"
  },
  {
   "name":"_Z12EndIterationPv"
  },
  {
   "name":"_Z13OpenArchiveFdiPKcPPvb"
  },
  {
   "name":"_Z14StartIterationPvPS_PK9ZipStringS3_"
  },
  {
   "name":"_Z15ErrorCodeStringi"
  },
  {
   "name":"_Z15ExtractToMemoryPvP8ZipEntryPhj"
  },
  {
   "name":"_Z17GetFileDescriptorPv"
  },
  {
   "name":"_Z18ExtractEntryToFilePvP8ZipEntryi"
  },
  {
   "name":"_Z21OpenArchiveFromMemoryPvmPKcPS_"
  },
  {
   "name":"_Z23ProcessZipEntryContentsPvP8ZipEntryPFbPKhmS_ES_"
  },
  {
   "name":"_Z4NextPvP8ZipEntryP9ZipString"
  },
  {
   "name":"_Z9FindEntryPvRK9ZipStringP8ZipEntry"
  },
  {
   "name":"_ZN11zip_archive6ReaderD0Ev"
  },
  {
   "name":"_ZN11zip_archive6ReaderD1Ev"
  },
  {
   "name":"_ZN11zip_archive6ReaderD2Ev"
  },
  {
   "name":"_ZN11zip_archive6WriterD0Ev"
  },
  {
   "name":"_ZN11zip_archive6WriterD1Ev"
  },
  {
   "name":"_ZN11zip_archive6WriterD2Ev"
  },
  {
   "name":"_ZN11zip_archive7InflateERKNS_6ReaderEjjPNS_6WriterEPm"
  },
  {
   "name":"_ZN21ZipArchiveStreamEntry4InitERK8ZipEntry"
  },
  {
   "name":"_ZN21ZipArchiveStreamEntry6CreateEPvRK8ZipEntry"
  },
  {
   "name":"_ZN21ZipArchiveStreamEntry9CreateRawEPvRK8ZipEntry"
  },
  {
   "name":"_ZN9ZipStringC1EPKc"
  },
  {
   "name":"_ZN9ZipStringC2EPKc"
  },
  {
   "name":"_ZN9ZipWriter10StartEntryEPKcm"
  },
  {
   "name":"_ZN9ZipWriter10StoreBytesEPNS_9FileEntryEPKvm"
  },
  {
   "name":"_ZN9ZipWriter10WriteBytesEPKvm"
  },
  {
   "name":"_ZN9ZipWriter11FinishEntryEv"
  },
  {
   "name":"_ZN9ZipWriter11HandleErrorEi"
  },
  {
   "name":"_ZN9ZipWriter12GetLastEntryEPNS_9FileEntryE"
  },
  {
   "name":"_ZN9ZipWriter13CompressBytesEPNS_9FileEntryEPKvm"
  },
  {
   "name":"_ZN9ZipWriter14PrepareDeflateEv"
  },
  {
   "name":"_ZN9ZipWriter15ErrorCodeStringEi"
  },
  {
   "name":"_ZN9ZipWriter16DiscardLastEntryEv"
  },
  {
   "name":"_ZN9ZipWriter17StartAlignedEntryEPKcmj"
  },
  {
   "name":"_ZN9ZipWriter18StartEntryWithTimeEPKcml"
  },
  {
   "name":"_ZN9ZipWriter20FlushCompressedBytesEPNS_9FileEntryE"
  },
  {
   "name":"_ZN9ZipWriter25StartAlignedEntryWithTimeEPKcmlj"
  },
  {
   "name":"_ZN9ZipWriter6FinishEv"
  },
  {
   "name":"_ZN9ZipWriterC1EOS_"
  },
  {
   "name":"_ZN9ZipWriterC1EP7__sFILE"
  },
  {
   "name":"_ZN9ZipWriterC2EOS_"
  },
  {
   "name":"_ZN9ZipWriterC2EP7__sFILE"
  },
  {
   "name":"_ZN9ZipWriteraSEOS_"
  },
  {
   "name":"_ZNK8ZipEntry19GetModificationTimeEv"
  }
 ],
 "elf_objects":[
  {
   "name":"_ZTV21ZipArchiveStreamEntry"
  },
  {
   "name":"_ZTVN11zip_archive6ReaderE"
  },
  {
   "name":"_ZTVN11zip_archive6WriterE"
  }
 ]
}