{
 "record_types":[
  {
   "vtable_components":[
    {
     "kind":"vbase_offset",
     "component_value":4
    },
    {
     "kind":"offset_to_top"
    },
    {
     "kind":"rtti",
     "mangled_component_name":"_ZTIN7android8hardware9bluetooth4V1_022IBluetoothHciCallbacksE"
    },
    {
     "mangled_component_name":"_ZNK7android8hardware9bluetooth4V1_022IBluetoothHciCallbacks8isRemoteEv"
    },
    {
     "mangled_component_name":"_ZN7android8hardware9bluetooth4V1_022IBluetoothHciCallbacks14interfaceChainENSt3__18functionIFvRKNS0_8hidl_vecINS0_11hidl_stringEEEEEE"
    },
    {
     "mangled_component_name":"_ZN7android8hardware9bluetooth4V1_022IBluetoothHciCallbacks5debugERKNS0_11hidl_handleERKNS0_8hidl_vecINS0_11hidl_stringEEE"
    },
    {
     "mangled_component_name":"_ZN7android8hardware9bluetooth4V1_022IBluetoothHciCallbacks19interfaceDescriptorENSt3__18functionIFvRKNS0_11hidl_stringEEEE"
    },
    {
     "mangled_component_name":"_ZN7android8hardware9bluetooth4V1_022IBluetoothHciCallbacks12getHashChainENSt3__18functionIFvRKNS0_8hidl_vecINS0_10hidl_arrayIhLj32EJEEEEEEEE"
    },
    {
     "mangled_component_name":"_ZN7android8hardware9bluetooth4V1_022IBluetoothHciCallbacks21setHALInstrumentationEv"
    },
    {
     "mangled_component_name":"_ZN7android8hardware9bluetooth4V1_022IBluetoothHciCallbacks11linkToDeathERKNS_2spINS0_20hidl_death_recipientEEEy"
    },
    {
     "mangled_component_name":"_ZN7android8hardware9bluetooth4V1_022IBluetoothHciCallbacks4pingEv"
    },
    {
     "mangled_component_name":"_ZN7android8hardware9bluetooth4V1_022IBluetoothHciCallbacks12getDebugInfoENSt3__18functionIFvRKNS_4hidl4base4V1_09DebugInfoEEEE"
    },
    {
     "mangled_component_name":"_ZN7android8hardware9bluetooth4V1_022IBluetoothHciCallbacks21notifySyspropsChangedEv"
    },
    {
     "mangled_component_name":"_ZN7android8hardware9bluetooth4V1_022IBluetoothHciCallbacks13unlinkToDeathERKNS_2spINS0_20hidl_death_recipientEEE"
    },
    {
     "kind":"complete_dtor_pointer",
     "mangled_component_name":"_ZN7android8hardware9bluetooth4V1_022IBluetoothHciCallbacksD1Ev"
    },
    {
     "kind":"deleting_dtor_pointer",
     "mangled_component_name":"_ZN7android8hardware9bluetooth4V1_022IBluetoothHciCallbacksD0Ev"
    },
    {
     "is_pure":true,
     "mangled_component_name":"_ZN7android8hardware9bluetooth4V1_022IBluetoothHciCallbacks22initializationCompleteENS2_6StatusE"
    },
    {
     "is_pure":true,
     "mangled_component_name":"_ZN7android8hardware9bluetooth4V1_022IBluetoothHciCallbacks16hciEventReceivedERKNS0_8hidl_vecIhEE"
    },
    {
     "is_pure":true,
     "mangled_component_name":"_ZN7android8hardware9bluetooth4V1_022IBluetoothHciCallbacks15aclDataReceivedERKNS0_8hidl_vecIhEE"
    },
    {
     "is_pure":true,
     "mangled_component_name":"_ZN7android8hardware9bluetooth4V1_022IBluetoothHciCallbacks15scoDataReceivedERKNS0_8hidl_vecIhEE"
    },
    {
     "kind":"vcall_offset"
    },
    {
     "kind":"vcall_offset"
    },
    {
     "kind":"vcall_offset"
    },
    {
     "kind":"vcall_offset"
    },
    {
     "kind":"vcall_offset",
     "component_value":-4
    },
    {
     "kind":"offset_to_top",
     "component_value":-4
    },
    {
     "kind":"rtti",
     "mangled_component_name":"_ZTIN7android8hardware9bluetooth4V1_022IBluetoothHciCallbacksE"
    },
    {
     "kind":"complete_dtor_pointer",
     "mangled_component_name":"_ZTv0_n12_N7android8hardware9bluetooth4V1_022IBluetoothHciCallbacksD1Ev"
    },
    {
     "kind":"deleting_dtor_pointer",
     "mangled_component_name":"_ZTv0_n12_N7android8hardware9bluetooth4V1_022IBluetoothHciCallbacksD0Ev"
    },
    {
     "mangled_component_name":"_ZN7android7RefBase10onFirstRefEv"
    },
    {
     "mangled_component_name":"_ZN7android7RefBase15onLastStrongRefEPKv"
    },
    {
     "mangled_component_name":"_ZN7android7RefBase20onIncStrongAttemptedEjPKv"
    },
    {
     "mangled_component_name":"_ZN7android7RefBase13onLastWeakRefEPKv"
    }
   ],
   "unique_id":"_ZTSN7android8hardware9bluetooth4V1_022IBluetoothHciCallbacksE"
  },
  {
   "vtable_components":[
    {
     "kind":"vbase_offset",
     "component_value":84
    },
    {
     "kind":"offset_to_top"
    },
    {
     "kind":"rtti",
     "mangled_component_name":"_ZTIN7android8hardware9bluetooth4V1_025BpHwBluetoothHciCallbacksE"
    },
    {
     "mangled_component_name":"_ZNK7android8hardware9bluetooth4V1_025BpHwBluetoothHciCallbacks8isRemoteEv"
    },
    {
     "mangled_component_name":"_ZN7android8hardware9bluetooth4V1_025BpHwBluetoothHciCallbacks14interfaceChainENSt3__18functionIFvRKNS0_8hidl_vecINS0_11hidl_stringEEEEEE"
    },
    {
     "mangled_component_name":"_ZN7android8hardware9bluetooth4V1_025BpHwBluetoothHciCallbacks5debugERKNS0_11hidl_handleERKNS0_8hidl_vecINS0_11hidl_stringEEE"
    },
    {
     "mangled_component_name":"_ZN7android8hardware9bluetooth4V1_025BpHwBluetoothHciCallbacks19interfaceDescriptorENSt3__18functionIFvRKNS0_11hidl_stringEEEE"
    },
    {
     "mangled_component_name":"_ZN7android8hardware9bluetooth4V1_025BpHwBluetoothHciCallbacks12getHashChainENSt3__18functionIFvRKNS0_8hidl_vecINS0_10hidl_arrayIhLj32EJEEEEEEEE"
    },
    {
     "mangled_component_name":"_ZN7android8hardware9bluetooth4V1_025BpHwBluetoothHciCallbacks21setHALInstrumentationEv"
    },
    {
     "mangled_component_name":"_ZN7android8hardware9bluetooth4V1_025BpHwBluetoothHciCallbacks11linkToDeathERKNS_2spINS0_20hidl_death_recipientEEEy"
    },
    {
     "mangled_component_name":"_ZN7android8hardware9bluetooth4V1_025BpHwBluetoothHciCallbacks4pingEv"
    },
    {
     "mangled_component_name":"_ZN7android8hardware9bluetooth4V1_025BpHwBluetoothHciCallbacks12getDebugInfoENSt3__18functionIFvRKNS_4hidl4base4V1_09DebugInfoEEEE"
    },
    {
     "mangled_component_name":"_ZN7android8hardware9bluetooth4V1_025BpHwBluetoothHciCallbacks21notifySyspropsChangedEv"
    },
    {
     "mangled_component_name":"_ZN7android8hardware9bluetooth4V1_025BpHwBluetoothHciCallbacks13unlinkToDeathERKNS_2spINS0_20hidl_death_recipientEEE"
    },
    {
     "kind":"complete_dtor_pointer",
     "mangled_component_name":"_ZN7android8hardware9bluetooth4V1_025BpHwBluetoothHciCallbacksD1Ev"
    },
    {
     "kind":"deleting_dtor_pointer",
     "mangled_component_name":"_ZN7android8hardware9bluetooth4V1_025BpHwBluetoothHciCallbacksD0Ev"
    },
    {
     "mangled_component_name":"_ZN7android8hardware9bluetooth4V1_025BpHwBluetoothHciCallbacks22initializationCompleteENS2_6StatusE"
    },
    {
     "mangled_component_name":"_ZN7android8hardware9bluetooth4V1_025BpHwBluetoothHciCallbacks16hciEventReceivedERKNS0_8hidl_vecIhEE"
    },
    {
     "mangled_component_name":"_ZN7android8hardware9bluetooth4V1_025BpHwBluetoothHciCallbacks15aclDataReceivedERKNS0_8hidl_vecIhEE"
    },
    {
     "mangled_component_name":"_ZN7android8hardware9bluetooth4V1_025BpHwBluetoothHciCallbacks15scoDataReceivedERKNS0_8hidl_vecIhEE"
    },
    {
     "mangled_component_name":"_ZN7android8hardware11BpInterfaceINS0_9bluetooth4V1_022IBluetoothHciCallbacksEE10onAsBinderEv"
    },
    {
     "kind":"vbase_offset",
     "component_value":80
    },
    {
     "kind":"offset_to_top",
     "component_value":-4
    },
    {
     "kind":"rtti",
     "mangled_component_name":"_ZTIN7android8hardware9bluetooth4V1_025BpHwBluetoothHciCallbacksE"
    },
    {
     "kind":"complete_dtor_pointer",
     "mangled_component_name":"_ZThn4_N7android8hardware9bluetooth4V1_025BpHwBluetoothHciCallbacksD1Ev"
    },
    {
     "kind":"deleting_dtor_pointer",
     "mangled_component_name":"_ZThn4_N7android8hardware9bluetooth4V1_025BpHwBluetoothHciCallbacksD0Ev"
    },
    {
     "mangled_component_name":"_ZThn4_N7android8hardware11BpInterfaceINS0_9bluetooth4V1_022IBluetoothHciCallbacksEE10onAsBinderEv"
    },
    {
     "kind":"vbase_offset",
     "component_value":76
    },
    {
     "kind":"offset_to_top",
     "component_value":-8
    },
    {
     "kind":"rtti",
     "mangled_component_name":"_ZTIN7android8hardware9bluetooth4V1_025BpHwBluetoothHciCallbacksE"
    },
    {
     "kind":"complete_dtor_pointer",
     "mangled_component_name":"_ZThn8_N7android8hardware9bluetooth4V1_025BpHwBluetoothHciCallbacksD1Ev"
    },
    {
     "kind":"deleting_dtor_pointer",
     "mangled_component_name":"_ZThn8_N7android8hardware9bluetooth4V1_025BpHwBluetoothHciCallbacksD0Ev"
    },
    {
     "mangled_component_name":"_ZN7android8hardware11BpHwRefBase10onFirstRefEv"
    },
    {
     "mangled_component_name":"_ZN7android8hardware11BpHwRefBase15onLastStrongRefEPKv"
    },
    {
     "mangled_component_name":"_ZN7android8hardware11BpHwRefBase20onIncStrongAttemptedEjPKv"
    },
    {
     "kind":"offset_to_top",
     "component_value":-24
    },
    {
     "kind":"rtti",
     "mangled_component_name":"_ZTIN7android8hardware9bluetooth4V1_025BpHwBluetoothHciCallbacksE"
    },
    {
     "kind":"complete_dtor_pointer",
     "mangled_component_name":"_ZThn24_N7android8hardware9bluetooth4V1_025BpHwBluetoothHciCallbacksD1Ev"
    },
    {
     "kind":"deleting_dtor_pointer",
     "mangled_component_name":"_ZThn24_N7android8hardware9bluetooth4V1_025BpHwBluetoothHciCallbacksD0Ev"
    },
    {
     "kind":"vcall_offset"
    },
    {
     "kind":"vcall_offset",
     "component_value":-76
    },
    {
     "kind":"vcall_offset",
     "component_value":-76
    },
    {
     "kind":"vcall_offset",
     "component_value":-76
    },
    {
     "kind":"vcall_offset",
     "component_value":-84
    },
    {
     "kind":"offset_to_top",
     "component_value":-84
    },
    {
     "kind":"rtti",
     "mangled_component_name":"_ZTIN7android8hardware9bluetooth4V1_025BpHwBluetoothHciCallbacksE"
    },
    {
     "kind":"complete_dtor_pointer",
     "mangled_component_name":"_ZTv0_n12_N7android8hardware9bluetooth4V1_025BpHwBluetoothHciCallbacksD1Ev"
    },
    {
     "kind":"deleting_dtor_pointer",
     "mangled_component_name":"_ZTv0_n12_N7android8hardware9bluetooth4V1_025BpHwBluetoothHciCallbacksD0Ev"
    },
    {
     "mangled_component_name":"_ZTv0_n16_N7android8hardware11BpHwRefBase10onFirstRefEv"
    },
    {
     "mangled_component_name":"_ZTv0_n20_N7android8hardware11BpHwRefBase15onLastStrongRefEPKv"
    },
    {
     "mangled_component_name":"_ZTv0_n24_N7android8hardware11BpHwRefBase20onIncStrongAttemptedEjPKv"
    },
    {
     "mangled_component_name":"_ZN7android7RefBase13onLastWeakRefEPKv"
    }
   ],
   "unique_id":"_ZTSN7android8hardware9bluetooth4V1_025BpHwBluetoothHciCallbacksE"
  },
  {
   "vtable_components":[
    {
     "kind":"vbase_offset",
     "component_value":4
    },
    {
     "kind":"offset_to_top"
    },
    {
     "kind":"rtti",
     "mangled_component_name":"_ZTIN7android8hardware9bluetooth4V1_013IBluetoothHciE"
    },
    {
     "mangled_component_name":"_ZNK7android8hardware9bluetooth4V1_013IBluetoothHci8isRemoteEv"
    },
    {
     "mangled_component_name":"_ZN7android8hardware9bluetooth4V1_013IBluetoothHci14interfaceChainENSt3__18functionIFvRKNS0_8hidl_vecINS0_11hidl_stringEEEEEE"
    },
    {
     "mangled_component_name":"_ZN7android8hardware9bluetooth4V1_013IBluetoothHci5debugERKNS0_11hidl_handleERKNS0_8hidl_vecINS0_11hidl_stringEEE"
    },
    {
     "mangled_component_name":"_ZN7android8hardware9bluetooth4V1_013IBluetoothHci19interfaceDescriptorENSt3__18functionIFvRKNS0_11hidl_stringEEEE"
    },
    {
     "mangled_component_name":"_ZN7android8hardware9bluetooth4V1_013IBluetoothHci12getHashChainENSt3__18functionIFvRKNS0_8hidl_vecINS0_10hidl_arrayIhLj32EJEEEEEEEE"
    },
    {
     "mangled_component_name":"_ZN7android8hardware9bluetooth4V1_013IBluetoothHci21setHALInstrumentationEv"
    },
    {
     "mangled_component_name":"_ZN7android8hardware9bluetooth4V1_013IBluetoothHci11linkToDeathERKNS_2spINS0_20hidl_death_recipientEEEy"
    },
    {
     "mangled_component_name":"_ZN7android8hardware9bluetooth4V1_013IBluetoothHci4pingEv"
    },
    {
     "mangled_component_name":"_ZN7android8hardware9bluetooth4V1_013IBluetoothHci12getDebugInfoENSt3__18functionIFvRKNS_4hidl4base4V1_09DebugInfoEEEE"
    },
    {
     "mangled_component_name":"_ZN7android8hardware9bluetooth4V1_013IBluetoothHci21notifySyspropsChangedEv"
    },
    {
     "mangled_component_name":"_ZN7android8hardware9bluetooth4V1_013IBluetoothHci13unlinkToDeathERKNS_2spINS0_20hidl_death_recipientEEE"
    },
    {
     "kind":"complete_dtor_pointer",
     "mangled_component_name":"_ZN7android8hardware9bluetooth4V1_013IBluetoothHciD1Ev"
    },
    {
     "kind":"deleting_dtor_pointer",
     "mangled_component_name":"_ZN7android8hardware9bluetooth4V1_013IBluetoothHciD0Ev"
    },
    {
     "is_pure":true,
     "mangled_component_name":"_ZN7android8hardware9bluetooth4V1_013IBluetoothHci10initializeERKNS_2spINS2_22IBluetoothHciCallbacksEEE"
    },
    {
     "is_pure":true,
     "mangled_component_name":"_ZN7android8hardware9bluetooth4V1_013IBluetoothHci14sendHciCommandERKNS0_8hidl_vecIhEE"
    },
    {
     "is_pure":true,
     "mangled_component_name":"_ZN7android8hardware9bluetooth4V1_013IBluetoothHci11sendAclDataERKNS0_8hidl_vecIhEE"
    },
    {
     "is_pure":true,
     "mangled_component_name":"_ZN7android8hardware9bluetooth4V1_013IBluetoothHci11sendScoDataERKNS0_8hidl_vecIhEE"
    },
    {
     "is_pure":true,
     "mangled_component_name":"_ZN7android8hardware9bluetooth4V1_013IBluetoothHci5closeEv"
    },
    {
     "kind":"vcall_offset"
    },
    {
     "kind":"vcall_offset"
    },
    {
     "kind":"vcall_offset"
    },
    {
     "kind":"vcall_offset"
    },
    {
     "kind":"vcall_offset",
     "component_value":-4
    },
    {
     "kind":"offset_to_top",
     "component_value":-4
    },
    {
     "kind":"rtti",
     "mangled_component_name":"_ZTIN7android8hardware9bluetooth4V1_013IBluetoothHciE"
    },
    {
     "kind":"complete_dtor_pointer",
     "mangled_component_name":"_ZTv0_n12_N7android8hardware9bluetooth4V1_013IBluetoothHciD1Ev"
    },
    {
     "kind":"deleting_dtor_pointer",
     "mangled_component_name":"_ZTv0_n12_N7android8hardware9bluetooth4V1_013IBluetoothHciD0Ev"
    },
    {
     "mangled_component_name":"_ZN7android7RefBase10onFirstRefEv"
    },
    {
     "mangled_component_name":"_ZN7android7RefBase15onLastStrongRefEPKv"
    },
    {
     "mangled_component_name":"_ZN7android7RefBase20onIncStrongAttemptedEjPKv"
    },
    {
     "mangled_component_name":"_ZN7android7RefBase13onLastWeakRefEPKv"
    }
   ],
   "unique_id":"_ZTSN7android8hardware9bluetooth4V1_013IBluetoothHciE"
  },
  {
   "vtable_components":[
    {
     "kind":"vbase_offset",
     "component_value":72
    },
    {
     "kind":"offset_to_top"
    },
    {
     "kind":"rtti",
     "mangled_component_name":"_ZTIN7android8hardware9bluetooth4V1_016BnHwBluetoothHciE"
    },
    {
     "mangled_component_name":"_ZN7android8hardware9BHwBinder8transactEjRKNS0_6ParcelEPS2_jNSt3__18functionIFvRS2_EEE"
    },
    {
     "mangled_component_name":"_ZN7android8hardware9BHwBinder11linkToDeathERKNS_2spINS0_7IBinder14DeathRecipientEEEPvj"
    },
    {
     "mangled_component_name":"_ZN7android8hardware9BHwBinder13unlinkToDeathERKNS_2wpINS0_7IBinder14DeathRecipientEEEPvjPS5_"
    },
    {
     "mangled_component_name":"_ZNK7android8hardware7IBinder13checkSubclassEPKv"
    },
    {
     "mangled_component_name":"_ZN7android8hardware9BHwBinder12attachObjectEPKvPvS4_PFvS3_S4_S4_E"
    },
    {
     "mangled_component_name":"_ZNK7android8hardware9BHwBinder10findObjectEPKv"
    },
    {
     "mangled_component_name":"_ZN7android8hardware9BHwBinder12detachObjectEPKv"
    },
    {
     "mangled_component_name":"_ZN7android8hardware9BHwBinder11localBinderEv"
    },
    {
     "mangled_component_name":"_ZN7android8hardware7IBinder12remoteBinderEv"
    },
    {
     "kind":"complete_dtor_pointer",
     "mangled_component_name":"_ZN7android8hardware9bluetooth4V1_016BnHwBluetoothHciD1Ev"
    },
    {
     "kind":"deleting_dtor_pointer",
     "mangled_component_name":"_ZN7android8hardware9bluetooth4V1_016BnHwBluetoothHciD0Ev"
    },
    {
     "mangled_component_name":"_ZN7android8hardware9bluetooth4V1_016BnHwBluetoothHci10onTransactEjRKNS0_6ParcelEPS4_jNSt3__18functionIFvRS4_EEE"
    },
    {
     "kind":"offset_to_top",
     "component_value":-20
    },
    {
     "kind":"rtti",
     "mangled_component_name":"_ZTIN7android8hardware9bluetooth4V1_016BnHwBluetoothHciE"
    },
    {
     "kind":"complete_dtor_pointer",
     "mangled_component_name":"_ZThn20_N7android8hardware9bluetooth4V1_016BnHwBluetoothHciD1Ev"
    },
    {
     "kind":"deleting_dtor_pointer",
     "mangled_component_name":"_ZThn20_N7android8hardware9bluetooth4V1_016BnHwBluetoothHciD0Ev"
    },
    {
     "kind":"vcall_offset"
    },
    {
     "kind":"vcall_offset"
    },
    {
     "kind":"vcall_offset"
    },
    {
     "kind":"vcall_offset"
    },
    {
     "kind":"vcall_offset",
     "component_value":-72
    },
    {
     "kind":"offset_to_top",
     "component_value":-72
    },
    {
     "kind":"rtti",
     "mangled_component_name":"_ZTIN7android8hardware9bluetooth4V1_016BnHwBluetoothHciE"
    },
    {
     "kind":"complete_dtor_pointer",
     "mangled_component_name":"_ZTv0_n12_N7android8hardware9bluetooth4V1_016BnHwBluetoothHciD1Ev"
    },
    {
     "kind":"deleting_dtor_pointer",
     "mangled_component_name":"_ZTv0_n12_N7android8hardware9bluetooth4V1_016BnHwBluetoothHciD0Ev"
    },
    {
     "mangled_component_name":"_ZN7android7RefBase10onFirstRefEv"
    },
    {
     "mangled_component_name":"_ZN7android7RefBase15onLastStrongRefEPKv"
    },
    {
     "mangled_component_name":"_ZN7android7RefBase20onIncStrongAttemptedEjPKv"
    },
    {
     "mangled_component_name":"_ZN7android7RefBase13onLastWeakRefEPKv"
    }
   ],
   "unique_id":"_ZTSN7android8hardware9bluetooth4V1_016BnHwBluetoothHciE"
  },
  {
   "vtable_components":[
    {
     "kind":"vbase_offset",
     "component_value":72
    },
    {
     "kind":"offset_to_top"
    },
    {
     "kind":"rtti",
     "mangled_component_name":"_ZTIN7android8hardware9bluetooth4V1_025BnHwBluetoothHciCallbacksE"
    },
    {
     "mangled_component_name":"_ZN7android8hardware9BHwBinder8transactEjRKNS0_6ParcelEPS2_jNSt3__18functionIFvRS2_EEE"
    },
    {
     "mangled_component_name":"_ZN7android8hardware9BHwBinder11linkToDeathERKNS_2spINS0_7IBinder14DeathRecipientEEEPvj"
    },
    {
     "mangled_component_name":"_ZN7android8hardware9BHwBinder13unlinkToDeathERKNS_2wpINS0_7IBinder14DeathRecipientEEEPvjPS5_"
    },
    {
     "mangled_component_name":"_ZNK7android8hardware7IBinder13checkSubclassEPKv"
    },
    {
     "mangled_component_name":"_ZN7android8hardware9BHwBinder12attachObjectEPKvPvS4_PFvS3_S4_S4_E"
    },
    {
     "mangled_component_name":"_ZNK7android8hardware9BHwBinder10findObjectEPKv"
    },
    {
     "mangled_component_name":"_ZN7android8hardware9BHwBinder12detachObjectEPKv"
    },
    {
     "mangled_component_name":"_ZN7android8hardware9BHwBinder11localBinderEv"
    },
    {
     "mangled_component_name":"_ZN7android8hardware7IBinder12remoteBinderEv"
    },
    {
     "kind":"complete_dtor_pointer",
     "mangled_component_name":"_ZN7android8hardware9bluetooth4V1_025BnHwBluetoothHciCallbacksD1Ev"
    },
    {
     "kind":"deleting_dtor_pointer",
     "mangled_component_name":"_ZN7android8hardware9bluetooth4V1_025BnHwBluetoothHciCallbacksD0Ev"
    },
    {
     "mangled_component_name":"_ZN7android8hardware9bluetooth4V1_025BnHwBluetoothHciCallbacks10onTransactEjRKNS0_6ParcelEPS4_jNSt3__18functionIFvRS4_EEE"
    },
    {
     "kind":"offset_to_top",
     "component_value":-20
    },
    {
     "kind":"rtti",
     "mangled_component_name":"_ZTIN7android8hardware9bluetooth4V1_025BnHwBluetoothHciCallbacksE"
    },
    {
     "kind":"complete_dtor_pointer",
     "mangled_component_name":"_ZThn20_N7android8hardware9bluetooth4V1_025BnHwBluetoothHciCallbacksD1Ev"
    },
    {
     "kind":"deleting_dtor_pointer",
     "mangled_component_name":"_ZThn20_N7android8hardware9bluetooth4V1_025BnHwBluetoothHciCallbacksD0Ev"
    },
    {
     "kind":"vcall_offset"
    },
    {
     "kind":"vcall_offset"
    },
    {
     "kind":"vcall_offset"
    },
    {
     "kind":"vcall_offset"
    },
    {
     "kind":"vcall_offset",
     "component_value":-72
    },
    {
     "kind":"offset_to_top",
     "component_value":-72
    },
    {
     "kind":"rtti",
     "mangled_component_name":"_ZTIN7android8hardware9bluetooth4V1_025BnHwBluetoothHciCallbacksE"
    },
    {
     "kind":"complete_dtor_pointer",
     "mangled_component_name":"_ZTv0_n12_N7android8hardware9bluetooth4V1_025BnHwBluetoothHciCallbacksD1Ev"
    },
    {
     "kind":"deleting_dtor_pointer",
     "mangled_component_name":"_ZTv0_n12_N7android8hardware9bluetooth4V1_025BnHwBluetoothHciCallbacksD0Ev"
    },
    {
     "mangled_component_name":"_ZN7android7RefBase10onFirstRefEv"
    },
    {
     "mangled_component_name":"_ZN7android7RefBase15onLastStrongRefEPKv"
    },
    {
     "mangled_component_name":"_ZN7android7RefBase20onIncStrongAttemptedEjPKv"
    },
    {
     "mangled_component_name":"_ZN7android7RefBase13onLastWeakRefEPKv"
    }
   ],
   "unique_id":"_ZTSN7android8hardware9bluetooth4V1_025BnHwBluetoothHciCallbacksE"
  },
  {
   "vtable_components":[
    {
     "kind":"vbase_offset",
     "component_value":84
    },
    {
     "kind":"offset_to_top"
    },
    {
     "kind":"rtti",
     "mangled_component_name":"_ZTIN7android8hardware9bluetooth4V1_016BpHwBluetoothHciE"
    },
    {
     "mangled_component_name":"_ZNK7android8hardware9bluetooth4V1_016BpHwBluetoothHci8isRemoteEv"
    },
    {
     "mangled_component_name":"_ZN7android8hardware9bluetooth4V1_016BpHwBluetoothHci14interfaceChainENSt3__18functionIFvRKNS0_8hidl_vecINS0_11hidl_stringEEEEEE"
    },
    {
     "mangled_component_name":"_ZN7android8hardware9bluetooth4V1_016BpHwBluetoothHci5debugERKNS0_11hidl_handleERKNS0_8hidl_vecINS0_11hidl_stringEEE"
    },
    {
     "mangled_component_name":"_ZN7android8hardware9bluetooth4V1_016BpHwBluetoothHci19interfaceDescriptorENSt3__18functionIFvRKNS0_11hidl_stringEEEE"
    },
    {
     "mangled_component_name":"_ZN7android8hardware9bluetooth4V1_016BpHwBluetoothHci12getHashChainENSt3__18functionIFvRKNS0_8hidl_vecINS0_10hidl_arrayIhLj32EJEEEEEEEE"
    },
    {
     "mangled_component_name":"_ZN7android8hardware9bluetooth4V1_016BpHwBluetoothHci21setHALInstrumentationEv"
    },
    {
     "mangled_component_name":"_ZN7android8hardware9bluetooth4V1_016BpHwBluetoothHci11linkToDeathERKNS_2spINS0_20hidl_death_recipientEEEy"
    },
    {
     "mangled_component_name":"_ZN7android8hardware9bluetooth4V1_016BpHwBluetoothHci4pingEv"
    },
    {
     "mangled_component_name":"_ZN7android8hardware9bluetooth4V1_016BpHwBluetoothHci12getDebugInfoENSt3__18functionIFvRKNS_4hidl4base4V1_09DebugInfoEEEE"
    },
    {
     "mangled_component_name":"_ZN7android8hardware9bluetooth4V1_016BpHwBluetoothHci21notifySyspropsChangedEv"
    },
    {
     "mangled_component_name":"_ZN7android8hardware9bluetooth4V1_016BpHwBluetoothHci13unlinkToDeathERKNS_2spINS0_20hidl_death_recipientEEE"
    },
    {
     "kind":"complete_dtor_pointer",
     "mangled_component_name":"_ZN7android8hardware9bluetooth4V1_016BpHwBluetoothHciD1Ev"
    },
    {
     "kind":"deleting_dtor_pointer",
     "mangled_component_name":"_ZN7android8hardware9bluetooth4V1_016BpHwBluetoothHciD0Ev"
    },
    {
     "mangled_component_name":"_ZN7android8hardware9bluetooth4V1_016BpHwBluetoothHci10initializeERKNS_2spINS2_22IBluetoothHciCallbacksEEE"
    },
    {
     "mangled_component_name":"_ZN7android8hardware9bluetooth4V1_016BpHwBluetoothHci14sendHciCommandERKNS0_8hidl_vecIhEE"
    },
    {
     "mangled_component_name":"_ZN7android8hardware9bluetooth4V1_016BpHwBluetoothHci11sendAclDataERKNS0_8hidl_vecIhEE"
    },
    {
     "mangled_component_name":"_ZN7android8hardware9bluetooth4V1_016BpHwBluetoothHci11sendScoDataERKNS0_8hidl_vecIhEE"
    },
    {
     "mangled_component_name":"_ZN7android8hardware9bluetooth4V1_016BpHwBluetoothHci5closeEv"
    },
    {
     "mangled_component_name":"_ZN7android8hardware11BpInterfaceINS0_9bluetooth4V1_013IBluetoothHciEE10onAsBinderEv"
    },
    {
     "kind":"vbase_offset",
     "component_value":80
    },
    {
     "kind":"offset_to_top",
     "component_value":-4
    },
    {
     "kind":"rtti",
     "mangled_component_name":"_ZTIN7android8hardware9bluetooth4V1_016BpHwBluetoothHciE"
    },
    {
     "kind":"complete_dtor_pointer",
     "mangled_component_name":"_ZThn4_N7android8hardware9bluetooth4V1_016BpHwBluetoothHciD1Ev"
    },
    {
     "kind":"deleting_dtor_pointer",
     "mangled_component_name":"_ZThn4_N7android8hardware9bluetooth4V1_016BpHwBluetoothHciD0Ev"
    },
    {
     "mangled_component_name":"_ZThn4_N7android8hardware11BpInterfaceINS0_9bluetooth4V1_013IBluetoothHciEE10onAsBinderEv"
    },
    {
     "kind":"vbase_offset",
     "component_value":76
    },
    {
     "kind":"offset_to_top",
     "component_value":-8
    },
    {
     "kind":"rtti",
     "mangled_component_name":"_ZTIN7android8hardware9bluetooth4V1_016BpHwBluetoothHciE"
    },
    {
     "kind":"complete_dtor_pointer",
     "mangled_component_name":"_ZThn8_N7android8hardware9bluetooth4V1_016BpHwBluetoothHciD1Ev"
    },
    {
     "kind":"deleting_dtor_pointer",
     "mangled_component_name":"_ZThn8_N7android8hardware9bluetooth4V1_016BpHwBluetoothHciD0Ev"
    },
    {
     "mangled_component_name":"_ZN7android8hardware11BpHwRefBase10onFirstRefEv"
    },
    {
     "mangled_component_name":"_ZN7android8hardware11BpHwRefBase15onLastStrongRefEPKv"
    },
    {
     "mangled_component_name":"_ZN7android8hardware11BpHwRefBase20onIncStrongAttemptedEjPKv"
    },
    {
     "kind":"offset_to_top",
     "component_value":-24
    },
    {
     "kind":"rtti",
     "mangled_component_name":"_ZTIN7android8hardware9bluetooth4V1_016BpHwBluetoothHciE"
    },
    {
     "kind":"complete_dtor_pointer",
     "mangled_component_name":"_ZThn24_N7android8hardware9bluetooth4V1_016BpHwBluetoothHciD1Ev"
    },
    {
     "kind":"deleting_dtor_pointer",
     "mangled_component_name":"_ZThn24_N7android8hardware9bluetooth4V1_016BpHwBluetoothHciD0Ev"
    },
    {
     "kind":"vcall_offset"
    },
    {
     "kind":"vcall_offset",
     "component_value":-76
    },
    {
     "kind":"vcall_offset",
     "component_value":-76
    },
    {
     "kind":"vcall_offset",
     "component_value":-76
    },
    {
     "kind":"vcall_offset",
     "component_value":-84
    },
    {
     "kind":"offset_to_top",
     "component_value":-84
    },
    {
     "kind":"rtti",
     "mangled_component_name":"_ZTIN7android8hardware9bluetooth4V1_016BpHwBluetoothHciE"
    },
    {
     "kind":"complete_dtor_pointer",
     "mangled_component_name":"_ZTv0_n12_N7android8hardware9bluetooth4V1_016BpHwBluetoothHciD1Ev"
    },
    {
     "kind":"deleting_dtor_pointer",
     "mangled_component_name":"_ZTv0_n12_N7android8hardware9bluetooth4V1_016BpHwBluetoothHciD0Ev"
    },
    {
     "mangled_component_name":"_ZTv0_n16_N7android8hardware11BpHwRefBase10onFirstRefEv"
    },
    {
     "mangled_component_name":"_ZTv0_n20_N7android8hardware11BpHwRefBase15onLastStrongRefEPKv"
    },
    {
     "mangled_component_name":"_ZTv0_n24_N7android8hardware11BpHwRefBase20onIncStrongAttemptedEjPKv"
    },
    {
     "mangled_component_name":"_ZN7android7RefBase13onLastWeakRefEPKv"
    }
   ],
   "unique_id":"_ZTSN7android8hardware9bluetooth4V1_016BpHwBluetoothHciE"
  },
  {
   "vtable_components":[
    {
     "kind":"vbase_offset",
     "component_value":60
    },
    {
     "kind":"offset_to_top"
    },
    {
     "kind":"rtti",
     "mangled_component_name":"_ZTIN7android8hardware9bluetooth4V1_023BsBluetoothHciCallbacksE"
    },
    {
     "mangled_component_name":"_ZNK7android8hardware9bluetooth4V1_022IBluetoothHciCallbacks8isRemoteEv"
    },
    {
     "mangled_component_name":"_ZN7android8hardware9bluetooth4V1_023BsBluetoothHciCallbacks14interfaceChainENSt3__18functionIFvRKNS0_8hidl_vecINS0_11hidl_stringEEEEEE"
    },
    {
     "mangled_component_name":"_ZN7android8hardware9bluetooth4V1_023BsBluetoothHciCallbacks5debugERKNS0_11hidl_handleERKNS0_8hidl_vecINS0_11hidl_stringEEE"
    },
    {
     "mangled_component_name":"_ZN7android8hardware9bluetooth4V1_023BsBluetoothHciCallbacks19interfaceDescriptorENSt3__18functionIFvRKNS0_11hidl_stringEEEE"
    },
    {
     "mangled_component_name":"_ZN7android8hardware9bluetooth4V1_023BsBluetoothHciCallbacks12getHashChainENSt3__18functionIFvRKNS0_8hidl_vecINS0_10hidl_arrayIhLj32EJEEEEEEEE"
    },
    {
     "mangled_component_name":"_ZN7android8hardware9bluetooth4V1_023BsBluetoothHciCallbacks21setHALInstrumentationEv"
    },
    {
     "mangled_component_name":"_ZN7android8hardware9bluetooth4V1_023BsBluetoothHciCallbacks11linkToDeathERKNS_2spINS0_20hidl_death_recipientEEEy"
    },
    {
     "mangled_component_name":"_ZN7android8hardware9bluetooth4V1_023BsBluetoothHciCallbacks4pingEv"
    },
    {
     "mangled_component_name":"_ZN7android8hardware9bluetooth4V1_023BsBluetoothHciCallbacks12getDebugInfoENSt3__18functionIFvRKNS_4hidl4base4V1_09DebugInfoEEEE"
    },
    {
     "mangled_component_name":"_ZN7android8hardware9bluetooth4V1_023BsBluetoothHciCallbacks21notifySyspropsChangedEv"
    },
    {
     "mangled_component_name":"_ZN7android8hardware9bluetooth4V1_023BsBluetoothHciCallbacks13unlinkToDeathERKNS_2spINS0_20hidl_death_recipientEEE"
    },
    {
     "kind":"complete_dtor_pointer",
     "mangled_component_name":"_ZN7android8hardware9bluetooth4V1_023BsBluetoothHciCallbacksD1Ev"
    },
    {
     "kind":"deleting_dtor_pointer",
     "mangled_component_name":"_ZN7android8hardware9bluetooth4V1_023BsBluetoothHciCallbacksD0Ev"
    },
    {
     "mangled_component_name":"_ZN7android8hardware9bluetooth4V1_023BsBluetoothHciCallbacks22initializationCompleteENS2_6StatusE"
    },
    {
     "mangled_component_name":"_ZN7android8hardware9bluetooth4V1_023BsBluetoothHciCallbacks16hciEventReceivedERKNS0_8hidl_vecIhEE"
    },
    {
     "mangled_component_name":"_ZN7android8hardware9bluetooth4V1_023BsBluetoothHciCallbacks15aclDataReceivedERKNS0_8hidl_vecIhEE"
    },
    {
     "mangled_component_name":"_ZN7android8hardware9bluetooth4V1_023BsBluetoothHciCallbacks15scoDataReceivedERKNS0_8hidl_vecIhEE"
    },
    {
     "kind":"offset_to_top",
     "component_value":-4
    },
    {
     "kind":"rtti",
     "mangled_component_name":"_ZTIN7android8hardware9bluetooth4V1_023BsBluetoothHciCallbacksE"
    },
    {
     "kind":"complete_dtor_pointer",
     "mangled_component_name":"_ZThn4_N7android8hardware9bluetooth4V1_023BsBluetoothHciCallbacksD1Ev"
    },
    {
     "kind":"deleting_dtor_pointer",
     "mangled_component_name":"_ZThn4_N7android8hardware9bluetooth4V1_023BsBluetoothHciCallbacksD0Ev"
    },
    {
     "kind":"vcall_offset"
    },
    {
     "kind":"vcall_offset"
    },
    {
     "kind":"vcall_offset"
    },
    {
     "kind":"vcall_offset"
    },
    {
     "kind":"vcall_offset",
     "component_value":-60
    },
    {
     "kind":"offset_to_top",
     "component_value":-60
    },
    {
     "kind":"rtti",
     "mangled_component_name":"_ZTIN7android8hardware9bluetooth4V1_023BsBluetoothHciCallbacksE"
    },
    {
     "kind":"complete_dtor_pointer",
     "mangled_component_name":"_ZTv0_n12_N7android8hardware9bluetooth4V1_023BsBluetoothHciCallbacksD1Ev"
    },
    {
     "kind":"deleting_dtor_pointer",
     "mangled_component_name":"_ZTv0_n12_N7android8hardware9bluetooth4V1_023BsBluetoothHciCallbacksD0Ev"
    },
    {
     "mangled_component_name":"_ZN7android7RefBase10onFirstRefEv"
    },
    {
     "mangled_component_name":"_ZN7android7RefBase15onLastStrongRefEPKv"
    },
    {
     "mangled_component_name":"_ZN7android7RefBase20onIncStrongAttemptedEjPKv"
    },
    {
     "mangled_component_name":"_ZN7android7RefBase13onLastWeakRefEPKv"
    }
   ],
   "unique_id":"_ZTSN7android8hardware9bluetooth4V1_023BsBluetoothHciCallbacksE"
  },
  {
   "vtable_components":[
    {
     "kind":"vbase_offset",
     "component_value":60
    },
    {
     "kind":"offset_to_top"
    },
    {
     "kind":"rtti",
     "mangled_component_name":"_ZTIN7android8hardware9bluetooth4V1_014BsBluetoothHciE"
    },
    {
     "mangled_component_name":"_ZNK7android8hardware9bluetooth4V1_013IBluetoothHci8isRemoteEv"
    },
    {
     "mangled_component_name":"_ZN7android8hardware9bluetooth4V1_014BsBluetoothHci14interfaceChainENSt3__18functionIFvRKNS0_8hidl_vecINS0_11hidl_stringEEEEEE"
    },
    {
     "mangled_component_name":"_ZN7android8hardware9bluetooth4V1_014BsBluetoothHci5debugERKNS0_11hidl_handleERKNS0_8hidl_vecINS0_11hidl_stringEEE"
    },
    {
     "mangled_component_name":"_ZN7android8hardware9bluetooth4V1_014BsBluetoothHci19interfaceDescriptorENSt3__18functionIFvRKNS0_11hidl_stringEEEE"
    },
    {
     "mangled_component_name":"_ZN7android8hardware9bluetooth4V1_014BsBluetoothHci12getHashChainENSt3__18functionIFvRKNS0_8hidl_vecINS0_10hidl_arrayIhLj32EJEEEEEEEE"
    },
    {
     "mangled_component_name":"_ZN7android8hardware9bluetooth4V1_014BsBluetoothHci21setHALInstrumentationEv"
    },
    {
     "mangled_component_name":"_ZN7android8hardware9bluetooth4V1_014BsBluetoothHci11linkToDeathERKNS_2spINS0_20hidl_death_recipientEEEy"
    },
    {
     "mangled_component_name":"_ZN7android8hardware9bluetooth4V1_014BsBluetoothHci4pingEv"
    },
    {
     "mangled_component_name":"_ZN7android8hardware9bluetooth4V1_014BsBluetoothHci12getDebugInfoENSt3__18functionIFvRKNS_4hidl4base4V1_09DebugInfoEEEE"
    },
    {
     "mangled_component_name":"_ZN7android8hardware9bluetooth4V1_014BsBluetoothHci21notifySyspropsChangedEv"
    },
    {
     "mangled_component_name":"_ZN7android8hardware9bluetooth4V1_014BsBluetoothHci13unlinkToDeathERKNS_2spINS0_20hidl_death_recipientEEE"
    },
    {
     "kind":"complete_dtor_pointer",
     "mangled_component_name":"_ZN7android8hardware9bluetooth4V1_014BsBluetoothHciD1Ev"
    },
    {
     "kind":"deleting_dtor_pointer",
     "mangled_component_name":"_ZN7android8hardware9bluetooth4V1_014BsBluetoothHciD0Ev"
    },
    {
     "mangled_component_name":"_ZN7android8hardware9bluetooth4V1_014BsBluetoothHci10initializeERKNS_2spINS2_22IBluetoothHciCallbacksEEE"
    },
    {
     "mangled_component_name":"_ZN7android8hardware9bluetooth4V1_014BsBluetoothHci14sendHciCommandERKNS0_8hidl_vecIhEE"
    },
    {
     "mangled_component_name":"_ZN7android8hardware9bluetooth4V1_014BsBluetoothHci11sendAclDataERKNS0_8hidl_vecIhEE"
    },
    {
     "mangled_component_name":"_ZN7android8hardware9bluetooth4V1_014BsBluetoothHci11sendScoDataERKNS0_8hidl_vecIhEE"
    },
    {
     "mangled_component_name":"_ZN7android8hardware9bluetooth4V1_014BsBluetoothHci5closeEv"
    },
    {
     "kind":"offset_to_top",
     "component_value":-4
    },
    {
     "kind":"rtti",
     "mangled_component_name":"_ZTIN7android8hardware9bluetooth4V1_014BsBluetoothHciE"
    },
    {
     "kind":"complete_dtor_pointer",
     "mangled_component_name":"_ZThn4_N7android8hardware9bluetooth4V1_014BsBluetoothHciD1Ev"
    },
    {
     "kind":"deleting_dtor_pointer",
     "mangled_component_name":"_ZThn4_N7android8hardware9bluetooth4V1_014BsBluetoothHciD0Ev"
    },
    {
     "kind":"vcall_offset"
    },
    {
     "kind":"vcall_offset"
    },
    {
     "kind":"vcall_offset"
    },
    {
     "kind":"vcall_offset"
    },
    {
     "kind":"vcall_offset",
     "component_value":-60
    },
    {
     "kind":"offset_to_top",
     "component_value":-60
    },
    {
     "kind":"rtti",
     "mangled_component_name":"_ZTIN7android8hardware9bluetooth4V1_014BsBluetoothHciE"
    },
    {
     "kind":"complete_dtor_pointer",
     "mangled_component_name":"_ZTv0_n12_N7android8hardware9bluetooth4V1_014BsBluetoothHciD1Ev"
    },
    {
     "kind":"deleting_dtor_pointer",
     "mangled_component_name":"_ZTv0_n12_N7android8hardware9bluetooth4V1_014BsBluetoothHciD0Ev"
    },
    {
     "mangled_component_name":"_ZN7android7RefBase10onFirstRefEv"
    },
    {
     "mangled_component_name":"_ZN7android7RefBase15onLastStrongRefEPKv"
    },
    {
     "mangled_component_name":"_ZN7android7RefBase20onIncStrongAttemptedEjPKv"
    },
    {
     "mangled_component_name":"_ZN7android7RefBase13onLastWeakRefEPKv"
    }
   ],
   "unique_id":"_ZTSN7android8hardware9bluetooth4V1_014BsBluetoothHciE"
  }
 ],
 "elf_functions":[
  {
   "binding":"weak",
   "name":"_ZN7android8hardware10fromBinderINS0_9bluetooth4V1_022IBluetoothHciCallbacksENS3_25BpHwBluetoothHciCallbacksENS3_25BnHwBluetoothHciCallbacksEEENS_2spIT_EERKNS7_INS0_7IBinderEEE"
  },
  {
   "binding":"weak",
   "name":"_ZN7android8hardware7details13castInterfaceINS0_9bluetooth4V1_013IBluetoothHciENS_4hidl4base4V1_05IBaseENS4_16BpHwBluetoothHciEEENS0_6ReturnINS_2spIT_EEEENSC_IT0_EEPKcb"
  },
  {
   "binding":"weak",
   "name":"_ZN7android8hardware7details13castInterfaceINS0_9bluetooth4V1_022IBluetoothHciCallbacksENS_4hidl4base4V1_05IBaseENS4_25BpHwBluetoothHciCallbacksEEENS0_6ReturnINS_2spIT_EEEENSC_IT0_EEPKcb"
  },
  {
   "binding":"weak",
   "name":"_ZN7android8hardware7details15wrapPassthroughINS0_9bluetooth4V1_022IBluetoothHciCallbacksEvEENS_2spIT_EES8_"
  },
  {
   "binding":"weak",
   "name":"_ZN7android8hardware7details18getServiceInternalINS0_9bluetooth4V1_016BpHwBluetoothHciENS4_13IBluetoothHciEvvEENS_2spIT0_EERKNSt3__112basic_stringIcNSA_11char_traitsIcEENSA_9allocatorIcEEEEbb"
  },
  {
   "binding":"weak",
   "name":"_ZN7android8hardware7details18getServiceInternalINS0_9bluetooth4V1_025BpHwBluetoothHciCallbacksENS4_22IBluetoothHciCallbacksEvvEENS_2spIT0_EERKNSt3__112basic_stringIcNSA_11char_traitsIcEENSA_9allocatorIcEEEEbb"
  },
  {
   "binding":"weak",
   "name":"_ZN7android8hardware8toBinderINS0_9bluetooth4V1_022IBluetoothHciCallbacksEvEENS_2spINS0_7IBinderEEENS5_IT_EE"
  },
  {
   "binding":"weak",
   "name":"_ZN7android8hardware8toBinderINS_4hidl4base4V1_05IBaseEvEENS_2spINS0_7IBinderEEENS6_IT_EE"
  },
  {
   "name":"_ZN7android8hardware9bluetooth4V1_013IBluetoothHci10getServiceERKNSt3__112basic_stringIcNS4_11char_traitsIcEENS4_9allocatorIcEEEEb"
  },
  {
   "name":"_ZN7android8hardware9bluetooth4V1_013IBluetoothHci11linkToDeathERKNS_2spINS0_20hidl_death_recipientEEEy"
  },
  {
   "name":"_ZN7android8hardware9bluetooth4V1_013IBluetoothHci12getDebugInfoENSt3__18functionIFvRKNS_4hidl4base4V1_09DebugInfoEEEE"
  },
  {
   "name":"_ZN7android8hardware9bluetooth4V1_013IBluetoothHci12getHashChainENSt3__18functionIFvRKNS0_8hidl_vecINS0_10hidl_arrayIhLj32EJEEEEEEEE"
  },
  {
   "name":"_ZN7android8hardware9bluetooth4V1_013IBluetoothHci13tryGetServiceERKNSt3__112basic_stringIcNS4_11char_traitsIcEENS4_9allocatorIcEEEEb"
  },
  {
   "name":"_ZN7android8hardware9bluetooth4V1_013IBluetoothHci13unlinkToDeathERKNS_2spINS0_20hidl_death_recipientEEE"
  },
  {
   "name":"_ZN7android8hardware9bluetooth4V1_013IBluetoothHci14interfaceChainENSt3__18functionIFvRKNS0_8hidl_vecINS0_11hidl_stringEEEEEE"
  },
  {
   "name":"_ZN7android8hardware9bluetooth4V1_013IBluetoothHci17registerAsServiceERKNSt3__112basic_stringIcNS4_11char_traitsIcEENS4_9allocatorIcEEEE"
  },
  {
   "name":"_ZN7android8hardware9bluetooth4V1_013IBluetoothHci19interfaceDescriptorENSt3__18functionIFvRKNS0_11hidl_stringEEEE"
  },
  {
   "name":"_ZN7android8hardware9bluetooth4V1_013IBluetoothHci21notifySyspropsChangedEv"
  },
  {
   "name":"_ZN7android8hardware9bluetooth4V1_013IBluetoothHci21setHALInstrumentationEv"
  },
  {
   "name":"_ZN7android8hardware9bluetooth4V1_013IBluetoothHci24registerForNotificationsERKNSt3__112basic_stringIcNS4_11char_traitsIcEENS4_9allocatorIcEEEERKNS_2spINS_4hidl7manager4V1_020IServiceNotificationEEE"
  },
  {
   "name":"_ZN7android8hardware9bluetooth4V1_013IBluetoothHci4pingEv"
  },
  {
   "name":"_ZN7android8hardware9bluetooth4V1_013IBluetoothHci5debugERKNS0_11hidl_handleERKNS0_8hidl_vecINS0_11hidl_stringEEE"
  },
  {
   "name":"_ZN7android8hardware9bluetooth4V1_013IBluetoothHci8castFromERKNS_2spINS_4hidl4base4V1_05IBaseEEEb"
  },
  {
   "name":"_ZN7android8hardware9bluetooth4V1_013IBluetoothHci8castFromERKNS_2spIS3_EEb"
  },
  {
   "name":"_ZN7android8hardware9bluetooth4V1_014BsBluetoothHci13addOnewayTaskENSt3__18functionIFvvEEE"
  },
  {
   "name":"_ZN7android8hardware9bluetooth4V1_014BsBluetoothHciC1ENS_2spINS2_13IBluetoothHciEEE"
  },
  {
   "name":"_ZN7android8hardware9bluetooth4V1_014BsBluetoothHciC2ENS_2spINS2_13IBluetoothHciEEE"
  },
  {
   "name":"_ZN7android8hardware9bluetooth4V1_016BnHwBluetoothHci10onTransactEjRKNS0_6ParcelEPS4_jNSt3__18functionIFvRS4_EEE"
  },
  {
   "name":"_ZN7android8hardware9bluetooth4V1_016BnHwBluetoothHci11_hidl_closeEPNS_4hidl4base4V1_08BnHwBaseERKNS0_6ParcelEPS9_NSt3__18functionIFvRS9_EEE"
  },
  {
   "name":"_ZN7android8hardware9bluetooth4V1_016BnHwBluetoothHci12getDebugInfoENSt3__18functionIFvRKNS_4hidl4base4V1_09DebugInfoEEEE"
  },
  {
   "name":"_ZN7android8hardware9bluetooth4V1_016BnHwBluetoothHci16_hidl_initializeEPNS_4hidl4base4V1_08BnHwBaseERKNS0_6ParcelEPS9_NSt3__18functionIFvRS9_EEE"
  },
  {
   "name":"_ZN7android8hardware9bluetooth4V1_016BnHwBluetoothHci17_hidl_sendAclDataEPNS_4hidl4base4V1_08BnHwBaseERKNS0_6ParcelEPS9_NSt3__18functionIFvRS9_EEE"
  },
  {
   "name":"_ZN7android8hardware9bluetooth4V1_016BnHwBluetoothHci17_hidl_sendScoDataEPNS_4hidl4base4V1_08BnHwBaseERKNS0_6ParcelEPS9_NSt3__18functionIFvRS9_EEE"
  },
  {
   "name":"_ZN7android8hardware9bluetooth4V1_016BnHwBluetoothHci20_hidl_sendHciCommandEPNS_4hidl4base4V1_08BnHwBaseERKNS0_6ParcelEPS9_NSt3__18functionIFvRS9_EEE"
  },
  {
   "name":"_ZN7android8hardware9bluetooth4V1_016BnHwBluetoothHci4pingEv"
  },
  {
   "name":"_ZN7android8hardware9bluetooth4V1_016BnHwBluetoothHciC1ERKNS_2spINS2_13IBluetoothHciEEE"
  },
  {
   "name":"_ZN7android8hardware9bluetooth4V1_016BnHwBluetoothHciC2ERKNS_2spINS2_13IBluetoothHciEEE"
  },
  {
   "name":"_ZN7android8hardware9bluetooth4V1_016BnHwBluetoothHciD0Ev"
  },
  {
   "name":"_ZN7android8hardware9bluetooth4V1_016BnHwBluetoothHciD1Ev"
  },
  {
   "name":"_ZN7android8hardware9bluetooth4V1_016BnHwBluetoothHciD2Ev"
  },
  {
   "name":"_ZN7android8hardware9bluetooth4V1_016BpHwBluetoothHci10initializeERKNS_2spINS2_22IBluetoothHciCallbacksEEE"
  },
  {
   "name":"_ZN7android8hardware9bluetooth4V1_016BpHwBluetoothHci11_hidl_closeEPNS0_10IInterfaceEPNS0_7details16HidlInstrumentorE"
  },
  {
   "name":"_ZN7android8hardware9bluetooth4V1_016BpHwBluetoothHci11linkToDeathERKNS_2spINS0_20hidl_death_recipientEEEy"
  },
  {
   "name":"_ZN7android8hardware9bluetooth4V1_016BpHwBluetoothHci11sendAclDataERKNS0_8hidl_vecIhEE"
  },
  {
   "name":"_ZN7android8hardware9bluetooth4V1_016BpHwBluetoothHci11sendScoDataERKNS0_8hidl_vecIhEE"
  },
  {
   "name":"_ZN7android8hardware9bluetooth4V1_016BpHwBluetoothHci12getDebugInfoENSt3__18functionIFvRKNS_4hidl4base4V1_09DebugInfoEEEE"
  },
  {
   "name":"_ZN7android8hardware9bluetooth4V1_016BpHwBluetoothHci12getHashChainENSt3__18functionIFvRKNS0_8hidl_vecINS0_10hidl_arrayIhLj32EJEEEEEEEE"
  },
  {
   "name":"_ZN7android8hardware9bluetooth4V1_016BpHwBluetoothHci13unlinkToDeathERKNS_2spINS0_20hidl_death_recipientEEE"
  },
  {
   "name":"_ZN7android8hardware9bluetooth4V1_016BpHwBluetoothHci14interfaceChainENSt3__18functionIFvRKNS0_8hidl_vecINS0_11hidl_stringEEEEEE"
  },
  {
   "name":"_ZN7android8hardware9bluetooth4V1_016BpHwBluetoothHci14sendHciCommandERKNS0_8hidl_vecIhEE"
  },
  {
   "name":"_ZN7android8hardware9bluetooth4V1_016BpHwBluetoothHci16_hidl_initializeEPNS0_10IInterfaceEPNS0_7details16HidlInstrumentorERKNS_2spINS2_22IBluetoothHciCallbacksEEE"
  },
  {
   "name":"_ZN7android8hardware9bluetooth4V1_016BpHwBluetoothHci17_hidl_sendAclDataEPNS0_10IInterfaceEPNS0_7details16HidlInstrumentorERKNS0_8hidl_vecIhEE"
  },
  {
   "name":"_ZN7android8hardware9bluetooth4V1_016BpHwBluetoothHci17_hidl_sendScoDataEPNS0_10IInterfaceEPNS0_7details16HidlInstrumentorERKNS0_8hidl_vecIhEE"
  },
  {
   "name":"_ZN7android8hardware9bluetooth4V1_016BpHwBluetoothHci19interfaceDescriptorENSt3__18functionIFvRKNS0_11hidl_stringEEEE"
  },
  {
   "name":"_ZN7android8hardware9bluetooth4V1_016BpHwBluetoothHci20_hidl_sendHciCommandEPNS0_10IInterfaceEPNS0_7details16HidlInstrumentorERKNS0_8hidl_vecIhEE"
  },
  {
   "name":"_ZN7android8hardware9bluetooth4V1_016BpHwBluetoothHci21notifySyspropsChangedEv"
  },
  {
   "name":"_ZN7android8hardware9bluetooth4V1_016BpHwBluetoothHci21setHALInstrumentationEv"
  },
  {
   "name":"_ZN7android8hardware9bluetooth4V1_016BpHwBluetoothHci4pingEv"
  },
  {
   "name":"_ZN7android8hardware9bluetooth4V1_016BpHwBluetoothHci5closeEv"
  },
  {
   "name":"_ZN7android8hardware9bluetooth4V1_016BpHwBluetoothHci5debugERKNS0_11hidl_handleERKNS0_8hidl_vecINS0_11hidl_stringEEE"
  },
  {
   "name":"_ZN7android8hardware9bluetooth4V1_016BpHwBluetoothHciC1ERKNS_2spINS0_7IBinderEEE"
  },
  {
   "name":"_ZN7android8hardware9bluetooth4V1_016BpHwBluetoothHciC2ERKNS_2spINS0_7IBinderEEE"
  },
  {
   "name":"_ZN7android8hardware9bluetooth4V1_022IBluetoothHciCallbacks10getServiceERKNSt3__112basic_stringIcNS4_11char_traitsIcEENS4_9allocatorIcEEEEb"
  },
  {
   "name":"_ZN7android8hardware9bluetooth4V1_022IBluetoothHciCallbacks11linkToDeathERKNS_2spINS0_20hidl_death_recipientEEEy"
  },
  {
   "name":"_ZN7android8hardware9bluetooth4V1_022IBluetoothHciCallbacks12getDebugInfoENSt3__18functionIFvRKNS_4hidl4base4V1_09DebugInfoEEEE"
  },
  {
   "name":"_ZN7android8hardware9bluetooth4V1_022IBluetoothHciCallbacks12getHashChainENSt3__18functionIFvRKNS0_8hidl_vecINS0_10hidl_arrayIhLj32EJEEEEEEEE"
  },
  {
   "name":"_ZN7android8hardware9bluetooth4V1_022IBluetoothHciCallbacks13tryGetServiceERKNSt3__112basic_stringIcNS4_11char_traitsIcEENS4_9allocatorIcEEEEb"
  },
  {
   "name":"_ZN7android8hardware9bluetooth4V1_022IBluetoothHciCallbacks13unlinkToDeathERKNS_2spINS0_20hidl_death_recipientEEE"
  },
  {
   "name":"_ZN7android8hardware9bluetooth4V1_022IBluetoothHciCallbacks14interfaceChainENSt3__18functionIFvRKNS0_8hidl_vecINS0_11hidl_stringEEEEEE"
  },
  {
   "name":"_ZN7android8hardware9bluetooth4V1_022IBluetoothHciCallbacks17registerAsServiceERKNSt3__112basic_stringIcNS4_11char_traitsIcEENS4_9allocatorIcEEEE"
  },
  {
   "name":"_ZN7android8hardware9bluetooth4V1_022IBluetoothHciCallbacks19interfaceDescriptorENSt3__18functionIFvRKNS0_11hidl_stringEEEE"
  },
  {
   "name":"_ZN7android8hardware9bluetooth4V1_022IBluetoothHciCallbacks21notifySyspropsChangedEv"
  },
  {
   "name":"_ZN7android8hardware9bluetooth4V1_022IBluetoothHciCallbacks21setHALInstrumentationEv"
  },
  {
   "name":"_ZN7android8hardware9bluetooth4V1_022IBluetoothHciCallbacks24registerForNotificationsERKNSt3__112basic_stringIcNS4_11char_traitsIcEENS4_9allocatorIcEEEERKNS_2spINS_4hidl7manager4V1_020IServiceNotificationEEE"
  },
  {
   "name":"_ZN7android8hardware9bluetooth4V1_022IBluetoothHciCallbacks4pingEv"
  },
  {
   "name":"_ZN7android8hardware9bluetooth4V1_022IBluetoothHciCallbacks5debugERKNS0_11hidl_handleERKNS0_8hidl_vecINS0_11hidl_stringEEE"
  },
  {
   "name":"_ZN7android8hardware9bluetooth4V1_022IBluetoothHciCallbacks8castFromERKNS_2spINS_4hidl4base4V1_05IBaseEEEb"
  },
  {
   "name":"_ZN7android8hardware9bluetooth4V1_022IBluetoothHciCallbacks8castFromERKNS_2spIS3_EEb"
  },
  {
   "name":"_ZN7android8hardware9bluetooth4V1_023BsBluetoothHciCallbacks13addOnewayTaskENSt3__18functionIFvvEEE"
  },
  {
   "name":"_ZN7android8hardware9bluetooth4V1_023BsBluetoothHciCallbacksC1ENS_2spINS2_22IBluetoothHciCallbacksEEE"
  },
  {
   "name":"_ZN7android8hardware9bluetooth4V1_023BsBluetoothHciCallbacksC2ENS_2spINS2_22IBluetoothHciCallbacksEEE"
  },
  {
   "name":"_ZN7android8hardware9bluetooth4V1_025BnHwBluetoothHciCallbacks10onTransactEjRKNS0_6ParcelEPS4_jNSt3__18functionIFvRS4_EEE"
  },
  {
   "name":"_ZN7android8hardware9bluetooth4V1_025BnHwBluetoothHciCallbacks12getDebugInfoENSt3__18functionIFvRKNS_4hidl4base4V1_09DebugInfoEEEE"
  },
  {
   "name":"_ZN7android8hardware9bluetooth4V1_025BnHwBluetoothHciCallbacks21_hidl_aclDataReceivedEPNS_4hidl4base4V1_08BnHwBaseERKNS0_6ParcelEPS9_NSt3__18functionIFvRS9_EEE"
  },
  {
   "name":"_ZN7android8hardware9bluetooth4V1_025BnHwBluetoothHciCallbacks21_hidl_scoDataReceivedEPNS_4hidl4base4V1_08BnHwBaseERKNS0_6ParcelEPS9_NSt3__18functionIFvRS9_EEE"
  },
  {
   "name":"_ZN7android8hardware9bluetooth4V1_025BnHwBluetoothHciCallbacks22_hidl_hciEventReceivedEPNS_4hidl4base4V1_08BnHwBaseERKNS0_6ParcelEPS9_NSt3__18functionIFvRS9_EEE"
  },
  {
   "name":"_ZN7android8hardware9bluetooth4V1_025BnHwBluetoothHciCallbacks28_hidl_initializationCompleteEPNS_4hidl4base4V1_08BnHwBaseERKNS0_6ParcelEPS9_NSt3__18functionIFvRS9_EEE"
  },
  {
   "name":"_ZN7android8hardware9bluetooth4V1_025BnHwBluetoothHciCallbacks4pingEv"
  },
  {
   "name":"_ZN7android8hardware9bluetooth4V1_025BnHwBluetoothHciCallbacksC1ERKNS_2spINS2_22IBluetoothHciCallbacksEEE"
  },
  {
   "name":"_ZN7android8hardware9bluetooth4V1_025BnHwBluetoothHciCallbacksC2ERKNS_2spINS2_22IBluetoothHciCallbacksEEE"
  },
  {
   "name":"_ZN7android8hardware9bluetooth4V1_025BnHwBluetoothHciCallbacksD0Ev"
  },
  {
   "name":"_ZN7android8hardware9bluetooth4V1_025BnHwBluetoothHciCallbacksD1Ev"
  },
  {
   "name":"_ZN7android8hardware9bluetooth4V1_025BnHwBluetoothHciCallbacksD2Ev"
  },
  {
   "name":"_ZN7android8hardware9bluetooth4V1_025BpHwBluetoothHciCallbacks11linkToDeathERKNS_2spINS0_20hidl_death_recipientEEEy"
  },
  {
   "name":"_ZN7android8hardware9bluetooth4V1_025BpHwBluetoothHciCallbacks12getDebugInfoENSt3__18functionIFvRKNS_4hidl4base4V1_09DebugInfoEEEE"
  },
  {
   "name":"_ZN7android8hardware9bluetooth4V1_025BpHwBluetoothHciCallbacks12getHashChainENSt3__18functionIFvRKNS0_8hidl_vecINS0_10hidl_arrayIhLj32EJEEEEEEEE"
  },
  {
   "name":"_ZN7android8hardware9bluetooth4V1_025BpHwBluetoothHciCallbacks13unlinkToDeathERKNS_2spINS0_20hidl_death_recipientEEE"
  },
  {
   "name":"_ZN7android8hardware9bluetooth4V1_025BpHwBluetoothHciCallbacks14interfaceChainENSt3__18functionIFvRKNS0_8hidl_vecINS0_11hidl_stringEEEEEE"
  },
  {
   "name":"_ZN7android8hardware9bluetooth4V1_025BpHwBluetoothHciCallbacks15aclDataReceivedERKNS0_8hidl_vecIhEE"
  },
  {
   "name":"_ZN7android8hardware9bluetooth4V1_025BpHwBluetoothHciCallbacks15scoDataReceivedERKNS0_8hidl_vecIhEE"
  },
  {
   "name":"_ZN7android8hardware9bluetooth4V1_025BpHwBluetoothHciCallbacks16hciEventReceivedERKNS0_8hidl_vecIhEE"
  },
  {
   "name":"_ZN7android8hardware9bluetooth4V1_025BpHwBluetoothHciCallbacks19interfaceDescriptorENSt3__18functionIFvRKNS0_11hidl_stringEEEE"
  },
  {
   "name":"_ZN7android8hardware9bluetooth4V1_025BpHwBluetoothHciCallbacks21_hidl_aclDataReceivedEPNS0_10IInterfaceEPNS0_7details16HidlInstrumentorERKNS0_8hidl_vecIhEE"
  },
  {
   "name":"_ZN7android8hardware9bluetooth4V1_025BpHwBluetoothHciCallbacks21_hidl_scoDataReceivedEPNS0_10IInterfaceEPNS0_7details16HidlInstrumentorERKNS0_8hidl_vecIhEE"
  },
  {
   "name":"_ZN7android8hardware9bluetooth4V1_025BpHwBluetoothHciCallbacks21notifySyspropsChangedEv"
  },
  {
   "name":"_ZN7android8hardware9bluetooth4V1_025BpHwBluetoothHciCallbacks21setHALInstrumentationEv"
  },
  {
   "name":"_ZN7android8hardware9bluetooth4V1_025BpHwBluetoothHciCallbacks22_hidl_hciEventReceivedEPNS0_10IInterfaceEPNS0_7details16HidlInstrumentorERKNS0_8hidl_vecIhEE"
  },
  {
   "name":"_ZN7android8hardware9bluetooth4V1_025BpHwBluetoothHciCallbacks22initializationCompleteENS2_6StatusE"
  },
  {
   "name":"_ZN7android8hardware9bluetooth4V1_025BpHwBluetoothHciCallbacks28_hidl_initializationCompleteEPNS0_10IInterfaceEPNS0_7details16HidlInstrumentorENS2_6StatusE"
  },
  {
   "name":"_ZN7android8hardware9bluetooth4V1_025BpHwBluetoothHciCallbacks4pingEv"
  },
  {
   "name":"_ZN7android8hardware9bluetooth4V1_025BpHwBluetoothHciCallbacks5debugERKNS0_11hidl_handleERKNS0_8hidl_vecINS0_11hidl_stringEEE"
  },
  {
   "name":"_ZN7android8hardware9bluetooth4V1_025BpHwBluetoothHciCallbacksC1ERKNS_2spINS0_7IBinderEEE"
  },
  {
   "name":"_ZN7android8hardware9bluetooth4V1_025BpHwBluetoothHciCallbacksC2ERKNS_2spINS0_7IBinderEEE"
  },
  {
   "name":"_ZThn20_N7android8hardware9bluetooth4V1_016BnHwBluetoothHciD0Ev"
  },
  {
   "name":"_ZThn20_N7android8hardware9bluetooth4V1_016BnHwBluetoothHciD1Ev"
  },
  {
   "name":"_ZThn20_N7android8hardware9bluetooth4V1_025BnHwBluetoothHciCallbacksD0Ev"
  },
  {
   "name":"_ZThn20_N7android8hardware9bluetooth4V1_025BnHwBluetoothHciCallbacksD1Ev"
  },
  {
   "name":"_ZTv0_n12_N7android8hardware9bluetooth4V1_016BnHwBluetoothHciD0Ev"
  },
  {
   "name":"_ZTv0_n12_N7android8hardware9bluetooth4V1_016BnHwBluetoothHciD1Ev"
  },
  {
   "name":"_ZTv0_n12_N7android8hardware9bluetooth4V1_025BnHwBluetoothHciCallbacksD0Ev"
  },
  {
   "name":"_ZTv0_n12_N7android8hardware9bluetooth4V1_025BnHwBluetoothHciCallbacksD1Ev"
  }
 ],
 "elf_objects":[
  {
   "name":"_ZN7android8hardware9bluetooth4V1_013IBluetoothHci10descriptorE"
  },
  {
   "name":"_ZN7android8hardware9bluetooth4V1_022IBluetoothHciCallbacks10descriptorE"
  },
  {
   "name":"_ZTTN7android8hardware9bluetooth4V1_013IBluetoothHciE"
  },
  {
   "name":"_ZTTN7android8hardware9bluetooth4V1_016BnHwBluetoothHciE"
  },
  {
   "name":"_ZTTN7android8hardware9bluetooth4V1_016BpHwBluetoothHciE"
  },
  {
   "name":"_ZTTN7android8hardware9bluetooth4V1_022IBluetoothHciCallbacksE"
  },
  {
   "name":"_ZTTN7android8hardware9bluetooth4V1_025BnHwBluetoothHciCallbacksE"
  },
  {
   "name":"_ZTTN7android8hardware9bluetooth4V1_025BpHwBluetoothHciCallbacksE"
  },
  {
   "name":"_ZTVN7android8hardware9bluetooth4V1_013IBluetoothHciE"
  },
  {
   "binding":"weak",
   "name":"_ZTVN7android8hardware9bluetooth4V1_014BsBluetoothHciE"
  },
  {
   "name":"_ZTVN7android8hardware9bluetooth4V1_016BnHwBluetoothHciE"
  },
  {
   "name":"_ZTVN7android8hardware9bluetooth4V1_016BpHwBluetoothHciE"
  },
  {
   "name":"_ZTVN7android8hardware9bluetooth4V1_022IBluetoothHciCallbacksE"
  },
  {
   "binding":"weak",
   "name":"_ZTVN7android8hardware9bluetooth4V1_023BsBluetoothHciCallbacksE"
  },
  {
   "name":"_ZTVN7android8hardware9bluetooth4V1_025BnHwBluetoothHciCallbacksE"
  },
  {
   "name":"_ZTVN7android8hardware9bluetooth4V1_025BpHwBluetoothHciCallbacksE"
  }
 ]
}