{
 "record_types":[
  {
   "vtable_components":[
    {
     "kind":"vbase_offset",
     "component_value":72
    },
    {
     "kind":"offset_to_top"
    },
    {
     "kind":"rtti",
     "mangled_component_name":"_ZTIN7android8hardware4gnss4V1_18BnHwGnssE"
    },
    {
     "mangled_component_name":"_ZN7android8hardware9BHwBinder8transactEjRKNS0_6ParcelEPS2_jNSt3__18functionIFvRS2_EEE"
    },
    {
     "mangled_component_name":"_ZN7android8hardware9BHwBinder11linkToDeathERKNS_2spINS0_7IBinder14DeathRecipientEEEPvj"
    },
    {
     "mangled_component_name":"_ZN7android8hardware9BHwBinder13unlinkToDeathERKNS_2wpINS0_7IBinder14DeathRecipientEEEPvjPS5_"
    },
    {
     "mangled_component_name":"_ZNK7android8hardware7IBinder13checkSubclassEPKv"
    },
    {
     "mangled_component_name":"_ZN7android8hardware9BHwBinder12attachObjectEPKvPvS4_PFvS3_S4_S4_E"
    },
    {
     "mangled_component_name":"_ZNK7android8hardware9BHwBinder10findObjectEPKv"
    },
    {
     "mangled_component_name":"_ZN7android8hardware9BHwBinder12detachObjectEPKv"
    },
    {
     "mangled_component_name":"_ZN7android8hardware9BHwBinder11localBinderEv"
    },
    {
     "mangled_component_name":"_ZN7android8hardware7IBinder12remoteBinderEv"
    },
    {
     "kind":"complete_dtor_pointer",
     "mangled_component_name":"_ZN7android8hardware4gnss4V1_18BnHwGnssD1Ev"
    },
    {
     "kind":"deleting_dtor_pointer",
     "mangled_component_name":"_ZN7android8hardware4gnss4V1_18BnHwGnssD0Ev"
    },
    {
     "mangled_component_name":"_ZN7android8hardware4gnss4V1_18BnHwGnss10onTransactEjRKNS0_6ParcelEPS4_jNSt3__18functionIFvRS4_EEE"
    },
    {
     "kind":"offset_to_top",
     "component_value":-20
    },
    {
     "kind":"rtti",
     "mangled_component_name":"_ZTIN7android8hardware4gnss4V1_18BnHwGnssE"
    },
    {
     "kind":"complete_dtor_pointer",
     "mangled_component_name":"_ZThn20_N7android8hardware4gnss4V1_18BnHwGnssD1Ev"
    },
    {
     "kind":"deleting_dtor_pointer",
     "mangled_component_name":"_ZThn20_N7android8hardware4gnss4V1_18BnHwGnssD0Ev"
    },
    {
     "kind":"vcall_offset"
    },
    {
     "kind":"vcall_offset"
    },
    {
     "kind":"vcall_offset"
    },
    {
     "kind":"vcall_offset"
    },
    {
     "kind":"vcall_offset",
     "component_value":-72
    },
    {
     "kind":"offset_to_top",
     "component_value":-72
    },
    {
     "kind":"rtti",
     "mangled_component_name":"_ZTIN7android8hardware4gnss4V1_18BnHwGnssE"
    },
    {
     "kind":"complete_dtor_pointer",
     "mangled_component_name":"_ZTv0_n12_N7android8hardware4gnss4V1_18BnHwGnssD1Ev"
    },
    {
     "kind":"deleting_dtor_pointer",
     "mangled_component_name":"_ZTv0_n12_N7android8hardware4gnss4V1_18BnHwGnssD0Ev"
    },
    {
     "mangled_component_name":"_ZN7android7RefBase10onFirstRefEv"
    },
    {
     "mangled_component_name":"_ZN7android7RefBase15onLastStrongRefEPKv"
    },
    {
     "mangled_component_name":"_ZN7android7RefBase20onIncStrongAttemptedEjPKv"
    },
    {
     "mangled_component_name":"_ZN7android7RefBase13onLastWeakRefEPKv"
    }
   ],
   "unique_id":"_ZTSN7android8hardware4gnss4V1_18BnHwGnssE"
  },
  {
   "vtable_components":[
    {
     "kind":"vbase_offset",
     "component_value":72
    },
    {
     "kind":"offset_to_top"
    },
    {
     "kind":"rtti",
     "mangled_component_name":"_ZTIN7android8hardware4gnss4V1_116BnHwGnssCallbackE"
    },
    {
     "mangled_component_name":"_ZN7android8hardware9BHwBinder8transactEjRKNS0_6ParcelEPS2_jNSt3__18functionIFvRS2_EEE"
    },
    {
     "mangled_component_name":"_ZN7android8hardware9BHwBinder11linkToDeathERKNS_2spINS0_7IBinder14DeathRecipientEEEPvj"
    },
    {
     "mangled_component_name":"_ZN7android8hardware9BHwBinder13unlinkToDeathERKNS_2wpINS0_7IBinder14DeathRecipientEEEPvjPS5_"
    },
    {
     "mangled_component_name":"_ZNK7android8hardware7IBinder13checkSubclassEPKv"
    },
    {
     "mangled_component_name":"_ZN7android8hardware9BHwBinder12attachObjectEPKvPvS4_PFvS3_S4_S4_E"
    },
    {
     "mangled_component_name":"_ZNK7android8hardware9BHwBinder10findObjectEPKv"
    },
    {
     "mangled_component_name":"_ZN7android8hardware9BHwBinder12detachObjectEPKv"
    },
    {
     "mangled_component_name":"_ZN7android8hardware9BHwBinder11localBinderEv"
    },
    {
     "mangled_component_name":"_ZN7android8hardware7IBinder12remoteBinderEv"
    },
    {
     "kind":"complete_dtor_pointer",
     "mangled_component_name":"_ZN7android8hardware4gnss4V1_116BnHwGnssCallbackD1Ev"
    },
    {
     "kind":"deleting_dtor_pointer",
     "mangled_component_name":"_ZN7android8hardware4gnss4V1_116BnHwGnssCallbackD0Ev"
    },
    {
     "mangled_component_name":"_ZN7android8hardware4gnss4V1_116BnHwGnssCallback10onTransactEjRKNS0_6ParcelEPS4_jNSt3__18functionIFvRS4_EEE"
    },
    {
     "kind":"offset_to_top",
     "component_value":-20
    },
    {
     "kind":"rtti",
     "mangled_component_name":"_ZTIN7android8hardware4gnss4V1_116BnHwGnssCallbackE"
    },
    {
     "kind":"complete_dtor_pointer",
     "mangled_component_name":"_ZThn20_N7android8hardware4gnss4V1_116BnHwGnssCallbackD1Ev"
    },
    {
     "kind":"deleting_dtor_pointer",
     "mangled_component_name":"_ZThn20_N7android8hardware4gnss4V1_116BnHwGnssCallbackD0Ev"
    },
    {
     "kind":"vcall_offset"
    },
    {
     "kind":"vcall_offset"
    },
    {
     "kind":"vcall_offset"
    },
    {
     "kind":"vcall_offset"
    },
    {
     "kind":"vcall_offset",
     "component_value":-72
    },
    {
     "kind":"offset_to_top",
     "component_value":-72
    },
    {
     "kind":"rtti",
     "mangled_component_name":"_ZTIN7android8hardware4gnss4V1_116BnHwGnssCallbackE"
    },
    {
     "kind":"complete_dtor_pointer",
     "mangled_component_name":"_ZTv0_n12_N7android8hardware4gnss4V1_116BnHwGnssCallbackD1Ev"
    },
    {
     "kind":"deleting_dtor_pointer",
     "mangled_component_name":"_ZTv0_n12_N7android8hardware4gnss4V1_116BnHwGnssCallbackD0Ev"
    },
    {
     "mangled_component_name":"_ZN7android7RefBase10onFirstRefEv"
    },
    {
     "mangled_component_name":"_ZN7android7RefBase15onLastStrongRefEPKv"
    },
    {
     "mangled_component_name":"_ZN7android7RefBase20onIncStrongAttemptedEjPKv"
    },
    {
     "mangled_component_name":"_ZN7android7RefBase13onLastWeakRefEPKv"
    }
   ],
   "unique_id":"_ZTSN7android8hardware4gnss4V1_116BnHwGnssCallbackE"
  },
  {
   "vtable_components":[
    {
     "kind":"vbase_offset",
     "component_value":84
    },
    {
     "kind":"offset_to_top"
    },
    {
     "kind":"rtti",
     "mangled_component_name":"_ZTIN7android8hardware4gnss4V1_116BpHwGnssCallbackE"
    },
    {
     "mangled_component_name":"_ZNK7android8hardware4gnss4V1_116BpHwGnssCallback8isRemoteEv"
    },
    {
     "mangled_component_name":"_ZN7android8hardware4gnss4V1_116BpHwGnssCallback14interfaceChainENSt3__18functionIFvRKNS0_8hidl_vecINS0_11hidl_stringEEEEEE"
    },
    {
     "mangled_component_name":"_ZN7android8hardware4gnss4V1_116BpHwGnssCallback5debugERKNS0_11hidl_handleERKNS0_8hidl_vecINS0_11hidl_stringEEE"
    },
    {
     "mangled_component_name":"_ZN7android8hardware4gnss4V1_116BpHwGnssCallback19interfaceDescriptorENSt3__18functionIFvRKNS0_11hidl_stringEEEE"
    },
    {
     "mangled_component_name":"_ZN7android8hardware4gnss4V1_116BpHwGnssCallback12getHashChainENSt3__18functionIFvRKNS0_8hidl_vecINS0_10hidl_arrayIhLj32EJEEEEEEEE"
    },
    {
     "mangled_component_name":"_ZN7android8hardware4gnss4V1_116BpHwGnssCallback21setHALInstrumentationEv"
    },
    {
     "mangled_component_name":"_ZN7android8hardware4gnss4V1_116BpHwGnssCallback11linkToDeathERKNS_2spINS0_20hidl_death_recipientEEEy"
    },
    {
     "mangled_component_name":"_ZN7android8hardware4gnss4V1_116BpHwGnssCallback4pingEv"
    },
    {
     "mangled_component_name":"_ZN7android8hardware4gnss4V1_116BpHwGnssCallback12getDebugInfoENSt3__18functionIFvRKNS_4hidl4base4V1_09DebugInfoEEEE"
    },
    {
     "mangled_component_name":"_ZN7android8hardware4gnss4V1_116BpHwGnssCallback21notifySyspropsChangedEv"
    },
    {
     "mangled_component_name":"_ZN7android8hardware4gnss4V1_116BpHwGnssCallback13unlinkToDeathERKNS_2spINS0_20hidl_death_recipientEEE"
    },
    {
     "kind":"complete_dtor_pointer",
     "mangled_component_name":"_ZN7android8hardware4gnss4V1_116BpHwGnssCallbackD1Ev"
    },
    {
     "kind":"deleting_dtor_pointer",
     "mangled_component_name":"_ZN7android8hardware4gnss4V1_116BpHwGnssCallbackD0Ev"
    },
    {
     "mangled_component_name":"_ZN7android8hardware4gnss4V1_116BpHwGnssCallback14gnssLocationCbERKNS1_4V1_012GnssLocationE"
    },
    {
     "mangled_component_name":"_ZN7android8hardware4gnss4V1_116BpHwGnssCallback12gnssStatusCbENS1_4V1_013IGnssCallback15GnssStatusValueE"
    },
    {
     "mangled_component_name":"_ZN7android8hardware4gnss4V1_116BpHwGnssCallback14gnssSvStatusCbERKNS1_4V1_013IGnssCallback12GnssSvStatusE"
    },
    {
     "mangled_component_name":"_ZN7android8hardware4gnss4V1_116BpHwGnssCallback10gnssNmeaCbExRKNS0_11hidl_stringE"
    },
    {
     "mangled_component_name":"_ZN7android8hardware4gnss4V1_116BpHwGnssCallback20gnssSetCapabilitesCbEj"
    },
    {
     "mangled_component_name":"_ZN7android8hardware4gnss4V1_116BpHwGnssCallback21gnssAcquireWakelockCbEv"
    },
    {
     "mangled_component_name":"_ZN7android8hardware4gnss4V1_116BpHwGnssCallback21gnssReleaseWakelockCbEv"
    },
    {
     "mangled_component_name":"_ZN7android8hardware4gnss4V1_116BpHwGnssCallback17gnssRequestTimeCbEv"
    },
    {
     "mangled_component_name":"_ZN7android8hardware4gnss4V1_116BpHwGnssCallback19gnssSetSystemInfoCbERKNS1_4V1_013IGnssCallback14GnssSystemInfoE"
    },
    {
     "mangled_component_name":"_ZN7android8hardware4gnss4V1_116BpHwGnssCallback10gnssNameCbERKNS0_11hidl_stringE"
    },
    {
     "mangled_component_name":"_ZN7android8hardware4gnss4V1_116BpHwGnssCallback21gnssRequestLocationCbEb"
    },
    {
     "mangled_component_name":"_ZN7android8hardware11BpInterfaceINS0_4gnss4V1_113IGnssCallbackEE10onAsBinderEv"
    },
    {
     "kind":"vbase_offset",
     "component_value":80
    },
    {
     "kind":"offset_to_top",
     "component_value":-4
    },
    {
     "kind":"rtti",
     "mangled_component_name":"_ZTIN7android8hardware4gnss4V1_116BpHwGnssCallbackE"
    },
    {
     "kind":"complete_dtor_pointer",
     "mangled_component_name":"_ZThn4_N7android8hardware4gnss4V1_116BpHwGnssCallbackD1Ev"
    },
    {
     "kind":"deleting_dtor_pointer",
     "mangled_component_name":"_ZThn4_N7android8hardware4gnss4V1_116BpHwGnssCallbackD0Ev"
    },
    {
     "mangled_component_name":"_ZThn4_N7android8hardware11BpInterfaceINS0_4gnss4V1_113IGnssCallbackEE10onAsBinderEv"
    },
    {
     "kind":"vbase_offset",
     "component_value":76
    },
    {
     "kind":"offset_to_top",
     "component_value":-8
    },
    {
     "kind":"rtti",
     "mangled_component_name":"_ZTIN7android8hardware4gnss4V1_116BpHwGnssCallbackE"
    },
    {
     "kind":"complete_dtor_pointer",
     "mangled_component_name":"_ZThn8_N7android8hardware4gnss4V1_116BpHwGnssCallbackD1Ev"
    },
    {
     "kind":"deleting_dtor_pointer",
     "mangled_component_name":"_ZThn8_N7android8hardware4gnss4V1_116BpHwGnssCallbackD0Ev"
    },
    {
     "mangled_component_name":"_ZN7android8hardware11BpHwRefBase10onFirstRefEv"
    },
    {
     "mangled_component_name":"_ZN7android8hardware11BpHwRefBase15onLastStrongRefEPKv"
    },
    {
     "mangled_component_name":"_ZN7android8hardware11BpHwRefBase20onIncStrongAttemptedEjPKv"
    },
    {
     "kind":"offset_to_top",
     "component_value":-24
    },
    {
     "kind":"rtti",
     "mangled_component_name":"_ZTIN7android8hardware4gnss4V1_116BpHwGnssCallbackE"
    },
    {
     "kind":"complete_dtor_pointer",
     "mangled_component_name":"_ZThn24_N7android8hardware4gnss4V1_116BpHwGnssCallbackD1Ev"
    },
    {
     "kind":"deleting_dtor_pointer",
     "mangled_component_name":"_ZThn24_N7android8hardware4gnss4V1_116BpHwGnssCallbackD0Ev"
    },
    {
     "kind":"vcall_offset"
    },
    {
     "kind":"vcall_offset",
     "component_value":-76
    },
    {
     "kind":"vcall_offset",
     "component_value":-76
    },
    {
     "kind":"vcall_offset",
     "component_value":-76
    },
    {
     "kind":"vcall_offset",
     "component_value":-84
    },
    {
     "kind":"offset_to_top",
     "component_value":-84
    },
    {
     "kind":"rtti",
     "mangled_component_name":"_ZTIN7android8hardware4gnss4V1_116BpHwGnssCallbackE"
    },
    {
     "kind":"complete_dtor_pointer",
     "mangled_component_name":"_ZTv0_n12_N7android8hardware4gnss4V1_116BpHwGnssCallbackD1Ev"
    },
    {
     "kind":"deleting_dtor_pointer",
     "mangled_component_name":"_ZTv0_n12_N7android8hardware4gnss4V1_116BpHwGnssCallbackD0Ev"
    },
    {
     "mangled_component_name":"_ZTv0_n16_N7android8hardware11BpHwRefBase10onFirstRefEv"
    },
    {
     "mangled_component_name":"_ZTv0_n20_N7android8hardware11BpHwRefBase15onLastStrongRefEPKv"
    },
    {
     "mangled_component_name":"_ZTv0_n24_N7android8hardware11BpHwRefBase20onIncStrongAttemptedEjPKv"
    },
    {
     "mangled_component_name":"_ZN7android7RefBase13onLastWeakRefEPKv"
    }
   ],
   "unique_id":"_ZTSN7android8hardware4gnss4V1_116BpHwGnssCallbackE"
  },
  {
   "vtable_components":[
    {
     "kind":"vbase_offset",
     "component_value":72
    },
    {
     "kind":"offset_to_top"
    },
    {
     "kind":"rtti",
     "mangled_component_name":"_ZTIN7android8hardware4gnss4V1_121BnHwGnssConfigurationE"
    },
    {
     "mangled_component_name":"_ZN7android8hardware9BHwBinder8transactEjRKNS0_6ParcelEPS2_jNSt3__18functionIFvRS2_EEE"
    },
    {
     "mangled_component_name":"_ZN7android8hardware9BHwBinder11linkToDeathERKNS_2spINS0_7IBinder14DeathRecipientEEEPvj"
    },
    {
     "mangled_component_name":"_ZN7android8hardware9BHwBinder13unlinkToDeathERKNS_2wpINS0_7IBinder14DeathRecipientEEEPvjPS5_"
    },
    {
     "mangled_component_name":"_ZNK7android8hardware7IBinder13checkSubclassEPKv"
    },
    {
     "mangled_component_name":"_ZN7android8hardware9BHwBinder12attachObjectEPKvPvS4_PFvS3_S4_S4_E"
    },
    {
     "mangled_component_name":"_ZNK7android8hardware9BHwBinder10findObjectEPKv"
    },
    {
     "mangled_component_name":"_ZN7android8hardware9BHwBinder12detachObjectEPKv"
    },
    {
     "mangled_component_name":"_ZN7android8hardware9BHwBinder11localBinderEv"
    },
    {
     "mangled_component_name":"_ZN7android8hardware7IBinder12remoteBinderEv"
    },
    {
     "kind":"complete_dtor_pointer",
     "mangled_component_name":"_ZN7android8hardware4gnss4V1_121BnHwGnssConfigurationD1Ev"
    },
    {
     "kind":"deleting_dtor_pointer",
     "mangled_component_name":"_ZN7android8hardware4gnss4V1_121BnHwGnssConfigurationD0Ev"
    },
    {
     "mangled_component_name":"_ZN7android8hardware4gnss4V1_121BnHwGnssConfiguration10onTransactEjRKNS0_6ParcelEPS4_jNSt3__18functionIFvRS4_EEE"
    },
    {
     "kind":"offset_to_top",
     "component_value":-20
    },
    {
     "kind":"rtti",
     "mangled_component_name":"_ZTIN7android8hardware4gnss4V1_121BnHwGnssConfigurationE"
    },
    {
     "kind":"complete_dtor_pointer",
     "mangled_component_name":"_ZThn20_N7android8hardware4gnss4V1_121BnHwGnssConfigurationD1Ev"
    },
    {
     "kind":"deleting_dtor_pointer",
     "mangled_component_name":"_ZThn20_N7android8hardware4gnss4V1_121BnHwGnssConfigurationD0Ev"
    },
    {
     "kind":"vcall_offset"
    },
    {
     "kind":"vcall_offset"
    },
    {
     "kind":"vcall_offset"
    },
    {
     "kind":"vcall_offset"
    },
    {
     "kind":"vcall_offset",
     "component_value":-72
    },
    {
     "kind":"offset_to_top",
     "component_value":-72
    },
    {
     "kind":"rtti",
     "mangled_component_name":"_ZTIN7android8hardware4gnss4V1_121BnHwGnssConfigurationE"
    },
    {
     "kind":"complete_dtor_pointer",
     "mangled_component_name":"_ZTv0_n12_N7android8hardware4gnss4V1_121BnHwGnssConfigurationD1Ev"
    },
    {
     "kind":"deleting_dtor_pointer",
     "mangled_component_name":"_ZTv0_n12_N7android8hardware4gnss4V1_121BnHwGnssConfigurationD0Ev"
    },
    {
     "mangled_component_name":"_ZN7android7RefBase10onFirstRefEv"
    },
    {
     "mangled_component_name":"_ZN7android7RefBase15onLastStrongRefEPKv"
    },
    {
     "mangled_component_name":"_ZN7android7RefBase20onIncStrongAttemptedEjPKv"
    },
    {
     "mangled_component_name":"_ZN7android7RefBase13onLastWeakRefEPKv"
    }
   ],
   "unique_id":"_ZTSN7android8hardware4gnss4V1_121BnHwGnssConfigurationE"
  },
  {
   "vtable_components":[
    {
     "kind":"vbase_offset",
     "component_value":84
    },
    {
     "kind":"offset_to_top"
    },
    {
     "kind":"rtti",
     "mangled_component_name":"_ZTIN7android8hardware4gnss4V1_121BpHwGnssConfigurationE"
    },
    {
     "mangled_component_name":"_ZNK7android8hardware4gnss4V1_121BpHwGnssConfiguration8isRemoteEv"
    },
    {
     "mangled_component_name":"_ZN7android8hardware4gnss4V1_121BpHwGnssConfiguration14interfaceChainENSt3__18functionIFvRKNS0_8hidl_vecINS0_11hidl_stringEEEEEE"
    },
    {
     "mangled_component_name":"_ZN7android8hardware4gnss4V1_121BpHwGnssConfiguration5debugERKNS0_11hidl_handleERKNS0_8hidl_vecINS0_11hidl_stringEEE"
    },
    {
     "mangled_component_name":"_ZN7android8hardware4gnss4V1_121BpHwGnssConfiguration19interfaceDescriptorENSt3__18functionIFvRKNS0_11hidl_stringEEEE"
    },
    {
     "mangled_component_name":"_ZN7android8hardware4gnss4V1_121BpHwGnssConfiguration12getHashChainENSt3__18functionIFvRKNS0_8hidl_vecINS0_10hidl_arrayIhLj32EJEEEEEEEE"
    },
    {
     "mangled_component_name":"_ZN7android8hardware4gnss4V1_121BpHwGnssConfiguration21setHALInstrumentationEv"
    },
    {
     "mangled_component_name":"_ZN7android8hardware4gnss4V1_121BpHwGnssConfiguration11linkToDeathERKNS_2spINS0_20hidl_death_recipientEEEy"
    },
    {
     "mangled_component_name":"_ZN7android8hardware4gnss4V1_121BpHwGnssConfiguration4pingEv"
    },
    {
     "mangled_component_name":"_ZN7android8hardware4gnss4V1_121BpHwGnssConfiguration12getDebugInfoENSt3__18functionIFvRKNS_4hidl4base4V1_09DebugInfoEEEE"
    },
    {
     "mangled_component_name":"_ZN7android8hardware4gnss4V1_121BpHwGnssConfiguration21notifySyspropsChangedEv"
    },
    {
     "mangled_component_name":"_ZN7android8hardware4gnss4V1_121BpHwGnssConfiguration13unlinkToDeathERKNS_2spINS0_20hidl_death_recipientEEE"
    },
    {
     "kind":"complete_dtor_pointer",
     "mangled_component_name":"_ZN7android8hardware4gnss4V1_121BpHwGnssConfigurationD1Ev"
    },
    {
     "kind":"deleting_dtor_pointer",
     "mangled_component_name":"_ZN7android8hardware4gnss4V1_121BpHwGnssConfigurationD0Ev"
    },
    {
     "mangled_component_name":"_ZN7android8hardware4gnss4V1_121BpHwGnssConfiguration9setSuplEsEb"
    },
    {
     "mangled_component_name":"_ZN7android8hardware4gnss4V1_121BpHwGnssConfiguration14setSuplVersionEj"
    },
    {
     "mangled_component_name":"_ZN7android8hardware4gnss4V1_121BpHwGnssConfiguration11setSuplModeEh"
    },
    {
     "mangled_component_name":"_ZN7android8hardware4gnss4V1_121BpHwGnssConfiguration10setGpsLockEh"
    },
    {
     "mangled_component_name":"_ZN7android8hardware4gnss4V1_121BpHwGnssConfiguration13setLppProfileEh"
    },
    {
     "mangled_component_name":"_ZN7android8hardware4gnss4V1_121BpHwGnssConfiguration29setGlonassPositioningProtocolEh"
    },
    {
     "mangled_component_name":"_ZN7android8hardware4gnss4V1_121BpHwGnssConfiguration19setEmergencySuplPdnEb"
    },
    {
     "mangled_component_name":"_ZN7android8hardware4gnss4V1_121BpHwGnssConfiguration12setBlacklistERKNS0_8hidl_vecINS2_18IGnssConfiguration17BlacklistedSourceEEE"
    },
    {
     "mangled_component_name":"_ZN7android8hardware11BpInterfaceINS0_4gnss4V1_118IGnssConfigurationEE10onAsBinderEv"
    },
    {
     "kind":"vbase_offset",
     "component_value":80
    },
    {
     "kind":"offset_to_top",
     "component_value":-4
    },
    {
     "kind":"rtti",
     "mangled_component_name":"_ZTIN7android8hardware4gnss4V1_121BpHwGnssConfigurationE"
    },
    {
     "kind":"complete_dtor_pointer",
     "mangled_component_name":"_ZThn4_N7android8hardware4gnss4V1_121BpHwGnssConfigurationD1Ev"
    },
    {
     "kind":"deleting_dtor_pointer",
     "mangled_component_name":"_ZThn4_N7android8hardware4gnss4V1_121BpHwGnssConfigurationD0Ev"
    },
    {
     "mangled_component_name":"_ZThn4_N7android8hardware11BpInterfaceINS0_4gnss4V1_118IGnssConfigurationEE10onAsBinderEv"
    },
    {
     "kind":"vbase_offset",
     "component_value":76
    },
    {
     "kind":"offset_to_top",
     "component_value":-8
    },
    {
     "kind":"rtti",
     "mangled_component_name":"_ZTIN7android8hardware4gnss4V1_121BpHwGnssConfigurationE"
    },
    {
     "kind":"complete_dtor_pointer",
     "mangled_component_name":"_ZThn8_N7android8hardware4gnss4V1_121BpHwGnssConfigurationD1Ev"
    },
    {
     "kind":"deleting_dtor_pointer",
     "mangled_component_name":"_ZThn8_N7android8hardware4gnss4V1_121BpHwGnssConfigurationD0Ev"
    },
    {
     "mangled_component_name":"_ZN7android8hardware11BpHwRefBase10onFirstRefEv"
    },
    {
     "mangled_component_name":"_ZN7android8hardware11BpHwRefBase15onLastStrongRefEPKv"
    },
    {
     "mangled_component_name":"_ZN7android8hardware11BpHwRefBase20onIncStrongAttemptedEjPKv"
    },
    {
     "kind":"offset_to_top",
     "component_value":-24
    },
    {
     "kind":"rtti",
     "mangled_component_name":"_ZTIN7android8hardware4gnss4V1_121BpHwGnssConfigurationE"
    },
    {
     "kind":"complete_dtor_pointer",
     "mangled_component_name":"_ZThn24_N7android8hardware4gnss4V1_121BpHwGnssConfigurationD1Ev"
    },
    {
     "kind":"deleting_dtor_pointer",
     "mangled_component_name":"_ZThn24_N7android8hardware4gnss4V1_121BpHwGnssConfigurationD0Ev"
    },
    {
     "kind":"vcall_offset"
    },
    {
     "kind":"vcall_offset",
     "component_value":-76
    },
    {
     "kind":"vcall_offset",
     "component_value":-76
    },
    {
     "kind":"vcall_offset",
     "component_value":-76
    },
    {
     "kind":"vcall_offset",
     "component_value":-84
    },
    {
     "kind":"offset_to_top",
     "component_value":-84
    },
    {
     "kind":"rtti",
     "mangled_component_name":"_ZTIN7android8hardware4gnss4V1_121BpHwGnssConfigurationE"
    },
    {
     "kind":"complete_dtor_pointer",
     "mangled_component_name":"_ZTv0_n12_N7android8hardware4gnss4V1_121BpHwGnssConfigurationD1Ev"
    },
    {
     "kind":"deleting_dtor_pointer",
     "mangled_component_name":"_ZTv0_n12_N7android8hardware4gnss4V1_121BpHwGnssConfigurationD0Ev"
    },
    {
     "mangled_component_name":"_ZTv0_n16_N7android8hardware11BpHwRefBase10onFirstRefEv"
    },
    {
     "mangled_component_name":"_ZTv0_n20_N7android8hardware11BpHwRefBase15onLastStrongRefEPKv"
    },
    {
     "mangled_component_name":"_ZTv0_n24_N7android8hardware11BpHwRefBase20onIncStrongAttemptedEjPKv"
    },
    {
     "mangled_component_name":"_ZN7android7RefBase13onLastWeakRefEPKv"
    }
   ],
   "unique_id":"_ZTSN7android8hardware4gnss4V1_121BpHwGnssConfigurationE"
  },
  {
   "vtable_components":[
    {
     "kind":"vbase_offset",
     "component_value":72
    },
    {
     "kind":"offset_to_top"
    },
    {
     "kind":"rtti",
     "mangled_component_name":"_ZTIN7android8hardware4gnss4V1_127BnHwGnssMeasurementCallbackE"
    },
    {
     "mangled_component_name":"_ZN7android8hardware9BHwBinder8transactEjRKNS0_6ParcelEPS2_jNSt3__18functionIFvRS2_EEE"
    },
    {
     "mangled_component_name":"_ZN7android8hardware9BHwBinder11linkToDeathERKNS_2spINS0_7IBinder14DeathRecipientEEEPvj"
    },
    {
     "mangled_component_name":"_ZN7android8hardware9BHwBinder13unlinkToDeathERKNS_2wpINS0_7IBinder14DeathRecipientEEEPvjPS5_"
    },
    {
     "mangled_component_name":"_ZNK7android8hardware7IBinder13checkSubclassEPKv"
    },
    {
     "mangled_component_name":"_ZN7android8hardware9BHwBinder12attachObjectEPKvPvS4_PFvS3_S4_S4_E"
    },
    {
     "mangled_component_name":"_ZNK7android8hardware9BHwBinder10findObjectEPKv"
    },
    {
     "mangled_component_name":"_ZN7android8hardware9BHwBinder12detachObjectEPKv"
    },
    {
     "mangled_component_name":"_ZN7android8hardware9BHwBinder11localBinderEv"
    },
    {
     "mangled_component_name":"_ZN7android8hardware7IBinder12remoteBinderEv"
    },
    {
     "kind":"complete_dtor_pointer",
     "mangled_component_name":"_ZN7android8hardware4gnss4V1_127BnHwGnssMeasurementCallbackD1Ev"
    },
    {
     "kind":"deleting_dtor_pointer",
     "mangled_component_name":"_ZN7android8hardware4gnss4V1_127BnHwGnssMeasurementCallbackD0Ev"
    },
    {
     "mangled_component_name":"_ZN7android8hardware4gnss4V1_127BnHwGnssMeasurementCallback10onTransactEjRKNS0_6ParcelEPS4_jNSt3__18functionIFvRS4_EEE"
    },
    {
     "kind":"offset_to_top",
     "component_value":-20
    },
    {
     "kind":"rtti",
     "mangled_component_name":"_ZTIN7android8hardware4gnss4V1_127BnHwGnssMeasurementCallbackE"
    },
    {
     "kind":"complete_dtor_pointer",
     "mangled_component_name":"_ZThn20_N7android8hardware4gnss4V1_127BnHwGnssMeasurementCallbackD1Ev"
    },
    {
     "kind":"deleting_dtor_pointer",
     "mangled_component_name":"_ZThn20_N7android8hardware4gnss4V1_127BnHwGnssMeasurementCallbackD0Ev"
    },
    {
     "kind":"vcall_offset"
    },
    {
     "kind":"vcall_offset"
    },
    {
     "kind":"vcall_offset"
    },
    {
     "kind":"vcall_offset"
    },
    {
     "kind":"vcall_offset",
     "component_value":-72
    },
    {
     "kind":"offset_to_top",
     "component_value":-72
    },
    {
     "kind":"rtti",
     "mangled_component_name":"_ZTIN7android8hardware4gnss4V1_127BnHwGnssMeasurementCallbackE"
    },
    {
     "kind":"complete_dtor_pointer",
     "mangled_component_name":"_ZTv0_n12_N7android8hardware4gnss4V1_127BnHwGnssMeasurementCallbackD1Ev"
    },
    {
     "kind":"deleting_dtor_pointer",
     "mangled_component_name":"_ZTv0_n12_N7android8hardware4gnss4V1_127BnHwGnssMeasurementCallbackD0Ev"
    },
    {
     "mangled_component_name":"_ZN7android7RefBase10onFirstRefEv"
    },
    {
     "mangled_component_name":"_ZN7android7RefBase15onLastStrongRefEPKv"
    },
    {
     "mangled_component_name":"_ZN7android7RefBase20onIncStrongAttemptedEjPKv"
    },
    {
     "mangled_component_name":"_ZN7android7RefBase13onLastWeakRefEPKv"
    }
   ],
   "unique_id":"_ZTSN7android8hardware4gnss4V1_127BnHwGnssMeasurementCallbackE"
  },
  {
   "vtable_components":[
    {
     "kind":"vbase_offset",
     "component_value":72
    },
    {
     "kind":"offset_to_top"
    },
    {
     "kind":"rtti",
     "mangled_component_name":"_ZTIN7android8hardware4gnss4V1_119BnHwGnssMeasurementE"
    },
    {
     "mangled_component_name":"_ZN7android8hardware9BHwBinder8transactEjRKNS0_6ParcelEPS2_jNSt3__18functionIFvRS2_EEE"
    },
    {
     "mangled_component_name":"_ZN7android8hardware9BHwBinder11linkToDeathERKNS_2spINS0_7IBinder14DeathRecipientEEEPvj"
    },
    {
     "mangled_component_name":"_ZN7android8hardware9BHwBinder13unlinkToDeathERKNS_2wpINS0_7IBinder14DeathRecipientEEEPvjPS5_"
    },
    {
     "mangled_component_name":"_ZNK7android8hardware7IBinder13checkSubclassEPKv"
    },
    {
     "mangled_component_name":"_ZN7android8hardware9BHwBinder12attachObjectEPKvPvS4_PFvS3_S4_S4_E"
    },
    {
     "mangled_component_name":"_ZNK7android8hardware9BHwBinder10findObjectEPKv"
    },
    {
     "mangled_component_name":"_ZN7android8hardware9BHwBinder12detachObjectEPKv"
    },
    {
     "mangled_component_name":"_ZN7android8hardware9BHwBinder11localBinderEv"
    },
    {
     "mangled_component_name":"_ZN7android8hardware7IBinder12remoteBinderEv"
    },
    {
     "kind":"complete_dtor_pointer",
     "mangled_component_name":"_ZN7android8hardware4gnss4V1_119BnHwGnssMeasurementD1Ev"
    },
    {
     "kind":"deleting_dtor_pointer",
     "mangled_component_name":"_ZN7android8hardware4gnss4V1_119BnHwGnssMeasurementD0Ev"
    },
    {
     "mangled_component_name":"_ZN7android8hardware4gnss4V1_119BnHwGnssMeasurement10onTransactEjRKNS0_6ParcelEPS4_jNSt3__18functionIFvRS4_EEE"
    },
    {
     "kind":"offset_to_top",
     "component_value":-20
    },
    {
     "kind":"rtti",
     "mangled_component_name":"_ZTIN7android8hardware4gnss4V1_119BnHwGnssMeasurementE"
    },
    {
     "kind":"complete_dtor_pointer",
     "mangled_component_name":"_ZThn20_N7android8hardware4gnss4V1_119BnHwGnssMeasurementD1Ev"
    },
    {
     "kind":"deleting_dtor_pointer",
     "mangled_component_name":"_ZThn20_N7android8hardware4gnss4V1_119BnHwGnssMeasurementD0Ev"
    },
    {
     "kind":"vcall_offset"
    },
    {
     "kind":"vcall_offset"
    },
    {
     "kind":"vcall_offset"
    },
    {
     "kind":"vcall_offset"
    },
    {
     "kind":"vcall_offset",
     "component_value":-72
    },
    {
     "kind":"offset_to_top",
     "component_value":-72
    },
    {
     "kind":"rtti",
     "mangled_component_name":"_ZTIN7android8hardware4gnss4V1_119BnHwGnssMeasurementE"
    },
    {
     "kind":"complete_dtor_pointer",
     "mangled_component_name":"_ZTv0_n12_N7android8hardware4gnss4V1_119BnHwGnssMeasurementD1Ev"
    },
    {
     "kind":"deleting_dtor_pointer",
     "mangled_component_name":"_ZTv0_n12_N7android8hardware4gnss4V1_119BnHwGnssMeasurementD0Ev"
    },
    {
     "mangled_component_name":"_ZN7android7RefBase10onFirstRefEv"
    },
    {
     "mangled_component_name":"_ZN7android7RefBase15onLastStrongRefEPKv"
    },
    {
     "mangled_component_name":"_ZN7android7RefBase20onIncStrongAttemptedEjPKv"
    },
    {
     "mangled_component_name":"_ZN7android7RefBase13onLastWeakRefEPKv"
    }
   ],
   "unique_id":"_ZTSN7android8hardware4gnss4V1_119BnHwGnssMeasurementE"
  },
  {
   "vtable_components":[
    {
     "kind":"vbase_offset",
     "component_value":84
    },
    {
     "kind":"offset_to_top"
    },
    {
     "kind":"rtti",
     "mangled_component_name":"_ZTIN7android8hardware4gnss4V1_119BpHwGnssMeasurementE"
    },
    {
     "mangled_component_name":"_ZNK7android8hardware4gnss4V1_119BpHwGnssMeasurement8isRemoteEv"
    },
    {
     "mangled_component_name":"_ZN7android8hardware4gnss4V1_119BpHwGnssMeasurement14interfaceChainENSt3__18functionIFvRKNS0_8hidl_vecINS0_11hidl_stringEEEEEE"
    },
    {
     "mangled_component_name":"_ZN7android8hardware4gnss4V1_119BpHwGnssMeasurement5debugERKNS0_11hidl_handleERKNS0_8hidl_vecINS0_11hidl_stringEEE"
    },
    {
     "mangled_component_name":"_ZN7android8hardware4gnss4V1_119BpHwGnssMeasurement19interfaceDescriptorENSt3__18functionIFvRKNS0_11hidl_stringEEEE"
    },
    {
     "mangled_component_name":"_ZN7android8hardware4gnss4V1_119BpHwGnssMeasurement12getHashChainENSt3__18functionIFvRKNS0_8hidl_vecINS0_10hidl_arrayIhLj32EJEEEEEEEE"
    },
    {
     "mangled_component_name":"_ZN7android8hardware4gnss4V1_119BpHwGnssMeasurement21setHALInstrumentationEv"
    },
    {
     "mangled_component_name":"_ZN7android8hardware4gnss4V1_119BpHwGnssMeasurement11linkToDeathERKNS_2spINS0_20hidl_death_recipientEEEy"
    },
    {
     "mangled_component_name":"_ZN7android8hardware4gnss4V1_119BpHwGnssMeasurement4pingEv"
    },
    {
     "mangled_component_name":"_ZN7android8hardware4gnss4V1_119BpHwGnssMeasurement12getDebugInfoENSt3__18functionIFvRKNS_4hidl4base4V1_09DebugInfoEEEE"
    },
    {
     "mangled_component_name":"_ZN7android8hardware4gnss4V1_119BpHwGnssMeasurement21notifySyspropsChangedEv"
    },
    {
     "mangled_component_name":"_ZN7android8hardware4gnss4V1_119BpHwGnssMeasurement13unlinkToDeathERKNS_2spINS0_20hidl_death_recipientEEE"
    },
    {
     "kind":"complete_dtor_pointer",
     "mangled_component_name":"_ZN7android8hardware4gnss4V1_119BpHwGnssMeasurementD1Ev"
    },
    {
     "kind":"deleting_dtor_pointer",
     "mangled_component_name":"_ZN7android8hardware4gnss4V1_119BpHwGnssMeasurementD0Ev"
    },
    {
     "mangled_component_name":"_ZN7android8hardware4gnss4V1_119BpHwGnssMeasurement11setCallbackERKNS_2spINS1_4V1_024IGnssMeasurementCallbackEEE"
    },
    {
     "mangled_component_name":"_ZN7android8hardware4gnss4V1_119BpHwGnssMeasurement5closeEv"
    },
    {
     "mangled_component_name":"_ZN7android8hardware4gnss4V1_119BpHwGnssMeasurement15setCallback_1_1ERKNS_2spINS2_24IGnssMeasurementCallbackEEEb"
    },
    {
     "mangled_component_name":"_ZN7android8hardware11BpInterfaceINS0_4gnss4V1_116IGnssMeasurementEE10onAsBinderEv"
    },
    {
     "kind":"vbase_offset",
     "component_value":80
    },
    {
     "kind":"offset_to_top",
     "component_value":-4
    },
    {
     "kind":"rtti",
     "mangled_component_name":"_ZTIN7android8hardware4gnss4V1_119BpHwGnssMeasurementE"
    },
    {
     "kind":"complete_dtor_pointer",
     "mangled_component_name":"_ZThn4_N7android8hardware4gnss4V1_119BpHwGnssMeasurementD1Ev"
    },
    {
     "kind":"deleting_dtor_pointer",
     "mangled_component_name":"_ZThn4_N7android8hardware4gnss4V1_119BpHwGnssMeasurementD0Ev"
    },
    {
     "mangled_component_name":"_ZThn4_N7android8hardware11BpInterfaceINS0_4gnss4V1_116IGnssMeasurementEE10onAsBinderEv"
    },
    {
     "kind":"vbase_offset",
     "component_value":76
    },
    {
     "kind":"offset_to_top",
     "component_value":-8
    },
    {
     "kind":"rtti",
     "mangled_component_name":"_ZTIN7android8hardware4gnss4V1_119BpHwGnssMeasurementE"
    },
    {
     "kind":"complete_dtor_pointer",
     "mangled_component_name":"_ZThn8_N7android8hardware4gnss4V1_119BpHwGnssMeasurementD1Ev"
    },
    {
     "kind":"deleting_dtor_pointer",
     "mangled_component_name":"_ZThn8_N7android8hardware4gnss4V1_119BpHwGnssMeasurementD0Ev"
    },
    {
     "mangled_component_name":"_ZN7android8hardware11BpHwRefBase10onFirstRefEv"
    },
    {
     "mangled_component_name":"_ZN7android8hardware11BpHwRefBase15onLastStrongRefEPKv"
    },
    {
     "mangled_component_name":"_ZN7android8hardware11BpHwRefBase20onIncStrongAttemptedEjPKv"
    },
    {
     "kind":"offset_to_top",
     "component_value":-24
    },
    {
     "kind":"rtti",
     "mangled_component_name":"_ZTIN7android8hardware4gnss4V1_119BpHwGnssMeasurementE"
    },
    {
     "kind":"complete_dtor_pointer",
     "mangled_component_name":"_ZThn24_N7android8hardware4gnss4V1_119BpHwGnssMeasurementD1Ev"
    },
    {
     "kind":"deleting_dtor_pointer",
     "mangled_component_name":"_ZThn24_N7android8hardware4gnss4V1_119BpHwGnssMeasurementD0Ev"
    },
    {
     "kind":"vcall_offset"
    },
    {
     "kind":"vcall_offset",
     "component_value":-76
    },
    {
     "kind":"vcall_offset",
     "component_value":-76
    },
    {
     "kind":"vcall_offset",
     "component_value":-76
    },
    {
     "kind":"vcall_offset",
     "component_value":-84
    },
    {
     "kind":"offset_to_top",
     "component_value":-84
    },
    {
     "kind":"rtti",
     "mangled_component_name":"_ZTIN7android8hardware4gnss4V1_119BpHwGnssMeasurementE"
    },
    {
     "kind":"complete_dtor_pointer",
     "mangled_component_name":"_ZTv0_n12_N7android8hardware4gnss4V1_119BpHwGnssMeasurementD1Ev"
    },
    {
     "kind":"deleting_dtor_pointer",
     "mangled_component_name":"_ZTv0_n12_N7android8hardware4gnss4V1_119BpHwGnssMeasurementD0Ev"
    },
    {
     "mangled_component_name":"_ZTv0_n16_N7android8hardware11BpHwRefBase10onFirstRefEv"
    },
    {
     "mangled_component_name":"_ZTv0_n20_N7android8hardware11BpHwRefBase15onLastStrongRefEPKv"
    },
    {
     "mangled_component_name":"_ZTv0_n24_N7android8hardware11BpHwRefBase20onIncStrongAttemptedEjPKv"
    },
    {
     "mangled_component_name":"_ZN7android7RefBase13onLastWeakRefEPKv"
    }
   ],
   "unique_id":"_ZTSN7android8hardware4gnss4V1_119BpHwGnssMeasurementE"
  },
  {
   "vtable_components":[
    {
     "kind":"vbase_offset",
     "component_value":84
    },
    {
     "kind":"offset_to_top"
    },
    {
     "kind":"rtti",
     "mangled_component_name":"_ZTIN7android8hardware4gnss4V1_18BpHwGnssE"
    },
    {
     "mangled_component_name":"_ZNK7android8hardware4gnss4V1_18BpHwGnss8isRemoteEv"
    },
    {
     "mangled_component_name":"_ZN7android8hardware4gnss4V1_18BpHwGnss14interfaceChainENSt3__18functionIFvRKNS0_8hidl_vecINS0_11hidl_stringEEEEEE"
    },
    {
     "mangled_component_name":"_ZN7android8hardware4gnss4V1_18BpHwGnss5debugERKNS0_11hidl_handleERKNS0_8hidl_vecINS0_11hidl_stringEEE"
    },
    {
     "mangled_component_name":"_ZN7android8hardware4gnss4V1_18BpHwGnss19interfaceDescriptorENSt3__18functionIFvRKNS0_11hidl_stringEEEE"
    },
    {
     "mangled_component_name":"_ZN7android8hardware4gnss4V1_18BpHwGnss12getHashChainENSt3__18functionIFvRKNS0_8hidl_vecINS0_10hidl_arrayIhLj32EJEEEEEEEE"
    },
    {
     "mangled_component_name":"_ZN7android8hardware4gnss4V1_18BpHwGnss21setHALInstrumentationEv"
    },
    {
     "mangled_component_name":"_ZN7android8hardware4gnss4V1_18BpHwGnss11linkToDeathERKNS_2spINS0_20hidl_death_recipientEEEy"
    },
    {
     "mangled_component_name":"_ZN7android8hardware4gnss4V1_18BpHwGnss4pingEv"
    },
    {
     "mangled_component_name":"_ZN7android8hardware4gnss4V1_18BpHwGnss12getDebugInfoENSt3__18functionIFvRKNS_4hidl4base4V1_09DebugInfoEEEE"
    },
    {
     "mangled_component_name":"_ZN7android8hardware4gnss4V1_18BpHwGnss21notifySyspropsChangedEv"
    },
    {
     "mangled_component_name":"_ZN7android8hardware4gnss4V1_18BpHwGnss13unlinkToDeathERKNS_2spINS0_20hidl_death_recipientEEE"
    },
    {
     "kind":"complete_dtor_pointer",
     "mangled_component_name":"_ZN7android8hardware4gnss4V1_18BpHwGnssD1Ev"
    },
    {
     "kind":"deleting_dtor_pointer",
     "mangled_component_name":"_ZN7android8hardware4gnss4V1_18BpHwGnssD0Ev"
    },
    {
     "mangled_component_name":"_ZN7android8hardware4gnss4V1_18BpHwGnss11setCallbackERKNS_2spINS1_4V1_013IGnssCallbackEEE"
    },
    {
     "mangled_component_name":"_ZN7android8hardware4gnss4V1_18BpHwGnss5startEv"
    },
    {
     "mangled_component_name":"_ZN7android8hardware4gnss4V1_18BpHwGnss4stopEv"
    },
    {
     "mangled_component_name":"_ZN7android8hardware4gnss4V1_18BpHwGnss7cleanupEv"
    },
    {
     "mangled_component_name":"_ZN7android8hardware4gnss4V1_18BpHwGnss10injectTimeExxi"
    },
    {
     "mangled_component_name":"_ZN7android8hardware4gnss4V1_18BpHwGnss14injectLocationEddf"
    },
    {
     "mangled_component_name":"_ZN7android8hardware4gnss4V1_18BpHwGnss16deleteAidingDataENS1_4V1_05IGnss14GnssAidingDataE"
    },
    {
     "mangled_component_name":"_ZN7android8hardware4gnss4V1_18BpHwGnss15setPositionModeENS1_4V1_05IGnss16GnssPositionModeENS5_22GnssPositionRecurrenceEjjj"
    },
    {
     "mangled_component_name":"_ZN7android8hardware4gnss4V1_18BpHwGnss20getExtensionAGnssRilEv"
    },
    {
     "mangled_component_name":"_ZN7android8hardware4gnss4V1_18BpHwGnss26getExtensionGnssGeofencingEv"
    },
    {
     "mangled_component_name":"_ZN7android8hardware4gnss4V1_18BpHwGnss17getExtensionAGnssEv"
    },
    {
     "mangled_component_name":"_ZN7android8hardware4gnss4V1_18BpHwGnss18getExtensionGnssNiEv"
    },
    {
     "mangled_component_name":"_ZN7android8hardware4gnss4V1_18BpHwGnss27getExtensionGnssMeasurementEv"
    },
    {
     "mangled_component_name":"_ZN7android8hardware4gnss4V1_18BpHwGnss33getExtensionGnssNavigationMessageEv"
    },
    {
     "mangled_component_name":"_ZN7android8hardware4gnss4V1_18BpHwGnss16getExtensionXtraEv"
    },
    {
     "mangled_component_name":"_ZN7android8hardware4gnss4V1_18BpHwGnss29getExtensionGnssConfigurationEv"
    },
    {
     "mangled_component_name":"_ZN7android8hardware4gnss4V1_18BpHwGnss21getExtensionGnssDebugEv"
    },
    {
     "mangled_component_name":"_ZN7android8hardware4gnss4V1_18BpHwGnss24getExtensionGnssBatchingEv"
    },
    {
     "mangled_component_name":"_ZN7android8hardware4gnss4V1_18BpHwGnss15setCallback_1_1ERKNS_2spINS2_13IGnssCallbackEEE"
    },
    {
     "mangled_component_name":"_ZN7android8hardware4gnss4V1_18BpHwGnss19setPositionMode_1_1ENS1_4V1_05IGnss16GnssPositionModeENS5_22GnssPositionRecurrenceEjjjb"
    },
    {
     "mangled_component_name":"_ZN7android8hardware4gnss4V1_18BpHwGnss33getExtensionGnssConfiguration_1_1Ev"
    },
    {
     "mangled_component_name":"_ZN7android8hardware4gnss4V1_18BpHwGnss31getExtensionGnssMeasurement_1_1Ev"
    },
    {
     "mangled_component_name":"_ZN7android8hardware4gnss4V1_18BpHwGnss18injectBestLocationERKNS1_4V1_012GnssLocationE"
    },
    {
     "mangled_component_name":"_ZN7android8hardware11BpInterfaceINS0_4gnss4V1_15IGnssEE10onAsBinderEv"
    },
    {
     "kind":"vbase_offset",
     "component_value":80
    },
    {
     "kind":"offset_to_top",
     "component_value":-4
    },
    {
     "kind":"rtti",
     "mangled_component_name":"_ZTIN7android8hardware4gnss4V1_18BpHwGnssE"
    },
    {
     "kind":"complete_dtor_pointer",
     "mangled_component_name":"_ZThn4_N7android8hardware4gnss4V1_18BpHwGnssD1Ev"
    },
    {
     "kind":"deleting_dtor_pointer",
     "mangled_component_name":"_ZThn4_N7android8hardware4gnss4V1_18BpHwGnssD0Ev"
    },
    {
     "mangled_component_name":"_ZThn4_N7android8hardware11BpInterfaceINS0_4gnss4V1_15IGnssEE10onAsBinderEv"
    },
    {
     "kind":"vbase_offset",
     "component_value":76
    },
    {
     "kind":"offset_to_top",
     "component_value":-8
    },
    {
     "kind":"rtti",
     "mangled_component_name":"_ZTIN7android8hardware4gnss4V1_18BpHwGnssE"
    },
    {
     "kind":"complete_dtor_pointer",
     "mangled_component_name":"_ZThn8_N7android8hardware4gnss4V1_18BpHwGnssD1Ev"
    },
    {
     "kind":"deleting_dtor_pointer",
     "mangled_component_name":"_ZThn8_N7android8hardware4gnss4V1_18BpHwGnssD0Ev"
    },
    {
     "mangled_component_name":"_ZN7android8hardware11BpHwRefBase10onFirstRefEv"
    },
    {
     "mangled_component_name":"_ZN7android8hardware11BpHwRefBase15onLastStrongRefEPKv"
    },
    {
     "mangled_component_name":"_ZN7android8hardware11BpHwRefBase20onIncStrongAttemptedEjPKv"
    },
    {
     "kind":"offset_to_top",
     "component_value":-24
    },
    {
     "kind":"rtti",
     "mangled_component_name":"_ZTIN7android8hardware4gnss4V1_18BpHwGnssE"
    },
    {
     "kind":"complete_dtor_pointer",
     "mangled_component_name":"_ZThn24_N7android8hardware4gnss4V1_18BpHwGnssD1Ev"
    },
    {
     "kind":"deleting_dtor_pointer",
     "mangled_component_name":"_ZThn24_N7android8hardware4gnss4V1_18BpHwGnssD0Ev"
    },
    {
     "kind":"vcall_offset"
    },
    {
     "kind":"vcall_offset",
     "component_value":-76
    },
    {
     "kind":"vcall_offset",
     "component_value":-76
    },
    {
     "kind":"vcall_offset",
     "component_value":-76
    },
    {
     "kind":"vcall_offset",
     "component_value":-84
    },
    {
     "kind":"offset_to_top",
     "component_value":-84
    },
    {
     "kind":"rtti",
     "mangled_component_name":"_ZTIN7android8hardware4gnss4V1_18BpHwGnssE"
    },
    {
     "kind":"complete_dtor_pointer",
     "mangled_component_name":"_ZTv0_n12_N7android8hardware4gnss4V1_18BpHwGnssD1Ev"
    },
    {
     "kind":"deleting_dtor_pointer",
     "mangled_component_name":"_ZTv0_n12_N7android8hardware4gnss4V1_18BpHwGnssD0Ev"
    },
    {
     "mangled_component_name":"_ZTv0_n16_N7android8hardware11BpHwRefBase10onFirstRefEv"
    },
    {
     "mangled_component_name":"_ZTv0_n20_N7android8hardware11BpHwRefBase15onLastStrongRefEPKv"
    },
    {
     "mangled_component_name":"_ZTv0_n24_N7android8hardware11BpHwRefBase20onIncStrongAttemptedEjPKv"
    },
    {
     "mangled_component_name":"_ZN7android7RefBase13onLastWeakRefEPKv"
    }
   ],
   "unique_id":"_ZTSN7android8hardware4gnss4V1_18BpHwGnssE"
  },
  {
   "vtable_components":[
    {
     "kind":"vbase_offset",
     "component_value":60
    },
    {
     "kind":"offset_to_top"
    },
    {
     "kind":"rtti",
     "mangled_component_name":"_ZTIN7android8hardware4gnss4V1_16BsGnssE"
    },
    {
     "mangled_component_name":"_ZNK7android8hardware4gnss4V1_15IGnss8isRemoteEv"
    },
    {
     "mangled_component_name":"_ZN7android8hardware4gnss4V1_16BsGnss14interfaceChainENSt3__18functionIFvRKNS0_8hidl_vecINS0_11hidl_stringEEEEEE"
    },
    {
     "mangled_component_name":"_ZN7android8hardware4gnss4V1_16BsGnss5debugERKNS0_11hidl_handleERKNS0_8hidl_vecINS0_11hidl_stringEEE"
    },
    {
     "mangled_component_name":"_ZN7android8hardware4gnss4V1_16BsGnss19interfaceDescriptorENSt3__18functionIFvRKNS0_11hidl_stringEEEE"
    },
    {
     "mangled_component_name":"_ZN7android8hardware4gnss4V1_16BsGnss12getHashChainENSt3__18functionIFvRKNS0_8hidl_vecINS0_10hidl_arrayIhLj32EJEEEEEEEE"
    },
    {
     "mangled_component_name":"_ZN7android8hardware4gnss4V1_16BsGnss21setHALInstrumentationEv"
    },
    {
     "mangled_component_name":"_ZN7android8hardware4gnss4V1_16BsGnss11linkToDeathERKNS_2spINS0_20hidl_death_recipientEEEy"
    },
    {
     "mangled_component_name":"_ZN7android8hardware4gnss4V1_16BsGnss4pingEv"
    },
    {
     "mangled_component_name":"_ZN7android8hardware4gnss4V1_16BsGnss12getDebugInfoENSt3__18functionIFvRKNS_4hidl4base4V1_09DebugInfoEEEE"
    },
    {
     "mangled_component_name":"_ZN7android8hardware4gnss4V1_16BsGnss21notifySyspropsChangedEv"
    },
    {
     "mangled_component_name":"_ZN7android8hardware4gnss4V1_16BsGnss13unlinkToDeathERKNS_2spINS0_20hidl_death_recipientEEE"
    },
    {
     "kind":"complete_dtor_pointer",
     "mangled_component_name":"_ZN7android8hardware4gnss4V1_16BsGnssD1Ev"
    },
    {
     "kind":"deleting_dtor_pointer",
     "mangled_component_name":"_ZN7android8hardware4gnss4V1_16BsGnssD0Ev"
    },
    {
     "mangled_component_name":"_ZN7android8hardware4gnss4V1_16BsGnss11setCallbackERKNS_2spINS1_4V1_013IGnssCallbackEEE"
    },
    {
     "mangled_component_name":"_ZN7android8hardware4gnss4V1_16BsGnss5startEv"
    },
    {
     "mangled_component_name":"_ZN7android8hardware4gnss4V1_16BsGnss4stopEv"
    },
    {
     "mangled_component_name":"_ZN7android8hardware4gnss4V1_16BsGnss7cleanupEv"
    },
    {
     "mangled_component_name":"_ZN7android8hardware4gnss4V1_16BsGnss10injectTimeExxi"
    },
    {
     "mangled_component_name":"_ZN7android8hardware4gnss4V1_16BsGnss14injectLocationEddf"
    },
    {
     "mangled_component_name":"_ZN7android8hardware4gnss4V1_16BsGnss16deleteAidingDataENS1_4V1_05IGnss14GnssAidingDataE"
    },
    {
     "mangled_component_name":"_ZN7android8hardware4gnss4V1_16BsGnss15setPositionModeENS1_4V1_05IGnss16GnssPositionModeENS5_22GnssPositionRecurrenceEjjj"
    },
    {
     "mangled_component_name":"_ZN7android8hardware4gnss4V1_16BsGnss20getExtensionAGnssRilEv"
    },
    {
     "mangled_component_name":"_ZN7android8hardware4gnss4V1_16BsGnss26getExtensionGnssGeofencingEv"
    },
    {
     "mangled_component_name":"_ZN7android8hardware4gnss4V1_16BsGnss17getExtensionAGnssEv"
    },
    {
     "mangled_component_name":"_ZN7android8hardware4gnss4V1_16BsGnss18getExtensionGnssNiEv"
    },
    {
     "mangled_component_name":"_ZN7android8hardware4gnss4V1_16BsGnss27getExtensionGnssMeasurementEv"
    },
    {
     "mangled_component_name":"_ZN7android8hardware4gnss4V1_16BsGnss33getExtensionGnssNavigationMessageEv"
    },
    {
     "mangled_component_name":"_ZN7android8hardware4gnss4V1_16BsGnss16getExtensionXtraEv"
    },
    {
     "mangled_component_name":"_ZN7android8hardware4gnss4V1_16BsGnss29getExtensionGnssConfigurationEv"
    },
    {
     "mangled_component_name":"_ZN7android8hardware4gnss4V1_16BsGnss21getExtensionGnssDebugEv"
    },
    {
     "mangled_component_name":"_ZN7android8hardware4gnss4V1_16BsGnss24getExtensionGnssBatchingEv"
    },
    {
     "mangled_component_name":"_ZN7android8hardware4gnss4V1_16BsGnss15setCallback_1_1ERKNS_2spINS2_13IGnssCallbackEEE"
    },
    {
     "mangled_component_name":"_ZN7android8hardware4gnss4V1_16BsGnss19setPositionMode_1_1ENS1_4V1_05IGnss16GnssPositionModeENS5_22GnssPositionRecurrenceEjjjb"
    },
    {
     "mangled_component_name":"_ZN7android8hardware4gnss4V1_16BsGnss33getExtensionGnssConfiguration_1_1Ev"
    },
    {
     "mangled_component_name":"_ZN7android8hardware4gnss4V1_16BsGnss31getExtensionGnssMeasurement_1_1Ev"
    },
    {
     "mangled_component_name":"_ZN7android8hardware4gnss4V1_16BsGnss18injectBestLocationERKNS1_4V1_012GnssLocationE"
    },
    {
     "kind":"offset_to_top",
     "component_value":-4
    },
    {
     "kind":"rtti",
     "mangled_component_name":"_ZTIN7android8hardware4gnss4V1_16BsGnssE"
    },
    {
     "kind":"complete_dtor_pointer",
     "mangled_component_name":"_ZThn4_N7android8hardware4gnss4V1_16BsGnssD1Ev"
    },
    {
     "kind":"deleting_dtor_pointer",
     "mangled_component_name":"_ZThn4_N7android8hardware4gnss4V1_16BsGnssD0Ev"
    },
    {
     "kind":"vcall_offset"
    },
    {
     "kind":"vcall_offset"
    },
    {
     "kind":"vcall_offset"
    },
    {
     "kind":"vcall_offset"
    },
    {
     "kind":"vcall_offset",
     "component_value":-60
    },
    {
     "kind":"offset_to_top",
     "component_value":-60
    },
    {
     "kind":"rtti",
     "mangled_component_name":"_ZTIN7android8hardware4gnss4V1_16BsGnssE"
    },
    {
     "kind":"complete_dtor_pointer",
     "mangled_component_name":"_ZTv0_n12_N7android8hardware4gnss4V1_16BsGnssD1Ev"
    },
    {
     "kind":"deleting_dtor_pointer",
     "mangled_component_name":"_ZTv0_n12_N7android8hardware4gnss4V1_16BsGnssD0Ev"
    },
    {
     "mangled_component_name":"_ZN7android7RefBase10onFirstRefEv"
    },
    {
     "mangled_component_name":"_ZN7android7RefBase15onLastStrongRefEPKv"
    },
    {
     "mangled_component_name":"_ZN7android7RefBase20onIncStrongAttemptedEjPKv"
    },
    {
     "mangled_component_name":"_ZN7android7RefBase13onLastWeakRefEPKv"
    }
   ],
   "unique_id":"_ZTSN7android8hardware4gnss4V1_16BsGnssE"
  },
  {
   "vtable_components":[
    {
     "kind":"vbase_offset",
     "component_value":4
    },
    {
     "kind":"offset_to_top"
    },
    {
     "kind":"rtti",
     "mangled_component_name":"_ZTIN7android8hardware4gnss4V1_118IGnssConfigurationE"
    },
    {
     "mangled_component_name":"_ZNK7android8hardware4gnss4V1_118IGnssConfiguration8isRemoteEv"
    },
    {
     "mangled_component_name":"_ZN7android8hardware4gnss4V1_118IGnssConfiguration14interfaceChainENSt3__18functionIFvRKNS0_8hidl_vecINS0_11hidl_stringEEEEEE"
    },
    {
     "mangled_component_name":"_ZN7android8hardware4gnss4V1_118IGnssConfiguration5debugERKNS0_11hidl_handleERKNS0_8hidl_vecINS0_11hidl_stringEEE"
    },
    {
     "mangled_component_name":"_ZN7android8hardware4gnss4V1_118IGnssConfiguration19interfaceDescriptorENSt3__18functionIFvRKNS0_11hidl_stringEEEE"
    },
    {
     "mangled_component_name":"_ZN7android8hardware4gnss4V1_118IGnssConfiguration12getHashChainENSt3__18functionIFvRKNS0_8hidl_vecINS0_10hidl_arrayIhLj32EJEEEEEEEE"
    },
    {
     "mangled_component_name":"_ZN7android8hardware4gnss4V1_118IGnssConfiguration21setHALInstrumentationEv"
    },
    {
     "mangled_component_name":"_ZN7android8hardware4gnss4V1_118IGnssConfiguration11linkToDeathERKNS_2spINS0_20hidl_death_recipientEEEy"
    },
    {
     "mangled_component_name":"_ZN7android8hardware4gnss4V1_118IGnssConfiguration4pingEv"
    },
    {
     "mangled_component_name":"_ZN7android8hardware4gnss4V1_118IGnssConfiguration12getDebugInfoENSt3__18functionIFvRKNS_4hidl4base4V1_09DebugInfoEEEE"
    },
    {
     "mangled_component_name":"_ZN7android8hardware4gnss4V1_118IGnssConfiguration21notifySyspropsChangedEv"
    },
    {
     "mangled_component_name":"_ZN7android8hardware4gnss4V1_118IGnssConfiguration13unlinkToDeathERKNS_2spINS0_20hidl_death_recipientEEE"
    },
    {
     "kind":"complete_dtor_pointer",
     "mangled_component_name":"_ZN7android8hardware4gnss4V1_118IGnssConfigurationD1Ev"
    },
    {
     "kind":"deleting_dtor_pointer",
     "mangled_component_name":"_ZN7android8hardware4gnss4V1_118IGnssConfigurationD0Ev"
    },
    {
     "is_pure":true,
     "mangled_component_name":"_ZN7android8hardware4gnss4V1_118IGnssConfiguration9setSuplEsEb"
    },
    {
     "is_pure":true,
     "mangled_component_name":"_ZN7android8hardware4gnss4V1_118IGnssConfiguration14setSuplVersionEj"
    },
    {
     "is_pure":true,
     "mangled_component_name":"_ZN7android8hardware4gnss4V1_118IGnssConfiguration11setSuplModeEh"
    },
    {
     "is_pure":true,
     "mangled_component_name":"_ZN7android8hardware4gnss4V1_118IGnssConfiguration10setGpsLockEh"
    },
    {
     "is_pure":true,
     "mangled_component_name":"_ZN7android8hardware4gnss4V1_118IGnssConfiguration13setLppProfileEh"
    },
    {
     "is_pure":true,
     "mangled_component_name":"_ZN7android8hardware4gnss4V1_118IGnssConfiguration29setGlonassPositioningProtocolEh"
    },
    {
     "is_pure":true,
     "mangled_component_name":"_ZN7android8hardware4gnss4V1_118IGnssConfiguration19setEmergencySuplPdnEb"
    },
    {
     "is_pure":true,
     "mangled_component_name":"_ZN7android8hardware4gnss4V1_118IGnssConfiguration12setBlacklistERKNS0_8hidl_vecINS3_17BlacklistedSourceEEE"
    },
    {
     "kind":"vcall_offset"
    },
    {
     "kind":"vcall_offset"
    },
    {
     "kind":"vcall_offset"
    },
    {
     "kind":"vcall_offset"
    },
    {
     "kind":"vcall_offset",
     "component_value":-4
    },
    {
     "kind":"offset_to_top",
     "component_value":-4
    },
    {
     "kind":"rtti",
     "mangled_component_name":"_ZTIN7android8hardware4gnss4V1_118IGnssConfigurationE"
    },
    {
     "kind":"complete_dtor_pointer",
     "mangled_component_name":"_ZTv0_n12_N7android8hardware4gnss4V1_118IGnssConfigurationD1Ev"
    },
    {
     "kind":"deleting_dtor_pointer",
     "mangled_component_name":"_ZTv0_n12_N7android8hardware4gnss4V1_118IGnssConfigurationD0Ev"
    },
    {
     "mangled_component_name":"_ZN7android7RefBase10onFirstRefEv"
    },
    {
     "mangled_component_name":"_ZN7android7RefBase15onLastStrongRefEPKv"
    },
    {
     "mangled_component_name":"_ZN7android7RefBase20onIncStrongAttemptedEjPKv"
    },
    {
     "mangled_component_name":"_ZN7android7RefBase13onLastWeakRefEPKv"
    }
   ],
   "unique_id":"_ZTSN7android8hardware4gnss4V1_118IGnssConfigurationE"
  },
  {
   "vtable_components":[
    {
     "kind":"vbase_offset",
     "component_value":4
    },
    {
     "kind":"offset_to_top"
    },
    {
     "kind":"rtti",
     "mangled_component_name":"_ZTIN7android8hardware4gnss4V1_116IGnssMeasurementE"
    },
    {
     "mangled_component_name":"_ZNK7android8hardware4gnss4V1_116IGnssMeasurement8isRemoteEv"
    },
    {
     "mangled_component_name":"_ZN7android8hardware4gnss4V1_116IGnssMeasurement14interfaceChainENSt3__18functionIFvRKNS0_8hidl_vecINS0_11hidl_stringEEEEEE"
    },
    {
     "mangled_component_name":"_ZN7android8hardware4gnss4V1_116IGnssMeasurement5debugERKNS0_11hidl_handleERKNS0_8hidl_vecINS0_11hidl_stringEEE"
    },
    {
     "mangled_component_name":"_ZN7android8hardware4gnss4V1_116IGnssMeasurement19interfaceDescriptorENSt3__18functionIFvRKNS0_11hidl_stringEEEE"
    },
    {
     "mangled_component_name":"_ZN7android8hardware4gnss4V1_116IGnssMeasurement12getHashChainENSt3__18functionIFvRKNS0_8hidl_vecINS0_10hidl_arrayIhLj32EJEEEEEEEE"
    },
    {
     "mangled_component_name":"_ZN7android8hardware4gnss4V1_116IGnssMeasurement21setHALInstrumentationEv"
    },
    {
     "mangled_component_name":"_ZN7android8hardware4gnss4V1_116IGnssMeasurement11linkToDeathERKNS_2spINS0_20hidl_death_recipientEEEy"
    },
    {
     "mangled_component_name":"_ZN7android8hardware4gnss4V1_116IGnssMeasurement4pingEv"
    },
    {
     "mangled_component_name":"_ZN7android8hardware4gnss4V1_116IGnssMeasurement12getDebugInfoENSt3__18functionIFvRKNS_4hidl4base4V1_09DebugInfoEEEE"
    },
    {
     "mangled_component_name":"_ZN7android8hardware4gnss4V1_116IGnssMeasurement21notifySyspropsChangedEv"
    },
    {
     "mangled_component_name":"_ZN7android8hardware4gnss4V1_116IGnssMeasurement13unlinkToDeathERKNS_2spINS0_20hidl_death_recipientEEE"
    },
    {
     "kind":"complete_dtor_pointer",
     "mangled_component_name":"_ZN7android8hardware4gnss4V1_116IGnssMeasurementD1Ev"
    },
    {
     "kind":"deleting_dtor_pointer",
     "mangled_component_name":"_ZN7android8hardware4gnss4V1_116IGnssMeasurementD0Ev"
    },
    {
     "is_pure":true,
     "mangled_component_name":"_ZN7android8hardware4gnss4V1_116IGnssMeasurement11setCallbackERKNS_2spINS1_4V1_024IGnssMeasurementCallbackEEE"
    },
    {
     "is_pure":true,
     "mangled_component_name":"_ZN7android8hardware4gnss4V1_116IGnssMeasurement5closeEv"
    },
    {
     "is_pure":true,
     "mangled_component_name":"_ZN7android8hardware4gnss4V1_116IGnssMeasurement15setCallback_1_1ERKNS_2spINS2_24IGnssMeasurementCallbackEEEb"
    },
    {
     "kind":"vcall_offset"
    },
    {
     "kind":"vcall_offset"
    },
    {
     "kind":"vcall_offset"
    },
    {
     "kind":"vcall_offset"
    },
    {
     "kind":"vcall_offset",
     "component_value":-4
    },
    {
     "kind":"offset_to_top",
     "component_value":-4
    },
    {
     "kind":"rtti",
     "mangled_component_name":"_ZTIN7android8hardware4gnss4V1_116IGnssMeasurementE"
    },
    {
     "kind":"complete_dtor_pointer",
     "mangled_component_name":"_ZTv0_n12_N7android8hardware4gnss4V1_116IGnssMeasurementD1Ev"
    },
    {
     "kind":"deleting_dtor_pointer",
     "mangled_component_name":"_ZTv0_n12_N7android8hardware4gnss4V1_116IGnssMeasurementD0Ev"
    },
    {
     "mangled_component_name":"_ZN7android7RefBase10onFirstRefEv"
    },
    {
     "mangled_component_name":"_ZN7android7RefBase15onLastStrongRefEPKv"
    },
    {
     "mangled_component_name":"_ZN7android7RefBase20onIncStrongAttemptedEjPKv"
    },
    {
     "mangled_component_name":"_ZN7android7RefBase13onLastWeakRefEPKv"
    }
   ],
   "unique_id":"_ZTSN7android8hardware4gnss4V1_116IGnssMeasurementE"
  },
  {
   "vtable_components":[
    {
     "kind":"vbase_offset",
     "component_value":4
    },
    {
     "kind":"offset_to_top"
    },
    {
     "kind":"rtti",
     "mangled_component_name":"_ZTIN7android8hardware4gnss4V1_15IGnssE"
    },
    {
     "mangled_component_name":"_ZNK7android8hardware4gnss4V1_15IGnss8isRemoteEv"
    },
    {
     "mangled_component_name":"_ZN7android8hardware4gnss4V1_15IGnss14interfaceChainENSt3__18functionIFvRKNS0_8hidl_vecINS0_11hidl_stringEEEEEE"
    },
    {
     "mangled_component_name":"_ZN7android8hardware4gnss4V1_15IGnss5debugERKNS0_11hidl_handleERKNS0_8hidl_vecINS0_11hidl_stringEEE"
    },
    {
     "mangled_component_name":"_ZN7android8hardware4gnss4V1_15IGnss19interfaceDescriptorENSt3__18functionIFvRKNS0_11hidl_stringEEEE"
    },
    {
     "mangled_component_name":"_ZN7android8hardware4gnss4V1_15IGnss12getHashChainENSt3__18functionIFvRKNS0_8hidl_vecINS0_10hidl_arrayIhLj32EJEEEEEEEE"
    },
    {
     "mangled_component_name":"_ZN7android8hardware4gnss4V1_15IGnss21setHALInstrumentationEv"
    },
    {
     "mangled_component_name":"_ZN7android8hardware4gnss4V1_15IGnss11linkToDeathERKNS_2spINS0_20hidl_death_recipientEEEy"
    },
    {
     "mangled_component_name":"_ZN7android8hardware4gnss4V1_15IGnss4pingEv"
    },
    {
     "mangled_component_name":"_ZN7android8hardware4gnss4V1_15IGnss12getDebugInfoENSt3__18functionIFvRKNS_4hidl4base4V1_09DebugInfoEEEE"
    },
    {
     "mangled_component_name":"_ZN7android8hardware4gnss4V1_15IGnss21notifySyspropsChangedEv"
    },
    {
     "mangled_component_name":"_ZN7android8hardware4gnss4V1_15IGnss13unlinkToDeathERKNS_2spINS0_20hidl_death_recipientEEE"
    },
    {
     "kind":"complete_dtor_pointer",
     "mangled_component_name":"_ZN7android8hardware4gnss4V1_15IGnssD1Ev"
    },
    {
     "kind":"deleting_dtor_pointer",
     "mangled_component_name":"_ZN7android8hardware4gnss4V1_15IGnssD0Ev"
    },
    {
     "is_pure":true,
     "mangled_component_name":"_ZN7android8hardware4gnss4V1_15IGnss11setCallbackERKNS_2spINS1_4V1_013IGnssCallbackEEE"
    },
    {
     "is_pure":true,
     "mangled_component_name":"_ZN7android8hardware4gnss4V1_15IGnss5startEv"
    },
    {
     "is_pure":true,
     "mangled_component_name":"_ZN7android8hardware4gnss4V1_15IGnss4stopEv"
    },
    {
     "is_pure":true,
     "mangled_component_name":"_ZN7android8hardware4gnss4V1_15IGnss7cleanupEv"
    },
    {
     "is_pure":true,
     "mangled_component_name":"_ZN7android8hardware4gnss4V1_15IGnss10injectTimeExxi"
    },
    {
     "is_pure":true,
     "mangled_component_name":"_ZN7android8hardware4gnss4V1_15IGnss14injectLocationEddf"
    },
    {
     "is_pure":true,
     "mangled_component_name":"_ZN7android8hardware4gnss4V1_15IGnss16deleteAidingDataENS1_4V1_05IGnss14GnssAidingDataE"
    },
    {
     "is_pure":true,
     "mangled_component_name":"_ZN7android8hardware4gnss4V1_15IGnss15setPositionModeENS1_4V1_05IGnss16GnssPositionModeENS5_22GnssPositionRecurrenceEjjj"
    },
    {
     "is_pure":true,
     "mangled_component_name":"_ZN7android8hardware4gnss4V1_15IGnss20getExtensionAGnssRilEv"
    },
    {
     "is_pure":true,
     "mangled_component_name":"_ZN7android8hardware4gnss4V1_15IGnss26getExtensionGnssGeofencingEv"
    },
    {
     "is_pure":true,
     "mangled_component_name":"_ZN7android8hardware4gnss4V1_15IGnss17getExtensionAGnssEv"
    },
    {
     "is_pure":true,
     "mangled_component_name":"_ZN7android8hardware4gnss4V1_15IGnss18getExtensionGnssNiEv"
    },
    {
     "is_pure":true,
     "mangled_component_name":"_ZN7android8hardware4gnss4V1_15IGnss27getExtensionGnssMeasurementEv"
    },
    {
     "is_pure":true,
     "mangled_component_name":"_ZN7android8hardware4gnss4V1_15IGnss33getExtensionGnssNavigationMessageEv"
    },
    {
     "is_pure":true,
     "mangled_component_name":"_ZN7android8hardware4gnss4V1_15IGnss16getExtensionXtraEv"
    },
    {
     "is_pure":true,
     "mangled_component_name":"_ZN7android8hardware4gnss4V1_15IGnss29getExtensionGnssConfigurationEv"
    },
    {
     "is_pure":true,
     "mangled_component_name":"_ZN7android8hardware4gnss4V1_15IGnss21getExtensionGnssDebugEv"
    },
    {
     "is_pure":true,
     "mangled_component_name":"_ZN7android8hardware4gnss4V1_15IGnss24getExtensionGnssBatchingEv"
    },
    {
     "is_pure":true,
     "mangled_component_name":"_ZN7android8hardware4gnss4V1_15IGnss15setCallback_1_1ERKNS_2spINS2_13IGnssCallbackEEE"
    },
    {
     "is_pure":true,
     "mangled_component_name":"_ZN7android8hardware4gnss4V1_15IGnss19setPositionMode_1_1ENS1_4V1_05IGnss16GnssPositionModeENS5_22GnssPositionRecurrenceEjjjb"
    },
    {
     "is_pure":true,
     "mangled_component_name":"_ZN7android8hardware4gnss4V1_15IGnss33getExtensionGnssConfiguration_1_1Ev"
    },
    {
     "is_pure":true,
     "mangled_component_name":"_ZN7android8hardware4gnss4V1_15IGnss31getExtensionGnssMeasurement_1_1Ev"
    },
    {
     "is_pure":true,
     "mangled_component_name":"_ZN7android8hardware4gnss4V1_15IGnss18injectBestLocationERKNS1_4V1_012GnssLocationE"
    },
    {
     "kind":"vcall_offset"
    },
    {
     "kind":"vcall_offset"
    },
    {
     "kind":"vcall_offset"
    },
    {
     "kind":"vcall_offset"
    },
    {
     "kind":"vcall_offset",
     "component_value":-4
    },
    {
     "kind":"offset_to_top",
     "component_value":-4
    },
    {
     "kind":"rtti",
     "mangled_component_name":"_ZTIN7android8hardware4gnss4V1_15IGnssE"
    },
    {
     "kind":"complete_dtor_pointer",
     "mangled_component_name":"_ZTv0_n12_N7android8hardware4gnss4V1_15IGnssD1Ev"
    },
    {
     "kind":"deleting_dtor_pointer",
     "mangled_component_name":"_ZTv0_n12_N7android8hardware4gnss4V1_15IGnssD0Ev"
    },
    {
     "mangled_component_name":"_ZN7android7RefBase10onFirstRefEv"
    },
    {
     "mangled_component_name":"_ZN7android7RefBase15onLastStrongRefEPKv"
    },
    {
     "mangled_component_name":"_ZN7android7RefBase20onIncStrongAttemptedEjPKv"
    },
    {
     "mangled_component_name":"_ZN7android7RefBase13onLastWeakRefEPKv"
    }
   ],
   "unique_id":"_ZTSN7android8hardware4gnss4V1_15IGnssE"
  },
  {
   "vtable_components":[
    {
     "kind":"vbase_offset",
     "component_value":60
    },
    {
     "kind":"offset_to_top"
    },
    {
     "kind":"rtti",
     "mangled_component_name":"_ZTIN7android8hardware4gnss4V1_114BsGnssCallbackE"
    },
    {
     "mangled_component_name":"_ZNK7android8hardware4gnss4V1_113IGnssCallback8isRemoteEv"
    },
    {
     "mangled_component_name":"_ZN7android8hardware4gnss4V1_114BsGnssCallback14interfaceChainENSt3__18functionIFvRKNS0_8hidl_vecINS0_11hidl_stringEEEEEE"
    },
    {
     "mangled_component_name":"_ZN7android8hardware4gnss4V1_114BsGnssCallback5debugERKNS0_11hidl_handleERKNS0_8hidl_vecINS0_11hidl_stringEEE"
    },
    {
     "mangled_component_name":"_ZN7android8hardware4gnss4V1_114BsGnssCallback19interfaceDescriptorENSt3__18functionIFvRKNS0_11hidl_stringEEEE"
    },
    {
     "mangled_component_name":"_ZN7android8hardware4gnss4V1_114BsGnssCallback12getHashChainENSt3__18functionIFvRKNS0_8hidl_vecINS0_10hidl_arrayIhLj32EJEEEEEEEE"
    },
    {
     "mangled_component_name":"_ZN7android8hardware4gnss4V1_114BsGnssCallback21setHALInstrumentationEv"
    },
    {
     "mangled_component_name":"_ZN7android8hardware4gnss4V1_114BsGnssCallback11linkToDeathERKNS_2spINS0_20hidl_death_recipientEEEy"
    },
    {
     "mangled_component_name":"_ZN7android8hardware4gnss4V1_114BsGnssCallback4pingEv"
    },
    {
     "mangled_component_name":"_ZN7android8hardware4gnss4V1_114BsGnssCallback12getDebugInfoENSt3__18functionIFvRKNS_4hidl4base4V1_09DebugInfoEEEE"
    },
    {
     "mangled_component_name":"_ZN7android8hardware4gnss4V1_114BsGnssCallback21notifySyspropsChangedEv"
    },
    {
     "mangled_component_name":"_ZN7android8hardware4gnss4V1_114BsGnssCallback13unlinkToDeathERKNS_2spINS0_20hidl_death_recipientEEE"
    },
    {
     "kind":"complete_dtor_pointer",
     "mangled_component_name":"_ZN7android8hardware4gnss4V1_114BsGnssCallbackD1Ev"
    },
    {
     "kind":"deleting_dtor_pointer",
     "mangled_component_name":"_ZN7android8hardware4gnss4V1_114BsGnssCallbackD0Ev"
    },
    {
     "mangled_component_name":"_ZN7android8hardware4gnss4V1_114BsGnssCallback14gnssLocationCbERKNS1_4V1_012GnssLocationE"
    },
    {
     "mangled_component_name":"_ZN7android8hardware4gnss4V1_114BsGnssCallback12gnssStatusCbENS1_4V1_013IGnssCallback15GnssStatusValueE"
    },
    {
     "mangled_component_name":"_ZN7android8hardware4gnss4V1_114BsGnssCallback14gnssSvStatusCbERKNS1_4V1_013IGnssCallback12GnssSvStatusE"
    },
    {
     "mangled_component_name":"_ZN7android8hardware4gnss4V1_114BsGnssCallback10gnssNmeaCbExRKNS0_11hidl_stringE"
    },
    {
     "mangled_component_name":"_ZN7android8hardware4gnss4V1_114BsGnssCallback20gnssSetCapabilitesCbEj"
    },
    {
     "mangled_component_name":"_ZN7android8hardware4gnss4V1_114BsGnssCallback21gnssAcquireWakelockCbEv"
    },
    {
     "mangled_component_name":"_ZN7android8hardware4gnss4V1_114BsGnssCallback21gnssReleaseWakelockCbEv"
    },
    {
     "mangled_component_name":"_ZN7android8hardware4gnss4V1_114BsGnssCallback17gnssRequestTimeCbEv"
    },
    {
     "mangled_component_name":"_ZN7android8hardware4gnss4V1_114BsGnssCallback19gnssSetSystemInfoCbERKNS1_4V1_013IGnssCallback14GnssSystemInfoE"
    },
    {
     "mangled_component_name":"_ZN7android8hardware4gnss4V1_114BsGnssCallback10gnssNameCbERKNS0_11hidl_stringE"
    },
    {
     "mangled_component_name":"_ZN7android8hardware4gnss4V1_114BsGnssCallback21gnssRequestLocationCbEb"
    },
    {
     "kind":"offset_to_top",
     "component_value":-4
    },
    {
     "kind":"rtti",
     "mangled_component_name":"_ZTIN7android8hardware4gnss4V1_114BsGnssCallbackE"
    },
    {
     "kind":"complete_dtor_pointer",
     "mangled_component_name":"_ZThn4_N7android8hardware4gnss4V1_114BsGnssCallbackD1Ev"
    },
    {
     "kind":"deleting_dtor_pointer",
     "mangled_component_name":"_ZThn4_N7android8hardware4gnss4V1_114BsGnssCallbackD0Ev"
    },
    {
     "kind":"vcall_offset"
    },
    {
     "kind":"vcall_offset"
    },
    {
     "kind":"vcall_offset"
    },
    {
     "kind":"vcall_offset"
    },
    {
     "kind":"vcall_offset",
     "component_value":-60
    },
    {
     "kind":"offset_to_top",
     "component_value":-60
    },
    {
     "kind":"rtti",
     "mangled_component_name":"_ZTIN7android8hardware4gnss4V1_114BsGnssCallbackE"
    },
    {
     "kind":"complete_dtor_pointer",
     "mangled_component_name":"_ZTv0_n12_N7android8hardware4gnss4V1_114BsGnssCallbackD1Ev"
    },
    {
     "kind":"deleting_dtor_pointer",
     "mangled_component_name":"_ZTv0_n12_N7android8hardware4gnss4V1_114BsGnssCallbackD0Ev"
    },
    {
     "mangled_component_name":"_ZN7android7RefBase10onFirstRefEv"
    },
    {
     "mangled_component_name":"_ZN7android7RefBase15onLastStrongRefEPKv"
    },
    {
     "mangled_component_name":"_ZN7android7RefBase20onIncStrongAttemptedEjPKv"
    },
    {
     "mangled_component_name":"_ZN7android7RefBase13onLastWeakRefEPKv"
    }
   ],
   "unique_id":"_ZTSN7android8hardware4gnss4V1_114BsGnssCallbackE"
  },
  {
   "vtable_components":[
    {
     "kind":"vbase_offset",
     "component_value":4
    },
    {
     "kind":"offset_to_top"
    },
    {
     "kind":"rtti",
     "mangled_component_name":"_ZTIN7android8hardware4gnss4V1_113IGnssCallbackE"
    },
    {
     "mangled_component_name":"_ZNK7android8hardware4gnss4V1_113IGnssCallback8isRemoteEv"
    },
    {
     "mangled_component_name":"_ZN7android8hardware4gnss4V1_113IGnssCallback14interfaceChainENSt3__18functionIFvRKNS0_8hidl_vecINS0_11hidl_stringEEEEEE"
    },
    {
     "mangled_component_name":"_ZN7android8hardware4gnss4V1_113IGnssCallback5debugERKNS0_11hidl_handleERKNS0_8hidl_vecINS0_11hidl_stringEEE"
    },
    {
     "mangled_component_name":"_ZN7android8hardware4gnss4V1_113IGnssCallback19interfaceDescriptorENSt3__18functionIFvRKNS0_11hidl_stringEEEE"
    },
    {
     "mangled_component_name":"_ZN7android8hardware4gnss4V1_113IGnssCallback12getHashChainENSt3__18functionIFvRKNS0_8hidl_vecINS0_10hidl_arrayIhLj32EJEEEEEEEE"
    },
    {
     "mangled_component_name":"_ZN7android8hardware4gnss4V1_113IGnssCallback21setHALInstrumentationEv"
    },
    {
     "mangled_component_name":"_ZN7android8hardware4gnss4V1_113IGnssCallback11linkToDeathERKNS_2spINS0_20hidl_death_recipientEEEy"
    },
    {
     "mangled_component_name":"_ZN7android8hardware4gnss4V1_113IGnssCallback4pingEv"
    },
    {
     "mangled_component_name":"_ZN7android8hardware4gnss4V1_113IGnssCallback12getDebugInfoENSt3__18functionIFvRKNS_4hidl4base4V1_09DebugInfoEEEE"
    },
    {
     "mangled_component_name":"_ZN7android8hardware4gnss4V1_113IGnssCallback21notifySyspropsChangedEv"
    },
    {
     "mangled_component_name":"_ZN7android8hardware4gnss4V1_113IGnssCallback13unlinkToDeathERKNS_2spINS0_20hidl_death_recipientEEE"
    },
    {
     "kind":"complete_dtor_pointer",
     "mangled_component_name":"_ZN7android8hardware4gnss4V1_113IGnssCallbackD1Ev"
    },
    {
     "kind":"deleting_dtor_pointer",
     "mangled_component_name":"_ZN7android8hardware4gnss4V1_113IGnssCallbackD0Ev"
    },
    {
     "is_pure":true,
     "mangled_component_name":"_ZN7android8hardware4gnss4V1_113IGnssCallback14gnssLocationCbERKNS1_4V1_012GnssLocationE"
    },
    {
     "is_pure":true,
     "mangled_component_name":"_ZN7android8hardware4gnss4V1_113IGnssCallback12gnssStatusCbENS1_4V1_013IGnssCallback15GnssStatusValueE"
    },
    {
     "is_pure":true,
     "mangled_component_name":"_ZN7android8hardware4gnss4V1_113IGnssCallback14gnssSvStatusCbERKNS1_4V1_013IGnssCallback12GnssSvStatusE"
    },
    {
     "is_pure":true,
     "mangled_component_name":"_ZN7android8hardware4gnss4V1_113IGnssCallback10gnssNmeaCbExRKNS0_11hidl_stringE"
    },
    {
     "is_pure":true,
     "mangled_component_name":"_ZN7android8hardware4gnss4V1_113IGnssCallback20gnssSetCapabilitesCbEj"
    },
    {
     "is_pure":true,
     "mangled_component_name":"_ZN7android8hardware4gnss4V1_113IGnssCallback21gnssAcquireWakelockCbEv"
    },
    {
     "is_pure":true,
     "mangled_component_name":"_ZN7android8hardware4gnss4V1_113IGnssCallback21gnssReleaseWakelockCbEv"
    },
    {
     "is_pure":true,
     "mangled_component_name":"_ZN7android8hardware4gnss4V1_113IGnssCallback17gnssRequestTimeCbEv"
    },
    {
     "is_pure":true,
     "mangled_component_name":"_ZN7android8hardware4gnss4V1_113IGnssCallback19gnssSetSystemInfoCbERKNS1_4V1_013IGnssCallback14GnssSystemInfoE"
    },
    {
     "is_pure":true,
     "mangled_component_name":"_ZN7android8hardware4gnss4V1_113IGnssCallback10gnssNameCbERKNS0_11hidl_stringE"
    },
    {
     "is_pure":true,
     "mangled_component_name":"_ZN7android8hardware4gnss4V1_113IGnssCallback21gnssRequestLocationCbEb"
    },
    {
     "kind":"vcall_offset"
    },
    {
     "kind":"vcall_offset"
    },
    {
     "kind":"vcall_offset"
    },
    {
     "kind":"vcall_offset"
    },
    {
     "kind":"vcall_offset",
     "component_value":-4
    },
    {
     "kind":"offset_to_top",
     "component_value":-4
    },
    {
     "kind":"rtti",
     "mangled_component_name":"_ZTIN7android8hardware4gnss4V1_113IGnssCallbackE"
    },
    {
     "kind":"complete_dtor_pointer",
     "mangled_component_name":"_ZTv0_n12_N7android8hardware4gnss4V1_113IGnssCallbackD1Ev"
    },
    {
     "kind":"deleting_dtor_pointer",
     "mangled_component_name":"_ZTv0_n12_N7android8hardware4gnss4V1_113IGnssCallbackD0Ev"
    },
    {
     "mangled_component_name":"_ZN7android7RefBase10onFirstRefEv"
    },
    {
     "mangled_component_name":"_ZN7android7RefBase15onLastStrongRefEPKv"
    },
    {
     "mangled_component_name":"_ZN7android7RefBase20onIncStrongAttemptedEjPKv"
    },
    {
     "mangled_component_name":"_ZN7android7RefBase13onLastWeakRefEPKv"
    }
   ],
   "unique_id":"_ZTSN7android8hardware4gnss4V1_113IGnssCallbackE"
  },
  {
   "vtable_components":[
    {
     "kind":"vbase_offset",
     "component_value":60
    },
    {
     "kind":"offset_to_top"
    },
    {
     "kind":"rtti",
     "mangled_component_name":"_ZTIN7android8hardware4gnss4V1_119BsGnssConfigurationE"
    },
    {
     "mangled_component_name":"_ZNK7android8hardware4gnss4V1_118IGnssConfiguration8isRemoteEv"
    },
    {
     "mangled_component_name":"_ZN7android8hardware4gnss4V1_119BsGnssConfiguration14interfaceChainENSt3__18functionIFvRKNS0_8hidl_vecINS0_11hidl_stringEEEEEE"
    },
    {
     "mangled_component_name":"_ZN7android8hardware4gnss4V1_119BsGnssConfiguration5debugERKNS0_11hidl_handleERKNS0_8hidl_vecINS0_11hidl_stringEEE"
    },
    {
     "mangled_component_name":"_ZN7android8hardware4gnss4V1_119BsGnssConfiguration19interfaceDescriptorENSt3__18functionIFvRKNS0_11hidl_stringEEEE"
    },
    {
     "mangled_component_name":"_ZN7android8hardware4gnss4V1_119BsGnssConfiguration12getHashChainENSt3__18functionIFvRKNS0_8hidl_vecINS0_10hidl_arrayIhLj32EJEEEEEEEE"
    },
    {
     "mangled_component_name":"_ZN7android8hardware4gnss4V1_119BsGnssConfiguration21setHALInstrumentationEv"
    },
    {
     "mangled_component_name":"_ZN7android8hardware4gnss4V1_119BsGnssConfiguration11linkToDeathERKNS_2spINS0_20hidl_death_recipientEEEy"
    },
    {
     "mangled_component_name":"_ZN7android8hardware4gnss4V1_119BsGnssConfiguration4pingEv"
    },
    {
     "mangled_component_name":"_ZN7android8hardware4gnss4V1_119BsGnssConfiguration12getDebugInfoENSt3__18functionIFvRKNS_4hidl4base4V1_09DebugInfoEEEE"
    },
    {
     "mangled_component_name":"_ZN7android8hardware4gnss4V1_119BsGnssConfiguration21notifySyspropsChangedEv"
    },
    {
     "mangled_component_name":"_ZN7android8hardware4gnss4V1_119BsGnssConfiguration13unlinkToDeathERKNS_2spINS0_20hidl_death_recipientEEE"
    },
    {
     "kind":"complete_dtor_pointer",
     "mangled_component_name":"_ZN7android8hardware4gnss4V1_119BsGnssConfigurationD1Ev"
    },
    {
     "kind":"deleting_dtor_pointer",
     "mangled_component_name":"_ZN7android8hardware4gnss4V1_119BsGnssConfigurationD0Ev"
    },
    {
     "mangled_component_name":"_ZN7android8hardware4gnss4V1_119BsGnssConfiguration9setSuplEsEb"
    },
    {
     "mangled_component_name":"_ZN7android8hardware4gnss4V1_119BsGnssConfiguration14setSuplVersionEj"
    },
    {
     "mangled_component_name":"_ZN7android8hardware4gnss4V1_119BsGnssConfiguration11setSuplModeEh"
    },
    {
     "mangled_component_name":"_ZN7android8hardware4gnss4V1_119BsGnssConfiguration10setGpsLockEh"
    },
    {
     "mangled_component_name":"_ZN7android8hardware4gnss4V1_119BsGnssConfiguration13setLppProfileEh"
    },
    {
     "mangled_component_name":"_ZN7android8hardware4gnss4V1_119BsGnssConfiguration29setGlonassPositioningProtocolEh"
    },
    {
     "mangled_component_name":"_ZN7android8hardware4gnss4V1_119BsGnssConfiguration19setEmergencySuplPdnEb"
    },
    {
     "mangled_component_name":"_ZN7android8hardware4gnss4V1_119BsGnssConfiguration12setBlacklistERKNS0_8hidl_vecINS2_18IGnssConfiguration17BlacklistedSourceEEE"
    },
    {
     "kind":"offset_to_top",
     "component_value":-4
    },
    {
     "kind":"rtti",
     "mangled_component_name":"_ZTIN7android8hardware4gnss4V1_119BsGnssConfigurationE"
    },
    {
     "kind":"complete_dtor_pointer",
     "mangled_component_name":"_ZThn4_N7android8hardware4gnss4V1_119BsGnssConfigurationD1Ev"
    },
    {
     "kind":"deleting_dtor_pointer",
     "mangled_component_name":"_ZThn4_N7android8hardware4gnss4V1_119BsGnssConfigurationD0Ev"
    },
    {
     "kind":"vcall_offset"
    },
    {
     "kind":"vcall_offset"
    },
    {
     "kind":"vcall_offset"
    },
    {
     "kind":"vcall_offset"
    },
    {
     "kind":"vcall_offset",
     "component_value":-60
    },
    {
     "kind":"offset_to_top",
     "component_value":-60
    },
    {
     "kind":"rtti",
     "mangled_component_name":"_ZTIN7android8hardware4gnss4V1_119BsGnssConfigurationE"
    },
    {
     "kind":"complete_dtor_pointer",
     "mangled_component_name":"_ZTv0_n12_N7android8hardware4gnss4V1_119BsGnssConfigurationD1Ev"
    },
    {
     "kind":"deleting_dtor_pointer",
     "mangled_component_name":"_ZTv0_n12_N7android8hardware4gnss4V1_119BsGnssConfigurationD0Ev"
    },
    {
     "mangled_component_name":"_ZN7android7RefBase10onFirstRefEv"
    },
    {
     "mangled_component_name":"_ZN7android7RefBase15onLastStrongRefEPKv"
    },
    {
     "mangled_component_name":"_ZN7android7RefBase20onIncStrongAttemptedEjPKv"
    },
    {
     "mangled_component_name":"_ZN7android7RefBase13onLastWeakRefEPKv"
    }
   ],
   "unique_id":"_ZTSN7android8hardware4gnss4V1_119BsGnssConfigurationE"
  },
  {
   "vtable_components":[
    {
     "kind":"vbase_offset",
     "component_value":4
    },
    {
     "kind":"offset_to_top"
    },
    {
     "kind":"rtti",
     "mangled_component_name":"_ZTIN7android8hardware4gnss4V1_124IGnssMeasurementCallbackE"
    },
    {
     "mangled_component_name":"_ZNK7android8hardware4gnss4V1_124IGnssMeasurementCallback8isRemoteEv"
    },
    {
     "mangled_component_name":"_ZN7android8hardware4gnss4V1_124IGnssMeasurementCallback14interfaceChainENSt3__18functionIFvRKNS0_8hidl_vecINS0_11hidl_stringEEEEEE"
    },
    {
     "mangled_component_name":"_ZN7android8hardware4gnss4V1_124IGnssMeasurementCallback5debugERKNS0_11hidl_handleERKNS0_8hidl_vecINS0_11hidl_stringEEE"
    },
    {
     "mangled_component_name":"_ZN7android8hardware4gnss4V1_124IGnssMeasurementCallback19interfaceDescriptorENSt3__18functionIFvRKNS0_11hidl_stringEEEE"
    },
    {
     "mangled_component_name":"_ZN7android8hardware4gnss4V1_124IGnssMeasurementCallback12getHashChainENSt3__18functionIFvRKNS0_8hidl_vecINS0_10hidl_arrayIhLj32EJEEEEEEEE"
    },
    {
     "mangled_component_name":"_ZN7android8hardware4gnss4V1_124IGnssMeasurementCallback21setHALInstrumentationEv"
    },
    {
     "mangled_component_name":"_ZN7android8hardware4gnss4V1_124IGnssMeasurementCallback11linkToDeathERKNS_2spINS0_20hidl_death_recipientEEEy"
    },
    {
     "mangled_component_name":"_ZN7android8hardware4gnss4V1_124IGnssMeasurementCallback4pingEv"
    },
    {
     "mangled_component_name":"_ZN7android8hardware4gnss4V1_124IGnssMeasurementCallback12getDebugInfoENSt3__18functionIFvRKNS_4hidl4base4V1_09DebugInfoEEEE"
    },
    {
     "mangled_component_name":"_ZN7android8hardware4gnss4V1_124IGnssMeasurementCallback21notifySyspropsChangedEv"
    },
    {
     "mangled_component_name":"_ZN7android8hardware4gnss4V1_124IGnssMeasurementCallback13unlinkToDeathERKNS_2spINS0_20hidl_death_recipientEEE"
    },
    {
     "kind":"complete_dtor_pointer",
     "mangled_component_name":"_ZN7android8hardware4gnss4V1_124IGnssMeasurementCallbackD1Ev"
    },
    {
     "kind":"deleting_dtor_pointer",
     "mangled_component_name":"_ZN7android8hardware4gnss4V1_124IGnssMeasurementCallbackD0Ev"
    },
    {
     "is_pure":true,
     "mangled_component_name":"_ZN7android8hardware4gnss4V1_124IGnssMeasurementCallback17GnssMeasurementCbERKNS1_4V1_024IGnssMeasurementCallback8GnssDataE"
    },
    {
     "is_pure":true,
     "mangled_component_name":"_ZN7android8hardware4gnss4V1_124IGnssMeasurementCallback17gnssMeasurementCbERKNS3_8GnssDataE"
    },
    {
     "kind":"vcall_offset"
    },
    {
     "kind":"vcall_offset"
    },
    {
     "kind":"vcall_offset"
    },
    {
     "kind":"vcall_offset"
    },
    {
     "kind":"vcall_offset",
     "component_value":-4
    },
    {
     "kind":"offset_to_top",
     "component_value":-4
    },
    {
     "kind":"rtti",
     "mangled_component_name":"_ZTIN7android8hardware4gnss4V1_124IGnssMeasurementCallbackE"
    },
    {
     "kind":"complete_dtor_pointer",
     "mangled_component_name":"_ZTv0_n12_N7android8hardware4gnss4V1_124IGnssMeasurementCallbackD1Ev"
    },
    {
     "kind":"deleting_dtor_pointer",
     "mangled_component_name":"_ZTv0_n12_N7android8hardware4gnss4V1_124IGnssMeasurementCallbackD0Ev"
    },
    {
     "mangled_component_name":"_ZN7android7RefBase10onFirstRefEv"
    },
    {
     "mangled_component_name":"_ZN7android7RefBase15onLastStrongRefEPKv"
    },
    {
     "mangled_component_name":"_ZN7android7RefBase20onIncStrongAttemptedEjPKv"
    },
    {
     "mangled_component_name":"_ZN7android7RefBase13onLastWeakRefEPKv"
    }
   ],
   "unique_id":"_ZTSN7android8hardware4gnss4V1_124IGnssMeasurementCallbackE"
  },
  {
   "vtable_components":[
    {
     "kind":"vbase_offset",
     "component_value":60
    },
    {
     "kind":"offset_to_top"
    },
    {
     "kind":"rtti",
     "mangled_component_name":"_ZTIN7android8hardware4gnss4V1_117BsGnssMeasurementE"
    },
    {
     "mangled_component_name":"_ZNK7android8hardware4gnss4V1_116IGnssMeasurement8isRemoteEv"
    },
    {
     "mangled_component_name":"_ZN7android8hardware4gnss4V1_117BsGnssMeasurement14interfaceChainENSt3__18functionIFvRKNS0_8hidl_vecINS0_11hidl_stringEEEEEE"
    },
    {
     "mangled_component_name":"_ZN7android8hardware4gnss4V1_117BsGnssMeasurement5debugERKNS0_11hidl_handleERKNS0_8hidl_vecINS0_11hidl_stringEEE"
    },
    {
     "mangled_component_name":"_ZN7android8hardware4gnss4V1_117BsGnssMeasurement19interfaceDescriptorENSt3__18functionIFvRKNS0_11hidl_stringEEEE"
    },
    {
     "mangled_component_name":"_ZN7android8hardware4gnss4V1_117BsGnssMeasurement12getHashChainENSt3__18functionIFvRKNS0_8hidl_vecINS0_10hidl_arrayIhLj32EJEEEEEEEE"
    },
    {
     "mangled_component_name":"_ZN7android8hardware4gnss4V1_117BsGnssMeasurement21setHALInstrumentationEv"
    },
    {
     "mangled_component_name":"_ZN7android8hardware4gnss4V1_117BsGnssMeasurement11linkToDeathERKNS_2spINS0_20hidl_death_recipientEEEy"
    },
    {
     "mangled_component_name":"_ZN7android8hardware4gnss4V1_117BsGnssMeasurement4pingEv"
    },
    {
     "mangled_component_name":"_ZN7android8hardware4gnss4V1_117BsGnssMeasurement12getDebugInfoENSt3__18functionIFvRKNS_4hidl4base4V1_09DebugInfoEEEE"
    },
    {
     "mangled_component_name":"_ZN7android8hardware4gnss4V1_117BsGnssMeasurement21notifySyspropsChangedEv"
    },
    {
     "mangled_component_name":"_ZN7android8hardware4gnss4V1_117BsGnssMeasurement13unlinkToDeathERKNS_2spINS0_20hidl_death_recipientEEE"
    },
    {
     "kind":"complete_dtor_pointer",
     "mangled_component_name":"_ZN7android8hardware4gnss4V1_117BsGnssMeasurementD1Ev"
    },
    {
     "kind":"deleting_dtor_pointer",
     "mangled_component_name":"_ZN7android8hardware4gnss4V1_117BsGnssMeasurementD0Ev"
    },
    {
     "mangled_component_name":"_ZN7android8hardware4gnss4V1_117BsGnssMeasurement11setCallbackERKNS_2spINS1_4V1_024IGnssMeasurementCallbackEEE"
    },
    {
     "mangled_component_name":"_ZN7android8hardware4gnss4V1_117BsGnssMeasurement5closeEv"
    },
    {
     "mangled_component_name":"_ZN7android8hardware4gnss4V1_117BsGnssMeasurement15setCallback_1_1ERKNS_2spINS2_24IGnssMeasurementCallbackEEEb"
    },
    {
     "kind":"offset_to_top",
     "component_value":-4
    },
    {
     "kind":"rtti",
     "mangled_component_name":"_ZTIN7android8hardware4gnss4V1_117BsGnssMeasurementE"
    },
    {
     "kind":"complete_dtor_pointer",
     "mangled_component_name":"_ZThn4_N7android8hardware4gnss4V1_117BsGnssMeasurementD1Ev"
    },
    {
     "kind":"deleting_dtor_pointer",
     "mangled_component_name":"_ZThn4_N7android8hardware4gnss4V1_117BsGnssMeasurementD0Ev"
    },
    {
     "kind":"vcall_offset"
    },
    {
     "kind":"vcall_offset"
    },
    {
     "kind":"vcall_offset"
    },
    {
     "kind":"vcall_offset"
    },
    {
     "kind":"vcall_offset",
     "component_value":-60
    },
    {
     "kind":"offset_to_top",
     "component_value":-60
    },
    {
     "kind":"rtti",
     "mangled_component_name":"_ZTIN7android8hardware4gnss4V1_117BsGnssMeasurementE"
    },
    {
     "kind":"complete_dtor_pointer",
     "mangled_component_name":"_ZTv0_n12_N7android8hardware4gnss4V1_117BsGnssMeasurementD1Ev"
    },
    {
     "kind":"deleting_dtor_pointer",
     "mangled_component_name":"_ZTv0_n12_N7android8hardware4gnss4V1_117BsGnssMeasurementD0Ev"
    },
    {
     "mangled_component_name":"_ZN7android7RefBase10onFirstRefEv"
    },
    {
     "mangled_component_name":"_ZN7android7RefBase15onLastStrongRefEPKv"
    },
    {
     "mangled_component_name":"_ZN7android7RefBase20onIncStrongAttemptedEjPKv"
    },
    {
     "mangled_component_name":"_ZN7android7RefBase13onLastWeakRefEPKv"
    }
   ],
   "unique_id":"_ZTSN7android8hardware4gnss4V1_117BsGnssMeasurementE"
  },
  {
   "vtable_components":[
    {
     "kind":"vbase_offset",
     "component_value":84
    },
    {
     "kind":"offset_to_top"
    },
    {
     "kind":"rtti",
     "mangled_component_name":"_ZTIN7android8hardware4gnss4V1_127BpHwGnssMeasurementCallbackE"
    },
    {
     "mangled_component_name":"_ZNK7android8hardware4gnss4V1_127BpHwGnssMeasurementCallback8isRemoteEv"
    },
    {
     "mangled_component_name":"_ZN7android8hardware4gnss4V1_127BpHwGnssMeasurementCallback14interfaceChainENSt3__18functionIFvRKNS0_8hidl_vecINS0_11hidl_stringEEEEEE"
    },
    {
     "mangled_component_name":"_ZN7android8hardware4gnss4V1_127BpHwGnssMeasurementCallback5debugERKNS0_11hidl_handleERKNS0_8hidl_vecINS0_11hidl_stringEEE"
    },
    {
     "mangled_component_name":"_ZN7android8hardware4gnss4V1_127BpHwGnssMeasurementCallback19interfaceDescriptorENSt3__18functionIFvRKNS0_11hidl_stringEEEE"
    },
    {
     "mangled_component_name":"_ZN7android8hardware4gnss4V1_127BpHwGnssMeasurementCallback12getHashChainENSt3__18functionIFvRKNS0_8hidl_vecINS0_10hidl_arrayIhLj32EJEEEEEEEE"
    },
    {
     "mangled_component_name":"_ZN7android8hardware4gnss4V1_127BpHwGnssMeasurementCallback21setHALInstrumentationEv"
    },
    {
     "mangled_component_name":"_ZN7android8hardware4gnss4V1_127BpHwGnssMeasurementCallback11linkToDeathERKNS_2spINS0_20hidl_death_recipientEEEy"
    },
    {
     "mangled_component_name":"_ZN7android8hardware4gnss4V1_127BpHwGnssMeasurementCallback4pingEv"
    },
    {
     "mangled_component_name":"_ZN7android8hardware4gnss4V1_127BpHwGnssMeasurementCallback12getDebugInfoENSt3__18functionIFvRKNS_4hidl4base4V1_09DebugInfoEEEE"
    },
    {
     "mangled_component_name":"_ZN7android8hardware4gnss4V1_127BpHwGnssMeasurementCallback21notifySyspropsChangedEv"
    },
    {
     "mangled_component_name":"_ZN7android8hardware4gnss4V1_127BpHwGnssMeasurementCallback13unlinkToDeathERKNS_2spINS0_20hidl_death_recipientEEE"
    },
    {
     "kind":"complete_dtor_pointer",
     "mangled_component_name":"_ZN7android8hardware4gnss4V1_127BpHwGnssMeasurementCallbackD1Ev"
    },
    {
     "kind":"deleting_dtor_pointer",
     "mangled_component_name":"_ZN7android8hardware4gnss4V1_127BpHwGnssMeasurementCallbackD0Ev"
    },
    {
     "mangled_component_name":"_ZN7android8hardware4gnss4V1_127BpHwGnssMeasurementCallback17GnssMeasurementCbERKNS1_4V1_024IGnssMeasurementCallback8GnssDataE"
    },
    {
     "mangled_component_name":"_ZN7android8hardware4gnss4V1_127BpHwGnssMeasurementCallback17gnssMeasurementCbERKNS2_24IGnssMeasurementCallback8GnssDataE"
    },
    {
     "mangled_component_name":"_ZN7android8hardware11BpInterfaceINS0_4gnss4V1_124IGnssMeasurementCallbackEE10onAsBinderEv"
    },
    {
     "kind":"vbase_offset",
     "component_value":80
    },
    {
     "kind":"offset_to_top",
     "component_value":-4
    },
    {
     "kind":"rtti",
     "mangled_component_name":"_ZTIN7android8hardware4gnss4V1_127BpHwGnssMeasurementCallbackE"
    },
    {
     "kind":"complete_dtor_pointer",
     "mangled_component_name":"_ZThn4_N7android8hardware4gnss4V1_127BpHwGnssMeasurementCallbackD1Ev"
    },
    {
     "kind":"deleting_dtor_pointer",
     "mangled_component_name":"_ZThn4_N7android8hardware4gnss4V1_127BpHwGnssMeasurementCallbackD0Ev"
    },
    {
     "mangled_component_name":"_ZThn4_N7android8hardware11BpInterfaceINS0_4gnss4V1_124IGnssMeasurementCallbackEE10onAsBinderEv"
    },
    {
     "kind":"vbase_offset",
     "component_value":76
    },
    {
     "kind":"offset_to_top",
     "component_value":-8
    },
    {
     "kind":"rtti",
     "mangled_component_name":"_ZTIN7android8hardware4gnss4V1_127BpHwGnssMeasurementCallbackE"
    },
    {
     "kind":"complete_dtor_pointer",
     "mangled_component_name":"_ZThn8_N7android8hardware4gnss4V1_127BpHwGnssMeasurementCallbackD1Ev"
    },
    {
     "kind":"deleting_dtor_pointer",
     "mangled_component_name":"_ZThn8_N7android8hardware4gnss4V1_127BpHwGnssMeasurementCallbackD0Ev"
    },
    {
     "mangled_component_name":"_ZN7android8hardware11BpHwRefBase10onFirstRefEv"
    },
    {
     "mangled_component_name":"_ZN7android8hardware11BpHwRefBase15onLastStrongRefEPKv"
    },
    {
     "mangled_component_name":"_ZN7android8hardware11BpHwRefBase20onIncStrongAttemptedEjPKv"
    },
    {
     "kind":"offset_to_top",
     "component_value":-24
    },
    {
     "kind":"rtti",
     "mangled_component_name":"_ZTIN7android8hardware4gnss4V1_127BpHwGnssMeasurementCallbackE"
    },
    {
     "kind":"complete_dtor_pointer",
     "mangled_component_name":"_ZThn24_N7android8hardware4gnss4V1_127BpHwGnssMeasurementCallbackD1Ev"
    },
    {
     "kind":"deleting_dtor_pointer",
     "mangled_component_name":"_ZThn24_N7android8hardware4gnss4V1_127BpHwGnssMeasurementCallbackD0Ev"
    },
    {
     "kind":"vcall_offset"
    },
    {
     "kind":"vcall_offset",
     "component_value":-76
    },
    {
     "kind":"vcall_offset",
     "component_value":-76
    },
    {
     "kind":"vcall_offset",
     "component_value":-76
    },
    {
     "kind":"vcall_offset",
     "component_value":-84
    },
    {
     "kind":"offset_to_top",
     "component_value":-84
    },
    {
     "kind":"rtti",
     "mangled_component_name":"_ZTIN7android8hardware4gnss4V1_127BpHwGnssMeasurementCallbackE"
    },
    {
     "kind":"complete_dtor_pointer",
     "mangled_component_name":"_ZTv0_n12_N7android8hardware4gnss4V1_127BpHwGnssMeasurementCallbackD1Ev"
    },
    {
     "kind":"deleting_dtor_pointer",
     "mangled_component_name":"_ZTv0_n12_N7android8hardware4gnss4V1_127BpHwGnssMeasurementCallbackD0Ev"
    },
    {
     "mangled_component_name":"_ZTv0_n16_N7android8hardware11BpHwRefBase10onFirstRefEv"
    },
    {
     "mangled_component_name":"_ZTv0_n20_N7android8hardware11BpHwRefBase15onLastStrongRefEPKv"
    },
    {
     "mangled_component_name":"_ZTv0_n24_N7android8hardware11BpHwRefBase20onIncStrongAttemptedEjPKv"
    },
    {
     "mangled_component_name":"_ZN7android7RefBase13onLastWeakRefEPKv"
    }
   ],
   "unique_id":"_ZTSN7android8hardware4gnss4V1_127BpHwGnssMeasurementCallbackE"
  },
  {
   "vtable_components":[
    {
     "kind":"vbase_offset",
     "component_value":60
    },
    {
     "kind":"offset_to_top"
    },
    {
     "kind":"rtti",
     "mangled_component_name":"_ZTIN7android8hardware4gnss4V1_125BsGnssMeasurementCallbackE"
    },
    {
     "mangled_component_name":"_ZNK7android8hardware4gnss4V1_124IGnssMeasurementCallback8isRemoteEv"
    },
    {
     "mangled_component_name":"_ZN7android8hardware4gnss4V1_125BsGnssMeasurementCallback14interfaceChainENSt3__18functionIFvRKNS0_8hidl_vecINS0_11hidl_stringEEEEEE"
    },
    {
     "mangled_component_name":"_ZN7android8hardware4gnss4V1_125BsGnssMeasurementCallback5debugERKNS0_11hidl_handleERKNS0_8hidl_vecINS0_11hidl_stringEEE"
    },
    {
     "mangled_component_name":"_ZN7android8hardware4gnss4V1_125BsGnssMeasurementCallback19interfaceDescriptorENSt3__18functionIFvRKNS0_11hidl_stringEEEE"
    },
    {
     "mangled_component_name":"_ZN7android8hardware4gnss4V1_125BsGnssMeasurementCallback12getHashChainENSt3__18functionIFvRKNS0_8hidl_vecINS0_10hidl_arrayIhLj32EJEEEEEEEE"
    },
    {
     "mangled_component_name":"_ZN7android8hardware4gnss4V1_125BsGnssMeasurementCallback21setHALInstrumentationEv"
    },
    {
     "mangled_component_name":"_ZN7android8hardware4gnss4V1_125BsGnssMeasurementCallback11linkToDeathERKNS_2spINS0_20hidl_death_recipientEEEy"
    },
    {
     "mangled_component_name":"_ZN7android8hardware4gnss4V1_125BsGnssMeasurementCallback4pingEv"
    },
    {
     "mangled_component_name":"_ZN7android8hardware4gnss4V1_125BsGnssMeasurementCallback12getDebugInfoENSt3__18functionIFvRKNS_4hidl4base4V1_09DebugInfoEEEE"
    },
    {
     "mangled_component_name":"_ZN7android8hardware4gnss4V1_125BsGnssMeasurementCallback21notifySyspropsChangedEv"
    },
    {
     "mangled_component_name":"_ZN7android8hardware4gnss4V1_125BsGnssMeasurementCallback13unlinkToDeathERKNS_2spINS0_20hidl_death_recipientEEE"
    },
    {
     "kind":"complete_dtor_pointer",
     "mangled_component_name":"_ZN7android8hardware4gnss4V1_125BsGnssMeasurementCallbackD1Ev"
    },
    {
     "kind":"deleting_dtor_pointer",
     "mangled_component_name":"_ZN7android8hardware4gnss4V1_125BsGnssMeasurementCallbackD0Ev"
    },
    {
     "mangled_component_name":"_ZN7android8hardware4gnss4V1_125BsGnssMeasurementCallback17GnssMeasurementCbERKNS1_4V1_024IGnssMeasurementCallback8GnssDataE"
    },
    {
     "mangled_component_name":"_ZN7android8hardware4gnss4V1_125BsGnssMeasurementCallback17gnssMeasurementCbERKNS2_24IGnssMeasurementCallback8GnssDataE"
    },
    {
     "kind":"offset_to_top",
     "component_value":-4
    },
    {
     "kind":"rtti",
     "mangled_component_name":"_ZTIN7android8hardware4gnss4V1_125BsGnssMeasurementCallbackE"
    },
    {
     "kind":"complete_dtor_pointer",
     "mangled_component_name":"_ZThn4_N7android8hardware4gnss4V1_125BsGnssMeasurementCallbackD1Ev"
    },
    {
     "kind":"deleting_dtor_pointer",
     "mangled_component_name":"_ZThn4_N7android8hardware4gnss4V1_125BsGnssMeasurementCallbackD0Ev"
    },
    {
     "kind":"vcall_offset"
    },
    {
     "kind":"vcall_offset"
    },
    {
     "kind":"vcall_offset"
    },
    {
     "kind":"vcall_offset"
    },
    {
     "kind":"vcall_offset",
     "component_value":-60
    },
    {
     "kind":"offset_to_top",
     "component_value":-60
    },
    {
     "kind":"rtti",
     "mangled_component_name":"_ZTIN7android8hardware4gnss4V1_125BsGnssMeasurementCallbackE"
    },
    {
     "kind":"complete_dtor_pointer",
     "mangled_component_name":"_ZTv0_n12_N7android8hardware4gnss4V1_125BsGnssMeasurementCallbackD1Ev"
    },
    {
     "kind":"deleting_dtor_pointer",
     "mangled_component_name":"_ZTv0_n12_N7android8hardware4gnss4V1_125BsGnssMeasurementCallbackD0Ev"
    },
    {
     "mangled_component_name":"_ZN7android7RefBase10onFirstRefEv"
    },
    {
     "mangled_component_name":"_ZN7android7RefBase15onLastStrongRefEPKv"
    },
    {
     "mangled_component_name":"_ZN7android7RefBase20onIncStrongAttemptedEjPKv"
    },
    {
     "mangled_component_name":"_ZN7android7RefBase13onLastWeakRefEPKv"
    }
   ],
   "unique_id":"_ZTSN7android8hardware4gnss4V1_125BsGnssMeasurementCallbackE"
  }
 ],
 "elf_functions":[
  {
   "binding":"weak",
   "name":"_ZN7android8hardware10fromBinderINS0_4gnss4V1_113IGnssCallbackENS3_16BpHwGnssCallbackENS3_16BnHwGnssCallbackEEENS_2spIT_EERKNS7_INS0_7IBinderEEE"
  },
  {
   "binding":"weak",
   "name":"_ZN7android8hardware10fromBinderINS0_4gnss4V1_116IGnssMeasurementENS3_19BpHwGnssMeasurementENS3_19BnHwGnssMeasurementEEENS_2spIT_EERKNS7_INS0_7IBinderEEE"
  },
  {
   "binding":"weak",
   "name":"_ZN7android8hardware10fromBinderINS0_4gnss4V1_118IGnssConfigurationENS3_21BpHwGnssConfigurationENS3_21BnHwGnssConfigurationEEENS_2spIT_EERKNS7_INS0_7IBinderEEE"
  },
  {
   "binding":"weak",
   "name":"_ZN7android8hardware10fromBinderINS0_4gnss4V1_124IGnssMeasurementCallbackENS3_27BpHwGnssMeasurementCallbackENS3_27BnHwGnssMeasurementCallbackEEENS_2spIT_EERKNS7_INS0_7IBinderEEE"
  },
  {
   "name":"_ZN7android8hardware4gnss4V1_113IGnssCallback10getServiceERKNSt3__112basic_stringIcNS4_11char_traitsIcEENS4_9allocatorIcEEEEb"
  },
  {
   "name":"_ZN7android8hardware4gnss4V1_113IGnssCallback11linkToDeathERKNS_2spINS0_20hidl_death_recipientEEEy"
  },
  {
   "name":"_ZN7android8hardware4gnss4V1_113IGnssCallback12getDebugInfoENSt3__18functionIFvRKNS_4hidl4base4V1_09DebugInfoEEEE"
  },
  {
   "name":"_ZN7android8hardware4gnss4V1_113IGnssCallback12getHashChainENSt3__18functionIFvRKNS0_8hidl_vecINS0_10hidl_arrayIhLj32EJEEEEEEEE"
  },
  {
   "name":"_ZN7android8hardware4gnss4V1_113IGnssCallback13tryGetServiceERKNSt3__112basic_stringIcNS4_11char_traitsIcEENS4_9allocatorIcEEEEb"
  },
  {
   "name":"_ZN7android8hardware4gnss4V1_113IGnssCallback13unlinkToDeathERKNS_2spINS0_20hidl_death_recipientEEE"
  },
  {
   "name":"_ZN7android8hardware4gnss4V1_113IGnssCallback14interfaceChainENSt3__18functionIFvRKNS0_8hidl_vecINS0_11hidl_stringEEEEEE"
  },
  {
   "name":"_ZN7android8hardware4gnss4V1_113IGnssCallback17registerAsServiceERKNSt3__112basic_stringIcNS4_11char_traitsIcEENS4_9allocatorIcEEEE"
  },
  {
   "name":"_ZN7android8hardware4gnss4V1_113IGnssCallback19interfaceDescriptorENSt3__18functionIFvRKNS0_11hidl_stringEEEE"
  },
  {
   "name":"_ZN7android8hardware4gnss4V1_113IGnssCallback21notifySyspropsChangedEv"
  },
  {
   "name":"_ZN7android8hardware4gnss4V1_113IGnssCallback21setHALInstrumentationEv"
  },
  {
   "name":"_ZN7android8hardware4gnss4V1_113IGnssCallback24registerForNotificationsERKNSt3__112basic_stringIcNS4_11char_traitsIcEENS4_9allocatorIcEEEERKNS_2spINS_4hidl7manager4V1_020IServiceNotificationEEE"
  },
  {
   "name":"_ZN7android8hardware4gnss4V1_113IGnssCallback4pingEv"
  },
  {
   "name":"_ZN7android8hardware4gnss4V1_113IGnssCallback5debugERKNS0_11hidl_handleERKNS0_8hidl_vecINS0_11hidl_stringEEE"
  },
  {
   "name":"_ZN7android8hardware4gnss4V1_113IGnssCallback8castFromERKNS_2spINS1_4V1_013IGnssCallbackEEEb"
  },
  {
   "name":"_ZN7android8hardware4gnss4V1_113IGnssCallback8castFromERKNS_2spINS_4hidl4base4V1_05IBaseEEEb"
  },
  {
   "name":"_ZN7android8hardware4gnss4V1_113IGnssCallback8castFromERKNS_2spIS3_EEb"
  },
  {
   "name":"_ZN7android8hardware4gnss4V1_114BsGnssCallback13addOnewayTaskENSt3__18functionIFvvEEE"
  },
  {
   "name":"_ZN7android8hardware4gnss4V1_114BsGnssCallbackC1ENS_2spINS2_13IGnssCallbackEEE"
  },
  {
   "name":"_ZN7android8hardware4gnss4V1_114BsGnssCallbackC2ENS_2spINS2_13IGnssCallbackEEE"
  },
  {
   "name":"_ZN7android8hardware4gnss4V1_116BnHwGnssCallback10onTransactEjRKNS0_6ParcelEPS4_jNSt3__18functionIFvRS4_EEE"
  },
  {
   "name":"_ZN7android8hardware4gnss4V1_116BnHwGnssCallback12getDebugInfoENSt3__18functionIFvRKNS_4hidl4base4V1_09DebugInfoEEEE"
  },
  {
   "name":"_ZN7android8hardware4gnss4V1_116BnHwGnssCallback16_hidl_gnssNameCbEPNS_4hidl4base4V1_08BnHwBaseERKNS0_6ParcelEPS9_NSt3__18functionIFvRS9_EEE"
  },
  {
   "name":"_ZN7android8hardware4gnss4V1_116BnHwGnssCallback27_hidl_gnssRequestLocationCbEPNS_4hidl4base4V1_08BnHwBaseERKNS0_6ParcelEPS9_NSt3__18functionIFvRS9_EEE"
  },
  {
   "name":"_ZN7android8hardware4gnss4V1_116BnHwGnssCallback4pingEv"
  },
  {
   "name":"_ZN7android8hardware4gnss4V1_116BnHwGnssCallbackC1ERKNS_2spINS2_13IGnssCallbackEEE"
  },
  {
   "name":"_ZN7android8hardware4gnss4V1_116BnHwGnssCallbackC2ERKNS_2spINS2_13IGnssCallbackEEE"
  },
  {
   "name":"_ZN7android8hardware4gnss4V1_116BnHwGnssCallbackD0Ev"
  },
  {
   "name":"_ZN7android8hardware4gnss4V1_116BnHwGnssCallbackD1Ev"
  },
  {
   "name":"_ZN7android8hardware4gnss4V1_116BnHwGnssCallbackD2Ev"
  },
  {
   "name":"_ZN7android8hardware4gnss4V1_116BpHwGnssCallback10gnssNameCbERKNS0_11hidl_stringE"
  },
  {
   "name":"_ZN7android8hardware4gnss4V1_116BpHwGnssCallback10gnssNmeaCbExRKNS0_11hidl_stringE"
  },
  {
   "name":"_ZN7android8hardware4gnss4V1_116BpHwGnssCallback11linkToDeathERKNS_2spINS0_20hidl_death_recipientEEEy"
  },
  {
   "name":"_ZN7android8hardware4gnss4V1_116BpHwGnssCallback12getDebugInfoENSt3__18functionIFvRKNS_4hidl4base4V1_09DebugInfoEEEE"
  },
  {
   "name":"_ZN7android8hardware4gnss4V1_116BpHwGnssCallback12getHashChainENSt3__18functionIFvRKNS0_8hidl_vecINS0_10hidl_arrayIhLj32EJEEEEEEEE"
  },
  {
   "name":"_ZN7android8hardware4gnss4V1_116BpHwGnssCallback12gnssStatusCbENS1_4V1_013IGnssCallback15GnssStatusValueE"
  },
  {
   "name":"_ZN7android8hardware4gnss4V1_116BpHwGnssCallback13unlinkToDeathERKNS_2spINS0_20hidl_death_recipientEEE"
  },
  {
   "name":"_ZN7android8hardware4gnss4V1_116BpHwGnssCallback14gnssLocationCbERKNS1_4V1_012GnssLocationE"
  },
  {
   "name":"_ZN7android8hardware4gnss4V1_116BpHwGnssCallback14gnssSvStatusCbERKNS1_4V1_013IGnssCallback12GnssSvStatusE"
  },
  {
   "name":"_ZN7android8hardware4gnss4V1_116BpHwGnssCallback14interfaceChainENSt3__18functionIFvRKNS0_8hidl_vecINS0_11hidl_stringEEEEEE"
  },
  {
   "name":"_ZN7android8hardware4gnss4V1_116BpHwGnssCallback16_hidl_gnssNameCbEPNS0_10IInterfaceEPNS0_7details16HidlInstrumentorERKNS0_11hidl_stringE"
  },
  {
   "name":"_ZN7android8hardware4gnss4V1_116BpHwGnssCallback17gnssRequestTimeCbEv"
  },
  {
   "name":"_ZN7android8hardware4gnss4V1_116BpHwGnssCallback19gnssSetSystemInfoCbERKNS1_4V1_013IGnssCallback14GnssSystemInfoE"
  },
  {
   "name":"_ZN7android8hardware4gnss4V1_116BpHwGnssCallback19interfaceDescriptorENSt3__18functionIFvRKNS0_11hidl_stringEEEE"
  },
  {
   "name":"_ZN7android8hardware4gnss4V1_116BpHwGnssCallback20gnssSetCapabilitesCbEj"
  },
  {
   "name":"_ZN7android8hardware4gnss4V1_116BpHwGnssCallback21gnssAcquireWakelockCbEv"
  },
  {
   "name":"_ZN7android8hardware4gnss4V1_116BpHwGnssCallback21gnssReleaseWakelockCbEv"
  },
  {
   "name":"_ZN7android8hardware4gnss4V1_116BpHwGnssCallback21gnssRequestLocationCbEb"
  },
  {
   "name":"_ZN7android8hardware4gnss4V1_116BpHwGnssCallback21notifySyspropsChangedEv"
  },
  {
   "name":"_ZN7android8hardware4gnss4V1_116BpHwGnssCallback21setHALInstrumentationEv"
  },
  {
   "name":"_ZN7android8hardware4gnss4V1_116BpHwGnssCallback27_hidl_gnssRequestLocationCbEPNS0_10IInterfaceEPNS0_7details16HidlInstrumentorEb"
  },
  {
   "name":"_ZN7android8hardware4gnss4V1_116BpHwGnssCallback4pingEv"
  },
  {
   "name":"_ZN7android8hardware4gnss4V1_116BpHwGnssCallback5debugERKNS0_11hidl_handleERKNS0_8hidl_vecINS0_11hidl_stringEEE"
  },
  {
   "name":"_ZN7android8hardware4gnss4V1_116BpHwGnssCallbackC1ERKNS_2spINS0_7IBinderEEE"
  },
  {
   "name":"_ZN7android8hardware4gnss4V1_116BpHwGnssCallbackC2ERKNS_2spINS0_7IBinderEEE"
  },
  {
   "name":"_ZN7android8hardware4gnss4V1_116IGnssMeasurement10getServiceERKNSt3__112basic_stringIcNS4_11char_traitsIcEENS4_9allocatorIcEEEEb"
  },
  {
   "name":"_ZN7android8hardware4gnss4V1_116IGnssMeasurement11linkToDeathERKNS_2spINS0_20hidl_death_recipientEEEy"
  },
  {
   "name":"_ZN7android8hardware4gnss4V1_116IGnssMeasurement12getDebugInfoENSt3__18functionIFvRKNS_4hidl4base4V1_09DebugInfoEEEE"
  },
  {
   "name":"_ZN7android8hardware4gnss4V1_116IGnssMeasurement12getHashChainENSt3__18functionIFvRKNS0_8hidl_vecINS0_10hidl_arrayIhLj32EJEEEEEEEE"
  },
  {
   "name":"_ZN7android8hardware4gnss4V1_116IGnssMeasurement13tryGetServiceERKNSt3__112basic_stringIcNS4_11char_traitsIcEENS4_9allocatorIcEEEEb"
  },
  {
   "name":"_ZN7android8hardware4gnss4V1_116IGnssMeasurement13unlinkToDeathERKNS_2spINS0_20hidl_death_recipientEEE"
  },
  {
   "name":"_ZN7android8hardware4gnss4V1_116IGnssMeasurement14interfaceChainENSt3__18functionIFvRKNS0_8hidl_vecINS0_11hidl_stringEEEEEE"
  },
  {
   "name":"_ZN7android8hardware4gnss4V1_116IGnssMeasurement17registerAsServiceERKNSt3__112basic_stringIcNS4_11char_traitsIcEENS4_9allocatorIcEEEE"
  },
  {
   "name":"_ZN7android8hardware4gnss4V1_116IGnssMeasurement19interfaceDescriptorENSt3__18functionIFvRKNS0_11hidl_stringEEEE"
  },
  {
   "name":"_ZN7android8hardware4gnss4V1_116IGnssMeasurement21notifySyspropsChangedEv"
  },
  {
   "name":"_ZN7android8hardware4gnss4V1_116IGnssMeasurement21setHALInstrumentationEv"
  },
  {
   "name":"_ZN7android8hardware4gnss4V1_116IGnssMeasurement24registerForNotificationsERKNSt3__112basic_stringIcNS4_11char_traitsIcEENS4_9allocatorIcEEEERKNS_2spINS_4hidl7manager4V1_020IServiceNotificationEEE"
  },
  {
   "name":"_ZN7android8hardware4gnss4V1_116IGnssMeasurement4pingEv"
  },
  {
   "name":"_ZN7android8hardware4gnss4V1_116IGnssMeasurement5debugERKNS0_11hidl_handleERKNS0_8hidl_vecINS0_11hidl_stringEEE"
  },
  {
   "name":"_ZN7android8hardware4gnss4V1_116IGnssMeasurement8castFromERKNS_2spINS1_4V1_016IGnssMeasurementEEEb"
  },
  {
   "name":"_ZN7android8hardware4gnss4V1_116IGnssMeasurement8castFromERKNS_2spINS_4hidl4base4V1_05IBaseEEEb"
  },
  {
   "name":"_ZN7android8hardware4gnss4V1_116IGnssMeasurement8castFromERKNS_2spIS3_EEb"
  },
  {
   "name":"_ZN7android8hardware4gnss4V1_117BsGnssMeasurement13addOnewayTaskENSt3__18functionIFvvEEE"
  },
  {
   "name":"_ZN7android8hardware4gnss4V1_117BsGnssMeasurementC1ENS_2spINS2_16IGnssMeasurementEEE"
  },
  {
   "name":"_ZN7android8hardware4gnss4V1_117BsGnssMeasurementC2ENS_2spINS2_16IGnssMeasurementEEE"
  },
  {
   "name":"_ZN7android8hardware4gnss4V1_118IGnssConfiguration10getServiceERKNSt3__112basic_stringIcNS4_11char_traitsIcEENS4_9allocatorIcEEEEb"
  },
  {
   "name":"_ZN7android8hardware4gnss4V1_118IGnssConfiguration11linkToDeathERKNS_2spINS0_20hidl_death_recipientEEEy"
  },
  {
   "name":"_ZN7android8hardware4gnss4V1_118IGnssConfiguration12getDebugInfoENSt3__18functionIFvRKNS_4hidl4base4V1_09DebugInfoEEEE"
  },
  {
   "name":"_ZN7android8hardware4gnss4V1_118IGnssConfiguration12getHashChainENSt3__18functionIFvRKNS0_8hidl_vecINS0_10hidl_arrayIhLj32EJEEEEEEEE"
  },
  {
   "name":"_ZN7android8hardware4gnss4V1_118IGnssConfiguration13tryGetServiceERKNSt3__112basic_stringIcNS4_11char_traitsIcEENS4_9allocatorIcEEEEb"
  },
  {
   "name":"_ZN7android8hardware4gnss4V1_118IGnssConfiguration13unlinkToDeathERKNS_2spINS0_20hidl_death_recipientEEE"
  },
  {
   "name":"_ZN7android8hardware4gnss4V1_118IGnssConfiguration14interfaceChainENSt3__18functionIFvRKNS0_8hidl_vecINS0_11hidl_stringEEEEEE"
  },
  {
   "name":"_ZN7android8hardware4gnss4V1_118IGnssConfiguration17registerAsServiceERKNSt3__112basic_stringIcNS4_11char_traitsIcEENS4_9allocatorIcEEEE"
  },
  {
   "name":"_ZN7android8hardware4gnss4V1_118IGnssConfiguration19interfaceDescriptorENSt3__18functionIFvRKNS0_11hidl_stringEEEE"
  },
  {
   "name":"_ZN7android8hardware4gnss4V1_118IGnssConfiguration21notifySyspropsChangedEv"
  },
  {
   "name":"_ZN7android8hardware4gnss4V1_118IGnssConfiguration21setHALInstrumentationEv"
  },
  {
   "name":"_ZN7android8hardware4gnss4V1_118IGnssConfiguration24registerForNotificationsERKNSt3__112basic_stringIcNS4_11char_traitsIcEENS4_9allocatorIcEEEERKNS_2spINS_4hidl7manager4V1_020IServiceNotificationEEE"
  },
  {
   "name":"_ZN7android8hardware4gnss4V1_118IGnssConfiguration4pingEv"
  },
  {
   "name":"_ZN7android8hardware4gnss4V1_118IGnssConfiguration5debugERKNS0_11hidl_handleERKNS0_8hidl_vecINS0_11hidl_stringEEE"
  },
  {
   "name":"_ZN7android8hardware4gnss4V1_118IGnssConfiguration8castFromERKNS_2spINS1_4V1_018IGnssConfigurationEEEb"
  },
  {
   "name":"_ZN7android8hardware4gnss4V1_118IGnssConfiguration8castFromERKNS_2spINS_4hidl4base4V1_05IBaseEEEb"
  },
  {
   "name":"_ZN7android8hardware4gnss4V1_118IGnssConfiguration8castFromERKNS_2spIS3_EEb"
  },
  {
   "name":"_ZN7android8hardware4gnss4V1_119BnHwGnssMeasurement10onTransactEjRKNS0_6ParcelEPS4_jNSt3__18functionIFvRS4_EEE"
  },
  {
   "name":"_ZN7android8hardware4gnss4V1_119BnHwGnssMeasurement12getDebugInfoENSt3__18functionIFvRKNS_4hidl4base4V1_09DebugInfoEEEE"
  },
  {
   "name":"_ZN7android8hardware4gnss4V1_119BnHwGnssMeasurement21_hidl_setCallback_1_1EPNS_4hidl4base4V1_08BnHwBaseERKNS0_6ParcelEPS9_NSt3__18functionIFvRS9_EEE"
  },
  {
   "name":"_ZN7android8hardware4gnss4V1_119BnHwGnssMeasurement4pingEv"
  },
  {
   "name":"_ZN7android8hardware4gnss4V1_119BnHwGnssMeasurementC1ERKNS_2spINS2_16IGnssMeasurementEEE"
  },
  {
   "name":"_ZN7android8hardware4gnss4V1_119BnHwGnssMeasurementC2ERKNS_2spINS2_16IGnssMeasurementEEE"
  },
  {
   "name":"_ZN7android8hardware4gnss4V1_119BnHwGnssMeasurementD0Ev"
  },
  {
   "name":"_ZN7android8hardware4gnss4V1_119BnHwGnssMeasurementD1Ev"
  },
  {
   "name":"_ZN7android8hardware4gnss4V1_119BnHwGnssMeasurementD2Ev"
  },
  {
   "name":"_ZN7android8hardware4gnss4V1_119BpHwGnssMeasurement11linkToDeathERKNS_2spINS0_20hidl_death_recipientEEEy"
  },
  {
   "name":"_ZN7android8hardware4gnss4V1_119BpHwGnssMeasurement11setCallbackERKNS_2spINS1_4V1_024IGnssMeasurementCallbackEEE"
  },
  {
   "name":"_ZN7android8hardware4gnss4V1_119BpHwGnssMeasurement12getDebugInfoENSt3__18functionIFvRKNS_4hidl4base4V1_09DebugInfoEEEE"
  },
  {
   "name":"_ZN7android8hardware4gnss4V1_119BpHwGnssMeasurement12getHashChainENSt3__18functionIFvRKNS0_8hidl_vecINS0_10hidl_arrayIhLj32EJEEEEEEEE"
  },
  {
   "name":"_ZN7android8hardware4gnss4V1_119BpHwGnssMeasurement13unlinkToDeathERKNS_2spINS0_20hidl_death_recipientEEE"
  },
  {
   "name":"_ZN7android8hardware4gnss4V1_119BpHwGnssMeasurement14interfaceChainENSt3__18functionIFvRKNS0_8hidl_vecINS0_11hidl_stringEEEEEE"
  },
  {
   "name":"_ZN7android8hardware4gnss4V1_119BpHwGnssMeasurement15setCallback_1_1ERKNS_2spINS2_24IGnssMeasurementCallbackEEEb"
  },
  {
   "name":"_ZN7android8hardware4gnss4V1_119BpHwGnssMeasurement19interfaceDescriptorENSt3__18functionIFvRKNS0_11hidl_stringEEEE"
  },
  {
   "name":"_ZN7android8hardware4gnss4V1_119BpHwGnssMeasurement21_hidl_setCallback_1_1EPNS0_10IInterfaceEPNS0_7details16HidlInstrumentorERKNS_2spINS2_24IGnssMeasurementCallbackEEEb"
  },
  {
   "name":"_ZN7android8hardware4gnss4V1_119BpHwGnssMeasurement21notifySyspropsChangedEv"
  },
  {
   "name":"_ZN7android8hardware4gnss4V1_119BpHwGnssMeasurement21setHALInstrumentationEv"
  },
  {
   "name":"_ZN7android8hardware4gnss4V1_119BpHwGnssMeasurement4pingEv"
  },
  {
   "name":"_ZN7android8hardware4gnss4V1_119BpHwGnssMeasurement5closeEv"
  },
  {
   "name":"_ZN7android8hardware4gnss4V1_119BpHwGnssMeasurement5debugERKNS0_11hidl_handleERKNS0_8hidl_vecINS0_11hidl_stringEEE"
  },
  {
   "name":"_ZN7android8hardware4gnss4V1_119BpHwGnssMeasurementC1ERKNS_2spINS0_7IBinderEEE"
  },
  {
   "name":"_ZN7android8hardware4gnss4V1_119BpHwGnssMeasurementC2ERKNS_2spINS0_7IBinderEEE"
  },
  {
   "name":"_ZN7android8hardware4gnss4V1_119BsGnssConfiguration13addOnewayTaskENSt3__18functionIFvvEEE"
  },
  {
   "name":"_ZN7android8hardware4gnss4V1_119BsGnssConfigurationC1ENS_2spINS2_18IGnssConfigurationEEE"
  },
  {
   "name":"_ZN7android8hardware4gnss4V1_119BsGnssConfigurationC2ENS_2spINS2_18IGnssConfigurationEEE"
  },
  {
   "name":"_ZN7android8hardware4gnss4V1_121BnHwGnssConfiguration10onTransactEjRKNS0_6ParcelEPS4_jNSt3__18functionIFvRS4_EEE"
  },
  {
   "name":"_ZN7android8hardware4gnss4V1_121BnHwGnssConfiguration12getDebugInfoENSt3__18functionIFvRKNS_4hidl4base4V1_09DebugInfoEEEE"
  },
  {
   "name":"_ZN7android8hardware4gnss4V1_121BnHwGnssConfiguration18_hidl_setBlacklistEPNS_4hidl4base4V1_08BnHwBaseERKNS0_6ParcelEPS9_NSt3__18functionIFvRS9_EEE"
  },
  {
   "name":"_ZN7android8hardware4gnss4V1_121BnHwGnssConfiguration4pingEv"
  },
  {
   "name":"_ZN7android8hardware4gnss4V1_121BnHwGnssConfigurationC1ERKNS_2spINS2_18IGnssConfigurationEEE"
  },
  {
   "name":"_ZN7android8hardware4gnss4V1_121BnHwGnssConfigurationC2ERKNS_2spINS2_18IGnssConfigurationEEE"
  },
  {
   "name":"_ZN7android8hardware4gnss4V1_121BnHwGnssConfigurationD0Ev"
  },
  {
   "name":"_ZN7android8hardware4gnss4V1_121BnHwGnssConfigurationD1Ev"
  },
  {
   "name":"_ZN7android8hardware4gnss4V1_121BnHwGnssConfigurationD2Ev"
  },
  {
   "name":"_ZN7android8hardware4gnss4V1_121BpHwGnssConfiguration10setGpsLockEh"
  },
  {
   "name":"_ZN7android8hardware4gnss4V1_121BpHwGnssConfiguration11linkToDeathERKNS_2spINS0_20hidl_death_recipientEEEy"
  },
  {
   "name":"_ZN7android8hardware4gnss4V1_121BpHwGnssConfiguration11setSuplModeEh"
  },
  {
   "name":"_ZN7android8hardware4gnss4V1_121BpHwGnssConfiguration12getDebugInfoENSt3__18functionIFvRKNS_4hidl4base4V1_09DebugInfoEEEE"
  },
  {
   "name":"_ZN7android8hardware4gnss4V1_121BpHwGnssConfiguration12getHashChainENSt3__18functionIFvRKNS0_8hidl_vecINS0_10hidl_arrayIhLj32EJEEEEEEEE"
  },
  {
   "name":"_ZN7android8hardware4gnss4V1_121BpHwGnssConfiguration12setBlacklistERKNS0_8hidl_vecINS2_18IGnssConfiguration17BlacklistedSourceEEE"
  },
  {
   "name":"_ZN7android8hardware4gnss4V1_121BpHwGnssConfiguration13setLppProfileEh"
  },
  {
   "name":"_ZN7android8hardware4gnss4V1_121BpHwGnssConfiguration13unlinkToDeathERKNS_2spINS0_20hidl_death_recipientEEE"
  },
  {
   "name":"_ZN7android8hardware4gnss4V1_121BpHwGnssConfiguration14interfaceChainENSt3__18functionIFvRKNS0_8hidl_vecINS0_11hidl_stringEEEEEE"
  },
  {
   "name":"_ZN7android8hardware4gnss4V1_121BpHwGnssConfiguration14setSuplVersionEj"
  },
  {
   "name":"_ZN7android8hardware4gnss4V1_121BpHwGnssConfiguration18_hidl_setBlacklistEPNS0_10IInterfaceEPNS0_7details16HidlInstrumentorERKNS0_8hidl_vecINS2_18IGnssConfiguration17BlacklistedSourceEEE"
  },
  {
   "name":"_ZN7android8hardware4gnss4V1_121BpHwGnssConfiguration19interfaceDescriptorENSt3__18functionIFvRKNS0_11hidl_stringEEEE"
  },
  {
   "name":"_ZN7android8hardware4gnss4V1_121BpHwGnssConfiguration19setEmergencySuplPdnEb"
  },
  {
   "name":"_ZN7android8hardware4gnss4V1_121BpHwGnssConfiguration21notifySyspropsChangedEv"
  },
  {
   "name":"_ZN7android8hardware4gnss4V1_121BpHwGnssConfiguration21setHALInstrumentationEv"
  },
  {
   "name":"_ZN7android8hardware4gnss4V1_121BpHwGnssConfiguration29setGlonassPositioningProtocolEh"
  },
  {
   "name":"_ZN7android8hardware4gnss4V1_121BpHwGnssConfiguration4pingEv"
  },
  {
   "name":"_ZN7android8hardware4gnss4V1_121BpHwGnssConfiguration5debugERKNS0_11hidl_handleERKNS0_8hidl_vecINS0_11hidl_stringEEE"
  },
  {
   "name":"_ZN7android8hardware4gnss4V1_121BpHwGnssConfiguration9setSuplEsEb"
  },
  {
   "name":"_ZN7android8hardware4gnss4V1_121BpHwGnssConfigurationC1ERKNS_2spINS0_7IBinderEEE"
  },
  {
   "name":"_ZN7android8hardware4gnss4V1_121BpHwGnssConfigurationC2ERKNS_2spINS0_7IBinderEEE"
  },
  {
   "name":"_ZN7android8hardware4gnss4V1_121writeEmbeddedToParcelERKNS2_24IGnssMeasurementCallback8GnssDataEPNS0_6ParcelEjj"
  },
  {
   "name":"_ZN7android8hardware4gnss4V1_122readEmbeddedFromParcelERKNS2_24IGnssMeasurementCallback8GnssDataERKNS0_6ParcelEjj"
  },
  {
   "name":"_ZN7android8hardware4gnss4V1_124IGnssMeasurementCallback10getServiceERKNSt3__112basic_stringIcNS4_11char_traitsIcEENS4_9allocatorIcEEEEb"
  },
  {
   "name":"_ZN7android8hardware4gnss4V1_124IGnssMeasurementCallback11linkToDeathERKNS_2spINS0_20hidl_death_recipientEEEy"
  },
  {
   "name":"_ZN7android8hardware4gnss4V1_124IGnssMeasurementCallback12getDebugInfoENSt3__18functionIFvRKNS_4hidl4base4V1_09DebugInfoEEEE"
  },
  {
   "name":"_ZN7android8hardware4gnss4V1_124IGnssMeasurementCallback12getHashChainENSt3__18functionIFvRKNS0_8hidl_vecINS0_10hidl_arrayIhLj32EJEEEEEEEE"
  },
  {
   "name":"_ZN7android8hardware4gnss4V1_124IGnssMeasurementCallback13tryGetServiceERKNSt3__112basic_stringIcNS4_11char_traitsIcEENS4_9allocatorIcEEEEb"
  },
  {
   "name":"_ZN7android8hardware4gnss4V1_124IGnssMeasurementCallback13unlinkToDeathERKNS_2spINS0_20hidl_death_recipientEEE"
  },
  {
   "name":"_ZN7android8hardware4gnss4V1_124IGnssMeasurementCallback14interfaceChainENSt3__18functionIFvRKNS0_8hidl_vecINS0_11hidl_stringEEEEEE"
  },
  {
   "name":"_ZN7android8hardware4gnss4V1_124IGnssMeasurementCallback17registerAsServiceERKNSt3__112basic_stringIcNS4_11char_traitsIcEENS4_9allocatorIcEEEE"
  },
  {
   "name":"_ZN7android8hardware4gnss4V1_124IGnssMeasurementCallback19interfaceDescriptorENSt3__18functionIFvRKNS0_11hidl_stringEEEE"
  },
  {
   "name":"_ZN7android8hardware4gnss4V1_124IGnssMeasurementCallback21notifySyspropsChangedEv"
  },
  {
   "name":"_ZN7android8hardware4gnss4V1_124IGnssMeasurementCallback21setHALInstrumentationEv"
  },
  {
   "name":"_ZN7android8hardware4gnss4V1_124IGnssMeasurementCallback24registerForNotificationsERKNSt3__112basic_stringIcNS4_11char_traitsIcEENS4_9allocatorIcEEEERKNS_2spINS_4hidl7manager4V1_020IServiceNotificationEEE"
  },
  {
   "name":"_ZN7android8hardware4gnss4V1_124IGnssMeasurementCallback4pingEv"
  },
  {
   "name":"_ZN7android8hardware4gnss4V1_124IGnssMeasurementCallback5debugERKNS0_11hidl_handleERKNS0_8hidl_vecINS0_11hidl_stringEEE"
  },
  {
   "name":"_ZN7android8hardware4gnss4V1_124IGnssMeasurementCallback8castFromERKNS_2spINS1_4V1_024IGnssMeasurementCallbackEEEb"
  },
  {
   "name":"_ZN7android8hardware4gnss4V1_124IGnssMeasurementCallback8castFromERKNS_2spINS_4hidl4base4V1_05IBaseEEEb"
  },
  {
   "name":"_ZN7android8hardware4gnss4V1_124IGnssMeasurementCallback8castFromERKNS_2spIS3_EEb"
  },
  {
   "name":"_ZN7android8hardware4gnss4V1_125BsGnssMeasurementCallback13addOnewayTaskENSt3__18functionIFvvEEE"
  },
  {
   "name":"_ZN7android8hardware4gnss4V1_125BsGnssMeasurementCallbackC1ENS_2spINS2_24IGnssMeasurementCallbackEEE"
  },
  {
   "name":"_ZN7android8hardware4gnss4V1_125BsGnssMeasurementCallbackC2ENS_2spINS2_24IGnssMeasurementCallbackEEE"
  },
  {
   "name":"_ZN7android8hardware4gnss4V1_127BnHwGnssMeasurementCallback10onTransactEjRKNS0_6ParcelEPS4_jNSt3__18functionIFvRS4_EEE"
  },
  {
   "name":"_ZN7android8hardware4gnss4V1_127BnHwGnssMeasurementCallback12getDebugInfoENSt3__18functionIFvRKNS_4hidl4base4V1_09DebugInfoEEEE"
  },
  {
   "name":"_ZN7android8hardware4gnss4V1_127BnHwGnssMeasurementCallback23_hidl_gnssMeasurementCbEPNS_4hidl4base4V1_08BnHwBaseERKNS0_6ParcelEPS9_NSt3__18functionIFvRS9_EEE"
  },
  {
   "name":"_ZN7android8hardware4gnss4V1_127BnHwGnssMeasurementCallback4pingEv"
  },
  {
   "name":"_ZN7android8hardware4gnss4V1_127BnHwGnssMeasurementCallbackC1ERKNS_2spINS2_24IGnssMeasurementCallbackEEE"
  },
  {
   "name":"_ZN7android8hardware4gnss4V1_127BnHwGnssMeasurementCallbackC2ERKNS_2spINS2_24IGnssMeasurementCallbackEEE"
  },
  {
   "name":"_ZN7android8hardware4gnss4V1_127BnHwGnssMeasurementCallbackD0Ev"
  },
  {
   "name":"_ZN7android8hardware4gnss4V1_127BnHwGnssMeasurementCallbackD1Ev"
  },
  {
   "name":"_ZN7android8hardware4gnss4V1_127BnHwGnssMeasurementCallbackD2Ev"
  },
  {
   "name":"_ZN7android8hardware4gnss4V1_127BpHwGnssMeasurementCallback11linkToDeathERKNS_2spINS0_20hidl_death_recipientEEEy"
  },
  {
   "name":"_ZN7android8hardware4gnss4V1_127BpHwGnssMeasurementCallback12getDebugInfoENSt3__18functionIFvRKNS_4hidl4base4V1_09DebugInfoEEEE"
  },
  {
   "name":"_ZN7android8hardware4gnss4V1_127BpHwGnssMeasurementCallback12getHashChainENSt3__18functionIFvRKNS0_8hidl_vecINS0_10hidl_arrayIhLj32EJEEEEEEEE"
  },
  {
   "name":"_ZN7android8hardware4gnss4V1_127BpHwGnssMeasurementCallback13unlinkToDeathERKNS_2spINS0_20hidl_death_recipientEEE"
  },
  {
   "name":"_ZN7android8hardware4gnss4V1_127BpHwGnssMeasurementCallback14interfaceChainENSt3__18functionIFvRKNS0_8hidl_vecINS0_11hidl_stringEEEEEE"
  },
  {
   "name":"_ZN7android8hardware4gnss4V1_127BpHwGnssMeasurementCallback17GnssMeasurementCbERKNS1_4V1_024IGnssMeasurementCallback8GnssDataE"
  },
  {
   "name":"_ZN7android8hardware4gnss4V1_127BpHwGnssMeasurementCallback17gnssMeasurementCbERKNS2_24IGnssMeasurementCallback8GnssDataE"
  },
  {
   "name":"_ZN7android8hardware4gnss4V1_127BpHwGnssMeasurementCallback19interfaceDescriptorENSt3__18functionIFvRKNS0_11hidl_stringEEEE"
  },
  {
   "name":"_ZN7android8hardware4gnss4V1_127BpHwGnssMeasurementCallback21notifySyspropsChangedEv"
  },
  {
   "name":"_ZN7android8hardware4gnss4V1_127BpHwGnssMeasurementCallback21setHALInstrumentationEv"
  },
  {
   "name":"_ZN7android8hardware4gnss4V1_127BpHwGnssMeasurementCallback23_hidl_gnssMeasurementCbEPNS0_10IInterfaceEPNS0_7details16HidlInstrumentorERKNS2_24IGnssMeasurementCallback8GnssDataE"
  },
  {
   "name":"_ZN7android8hardware4gnss4V1_127BpHwGnssMeasurementCallback4pingEv"
  },
  {
   "name":"_ZN7android8hardware4gnss4V1_127BpHwGnssMeasurementCallback5debugERKNS0_11hidl_handleERKNS0_8hidl_vecINS0_11hidl_stringEEE"
  },
  {
   "name":"_ZN7android8hardware4gnss4V1_127BpHwGnssMeasurementCallbackC1ERKNS_2spINS0_7IBinderEEE"
  },
  {
   "name":"_ZN7android8hardware4gnss4V1_127BpHwGnssMeasurementCallbackC2ERKNS_2spINS0_7IBinderEEE"
  },
  {
   "name":"_ZN7android8hardware4gnss4V1_15IGnss10getServiceERKNSt3__112basic_stringIcNS4_11char_traitsIcEENS4_9allocatorIcEEEEb"
  },
  {
   "name":"_ZN7android8hardware4gnss4V1_15IGnss11linkToDeathERKNS_2spINS0_20hidl_death_recipientEEEy"
  },
  {
   "name":"_ZN7android8hardware4gnss4V1_15IGnss12getDebugInfoENSt3__18functionIFvRKNS_4hidl4base4V1_09DebugInfoEEEE"
  },
  {
   "name":"_ZN7android8hardware4gnss4V1_15IGnss12getHashChainENSt3__18functionIFvRKNS0_8hidl_vecINS0_10hidl_arrayIhLj32EJEEEEEEEE"
  },
  {
   "name":"_ZN7android8hardware4gnss4V1_15IGnss13tryGetServiceERKNSt3__112basic_stringIcNS4_11char_traitsIcEENS4_9allocatorIcEEEEb"
  },
  {
   "name":"_ZN7android8hardware4gnss4V1_15IGnss13unlinkToDeathERKNS_2spINS0_20hidl_death_recipientEEE"
  },
  {
   "name":"_ZN7android8hardware4gnss4V1_15IGnss14interfaceChainENSt3__18functionIFvRKNS0_8hidl_vecINS0_11hidl_stringEEEEEE"
  },
  {
   "name":"_ZN7android8hardware4gnss4V1_15IGnss17registerAsServiceERKNSt3__112basic_stringIcNS4_11char_traitsIcEENS4_9allocatorIcEEEE"
  },
  {
   "name":"_ZN7android8hardware4gnss4V1_15IGnss19interfaceDescriptorENSt3__18functionIFvRKNS0_11hidl_stringEEEE"
  },
  {
   "name":"_ZN7android8hardware4gnss4V1_15IGnss21notifySyspropsChangedEv"
  },
  {
   "name":"_ZN7android8hardware4gnss4V1_15IGnss21setHALInstrumentationEv"
  },
  {
   "name":"_ZN7android8hardware4gnss4V1_15IGnss24registerForNotificationsERKNSt3__112basic_stringIcNS4_11char_traitsIcEENS4_9allocatorIcEEEERKNS_2spINS_4hidl7manager4V1_020IServiceNotificationEEE"
  },
  {
   "name":"_ZN7android8hardware4gnss4V1_15IGnss4pingEv"
  },
  {
   "name":"_ZN7android8hardware4gnss4V1_15IGnss5debugERKNS0_11hidl_handleERKNS0_8hidl_vecINS0_11hidl_stringEEE"
  },
  {
   "name":"_ZN7android8hardware4gnss4V1_15IGnss8castFromERKNS_2spINS1_4V1_05IGnssEEEb"
  },
  {
   "name":"_ZN7android8hardware4gnss4V1_15IGnss8castFromERKNS_2spINS_4hidl4base4V1_05IBaseEEEb"
  },
  {
   "name":"_ZN7android8hardware4gnss4V1_15IGnss8castFromERKNS_2spIS3_EEb"
  },
  {
   "name":"_ZN7android8hardware4gnss4V1_16BsGnss13addOnewayTaskENSt3__18functionIFvvEEE"
  },
  {
   "name":"_ZN7android8hardware4gnss4V1_16BsGnssC1ENS_2spINS2_5IGnssEEE"
  },
  {
   "name":"_ZN7android8hardware4gnss4V1_16BsGnssC2ENS_2spINS2_5IGnssEEE"
  },
  {
   "name":"_ZN7android8hardware4gnss4V1_18BnHwGnss10onTransactEjRKNS0_6ParcelEPS4_jNSt3__18functionIFvRS4_EEE"
  },
  {
   "name":"_ZN7android8hardware4gnss4V1_18BnHwGnss12getDebugInfoENSt3__18functionIFvRKNS_4hidl4base4V1_09DebugInfoEEEE"
  },
  {
   "name":"_ZN7android8hardware4gnss4V1_18BnHwGnss21_hidl_setCallback_1_1EPNS_4hidl4base4V1_08BnHwBaseERKNS0_6ParcelEPS9_NSt3__18functionIFvRS9_EEE"
  },
  {
   "name":"_ZN7android8hardware4gnss4V1_18BnHwGnss24_hidl_injectBestLocationEPNS_4hidl4base4V1_08BnHwBaseERKNS0_6ParcelEPS9_NSt3__18functionIFvRS9_EEE"
  },
  {
   "name":"_ZN7android8hardware4gnss4V1_18BnHwGnss25_hidl_setPositionMode_1_1EPNS_4hidl4base4V1_08BnHwBaseERKNS0_6ParcelEPS9_NSt3__18functionIFvRS9_EEE"
  },
  {
   "name":"_ZN7android8hardware4gnss4V1_18BnHwGnss37_hidl_getExtensionGnssMeasurement_1_1EPNS_4hidl4base4V1_08BnHwBaseERKNS0_6ParcelEPS9_NSt3__18functionIFvRS9_EEE"
  },
  {
   "name":"_ZN7android8hardware4gnss4V1_18BnHwGnss39_hidl_getExtensionGnssConfiguration_1_1EPNS_4hidl4base4V1_08BnHwBaseERKNS0_6ParcelEPS9_NSt3__18functionIFvRS9_EEE"
  },
  {
   "name":"_ZN7android8hardware4gnss4V1_18BnHwGnss4pingEv"
  },
  {
   "name":"_ZN7android8hardware4gnss4V1_18BnHwGnssC1ERKNS_2spINS2_5IGnssEEE"
  },
  {
   "name":"_ZN7android8hardware4gnss4V1_18BnHwGnssC2ERKNS_2spINS2_5IGnssEEE"
  },
  {
   "name":"_ZN7android8hardware4gnss4V1_18BnHwGnssD0Ev"
  },
  {
   "name":"_ZN7android8hardware4gnss4V1_18BnHwGnssD1Ev"
  },
  {
   "name":"_ZN7android8hardware4gnss4V1_18BnHwGnssD2Ev"
  },
  {
   "name":"_ZN7android8hardware4gnss4V1_18BpHwGnss10injectTimeExxi"
  },
  {
   "name":"_ZN7android8hardware4gnss4V1_18BpHwGnss11linkToDeathERKNS_2spINS0_20hidl_death_recipientEEEy"
  },
  {
   "name":"_ZN7android8hardware4gnss4V1_18BpHwGnss11setCallbackERKNS_2spINS1_4V1_013IGnssCallbackEEE"
  },
  {
   "name":"_ZN7android8hardware4gnss4V1_18BpHwGnss12getDebugInfoENSt3__18functionIFvRKNS_4hidl4base4V1_09DebugInfoEEEE"
  },
  {
   "name":"_ZN7android8hardware4gnss4V1_18BpHwGnss12getHashChainENSt3__18functionIFvRKNS0_8hidl_vecINS0_10hidl_arrayIhLj32EJEEEEEEEE"
  },
  {
   "name":"_ZN7android8hardware4gnss4V1_18BpHwGnss13unlinkToDeathERKNS_2spINS0_20hidl_death_recipientEEE"
  },
  {
   "name":"_ZN7android8hardware4gnss4V1_18BpHwGnss14injectLocationEddf"
  },
  {
   "name":"_ZN7android8hardware4gnss4V1_18BpHwGnss14interfaceChainENSt3__18functionIFvRKNS0_8hidl_vecINS0_11hidl_stringEEEEEE"
  },
  {
   "name":"_ZN7android8hardware4gnss4V1_18BpHwGnss15setCallback_1_1ERKNS_2spINS2_13IGnssCallbackEEE"
  },
  {
   "name":"_ZN7android8hardware4gnss4V1_18BpHwGnss15setPositionModeENS1_4V1_05IGnss16GnssPositionModeENS5_22GnssPositionRecurrenceEjjj"
  },
  {
   "name":"_ZN7android8hardware4gnss4V1_18BpHwGnss16deleteAidingDataENS1_4V1_05IGnss14GnssAidingDataE"
  },
  {
   "name":"_ZN7android8hardware4gnss4V1_18BpHwGnss16getExtensionXtraEv"
  },
  {
   "name":"_ZN7android8hardware4gnss4V1_18BpHwGnss17getExtensionAGnssEv"
  },
  {
   "name":"_ZN7android8hardware4gnss4V1_18BpHwGnss18getExtensionGnssNiEv"
  },
  {
   "name":"_ZN7android8hardware4gnss4V1_18BpHwGnss18injectBestLocationERKNS1_4V1_012GnssLocationE"
  },
  {
   "name":"_ZN7android8hardware4gnss4V1_18BpHwGnss19interfaceDescriptorENSt3__18functionIFvRKNS0_11hidl_stringEEEE"
  },
  {
   "name":"_ZN7android8hardware4gnss4V1_18BpHwGnss19setPositionMode_1_1ENS1_4V1_05IGnss16GnssPositionModeENS5_22GnssPositionRecurrenceEjjjb"
  },
  {
   "name":"_ZN7android8hardware4gnss4V1_18BpHwGnss20getExtensionAGnssRilEv"
  },
  {
   "name":"_ZN7android8hardware4gnss4V1_18BpHwGnss21_hidl_setCallback_1_1EPNS0_10IInterfaceEPNS0_7details16HidlInstrumentorERKNS_2spINS2_13IGnssCallbackEEE"
  },
  {
   "name":"_ZN7android8hardware4gnss4V1_18BpHwGnss21getExtensionGnssDebugEv"
  },
  {
   "name":"_ZN7android8hardware4gnss4V1_18BpHwGnss21notifySyspropsChangedEv"
  },
  {
   "name":"_ZN7android8hardware4gnss4V1_18BpHwGnss21setHALInstrumentationEv"
  },
  {
   "name":"_ZN7android8hardware4gnss4V1_18BpHwGnss24_hidl_injectBestLocationEPNS0_10IInterfaceEPNS0_7details16HidlInstrumentorERKNS1_4V1_012GnssLocationE"
  },
  {
   "name":"_ZN7android8hardware4gnss4V1_18BpHwGnss24getExtensionGnssBatchingEv"
  },
  {
   "name":"_ZN7android8hardware4gnss4V1_18BpHwGnss25_hidl_setPositionMode_1_1EPNS0_10IInterfaceEPNS0_7details16HidlInstrumentorENS1_4V1_05IGnss16GnssPositionModeENSA_22GnssPositionRecurrenceEjjjb"
  },
  {
   "name":"_ZN7android8hardware4gnss4V1_18BpHwGnss26getExtensionGnssGeofencingEv"
  },
  {
   "name":"_ZN7android8hardware4gnss4V1_18BpHwGnss27getExtensionGnssMeasurementEv"
  },
  {
   "name":"_ZN7android8hardware4gnss4V1_18BpHwGnss29getExtensionGnssConfigurationEv"
  },
  {
   "name":"_ZN7android8hardware4gnss4V1_18BpHwGnss31getExtensionGnssMeasurement_1_1Ev"
  },
  {
   "name":"_ZN7android8hardware4gnss4V1_18BpHwGnss33getExtensionGnssConfiguration_1_1Ev"
  },
  {
   "name":"_ZN7android8hardware4gnss4V1_18BpHwGnss33getExtensionGnssNavigationMessageEv"
  },
  {
   "name":"_ZN7android8hardware4gnss4V1_18BpHwGnss37_hidl_getExtensionGnssMeasurement_1_1EPNS0_10IInterfaceEPNS0_7details16HidlInstrumentorE"
  },
  {
   "name":"_ZN7android8hardware4gnss4V1_18BpHwGnss39_hidl_getExtensionGnssConfiguration_1_1EPNS0_10IInterfaceEPNS0_7details16HidlInstrumentorE"
  },
  {
   "name":"_ZN7android8hardware4gnss4V1_18BpHwGnss4pingEv"
  },
  {
   "name":"_ZN7android8hardware4gnss4V1_18BpHwGnss4stopEv"
  },
  {
   "name":"_ZN7android8hardware4gnss4V1_18BpHwGnss5debugERKNS0_11hidl_handleERKNS0_8hidl_vecINS0_11hidl_stringEEE"
  },
  {
   "name":"_ZN7android8hardware4gnss4V1_18BpHwGnss5startEv"
  },
  {
   "name":"_ZN7android8hardware4gnss4V1_18BpHwGnss7cleanupEv"
  },
  {
   "name":"_ZN7android8hardware4gnss4V1_18BpHwGnssC1ERKNS_2spINS0_7IBinderEEE"
  },
  {
   "name":"_ZN7android8hardware4gnss4V1_18BpHwGnssC2ERKNS_2spINS0_7IBinderEEE"
  },
  {
   "binding":"weak",
   "name":"_ZN7android8hardware7details13castInterfaceINS0_4gnss4V1_113IGnssCallbackENS3_4V1_013IGnssCallbackENS4_16BpHwGnssCallbackEEENS0_6ReturnINS_2spIT_EEEENSA_IT0_EEPKcb"
  },
  {
   "binding":"weak",
   "name":"_ZN7android8hardware7details13castInterfaceINS0_4gnss4V1_113IGnssCallbackENS_4hidl4base4V1_05IBaseENS4_16BpHwGnssCallbackEEENS0_6ReturnINS_2spIT_EEEENSC_IT0_EEPKcb"
  },
  {
   "binding":"weak",
   "name":"_ZN7android8hardware7details13castInterfaceINS0_4gnss4V1_116IGnssMeasurementENS3_4V1_016IGnssMeasurementENS4_19BpHwGnssMeasurementEEENS0_6ReturnINS_2spIT_EEEENSA_IT0_EEPKcb"
  },
  {
   "binding":"weak",
   "name":"_ZN7android8hardware7details13castInterfaceINS0_4gnss4V1_116IGnssMeasurementENS_4hidl4base4V1_05IBaseENS4_19BpHwGnssMeasurementEEENS0_6ReturnINS_2spIT_EEEENSC_IT0_EEPKcb"
  },
  {
   "binding":"weak",
   "name":"_ZN7android8hardware7details13castInterfaceINS0_4gnss4V1_118IGnssConfigurationENS3_4V1_018IGnssConfigurationENS4_21BpHwGnssConfigurationEEENS0_6ReturnINS_2spIT_EEEENSA_IT0_EEPKcb"
  },
  {
   "binding":"weak",
   "name":"_ZN7android8hardware7details13castInterfaceINS0_4gnss4V1_118IGnssConfigurationENS_4hidl4base4V1_05IBaseENS4_21BpHwGnssConfigurationEEENS0_6ReturnINS_2spIT_EEEENSC_IT0_EEPKcb"
  },
  {
   "binding":"weak",
   "name":"_ZN7android8hardware7details13castInterfaceINS0_4gnss4V1_124IGnssMeasurementCallbackENS3_4V1_024IGnssMeasurementCallbackENS4_27BpHwGnssMeasurementCallbackEEENS0_6ReturnINS_2spIT_EEEENSA_IT0_EEPKcb"
  },
  {
   "binding":"weak",
   "name":"_ZN7android8hardware7details13castInterfaceINS0_4gnss4V1_124IGnssMeasurementCallbackENS_4hidl4base4V1_05IBaseENS4_27BpHwGnssMeasurementCallbackEEENS0_6ReturnINS_2spIT_EEEENSC_IT0_EEPKcb"
  },
  {
   "binding":"weak",
   "name":"_ZN7android8hardware7details13castInterfaceINS0_4gnss4V1_15IGnssENS3_4V1_05IGnssENS4_8BpHwGnssEEENS0_6ReturnINS_2spIT_EEEENSA_IT0_EEPKcb"
  },
  {
   "binding":"weak",
   "name":"_ZN7android8hardware7details13castInterfaceINS0_4gnss4V1_15IGnssENS_4hidl4base4V1_05IBaseENS4_8BpHwGnssEEENS0_6ReturnINS_2spIT_EEEENSC_IT0_EEPKcb"
  },
  {
   "binding":"weak",
   "name":"_ZN7android8hardware7details15wrapPassthroughINS0_4gnss4V1_013IGnssCallbackEvEENS_2spIT_EES8_"
  },
  {
   "binding":"weak",
   "name":"_ZN7android8hardware7details15wrapPassthroughINS0_4gnss4V1_024IGnssMeasurementCallbackEvEENS_2spIT_EES8_"
  },
  {
   "binding":"weak",
   "name":"_ZN7android8hardware7details15wrapPassthroughINS0_4gnss4V1_113IGnssCallbackEvEENS_2spIT_EES8_"
  },
  {
   "binding":"weak",
   "name":"_ZN7android8hardware7details15wrapPassthroughINS0_4gnss4V1_124IGnssMeasurementCallbackEvEENS_2spIT_EES8_"
  },
  {
   "binding":"weak",
   "name":"_ZN7android8hardware7details18getServiceInternalINS0_4gnss4V1_116BpHwGnssCallbackENS4_13IGnssCallbackEvvEENS_2spIT0_EERKNSt3__112basic_stringIcNSA_11char_traitsIcEENSA_9allocatorIcEEEEbb"
  },
  {
   "binding":"weak",
   "name":"_ZN7android8hardware7details18getServiceInternalINS0_4gnss4V1_119BpHwGnssMeasurementENS4_16IGnssMeasurementEvvEENS_2spIT0_EERKNSt3__112basic_stringIcNSA_11char_traitsIcEENSA_9allocatorIcEEEEbb"
  },
  {
   "binding":"weak",
   "name":"_ZN7android8hardware7details18getServiceInternalINS0_4gnss4V1_121BpHwGnssConfigurationENS4_18IGnssConfigurationEvvEENS_2spIT0_EERKNSt3__112basic_stringIcNSA_11char_traitsIcEENSA_9allocatorIcEEEEbb"
  },
  {
   "binding":"weak",
   "name":"_ZN7android8hardware7details18getServiceInternalINS0_4gnss4V1_127BpHwGnssMeasurementCallbackENS4_24IGnssMeasurementCallbackEvvEENS_2spIT0_EERKNSt3__112basic_stringIcNSA_11char_traitsIcEENSA_9allocatorIcEEEEbb"
  },
  {
   "binding":"weak",
   "name":"_ZN7android8hardware7details18getServiceInternalINS0_4gnss4V1_18BpHwGnssENS4_5IGnssEvvEENS_2spIT0_EERKNSt3__112basic_stringIcNSA_11char_traitsIcEENSA_9allocatorIcEEEEbb"
  },
  {
   "binding":"weak",
   "name":"_ZN7android8hardware8toBinderINS0_4gnss4V1_013IGnssCallbackEvEENS_2spINS0_7IBinderEEENS5_IT_EE"
  },
  {
   "binding":"weak",
   "name":"_ZN7android8hardware8toBinderINS0_4gnss4V1_016IGnssMeasurementEvEENS_2spINS0_7IBinderEEENS5_IT_EE"
  },
  {
   "binding":"weak",
   "name":"_ZN7android8hardware8toBinderINS0_4gnss4V1_018IGnssConfigurationEvEENS_2spINS0_7IBinderEEENS5_IT_EE"
  },
  {
   "binding":"weak",
   "name":"_ZN7android8hardware8toBinderINS0_4gnss4V1_024IGnssMeasurementCallbackEvEENS_2spINS0_7IBinderEEENS5_IT_EE"
  },
  {
   "binding":"weak",
   "name":"_ZN7android8hardware8toBinderINS0_4gnss4V1_05IGnssEvEENS_2spINS0_7IBinderEEENS5_IT_EE"
  },
  {
   "binding":"weak",
   "name":"_ZN7android8hardware8toBinderINS0_4gnss4V1_113IGnssCallbackEvEENS_2spINS0_7IBinderEEENS5_IT_EE"
  },
  {
   "binding":"weak",
   "name":"_ZN7android8hardware8toBinderINS0_4gnss4V1_116IGnssMeasurementEvEENS_2spINS0_7IBinderEEENS5_IT_EE"
  },
  {
   "binding":"weak",
   "name":"_ZN7android8hardware8toBinderINS0_4gnss4V1_118IGnssConfigurationEvEENS_2spINS0_7IBinderEEENS5_IT_EE"
  },
  {
   "binding":"weak",
   "name":"_ZN7android8hardware8toBinderINS0_4gnss4V1_124IGnssMeasurementCallbackEvEENS_2spINS0_7IBinderEEENS5_IT_EE"
  },
  {
   "binding":"weak",
   "name":"_ZN7android8hardware8toBinderINS_4hidl4base4V1_05IBaseEvEENS_2spINS0_7IBinderEEENS6_IT_EE"
  },
  {
   "name":"_ZThn20_N7android8hardware4gnss4V1_116BnHwGnssCallbackD0Ev"
  },
  {
   "name":"_ZThn20_N7android8hardware4gnss4V1_116BnHwGnssCallbackD1Ev"
  },
  {
   "name":"_ZThn20_N7android8hardware4gnss4V1_119BnHwGnssMeasurementD0Ev"
  },
  {
   "name":"_ZThn20_N7android8hardware4gnss4V1_119BnHwGnssMeasurementD1Ev"
  },
  {
   "name":"_ZThn20_N7android8hardware4gnss4V1_121BnHwGnssConfigurationD0Ev"
  },
  {
   "name":"_ZThn20_N7android8hardware4gnss4V1_121BnHwGnssConfigurationD1Ev"
  },
  {
   "name":"_ZThn20_N7android8hardware4gnss4V1_127BnHwGnssMeasurementCallbackD0Ev"
  },
  {
   "name":"_ZThn20_N7android8hardware4gnss4V1_127BnHwGnssMeasurementCallbackD1Ev"
  },
  {
   "name":"_ZThn20_N7android8hardware4gnss4V1_18BnHwGnssD0Ev"
  },
  {
   "name":"_ZThn20_N7android8hardware4gnss4V1_18BnHwGnssD1Ev"
  },
  {
   "name":"_ZTv0_n12_N7android8hardware4gnss4V1_116BnHwGnssCallbackD0Ev"
  },
  {
   "name":"_ZTv0_n12_N7android8hardware4gnss4V1_116BnHwGnssCallbackD1Ev"
  },
  {
   "name":"_ZTv0_n12_N7android8hardware4gnss4V1_119BnHwGnssMeasurementD0Ev"
  },
  {
   "name":"_ZTv0_n12_N7android8hardware4gnss4V1_119BnHwGnssMeasurementD1Ev"
  },
  {
   "name":"_ZTv0_n12_N7android8hardware4gnss4V1_121BnHwGnssConfigurationD0Ev"
  },
  {
   "name":"_ZTv0_n12_N7android8hardware4gnss4V1_121BnHwGnssConfigurationD1Ev"
  },
  {
   "name":"_ZTv0_n12_N7android8hardware4gnss4V1_127BnHwGnssMeasurementCallbackD0Ev"
  },
  {
   "name":"_ZTv0_n12_N7android8hardware4gnss4V1_127BnHwGnssMeasurementCallbackD1Ev"
  },
  {
   "name":"_ZTv0_n12_N7android8hardware4gnss4V1_18BnHwGnssD0Ev"
  },
  {
   "name":"_ZTv0_n12_N7android8hardware4gnss4V1_18BnHwGnssD1Ev"
  }
 ],
 "elf_objects":[
  {
   "name":"_ZN7android8hardware4gnss4V1_113IGnssCallback10descriptorE"
  },
  {
   "name":"_ZN7android8hardware4gnss4V1_116IGnssMeasurement10descriptorE"
  },
  {
   "name":"_ZN7android8hardware4gnss4V1_118IGnssConfiguration10descriptorE"
  },
  {
   "name":"_ZN7android8hardware4gnss4V1_124IGnssMeasurementCallback10descriptorE"
  },
  {
   "name":"_ZN7android8hardware4gnss4V1_15IGnss10descriptorE"
  },
  {
   "name":"_ZTTN7android8hardware4gnss4V1_113IGnssCallbackE"
  },
  {
   "name":"_ZTTN7android8hardware4gnss4V1_116BnHwGnssCallbackE"
  },
  {
   "name":"_ZTTN7android8hardware4gnss4V1_116BpHwGnssCallbackE"
  },
  {
   "name":"_ZTTN7android8hardware4gnss4V1_116IGnssMeasurementE"
  },
  {
   "name":"_ZTTN7android8hardware4gnss4V1_118IGnssConfigurationE"
  },
  {
   "name":"_ZTTN7android8hardware4gnss4V1_119BnHwGnssMeasurementE"
  },
  {
   "name":"_ZTTN7android8hardware4gnss4V1_119BpHwGnssMeasurementE"
  },
  {
   "name":"_ZTTN7android8hardware4gnss4V1_121BnHwGnssConfigurationE"
  },
  {
   "name":"_ZTTN7android8hardware4gnss4V1_121BpHwGnssConfigurationE"
  },
  {
   "name":"_ZTTN7android8hardware4gnss4V1_124IGnssMeasurementCallbackE"
  },
  {
   "name":"_ZTTN7android8hardware4gnss4V1_127BnHwGnssMeasurementCallbackE"
  },
  {
   "name":"_ZTTN7android8hardware4gnss4V1_127BpHwGnssMeasurementCallbackE"
  },
  {
   "name":"_ZTTN7android8hardware4gnss4V1_15IGnssE"
  },
  {
   "name":"_ZTTN7android8hardware4gnss4V1_18BnHwGnssE"
  },
  {
   "name":"_ZTTN7android8hardware4gnss4V1_18BpHwGnssE"
  },
  {
   "name":"_ZTVN7android8hardware4gnss4V1_113IGnssCallbackE"
  },
  {
   "binding":"weak",
   "name":"_ZTVN7android8hardware4gnss4V1_114BsGnssCallbackE"
  },
  {
   "name":"_ZTVN7android8hardware4gnss4V1_116BnHwGnssCallbackE"
  },
  {
   "name":"_ZTVN7android8hardware4gnss4V1_116BpHwGnssCallbackE"
  },
  {
   "name":"_ZTVN7android8hardware4gnss4V1_116IGnssMeasurementE"
  },
  {
   "binding":"weak",
   "name":"_ZTVN7android8hardware4gnss4V1_117BsGnssMeasurementE"
  },
  {
   "name":"_ZTVN7android8hardware4gnss4V1_118IGnssConfigurationE"
  },
  {
   "name":"_ZTVN7android8hardware4gnss4V1_119BnHwGnssMeasurementE"
  },
  {
   "name":"_ZTVN7android8hardware4gnss4V1_119BpHwGnssMeasurementE"
  },
  {
   "binding":"weak",
   "name":"_ZTVN7android8hardware4gnss4V1_119BsGnssConfigurationE"
  },
  {
   "name":"_ZTVN7android8hardware4gnss4V1_121BnHwGnssConfigurationE"
  },
  {
   "name":"_ZTVN7android8hardware4gnss4V1_121BpHwGnssConfigurationE"
  },
  {
   "name":"_ZTVN7android8hardware4gnss4V1_124IGnssMeasurementCallbackE"
  },
  {
   "binding":"weak",
   "name":"_ZTVN7android8hardware4gnss4V1_125BsGnssMeasurementCallbackE"
  },
  {
   "name":"_ZTVN7android8hardware4gnss4V1_127BnHwGnssMeasurementCallbackE"
  },
  {
   "name":"_ZTVN7android8hardware4gnss4V1_127BpHwGnssMeasurementCallbackE"
  },
  {
   "name":"_ZTVN7android8hardware4gnss4V1_15IGnssE"
  },
  {
   "binding":"weak",
   "name":"_ZTVN7android8hardware4gnss4V1_16BsGnssE"
  },
  {
   "name":"_ZTVN7android8hardware4gnss4V1_18BnHwGnssE"
  },
  {
   "name":"_ZTVN7android8hardware4gnss4V1_18BpHwGnssE"
  }
 ]
}