{
 "record_types":[
  {
   "vtable_components":[
    {
     "kind":"vbase_offset",
     "component_value":4
    },
    {
     "kind":"offset_to_top"
    },
    {
     "kind":"rtti",
     "mangled_component_name":"_ZTIN7android8hardware3drm4V1_010IDrmPluginE"
    },
    {
     "mangled_component_name":"_ZNK7android8hardware3drm4V1_010IDrmPlugin8isRemoteEv"
    },
    {
     "mangled_component_name":"_ZN7android8hardware3drm4V1_010IDrmPlugin14interfaceChainENSt3__18functionIFvRKNS0_8hidl_vecINS0_11hidl_stringEEEEEE"
    },
    {
     "mangled_component_name":"_ZN7android8hardware3drm4V1_010IDrmPlugin5debugERKNS0_11hidl_handleERKNS0_8hidl_vecINS0_11hidl_stringEEE"
    },
    {
     "mangled_component_name":"_ZN7android8hardware3drm4V1_010IDrmPlugin19interfaceDescriptorENSt3__18functionIFvRKNS0_11hidl_stringEEEE"
    },
    {
     "mangled_component_name":"_ZN7android8hardware3drm4V1_010IDrmPlugin12getHashChainENSt3__18functionIFvRKNS0_8hidl_vecINS0_10hidl_arrayIhLj32EJEEEEEEEE"
    },
    {
     "mangled_component_name":"_ZN7android8hardware3drm4V1_010IDrmPlugin21setHALInstrumentationEv"
    },
    {
     "mangled_component_name":"_ZN7android8hardware3drm4V1_010IDrmPlugin11linkToDeathERKNS_2spINS0_20hidl_death_recipientEEEy"
    },
    {
     "mangled_component_name":"_ZN7android8hardware3drm4V1_010IDrmPlugin4pingEv"
    },
    {
     "mangled_component_name":"_ZN7android8hardware3drm4V1_010IDrmPlugin12getDebugInfoENSt3__18functionIFvRKNS_4hidl4base4V1_09DebugInfoEEEE"
    },
    {
     "mangled_component_name":"_ZN7android8hardware3drm4V1_010IDrmPlugin21notifySyspropsChangedEv"
    },
    {
     "mangled_component_name":"_ZN7android8hardware3drm4V1_010IDrmPlugin13unlinkToDeathERKNS_2spINS0_20hidl_death_recipientEEE"
    },
    {
     "kind":"complete_dtor_pointer",
     "mangled_component_name":"_ZN7android8hardware3drm4V1_010IDrmPluginD1Ev"
    },
    {
     "kind":"deleting_dtor_pointer",
     "mangled_component_name":"_ZN7android8hardware3drm4V1_010IDrmPluginD0Ev"
    },
    {
     "is_pure":true,
     "mangled_component_name":"_ZN7android8hardware3drm4V1_010IDrmPlugin11openSessionENSt3__18functionIFvNS2_6StatusERKNS0_8hidl_vecIhEEEEE"
    },
    {
     "is_pure":true,
     "mangled_component_name":"_ZN7android8hardware3drm4V1_010IDrmPlugin12closeSessionERKNS0_8hidl_vecIhEE"
    },
    {
     "is_pure":true,
     "mangled_component_name":"_ZN7android8hardware3drm4V1_010IDrmPlugin13getKeyRequestERKNS0_8hidl_vecIhEES7_RKNS0_11hidl_stringENS2_7KeyTypeERKNS4_INS2_8KeyValueEEENSt3__18functionIFvNS2_6StatusES7_NS2_14KeyRequestTypeESA_EEE"
    },
    {
     "is_pure":true,
     "mangled_component_name":"_ZN7android8hardware3drm4V1_010IDrmPlugin18provideKeyResponseERKNS0_8hidl_vecIhEES7_NSt3__18functionIFvNS2_6StatusES7_EEE"
    },
    {
     "is_pure":true,
     "mangled_component_name":"_ZN7android8hardware3drm4V1_010IDrmPlugin10removeKeysERKNS0_8hidl_vecIhEE"
    },
    {
     "is_pure":true,
     "mangled_component_name":"_ZN7android8hardware3drm4V1_010IDrmPlugin11restoreKeysERKNS0_8hidl_vecIhEES7_"
    },
    {
     "is_pure":true,
     "mangled_component_name":"_ZN7android8hardware3drm4V1_010IDrmPlugin14queryKeyStatusERKNS0_8hidl_vecIhEENSt3__18functionIFvNS2_6StatusERKNS4_INS2_8KeyValueEEEEEE"
    },
    {
     "is_pure":true,
     "mangled_component_name":"_ZN7android8hardware3drm4V1_010IDrmPlugin19getProvisionRequestERKNS0_11hidl_stringES6_NSt3__18functionIFvNS2_6StatusERKNS0_8hidl_vecIhEES6_EEE"
    },
    {
     "is_pure":true,
     "mangled_component_name":"_ZN7android8hardware3drm4V1_010IDrmPlugin24provideProvisionResponseERKNS0_8hidl_vecIhEENSt3__18functionIFvNS2_6StatusES7_S7_EEE"
    },
    {
     "is_pure":true,
     "mangled_component_name":"_ZN7android8hardware3drm4V1_010IDrmPlugin14getSecureStopsENSt3__18functionIFvNS2_6StatusERKNS0_8hidl_vecINS2_10SecureStopEEEEEE"
    },
    {
     "is_pure":true,
     "mangled_component_name":"_ZN7android8hardware3drm4V1_010IDrmPlugin13getSecureStopERKNS0_8hidl_vecIhEENSt3__18functionIFvNS2_6StatusERKNS2_10SecureStopEEEE"
    },
    {
     "is_pure":true,
     "mangled_component_name":"_ZN7android8hardware3drm4V1_010IDrmPlugin21releaseAllSecureStopsEv"
    },
    {
     "is_pure":true,
     "mangled_component_name":"_ZN7android8hardware3drm4V1_010IDrmPlugin17releaseSecureStopERKNS0_8hidl_vecIhEE"
    },
    {
     "is_pure":true,
     "mangled_component_name":"_ZN7android8hardware3drm4V1_010IDrmPlugin17getPropertyStringERKNS0_11hidl_stringENSt3__18functionIFvNS2_6StatusES6_EEE"
    },
    {
     "is_pure":true,
     "mangled_component_name":"_ZN7android8hardware3drm4V1_010IDrmPlugin20getPropertyByteArrayERKNS0_11hidl_stringENSt3__18functionIFvNS2_6StatusERKNS0_8hidl_vecIhEEEEE"
    },
    {
     "is_pure":true,
     "mangled_component_name":"_ZN7android8hardware3drm4V1_010IDrmPlugin17setPropertyStringERKNS0_11hidl_stringES6_"
    },
    {
     "is_pure":true,
     "mangled_component_name":"_ZN7android8hardware3drm4V1_010IDrmPlugin20setPropertyByteArrayERKNS0_11hidl_stringERKNS0_8hidl_vecIhEE"
    },
    {
     "is_pure":true,
     "mangled_component_name":"_ZN7android8hardware3drm4V1_010IDrmPlugin18setCipherAlgorithmERKNS0_8hidl_vecIhEERKNS0_11hidl_stringE"
    },
    {
     "is_pure":true,
     "mangled_component_name":"_ZN7android8hardware3drm4V1_010IDrmPlugin15setMacAlgorithmERKNS0_8hidl_vecIhEERKNS0_11hidl_stringE"
    },
    {
     "is_pure":true,
     "mangled_component_name":"_ZN7android8hardware3drm4V1_010IDrmPlugin7encryptERKNS0_8hidl_vecIhEES7_S7_S7_NSt3__18functionIFvNS2_6StatusES7_EEE"
    },
    {
     "is_pure":true,
     "mangled_component_name":"_ZN7android8hardware3drm4V1_010IDrmPlugin7decryptERKNS0_8hidl_vecIhEES7_S7_S7_NSt3__18functionIFvNS2_6StatusES7_EEE"
    },
    {
     "is_pure":true,
     "mangled_component_name":"_ZN7android8hardware3drm4V1_010IDrmPlugin4signERKNS0_8hidl_vecIhEES7_S7_NSt3__18functionIFvNS2_6StatusES7_EEE"
    },
    {
     "is_pure":true,
     "mangled_component_name":"_ZN7android8hardware3drm4V1_010IDrmPlugin6verifyERKNS0_8hidl_vecIhEES7_S7_S7_NSt3__18functionIFvNS2_6StatusEbEEE"
    },
    {
     "is_pure":true,
     "mangled_component_name":"_ZN7android8hardware3drm4V1_010IDrmPlugin7signRSAERKNS0_8hidl_vecIhEERKNS0_11hidl_stringES7_S7_NSt3__18functionIFvNS2_6StatusES7_EEE"
    },
    {
     "is_pure":true,
     "mangled_component_name":"_ZN7android8hardware3drm4V1_010IDrmPlugin11setListenerERKNS_2spINS2_18IDrmPluginListenerEEE"
    },
    {
     "is_pure":true,
     "mangled_component_name":"_ZN7android8hardware3drm4V1_010IDrmPlugin9sendEventENS2_9EventTypeERKNS0_8hidl_vecIhEES8_"
    },
    {
     "is_pure":true,
     "mangled_component_name":"_ZN7android8hardware3drm4V1_010IDrmPlugin20sendExpirationUpdateERKNS0_8hidl_vecIhEEx"
    },
    {
     "is_pure":true,
     "mangled_component_name":"_ZN7android8hardware3drm4V1_010IDrmPlugin14sendKeysChangeERKNS0_8hidl_vecIhEERKNS4_INS2_9KeyStatusEEEb"
    },
    {
     "kind":"vcall_offset"
    },
    {
     "kind":"vcall_offset"
    },
    {
     "kind":"vcall_offset"
    },
    {
     "kind":"vcall_offset"
    },
    {
     "kind":"vcall_offset",
     "component_value":-4
    },
    {
     "kind":"offset_to_top",
     "component_value":-4
    },
    {
     "kind":"rtti",
     "mangled_component_name":"_ZTIN7android8hardware3drm4V1_010IDrmPluginE"
    },
    {
     "kind":"complete_dtor_pointer",
     "mangled_component_name":"_ZTv0_n12_N7android8hardware3drm4V1_010IDrmPluginD1Ev"
    },
    {
     "kind":"deleting_dtor_pointer",
     "mangled_component_name":"_ZTv0_n12_N7android8hardware3drm4V1_010IDrmPluginD0Ev"
    },
    {
     "mangled_component_name":"_ZN7android7RefBase10onFirstRefEv"
    },
    {
     "mangled_component_name":"_ZN7android7RefBase15onLastStrongRefEPKv"
    },
    {
     "mangled_component_name":"_ZN7android7RefBase20onIncStrongAttemptedEjPKv"
    },
    {
     "mangled_component_name":"_ZN7android7RefBase13onLastWeakRefEPKv"
    }
   ],
   "unique_id":"_ZTSN7android8hardware3drm4V1_010IDrmPluginE"
  },
  {
   "vtable_components":[
    {
     "kind":"vbase_offset",
     "component_value":60
    },
    {
     "kind":"offset_to_top"
    },
    {
     "kind":"rtti",
     "mangled_component_name":"_ZTIN7android8hardware3drm4V1_012BsDrmFactoryE"
    },
    {
     "mangled_component_name":"_ZNK7android8hardware3drm4V1_011IDrmFactory8isRemoteEv"
    },
    {
     "mangled_component_name":"_ZN7android8hardware3drm4V1_012BsDrmFactory14interfaceChainENSt3__18functionIFvRKNS0_8hidl_vecINS0_11hidl_stringEEEEEE"
    },
    {
     "mangled_component_name":"_ZN7android8hardware3drm4V1_012BsDrmFactory5debugERKNS0_11hidl_handleERKNS0_8hidl_vecINS0_11hidl_stringEEE"
    },
    {
     "mangled_component_name":"_ZN7android8hardware3drm4V1_012BsDrmFactory19interfaceDescriptorENSt3__18functionIFvRKNS0_11hidl_stringEEEE"
    },
    {
     "mangled_component_name":"_ZN7android8hardware3drm4V1_012BsDrmFactory12getHashChainENSt3__18functionIFvRKNS0_8hidl_vecINS0_10hidl_arrayIhLj32EJEEEEEEEE"
    },
    {
     "mangled_component_name":"_ZN7android8hardware3drm4V1_012BsDrmFactory21setHALInstrumentationEv"
    },
    {
     "mangled_component_name":"_ZN7android8hardware3drm4V1_012BsDrmFactory11linkToDeathERKNS_2spINS0_20hidl_death_recipientEEEy"
    },
    {
     "mangled_component_name":"_ZN7android8hardware3drm4V1_012BsDrmFactory4pingEv"
    },
    {
     "mangled_component_name":"_ZN7android8hardware3drm4V1_012BsDrmFactory12getDebugInfoENSt3__18functionIFvRKNS_4hidl4base4V1_09DebugInfoEEEE"
    },
    {
     "mangled_component_name":"_ZN7android8hardware3drm4V1_012BsDrmFactory21notifySyspropsChangedEv"
    },
    {
     "mangled_component_name":"_ZN7android8hardware3drm4V1_012BsDrmFactory13unlinkToDeathERKNS_2spINS0_20hidl_death_recipientEEE"
    },
    {
     "kind":"complete_dtor_pointer",
     "mangled_component_name":"_ZN7android8hardware3drm4V1_012BsDrmFactoryD1Ev"
    },
    {
     "kind":"deleting_dtor_pointer",
     "mangled_component_name":"_ZN7android8hardware3drm4V1_012BsDrmFactoryD0Ev"
    },
    {
     "mangled_component_name":"_ZN7android8hardware3drm4V1_012BsDrmFactory23isCryptoSchemeSupportedERKNS0_10hidl_arrayIhLj16EJEEE"
    },
    {
     "mangled_component_name":"_ZN7android8hardware3drm4V1_012BsDrmFactory22isContentTypeSupportedERKNS0_11hidl_stringE"
    },
    {
     "mangled_component_name":"_ZN7android8hardware3drm4V1_012BsDrmFactory12createPluginERKNS0_10hidl_arrayIhLj16EJEEERKNS0_11hidl_stringENSt3__18functionIFvNS2_6StatusERKNS_2spINS2_10IDrmPluginEEEEEE"
    },
    {
     "kind":"offset_to_top",
     "component_value":-4
    },
    {
     "kind":"rtti",
     "mangled_component_name":"_ZTIN7android8hardware3drm4V1_012BsDrmFactoryE"
    },
    {
     "kind":"complete_dtor_pointer",
     "mangled_component_name":"_ZThn4_N7android8hardware3drm4V1_012BsDrmFactoryD1Ev"
    },
    {
     "kind":"deleting_dtor_pointer",
     "mangled_component_name":"_ZThn4_N7android8hardware3drm4V1_012BsDrmFactoryD0Ev"
    },
    {
     "kind":"vcall_offset"
    },
    {
     "kind":"vcall_offset"
    },
    {
     "kind":"vcall_offset"
    },
    {
     "kind":"vcall_offset"
    },
    {
     "kind":"vcall_offset",
     "component_value":-60
    },
    {
     "kind":"offset_to_top",
     "component_value":-60
    },
    {
     "kind":"rtti",
     "mangled_component_name":"_ZTIN7android8hardware3drm4V1_012BsDrmFactoryE"
    },
    {
     "kind":"complete_dtor_pointer",
     "mangled_component_name":"_ZTv0_n12_N7android8hardware3drm4V1_012BsDrmFactoryD1Ev"
    },
    {
     "kind":"deleting_dtor_pointer",
     "mangled_component_name":"_ZTv0_n12_N7android8hardware3drm4V1_012BsDrmFactoryD0Ev"
    },
    {
     "mangled_component_name":"_ZN7android7RefBase10onFirstRefEv"
    },
    {
     "mangled_component_name":"_ZN7android7RefBase15onLastStrongRefEPKv"
    },
    {
     "mangled_component_name":"_ZN7android7RefBase20onIncStrongAttemptedEjPKv"
    },
    {
     "mangled_component_name":"_ZN7android7RefBase13onLastWeakRefEPKv"
    }
   ],
   "unique_id":"_ZTSN7android8hardware3drm4V1_012BsDrmFactoryE"
  },
  {
   "vtable_components":[
    {
     "kind":"vbase_offset",
     "component_value":84
    },
    {
     "kind":"offset_to_top"
    },
    {
     "kind":"rtti",
     "mangled_component_name":"_ZTIN7android8hardware3drm4V1_017BpHwCryptoFactoryE"
    },
    {
     "mangled_component_name":"_ZNK7android8hardware3drm4V1_017BpHwCryptoFactory8isRemoteEv"
    },
    {
     "mangled_component_name":"_ZN7android8hardware3drm4V1_017BpHwCryptoFactory14interfaceChainENSt3__18functionIFvRKNS0_8hidl_vecINS0_11hidl_stringEEEEEE"
    },
    {
     "mangled_component_name":"_ZN7android8hardware3drm4V1_017BpHwCryptoFactory5debugERKNS0_11hidl_handleERKNS0_8hidl_vecINS0_11hidl_stringEEE"
    },
    {
     "mangled_component_name":"_ZN7android8hardware3drm4V1_017BpHwCryptoFactory19interfaceDescriptorENSt3__18functionIFvRKNS0_11hidl_stringEEEE"
    },
    {
     "mangled_component_name":"_ZN7android8hardware3drm4V1_017BpHwCryptoFactory12getHashChainENSt3__18functionIFvRKNS0_8hidl_vecINS0_10hidl_arrayIhLj32EJEEEEEEEE"
    },
    {
     "mangled_component_name":"_ZN7android8hardware3drm4V1_017BpHwCryptoFactory21setHALInstrumentationEv"
    },
    {
     "mangled_component_name":"_ZN7android8hardware3drm4V1_017BpHwCryptoFactory11linkToDeathERKNS_2spINS0_20hidl_death_recipientEEEy"
    },
    {
     "mangled_component_name":"_ZN7android8hardware3drm4V1_017BpHwCryptoFactory4pingEv"
    },
    {
     "mangled_component_name":"_ZN7android8hardware3drm4V1_017BpHwCryptoFactory12getDebugInfoENSt3__18functionIFvRKNS_4hidl4base4V1_09DebugInfoEEEE"
    },
    {
     "mangled_component_name":"_ZN7android8hardware3drm4V1_017BpHwCryptoFactory21notifySyspropsChangedEv"
    },
    {
     "mangled_component_name":"_ZN7android8hardware3drm4V1_017BpHwCryptoFactory13unlinkToDeathERKNS_2spINS0_20hidl_death_recipientEEE"
    },
    {
     "kind":"complete_dtor_pointer",
     "mangled_component_name":"_ZN7android8hardware3drm4V1_017BpHwCryptoFactoryD1Ev"
    },
    {
     "kind":"deleting_dtor_pointer",
     "mangled_component_name":"_ZN7android8hardware3drm4V1_017BpHwCryptoFactoryD0Ev"
    },
    {
     "mangled_component_name":"_ZN7android8hardware3drm4V1_017BpHwCryptoFactory23isCryptoSchemeSupportedERKNS0_10hidl_arrayIhLj16EJEEE"
    },
    {
     "mangled_component_name":"_ZN7android8hardware3drm4V1_017BpHwCryptoFactory12createPluginERKNS0_10hidl_arrayIhLj16EJEEERKNS0_8hidl_vecIhEENSt3__18functionIFvNS2_6StatusERKNS_2spINS2_13ICryptoPluginEEEEEE"
    },
    {
     "mangled_component_name":"_ZN7android8hardware11BpInterfaceINS0_3drm4V1_014ICryptoFactoryEE10onAsBinderEv"
    },
    {
     "kind":"vbase_offset",
     "component_value":80
    },
    {
     "kind":"offset_to_top",
     "component_value":-4
    },
    {
     "kind":"rtti",
     "mangled_component_name":"_ZTIN7android8hardware3drm4V1_017BpHwCryptoFactoryE"
    },
    {
     "kind":"complete_dtor_pointer",
     "mangled_component_name":"_ZThn4_N7android8hardware3drm4V1_017BpHwCryptoFactoryD1Ev"
    },
    {
     "kind":"deleting_dtor_pointer",
     "mangled_component_name":"_ZThn4_N7android8hardware3drm4V1_017BpHwCryptoFactoryD0Ev"
    },
    {
     "mangled_component_name":"_ZThn4_N7android8hardware11BpInterfaceINS0_3drm4V1_014ICryptoFactoryEE10onAsBinderEv"
    },
    {
     "kind":"vbase_offset",
     "component_value":76
    },
    {
     "kind":"offset_to_top",
     "component_value":-8
    },
    {
     "kind":"rtti",
     "mangled_component_name":"_ZTIN7android8hardware3drm4V1_017BpHwCryptoFactoryE"
    },
    {
     "kind":"complete_dtor_pointer",
     "mangled_component_name":"_ZThn8_N7android8hardware3drm4V1_017BpHwCryptoFactoryD1Ev"
    },
    {
     "kind":"deleting_dtor_pointer",
     "mangled_component_name":"_ZThn8_N7android8hardware3drm4V1_017BpHwCryptoFactoryD0Ev"
    },
    {
     "mangled_component_name":"_ZN7android8hardware11BpHwRefBase10onFirstRefEv"
    },
    {
     "mangled_component_name":"_ZN7android8hardware11BpHwRefBase15onLastStrongRefEPKv"
    },
    {
     "mangled_component_name":"_ZN7android8hardware11BpHwRefBase20onIncStrongAttemptedEjPKv"
    },
    {
     "kind":"offset_to_top",
     "component_value":-24
    },
    {
     "kind":"rtti",
     "mangled_component_name":"_ZTIN7android8hardware3drm4V1_017BpHwCryptoFactoryE"
    },
    {
     "kind":"complete_dtor_pointer",
     "mangled_component_name":"_ZThn24_N7android8hardware3drm4V1_017BpHwCryptoFactoryD1Ev"
    },
    {
     "kind":"deleting_dtor_pointer",
     "mangled_component_name":"_ZThn24_N7android8hardware3drm4V1_017BpHwCryptoFactoryD0Ev"
    },
    {
     "kind":"vcall_offset"
    },
    {
     "kind":"vcall_offset",
     "component_value":-76
    },
    {
     "kind":"vcall_offset",
     "component_value":-76
    },
    {
     "kind":"vcall_offset",
     "component_value":-76
    },
    {
     "kind":"vcall_offset",
     "component_value":-84
    },
    {
     "kind":"offset_to_top",
     "component_value":-84
    },
    {
     "kind":"rtti",
     "mangled_component_name":"_ZTIN7android8hardware3drm4V1_017BpHwCryptoFactoryE"
    },
    {
     "kind":"complete_dtor_pointer",
     "mangled_component_name":"_ZTv0_n12_N7android8hardware3drm4V1_017BpHwCryptoFactoryD1Ev"
    },
    {
     "kind":"deleting_dtor_pointer",
     "mangled_component_name":"_ZTv0_n12_N7android8hardware3drm4V1_017BpHwCryptoFactoryD0Ev"
    },
    {
     "mangled_component_name":"_ZTv0_n16_N7android8hardware11BpHwRefBase10onFirstRefEv"
    },
    {
     "mangled_component_name":"_ZTv0_n20_N7android8hardware11BpHwRefBase15onLastStrongRefEPKv"
    },
    {
     "mangled_component_name":"_ZTv0_n24_N7android8hardware11BpHwRefBase20onIncStrongAttemptedEjPKv"
    },
    {
     "mangled_component_name":"_ZN7android7RefBase13onLastWeakRefEPKv"
    }
   ],
   "unique_id":"_ZTSN7android8hardware3drm4V1_017BpHwCryptoFactoryE"
  },
  {
   "vtable_components":[
    {
     "kind":"vbase_offset",
     "component_value":60
    },
    {
     "kind":"offset_to_top"
    },
    {
     "kind":"rtti",
     "mangled_component_name":"_ZTIN7android8hardware3drm4V1_014BsCryptoPluginE"
    },
    {
     "mangled_component_name":"_ZNK7android8hardware3drm4V1_013ICryptoPlugin8isRemoteEv"
    },
    {
     "mangled_component_name":"_ZN7android8hardware3drm4V1_014BsCryptoPlugin14interfaceChainENSt3__18functionIFvRKNS0_8hidl_vecINS0_11hidl_stringEEEEEE"
    },
    {
     "mangled_component_name":"_ZN7android8hardware3drm4V1_014BsCryptoPlugin5debugERKNS0_11hidl_handleERKNS0_8hidl_vecINS0_11hidl_stringEEE"
    },
    {
     "mangled_component_name":"_ZN7android8hardware3drm4V1_014BsCryptoPlugin19interfaceDescriptorENSt3__18functionIFvRKNS0_11hidl_stringEEEE"
    },
    {
     "mangled_component_name":"_ZN7android8hardware3drm4V1_014BsCryptoPlugin12getHashChainENSt3__18functionIFvRKNS0_8hidl_vecINS0_10hidl_arrayIhLj32EJEEEEEEEE"
    },
    {
     "mangled_component_name":"_ZN7android8hardware3drm4V1_014BsCryptoPlugin21setHALInstrumentationEv"
    },
    {
     "mangled_component_name":"_ZN7android8hardware3drm4V1_014BsCryptoPlugin11linkToDeathERKNS_2spINS0_20hidl_death_recipientEEEy"
    },
    {
     "mangled_component_name":"_ZN7android8hardware3drm4V1_014BsCryptoPlugin4pingEv"
    },
    {
     "mangled_component_name":"_ZN7android8hardware3drm4V1_014BsCryptoPlugin12getDebugInfoENSt3__18functionIFvRKNS_4hidl4base4V1_09DebugInfoEEEE"
    },
    {
     "mangled_component_name":"_ZN7android8hardware3drm4V1_014BsCryptoPlugin21notifySyspropsChangedEv"
    },
    {
     "mangled_component_name":"_ZN7android8hardware3drm4V1_014BsCryptoPlugin13unlinkToDeathERKNS_2spINS0_20hidl_death_recipientEEE"
    },
    {
     "kind":"complete_dtor_pointer",
     "mangled_component_name":"_ZN7android8hardware3drm4V1_014BsCryptoPluginD1Ev"
    },
    {
     "kind":"deleting_dtor_pointer",
     "mangled_component_name":"_ZN7android8hardware3drm4V1_014BsCryptoPluginD0Ev"
    },
    {
     "mangled_component_name":"_ZN7android8hardware3drm4V1_014BsCryptoPlugin30requiresSecureDecoderComponentERKNS0_11hidl_stringE"
    },
    {
     "mangled_component_name":"_ZN7android8hardware3drm4V1_014BsCryptoPlugin16notifyResolutionEjj"
    },
    {
     "mangled_component_name":"_ZN7android8hardware3drm4V1_014BsCryptoPlugin18setMediaDrmSessionERKNS0_8hidl_vecIhEE"
    },
    {
     "mangled_component_name":"_ZN7android8hardware3drm4V1_014BsCryptoPlugin19setSharedBufferBaseERKNS0_11hidl_memoryEj"
    },
    {
     "mangled_component_name":"_ZN7android8hardware3drm4V1_014BsCryptoPlugin7decryptEbRKNS0_10hidl_arrayIhLj16EJEEES7_NS2_4ModeERKNS2_7PatternERKNS0_8hidl_vecINS2_9SubSampleEEERKNS2_12SharedBufferEyRKNS2_17DestinationBufferENSt3__18functionIFvNS2_6StatusEjRKNS0_11hidl_stringEEEE"
    },
    {
     "kind":"offset_to_top",
     "component_value":-4
    },
    {
     "kind":"rtti",
     "mangled_component_name":"_ZTIN7android8hardware3drm4V1_014BsCryptoPluginE"
    },
    {
     "kind":"complete_dtor_pointer",
     "mangled_component_name":"_ZThn4_N7android8hardware3drm4V1_014BsCryptoPluginD1Ev"
    },
    {
     "kind":"deleting_dtor_pointer",
     "mangled_component_name":"_ZThn4_N7android8hardware3drm4V1_014BsCryptoPluginD0Ev"
    },
    {
     "kind":"vcall_offset"
    },
    {
     "kind":"vcall_offset"
    },
    {
     "kind":"vcall_offset"
    },
    {
     "kind":"vcall_offset"
    },
    {
     "kind":"vcall_offset",
     "component_value":-60
    },
    {
     "kind":"offset_to_top",
     "component_value":-60
    },
    {
     "kind":"rtti",
     "mangled_component_name":"_ZTIN7android8hardware3drm4V1_014BsCryptoPluginE"
    },
    {
     "kind":"complete_dtor_pointer",
     "mangled_component_name":"_ZTv0_n12_N7android8hardware3drm4V1_014BsCryptoPluginD1Ev"
    },
    {
     "kind":"deleting_dtor_pointer",
     "mangled_component_name":"_ZTv0_n12_N7android8hardware3drm4V1_014BsCryptoPluginD0Ev"
    },
    {
     "mangled_component_name":"_ZN7android7RefBase10onFirstRefEv"
    },
    {
     "mangled_component_name":"_ZN7android7RefBase15onLastStrongRefEPKv"
    },
    {
     "mangled_component_name":"_ZN7android7RefBase20onIncStrongAttemptedEjPKv"
    },
    {
     "mangled_component_name":"_ZN7android7RefBase13onLastWeakRefEPKv"
    }
   ],
   "unique_id":"_ZTSN7android8hardware3drm4V1_014BsCryptoPluginE"
  },
  {
   "vtable_components":[
    {
     "kind":"vbase_offset",
     "component_value":60
    },
    {
     "kind":"offset_to_top"
    },
    {
     "kind":"rtti",
     "mangled_component_name":"_ZTIN7android8hardware3drm4V1_015BsCryptoFactoryE"
    },
    {
     "mangled_component_name":"_ZNK7android8hardware3drm4V1_014ICryptoFactory8isRemoteEv"
    },
    {
     "mangled_component_name":"_ZN7android8hardware3drm4V1_015BsCryptoFactory14interfaceChainENSt3__18functionIFvRKNS0_8hidl_vecINS0_11hidl_stringEEEEEE"
    },
    {
     "mangled_component_name":"_ZN7android8hardware3drm4V1_015BsCryptoFactory5debugERKNS0_11hidl_handleERKNS0_8hidl_vecINS0_11hidl_stringEEE"
    },
    {
     "mangled_component_name":"_ZN7android8hardware3drm4V1_015BsCryptoFactory19interfaceDescriptorENSt3__18functionIFvRKNS0_11hidl_stringEEEE"
    },
    {
     "mangled_component_name":"_ZN7android8hardware3drm4V1_015BsCryptoFactory12getHashChainENSt3__18functionIFvRKNS0_8hidl_vecINS0_10hidl_arrayIhLj32EJEEEEEEEE"
    },
    {
     "mangled_component_name":"_ZN7android8hardware3drm4V1_015BsCryptoFactory21setHALInstrumentationEv"
    },
    {
     "mangled_component_name":"_ZN7android8hardware3drm4V1_015BsCryptoFactory11linkToDeathERKNS_2spINS0_20hidl_death_recipientEEEy"
    },
    {
     "mangled_component_name":"_ZN7android8hardware3drm4V1_015BsCryptoFactory4pingEv"
    },
    {
     "mangled_component_name":"_ZN7android8hardware3drm4V1_015BsCryptoFactory12getDebugInfoENSt3__18functionIFvRKNS_4hidl4base4V1_09DebugInfoEEEE"
    },
    {
     "mangled_component_name":"_ZN7android8hardware3drm4V1_015BsCryptoFactory21notifySyspropsChangedEv"
    },
    {
     "mangled_component_name":"_ZN7android8hardware3drm4V1_015BsCryptoFactory13unlinkToDeathERKNS_2spINS0_20hidl_death_recipientEEE"
    },
    {
     "kind":"complete_dtor_pointer",
     "mangled_component_name":"_ZN7android8hardware3drm4V1_015BsCryptoFactoryD1Ev"
    },
    {
     "kind":"deleting_dtor_pointer",
     "mangled_component_name":"_ZN7android8hardware3drm4V1_015BsCryptoFactoryD0Ev"
    },
    {
     "mangled_component_name":"_ZN7android8hardware3drm4V1_015BsCryptoFactory23isCryptoSchemeSupportedERKNS0_10hidl_arrayIhLj16EJEEE"
    },
    {
     "mangled_component_name":"_ZN7android8hardware3drm4V1_015BsCryptoFactory12createPluginERKNS0_10hidl_arrayIhLj16EJEEERKNS0_8hidl_vecIhEENSt3__18functionIFvNS2_6StatusERKNS_2spINS2_13ICryptoPluginEEEEEE"
    },
    {
     "kind":"offset_to_top",
     "component_value":-4
    },
    {
     "kind":"rtti",
     "mangled_component_name":"_ZTIN7android8hardware3drm4V1_015BsCryptoFactoryE"
    },
    {
     "kind":"complete_dtor_pointer",
     "mangled_component_name":"_ZThn4_N7android8hardware3drm4V1_015BsCryptoFactoryD1Ev"
    },
    {
     "kind":"deleting_dtor_pointer",
     "mangled_component_name":"_ZThn4_N7android8hardware3drm4V1_015BsCryptoFactoryD0Ev"
    },
    {
     "kind":"vcall_offset"
    },
    {
     "kind":"vcall_offset"
    },
    {
     "kind":"vcall_offset"
    },
    {
     "kind":"vcall_offset"
    },
    {
     "kind":"vcall_offset",
     "component_value":-60
    },
    {
     "kind":"offset_to_top",
     "component_value":-60
    },
    {
     "kind":"rtti",
     "mangled_component_name":"_ZTIN7android8hardware3drm4V1_015BsCryptoFactoryE"
    },
    {
     "kind":"complete_dtor_pointer",
     "mangled_component_name":"_ZTv0_n12_N7android8hardware3drm4V1_015BsCryptoFactoryD1Ev"
    },
    {
     "kind":"deleting_dtor_pointer",
     "mangled_component_name":"_ZTv0_n12_N7android8hardware3drm4V1_015BsCryptoFactoryD0Ev"
    },
    {
     "mangled_component_name":"_ZN7android7RefBase10onFirstRefEv"
    },
    {
     "mangled_component_name":"_ZN7android7RefBase15onLastStrongRefEPKv"
    },
    {
     "mangled_component_name":"_ZN7android7RefBase20onIncStrongAttemptedEjPKv"
    },
    {
     "mangled_component_name":"_ZN7android7RefBase13onLastWeakRefEPKv"
    }
   ],
   "unique_id":"_ZTSN7android8hardware3drm4V1_015BsCryptoFactoryE"
  },
  {
   "vtable_components":[
    {
     "kind":"vbase_offset",
     "component_value":84
    },
    {
     "kind":"offset_to_top"
    },
    {
     "kind":"rtti",
     "mangled_component_name":"_ZTIN7android8hardware3drm4V1_014BpHwDrmFactoryE"
    },
    {
     "mangled_component_name":"_ZNK7android8hardware3drm4V1_014BpHwDrmFactory8isRemoteEv"
    },
    {
     "mangled_component_name":"_ZN7android8hardware3drm4V1_014BpHwDrmFactory14interfaceChainENSt3__18functionIFvRKNS0_8hidl_vecINS0_11hidl_stringEEEEEE"
    },
    {
     "mangled_component_name":"_ZN7android8hardware3drm4V1_014BpHwDrmFactory5debugERKNS0_11hidl_handleERKNS0_8hidl_vecINS0_11hidl_stringEEE"
    },
    {
     "mangled_component_name":"_ZN7android8hardware3drm4V1_014BpHwDrmFactory19interfaceDescriptorENSt3__18functionIFvRKNS0_11hidl_stringEEEE"
    },
    {
     "mangled_component_name":"_ZN7android8hardware3drm4V1_014BpHwDrmFactory12getHashChainENSt3__18functionIFvRKNS0_8hidl_vecINS0_10hidl_arrayIhLj32EJEEEEEEEE"
    },
    {
     "mangled_component_name":"_ZN7android8hardware3drm4V1_014BpHwDrmFactory21setHALInstrumentationEv"
    },
    {
     "mangled_component_name":"_ZN7android8hardware3drm4V1_014BpHwDrmFactory11linkToDeathERKNS_2spINS0_20hidl_death_recipientEEEy"
    },
    {
     "mangled_component_name":"_ZN7android8hardware3drm4V1_014BpHwDrmFactory4pingEv"
    },
    {
     "mangled_component_name":"_ZN7android8hardware3drm4V1_014BpHwDrmFactory12getDebugInfoENSt3__18functionIFvRKNS_4hidl4base4V1_09DebugInfoEEEE"
    },
    {
     "mangled_component_name":"_ZN7android8hardware3drm4V1_014BpHwDrmFactory21notifySyspropsChangedEv"
    },
    {
     "mangled_component_name":"_ZN7android8hardware3drm4V1_014BpHwDrmFactory13unlinkToDeathERKNS_2spINS0_20hidl_death_recipientEEE"
    },
    {
     "kind":"complete_dtor_pointer",
     "mangled_component_name":"_ZN7android8hardware3drm4V1_014BpHwDrmFactoryD1Ev"
    },
    {
     "kind":"deleting_dtor_pointer",
     "mangled_component_name":"_ZN7android8hardware3drm4V1_014BpHwDrmFactoryD0Ev"
    },
    {
     "mangled_component_name":"_ZN7android8hardware3drm4V1_014BpHwDrmFactory23isCryptoSchemeSupportedERKNS0_10hidl_arrayIhLj16EJEEE"
    },
    {
     "mangled_component_name":"_ZN7android8hardware3drm4V1_014BpHwDrmFactory22isContentTypeSupportedERKNS0_11hidl_stringE"
    },
    {
     "mangled_component_name":"_ZN7android8hardware3drm4V1_014BpHwDrmFactory12createPluginERKNS0_10hidl_arrayIhLj16EJEEERKNS0_11hidl_stringENSt3__18functionIFvNS2_6StatusERKNS_2spINS2_10IDrmPluginEEEEEE"
    },
    {
     "mangled_component_name":"_ZN7android8hardware11BpInterfaceINS0_3drm4V1_011IDrmFactoryEE10onAsBinderEv"
    },
    {
     "kind":"vbase_offset",
     "component_value":80
    },
    {
     "kind":"offset_to_top",
     "component_value":-4
    },
    {
     "kind":"rtti",
     "mangled_component_name":"_ZTIN7android8hardware3drm4V1_014BpHwDrmFactoryE"
    },
    {
     "kind":"complete_dtor_pointer",
     "mangled_component_name":"_ZThn4_N7android8hardware3drm4V1_014BpHwDrmFactoryD1Ev"
    },
    {
     "kind":"deleting_dtor_pointer",
     "mangled_component_name":"_ZThn4_N7android8hardware3drm4V1_014BpHwDrmFactoryD0Ev"
    },
    {
     "mangled_component_name":"_ZThn4_N7android8hardware11BpInterfaceINS0_3drm4V1_011IDrmFactoryEE10onAsBinderEv"
    },
    {
     "kind":"vbase_offset",
     "component_value":76
    },
    {
     "kind":"offset_to_top",
     "component_value":-8
    },
    {
     "kind":"rtti",
     "mangled_component_name":"_ZTIN7android8hardware3drm4V1_014BpHwDrmFactoryE"
    },
    {
     "kind":"complete_dtor_pointer",
     "mangled_component_name":"_ZThn8_N7android8hardware3drm4V1_014BpHwDrmFactoryD1Ev"
    },
    {
     "kind":"deleting_dtor_pointer",
     "mangled_component_name":"_ZThn8_N7android8hardware3drm4V1_014BpHwDrmFactoryD0Ev"
    },
    {
     "mangled_component_name":"_ZN7android8hardware11BpHwRefBase10onFirstRefEv"
    },
    {
     "mangled_component_name":"_ZN7android8hardware11BpHwRefBase15onLastStrongRefEPKv"
    },
    {
     "mangled_component_name":"_ZN7android8hardware11BpHwRefBase20onIncStrongAttemptedEjPKv"
    },
    {
     "kind":"offset_to_top",
     "component_value":-24
    },
    {
     "kind":"rtti",
     "mangled_component_name":"_ZTIN7android8hardware3drm4V1_014BpHwDrmFactoryE"
    },
    {
     "kind":"complete_dtor_pointer",
     "mangled_component_name":"_ZThn24_N7android8hardware3drm4V1_014BpHwDrmFactoryD1Ev"
    },
    {
     "kind":"deleting_dtor_pointer",
     "mangled_component_name":"_ZThn24_N7android8hardware3drm4V1_014BpHwDrmFactoryD0Ev"
    },
    {
     "kind":"vcall_offset"
    },
    {
     "kind":"vcall_offset",
     "component_value":-76
    },
    {
     "kind":"vcall_offset",
     "component_value":-76
    },
    {
     "kind":"vcall_offset",
     "component_value":-76
    },
    {
     "kind":"vcall_offset",
     "component_value":-84
    },
    {
     "kind":"offset_to_top",
     "component_value":-84
    },
    {
     "kind":"rtti",
     "mangled_component_name":"_ZTIN7android8hardware3drm4V1_014BpHwDrmFactoryE"
    },
    {
     "kind":"complete_dtor_pointer",
     "mangled_component_name":"_ZTv0_n12_N7android8hardware3drm4V1_014BpHwDrmFactoryD1Ev"
    },
    {
     "kind":"deleting_dtor_pointer",
     "mangled_component_name":"_ZTv0_n12_N7android8hardware3drm4V1_014BpHwDrmFactoryD0Ev"
    },
    {
     "mangled_component_name":"_ZTv0_n16_N7android8hardware11BpHwRefBase10onFirstRefEv"
    },
    {
     "mangled_component_name":"_ZTv0_n20_N7android8hardware11BpHwRefBase15onLastStrongRefEPKv"
    },
    {
     "mangled_component_name":"_ZTv0_n24_N7android8hardware11BpHwRefBase20onIncStrongAttemptedEjPKv"
    },
    {
     "mangled_component_name":"_ZN7android7RefBase13onLastWeakRefEPKv"
    }
   ],
   "unique_id":"_ZTSN7android8hardware3drm4V1_014BpHwDrmFactoryE"
  },
  {
   "vtable_components":[
    {
     "kind":"vbase_offset",
     "component_value":4
    },
    {
     "kind":"offset_to_top"
    },
    {
     "kind":"rtti",
     "mangled_component_name":"_ZTIN7android8hardware3drm4V1_018IDrmPluginListenerE"
    },
    {
     "mangled_component_name":"_ZNK7android8hardware3drm4V1_018IDrmPluginListener8isRemoteEv"
    },
    {
     "mangled_component_name":"_ZN7android8hardware3drm4V1_018IDrmPluginListener14interfaceChainENSt3__18functionIFvRKNS0_8hidl_vecINS0_11hidl_stringEEEEEE"
    },
    {
     "mangled_component_name":"_ZN7android8hardware3drm4V1_018IDrmPluginListener5debugERKNS0_11hidl_handleERKNS0_8hidl_vecINS0_11hidl_stringEEE"
    },
    {
     "mangled_component_name":"_ZN7android8hardware3drm4V1_018IDrmPluginListener19interfaceDescriptorENSt3__18functionIFvRKNS0_11hidl_stringEEEE"
    },
    {
     "mangled_component_name":"_ZN7android8hardware3drm4V1_018IDrmPluginListener12getHashChainENSt3__18functionIFvRKNS0_8hidl_vecINS0_10hidl_arrayIhLj32EJEEEEEEEE"
    },
    {
     "mangled_component_name":"_ZN7android8hardware3drm4V1_018IDrmPluginListener21setHALInstrumentationEv"
    },
    {
     "mangled_component_name":"_ZN7android8hardware3drm4V1_018IDrmPluginListener11linkToDeathERKNS_2spINS0_20hidl_death_recipientEEEy"
    },
    {
     "mangled_component_name":"_ZN7android8hardware3drm4V1_018IDrmPluginListener4pingEv"
    },
    {
     "mangled_component_name":"_ZN7android8hardware3drm4V1_018IDrmPluginListener12getDebugInfoENSt3__18functionIFvRKNS_4hidl4base4V1_09DebugInfoEEEE"
    },
    {
     "mangled_component_name":"_ZN7android8hardware3drm4V1_018IDrmPluginListener21notifySyspropsChangedEv"
    },
    {
     "mangled_component_name":"_ZN7android8hardware3drm4V1_018IDrmPluginListener13unlinkToDeathERKNS_2spINS0_20hidl_death_recipientEEE"
    },
    {
     "kind":"complete_dtor_pointer",
     "mangled_component_name":"_ZN7android8hardware3drm4V1_018IDrmPluginListenerD1Ev"
    },
    {
     "kind":"deleting_dtor_pointer",
     "mangled_component_name":"_ZN7android8hardware3drm4V1_018IDrmPluginListenerD0Ev"
    },
    {
     "is_pure":true,
     "mangled_component_name":"_ZN7android8hardware3drm4V1_018IDrmPluginListener9sendEventENS2_9EventTypeERKNS0_8hidl_vecIhEES8_"
    },
    {
     "is_pure":true,
     "mangled_component_name":"_ZN7android8hardware3drm4V1_018IDrmPluginListener20sendExpirationUpdateERKNS0_8hidl_vecIhEEx"
    },
    {
     "is_pure":true,
     "mangled_component_name":"_ZN7android8hardware3drm4V1_018IDrmPluginListener14sendKeysChangeERKNS0_8hidl_vecIhEERKNS4_INS2_9KeyStatusEEEb"
    },
    {
     "kind":"vcall_offset"
    },
    {
     "kind":"vcall_offset"
    },
    {
     "kind":"vcall_offset"
    },
    {
     "kind":"vcall_offset"
    },
    {
     "kind":"vcall_offset",
     "component_value":-4
    },
    {
     "kind":"offset_to_top",
     "component_value":-4
    },
    {
     "kind":"rtti",
     "mangled_component_name":"_ZTIN7android8hardware3drm4V1_018IDrmPluginListenerE"
    },
    {
     "kind":"complete_dtor_pointer",
     "mangled_component_name":"_ZTv0_n12_N7android8hardware3drm4V1_018IDrmPluginListenerD1Ev"
    },
    {
     "kind":"deleting_dtor_pointer",
     "mangled_component_name":"_ZTv0_n12_N7android8hardware3drm4V1_018IDrmPluginListenerD0Ev"
    },
    {
     "mangled_component_name":"_ZN7android7RefBase10onFirstRefEv"
    },
    {
     "mangled_component_name":"_ZN7android7RefBase15onLastStrongRefEPKv"
    },
    {
     "mangled_component_name":"_ZN7android7RefBase20onIncStrongAttemptedEjPKv"
    },
    {
     "mangled_component_name":"_ZN7android7RefBase13onLastWeakRefEPKv"
    }
   ],
   "unique_id":"_ZTSN7android8hardware3drm4V1_018IDrmPluginListenerE"
  },
  {
   "vtable_components":[
    {
     "kind":"vbase_offset",
     "component_value":84
    },
    {
     "kind":"offset_to_top"
    },
    {
     "kind":"rtti",
     "mangled_component_name":"_ZTIN7android8hardware3drm4V1_013BpHwDrmPluginE"
    },
    {
     "mangled_component_name":"_ZNK7android8hardware3drm4V1_013BpHwDrmPlugin8isRemoteEv"
    },
    {
     "mangled_component_name":"_ZN7android8hardware3drm4V1_013BpHwDrmPlugin14interfaceChainENSt3__18functionIFvRKNS0_8hidl_vecINS0_11hidl_stringEEEEEE"
    },
    {
     "mangled_component_name":"_ZN7android8hardware3drm4V1_013BpHwDrmPlugin5debugERKNS0_11hidl_handleERKNS0_8hidl_vecINS0_11hidl_stringEEE"
    },
    {
     "mangled_component_name":"_ZN7android8hardware3drm4V1_013BpHwDrmPlugin19interfaceDescriptorENSt3__18functionIFvRKNS0_11hidl_stringEEEE"
    },
    {
     "mangled_component_name":"_ZN7android8hardware3drm4V1_013BpHwDrmPlugin12getHashChainENSt3__18functionIFvRKNS0_8hidl_vecINS0_10hidl_arrayIhLj32EJEEEEEEEE"
    },
    {
     "mangled_component_name":"_ZN7android8hardware3drm4V1_013BpHwDrmPlugin21setHALInstrumentationEv"
    },
    {
     "mangled_component_name":"_ZN7android8hardware3drm4V1_013BpHwDrmPlugin11linkToDeathERKNS_2spINS0_20hidl_death_recipientEEEy"
    },
    {
     "mangled_component_name":"_ZN7android8hardware3drm4V1_013BpHwDrmPlugin4pingEv"
    },
    {
     "mangled_component_name":"_ZN7android8hardware3drm4V1_013BpHwDrmPlugin12getDebugInfoENSt3__18functionIFvRKNS_4hidl4base4V1_09DebugInfoEEEE"
    },
    {
     "mangled_component_name":"_ZN7android8hardware3drm4V1_013BpHwDrmPlugin21notifySyspropsChangedEv"
    },
    {
     "mangled_component_name":"_ZN7android8hardware3drm4V1_013BpHwDrmPlugin13unlinkToDeathERKNS_2spINS0_20hidl_death_recipientEEE"
    },
    {
     "kind":"complete_dtor_pointer",
     "mangled_component_name":"_ZN7android8hardware3drm4V1_013BpHwDrmPluginD1Ev"
    },
    {
     "kind":"deleting_dtor_pointer",
     "mangled_component_name":"_ZN7android8hardware3drm4V1_013BpHwDrmPluginD0Ev"
    },
    {
     "mangled_component_name":"_ZN7android8hardware3drm4V1_013BpHwDrmPlugin11openSessionENSt3__18functionIFvNS2_6StatusERKNS0_8hidl_vecIhEEEEE"
    },
    {
     "mangled_component_name":"_ZN7android8hardware3drm4V1_013BpHwDrmPlugin12closeSessionERKNS0_8hidl_vecIhEE"
    },
    {
     "mangled_component_name":"_ZN7android8hardware3drm4V1_013BpHwDrmPlugin13getKeyRequestERKNS0_8hidl_vecIhEES7_RKNS0_11hidl_stringENS2_7KeyTypeERKNS4_INS2_8KeyValueEEENSt3__18functionIFvNS2_6StatusES7_NS2_14KeyRequestTypeESA_EEE"
    },
    {
     "mangled_component_name":"_ZN7android8hardware3drm4V1_013BpHwDrmPlugin18provideKeyResponseERKNS0_8hidl_vecIhEES7_NSt3__18functionIFvNS2_6StatusES7_EEE"
    },
    {
     "mangled_component_name":"_ZN7android8hardware3drm4V1_013BpHwDrmPlugin10removeKeysERKNS0_8hidl_vecIhEE"
    },
    {
     "mangled_component_name":"_ZN7android8hardware3drm4V1_013BpHwDrmPlugin11restoreKeysERKNS0_8hidl_vecIhEES7_"
    },
    {
     "mangled_component_name":"_ZN7android8hardware3drm4V1_013BpHwDrmPlugin14queryKeyStatusERKNS0_8hidl_vecIhEENSt3__18functionIFvNS2_6StatusERKNS4_INS2_8KeyValueEEEEEE"
    },
    {
     "mangled_component_name":"_ZN7android8hardware3drm4V1_013BpHwDrmPlugin19getProvisionRequestERKNS0_11hidl_stringES6_NSt3__18functionIFvNS2_6StatusERKNS0_8hidl_vecIhEES6_EEE"
    },
    {
     "mangled_component_name":"_ZN7android8hardware3drm4V1_013BpHwDrmPlugin24provideProvisionResponseERKNS0_8hidl_vecIhEENSt3__18functionIFvNS2_6StatusES7_S7_EEE"
    },
    {
     "mangled_component_name":"_ZN7android8hardware3drm4V1_013BpHwDrmPlugin14getSecureStopsENSt3__18functionIFvNS2_6StatusERKNS0_8hidl_vecINS2_10SecureStopEEEEEE"
    },
    {
     "mangled_component_name":"_ZN7android8hardware3drm4V1_013BpHwDrmPlugin13getSecureStopERKNS0_8hidl_vecIhEENSt3__18functionIFvNS2_6StatusERKNS2_10SecureStopEEEE"
    },
    {
     "mangled_component_name":"_ZN7android8hardware3drm4V1_013BpHwDrmPlugin21releaseAllSecureStopsEv"
    },
    {
     "mangled_component_name":"_ZN7android8hardware3drm4V1_013BpHwDrmPlugin17releaseSecureStopERKNS0_8hidl_vecIhEE"
    },
    {
     "mangled_component_name":"_ZN7android8hardware3drm4V1_013BpHwDrmPlugin17getPropertyStringERKNS0_11hidl_stringENSt3__18functionIFvNS2_6StatusES6_EEE"
    },
    {
     "mangled_component_name":"_ZN7android8hardware3drm4V1_013BpHwDrmPlugin20getPropertyByteArrayERKNS0_11hidl_stringENSt3__18functionIFvNS2_6StatusERKNS0_8hidl_vecIhEEEEE"
    },
    {
     "mangled_component_name":"_ZN7android8hardware3drm4V1_013BpHwDrmPlugin17setPropertyStringERKNS0_11hidl_stringES6_"
    },
    {
     "mangled_component_name":"_ZN7android8hardware3drm4V1_013BpHwDrmPlugin20setPropertyByteArrayERKNS0_11hidl_stringERKNS0_8hidl_vecIhEE"
    },
    {
     "mangled_component_name":"_ZN7android8hardware3drm4V1_013BpHwDrmPlugin18setCipherAlgorithmERKNS0_8hidl_vecIhEERKNS0_11hidl_stringE"
    },
    {
     "mangled_component_name":"_ZN7android8hardware3drm4V1_013BpHwDrmPlugin15setMacAlgorithmERKNS0_8hidl_vecIhEERKNS0_11hidl_stringE"
    },
    {
     "mangled_component_name":"_ZN7android8hardware3drm4V1_013BpHwDrmPlugin7encryptERKNS0_8hidl_vecIhEES7_S7_S7_NSt3__18functionIFvNS2_6StatusES7_EEE"
    },
    {
     "mangled_component_name":"_ZN7android8hardware3drm4V1_013BpHwDrmPlugin7decryptERKNS0_8hidl_vecIhEES7_S7_S7_NSt3__18functionIFvNS2_6StatusES7_EEE"
    },
    {
     "mangled_component_name":"_ZN7android8hardware3drm4V1_013BpHwDrmPlugin4signERKNS0_8hidl_vecIhEES7_S7_NSt3__18functionIFvNS2_6StatusES7_EEE"
    },
    {
     "mangled_component_name":"_ZN7android8hardware3drm4V1_013BpHwDrmPlugin6verifyERKNS0_8hidl_vecIhEES7_S7_S7_NSt3__18functionIFvNS2_6StatusEbEEE"
    },
    {
     "mangled_component_name":"_ZN7android8hardware3drm4V1_013BpHwDrmPlugin7signRSAERKNS0_8hidl_vecIhEERKNS0_11hidl_stringES7_S7_NSt3__18functionIFvNS2_6StatusES7_EEE"
    },
    {
     "mangled_component_name":"_ZN7android8hardware3drm4V1_013BpHwDrmPlugin11setListenerERKNS_2spINS2_18IDrmPluginListenerEEE"
    },
    {
     "mangled_component_name":"_ZN7android8hardware3drm4V1_013BpHwDrmPlugin9sendEventENS2_9EventTypeERKNS0_8hidl_vecIhEES8_"
    },
    {
     "mangled_component_name":"_ZN7android8hardware3drm4V1_013BpHwDrmPlugin20sendExpirationUpdateERKNS0_8hidl_vecIhEEx"
    },
    {
     "mangled_component_name":"_ZN7android8hardware3drm4V1_013BpHwDrmPlugin14sendKeysChangeERKNS0_8hidl_vecIhEERKNS4_INS2_9KeyStatusEEEb"
    },
    {
     "mangled_component_name":"_ZN7android8hardware11BpInterfaceINS0_3drm4V1_010IDrmPluginEE10onAsBinderEv"
    },
    {
     "kind":"vbase_offset",
     "component_value":80
    },
    {
     "kind":"offset_to_top",
     "component_value":-4
    },
    {
     "kind":"rtti",
     "mangled_component_name":"_ZTIN7android8hardware3drm4V1_013BpHwDrmPluginE"
    },
    {
     "kind":"complete_dtor_pointer",
     "mangled_component_name":"_ZThn4_N7android8hardware3drm4V1_013BpHwDrmPluginD1Ev"
    },
    {
     "kind":"deleting_dtor_pointer",
     "mangled_component_name":"_ZThn4_N7android8hardware3drm4V1_013BpHwDrmPluginD0Ev"
    },
    {
     "mangled_component_name":"_ZThn4_N7android8hardware11BpInterfaceINS0_3drm4V1_010IDrmPluginEE10onAsBinderEv"
    },
    {
     "kind":"vbase_offset",
     "component_value":76
    },
    {
     "kind":"offset_to_top",
     "component_value":-8
    },
    {
     "kind":"rtti",
     "mangled_component_name":"_ZTIN7android8hardware3drm4V1_013BpHwDrmPluginE"
    },
    {
     "kind":"complete_dtor_pointer",
     "mangled_component_name":"_ZThn8_N7android8hardware3drm4V1_013BpHwDrmPluginD1Ev"
    },
    {
     "kind":"deleting_dtor_pointer",
     "mangled_component_name":"_ZThn8_N7android8hardware3drm4V1_013BpHwDrmPluginD0Ev"
    },
    {
     "mangled_component_name":"_ZN7android8hardware11BpHwRefBase10onFirstRefEv"
    },
    {
     "mangled_component_name":"_ZN7android8hardware11BpHwRefBase15onLastStrongRefEPKv"
    },
    {
     "mangled_component_name":"_ZN7android8hardware11BpHwRefBase20onIncStrongAttemptedEjPKv"
    },
    {
     "kind":"offset_to_top",
     "component_value":-24
    },
    {
     "kind":"rtti",
     "mangled_component_name":"_ZTIN7android8hardware3drm4V1_013BpHwDrmPluginE"
    },
    {
     "kind":"complete_dtor_pointer",
     "mangled_component_name":"_ZThn24_N7android8hardware3drm4V1_013BpHwDrmPluginD1Ev"
    },
    {
     "kind":"deleting_dtor_pointer",
     "mangled_component_name":"_ZThn24_N7android8hardware3drm4V1_013BpHwDrmPluginD0Ev"
    },
    {
     "kind":"vcall_offset"
    },
    {
     "kind":"vcall_offset",
     "component_value":-76
    },
    {
     "kind":"vcall_offset",
     "component_value":-76
    },
    {
     "kind":"vcall_offset",
     "component_value":-76
    },
    {
     "kind":"vcall_offset",
     "component_value":-84
    },
    {
     "kind":"offset_to_top",
     "component_value":-84
    },
    {
     "kind":"rtti",
     "mangled_component_name":"_ZTIN7android8hardware3drm4V1_013BpHwDrmPluginE"
    },
    {
     "kind":"complete_dtor_pointer",
     "mangled_component_name":"_ZTv0_n12_N7android8hardware3drm4V1_013BpHwDrmPluginD1Ev"
    },
    {
     "kind":"deleting_dtor_pointer",
     "mangled_component_name":"_ZTv0_n12_N7android8hardware3drm4V1_013BpHwDrmPluginD0Ev"
    },
    {
     "mangled_component_name":"_ZTv0_n16_N7android8hardware11BpHwRefBase10onFirstRefEv"
    },
    {
     "mangled_component_name":"_ZTv0_n20_N7android8hardware11BpHwRefBase15onLastStrongRefEPKv"
    },
    {
     "mangled_component_name":"_ZTv0_n24_N7android8hardware11BpHwRefBase20onIncStrongAttemptedEjPKv"
    },
    {
     "mangled_component_name":"_ZN7android7RefBase13onLastWeakRefEPKv"
    }
   ],
   "unique_id":"_ZTSN7android8hardware3drm4V1_013BpHwDrmPluginE"
  },
  {
   "vtable_components":[
    {
     "kind":"vbase_offset",
     "component_value":72
    },
    {
     "kind":"offset_to_top"
    },
    {
     "kind":"rtti",
     "mangled_component_name":"_ZTIN7android8hardware3drm4V1_013BnHwDrmPluginE"
    },
    {
     "mangled_component_name":"_ZN7android8hardware9BHwBinder8transactEjRKNS0_6ParcelEPS2_jNSt3__18functionIFvRS2_EEE"
    },
    {
     "mangled_component_name":"_ZN7android8hardware9BHwBinder11linkToDeathERKNS_2spINS0_7IBinder14DeathRecipientEEEPvj"
    },
    {
     "mangled_component_name":"_ZN7android8hardware9BHwBinder13unlinkToDeathERKNS_2wpINS0_7IBinder14DeathRecipientEEEPvjPS5_"
    },
    {
     "mangled_component_name":"_ZNK7android8hardware7IBinder13checkSubclassEPKv"
    },
    {
     "mangled_component_name":"_ZN7android8hardware9BHwBinder12attachObjectEPKvPvS4_PFvS3_S4_S4_E"
    },
    {
     "mangled_component_name":"_ZNK7android8hardware9BHwBinder10findObjectEPKv"
    },
    {
     "mangled_component_name":"_ZN7android8hardware9BHwBinder12detachObjectEPKv"
    },
    {
     "mangled_component_name":"_ZN7android8hardware9BHwBinder11localBinderEv"
    },
    {
     "mangled_component_name":"_ZN7android8hardware7IBinder12remoteBinderEv"
    },
    {
     "kind":"complete_dtor_pointer",
     "mangled_component_name":"_ZN7android8hardware3drm4V1_013BnHwDrmPluginD1Ev"
    },
    {
     "kind":"deleting_dtor_pointer",
     "mangled_component_name":"_ZN7android8hardware3drm4V1_013BnHwDrmPluginD0Ev"
    },
    {
     "mangled_component_name":"_ZN7android8hardware3drm4V1_013BnHwDrmPlugin10onTransactEjRKNS0_6ParcelEPS4_jNSt3__18functionIFvRS4_EEE"
    },
    {
     "kind":"offset_to_top",
     "component_value":-20
    },
    {
     "kind":"rtti",
     "mangled_component_name":"_ZTIN7android8hardware3drm4V1_013BnHwDrmPluginE"
    },
    {
     "kind":"complete_dtor_pointer",
     "mangled_component_name":"_ZThn20_N7android8hardware3drm4V1_013BnHwDrmPluginD1Ev"
    },
    {
     "kind":"deleting_dtor_pointer",
     "mangled_component_name":"_ZThn20_N7android8hardware3drm4V1_013BnHwDrmPluginD0Ev"
    },
    {
     "kind":"vcall_offset"
    },
    {
     "kind":"vcall_offset"
    },
    {
     "kind":"vcall_offset"
    },
    {
     "kind":"vcall_offset"
    },
    {
     "kind":"vcall_offset",
     "component_value":-72
    },
    {
     "kind":"offset_to_top",
     "component_value":-72
    },
    {
     "kind":"rtti",
     "mangled_component_name":"_ZTIN7android8hardware3drm4V1_013BnHwDrmPluginE"
    },
    {
     "kind":"complete_dtor_pointer",
     "mangled_component_name":"_ZTv0_n12_N7android8hardware3drm4V1_013BnHwDrmPluginD1Ev"
    },
    {
     "kind":"deleting_dtor_pointer",
     "mangled_component_name":"_ZTv0_n12_N7android8hardware3drm4V1_013BnHwDrmPluginD0Ev"
    },
    {
     "mangled_component_name":"_ZN7android7RefBase10onFirstRefEv"
    },
    {
     "mangled_component_name":"_ZN7android7RefBase15onLastStrongRefEPKv"
    },
    {
     "mangled_component_name":"_ZN7android7RefBase20onIncStrongAttemptedEjPKv"
    },
    {
     "mangled_component_name":"_ZN7android7RefBase13onLastWeakRefEPKv"
    }
   ],
   "unique_id":"_ZTSN7android8hardware3drm4V1_013BnHwDrmPluginE"
  },
  {
   "vtable_components":[
    {
     "kind":"vbase_offset",
     "component_value":72
    },
    {
     "kind":"offset_to_top"
    },
    {
     "kind":"rtti",
     "mangled_component_name":"_ZTIN7android8hardware3drm4V1_021BnHwDrmPluginListenerE"
    },
    {
     "mangled_component_name":"_ZN7android8hardware9BHwBinder8transactEjRKNS0_6ParcelEPS2_jNSt3__18functionIFvRS2_EEE"
    },
    {
     "mangled_component_name":"_ZN7android8hardware9BHwBinder11linkToDeathERKNS_2spINS0_7IBinder14DeathRecipientEEEPvj"
    },
    {
     "mangled_component_name":"_ZN7android8hardware9BHwBinder13unlinkToDeathERKNS_2wpINS0_7IBinder14DeathRecipientEEEPvjPS5_"
    },
    {
     "mangled_component_name":"_ZNK7android8hardware7IBinder13checkSubclassEPKv"
    },
    {
     "mangled_component_name":"_ZN7android8hardware9BHwBinder12attachObjectEPKvPvS4_PFvS3_S4_S4_E"
    },
    {
     "mangled_component_name":"_ZNK7android8hardware9BHwBinder10findObjectEPKv"
    },
    {
     "mangled_component_name":"_ZN7android8hardware9BHwBinder12detachObjectEPKv"
    },
    {
     "mangled_component_name":"_ZN7android8hardware9BHwBinder11localBinderEv"
    },
    {
     "mangled_component_name":"_ZN7android8hardware7IBinder12remoteBinderEv"
    },
    {
     "kind":"complete_dtor_pointer",
     "mangled_component_name":"_ZN7android8hardware3drm4V1_021BnHwDrmPluginListenerD1Ev"
    },
    {
     "kind":"deleting_dtor_pointer",
     "mangled_component_name":"_ZN7android8hardware3drm4V1_021BnHwDrmPluginListenerD0Ev"
    },
    {
     "mangled_component_name":"_ZN7android8hardware3drm4V1_021BnHwDrmPluginListener10onTransactEjRKNS0_6ParcelEPS4_jNSt3__18functionIFvRS4_EEE"
    },
    {
     "kind":"offset_to_top",
     "component_value":-20
    },
    {
     "kind":"rtti",
     "mangled_component_name":"_ZTIN7android8hardware3drm4V1_021BnHwDrmPluginListenerE"
    },
    {
     "kind":"complete_dtor_pointer",
     "mangled_component_name":"_ZThn20_N7android8hardware3drm4V1_021BnHwDrmPluginListenerD1Ev"
    },
    {
     "kind":"deleting_dtor_pointer",
     "mangled_component_name":"_ZThn20_N7android8hardware3drm4V1_021BnHwDrmPluginListenerD0Ev"
    },
    {
     "kind":"vcall_offset"
    },
    {
     "kind":"vcall_offset"
    },
    {
     "kind":"vcall_offset"
    },
    {
     "kind":"vcall_offset"
    },
    {
     "kind":"vcall_offset",
     "component_value":-72
    },
    {
     "kind":"offset_to_top",
     "component_value":-72
    },
    {
     "kind":"rtti",
     "mangled_component_name":"_ZTIN7android8hardware3drm4V1_021BnHwDrmPluginListenerE"
    },
    {
     "kind":"complete_dtor_pointer",
     "mangled_component_name":"_ZTv0_n12_N7android8hardware3drm4V1_021BnHwDrmPluginListenerD1Ev"
    },
    {
     "kind":"deleting_dtor_pointer",
     "mangled_component_name":"_ZTv0_n12_N7android8hardware3drm4V1_021BnHwDrmPluginListenerD0Ev"
    },
    {
     "mangled_component_name":"_ZN7android7RefBase10onFirstRefEv"
    },
    {
     "mangled_component_name":"_ZN7android7RefBase15onLastStrongRefEPKv"
    },
    {
     "mangled_component_name":"_ZN7android7RefBase20onIncStrongAttemptedEjPKv"
    },
    {
     "mangled_component_name":"_ZN7android7RefBase13onLastWeakRefEPKv"
    }
   ],
   "unique_id":"_ZTSN7android8hardware3drm4V1_021BnHwDrmPluginListenerE"
  },
  {
   "vtable_components":[
    {
     "kind":"vbase_offset",
     "component_value":84
    },
    {
     "kind":"offset_to_top"
    },
    {
     "kind":"rtti",
     "mangled_component_name":"_ZTIN7android8hardware3drm4V1_021BpHwDrmPluginListenerE"
    },
    {
     "mangled_component_name":"_ZNK7android8hardware3drm4V1_021BpHwDrmPluginListener8isRemoteEv"
    },
    {
     "mangled_component_name":"_ZN7android8hardware3drm4V1_021BpHwDrmPluginListener14interfaceChainENSt3__18functionIFvRKNS0_8hidl_vecINS0_11hidl_stringEEEEEE"
    },
    {
     "mangled_component_name":"_ZN7android8hardware3drm4V1_021BpHwDrmPluginListener5debugERKNS0_11hidl_handleERKNS0_8hidl_vecINS0_11hidl_stringEEE"
    },
    {
     "mangled_component_name":"_ZN7android8hardware3drm4V1_021BpHwDrmPluginListener19interfaceDescriptorENSt3__18functionIFvRKNS0_11hidl_stringEEEE"
    },
    {
     "mangled_component_name":"_ZN7android8hardware3drm4V1_021BpHwDrmPluginListener12getHashChainENSt3__18functionIFvRKNS0_8hidl_vecINS0_10hidl_arrayIhLj32EJEEEEEEEE"
    },
    {
     "mangled_component_name":"_ZN7android8hardware3drm4V1_021BpHwDrmPluginListener21setHALInstrumentationEv"
    },
    {
     "mangled_component_name":"_ZN7android8hardware3drm4V1_021BpHwDrmPluginListener11linkToDeathERKNS_2spINS0_20hidl_death_recipientEEEy"
    },
    {
     "mangled_component_name":"_ZN7android8hardware3drm4V1_021BpHwDrmPluginListener4pingEv"
    },
    {
     "mangled_component_name":"_ZN7android8hardware3drm4V1_021BpHwDrmPluginListener12getDebugInfoENSt3__18functionIFvRKNS_4hidl4base4V1_09DebugInfoEEEE"
    },
    {
     "mangled_component_name":"_ZN7android8hardware3drm4V1_021BpHwDrmPluginListener21notifySyspropsChangedEv"
    },
    {
     "mangled_component_name":"_ZN7android8hardware3drm4V1_021BpHwDrmPluginListener13unlinkToDeathERKNS_2spINS0_20hidl_death_recipientEEE"
    },
    {
     "kind":"complete_dtor_pointer",
     "mangled_component_name":"_ZN7android8hardware3drm4V1_021BpHwDrmPluginListenerD1Ev"
    },
    {
     "kind":"deleting_dtor_pointer",
     "mangled_component_name":"_ZN7android8hardware3drm4V1_021BpHwDrmPluginListenerD0Ev"
    },
    {
     "mangled_component_name":"_ZN7android8hardware3drm4V1_021BpHwDrmPluginListener9sendEventENS2_9EventTypeERKNS0_8hidl_vecIhEES8_"
    },
    {
     "mangled_component_name":"_ZN7android8hardware3drm4V1_021BpHwDrmPluginListener20sendExpirationUpdateERKNS0_8hidl_vecIhEEx"
    },
    {
     "mangled_component_name":"_ZN7android8hardware3drm4V1_021BpHwDrmPluginListener14sendKeysChangeERKNS0_8hidl_vecIhEERKNS4_INS2_9KeyStatusEEEb"
    },
    {
     "mangled_component_name":"_ZN7android8hardware11BpInterfaceINS0_3drm4V1_018IDrmPluginListenerEE10onAsBinderEv"
    },
    {
     "kind":"vbase_offset",
     "component_value":80
    },
    {
     "kind":"offset_to_top",
     "component_value":-4
    },
    {
     "kind":"rtti",
     "mangled_component_name":"_ZTIN7android8hardware3drm4V1_021BpHwDrmPluginListenerE"
    },
    {
     "kind":"complete_dtor_pointer",
     "mangled_component_name":"_ZThn4_N7android8hardware3drm4V1_021BpHwDrmPluginListenerD1Ev"
    },
    {
     "kind":"deleting_dtor_pointer",
     "mangled_component_name":"_ZThn4_N7android8hardware3drm4V1_021BpHwDrmPluginListenerD0Ev"
    },
    {
     "mangled_component_name":"_ZThn4_N7android8hardware11BpInterfaceINS0_3drm4V1_018IDrmPluginListenerEE10onAsBinderEv"
    },
    {
     "kind":"vbase_offset",
     "component_value":76
    },
    {
     "kind":"offset_to_top",
     "component_value":-8
    },
    {
     "kind":"rtti",
     "mangled_component_name":"_ZTIN7android8hardware3drm4V1_021BpHwDrmPluginListenerE"
    },
    {
     "kind":"complete_dtor_pointer",
     "mangled_component_name":"_ZThn8_N7android8hardware3drm4V1_021BpHwDrmPluginListenerD1Ev"
    },
    {
     "kind":"deleting_dtor_pointer",
     "mangled_component_name":"_ZThn8_N7android8hardware3drm4V1_021BpHwDrmPluginListenerD0Ev"
    },
    {
     "mangled_component_name":"_ZN7android8hardware11BpHwRefBase10onFirstRefEv"
    },
    {
     "mangled_component_name":"_ZN7android8hardware11BpHwRefBase15onLastStrongRefEPKv"
    },
    {
     "mangled_component_name":"_ZN7android8hardware11BpHwRefBase20onIncStrongAttemptedEjPKv"
    },
    {
     "kind":"offset_to_top",
     "component_value":-24
    },
    {
     "kind":"rtti",
     "mangled_component_name":"_ZTIN7android8hardware3drm4V1_021BpHwDrmPluginListenerE"
    },
    {
     "kind":"complete_dtor_pointer",
     "mangled_component_name":"_ZThn24_N7android8hardware3drm4V1_021BpHwDrmPluginListenerD1Ev"
    },
    {
     "kind":"deleting_dtor_pointer",
     "mangled_component_name":"_ZThn24_N7android8hardware3drm4V1_021BpHwDrmPluginListenerD0Ev"
    },
    {
     "kind":"vcall_offset"
    },
    {
     "kind":"vcall_offset",
     "component_value":-76
    },
    {
     "kind":"vcall_offset",
     "component_value":-76
    },
    {
     "kind":"vcall_offset",
     "component_value":-76
    },
    {
     "kind":"vcall_offset",
     "component_value":-84
    },
    {
     "kind":"offset_to_top",
     "component_value":-84
    },
    {
     "kind":"rtti",
     "mangled_component_name":"_ZTIN7android8hardware3drm4V1_021BpHwDrmPluginListenerE"
    },
    {
     "kind":"complete_dtor_pointer",
     "mangled_component_name":"_ZTv0_n12_N7android8hardware3drm4V1_021BpHwDrmPluginListenerD1Ev"
    },
    {
     "kind":"deleting_dtor_pointer",
     "mangled_component_name":"_ZTv0_n12_N7android8hardware3drm4V1_021BpHwDrmPluginListenerD0Ev"
    },
    {
     "mangled_component_name":"_ZTv0_n16_N7android8hardware11BpHwRefBase10onFirstRefEv"
    },
    {
     "mangled_component_name":"_ZTv0_n20_N7android8hardware11BpHwRefBase15onLastStrongRefEPKv"
    },
    {
     "mangled_component_name":"_ZTv0_n24_N7android8hardware11BpHwRefBase20onIncStrongAttemptedEjPKv"
    },
    {
     "mangled_component_name":"_ZN7android7RefBase13onLastWeakRefEPKv"
    }
   ],
   "unique_id":"_ZTSN7android8hardware3drm4V1_021BpHwDrmPluginListenerE"
  },
  {
   "vtable_components":[
    {
     "kind":"vbase_offset",
     "component_value":60
    },
    {
     "kind":"offset_to_top"
    },
    {
     "kind":"rtti",
     "mangled_component_name":"_ZTIN7android8hardware3drm4V1_011BsDrmPluginE"
    },
    {
     "mangled_component_name":"_ZNK7android8hardware3drm4V1_010IDrmPlugin8isRemoteEv"
    },
    {
     "mangled_component_name":"_ZN7android8hardware3drm4V1_011BsDrmPlugin14interfaceChainENSt3__18functionIFvRKNS0_8hidl_vecINS0_11hidl_stringEEEEEE"
    },
    {
     "mangled_component_name":"_ZN7android8hardware3drm4V1_011BsDrmPlugin5debugERKNS0_11hidl_handleERKNS0_8hidl_vecINS0_11hidl_stringEEE"
    },
    {
     "mangled_component_name":"_ZN7android8hardware3drm4V1_011BsDrmPlugin19interfaceDescriptorENSt3__18functionIFvRKNS0_11hidl_stringEEEE"
    },
    {
     "mangled_component_name":"_ZN7android8hardware3drm4V1_011BsDrmPlugin12getHashChainENSt3__18functionIFvRKNS0_8hidl_vecINS0_10hidl_arrayIhLj32EJEEEEEEEE"
    },
    {
     "mangled_component_name":"_ZN7android8hardware3drm4V1_011BsDrmPlugin21setHALInstrumentationEv"
    },
    {
     "mangled_component_name":"_ZN7android8hardware3drm4V1_011BsDrmPlugin11linkToDeathERKNS_2spINS0_20hidl_death_recipientEEEy"
    },
    {
     "mangled_component_name":"_ZN7android8hardware3drm4V1_011BsDrmPlugin4pingEv"
    },
    {
     "mangled_component_name":"_ZN7android8hardware3drm4V1_011BsDrmPlugin12getDebugInfoENSt3__18functionIFvRKNS_4hidl4base4V1_09DebugInfoEEEE"
    },
    {
     "mangled_component_name":"_ZN7android8hardware3drm4V1_011BsDrmPlugin21notifySyspropsChangedEv"
    },
    {
     "mangled_component_name":"_ZN7android8hardware3drm4V1_011BsDrmPlugin13unlinkToDeathERKNS_2spINS0_20hidl_death_recipientEEE"
    },
    {
     "kind":"complete_dtor_pointer",
     "mangled_component_name":"_ZN7android8hardware3drm4V1_011BsDrmPluginD1Ev"
    },
    {
     "kind":"deleting_dtor_pointer",
     "mangled_component_name":"_ZN7android8hardware3drm4V1_011BsDrmPluginD0Ev"
    },
    {
     "mangled_component_name":"_ZN7android8hardware3drm4V1_011BsDrmPlugin11openSessionENSt3__18functionIFvNS2_6StatusERKNS0_8hidl_vecIhEEEEE"
    },
    {
     "mangled_component_name":"_ZN7android8hardware3drm4V1_011BsDrmPlugin12closeSessionERKNS0_8hidl_vecIhEE"
    },
    {
     "mangled_component_name":"_ZN7android8hardware3drm4V1_011BsDrmPlugin13getKeyRequestERKNS0_8hidl_vecIhEES7_RKNS0_11hidl_stringENS2_7KeyTypeERKNS4_INS2_8KeyValueEEENSt3__18functionIFvNS2_6StatusES7_NS2_14KeyRequestTypeESA_EEE"
    },
    {
     "mangled_component_name":"_ZN7android8hardware3drm4V1_011BsDrmPlugin18provideKeyResponseERKNS0_8hidl_vecIhEES7_NSt3__18functionIFvNS2_6StatusES7_EEE"
    },
    {
     "mangled_component_name":"_ZN7android8hardware3drm4V1_011BsDrmPlugin10removeKeysERKNS0_8hidl_vecIhEE"
    },
    {
     "mangled_component_name":"_ZN7android8hardware3drm4V1_011BsDrmPlugin11restoreKeysERKNS0_8hidl_vecIhEES7_"
    },
    {
     "mangled_component_name":"_ZN7android8hardware3drm4V1_011BsDrmPlugin14queryKeyStatusERKNS0_8hidl_vecIhEENSt3__18functionIFvNS2_6StatusERKNS4_INS2_8KeyValueEEEEEE"
    },
    {
     "mangled_component_name":"_ZN7android8hardware3drm4V1_011BsDrmPlugin19getProvisionRequestERKNS0_11hidl_stringES6_NSt3__18functionIFvNS2_6StatusERKNS0_8hidl_vecIhEES6_EEE"
    },
    {
     "mangled_component_name":"_ZN7android8hardware3drm4V1_011BsDrmPlugin24provideProvisionResponseERKNS0_8hidl_vecIhEENSt3__18functionIFvNS2_6StatusES7_S7_EEE"
    },
    {
     "mangled_component_name":"_ZN7android8hardware3drm4V1_011BsDrmPlugin14getSecureStopsENSt3__18functionIFvNS2_6StatusERKNS0_8hidl_vecINS2_10SecureStopEEEEEE"
    },
    {
     "mangled_component_name":"_ZN7android8hardware3drm4V1_011BsDrmPlugin13getSecureStopERKNS0_8hidl_vecIhEENSt3__18functionIFvNS2_6StatusERKNS2_10SecureStopEEEE"
    },
    {
     "mangled_component_name":"_ZN7android8hardware3drm4V1_011BsDrmPlugin21releaseAllSecureStopsEv"
    },
    {
     "mangled_component_name":"_ZN7android8hardware3drm4V1_011BsDrmPlugin17releaseSecureStopERKNS0_8hidl_vecIhEE"
    },
    {
     "mangled_component_name":"_ZN7android8hardware3drm4V1_011BsDrmPlugin17getPropertyStringERKNS0_11hidl_stringENSt3__18functionIFvNS2_6StatusES6_EEE"
    },
    {
     "mangled_component_name":"_ZN7android8hardware3drm4V1_011BsDrmPlugin20getPropertyByteArrayERKNS0_11hidl_stringENSt3__18functionIFvNS2_6StatusERKNS0_8hidl_vecIhEEEEE"
    },
    {
     "mangled_component_name":"_ZN7android8hardware3drm4V1_011BsDrmPlugin17setPropertyStringERKNS0_11hidl_stringES6_"
    },
    {
     "mangled_component_name":"_ZN7android8hardware3drm4V1_011BsDrmPlugin20setPropertyByteArrayERKNS0_11hidl_stringERKNS0_8hidl_vecIhEE"
    },
    {
     "mangled_component_name":"_ZN7android8hardware3drm4V1_011BsDrmPlugin18setCipherAlgorithmERKNS0_8hidl_vecIhEERKNS0_11hidl_stringE"
    },
    {
     "mangled_component_name":"_ZN7android8hardware3drm4V1_011BsDrmPlugin15setMacAlgorithmERKNS0_8hidl_vecIhEERKNS0_11hidl_stringE"
    },
    {
     "mangled_component_name":"_ZN7android8hardware3drm4V1_011BsDrmPlugin7encryptERKNS0_8hidl_vecIhEES7_S7_S7_NSt3__18functionIFvNS2_6StatusES7_EEE"
    },
    {
     "mangled_component_name":"_ZN7android8hardware3drm4V1_011BsDrmPlugin7decryptERKNS0_8hidl_vecIhEES7_S7_S7_NSt3__18functionIFvNS2_6StatusES7_EEE"
    },
    {
     "mangled_component_name":"_ZN7android8hardware3drm4V1_011BsDrmPlugin4signERKNS0_8hidl_vecIhEES7_S7_NSt3__18functionIFvNS2_6StatusES7_EEE"
    },
    {
     "mangled_component_name":"_ZN7android8hardware3drm4V1_011BsDrmPlugin6verifyERKNS0_8hidl_vecIhEES7_S7_S7_NSt3__18functionIFvNS2_6StatusEbEEE"
    },
    {
     "mangled_component_name":"_ZN7android8hardware3drm4V1_011BsDrmPlugin7signRSAERKNS0_8hidl_vecIhEERKNS0_11hidl_stringES7_S7_NSt3__18functionIFvNS2_6StatusES7_EEE"
    },
    {
     "mangled_component_name":"_ZN7android8hardware3drm4V1_011BsDrmPlugin11setListenerERKNS_2spINS2_18IDrmPluginListenerEEE"
    },
    {
     "mangled_component_name":"_ZN7android8hardware3drm4V1_011BsDrmPlugin9sendEventENS2_9EventTypeERKNS0_8hidl_vecIhEES8_"
    },
    {
     "mangled_component_name":"_ZN7android8hardware3drm4V1_011BsDrmPlugin20sendExpirationUpdateERKNS0_8hidl_vecIhEEx"
    },
    {
     "mangled_component_name":"_ZN7android8hardware3drm4V1_011BsDrmPlugin14sendKeysChangeERKNS0_8hidl_vecIhEERKNS4_INS2_9KeyStatusEEEb"
    },
    {
     "kind":"offset_to_top",
     "component_value":-4
    },
    {
     "kind":"rtti",
     "mangled_component_name":"_ZTIN7android8hardware3drm4V1_011BsDrmPluginE"
    },
    {
     "kind":"complete_dtor_pointer",
     "mangled_component_name":"_ZThn4_N7android8hardware3drm4V1_011BsDrmPluginD1Ev"
    },
    {
     "kind":"deleting_dtor_pointer",
     "mangled_component_name":"_ZThn4_N7android8hardware3drm4V1_011BsDrmPluginD0Ev"
    },
    {
     "kind":"vcall_offset"
    },
    {
     "kind":"vcall_offset"
    },
    {
     "kind":"vcall_offset"
    },
    {
     "kind":"vcall_offset"
    },
    {
     "kind":"vcall_offset",
     "component_value":-60
    },
    {
     "kind":"offset_to_top",
     "component_value":-60
    },
    {
     "kind":"rtti",
     "mangled_component_name":"_ZTIN7android8hardware3drm4V1_011BsDrmPluginE"
    },
    {
     "kind":"complete_dtor_pointer",
     "mangled_component_name":"_ZTv0_n12_N7android8hardware3drm4V1_011BsDrmPluginD1Ev"
    },
    {
     "kind":"deleting_dtor_pointer",
     "mangled_component_name":"_ZTv0_n12_N7android8hardware3drm4V1_011BsDrmPluginD0Ev"
    },
    {
     "mangled_component_name":"_ZN7android7RefBase10onFirstRefEv"
    },
    {
     "mangled_component_name":"_ZN7android7RefBase15onLastStrongRefEPKv"
    },
    {
     "mangled_component_name":"_ZN7android7RefBase20onIncStrongAttemptedEjPKv"
    },
    {
     "mangled_component_name":"_ZN7android7RefBase13onLastWeakRefEPKv"
    }
   ],
   "unique_id":"_ZTSN7android8hardware3drm4V1_011BsDrmPluginE"
  },
  {
   "vtable_components":[
    {
     "kind":"vbase_offset",
     "component_value":4
    },
    {
     "kind":"offset_to_top"
    },
    {
     "kind":"rtti",
     "mangled_component_name":"_ZTIN7android8hardware3drm4V1_013ICryptoPluginE"
    },
    {
     "mangled_component_name":"_ZNK7android8hardware3drm4V1_013ICryptoPlugin8isRemoteEv"
    },
    {
     "mangled_component_name":"_ZN7android8hardware3drm4V1_013ICryptoPlugin14interfaceChainENSt3__18functionIFvRKNS0_8hidl_vecINS0_11hidl_stringEEEEEE"
    },
    {
     "mangled_component_name":"_ZN7android8hardware3drm4V1_013ICryptoPlugin5debugERKNS0_11hidl_handleERKNS0_8hidl_vecINS0_11hidl_stringEEE"
    },
    {
     "mangled_component_name":"_ZN7android8hardware3drm4V1_013ICryptoPlugin19interfaceDescriptorENSt3__18functionIFvRKNS0_11hidl_stringEEEE"
    },
    {
     "mangled_component_name":"_ZN7android8hardware3drm4V1_013ICryptoPlugin12getHashChainENSt3__18functionIFvRKNS0_8hidl_vecINS0_10hidl_arrayIhLj32EJEEEEEEEE"
    },
    {
     "mangled_component_name":"_ZN7android8hardware3drm4V1_013ICryptoPlugin21setHALInstrumentationEv"
    },
    {
     "mangled_component_name":"_ZN7android8hardware3drm4V1_013ICryptoPlugin11linkToDeathERKNS_2spINS0_20hidl_death_recipientEEEy"
    },
    {
     "mangled_component_name":"_ZN7android8hardware3drm4V1_013ICryptoPlugin4pingEv"
    },
    {
     "mangled_component_name":"_ZN7android8hardware3drm4V1_013ICryptoPlugin12getDebugInfoENSt3__18functionIFvRKNS_4hidl4base4V1_09DebugInfoEEEE"
    },
    {
     "mangled_component_name":"_ZN7android8hardware3drm4V1_013ICryptoPlugin21notifySyspropsChangedEv"
    },
    {
     "mangled_component_name":"_ZN7android8hardware3drm4V1_013ICryptoPlugin13unlinkToDeathERKNS_2spINS0_20hidl_death_recipientEEE"
    },
    {
     "kind":"complete_dtor_pointer",
     "mangled_component_name":"_ZN7android8hardware3drm4V1_013ICryptoPluginD1Ev"
    },
    {
     "kind":"deleting_dtor_pointer",
     "mangled_component_name":"_ZN7android8hardware3drm4V1_013ICryptoPluginD0Ev"
    },
    {
     "is_pure":true,
     "mangled_component_name":"_ZN7android8hardware3drm4V1_013ICryptoPlugin30requiresSecureDecoderComponentERKNS0_11hidl_stringE"
    },
    {
     "is_pure":true,
     "mangled_component_name":"_ZN7android8hardware3drm4V1_013ICryptoPlugin16notifyResolutionEjj"
    },
    {
     "is_pure":true,
     "mangled_component_name":"_ZN7android8hardware3drm4V1_013ICryptoPlugin18setMediaDrmSessionERKNS0_8hidl_vecIhEE"
    },
    {
     "is_pure":true,
     "mangled_component_name":"_ZN7android8hardware3drm4V1_013ICryptoPlugin19setSharedBufferBaseERKNS0_11hidl_memoryEj"
    },
    {
     "is_pure":true,
     "mangled_component_name":"_ZN7android8hardware3drm4V1_013ICryptoPlugin7decryptEbRKNS0_10hidl_arrayIhLj16EJEEES7_NS2_4ModeERKNS2_7PatternERKNS0_8hidl_vecINS2_9SubSampleEEERKNS2_12SharedBufferEyRKNS2_17DestinationBufferENSt3__18functionIFvNS2_6StatusEjRKNS0_11hidl_stringEEEE"
    },
    {
     "kind":"vcall_offset"
    },
    {
     "kind":"vcall_offset"
    },
    {
     "kind":"vcall_offset"
    },
    {
     "kind":"vcall_offset"
    },
    {
     "kind":"vcall_offset",
     "component_value":-4
    },
    {
     "kind":"offset_to_top",
     "component_value":-4
    },
    {
     "kind":"rtti",
     "mangled_component_name":"_ZTIN7android8hardware3drm4V1_013ICryptoPluginE"
    },
    {
     "kind":"complete_dtor_pointer",
     "mangled_component_name":"_ZTv0_n12_N7android8hardware3drm4V1_013ICryptoPluginD1Ev"
    },
    {
     "kind":"deleting_dtor_pointer",
     "mangled_component_name":"_ZTv0_n12_N7android8hardware3drm4V1_013ICryptoPluginD0Ev"
    },
    {
     "mangled_component_name":"_ZN7android7RefBase10onFirstRefEv"
    },
    {
     "mangled_component_name":"_ZN7android7RefBase15onLastStrongRefEPKv"
    },
    {
     "mangled_component_name":"_ZN7android7RefBase20onIncStrongAttemptedEjPKv"
    },
    {
     "mangled_component_name":"_ZN7android7RefBase13onLastWeakRefEPKv"
    }
   ],
   "unique_id":"_ZTSN7android8hardware3drm4V1_013ICryptoPluginE"
  },
  {
   "vtable_components":[
    {
     "kind":"vbase_offset",
     "component_value":84
    },
    {
     "kind":"offset_to_top"
    },
    {
     "kind":"rtti",
     "mangled_component_name":"_ZTIN7android8hardware3drm4V1_016BpHwCryptoPluginE"
    },
    {
     "mangled_component_name":"_ZNK7android8hardware3drm4V1_016BpHwCryptoPlugin8isRemoteEv"
    },
    {
     "mangled_component_name":"_ZN7android8hardware3drm4V1_016BpHwCryptoPlugin14interfaceChainENSt3__18functionIFvRKNS0_8hidl_vecINS0_11hidl_stringEEEEEE"
    },
    {
     "mangled_component_name":"_ZN7android8hardware3drm4V1_016BpHwCryptoPlugin5debugERKNS0_11hidl_handleERKNS0_8hidl_vecINS0_11hidl_stringEEE"
    },
    {
     "mangled_component_name":"_ZN7android8hardware3drm4V1_016BpHwCryptoPlugin19interfaceDescriptorENSt3__18functionIFvRKNS0_11hidl_stringEEEE"
    },
    {
     "mangled_component_name":"_ZN7android8hardware3drm4V1_016BpHwCryptoPlugin12getHashChainENSt3__18functionIFvRKNS0_8hidl_vecINS0_10hidl_arrayIhLj32EJEEEEEEEE"
    },
    {
     "mangled_component_name":"_ZN7android8hardware3drm4V1_016BpHwCryptoPlugin21setHALInstrumentationEv"
    },
    {
     "mangled_component_name":"_ZN7android8hardware3drm4V1_016BpHwCryptoPlugin11linkToDeathERKNS_2spINS0_20hidl_death_recipientEEEy"
    },
    {
     "mangled_component_name":"_ZN7android8hardware3drm4V1_016BpHwCryptoPlugin4pingEv"
    },
    {
     "mangled_component_name":"_ZN7android8hardware3drm4V1_016BpHwCryptoPlugin12getDebugInfoENSt3__18functionIFvRKNS_4hidl4base4V1_09DebugInfoEEEE"
    },
    {
     "mangled_component_name":"_ZN7android8hardware3drm4V1_016BpHwCryptoPlugin21notifySyspropsChangedEv"
    },
    {
     "mangled_component_name":"_ZN7android8hardware3drm4V1_016BpHwCryptoPlugin13unlinkToDeathERKNS_2spINS0_20hidl_death_recipientEEE"
    },
    {
     "kind":"complete_dtor_pointer",
     "mangled_component_name":"_ZN7android8hardware3drm4V1_016BpHwCryptoPluginD1Ev"
    },
    {
     "kind":"deleting_dtor_pointer",
     "mangled_component_name":"_ZN7android8hardware3drm4V1_016BpHwCryptoPluginD0Ev"
    },
    {
     "mangled_component_name":"_ZN7android8hardware3drm4V1_016BpHwCryptoPlugin30requiresSecureDecoderComponentERKNS0_11hidl_stringE"
    },
    {
     "mangled_component_name":"_ZN7android8hardware3drm4V1_016BpHwCryptoPlugin16notifyResolutionEjj"
    },
    {
     "mangled_component_name":"_ZN7android8hardware3drm4V1_016BpHwCryptoPlugin18setMediaDrmSessionERKNS0_8hidl_vecIhEE"
    },
    {
     "mangled_component_name":"_ZN7android8hardware3drm4V1_016BpHwCryptoPlugin19setSharedBufferBaseERKNS0_11hidl_memoryEj"
    },
    {
     "mangled_component_name":"_ZN7android8hardware3drm4V1_016BpHwCryptoPlugin7decryptEbRKNS0_10hidl_arrayIhLj16EJEEES7_NS2_4ModeERKNS2_7PatternERKNS0_8hidl_vecINS2_9SubSampleEEERKNS2_12SharedBufferEyRKNS2_17DestinationBufferENSt3__18functionIFvNS2_6StatusEjRKNS0_11hidl_stringEEEE"
    },
    {
     "mangled_component_name":"_ZN7android8hardware11BpInterfaceINS0_3drm4V1_013ICryptoPluginEE10onAsBinderEv"
    },
    {
     "kind":"vbase_offset",
     "component_value":80
    },
    {
     "kind":"offset_to_top",
     "component_value":-4
    },
    {
     "kind":"rtti",
     "mangled_component_name":"_ZTIN7android8hardware3drm4V1_016BpHwCryptoPluginE"
    },
    {
     "kind":"complete_dtor_pointer",
     "mangled_component_name":"_ZThn4_N7android8hardware3drm4V1_016BpHwCryptoPluginD1Ev"
    },
    {
     "kind":"deleting_dtor_pointer",
     "mangled_component_name":"_ZThn4_N7android8hardware3drm4V1_016BpHwCryptoPluginD0Ev"
    },
    {
     "mangled_component_name":"_ZThn4_N7android8hardware11BpInterfaceINS0_3drm4V1_013ICryptoPluginEE10onAsBinderEv"
    },
    {
     "kind":"vbase_offset",
     "component_value":76
    },
    {
     "kind":"offset_to_top",
     "component_value":-8
    },
    {
     "kind":"rtti",
     "mangled_component_name":"_ZTIN7android8hardware3drm4V1_016BpHwCryptoPluginE"
    },
    {
     "kind":"complete_dtor_pointer",
     "mangled_component_name":"_ZThn8_N7android8hardware3drm4V1_016BpHwCryptoPluginD1Ev"
    },
    {
     "kind":"deleting_dtor_pointer",
     "mangled_component_name":"_ZThn8_N7android8hardware3drm4V1_016BpHwCryptoPluginD0Ev"
    },
    {
     "mangled_component_name":"_ZN7android8hardware11BpHwRefBase10onFirstRefEv"
    },
    {
     "mangled_component_name":"_ZN7android8hardware11BpHwRefBase15onLastStrongRefEPKv"
    },
    {
     "mangled_component_name":"_ZN7android8hardware11BpHwRefBase20onIncStrongAttemptedEjPKv"
    },
    {
     "kind":"offset_to_top",
     "component_value":-24
    },
    {
     "kind":"rtti",
     "mangled_component_name":"_ZTIN7android8hardware3drm4V1_016BpHwCryptoPluginE"
    },
    {
     "kind":"complete_dtor_pointer",
     "mangled_component_name":"_ZThn24_N7android8hardware3drm4V1_016BpHwCryptoPluginD1Ev"
    },
    {
     "kind":"deleting_dtor_pointer",
     "mangled_component_name":"_ZThn24_N7android8hardware3drm4V1_016BpHwCryptoPluginD0Ev"
    },
    {
     "kind":"vcall_offset"
    },
    {
     "kind":"vcall_offset",
     "component_value":-76
    },
    {
     "kind":"vcall_offset",
     "component_value":-76
    },
    {
     "kind":"vcall_offset",
     "component_value":-76
    },
    {
     "kind":"vcall_offset",
     "component_value":-84
    },
    {
     "kind":"offset_to_top",
     "component_value":-84
    },
    {
     "kind":"rtti",
     "mangled_component_name":"_ZTIN7android8hardware3drm4V1_016BpHwCryptoPluginE"
    },
    {
     "kind":"complete_dtor_pointer",
     "mangled_component_name":"_ZTv0_n12_N7android8hardware3drm4V1_016BpHwCryptoPluginD1Ev"
    },
    {
     "kind":"deleting_dtor_pointer",
     "mangled_component_name":"_ZTv0_n12_N7android8hardware3drm4V1_016BpHwCryptoPluginD0Ev"
    },
    {
     "mangled_component_name":"_ZTv0_n16_N7android8hardware11BpHwRefBase10onFirstRefEv"
    },
    {
     "mangled_component_name":"_ZTv0_n20_N7android8hardware11BpHwRefBase15onLastStrongRefEPKv"
    },
    {
     "mangled_component_name":"_ZTv0_n24_N7android8hardware11BpHwRefBase20onIncStrongAttemptedEjPKv"
    },
    {
     "mangled_component_name":"_ZN7android7RefBase13onLastWeakRefEPKv"
    }
   ],
   "unique_id":"_ZTSN7android8hardware3drm4V1_016BpHwCryptoPluginE"
  },
  {
   "vtable_components":[
    {
     "kind":"vbase_offset",
     "component_value":4
    },
    {
     "kind":"offset_to_top"
    },
    {
     "kind":"rtti",
     "mangled_component_name":"_ZTIN7android8hardware3drm4V1_014ICryptoFactoryE"
    },
    {
     "mangled_component_name":"_ZNK7android8hardware3drm4V1_014ICryptoFactory8isRemoteEv"
    },
    {
     "mangled_component_name":"_ZN7android8hardware3drm4V1_014ICryptoFactory14interfaceChainENSt3__18functionIFvRKNS0_8hidl_vecINS0_11hidl_stringEEEEEE"
    },
    {
     "mangled_component_name":"_ZN7android8hardware3drm4V1_014ICryptoFactory5debugERKNS0_11hidl_handleERKNS0_8hidl_vecINS0_11hidl_stringEEE"
    },
    {
     "mangled_component_name":"_ZN7android8hardware3drm4V1_014ICryptoFactory19interfaceDescriptorENSt3__18functionIFvRKNS0_11hidl_stringEEEE"
    },
    {
     "mangled_component_name":"_ZN7android8hardware3drm4V1_014ICryptoFactory12getHashChainENSt3__18functionIFvRKNS0_8hidl_vecINS0_10hidl_arrayIhLj32EJEEEEEEEE"
    },
    {
     "mangled_component_name":"_ZN7android8hardware3drm4V1_014ICryptoFactory21setHALInstrumentationEv"
    },
    {
     "mangled_component_name":"_ZN7android8hardware3drm4V1_014ICryptoFactory11linkToDeathERKNS_2spINS0_20hidl_death_recipientEEEy"
    },
    {
     "mangled_component_name":"_ZN7android8hardware3drm4V1_014ICryptoFactory4pingEv"
    },
    {
     "mangled_component_name":"_ZN7android8hardware3drm4V1_014ICryptoFactory12getDebugInfoENSt3__18functionIFvRKNS_4hidl4base4V1_09DebugInfoEEEE"
    },
    {
     "mangled_component_name":"_ZN7android8hardware3drm4V1_014ICryptoFactory21notifySyspropsChangedEv"
    },
    {
     "mangled_component_name":"_ZN7android8hardware3drm4V1_014ICryptoFactory13unlinkToDeathERKNS_2spINS0_20hidl_death_recipientEEE"
    },
    {
     "kind":"complete_dtor_pointer",
     "mangled_component_name":"_ZN7android8hardware3drm4V1_014ICryptoFactoryD1Ev"
    },
    {
     "kind":"deleting_dtor_pointer",
     "mangled_component_name":"_ZN7android8hardware3drm4V1_014ICryptoFactoryD0Ev"
    },
    {
     "is_pure":true,
     "mangled_component_name":"_ZN7android8hardware3drm4V1_014ICryptoFactory23isCryptoSchemeSupportedERKNS0_10hidl_arrayIhLj16EJEEE"
    },
    {
     "is_pure":true,
     "mangled_component_name":"_ZN7android8hardware3drm4V1_014ICryptoFactory12createPluginERKNS0_10hidl_arrayIhLj16EJEEERKNS0_8hidl_vecIhEENSt3__18functionIFvNS2_6StatusERKNS_2spINS2_13ICryptoPluginEEEEEE"
    },
    {
     "kind":"vcall_offset"
    },
    {
     "kind":"vcall_offset"
    },
    {
     "kind":"vcall_offset"
    },
    {
     "kind":"vcall_offset"
    },
    {
     "kind":"vcall_offset",
     "component_value":-4
    },
    {
     "kind":"offset_to_top",
     "component_value":-4
    },
    {
     "kind":"rtti",
     "mangled_component_name":"_ZTIN7android8hardware3drm4V1_014ICryptoFactoryE"
    },
    {
     "kind":"complete_dtor_pointer",
     "mangled_component_name":"_ZTv0_n12_N7android8hardware3drm4V1_014ICryptoFactoryD1Ev"
    },
    {
     "kind":"deleting_dtor_pointer",
     "mangled_component_name":"_ZTv0_n12_N7android8hardware3drm4V1_014ICryptoFactoryD0Ev"
    },
    {
     "mangled_component_name":"_ZN7android7RefBase10onFirstRefEv"
    },
    {
     "mangled_component_name":"_ZN7android7RefBase15onLastStrongRefEPKv"
    },
    {
     "mangled_component_name":"_ZN7android7RefBase20onIncStrongAttemptedEjPKv"
    },
    {
     "mangled_component_name":"_ZN7android7RefBase13onLastWeakRefEPKv"
    }
   ],
   "unique_id":"_ZTSN7android8hardware3drm4V1_014ICryptoFactoryE"
  },
  {
   "vtable_components":[
    {
     "kind":"vbase_offset",
     "component_value":60
    },
    {
     "kind":"offset_to_top"
    },
    {
     "kind":"rtti",
     "mangled_component_name":"_ZTIN7android8hardware3drm4V1_019BsDrmPluginListenerE"
    },
    {
     "mangled_component_name":"_ZNK7android8hardware3drm4V1_018IDrmPluginListener8isRemoteEv"
    },
    {
     "mangled_component_name":"_ZN7android8hardware3drm4V1_019BsDrmPluginListener14interfaceChainENSt3__18functionIFvRKNS0_8hidl_vecINS0_11hidl_stringEEEEEE"
    },
    {
     "mangled_component_name":"_ZN7android8hardware3drm4V1_019BsDrmPluginListener5debugERKNS0_11hidl_handleERKNS0_8hidl_vecINS0_11hidl_stringEEE"
    },
    {
     "mangled_component_name":"_ZN7android8hardware3drm4V1_019BsDrmPluginListener19interfaceDescriptorENSt3__18functionIFvRKNS0_11hidl_stringEEEE"
    },
    {
     "mangled_component_name":"_ZN7android8hardware3drm4V1_019BsDrmPluginListener12getHashChainENSt3__18functionIFvRKNS0_8hidl_vecINS0_10hidl_arrayIhLj32EJEEEEEEEE"
    },
    {
     "mangled_component_name":"_ZN7android8hardware3drm4V1_019BsDrmPluginListener21setHALInstrumentationEv"
    },
    {
     "mangled_component_name":"_ZN7android8hardware3drm4V1_019BsDrmPluginListener11linkToDeathERKNS_2spINS0_20hidl_death_recipientEEEy"
    },
    {
     "mangled_component_name":"_ZN7android8hardware3drm4V1_019BsDrmPluginListener4pingEv"
    },
    {
     "mangled_component_name":"_ZN7android8hardware3drm4V1_019BsDrmPluginListener12getDebugInfoENSt3__18functionIFvRKNS_4hidl4base4V1_09DebugInfoEEEE"
    },
    {
     "mangled_component_name":"_ZN7android8hardware3drm4V1_019BsDrmPluginListener21notifySyspropsChangedEv"
    },
    {
     "mangled_component_name":"_ZN7android8hardware3drm4V1_019BsDrmPluginListener13unlinkToDeathERKNS_2spINS0_20hidl_death_recipientEEE"
    },
    {
     "kind":"complete_dtor_pointer",
     "mangled_component_name":"_ZN7android8hardware3drm4V1_019BsDrmPluginListenerD1Ev"
    },
    {
     "kind":"deleting_dtor_pointer",
     "mangled_component_name":"_ZN7android8hardware3drm4V1_019BsDrmPluginListenerD0Ev"
    },
    {
     "mangled_component_name":"_ZN7android8hardware3drm4V1_019BsDrmPluginListener9sendEventENS2_9EventTypeERKNS0_8hidl_vecIhEES8_"
    },
    {
     "mangled_component_name":"_ZN7android8hardware3drm4V1_019BsDrmPluginListener20sendExpirationUpdateERKNS0_8hidl_vecIhEEx"
    },
    {
     "mangled_component_name":"_ZN7android8hardware3drm4V1_019BsDrmPluginListener14sendKeysChangeERKNS0_8hidl_vecIhEERKNS4_INS2_9KeyStatusEEEb"
    },
    {
     "kind":"offset_to_top",
     "component_value":-4
    },
    {
     "kind":"rtti",
     "mangled_component_name":"_ZTIN7android8hardware3drm4V1_019BsDrmPluginListenerE"
    },
    {
     "kind":"complete_dtor_pointer",
     "mangled_component_name":"_ZThn4_N7android8hardware3drm4V1_019BsDrmPluginListenerD1Ev"
    },
    {
     "kind":"deleting_dtor_pointer",
     "mangled_component_name":"_ZThn4_N7android8hardware3drm4V1_019BsDrmPluginListenerD0Ev"
    },
    {
     "kind":"vcall_offset"
    },
    {
     "kind":"vcall_offset"
    },
    {
     "kind":"vcall_offset"
    },
    {
     "kind":"vcall_offset"
    },
    {
     "kind":"vcall_offset",
     "component_value":-60
    },
    {
     "kind":"offset_to_top",
     "component_value":-60
    },
    {
     "kind":"rtti",
     "mangled_component_name":"_ZTIN7android8hardware3drm4V1_019BsDrmPluginListenerE"
    },
    {
     "kind":"complete_dtor_pointer",
     "mangled_component_name":"_ZTv0_n12_N7android8hardware3drm4V1_019BsDrmPluginListenerD1Ev"
    },
    {
     "kind":"deleting_dtor_pointer",
     "mangled_component_name":"_ZTv0_n12_N7android8hardware3drm4V1_019BsDrmPluginListenerD0Ev"
    },
    {
     "mangled_component_name":"_ZN7android7RefBase10onFirstRefEv"
    },
    {
     "mangled_component_name":"_ZN7android7RefBase15onLastStrongRefEPKv"
    },
    {
     "mangled_component_name":"_ZN7android7RefBase20onIncStrongAttemptedEjPKv"
    },
    {
     "mangled_component_name":"_ZN7android7RefBase13onLastWeakRefEPKv"
    }
   ],
   "unique_id":"_ZTSN7android8hardware3drm4V1_019BsDrmPluginListenerE"
  },
  {
   "vtable_components":[
    {
     "kind":"vbase_offset",
     "component_value":72
    },
    {
     "kind":"offset_to_top"
    },
    {
     "kind":"rtti",
     "mangled_component_name":"_ZTIN7android8hardware3drm4V1_017BnHwCryptoFactoryE"
    },
    {
     "mangled_component_name":"_ZN7android8hardware9BHwBinder8transactEjRKNS0_6ParcelEPS2_jNSt3__18functionIFvRS2_EEE"
    },
    {
     "mangled_component_name":"_ZN7android8hardware9BHwBinder11linkToDeathERKNS_2spINS0_7IBinder14DeathRecipientEEEPvj"
    },
    {
     "mangled_component_name":"_ZN7android8hardware9BHwBinder13unlinkToDeathERKNS_2wpINS0_7IBinder14DeathRecipientEEEPvjPS5_"
    },
    {
     "mangled_component_name":"_ZNK7android8hardware7IBinder13checkSubclassEPKv"
    },
    {
     "mangled_component_name":"_ZN7android8hardware9BHwBinder12attachObjectEPKvPvS4_PFvS3_S4_S4_E"
    },
    {
     "mangled_component_name":"_ZNK7android8hardware9BHwBinder10findObjectEPKv"
    },
    {
     "mangled_component_name":"_ZN7android8hardware9BHwBinder12detachObjectEPKv"
    },
    {
     "mangled_component_name":"_ZN7android8hardware9BHwBinder11localBinderEv"
    },
    {
     "mangled_component_name":"_ZN7android8hardware7IBinder12remoteBinderEv"
    },
    {
     "kind":"complete_dtor_pointer",
     "mangled_component_name":"_ZN7android8hardware3drm4V1_017BnHwCryptoFactoryD1Ev"
    },
    {
     "kind":"deleting_dtor_pointer",
     "mangled_component_name":"_ZN7android8hardware3drm4V1_017BnHwCryptoFactoryD0Ev"
    },
    {
     "mangled_component_name":"_ZN7android8hardware3drm4V1_017BnHwCryptoFactory10onTransactEjRKNS0_6ParcelEPS4_jNSt3__18functionIFvRS4_EEE"
    },
    {
     "kind":"offset_to_top",
     "component_value":-20
    },
    {
     "kind":"rtti",
     "mangled_component_name":"_ZTIN7android8hardware3drm4V1_017BnHwCryptoFactoryE"
    },
    {
     "kind":"complete_dtor_pointer",
     "mangled_component_name":"_ZThn20_N7android8hardware3drm4V1_017BnHwCryptoFactoryD1Ev"
    },
    {
     "kind":"deleting_dtor_pointer",
     "mangled_component_name":"_ZThn20_N7android8hardware3drm4V1_017BnHwCryptoFactoryD0Ev"
    },
    {
     "kind":"vcall_offset"
    },
    {
     "kind":"vcall_offset"
    },
    {
     "kind":"vcall_offset"
    },
    {
     "kind":"vcall_offset"
    },
    {
     "kind":"vcall_offset",
     "component_value":-72
    },
    {
     "kind":"offset_to_top",
     "component_value":-72
    },
    {
     "kind":"rtti",
     "mangled_component_name":"_ZTIN7android8hardware3drm4V1_017BnHwCryptoFactoryE"
    },
    {
     "kind":"complete_dtor_pointer",
     "mangled_component_name":"_ZTv0_n12_N7android8hardware3drm4V1_017BnHwCryptoFactoryD1Ev"
    },
    {
     "kind":"deleting_dtor_pointer",
     "mangled_component_name":"_ZTv0_n12_N7android8hardware3drm4V1_017BnHwCryptoFactoryD0Ev"
    },
    {
     "mangled_component_name":"_ZN7android7RefBase10onFirstRefEv"
    },
    {
     "mangled_component_name":"_ZN7android7RefBase15onLastStrongRefEPKv"
    },
    {
     "mangled_component_name":"_ZN7android7RefBase20onIncStrongAttemptedEjPKv"
    },
    {
     "mangled_component_name":"_ZN7android7RefBase13onLastWeakRefEPKv"
    }
   ],
   "unique_id":"_ZTSN7android8hardware3drm4V1_017BnHwCryptoFactoryE"
  },
  {
   "vtable_components":[
    {
     "kind":"vbase_offset",
     "component_value":72
    },
    {
     "kind":"offset_to_top"
    },
    {
     "kind":"rtti",
     "mangled_component_name":"_ZTIN7android8hardware3drm4V1_014BnHwDrmFactoryE"
    },
    {
     "mangled_component_name":"_ZN7android8hardware9BHwBinder8transactEjRKNS0_6ParcelEPS2_jNSt3__18functionIFvRS2_EEE"
    },
    {
     "mangled_component_name":"_ZN7android8hardware9BHwBinder11linkToDeathERKNS_2spINS0_7IBinder14DeathRecipientEEEPvj"
    },
    {
     "mangled_component_name":"_ZN7android8hardware9BHwBinder13unlinkToDeathERKNS_2wpINS0_7IBinder14DeathRecipientEEEPvjPS5_"
    },
    {
     "mangled_component_name":"_ZNK7android8hardware7IBinder13checkSubclassEPKv"
    },
    {
     "mangled_component_name":"_ZN7android8hardware9BHwBinder12attachObjectEPKvPvS4_PFvS3_S4_S4_E"
    },
    {
     "mangled_component_name":"_ZNK7android8hardware9BHwBinder10findObjectEPKv"
    },
    {
     "mangled_component_name":"_ZN7android8hardware9BHwBinder12detachObjectEPKv"
    },
    {
     "mangled_component_name":"_ZN7android8hardware9BHwBinder11localBinderEv"
    },
    {
     "mangled_component_name":"_ZN7android8hardware7IBinder12remoteBinderEv"
    },
    {
     "kind":"complete_dtor_pointer",
     "mangled_component_name":"_ZN7android8hardware3drm4V1_014BnHwDrmFactoryD1Ev"
    },
    {
     "kind":"deleting_dtor_pointer",
     "mangled_component_name":"_ZN7android8hardware3drm4V1_014BnHwDrmFactoryD0Ev"
    },
    {
     "mangled_component_name":"_ZN7android8hardware3drm4V1_014BnHwDrmFactory10onTransactEjRKNS0_6ParcelEPS4_jNSt3__18functionIFvRS4_EEE"
    },
    {
     "kind":"offset_to_top",
     "component_value":-20
    },
    {
     "kind":"rtti",
     "mangled_component_name":"_ZTIN7android8hardware3drm4V1_014BnHwDrmFactoryE"
    },
    {
     "kind":"complete_dtor_pointer",
     "mangled_component_name":"_ZThn20_N7android8hardware3drm4V1_014BnHwDrmFactoryD1Ev"
    },
    {
     "kind":"deleting_dtor_pointer",
     "mangled_component_name":"_ZThn20_N7android8hardware3drm4V1_014BnHwDrmFactoryD0Ev"
    },
    {
     "kind":"vcall_offset"
    },
    {
     "kind":"vcall_offset"
    },
    {
     "kind":"vcall_offset"
    },
    {
     "kind":"vcall_offset"
    },
    {
     "kind":"vcall_offset",
     "component_value":-72
    },
    {
     "kind":"offset_to_top",
     "component_value":-72
    },
    {
     "kind":"rtti",
     "mangled_component_name":"_ZTIN7android8hardware3drm4V1_014BnHwDrmFactoryE"
    },
    {
     "kind":"complete_dtor_pointer",
     "mangled_component_name":"_ZTv0_n12_N7android8hardware3drm4V1_014BnHwDrmFactoryD1Ev"
    },
    {
     "kind":"deleting_dtor_pointer",
     "mangled_component_name":"_ZTv0_n12_N7android8hardware3drm4V1_014BnHwDrmFactoryD0Ev"
    },
    {
     "mangled_component_name":"_ZN7android7RefBase10onFirstRefEv"
    },
    {
     "mangled_component_name":"_ZN7android7RefBase15onLastStrongRefEPKv"
    },
    {
     "mangled_component_name":"_ZN7android7RefBase20onIncStrongAttemptedEjPKv"
    },
    {
     "mangled_component_name":"_ZN7android7RefBase13onLastWeakRefEPKv"
    }
   ],
   "unique_id":"_ZTSN7android8hardware3drm4V1_014BnHwDrmFactoryE"
  },
  {
   "vtable_components":[
    {
     "kind":"vbase_offset",
     "component_value":4
    },
    {
     "kind":"offset_to_top"
    },
    {
     "kind":"rtti",
     "mangled_component_name":"_ZTIN7android8hardware3drm4V1_011IDrmFactoryE"
    },
    {
     "mangled_component_name":"_ZNK7android8hardware3drm4V1_011IDrmFactory8isRemoteEv"
    },
    {
     "mangled_component_name":"_ZN7android8hardware3drm4V1_011IDrmFactory14interfaceChainENSt3__18functionIFvRKNS0_8hidl_vecINS0_11hidl_stringEEEEEE"
    },
    {
     "mangled_component_name":"_ZN7android8hardware3drm4V1_011IDrmFactory5debugERKNS0_11hidl_handleERKNS0_8hidl_vecINS0_11hidl_stringEEE"
    },
    {
     "mangled_component_name":"_ZN7android8hardware3drm4V1_011IDrmFactory19interfaceDescriptorENSt3__18functionIFvRKNS0_11hidl_stringEEEE"
    },
    {
     "mangled_component_name":"_ZN7android8hardware3drm4V1_011IDrmFactory12getHashChainENSt3__18functionIFvRKNS0_8hidl_vecINS0_10hidl_arrayIhLj32EJEEEEEEEE"
    },
    {
     "mangled_component_name":"_ZN7android8hardware3drm4V1_011IDrmFactory21setHALInstrumentationEv"
    },
    {
     "mangled_component_name":"_ZN7android8hardware3drm4V1_011IDrmFactory11linkToDeathERKNS_2spINS0_20hidl_death_recipientEEEy"
    },
    {
     "mangled_component_name":"_ZN7android8hardware3drm4V1_011IDrmFactory4pingEv"
    },
    {
     "mangled_component_name":"_ZN7android8hardware3drm4V1_011IDrmFactory12getDebugInfoENSt3__18functionIFvRKNS_4hidl4base4V1_09DebugInfoEEEE"
    },
    {
     "mangled_component_name":"_ZN7android8hardware3drm4V1_011IDrmFactory21notifySyspropsChangedEv"
    },
    {
     "mangled_component_name":"_ZN7android8hardware3drm4V1_011IDrmFactory13unlinkToDeathERKNS_2spINS0_20hidl_death_recipientEEE"
    },
    {
     "kind":"complete_dtor_pointer",
     "mangled_component_name":"_ZN7android8hardware3drm4V1_011IDrmFactoryD1Ev"
    },
    {
     "kind":"deleting_dtor_pointer",
     "mangled_component_name":"_ZN7android8hardware3drm4V1_011IDrmFactoryD0Ev"
    },
    {
     "is_pure":true,
     "mangled_component_name":"_ZN7android8hardware3drm4V1_011IDrmFactory23isCryptoSchemeSupportedERKNS0_10hidl_arrayIhLj16EJEEE"
    },
    {
     "is_pure":true,
     "mangled_component_name":"_ZN7android8hardware3drm4V1_011IDrmFactory22isContentTypeSupportedERKNS0_11hidl_stringE"
    },
    {
     "is_pure":true,
     "mangled_component_name":"_ZN7android8hardware3drm4V1_011IDrmFactory12createPluginERKNS0_10hidl_arrayIhLj16EJEEERKNS0_11hidl_stringENSt3__18functionIFvNS2_6StatusERKNS_2spINS2_10IDrmPluginEEEEEE"
    },
    {
     "kind":"vcall_offset"
    },
    {
     "kind":"vcall_offset"
    },
    {
     "kind":"vcall_offset"
    },
    {
     "kind":"vcall_offset"
    },
    {
     "kind":"vcall_offset",
     "component_value":-4
    },
    {
     "kind":"offset_to_top",
     "component_value":-4
    },
    {
     "kind":"rtti",
     "mangled_component_name":"_ZTIN7android8hardware3drm4V1_011IDrmFactoryE"
    },
    {
     "kind":"complete_dtor_pointer",
     "mangled_component_name":"_ZTv0_n12_N7android8hardware3drm4V1_011IDrmFactoryD1Ev"
    },
    {
     "kind":"deleting_dtor_pointer",
     "mangled_component_name":"_ZTv0_n12_N7android8hardware3drm4V1_011IDrmFactoryD0Ev"
    },
    {
     "mangled_component_name":"_ZN7android7RefBase10onFirstRefEv"
    },
    {
     "mangled_component_name":"_ZN7android7RefBase15onLastStrongRefEPKv"
    },
    {
     "mangled_component_name":"_ZN7android7RefBase20onIncStrongAttemptedEjPKv"
    },
    {
     "mangled_component_name":"_ZN7android7RefBase13onLastWeakRefEPKv"
    }
   ],
   "unique_id":"_ZTSN7android8hardware3drm4V1_011IDrmFactoryE"
  },
  {
   "vtable_components":[
    {
     "kind":"vbase_offset",
     "component_value":72
    },
    {
     "kind":"offset_to_top"
    },
    {
     "kind":"rtti",
     "mangled_component_name":"_ZTIN7android8hardware3drm4V1_016BnHwCryptoPluginE"
    },
    {
     "mangled_component_name":"_ZN7android8hardware9BHwBinder8transactEjRKNS0_6ParcelEPS2_jNSt3__18functionIFvRS2_EEE"
    },
    {
     "mangled_component_name":"_ZN7android8hardware9BHwBinder11linkToDeathERKNS_2spINS0_7IBinder14DeathRecipientEEEPvj"
    },
    {
     "mangled_component_name":"_ZN7android8hardware9BHwBinder13unlinkToDeathERKNS_2wpINS0_7IBinder14DeathRecipientEEEPvjPS5_"
    },
    {
     "mangled_component_name":"_ZNK7android8hardware7IBinder13checkSubclassEPKv"
    },
    {
     "mangled_component_name":"_ZN7android8hardware9BHwBinder12attachObjectEPKvPvS4_PFvS3_S4_S4_E"
    },
    {
     "mangled_component_name":"_ZNK7android8hardware9BHwBinder10findObjectEPKv"
    },
    {
     "mangled_component_name":"_ZN7android8hardware9BHwBinder12detachObjectEPKv"
    },
    {
     "mangled_component_name":"_ZN7android8hardware9BHwBinder11localBinderEv"
    },
    {
     "mangled_component_name":"_ZN7android8hardware7IBinder12remoteBinderEv"
    },
    {
     "kind":"complete_dtor_pointer",
     "mangled_component_name":"_ZN7android8hardware3drm4V1_016BnHwCryptoPluginD1Ev"
    },
    {
     "kind":"deleting_dtor_pointer",
     "mangled_component_name":"_ZN7android8hardware3drm4V1_016BnHwCryptoPluginD0Ev"
    },
    {
     "mangled_component_name":"_ZN7android8hardware3drm4V1_016BnHwCryptoPlugin10onTransactEjRKNS0_6ParcelEPS4_jNSt3__18functionIFvRS4_EEE"
    },
    {
     "kind":"offset_to_top",
     "component_value":-20
    },
    {
     "kind":"rtti",
     "mangled_component_name":"_ZTIN7android8hardware3drm4V1_016BnHwCryptoPluginE"
    },
    {
     "kind":"complete_dtor_pointer",
     "mangled_component_name":"_ZThn20_N7android8hardware3drm4V1_016BnHwCryptoPluginD1Ev"
    },
    {
     "kind":"deleting_dtor_pointer",
     "mangled_component_name":"_ZThn20_N7android8hardware3drm4V1_016BnHwCryptoPluginD0Ev"
    },
    {
     "kind":"vcall_offset"
    },
    {
     "kind":"vcall_offset"
    },
    {
     "kind":"vcall_offset"
    },
    {
     "kind":"vcall_offset"
    },
    {
     "kind":"vcall_offset",
     "component_value":-72
    },
    {
     "kind":"offset_to_top",
     "component_value":-72
    },
    {
     "kind":"rtti",
     "mangled_component_name":"_ZTIN7android8hardware3drm4V1_016BnHwCryptoPluginE"
    },
    {
     "kind":"complete_dtor_pointer",
     "mangled_component_name":"_ZTv0_n12_N7android8hardware3drm4V1_016BnHwCryptoPluginD1Ev"
    },
    {
     "kind":"deleting_dtor_pointer",
     "mangled_component_name":"_ZTv0_n12_N7android8hardware3drm4V1_016BnHwCryptoPluginD0Ev"
    },
    {
     "mangled_component_name":"_ZN7android7RefBase10onFirstRefEv"
    },
    {
     "mangled_component_name":"_ZN7android7RefBase15onLastStrongRefEPKv"
    },
    {
     "mangled_component_name":"_ZN7android7RefBase20onIncStrongAttemptedEjPKv"
    },
    {
     "mangled_component_name":"_ZN7android7RefBase13onLastWeakRefEPKv"
    }
   ],
   "unique_id":"_ZTSN7android8hardware3drm4V1_016BnHwCryptoPluginE"
  }
 ],
 "elf_functions":[
  {
   "binding":"weak",
   "name":"_ZN7android8hardware10fromBinderINS0_3drm4V1_010IDrmPluginENS3_13BpHwDrmPluginENS3_13BnHwDrmPluginEEENS_2spIT_EERKNS7_INS0_7IBinderEEE"
  },
  {
   "binding":"weak",
   "name":"_ZN7android8hardware10fromBinderINS0_3drm4V1_013ICryptoPluginENS3_16BpHwCryptoPluginENS3_16BnHwCryptoPluginEEENS_2spIT_EERKNS7_INS0_7IBinderEEE"
  },
  {
   "binding":"weak",
   "name":"_ZN7android8hardware10fromBinderINS0_3drm4V1_018IDrmPluginListenerENS3_21BpHwDrmPluginListenerENS3_21BnHwDrmPluginListenerEEENS_2spIT_EERKNS7_INS0_7IBinderEEE"
  },
  {
   "name":"_ZN7android8hardware3drm4V1_010IDrmPlugin10getServiceERKNSt3__112basic_stringIcNS4_11char_traitsIcEENS4_9allocatorIcEEEEb"
  },
  {
   "name":"_ZN7android8hardware3drm4V1_010IDrmPlugin11linkToDeathERKNS_2spINS0_20hidl_death_recipientEEEy"
  },
  {
   "name":"_ZN7android8hardware3drm4V1_010IDrmPlugin12getDebugInfoENSt3__18functionIFvRKNS_4hidl4base4V1_09DebugInfoEEEE"
  },
  {
   "name":"_ZN7android8hardware3drm4V1_010IDrmPlugin12getHashChainENSt3__18functionIFvRKNS0_8hidl_vecINS0_10hidl_arrayIhLj32EJEEEEEEEE"
  },
  {
   "name":"_ZN7android8hardware3drm4V1_010IDrmPlugin13tryGetServiceERKNSt3__112basic_stringIcNS4_11char_traitsIcEENS4_9allocatorIcEEEEb"
  },
  {
   "name":"_ZN7android8hardware3drm4V1_010IDrmPlugin13unlinkToDeathERKNS_2spINS0_20hidl_death_recipientEEE"
  },
  {
   "name":"_ZN7android8hardware3drm4V1_010IDrmPlugin14interfaceChainENSt3__18functionIFvRKNS0_8hidl_vecINS0_11hidl_stringEEEEEE"
  },
  {
   "name":"_ZN7android8hardware3drm4V1_010IDrmPlugin17registerAsServiceERKNSt3__112basic_stringIcNS4_11char_traitsIcEENS4_9allocatorIcEEEE"
  },
  {
   "name":"_ZN7android8hardware3drm4V1_010IDrmPlugin19interfaceDescriptorENSt3__18functionIFvRKNS0_11hidl_stringEEEE"
  },
  {
   "name":"_ZN7android8hardware3drm4V1_010IDrmPlugin21notifySyspropsChangedEv"
  },
  {
   "name":"_ZN7android8hardware3drm4V1_010IDrmPlugin21setHALInstrumentationEv"
  },
  {
   "name":"_ZN7android8hardware3drm4V1_010IDrmPlugin24registerForNotificationsERKNSt3__112basic_stringIcNS4_11char_traitsIcEENS4_9allocatorIcEEEERKNS_2spINS_4hidl7manager4V1_020IServiceNotificationEEE"
  },
  {
   "name":"_ZN7android8hardware3drm4V1_010IDrmPlugin4pingEv"
  },
  {
   "name":"_ZN7android8hardware3drm4V1_010IDrmPlugin5debugERKNS0_11hidl_handleERKNS0_8hidl_vecINS0_11hidl_stringEEE"
  },
  {
   "name":"_ZN7android8hardware3drm4V1_010IDrmPlugin8castFromERKNS_2spINS_4hidl4base4V1_05IBaseEEEb"
  },
  {
   "name":"_ZN7android8hardware3drm4V1_010IDrmPlugin8castFromERKNS_2spIS3_EEb"
  },
  {
   "name":"_ZN7android8hardware3drm4V1_011BsDrmPlugin13addOnewayTaskENSt3__18functionIFvvEEE"
  },
  {
   "name":"_ZN7android8hardware3drm4V1_011BsDrmPluginC1ENS_2spINS2_10IDrmPluginEEE"
  },
  {
   "name":"_ZN7android8hardware3drm4V1_011BsDrmPluginC2ENS_2spINS2_10IDrmPluginEEE"
  },
  {
   "name":"_ZN7android8hardware3drm4V1_011IDrmFactory10getServiceERKNSt3__112basic_stringIcNS4_11char_traitsIcEENS4_9allocatorIcEEEEb"
  },
  {
   "name":"_ZN7android8hardware3drm4V1_011IDrmFactory11linkToDeathERKNS_2spINS0_20hidl_death_recipientEEEy"
  },
  {
   "name":"_ZN7android8hardware3drm4V1_011IDrmFactory12getDebugInfoENSt3__18functionIFvRKNS_4hidl4base4V1_09DebugInfoEEEE"
  },
  {
   "name":"_ZN7android8hardware3drm4V1_011IDrmFactory12getHashChainENSt3__18functionIFvRKNS0_8hidl_vecINS0_10hidl_arrayIhLj32EJEEEEEEEE"
  },
  {
   "name":"_ZN7android8hardware3drm4V1_011IDrmFactory13tryGetServiceERKNSt3__112basic_stringIcNS4_11char_traitsIcEENS4_9allocatorIcEEEEb"
  },
  {
   "name":"_ZN7android8hardware3drm4V1_011IDrmFactory13unlinkToDeathERKNS_2spINS0_20hidl_death_recipientEEE"
  },
  {
   "name":"_ZN7android8hardware3drm4V1_011IDrmFactory14interfaceChainENSt3__18functionIFvRKNS0_8hidl_vecINS0_11hidl_stringEEEEEE"
  },
  {
   "name":"_ZN7android8hardware3drm4V1_011IDrmFactory17registerAsServiceERKNSt3__112basic_stringIcNS4_11char_traitsIcEENS4_9allocatorIcEEEE"
  },
  {
   "name":"_ZN7android8hardware3drm4V1_011IDrmFactory19interfaceDescriptorENSt3__18functionIFvRKNS0_11hidl_stringEEEE"
  },
  {
   "name":"_ZN7android8hardware3drm4V1_011IDrmFactory21notifySyspropsChangedEv"
  },
  {
   "name":"_ZN7android8hardware3drm4V1_011IDrmFactory21setHALInstrumentationEv"
  },
  {
   "name":"_ZN7android8hardware3drm4V1_011IDrmFactory24registerForNotificationsERKNSt3__112basic_stringIcNS4_11char_traitsIcEENS4_9allocatorIcEEEERKNS_2spINS_4hidl7manager4V1_020IServiceNotificationEEE"
  },
  {
   "name":"_ZN7android8hardware3drm4V1_011IDrmFactory4pingEv"
  },
  {
   "name":"_ZN7android8hardware3drm4V1_011IDrmFactory5debugERKNS0_11hidl_handleERKNS0_8hidl_vecINS0_11hidl_stringEEE"
  },
  {
   "name":"_ZN7android8hardware3drm4V1_011IDrmFactory8castFromERKNS_2spINS_4hidl4base4V1_05IBaseEEEb"
  },
  {
   "name":"_ZN7android8hardware3drm4V1_011IDrmFactory8castFromERKNS_2spIS3_EEb"
  },
  {
   "name":"_ZN7android8hardware3drm4V1_012BsDrmFactory13addOnewayTaskENSt3__18functionIFvvEEE"
  },
  {
   "name":"_ZN7android8hardware3drm4V1_012BsDrmFactoryC1ENS_2spINS2_11IDrmFactoryEEE"
  },
  {
   "name":"_ZN7android8hardware3drm4V1_012BsDrmFactoryC2ENS_2spINS2_11IDrmFactoryEEE"
  },
  {
   "name":"_ZN7android8hardware3drm4V1_013BnHwDrmPlugin10_hidl_signEPNS_4hidl4base4V1_08BnHwBaseERKNS0_6ParcelEPS9_NSt3__18functionIFvRS9_EEE"
  },
  {
   "name":"_ZN7android8hardware3drm4V1_013BnHwDrmPlugin10onTransactEjRKNS0_6ParcelEPS4_jNSt3__18functionIFvRS4_EEE"
  },
  {
   "name":"_ZN7android8hardware3drm4V1_013BnHwDrmPlugin12_hidl_verifyEPNS_4hidl4base4V1_08BnHwBaseERKNS0_6ParcelEPS9_NSt3__18functionIFvRS9_EEE"
  },
  {
   "name":"_ZN7android8hardware3drm4V1_013BnHwDrmPlugin12getDebugInfoENSt3__18functionIFvRKNS_4hidl4base4V1_09DebugInfoEEEE"
  },
  {
   "name":"_ZN7android8hardware3drm4V1_013BnHwDrmPlugin13_hidl_decryptEPNS_4hidl4base4V1_08BnHwBaseERKNS0_6ParcelEPS9_NSt3__18functionIFvRS9_EEE"
  },
  {
   "name":"_ZN7android8hardware3drm4V1_013BnHwDrmPlugin13_hidl_encryptEPNS_4hidl4base4V1_08BnHwBaseERKNS0_6ParcelEPS9_NSt3__18functionIFvRS9_EEE"
  },
  {
   "name":"_ZN7android8hardware3drm4V1_013BnHwDrmPlugin13_hidl_signRSAEPNS_4hidl4base4V1_08BnHwBaseERKNS0_6ParcelEPS9_NSt3__18functionIFvRS9_EEE"
  },
  {
   "name":"_ZN7android8hardware3drm4V1_013BnHwDrmPlugin15_hidl_sendEventEPNS_4hidl4base4V1_08BnHwBaseERKNS0_6ParcelEPS9_NSt3__18functionIFvRS9_EEE"
  },
  {
   "name":"_ZN7android8hardware3drm4V1_013BnHwDrmPlugin16_hidl_removeKeysEPNS_4hidl4base4V1_08BnHwBaseERKNS0_6ParcelEPS9_NSt3__18functionIFvRS9_EEE"
  },
  {
   "name":"_ZN7android8hardware3drm4V1_013BnHwDrmPlugin17_hidl_openSessionEPNS_4hidl4base4V1_08BnHwBaseERKNS0_6ParcelEPS9_NSt3__18functionIFvRS9_EEE"
  },
  {
   "name":"_ZN7android8hardware3drm4V1_013BnHwDrmPlugin17_hidl_restoreKeysEPNS_4hidl4base4V1_08BnHwBaseERKNS0_6ParcelEPS9_NSt3__18functionIFvRS9_EEE"
  },
  {
   "name":"_ZN7android8hardware3drm4V1_013BnHwDrmPlugin17_hidl_setListenerEPNS_4hidl4base4V1_08BnHwBaseERKNS0_6ParcelEPS9_NSt3__18functionIFvRS9_EEE"
  },
  {
   "name":"_ZN7android8hardware3drm4V1_013BnHwDrmPlugin18_hidl_closeSessionEPNS_4hidl4base4V1_08BnHwBaseERKNS0_6ParcelEPS9_NSt3__18functionIFvRS9_EEE"
  },
  {
   "name":"_ZN7android8hardware3drm4V1_013BnHwDrmPlugin19_hidl_getKeyRequestEPNS_4hidl4base4V1_08BnHwBaseERKNS0_6ParcelEPS9_NSt3__18functionIFvRS9_EEE"
  },
  {
   "name":"_ZN7android8hardware3drm4V1_013BnHwDrmPlugin19_hidl_getSecureStopEPNS_4hidl4base4V1_08BnHwBaseERKNS0_6ParcelEPS9_NSt3__18functionIFvRS9_EEE"
  },
  {
   "name":"_ZN7android8hardware3drm4V1_013BnHwDrmPlugin20_hidl_getSecureStopsEPNS_4hidl4base4V1_08BnHwBaseERKNS0_6ParcelEPS9_NSt3__18functionIFvRS9_EEE"
  },
  {
   "name":"_ZN7android8hardware3drm4V1_013BnHwDrmPlugin20_hidl_queryKeyStatusEPNS_4hidl4base4V1_08BnHwBaseERKNS0_6ParcelEPS9_NSt3__18functionIFvRS9_EEE"
  },
  {
   "name":"_ZN7android8hardware3drm4V1_013BnHwDrmPlugin20_hidl_sendKeysChangeEPNS_4hidl4base4V1_08BnHwBaseERKNS0_6ParcelEPS9_NSt3__18functionIFvRS9_EEE"
  },
  {
   "name":"_ZN7android8hardware3drm4V1_013BnHwDrmPlugin21_hidl_setMacAlgorithmEPNS_4hidl4base4V1_08BnHwBaseERKNS0_6ParcelEPS9_NSt3__18functionIFvRS9_EEE"
  },
  {
   "name":"_ZN7android8hardware3drm4V1_013BnHwDrmPlugin23_hidl_getPropertyStringEPNS_4hidl4base4V1_08BnHwBaseERKNS0_6ParcelEPS9_NSt3__18functionIFvRS9_EEE"
  },
  {
   "name":"_ZN7android8hardware3drm4V1_013BnHwDrmPlugin23_hidl_releaseSecureStopEPNS_4hidl4base4V1_08BnHwBaseERKNS0_6ParcelEPS9_NSt3__18functionIFvRS9_EEE"
  },
  {
   "name":"_ZN7android8hardware3drm4V1_013BnHwDrmPlugin23_hidl_setPropertyStringEPNS_4hidl4base4V1_08BnHwBaseERKNS0_6ParcelEPS9_NSt3__18functionIFvRS9_EEE"
  },
  {
   "name":"_ZN7android8hardware3drm4V1_013BnHwDrmPlugin24_hidl_provideKeyResponseEPNS_4hidl4base4V1_08BnHwBaseERKNS0_6ParcelEPS9_NSt3__18functionIFvRS9_EEE"
  },
  {
   "name":"_ZN7android8hardware3drm4V1_013BnHwDrmPlugin24_hidl_setCipherAlgorithmEPNS_4hidl4base4V1_08BnHwBaseERKNS0_6ParcelEPS9_NSt3__18functionIFvRS9_EEE"
  },
  {
   "name":"_ZN7android8hardware3drm4V1_013BnHwDrmPlugin25_hidl_getProvisionRequestEPNS_4hidl4base4V1_08BnHwBaseERKNS0_6ParcelEPS9_NSt3__18functionIFvRS9_EEE"
  },
  {
   "name":"_ZN7android8hardware3drm4V1_013BnHwDrmPlugin26_hidl_getPropertyByteArrayEPNS_4hidl4base4V1_08BnHwBaseERKNS0_6ParcelEPS9_NSt3__18functionIFvRS9_EEE"
  },
  {
   "name":"_ZN7android8hardware3drm4V1_013BnHwDrmPlugin26_hidl_sendExpirationUpdateEPNS_4hidl4base4V1_08BnHwBaseERKNS0_6ParcelEPS9_NSt3__18functionIFvRS9_EEE"
  },
  {
   "name":"_ZN7android8hardware3drm4V1_013BnHwDrmPlugin26_hidl_setPropertyByteArrayEPNS_4hidl4base4V1_08BnHwBaseERKNS0_6ParcelEPS9_NSt3__18functionIFvRS9_EEE"
  },
  {
   "name":"_ZN7android8hardware3drm4V1_013BnHwDrmPlugin27_hidl_releaseAllSecureStopsEPNS_4hidl4base4V1_08BnHwBaseERKNS0_6ParcelEPS9_NSt3__18functionIFvRS9_EEE"
  },
  {
   "name":"_ZN7android8hardware3drm4V1_013BnHwDrmPlugin30_hidl_provideProvisionResponseEPNS_4hidl4base4V1_08BnHwBaseERKNS0_6ParcelEPS9_NSt3__18functionIFvRS9_EEE"
  },
  {
   "name":"_ZN7android8hardware3drm4V1_013BnHwDrmPlugin4pingEv"
  },
  {
   "name":"_ZN7android8hardware3drm4V1_013BnHwDrmPluginC1ERKNS_2spINS2_10IDrmPluginEEE"
  },
  {
   "name":"_ZN7android8hardware3drm4V1_013BnHwDrmPluginC2ERKNS_2spINS2_10IDrmPluginEEE"
  },
  {
   "name":"_ZN7android8hardware3drm4V1_013BnHwDrmPluginD0Ev"
  },
  {
   "name":"_ZN7android8hardware3drm4V1_013BnHwDrmPluginD1Ev"
  },
  {
   "name":"_ZN7android8hardware3drm4V1_013BnHwDrmPluginD2Ev"
  },
  {
   "name":"_ZN7android8hardware3drm4V1_013BpHwDrmPlugin10_hidl_signEPNS0_10IInterfaceEPNS0_7details16HidlInstrumentorERKNS0_8hidl_vecIhEESC_SC_NSt3__18functionIFvNS2_6StatusESC_EEE"
  },
  {
   "name":"_ZN7android8hardware3drm4V1_013BpHwDrmPlugin10removeKeysERKNS0_8hidl_vecIhEE"
  },
  {
   "name":"_ZN7android8hardware3drm4V1_013BpHwDrmPlugin11linkToDeathERKNS_2spINS0_20hidl_death_recipientEEEy"
  },
  {
   "name":"_ZN7android8hardware3drm4V1_013BpHwDrmPlugin11openSessionENSt3__18functionIFvNS2_6StatusERKNS0_8hidl_vecIhEEEEE"
  },
  {
   "name":"_ZN7android8hardware3drm4V1_013BpHwDrmPlugin11restoreKeysERKNS0_8hidl_vecIhEES7_"
  },
  {
   "name":"_ZN7android8hardware3drm4V1_013BpHwDrmPlugin11setListenerERKNS_2spINS2_18IDrmPluginListenerEEE"
  },
  {
   "name":"_ZN7android8hardware3drm4V1_013BpHwDrmPlugin12_hidl_verifyEPNS0_10IInterfaceEPNS0_7details16HidlInstrumentorERKNS0_8hidl_vecIhEESC_SC_SC_NSt3__18functionIFvNS2_6StatusEbEEE"
  },
  {
   "name":"_ZN7android8hardware3drm4V1_013BpHwDrmPlugin12closeSessionERKNS0_8hidl_vecIhEE"
  },
  {
   "name":"_ZN7android8hardware3drm4V1_013BpHwDrmPlugin12getDebugInfoENSt3__18functionIFvRKNS_4hidl4base4V1_09DebugInfoEEEE"
  },
  {
   "name":"_ZN7android8hardware3drm4V1_013BpHwDrmPlugin12getHashChainENSt3__18functionIFvRKNS0_8hidl_vecINS0_10hidl_arrayIhLj32EJEEEEEEEE"
  },
  {
   "name":"_ZN7android8hardware3drm4V1_013BpHwDrmPlugin13_hidl_decryptEPNS0_10IInterfaceEPNS0_7details16HidlInstrumentorERKNS0_8hidl_vecIhEESC_SC_SC_NSt3__18functionIFvNS2_6StatusESC_EEE"
  },
  {
   "name":"_ZN7android8hardware3drm4V1_013BpHwDrmPlugin13_hidl_encryptEPNS0_10IInterfaceEPNS0_7details16HidlInstrumentorERKNS0_8hidl_vecIhEESC_SC_SC_NSt3__18functionIFvNS2_6StatusESC_EEE"
  },
  {
   "name":"_ZN7android8hardware3drm4V1_013BpHwDrmPlugin13_hidl_signRSAEPNS0_10IInterfaceEPNS0_7details16HidlInstrumentorERKNS0_8hidl_vecIhEERKNS0_11hidl_stringESC_SC_NSt3__18functionIFvNS2_6StatusESC_EEE"
  },
  {
   "name":"_ZN7android8hardware3drm4V1_013BpHwDrmPlugin13getKeyRequestERKNS0_8hidl_vecIhEES7_RKNS0_11hidl_stringENS2_7KeyTypeERKNS4_INS2_8KeyValueEEENSt3__18functionIFvNS2_6StatusES7_NS2_14KeyRequestTypeESA_EEE"
  },
  {
   "name":"_ZN7android8hardware3drm4V1_013BpHwDrmPlugin13getSecureStopERKNS0_8hidl_vecIhEENSt3__18functionIFvNS2_6StatusERKNS2_10SecureStopEEEE"
  },
  {
   "name":"_ZN7android8hardware3drm4V1_013BpHwDrmPlugin13unlinkToDeathERKNS_2spINS0_20hidl_death_recipientEEE"
  },
  {
   "name":"_ZN7android8hardware3drm4V1_013BpHwDrmPlugin14getSecureStopsENSt3__18functionIFvNS2_6StatusERKNS0_8hidl_vecINS2_10SecureStopEEEEEE"
  },
  {
   "name":"_ZN7android8hardware3drm4V1_013BpHwDrmPlugin14interfaceChainENSt3__18functionIFvRKNS0_8hidl_vecINS0_11hidl_stringEEEEEE"
  },
  {
   "name":"_ZN7android8hardware3drm4V1_013BpHwDrmPlugin14queryKeyStatusERKNS0_8hidl_vecIhEENSt3__18functionIFvNS2_6StatusERKNS4_INS2_8KeyValueEEEEEE"
  },
  {
   "name":"_ZN7android8hardware3drm4V1_013BpHwDrmPlugin14sendKeysChangeERKNS0_8hidl_vecIhEERKNS4_INS2_9KeyStatusEEEb"
  },
  {
   "name":"_ZN7android8hardware3drm4V1_013BpHwDrmPlugin15_hidl_sendEventEPNS0_10IInterfaceEPNS0_7details16HidlInstrumentorENS2_9EventTypeERKNS0_8hidl_vecIhEESD_"
  },
  {
   "name":"_ZN7android8hardware3drm4V1_013BpHwDrmPlugin15setMacAlgorithmERKNS0_8hidl_vecIhEERKNS0_11hidl_stringE"
  },
  {
   "name":"_ZN7android8hardware3drm4V1_013BpHwDrmPlugin16_hidl_removeKeysEPNS0_10IInterfaceEPNS0_7details16HidlInstrumentorERKNS0_8hidl_vecIhEE"
  },
  {
   "name":"_ZN7android8hardware3drm4V1_013BpHwDrmPlugin17_hidl_openSessionEPNS0_10IInterfaceEPNS0_7details16HidlInstrumentorENSt3__18functionIFvNS2_6StatusERKNS0_8hidl_vecIhEEEEE"
  },
  {
   "name":"_ZN7android8hardware3drm4V1_013BpHwDrmPlugin17_hidl_restoreKeysEPNS0_10IInterfaceEPNS0_7details16HidlInstrumentorERKNS0_8hidl_vecIhEESC_"
  },
  {
   "name":"_ZN7android8hardware3drm4V1_013BpHwDrmPlugin17_hidl_setListenerEPNS0_10IInterfaceEPNS0_7details16HidlInstrumentorERKNS_2spINS2_18IDrmPluginListenerEEE"
  },
  {
   "name":"_ZN7android8hardware3drm4V1_013BpHwDrmPlugin17getPropertyStringERKNS0_11hidl_stringENSt3__18functionIFvNS2_6StatusES6_EEE"
  },
  {
   "name":"_ZN7android8hardware3drm4V1_013BpHwDrmPlugin17releaseSecureStopERKNS0_8hidl_vecIhEE"
  },
  {
   "name":"_ZN7android8hardware3drm4V1_013BpHwDrmPlugin17setPropertyStringERKNS0_11hidl_stringES6_"
  },
  {
   "name":"_ZN7android8hardware3drm4V1_013BpHwDrmPlugin18_hidl_closeSessionEPNS0_10IInterfaceEPNS0_7details16HidlInstrumentorERKNS0_8hidl_vecIhEE"
  },
  {
   "name":"_ZN7android8hardware3drm4V1_013BpHwDrmPlugin18provideKeyResponseERKNS0_8hidl_vecIhEES7_NSt3__18functionIFvNS2_6StatusES7_EEE"
  },
  {
   "name":"_ZN7android8hardware3drm4V1_013BpHwDrmPlugin18setCipherAlgorithmERKNS0_8hidl_vecIhEERKNS0_11hidl_stringE"
  },
  {
   "name":"_ZN7android8hardware3drm4V1_013BpHwDrmPlugin19_hidl_getKeyRequestEPNS0_10IInterfaceEPNS0_7details16HidlInstrumentorERKNS0_8hidl_vecIhEESC_RKNS0_11hidl_stringENS2_7KeyTypeERKNS9_INS2_8KeyValueEEENSt3__18functionIFvNS2_6StatusESC_NS2_14KeyRequestTypeESF_EEE"
  },
  {
   "name":"_ZN7android8hardware3drm4V1_013BpHwDrmPlugin19_hidl_getSecureStopEPNS0_10IInterfaceEPNS0_7details16HidlInstrumentorERKNS0_8hidl_vecIhEENSt3__18functionIFvNS2_6StatusERKNS2_10SecureStopEEEE"
  },
  {
   "name":"_ZN7android8hardware3drm4V1_013BpHwDrmPlugin19getProvisionRequestERKNS0_11hidl_stringES6_NSt3__18functionIFvNS2_6StatusERKNS0_8hidl_vecIhEES6_EEE"
  },
  {
   "name":"_ZN7android8hardware3drm4V1_013BpHwDrmPlugin19interfaceDescriptorENSt3__18functionIFvRKNS0_11hidl_stringEEEE"
  },
  {
   "name":"_ZN7android8hardware3drm4V1_013BpHwDrmPlugin20_hidl_getSecureStopsEPNS0_10IInterfaceEPNS0_7details16HidlInstrumentorENSt3__18functionIFvNS2_6StatusERKNS0_8hidl_vecINS2_10SecureStopEEEEEE"
  },
  {
   "name":"_ZN7android8hardware3drm4V1_013BpHwDrmPlugin20_hidl_queryKeyStatusEPNS0_10IInterfaceEPNS0_7details16HidlInstrumentorERKNS0_8hidl_vecIhEENSt3__18functionIFvNS2_6StatusERKNS9_INS2_8KeyValueEEEEEE"
  },
  {
   "name":"_ZN7android8hardware3drm4V1_013BpHwDrmPlugin20_hidl_sendKeysChangeEPNS0_10IInterfaceEPNS0_7details16HidlInstrumentorERKNS0_8hidl_vecIhEERKNS9_INS2_9KeyStatusEEEb"
  },
  {
   "name":"_ZN7android8hardware3drm4V1_013BpHwDrmPlugin20getPropertyByteArrayERKNS0_11hidl_stringENSt3__18functionIFvNS2_6StatusERKNS0_8hidl_vecIhEEEEE"
  },
  {
   "name":"_ZN7android8hardware3drm4V1_013BpHwDrmPlugin20sendExpirationUpdateERKNS0_8hidl_vecIhEEx"
  },
  {
   "name":"_ZN7android8hardware3drm4V1_013BpHwDrmPlugin20setPropertyByteArrayERKNS0_11hidl_stringERKNS0_8hidl_vecIhEE"
  },
  {
   "name":"_ZN7android8hardware3drm4V1_013BpHwDrmPlugin21_hidl_setMacAlgorithmEPNS0_10IInterfaceEPNS0_7details16HidlInstrumentorERKNS0_8hidl_vecIhEERKNS0_11hidl_stringE"
  },
  {
   "name":"_ZN7android8hardware3drm4V1_013BpHwDrmPlugin21notifySyspropsChangedEv"
  },
  {
   "name":"_ZN7android8hardware3drm4V1_013BpHwDrmPlugin21releaseAllSecureStopsEv"
  },
  {
   "name":"_ZN7android8hardware3drm4V1_013BpHwDrmPlugin21setHALInstrumentationEv"
  },
  {
   "name":"_ZN7android8hardware3drm4V1_013BpHwDrmPlugin23_hidl_getPropertyStringEPNS0_10IInterfaceEPNS0_7details16HidlInstrumentorERKNS0_11hidl_stringENSt3__18functionIFvNS2_6StatusESB_EEE"
  },
  {
   "name":"_ZN7android8hardware3drm4V1_013BpHwDrmPlugin23_hidl_releaseSecureStopEPNS0_10IInterfaceEPNS0_7details16HidlInstrumentorERKNS0_8hidl_vecIhEE"
  },
  {
   "name":"_ZN7android8hardware3drm4V1_013BpHwDrmPlugin23_hidl_setPropertyStringEPNS0_10IInterfaceEPNS0_7details16HidlInstrumentorERKNS0_11hidl_stringESB_"
  },
  {
   "name":"_ZN7android8hardware3drm4V1_013BpHwDrmPlugin24_hidl_provideKeyResponseEPNS0_10IInterfaceEPNS0_7details16HidlInstrumentorERKNS0_8hidl_vecIhEESC_NSt3__18functionIFvNS2_6StatusESC_EEE"
  },
  {
   "name":"_ZN7android8hardware3drm4V1_013BpHwDrmPlugin24_hidl_setCipherAlgorithmEPNS0_10IInterfaceEPNS0_7details16HidlInstrumentorERKNS0_8hidl_vecIhEERKNS0_11hidl_stringE"
  },
  {
   "name":"_ZN7android8hardware3drm4V1_013BpHwDrmPlugin24provideProvisionResponseERKNS0_8hidl_vecIhEENSt3__18functionIFvNS2_6StatusES7_S7_EEE"
  },
  {
   "name":"_ZN7android8hardware3drm4V1_013BpHwDrmPlugin25_hidl_getProvisionRequestEPNS0_10IInterfaceEPNS0_7details16HidlInstrumentorERKNS0_11hidl_stringESB_NSt3__18functionIFvNS2_6StatusERKNS0_8hidl_vecIhEESB_EEE"
  },
  {
   "name":"_ZN7android8hardware3drm4V1_013BpHwDrmPlugin26_hidl_getPropertyByteArrayEPNS0_10IInterfaceEPNS0_7details16HidlInstrumentorERKNS0_11hidl_stringENSt3__18functionIFvNS2_6StatusERKNS0_8hidl_vecIhEEEEE"
  },
  {
   "name":"_ZN7android8hardware3drm4V1_013BpHwDrmPlugin26_hidl_sendExpirationUpdateEPNS0_10IInterfaceEPNS0_7details16HidlInstrumentorERKNS0_8hidl_vecIhEEx"
  },
  {
   "name":"_ZN7android8hardware3drm4V1_013BpHwDrmPlugin26_hidl_setPropertyByteArrayEPNS0_10IInterfaceEPNS0_7details16HidlInstrumentorERKNS0_11hidl_stringERKNS0_8hidl_vecIhEE"
  },
  {
   "name":"_ZN7android8hardware3drm4V1_013BpHwDrmPlugin27_hidl_releaseAllSecureStopsEPNS0_10IInterfaceEPNS0_7details16HidlInstrumentorE"
  },
  {
   "name":"_ZN7android8hardware3drm4V1_013BpHwDrmPlugin30_hidl_provideProvisionResponseEPNS0_10IInterfaceEPNS0_7details16HidlInstrumentorERKNS0_8hidl_vecIhEENSt3__18functionIFvNS2_6StatusESC_SC_EEE"
  },
  {
   "name":"_ZN7android8hardware3drm4V1_013BpHwDrmPlugin4pingEv"
  },
  {
   "name":"_ZN7android8hardware3drm4V1_013BpHwDrmPlugin4signERKNS0_8hidl_vecIhEES7_S7_NSt3__18functionIFvNS2_6StatusES7_EEE"
  },
  {
   "name":"_ZN7android8hardware3drm4V1_013BpHwDrmPlugin5debugERKNS0_11hidl_handleERKNS0_8hidl_vecINS0_11hidl_stringEEE"
  },
  {
   "name":"_ZN7android8hardware3drm4V1_013BpHwDrmPlugin6verifyERKNS0_8hidl_vecIhEES7_S7_S7_NSt3__18functionIFvNS2_6StatusEbEEE"
  },
  {
   "name":"_ZN7android8hardware3drm4V1_013BpHwDrmPlugin7decryptERKNS0_8hidl_vecIhEES7_S7_S7_NSt3__18functionIFvNS2_6StatusES7_EEE"
  },
  {
   "name":"_ZN7android8hardware3drm4V1_013BpHwDrmPlugin7encryptERKNS0_8hidl_vecIhEES7_S7_S7_NSt3__18functionIFvNS2_6StatusES7_EEE"
  },
  {
   "name":"_ZN7android8hardware3drm4V1_013BpHwDrmPlugin7signRSAERKNS0_8hidl_vecIhEERKNS0_11hidl_stringES7_S7_NSt3__18functionIFvNS2_6StatusES7_EEE"
  },
  {
   "name":"_ZN7android8hardware3drm4V1_013BpHwDrmPlugin9sendEventENS2_9EventTypeERKNS0_8hidl_vecIhEES8_"
  },
  {
   "name":"_ZN7android8hardware3drm4V1_013BpHwDrmPluginC1ERKNS_2spINS0_7IBinderEEE"
  },
  {
   "name":"_ZN7android8hardware3drm4V1_013BpHwDrmPluginC2ERKNS_2spINS0_7IBinderEEE"
  },
  {
   "name":"_ZN7android8hardware3drm4V1_013ICryptoPlugin10getServiceERKNSt3__112basic_stringIcNS4_11char_traitsIcEENS4_9allocatorIcEEEEb"
  },
  {
   "name":"_ZN7android8hardware3drm4V1_013ICryptoPlugin11linkToDeathERKNS_2spINS0_20hidl_death_recipientEEEy"
  },
  {
   "name":"_ZN7android8hardware3drm4V1_013ICryptoPlugin12getDebugInfoENSt3__18functionIFvRKNS_4hidl4base4V1_09DebugInfoEEEE"
  },
  {
   "name":"_ZN7android8hardware3drm4V1_013ICryptoPlugin12getHashChainENSt3__18functionIFvRKNS0_8hidl_vecINS0_10hidl_arrayIhLj32EJEEEEEEEE"
  },
  {
   "name":"_ZN7android8hardware3drm4V1_013ICryptoPlugin13tryGetServiceERKNSt3__112basic_stringIcNS4_11char_traitsIcEENS4_9allocatorIcEEEEb"
  },
  {
   "name":"_ZN7android8hardware3drm4V1_013ICryptoPlugin13unlinkToDeathERKNS_2spINS0_20hidl_death_recipientEEE"
  },
  {
   "name":"_ZN7android8hardware3drm4V1_013ICryptoPlugin14interfaceChainENSt3__18functionIFvRKNS0_8hidl_vecINS0_11hidl_stringEEEEEE"
  },
  {
   "name":"_ZN7android8hardware3drm4V1_013ICryptoPlugin17registerAsServiceERKNSt3__112basic_stringIcNS4_11char_traitsIcEENS4_9allocatorIcEEEE"
  },
  {
   "name":"_ZN7android8hardware3drm4V1_013ICryptoPlugin19interfaceDescriptorENSt3__18functionIFvRKNS0_11hidl_stringEEEE"
  },
  {
   "name":"_ZN7android8hardware3drm4V1_013ICryptoPlugin21notifySyspropsChangedEv"
  },
  {
   "name":"_ZN7android8hardware3drm4V1_013ICryptoPlugin21setHALInstrumentationEv"
  },
  {
   "name":"_ZN7android8hardware3drm4V1_013ICryptoPlugin24registerForNotificationsERKNSt3__112basic_stringIcNS4_11char_traitsIcEENS4_9allocatorIcEEEERKNS_2spINS_4hidl7manager4V1_020IServiceNotificationEEE"
  },
  {
   "name":"_ZN7android8hardware3drm4V1_013ICryptoPlugin4pingEv"
  },
  {
   "name":"_ZN7android8hardware3drm4V1_013ICryptoPlugin5debugERKNS0_11hidl_handleERKNS0_8hidl_vecINS0_11hidl_stringEEE"
  },
  {
   "name":"_ZN7android8hardware3drm4V1_013ICryptoPlugin8castFromERKNS_2spINS_4hidl4base4V1_05IBaseEEEb"
  },
  {
   "name":"_ZN7android8hardware3drm4V1_013ICryptoPlugin8castFromERKNS_2spIS3_EEb"
  },
  {
   "name":"_ZN7android8hardware3drm4V1_014BnHwDrmFactory10onTransactEjRKNS0_6ParcelEPS4_jNSt3__18functionIFvRS4_EEE"
  },
  {
   "name":"_ZN7android8hardware3drm4V1_014BnHwDrmFactory12getDebugInfoENSt3__18functionIFvRKNS_4hidl4base4V1_09DebugInfoEEEE"
  },
  {
   "name":"_ZN7android8hardware3drm4V1_014BnHwDrmFactory18_hidl_createPluginEPNS_4hidl4base4V1_08BnHwBaseERKNS0_6ParcelEPS9_NSt3__18functionIFvRS9_EEE"
  },
  {
   "name":"_ZN7android8hardware3drm4V1_014BnHwDrmFactory28_hidl_isContentTypeSupportedEPNS_4hidl4base4V1_08BnHwBaseERKNS0_6ParcelEPS9_NSt3__18functionIFvRS9_EEE"
  },
  {
   "name":"_ZN7android8hardware3drm4V1_014BnHwDrmFactory29_hidl_isCryptoSchemeSupportedEPNS_4hidl4base4V1_08BnHwBaseERKNS0_6ParcelEPS9_NSt3__18functionIFvRS9_EEE"
  },
  {
   "name":"_ZN7android8hardware3drm4V1_014BnHwDrmFactory4pingEv"
  },
  {
   "name":"_ZN7android8hardware3drm4V1_014BnHwDrmFactoryC1ERKNS_2spINS2_11IDrmFactoryEEE"
  },
  {
   "name":"_ZN7android8hardware3drm4V1_014BnHwDrmFactoryC2ERKNS_2spINS2_11IDrmFactoryEEE"
  },
  {
   "name":"_ZN7android8hardware3drm4V1_014BnHwDrmFactoryD0Ev"
  },
  {
   "name":"_ZN7android8hardware3drm4V1_014BnHwDrmFactoryD1Ev"
  },
  {
   "name":"_ZN7android8hardware3drm4V1_014BnHwDrmFactoryD2Ev"
  },
  {
   "name":"_ZN7android8hardware3drm4V1_014BpHwDrmFactory11linkToDeathERKNS_2spINS0_20hidl_death_recipientEEEy"
  },
  {
   "name":"_ZN7android8hardware3drm4V1_014BpHwDrmFactory12createPluginERKNS0_10hidl_arrayIhLj16EJEEERKNS0_11hidl_stringENSt3__18functionIFvNS2_6StatusERKNS_2spINS2_10IDrmPluginEEEEEE"
  },
  {
   "name":"_ZN7android8hardware3drm4V1_014BpHwDrmFactory12getDebugInfoENSt3__18functionIFvRKNS_4hidl4base4V1_09DebugInfoEEEE"
  },
  {
   "name":"_ZN7android8hardware3drm4V1_014BpHwDrmFactory12getHashChainENSt3__18functionIFvRKNS0_8hidl_vecINS0_10hidl_arrayIhLj32EJEEEEEEEE"
  },
  {
   "name":"_ZN7android8hardware3drm4V1_014BpHwDrmFactory13unlinkToDeathERKNS_2spINS0_20hidl_death_recipientEEE"
  },
  {
   "name":"_ZN7android8hardware3drm4V1_014BpHwDrmFactory14interfaceChainENSt3__18functionIFvRKNS0_8hidl_vecINS0_11hidl_stringEEEEEE"
  },
  {
   "name":"_ZN7android8hardware3drm4V1_014BpHwDrmFactory18_hidl_createPluginEPNS0_10IInterfaceEPNS0_7details16HidlInstrumentorERKNS0_10hidl_arrayIhLj16EJEEERKNS0_11hidl_stringENSt3__18functionIFvNS2_6StatusERKNS_2spINS2_10IDrmPluginEEEEEE"
  },
  {
   "name":"_ZN7android8hardware3drm4V1_014BpHwDrmFactory19interfaceDescriptorENSt3__18functionIFvRKNS0_11hidl_stringEEEE"
  },
  {
   "name":"_ZN7android8hardware3drm4V1_014BpHwDrmFactory21notifySyspropsChangedEv"
  },
  {
   "name":"_ZN7android8hardware3drm4V1_014BpHwDrmFactory21setHALInstrumentationEv"
  },
  {
   "name":"_ZN7android8hardware3drm4V1_014BpHwDrmFactory22isContentTypeSupportedERKNS0_11hidl_stringE"
  },
  {
   "name":"_ZN7android8hardware3drm4V1_014BpHwDrmFactory23isCryptoSchemeSupportedERKNS0_10hidl_arrayIhLj16EJEEE"
  },
  {
   "name":"_ZN7android8hardware3drm4V1_014BpHwDrmFactory28_hidl_isContentTypeSupportedEPNS0_10IInterfaceEPNS0_7details16HidlInstrumentorERKNS0_11hidl_stringE"
  },
  {
   "name":"_ZN7android8hardware3drm4V1_014BpHwDrmFactory29_hidl_isCryptoSchemeSupportedEPNS0_10IInterfaceEPNS0_7details16HidlInstrumentorERKNS0_10hidl_arrayIhLj16EJEEE"
  },
  {
   "name":"_ZN7android8hardware3drm4V1_014BpHwDrmFactory4pingEv"
  },
  {
   "name":"_ZN7android8hardware3drm4V1_014BpHwDrmFactory5debugERKNS0_11hidl_handleERKNS0_8hidl_vecINS0_11hidl_stringEEE"
  },
  {
   "name":"_ZN7android8hardware3drm4V1_014BpHwDrmFactoryC1ERKNS_2spINS0_7IBinderEEE"
  },
  {
   "name":"_ZN7android8hardware3drm4V1_014BpHwDrmFactoryC2ERKNS_2spINS0_7IBinderEEE"
  },
  {
   "name":"_ZN7android8hardware3drm4V1_014BsCryptoPlugin13addOnewayTaskENSt3__18functionIFvvEEE"
  },
  {
   "name":"_ZN7android8hardware3drm4V1_014BsCryptoPluginC1ENS_2spINS2_13ICryptoPluginEEE"
  },
  {
   "name":"_ZN7android8hardware3drm4V1_014BsCryptoPluginC2ENS_2spINS2_13ICryptoPluginEEE"
  },
  {
   "name":"_ZN7android8hardware3drm4V1_014ICryptoFactory10getServiceERKNSt3__112basic_stringIcNS4_11char_traitsIcEENS4_9allocatorIcEEEEb"
  },
  {
   "name":"_ZN7android8hardware3drm4V1_014ICryptoFactory11linkToDeathERKNS_2spINS0_20hidl_death_recipientEEEy"
  },
  {
   "name":"_ZN7android8hardware3drm4V1_014ICryptoFactory12getDebugInfoENSt3__18functionIFvRKNS_4hidl4base4V1_09DebugInfoEEEE"
  },
  {
   "name":"_ZN7android8hardware3drm4V1_014ICryptoFactory12getHashChainENSt3__18functionIFvRKNS0_8hidl_vecINS0_10hidl_arrayIhLj32EJEEEEEEEE"
  },
  {
   "name":"_ZN7android8hardware3drm4V1_014ICryptoFactory13tryGetServiceERKNSt3__112basic_stringIcNS4_11char_traitsIcEENS4_9allocatorIcEEEEb"
  },
  {
   "name":"_ZN7android8hardware3drm4V1_014ICryptoFactory13unlinkToDeathERKNS_2spINS0_20hidl_death_recipientEEE"
  },
  {
   "name":"_ZN7android8hardware3drm4V1_014ICryptoFactory14interfaceChainENSt3__18functionIFvRKNS0_8hidl_vecINS0_11hidl_stringEEEEEE"
  },
  {
   "name":"_ZN7android8hardware3drm4V1_014ICryptoFactory17registerAsServiceERKNSt3__112basic_stringIcNS4_11char_traitsIcEENS4_9allocatorIcEEEE"
  },
  {
   "name":"_ZN7android8hardware3drm4V1_014ICryptoFactory19interfaceDescriptorENSt3__18functionIFvRKNS0_11hidl_stringEEEE"
  },
  {
   "name":"_ZN7android8hardware3drm4V1_014ICryptoFactory21notifySyspropsChangedEv"
  },
  {
   "name":"_ZN7android8hardware3drm4V1_014ICryptoFactory21setHALInstrumentationEv"
  },
  {
   "name":"_ZN7android8hardware3drm4V1_014ICryptoFactory24registerForNotificationsERKNSt3__112basic_stringIcNS4_11char_traitsIcEENS4_9allocatorIcEEEERKNS_2spINS_4hidl7manager4V1_020IServiceNotificationEEE"
  },
  {
   "name":"_ZN7android8hardware3drm4V1_014ICryptoFactory4pingEv"
  },
  {
   "name":"_ZN7android8hardware3drm4V1_014ICryptoFactory5debugERKNS0_11hidl_handleERKNS0_8hidl_vecINS0_11hidl_stringEEE"
  },
  {
   "name":"_ZN7android8hardware3drm4V1_014ICryptoFactory8castFromERKNS_2spINS_4hidl4base4V1_05IBaseEEEb"
  },
  {
   "name":"_ZN7android8hardware3drm4V1_014ICryptoFactory8castFromERKNS_2spIS3_EEb"
  },
  {
   "name":"_ZN7android8hardware3drm4V1_015BsCryptoFactory13addOnewayTaskENSt3__18functionIFvvEEE"
  },
  {
   "name":"_ZN7android8hardware3drm4V1_015BsCryptoFactoryC1ENS_2spINS2_14ICryptoFactoryEEE"
  },
  {
   "name":"_ZN7android8hardware3drm4V1_015BsCryptoFactoryC2ENS_2spINS2_14ICryptoFactoryEEE"
  },
  {
   "name":"_ZN7android8hardware3drm4V1_016BnHwCryptoPlugin10onTransactEjRKNS0_6ParcelEPS4_jNSt3__18functionIFvRS4_EEE"
  },
  {
   "name":"_ZN7android8hardware3drm4V1_016BnHwCryptoPlugin12getDebugInfoENSt3__18functionIFvRKNS_4hidl4base4V1_09DebugInfoEEEE"
  },
  {
   "name":"_ZN7android8hardware3drm4V1_016BnHwCryptoPlugin13_hidl_decryptEPNS_4hidl4base4V1_08BnHwBaseERKNS0_6ParcelEPS9_NSt3__18functionIFvRS9_EEE"
  },
  {
   "name":"_ZN7android8hardware3drm4V1_016BnHwCryptoPlugin22_hidl_notifyResolutionEPNS_4hidl4base4V1_08BnHwBaseERKNS0_6ParcelEPS9_NSt3__18functionIFvRS9_EEE"
  },
  {
   "name":"_ZN7android8hardware3drm4V1_016BnHwCryptoPlugin24_hidl_setMediaDrmSessionEPNS_4hidl4base4V1_08BnHwBaseERKNS0_6ParcelEPS9_NSt3__18functionIFvRS9_EEE"
  },
  {
   "name":"_ZN7android8hardware3drm4V1_016BnHwCryptoPlugin25_hidl_setSharedBufferBaseEPNS_4hidl4base4V1_08BnHwBaseERKNS0_6ParcelEPS9_NSt3__18functionIFvRS9_EEE"
  },
  {
   "name":"_ZN7android8hardware3drm4V1_016BnHwCryptoPlugin36_hidl_requiresSecureDecoderComponentEPNS_4hidl4base4V1_08BnHwBaseERKNS0_6ParcelEPS9_NSt3__18functionIFvRS9_EEE"
  },
  {
   "name":"_ZN7android8hardware3drm4V1_016BnHwCryptoPlugin4pingEv"
  },
  {
   "name":"_ZN7android8hardware3drm4V1_016BnHwCryptoPluginC1ERKNS_2spINS2_13ICryptoPluginEEE"
  },
  {
   "name":"_ZN7android8hardware3drm4V1_016BnHwCryptoPluginC2ERKNS_2spINS2_13ICryptoPluginEEE"
  },
  {
   "name":"_ZN7android8hardware3drm4V1_016BnHwCryptoPluginD0Ev"
  },
  {
   "name":"_ZN7android8hardware3drm4V1_016BnHwCryptoPluginD1Ev"
  },
  {
   "name":"_ZN7android8hardware3drm4V1_016BnHwCryptoPluginD2Ev"
  },
  {
   "name":"_ZN7android8hardware3drm4V1_016BpHwCryptoPlugin11linkToDeathERKNS_2spINS0_20hidl_death_recipientEEEy"
  },
  {
   "name":"_ZN7android8hardware3drm4V1_016BpHwCryptoPlugin12getDebugInfoENSt3__18functionIFvRKNS_4hidl4base4V1_09DebugInfoEEEE"
  },
  {
   "name":"_ZN7android8hardware3drm4V1_016BpHwCryptoPlugin12getHashChainENSt3__18functionIFvRKNS0_8hidl_vecINS0_10hidl_arrayIhLj32EJEEEEEEEE"
  },
  {
   "name":"_ZN7android8hardware3drm4V1_016BpHwCryptoPlugin13_hidl_decryptEPNS0_10IInterfaceEPNS0_7details16HidlInstrumentorEbRKNS0_10hidl_arrayIhLj16EJEEESC_NS2_4ModeERKNS2_7PatternERKNS0_8hidl_vecINS2_9SubSampleEEERKNS2_12SharedBufferEyRKNS2_17DestinationBufferENSt3__18functionIFvNS2_6StatusEjRKNS0_11hidl_stringEEEE"
  },
  {
   "name":"_ZN7android8hardware3drm4V1_016BpHwCryptoPlugin13unlinkToDeathERKNS_2spINS0_20hidl_death_recipientEEE"
  },
  {
   "name":"_ZN7android8hardware3drm4V1_016BpHwCryptoPlugin14interfaceChainENSt3__18functionIFvRKNS0_8hidl_vecINS0_11hidl_stringEEEEEE"
  },
  {
   "name":"_ZN7android8hardware3drm4V1_016BpHwCryptoPlugin16notifyResolutionEjj"
  },
  {
   "name":"_ZN7android8hardware3drm4V1_016BpHwCryptoPlugin18setMediaDrmSessionERKNS0_8hidl_vecIhEE"
  },
  {
   "name":"_ZN7android8hardware3drm4V1_016BpHwCryptoPlugin19interfaceDescriptorENSt3__18functionIFvRKNS0_11hidl_stringEEEE"
  },
  {
   "name":"_ZN7android8hardware3drm4V1_016BpHwCryptoPlugin19setSharedBufferBaseERKNS0_11hidl_memoryEj"
  },
  {
   "name":"_ZN7android8hardware3drm4V1_016BpHwCryptoPlugin21notifySyspropsChangedEv"
  },
  {
   "name":"_ZN7android8hardware3drm4V1_016BpHwCryptoPlugin21setHALInstrumentationEv"
  },
  {
   "name":"_ZN7android8hardware3drm4V1_016BpHwCryptoPlugin22_hidl_notifyResolutionEPNS0_10IInterfaceEPNS0_7details16HidlInstrumentorEjj"
  },
  {
   "name":"_ZN7android8hardware3drm4V1_016BpHwCryptoPlugin24_hidl_setMediaDrmSessionEPNS0_10IInterfaceEPNS0_7details16HidlInstrumentorERKNS0_8hidl_vecIhEE"
  },
  {
   "name":"_ZN7android8hardware3drm4V1_016BpHwCryptoPlugin25_hidl_setSharedBufferBaseEPNS0_10IInterfaceEPNS0_7details16HidlInstrumentorERKNS0_11hidl_memoryEj"
  },
  {
   "name":"_ZN7android8hardware3drm4V1_016BpHwCryptoPlugin30requiresSecureDecoderComponentERKNS0_11hidl_stringE"
  },
  {
   "name":"_ZN7android8hardware3drm4V1_016BpHwCryptoPlugin36_hidl_requiresSecureDecoderComponentEPNS0_10IInterfaceEPNS0_7details16HidlInstrumentorERKNS0_11hidl_stringE"
  },
  {
   "name":"_ZN7android8hardware3drm4V1_016BpHwCryptoPlugin4pingEv"
  },
  {
   "name":"_ZN7android8hardware3drm4V1_016BpHwCryptoPlugin5debugERKNS0_11hidl_handleERKNS0_8hidl_vecINS0_11hidl_stringEEE"
  },
  {
   "name":"_ZN7android8hardware3drm4V1_016BpHwCryptoPlugin7decryptEbRKNS0_10hidl_arrayIhLj16EJEEES7_NS2_4ModeERKNS2_7PatternERKNS0_8hidl_vecINS2_9SubSampleEEERKNS2_12SharedBufferEyRKNS2_17DestinationBufferENSt3__18functionIFvNS2_6StatusEjRKNS0_11hidl_stringEEEE"
  },
  {
   "name":"_ZN7android8hardware3drm4V1_016BpHwCryptoPluginC1ERKNS_2spINS0_7IBinderEEE"
  },
  {
   "name":"_ZN7android8hardware3drm4V1_016BpHwCryptoPluginC2ERKNS_2spINS0_7IBinderEEE"
  },
  {
   "name":"_ZN7android8hardware3drm4V1_017BnHwCryptoFactory10onTransactEjRKNS0_6ParcelEPS4_jNSt3__18functionIFvRS4_EEE"
  },
  {
   "name":"_ZN7android8hardware3drm4V1_017BnHwCryptoFactory12getDebugInfoENSt3__18functionIFvRKNS_4hidl4base4V1_09DebugInfoEEEE"
  },
  {
   "name":"_ZN7android8hardware3drm4V1_017BnHwCryptoFactory18_hidl_createPluginEPNS_4hidl4base4V1_08BnHwBaseERKNS0_6ParcelEPS9_NSt3__18functionIFvRS9_EEE"
  },
  {
   "name":"_ZN7android8hardware3drm4V1_017BnHwCryptoFactory29_hidl_isCryptoSchemeSupportedEPNS_4hidl4base4V1_08BnHwBaseERKNS0_6ParcelEPS9_NSt3__18functionIFvRS9_EEE"
  },
  {
   "name":"_ZN7android8hardware3drm4V1_017BnHwCryptoFactory4pingEv"
  },
  {
   "name":"_ZN7android8hardware3drm4V1_017BnHwCryptoFactoryC1ERKNS_2spINS2_14ICryptoFactoryEEE"
  },
  {
   "name":"_ZN7android8hardware3drm4V1_017BnHwCryptoFactoryC2ERKNS_2spINS2_14ICryptoFactoryEEE"
  },
  {
   "name":"_ZN7android8hardware3drm4V1_017BnHwCryptoFactoryD0Ev"
  },
  {
   "name":"_ZN7android8hardware3drm4V1_017BnHwCryptoFactoryD1Ev"
  },
  {
   "name":"_ZN7android8hardware3drm4V1_017BnHwCryptoFactoryD2Ev"
  },
  {
   "name":"_ZN7android8hardware3drm4V1_017BpHwCryptoFactory11linkToDeathERKNS_2spINS0_20hidl_death_recipientEEEy"
  },
  {
   "name":"_ZN7android8hardware3drm4V1_017BpHwCryptoFactory12createPluginERKNS0_10hidl_arrayIhLj16EJEEERKNS0_8hidl_vecIhEENSt3__18functionIFvNS2_6StatusERKNS_2spINS2_13ICryptoPluginEEEEEE"
  },
  {
   "name":"_ZN7android8hardware3drm4V1_017BpHwCryptoFactory12getDebugInfoENSt3__18functionIFvRKNS_4hidl4base4V1_09DebugInfoEEEE"
  },
  {
   "name":"_ZN7android8hardware3drm4V1_017BpHwCryptoFactory12getHashChainENSt3__18functionIFvRKNS0_8hidl_vecINS0_10hidl_arrayIhLj32EJEEEEEEEE"
  },
  {
   "name":"_ZN7android8hardware3drm4V1_017BpHwCryptoFactory13unlinkToDeathERKNS_2spINS0_20hidl_death_recipientEEE"
  },
  {
   "name":"_ZN7android8hardware3drm4V1_017BpHwCryptoFactory14interfaceChainENSt3__18functionIFvRKNS0_8hidl_vecINS0_11hidl_stringEEEEEE"
  },
  {
   "name":"_ZN7android8hardware3drm4V1_017BpHwCryptoFactory18_hidl_createPluginEPNS0_10IInterfaceEPNS0_7details16HidlInstrumentorERKNS0_10hidl_arrayIhLj16EJEEERKNS0_8hidl_vecIhEENSt3__18functionIFvNS2_6StatusERKNS_2spINS2_13ICryptoPluginEEEEEE"
  },
  {
   "name":"_ZN7android8hardware3drm4V1_017BpHwCryptoFactory19interfaceDescriptorENSt3__18functionIFvRKNS0_11hidl_stringEEEE"
  },
  {
   "name":"_ZN7android8hardware3drm4V1_017BpHwCryptoFactory21notifySyspropsChangedEv"
  },
  {
   "name":"_ZN7android8hardware3drm4V1_017BpHwCryptoFactory21setHALInstrumentationEv"
  },
  {
   "name":"_ZN7android8hardware3drm4V1_017BpHwCryptoFactory23isCryptoSchemeSupportedERKNS0_10hidl_arrayIhLj16EJEEE"
  },
  {
   "name":"_ZN7android8hardware3drm4V1_017BpHwCryptoFactory29_hidl_isCryptoSchemeSupportedEPNS0_10IInterfaceEPNS0_7details16HidlInstrumentorERKNS0_10hidl_arrayIhLj16EJEEE"
  },
  {
   "name":"_ZN7android8hardware3drm4V1_017BpHwCryptoFactory4pingEv"
  },
  {
   "name":"_ZN7android8hardware3drm4V1_017BpHwCryptoFactory5debugERKNS0_11hidl_handleERKNS0_8hidl_vecINS0_11hidl_stringEEE"
  },
  {
   "name":"_ZN7android8hardware3drm4V1_017BpHwCryptoFactoryC1ERKNS_2spINS0_7IBinderEEE"
  },
  {
   "name":"_ZN7android8hardware3drm4V1_017BpHwCryptoFactoryC2ERKNS_2spINS0_7IBinderEEE"
  },
  {
   "name":"_ZN7android8hardware3drm4V1_018IDrmPluginListener10getServiceERKNSt3__112basic_stringIcNS4_11char_traitsIcEENS4_9allocatorIcEEEEb"
  },
  {
   "name":"_ZN7android8hardware3drm4V1_018IDrmPluginListener11linkToDeathERKNS_2spINS0_20hidl_death_recipientEEEy"
  },
  {
   "name":"_ZN7android8hardware3drm4V1_018IDrmPluginListener12getDebugInfoENSt3__18functionIFvRKNS_4hidl4base4V1_09DebugInfoEEEE"
  },
  {
   "name":"_ZN7android8hardware3drm4V1_018IDrmPluginListener12getHashChainENSt3__18functionIFvRKNS0_8hidl_vecINS0_10hidl_arrayIhLj32EJEEEEEEEE"
  },
  {
   "name":"_ZN7android8hardware3drm4V1_018IDrmPluginListener13tryGetServiceERKNSt3__112basic_stringIcNS4_11char_traitsIcEENS4_9allocatorIcEEEEb"
  },
  {
   "name":"_ZN7android8hardware3drm4V1_018IDrmPluginListener13unlinkToDeathERKNS_2spINS0_20hidl_death_recipientEEE"
  },
  {
   "name":"_ZN7android8hardware3drm4V1_018IDrmPluginListener14interfaceChainENSt3__18functionIFvRKNS0_8hidl_vecINS0_11hidl_stringEEEEEE"
  },
  {
   "name":"_ZN7android8hardware3drm4V1_018IDrmPluginListener17registerAsServiceERKNSt3__112basic_stringIcNS4_11char_traitsIcEENS4_9allocatorIcEEEE"
  },
  {
   "name":"_ZN7android8hardware3drm4V1_018IDrmPluginListener19interfaceDescriptorENSt3__18functionIFvRKNS0_11hidl_stringEEEE"
  },
  {
   "name":"_ZN7android8hardware3drm4V1_018IDrmPluginListener21notifySyspropsChangedEv"
  },
  {
   "name":"_ZN7android8hardware3drm4V1_018IDrmPluginListener21setHALInstrumentationEv"
  },
  {
   "name":"_ZN7android8hardware3drm4V1_018IDrmPluginListener24registerForNotificationsERKNSt3__112basic_stringIcNS4_11char_traitsIcEENS4_9allocatorIcEEEERKNS_2spINS_4hidl7manager4V1_020IServiceNotificationEEE"
  },
  {
   "name":"_ZN7android8hardware3drm4V1_018IDrmPluginListener4pingEv"
  },
  {
   "name":"_ZN7android8hardware3drm4V1_018IDrmPluginListener5debugERKNS0_11hidl_handleERKNS0_8hidl_vecINS0_11hidl_stringEEE"
  },
  {
   "name":"_ZN7android8hardware3drm4V1_018IDrmPluginListener8castFromERKNS_2spINS_4hidl4base4V1_05IBaseEEEb"
  },
  {
   "name":"_ZN7android8hardware3drm4V1_018IDrmPluginListener8castFromERKNS_2spIS3_EEb"
  },
  {
   "name":"_ZN7android8hardware3drm4V1_019BsDrmPluginListener13addOnewayTaskENSt3__18functionIFvvEEE"
  },
  {
   "name":"_ZN7android8hardware3drm4V1_019BsDrmPluginListenerC1ENS_2spINS2_18IDrmPluginListenerEEE"
  },
  {
   "name":"_ZN7android8hardware3drm4V1_019BsDrmPluginListenerC2ENS_2spINS2_18IDrmPluginListenerEEE"
  },
  {
   "name":"_ZN7android8hardware3drm4V1_021BnHwDrmPluginListener10onTransactEjRKNS0_6ParcelEPS4_jNSt3__18functionIFvRS4_EEE"
  },
  {
   "name":"_ZN7android8hardware3drm4V1_021BnHwDrmPluginListener12getDebugInfoENSt3__18functionIFvRKNS_4hidl4base4V1_09DebugInfoEEEE"
  },
  {
   "name":"_ZN7android8hardware3drm4V1_021BnHwDrmPluginListener15_hidl_sendEventEPNS_4hidl4base4V1_08BnHwBaseERKNS0_6ParcelEPS9_NSt3__18functionIFvRS9_EEE"
  },
  {
   "name":"_ZN7android8hardware3drm4V1_021BnHwDrmPluginListener20_hidl_sendKeysChangeEPNS_4hidl4base4V1_08BnHwBaseERKNS0_6ParcelEPS9_NSt3__18functionIFvRS9_EEE"
  },
  {
   "name":"_ZN7android8hardware3drm4V1_021BnHwDrmPluginListener26_hidl_sendExpirationUpdateEPNS_4hidl4base4V1_08BnHwBaseERKNS0_6ParcelEPS9_NSt3__18functionIFvRS9_EEE"
  },
  {
   "name":"_ZN7android8hardware3drm4V1_021BnHwDrmPluginListener4pingEv"
  },
  {
   "name":"_ZN7android8hardware3drm4V1_021BnHwDrmPluginListenerC1ERKNS_2spINS2_18IDrmPluginListenerEEE"
  },
  {
   "name":"_ZN7android8hardware3drm4V1_021BnHwDrmPluginListenerC2ERKNS_2spINS2_18IDrmPluginListenerEEE"
  },
  {
   "name":"_ZN7android8hardware3drm4V1_021BnHwDrmPluginListenerD0Ev"
  },
  {
   "name":"_ZN7android8hardware3drm4V1_021BnHwDrmPluginListenerD1Ev"
  },
  {
   "name":"_ZN7android8hardware3drm4V1_021BnHwDrmPluginListenerD2Ev"
  },
  {
   "name":"_ZN7android8hardware3drm4V1_021BpHwDrmPluginListener11linkToDeathERKNS_2spINS0_20hidl_death_recipientEEEy"
  },
  {
   "name":"_ZN7android8hardware3drm4V1_021BpHwDrmPluginListener12getDebugInfoENSt3__18functionIFvRKNS_4hidl4base4V1_09DebugInfoEEEE"
  },
  {
   "name":"_ZN7android8hardware3drm4V1_021BpHwDrmPluginListener12getHashChainENSt3__18functionIFvRKNS0_8hidl_vecINS0_10hidl_arrayIhLj32EJEEEEEEEE"
  },
  {
   "name":"_ZN7android8hardware3drm4V1_021BpHwDrmPluginListener13unlinkToDeathERKNS_2spINS0_20hidl_death_recipientEEE"
  },
  {
   "name":"_ZN7android8hardware3drm4V1_021BpHwDrmPluginListener14interfaceChainENSt3__18functionIFvRKNS0_8hidl_vecINS0_11hidl_stringEEEEEE"
  },
  {
   "name":"_ZN7android8hardware3drm4V1_021BpHwDrmPluginListener14sendKeysChangeERKNS0_8hidl_vecIhEERKNS4_INS2_9KeyStatusEEEb"
  },
  {
   "name":"_ZN7android8hardware3drm4V1_021BpHwDrmPluginListener15_hidl_sendEventEPNS0_10IInterfaceEPNS0_7details16HidlInstrumentorENS2_9EventTypeERKNS0_8hidl_vecIhEESD_"
  },
  {
   "name":"_ZN7android8hardware3drm4V1_021BpHwDrmPluginListener19interfaceDescriptorENSt3__18functionIFvRKNS0_11hidl_stringEEEE"
  },
  {
   "name":"_ZN7android8hardware3drm4V1_021BpHwDrmPluginListener20_hidl_sendKeysChangeEPNS0_10IInterfaceEPNS0_7details16HidlInstrumentorERKNS0_8hidl_vecIhEERKNS9_INS2_9KeyStatusEEEb"
  },
  {
   "name":"_ZN7android8hardware3drm4V1_021BpHwDrmPluginListener20sendExpirationUpdateERKNS0_8hidl_vecIhEEx"
  },
  {
   "name":"_ZN7android8hardware3drm4V1_021BpHwDrmPluginListener21notifySyspropsChangedEv"
  },
  {
   "name":"_ZN7android8hardware3drm4V1_021BpHwDrmPluginListener21setHALInstrumentationEv"
  },
  {
   "name":"_ZN7android8hardware3drm4V1_021BpHwDrmPluginListener26_hidl_sendExpirationUpdateEPNS0_10IInterfaceEPNS0_7details16HidlInstrumentorERKNS0_8hidl_vecIhEEx"
  },
  {
   "name":"_ZN7android8hardware3drm4V1_021BpHwDrmPluginListener4pingEv"
  },
  {
   "name":"_ZN7android8hardware3drm4V1_021BpHwDrmPluginListener5debugERKNS0_11hidl_handleERKNS0_8hidl_vecINS0_11hidl_stringEEE"
  },
  {
   "name":"_ZN7android8hardware3drm4V1_021BpHwDrmPluginListener9sendEventENS2_9EventTypeERKNS0_8hidl_vecIhEES8_"
  },
  {
   "name":"_ZN7android8hardware3drm4V1_021BpHwDrmPluginListenerC1ERKNS_2spINS0_7IBinderEEE"
  },
  {
   "name":"_ZN7android8hardware3drm4V1_021BpHwDrmPluginListenerC2ERKNS_2spINS0_7IBinderEEE"
  },
  {
   "name":"_ZN7android8hardware3drm4V1_021writeEmbeddedToParcelERKNS2_10SecureStopEPNS0_6ParcelEjj"
  },
  {
   "name":"_ZN7android8hardware3drm4V1_021writeEmbeddedToParcelERKNS2_17DestinationBufferEPNS0_6ParcelEjj"
  },
  {
   "name":"_ZN7android8hardware3drm4V1_021writeEmbeddedToParcelERKNS2_8KeyValueEPNS0_6ParcelEjj"
  },
  {
   "name":"_ZN7android8hardware3drm4V1_021writeEmbeddedToParcelERKNS2_9KeyStatusEPNS0_6ParcelEjj"
  },
  {
   "name":"_ZN7android8hardware3drm4V1_022readEmbeddedFromParcelERKNS2_10SecureStopERKNS0_6ParcelEjj"
  },
  {
   "name":"_ZN7android8hardware3drm4V1_022readEmbeddedFromParcelERKNS2_17DestinationBufferERKNS0_6ParcelEjj"
  },
  {
   "name":"_ZN7android8hardware3drm4V1_022readEmbeddedFromParcelERKNS2_8KeyValueERKNS0_6ParcelEjj"
  },
  {
   "name":"_ZN7android8hardware3drm4V1_022readEmbeddedFromParcelERKNS2_9KeyStatusERKNS0_6ParcelEjj"
  },
  {
   "binding":"weak",
   "name":"_ZN7android8hardware7details13castInterfaceINS0_3drm4V1_010IDrmPluginENS_4hidl4base4V1_05IBaseENS4_13BpHwDrmPluginEEENS0_6ReturnINS_2spIT_EEEENSC_IT0_EEPKcb"
  },
  {
   "binding":"weak",
   "name":"_ZN7android8hardware7details13castInterfaceINS0_3drm4V1_011IDrmFactoryENS_4hidl4base4V1_05IBaseENS4_14BpHwDrmFactoryEEENS0_6ReturnINS_2spIT_EEEENSC_IT0_EEPKcb"
  },
  {
   "binding":"weak",
   "name":"_ZN7android8hardware7details13castInterfaceINS0_3drm4V1_013ICryptoPluginENS_4hidl4base4V1_05IBaseENS4_16BpHwCryptoPluginEEENS0_6ReturnINS_2spIT_EEEENSC_IT0_EEPKcb"
  },
  {
   "binding":"weak",
   "name":"_ZN7android8hardware7details13castInterfaceINS0_3drm4V1_014ICryptoFactoryENS_4hidl4base4V1_05IBaseENS4_17BpHwCryptoFactoryEEENS0_6ReturnINS_2spIT_EEEENSC_IT0_EEPKcb"
  },
  {
   "binding":"weak",
   "name":"_ZN7android8hardware7details13castInterfaceINS0_3drm4V1_018IDrmPluginListenerENS_4hidl4base4V1_05IBaseENS4_21BpHwDrmPluginListenerEEENS0_6ReturnINS_2spIT_EEEENSC_IT0_EEPKcb"
  },
  {
   "binding":"weak",
   "name":"_ZN7android8hardware7details15wrapPassthroughINS0_3drm4V1_010IDrmPluginEvEENS_2spIT_EES8_"
  },
  {
   "binding":"weak",
   "name":"_ZN7android8hardware7details15wrapPassthroughINS0_3drm4V1_013ICryptoPluginEvEENS_2spIT_EES8_"
  },
  {
   "binding":"weak",
   "name":"_ZN7android8hardware7details15wrapPassthroughINS0_3drm4V1_018IDrmPluginListenerEvEENS_2spIT_EES8_"
  },
  {
   "binding":"weak",
   "name":"_ZN7android8hardware7details18getServiceInternalINS0_3drm4V1_013BpHwDrmPluginENS4_10IDrmPluginEvvEENS_2spIT0_EERKNSt3__112basic_stringIcNSA_11char_traitsIcEENSA_9allocatorIcEEEEbb"
  },
  {
   "binding":"weak",
   "name":"_ZN7android8hardware7details18getServiceInternalINS0_3drm4V1_014BpHwDrmFactoryENS4_11IDrmFactoryEvvEENS_2spIT0_EERKNSt3__112basic_stringIcNSA_11char_traitsIcEENSA_9allocatorIcEEEEbb"
  },
  {
   "binding":"weak",
   "name":"_ZN7android8hardware7details18getServiceInternalINS0_3drm4V1_016BpHwCryptoPluginENS4_13ICryptoPluginEvvEENS_2spIT0_EERKNSt3__112basic_stringIcNSA_11char_traitsIcEENSA_9allocatorIcEEEEbb"
  },
  {
   "binding":"weak",
   "name":"_ZN7android8hardware7details18getServiceInternalINS0_3drm4V1_017BpHwCryptoFactoryENS4_14ICryptoFactoryEvvEENS_2spIT0_EERKNSt3__112basic_stringIcNSA_11char_traitsIcEENSA_9allocatorIcEEEEbb"
  },
  {
   "binding":"weak",
   "name":"_ZN7android8hardware7details18getServiceInternalINS0_3drm4V1_021BpHwDrmPluginListenerENS4_18IDrmPluginListenerEvvEENS_2spIT0_EERKNSt3__112basic_stringIcNSA_11char_traitsIcEENSA_9allocatorIcEEEEbb"
  },
  {
   "binding":"weak",
   "name":"_ZN7android8hardware8toBinderINS0_3drm4V1_010IDrmPluginEvEENS_2spINS0_7IBinderEEENS5_IT_EE"
  },
  {
   "binding":"weak",
   "name":"_ZN7android8hardware8toBinderINS0_3drm4V1_013ICryptoPluginEvEENS_2spINS0_7IBinderEEENS5_IT_EE"
  },
  {
   "binding":"weak",
   "name":"_ZN7android8hardware8toBinderINS0_3drm4V1_018IDrmPluginListenerEvEENS_2spINS0_7IBinderEEENS5_IT_EE"
  },
  {
   "binding":"weak",
   "name":"_ZN7android8hardware8toBinderINS_4hidl4base4V1_05IBaseEvEENS_2spINS0_7IBinderEEENS6_IT_EE"
  },
  {
   "name":"_ZThn20_N7android8hardware3drm4V1_013BnHwDrmPluginD0Ev"
  },
  {
   "name":"_ZThn20_N7android8hardware3drm4V1_013BnHwDrmPluginD1Ev"
  },
  {
   "name":"_ZThn20_N7android8hardware3drm4V1_014BnHwDrmFactoryD0Ev"
  },
  {
   "name":"_ZThn20_N7android8hardware3drm4V1_014BnHwDrmFactoryD1Ev"
  },
  {
   "name":"_ZThn20_N7android8hardware3drm4V1_016BnHwCryptoPluginD0Ev"
  },
  {
   "name":"_ZThn20_N7android8hardware3drm4V1_016BnHwCryptoPluginD1Ev"
  },
  {
   "name":"_ZThn20_N7android8hardware3drm4V1_017BnHwCryptoFactoryD0Ev"
  },
  {
   "name":"_ZThn20_N7android8hardware3drm4V1_017BnHwCryptoFactoryD1Ev"
  },
  {
   "name":"_ZThn20_N7android8hardware3drm4V1_021BnHwDrmPluginListenerD0Ev"
  },
  {
   "name":"_ZThn20_N7android8hardware3drm4V1_021BnHwDrmPluginListenerD1Ev"
  },
  {
   "name":"_ZTv0_n12_N7android8hardware3drm4V1_013BnHwDrmPluginD0Ev"
  },
  {
   "name":"_ZTv0_n12_N7android8hardware3drm4V1_013BnHwDrmPluginD1Ev"
  },
  {
   "name":"_ZTv0_n12_N7android8hardware3drm4V1_014BnHwDrmFactoryD0Ev"
  },
  {
   "name":"_ZTv0_n12_N7android8hardware3drm4V1_014BnHwDrmFactoryD1Ev"
  },
  {
   "name":"_ZTv0_n12_N7android8hardware3drm4V1_016BnHwCryptoPluginD0Ev"
  },
  {
   "name":"_ZTv0_n12_N7android8hardware3drm4V1_016BnHwCryptoPluginD1Ev"
  },
  {
   "name":"_ZTv0_n12_N7android8hardware3drm4V1_017BnHwCryptoFactoryD0Ev"
  },
  {
   "name":"_ZTv0_n12_N7android8hardware3drm4V1_017BnHwCryptoFactoryD1Ev"
  },
  {
   "name":"_ZTv0_n12_N7android8hardware3drm4V1_021BnHwDrmPluginListenerD0Ev"
  },
  {
   "name":"_ZTv0_n12_N7android8hardware3drm4V1_021BnHwDrmPluginListenerD1Ev"
  }
 ],
 "elf_objects":[
  {
   "name":"_ZN7android8hardware3drm4V1_010IDrmPlugin10descriptorE"
  },
  {
   "name":"_ZN7android8hardware3drm4V1_011IDrmFactory10descriptorE"
  },
  {
   "name":"_ZN7android8hardware3drm4V1_013ICryptoPlugin10descriptorE"
  },
  {
   "name":"_ZN7android8hardware3drm4V1_014ICryptoFactory10descriptorE"
  },
  {
   "name":"_ZN7android8hardware3drm4V1_018IDrmPluginListener10descriptorE"
  },
  {
   "name":"_ZTTN7android8hardware3drm4V1_010IDrmPluginE"
  },
  {
   "name":"_ZTTN7android8hardware3drm4V1_011IDrmFactoryE"
  },
  {
   "name":"_ZTTN7android8hardware3drm4V1_013BnHwDrmPluginE"
  },
  {
   "name":"_ZTTN7android8hardware3drm4V1_013BpHwDrmPluginE"
  },
  {
   "name":"_ZTTN7android8hardware3drm4V1_013ICryptoPluginE"
  },
  {
   "name":"_ZTTN7android8hardware3drm4V1_014BnHwDrmFactoryE"
  },
  {
   "name":"_ZTTN7android8hardware3drm4V1_014BpHwDrmFactoryE"
  },
  {
   "name":"_ZTTN7android8hardware3drm4V1_014ICryptoFactoryE"
  },
  {
   "name":"_ZTTN7android8hardware3drm4V1_016BnHwCryptoPluginE"
  },
  {
   "name":"_ZTTN7android8hardware3drm4V1_016BpHwCryptoPluginE"
  },
  {
   "name":"_ZTTN7android8hardware3drm4V1_017BnHwCryptoFactoryE"
  },
  {
   "name":"_ZTTN7android8hardware3drm4V1_017BpHwCryptoFactoryE"
  },
  {
   "name":"_ZTTN7android8hardware3drm4V1_018IDrmPluginListenerE"
  },
  {
   "name":"_ZTTN7android8hardware3drm4V1_021BnHwDrmPluginListenerE"
  },
  {
   "name":"_ZTTN7android8hardware3drm4V1_021BpHwDrmPluginListenerE"
  },
  {
   "name":"_ZTVN7android8hardware3drm4V1_010IDrmPluginE"
  },
  {
   "binding":"weak",
   "name":"_ZTVN7android8hardware3drm4V1_011BsDrmPluginE"
  },
  {
   "name":"_ZTVN7android8hardware3drm4V1_011IDrmFactoryE"
  },
  {
   "binding":"weak",
   "name":"_ZTVN7android8hardware3drm4V1_012BsDrmFactoryE"
  },
  {
   "name":"_ZTVN7android8hardware3drm4V1_013BnHwDrmPluginE"
  },
  {
   "name":"_ZTVN7android8hardware3drm4V1_013BpHwDrmPluginE"
  },
  {
   "name":"_ZTVN7android8hardware3drm4V1_013ICryptoPluginE"
  },
  {
   "name":"_ZTVN7android8hardware3drm4V1_014BnHwDrmFactoryE"
  },
  {
   "name":"_ZTVN7android8hardware3drm4V1_014BpHwDrmFactoryE"
  },
  {
   "binding":"weak",
   "name":"_ZTVN7android8hardware3drm4V1_014BsCryptoPluginE"
  },
  {
   "name":"_ZTVN7android8hardware3drm4V1_014ICryptoFactoryE"
  },
  {
   "binding":"weak",
   "name":"_ZTVN7android8hardware3drm4V1_015BsCryptoFactoryE"
  },
  {
   "name":"_ZTVN7android8hardware3drm4V1_016BnHwCryptoPluginE"
  },
  {
   "name":"_ZTVN7android8hardware3drm4V1_016BpHwCryptoPluginE"
  },
  {
   "name":"_ZTVN7android8hardware3drm4V1_017BnHwCryptoFactoryE"
  },
  {
   "name":"_ZTVN7android8hardware3drm4V1_017BpHwCryptoFactoryE"
  },
  {
   "name":"_ZTVN7android8hardware3drm4V1_018IDrmPluginListenerE"
  },
  {
   "binding":"weak",
   "name":"_ZTVN7android8hardware3drm4V1_019BsDrmPluginListenerE"
  },
  {
   "name":"_ZTVN7android8hardware3drm4V1_021BnHwDrmPluginListenerE"
  },
  {
   "name":"_ZTVN7android8hardware3drm4V1_021BpHwDrmPluginListenerE"
  }
 ]
}