{
 "record_types":[
  {
   "vtable_components":[
    {
     "kind":"vbase_offset",
     "component_value":4
    },
    {
     "kind":"offset_to_top"
    },
    {
     "kind":"rtti",
     "mangled_component_name":"_ZTIN7android8hardware8memtrack4V1_09IMemtrackE"
    },
    {
     "mangled_component_name":"_ZNK7android8hardware8memtrack4V1_09IMemtrack8isRemoteEv"
    },
    {
     "mangled_component_name":"_ZN7android8hardware8memtrack4V1_09IMemtrack14interfaceChainENSt3__18functionIFvRKNS0_8hidl_vecINS0_11hidl_stringEEEEEE"
    },
    {
     "mangled_component_name":"_ZN7android8hardware8memtrack4V1_09IMemtrack5debugERKNS0_11hidl_handleERKNS0_8hidl_vecINS0_11hidl_stringEEE"
    },
    {
     "mangled_component_name":"_ZN7android8hardware8memtrack4V1_09IMemtrack19interfaceDescriptorENSt3__18functionIFvRKNS0_11hidl_stringEEEE"
    },
    {
     "mangled_component_name":"_ZN7android8hardware8memtrack4V1_09IMemtrack12getHashChainENSt3__18functionIFvRKNS0_8hidl_vecINS0_10hidl_arrayIhLj32EJEEEEEEEE"
    },
    {
     "mangled_component_name":"_ZN7android8hardware8memtrack4V1_09IMemtrack21setHALInstrumentationEv"
    },
    {
     "mangled_component_name":"_ZN7android8hardware8memtrack4V1_09IMemtrack11linkToDeathERKNS_2spINS0_20hidl_death_recipientEEEy"
    },
    {
     "mangled_component_name":"_ZN7android8hardware8memtrack4V1_09IMemtrack4pingEv"
    },
    {
     "mangled_component_name":"_ZN7android8hardware8memtrack4V1_09IMemtrack12getDebugInfoENSt3__18functionIFvRKNS_4hidl4base4V1_09DebugInfoEEEE"
    },
    {
     "mangled_component_name":"_ZN7android8hardware8memtrack4V1_09IMemtrack21notifySyspropsChangedEv"
    },
    {
     "mangled_component_name":"_ZN7android8hardware8memtrack4V1_09IMemtrack13unlinkToDeathERKNS_2spINS0_20hidl_death_recipientEEE"
    },
    {
     "kind":"complete_dtor_pointer",
     "mangled_component_name":"_ZN7android8hardware8memtrack4V1_09IMemtrackD1Ev"
    },
    {
     "kind":"deleting_dtor_pointer",
     "mangled_component_name":"_ZN7android8hardware8memtrack4V1_09IMemtrackD0Ev"
    },
    {
     "is_pure":true,
     "mangled_component_name":"_ZN7android8hardware8memtrack4V1_09IMemtrack9getMemoryEiNS2_12MemtrackTypeENSt3__18functionIFvNS2_14MemtrackStatusERKNS0_8hidl_vecINS2_14MemtrackRecordEEEEEE"
    },
    {
     "kind":"vcall_offset"
    },
    {
     "kind":"vcall_offset"
    },
    {
     "kind":"vcall_offset"
    },
    {
     "kind":"vcall_offset"
    },
    {
     "kind":"vcall_offset",
     "component_value":-4
    },
    {
     "kind":"offset_to_top",
     "component_value":-4
    },
    {
     "kind":"rtti",
     "mangled_component_name":"_ZTIN7android8hardware8memtrack4V1_09IMemtrackE"
    },
    {
     "kind":"complete_dtor_pointer",
     "mangled_component_name":"_ZTv0_n12_N7android8hardware8memtrack4V1_09IMemtrackD1Ev"
    },
    {
     "kind":"deleting_dtor_pointer",
     "mangled_component_name":"_ZTv0_n12_N7android8hardware8memtrack4V1_09IMemtrackD0Ev"
    },
    {
     "mangled_component_name":"_ZN7android7RefBase10onFirstRefEv"
    },
    {
     "mangled_component_name":"_ZN7android7RefBase15onLastStrongRefEPKv"
    },
    {
     "mangled_component_name":"_ZN7android7RefBase20onIncStrongAttemptedEjPKv"
    },
    {
     "mangled_component_name":"_ZN7android7RefBase13onLastWeakRefEPKv"
    }
   ],
   "unique_id":"_ZTSN7android8hardware8memtrack4V1_09IMemtrackE"
  },
  {
   "vtable_components":[
    {
     "kind":"vbase_offset",
     "component_value":72
    },
    {
     "kind":"offset_to_top"
    },
    {
     "kind":"rtti",
     "mangled_component_name":"_ZTIN7android8hardware8memtrack4V1_012BnHwMemtrackE"
    },
    {
     "mangled_component_name":"_ZN7android8hardware9BHwBinder8transactEjRKNS0_6ParcelEPS2_jNSt3__18functionIFvRS2_EEE"
    },
    {
     "mangled_component_name":"_ZN7android8hardware9BHwBinder11linkToDeathERKNS_2spINS0_7IBinder14DeathRecipientEEEPvj"
    },
    {
     "mangled_component_name":"_ZN7android8hardware9BHwBinder13unlinkToDeathERKNS_2wpINS0_7IBinder14DeathRecipientEEEPvjPS5_"
    },
    {
     "mangled_component_name":"_ZNK7android8hardware7IBinder13checkSubclassEPKv"
    },
    {
     "mangled_component_name":"_ZN7android8hardware9BHwBinder12attachObjectEPKvPvS4_PFvS3_S4_S4_E"
    },
    {
     "mangled_component_name":"_ZNK7android8hardware9BHwBinder10findObjectEPKv"
    },
    {
     "mangled_component_name":"_ZN7android8hardware9BHwBinder12detachObjectEPKv"
    },
    {
     "mangled_component_name":"_ZN7android8hardware9BHwBinder11localBinderEv"
    },
    {
     "mangled_component_name":"_ZN7android8hardware7IBinder12remoteBinderEv"
    },
    {
     "kind":"complete_dtor_pointer",
     "mangled_component_name":"_ZN7android8hardware8memtrack4V1_012BnHwMemtrackD1Ev"
    },
    {
     "kind":"deleting_dtor_pointer",
     "mangled_component_name":"_ZN7android8hardware8memtrack4V1_012BnHwMemtrackD0Ev"
    },
    {
     "mangled_component_name":"_ZN7android8hardware8memtrack4V1_012BnHwMemtrack10onTransactEjRKNS0_6ParcelEPS4_jNSt3__18functionIFvRS4_EEE"
    },
    {
     "kind":"offset_to_top",
     "component_value":-20
    },
    {
     "kind":"rtti",
     "mangled_component_name":"_ZTIN7android8hardware8memtrack4V1_012BnHwMemtrackE"
    },
    {
     "kind":"complete_dtor_pointer",
     "mangled_component_name":"_ZThn20_N7android8hardware8memtrack4V1_012BnHwMemtrackD1Ev"
    },
    {
     "kind":"deleting_dtor_pointer",
     "mangled_component_name":"_ZThn20_N7android8hardware8memtrack4V1_012BnHwMemtrackD0Ev"
    },
    {
     "kind":"vcall_offset"
    },
    {
     "kind":"vcall_offset"
    },
    {
     "kind":"vcall_offset"
    },
    {
     "kind":"vcall_offset"
    },
    {
     "kind":"vcall_offset",
     "component_value":-72
    },
    {
     "kind":"offset_to_top",
     "component_value":-72
    },
    {
     "kind":"rtti",
     "mangled_component_name":"_ZTIN7android8hardware8memtrack4V1_012BnHwMemtrackE"
    },
    {
     "kind":"complete_dtor_pointer",
     "mangled_component_name":"_ZTv0_n12_N7android8hardware8memtrack4V1_012BnHwMemtrackD1Ev"
    },
    {
     "kind":"deleting_dtor_pointer",
     "mangled_component_name":"_ZTv0_n12_N7android8hardware8memtrack4V1_012BnHwMemtrackD0Ev"
    },
    {
     "mangled_component_name":"_ZN7android7RefBase10onFirstRefEv"
    },
    {
     "mangled_component_name":"_ZN7android7RefBase15onLastStrongRefEPKv"
    },
    {
     "mangled_component_name":"_ZN7android7RefBase20onIncStrongAttemptedEjPKv"
    },
    {
     "mangled_component_name":"_ZN7android7RefBase13onLastWeakRefEPKv"
    }
   ],
   "unique_id":"_ZTSN7android8hardware8memtrack4V1_012BnHwMemtrackE"
  },
  {
   "vtable_components":[
    {
     "kind":"vbase_offset",
     "component_value":84
    },
    {
     "kind":"offset_to_top"
    },
    {
     "kind":"rtti",
     "mangled_component_name":"_ZTIN7android8hardware8memtrack4V1_012BpHwMemtrackE"
    },
    {
     "mangled_component_name":"_ZNK7android8hardware8memtrack4V1_012BpHwMemtrack8isRemoteEv"
    },
    {
     "mangled_component_name":"_ZN7android8hardware8memtrack4V1_012BpHwMemtrack14interfaceChainENSt3__18functionIFvRKNS0_8hidl_vecINS0_11hidl_stringEEEEEE"
    },
    {
     "mangled_component_name":"_ZN7android8hardware8memtrack4V1_012BpHwMemtrack5debugERKNS0_11hidl_handleERKNS0_8hidl_vecINS0_11hidl_stringEEE"
    },
    {
     "mangled_component_name":"_ZN7android8hardware8memtrack4V1_012BpHwMemtrack19interfaceDescriptorENSt3__18functionIFvRKNS0_11hidl_stringEEEE"
    },
    {
     "mangled_component_name":"_ZN7android8hardware8memtrack4V1_012BpHwMemtrack12getHashChainENSt3__18functionIFvRKNS0_8hidl_vecINS0_10hidl_arrayIhLj32EJEEEEEEEE"
    },
    {
     "mangled_component_name":"_ZN7android8hardware8memtrack4V1_012BpHwMemtrack21setHALInstrumentationEv"
    },
    {
     "mangled_component_name":"_ZN7android8hardware8memtrack4V1_012BpHwMemtrack11linkToDeathERKNS_2spINS0_20hidl_death_recipientEEEy"
    },
    {
     "mangled_component_name":"_ZN7android8hardware8memtrack4V1_012BpHwMemtrack4pingEv"
    },
    {
     "mangled_component_name":"_ZN7android8hardware8memtrack4V1_012BpHwMemtrack12getDebugInfoENSt3__18functionIFvRKNS_4hidl4base4V1_09DebugInfoEEEE"
    },
    {
     "mangled_component_name":"_ZN7android8hardware8memtrack4V1_012BpHwMemtrack21notifySyspropsChangedEv"
    },
    {
     "mangled_component_name":"_ZN7android8hardware8memtrack4V1_012BpHwMemtrack13unlinkToDeathERKNS_2spINS0_20hidl_death_recipientEEE"
    },
    {
     "kind":"complete_dtor_pointer",
     "mangled_component_name":"_ZN7android8hardware8memtrack4V1_012BpHwMemtrackD1Ev"
    },
    {
     "kind":"deleting_dtor_pointer",
     "mangled_component_name":"_ZN7android8hardware8memtrack4V1_012BpHwMemtrackD0Ev"
    },
    {
     "mangled_component_name":"_ZN7android8hardware8memtrack4V1_012BpHwMemtrack9getMemoryEiNS2_12MemtrackTypeENSt3__18functionIFvNS2_14MemtrackStatusERKNS0_8hidl_vecINS2_14MemtrackRecordEEEEEE"
    },
    {
     "mangled_component_name":"_ZN7android8hardware11BpInterfaceINS0_8memtrack4V1_09IMemtrackEE10onAsBinderEv"
    },
    {
     "kind":"vbase_offset",
     "component_value":80
    },
    {
     "kind":"offset_to_top",
     "component_value":-4
    },
    {
     "kind":"rtti",
     "mangled_component_name":"_ZTIN7android8hardware8memtrack4V1_012BpHwMemtrackE"
    },
    {
     "kind":"complete_dtor_pointer",
     "mangled_component_name":"_ZThn4_N7android8hardware8memtrack4V1_012BpHwMemtrackD1Ev"
    },
    {
     "kind":"deleting_dtor_pointer",
     "mangled_component_name":"_ZThn4_N7android8hardware8memtrack4V1_012BpHwMemtrackD0Ev"
    },
    {
     "mangled_component_name":"_ZThn4_N7android8hardware11BpInterfaceINS0_8memtrack4V1_09IMemtrackEE10onAsBinderEv"
    },
    {
     "kind":"vbase_offset",
     "component_value":76
    },
    {
     "kind":"offset_to_top",
     "component_value":-8
    },
    {
     "kind":"rtti",
     "mangled_component_name":"_ZTIN7android8hardware8memtrack4V1_012BpHwMemtrackE"
    },
    {
     "kind":"complete_dtor_pointer",
     "mangled_component_name":"_ZThn8_N7android8hardware8memtrack4V1_012BpHwMemtrackD1Ev"
    },
    {
     "kind":"deleting_dtor_pointer",
     "mangled_component_name":"_ZThn8_N7android8hardware8memtrack4V1_012BpHwMemtrackD0Ev"
    },
    {
     "mangled_component_name":"_ZN7android8hardware11BpHwRefBase10onFirstRefEv"
    },
    {
     "mangled_component_name":"_ZN7android8hardware11BpHwRefBase15onLastStrongRefEPKv"
    },
    {
     "mangled_component_name":"_ZN7android8hardware11BpHwRefBase20onIncStrongAttemptedEjPKv"
    },
    {
     "kind":"offset_to_top",
     "component_value":-24
    },
    {
     "kind":"rtti",
     "mangled_component_name":"_ZTIN7android8hardware8memtrack4V1_012BpHwMemtrackE"
    },
    {
     "kind":"complete_dtor_pointer",
     "mangled_component_name":"_ZThn24_N7android8hardware8memtrack4V1_012BpHwMemtrackD1Ev"
    },
    {
     "kind":"deleting_dtor_pointer",
     "mangled_component_name":"_ZThn24_N7android8hardware8memtrack4V1_012BpHwMemtrackD0Ev"
    },
    {
     "kind":"vcall_offset"
    },
    {
     "kind":"vcall_offset",
     "component_value":-76
    },
    {
     "kind":"vcall_offset",
     "component_value":-76
    },
    {
     "kind":"vcall_offset",
     "component_value":-76
    },
    {
     "kind":"vcall_offset",
     "component_value":-84
    },
    {
     "kind":"offset_to_top",
     "component_value":-84
    },
    {
     "kind":"rtti",
     "mangled_component_name":"_ZTIN7android8hardware8memtrack4V1_012BpHwMemtrackE"
    },
    {
     "kind":"complete_dtor_pointer",
     "mangled_component_name":"_ZTv0_n12_N7android8hardware8memtrack4V1_012BpHwMemtrackD1Ev"
    },
    {
     "kind":"deleting_dtor_pointer",
     "mangled_component_name":"_ZTv0_n12_N7android8hardware8memtrack4V1_012BpHwMemtrackD0Ev"
    },
    {
     "mangled_component_name":"_ZTv0_n16_N7android8hardware11BpHwRefBase10onFirstRefEv"
    },
    {
     "mangled_component_name":"_ZTv0_n20_N7android8hardware11BpHwRefBase15onLastStrongRefEPKv"
    },
    {
     "mangled_component_name":"_ZTv0_n24_N7android8hardware11BpHwRefBase20onIncStrongAttemptedEjPKv"
    },
    {
     "mangled_component_name":"_ZN7android7RefBase13onLastWeakRefEPKv"
    }
   ],
   "unique_id":"_ZTSN7android8hardware8memtrack4V1_012BpHwMemtrackE"
  },
  {
   "vtable_components":[
    {
     "kind":"vbase_offset",
     "component_value":60
    },
    {
     "kind":"offset_to_top"
    },
    {
     "kind":"rtti",
     "mangled_component_name":"_ZTIN7android8hardware8memtrack4V1_010BsMemtrackE"
    },
    {
     "mangled_component_name":"_ZNK7android8hardware8memtrack4V1_09IMemtrack8isRemoteEv"
    },
    {
     "mangled_component_name":"_ZN7android8hardware8memtrack4V1_010BsMemtrack14interfaceChainENSt3__18functionIFvRKNS0_8hidl_vecINS0_11hidl_stringEEEEEE"
    },
    {
     "mangled_component_name":"_ZN7android8hardware8memtrack4V1_010BsMemtrack5debugERKNS0_11hidl_handleERKNS0_8hidl_vecINS0_11hidl_stringEEE"
    },
    {
     "mangled_component_name":"_ZN7android8hardware8memtrack4V1_010BsMemtrack19interfaceDescriptorENSt3__18functionIFvRKNS0_11hidl_stringEEEE"
    },
    {
     "mangled_component_name":"_ZN7android8hardware8memtrack4V1_010BsMemtrack12getHashChainENSt3__18functionIFvRKNS0_8hidl_vecINS0_10hidl_arrayIhLj32EJEEEEEEEE"
    },
    {
     "mangled_component_name":"_ZN7android8hardware8memtrack4V1_010BsMemtrack21setHALInstrumentationEv"
    },
    {
     "mangled_component_name":"_ZN7android8hardware8memtrack4V1_010BsMemtrack11linkToDeathERKNS_2spINS0_20hidl_death_recipientEEEy"
    },
    {
     "mangled_component_name":"_ZN7android8hardware8memtrack4V1_010BsMemtrack4pingEv"
    },
    {
     "mangled_component_name":"_ZN7android8hardware8memtrack4V1_010BsMemtrack12getDebugInfoENSt3__18functionIFvRKNS_4hidl4base4V1_09DebugInfoEEEE"
    },
    {
     "mangled_component_name":"_ZN7android8hardware8memtrack4V1_010BsMemtrack21notifySyspropsChangedEv"
    },
    {
     "mangled_component_name":"_ZN7android8hardware8memtrack4V1_010BsMemtrack13unlinkToDeathERKNS_2spINS0_20hidl_death_recipientEEE"
    },
    {
     "kind":"complete_dtor_pointer",
     "mangled_component_name":"_ZN7android8hardware8memtrack4V1_010BsMemtrackD1Ev"
    },
    {
     "kind":"deleting_dtor_pointer",
     "mangled_component_name":"_ZN7android8hardware8memtrack4V1_010BsMemtrackD0Ev"
    },
    {
     "mangled_component_name":"_ZN7android8hardware8memtrack4V1_010BsMemtrack9getMemoryEiNS2_12MemtrackTypeENSt3__18functionIFvNS2_14MemtrackStatusERKNS0_8hidl_vecINS2_14MemtrackRecordEEEEEE"
    },
    {
     "kind":"offset_to_top",
     "component_value":-4
    },
    {
     "kind":"rtti",
     "mangled_component_name":"_ZTIN7android8hardware8memtrack4V1_010BsMemtrackE"
    },
    {
     "kind":"complete_dtor_pointer",
     "mangled_component_name":"_ZThn4_N7android8hardware8memtrack4V1_010BsMemtrackD1Ev"
    },
    {
     "kind":"deleting_dtor_pointer",
     "mangled_component_name":"_ZThn4_N7android8hardware8memtrack4V1_010BsMemtrackD0Ev"
    },
    {
     "kind":"vcall_offset"
    },
    {
     "kind":"vcall_offset"
    },
    {
     "kind":"vcall_offset"
    },
    {
     "kind":"vcall_offset"
    },
    {
     "kind":"vcall_offset",
     "component_value":-60
    },
    {
     "kind":"offset_to_top",
     "component_value":-60
    },
    {
     "kind":"rtti",
     "mangled_component_name":"_ZTIN7android8hardware8memtrack4V1_010BsMemtrackE"
    },
    {
     "kind":"complete_dtor_pointer",
     "mangled_component_name":"_ZTv0_n12_N7android8hardware8memtrack4V1_010BsMemtrackD1Ev"
    },
    {
     "kind":"deleting_dtor_pointer",
     "mangled_component_name":"_ZTv0_n12_N7android8hardware8memtrack4V1_010BsMemtrackD0Ev"
    },
    {
     "mangled_component_name":"_ZN7android7RefBase10onFirstRefEv"
    },
    {
     "mangled_component_name":"_ZN7android7RefBase15onLastStrongRefEPKv"
    },
    {
     "mangled_component_name":"_ZN7android7RefBase20onIncStrongAttemptedEjPKv"
    },
    {
     "mangled_component_name":"_ZN7android7RefBase13onLastWeakRefEPKv"
    }
   ],
   "unique_id":"_ZTSN7android8hardware8memtrack4V1_010BsMemtrackE"
  }
 ],
 "elf_functions":[
  {
   "binding":"weak",
   "name":"_ZN7android8hardware7details13castInterfaceINS0_8memtrack4V1_09IMemtrackENS_4hidl4base4V1_05IBaseENS4_12BpHwMemtrackEEENS0_6ReturnINS_2spIT_EEEENSC_IT0_EEPKcb"
  },
  {
   "binding":"weak",
   "name":"_ZN7android8hardware7details18getServiceInternalINS0_8memtrack4V1_012BpHwMemtrackENS4_9IMemtrackEvvEENS_2spIT0_EERKNSt3__112basic_stringIcNSA_11char_traitsIcEENSA_9allocatorIcEEEEbb"
  },
  {
   "name":"_ZN7android8hardware8memtrack4V1_010BsMemtrack13addOnewayTaskENSt3__18functionIFvvEEE"
  },
  {
   "name":"_ZN7android8hardware8memtrack4V1_010BsMemtrackC1ENS_2spINS2_9IMemtrackEEE"
  },
  {
   "name":"_ZN7android8hardware8memtrack4V1_010BsMemtrackC2ENS_2spINS2_9IMemtrackEEE"
  },
  {
   "name":"_ZN7android8hardware8memtrack4V1_012BnHwMemtrack10onTransactEjRKNS0_6ParcelEPS4_jNSt3__18functionIFvRS4_EEE"
  },
  {
   "name":"_ZN7android8hardware8memtrack4V1_012BnHwMemtrack12getDebugInfoENSt3__18functionIFvRKNS_4hidl4base4V1_09DebugInfoEEEE"
  },
  {
   "name":"_ZN7android8hardware8memtrack4V1_012BnHwMemtrack15_hidl_getMemoryEPNS_4hidl4base4V1_08BnHwBaseERKNS0_6ParcelEPS9_NSt3__18functionIFvRS9_EEE"
  },
  {
   "name":"_ZN7android8hardware8memtrack4V1_012BnHwMemtrack4pingEv"
  },
  {
   "name":"_ZN7android8hardware8memtrack4V1_012BnHwMemtrackC1ERKNS_2spINS2_9IMemtrackEEE"
  },
  {
   "name":"_ZN7android8hardware8memtrack4V1_012BnHwMemtrackC2ERKNS_2spINS2_9IMemtrackEEE"
  },
  {
   "name":"_ZN7android8hardware8memtrack4V1_012BnHwMemtrackD0Ev"
  },
  {
   "name":"_ZN7android8hardware8memtrack4V1_012BnHwMemtrackD1Ev"
  },
  {
   "name":"_ZN7android8hardware8memtrack4V1_012BnHwMemtrackD2Ev"
  },
  {
   "name":"_ZN7android8hardware8memtrack4V1_012BpHwMemtrack11linkToDeathERKNS_2spINS0_20hidl_death_recipientEEEy"
  },
  {
   "name":"_ZN7android8hardware8memtrack4V1_012BpHwMemtrack12getDebugInfoENSt3__18functionIFvRKNS_4hidl4base4V1_09DebugInfoEEEE"
  },
  {
   "name":"_ZN7android8hardware8memtrack4V1_012BpHwMemtrack12getHashChainENSt3__18functionIFvRKNS0_8hidl_vecINS0_10hidl_arrayIhLj32EJEEEEEEEE"
  },
  {
   "name":"_ZN7android8hardware8memtrack4V1_012BpHwMemtrack13unlinkToDeathERKNS_2spINS0_20hidl_death_recipientEEE"
  },
  {
   "name":"_ZN7android8hardware8memtrack4V1_012BpHwMemtrack14interfaceChainENSt3__18functionIFvRKNS0_8hidl_vecINS0_11hidl_stringEEEEEE"
  },
  {
   "name":"_ZN7android8hardware8memtrack4V1_012BpHwMemtrack15_hidl_getMemoryEPNS0_10IInterfaceEPNS0_7details16HidlInstrumentorEiNS2_12MemtrackTypeENSt3__18functionIFvNS2_14MemtrackStatusERKNS0_8hidl_vecINS2_14MemtrackRecordEEEEEE"
  },
  {
   "name":"_ZN7android8hardware8memtrack4V1_012BpHwMemtrack19interfaceDescriptorENSt3__18functionIFvRKNS0_11hidl_stringEEEE"
  },
  {
   "name":"_ZN7android8hardware8memtrack4V1_012BpHwMemtrack21notifySyspropsChangedEv"
  },
  {
   "name":"_ZN7android8hardware8memtrack4V1_012BpHwMemtrack21setHALInstrumentationEv"
  },
  {
   "name":"_ZN7android8hardware8memtrack4V1_012BpHwMemtrack4pingEv"
  },
  {
   "name":"_ZN7android8hardware8memtrack4V1_012BpHwMemtrack5debugERKNS0_11hidl_handleERKNS0_8hidl_vecINS0_11hidl_stringEEE"
  },
  {
   "name":"_ZN7android8hardware8memtrack4V1_012BpHwMemtrack9getMemoryEiNS2_12MemtrackTypeENSt3__18functionIFvNS2_14MemtrackStatusERKNS0_8hidl_vecINS2_14MemtrackRecordEEEEEE"
  },
  {
   "name":"_ZN7android8hardware8memtrack4V1_012BpHwMemtrackC1ERKNS_2spINS0_7IBinderEEE"
  },
  {
   "name":"_ZN7android8hardware8memtrack4V1_012BpHwMemtrackC2ERKNS_2spINS0_7IBinderEEE"
  },
  {
   "name":"_ZN7android8hardware8memtrack4V1_09IMemtrack10getServiceERKNSt3__112basic_stringIcNS4_11char_traitsIcEENS4_9allocatorIcEEEEb"
  },
  {
   "name":"_ZN7android8hardware8memtrack4V1_09IMemtrack11linkToDeathERKNS_2spINS0_20hidl_death_recipientEEEy"
  },
  {
   "name":"_ZN7android8hardware8memtrack4V1_09IMemtrack12getDebugInfoENSt3__18functionIFvRKNS_4hidl4base4V1_09DebugInfoEEEE"
  },
  {
   "name":"_ZN7android8hardware8memtrack4V1_09IMemtrack12getHashChainENSt3__18functionIFvRKNS0_8hidl_vecINS0_10hidl_arrayIhLj32EJEEEEEEEE"
  },
  {
   "name":"_ZN7android8hardware8memtrack4V1_09IMemtrack13tryGetServiceERKNSt3__112basic_stringIcNS4_11char_traitsIcEENS4_9allocatorIcEEEEb"
  },
  {
   "name":"_ZN7android8hardware8memtrack4V1_09IMemtrack13unlinkToDeathERKNS_2spINS0_20hidl_death_recipientEEE"
  },
  {
   "name":"_ZN7android8hardware8memtrack4V1_09IMemtrack14interfaceChainENSt3__18functionIFvRKNS0_8hidl_vecINS0_11hidl_stringEEEEEE"
  },
  {
   "name":"_ZN7android8hardware8memtrack4V1_09IMemtrack17registerAsServiceERKNSt3__112basic_stringIcNS4_11char_traitsIcEENS4_9allocatorIcEEEE"
  },
  {
   "name":"_ZN7android8hardware8memtrack4V1_09IMemtrack19interfaceDescriptorENSt3__18functionIFvRKNS0_11hidl_stringEEEE"
  },
  {
   "name":"_ZN7android8hardware8memtrack4V1_09IMemtrack21notifySyspropsChangedEv"
  },
  {
   "name":"_ZN7android8hardware8memtrack4V1_09IMemtrack21setHALInstrumentationEv"
  },
  {
   "name":"_ZN7android8hardware8memtrack4V1_09IMemtrack24registerForNotificationsERKNSt3__112basic_stringIcNS4_11char_traitsIcEENS4_9allocatorIcEEEERKNS_2spINS_4hidl7manager4V1_020IServiceNotificationEEE"
  },
  {
   "name":"_ZN7android8hardware8memtrack4V1_09IMemtrack4pingEv"
  },
  {
   "name":"_ZN7android8hardware8memtrack4V1_09IMemtrack5debugERKNS0_11hidl_handleERKNS0_8hidl_vecINS0_11hidl_stringEEE"
  },
  {
   "name":"_ZN7android8hardware8memtrack4V1_09IMemtrack8castFromERKNS_2spINS_4hidl4base4V1_05IBaseEEEb"
  },
  {
   "name":"_ZN7android8hardware8memtrack4V1_09IMemtrack8castFromERKNS_2spIS3_EEb"
  },
  {
   "binding":"weak",
   "name":"_ZN7android8hardware8toBinderINS_4hidl4base4V1_05IBaseEvEENS_2spINS0_7IBinderEEENS6_IT_EE"
  },
  {
   "name":"_ZThn20_N7android8hardware8memtrack4V1_012BnHwMemtrackD0Ev"
  },
  {
   "name":"_ZThn20_N7android8hardware8memtrack4V1_012BnHwMemtrackD1Ev"
  },
  {
   "name":"_ZTv0_n12_N7android8hardware8memtrack4V1_012BnHwMemtrackD0Ev"
  },
  {
   "name":"_ZTv0_n12_N7android8hardware8memtrack4V1_012BnHwMemtrackD1Ev"
  }
 ],
 "elf_objects":[
  {
   "name":"_ZN7android8hardware8memtrack4V1_09IMemtrack10descriptorE"
  },
  {
   "name":"_ZTTN7android8hardware8memtrack4V1_012BnHwMemtrackE"
  },
  {
   "name":"_ZTTN7android8hardware8memtrack4V1_012BpHwMemtrackE"
  },
  {
   "name":"_ZTTN7android8hardware8memtrack4V1_09IMemtrackE"
  },
  {
   "binding":"weak",
   "name":"_ZTVN7android8hardware8memtrack4V1_010BsMemtrackE"
  },
  {
   "name":"_ZTVN7android8hardware8memtrack4V1_012BnHwMemtrackE"
  },
  {
   "name":"_ZTVN7android8hardware8memtrack4V1_012BpHwMemtrackE"
  },
  {
   "name":"_ZTVN7android8hardware8memtrack4V1_09IMemtrackE"
  }
 ]
}