{
 "record_types":[
  {
   "vtable_components":[
    {
     "kind":"vbase_offset",
     "component_value":4
    },
    {
     "kind":"offset_to_top"
    },
    {
     "kind":"rtti",
     "mangled_component_name":"_ZTIN7android8hardware2ir4V1_011IConsumerIrE"
    },
    {
     "mangled_component_name":"_ZNK7android8hardware2ir4V1_011IConsumerIr8isRemoteEv"
    },
    {
     "mangled_component_name":"_ZN7android8hardware2ir4V1_011IConsumerIr14interfaceChainENSt3__18functionIFvRKNS0_8hidl_vecINS0_11hidl_stringEEEEEE"
    },
    {
     "mangled_component_name":"_ZN7android8hardware2ir4V1_011IConsumerIr5debugERKNS0_11hidl_handleERKNS0_8hidl_vecINS0_11hidl_stringEEE"
    },
    {
     "mangled_component_name":"_ZN7android8hardware2ir4V1_011IConsumerIr19interfaceDescriptorENSt3__18functionIFvRKNS0_11hidl_stringEEEE"
    },
    {
     "mangled_component_name":"_ZN7android8hardware2ir4V1_011IConsumerIr12getHashChainENSt3__18functionIFvRKNS0_8hidl_vecINS0_10hidl_arrayIhLj32EJEEEEEEEE"
    },
    {
     "mangled_component_name":"_ZN7android8hardware2ir4V1_011IConsumerIr21setHALInstrumentationEv"
    },
    {
     "mangled_component_name":"_ZN7android8hardware2ir4V1_011IConsumerIr11linkToDeathERKNS_2spINS0_20hidl_death_recipientEEEy"
    },
    {
     "mangled_component_name":"_ZN7android8hardware2ir4V1_011IConsumerIr4pingEv"
    },
    {
     "mangled_component_name":"_ZN7android8hardware2ir4V1_011IConsumerIr12getDebugInfoENSt3__18functionIFvRKNS_4hidl4base4V1_09DebugInfoEEEE"
    },
    {
     "mangled_component_name":"_ZN7android8hardware2ir4V1_011IConsumerIr21notifySyspropsChangedEv"
    },
    {
     "mangled_component_name":"_ZN7android8hardware2ir4V1_011IConsumerIr13unlinkToDeathERKNS_2spINS0_20hidl_death_recipientEEE"
    },
    {
     "kind":"complete_dtor_pointer",
     "mangled_component_name":"_ZN7android8hardware2ir4V1_011IConsumerIrD1Ev"
    },
    {
     "kind":"deleting_dtor_pointer",
     "mangled_component_name":"_ZN7android8hardware2ir4V1_011IConsumerIrD0Ev"
    },
    {
     "is_pure":true,
     "mangled_component_name":"_ZN7android8hardware2ir4V1_011IConsumerIr8transmitEiRKNS0_8hidl_vecIiEE"
    },
    {
     "is_pure":true,
     "mangled_component_name":"_ZN7android8hardware2ir4V1_011IConsumerIr15getCarrierFreqsENSt3__18functionIFvbRKNS0_8hidl_vecINS2_19ConsumerIrFreqRangeEEEEEE"
    },
    {
     "kind":"vcall_offset"
    },
    {
     "kind":"vcall_offset"
    },
    {
     "kind":"vcall_offset"
    },
    {
     "kind":"vcall_offset"
    },
    {
     "kind":"vcall_offset",
     "component_value":-4
    },
    {
     "kind":"offset_to_top",
     "component_value":-4
    },
    {
     "kind":"rtti",
     "mangled_component_name":"_ZTIN7android8hardware2ir4V1_011IConsumerIrE"
    },
    {
     "kind":"complete_dtor_pointer",
     "mangled_component_name":"_ZTv0_n12_N7android8hardware2ir4V1_011IConsumerIrD1Ev"
    },
    {
     "kind":"deleting_dtor_pointer",
     "mangled_component_name":"_ZTv0_n12_N7android8hardware2ir4V1_011IConsumerIrD0Ev"
    },
    {
     "mangled_component_name":"_ZN7android7RefBase10onFirstRefEv"
    },
    {
     "mangled_component_name":"_ZN7android7RefBase15onLastStrongRefEPKv"
    },
    {
     "mangled_component_name":"_ZN7android7RefBase20onIncStrongAttemptedEjPKv"
    },
    {
     "mangled_component_name":"_ZN7android7RefBase13onLastWeakRefEPKv"
    }
   ],
   "unique_id":"_ZTSN7android8hardware2ir4V1_011IConsumerIrE"
  },
  {
   "vtable_components":[
    {
     "kind":"vbase_offset",
     "component_value":72
    },
    {
     "kind":"offset_to_top"
    },
    {
     "kind":"rtti",
     "mangled_component_name":"_ZTIN7android8hardware2ir4V1_014BnHwConsumerIrE"
    },
    {
     "mangled_component_name":"_ZN7android8hardware9BHwBinder8transactEjRKNS0_6ParcelEPS2_jNSt3__18functionIFvRS2_EEE"
    },
    {
     "mangled_component_name":"_ZN7android8hardware9BHwBinder11linkToDeathERKNS_2spINS0_7IBinder14DeathRecipientEEEPvj"
    },
    {
     "mangled_component_name":"_ZN7android8hardware9BHwBinder13unlinkToDeathERKNS_2wpINS0_7IBinder14DeathRecipientEEEPvjPS5_"
    },
    {
     "mangled_component_name":"_ZNK7android8hardware7IBinder13checkSubclassEPKv"
    },
    {
     "mangled_component_name":"_ZN7android8hardware9BHwBinder12attachObjectEPKvPvS4_PFvS3_S4_S4_E"
    },
    {
     "mangled_component_name":"_ZNK7android8hardware9BHwBinder10findObjectEPKv"
    },
    {
     "mangled_component_name":"_ZN7android8hardware9BHwBinder12detachObjectEPKv"
    },
    {
     "mangled_component_name":"_ZN7android8hardware9BHwBinder11localBinderEv"
    },
    {
     "mangled_component_name":"_ZN7android8hardware7IBinder12remoteBinderEv"
    },
    {
     "kind":"complete_dtor_pointer",
     "mangled_component_name":"_ZN7android8hardware2ir4V1_014BnHwConsumerIrD1Ev"
    },
    {
     "kind":"deleting_dtor_pointer",
     "mangled_component_name":"_ZN7android8hardware2ir4V1_014BnHwConsumerIrD0Ev"
    },
    {
     "mangled_component_name":"_ZN7android8hardware2ir4V1_014BnHwConsumerIr10onTransactEjRKNS0_6ParcelEPS4_jNSt3__18functionIFvRS4_EEE"
    },
    {
     "kind":"offset_to_top",
     "component_value":-20
    },
    {
     "kind":"rtti",
     "mangled_component_name":"_ZTIN7android8hardware2ir4V1_014BnHwConsumerIrE"
    },
    {
     "kind":"complete_dtor_pointer",
     "mangled_component_name":"_ZThn20_N7android8hardware2ir4V1_014BnHwConsumerIrD1Ev"
    },
    {
     "kind":"deleting_dtor_pointer",
     "mangled_component_name":"_ZThn20_N7android8hardware2ir4V1_014BnHwConsumerIrD0Ev"
    },
    {
     "kind":"vcall_offset"
    },
    {
     "kind":"vcall_offset"
    },
    {
     "kind":"vcall_offset"
    },
    {
     "kind":"vcall_offset"
    },
    {
     "kind":"vcall_offset",
     "component_value":-72
    },
    {
     "kind":"offset_to_top",
     "component_value":-72
    },
    {
     "kind":"rtti",
     "mangled_component_name":"_ZTIN7android8hardware2ir4V1_014BnHwConsumerIrE"
    },
    {
     "kind":"complete_dtor_pointer",
     "mangled_component_name":"_ZTv0_n12_N7android8hardware2ir4V1_014BnHwConsumerIrD1Ev"
    },
    {
     "kind":"deleting_dtor_pointer",
     "mangled_component_name":"_ZTv0_n12_N7android8hardware2ir4V1_014BnHwConsumerIrD0Ev"
    },
    {
     "mangled_component_name":"_ZN7android7RefBase10onFirstRefEv"
    },
    {
     "mangled_component_name":"_ZN7android7RefBase15onLastStrongRefEPKv"
    },
    {
     "mangled_component_name":"_ZN7android7RefBase20onIncStrongAttemptedEjPKv"
    },
    {
     "mangled_component_name":"_ZN7android7RefBase13onLastWeakRefEPKv"
    }
   ],
   "unique_id":"_ZTSN7android8hardware2ir4V1_014BnHwConsumerIrE"
  },
  {
   "vtable_components":[
    {
     "kind":"vbase_offset",
     "component_value":84
    },
    {
     "kind":"offset_to_top"
    },
    {
     "kind":"rtti",
     "mangled_component_name":"_ZTIN7android8hardware2ir4V1_014BpHwConsumerIrE"
    },
    {
     "mangled_component_name":"_ZNK7android8hardware2ir4V1_014BpHwConsumerIr8isRemoteEv"
    },
    {
     "mangled_component_name":"_ZN7android8hardware2ir4V1_014BpHwConsumerIr14interfaceChainENSt3__18functionIFvRKNS0_8hidl_vecINS0_11hidl_stringEEEEEE"
    },
    {
     "mangled_component_name":"_ZN7android8hardware2ir4V1_014BpHwConsumerIr5debugERKNS0_11hidl_handleERKNS0_8hidl_vecINS0_11hidl_stringEEE"
    },
    {
     "mangled_component_name":"_ZN7android8hardware2ir4V1_014BpHwConsumerIr19interfaceDescriptorENSt3__18functionIFvRKNS0_11hidl_stringEEEE"
    },
    {
     "mangled_component_name":"_ZN7android8hardware2ir4V1_014BpHwConsumerIr12getHashChainENSt3__18functionIFvRKNS0_8hidl_vecINS0_10hidl_arrayIhLj32EJEEEEEEEE"
    },
    {
     "mangled_component_name":"_ZN7android8hardware2ir4V1_014BpHwConsumerIr21setHALInstrumentationEv"
    },
    {
     "mangled_component_name":"_ZN7android8hardware2ir4V1_014BpHwConsumerIr11linkToDeathERKNS_2spINS0_20hidl_death_recipientEEEy"
    },
    {
     "mangled_component_name":"_ZN7android8hardware2ir4V1_014BpHwConsumerIr4pingEv"
    },
    {
     "mangled_component_name":"_ZN7android8hardware2ir4V1_014BpHwConsumerIr12getDebugInfoENSt3__18functionIFvRKNS_4hidl4base4V1_09DebugInfoEEEE"
    },
    {
     "mangled_component_name":"_ZN7android8hardware2ir4V1_014BpHwConsumerIr21notifySyspropsChangedEv"
    },
    {
     "mangled_component_name":"_ZN7android8hardware2ir4V1_014BpHwConsumerIr13unlinkToDeathERKNS_2spINS0_20hidl_death_recipientEEE"
    },
    {
     "kind":"complete_dtor_pointer",
     "mangled_component_name":"_ZN7android8hardware2ir4V1_014BpHwConsumerIrD1Ev"
    },
    {
     "kind":"deleting_dtor_pointer",
     "mangled_component_name":"_ZN7android8hardware2ir4V1_014BpHwConsumerIrD0Ev"
    },
    {
     "mangled_component_name":"_ZN7android8hardware2ir4V1_014BpHwConsumerIr8transmitEiRKNS0_8hidl_vecIiEE"
    },
    {
     "mangled_component_name":"_ZN7android8hardware2ir4V1_014BpHwConsumerIr15getCarrierFreqsENSt3__18functionIFvbRKNS0_8hidl_vecINS2_19ConsumerIrFreqRangeEEEEEE"
    },
    {
     "mangled_component_name":"_ZN7android8hardware11BpInterfaceINS0_2ir4V1_011IConsumerIrEE10onAsBinderEv"
    },
    {
     "kind":"vbase_offset",
     "component_value":80
    },
    {
     "kind":"offset_to_top",
     "component_value":-4
    },
    {
     "kind":"rtti",
     "mangled_component_name":"_ZTIN7android8hardware2ir4V1_014BpHwConsumerIrE"
    },
    {
     "kind":"complete_dtor_pointer",
     "mangled_component_name":"_ZThn4_N7android8hardware2ir4V1_014BpHwConsumerIrD1Ev"
    },
    {
     "kind":"deleting_dtor_pointer",
     "mangled_component_name":"_ZThn4_N7android8hardware2ir4V1_014BpHwConsumerIrD0Ev"
    },
    {
     "mangled_component_name":"_ZThn4_N7android8hardware11BpInterfaceINS0_2ir4V1_011IConsumerIrEE10onAsBinderEv"
    },
    {
     "kind":"vbase_offset",
     "component_value":76
    },
    {
     "kind":"offset_to_top",
     "component_value":-8
    },
    {
     "kind":"rtti",
     "mangled_component_name":"_ZTIN7android8hardware2ir4V1_014BpHwConsumerIrE"
    },
    {
     "kind":"complete_dtor_pointer",
     "mangled_component_name":"_ZThn8_N7android8hardware2ir4V1_014BpHwConsumerIrD1Ev"
    },
    {
     "kind":"deleting_dtor_pointer",
     "mangled_component_name":"_ZThn8_N7android8hardware2ir4V1_014BpHwConsumerIrD0Ev"
    },
    {
     "mangled_component_name":"_ZN7android8hardware11BpHwRefBase10onFirstRefEv"
    },
    {
     "mangled_component_name":"_ZN7android8hardware11BpHwRefBase15onLastStrongRefEPKv"
    },
    {
     "mangled_component_name":"_ZN7android8hardware11BpHwRefBase20onIncStrongAttemptedEjPKv"
    },
    {
     "kind":"offset_to_top",
     "component_value":-24
    },
    {
     "kind":"rtti",
     "mangled_component_name":"_ZTIN7android8hardware2ir4V1_014BpHwConsumerIrE"
    },
    {
     "kind":"complete_dtor_pointer",
     "mangled_component_name":"_ZThn24_N7android8hardware2ir4V1_014BpHwConsumerIrD1Ev"
    },
    {
     "kind":"deleting_dtor_pointer",
     "mangled_component_name":"_ZThn24_N7android8hardware2ir4V1_014BpHwConsumerIrD0Ev"
    },
    {
     "kind":"vcall_offset"
    },
    {
     "kind":"vcall_offset",
     "component_value":-76
    },
    {
     "kind":"vcall_offset",
     "component_value":-76
    },
    {
     "kind":"vcall_offset",
     "component_value":-76
    },
    {
     "kind":"vcall_offset",
     "component_value":-84
    },
    {
     "kind":"offset_to_top",
     "component_value":-84
    },
    {
     "kind":"rtti",
     "mangled_component_name":"_ZTIN7android8hardware2ir4V1_014BpHwConsumerIrE"
    },
    {
     "kind":"complete_dtor_pointer",
     "mangled_component_name":"_ZTv0_n12_N7android8hardware2ir4V1_014BpHwConsumerIrD1Ev"
    },
    {
     "kind":"deleting_dtor_pointer",
     "mangled_component_name":"_ZTv0_n12_N7android8hardware2ir4V1_014BpHwConsumerIrD0Ev"
    },
    {
     "mangled_component_name":"_ZTv0_n16_N7android8hardware11BpHwRefBase10onFirstRefEv"
    },
    {
     "mangled_component_name":"_ZTv0_n20_N7android8hardware11BpHwRefBase15onLastStrongRefEPKv"
    },
    {
     "mangled_component_name":"_ZTv0_n24_N7android8hardware11BpHwRefBase20onIncStrongAttemptedEjPKv"
    },
    {
     "mangled_component_name":"_ZN7android7RefBase13onLastWeakRefEPKv"
    }
   ],
   "unique_id":"_ZTSN7android8hardware2ir4V1_014BpHwConsumerIrE"
  },
  {
   "vtable_components":[
    {
     "kind":"vbase_offset",
     "component_value":60
    },
    {
     "kind":"offset_to_top"
    },
    {
     "kind":"rtti",
     "mangled_component_name":"_ZTIN7android8hardware2ir4V1_012BsConsumerIrE"
    },
    {
     "mangled_component_name":"_ZNK7android8hardware2ir4V1_011IConsumerIr8isRemoteEv"
    },
    {
     "mangled_component_name":"_ZN7android8hardware2ir4V1_012BsConsumerIr14interfaceChainENSt3__18functionIFvRKNS0_8hidl_vecINS0_11hidl_stringEEEEEE"
    },
    {
     "mangled_component_name":"_ZN7android8hardware2ir4V1_012BsConsumerIr5debugERKNS0_11hidl_handleERKNS0_8hidl_vecINS0_11hidl_stringEEE"
    },
    {
     "mangled_component_name":"_ZN7android8hardware2ir4V1_012BsConsumerIr19interfaceDescriptorENSt3__18functionIFvRKNS0_11hidl_stringEEEE"
    },
    {
     "mangled_component_name":"_ZN7android8hardware2ir4V1_012BsConsumerIr12getHashChainENSt3__18functionIFvRKNS0_8hidl_vecINS0_10hidl_arrayIhLj32EJEEEEEEEE"
    },
    {
     "mangled_component_name":"_ZN7android8hardware2ir4V1_012BsConsumerIr21setHALInstrumentationEv"
    },
    {
     "mangled_component_name":"_ZN7android8hardware2ir4V1_012BsConsumerIr11linkToDeathERKNS_2spINS0_20hidl_death_recipientEEEy"
    },
    {
     "mangled_component_name":"_ZN7android8hardware2ir4V1_012BsConsumerIr4pingEv"
    },
    {
     "mangled_component_name":"_ZN7android8hardware2ir4V1_012BsConsumerIr12getDebugInfoENSt3__18functionIFvRKNS_4hidl4base4V1_09DebugInfoEEEE"
    },
    {
     "mangled_component_name":"_ZN7android8hardware2ir4V1_012BsConsumerIr21notifySyspropsChangedEv"
    },
    {
     "mangled_component_name":"_ZN7android8hardware2ir4V1_012BsConsumerIr13unlinkToDeathERKNS_2spINS0_20hidl_death_recipientEEE"
    },
    {
     "kind":"complete_dtor_pointer",
     "mangled_component_name":"_ZN7android8hardware2ir4V1_012BsConsumerIrD1Ev"
    },
    {
     "kind":"deleting_dtor_pointer",
     "mangled_component_name":"_ZN7android8hardware2ir4V1_012BsConsumerIrD0Ev"
    },
    {
     "mangled_component_name":"_ZN7android8hardware2ir4V1_012BsConsumerIr8transmitEiRKNS0_8hidl_vecIiEE"
    },
    {
     "mangled_component_name":"_ZN7android8hardware2ir4V1_012BsConsumerIr15getCarrierFreqsENSt3__18functionIFvbRKNS0_8hidl_vecINS2_19ConsumerIrFreqRangeEEEEEE"
    },
    {
     "kind":"offset_to_top",
     "component_value":-4
    },
    {
     "kind":"rtti",
     "mangled_component_name":"_ZTIN7android8hardware2ir4V1_012BsConsumerIrE"
    },
    {
     "kind":"complete_dtor_pointer",
     "mangled_component_name":"_ZThn4_N7android8hardware2ir4V1_012BsConsumerIrD1Ev"
    },
    {
     "kind":"deleting_dtor_pointer",
     "mangled_component_name":"_ZThn4_N7android8hardware2ir4V1_012BsConsumerIrD0Ev"
    },
    {
     "kind":"vcall_offset"
    },
    {
     "kind":"vcall_offset"
    },
    {
     "kind":"vcall_offset"
    },
    {
     "kind":"vcall_offset"
    },
    {
     "kind":"vcall_offset",
     "component_value":-60
    },
    {
     "kind":"offset_to_top",
     "component_value":-60
    },
    {
     "kind":"rtti",
     "mangled_component_name":"_ZTIN7android8hardware2ir4V1_012BsConsumerIrE"
    },
    {
     "kind":"complete_dtor_pointer",
     "mangled_component_name":"_ZTv0_n12_N7android8hardware2ir4V1_012BsConsumerIrD1Ev"
    },
    {
     "kind":"deleting_dtor_pointer",
     "mangled_component_name":"_ZTv0_n12_N7android8hardware2ir4V1_012BsConsumerIrD0Ev"
    },
    {
     "mangled_component_name":"_ZN7android7RefBase10onFirstRefEv"
    },
    {
     "mangled_component_name":"_ZN7android7RefBase15onLastStrongRefEPKv"
    },
    {
     "mangled_component_name":"_ZN7android7RefBase20onIncStrongAttemptedEjPKv"
    },
    {
     "mangled_component_name":"_ZN7android7RefBase13onLastWeakRefEPKv"
    }
   ],
   "unique_id":"_ZTSN7android8hardware2ir4V1_012BsConsumerIrE"
  }
 ],
 "elf_functions":[
  {
   "name":"_ZN7android8hardware2ir4V1_011IConsumerIr10getServiceERKNSt3__112basic_stringIcNS4_11char_traitsIcEENS4_9allocatorIcEEEEb"
  },
  {
   "name":"_ZN7android8hardware2ir4V1_011IConsumerIr11linkToDeathERKNS_2spINS0_20hidl_death_recipientEEEy"
  },
  {
   "name":"_ZN7android8hardware2ir4V1_011IConsumerIr12getDebugInfoENSt3__18functionIFvRKNS_4hidl4base4V1_09DebugInfoEEEE"
  },
  {
   "name":"_ZN7android8hardware2ir4V1_011IConsumerIr12getHashChainENSt3__18functionIFvRKNS0_8hidl_vecINS0_10hidl_arrayIhLj32EJEEEEEEEE"
  },
  {
   "name":"_ZN7android8hardware2ir4V1_011IConsumerIr13tryGetServiceERKNSt3__112basic_stringIcNS4_11char_traitsIcEENS4_9allocatorIcEEEEb"
  },
  {
   "name":"_ZN7android8hardware2ir4V1_011IConsumerIr13unlinkToDeathERKNS_2spINS0_20hidl_death_recipientEEE"
  },
  {
   "name":"_ZN7android8hardware2ir4V1_011IConsumerIr14interfaceChainENSt3__18functionIFvRKNS0_8hidl_vecINS0_11hidl_stringEEEEEE"
  },
  {
   "name":"_ZN7android8hardware2ir4V1_011IConsumerIr17registerAsServiceERKNSt3__112basic_stringIcNS4_11char_traitsIcEENS4_9allocatorIcEEEE"
  },
  {
   "name":"_ZN7android8hardware2ir4V1_011IConsumerIr19interfaceDescriptorENSt3__18functionIFvRKNS0_11hidl_stringEEEE"
  },
  {
   "name":"_ZN7android8hardware2ir4V1_011IConsumerIr21notifySyspropsChangedEv"
  },
  {
   "name":"_ZN7android8hardware2ir4V1_011IConsumerIr21setHALInstrumentationEv"
  },
  {
   "name":"_ZN7android8hardware2ir4V1_011IConsumerIr24registerForNotificationsERKNSt3__112basic_stringIcNS4_11char_traitsIcEENS4_9allocatorIcEEEERKNS_2spINS_4hidl7manager4V1_020IServiceNotificationEEE"
  },
  {
   "name":"_ZN7android8hardware2ir4V1_011IConsumerIr4pingEv"
  },
  {
   "name":"_ZN7android8hardware2ir4V1_011IConsumerIr5debugERKNS0_11hidl_handleERKNS0_8hidl_vecINS0_11hidl_stringEEE"
  },
  {
   "name":"_ZN7android8hardware2ir4V1_011IConsumerIr8castFromERKNS_2spINS_4hidl4base4V1_05IBaseEEEb"
  },
  {
   "name":"_ZN7android8hardware2ir4V1_011IConsumerIr8castFromERKNS_2spIS3_EEb"
  },
  {
   "name":"_ZN7android8hardware2ir4V1_012BsConsumerIr13addOnewayTaskENSt3__18functionIFvvEEE"
  },
  {
   "name":"_ZN7android8hardware2ir4V1_012BsConsumerIrC1ENS_2spINS2_11IConsumerIrEEE"
  },
  {
   "name":"_ZN7android8hardware2ir4V1_012BsConsumerIrC2ENS_2spINS2_11IConsumerIrEEE"
  },
  {
   "name":"_ZN7android8hardware2ir4V1_014BnHwConsumerIr10onTransactEjRKNS0_6ParcelEPS4_jNSt3__18functionIFvRS4_EEE"
  },
  {
   "name":"_ZN7android8hardware2ir4V1_014BnHwConsumerIr12getDebugInfoENSt3__18functionIFvRKNS_4hidl4base4V1_09DebugInfoEEEE"
  },
  {
   "name":"_ZN7android8hardware2ir4V1_014BnHwConsumerIr14_hidl_transmitEPNS_4hidl4base4V1_08BnHwBaseERKNS0_6ParcelEPS9_NSt3__18functionIFvRS9_EEE"
  },
  {
   "name":"_ZN7android8hardware2ir4V1_014BnHwConsumerIr21_hidl_getCarrierFreqsEPNS_4hidl4base4V1_08BnHwBaseERKNS0_6ParcelEPS9_NSt3__18functionIFvRS9_EEE"
  },
  {
   "name":"_ZN7android8hardware2ir4V1_014BnHwConsumerIr4pingEv"
  },
  {
   "name":"_ZN7android8hardware2ir4V1_014BnHwConsumerIrC1ERKNS_2spINS2_11IConsumerIrEEE"
  },
  {
   "name":"_ZN7android8hardware2ir4V1_014BnHwConsumerIrC2ERKNS_2spINS2_11IConsumerIrEEE"
  },
  {
   "name":"_ZN7android8hardware2ir4V1_014BnHwConsumerIrD0Ev"
  },
  {
   "name":"_ZN7android8hardware2ir4V1_014BnHwConsumerIrD1Ev"
  },
  {
   "name":"_ZN7android8hardware2ir4V1_014BnHwConsumerIrD2Ev"
  },
  {
   "name":"_ZN7android8hardware2ir4V1_014BpHwConsumerIr11linkToDeathERKNS_2spINS0_20hidl_death_recipientEEEy"
  },
  {
   "name":"_ZN7android8hardware2ir4V1_014BpHwConsumerIr12getDebugInfoENSt3__18functionIFvRKNS_4hidl4base4V1_09DebugInfoEEEE"
  },
  {
   "name":"_ZN7android8hardware2ir4V1_014BpHwConsumerIr12getHashChainENSt3__18functionIFvRKNS0_8hidl_vecINS0_10hidl_arrayIhLj32EJEEEEEEEE"
  },
  {
   "name":"_ZN7android8hardware2ir4V1_014BpHwConsumerIr13unlinkToDeathERKNS_2spINS0_20hidl_death_recipientEEE"
  },
  {
   "name":"_ZN7android8hardware2ir4V1_014BpHwConsumerIr14_hidl_transmitEPNS0_10IInterfaceEPNS0_7details16HidlInstrumentorEiRKNS0_8hidl_vecIiEE"
  },
  {
   "name":"_ZN7android8hardware2ir4V1_014BpHwConsumerIr14interfaceChainENSt3__18functionIFvRKNS0_8hidl_vecINS0_11hidl_stringEEEEEE"
  },
  {
   "name":"_ZN7android8hardware2ir4V1_014BpHwConsumerIr15getCarrierFreqsENSt3__18functionIFvbRKNS0_8hidl_vecINS2_19ConsumerIrFreqRangeEEEEEE"
  },
  {
   "name":"_ZN7android8hardware2ir4V1_014BpHwConsumerIr19interfaceDescriptorENSt3__18functionIFvRKNS0_11hidl_stringEEEE"
  },
  {
   "name":"_ZN7android8hardware2ir4V1_014BpHwConsumerIr21_hidl_getCarrierFreqsEPNS0_10IInterfaceEPNS0_7details16HidlInstrumentorENSt3__18functionIFvbRKNS0_8hidl_vecINS2_19ConsumerIrFreqRangeEEEEEE"
  },
  {
   "name":"_ZN7android8hardware2ir4V1_014BpHwConsumerIr21notifySyspropsChangedEv"
  },
  {
   "name":"_ZN7android8hardware2ir4V1_014BpHwConsumerIr21setHALInstrumentationEv"
  },
  {
   "name":"_ZN7android8hardware2ir4V1_014BpHwConsumerIr4pingEv"
  },
  {
   "name":"_ZN7android8hardware2ir4V1_014BpHwConsumerIr5debugERKNS0_11hidl_handleERKNS0_8hidl_vecINS0_11hidl_stringEEE"
  },
  {
   "name":"_ZN7android8hardware2ir4V1_014BpHwConsumerIr8transmitEiRKNS0_8hidl_vecIiEE"
  },
  {
   "name":"_ZN7android8hardware2ir4V1_014BpHwConsumerIrC1ERKNS_2spINS0_7IBinderEEE"
  },
  {
   "name":"_ZN7android8hardware2ir4V1_014BpHwConsumerIrC2ERKNS_2spINS0_7IBinderEEE"
  },
  {
   "binding":"weak",
   "name":"_ZN7android8hardware7details13castInterfaceINS0_2ir4V1_011IConsumerIrENS_4hidl4base4V1_05IBaseENS4_14BpHwConsumerIrEEENS0_6ReturnINS_2spIT_EEEENSC_IT0_EEPKcb"
  },
  {
   "binding":"weak",
   "name":"_ZN7android8hardware7details18getServiceInternalINS0_2ir4V1_014BpHwConsumerIrENS4_11IConsumerIrEvvEENS_2spIT0_EERKNSt3__112basic_stringIcNSA_11char_traitsIcEENSA_9allocatorIcEEEEbb"
  },
  {
   "binding":"weak",
   "name":"_ZN7android8hardware8toBinderINS_4hidl4base4V1_05IBaseEvEENS_2spINS0_7IBinderEEENS6_IT_EE"
  },
  {
   "name":"_ZThn20_N7android8hardware2ir4V1_014BnHwConsumerIrD0Ev"
  },
  {
   "name":"_ZThn20_N7android8hardware2ir4V1_014BnHwConsumerIrD1Ev"
  },
  {
   "name":"_ZTv0_n12_N7android8hardware2ir4V1_014BnHwConsumerIrD0Ev"
  },
  {
   "name":"_ZTv0_n12_N7android8hardware2ir4V1_014BnHwConsumerIrD1Ev"
  }
 ],
 "elf_objects":[
  {
   "name":"_ZN7android8hardware2ir4V1_011IConsumerIr10descriptorE"
  },
  {
   "name":"_ZTTN7android8hardware2ir4V1_011IConsumerIrE"
  },
  {
   "name":"_ZTTN7android8hardware2ir4V1_014BnHwConsumerIrE"
  },
  {
   "name":"_ZTTN7android8hardware2ir4V1_014BpHwConsumerIrE"
  },
  {
   "name":"_ZTVN7android8hardware2ir4V1_011IConsumerIrE"
  },
  {
   "binding":"weak",
   "name":"_ZTVN7android8hardware2ir4V1_012BsConsumerIrE"
  },
  {
   "name":"_ZTVN7android8hardware2ir4V1_014BnHwConsumerIrE"
  },
  {
   "name":"_ZTVN7android8hardware2ir4V1_014BpHwConsumerIrE"
  }
 ]
}