{
 "record_types":[
  {
   "vtable_components":[
    {
     "kind":"vbase_offset",
     "component_value":4
    },
    {
     "kind":"offset_to_top"
    },
    {
     "kind":"rtti",
     "mangled_component_name":"_ZTIN7android8hardware7oemlock4V1_08IOemLockE"
    },
    {
     "mangled_component_name":"_ZNK7android8hardware7oemlock4V1_08IOemLock8isRemoteEv"
    },
    {
     "mangled_component_name":"_ZN7android8hardware7oemlock4V1_08IOemLock14interfaceChainENSt3__18functionIFvRKNS0_8hidl_vecINS0_11hidl_stringEEEEEE"
    },
    {
     "mangled_component_name":"_ZN7android8hardware7oemlock4V1_08IOemLock5debugERKNS0_11hidl_handleERKNS0_8hidl_vecINS0_11hidl_stringEEE"
    },
    {
     "mangled_component_name":"_ZN7android8hardware7oemlock4V1_08IOemLock19interfaceDescriptorENSt3__18functionIFvRKNS0_11hidl_stringEEEE"
    },
    {
     "mangled_component_name":"_ZN7android8hardware7oemlock4V1_08IOemLock12getHashChainENSt3__18functionIFvRKNS0_8hidl_vecINS0_10hidl_arrayIhLj32EJEEEEEEEE"
    },
    {
     "mangled_component_name":"_ZN7android8hardware7oemlock4V1_08IOemLock21setHALInstrumentationEv"
    },
    {
     "mangled_component_name":"_ZN7android8hardware7oemlock4V1_08IOemLock11linkToDeathERKNS_2spINS0_20hidl_death_recipientEEEy"
    },
    {
     "mangled_component_name":"_ZN7android8hardware7oemlock4V1_08IOemLock4pingEv"
    },
    {
     "mangled_component_name":"_ZN7android8hardware7oemlock4V1_08IOemLock12getDebugInfoENSt3__18functionIFvRKNS_4hidl4base4V1_09DebugInfoEEEE"
    },
    {
     "mangled_component_name":"_ZN7android8hardware7oemlock4V1_08IOemLock21notifySyspropsChangedEv"
    },
    {
     "mangled_component_name":"_ZN7android8hardware7oemlock4V1_08IOemLock13unlinkToDeathERKNS_2spINS0_20hidl_death_recipientEEE"
    },
    {
     "kind":"complete_dtor_pointer",
     "mangled_component_name":"_ZN7android8hardware7oemlock4V1_08IOemLockD1Ev"
    },
    {
     "kind":"deleting_dtor_pointer",
     "mangled_component_name":"_ZN7android8hardware7oemlock4V1_08IOemLockD0Ev"
    },
    {
     "is_pure":true,
     "mangled_component_name":"_ZN7android8hardware7oemlock4V1_08IOemLock7getNameENSt3__18functionIFvNS2_13OemLockStatusERKNS0_11hidl_stringEEEE"
    },
    {
     "is_pure":true,
     "mangled_component_name":"_ZN7android8hardware7oemlock4V1_08IOemLock28setOemUnlockAllowedByCarrierEbRKNS0_8hidl_vecIhEE"
    },
    {
     "is_pure":true,
     "mangled_component_name":"_ZN7android8hardware7oemlock4V1_08IOemLock27isOemUnlockAllowedByCarrierENSt3__18functionIFvNS2_13OemLockStatusEbEEE"
    },
    {
     "is_pure":true,
     "mangled_component_name":"_ZN7android8hardware7oemlock4V1_08IOemLock27setOemUnlockAllowedByDeviceEb"
    },
    {
     "is_pure":true,
     "mangled_component_name":"_ZN7android8hardware7oemlock4V1_08IOemLock26isOemUnlockAllowedByDeviceENSt3__18functionIFvNS2_13OemLockStatusEbEEE"
    },
    {
     "kind":"vcall_offset"
    },
    {
     "kind":"vcall_offset"
    },
    {
     "kind":"vcall_offset"
    },
    {
     "kind":"vcall_offset"
    },
    {
     "kind":"vcall_offset",
     "component_value":-4
    },
    {
     "kind":"offset_to_top",
     "component_value":-4
    },
    {
     "kind":"rtti",
     "mangled_component_name":"_ZTIN7android8hardware7oemlock4V1_08IOemLockE"
    },
    {
     "kind":"complete_dtor_pointer",
     "mangled_component_name":"_ZTv0_n12_N7android8hardware7oemlock4V1_08IOemLockD1Ev"
    },
    {
     "kind":"deleting_dtor_pointer",
     "mangled_component_name":"_ZTv0_n12_N7android8hardware7oemlock4V1_08IOemLockD0Ev"
    },
    {
     "mangled_component_name":"_ZN7android7RefBase10onFirstRefEv"
    },
    {
     "mangled_component_name":"_ZN7android7RefBase15onLastStrongRefEPKv"
    },
    {
     "mangled_component_name":"_ZN7android7RefBase20onIncStrongAttemptedEjPKv"
    },
    {
     "mangled_component_name":"_ZN7android7RefBase13onLastWeakRefEPKv"
    }
   ],
   "unique_id":"_ZTSN7android8hardware7oemlock4V1_08IOemLockE"
  },
  {
   "vtable_components":[
    {
     "kind":"vbase_offset",
     "component_value":72
    },
    {
     "kind":"offset_to_top"
    },
    {
     "kind":"rtti",
     "mangled_component_name":"_ZTIN7android8hardware7oemlock4V1_011BnHwOemLockE"
    },
    {
     "mangled_component_name":"_ZN7android8hardware9BHwBinder8transactEjRKNS0_6ParcelEPS2_jNSt3__18functionIFvRS2_EEE"
    },
    {
     "mangled_component_name":"_ZN7android8hardware9BHwBinder11linkToDeathERKNS_2spINS0_7IBinder14DeathRecipientEEEPvj"
    },
    {
     "mangled_component_name":"_ZN7android8hardware9BHwBinder13unlinkToDeathERKNS_2wpINS0_7IBinder14DeathRecipientEEEPvjPS5_"
    },
    {
     "mangled_component_name":"_ZNK7android8hardware7IBinder13checkSubclassEPKv"
    },
    {
     "mangled_component_name":"_ZN7android8hardware9BHwBinder12attachObjectEPKvPvS4_PFvS3_S4_S4_E"
    },
    {
     "mangled_component_name":"_ZNK7android8hardware9BHwBinder10findObjectEPKv"
    },
    {
     "mangled_component_name":"_ZN7android8hardware9BHwBinder12detachObjectEPKv"
    },
    {
     "mangled_component_name":"_ZN7android8hardware9BHwBinder11localBinderEv"
    },
    {
     "mangled_component_name":"_ZN7android8hardware7IBinder12remoteBinderEv"
    },
    {
     "kind":"complete_dtor_pointer",
     "mangled_component_name":"_ZN7android8hardware7oemlock4V1_011BnHwOemLockD1Ev"
    },
    {
     "kind":"deleting_dtor_pointer",
     "mangled_component_name":"_ZN7android8hardware7oemlock4V1_011BnHwOemLockD0Ev"
    },
    {
     "mangled_component_name":"_ZN7android8hardware7oemlock4V1_011BnHwOemLock10onTransactEjRKNS0_6ParcelEPS4_jNSt3__18functionIFvRS4_EEE"
    },
    {
     "kind":"offset_to_top",
     "component_value":-20
    },
    {
     "kind":"rtti",
     "mangled_component_name":"_ZTIN7android8hardware7oemlock4V1_011BnHwOemLockE"
    },
    {
     "kind":"complete_dtor_pointer",
     "mangled_component_name":"_ZThn20_N7android8hardware7oemlock4V1_011BnHwOemLockD1Ev"
    },
    {
     "kind":"deleting_dtor_pointer",
     "mangled_component_name":"_ZThn20_N7android8hardware7oemlock4V1_011BnHwOemLockD0Ev"
    },
    {
     "kind":"vcall_offset"
    },
    {
     "kind":"vcall_offset"
    },
    {
     "kind":"vcall_offset"
    },
    {
     "kind":"vcall_offset"
    },
    {
     "kind":"vcall_offset",
     "component_value":-72
    },
    {
     "kind":"offset_to_top",
     "component_value":-72
    },
    {
     "kind":"rtti",
     "mangled_component_name":"_ZTIN7android8hardware7oemlock4V1_011BnHwOemLockE"
    },
    {
     "kind":"complete_dtor_pointer",
     "mangled_component_name":"_ZTv0_n12_N7android8hardware7oemlock4V1_011BnHwOemLockD1Ev"
    },
    {
     "kind":"deleting_dtor_pointer",
     "mangled_component_name":"_ZTv0_n12_N7android8hardware7oemlock4V1_011BnHwOemLockD0Ev"
    },
    {
     "mangled_component_name":"_ZN7android7RefBase10onFirstRefEv"
    },
    {
     "mangled_component_name":"_ZN7android7RefBase15onLastStrongRefEPKv"
    },
    {
     "mangled_component_name":"_ZN7android7RefBase20onIncStrongAttemptedEjPKv"
    },
    {
     "mangled_component_name":"_ZN7android7RefBase13onLastWeakRefEPKv"
    }
   ],
   "unique_id":"_ZTSN7android8hardware7oemlock4V1_011BnHwOemLockE"
  },
  {
   "vtable_components":[
    {
     "kind":"vbase_offset",
     "component_value":84
    },
    {
     "kind":"offset_to_top"
    },
    {
     "kind":"rtti",
     "mangled_component_name":"_ZTIN7android8hardware7oemlock4V1_011BpHwOemLockE"
    },
    {
     "mangled_component_name":"_ZNK7android8hardware7oemlock4V1_011BpHwOemLock8isRemoteEv"
    },
    {
     "mangled_component_name":"_ZN7android8hardware7oemlock4V1_011BpHwOemLock14interfaceChainENSt3__18functionIFvRKNS0_8hidl_vecINS0_11hidl_stringEEEEEE"
    },
    {
     "mangled_component_name":"_ZN7android8hardware7oemlock4V1_011BpHwOemLock5debugERKNS0_11hidl_handleERKNS0_8hidl_vecINS0_11hidl_stringEEE"
    },
    {
     "mangled_component_name":"_ZN7android8hardware7oemlock4V1_011BpHwOemLock19interfaceDescriptorENSt3__18functionIFvRKNS0_11hidl_stringEEEE"
    },
    {
     "mangled_component_name":"_ZN7android8hardware7oemlock4V1_011BpHwOemLock12getHashChainENSt3__18functionIFvRKNS0_8hidl_vecINS0_10hidl_arrayIhLj32EJEEEEEEEE"
    },
    {
     "mangled_component_name":"_ZN7android8hardware7oemlock4V1_011BpHwOemLock21setHALInstrumentationEv"
    },
    {
     "mangled_component_name":"_ZN7android8hardware7oemlock4V1_011BpHwOemLock11linkToDeathERKNS_2spINS0_20hidl_death_recipientEEEy"
    },
    {
     "mangled_component_name":"_ZN7android8hardware7oemlock4V1_011BpHwOemLock4pingEv"
    },
    {
     "mangled_component_name":"_ZN7android8hardware7oemlock4V1_011BpHwOemLock12getDebugInfoENSt3__18functionIFvRKNS_4hidl4base4V1_09DebugInfoEEEE"
    },
    {
     "mangled_component_name":"_ZN7android8hardware7oemlock4V1_011BpHwOemLock21notifySyspropsChangedEv"
    },
    {
     "mangled_component_name":"_ZN7android8hardware7oemlock4V1_011BpHwOemLock13unlinkToDeathERKNS_2spINS0_20hidl_death_recipientEEE"
    },
    {
     "kind":"complete_dtor_pointer",
     "mangled_component_name":"_ZN7android8hardware7oemlock4V1_011BpHwOemLockD1Ev"
    },
    {
     "kind":"deleting_dtor_pointer",
     "mangled_component_name":"_ZN7android8hardware7oemlock4V1_011BpHwOemLockD0Ev"
    },
    {
     "mangled_component_name":"_ZN7android8hardware7oemlock4V1_011BpHwOemLock7getNameENSt3__18functionIFvNS2_13OemLockStatusERKNS0_11hidl_stringEEEE"
    },
    {
     "mangled_component_name":"_ZN7android8hardware7oemlock4V1_011BpHwOemLock28setOemUnlockAllowedByCarrierEbRKNS0_8hidl_vecIhEE"
    },
    {
     "mangled_component_name":"_ZN7android8hardware7oemlock4V1_011BpHwOemLock27isOemUnlockAllowedByCarrierENSt3__18functionIFvNS2_13OemLockStatusEbEEE"
    },
    {
     "mangled_component_name":"_ZN7android8hardware7oemlock4V1_011BpHwOemLock27setOemUnlockAllowedByDeviceEb"
    },
    {
     "mangled_component_name":"_ZN7android8hardware7oemlock4V1_011BpHwOemLock26isOemUnlockAllowedByDeviceENSt3__18functionIFvNS2_13OemLockStatusEbEEE"
    },
    {
     "mangled_component_name":"_ZN7android8hardware11BpInterfaceINS0_7oemlock4V1_08IOemLockEE10onAsBinderEv"
    },
    {
     "kind":"vbase_offset",
     "component_value":80
    },
    {
     "kind":"offset_to_top",
     "component_value":-4
    },
    {
     "kind":"rtti",
     "mangled_component_name":"_ZTIN7android8hardware7oemlock4V1_011BpHwOemLockE"
    },
    {
     "kind":"complete_dtor_pointer",
     "mangled_component_name":"_ZThn4_N7android8hardware7oemlock4V1_011BpHwOemLockD1Ev"
    },
    {
     "kind":"deleting_dtor_pointer",
     "mangled_component_name":"_ZThn4_N7android8hardware7oemlock4V1_011BpHwOemLockD0Ev"
    },
    {
     "mangled_component_name":"_ZThn4_N7android8hardware11BpInterfaceINS0_7oemlock4V1_08IOemLockEE10onAsBinderEv"
    },
    {
     "kind":"vbase_offset",
     "component_value":76
    },
    {
     "kind":"offset_to_top",
     "component_value":-8
    },
    {
     "kind":"rtti",
     "mangled_component_name":"_ZTIN7android8hardware7oemlock4V1_011BpHwOemLockE"
    },
    {
     "kind":"complete_dtor_pointer",
     "mangled_component_name":"_ZThn8_N7android8hardware7oemlock4V1_011BpHwOemLockD1Ev"
    },
    {
     "kind":"deleting_dtor_pointer",
     "mangled_component_name":"_ZThn8_N7android8hardware7oemlock4V1_011BpHwOemLockD0Ev"
    },
    {
     "mangled_component_name":"_ZN7android8hardware11BpHwRefBase10onFirstRefEv"
    },
    {
     "mangled_component_name":"_ZN7android8hardware11BpHwRefBase15onLastStrongRefEPKv"
    },
    {
     "mangled_component_name":"_ZN7android8hardware11BpHwRefBase20onIncStrongAttemptedEjPKv"
    },
    {
     "kind":"offset_to_top",
     "component_value":-24
    },
    {
     "kind":"rtti",
     "mangled_component_name":"_ZTIN7android8hardware7oemlock4V1_011BpHwOemLockE"
    },
    {
     "kind":"complete_dtor_pointer",
     "mangled_component_name":"_ZThn24_N7android8hardware7oemlock4V1_011BpHwOemLockD1Ev"
    },
    {
     "kind":"deleting_dtor_pointer",
     "mangled_component_name":"_ZThn24_N7android8hardware7oemlock4V1_011BpHwOemLockD0Ev"
    },
    {
     "kind":"vcall_offset"
    },
    {
     "kind":"vcall_offset",
     "component_value":-76
    },
    {
     "kind":"vcall_offset",
     "component_value":-76
    },
    {
     "kind":"vcall_offset",
     "component_value":-76
    },
    {
     "kind":"vcall_offset",
     "component_value":-84
    },
    {
     "kind":"offset_to_top",
     "component_value":-84
    },
    {
     "kind":"rtti",
     "mangled_component_name":"_ZTIN7android8hardware7oemlock4V1_011BpHwOemLockE"
    },
    {
     "kind":"complete_dtor_pointer",
     "mangled_component_name":"_ZTv0_n12_N7android8hardware7oemlock4V1_011BpHwOemLockD1Ev"
    },
    {
     "kind":"deleting_dtor_pointer",
     "mangled_component_name":"_ZTv0_n12_N7android8hardware7oemlock4V1_011BpHwOemLockD0Ev"
    },
    {
     "mangled_component_name":"_ZTv0_n16_N7android8hardware11BpHwRefBase10onFirstRefEv"
    },
    {
     "mangled_component_name":"_ZTv0_n20_N7android8hardware11BpHwRefBase15onLastStrongRefEPKv"
    },
    {
     "mangled_component_name":"_ZTv0_n24_N7android8hardware11BpHwRefBase20onIncStrongAttemptedEjPKv"
    },
    {
     "mangled_component_name":"_ZN7android7RefBase13onLastWeakRefEPKv"
    }
   ],
   "unique_id":"_ZTSN7android8hardware7oemlock4V1_011BpHwOemLockE"
  },
  {
   "vtable_components":[
    {
     "kind":"vbase_offset",
     "component_value":60
    },
    {
     "kind":"offset_to_top"
    },
    {
     "kind":"rtti",
     "mangled_component_name":"_ZTIN7android8hardware7oemlock4V1_09BsOemLockE"
    },
    {
     "mangled_component_name":"_ZNK7android8hardware7oemlock4V1_08IOemLock8isRemoteEv"
    },
    {
     "mangled_component_name":"_ZN7android8hardware7oemlock4V1_09BsOemLock14interfaceChainENSt3__18functionIFvRKNS0_8hidl_vecINS0_11hidl_stringEEEEEE"
    },
    {
     "mangled_component_name":"_ZN7android8hardware7oemlock4V1_09BsOemLock5debugERKNS0_11hidl_handleERKNS0_8hidl_vecINS0_11hidl_stringEEE"
    },
    {
     "mangled_component_name":"_ZN7android8hardware7oemlock4V1_09BsOemLock19interfaceDescriptorENSt3__18functionIFvRKNS0_11hidl_stringEEEE"
    },
    {
     "mangled_component_name":"_ZN7android8hardware7oemlock4V1_09BsOemLock12getHashChainENSt3__18functionIFvRKNS0_8hidl_vecINS0_10hidl_arrayIhLj32EJEEEEEEEE"
    },
    {
     "mangled_component_name":"_ZN7android8hardware7oemlock4V1_09BsOemLock21setHALInstrumentationEv"
    },
    {
     "mangled_component_name":"_ZN7android8hardware7oemlock4V1_09BsOemLock11linkToDeathERKNS_2spINS0_20hidl_death_recipientEEEy"
    },
    {
     "mangled_component_name":"_ZN7android8hardware7oemlock4V1_09BsOemLock4pingEv"
    },
    {
     "mangled_component_name":"_ZN7android8hardware7oemlock4V1_09BsOemLock12getDebugInfoENSt3__18functionIFvRKNS_4hidl4base4V1_09DebugInfoEEEE"
    },
    {
     "mangled_component_name":"_ZN7android8hardware7oemlock4V1_09BsOemLock21notifySyspropsChangedEv"
    },
    {
     "mangled_component_name":"_ZN7android8hardware7oemlock4V1_09BsOemLock13unlinkToDeathERKNS_2spINS0_20hidl_death_recipientEEE"
    },
    {
     "kind":"complete_dtor_pointer",
     "mangled_component_name":"_ZN7android8hardware7oemlock4V1_09BsOemLockD1Ev"
    },
    {
     "kind":"deleting_dtor_pointer",
     "mangled_component_name":"_ZN7android8hardware7oemlock4V1_09BsOemLockD0Ev"
    },
    {
     "mangled_component_name":"_ZN7android8hardware7oemlock4V1_09BsOemLock7getNameENSt3__18functionIFvNS2_13OemLockStatusERKNS0_11hidl_stringEEEE"
    },
    {
     "mangled_component_name":"_ZN7android8hardware7oemlock4V1_09BsOemLock28setOemUnlockAllowedByCarrierEbRKNS0_8hidl_vecIhEE"
    },
    {
     "mangled_component_name":"_ZN7android8hardware7oemlock4V1_09BsOemLock27isOemUnlockAllowedByCarrierENSt3__18functionIFvNS2_13OemLockStatusEbEEE"
    },
    {
     "mangled_component_name":"_ZN7android8hardware7oemlock4V1_09BsOemLock27setOemUnlockAllowedByDeviceEb"
    },
    {
     "mangled_component_name":"_ZN7android8hardware7oemlock4V1_09BsOemLock26isOemUnlockAllowedByDeviceENSt3__18functionIFvNS2_13OemLockStatusEbEEE"
    },
    {
     "kind":"offset_to_top",
     "component_value":-4
    },
    {
     "kind":"rtti",
     "mangled_component_name":"_ZTIN7android8hardware7oemlock4V1_09BsOemLockE"
    },
    {
     "kind":"complete_dtor_pointer",
     "mangled_component_name":"_ZThn4_N7android8hardware7oemlock4V1_09BsOemLockD1Ev"
    },
    {
     "kind":"deleting_dtor_pointer",
     "mangled_component_name":"_ZThn4_N7android8hardware7oemlock4V1_09BsOemLockD0Ev"
    },
    {
     "kind":"vcall_offset"
    },
    {
     "kind":"vcall_offset"
    },
    {
     "kind":"vcall_offset"
    },
    {
     "kind":"vcall_offset"
    },
    {
     "kind":"vcall_offset",
     "component_value":-60
    },
    {
     "kind":"offset_to_top",
     "component_value":-60
    },
    {
     "kind":"rtti",
     "mangled_component_name":"_ZTIN7android8hardware7oemlock4V1_09BsOemLockE"
    },
    {
     "kind":"complete_dtor_pointer",
     "mangled_component_name":"_ZTv0_n12_N7android8hardware7oemlock4V1_09BsOemLockD1Ev"
    },
    {
     "kind":"deleting_dtor_pointer",
     "mangled_component_name":"_ZTv0_n12_N7android8hardware7oemlock4V1_09BsOemLockD0Ev"
    },
    {
     "mangled_component_name":"_ZN7android7RefBase10onFirstRefEv"
    },
    {
     "mangled_component_name":"_ZN7android7RefBase15onLastStrongRefEPKv"
    },
    {
     "mangled_component_name":"_ZN7android7RefBase20onIncStrongAttemptedEjPKv"
    },
    {
     "mangled_component_name":"_ZN7android7RefBase13onLastWeakRefEPKv"
    }
   ],
   "unique_id":"_ZTSN7android8hardware7oemlock4V1_09BsOemLockE"
  }
 ],
 "elf_functions":[
  {
   "binding":"weak",
   "name":"_ZN7android8hardware7details13castInterfaceINS0_7oemlock4V1_08IOemLockENS_4hidl4base4V1_05IBaseENS4_11BpHwOemLockEEENS0_6ReturnINS_2spIT_EEEENSC_IT0_EEPKcb"
  },
  {
   "binding":"weak",
   "name":"_ZN7android8hardware7details18getServiceInternalINS0_7oemlock4V1_011BpHwOemLockENS4_8IOemLockEvvEENS_2spIT0_EERKNSt3__112basic_stringIcNSA_11char_traitsIcEENSA_9allocatorIcEEEEbb"
  },
  {
   "name":"_ZN7android8hardware7oemlock4V1_011BnHwOemLock10onTransactEjRKNS0_6ParcelEPS4_jNSt3__18functionIFvRS4_EEE"
  },
  {
   "name":"_ZN7android8hardware7oemlock4V1_011BnHwOemLock12getDebugInfoENSt3__18functionIFvRKNS_4hidl4base4V1_09DebugInfoEEEE"
  },
  {
   "name":"_ZN7android8hardware7oemlock4V1_011BnHwOemLock13_hidl_getNameEPNS_4hidl4base4V1_08BnHwBaseERKNS0_6ParcelEPS9_NSt3__18functionIFvRS9_EEE"
  },
  {
   "name":"_ZN7android8hardware7oemlock4V1_011BnHwOemLock32_hidl_isOemUnlockAllowedByDeviceEPNS_4hidl4base4V1_08BnHwBaseERKNS0_6ParcelEPS9_NSt3__18functionIFvRS9_EEE"
  },
  {
   "name":"_ZN7android8hardware7oemlock4V1_011BnHwOemLock33_hidl_isOemUnlockAllowedByCarrierEPNS_4hidl4base4V1_08BnHwBaseERKNS0_6ParcelEPS9_NSt3__18functionIFvRS9_EEE"
  },
  {
   "name":"_ZN7android8hardware7oemlock4V1_011BnHwOemLock33_hidl_setOemUnlockAllowedByDeviceEPNS_4hidl4base4V1_08BnHwBaseERKNS0_6ParcelEPS9_NSt3__18functionIFvRS9_EEE"
  },
  {
   "name":"_ZN7android8hardware7oemlock4V1_011BnHwOemLock34_hidl_setOemUnlockAllowedByCarrierEPNS_4hidl4base4V1_08BnHwBaseERKNS0_6ParcelEPS9_NSt3__18functionIFvRS9_EEE"
  },
  {
   "name":"_ZN7android8hardware7oemlock4V1_011BnHwOemLock4pingEv"
  },
  {
   "name":"_ZN7android8hardware7oemlock4V1_011BnHwOemLockC1ERKNS_2spINS2_8IOemLockEEE"
  },
  {
   "name":"_ZN7android8hardware7oemlock4V1_011BnHwOemLockC2ERKNS_2spINS2_8IOemLockEEE"
  },
  {
   "name":"_ZN7android8hardware7oemlock4V1_011BnHwOemLockD0Ev"
  },
  {
   "name":"_ZN7android8hardware7oemlock4V1_011BnHwOemLockD1Ev"
  },
  {
   "name":"_ZN7android8hardware7oemlock4V1_011BnHwOemLockD2Ev"
  },
  {
   "name":"_ZN7android8hardware7oemlock4V1_011BpHwOemLock11linkToDeathERKNS_2spINS0_20hidl_death_recipientEEEy"
  },
  {
   "name":"_ZN7android8hardware7oemlock4V1_011BpHwOemLock12getDebugInfoENSt3__18functionIFvRKNS_4hidl4base4V1_09DebugInfoEEEE"
  },
  {
   "name":"_ZN7android8hardware7oemlock4V1_011BpHwOemLock12getHashChainENSt3__18functionIFvRKNS0_8hidl_vecINS0_10hidl_arrayIhLj32EJEEEEEEEE"
  },
  {
   "name":"_ZN7android8hardware7oemlock4V1_011BpHwOemLock13_hidl_getNameEPNS0_10IInterfaceEPNS0_7details16HidlInstrumentorENSt3__18functionIFvNS2_13OemLockStatusERKNS0_11hidl_stringEEEE"
  },
  {
   "name":"_ZN7android8hardware7oemlock4V1_011BpHwOemLock13unlinkToDeathERKNS_2spINS0_20hidl_death_recipientEEE"
  },
  {
   "name":"_ZN7android8hardware7oemlock4V1_011BpHwOemLock14interfaceChainENSt3__18functionIFvRKNS0_8hidl_vecINS0_11hidl_stringEEEEEE"
  },
  {
   "name":"_ZN7android8hardware7oemlock4V1_011BpHwOemLock19interfaceDescriptorENSt3__18functionIFvRKNS0_11hidl_stringEEEE"
  },
  {
   "name":"_ZN7android8hardware7oemlock4V1_011BpHwOemLock21notifySyspropsChangedEv"
  },
  {
   "name":"_ZN7android8hardware7oemlock4V1_011BpHwOemLock21setHALInstrumentationEv"
  },
  {
   "name":"_ZN7android8hardware7oemlock4V1_011BpHwOemLock26isOemUnlockAllowedByDeviceENSt3__18functionIFvNS2_13OemLockStatusEbEEE"
  },
  {
   "name":"_ZN7android8hardware7oemlock4V1_011BpHwOemLock27isOemUnlockAllowedByCarrierENSt3__18functionIFvNS2_13OemLockStatusEbEEE"
  },
  {
   "name":"_ZN7android8hardware7oemlock4V1_011BpHwOemLock27setOemUnlockAllowedByDeviceEb"
  },
  {
   "name":"_ZN7android8hardware7oemlock4V1_011BpHwOemLock28setOemUnlockAllowedByCarrierEbRKNS0_8hidl_vecIhEE"
  },
  {
   "name":"_ZN7android8hardware7oemlock4V1_011BpHwOemLock32_hidl_isOemUnlockAllowedByDeviceEPNS0_10IInterfaceEPNS0_7details16HidlInstrumentorENSt3__18functionIFvNS2_13OemLockStatusEbEEE"
  },
  {
   "name":"_ZN7android8hardware7oemlock4V1_011BpHwOemLock33_hidl_isOemUnlockAllowedByCarrierEPNS0_10IInterfaceEPNS0_7details16HidlInstrumentorENSt3__18functionIFvNS2_13OemLockStatusEbEEE"
  },
  {
   "name":"_ZN7android8hardware7oemlock4V1_011BpHwOemLock33_hidl_setOemUnlockAllowedByDeviceEPNS0_10IInterfaceEPNS0_7details16HidlInstrumentorEb"
  },
  {
   "name":"_ZN7android8hardware7oemlock4V1_011BpHwOemLock34_hidl_setOemUnlockAllowedByCarrierEPNS0_10IInterfaceEPNS0_7details16HidlInstrumentorEbRKNS0_8hidl_vecIhEE"
  },
  {
   "name":"_ZN7android8hardware7oemlock4V1_011BpHwOemLock4pingEv"
  },
  {
   "name":"_ZN7android8hardware7oemlock4V1_011BpHwOemLock5debugERKNS0_11hidl_handleERKNS0_8hidl_vecINS0_11hidl_stringEEE"
  },
  {
   "name":"_ZN7android8hardware7oemlock4V1_011BpHwOemLock7getNameENSt3__18functionIFvNS2_13OemLockStatusERKNS0_11hidl_stringEEEE"
  },
  {
   "name":"_ZN7android8hardware7oemlock4V1_011BpHwOemLockC1ERKNS_2spINS0_7IBinderEEE"
  },
  {
   "name":"_ZN7android8hardware7oemlock4V1_011BpHwOemLockC2ERKNS_2spINS0_7IBinderEEE"
  },
  {
   "name":"_ZN7android8hardware7oemlock4V1_08IOemLock10getServiceERKNSt3__112basic_stringIcNS4_11char_traitsIcEENS4_9allocatorIcEEEEb"
  },
  {
   "name":"_ZN7android8hardware7oemlock4V1_08IOemLock11linkToDeathERKNS_2spINS0_20hidl_death_recipientEEEy"
  },
  {
   "name":"_ZN7android8hardware7oemlock4V1_08IOemLock12getDebugInfoENSt3__18functionIFvRKNS_4hidl4base4V1_09DebugInfoEEEE"
  },
  {
   "name":"_ZN7android8hardware7oemlock4V1_08IOemLock12getHashChainENSt3__18functionIFvRKNS0_8hidl_vecINS0_10hidl_arrayIhLj32EJEEEEEEEE"
  },
  {
   "name":"_ZN7android8hardware7oemlock4V1_08IOemLock13tryGetServiceERKNSt3__112basic_stringIcNS4_11char_traitsIcEENS4_9allocatorIcEEEEb"
  },
  {
   "name":"_ZN7android8hardware7oemlock4V1_08IOemLock13unlinkToDeathERKNS_2spINS0_20hidl_death_recipientEEE"
  },
  {
   "name":"_ZN7android8hardware7oemlock4V1_08IOemLock14interfaceChainENSt3__18functionIFvRKNS0_8hidl_vecINS0_11hidl_stringEEEEEE"
  },
  {
   "name":"_ZN7android8hardware7oemlock4V1_08IOemLock17registerAsServiceERKNSt3__112basic_stringIcNS4_11char_traitsIcEENS4_9allocatorIcEEEE"
  },
  {
   "name":"_ZN7android8hardware7oemlock4V1_08IOemLock19interfaceDescriptorENSt3__18functionIFvRKNS0_11hidl_stringEEEE"
  },
  {
   "name":"_ZN7android8hardware7oemlock4V1_08IOemLock21notifySyspropsChangedEv"
  },
  {
   "name":"_ZN7android8hardware7oemlock4V1_08IOemLock21setHALInstrumentationEv"
  },
  {
   "name":"_ZN7android8hardware7oemlock4V1_08IOemLock24registerForNotificationsERKNSt3__112basic_stringIcNS4_11char_traitsIcEENS4_9allocatorIcEEEERKNS_2spINS_4hidl7manager4V1_020IServiceNotificationEEE"
  },
  {
   "name":"_ZN7android8hardware7oemlock4V1_08IOemLock4pingEv"
  },
  {
   "name":"_ZN7android8hardware7oemlock4V1_08IOemLock5debugERKNS0_11hidl_handleERKNS0_8hidl_vecINS0_11hidl_stringEEE"
  },
  {
   "name":"_ZN7android8hardware7oemlock4V1_08IOemLock8castFromERKNS_2spINS_4hidl4base4V1_05IBaseEEEb"
  },
  {
   "name":"_ZN7android8hardware7oemlock4V1_08IOemLock8castFromERKNS_2spIS3_EEb"
  },
  {
   "name":"_ZN7android8hardware7oemlock4V1_09BsOemLock13addOnewayTaskENSt3__18functionIFvvEEE"
  },
  {
   "name":"_ZN7android8hardware7oemlock4V1_09BsOemLockC1ENS_2spINS2_8IOemLockEEE"
  },
  {
   "name":"_ZN7android8hardware7oemlock4V1_09BsOemLockC2ENS_2spINS2_8IOemLockEEE"
  },
  {
   "binding":"weak",
   "name":"_ZN7android8hardware8toBinderINS_4hidl4base4V1_05IBaseEvEENS_2spINS0_7IBinderEEENS6_IT_EE"
  },
  {
   "name":"_ZThn20_N7android8hardware7oemlock4V1_011BnHwOemLockD0Ev"
  },
  {
   "name":"_ZThn20_N7android8hardware7oemlock4V1_011BnHwOemLockD1Ev"
  },
  {
   "name":"_ZTv0_n12_N7android8hardware7oemlock4V1_011BnHwOemLockD0Ev"
  },
  {
   "name":"_ZTv0_n12_N7android8hardware7oemlock4V1_011BnHwOemLockD1Ev"
  }
 ],
 "elf_objects":[
  {
   "name":"_ZN7android8hardware7oemlock4V1_08IOemLock10descriptorE"
  },
  {
   "name":"_ZTTN7android8hardware7oemlock4V1_011BnHwOemLockE"
  },
  {
   "name":"_ZTTN7android8hardware7oemlock4V1_011BpHwOemLockE"
  },
  {
   "name":"_ZTTN7android8hardware7oemlock4V1_08IOemLockE"
  },
  {
   "name":"_ZTVN7android8hardware7oemlock4V1_011BnHwOemLockE"
  },
  {
   "name":"_ZTVN7android8hardware7oemlock4V1_011BpHwOemLockE"
  },
  {
   "name":"_ZTVN7android8hardware7oemlock4V1_08IOemLockE"
  },
  {
   "binding":"weak",
   "name":"_ZTVN7android8hardware7oemlock4V1_09BsOemLockE"
  }
 ]
}