{
 "record_types":[
  {
   "vtable_components":[
    {
     "kind":"offset_to_top"
    },
    {
     "kind":"rtti",
     "mangled_component_name":"_ZTIN7android6Parcel17FlattenableHelperINS_13GraphicBufferEEE"
    },
    {
     "mangled_component_name":"_ZNK7android6Parcel17FlattenableHelperINS_13GraphicBufferEE16getFlattenedSizeEv"
    },
    {
     "mangled_component_name":"_ZNK7android6Parcel17FlattenableHelperINS_13GraphicBufferEE10getFdCountEv"
    },
    {
     "mangled_component_name":"_ZNK7android6Parcel17FlattenableHelperINS_13GraphicBufferEE7flattenEPvjPij"
    },
    {
     "mangled_component_name":"_ZN7android6Parcel17FlattenableHelperINS_13GraphicBufferEE9unflattenEPKvjPKij"
    }
   ],
   "unique_id":"_ZTSN7android6Parcel17FlattenableHelperINS_13GraphicBufferEEE"
  },
  {
   "vtable_components":[
    {
     "kind":"vbase_offset",
     "component_value":4
    },
    {
     "kind":"offset_to_top"
    },
    {
     "kind":"rtti",
     "mangled_component_name":"_ZTIN7android15IMediaCodecListE"
    },
    {
     "kind":"complete_dtor_pointer",
     "mangled_component_name":"_ZN7android15IMediaCodecListD1Ev"
    },
    {
     "kind":"deleting_dtor_pointer",
     "mangled_component_name":"_ZN7android15IMediaCodecListD0Ev"
    },
    {
     "is_pure":true,
     "mangled_component_name":"_ZN7android10IInterface10onAsBinderEv"
    },
    {
     "mangled_component_name":"_ZNK7android15IMediaCodecList22getInterfaceDescriptorEv"
    },
    {
     "is_pure":true,
     "mangled_component_name":"_ZNK7android15IMediaCodecList11countCodecsEv"
    },
    {
     "is_pure":true,
     "mangled_component_name":"_ZNK7android15IMediaCodecList12getCodecInfoEj"
    },
    {
     "is_pure":true,
     "mangled_component_name":"_ZNK7android15IMediaCodecList17getGlobalSettingsEv"
    },
    {
     "is_pure":true,
     "mangled_component_name":"_ZNK7android15IMediaCodecList15findCodecByTypeEPKcbj"
    },
    {
     "is_pure":true,
     "mangled_component_name":"_ZNK7android15IMediaCodecList15findCodecByNameEPKc"
    },
    {
     "kind":"vcall_offset"
    },
    {
     "kind":"vcall_offset"
    },
    {
     "kind":"vcall_offset"
    },
    {
     "kind":"vcall_offset"
    },
    {
     "kind":"vcall_offset",
     "component_value":-4
    },
    {
     "kind":"offset_to_top",
     "component_value":-4
    },
    {
     "kind":"rtti",
     "mangled_component_name":"_ZTIN7android15IMediaCodecListE"
    },
    {
     "kind":"complete_dtor_pointer",
     "mangled_component_name":"_ZTv0_n12_N7android15IMediaCodecListD1Ev"
    },
    {
     "kind":"deleting_dtor_pointer",
     "mangled_component_name":"_ZTv0_n12_N7android15IMediaCodecListD0Ev"
    },
    {
     "mangled_component_name":"_ZN7android7RefBase10onFirstRefEv"
    },
    {
     "mangled_component_name":"_ZN7android7RefBase15onLastStrongRefEPKv"
    },
    {
     "mangled_component_name":"_ZN7android7RefBase20onIncStrongAttemptedEjPKv"
    },
    {
     "mangled_component_name":"_ZN7android7RefBase13onLastWeakRefEPKv"
    }
   ],
   "unique_id":"_ZTSN7android15IMediaCodecListE"
  },
  {
   "vtable_components":[
    {
     "kind":"offset_to_top"
    },
    {
     "kind":"rtti",
     "mangled_component_name":"_ZTIN7android18OMXFenceParcelableE"
    },
    {
     "kind":"complete_dtor_pointer",
     "mangled_component_name":"_ZN7android18OMXFenceParcelableD1Ev"
    },
    {
     "kind":"deleting_dtor_pointer",
     "mangled_component_name":"_ZN7android18OMXFenceParcelableD0Ev"
    },
    {
     "mangled_component_name":"_ZNK7android18OMXFenceParcelable13writeToParcelEPNS_6ParcelE"
    },
    {
     "mangled_component_name":"_ZN7android18OMXFenceParcelable14readFromParcelEPKNS_6ParcelE"
    }
   ],
   "unique_id":"_ZTSN7android18OMXFenceParcelableE"
  },
  {
   "vtable_components":[
    {
     "kind":"vbase_offset",
     "component_value":20
    },
    {
     "kind":"offset_to_top"
    },
    {
     "kind":"rtti",
     "mangled_component_name":"_ZTIN7android8hardware5media3omx4V1_05utils21LWGraphicBufferSourceE"
    },
    {
     "kind":"complete_dtor_pointer",
     "mangled_component_name":"_ZN7android8hardware5media3omx4V1_05utils21LWGraphicBufferSourceD1Ev"
    },
    {
     "kind":"deleting_dtor_pointer",
     "mangled_component_name":"_ZN7android8hardware5media3omx4V1_05utils21LWGraphicBufferSourceD0Ev"
    },
    {
     "mangled_component_name":"_ZN7android11BnInterfaceINS_20IGraphicBufferSourceEE10onAsBinderEv"
    },
    {
     "mangled_component_name":"_ZNK7android11BnInterfaceINS_20IGraphicBufferSourceEE22getInterfaceDescriptorEv"
    },
    {
     "mangled_component_name":"_ZN7android8hardware5media3omx4V1_05utils21LWGraphicBufferSource9configureERKNS_2spINS_8IOMXNodeEEEi"
    },
    {
     "mangled_component_name":"_ZN7android8hardware5media3omx4V1_05utils21LWGraphicBufferSource10setSuspendEbx"
    },
    {
     "mangled_component_name":"_ZN7android8hardware5media3omx4V1_05utils21LWGraphicBufferSource29setRepeatPreviousFrameDelayUsEx"
    },
    {
     "mangled_component_name":"_ZN7android8hardware5media3omx4V1_05utils21LWGraphicBufferSource9setMaxFpsEf"
    },
    {
     "mangled_component_name":"_ZN7android8hardware5media3omx4V1_05utils21LWGraphicBufferSource18setTimeLapseConfigEdd"
    },
    {
     "mangled_component_name":"_ZN7android8hardware5media3omx4V1_05utils21LWGraphicBufferSource14setStartTimeUsEx"
    },
    {
     "mangled_component_name":"_ZN7android8hardware5media3omx4V1_05utils21LWGraphicBufferSource13setStopTimeUsEx"
    },
    {
     "mangled_component_name":"_ZN7android8hardware5media3omx4V1_05utils21LWGraphicBufferSource19getStopTimeOffsetUsEPx"
    },
    {
     "mangled_component_name":"_ZN7android8hardware5media3omx4V1_05utils21LWGraphicBufferSource15setColorAspectsEi"
    },
    {
     "mangled_component_name":"_ZN7android8hardware5media3omx4V1_05utils21LWGraphicBufferSource15setTimeOffsetUsEx"
    },
    {
     "mangled_component_name":"_ZN7android8hardware5media3omx4V1_05utils21LWGraphicBufferSource22signalEndOfInputStreamEv"
    },
    {
     "mangled_component_name":"_ZN7android11BnInterfaceINS_20IGraphicBufferSourceEE19queryLocalInterfaceERKNS_8String16E"
    },
    {
     "mangled_component_name":"_ZN7android21BnGraphicBufferSource10onTransactEjRKNS_6ParcelEPS1_j"
    },
    {
     "kind":"vbase_offset",
     "component_value":16
    },
    {
     "kind":"offset_to_top",
     "component_value":-4
    },
    {
     "kind":"rtti",
     "mangled_component_name":"_ZTIN7android8hardware5media3omx4V1_05utils21LWGraphicBufferSourceE"
    },
    {
     "mangled_component_name":"_ZThn4_N7android11BnInterfaceINS_20IGraphicBufferSourceEE19queryLocalInterfaceERKNS_8String16E"
    },
    {
     "mangled_component_name":"_ZThn4_NK7android11BnInterfaceINS_20IGraphicBufferSourceEE22getInterfaceDescriptorEv"
    },
    {
     "mangled_component_name":"_ZNK7android7BBinder13isBinderAliveEv"
    },
    {
     "mangled_component_name":"_ZN7android7BBinder10pingBinderEv"
    },
    {
     "mangled_component_name":"_ZN7android7BBinder4dumpEiRKNS_6VectorINS_8String16EEE"
    },
    {
     "mangled_component_name":"_ZN7android7BBinder8transactEjRKNS_6ParcelEPS1_j"
    },
    {
     "mangled_component_name":"_ZN7android7BBinder11linkToDeathERKNS_2spINS_7IBinder14DeathRecipientEEEPvj"
    },
    {
     "mangled_component_name":"_ZN7android7BBinder13unlinkToDeathERKNS_2wpINS_7IBinder14DeathRecipientEEEPvjPS4_"
    },
    {
     "mangled_component_name":"_ZNK7android7IBinder13checkSubclassEPKv"
    },
    {
     "mangled_component_name":"_ZN7android7BBinder12attachObjectEPKvPvS3_PFvS2_S3_S3_E"
    },
    {
     "mangled_component_name":"_ZNK7android7BBinder10findObjectEPKv"
    },
    {
     "mangled_component_name":"_ZN7android7BBinder12detachObjectEPKv"
    },
    {
     "mangled_component_name":"_ZN7android7BBinder11localBinderEv"
    },
    {
     "mangled_component_name":"_ZN7android7IBinder12remoteBinderEv"
    },
    {
     "kind":"complete_dtor_pointer",
     "mangled_component_name":"_ZThn4_N7android8hardware5media3omx4V1_05utils21LWGraphicBufferSourceD1Ev"
    },
    {
     "kind":"deleting_dtor_pointer",
     "mangled_component_name":"_ZThn4_N7android8hardware5media3omx4V1_05utils21LWGraphicBufferSourceD0Ev"
    },
    {
     "mangled_component_name":"_ZThn4_N7android21BnGraphicBufferSource10onTransactEjRKNS_6ParcelEPS1_j"
    },
    {
     "kind":"vcall_offset"
    },
    {
     "kind":"vcall_offset"
    },
    {
     "kind":"vcall_offset"
    },
    {
     "kind":"vcall_offset"
    },
    {
     "kind":"vcall_offset",
     "component_value":-20
    },
    {
     "kind":"offset_to_top",
     "component_value":-20
    },
    {
     "kind":"rtti",
     "mangled_component_name":"_ZTIN7android8hardware5media3omx4V1_05utils21LWGraphicBufferSourceE"
    },
    {
     "kind":"complete_dtor_pointer",
     "mangled_component_name":"_ZTv0_n12_N7android8hardware5media3omx4V1_05utils21LWGraphicBufferSourceD1Ev"
    },
    {
     "kind":"deleting_dtor_pointer",
     "mangled_component_name":"_ZTv0_n12_N7android8hardware5media3omx4V1_05utils21LWGraphicBufferSourceD0Ev"
    },
    {
     "mangled_component_name":"_ZN7android7RefBase10onFirstRefEv"
    },
    {
     "mangled_component_name":"_ZN7android7RefBase15onLastStrongRefEPKv"
    },
    {
     "mangled_component_name":"_ZN7android7RefBase20onIncStrongAttemptedEjPKv"
    },
    {
     "mangled_component_name":"_ZN7android7RefBase13onLastWeakRefEPKv"
    }
   ],
   "unique_id":"_ZTSN7android8hardware5media3omx4V1_05utils21LWGraphicBufferSourceE"
  },
  {
   "vtable_components":[
    {
     "kind":"vbase_offset",
     "component_value":20
    },
    {
     "kind":"offset_to_top"
    },
    {
     "kind":"rtti",
     "mangled_component_name":"_ZTIN7android8hardware5media3omx4V1_05utils5LWOmxE"
    },
    {
     "kind":"complete_dtor_pointer",
     "mangled_component_name":"_ZN7android8hardware5media3omx4V1_05utils5LWOmxD1Ev"
    },
    {
     "kind":"deleting_dtor_pointer",
     "mangled_component_name":"_ZN7android8hardware5media3omx4V1_05utils5LWOmxD0Ev"
    },
    {
     "mangled_component_name":"_ZN7android11BnInterfaceINS_4IOMXEE10onAsBinderEv"
    },
    {
     "mangled_component_name":"_ZNK7android11BnInterfaceINS_4IOMXEE22getInterfaceDescriptorEv"
    },
    {
     "mangled_component_name":"_ZN7android8hardware5media3omx4V1_05utils5LWOmx9listNodesEPNS_4ListINS_4IOMX13ComponentInfoEEE"
    },
    {
     "mangled_component_name":"_ZN7android8hardware5media3omx4V1_05utils5LWOmx12allocateNodeEPKcRKNS_2spINS_12IOMXObserverEEEPNS8_INS_8IOMXNodeEEE"
    },
    {
     "mangled_component_name":"_ZN7android8hardware5media3omx4V1_05utils5LWOmx18createInputSurfaceEPNS_2spINS_22IGraphicBufferProducerEEEPNS6_INS_20IGraphicBufferSourceEEE"
    },
    {
     "mangled_component_name":"_ZN7android11BnInterfaceINS_4IOMXEE19queryLocalInterfaceERKNS_8String16E"
    },
    {
     "mangled_component_name":"_ZN7android5BnOMX10onTransactEjRKNS_6ParcelEPS1_j"
    },
    {
     "kind":"vbase_offset",
     "component_value":16
    },
    {
     "kind":"offset_to_top",
     "component_value":-4
    },
    {
     "kind":"rtti",
     "mangled_component_name":"_ZTIN7android8hardware5media3omx4V1_05utils5LWOmxE"
    },
    {
     "mangled_component_name":"_ZThn4_N7android11BnInterfaceINS_4IOMXEE19queryLocalInterfaceERKNS_8String16E"
    },
    {
     "mangled_component_name":"_ZThn4_NK7android11BnInterfaceINS_4IOMXEE22getInterfaceDescriptorEv"
    },
    {
     "mangled_component_name":"_ZNK7android7BBinder13isBinderAliveEv"
    },
    {
     "mangled_component_name":"_ZN7android7BBinder10pingBinderEv"
    },
    {
     "mangled_component_name":"_ZN7android7BBinder4dumpEiRKNS_6VectorINS_8String16EEE"
    },
    {
     "mangled_component_name":"_ZN7android7BBinder8transactEjRKNS_6ParcelEPS1_j"
    },
    {
     "mangled_component_name":"_ZN7android7BBinder11linkToDeathERKNS_2spINS_7IBinder14DeathRecipientEEEPvj"
    },
    {
     "mangled_component_name":"_ZN7android7BBinder13unlinkToDeathERKNS_2wpINS_7IBinder14DeathRecipientEEEPvjPS4_"
    },
    {
     "mangled_component_name":"_ZNK7android7IBinder13checkSubclassEPKv"
    },
    {
     "mangled_component_name":"_ZN7android7BBinder12attachObjectEPKvPvS3_PFvS2_S3_S3_E"
    },
    {
     "mangled_component_name":"_ZNK7android7BBinder10findObjectEPKv"
    },
    {
     "mangled_component_name":"_ZN7android7BBinder12detachObjectEPKv"
    },
    {
     "mangled_component_name":"_ZN7android7BBinder11localBinderEv"
    },
    {
     "mangled_component_name":"_ZN7android7IBinder12remoteBinderEv"
    },
    {
     "kind":"complete_dtor_pointer",
     "mangled_component_name":"_ZThn4_N7android8hardware5media3omx4V1_05utils5LWOmxD1Ev"
    },
    {
     "kind":"deleting_dtor_pointer",
     "mangled_component_name":"_ZThn4_N7android8hardware5media3omx4V1_05utils5LWOmxD0Ev"
    },
    {
     "mangled_component_name":"_ZThn4_N7android5BnOMX10onTransactEjRKNS_6ParcelEPS1_j"
    },
    {
     "kind":"vcall_offset"
    },
    {
     "kind":"vcall_offset"
    },
    {
     "kind":"vcall_offset"
    },
    {
     "kind":"vcall_offset"
    },
    {
     "kind":"vcall_offset",
     "component_value":-20
    },
    {
     "kind":"offset_to_top",
     "component_value":-20
    },
    {
     "kind":"rtti",
     "mangled_component_name":"_ZTIN7android8hardware5media3omx4V1_05utils5LWOmxE"
    },
    {
     "kind":"complete_dtor_pointer",
     "mangled_component_name":"_ZTv0_n12_N7android8hardware5media3omx4V1_05utils5LWOmxD1Ev"
    },
    {
     "kind":"deleting_dtor_pointer",
     "mangled_component_name":"_ZTv0_n12_N7android8hardware5media3omx4V1_05utils5LWOmxD0Ev"
    },
    {
     "mangled_component_name":"_ZN7android7RefBase10onFirstRefEv"
    },
    {
     "mangled_component_name":"_ZN7android7RefBase15onLastStrongRefEPKv"
    },
    {
     "mangled_component_name":"_ZN7android7RefBase20onIncStrongAttemptedEjPKv"
    },
    {
     "mangled_component_name":"_ZN7android7RefBase13onLastWeakRefEPKv"
    }
   ],
   "unique_id":"_ZTSN7android8hardware5media3omx4V1_05utils5LWOmxE"
  },
  {
   "vtable_components":[
    {
     "kind":"vbase_offset",
     "component_value":20
    },
    {
     "kind":"offset_to_top"
    },
    {
     "kind":"rtti",
     "mangled_component_name":"_ZTIN7android8hardware5media3omx4V1_05utils13LWOmxObserverE"
    },
    {
     "kind":"complete_dtor_pointer",
     "mangled_component_name":"_ZN7android8hardware5media3omx4V1_05utils13LWOmxObserverD1Ev"
    },
    {
     "kind":"deleting_dtor_pointer",
     "mangled_component_name":"_ZN7android8hardware5media3omx4V1_05utils13LWOmxObserverD0Ev"
    },
    {
     "mangled_component_name":"_ZN7android11BnInterfaceINS_12IOMXObserverEE10onAsBinderEv"
    },
    {
     "mangled_component_name":"_ZNK7android11BnInterfaceINS_12IOMXObserverEE22getInterfaceDescriptorEv"
    },
    {
     "mangled_component_name":"_ZN7android8hardware5media3omx4V1_05utils13LWOmxObserver10onMessagesERKNSt3__14listINS_11omx_messageENS6_9allocatorIS8_EEEE"
    },
    {
     "mangled_component_name":"_ZN7android11BnInterfaceINS_12IOMXObserverEE19queryLocalInterfaceERKNS_8String16E"
    },
    {
     "mangled_component_name":"_ZN7android13BnOMXObserver10onTransactEjRKNS_6ParcelEPS1_j"
    },
    {
     "kind":"vbase_offset",
     "component_value":16
    },
    {
     "kind":"offset_to_top",
     "component_value":-4
    },
    {
     "kind":"rtti",
     "mangled_component_name":"_ZTIN7android8hardware5media3omx4V1_05utils13LWOmxObserverE"
    },
    {
     "mangled_component_name":"_ZThn4_N7android11BnInterfaceINS_12IOMXObserverEE19queryLocalInterfaceERKNS_8String16E"
    },
    {
     "mangled_component_name":"_ZThn4_NK7android11BnInterfaceINS_12IOMXObserverEE22getInterfaceDescriptorEv"
    },
    {
     "mangled_component_name":"_ZNK7android7BBinder13isBinderAliveEv"
    },
    {
     "mangled_component_name":"_ZN7android7BBinder10pingBinderEv"
    },
    {
     "mangled_component_name":"_ZN7android7BBinder4dumpEiRKNS_6VectorINS_8String16EEE"
    },
    {
     "mangled_component_name":"_ZN7android7BBinder8transactEjRKNS_6ParcelEPS1_j"
    },
    {
     "mangled_component_name":"_ZN7android7BBinder11linkToDeathERKNS_2spINS_7IBinder14DeathRecipientEEEPvj"
    },
    {
     "mangled_component_name":"_ZN7android7BBinder13unlinkToDeathERKNS_2wpINS_7IBinder14DeathRecipientEEEPvjPS4_"
    },
    {
     "mangled_component_name":"_ZNK7android7IBinder13checkSubclassEPKv"
    },
    {
     "mangled_component_name":"_ZN7android7BBinder12attachObjectEPKvPvS3_PFvS2_S3_S3_E"
    },
    {
     "mangled_component_name":"_ZNK7android7BBinder10findObjectEPKv"
    },
    {
     "mangled_component_name":"_ZN7android7BBinder12detachObjectEPKv"
    },
    {
     "mangled_component_name":"_ZN7android7BBinder11localBinderEv"
    },
    {
     "mangled_component_name":"_ZN7android7IBinder12remoteBinderEv"
    },
    {
     "kind":"complete_dtor_pointer",
     "mangled_component_name":"_ZThn4_N7android8hardware5media3omx4V1_05utils13LWOmxObserverD1Ev"
    },
    {
     "kind":"deleting_dtor_pointer",
     "mangled_component_name":"_ZThn4_N7android8hardware5media3omx4V1_05utils13LWOmxObserverD0Ev"
    },
    {
     "mangled_component_name":"_ZThn4_N7android13BnOMXObserver10onTransactEjRKNS_6ParcelEPS1_j"
    },
    {
     "kind":"vcall_offset"
    },
    {
     "kind":"vcall_offset"
    },
    {
     "kind":"vcall_offset"
    },
    {
     "kind":"vcall_offset"
    },
    {
     "kind":"vcall_offset",
     "component_value":-20
    },
    {
     "kind":"offset_to_top",
     "component_value":-20
    },
    {
     "kind":"rtti",
     "mangled_component_name":"_ZTIN7android8hardware5media3omx4V1_05utils13LWOmxObserverE"
    },
    {
     "kind":"complete_dtor_pointer",
     "mangled_component_name":"_ZTv0_n12_N7android8hardware5media3omx4V1_05utils13LWOmxObserverD1Ev"
    },
    {
     "kind":"deleting_dtor_pointer",
     "mangled_component_name":"_ZTv0_n12_N7android8hardware5media3omx4V1_05utils13LWOmxObserverD0Ev"
    },
    {
     "mangled_component_name":"_ZN7android7RefBase10onFirstRefEv"
    },
    {
     "mangled_component_name":"_ZN7android7RefBase15onLastStrongRefEPKv"
    },
    {
     "mangled_component_name":"_ZN7android7RefBase20onIncStrongAttemptedEjPKv"
    },
    {
     "mangled_component_name":"_ZN7android7RefBase13onLastWeakRefEPKv"
    }
   ],
   "unique_id":"_ZTSN7android8hardware5media3omx4V1_05utils13LWOmxObserverE"
  },
  {
   "vtable_components":[
    {
     "kind":"vbase_offset",
     "component_value":8
    },
    {
     "kind":"offset_to_top"
    },
    {
     "kind":"rtti",
     "mangled_component_name":"_ZTIN7android8hardware5media3omx4V1_05utils13TWOmxObserverE"
    },
    {
     "mangled_component_name":"_ZNK7android8hardware5media3omx4V1_012IOmxObserver8isRemoteEv"
    },
    {
     "mangled_component_name":"_ZN7android8hardware5media3omx4V1_012IOmxObserver14interfaceChainENSt3__18functionIFvRKNS0_8hidl_vecINS0_11hidl_stringEEEEEE"
    },
    {
     "mangled_component_name":"_ZN7android8hardware5media3omx4V1_012IOmxObserver5debugERKNS0_11hidl_handleERKNS0_8hidl_vecINS0_11hidl_stringEEE"
    },
    {
     "mangled_component_name":"_ZN7android8hardware5media3omx4V1_012IOmxObserver19interfaceDescriptorENSt3__18functionIFvRKNS0_11hidl_stringEEEE"
    },
    {
     "mangled_component_name":"_ZN7android8hardware5media3omx4V1_012IOmxObserver12getHashChainENSt3__18functionIFvRKNS0_8hidl_vecINS0_10hidl_arrayIhLj32EJEEEEEEEE"
    },
    {
     "mangled_component_name":"_ZN7android8hardware5media3omx4V1_012IOmxObserver21setHALInstrumentationEv"
    },
    {
     "mangled_component_name":"_ZN7android8hardware5media3omx4V1_012IOmxObserver11linkToDeathERKNS_2spINS0_20hidl_death_recipientEEEy"
    },
    {
     "mangled_component_name":"_ZN7android8hardware5media3omx4V1_012IOmxObserver4pingEv"
    },
    {
     "mangled_component_name":"_ZN7android8hardware5media3omx4V1_012IOmxObserver12getDebugInfoENSt3__18functionIFvRKNS_4hidl4base4V1_09DebugInfoEEEE"
    },
    {
     "mangled_component_name":"_ZN7android8hardware5media3omx4V1_012IOmxObserver21notifySyspropsChangedEv"
    },
    {
     "mangled_component_name":"_ZN7android8hardware5media3omx4V1_012IOmxObserver13unlinkToDeathERKNS_2spINS0_20hidl_death_recipientEEE"
    },
    {
     "kind":"complete_dtor_pointer",
     "mangled_component_name":"_ZN7android8hardware5media3omx4V1_05utils13TWOmxObserverD1Ev"
    },
    {
     "kind":"deleting_dtor_pointer",
     "mangled_component_name":"_ZN7android8hardware5media3omx4V1_05utils13TWOmxObserverD0Ev"
    },
    {
     "mangled_component_name":"_ZN7android8hardware5media3omx4V1_05utils13TWOmxObserver10onMessagesERKNS0_8hidl_vecINS3_7MessageEEE"
    },
    {
     "kind":"vcall_offset"
    },
    {
     "kind":"vcall_offset"
    },
    {
     "kind":"vcall_offset"
    },
    {
     "kind":"vcall_offset"
    },
    {
     "kind":"vcall_offset",
     "component_value":-8
    },
    {
     "kind":"offset_to_top",
     "component_value":-8
    },
    {
     "kind":"rtti",
     "mangled_component_name":"_ZTIN7android8hardware5media3omx4V1_05utils13TWOmxObserverE"
    },
    {
     "kind":"complete_dtor_pointer",
     "mangled_component_name":"_ZTv0_n12_N7android8hardware5media3omx4V1_05utils13TWOmxObserverD1Ev"
    },
    {
     "kind":"deleting_dtor_pointer",
     "mangled_component_name":"_ZTv0_n12_N7android8hardware5media3omx4V1_05utils13TWOmxObserverD0Ev"
    },
    {
     "mangled_component_name":"_ZN7android7RefBase10onFirstRefEv"
    },
    {
     "mangled_component_name":"_ZN7android7RefBase15onLastStrongRefEPKv"
    },
    {
     "mangled_component_name":"_ZN7android7RefBase20onIncStrongAttemptedEjPKv"
    },
    {
     "mangled_component_name":"_ZN7android7RefBase13onLastWeakRefEPKv"
    }
   ],
   "unique_id":"_ZTSN7android8hardware5media3omx4V1_05utils13TWOmxObserverE"
  },
  {
   "vtable_components":[
    {
     "kind":"vbase_offset",
     "component_value":20
    },
    {
     "kind":"offset_to_top"
    },
    {
     "kind":"rtti",
     "mangled_component_name":"_ZTIN7android8hardware5media3omx4V1_05utils17LWOmxBufferSourceE"
    },
    {
     "kind":"complete_dtor_pointer",
     "mangled_component_name":"_ZN7android8hardware5media3omx4V1_05utils17LWOmxBufferSourceD1Ev"
    },
    {
     "kind":"deleting_dtor_pointer",
     "mangled_component_name":"_ZN7android8hardware5media3omx4V1_05utils17LWOmxBufferSourceD0Ev"
    },
    {
     "mangled_component_name":"_ZN7android11BnInterfaceINS_16IOMXBufferSourceEE10onAsBinderEv"
    },
    {
     "mangled_component_name":"_ZNK7android11BnInterfaceINS_16IOMXBufferSourceEE22getInterfaceDescriptorEv"
    },
    {
     "mangled_component_name":"_ZN7android8hardware5media3omx4V1_05utils17LWOmxBufferSource14onOmxExecutingEv"
    },
    {
     "mangled_component_name":"_ZN7android8hardware5media3omx4V1_05utils17LWOmxBufferSource9onOmxIdleEv"
    },
    {
     "mangled_component_name":"_ZN7android8hardware5media3omx4V1_05utils17LWOmxBufferSource11onOmxLoadedEv"
    },
    {
     "mangled_component_name":"_ZN7android8hardware5media3omx4V1_05utils17LWOmxBufferSource18onInputBufferAddedEi"
    },
    {
     "mangled_component_name":"_ZN7android8hardware5media3omx4V1_05utils17LWOmxBufferSource20onInputBufferEmptiedEiRKNS_18OMXFenceParcelableE"
    },
    {
     "mangled_component_name":"_ZN7android11BnInterfaceINS_16IOMXBufferSourceEE19queryLocalInterfaceERKNS_8String16E"
    },
    {
     "mangled_component_name":"_ZN7android17BnOMXBufferSource10onTransactEjRKNS_6ParcelEPS1_j"
    },
    {
     "kind":"vbase_offset",
     "component_value":16
    },
    {
     "kind":"offset_to_top",
     "component_value":-4
    },
    {
     "kind":"rtti",
     "mangled_component_name":"_ZTIN7android8hardware5media3omx4V1_05utils17LWOmxBufferSourceE"
    },
    {
     "mangled_component_name":"_ZThn4_N7android11BnInterfaceINS_16IOMXBufferSourceEE19queryLocalInterfaceERKNS_8String16E"
    },
    {
     "mangled_component_name":"_ZThn4_NK7android11BnInterfaceINS_16IOMXBufferSourceEE22getInterfaceDescriptorEv"
    },
    {
     "mangled_component_name":"_ZNK7android7BBinder13isBinderAliveEv"
    },
    {
     "mangled_component_name":"_ZN7android7BBinder10pingBinderEv"
    },
    {
     "mangled_component_name":"_ZN7android7BBinder4dumpEiRKNS_6VectorINS_8String16EEE"
    },
    {
     "mangled_component_name":"_ZN7android7BBinder8transactEjRKNS_6ParcelEPS1_j"
    },
    {
     "mangled_component_name":"_ZN7android7BBinder11linkToDeathERKNS_2spINS_7IBinder14DeathRecipientEEEPvj"
    },
    {
     "mangled_component_name":"_ZN7android7BBinder13unlinkToDeathERKNS_2wpINS_7IBinder14DeathRecipientEEEPvjPS4_"
    },
    {
     "mangled_component_name":"_ZNK7android7IBinder13checkSubclassEPKv"
    },
    {
     "mangled_component_name":"_ZN7android7BBinder12attachObjectEPKvPvS3_PFvS2_S3_S3_E"
    },
    {
     "mangled_component_name":"_ZNK7android7BBinder10findObjectEPKv"
    },
    {
     "mangled_component_name":"_ZN7android7BBinder12detachObjectEPKv"
    },
    {
     "mangled_component_name":"_ZN7android7BBinder11localBinderEv"
    },
    {
     "mangled_component_name":"_ZN7android7IBinder12remoteBinderEv"
    },
    {
     "kind":"complete_dtor_pointer",
     "mangled_component_name":"_ZThn4_N7android8hardware5media3omx4V1_05utils17LWOmxBufferSourceD1Ev"
    },
    {
     "kind":"deleting_dtor_pointer",
     "mangled_component_name":"_ZThn4_N7android8hardware5media3omx4V1_05utils17LWOmxBufferSourceD0Ev"
    },
    {
     "mangled_component_name":"_ZThn4_N7android17BnOMXBufferSource10onTransactEjRKNS_6ParcelEPS1_j"
    },
    {
     "kind":"vcall_offset"
    },
    {
     "kind":"vcall_offset"
    },
    {
     "kind":"vcall_offset"
    },
    {
     "kind":"vcall_offset"
    },
    {
     "kind":"vcall_offset",
     "component_value":-20
    },
    {
     "kind":"offset_to_top",
     "component_value":-20
    },
    {
     "kind":"rtti",
     "mangled_component_name":"_ZTIN7android8hardware5media3omx4V1_05utils17LWOmxBufferSourceE"
    },
    {
     "kind":"complete_dtor_pointer",
     "mangled_component_name":"_ZTv0_n12_N7android8hardware5media3omx4V1_05utils17LWOmxBufferSourceD1Ev"
    },
    {
     "kind":"deleting_dtor_pointer",
     "mangled_component_name":"_ZTv0_n12_N7android8hardware5media3omx4V1_05utils17LWOmxBufferSourceD0Ev"
    },
    {
     "mangled_component_name":"_ZN7android7RefBase10onFirstRefEv"
    },
    {
     "mangled_component_name":"_ZN7android7RefBase15onLastStrongRefEPKv"
    },
    {
     "mangled_component_name":"_ZN7android7RefBase20onIncStrongAttemptedEjPKv"
    },
    {
     "mangled_component_name":"_ZN7android7RefBase13onLastWeakRefEPKv"
    }
   ],
   "unique_id":"_ZTSN7android8hardware5media3omx4V1_05utils17LWOmxBufferSourceE"
  },
  {
   "vtable_components":[
    {
     "kind":"vbase_offset",
     "component_value":8
    },
    {
     "kind":"offset_to_top"
    },
    {
     "kind":"rtti",
     "mangled_component_name":"_ZTIN7android8hardware5media3omx4V1_05utils17TWOmxBufferSourceE"
    },
    {
     "mangled_component_name":"_ZNK7android8hardware5media3omx4V1_016IOmxBufferSource8isRemoteEv"
    },
    {
     "mangled_component_name":"_ZN7android8hardware5media3omx4V1_016IOmxBufferSource14interfaceChainENSt3__18functionIFvRKNS0_8hidl_vecINS0_11hidl_stringEEEEEE"
    },
    {
     "mangled_component_name":"_ZN7android8hardware5media3omx4V1_016IOmxBufferSource5debugERKNS0_11hidl_handleERKNS0_8hidl_vecINS0_11hidl_stringEEE"
    },
    {
     "mangled_component_name":"_ZN7android8hardware5media3omx4V1_016IOmxBufferSource19interfaceDescriptorENSt3__18functionIFvRKNS0_11hidl_stringEEEE"
    },
    {
     "mangled_component_name":"_ZN7android8hardware5media3omx4V1_016IOmxBufferSource12getHashChainENSt3__18functionIFvRKNS0_8hidl_vecINS0_10hidl_arrayIhLj32EJEEEEEEEE"
    },
    {
     "mangled_component_name":"_ZN7android8hardware5media3omx4V1_016IOmxBufferSource21setHALInstrumentationEv"
    },
    {
     "mangled_component_name":"_ZN7android8hardware5media3omx4V1_016IOmxBufferSource11linkToDeathERKNS_2spINS0_20hidl_death_recipientEEEy"
    },
    {
     "mangled_component_name":"_ZN7android8hardware5media3omx4V1_016IOmxBufferSource4pingEv"
    },
    {
     "mangled_component_name":"_ZN7android8hardware5media3omx4V1_016IOmxBufferSource12getDebugInfoENSt3__18functionIFvRKNS_4hidl4base4V1_09DebugInfoEEEE"
    },
    {
     "mangled_component_name":"_ZN7android8hardware5media3omx4V1_016IOmxBufferSource21notifySyspropsChangedEv"
    },
    {
     "mangled_component_name":"_ZN7android8hardware5media3omx4V1_016IOmxBufferSource13unlinkToDeathERKNS_2spINS0_20hidl_death_recipientEEE"
    },
    {
     "kind":"complete_dtor_pointer",
     "mangled_component_name":"_ZN7android8hardware5media3omx4V1_05utils17TWOmxBufferSourceD1Ev"
    },
    {
     "kind":"deleting_dtor_pointer",
     "mangled_component_name":"_ZN7android8hardware5media3omx4V1_05utils17TWOmxBufferSourceD0Ev"
    },
    {
     "mangled_component_name":"_ZN7android8hardware5media3omx4V1_05utils17TWOmxBufferSource14onOmxExecutingEv"
    },
    {
     "mangled_component_name":"_ZN7android8hardware5media3omx4V1_05utils17TWOmxBufferSource9onOmxIdleEv"
    },
    {
     "mangled_component_name":"_ZN7android8hardware5media3omx4V1_05utils17TWOmxBufferSource11onOmxLoadedEv"
    },
    {
     "mangled_component_name":"_ZN7android8hardware5media3omx4V1_05utils17TWOmxBufferSource18onInputBufferAddedEj"
    },
    {
     "mangled_component_name":"_ZN7android8hardware5media3omx4V1_05utils17TWOmxBufferSource20onInputBufferEmptiedEjRKNS0_11hidl_handleE"
    },
    {
     "kind":"vcall_offset"
    },
    {
     "kind":"vcall_offset"
    },
    {
     "kind":"vcall_offset"
    },
    {
     "kind":"vcall_offset"
    },
    {
     "kind":"vcall_offset",
     "component_value":-8
    },
    {
     "kind":"offset_to_top",
     "component_value":-8
    },
    {
     "kind":"rtti",
     "mangled_component_name":"_ZTIN7android8hardware5media3omx4V1_05utils17TWOmxBufferSourceE"
    },
    {
     "kind":"complete_dtor_pointer",
     "mangled_component_name":"_ZTv0_n12_N7android8hardware5media3omx4V1_05utils17TWOmxBufferSourceD1Ev"
    },
    {
     "kind":"deleting_dtor_pointer",
     "mangled_component_name":"_ZTv0_n12_N7android8hardware5media3omx4V1_05utils17TWOmxBufferSourceD0Ev"
    },
    {
     "mangled_component_name":"_ZN7android7RefBase10onFirstRefEv"
    },
    {
     "mangled_component_name":"_ZN7android7RefBase15onLastStrongRefEPKv"
    },
    {
     "mangled_component_name":"_ZN7android7RefBase20onIncStrongAttemptedEjPKv"
    },
    {
     "mangled_component_name":"_ZN7android7RefBase13onLastWeakRefEPKv"
    }
   ],
   "unique_id":"_ZTSN7android8hardware5media3omx4V1_05utils17TWOmxBufferSourceE"
  },
  {
   "vtable_components":[
    {
     "kind":"vbase_offset",
     "component_value":16
    },
    {
     "kind":"offset_to_top"
    },
    {
     "kind":"rtti",
     "mangled_component_name":"_ZTIN7android16BnMediaCodecListE"
    },
    {
     "kind":"complete_dtor_pointer",
     "mangled_component_name":"_ZN7android16BnMediaCodecListD1Ev"
    },
    {
     "kind":"deleting_dtor_pointer",
     "mangled_component_name":"_ZN7android16BnMediaCodecListD0Ev"
    },
    {
     "mangled_component_name":"_ZN7android11BnInterfaceINS_15IMediaCodecListEE10onAsBinderEv"
    },
    {
     "mangled_component_name":"_ZNK7android11BnInterfaceINS_15IMediaCodecListEE22getInterfaceDescriptorEv"
    },
    {
     "is_pure":true,
     "mangled_component_name":"_ZNK7android15IMediaCodecList11countCodecsEv"
    },
    {
     "is_pure":true,
     "mangled_component_name":"_ZNK7android15IMediaCodecList12getCodecInfoEj"
    },
    {
     "is_pure":true,
     "mangled_component_name":"_ZNK7android15IMediaCodecList17getGlobalSettingsEv"
    },
    {
     "is_pure":true,
     "mangled_component_name":"_ZNK7android15IMediaCodecList15findCodecByTypeEPKcbj"
    },
    {
     "is_pure":true,
     "mangled_component_name":"_ZNK7android15IMediaCodecList15findCodecByNameEPKc"
    },
    {
     "mangled_component_name":"_ZN7android11BnInterfaceINS_15IMediaCodecListEE19queryLocalInterfaceERKNS_8String16E"
    },
    {
     "mangled_component_name":"_ZN7android16BnMediaCodecList10onTransactEjRKNS_6ParcelEPS1_j"
    },
    {
     "kind":"vbase_offset",
     "component_value":12
    },
    {
     "kind":"offset_to_top",
     "component_value":-4
    },
    {
     "kind":"rtti",
     "mangled_component_name":"_ZTIN7android16BnMediaCodecListE"
    },
    {
     "mangled_component_name":"_ZThn4_N7android11BnInterfaceINS_15IMediaCodecListEE19queryLocalInterfaceERKNS_8String16E"
    },
    {
     "mangled_component_name":"_ZThn4_NK7android11BnInterfaceINS_15IMediaCodecListEE22getInterfaceDescriptorEv"
    },
    {
     "mangled_component_name":"_ZNK7android7BBinder13isBinderAliveEv"
    },
    {
     "mangled_component_name":"_ZN7android7BBinder10pingBinderEv"
    },
    {
     "mangled_component_name":"_ZN7android7BBinder4dumpEiRKNS_6VectorINS_8String16EEE"
    },
    {
     "mangled_component_name":"_ZN7android7BBinder8transactEjRKNS_6ParcelEPS1_j"
    },
    {
     "mangled_component_name":"_ZN7android7BBinder11linkToDeathERKNS_2spINS_7IBinder14DeathRecipientEEEPvj"
    },
    {
     "mangled_component_name":"_ZN7android7BBinder13unlinkToDeathERKNS_2wpINS_7IBinder14DeathRecipientEEEPvjPS4_"
    },
    {
     "mangled_component_name":"_ZNK7android7IBinder13checkSubclassEPKv"
    },
    {
     "mangled_component_name":"_ZN7android7BBinder12attachObjectEPKvPvS3_PFvS2_S3_S3_E"
    },
    {
     "mangled_component_name":"_ZNK7android7BBinder10findObjectEPKv"
    },
    {
     "mangled_component_name":"_ZN7android7BBinder12detachObjectEPKv"
    },
    {
     "mangled_component_name":"_ZN7android7BBinder11localBinderEv"
    },
    {
     "mangled_component_name":"_ZN7android7IBinder12remoteBinderEv"
    },
    {
     "kind":"complete_dtor_pointer",
     "mangled_component_name":"_ZThn4_N7android16BnMediaCodecListD1Ev"
    },
    {
     "kind":"deleting_dtor_pointer",
     "mangled_component_name":"_ZThn4_N7android16BnMediaCodecListD0Ev"
    },
    {
     "mangled_component_name":"_ZThn4_N7android16BnMediaCodecList10onTransactEjRKNS_6ParcelEPS1_j"
    },
    {
     "kind":"vcall_offset"
    },
    {
     "kind":"vcall_offset"
    },
    {
     "kind":"vcall_offset"
    },
    {
     "kind":"vcall_offset"
    },
    {
     "kind":"vcall_offset",
     "component_value":-16
    },
    {
     "kind":"offset_to_top",
     "component_value":-16
    },
    {
     "kind":"rtti",
     "mangled_component_name":"_ZTIN7android16BnMediaCodecListE"
    },
    {
     "kind":"complete_dtor_pointer",
     "mangled_component_name":"_ZTv0_n12_N7android16BnMediaCodecListD1Ev"
    },
    {
     "kind":"deleting_dtor_pointer",
     "mangled_component_name":"_ZTv0_n12_N7android16BnMediaCodecListD0Ev"
    },
    {
     "mangled_component_name":"_ZN7android7RefBase10onFirstRefEv"
    },
    {
     "mangled_component_name":"_ZN7android7RefBase15onLastStrongRefEPKv"
    },
    {
     "mangled_component_name":"_ZN7android7RefBase20onIncStrongAttemptedEjPKv"
    },
    {
     "mangled_component_name":"_ZN7android7RefBase13onLastWeakRefEPKv"
    }
   ],
   "unique_id":"_ZTSN7android16BnMediaCodecListE"
  },
  {
   "vtable_components":[
    {
     "kind":"vbase_offset",
     "component_value":8
    },
    {
     "kind":"offset_to_top"
    },
    {
     "kind":"rtti",
     "mangled_component_name":"_ZTIN7android8hardware5media3omx4V1_05utils9TWOmxNodeE"
    },
    {
     "mangled_component_name":"_ZNK7android8hardware5media3omx4V1_08IOmxNode8isRemoteEv"
    },
    {
     "mangled_component_name":"_ZN7android8hardware5media3omx4V1_08IOmxNode14interfaceChainENSt3__18functionIFvRKNS0_8hidl_vecINS0_11hidl_stringEEEEEE"
    },
    {
     "mangled_component_name":"_ZN7android8hardware5media3omx4V1_08IOmxNode5debugERKNS0_11hidl_handleERKNS0_8hidl_vecINS0_11hidl_stringEEE"
    },
    {
     "mangled_component_name":"_ZN7android8hardware5media3omx4V1_08IOmxNode19interfaceDescriptorENSt3__18functionIFvRKNS0_11hidl_stringEEEE"
    },
    {
     "mangled_component_name":"_ZN7android8hardware5media3omx4V1_08IOmxNode12getHashChainENSt3__18functionIFvRKNS0_8hidl_vecINS0_10hidl_arrayIhLj32EJEEEEEEEE"
    },
    {
     "mangled_component_name":"_ZN7android8hardware5media3omx4V1_08IOmxNode21setHALInstrumentationEv"
    },
    {
     "mangled_component_name":"_ZN7android8hardware5media3omx4V1_08IOmxNode11linkToDeathERKNS_2spINS0_20hidl_death_recipientEEEy"
    },
    {
     "mangled_component_name":"_ZN7android8hardware5media3omx4V1_08IOmxNode4pingEv"
    },
    {
     "mangled_component_name":"_ZN7android8hardware5media3omx4V1_08IOmxNode12getDebugInfoENSt3__18functionIFvRKNS_4hidl4base4V1_09DebugInfoEEEE"
    },
    {
     "mangled_component_name":"_ZN7android8hardware5media3omx4V1_08IOmxNode21notifySyspropsChangedEv"
    },
    {
     "mangled_component_name":"_ZN7android8hardware5media3omx4V1_08IOmxNode13unlinkToDeathERKNS_2spINS0_20hidl_death_recipientEEE"
    },
    {
     "kind":"complete_dtor_pointer",
     "mangled_component_name":"_ZN7android8hardware5media3omx4V1_05utils9TWOmxNodeD1Ev"
    },
    {
     "kind":"deleting_dtor_pointer",
     "mangled_component_name":"_ZN7android8hardware5media3omx4V1_05utils9TWOmxNodeD0Ev"
    },
    {
     "mangled_component_name":"_ZN7android8hardware5media3omx4V1_05utils9TWOmxNode8freeNodeEv"
    },
    {
     "mangled_component_name":"_ZN7android8hardware5media3omx4V1_05utils9TWOmxNode11sendCommandEji"
    },
    {
     "mangled_component_name":"_ZN7android8hardware5media3omx4V1_05utils9TWOmxNode12getParameterEjRKNS0_8hidl_vecIhEENSt3__18functionIFvNS3_6StatusES9_EEE"
    },
    {
     "mangled_component_name":"_ZN7android8hardware5media3omx4V1_05utils9TWOmxNode12setParameterEjRKNS0_8hidl_vecIhEE"
    },
    {
     "mangled_component_name":"_ZN7android8hardware5media3omx4V1_05utils9TWOmxNode9getConfigEjRKNS0_8hidl_vecIhEENSt3__18functionIFvNS3_6StatusES9_EEE"
    },
    {
     "mangled_component_name":"_ZN7android8hardware5media3omx4V1_05utils9TWOmxNode9setConfigEjRKNS0_8hidl_vecIhEE"
    },
    {
     "mangled_component_name":"_ZN7android8hardware5media3omx4V1_05utils9TWOmxNode11setPortModeEjNS3_8PortModeE"
    },
    {
     "mangled_component_name":"_ZN7android8hardware5media3omx4V1_05utils9TWOmxNode26prepareForAdaptivePlaybackEjbjj"
    },
    {
     "mangled_component_name":"_ZN7android8hardware5media3omx4V1_05utils9TWOmxNode24configureVideoTunnelModeEjbjNSt3__18functionIFvNS3_6StatusERKNS0_11hidl_handleEEEE"
    },
    {
     "mangled_component_name":"_ZN7android8hardware5media3omx4V1_05utils9TWOmxNode21getGraphicBufferUsageEjNSt3__18functionIFvNS3_6StatusEjEEE"
    },
    {
     "mangled_component_name":"_ZN7android8hardware5media3omx4V1_05utils9TWOmxNode15setInputSurfaceERKNS_2spINS3_16IOmxBufferSourceEEE"
    },
    {
     "mangled_component_name":"_ZN7android8hardware5media3omx4V1_05utils9TWOmxNode20allocateSecureBufferEjyNSt3__18functionIFvNS3_6StatusEjRKNS0_11hidl_handleEEEE"
    },
    {
     "mangled_component_name":"_ZN7android8hardware5media3omx4V1_05utils9TWOmxNode9useBufferEjRKNS3_11CodecBufferENSt3__18functionIFvNS3_6StatusEjEEE"
    },
    {
     "mangled_component_name":"_ZN7android8hardware5media3omx4V1_05utils9TWOmxNode10freeBufferEjj"
    },
    {
     "mangled_component_name":"_ZN7android8hardware5media3omx4V1_05utils9TWOmxNode10fillBufferEjRKNS3_11CodecBufferERKNS0_11hidl_handleE"
    },
    {
     "mangled_component_name":"_ZN7android8hardware5media3omx4V1_05utils9TWOmxNode11emptyBufferEjRKNS3_11CodecBufferEjyRKNS0_11hidl_handleE"
    },
    {
     "mangled_component_name":"_ZN7android8hardware5media3omx4V1_05utils9TWOmxNode17getExtensionIndexERKNS0_11hidl_stringENSt3__18functionIFvNS3_6StatusEjEEE"
    },
    {
     "mangled_component_name":"_ZN7android8hardware5media3omx4V1_05utils9TWOmxNode15dispatchMessageERKNS3_7MessageE"
    },
    {
     "kind":"vcall_offset"
    },
    {
     "kind":"vcall_offset"
    },
    {
     "kind":"vcall_offset"
    },
    {
     "kind":"vcall_offset"
    },
    {
     "kind":"vcall_offset",
     "component_value":-8
    },
    {
     "kind":"offset_to_top",
     "component_value":-8
    },
    {
     "kind":"rtti",
     "mangled_component_name":"_ZTIN7android8hardware5media3omx4V1_05utils9TWOmxNodeE"
    },
    {
     "kind":"complete_dtor_pointer",
     "mangled_component_name":"_ZTv0_n12_N7android8hardware5media3omx4V1_05utils9TWOmxNodeD1Ev"
    },
    {
     "kind":"deleting_dtor_pointer",
     "mangled_component_name":"_ZTv0_n12_N7android8hardware5media3omx4V1_05utils9TWOmxNodeD0Ev"
    },
    {
     "mangled_component_name":"_ZN7android7RefBase10onFirstRefEv"
    },
    {
     "mangled_component_name":"_ZN7android7RefBase15onLastStrongRefEPKv"
    },
    {
     "mangled_component_name":"_ZN7android7RefBase20onIncStrongAttemptedEjPKv"
    },
    {
     "mangled_component_name":"_ZN7android7RefBase13onLastWeakRefEPKv"
    }
   ],
   "unique_id":"_ZTSN7android8hardware5media3omx4V1_05utils9TWOmxNodeE"
  },
  {
   "vtable_components":[
    {
     "kind":"vbase_offset",
     "component_value":4
    },
    {
     "kind":"offset_to_top"
    },
    {
     "kind":"rtti",
     "mangled_component_name":"_ZTIN7android8IOMXNodeE"
    },
    {
     "kind":"complete_dtor_pointer",
     "mangled_component_name":"_ZN7android8IOMXNodeD1Ev"
    },
    {
     "kind":"deleting_dtor_pointer",
     "mangled_component_name":"_ZN7android8IOMXNodeD0Ev"
    },
    {
     "is_pure":true,
     "mangled_component_name":"_ZN7android10IInterface10onAsBinderEv"
    },
    {
     "mangled_component_name":"_ZNK7android8IOMXNode22getInterfaceDescriptorEv"
    },
    {
     "mangled_component_name":"_ZN7android8IOMXNode15getHalInterfaceEv"
    },
    {
     "is_pure":true,
     "mangled_component_name":"_ZN7android8IOMXNode8freeNodeEv"
    },
    {
     "is_pure":true,
     "mangled_component_name":"_ZN7android8IOMXNode11sendCommandE15OMX_COMMANDTYPEi"
    },
    {
     "is_pure":true,
     "mangled_component_name":"_ZN7android8IOMXNode12getParameterE13OMX_INDEXTYPEPvj"
    },
    {
     "is_pure":true,
     "mangled_component_name":"_ZN7android8IOMXNode12setParameterE13OMX_INDEXTYPEPKvj"
    },
    {
     "is_pure":true,
     "mangled_component_name":"_ZN7android8IOMXNode9getConfigE13OMX_INDEXTYPEPvj"
    },
    {
     "is_pure":true,
     "mangled_component_name":"_ZN7android8IOMXNode9setConfigE13OMX_INDEXTYPEPKvj"
    },
    {
     "is_pure":true,
     "mangled_component_name":"_ZN7android8IOMXNode11setPortModeEjNS_4IOMX8PortModeE"
    },
    {
     "is_pure":true,
     "mangled_component_name":"_ZN7android8IOMXNode26prepareForAdaptivePlaybackEj8OMX_BOOLjj"
    },
    {
     "is_pure":true,
     "mangled_component_name":"_ZN7android8IOMXNode24configureVideoTunnelModeEj8OMX_BOOLjPP13native_handle"
    },
    {
     "is_pure":true,
     "mangled_component_name":"_ZN7android8IOMXNode21getGraphicBufferUsageEjPj"
    },
    {
     "is_pure":true,
     "mangled_component_name":"_ZN7android8IOMXNode15setInputSurfaceERKNS_2spINS_16IOMXBufferSourceEEE"
    },
    {
     "is_pure":true,
     "mangled_component_name":"_ZN7android8IOMXNode20allocateSecureBufferEjjPjPPvPNS_2spINS_12NativeHandleEEE"
    },
    {
     "is_pure":true,
     "mangled_component_name":"_ZN7android8IOMXNode9useBufferEjRKNS_9OMXBufferEPj"
    },
    {
     "is_pure":true,
     "mangled_component_name":"_ZN7android8IOMXNode10freeBufferEjj"
    },
    {
     "is_pure":true,
     "mangled_component_name":"_ZN7android8IOMXNode10fillBufferEjRKNS_9OMXBufferEi"
    },
    {
     "is_pure":true,
     "mangled_component_name":"_ZN7android8IOMXNode11emptyBufferEjRKNS_9OMXBufferEjxi"
    },
    {
     "is_pure":true,
     "mangled_component_name":"_ZN7android8IOMXNode17getExtensionIndexEPKcP13OMX_INDEXTYPE"
    },
    {
     "is_pure":true,
     "mangled_component_name":"_ZN7android8IOMXNode15dispatchMessageERKNS_11omx_messageE"
    },
    {
     "kind":"vcall_offset"
    },
    {
     "kind":"vcall_offset"
    },
    {
     "kind":"vcall_offset"
    },
    {
     "kind":"vcall_offset"
    },
    {
     "kind":"vcall_offset",
     "component_value":-4
    },
    {
     "kind":"offset_to_top",
     "component_value":-4
    },
    {
     "kind":"rtti",
     "mangled_component_name":"_ZTIN7android8IOMXNodeE"
    },
    {
     "kind":"complete_dtor_pointer",
     "mangled_component_name":"_ZTv0_n12_N7android8IOMXNodeD1Ev"
    },
    {
     "kind":"deleting_dtor_pointer",
     "mangled_component_name":"_ZTv0_n12_N7android8IOMXNodeD0Ev"
    },
    {
     "mangled_component_name":"_ZN7android7RefBase10onFirstRefEv"
    },
    {
     "mangled_component_name":"_ZN7android7RefBase15onLastStrongRefEPKv"
    },
    {
     "mangled_component_name":"_ZN7android7RefBase20onIncStrongAttemptedEjPKv"
    },
    {
     "mangled_component_name":"_ZN7android7RefBase13onLastWeakRefEPKv"
    }
   ],
   "unique_id":"_ZTSN7android8IOMXNodeE"
  },
  {
   "vtable_components":[
    {
     "kind":"vbase_offset",
     "component_value":28
    },
    {
     "kind":"offset_to_top"
    },
    {
     "kind":"rtti",
     "mangled_component_name":"_ZTIN7android12H2BConverterINS_8hardware5media3omx4V1_08IOmxNodeENS_8IOMXNodeENS_9BnOMXNodeELj1598507092EE8ObituaryE"
    },
    {
     "mangled_component_name":"_ZN7android12H2BConverterINS_8hardware5media3omx4V1_08IOmxNodeENS_8IOMXNodeENS_9BnOMXNodeELj1598507092EE8Obituary11serviceDiedEyRKNS_2wpINS_4hidl4base4V1_05IBaseEEE"
    },
    {
     "kind":"complete_dtor_pointer",
     "mangled_component_name":"_ZN7android12H2BConverterINS_8hardware5media3omx4V1_08IOmxNodeENS_8IOMXNodeENS_9BnOMXNodeELj1598507092EE8ObituaryD1Ev"
    },
    {
     "kind":"deleting_dtor_pointer",
     "mangled_component_name":"_ZN7android12H2BConverterINS_8hardware5media3omx4V1_08IOmxNodeENS_8IOMXNodeENS_9BnOMXNodeELj1598507092EE8ObituaryD0Ev"
    },
    {
     "kind":"vcall_offset"
    },
    {
     "kind":"vcall_offset"
    },
    {
     "kind":"vcall_offset"
    },
    {
     "kind":"vcall_offset"
    },
    {
     "kind":"vcall_offset",
     "component_value":-28
    },
    {
     "kind":"offset_to_top",
     "component_value":-28
    },
    {
     "kind":"rtti",
     "mangled_component_name":"_ZTIN7android12H2BConverterINS_8hardware5media3omx4V1_08IOmxNodeENS_8IOMXNodeENS_9BnOMXNodeELj1598507092EE8ObituaryE"
    },
    {
     "kind":"complete_dtor_pointer",
     "mangled_component_name":"_ZTv0_n12_N7android12H2BConverterINS_8hardware5media3omx4V1_08IOmxNodeENS_8IOMXNodeENS_9BnOMXNodeELj1598507092EE8ObituaryD1Ev"
    },
    {
     "kind":"deleting_dtor_pointer",
     "mangled_component_name":"_ZTv0_n12_N7android12H2BConverterINS_8hardware5media3omx4V1_08IOmxNodeENS_8IOMXNodeENS_9BnOMXNodeELj1598507092EE8ObituaryD0Ev"
    },
    {
     "mangled_component_name":"_ZN7android7RefBase10onFirstRefEv"
    },
    {
     "mangled_component_name":"_ZN7android7RefBase15onLastStrongRefEPKv"
    },
    {
     "mangled_component_name":"_ZN7android7RefBase20onIncStrongAttemptedEjPKv"
    },
    {
     "mangled_component_name":"_ZN7android7RefBase13onLastWeakRefEPKv"
    }
   ],
   "unique_id":"_ZTSN7android12H2BConverterINS_8hardware5media3omx4V1_08IOmxNodeENS_8IOMXNodeENS_9BnOMXNodeELj1598507092EE8ObituaryE"
  },
  {
   "vtable_components":[
    {
     "kind":"vbase_offset",
     "component_value":4
    },
    {
     "kind":"offset_to_top"
    },
    {
     "kind":"rtti",
     "mangled_component_name":"_ZTIN7android4IOMXE"
    },
    {
     "kind":"complete_dtor_pointer",
     "mangled_component_name":"_ZN7android4IOMXD1Ev"
    },
    {
     "kind":"deleting_dtor_pointer",
     "mangled_component_name":"_ZN7android4IOMXD0Ev"
    },
    {
     "is_pure":true,
     "mangled_component_name":"_ZN7android10IInterface10onAsBinderEv"
    },
    {
     "mangled_component_name":"_ZNK7android4IOMX22getInterfaceDescriptorEv"
    },
    {
     "is_pure":true,
     "mangled_component_name":"_ZN7android4IOMX9listNodesEPNS_4ListINS0_13ComponentInfoEEE"
    },
    {
     "is_pure":true,
     "mangled_component_name":"_ZN7android4IOMX12allocateNodeEPKcRKNS_2spINS_12IOMXObserverEEEPNS3_INS_8IOMXNodeEEE"
    },
    {
     "is_pure":true,
     "mangled_component_name":"_ZN7android4IOMX18createInputSurfaceEPNS_2spINS_22IGraphicBufferProducerEEEPNS1_INS_20IGraphicBufferSourceEEE"
    },
    {
     "kind":"vcall_offset"
    },
    {
     "kind":"vcall_offset"
    },
    {
     "kind":"vcall_offset"
    },
    {
     "kind":"vcall_offset"
    },
    {
     "kind":"vcall_offset",
     "component_value":-4
    },
    {
     "kind":"offset_to_top",
     "component_value":-4
    },
    {
     "kind":"rtti",
     "mangled_component_name":"_ZTIN7android4IOMXE"
    },
    {
     "kind":"complete_dtor_pointer",
     "mangled_component_name":"_ZTv0_n12_N7android4IOMXD1Ev"
    },
    {
     "kind":"deleting_dtor_pointer",
     "mangled_component_name":"_ZTv0_n12_N7android4IOMXD0Ev"
    },
    {
     "mangled_component_name":"_ZN7android7RefBase10onFirstRefEv"
    },
    {
     "mangled_component_name":"_ZN7android7RefBase15onLastStrongRefEPKv"
    },
    {
     "mangled_component_name":"_ZN7android7RefBase20onIncStrongAttemptedEjPKv"
    },
    {
     "mangled_component_name":"_ZN7android7RefBase13onLastWeakRefEPKv"
    }
   ],
   "unique_id":"_ZTSN7android4IOMXE"
  },
  {
   "vtable_components":[
    {
     "kind":"vbase_offset",
     "component_value":4
    },
    {
     "kind":"offset_to_top"
    },
    {
     "kind":"rtti",
     "mangled_component_name":"_ZTIN7android12IOMXObserverE"
    },
    {
     "kind":"complete_dtor_pointer",
     "mangled_component_name":"_ZN7android12IOMXObserverD1Ev"
    },
    {
     "kind":"deleting_dtor_pointer",
     "mangled_component_name":"_ZN7android12IOMXObserverD0Ev"
    },
    {
     "is_pure":true,
     "mangled_component_name":"_ZN7android10IInterface10onAsBinderEv"
    },
    {
     "mangled_component_name":"_ZNK7android12IOMXObserver22getInterfaceDescriptorEv"
    },
    {
     "is_pure":true,
     "mangled_component_name":"_ZN7android12IOMXObserver10onMessagesERKNSt3__14listINS_11omx_messageENS1_9allocatorIS3_EEEE"
    },
    {
     "kind":"vcall_offset"
    },
    {
     "kind":"vcall_offset"
    },
    {
     "kind":"vcall_offset"
    },
    {
     "kind":"vcall_offset"
    },
    {
     "kind":"vcall_offset",
     "component_value":-4
    },
    {
     "kind":"offset_to_top",
     "component_value":-4
    },
    {
     "kind":"rtti",
     "mangled_component_name":"_ZTIN7android12IOMXObserverE"
    },
    {
     "kind":"complete_dtor_pointer",
     "mangled_component_name":"_ZTv0_n12_N7android12IOMXObserverD1Ev"
    },
    {
     "kind":"deleting_dtor_pointer",
     "mangled_component_name":"_ZTv0_n12_N7android12IOMXObserverD0Ev"
    },
    {
     "mangled_component_name":"_ZN7android7RefBase10onFirstRefEv"
    },
    {
     "mangled_component_name":"_ZN7android7RefBase15onLastStrongRefEPKv"
    },
    {
     "mangled_component_name":"_ZN7android7RefBase20onIncStrongAttemptedEjPKv"
    },
    {
     "mangled_component_name":"_ZN7android7RefBase13onLastWeakRefEPKv"
    }
   ],
   "unique_id":"_ZTSN7android12IOMXObserverE"
  },
  {
   "vtable_components":[
    {
     "kind":"vbase_offset",
     "component_value":36
    },
    {
     "kind":"offset_to_top"
    },
    {
     "kind":"rtti",
     "mangled_component_name":"_ZTIN7android8hardware5media3omx4V1_05utils9LWOmxNodeE"
    },
    {
     "kind":"complete_dtor_pointer",
     "mangled_component_name":"_ZN7android8hardware5media3omx4V1_05utils9LWOmxNodeD1Ev"
    },
    {
     "kind":"deleting_dtor_pointer",
     "mangled_component_name":"_ZN7android8hardware5media3omx4V1_05utils9LWOmxNodeD0Ev"
    },
    {
     "mangled_component_name":"_ZN7android11BnInterfaceINS_8IOMXNodeEE10onAsBinderEv"
    },
    {
     "mangled_component_name":"_ZNK7android11BnInterfaceINS_8IOMXNodeEE22getInterfaceDescriptorEv"
    },
    {
     "mangled_component_name":"_ZN7android12H2BConverterINS_8hardware5media3omx4V1_08IOmxNodeENS_8IOMXNodeENS_9BnOMXNodeELj1598507092EE15getHalInterfaceEv"
    },
    {
     "mangled_component_name":"_ZN7android8hardware5media3omx4V1_05utils9LWOmxNode8freeNodeEv"
    },
    {
     "mangled_component_name":"_ZN7android8hardware5media3omx4V1_05utils9LWOmxNode11sendCommandE15OMX_COMMANDTYPEi"
    },
    {
     "mangled_component_name":"_ZN7android8hardware5media3omx4V1_05utils9LWOmxNode12getParameterE13OMX_INDEXTYPEPvj"
    },
    {
     "mangled_component_name":"_ZN7android8hardware5media3omx4V1_05utils9LWOmxNode12setParameterE13OMX_INDEXTYPEPKvj"
    },
    {
     "mangled_component_name":"_ZN7android8hardware5media3omx4V1_05utils9LWOmxNode9getConfigE13OMX_INDEXTYPEPvj"
    },
    {
     "mangled_component_name":"_ZN7android8hardware5media3omx4V1_05utils9LWOmxNode9setConfigE13OMX_INDEXTYPEPKvj"
    },
    {
     "mangled_component_name":"_ZN7android8hardware5media3omx4V1_05utils9LWOmxNode11setPortModeEjNS_4IOMX8PortModeE"
    },
    {
     "mangled_component_name":"_ZN7android8hardware5media3omx4V1_05utils9LWOmxNode26prepareForAdaptivePlaybackEj8OMX_BOOLjj"
    },
    {
     "mangled_component_name":"_ZN7android8hardware5media3omx4V1_05utils9LWOmxNode24configureVideoTunnelModeEj8OMX_BOOLjPP13native_handle"
    },
    {
     "mangled_component_name":"_ZN7android8hardware5media3omx4V1_05utils9LWOmxNode21getGraphicBufferUsageEjPj"
    },
    {
     "mangled_component_name":"_ZN7android8hardware5media3omx4V1_05utils9LWOmxNode15setInputSurfaceERKNS_2spINS_16IOMXBufferSourceEEE"
    },
    {
     "mangled_component_name":"_ZN7android8hardware5media3omx4V1_05utils9LWOmxNode20allocateSecureBufferEjjPjPPvPNS_2spINS_12NativeHandleEEE"
    },
    {
     "mangled_component_name":"_ZN7android8hardware5media3omx4V1_05utils9LWOmxNode9useBufferEjRKNS_9OMXBufferEPj"
    },
    {
     "mangled_component_name":"_ZN7android8hardware5media3omx4V1_05utils9LWOmxNode10freeBufferEjj"
    },
    {
     "mangled_component_name":"_ZN7android8hardware5media3omx4V1_05utils9LWOmxNode10fillBufferEjRKNS_9OMXBufferEi"
    },
    {
     "mangled_component_name":"_ZN7android8hardware5media3omx4V1_05utils9LWOmxNode11emptyBufferEjRKNS_9OMXBufferEjxi"
    },
    {
     "mangled_component_name":"_ZN7android8hardware5media3omx4V1_05utils9LWOmxNode17getExtensionIndexEPKcP13OMX_INDEXTYPE"
    },
    {
     "mangled_component_name":"_ZN7android8hardware5media3omx4V1_05utils9LWOmxNode15dispatchMessageERKNS_11omx_messageE"
    },
    {
     "mangled_component_name":"_ZN7android11BnInterfaceINS_8IOMXNodeEE19queryLocalInterfaceERKNS_8String16E"
    },
    {
     "mangled_component_name":"_ZN7android12H2BConverterINS_8hardware5media3omx4V1_08IOmxNodeENS_8IOMXNodeENS_9BnOMXNodeELj1598507092EE10onTransactEjRKNS_6ParcelEPS9_j"
    },
    {
     "mangled_component_name":"_ZNK7android9BnOMXNode8isSecureEv"
    },
    {
     "mangled_component_name":"_ZN7android12H2BConverterINS_8hardware5media3omx4V1_08IOmxNodeENS_8IOMXNodeENS_9BnOMXNodeELj1598507092EE11linkToDeathERKNS_2spINS_7IBinder14DeathRecipientEEEPvj"
    },
    {
     "mangled_component_name":"_ZN7android12H2BConverterINS_8hardware5media3omx4V1_08IOmxNodeENS_8IOMXNodeENS_9BnOMXNodeELj1598507092EE13unlinkToDeathERKNS_2wpINS_7IBinder14DeathRecipientEEEPvjPSC_"
    },
    {
     "kind":"vbase_offset",
     "component_value":32
    },
    {
     "kind":"offset_to_top",
     "component_value":-4
    },
    {
     "kind":"rtti",
     "mangled_component_name":"_ZTIN7android8hardware5media3omx4V1_05utils9LWOmxNodeE"
    },
    {
     "mangled_component_name":"_ZThn4_N7android11BnInterfaceINS_8IOMXNodeEE19queryLocalInterfaceERKNS_8String16E"
    },
    {
     "mangled_component_name":"_ZThn4_NK7android11BnInterfaceINS_8IOMXNodeEE22getInterfaceDescriptorEv"
    },
    {
     "mangled_component_name":"_ZNK7android7BBinder13isBinderAliveEv"
    },
    {
     "mangled_component_name":"_ZN7android7BBinder10pingBinderEv"
    },
    {
     "mangled_component_name":"_ZN7android7BBinder4dumpEiRKNS_6VectorINS_8String16EEE"
    },
    {
     "mangled_component_name":"_ZN7android7BBinder8transactEjRKNS_6ParcelEPS1_j"
    },
    {
     "mangled_component_name":"_ZThn4_N7android12H2BConverterINS_8hardware5media3omx4V1_08IOmxNodeENS_8IOMXNodeENS_9BnOMXNodeELj1598507092EE11linkToDeathERKNS_2spINS_7IBinder14DeathRecipientEEEPvj"
    },
    {
     "mangled_component_name":"_ZThn4_N7android12H2BConverterINS_8hardware5media3omx4V1_08IOmxNodeENS_8IOMXNodeENS_9BnOMXNodeELj1598507092EE13unlinkToDeathERKNS_2wpINS_7IBinder14DeathRecipientEEEPvjPSC_"
    },
    {
     "mangled_component_name":"_ZNK7android7IBinder13checkSubclassEPKv"
    },
    {
     "mangled_component_name":"_ZN7android7BBinder12attachObjectEPKvPvS3_PFvS2_S3_S3_E"
    },
    {
     "mangled_component_name":"_ZNK7android7BBinder10findObjectEPKv"
    },
    {
     "mangled_component_name":"_ZN7android7BBinder12detachObjectEPKv"
    },
    {
     "mangled_component_name":"_ZN7android7BBinder11localBinderEv"
    },
    {
     "mangled_component_name":"_ZN7android7IBinder12remoteBinderEv"
    },
    {
     "kind":"complete_dtor_pointer",
     "mangled_component_name":"_ZThn4_N7android8hardware5media3omx4V1_05utils9LWOmxNodeD1Ev"
    },
    {
     "kind":"deleting_dtor_pointer",
     "mangled_component_name":"_ZThn4_N7android8hardware5media3omx4V1_05utils9LWOmxNodeD0Ev"
    },
    {
     "mangled_component_name":"_ZThn4_N7android12H2BConverterINS_8hardware5media3omx4V1_08IOmxNodeENS_8IOMXNodeENS_9BnOMXNodeELj1598507092EE10onTransactEjRKNS_6ParcelEPS9_j"
    },
    {
     "kind":"vcall_offset"
    },
    {
     "kind":"vcall_offset"
    },
    {
     "kind":"vcall_offset"
    },
    {
     "kind":"vcall_offset"
    },
    {
     "kind":"vcall_offset",
     "component_value":-36
    },
    {
     "kind":"offset_to_top",
     "component_value":-36
    },
    {
     "kind":"rtti",
     "mangled_component_name":"_ZTIN7android8hardware5media3omx4V1_05utils9LWOmxNodeE"
    },
    {
     "kind":"complete_dtor_pointer",
     "mangled_component_name":"_ZTv0_n12_N7android8hardware5media3omx4V1_05utils9LWOmxNodeD1Ev"
    },
    {
     "kind":"deleting_dtor_pointer",
     "mangled_component_name":"_ZTv0_n12_N7android8hardware5media3omx4V1_05utils9LWOmxNodeD0Ev"
    },
    {
     "mangled_component_name":"_ZN7android7RefBase10onFirstRefEv"
    },
    {
     "mangled_component_name":"_ZN7android7RefBase15onLastStrongRefEPKv"
    },
    {
     "mangled_component_name":"_ZN7android7RefBase20onIncStrongAttemptedEjPKv"
    },
    {
     "mangled_component_name":"_ZN7android7RefBase13onLastWeakRefEPKv"
    }
   ],
   "unique_id":"_ZTSN7android8hardware5media3omx4V1_05utils9LWOmxNodeE"
  },
  {
   "vtable_components":[
    {
     "kind":"vbase_offset",
     "component_value":16
    },
    {
     "kind":"offset_to_top"
    },
    {
     "kind":"rtti",
     "mangled_component_name":"_ZTIN7android9BnOMXNodeE"
    },
    {
     "kind":"complete_dtor_pointer",
     "mangled_component_name":"_ZN7android9BnOMXNodeD1Ev"
    },
    {
     "kind":"deleting_dtor_pointer",
     "mangled_component_name":"_ZN7android9BnOMXNodeD0Ev"
    },
    {
     "mangled_component_name":"_ZN7android11BnInterfaceINS_8IOMXNodeEE10onAsBinderEv"
    },
    {
     "mangled_component_name":"_ZNK7android11BnInterfaceINS_8IOMXNodeEE22getInterfaceDescriptorEv"
    },
    {
     "mangled_component_name":"_ZN7android8IOMXNode15getHalInterfaceEv"
    },
    {
     "is_pure":true,
     "mangled_component_name":"_ZN7android8IOMXNode8freeNodeEv"
    },
    {
     "is_pure":true,
     "mangled_component_name":"_ZN7android8IOMXNode11sendCommandE15OMX_COMMANDTYPEi"
    },
    {
     "is_pure":true,
     "mangled_component_name":"_ZN7android8IOMXNode12getParameterE13OMX_INDEXTYPEPvj"
    },
    {
     "is_pure":true,
     "mangled_component_name":"_ZN7android8IOMXNode12setParameterE13OMX_INDEXTYPEPKvj"
    },
    {
     "is_pure":true,
     "mangled_component_name":"_ZN7android8IOMXNode9getConfigE13OMX_INDEXTYPEPvj"
    },
    {
     "is_pure":true,
     "mangled_component_name":"_ZN7android8IOMXNode9setConfigE13OMX_INDEXTYPEPKvj"
    },
    {
     "is_pure":true,
     "mangled_component_name":"_ZN7android8IOMXNode11setPortModeEjNS_4IOMX8PortModeE"
    },
    {
     "is_pure":true,
     "mangled_component_name":"_ZN7android8IOMXNode26prepareForAdaptivePlaybackEj8OMX_BOOLjj"
    },
    {
     "is_pure":true,
     "mangled_component_name":"_ZN7android8IOMXNode24configureVideoTunnelModeEj8OMX_BOOLjPP13native_handle"
    },
    {
     "is_pure":true,
     "mangled_component_name":"_ZN7android8IOMXNode21getGraphicBufferUsageEjPj"
    },
    {
     "is_pure":true,
     "mangled_component_name":"_ZN7android8IOMXNode15setInputSurfaceERKNS_2spINS_16IOMXBufferSourceEEE"
    },
    {
     "is_pure":true,
     "mangled_component_name":"_ZN7android8IOMXNode20allocateSecureBufferEjjPjPPvPNS_2spINS_12NativeHandleEEE"
    },
    {
     "is_pure":true,
     "mangled_component_name":"_ZN7android8IOMXNode9useBufferEjRKNS_9OMXBufferEPj"
    },
    {
     "is_pure":true,
     "mangled_component_name":"_ZN7android8IOMXNode10freeBufferEjj"
    },
    {
     "is_pure":true,
     "mangled_component_name":"_ZN7android8IOMXNode10fillBufferEjRKNS_9OMXBufferEi"
    },
    {
     "is_pure":true,
     "mangled_component_name":"_ZN7android8IOMXNode11emptyBufferEjRKNS_9OMXBufferEjxi"
    },
    {
     "is_pure":true,
     "mangled_component_name":"_ZN7android8IOMXNode17getExtensionIndexEPKcP13OMX_INDEXTYPE"
    },
    {
     "is_pure":true,
     "mangled_component_name":"_ZN7android8IOMXNode15dispatchMessageERKNS_11omx_messageE"
    },
    {
     "mangled_component_name":"_ZN7android11BnInterfaceINS_8IOMXNodeEE19queryLocalInterfaceERKNS_8String16E"
    },
    {
     "mangled_component_name":"_ZN7android9BnOMXNode10onTransactEjRKNS_6ParcelEPS1_j"
    },
    {
     "mangled_component_name":"_ZNK7android9BnOMXNode8isSecureEv"
    },
    {
     "kind":"vbase_offset",
     "component_value":12
    },
    {
     "kind":"offset_to_top",
     "component_value":-4
    },
    {
     "kind":"rtti",
     "mangled_component_name":"_ZTIN7android9BnOMXNodeE"
    },
    {
     "mangled_component_name":"_ZThn4_N7android11BnInterfaceINS_8IOMXNodeEE19queryLocalInterfaceERKNS_8String16E"
    },
    {
     "mangled_component_name":"_ZThn4_NK7android11BnInterfaceINS_8IOMXNodeEE22getInterfaceDescriptorEv"
    },
    {
     "mangled_component_name":"_ZNK7android7BBinder13isBinderAliveEv"
    },
    {
     "mangled_component_name":"_ZN7android7BBinder10pingBinderEv"
    },
    {
     "mangled_component_name":"_ZN7android7BBinder4dumpEiRKNS_6VectorINS_8String16EEE"
    },
    {
     "mangled_component_name":"_ZN7android7BBinder8transactEjRKNS_6ParcelEPS1_j"
    },
    {
     "mangled_component_name":"_ZN7android7BBinder11linkToDeathERKNS_2spINS_7IBinder14DeathRecipientEEEPvj"
    },
    {
     "mangled_component_name":"_ZN7android7BBinder13unlinkToDeathERKNS_2wpINS_7IBinder14DeathRecipientEEEPvjPS4_"
    },
    {
     "mangled_component_name":"_ZNK7android7IBinder13checkSubclassEPKv"
    },
    {
     "mangled_component_name":"_ZN7android7BBinder12attachObjectEPKvPvS3_PFvS2_S3_S3_E"
    },
    {
     "mangled_component_name":"_ZNK7android7BBinder10findObjectEPKv"
    },
    {
     "mangled_component_name":"_ZN7android7BBinder12detachObjectEPKv"
    },
    {
     "mangled_component_name":"_ZN7android7BBinder11localBinderEv"
    },
    {
     "mangled_component_name":"_ZN7android7IBinder12remoteBinderEv"
    },
    {
     "kind":"complete_dtor_pointer",
     "mangled_component_name":"_ZThn4_N7android9BnOMXNodeD1Ev"
    },
    {
     "kind":"deleting_dtor_pointer",
     "mangled_component_name":"_ZThn4_N7android9BnOMXNodeD0Ev"
    },
    {
     "mangled_component_name":"_ZThn4_N7android9BnOMXNode10onTransactEjRKNS_6ParcelEPS1_j"
    },
    {
     "kind":"vcall_offset"
    },
    {
     "kind":"vcall_offset"
    },
    {
     "kind":"vcall_offset"
    },
    {
     "kind":"vcall_offset"
    },
    {
     "kind":"vcall_offset",
     "component_value":-16
    },
    {
     "kind":"offset_to_top",
     "component_value":-16
    },
    {
     "kind":"rtti",
     "mangled_component_name":"_ZTIN7android9BnOMXNodeE"
    },
    {
     "kind":"complete_dtor_pointer",
     "mangled_component_name":"_ZTv0_n12_N7android9BnOMXNodeD1Ev"
    },
    {
     "kind":"deleting_dtor_pointer",
     "mangled_component_name":"_ZTv0_n12_N7android9BnOMXNodeD0Ev"
    },
    {
     "mangled_component_name":"_ZN7android7RefBase10onFirstRefEv"
    },
    {
     "mangled_component_name":"_ZN7android7RefBase15onLastStrongRefEPKv"
    },
    {
     "mangled_component_name":"_ZN7android7RefBase20onIncStrongAttemptedEjPKv"
    },
    {
     "mangled_component_name":"_ZN7android7RefBase13onLastWeakRefEPKv"
    }
   ],
   "unique_id":"_ZTSN7android9BnOMXNodeE"
  },
  {
   "vtable_components":[
    {
     "kind":"offset_to_top"
    },
    {
     "kind":"rtti",
     "mangled_component_name":"_ZTIN7android4ListINS_7String8EEE"
    },
    {
     "kind":"complete_dtor_pointer",
     "mangled_component_name":"_ZN7android4ListINS_7String8EED1Ev"
    },
    {
     "kind":"deleting_dtor_pointer",
     "mangled_component_name":"_ZN7android4ListINS_7String8EED0Ev"
    }
   ],
   "unique_id":"_ZTSN7android4ListINS_7String8EEE"
  },
  {
   "vtable_components":[
    {
     "kind":"offset_to_top"
    },
    {
     "kind":"rtti",
     "mangled_component_name":"_ZTIN7android4ListINS_4IOMX13ComponentInfoEEE"
    },
    {
     "kind":"complete_dtor_pointer",
     "mangled_component_name":"_ZN7android4ListINS_4IOMX13ComponentInfoEED1Ev"
    },
    {
     "kind":"deleting_dtor_pointer",
     "mangled_component_name":"_ZN7android4ListINS_4IOMX13ComponentInfoEED0Ev"
    }
   ],
   "unique_id":"_ZTSN7android4ListINS_4IOMX13ComponentInfoEEE"
  },
  {
   "vtable_components":[
    {
     "kind":"offset_to_top"
    },
    {
     "kind":"rtti",
     "mangled_component_name":"_ZTIN7android14MediaCodecInfoE"
    },
    {
     "kind":"complete_dtor_pointer",
     "mangled_component_name":"_ZN7android14MediaCodecInfoD1Ev"
    },
    {
     "kind":"deleting_dtor_pointer",
     "mangled_component_name":"_ZN7android14MediaCodecInfoD0Ev"
    },
    {
     "mangled_component_name":"_ZN7android7RefBase10onFirstRefEv"
    },
    {
     "mangled_component_name":"_ZN7android7RefBase15onLastStrongRefEPKv"
    },
    {
     "mangled_component_name":"_ZN7android7RefBase20onIncStrongAttemptedEjPKv"
    },
    {
     "mangled_component_name":"_ZN7android7RefBase13onLastWeakRefEPKv"
    }
   ],
   "unique_id":"_ZTSN7android14MediaCodecInfoE"
  },
  {
   "vtable_components":[
    {
     "kind":"offset_to_top"
    },
    {
     "kind":"rtti",
     "mangled_component_name":"_ZTIN7android12SortedVectorINS_16key_value_pair_tINS_7AStringENS_2spINS_14MediaCodecInfo12CapabilitiesEEEEEEE"
    },
    {
     "kind":"complete_dtor_pointer",
     "mangled_component_name":"_ZN7android12SortedVectorINS_16key_value_pair_tINS_7AStringENS_2spINS_14MediaCodecInfo12CapabilitiesEEEEEED1Ev"
    },
    {
     "kind":"deleting_dtor_pointer",
     "mangled_component_name":"_ZN7android12SortedVectorINS_16key_value_pair_tINS_7AStringENS_2spINS_14MediaCodecInfo12CapabilitiesEEEEEED0Ev"
    },
    {
     "mangled_component_name":"_ZNK7android12SortedVectorINS_16key_value_pair_tINS_7AStringENS_2spINS_14MediaCodecInfo12CapabilitiesEEEEEE12do_constructEPvj"
    },
    {
     "mangled_component_name":"_ZNK7android12SortedVectorINS_16key_value_pair_tINS_7AStringENS_2spINS_14MediaCodecInfo12CapabilitiesEEEEEE10do_destroyEPvj"
    },
    {
     "mangled_component_name":"_ZNK7android12SortedVectorINS_16key_value_pair_tINS_7AStringENS_2spINS_14MediaCodecInfo12CapabilitiesEEEEEE7do_copyEPvPKvj"
    },
    {
     "mangled_component_name":"_ZNK7android12SortedVectorINS_16key_value_pair_tINS_7AStringENS_2spINS_14MediaCodecInfo12CapabilitiesEEEEEE8do_splatEPvPKvj"
    },
    {
     "mangled_component_name":"_ZNK7android12SortedVectorINS_16key_value_pair_tINS_7AStringENS_2spINS_14MediaCodecInfo12CapabilitiesEEEEEE15do_move_forwardEPvPKvj"
    },
    {
     "mangled_component_name":"_ZNK7android12SortedVectorINS_16key_value_pair_tINS_7AStringENS_2spINS_14MediaCodecInfo12CapabilitiesEEEEEE16do_move_backwardEPvPKvj"
    },
    {
     "mangled_component_name":"_ZNK7android12SortedVectorINS_16key_value_pair_tINS_7AStringENS_2spINS_14MediaCodecInfo12CapabilitiesEEEEEE10do_compareEPKvSA_"
    }
   ],
   "unique_id":"_ZTSN7android12SortedVectorINS_16key_value_pair_tINS_7AStringENS_2spINS_14MediaCodecInfo12CapabilitiesEEEEEEE"
  },
  {
   "vtable_components":[
    {
     "kind":"vbase_offset",
     "component_value":16
    },
    {
     "kind":"offset_to_top"
    },
    {
     "kind":"rtti",
     "mangled_component_name":"_ZTIN7android5BnOMXE"
    },
    {
     "kind":"complete_dtor_pointer",
     "mangled_component_name":"_ZN7android5BnOMXD1Ev"
    },
    {
     "kind":"deleting_dtor_pointer",
     "mangled_component_name":"_ZN7android5BnOMXD0Ev"
    },
    {
     "mangled_component_name":"_ZN7android11BnInterfaceINS_4IOMXEE10onAsBinderEv"
    },
    {
     "mangled_component_name":"_ZNK7android11BnInterfaceINS_4IOMXEE22getInterfaceDescriptorEv"
    },
    {
     "is_pure":true,
     "mangled_component_name":"_ZN7android4IOMX9listNodesEPNS_4ListINS0_13ComponentInfoEEE"
    },
    {
     "is_pure":true,
     "mangled_component_name":"_ZN7android4IOMX12allocateNodeEPKcRKNS_2spINS_12IOMXObserverEEEPNS3_INS_8IOMXNodeEEE"
    },
    {
     "is_pure":true,
     "mangled_component_name":"_ZN7android4IOMX18createInputSurfaceEPNS_2spINS_22IGraphicBufferProducerEEEPNS1_INS_20IGraphicBufferSourceEEE"
    },
    {
     "mangled_component_name":"_ZN7android11BnInterfaceINS_4IOMXEE19queryLocalInterfaceERKNS_8String16E"
    },
    {
     "mangled_component_name":"_ZN7android5BnOMX10onTransactEjRKNS_6ParcelEPS1_j"
    },
    {
     "kind":"vbase_offset",
     "component_value":12
    },
    {
     "kind":"offset_to_top",
     "component_value":-4
    },
    {
     "kind":"rtti",
     "mangled_component_name":"_ZTIN7android5BnOMXE"
    },
    {
     "mangled_component_name":"_ZThn4_N7android11BnInterfaceINS_4IOMXEE19queryLocalInterfaceERKNS_8String16E"
    },
    {
     "mangled_component_name":"_ZThn4_NK7android11BnInterfaceINS_4IOMXEE22getInterfaceDescriptorEv"
    },
    {
     "mangled_component_name":"_ZNK7android7BBinder13isBinderAliveEv"
    },
    {
     "mangled_component_name":"_ZN7android7BBinder10pingBinderEv"
    },
    {
     "mangled_component_name":"_ZN7android7BBinder4dumpEiRKNS_6VectorINS_8String16EEE"
    },
    {
     "mangled_component_name":"_ZN7android7BBinder8transactEjRKNS_6ParcelEPS1_j"
    },
    {
     "mangled_component_name":"_ZN7android7BBinder11linkToDeathERKNS_2spINS_7IBinder14DeathRecipientEEEPvj"
    },
    {
     "mangled_component_name":"_ZN7android7BBinder13unlinkToDeathERKNS_2wpINS_7IBinder14DeathRecipientEEEPvjPS4_"
    },
    {
     "mangled_component_name":"_ZNK7android7IBinder13checkSubclassEPKv"
    },
    {
     "mangled_component_name":"_ZN7android7BBinder12attachObjectEPKvPvS3_PFvS2_S3_S3_E"
    },
    {
     "mangled_component_name":"_ZNK7android7BBinder10findObjectEPKv"
    },
    {
     "mangled_component_name":"_ZN7android7BBinder12detachObjectEPKv"
    },
    {
     "mangled_component_name":"_ZN7android7BBinder11localBinderEv"
    },
    {
     "mangled_component_name":"_ZN7android7IBinder12remoteBinderEv"
    },
    {
     "kind":"complete_dtor_pointer",
     "mangled_component_name":"_ZThn4_N7android5BnOMXD1Ev"
    },
    {
     "kind":"deleting_dtor_pointer",
     "mangled_component_name":"_ZThn4_N7android5BnOMXD0Ev"
    },
    {
     "mangled_component_name":"_ZThn4_N7android5BnOMX10onTransactEjRKNS_6ParcelEPS1_j"
    },
    {
     "kind":"vcall_offset"
    },
    {
     "kind":"vcall_offset"
    },
    {
     "kind":"vcall_offset"
    },
    {
     "kind":"vcall_offset"
    },
    {
     "kind":"vcall_offset",
     "component_value":-16
    },
    {
     "kind":"offset_to_top",
     "component_value":-16
    },
    {
     "kind":"rtti",
     "mangled_component_name":"_ZTIN7android5BnOMXE"
    },
    {
     "kind":"complete_dtor_pointer",
     "mangled_component_name":"_ZTv0_n12_N7android5BnOMXD1Ev"
    },
    {
     "kind":"deleting_dtor_pointer",
     "mangled_component_name":"_ZTv0_n12_N7android5BnOMXD0Ev"
    },
    {
     "mangled_component_name":"_ZN7android7RefBase10onFirstRefEv"
    },
    {
     "mangled_component_name":"_ZN7android7RefBase15onLastStrongRefEPKv"
    },
    {
     "mangled_component_name":"_ZN7android7RefBase20onIncStrongAttemptedEjPKv"
    },
    {
     "mangled_component_name":"_ZN7android7RefBase13onLastWeakRefEPKv"
    }
   ],
   "unique_id":"_ZTSN7android5BnOMXE"
  },
  {
   "vtable_components":[
    {
     "kind":"vbase_offset",
     "component_value":16
    },
    {
     "kind":"offset_to_top"
    },
    {
     "kind":"rtti",
     "mangled_component_name":"_ZTIN7android13BnOMXObserverE"
    },
    {
     "kind":"complete_dtor_pointer",
     "mangled_component_name":"_ZN7android13BnOMXObserverD1Ev"
    },
    {
     "kind":"deleting_dtor_pointer",
     "mangled_component_name":"_ZN7android13BnOMXObserverD0Ev"
    },
    {
     "mangled_component_name":"_ZN7android11BnInterfaceINS_12IOMXObserverEE10onAsBinderEv"
    },
    {
     "mangled_component_name":"_ZNK7android11BnInterfaceINS_12IOMXObserverEE22getInterfaceDescriptorEv"
    },
    {
     "is_pure":true,
     "mangled_component_name":"_ZN7android12IOMXObserver10onMessagesERKNSt3__14listINS_11omx_messageENS1_9allocatorIS3_EEEE"
    },
    {
     "mangled_component_name":"_ZN7android11BnInterfaceINS_12IOMXObserverEE19queryLocalInterfaceERKNS_8String16E"
    },
    {
     "mangled_component_name":"_ZN7android13BnOMXObserver10onTransactEjRKNS_6ParcelEPS1_j"
    },
    {
     "kind":"vbase_offset",
     "component_value":12
    },
    {
     "kind":"offset_to_top",
     "component_value":-4
    },
    {
     "kind":"rtti",
     "mangled_component_name":"_ZTIN7android13BnOMXObserverE"
    },
    {
     "mangled_component_name":"_ZThn4_N7android11BnInterfaceINS_12IOMXObserverEE19queryLocalInterfaceERKNS_8String16E"
    },
    {
     "mangled_component_name":"_ZThn4_NK7android11BnInterfaceINS_12IOMXObserverEE22getInterfaceDescriptorEv"
    },
    {
     "mangled_component_name":"_ZNK7android7BBinder13isBinderAliveEv"
    },
    {
     "mangled_component_name":"_ZN7android7BBinder10pingBinderEv"
    },
    {
     "mangled_component_name":"_ZN7android7BBinder4dumpEiRKNS_6VectorINS_8String16EEE"
    },
    {
     "mangled_component_name":"_ZN7android7BBinder8transactEjRKNS_6ParcelEPS1_j"
    },
    {
     "mangled_component_name":"_ZN7android7BBinder11linkToDeathERKNS_2spINS_7IBinder14DeathRecipientEEEPvj"
    },
    {
     "mangled_component_name":"_ZN7android7BBinder13unlinkToDeathERKNS_2wpINS_7IBinder14DeathRecipientEEEPvjPS4_"
    },
    {
     "mangled_component_name":"_ZNK7android7IBinder13checkSubclassEPKv"
    },
    {
     "mangled_component_name":"_ZN7android7BBinder12attachObjectEPKvPvS3_PFvS2_S3_S3_E"
    },
    {
     "mangled_component_name":"_ZNK7android7BBinder10findObjectEPKv"
    },
    {
     "mangled_component_name":"_ZN7android7BBinder12detachObjectEPKv"
    },
    {
     "mangled_component_name":"_ZN7android7BBinder11localBinderEv"
    },
    {
     "mangled_component_name":"_ZN7android7IBinder12remoteBinderEv"
    },
    {
     "kind":"complete_dtor_pointer",
     "mangled_component_name":"_ZThn4_N7android13BnOMXObserverD1Ev"
    },
    {
     "kind":"deleting_dtor_pointer",
     "mangled_component_name":"_ZThn4_N7android13BnOMXObserverD0Ev"
    },
    {
     "mangled_component_name":"_ZThn4_N7android13BnOMXObserver10onTransactEjRKNS_6ParcelEPS1_j"
    },
    {
     "kind":"vcall_offset"
    },
    {
     "kind":"vcall_offset"
    },
    {
     "kind":"vcall_offset"
    },
    {
     "kind":"vcall_offset"
    },
    {
     "kind":"vcall_offset",
     "component_value":-16
    },
    {
     "kind":"offset_to_top",
     "component_value":-16
    },
    {
     "kind":"rtti",
     "mangled_component_name":"_ZTIN7android13BnOMXObserverE"
    },
    {
     "kind":"complete_dtor_pointer",
     "mangled_component_name":"_ZTv0_n12_N7android13BnOMXObserverD1Ev"
    },
    {
     "kind":"deleting_dtor_pointer",
     "mangled_component_name":"_ZTv0_n12_N7android13BnOMXObserverD0Ev"
    },
    {
     "mangled_component_name":"_ZN7android7RefBase10onFirstRefEv"
    },
    {
     "mangled_component_name":"_ZN7android7RefBase15onLastStrongRefEPKv"
    },
    {
     "mangled_component_name":"_ZN7android7RefBase20onIncStrongAttemptedEjPKv"
    },
    {
     "mangled_component_name":"_ZN7android7RefBase13onLastWeakRefEPKv"
    }
   ],
   "unique_id":"_ZTSN7android13BnOMXObserverE"
  },
  {
   "vtable_components":[
    {
     "kind":"offset_to_top"
    },
    {
     "kind":"rtti",
     "mangled_component_name":"_ZTIN7android16MediaCodecBufferE"
    },
    {
     "kind":"complete_dtor_pointer",
     "mangled_component_name":"_ZN7android16MediaCodecBufferD1Ev"
    },
    {
     "kind":"deleting_dtor_pointer",
     "mangled_component_name":"_ZN7android16MediaCodecBufferD0Ev"
    },
    {
     "mangled_component_name":"_ZN7android7RefBase10onFirstRefEv"
    },
    {
     "mangled_component_name":"_ZN7android7RefBase15onLastStrongRefEPKv"
    },
    {
     "mangled_component_name":"_ZN7android7RefBase20onIncStrongAttemptedEjPKv"
    },
    {
     "mangled_component_name":"_ZN7android7RefBase13onLastWeakRefEPKv"
    },
    {
     "mangled_component_name":"_ZN7android16MediaCodecBuffer8setRangeEjj"
    }
   ],
   "unique_id":"_ZTSN7android16MediaCodecBufferE"
  },
  {
   "vtable_components":[
    {
     "kind":"offset_to_top"
    },
    {
     "kind":"rtti",
     "mangled_component_name":"_ZTIN7android14MediaCodecInfo12CapabilitiesE"
    },
    {
     "kind":"complete_dtor_pointer",
     "mangled_component_name":"_ZN7android14MediaCodecInfo12CapabilitiesD1Ev"
    },
    {
     "kind":"deleting_dtor_pointer",
     "mangled_component_name":"_ZN7android14MediaCodecInfo12CapabilitiesD0Ev"
    },
    {
     "mangled_component_name":"_ZN7android7RefBase10onFirstRefEv"
    },
    {
     "mangled_component_name":"_ZN7android7RefBase15onLastStrongRefEPKv"
    },
    {
     "mangled_component_name":"_ZN7android7RefBase20onIncStrongAttemptedEjPKv"
    },
    {
     "mangled_component_name":"_ZN7android7RefBase13onLastWeakRefEPKv"
    }
   ],
   "unique_id":"_ZTSN7android14MediaCodecInfo12CapabilitiesE"
  },
  {
   "vtable_components":[
    {
     "kind":"offset_to_top"
    },
    {
     "kind":"rtti",
     "mangled_component_name":"_ZTIN7android6VectorINS_14MediaCodecInfo12ProfileLevelEEE"
    },
    {
     "kind":"complete_dtor_pointer",
     "mangled_component_name":"_ZN7android6VectorINS_14MediaCodecInfo12ProfileLevelEED1Ev"
    },
    {
     "kind":"deleting_dtor_pointer",
     "mangled_component_name":"_ZN7android6VectorINS_14MediaCodecInfo12ProfileLevelEED0Ev"
    },
    {
     "mangled_component_name":"_ZNK7android6VectorINS_14MediaCodecInfo12ProfileLevelEE12do_constructEPvj"
    },
    {
     "mangled_component_name":"_ZNK7android6VectorINS_14MediaCodecInfo12ProfileLevelEE10do_destroyEPvj"
    },
    {
     "mangled_component_name":"_ZNK7android6VectorINS_14MediaCodecInfo12ProfileLevelEE7do_copyEPvPKvj"
    },
    {
     "mangled_component_name":"_ZNK7android6VectorINS_14MediaCodecInfo12ProfileLevelEE8do_splatEPvPKvj"
    },
    {
     "mangled_component_name":"_ZNK7android6VectorINS_14MediaCodecInfo12ProfileLevelEE15do_move_forwardEPvPKvj"
    },
    {
     "mangled_component_name":"_ZNK7android6VectorINS_14MediaCodecInfo12ProfileLevelEE16do_move_backwardEPvPKvj"
    }
   ],
   "unique_id":"_ZTSN7android6VectorINS_14MediaCodecInfo12ProfileLevelEEE"
  },
  {
   "vtable_components":[
    {
     "kind":"offset_to_top"
    },
    {
     "kind":"rtti",
     "mangled_component_name":"_ZTIN7android12SortedVectorINS_14MediaCodecInfo12ProfileLevelEEE"
    },
    {
     "kind":"complete_dtor_pointer",
     "mangled_component_name":"_ZN7android12SortedVectorINS_14MediaCodecInfo12ProfileLevelEED1Ev"
    },
    {
     "kind":"deleting_dtor_pointer",
     "mangled_component_name":"_ZN7android12SortedVectorINS_14MediaCodecInfo12ProfileLevelEED0Ev"
    },
    {
     "mangled_component_name":"_ZNK7android12SortedVectorINS_14MediaCodecInfo12ProfileLevelEE12do_constructEPvj"
    },
    {
     "mangled_component_name":"_ZNK7android12SortedVectorINS_14MediaCodecInfo12ProfileLevelEE10do_destroyEPvj"
    },
    {
     "mangled_component_name":"_ZNK7android12SortedVectorINS_14MediaCodecInfo12ProfileLevelEE7do_copyEPvPKvj"
    },
    {
     "mangled_component_name":"_ZNK7android12SortedVectorINS_14MediaCodecInfo12ProfileLevelEE8do_splatEPvPKvj"
    },
    {
     "mangled_component_name":"_ZNK7android12SortedVectorINS_14MediaCodecInfo12ProfileLevelEE15do_move_forwardEPvPKvj"
    },
    {
     "mangled_component_name":"_ZNK7android12SortedVectorINS_14MediaCodecInfo12ProfileLevelEE16do_move_backwardEPvPKvj"
    },
    {
     "mangled_component_name":"_ZNK7android12SortedVectorINS_14MediaCodecInfo12ProfileLevelEE10do_compareEPKvS5_"
    }
   ],
   "unique_id":"_ZTSN7android12SortedVectorINS_14MediaCodecInfo12ProfileLevelEEE"
  },
  {
   "vtable_components":[
    {
     "kind":"offset_to_top"
    },
    {
     "kind":"rtti",
     "mangled_component_name":"_ZTIN7android6VectorIjEE"
    },
    {
     "kind":"complete_dtor_pointer",
     "mangled_component_name":"_ZN7android6VectorIjED1Ev"
    },
    {
     "kind":"deleting_dtor_pointer",
     "mangled_component_name":"_ZN7android6VectorIjED0Ev"
    },
    {
     "mangled_component_name":"_ZNK7android6VectorIjE12do_constructEPvj"
    },
    {
     "mangled_component_name":"_ZNK7android6VectorIjE10do_destroyEPvj"
    },
    {
     "mangled_component_name":"_ZNK7android6VectorIjE7do_copyEPvPKvj"
    },
    {
     "mangled_component_name":"_ZNK7android6VectorIjE8do_splatEPvPKvj"
    },
    {
     "mangled_component_name":"_ZNK7android6VectorIjE15do_move_forwardEPvPKvj"
    },
    {
     "mangled_component_name":"_ZNK7android6VectorIjE16do_move_backwardEPvPKvj"
    }
   ],
   "unique_id":"_ZTSN7android6VectorIjEE"
  },
  {
   "vtable_components":[
    {
     "kind":"offset_to_top"
    },
    {
     "kind":"rtti",
     "mangled_component_name":"_ZTIN7android12SortedVectorIjEE"
    },
    {
     "kind":"complete_dtor_pointer",
     "mangled_component_name":"_ZN7android12SortedVectorIjED1Ev"
    },
    {
     "kind":"deleting_dtor_pointer",
     "mangled_component_name":"_ZN7android12SortedVectorIjED0Ev"
    },
    {
     "mangled_component_name":"_ZNK7android12SortedVectorIjE12do_constructEPvj"
    },
    {
     "mangled_component_name":"_ZNK7android12SortedVectorIjE10do_destroyEPvj"
    },
    {
     "mangled_component_name":"_ZNK7android12SortedVectorIjE7do_copyEPvPKvj"
    },
    {
     "mangled_component_name":"_ZNK7android12SortedVectorIjE8do_splatEPvPKvj"
    },
    {
     "mangled_component_name":"_ZNK7android12SortedVectorIjE15do_move_forwardEPvPKvj"
    },
    {
     "mangled_component_name":"_ZNK7android12SortedVectorIjE16do_move_backwardEPvPKvj"
    },
    {
     "mangled_component_name":"_ZNK7android12SortedVectorIjE10do_compareEPKvS3_"
    }
   ],
   "unique_id":"_ZTSN7android12SortedVectorIjEE"
  }
 ],
 "elf_functions":[
  {
   "binding":"weak",
   "name":"_ZN7android11BnInterfaceINS_12IOMXObserverEE10onAsBinderEv"
  },
  {
   "binding":"weak",
   "name":"_ZN7android11BnInterfaceINS_15IMediaCodecListEE10onAsBinderEv"
  },
  {
   "binding":"weak",
   "name":"_ZN7android11BnInterfaceINS_16IOMXBufferSourceEE10onAsBinderEv"
  },
  {
   "binding":"weak",
   "name":"_ZN7android11BnInterfaceINS_20IGraphicBufferSourceEE10onAsBinderEv"
  },
  {
   "binding":"weak",
   "name":"_ZN7android11BnInterfaceINS_4IOMXEE10onAsBinderEv"
  },
  {
   "binding":"weak",
   "name":"_ZN7android11BnInterfaceINS_8IOMXNodeEE10onAsBinderEv"
  },
  {
   "binding":"weak",
   "name":"_ZN7android11HpInterfaceINS_9BpOMXNodeENS_8hardware5media3omx4V1_05utils9LWOmxNodeELj1598507092EEC2ERKNS_2spINS_7IBinderEEE"
  },
  {
   "binding":"weak",
   "name":"_ZN7android12H2BConverterINS_8hardware5media3omx4V1_08IOmxNodeENS_8IOMXNodeENS_9BnOMXNodeELj1598507092EE10onTransactEjRKNS_6ParcelEPS9_j"
  },
  {
   "binding":"weak",
   "name":"_ZN7android12H2BConverterINS_8hardware5media3omx4V1_08IOmxNodeENS_8IOMXNodeENS_9BnOMXNodeELj1598507092EE11linkToDeathERKNS_2spINS_7IBinder14DeathRecipientEEEPvj"
  },
  {
   "binding":"weak",
   "name":"_ZN7android12H2BConverterINS_8hardware5media3omx4V1_08IOmxNodeENS_8IOMXNodeENS_9BnOMXNodeELj1598507092EE13unlinkToDeathERKNS_2wpINS_7IBinder14DeathRecipientEEEPvjPSC_"
  },
  {
   "name":"_ZN7android12IOMXObserver11asInterfaceERKNS_2spINS_7IBinderEEE"
  },
  {
   "name":"_ZN7android12IOMXObserverC2Ev"
  },
  {
   "name":"_ZN7android12IOMXObserverD0Ev"
  },
  {
   "name":"_ZN7android12IOMXObserverD1Ev"
  },
  {
   "name":"_ZN7android12IOMXObserverD2Ev"
  },
  {
   "name":"_ZN7android13BnOMXObserver10onTransactEjRKNS_6ParcelEPS1_j"
  },
  {
   "name":"_ZN7android14MediaCodecInfo10FromParcelERKNS_6ParcelE"
  },
  {
   "name":"_ZN7android14MediaCodecInfo12Capabilities10FromParcelERKNS_6ParcelE"
  },
  {
   "name":"_ZN7android14MediaCodecInfo12CapabilitiesC1Ev"
  },
  {
   "name":"_ZN7android14MediaCodecInfo12CapabilitiesC2Ev"
  },
  {
   "name":"_ZN7android14MediaCodecInfo18CapabilitiesWriter14addColorFormatEj"
  },
  {
   "name":"_ZN7android14MediaCodecInfo18CapabilitiesWriter15addProfileLevelEjj"
  },
  {
   "name":"_ZN7android14MediaCodecInfo18CapabilitiesWriter8addFlagsEj"
  },
  {
   "name":"_ZN7android14MediaCodecInfo18CapabilitiesWriter9addDetailEPKcS3_"
  },
  {
   "name":"_ZN7android14MediaCodecInfo18CapabilitiesWriter9addDetailEPKci"
  },
  {
   "name":"_ZN7android14MediaCodecInfo18CapabilitiesWriterC1EPNS0_12CapabilitiesE"
  },
  {
   "name":"_ZN7android14MediaCodecInfo18CapabilitiesWriterC2EPNS0_12CapabilitiesE"
  },
  {
   "name":"_ZN7android14MediaCodecInfoC1Ev"
  },
  {
   "name":"_ZN7android14MediaCodecInfoC2Ev"
  },
  {
   "name":"_ZN7android15IMediaCodecList11asInterfaceERKNS_2spINS_7IBinderEEE"
  },
  {
   "name":"_ZN7android15IMediaCodecListC2Ev"
  },
  {
   "name":"_ZN7android15IMediaCodecListD0Ev"
  },
  {
   "name":"_ZN7android15IMediaCodecListD1Ev"
  },
  {
   "name":"_ZN7android15IMediaCodecListD2Ev"
  },
  {
   "name":"_ZN7android16BnMediaCodecList10onTransactEjRKNS_6ParcelEPS1_j"
  },
  {
   "name":"_ZN7android16MediaCodecBuffer4baseEv"
  },
  {
   "name":"_ZN7android16MediaCodecBuffer4dataEv"
  },
  {
   "name":"_ZN7android16MediaCodecBuffer4metaEv"
  },
  {
   "name":"_ZN7android16MediaCodecBuffer6formatEv"
  },
  {
   "name":"_ZN7android16MediaCodecBuffer8setRangeEjj"
  },
  {
   "name":"_ZN7android16MediaCodecBuffer9setFormatERKNS_2spINS_8AMessageEEE"
  },
  {
   "name":"_ZN7android16MediaCodecBufferC1ERKNS_2spINS_8AMessageEEERKNS1_INS_7ABufferEEE"
  },
  {
   "name":"_ZN7android16MediaCodecBufferC2ERKNS_2spINS_8AMessageEEERKNS1_INS_7ABufferEEE"
  },
  {
   "name":"_ZN7android20MediaCodecInfoWriter10removeMimeEPKc"
  },
  {
   "name":"_ZN7android20MediaCodecInfoWriter10setEncoderEb"
  },
  {
   "name":"_ZN7android20MediaCodecInfoWriter7addMimeEPKc"
  },
  {
   "name":"_ZN7android20MediaCodecInfoWriter7setNameEPKc"
  },
  {
   "name":"_ZN7android20MediaCodecInfoWriter7setRankEj"
  },
  {
   "name":"_ZN7android20MediaCodecInfoWriter8setOwnerEPKc"
  },
  {
   "name":"_ZN7android20MediaCodecInfoWriterC1EPNS_14MediaCodecInfoE"
  },
  {
   "name":"_ZN7android20MediaCodecInfoWriterC2EPNS_14MediaCodecInfoE"
  },
  {
   "name":"_ZN7android4IOMX11asInterfaceERKNS_2spINS_7IBinderEEE"
  },
  {
   "name":"_ZN7android4IOMXC2Ev"
  },
  {
   "name":"_ZN7android4IOMXD0Ev"
  },
  {
   "name":"_ZN7android4IOMXD1Ev"
  },
  {
   "name":"_ZN7android4IOMXD2Ev"
  },
  {
   "name":"_ZN7android5BnOMX10onTransactEjRKNS_6ParcelEPS1_j"
  },
  {
   "name":"_ZN7android8IOMXNode11asInterfaceERKNS_2spINS_7IBinderEEE"
  },
  {
   "name":"_ZN7android8IOMXNode15getHalInterfaceEv"
  },
  {
   "name":"_ZN7android8IOMXNodeC2Ev"
  },
  {
   "name":"_ZN7android8IOMXNodeD0Ev"
  },
  {
   "name":"_ZN7android8IOMXNodeD1Ev"
  },
  {
   "name":"_ZN7android8IOMXNodeD2Ev"
  },
  {
   "name":"_ZN7android8hardware5media3omx4V1_05utils13LWOmxObserver10onMessagesERKNSt3__14listINS_11omx_messageENS6_9allocatorIS8_EEEE"
  },
  {
   "name":"_ZN7android8hardware5media3omx4V1_05utils13LWOmxObserverC1ERKNS_2spINS3_12IOmxObserverEEE"
  },
  {
   "name":"_ZN7android8hardware5media3omx4V1_05utils13LWOmxObserverC2ERKNS_2spINS3_12IOmxObserverEEE"
  },
  {
   "name":"_ZN7android8hardware5media3omx4V1_05utils13TWOmxObserver10onMessagesERKNS0_8hidl_vecINS3_7MessageEEE"
  },
  {
   "name":"_ZN7android8hardware5media3omx4V1_05utils13TWOmxObserverC1ERKNS_2spINS_12IOMXObserverEEE"
  },
  {
   "name":"_ZN7android8hardware5media3omx4V1_05utils13TWOmxObserverC2ERKNS_2spINS_12IOMXObserverEEE"
  },
  {
   "name":"_ZN7android8hardware5media3omx4V1_05utils17LWOmxBufferSource11onOmxLoadedEv"
  },
  {
   "name":"_ZN7android8hardware5media3omx4V1_05utils17LWOmxBufferSource14onOmxExecutingEv"
  },
  {
   "name":"_ZN7android8hardware5media3omx4V1_05utils17LWOmxBufferSource18onInputBufferAddedEi"
  },
  {
   "name":"_ZN7android8hardware5media3omx4V1_05utils17LWOmxBufferSource20onInputBufferEmptiedEiRKNS_18OMXFenceParcelableE"
  },
  {
   "name":"_ZN7android8hardware5media3omx4V1_05utils17LWOmxBufferSource9onOmxIdleEv"
  },
  {
   "name":"_ZN7android8hardware5media3omx4V1_05utils17LWOmxBufferSourceC1ERKNS_2spINS3_16IOmxBufferSourceEEE"
  },
  {
   "name":"_ZN7android8hardware5media3omx4V1_05utils17LWOmxBufferSourceC2ERKNS_2spINS3_16IOmxBufferSourceEEE"
  },
  {
   "name":"_ZN7android8hardware5media3omx4V1_05utils17TWOmxBufferSource11onOmxLoadedEv"
  },
  {
   "name":"_ZN7android8hardware5media3omx4V1_05utils17TWOmxBufferSource14onOmxExecutingEv"
  },
  {
   "name":"_ZN7android8hardware5media3omx4V1_05utils17TWOmxBufferSource18onInputBufferAddedEj"
  },
  {
   "name":"_ZN7android8hardware5media3omx4V1_05utils17TWOmxBufferSource20onInputBufferEmptiedEjRKNS0_11hidl_handleE"
  },
  {
   "name":"_ZN7android8hardware5media3omx4V1_05utils17TWOmxBufferSource9onOmxIdleEv"
  },
  {
   "name":"_ZN7android8hardware5media3omx4V1_05utils17TWOmxBufferSourceC1ERKNS_2spINS_16IOMXBufferSourceEEE"
  },
  {
   "name":"_ZN7android8hardware5media3omx4V1_05utils17TWOmxBufferSourceC2ERKNS_2spINS_16IOMXBufferSourceEEE"
  },
  {
   "name":"_ZN7android8hardware5media3omx4V1_05utils21LWGraphicBufferSource10setSuspendEbx"
  },
  {
   "name":"_ZN7android8hardware5media3omx4V1_05utils21LWGraphicBufferSource13setStopTimeUsEx"
  },
  {
   "name":"_ZN7android8hardware5media3omx4V1_05utils21LWGraphicBufferSource14setStartTimeUsEx"
  },
  {
   "name":"_ZN7android8hardware5media3omx4V1_05utils21LWGraphicBufferSource15setColorAspectsEi"
  },
  {
   "name":"_ZN7android8hardware5media3omx4V1_05utils21LWGraphicBufferSource15setTimeOffsetUsEx"
  },
  {
   "name":"_ZN7android8hardware5media3omx4V1_05utils21LWGraphicBufferSource18setTimeLapseConfigEdd"
  },
  {
   "name":"_ZN7android8hardware5media3omx4V1_05utils21LWGraphicBufferSource19getStopTimeOffsetUsEPx"
  },
  {
   "name":"_ZN7android8hardware5media3omx4V1_05utils21LWGraphicBufferSource22signalEndOfInputStreamEv"
  },
  {
   "name":"_ZN7android8hardware5media3omx4V1_05utils21LWGraphicBufferSource29setRepeatPreviousFrameDelayUsEx"
  },
  {
   "name":"_ZN7android8hardware5media3omx4V1_05utils21LWGraphicBufferSource9configureERKNS_2spINS_8IOMXNodeEEEi"
  },
  {
   "name":"_ZN7android8hardware5media3omx4V1_05utils21LWGraphicBufferSource9setMaxFpsEf"
  },
  {
   "name":"_ZN7android8hardware5media3omx4V1_05utils21LWGraphicBufferSourceC1ERKNS_2spINS3_20IGraphicBufferSourceEEE"
  },
  {
   "name":"_ZN7android8hardware5media3omx4V1_05utils21LWGraphicBufferSourceC2ERKNS_2spINS3_20IGraphicBufferSourceEEE"
  },
  {
   "name":"_ZN7android8hardware5media3omx4V1_05utils5LWOmx12allocateNodeEPKcRKNS_2spINS_12IOMXObserverEEEPNS8_INS_8IOMXNodeEEE"
  },
  {
   "name":"_ZN7android8hardware5media3omx4V1_05utils5LWOmx18createInputSurfaceEPNS_2spINS_22IGraphicBufferProducerEEEPNS6_INS_20IGraphicBufferSourceEEE"
  },
  {
   "name":"_ZN7android8hardware5media3omx4V1_05utils5LWOmx9listNodesEPNS_4ListINS_4IOMX13ComponentInfoEEE"
  },
  {
   "name":"_ZN7android8hardware5media3omx4V1_05utils5LWOmxC1ERKNS_2spINS3_4IOmxEEE"
  },
  {
   "name":"_ZN7android8hardware5media3omx4V1_05utils5LWOmxC2ERKNS_2spINS3_4IOmxEEE"
  },
  {
   "name":"_ZN7android8hardware5media3omx4V1_05utils9LWOmxNode10fillBufferEjRKNS_9OMXBufferEi"
  },
  {
   "name":"_ZN7android8hardware5media3omx4V1_05utils9LWOmxNode10freeBufferEjj"
  },
  {
   "name":"_ZN7android8hardware5media3omx4V1_05utils9LWOmxNode11emptyBufferEjRKNS_9OMXBufferEjxi"
  },
  {
   "name":"_ZN7android8hardware5media3omx4V1_05utils9LWOmxNode11sendCommandE15OMX_COMMANDTYPEi"
  },
  {
   "name":"_ZN7android8hardware5media3omx4V1_05utils9LWOmxNode11setPortModeEjNS_4IOMX8PortModeE"
  },
  {
   "name":"_ZN7android8hardware5media3omx4V1_05utils9LWOmxNode12getParameterE13OMX_INDEXTYPEPvj"
  },
  {
   "name":"_ZN7android8hardware5media3omx4V1_05utils9LWOmxNode12setParameterE13OMX_INDEXTYPEPKvj"
  },
  {
   "name":"_ZN7android8hardware5media3omx4V1_05utils9LWOmxNode15dispatchMessageERKNS_11omx_messageE"
  },
  {
   "name":"_ZN7android8hardware5media3omx4V1_05utils9LWOmxNode15setInputSurfaceERKNS_2spINS_16IOMXBufferSourceEEE"
  },
  {
   "name":"_ZN7android8hardware5media3omx4V1_05utils9LWOmxNode17getExtensionIndexEPKcP13OMX_INDEXTYPE"
  },
  {
   "name":"_ZN7android8hardware5media3omx4V1_05utils9LWOmxNode20allocateSecureBufferEjjPjPPvPNS_2spINS_12NativeHandleEEE"
  },
  {
   "name":"_ZN7android8hardware5media3omx4V1_05utils9LWOmxNode21getGraphicBufferUsageEjPj"
  },
  {
   "name":"_ZN7android8hardware5media3omx4V1_05utils9LWOmxNode24configureVideoTunnelModeEj8OMX_BOOLjPP13native_handle"
  },
  {
   "name":"_ZN7android8hardware5media3omx4V1_05utils9LWOmxNode26prepareForAdaptivePlaybackEj8OMX_BOOLjj"
  },
  {
   "name":"_ZN7android8hardware5media3omx4V1_05utils9LWOmxNode8freeNodeEv"
  },
  {
   "name":"_ZN7android8hardware5media3omx4V1_05utils9LWOmxNode9getConfigE13OMX_INDEXTYPEPvj"
  },
  {
   "name":"_ZN7android8hardware5media3omx4V1_05utils9LWOmxNode9setConfigE13OMX_INDEXTYPEPKvj"
  },
  {
   "name":"_ZN7android8hardware5media3omx4V1_05utils9LWOmxNode9useBufferEjRKNS_9OMXBufferEPj"
  },
  {
   "name":"_ZN7android8hardware5media3omx4V1_05utils9TWOmxNode10fillBufferEjRKNS3_11CodecBufferERKNS0_11hidl_handleE"
  },
  {
   "name":"_ZN7android8hardware5media3omx4V1_05utils9TWOmxNode10freeBufferEjj"
  },
  {
   "name":"_ZN7android8hardware5media3omx4V1_05utils9TWOmxNode11emptyBufferEjRKNS3_11CodecBufferEjyRKNS0_11hidl_handleE"
  },
  {
   "name":"_ZN7android8hardware5media3omx4V1_05utils9TWOmxNode11sendCommandEji"
  },
  {
   "name":"_ZN7android8hardware5media3omx4V1_05utils9TWOmxNode11setPortModeEjNS3_8PortModeE"
  },
  {
   "name":"_ZN7android8hardware5media3omx4V1_05utils9TWOmxNode12getParameterEjRKNS0_8hidl_vecIhEENSt3__18functionIFvNS3_6StatusES9_EEE"
  },
  {
   "name":"_ZN7android8hardware5media3omx4V1_05utils9TWOmxNode12setParameterEjRKNS0_8hidl_vecIhEE"
  },
  {
   "name":"_ZN7android8hardware5media3omx4V1_05utils9TWOmxNode15dispatchMessageERKNS3_7MessageE"
  },
  {
   "name":"_ZN7android8hardware5media3omx4V1_05utils9TWOmxNode15setInputSurfaceERKNS_2spINS3_16IOmxBufferSourceEEE"
  },
  {
   "name":"_ZN7android8hardware5media3omx4V1_05utils9TWOmxNode17getExtensionIndexERKNS0_11hidl_stringENSt3__18functionIFvNS3_6StatusEjEEE"
  },
  {
   "name":"_ZN7android8hardware5media3omx4V1_05utils9TWOmxNode20allocateSecureBufferEjyNSt3__18functionIFvNS3_6StatusEjRKNS0_11hidl_handleEEEE"
  },
  {
   "name":"_ZN7android8hardware5media3omx4V1_05utils9TWOmxNode21getGraphicBufferUsageEjNSt3__18functionIFvNS3_6StatusEjEEE"
  },
  {
   "name":"_ZN7android8hardware5media3omx4V1_05utils9TWOmxNode24configureVideoTunnelModeEjbjNSt3__18functionIFvNS3_6StatusERKNS0_11hidl_handleEEEE"
  },
  {
   "name":"_ZN7android8hardware5media3omx4V1_05utils9TWOmxNode26prepareForAdaptivePlaybackEjbjj"
  },
  {
   "name":"_ZN7android8hardware5media3omx4V1_05utils9TWOmxNode8freeNodeEv"
  },
  {
   "name":"_ZN7android8hardware5media3omx4V1_05utils9TWOmxNode9getConfigEjRKNS0_8hidl_vecIhEENSt3__18functionIFvNS3_6StatusES9_EEE"
  },
  {
   "name":"_ZN7android8hardware5media3omx4V1_05utils9TWOmxNode9setConfigEjRKNS0_8hidl_vecIhEE"
  },
  {
   "name":"_ZN7android8hardware5media3omx4V1_05utils9TWOmxNode9useBufferEjRKNS3_11CodecBufferENSt3__18functionIFvNS3_6StatusEjEEE"
  },
  {
   "name":"_ZN7android8hardware5media3omx4V1_05utils9TWOmxNodeC1ERKNS_2spINS_8IOMXNodeEEE"
  },
  {
   "name":"_ZN7android8hardware5media3omx4V1_05utils9TWOmxNodeC2ERKNS_2spINS_8IOMXNodeEEE"
  },
  {
   "name":"_ZN7android9BnOMXNode10onTransactEjRKNS_6ParcelEPS1_j"
  },
  {
   "name":"_ZN7android9OMXBuffer14readFromParcelEPKNS_6ParcelE"
  },
  {
   "name":"_ZN7android9OMXBufferC1ERKNS_2spINS_12NativeHandleEEE"
  },
  {
   "name":"_ZN7android9OMXBufferC1ERKNS_2spINS_13GraphicBufferEEE"
  },
  {
   "name":"_ZN7android9OMXBufferC1ERKNS_2spINS_16MediaCodecBufferEEE"
  },
  {
   "name":"_ZN7android9OMXBufferC1ERKNS_2spINS_7IMemoryEEE"
  },
  {
   "name":"_ZN7android9OMXBufferC1ERKNS_8hardware11hidl_memoryE"
  },
  {
   "name":"_ZN7android9OMXBufferC1Ejj"
  },
  {
   "name":"_ZN7android9OMXBufferC1Ev"
  },
  {
   "name":"_ZN7android9OMXBufferC2ERKNS_2spINS_12NativeHandleEEE"
  },
  {
   "name":"_ZN7android9OMXBufferC2ERKNS_2spINS_13GraphicBufferEEE"
  },
  {
   "name":"_ZN7android9OMXBufferC2ERKNS_2spINS_16MediaCodecBufferEEE"
  },
  {
   "name":"_ZN7android9OMXBufferC2ERKNS_2spINS_7IMemoryEEE"
  },
  {
   "name":"_ZN7android9OMXBufferC2ERKNS_8hardware11hidl_memoryE"
  },
  {
   "name":"_ZN7android9OMXBufferC2Ejj"
  },
  {
   "name":"_ZN7android9OMXBufferC2Ev"
  },
  {
   "name":"_ZN7android9OMXBufferD1Ev"
  },
  {
   "name":"_ZN7android9OMXBufferD2Ev"
  },
  {
   "name":"_ZN7android9OMXBufferaSEOS0_"
  },
  {
   "name":"_ZNK7android12IOMXObserver22getInterfaceDescriptorEv"
  },
  {
   "binding":"weak",
   "name":"_ZNK7android12SortedVectorINS_14MediaCodecInfo12ProfileLevelEE10do_compareEPKvS5_"
  },
  {
   "binding":"weak",
   "name":"_ZNK7android12SortedVectorINS_14MediaCodecInfo12ProfileLevelEE10do_destroyEPvj"
  },
  {
   "binding":"weak",
   "name":"_ZNK7android12SortedVectorINS_14MediaCodecInfo12ProfileLevelEE12do_constructEPvj"
  },
  {
   "binding":"weak",
   "name":"_ZNK7android12SortedVectorINS_14MediaCodecInfo12ProfileLevelEE15do_move_forwardEPvPKvj"
  },
  {
   "binding":"weak",
   "name":"_ZNK7android12SortedVectorINS_14MediaCodecInfo12ProfileLevelEE16do_move_backwardEPvPKvj"
  },
  {
   "binding":"weak",
   "name":"_ZNK7android12SortedVectorINS_14MediaCodecInfo12ProfileLevelEE7do_copyEPvPKvj"
  },
  {
   "binding":"weak",
   "name":"_ZNK7android12SortedVectorINS_14MediaCodecInfo12ProfileLevelEE8do_splatEPvPKvj"
  },
  {
   "binding":"weak",
   "name":"_ZNK7android12SortedVectorINS_16key_value_pair_tINS_7AStringENS_2spINS_14MediaCodecInfo12CapabilitiesEEEEEE10do_compareEPKvSA_"
  },
  {
   "binding":"weak",
   "name":"_ZNK7android12SortedVectorINS_16key_value_pair_tINS_7AStringENS_2spINS_14MediaCodecInfo12CapabilitiesEEEEEE10do_destroyEPvj"
  },
  {
   "binding":"weak",
   "name":"_ZNK7android12SortedVectorINS_16key_value_pair_tINS_7AStringENS_2spINS_14MediaCodecInfo12CapabilitiesEEEEEE12do_constructEPvj"
  },
  {
   "binding":"weak",
   "name":"_ZNK7android12SortedVectorINS_16key_value_pair_tINS_7AStringENS_2spINS_14MediaCodecInfo12CapabilitiesEEEEEE15do_move_forwardEPvPKvj"
  },
  {
   "binding":"weak",
   "name":"_ZNK7android12SortedVectorINS_16key_value_pair_tINS_7AStringENS_2spINS_14MediaCodecInfo12CapabilitiesEEEEEE16do_move_backwardEPvPKvj"
  },
  {
   "binding":"weak",
   "name":"_ZNK7android12SortedVectorINS_16key_value_pair_tINS_7AStringENS_2spINS_14MediaCodecInfo12CapabilitiesEEEEEE7do_copyEPvPKvj"
  },
  {
   "binding":"weak",
   "name":"_ZNK7android12SortedVectorINS_16key_value_pair_tINS_7AStringENS_2spINS_14MediaCodecInfo12CapabilitiesEEEEEE8do_splatEPvPKvj"
  },
  {
   "binding":"weak",
   "name":"_ZNK7android12SortedVectorIjE10do_compareEPKvS3_"
  },
  {
   "binding":"weak",
   "name":"_ZNK7android12SortedVectorIjE10do_destroyEPvj"
  },
  {
   "binding":"weak",
   "name":"_ZNK7android12SortedVectorIjE12do_constructEPvj"
  },
  {
   "binding":"weak",
   "name":"_ZNK7android12SortedVectorIjE15do_move_forwardEPvPKvj"
  },
  {
   "binding":"weak",
   "name":"_ZNK7android12SortedVectorIjE16do_move_backwardEPvPKvj"
  },
  {
   "binding":"weak",
   "name":"_ZNK7android12SortedVectorIjE7do_copyEPvPKvj"
  },
  {
   "binding":"weak",
   "name":"_ZNK7android12SortedVectorIjE8do_splatEPvPKvj"
  },
  {
   "name":"_ZNK7android14MediaCodecInfo12Capabilities10getDetailsEv"
  },
  {
   "name":"_ZNK7android14MediaCodecInfo12Capabilities13writeToParcelEPNS_6ParcelE"
  },
  {
   "name":"_ZNK7android14MediaCodecInfo12Capabilities24getSupportedColorFormatsEPNS_6VectorIjEE"
  },
  {
   "name":"_ZNK7android14MediaCodecInfo12Capabilities25getSupportedProfileLevelsEPNS_6VectorINS0_12ProfileLevelEEE"
  },
  {
   "name":"_ZNK7android14MediaCodecInfo12Capabilities8getFlagsEv"
  },
  {
   "name":"_ZNK7android14MediaCodecInfo12getCodecNameEv"
  },
  {
   "name":"_ZNK7android14MediaCodecInfo12getOwnerNameEv"
  },
  {
   "name":"_ZNK7android14MediaCodecInfo13writeToParcelEPNS_6ParcelE"
  },
  {
   "name":"_ZNK7android14MediaCodecInfo17getSupportedMimesEPNS_6VectorINS_7AStringEEE"
  },
  {
   "name":"_ZNK7android14MediaCodecInfo18getCapabilitiesForEPKc"
  },
  {
   "name":"_ZNK7android14MediaCodecInfo18getCapabilityIndexEPKc"
  },
  {
   "name":"_ZNK7android14MediaCodecInfo4rankEv"
  },
  {
   "name":"_ZNK7android14MediaCodecInfo9isEncoderEv"
  },
  {
   "name":"_ZNK7android15IMediaCodecList22getInterfaceDescriptorEv"
  },
  {
   "name":"_ZNK7android16MediaCodecBuffer4sizeEv"
  },
  {
   "name":"_ZNK7android16MediaCodecBuffer6offsetEv"
  },
  {
   "name":"_ZNK7android16MediaCodecBuffer8capacityEv"
  },
  {
   "name":"_ZNK7android4IOMX22getInterfaceDescriptorEv"
  },
  {
   "binding":"weak",
   "name":"_ZNK7android6Parcel16readStrongBinderINS_8IOMXNodeEEEiPNS_2spIT_EE"
  },
  {
   "binding":"weak",
   "name":"_ZNK7android6VectorINS_14MediaCodecInfo12ProfileLevelEE10do_destroyEPvj"
  },
  {
   "binding":"weak",
   "name":"_ZNK7android6VectorINS_14MediaCodecInfo12ProfileLevelEE12do_constructEPvj"
  },
  {
   "binding":"weak",
   "name":"_ZNK7android6VectorINS_14MediaCodecInfo12ProfileLevelEE15do_move_forwardEPvPKvj"
  },
  {
   "binding":"weak",
   "name":"_ZNK7android6VectorINS_14MediaCodecInfo12ProfileLevelEE16do_move_backwardEPvPKvj"
  },
  {
   "binding":"weak",
   "name":"_ZNK7android6VectorINS_14MediaCodecInfo12ProfileLevelEE7do_copyEPvPKvj"
  },
  {
   "binding":"weak",
   "name":"_ZNK7android6VectorINS_14MediaCodecInfo12ProfileLevelEE8do_splatEPvPKvj"
  },
  {
   "binding":"weak",
   "name":"_ZNK7android6VectorIjE10do_destroyEPvj"
  },
  {
   "binding":"weak",
   "name":"_ZNK7android6VectorIjE12do_constructEPvj"
  },
  {
   "binding":"weak",
   "name":"_ZNK7android6VectorIjE15do_move_forwardEPvPKvj"
  },
  {
   "binding":"weak",
   "name":"_ZNK7android6VectorIjE16do_move_backwardEPvPKvj"
  },
  {
   "binding":"weak",
   "name":"_ZNK7android6VectorIjE7do_copyEPvPKvj"
  },
  {
   "binding":"weak",
   "name":"_ZNK7android6VectorIjE8do_splatEPvPKvj"
  },
  {
   "name":"_ZNK7android8IOMXNode22getInterfaceDescriptorEv"
  },
  {
   "name":"_ZNK7android9OMXBuffer13writeToParcelEPNS_6ParcelE"
  },
  {
   "binding":"weak",
   "name":"_ZThn4_N7android12H2BConverterINS_8hardware5media3omx4V1_08IOmxNodeENS_8IOMXNodeENS_9BnOMXNodeELj1598507092EE10onTransactEjRKNS_6ParcelEPS9_j"
  },
  {
   "binding":"weak",
   "name":"_ZThn4_N7android12H2BConverterINS_8hardware5media3omx4V1_08IOmxNodeENS_8IOMXNodeENS_9BnOMXNodeELj1598507092EE11linkToDeathERKNS_2spINS_7IBinder14DeathRecipientEEEPvj"
  },
  {
   "binding":"weak",
   "name":"_ZThn4_N7android12H2BConverterINS_8hardware5media3omx4V1_08IOmxNodeENS_8IOMXNodeENS_9BnOMXNodeELj1598507092EE13unlinkToDeathERKNS_2wpINS_7IBinder14DeathRecipientEEEPvjPSC_"
  },
  {
   "name":"_ZThn4_N7android13BnOMXObserver10onTransactEjRKNS_6ParcelEPS1_j"
  },
  {
   "name":"_ZThn4_N7android16BnMediaCodecList10onTransactEjRKNS_6ParcelEPS1_j"
  },
  {
   "name":"_ZThn4_N7android5BnOMX10onTransactEjRKNS_6ParcelEPS1_j"
  },
  {
   "name":"_ZThn4_N7android9BnOMXNode10onTransactEjRKNS_6ParcelEPS1_j"
  },
  {
   "name":"_ZTv0_n12_N7android12IOMXObserverD0Ev"
  },
  {
   "name":"_ZTv0_n12_N7android12IOMXObserverD1Ev"
  },
  {
   "name":"_ZTv0_n12_N7android15IMediaCodecListD0Ev"
  },
  {
   "name":"_ZTv0_n12_N7android15IMediaCodecListD1Ev"
  },
  {
   "name":"_ZTv0_n12_N7android4IOMXD0Ev"
  },
  {
   "name":"_ZTv0_n12_N7android4IOMXD1Ev"
  },
  {
   "name":"_ZTv0_n12_N7android8IOMXNodeD0Ev"
  },
  {
   "name":"_ZTv0_n12_N7android8IOMXNodeD1Ev"
  }
 ],
 "elf_objects":[
  {
   "name":"_ZN7android12IOMXObserver10descriptorE"
  },
  {
   "name":"_ZN7android15IMediaCodecList10descriptorE"
  },
  {
   "name":"_ZN7android4IOMX10descriptorE"
  },
  {
   "name":"_ZN7android8IOMXNode10descriptorE"
  },
  {
   "name":"_ZN7android9OMXBuffer7sPresetE"
  },
  {
   "name":"_ZTTN7android12IOMXObserverE"
  },
  {
   "name":"_ZTTN7android13BnOMXObserverE"
  },
  {
   "name":"_ZTTN7android15IMediaCodecListE"
  },
  {
   "name":"_ZTTN7android16BnMediaCodecListE"
  },
  {
   "name":"_ZTTN7android4IOMXE"
  },
  {
   "name":"_ZTTN7android5BnOMXE"
  },
  {
   "name":"_ZTTN7android8IOMXNodeE"
  },
  {
   "name":"_ZTTN7android8hardware5media3omx4V1_05utils13LWOmxObserverE"
  },
  {
   "name":"_ZTTN7android8hardware5media3omx4V1_05utils13TWOmxObserverE"
  },
  {
   "name":"_ZTTN7android8hardware5media3omx4V1_05utils17LWOmxBufferSourceE"
  },
  {
   "name":"_ZTTN7android8hardware5media3omx4V1_05utils17TWOmxBufferSourceE"
  },
  {
   "name":"_ZTTN7android8hardware5media3omx4V1_05utils21LWGraphicBufferSourceE"
  },
  {
   "name":"_ZTTN7android8hardware5media3omx4V1_05utils5LWOmxE"
  },
  {
   "name":"_ZTTN7android8hardware5media3omx4V1_05utils9LWOmxNodeE"
  },
  {
   "name":"_ZTTN7android8hardware5media3omx4V1_05utils9TWOmxNodeE"
  },
  {
   "name":"_ZTTN7android9BnOMXNodeE"
  },
  {
   "binding":"weak",
   "name":"_ZTVN7android12H2BConverterINS_8hardware5media3omx4V1_08IOmxNodeENS_8IOMXNodeENS_9BnOMXNodeELj1598507092EE8ObituaryE"
  },
  {
   "name":"_ZTVN7android12IOMXObserverE"
  },
  {
   "binding":"weak",
   "name":"_ZTVN7android12SortedVectorINS_14MediaCodecInfo12ProfileLevelEEE"
  },
  {
   "binding":"weak",
   "name":"_ZTVN7android12SortedVectorINS_16key_value_pair_tINS_7AStringENS_2spINS_14MediaCodecInfo12CapabilitiesEEEEEEE"
  },
  {
   "binding":"weak",
   "name":"_ZTVN7android12SortedVectorIjEE"
  },
  {
   "name":"_ZTVN7android13BnOMXObserverE"
  },
  {
   "binding":"weak",
   "name":"_ZTVN7android14MediaCodecInfo12CapabilitiesE"
  },
  {
   "binding":"weak",
   "name":"_ZTVN7android14MediaCodecInfoE"
  },
  {
   "name":"_ZTVN7android15IMediaCodecListE"
  },
  {
   "name":"_ZTVN7android16BnMediaCodecListE"
  },
  {
   "name":"_ZTVN7android16MediaCodecBufferE"
  },
  {
   "binding":"weak",
   "name":"_ZTVN7android18OMXFenceParcelableE"
  },
  {
   "name":"_ZTVN7android4IOMXE"
  },
  {
   "binding":"weak",
   "name":"_ZTVN7android4ListINS_4IOMX13ComponentInfoEEE"
  },
  {
   "binding":"weak",
   "name":"_ZTVN7android4ListINS_7String8EEE"
  },
  {
   "name":"_ZTVN7android5BnOMXE"
  },
  {
   "binding":"weak",
   "name":"_ZTVN7android6Parcel17FlattenableHelperINS_13GraphicBufferEEE"
  },
  {
   "binding":"weak",
   "name":"_ZTVN7android6VectorINS_14MediaCodecInfo12ProfileLevelEEE"
  },
  {
   "binding":"weak",
   "name":"_ZTVN7android6VectorIjEE"
  },
  {
   "name":"_ZTVN7android8IOMXNodeE"
  },
  {
   "name":"_ZTVN7android8hardware5media3omx4V1_05utils13LWOmxObserverE"
  },
  {
   "name":"_ZTVN7android8hardware5media3omx4V1_05utils13TWOmxObserverE"
  },
  {
   "name":"_ZTVN7android8hardware5media3omx4V1_05utils17LWOmxBufferSourceE"
  },
  {
   "name":"_ZTVN7android8hardware5media3omx4V1_05utils17TWOmxBufferSourceE"
  },
  {
   "name":"_ZTVN7android8hardware5media3omx4V1_05utils21LWGraphicBufferSourceE"
  },
  {
   "name":"_ZTVN7android8hardware5media3omx4V1_05utils5LWOmxE"
  },
  {
   "name":"_ZTVN7android8hardware5media3omx4V1_05utils9LWOmxNodeE"
  },
  {
   "name":"_ZTVN7android8hardware5media3omx4V1_05utils9TWOmxNodeE"
  },
  {
   "name":"_ZTVN7android9BnOMXNodeE"
  }
 ]
}