{
 "array_types" :
 [
  {
   "alignment" : 1,
   "linker_set_key" : "char [0]",
   "name" : "char [0]",
   "referenced_type" : "type-11",
   "self_type" : "type-1177",
   "source_file" : "/system/core/liblog/include/log/log_read.h"
  },
  {
   "linker_set_key" : "float []",
   "name" : "float []",
   "referenced_type" : "type-548",
   "self_type" : "type-547",
   "source_file" : "/system/core/libsystem/include/system/graphics.h"
  },
  {
   "alignment" : 4,
   "linker_set_key" : "int [0]",
   "name" : "int [0]",
   "referenced_type" : "type-14",
   "self_type" : "type-47",
   "source_file" : "/system/core/libcutils/include/cutils/native_handle.h"
  },
  {
   "alignment" : 1,
   "linker_set_key" : "unsigned char [32]",
   "name" : "unsigned char [32]",
   "referenced_type" : "type-85",
   "self_type" : "type-84",
   "size" : 32,
   "source_file" : "/system/libhidl/base/include/hidl/HidlSupport.h"
  },
  {
   "alignment" : 1,
   "linker_set_key" : "unsigned char [5121]",
   "name" : "unsigned char [5121]",
   "referenced_type" : "type-85",
   "self_type" : "type-1579",
   "size" : 5121,
   "source_file" : "/system/core/liblog/include/log/log_read.h"
  },
  {
   "alignment" : 4,
   "linker_set_key" : "unsigned int [5]",
   "name" : "unsigned int [5]",
   "referenced_type" : "type-2",
   "self_type" : "type-373",
   "size" : 20,
   "source_file" : "/system/libhidl/base/include/hidl/HidlSupport.h"
  },
  {
   "alignment" : 4,
   "linker_set_key" : "unsigned int [8]",
   "name" : "unsigned int [8]",
   "referenced_type" : "type-2",
   "self_type" : "type-540",
   "size" : 32,
   "source_file" : "/system/core/libsystem/include/system/graphics.h"
  }
 ],
 "builtin_types" :
 [
  {
   "alignment" : 1,
   "is_integral" : true,
   "is_unsigned" : true,
   "linker_set_key" : "bool",
   "name" : "bool",
   "referenced_type" : "type-13",
   "self_type" : "type-13",
   "size" : 1
  },
  {
   "alignment" : 1,
   "is_integral" : true,
   "linker_set_key" : "char",
   "name" : "char",
   "referenced_type" : "type-11",
   "self_type" : "type-11",
   "size" : 1
  },
  {
   "alignment" : 2,
   "is_integral" : true,
   "is_unsigned" : true,
   "linker_set_key" : "char16_t",
   "name" : "char16_t",
   "referenced_type" : "type-423",
   "self_type" : "type-423",
   "size" : 2
  },
  {
   "alignment" : 4,
   "linker_set_key" : "double",
   "name" : "double",
   "referenced_type" : "type-22",
   "self_type" : "type-22",
   "size" : 8
  },
  {
   "alignment" : 4,
   "linker_set_key" : "float",
   "name" : "float",
   "referenced_type" : "type-548",
   "self_type" : "type-548",
   "size" : 4
  },
  {
   "alignment" : 4,
   "is_integral" : true,
   "linker_set_key" : "int",
   "name" : "int",
   "referenced_type" : "type-14",
   "self_type" : "type-14",
   "size" : 4
  },
  {
   "alignment" : 4,
   "is_integral" : true,
   "linker_set_key" : "long",
   "name" : "long",
   "referenced_type" : "type-1884",
   "self_type" : "type-1884",
   "size" : 4
  },
  {
   "alignment" : 4,
   "is_integral" : true,
   "linker_set_key" : "long long",
   "name" : "long long",
   "referenced_type" : "type-1759",
   "self_type" : "type-1759",
   "size" : 8
  },
  {
   "alignment" : 2,
   "is_integral" : true,
   "linker_set_key" : "short",
   "name" : "short",
   "referenced_type" : "type-1866",
   "self_type" : "type-1866",
   "size" : 2
  },
  {
   "alignment" : 1,
   "is_integral" : true,
   "linker_set_key" : "signed char",
   "name" : "signed char",
   "referenced_type" : "type-277",
   "self_type" : "type-277",
   "size" : 1
  },
  {
   "alignment" : 1,
   "is_integral" : true,
   "is_unsigned" : true,
   "linker_set_key" : "unsigned char",
   "name" : "unsigned char",
   "referenced_type" : "type-85",
   "self_type" : "type-85",
   "size" : 1
  },
  {
   "alignment" : 4,
   "is_integral" : true,
   "is_unsigned" : true,
   "linker_set_key" : "unsigned int",
   "name" : "unsigned int",
   "referenced_type" : "type-2",
   "self_type" : "type-2",
   "size" : 4
  },
  {
   "alignment" : 4,
   "is_integral" : true,
   "is_unsigned" : true,
   "linker_set_key" : "unsigned long",
   "name" : "unsigned long",
   "referenced_type" : "type-1890",
   "self_type" : "type-1890",
   "size" : 4
  },
  {
   "alignment" : 4,
   "is_integral" : true,
   "is_unsigned" : true,
   "linker_set_key" : "unsigned long long",
   "name" : "unsigned long long",
   "referenced_type" : "type-12",
   "self_type" : "type-12",
   "size" : 8
  },
  {
   "alignment" : 2,
   "is_integral" : true,
   "is_unsigned" : true,
   "linker_set_key" : "unsigned short",
   "name" : "unsigned short",
   "referenced_type" : "type-379",
   "self_type" : "type-379",
   "size" : 2
  },
  {
   "linker_set_key" : "void",
   "name" : "void",
   "referenced_type" : "type-385",
   "self_type" : "type-385"
  }
 ],
 "elf_functions" :
 [
  {
   "binding" : "weak",
   "name" : "_ZN7android8hardware10fromBinderINS0_5radio6config4V1_020IRadioConfigResponseENS4_23BpHwRadioConfigResponseENS4_23BnHwRadioConfigResponseEEENS_2spIT_EERKNS8_INS0_7IBinderEEE"
  },
  {
   "binding" : "weak",
   "name" : "_ZN7android8hardware10fromBinderINS0_5radio6config4V1_022IRadioConfigIndicationENS4_25BpHwRadioConfigIndicationENS4_25BnHwRadioConfigIndicationEEENS_2spIT_EERKNS8_INS0_7IBinderEEE"
  },
  {
   "name" : "_ZN7android8hardware5radio6config4V1_012IRadioConfig10getServiceERKNSt3__112basic_stringIcNS5_11char_traitsIcEENS5_9allocatorIcEEEEb"
  },
  {
   "name" : "_ZN7android8hardware5radio6config4V1_012IRadioConfig11linkToDeathERKNS_2spINS0_20hidl_death_recipientEEEy"
  },
  {
   "name" : "_ZN7android8hardware5radio6config4V1_012IRadioConfig12getDebugInfoENSt3__18functionIFvRKNS_4hidl4base4V1_09DebugInfoEEEE"
  },
  {
   "name" : "_ZN7android8hardware5radio6config4V1_012IRadioConfig12getHashChainENSt3__18functionIFvRKNS0_8hidl_vecINS0_10hidl_arrayIhLj32EJEEEEEEEE"
  },
  {
   "name" : "_ZN7android8hardware5radio6config4V1_012IRadioConfig13tryGetServiceERKNSt3__112basic_stringIcNS5_11char_traitsIcEENS5_9allocatorIcEEEEb"
  },
  {
   "name" : "_ZN7android8hardware5radio6config4V1_012IRadioConfig13unlinkToDeathERKNS_2spINS0_20hidl_death_recipientEEE"
  },
  {
   "name" : "_ZN7android8hardware5radio6config4V1_012IRadioConfig14interfaceChainENSt3__18functionIFvRKNS0_8hidl_vecINS0_11hidl_stringEEEEEE"
  },
  {
   "name" : "_ZN7android8hardware5radio6config4V1_012IRadioConfig17registerAsServiceERKNSt3__112basic_stringIcNS5_11char_traitsIcEENS5_9allocatorIcEEEE"
  },
  {
   "name" : "_ZN7android8hardware5radio6config4V1_012IRadioConfig19interfaceDescriptorENSt3__18functionIFvRKNS0_11hidl_stringEEEE"
  },
  {
   "name" : "_ZN7android8hardware5radio6config4V1_012IRadioConfig21notifySyspropsChangedEv"
  },
  {
   "name" : "_ZN7android8hardware5radio6config4V1_012IRadioConfig21setHALInstrumentationEv"
  },
  {
   "name" : "_ZN7android8hardware5radio6config4V1_012IRadioConfig24registerForNotificationsERKNSt3__112basic_stringIcNS5_11char_traitsIcEENS5_9allocatorIcEEEERKNS_2spINS_4hidl7manager4V1_020IServiceNotificationEEE"
  },
  {
   "name" : "_ZN7android8hardware5radio6config4V1_012IRadioConfig4pingEv"
  },
  {
   "name" : "_ZN7android8hardware5radio6config4V1_012IRadioConfig5debugERKNS0_11hidl_handleERKNS0_8hidl_vecINS0_11hidl_stringEEE"
  },
  {
   "name" : "_ZN7android8hardware5radio6config4V1_012IRadioConfig8castFromERKNS_2spINS_4hidl4base4V1_05IBaseEEEb"
  },
  {
   "name" : "_ZN7android8hardware5radio6config4V1_012IRadioConfig8castFromERKNS_2spIS4_EEb"
  },
  {
   "name" : "_ZN7android8hardware5radio6config4V1_013BsRadioConfig13addOnewayTaskENSt3__18functionIFvvEEE"
  },
  {
   "name" : "_ZN7android8hardware5radio6config4V1_013BsRadioConfigC1ENS_2spINS3_12IRadioConfigEEE"
  },
  {
   "name" : "_ZN7android8hardware5radio6config4V1_013BsRadioConfigC2ENS_2spINS3_12IRadioConfigEEE"
  },
  {
   "name" : "_ZN7android8hardware5radio6config4V1_015BnHwRadioConfig10onTransactEjRKNS0_6ParcelEPS5_jNSt3__18functionIFvRS5_EEE"
  },
  {
   "name" : "_ZN7android8hardware5radio6config4V1_015BnHwRadioConfig12getDebugInfoENSt3__18functionIFvRKNS_4hidl4base4V1_09DebugInfoEEEE"
  },
  {
   "name" : "_ZN7android8hardware5radio6config4V1_015BnHwRadioConfig23_hidl_getSimSlotsStatusEPNS_4hidl4base4V1_08BnHwBaseERKNS0_6ParcelEPSA_NSt3__18functionIFvRSA_EEE"
  },
  {
   "name" : "_ZN7android8hardware5radio6config4V1_015BnHwRadioConfig24_hidl_setSimSlotsMappingEPNS_4hidl4base4V1_08BnHwBaseERKNS0_6ParcelEPSA_NSt3__18functionIFvRSA_EEE"
  },
  {
   "name" : "_ZN7android8hardware5radio6config4V1_015BnHwRadioConfig26_hidl_setResponseFunctionsEPNS_4hidl4base4V1_08BnHwBaseERKNS0_6ParcelEPSA_NSt3__18functionIFvRSA_EEE"
  },
  {
   "name" : "_ZN7android8hardware5radio6config4V1_015BnHwRadioConfig4pingEv"
  },
  {
   "name" : "_ZN7android8hardware5radio6config4V1_015BnHwRadioConfigC1ERKNS_2spINS3_12IRadioConfigEEE"
  },
  {
   "name" : "_ZN7android8hardware5radio6config4V1_015BnHwRadioConfigC2ERKNS_2spINS3_12IRadioConfigEEE"
  },
  {
   "name" : "_ZN7android8hardware5radio6config4V1_015BnHwRadioConfigD0Ev"
  },
  {
   "name" : "_ZN7android8hardware5radio6config4V1_015BnHwRadioConfigD1Ev"
  },
  {
   "name" : "_ZN7android8hardware5radio6config4V1_015BnHwRadioConfigD2Ev"
  },
  {
   "name" : "_ZN7android8hardware5radio6config4V1_015BpHwRadioConfig11linkToDeathERKNS_2spINS0_20hidl_death_recipientEEEy"
  },
  {
   "name" : "_ZN7android8hardware5radio6config4V1_015BpHwRadioConfig12getDebugInfoENSt3__18functionIFvRKNS_4hidl4base4V1_09DebugInfoEEEE"
  },
  {
   "name" : "_ZN7android8hardware5radio6config4V1_015BpHwRadioConfig12getHashChainENSt3__18functionIFvRKNS0_8hidl_vecINS0_10hidl_arrayIhLj32EJEEEEEEEE"
  },
  {
   "name" : "_ZN7android8hardware5radio6config4V1_015BpHwRadioConfig13unlinkToDeathERKNS_2spINS0_20hidl_death_recipientEEE"
  },
  {
   "name" : "_ZN7android8hardware5radio6config4V1_015BpHwRadioConfig14interfaceChainENSt3__18functionIFvRKNS0_8hidl_vecINS0_11hidl_stringEEEEEE"
  },
  {
   "name" : "_ZN7android8hardware5radio6config4V1_015BpHwRadioConfig17getSimSlotsStatusEi"
  },
  {
   "name" : "_ZN7android8hardware5radio6config4V1_015BpHwRadioConfig18setSimSlotsMappingEiRKNS0_8hidl_vecIjEE"
  },
  {
   "name" : "_ZN7android8hardware5radio6config4V1_015BpHwRadioConfig19interfaceDescriptorENSt3__18functionIFvRKNS0_11hidl_stringEEEE"
  },
  {
   "name" : "_ZN7android8hardware5radio6config4V1_015BpHwRadioConfig20setResponseFunctionsERKNS_2spINS3_20IRadioConfigResponseEEERKNS5_INS3_22IRadioConfigIndicationEEE"
  },
  {
   "name" : "_ZN7android8hardware5radio6config4V1_015BpHwRadioConfig21notifySyspropsChangedEv"
  },
  {
   "name" : "_ZN7android8hardware5radio6config4V1_015BpHwRadioConfig21setHALInstrumentationEv"
  },
  {
   "name" : "_ZN7android8hardware5radio6config4V1_015BpHwRadioConfig23_hidl_getSimSlotsStatusEPNS0_10IInterfaceEPNS0_7details16HidlInstrumentorEi"
  },
  {
   "name" : "_ZN7android8hardware5radio6config4V1_015BpHwRadioConfig24_hidl_setSimSlotsMappingEPNS0_10IInterfaceEPNS0_7details16HidlInstrumentorEiRKNS0_8hidl_vecIjEE"
  },
  {
   "name" : "_ZN7android8hardware5radio6config4V1_015BpHwRadioConfig26_hidl_setResponseFunctionsEPNS0_10IInterfaceEPNS0_7details16HidlInstrumentorERKNS_2spINS3_20IRadioConfigResponseEEERKNSA_INS3_22IRadioConfigIndicationEEE"
  },
  {
   "name" : "_ZN7android8hardware5radio6config4V1_015BpHwRadioConfig4pingEv"
  },
  {
   "name" : "_ZN7android8hardware5radio6config4V1_015BpHwRadioConfig5debugERKNS0_11hidl_handleERKNS0_8hidl_vecINS0_11hidl_stringEEE"
  },
  {
   "name" : "_ZN7android8hardware5radio6config4V1_015BpHwRadioConfigC1ERKNS_2spINS0_7IBinderEEE"
  },
  {
   "name" : "_ZN7android8hardware5radio6config4V1_015BpHwRadioConfigC2ERKNS_2spINS0_7IBinderEEE"
  },
  {
   "name" : "_ZN7android8hardware5radio6config4V1_020IRadioConfigResponse10getServiceERKNSt3__112basic_stringIcNS5_11char_traitsIcEENS5_9allocatorIcEEEEb"
  },
  {
   "name" : "_ZN7android8hardware5radio6config4V1_020IRadioConfigResponse11linkToDeathERKNS_2spINS0_20hidl_death_recipientEEEy"
  },
  {
   "name" : "_ZN7android8hardware5radio6config4V1_020IRadioConfigResponse12getDebugInfoENSt3__18functionIFvRKNS_4hidl4base4V1_09DebugInfoEEEE"
  },
  {
   "name" : "_ZN7android8hardware5radio6config4V1_020IRadioConfigResponse12getHashChainENSt3__18functionIFvRKNS0_8hidl_vecINS0_10hidl_arrayIhLj32EJEEEEEEEE"
  },
  {
   "name" : "_ZN7android8hardware5radio6config4V1_020IRadioConfigResponse13tryGetServiceERKNSt3__112basic_stringIcNS5_11char_traitsIcEENS5_9allocatorIcEEEEb"
  },
  {
   "name" : "_ZN7android8hardware5radio6config4V1_020IRadioConfigResponse13unlinkToDeathERKNS_2spINS0_20hidl_death_recipientEEE"
  },
  {
   "name" : "_ZN7android8hardware5radio6config4V1_020IRadioConfigResponse14interfaceChainENSt3__18functionIFvRKNS0_8hidl_vecINS0_11hidl_stringEEEEEE"
  },
  {
   "name" : "_ZN7android8hardware5radio6config4V1_020IRadioConfigResponse17registerAsServiceERKNSt3__112basic_stringIcNS5_11char_traitsIcEENS5_9allocatorIcEEEE"
  },
  {
   "name" : "_ZN7android8hardware5radio6config4V1_020IRadioConfigResponse19interfaceDescriptorENSt3__18functionIFvRKNS0_11hidl_stringEEEE"
  },
  {
   "name" : "_ZN7android8hardware5radio6config4V1_020IRadioConfigResponse21notifySyspropsChangedEv"
  },
  {
   "name" : "_ZN7android8hardware5radio6config4V1_020IRadioConfigResponse21setHALInstrumentationEv"
  },
  {
   "name" : "_ZN7android8hardware5radio6config4V1_020IRadioConfigResponse24registerForNotificationsERKNSt3__112basic_stringIcNS5_11char_traitsIcEENS5_9allocatorIcEEEERKNS_2spINS_4hidl7manager4V1_020IServiceNotificationEEE"
  },
  {
   "name" : "_ZN7android8hardware5radio6config4V1_020IRadioConfigResponse4pingEv"
  },
  {
   "name" : "_ZN7android8hardware5radio6config4V1_020IRadioConfigResponse5debugERKNS0_11hidl_handleERKNS0_8hidl_vecINS0_11hidl_stringEEE"
  },
  {
   "name" : "_ZN7android8hardware5radio6config4V1_020IRadioConfigResponse8castFromERKNS_2spINS_4hidl4base4V1_05IBaseEEEb"
  },
  {
   "name" : "_ZN7android8hardware5radio6config4V1_020IRadioConfigResponse8castFromERKNS_2spIS4_EEb"
  },
  {
   "name" : "_ZN7android8hardware5radio6config4V1_021BsRadioConfigResponse13addOnewayTaskENSt3__18functionIFvvEEE"
  },
  {
   "name" : "_ZN7android8hardware5radio6config4V1_021BsRadioConfigResponseC1ENS_2spINS3_20IRadioConfigResponseEEE"
  },
  {
   "name" : "_ZN7android8hardware5radio6config4V1_021BsRadioConfigResponseC2ENS_2spINS3_20IRadioConfigResponseEEE"
  },
  {
   "name" : "_ZN7android8hardware5radio6config4V1_021writeEmbeddedToParcelERKNS3_13SimSlotStatusEPNS0_6ParcelEjj"
  },
  {
   "name" : "_ZN7android8hardware5radio6config4V1_022IRadioConfigIndication10getServiceERKNSt3__112basic_stringIcNS5_11char_traitsIcEENS5_9allocatorIcEEEEb"
  },
  {
   "name" : "_ZN7android8hardware5radio6config4V1_022IRadioConfigIndication11linkToDeathERKNS_2spINS0_20hidl_death_recipientEEEy"
  },
  {
   "name" : "_ZN7android8hardware5radio6config4V1_022IRadioConfigIndication12getDebugInfoENSt3__18functionIFvRKNS_4hidl4base4V1_09DebugInfoEEEE"
  },
  {
   "name" : "_ZN7android8hardware5radio6config4V1_022IRadioConfigIndication12getHashChainENSt3__18functionIFvRKNS0_8hidl_vecINS0_10hidl_arrayIhLj32EJEEEEEEEE"
  },
  {
   "name" : "_ZN7android8hardware5radio6config4V1_022IRadioConfigIndication13tryGetServiceERKNSt3__112basic_stringIcNS5_11char_traitsIcEENS5_9allocatorIcEEEEb"
  },
  {
   "name" : "_ZN7android8hardware5radio6config4V1_022IRadioConfigIndication13unlinkToDeathERKNS_2spINS0_20hidl_death_recipientEEE"
  },
  {
   "name" : "_ZN7android8hardware5radio6config4V1_022IRadioConfigIndication14interfaceChainENSt3__18functionIFvRKNS0_8hidl_vecINS0_11hidl_stringEEEEEE"
  },
  {
   "name" : "_ZN7android8hardware5radio6config4V1_022IRadioConfigIndication17registerAsServiceERKNSt3__112basic_stringIcNS5_11char_traitsIcEENS5_9allocatorIcEEEE"
  },
  {
   "name" : "_ZN7android8hardware5radio6config4V1_022IRadioConfigIndication19interfaceDescriptorENSt3__18functionIFvRKNS0_11hidl_stringEEEE"
  },
  {
   "name" : "_ZN7android8hardware5radio6config4V1_022IRadioConfigIndication21notifySyspropsChangedEv"
  },
  {
   "name" : "_ZN7android8hardware5radio6config4V1_022IRadioConfigIndication21setHALInstrumentationEv"
  },
  {
   "name" : "_ZN7android8hardware5radio6config4V1_022IRadioConfigIndication24registerForNotificationsERKNSt3__112basic_stringIcNS5_11char_traitsIcEENS5_9allocatorIcEEEERKNS_2spINS_4hidl7manager4V1_020IServiceNotificationEEE"
  },
  {
   "name" : "_ZN7android8hardware5radio6config4V1_022IRadioConfigIndication4pingEv"
  },
  {
   "name" : "_ZN7android8hardware5radio6config4V1_022IRadioConfigIndication5debugERKNS0_11hidl_handleERKNS0_8hidl_vecINS0_11hidl_stringEEE"
  },
  {
   "name" : "_ZN7android8hardware5radio6config4V1_022IRadioConfigIndication8castFromERKNS_2spINS_4hidl4base4V1_05IBaseEEEb"
  },
  {
   "name" : "_ZN7android8hardware5radio6config4V1_022IRadioConfigIndication8castFromERKNS_2spIS4_EEb"
  },
  {
   "name" : "_ZN7android8hardware5radio6config4V1_022readEmbeddedFromParcelERKNS3_13SimSlotStatusERKNS0_6ParcelEjj"
  },
  {
   "name" : "_ZN7android8hardware5radio6config4V1_023BnHwRadioConfigResponse10onTransactEjRKNS0_6ParcelEPS5_jNSt3__18functionIFvRS5_EEE"
  },
  {
   "name" : "_ZN7android8hardware5radio6config4V1_023BnHwRadioConfigResponse12getDebugInfoENSt3__18functionIFvRKNS_4hidl4base4V1_09DebugInfoEEEE"
  },
  {
   "name" : "_ZN7android8hardware5radio6config4V1_023BnHwRadioConfigResponse31_hidl_getSimSlotsStatusResponseEPNS_4hidl4base4V1_08BnHwBaseERKNS0_6ParcelEPSA_NSt3__18functionIFvRSA_EEE"
  },
  {
   "name" : "_ZN7android8hardware5radio6config4V1_023BnHwRadioConfigResponse32_hidl_setSimSlotsMappingResponseEPNS_4hidl4base4V1_08BnHwBaseERKNS0_6ParcelEPSA_NSt3__18functionIFvRSA_EEE"
  },
  {
   "name" : "_ZN7android8hardware5radio6config4V1_023BnHwRadioConfigResponse4pingEv"
  },
  {
   "name" : "_ZN7android8hardware5radio6config4V1_023BnHwRadioConfigResponseC1ERKNS_2spINS3_20IRadioConfigResponseEEE"
  },
  {
   "name" : "_ZN7android8hardware5radio6config4V1_023BnHwRadioConfigResponseC2ERKNS_2spINS3_20IRadioConfigResponseEEE"
  },
  {
   "name" : "_ZN7android8hardware5radio6config4V1_023BnHwRadioConfigResponseD0Ev"
  },
  {
   "name" : "_ZN7android8hardware5radio6config4V1_023BnHwRadioConfigResponseD1Ev"
  },
  {
   "name" : "_ZN7android8hardware5radio6config4V1_023BnHwRadioConfigResponseD2Ev"
  },
  {
   "name" : "_ZN7android8hardware5radio6config4V1_023BpHwRadioConfigResponse11linkToDeathERKNS_2spINS0_20hidl_death_recipientEEEy"
  },
  {
   "name" : "_ZN7android8hardware5radio6config4V1_023BpHwRadioConfigResponse12getDebugInfoENSt3__18functionIFvRKNS_4hidl4base4V1_09DebugInfoEEEE"
  },
  {
   "name" : "_ZN7android8hardware5radio6config4V1_023BpHwRadioConfigResponse12getHashChainENSt3__18functionIFvRKNS0_8hidl_vecINS0_10hidl_arrayIhLj32EJEEEEEEEE"
  },
  {
   "name" : "_ZN7android8hardware5radio6config4V1_023BpHwRadioConfigResponse13unlinkToDeathERKNS_2spINS0_20hidl_death_recipientEEE"
  },
  {
   "name" : "_ZN7android8hardware5radio6config4V1_023BpHwRadioConfigResponse14interfaceChainENSt3__18functionIFvRKNS0_8hidl_vecINS0_11hidl_stringEEEEEE"
  },
  {
   "name" : "_ZN7android8hardware5radio6config4V1_023BpHwRadioConfigResponse19interfaceDescriptorENSt3__18functionIFvRKNS0_11hidl_stringEEEE"
  },
  {
   "name" : "_ZN7android8hardware5radio6config4V1_023BpHwRadioConfigResponse21notifySyspropsChangedEv"
  },
  {
   "name" : "_ZN7android8hardware5radio6config4V1_023BpHwRadioConfigResponse21setHALInstrumentationEv"
  },
  {
   "name" : "_ZN7android8hardware5radio6config4V1_023BpHwRadioConfigResponse25getSimSlotsStatusResponseERKNS1_4V1_017RadioResponseInfoERKNS0_8hidl_vecINS3_13SimSlotStatusEEE"
  },
  {
   "name" : "_ZN7android8hardware5radio6config4V1_023BpHwRadioConfigResponse26setSimSlotsMappingResponseERKNS1_4V1_017RadioResponseInfoE"
  },
  {
   "name" : "_ZN7android8hardware5radio6config4V1_023BpHwRadioConfigResponse31_hidl_getSimSlotsStatusResponseEPNS0_10IInterfaceEPNS0_7details16HidlInstrumentorERKNS1_4V1_017RadioResponseInfoERKNS0_8hidl_vecINS3_13SimSlotStatusEEE"
  },
  {
   "name" : "_ZN7android8hardware5radio6config4V1_023BpHwRadioConfigResponse32_hidl_setSimSlotsMappingResponseEPNS0_10IInterfaceEPNS0_7details16HidlInstrumentorERKNS1_4V1_017RadioResponseInfoE"
  },
  {
   "name" : "_ZN7android8hardware5radio6config4V1_023BpHwRadioConfigResponse4pingEv"
  },
  {
   "name" : "_ZN7android8hardware5radio6config4V1_023BpHwRadioConfigResponse5debugERKNS0_11hidl_handleERKNS0_8hidl_vecINS0_11hidl_stringEEE"
  },
  {
   "name" : "_ZN7android8hardware5radio6config4V1_023BpHwRadioConfigResponseC1ERKNS_2spINS0_7IBinderEEE"
  },
  {
   "name" : "_ZN7android8hardware5radio6config4V1_023BpHwRadioConfigResponseC2ERKNS_2spINS0_7IBinderEEE"
  },
  {
   "name" : "_ZN7android8hardware5radio6config4V1_023BsRadioConfigIndication13addOnewayTaskENSt3__18functionIFvvEEE"
  },
  {
   "name" : "_ZN7android8hardware5radio6config4V1_023BsRadioConfigIndicationC1ENS_2spINS3_22IRadioConfigIndicationEEE"
  },
  {
   "name" : "_ZN7android8hardware5radio6config4V1_023BsRadioConfigIndicationC2ENS_2spINS3_22IRadioConfigIndicationEEE"
  },
  {
   "name" : "_ZN7android8hardware5radio6config4V1_025BnHwRadioConfigIndication10onTransactEjRKNS0_6ParcelEPS5_jNSt3__18functionIFvRS5_EEE"
  },
  {
   "name" : "_ZN7android8hardware5radio6config4V1_025BnHwRadioConfigIndication12getDebugInfoENSt3__18functionIFvRKNS_4hidl4base4V1_09DebugInfoEEEE"
  },
  {
   "name" : "_ZN7android8hardware5radio6config4V1_025BnHwRadioConfigIndication27_hidl_simSlotsStatusChangedEPNS_4hidl4base4V1_08BnHwBaseERKNS0_6ParcelEPSA_NSt3__18functionIFvRSA_EEE"
  },
  {
   "name" : "_ZN7android8hardware5radio6config4V1_025BnHwRadioConfigIndication4pingEv"
  },
  {
   "name" : "_ZN7android8hardware5radio6config4V1_025BnHwRadioConfigIndicationC1ERKNS_2spINS3_22IRadioConfigIndicationEEE"
  },
  {
   "name" : "_ZN7android8hardware5radio6config4V1_025BnHwRadioConfigIndicationC2ERKNS_2spINS3_22IRadioConfigIndicationEEE"
  },
  {
   "name" : "_ZN7android8hardware5radio6config4V1_025BnHwRadioConfigIndicationD0Ev"
  },
  {
   "name" : "_ZN7android8hardware5radio6config4V1_025BnHwRadioConfigIndicationD1Ev"
  },
  {
   "name" : "_ZN7android8hardware5radio6config4V1_025BnHwRadioConfigIndicationD2Ev"
  },
  {
   "name" : "_ZN7android8hardware5radio6config4V1_025BpHwRadioConfigIndication11linkToDeathERKNS_2spINS0_20hidl_death_recipientEEEy"
  },
  {
   "name" : "_ZN7android8hardware5radio6config4V1_025BpHwRadioConfigIndication12getDebugInfoENSt3__18functionIFvRKNS_4hidl4base4V1_09DebugInfoEEEE"
  },
  {
   "name" : "_ZN7android8hardware5radio6config4V1_025BpHwRadioConfigIndication12getHashChainENSt3__18functionIFvRKNS0_8hidl_vecINS0_10hidl_arrayIhLj32EJEEEEEEEE"
  },
  {
   "name" : "_ZN7android8hardware5radio6config4V1_025BpHwRadioConfigIndication13unlinkToDeathERKNS_2spINS0_20hidl_death_recipientEEE"
  },
  {
   "name" : "_ZN7android8hardware5radio6config4V1_025BpHwRadioConfigIndication14interfaceChainENSt3__18functionIFvRKNS0_8hidl_vecINS0_11hidl_stringEEEEEE"
  },
  {
   "name" : "_ZN7android8hardware5radio6config4V1_025BpHwRadioConfigIndication19interfaceDescriptorENSt3__18functionIFvRKNS0_11hidl_stringEEEE"
  },
  {
   "name" : "_ZN7android8hardware5radio6config4V1_025BpHwRadioConfigIndication21notifySyspropsChangedEv"
  },
  {
   "name" : "_ZN7android8hardware5radio6config4V1_025BpHwRadioConfigIndication21setHALInstrumentationEv"
  },
  {
   "name" : "_ZN7android8hardware5radio6config4V1_025BpHwRadioConfigIndication21simSlotsStatusChangedENS1_4V1_019RadioIndicationTypeERKNS0_8hidl_vecINS3_13SimSlotStatusEEE"
  },
  {
   "name" : "_ZN7android8hardware5radio6config4V1_025BpHwRadioConfigIndication27_hidl_simSlotsStatusChangedEPNS0_10IInterfaceEPNS0_7details16HidlInstrumentorENS1_4V1_019RadioIndicationTypeERKNS0_8hidl_vecINS3_13SimSlotStatusEEE"
  },
  {
   "name" : "_ZN7android8hardware5radio6config4V1_025BpHwRadioConfigIndication4pingEv"
  },
  {
   "name" : "_ZN7android8hardware5radio6config4V1_025BpHwRadioConfigIndication5debugERKNS0_11hidl_handleERKNS0_8hidl_vecINS0_11hidl_stringEEE"
  },
  {
   "name" : "_ZN7android8hardware5radio6config4V1_025BpHwRadioConfigIndicationC1ERKNS_2spINS0_7IBinderEEE"
  },
  {
   "name" : "_ZN7android8hardware5radio6config4V1_025BpHwRadioConfigIndicationC2ERKNS_2spINS0_7IBinderEEE"
  },
  {
   "binding" : "weak",
   "name" : "_ZN7android8hardware7details13castInterfaceINS0_5radio6config4V1_012IRadioConfigENS_4hidl4base4V1_05IBaseENS5_15BpHwRadioConfigEEENS0_6ReturnINS_2spIT_EEEENSD_IT0_EEPKcb"
  },
  {
   "binding" : "weak",
   "name" : "_ZN7android8hardware7details13castInterfaceINS0_5radio6config4V1_020IRadioConfigResponseENS_4hidl4base4V1_05IBaseENS5_23BpHwRadioConfigResponseEEENS0_6ReturnINS_2spIT_EEEENSD_IT0_EEPKcb"
  },
  {
   "binding" : "weak",
   "name" : "_ZN7android8hardware7details13castInterfaceINS0_5radio6config4V1_022IRadioConfigIndicationENS_4hidl4base4V1_05IBaseENS5_25BpHwRadioConfigIndicationEEENS0_6ReturnINS_2spIT_EEEENSD_IT0_EEPKcb"
  },
  {
   "binding" : "weak",
   "name" : "_ZN7android8hardware7details15wrapPassthroughINS0_5radio6config4V1_020IRadioConfigResponseEvEENS_2spIT_EES9_"
  },
  {
   "binding" : "weak",
   "name" : "_ZN7android8hardware7details15wrapPassthroughINS0_5radio6config4V1_022IRadioConfigIndicationEvEENS_2spIT_EES9_"
  },
  {
   "binding" : "weak",
   "name" : "_ZN7android8hardware7details18getServiceInternalINS0_5radio6config4V1_015BpHwRadioConfigENS5_12IRadioConfigEvvEENS_2spIT0_EERKNSt3__112basic_stringIcNSB_11char_traitsIcEENSB_9allocatorIcEEEEbb"
  },
  {
   "binding" : "weak",
   "name" : "_ZN7android8hardware7details18getServiceInternalINS0_5radio6config4V1_023BpHwRadioConfigResponseENS5_20IRadioConfigResponseEvvEENS_2spIT0_EERKNSt3__112basic_stringIcNSB_11char_traitsIcEENSB_9allocatorIcEEEEbb"
  },
  {
   "binding" : "weak",
   "name" : "_ZN7android8hardware7details18getServiceInternalINS0_5radio6config4V1_025BpHwRadioConfigIndicationENS5_22IRadioConfigIndicationEvvEENS_2spIT0_EERKNSt3__112basic_stringIcNSB_11char_traitsIcEENSB_9allocatorIcEEEEbb"
  },
  {
   "binding" : "weak",
   "name" : "_ZNSt3__113__tree_removeIPNS_16__tree_node_baseIPvEEEEvT_S5_"
  },
  {
   "binding" : "weak",
   "name" : "_ZNSt3__127__tree_balance_after_insertIPNS_16__tree_node_baseIPvEEEEvT_S5_"
  },
  {
   "binding" : "weak",
   "name" : "_ZNSt3__16__treeINS_12__value_typeINS_12basic_stringIcNS_11char_traitsIcEENS_9allocatorIcEEEENS_8functionIFN7android2spINS9_4hidl4base4V1_05IBaseEEEPvEEEEENS_19__map_value_compareIS7_SJ_NS_4lessIS7_EELb1EEENS5_ISJ_EEE12__find_equalIS7_EERPNS_16__tree_node_baseISG_EERPNS_15__tree_end_nodeIST_EERKT_"
  },
  {
   "binding" : "weak",
   "name" : "_ZNSt3__16__treeINS_12__value_typeINS_12basic_stringIcNS_11char_traitsIcEENS_9allocatorIcEEEENS_8functionIFN7android2spINS9_4hidl4base4V1_05IBaseEEEPvEEEEENS_19__map_value_compareIS7_SJ_NS_4lessIS7_EELb1EEENS5_ISJ_EEE4findIS7_EENS_15__tree_iteratorISJ_PNS_11__tree_nodeISJ_SG_EEiEERKT_"
  },
  {
   "binding" : "weak",
   "name" : "_ZNSt3__16__treeINS_12__value_typeINS_12basic_stringIcNS_11char_traitsIcEENS_9allocatorIcEEEENS_8functionIFN7android2spINS9_4hidl4base4V1_05IBaseEEEPvEEEEENS_19__map_value_compareIS7_SJ_NS_4lessIS7_EELb1EEENS5_ISJ_EEE5eraseENS_21__tree_const_iteratorISJ_PNS_11__tree_nodeISJ_SG_EEiEE"
  },
  {
   "binding" : "weak",
   "name" : "_ZNSt3__16__treeINS_12__value_typeINS_12basic_stringIcNS_11char_traitsIcEENS_9allocatorIcEEEENS_8functionIFN7android2spINS9_8hardware7IBinderEEEPvEEEEENS_19__map_value_compareIS7_SH_NS_4lessIS7_EELb1EEENS5_ISH_EEE12__find_equalIS7_EERPNS_16__tree_node_baseISE_EERPNS_15__tree_end_nodeISR_EERKT_"
  },
  {
   "binding" : "weak",
   "name" : "_ZNSt3__16__treeINS_12__value_typeINS_12basic_stringIcNS_11char_traitsIcEENS_9allocatorIcEEEENS_8functionIFN7android2spINS9_8hardware7IBinderEEEPvEEEEENS_19__map_value_compareIS7_SH_NS_4lessIS7_EELb1EEENS5_ISH_EEE4findIS7_EENS_15__tree_iteratorISH_PNS_11__tree_nodeISH_SE_EEiEERKT_"
  },
  {
   "binding" : "weak",
   "name" : "_ZNSt3__16__treeINS_12__value_typeINS_12basic_stringIcNS_11char_traitsIcEENS_9allocatorIcEEEENS_8functionIFN7android2spINS9_8hardware7IBinderEEEPvEEEEENS_19__map_value_compareIS7_SH_NS_4lessIS7_EELb1EEENS5_ISH_EEE5eraseENS_21__tree_const_iteratorISH_PNS_11__tree_nodeISH_SE_EEiEE"
  },
  {
   "binding" : "weak",
   "name" : "_ZNSt3__16vectorIN7android2spINS1_8hardware27hidl_binder_death_recipientEEENS_9allocatorIS5_EEE21__push_back_slow_pathIS5_EEvOT_"
  },
  {
   "binding" : "weak",
   "name" : "_ZNSt3__16vectorINS_8functionIFvN7android8hardware7details16HidlInstrumentor20InstrumentationEventEPKcS8_S8_S8_PNS0_IPvNS_9allocatorIS9_EEEEEEENSA_ISF_EEEC2ERKSH_"
  },
  {
   "binding" : "weak",
   "name" : "_ZNSt3__16vectorIPvNS_9allocatorIS1_EEE21__push_back_slow_pathIS1_EEvOT_"
  },
  {
   "name" : "_ZThn20_N7android8hardware5radio6config4V1_015BnHwRadioConfigD0Ev"
  },
  {
   "name" : "_ZThn20_N7android8hardware5radio6config4V1_015BnHwRadioConfigD1Ev"
  },
  {
   "name" : "_ZThn20_N7android8hardware5radio6config4V1_023BnHwRadioConfigResponseD0Ev"
  },
  {
   "name" : "_ZThn20_N7android8hardware5radio6config4V1_023BnHwRadioConfigResponseD1Ev"
  },
  {
   "name" : "_ZThn20_N7android8hardware5radio6config4V1_025BnHwRadioConfigIndicationD0Ev"
  },
  {
   "name" : "_ZThn20_N7android8hardware5radio6config4V1_025BnHwRadioConfigIndicationD1Ev"
  },
  {
   "name" : "_ZTv0_n12_N7android8hardware5radio6config4V1_015BnHwRadioConfigD0Ev"
  },
  {
   "name" : "_ZTv0_n12_N7android8hardware5radio6config4V1_015BnHwRadioConfigD1Ev"
  },
  {
   "name" : "_ZTv0_n12_N7android8hardware5radio6config4V1_023BnHwRadioConfigResponseD0Ev"
  },
  {
   "name" : "_ZTv0_n12_N7android8hardware5radio6config4V1_023BnHwRadioConfigResponseD1Ev"
  },
  {
   "name" : "_ZTv0_n12_N7android8hardware5radio6config4V1_025BnHwRadioConfigIndicationD0Ev"
  },
  {
   "name" : "_ZTv0_n12_N7android8hardware5radio6config4V1_025BnHwRadioConfigIndicationD1Ev"
  }
 ],
 "elf_objects" :
 [
  {
   "name" : "_ZN7android8hardware5radio6config4V1_012IRadioConfig10descriptorE"
  },
  {
   "name" : "_ZN7android8hardware5radio6config4V1_020IRadioConfigResponse10descriptorE"
  },
  {
   "name" : "_ZN7android8hardware5radio6config4V1_022IRadioConfigIndication10descriptorE"
  },
  {
   "name" : "_ZTCN7android8hardware5radio6config4V1_012IRadioConfigE0_NS_4hidl4base4V1_05IBaseE"
  },
  {
   "binding" : "weak",
   "name" : "_ZTCN7android8hardware5radio6config4V1_013BsRadioConfigE0_NS3_12IRadioConfigE"
  },
  {
   "name" : "_ZTCN7android8hardware5radio6config4V1_015BnHwRadioConfigE0_NS0_7IBinderE"
  },
  {
   "name" : "_ZTCN7android8hardware5radio6config4V1_015BnHwRadioConfigE0_NS0_9BHwBinderE"
  },
  {
   "name" : "_ZTCN7android8hardware5radio6config4V1_015BnHwRadioConfigE0_NS_4hidl4base4V1_08BnHwBaseE"
  },
  {
   "name" : "_ZTCN7android8hardware5radio6config4V1_015BpHwRadioConfigE0_NS0_11BpInterfaceINS3_12IRadioConfigEEE"
  },
  {
   "name" : "_ZTCN7android8hardware5radio6config4V1_015BpHwRadioConfigE0_NS3_12IRadioConfigE"
  },
  {
   "name" : "_ZTCN7android8hardware5radio6config4V1_015BpHwRadioConfigE0_NS_4hidl4base4V1_05IBaseE"
  },
  {
   "name" : "_ZTCN7android8hardware5radio6config4V1_015BpHwRadioConfigE4_NS0_10IInterfaceE"
  },
  {
   "name" : "_ZTCN7android8hardware5radio6config4V1_015BpHwRadioConfigE8_NS0_11BpHwRefBaseE"
  },
  {
   "name" : "_ZTCN7android8hardware5radio6config4V1_020IRadioConfigResponseE0_NS_4hidl4base4V1_05IBaseE"
  },
  {
   "binding" : "weak",
   "name" : "_ZTCN7android8hardware5radio6config4V1_021BsRadioConfigResponseE0_NS3_20IRadioConfigResponseE"
  },
  {
   "name" : "_ZTCN7android8hardware5radio6config4V1_022IRadioConfigIndicationE0_NS_4hidl4base4V1_05IBaseE"
  },
  {
   "name" : "_ZTCN7android8hardware5radio6config4V1_023BnHwRadioConfigResponseE0_NS0_7IBinderE"
  },
  {
   "name" : "_ZTCN7android8hardware5radio6config4V1_023BnHwRadioConfigResponseE0_NS0_9BHwBinderE"
  },
  {
   "name" : "_ZTCN7android8hardware5radio6config4V1_023BnHwRadioConfigResponseE0_NS_4hidl4base4V1_08BnHwBaseE"
  },
  {
   "name" : "_ZTCN7android8hardware5radio6config4V1_023BpHwRadioConfigResponseE0_NS0_11BpInterfaceINS3_20IRadioConfigResponseEEE"
  },
  {
   "name" : "_ZTCN7android8hardware5radio6config4V1_023BpHwRadioConfigResponseE0_NS3_20IRadioConfigResponseE"
  },
  {
   "name" : "_ZTCN7android8hardware5radio6config4V1_023BpHwRadioConfigResponseE0_NS_4hidl4base4V1_05IBaseE"
  },
  {
   "name" : "_ZTCN7android8hardware5radio6config4V1_023BpHwRadioConfigResponseE4_NS0_10IInterfaceE"
  },
  {
   "name" : "_ZTCN7android8hardware5radio6config4V1_023BpHwRadioConfigResponseE8_NS0_11BpHwRefBaseE"
  },
  {
   "binding" : "weak",
   "name" : "_ZTCN7android8hardware5radio6config4V1_023BsRadioConfigIndicationE0_NS3_22IRadioConfigIndicationE"
  },
  {
   "name" : "_ZTCN7android8hardware5radio6config4V1_025BnHwRadioConfigIndicationE0_NS0_7IBinderE"
  },
  {
   "name" : "_ZTCN7android8hardware5radio6config4V1_025BnHwRadioConfigIndicationE0_NS0_9BHwBinderE"
  },
  {
   "name" : "_ZTCN7android8hardware5radio6config4V1_025BnHwRadioConfigIndicationE0_NS_4hidl4base4V1_08BnHwBaseE"
  },
  {
   "name" : "_ZTCN7android8hardware5radio6config4V1_025BpHwRadioConfigIndicationE0_NS0_11BpInterfaceINS3_22IRadioConfigIndicationEEE"
  },
  {
   "name" : "_ZTCN7android8hardware5radio6config4V1_025BpHwRadioConfigIndicationE0_NS3_22IRadioConfigIndicationE"
  },
  {
   "name" : "_ZTCN7android8hardware5radio6config4V1_025BpHwRadioConfigIndicationE0_NS_4hidl4base4V1_05IBaseE"
  },
  {
   "name" : "_ZTCN7android8hardware5radio6config4V1_025BpHwRadioConfigIndicationE4_NS0_10IInterfaceE"
  },
  {
   "name" : "_ZTCN7android8hardware5radio6config4V1_025BpHwRadioConfigIndicationE8_NS0_11BpHwRefBaseE"
  },
  {
   "name" : "_ZTTN7android8hardware5radio6config4V1_012IRadioConfigE"
  },
  {
   "name" : "_ZTTN7android8hardware5radio6config4V1_015BnHwRadioConfigE"
  },
  {
   "name" : "_ZTTN7android8hardware5radio6config4V1_015BpHwRadioConfigE"
  },
  {
   "name" : "_ZTTN7android8hardware5radio6config4V1_020IRadioConfigResponseE"
  },
  {
   "name" : "_ZTTN7android8hardware5radio6config4V1_022IRadioConfigIndicationE"
  },
  {
   "name" : "_ZTTN7android8hardware5radio6config4V1_023BnHwRadioConfigResponseE"
  },
  {
   "name" : "_ZTTN7android8hardware5radio6config4V1_023BpHwRadioConfigResponseE"
  },
  {
   "name" : "_ZTTN7android8hardware5radio6config4V1_025BnHwRadioConfigIndicationE"
  },
  {
   "name" : "_ZTTN7android8hardware5radio6config4V1_025BpHwRadioConfigIndicationE"
  },
  {
   "name" : "_ZTVN7android8hardware5radio6config4V1_012IRadioConfigE"
  },
  {
   "binding" : "weak",
   "name" : "_ZTVN7android8hardware5radio6config4V1_013BsRadioConfigE"
  },
  {
   "name" : "_ZTVN7android8hardware5radio6config4V1_015BnHwRadioConfigE"
  },
  {
   "name" : "_ZTVN7android8hardware5radio6config4V1_015BpHwRadioConfigE"
  },
  {
   "name" : "_ZTVN7android8hardware5radio6config4V1_020IRadioConfigResponseE"
  },
  {
   "binding" : "weak",
   "name" : "_ZTVN7android8hardware5radio6config4V1_021BsRadioConfigResponseE"
  },
  {
   "name" : "_ZTVN7android8hardware5radio6config4V1_022IRadioConfigIndicationE"
  },
  {
   "name" : "_ZTVN7android8hardware5radio6config4V1_023BnHwRadioConfigResponseE"
  },
  {
   "name" : "_ZTVN7android8hardware5radio6config4V1_023BpHwRadioConfigResponseE"
  },
  {
   "binding" : "weak",
   "name" : "_ZTVN7android8hardware5radio6config4V1_023BsRadioConfigIndicationE"
  },
  {
   "name" : "_ZTVN7android8hardware5radio6config4V1_025BnHwRadioConfigIndicationE"
  },
  {
   "name" : "_ZTVN7android8hardware5radio6config4V1_025BpHwRadioConfigIndicationE"
  }
 ],
 "enum_types" :
 [
  {
   "alignment" : 4,
   "enum_fields" :
   [
    {
     "enum_field_value" : 0,
     "name" : "android::Condition::WAKE_UP_ONE"
    },
    {
     "enum_field_value" : 1,
     "name" : "android::Condition::WAKE_UP_ALL"
    }
   ],
   "linker_set_key" : "android::Condition::WakeUpType",
   "name" : "android::Condition::WakeUpType",
   "referenced_type" : "type-563",
   "self_type" : "type-563",
   "size" : 4,
   "source_file" : "/system/core/libutils/include/utils/Condition.h",
   "underlying_type" : "type-2",
   "unique_id" : "_ZTSN7android9Condition10WakeUpTypeE"
  },
  {
   "alignment" : 4,
   "enum_fields" :
   [
    {
     "enum_field_value" : 0,
     "name" : "android::String16::kEmptyString"
    }
   ],
   "linker_set_key" : "android::String16::StaticLinkage",
   "name" : "android::String16::StaticLinkage",
   "referenced_type" : "type-417",
   "self_type" : "type-417",
   "size" : 4,
   "source_file" : "/system/core/libutils/include/utils/String16.h",
   "underlying_type" : "type-2",
   "unique_id" : "_ZTSN7android8String1613StaticLinkageE"
  },
  {
   "alignment" : 4,
   "enum_fields" :
   [
    {
     "enum_field_value" : 0,
     "name" : "android::String8::kEmptyString"
    }
   ],
   "linker_set_key" : "android::String8::StaticLinkage",
   "name" : "android::String8::StaticLinkage",
   "referenced_type" : "type-409",
   "self_type" : "type-409",
   "size" : 4,
   "source_file" : "/system/core/libutils/include/utils/String8.h",
   "underlying_type" : "type-2",
   "unique_id" : "_ZTSN7android7String813StaticLinkageE"
  },
  {
   "alignment" : 4,
   "enum_fields" :
   [
    {
     "enum_field_value" : 0,
     "name" : "android::hardware::HidlReturnRestriction::NONE"
    },
    {
     "enum_field_value" : 1,
     "name" : "android::hardware::HidlReturnRestriction::ERROR_IF_UNCHECKED"
    },
    {
     "enum_field_value" : 2,
     "name" : "android::hardware::HidlReturnRestriction::FATAL_IF_UNCHECKED"
    }
   ],
   "linker_set_key" : "android::hardware::HidlReturnRestriction",
   "name" : "android::hardware::HidlReturnRestriction",
   "referenced_type" : "type-1838",
   "self_type" : "type-1838",
   "size" : 4,
   "source_file" : "/system/libhidl/base/include/hidl/Status.h",
   "underlying_type" : "type-14",
   "unique_id" : "_ZTSN7android8hardware21HidlReturnRestrictionE"
  },
  {
   "alignment" : 4,
   "enum_fields" :
   [
    {
     "enum_field_value" : 0,
     "name" : "android::hardware::MQDescriptor<char, android::hardware::kSynchronizedReadWrite>::READPTRPOS"
    },
    {
     "enum_field_value" : 1,
     "name" : "android::hardware::MQDescriptor<char, android::hardware::kSynchronizedReadWrite>::WRITEPTRPOS"
    },
    {
     "enum_field_value" : 2,
     "name" : "android::hardware::MQDescriptor<char, android::hardware::kSynchronizedReadWrite>::DATAPTRPOS"
    },
    {
     "enum_field_value" : 3,
     "name" : "android::hardware::MQDescriptor<char, android::hardware::kSynchronizedReadWrite>::EVFLAGWORDPOS"
    }
   ],
   "linker_set_key" : "android::hardware::MQDescriptor<char, android::hardware::kSynchronizedReadWrite>::GrantorType",
   "name" : "android::hardware::MQDescriptor<char, android::hardware::kSynchronizedReadWrite>::GrantorType",
   "referenced_type" : "type-396",
   "self_type" : "type-396",
   "size" : 4,
   "source_file" : "/system/libhidl/base/include/hidl/MQDescriptor.h",
   "underlying_type" : "type-14",
   "unique_id" : "_ZTSN7android8hardware12MQDescriptorIcLNS0_8MQFlavorE1EE11GrantorTypeE"
  },
  {
   "alignment" : 4,
   "enum_fields" :
   [
    {
     "enum_field_value" : 1,
     "name" : "android::hardware::kSynchronizedReadWrite"
    },
    {
     "enum_field_value" : 2,
     "name" : "android::hardware::kUnsynchronizedWrite"
    }
   ],
   "linker_set_key" : "android::hardware::MQFlavor",
   "name" : "android::hardware::MQFlavor",
   "referenced_type" : "type-391",
   "self_type" : "type-391",
   "size" : 4,
   "source_file" : "/system/libhidl/base/include/hidl/MQDescriptor.h",
   "underlying_type" : "type-2",
   "unique_id" : "_ZTSN7android8hardware8MQFlavorE"
  },
  {
   "alignment" : 4,
   "enum_fields" :
   [
    {
     "enum_field_value" : 0,
     "name" : "android::hardware::ProcessState::CallRestriction::NONE"
    },
    {
     "enum_field_value" : 1,
     "name" : "android::hardware::ProcessState::CallRestriction::ERROR_IF_NOT_ONEWAY"
    },
    {
     "enum_field_value" : 2,
     "name" : "android::hardware::ProcessState::CallRestriction::FATAL_IF_NOT_ONEWAY"
    }
   ],
   "linker_set_key" : "android::hardware::ProcessState::CallRestriction",
   "name" : "android::hardware::ProcessState::CallRestriction",
   "referenced_type" : "type-1771",
   "self_type" : "type-1771",
   "size" : 4,
   "source_file" : "/system/libhwbinder/include/hwbinder/ProcessState.h",
   "underlying_type" : "type-14",
   "unique_id" : "_ZTSN7android8hardware12ProcessState15CallRestrictionE"
  },
  {
   "alignment" : 4,
   "enum_fields" :
   [
    {
     "enum_field_value" : 0,
     "name" : "android::hardware::Status::EX_NONE"
    },
    {
     "enum_field_value" : -1,
     "name" : "android::hardware::Status::EX_SECURITY"
    },
    {
     "enum_field_value" : -2,
     "name" : "android::hardware::Status::EX_BAD_PARCELABLE"
    },
    {
     "enum_field_value" : -3,
     "name" : "android::hardware::Status::EX_ILLEGAL_ARGUMENT"
    },
    {
     "enum_field_value" : -4,
     "name" : "android::hardware::Status::EX_NULL_POINTER"
    },
    {
     "enum_field_value" : -5,
     "name" : "android::hardware::Status::EX_ILLEGAL_STATE"
    },
    {
     "enum_field_value" : -6,
     "name" : "android::hardware::Status::EX_NETWORK_MAIN_THREAD"
    },
    {
     "enum_field_value" : -7,
     "name" : "android::hardware::Status::EX_UNSUPPORTED_OPERATION"
    },
    {
     "enum_field_value" : -128,
     "name" : "android::hardware::Status::EX_HAS_REPLY_HEADER"
    },
    {
     "enum_field_value" : -129,
     "name" : "android::hardware::Status::EX_TRANSACTION_FAILED"
    }
   ],
   "linker_set_key" : "android::hardware::Status::Exception",
   "name" : "android::hardware::Status::Exception",
   "referenced_type" : "type-1814",
   "self_type" : "type-1814",
   "size" : 4,
   "source_file" : "/system/libhidl/base/include/hidl/Status.h",
   "underlying_type" : "type-14",
   "unique_id" : "_ZTSN7android8hardware6Status9ExceptionE"
  },
  {
   "alignment" : 4,
   "enum_fields" :
   [
    {
     "enum_field_value" : 0,
     "name" : "android::hardware::details::HidlInstrumentor::SERVER_API_ENTRY"
    },
    {
     "enum_field_value" : 1,
     "name" : "android::hardware::details::HidlInstrumentor::SERVER_API_EXIT"
    },
    {
     "enum_field_value" : 2,
     "name" : "android::hardware::details::HidlInstrumentor::CLIENT_API_ENTRY"
    },
    {
     "enum_field_value" : 3,
     "name" : "android::hardware::details::HidlInstrumentor::CLIENT_API_EXIT"
    },
    {
     "enum_field_value" : 4,
     "name" : "android::hardware::details::HidlInstrumentor::SYNC_CALLBACK_ENTRY"
    },
    {
     "enum_field_value" : 5,
     "name" : "android::hardware::details::HidlInstrumentor::SYNC_CALLBACK_EXIT"
    },
    {
     "enum_field_value" : 6,
     "name" : "android::hardware::details::HidlInstrumentor::ASYNC_CALLBACK_ENTRY"
    },
    {
     "enum_field_value" : 7,
     "name" : "android::hardware::details::HidlInstrumentor::ASYNC_CALLBACK_EXIT"
    },
    {
     "enum_field_value" : 8,
     "name" : "android::hardware::details::HidlInstrumentor::PASSTHROUGH_ENTRY"
    },
    {
     "enum_field_value" : 9,
     "name" : "android::hardware::details::HidlInstrumentor::PASSTHROUGH_EXIT"
    }
   ],
   "linker_set_key" : "android::hardware::details::HidlInstrumentor::InstrumentationEvent",
   "name" : "android::hardware::details::HidlInstrumentor::InstrumentationEvent",
   "referenced_type" : "type-1697",
   "self_type" : "type-1697",
   "size" : 4,
   "source_file" : "/system/libhidl/base/include/hidl/HidlInternal.h",
   "underlying_type" : "type-2",
   "unique_id" : "_ZTSN7android8hardware7details16HidlInstrumentor20InstrumentationEventE"
  },
  {
   "alignment" : 4,
   "enum_fields" :
   [
    {
     "enum_field_value" : 0,
     "name" : "android::hardware::radio::V1_0::ApnAuthType::NO_PAP_NO_CHAP"
    },
    {
     "enum_field_value" : 1,
     "name" : "android::hardware::radio::V1_0::ApnAuthType::PAP_NO_CHAP"
    },
    {
     "enum_field_value" : 2,
     "name" : "android::hardware::radio::V1_0::ApnAuthType::NO_PAP_CHAP"
    },
    {
     "enum_field_value" : 3,
     "name" : "android::hardware::radio::V1_0::ApnAuthType::PAP_CHAP"
    }
   ],
   "linker_set_key" : "android::hardware::radio::V1_0::ApnAuthType",
   "name" : "android::hardware::radio::V1_0::ApnAuthType",
   "referenced_type" : "type-611",
   "self_type" : "type-611",
   "size" : 4,
   "source_file" : "/out/soong/.intermediates/hardware/interfaces/radio/1.0/android.hardware.radio@1.0_genc++_headers/gen/android/hardware/radio/1.0/types.h",
   "underlying_type" : "type-14",
   "unique_id" : "_ZTSN7android8hardware5radio4V1_011ApnAuthTypeE"
  },
  {
   "alignment" : 4,
   "enum_fields" :
   [
    {
     "enum_field_value" : 0,
     "name" : "android::hardware::radio::V1_0::ApnTypes::NONE"
    },
    {
     "enum_field_value" : 1,
     "name" : "android::hardware::radio::V1_0::ApnTypes::DEFAULT"
    },
    {
     "enum_field_value" : 2,
     "name" : "android::hardware::radio::V1_0::ApnTypes::MMS"
    },
    {
     "enum_field_value" : 4,
     "name" : "android::hardware::radio::V1_0::ApnTypes::SUPL"
    },
    {
     "enum_field_value" : 8,
     "name" : "android::hardware::radio::V1_0::ApnTypes::DUN"
    },
    {
     "enum_field_value" : 16,
     "name" : "android::hardware::radio::V1_0::ApnTypes::HIPRI"
    },
    {
     "enum_field_value" : 32,
     "name" : "android::hardware::radio::V1_0::ApnTypes::FOTA"
    },
    {
     "enum_field_value" : 64,
     "name" : "android::hardware::radio::V1_0::ApnTypes::IMS"
    },
    {
     "enum_field_value" : 128,
     "name" : "android::hardware::radio::V1_0::ApnTypes::CBS"
    },
    {
     "enum_field_value" : 256,
     "name" : "android::hardware::radio::V1_0::ApnTypes::IA"
    },
    {
     "enum_field_value" : 512,
     "name" : "android::hardware::radio::V1_0::ApnTypes::EMERGENCY"
    },
    {
     "enum_field_value" : 1023,
     "name" : "android::hardware::radio::V1_0::ApnTypes::ALL"
    }
   ],
   "linker_set_key" : "android::hardware::radio::V1_0::ApnTypes",
   "name" : "android::hardware::radio::V1_0::ApnTypes",
   "referenced_type" : "type-1336",
   "self_type" : "type-1336",
   "size" : 4,
   "source_file" : "/out/soong/.intermediates/hardware/interfaces/radio/1.0/android.hardware.radio@1.0_genc++_headers/gen/android/hardware/radio/1.0/types.h",
   "underlying_type" : "type-14",
   "unique_id" : "_ZTSN7android8hardware5radio4V1_08ApnTypesE"
  },
  {
   "alignment" : 4,
   "enum_fields" :
   [
    {
     "enum_field_value" : 0,
     "name" : "android::hardware::radio::V1_0::AppState::UNKNOWN"
    },
    {
     "enum_field_value" : 1,
     "name" : "android::hardware::radio::V1_0::AppState::DETECTED"
    },
    {
     "enum_field_value" : 2,
     "name" : "android::hardware::radio::V1_0::AppState::PIN"
    },
    {
     "enum_field_value" : 3,
     "name" : "android::hardware::radio::V1_0::AppState::PUK"
    },
    {
     "enum_field_value" : 4,
     "name" : "android::hardware::radio::V1_0::AppState::SUBSCRIPTION_PERSO"
    },
    {
     "enum_field_value" : 5,
     "name" : "android::hardware::radio::V1_0::AppState::READY"
    }
   ],
   "linker_set_key" : "android::hardware::radio::V1_0::AppState",
   "name" : "android::hardware::radio::V1_0::AppState",
   "referenced_type" : "type-36",
   "self_type" : "type-36",
   "size" : 4,
   "source_file" : "/out/soong/.intermediates/hardware/interfaces/radio/1.0/android.hardware.radio@1.0_genc++_headers/gen/android/hardware/radio/1.0/types.h",
   "underlying_type" : "type-14",
   "unique_id" : "_ZTSN7android8hardware5radio4V1_08AppStateE"
  },
  {
   "alignment" : 4,
   "enum_fields" :
   [
    {
     "enum_field_value" : 0,
     "name" : "android::hardware::radio::V1_0::AppType::UNKNOWN"
    },
    {
     "enum_field_value" : 1,
     "name" : "android::hardware::radio::V1_0::AppType::SIM"
    },
    {
     "enum_field_value" : 2,
     "name" : "android::hardware::radio::V1_0::AppType::USIM"
    },
    {
     "enum_field_value" : 3,
     "name" : "android::hardware::radio::V1_0::AppType::RUIM"
    },
    {
     "enum_field_value" : 4,
     "name" : "android::hardware::radio::V1_0::AppType::CSIM"
    },
    {
     "enum_field_value" : 5,
     "name" : "android::hardware::radio::V1_0::AppType::ISIM"
    }
   ],
   "linker_set_key" : "android::hardware::radio::V1_0::AppType",
   "name" : "android::hardware::radio::V1_0::AppType",
   "referenced_type" : "type-35",
   "self_type" : "type-35",
   "size" : 4,
   "source_file" : "/out/soong/.intermediates/hardware/interfaces/radio/1.0/android.hardware.radio@1.0_genc++_headers/gen/android/hardware/radio/1.0/types.h",
   "underlying_type" : "type-14",
   "unique_id" : "_ZTSN7android8hardware5radio4V1_07AppTypeE"
  },
  {
   "alignment" : 4,
   "enum_fields" :
   [
    {
     "enum_field_value" : 0,
     "name" : "android::hardware::radio::V1_0::CallForwardInfoStatus::DISABLE"
    },
    {
     "enum_field_value" : 1,
     "name" : "android::hardware::radio::V1_0::CallForwardInfoStatus::ENABLE"
    },
    {
     "enum_field_value" : 2,
     "name" : "android::hardware::radio::V1_0::CallForwardInfoStatus::INTERROGATE"
    },
    {
     "enum_field_value" : 3,
     "name" : "android::hardware::radio::V1_0::CallForwardInfoStatus::REGISTRATION"
    },
    {
     "enum_field_value" : 4,
     "name" : "android::hardware::radio::V1_0::CallForwardInfoStatus::ERASURE"
    }
   ],
   "linker_set_key" : "android::hardware::radio::V1_0::CallForwardInfoStatus",
   "name" : "android::hardware::radio::V1_0::CallForwardInfoStatus",
   "referenced_type" : "type-328",
   "self_type" : "type-328",
   "size" : 4,
   "source_file" : "/out/soong/.intermediates/hardware/interfaces/radio/1.0/android.hardware.radio@1.0_genc++_headers/gen/android/hardware/radio/1.0/types.h",
   "underlying_type" : "type-14",
   "unique_id" : "_ZTSN7android8hardware5radio4V1_021CallForwardInfoStatusE"
  },
  {
   "alignment" : 4,
   "enum_fields" :
   [
    {
     "enum_field_value" : 0,
     "name" : "android::hardware::radio::V1_0::CallPresentation::ALLOWED"
    },
    {
     "enum_field_value" : 1,
     "name" : "android::hardware::radio::V1_0::CallPresentation::RESTRICTED"
    },
    {
     "enum_field_value" : 2,
     "name" : "android::hardware::radio::V1_0::CallPresentation::UNKNOWN"
    },
    {
     "enum_field_value" : 3,
     "name" : "android::hardware::radio::V1_0::CallPresentation::PAYPHONE"
    }
   ],
   "linker_set_key" : "android::hardware::radio::V1_0::CallPresentation",
   "name" : "android::hardware::radio::V1_0::CallPresentation",
   "referenced_type" : "type-604",
   "self_type" : "type-604",
   "size" : 4,
   "source_file" : "/out/soong/.intermediates/hardware/interfaces/radio/1.0/android.hardware.radio@1.0_genc++_headers/gen/android/hardware/radio/1.0/types.h",
   "underlying_type" : "type-14",
   "unique_id" : "_ZTSN7android8hardware5radio4V1_016CallPresentationE"
  },
  {
   "alignment" : 4,
   "enum_fields" :
   [
    {
     "enum_field_value" : 0,
     "name" : "android::hardware::radio::V1_0::CallState::ACTIVE"
    },
    {
     "enum_field_value" : 1,
     "name" : "android::hardware::radio::V1_0::CallState::HOLDING"
    },
    {
     "enum_field_value" : 2,
     "name" : "android::hardware::radio::V1_0::CallState::DIALING"
    },
    {
     "enum_field_value" : 3,
     "name" : "android::hardware::radio::V1_0::CallState::ALERTING"
    },
    {
     "enum_field_value" : 4,
     "name" : "android::hardware::radio::V1_0::CallState::INCOMING"
    },
    {
     "enum_field_value" : 5,
     "name" : "android::hardware::radio::V1_0::CallState::WAITING"
    }
   ],
   "linker_set_key" : "android::hardware::radio::V1_0::CallState",
   "name" : "android::hardware::radio::V1_0::CallState",
   "referenced_type" : "type-603",
   "self_type" : "type-603",
   "size" : 4,
   "source_file" : "/out/soong/.intermediates/hardware/interfaces/radio/1.0/android.hardware.radio@1.0_genc++_headers/gen/android/hardware/radio/1.0/types.h",
   "underlying_type" : "type-14",
   "unique_id" : "_ZTSN7android8hardware5radio4V1_09CallStateE"
  },
  {
   "alignment" : 4,
   "enum_fields" :
   [
    {
     "enum_field_value" : 0,
     "name" : "android::hardware::radio::V1_0::CardState::ABSENT"
    },
    {
     "enum_field_value" : 1,
     "name" : "android::hardware::radio::V1_0::CardState::PRESENT"
    },
    {
     "enum_field_value" : 2,
     "name" : "android::hardware::radio::V1_0::CardState::ERROR"
    },
    {
     "enum_field_value" : 3,
     "name" : "android::hardware::radio::V1_0::CardState::RESTRICTED"
    }
   ],
   "linker_set_key" : "android::hardware::radio::V1_0::CardState",
   "name" : "android::hardware::radio::V1_0::CardState",
   "referenced_type" : "type-601",
   "self_type" : "type-601",
   "size" : 4,
   "source_file" : "/out/soong/.intermediates/hardware/interfaces/radio/1.0/android.hardware.radio@1.0_genc++_headers/gen/android/hardware/radio/1.0/types.h",
   "underlying_type" : "type-14",
   "unique_id" : "_ZTSN7android8hardware5radio4V1_09CardStateE"
  },
  {
   "alignment" : 4,
   "enum_fields" :
   [
    {
     "enum_field_value" : 0,
     "name" : "android::hardware::radio::V1_0::CarrierMatchType::ALL"
    },
    {
     "enum_field_value" : 1,
     "name" : "android::hardware::radio::V1_0::CarrierMatchType::SPN"
    },
    {
     "enum_field_value" : 2,
     "name" : "android::hardware::radio::V1_0::CarrierMatchType::IMSI_PREFIX"
    },
    {
     "enum_field_value" : 3,
     "name" : "android::hardware::radio::V1_0::CarrierMatchType::GID1"
    },
    {
     "enum_field_value" : 4,
     "name" : "android::hardware::radio::V1_0::CarrierMatchType::GID2"
    }
   ],
   "linker_set_key" : "android::hardware::radio::V1_0::CarrierMatchType",
   "name" : "android::hardware::radio::V1_0::CarrierMatchType",
   "referenced_type" : "type-251",
   "self_type" : "type-251",
   "size" : 4,
   "source_file" : "/out/soong/.intermediates/hardware/interfaces/radio/1.0/android.hardware.radio@1.0_genc++_headers/gen/android/hardware/radio/1.0/types.h",
   "underlying_type" : "type-14",
   "unique_id" : "_ZTSN7android8hardware5radio4V1_016CarrierMatchTypeE"
  },
  {
   "alignment" : 4,
   "enum_fields" :
   [
    {
     "enum_field_value" : 0,
     "name" : "android::hardware::radio::V1_0::CdmaCallWaitingNumberPlan::UNKNOWN"
    },
    {
     "enum_field_value" : 1,
     "name" : "android::hardware::radio::V1_0::CdmaCallWaitingNumberPlan::ISDN"
    },
    {
     "enum_field_value" : 3,
     "name" : "android::hardware::radio::V1_0::CdmaCallWaitingNumberPlan::DATA"
    },
    {
     "enum_field_value" : 4,
     "name" : "android::hardware::radio::V1_0::CdmaCallWaitingNumberPlan::TELEX"
    },
    {
     "enum_field_value" : 8,
     "name" : "android::hardware::radio::V1_0::CdmaCallWaitingNumberPlan::NATIONAL"
    },
    {
     "enum_field_value" : 9,
     "name" : "android::hardware::radio::V1_0::CdmaCallWaitingNumberPlan::PRIVATE"
    }
   ],
   "linker_set_key" : "android::hardware::radio::V1_0::CdmaCallWaitingNumberPlan",
   "name" : "android::hardware::radio::V1_0::CdmaCallWaitingNumberPlan",
   "referenced_type" : "type-722",
   "self_type" : "type-722",
   "size" : 4,
   "source_file" : "/out/soong/.intermediates/hardware/interfaces/radio/1.0/android.hardware.radio@1.0_genc++_headers/gen/android/hardware/radio/1.0/types.h",
   "underlying_type" : "type-14",
   "unique_id" : "_ZTSN7android8hardware5radio4V1_025CdmaCallWaitingNumberPlanE"
  },
  {
   "alignment" : 4,
   "enum_fields" :
   [
    {
     "enum_field_value" : 0,
     "name" : "android::hardware::radio::V1_0::CdmaCallWaitingNumberPresentation::ALLOWED"
    },
    {
     "enum_field_value" : 1,
     "name" : "android::hardware::radio::V1_0::CdmaCallWaitingNumberPresentation::RESTRICTED"
    },
    {
     "enum_field_value" : 2,
     "name" : "android::hardware::radio::V1_0::CdmaCallWaitingNumberPresentation::UNKNOWN"
    }
   ],
   "linker_set_key" : "android::hardware::radio::V1_0::CdmaCallWaitingNumberPresentation",
   "name" : "android::hardware::radio::V1_0::CdmaCallWaitingNumberPresentation",
   "referenced_type" : "type-720",
   "self_type" : "type-720",
   "size" : 4,
   "source_file" : "/out/soong/.intermediates/hardware/interfaces/radio/1.0/android.hardware.radio@1.0_genc++_headers/gen/android/hardware/radio/1.0/types.h",
   "underlying_type" : "type-14",
   "unique_id" : "_ZTSN7android8hardware5radio4V1_033CdmaCallWaitingNumberPresentationE"
  },
  {
   "alignment" : 4,
   "enum_fields" :
   [
    {
     "enum_field_value" : 0,
     "name" : "android::hardware::radio::V1_0::CdmaCallWaitingNumberType::UNKNOWN"
    },
    {
     "enum_field_value" : 1,
     "name" : "android::hardware::radio::V1_0::CdmaCallWaitingNumberType::INTERNATIONAL"
    },
    {
     "enum_field_value" : 2,
     "name" : "android::hardware::radio::V1_0::CdmaCallWaitingNumberType::NATIONAL"
    },
    {
     "enum_field_value" : 3,
     "name" : "android::hardware::radio::V1_0::CdmaCallWaitingNumberType::NETWORK_SPECIFIC"
    },
    {
     "enum_field_value" : 4,
     "name" : "android::hardware::radio::V1_0::CdmaCallWaitingNumberType::SUBSCRIBER"
    }
   ],
   "linker_set_key" : "android::hardware::radio::V1_0::CdmaCallWaitingNumberType",
   "name" : "android::hardware::radio::V1_0::CdmaCallWaitingNumberType",
   "referenced_type" : "type-721",
   "self_type" : "type-721",
   "size" : 4,
   "source_file" : "/out/soong/.intermediates/hardware/interfaces/radio/1.0/android.hardware.radio@1.0_genc++_headers/gen/android/hardware/radio/1.0/types.h",
   "underlying_type" : "type-14",
   "unique_id" : "_ZTSN7android8hardware5radio4V1_025CdmaCallWaitingNumberTypeE"
  },
  {
   "alignment" : 4,
   "enum_fields" :
   [
    {
     "enum_field_value" : 0,
     "name" : "android::hardware::radio::V1_0::CdmaInfoRecName::DISPLAY"
    },
    {
     "enum_field_value" : 1,
     "name" : "android::hardware::radio::V1_0::CdmaInfoRecName::CALLED_PARTY_NUMBER"
    },
    {
     "enum_field_value" : 2,
     "name" : "android::hardware::radio::V1_0::CdmaInfoRecName::CALLING_PARTY_NUMBER"
    },
    {
     "enum_field_value" : 3,
     "name" : "android::hardware::radio::V1_0::CdmaInfoRecName::CONNECTED_NUMBER"
    },
    {
     "enum_field_value" : 4,
     "name" : "android::hardware::radio::V1_0::CdmaInfoRecName::SIGNAL"
    },
    {
     "enum_field_value" : 5,
     "name" : "android::hardware::radio::V1_0::CdmaInfoRecName::REDIRECTING_NUMBER"
    },
    {
     "enum_field_value" : 6,
     "name" : "android::hardware::radio::V1_0::CdmaInfoRecName::LINE_CONTROL"
    },
    {
     "enum_field_value" : 7,
     "name" : "android::hardware::radio::V1_0::CdmaInfoRecName::EXTENDED_DISPLAY"
    },
    {
     "enum_field_value" : 8,
     "name" : "android::hardware::radio::V1_0::CdmaInfoRecName::T53_CLIR"
    },
    {
     "enum_field_value" : 9,
     "name" : "android::hardware::radio::V1_0::CdmaInfoRecName::T53_RELEASE"
    },
    {
     "enum_field_value" : 10,
     "name" : "android::hardware::radio::V1_0::CdmaInfoRecName::T53_AUDIO_CONTROL"
    }
   ],
   "linker_set_key" : "android::hardware::radio::V1_0::CdmaInfoRecName",
   "name" : "android::hardware::radio::V1_0::CdmaInfoRecName",
   "referenced_type" : "type-319",
   "self_type" : "type-319",
   "size" : 4,
   "source_file" : "/out/soong/.intermediates/hardware/interfaces/radio/1.0/android.hardware.radio@1.0_genc++_headers/gen/android/hardware/radio/1.0/types.h",
   "underlying_type" : "type-14",
   "unique_id" : "_ZTSN7android8hardware5radio4V1_015CdmaInfoRecNameE"
  },
  {
   "alignment" : 4,
   "enum_fields" :
   [
    {
     "enum_field_value" : 0,
     "name" : "android::hardware::radio::V1_0::CdmaOtaProvisionStatus::SPL_UNLOCKED"
    },
    {
     "enum_field_value" : 1,
     "name" : "android::hardware::radio::V1_0::CdmaOtaProvisionStatus::SPC_RETRIES_EXCEEDED"
    },
    {
     "enum_field_value" : 2,
     "name" : "android::hardware::radio::V1_0::CdmaOtaProvisionStatus::A_KEY_EXCHANGED"
    },
    {
     "enum_field_value" : 3,
     "name" : "android::hardware::radio::V1_0::CdmaOtaProvisionStatus::SSD_UPDATED"
    },
    {
     "enum_field_value" : 4,
     "name" : "android::hardware::radio::V1_0::CdmaOtaProvisionStatus::NAM_DOWNLOADED"
    },
    {
     "enum_field_value" : 5,
     "name" : "android::hardware::radio::V1_0::CdmaOtaProvisionStatus::MDN_DOWNLOADED"
    },
    {
     "enum_field_value" : 6,
     "name" : "android::hardware::radio::V1_0::CdmaOtaProvisionStatus::IMSI_DOWNLOADED"
    },
    {
     "enum_field_value" : 7,
     "name" : "android::hardware::radio::V1_0::CdmaOtaProvisionStatus::PRL_DOWNLOADED"
    },
    {
     "enum_field_value" : 8,
     "name" : "android::hardware::radio::V1_0::CdmaOtaProvisionStatus::COMMITTED"
    },
    {
     "enum_field_value" : 9,
     "name" : "android::hardware::radio::V1_0::CdmaOtaProvisionStatus::OTAPA_STARTED"
    },
    {
     "enum_field_value" : 10,
     "name" : "android::hardware::radio::V1_0::CdmaOtaProvisionStatus::OTAPA_STOPPED"
    },
    {
     "enum_field_value" : 11,
     "name" : "android::hardware::radio::V1_0::CdmaOtaProvisionStatus::OTAPA_ABORTED"
    }
   ],
   "linker_set_key" : "android::hardware::radio::V1_0::CdmaOtaProvisionStatus",
   "name" : "android::hardware::radio::V1_0::CdmaOtaProvisionStatus",
   "referenced_type" : "type-1291",
   "self_type" : "type-1291",
   "size" : 4,
   "source_file" : "/out/soong/.intermediates/hardware/interfaces/radio/1.0/android.hardware.radio@1.0_genc++_headers/gen/android/hardware/radio/1.0/types.h",
   "underlying_type" : "type-14",
   "unique_id" : "_ZTSN7android8hardware5radio4V1_022CdmaOtaProvisionStatusE"
  },
  {
   "alignment" : 4,
   "enum_fields" :
   [
    {
     "enum_field_value" : 0,
     "name" : "android::hardware::radio::V1_0::CdmaRedirectingReason::UNKNOWN"
    },
    {
     "enum_field_value" : 1,
     "name" : "android::hardware::radio::V1_0::CdmaRedirectingReason::CALL_FORWARDING_BUSY"
    },
    {
     "enum_field_value" : 2,
     "name" : "android::hardware::radio::V1_0::CdmaRedirectingReason::CALL_FORWARDING_NO_REPLY"
    },
    {
     "enum_field_value" : 9,
     "name" : "android::hardware::radio::V1_0::CdmaRedirectingReason::CALLED_DTE_OUT_OF_ORDER"
    },
    {
     "enum_field_value" : 10,
     "name" : "android::hardware::radio::V1_0::CdmaRedirectingReason::CALL_FORWARDING_BY_THE_CALLED_DTE"
    },
    {
     "enum_field_value" : 15,
     "name" : "android::hardware::radio::V1_0::CdmaRedirectingReason::CALL_FORWARDING_UNCONDITIONAL"
    },
    {
     "enum_field_value" : 16,
     "name" : "android::hardware::radio::V1_0::CdmaRedirectingReason::RESERVED"
    }
   ],
   "linker_set_key" : "android::hardware::radio::V1_0::CdmaRedirectingReason",
   "name" : "android::hardware::radio::V1_0::CdmaRedirectingReason",
   "referenced_type" : "type-286",
   "self_type" : "type-286",
   "size" : 4,
   "source_file" : "/out/soong/.intermediates/hardware/interfaces/radio/1.0/android.hardware.radio@1.0_genc++_headers/gen/android/hardware/radio/1.0/types.h",
   "underlying_type" : "type-14",
   "unique_id" : "_ZTSN7android8hardware5radio4V1_021CdmaRedirectingReasonE"
  },
  {
   "alignment" : 4,
   "enum_fields" :
   [
    {
     "enum_field_value" : 0,
     "name" : "android::hardware::radio::V1_0::CdmaRoamingType::HOME_NETWORK"
    },
    {
     "enum_field_value" : 1,
     "name" : "android::hardware::radio::V1_0::CdmaRoamingType::AFFILIATED_ROAM"
    },
    {
     "enum_field_value" : 2,
     "name" : "android::hardware::radio::V1_0::CdmaRoamingType::ANY_ROAM"
    }
   ],
   "linker_set_key" : "android::hardware::radio::V1_0::CdmaRoamingType",
   "name" : "android::hardware::radio::V1_0::CdmaRoamingType",
   "referenced_type" : "type-1222",
   "self_type" : "type-1222",
   "size" : 4,
   "source_file" : "/out/soong/.intermediates/hardware/interfaces/radio/1.0/android.hardware.radio@1.0_genc++_headers/gen/android/hardware/radio/1.0/types.h",
   "underlying_type" : "type-14",
   "unique_id" : "_ZTSN7android8hardware5radio4V1_015CdmaRoamingTypeE"
  },
  {
   "alignment" : 4,
   "enum_fields" :
   [
    {
     "enum_field_value" : 0,
     "name" : "android::hardware::radio::V1_0::CdmaSmsDigitMode::FOUR_BIT"
    },
    {
     "enum_field_value" : 1,
     "name" : "android::hardware::radio::V1_0::CdmaSmsDigitMode::EIGHT_BIT"
    }
   ],
   "linker_set_key" : "android::hardware::radio::V1_0::CdmaSmsDigitMode",
   "name" : "android::hardware::radio::V1_0::CdmaSmsDigitMode",
   "referenced_type" : "type-194",
   "self_type" : "type-194",
   "size" : 4,
   "source_file" : "/out/soong/.intermediates/hardware/interfaces/radio/1.0/android.hardware.radio@1.0_genc++_headers/gen/android/hardware/radio/1.0/types.h",
   "underlying_type" : "type-14",
   "unique_id" : "_ZTSN7android8hardware5radio4V1_016CdmaSmsDigitModeE"
  },
  {
   "alignment" : 4,
   "enum_fields" :
   [
    {
     "enum_field_value" : 0,
     "name" : "android::hardware::radio::V1_0::CdmaSmsErrorClass::NO_ERROR"
    },
    {
     "enum_field_value" : 1,
     "name" : "android::hardware::radio::V1_0::CdmaSmsErrorClass::ERROR"
    }
   ],
   "linker_set_key" : "android::hardware::radio::V1_0::CdmaSmsErrorClass",
   "name" : "android::hardware::radio::V1_0::CdmaSmsErrorClass",
   "referenced_type" : "type-1253",
   "self_type" : "type-1253",
   "size" : 4,
   "source_file" : "/out/soong/.intermediates/hardware/interfaces/radio/1.0/android.hardware.radio@1.0_genc++_headers/gen/android/hardware/radio/1.0/types.h",
   "underlying_type" : "type-14",
   "unique_id" : "_ZTSN7android8hardware5radio4V1_017CdmaSmsErrorClassE"
  },
  {
   "alignment" : 4,
   "enum_fields" :
   [
    {
     "enum_field_value" : 0,
     "name" : "android::hardware::radio::V1_0::CdmaSmsNumberMode::NOT_DATA_NETWORK"
    },
    {
     "enum_field_value" : 1,
     "name" : "android::hardware::radio::V1_0::CdmaSmsNumberMode::DATA_NETWORK"
    }
   ],
   "linker_set_key" : "android::hardware::radio::V1_0::CdmaSmsNumberMode",
   "name" : "android::hardware::radio::V1_0::CdmaSmsNumberMode",
   "referenced_type" : "type-195",
   "self_type" : "type-195",
   "size" : 4,
   "source_file" : "/out/soong/.intermediates/hardware/interfaces/radio/1.0/android.hardware.radio@1.0_genc++_headers/gen/android/hardware/radio/1.0/types.h",
   "underlying_type" : "type-14",
   "unique_id" : "_ZTSN7android8hardware5radio4V1_017CdmaSmsNumberModeE"
  },
  {
   "alignment" : 4,
   "enum_fields" :
   [
    {
     "enum_field_value" : 0,
     "name" : "android::hardware::radio::V1_0::CdmaSmsNumberPlan::UNKNOWN"
    },
    {
     "enum_field_value" : 1,
     "name" : "android::hardware::radio::V1_0::CdmaSmsNumberPlan::TELEPHONY"
    },
    {
     "enum_field_value" : 2,
     "name" : "android::hardware::radio::V1_0::CdmaSmsNumberPlan::RESERVED_2"
    },
    {
     "enum_field_value" : 3,
     "name" : "android::hardware::radio::V1_0::CdmaSmsNumberPlan::DATA"
    },
    {
     "enum_field_value" : 4,
     "name" : "android::hardware::radio::V1_0::CdmaSmsNumberPlan::TELEX"
    },
    {
     "enum_field_value" : 5,
     "name" : "android::hardware::radio::V1_0::CdmaSmsNumberPlan::RESERVED_5"
    },
    {
     "enum_field_value" : 6,
     "name" : "android::hardware::radio::V1_0::CdmaSmsNumberPlan::RESERVED_6"
    },
    {
     "enum_field_value" : 7,
     "name" : "android::hardware::radio::V1_0::CdmaSmsNumberPlan::RESERVED_7"
    },
    {
     "enum_field_value" : 8,
     "name" : "android::hardware::radio::V1_0::CdmaSmsNumberPlan::RESERVED_8"
    },
    {
     "enum_field_value" : 9,
     "name" : "android::hardware::radio::V1_0::CdmaSmsNumberPlan::PRIVATE"
    },
    {
     "enum_field_value" : 10,
     "name" : "android::hardware::radio::V1_0::CdmaSmsNumberPlan::RESERVED_10"
    },
    {
     "enum_field_value" : 11,
     "name" : "android::hardware::radio::V1_0::CdmaSmsNumberPlan::RESERVED_11"
    },
    {
     "enum_field_value" : 12,
     "name" : "android::hardware::radio::V1_0::CdmaSmsNumberPlan::RESERVED_12"
    },
    {
     "enum_field_value" : 13,
     "name" : "android::hardware::radio::V1_0::CdmaSmsNumberPlan::RESERVED_13"
    },
    {
     "enum_field_value" : 14,
     "name" : "android::hardware::radio::V1_0::CdmaSmsNumberPlan::RESERVED_14"
    },
    {
     "enum_field_value" : 15,
     "name" : "android::hardware::radio::V1_0::CdmaSmsNumberPlan::RESERVED_15"
    }
   ],
   "linker_set_key" : "android::hardware::radio::V1_0::CdmaSmsNumberPlan",
   "name" : "android::hardware::radio::V1_0::CdmaSmsNumberPlan",
   "referenced_type" : "type-197",
   "self_type" : "type-197",
   "size" : 4,
   "source_file" : "/out/soong/.intermediates/hardware/interfaces/radio/1.0/android.hardware.radio@1.0_genc++_headers/gen/android/hardware/radio/1.0/types.h",
   "underlying_type" : "type-14",
   "unique_id" : "_ZTSN7android8hardware5radio4V1_017CdmaSmsNumberPlanE"
  },
  {
   "alignment" : 4,
   "enum_fields" :
   [
    {
     "enum_field_value" : 0,
     "name" : "android::hardware::radio::V1_0::CdmaSmsNumberType::UNKNOWN"
    },
    {
     "enum_field_value" : 1,
     "name" : "android::hardware::radio::V1_0::CdmaSmsNumberType::INTERNATIONAL_OR_DATA_IP"
    },
    {
     "enum_field_value" : 2,
     "name" : "android::hardware::radio::V1_0::CdmaSmsNumberType::NATIONAL_OR_INTERNET_MAIL"
    },
    {
     "enum_field_value" : 3,
     "name" : "android::hardware::radio::V1_0::CdmaSmsNumberType::NETWORK"
    },
    {
     "enum_field_value" : 4,
     "name" : "android::hardware::radio::V1_0::CdmaSmsNumberType::SUBSCRIBER"
    },
    {
     "enum_field_value" : 5,
     "name" : "android::hardware::radio::V1_0::CdmaSmsNumberType::ALPHANUMERIC"
    },
    {
     "enum_field_value" : 6,
     "name" : "android::hardware::radio::V1_0::CdmaSmsNumberType::ABBREVIATED"
    },
    {
     "enum_field_value" : 7,
     "name" : "android::hardware::radio::V1_0::CdmaSmsNumberType::RESERVED_7"
    }
   ],
   "linker_set_key" : "android::hardware::radio::V1_0::CdmaSmsNumberType",
   "name" : "android::hardware::radio::V1_0::CdmaSmsNumberType",
   "referenced_type" : "type-196",
   "self_type" : "type-196",
   "size" : 4,
   "source_file" : "/out/soong/.intermediates/hardware/interfaces/radio/1.0/android.hardware.radio@1.0_genc++_headers/gen/android/hardware/radio/1.0/types.h",
   "underlying_type" : "type-14",
   "unique_id" : "_ZTSN7android8hardware5radio4V1_017CdmaSmsNumberTypeE"
  },
  {
   "alignment" : 4,
   "enum_fields" :
   [
    {
     "enum_field_value" : 0,
     "name" : "android::hardware::radio::V1_0::CdmaSmsSubaddressType::NSAP"
    },
    {
     "enum_field_value" : 1,
     "name" : "android::hardware::radio::V1_0::CdmaSmsSubaddressType::USER_SPECIFIED"
    }
   ],
   "linker_set_key" : "android::hardware::radio::V1_0::CdmaSmsSubaddressType",
   "name" : "android::hardware::radio::V1_0::CdmaSmsSubaddressType",
   "referenced_type" : "type-199",
   "self_type" : "type-199",
   "size" : 4,
   "source_file" : "/out/soong/.intermediates/hardware/interfaces/radio/1.0/android.hardware.radio@1.0_genc++_headers/gen/android/hardware/radio/1.0/types.h",
   "underlying_type" : "type-14",
   "unique_id" : "_ZTSN7android8hardware5radio4V1_021CdmaSmsSubaddressTypeE"
  },
  {
   "alignment" : 4,
   "enum_fields" :
   [
    {
     "enum_field_value" : 0,
     "name" : "android::hardware::radio::V1_0::CdmaSmsWriteArgsStatus::REC_UNREAD"
    },
    {
     "enum_field_value" : 1,
     "name" : "android::hardware::radio::V1_0::CdmaSmsWriteArgsStatus::REC_READ"
    },
    {
     "enum_field_value" : 2,
     "name" : "android::hardware::radio::V1_0::CdmaSmsWriteArgsStatus::STO_UNSENT"
    },
    {
     "enum_field_value" : 3,
     "name" : "android::hardware::radio::V1_0::CdmaSmsWriteArgsStatus::STO_SENT"
    }
   ],
   "linker_set_key" : "android::hardware::radio::V1_0::CdmaSmsWriteArgsStatus",
   "name" : "android::hardware::radio::V1_0::CdmaSmsWriteArgsStatus",
   "referenced_type" : "type-1258",
   "self_type" : "type-1258",
   "size" : 4,
   "source_file" : "/out/soong/.intermediates/hardware/interfaces/radio/1.0/android.hardware.radio@1.0_genc++_headers/gen/android/hardware/radio/1.0/types.h",
   "underlying_type" : "type-14",
   "unique_id" : "_ZTSN7android8hardware5radio4V1_022CdmaSmsWriteArgsStatusE"
  },
  {
   "alignment" : 4,
   "enum_fields" :
   [
    {
     "enum_field_value" : 0,
     "name" : "android::hardware::radio::V1_0::CdmaSubscriptionSource::RUIM_SIM"
    },
    {
     "enum_field_value" : 1,
     "name" : "android::hardware::radio::V1_0::CdmaSubscriptionSource::NV"
    }
   ],
   "linker_set_key" : "android::hardware::radio::V1_0::CdmaSubscriptionSource",
   "name" : "android::hardware::radio::V1_0::CdmaSubscriptionSource",
   "referenced_type" : "type-1202",
   "self_type" : "type-1202",
   "size" : 4,
   "source_file" : "/out/soong/.intermediates/hardware/interfaces/radio/1.0/android.hardware.radio@1.0_genc++_headers/gen/android/hardware/radio/1.0/types.h",
   "underlying_type" : "type-14",
   "unique_id" : "_ZTSN7android8hardware5radio4V1_022CdmaSubscriptionSourceE"
  },
  {
   "alignment" : 4,
   "enum_fields" :
   [
    {
     "enum_field_value" : 0,
     "name" : "android::hardware::radio::V1_0::CellInfoType::NONE"
    },
    {
     "enum_field_value" : 1,
     "name" : "android::hardware::radio::V1_0::CellInfoType::GSM"
    },
    {
     "enum_field_value" : 2,
     "name" : "android::hardware::radio::V1_0::CellInfoType::CDMA"
    },
    {
     "enum_field_value" : 3,
     "name" : "android::hardware::radio::V1_0::CellInfoType::LTE"
    },
    {
     "enum_field_value" : 4,
     "name" : "android::hardware::radio::V1_0::CellInfoType::WCDMA"
    },
    {
     "enum_field_value" : 5,
     "name" : "android::hardware::radio::V1_0::CellInfoType::TD_SCDMA"
    }
   ],
   "linker_set_key" : "android::hardware::radio::V1_0::CellInfoType",
   "name" : "android::hardware::radio::V1_0::CellInfoType",
   "referenced_type" : "type-101",
   "self_type" : "type-101",
   "size" : 4,
   "source_file" : "/out/soong/.intermediates/hardware/interfaces/radio/1.0/android.hardware.radio@1.0_genc++_headers/gen/android/hardware/radio/1.0/types.h",
   "underlying_type" : "type-14",
   "unique_id" : "_ZTSN7android8hardware5radio4V1_012CellInfoTypeE"
  },
  {
   "alignment" : 4,
   "enum_fields" :
   [
    {
     "enum_field_value" : 0,
     "name" : "android::hardware::radio::V1_0::ClipStatus::CLIP_PROVISIONED"
    },
    {
     "enum_field_value" : 1,
     "name" : "android::hardware::radio::V1_0::ClipStatus::CLIP_UNPROVISIONED"
    },
    {
     "enum_field_value" : 2,
     "name" : "android::hardware::radio::V1_0::ClipStatus::UNKNOWN"
    }
   ],
   "linker_set_key" : "android::hardware::radio::V1_0::ClipStatus",
   "name" : "android::hardware::radio::V1_0::ClipStatus",
   "referenced_type" : "type-1125",
   "self_type" : "type-1125",
   "size" : 4,
   "source_file" : "/out/soong/.intermediates/hardware/interfaces/radio/1.0/android.hardware.radio@1.0_genc++_headers/gen/android/hardware/radio/1.0/types.h",
   "underlying_type" : "type-14",
   "unique_id" : "_ZTSN7android8hardware5radio4V1_010ClipStatusE"
  },
  {
   "alignment" : 4,
   "enum_fields" :
   [
    {
     "enum_field_value" : 0,
     "name" : "android::hardware::radio::V1_0::Clir::DEFAULT"
    },
    {
     "enum_field_value" : 1,
     "name" : "android::hardware::radio::V1_0::Clir::INVOCATION"
    },
    {
     "enum_field_value" : 2,
     "name" : "android::hardware::radio::V1_0::Clir::SUPPRESSION"
    }
   ],
   "linker_set_key" : "android::hardware::radio::V1_0::Clir",
   "name" : "android::hardware::radio::V1_0::Clir",
   "referenced_type" : "type-606",
   "self_type" : "type-606",
   "size" : 4,
   "source_file" : "/out/soong/.intermediates/hardware/interfaces/radio/1.0/android.hardware.radio@1.0_genc++_headers/gen/android/hardware/radio/1.0/types.h",
   "underlying_type" : "type-14",
   "unique_id" : "_ZTSN7android8hardware5radio4V1_04ClirE"
  },
  {
   "alignment" : 4,
   "enum_fields" :
   [
    {
     "enum_field_value" : 0,
     "name" : "android::hardware::radio::V1_0::DataCallFailCause::NONE"
    },
    {
     "enum_field_value" : 8,
     "name" : "android::hardware::radio::V1_0::DataCallFailCause::OPERATOR_BARRED"
    },
    {
     "enum_field_value" : 14,
     "name" : "android::hardware::radio::V1_0::DataCallFailCause::NAS_SIGNALLING"
    },
    {
     "enum_field_value" : 26,
     "name" : "android::hardware::radio::V1_0::DataCallFailCause::INSUFFICIENT_RESOURCES"
    },
    {
     "enum_field_value" : 27,
     "name" : "android::hardware::radio::V1_0::DataCallFailCause::MISSING_UKNOWN_APN"
    },
    {
     "enum_field_value" : 28,
     "name" : "android::hardware::radio::V1_0::DataCallFailCause::UNKNOWN_PDP_ADDRESS_TYPE"
    },
    {
     "enum_field_value" : 29,
     "name" : "android::hardware::radio::V1_0::DataCallFailCause::USER_AUTHENTICATION"
    },
    {
     "enum_field_value" : 30,
     "name" : "android::hardware::radio::V1_0::DataCallFailCause::ACTIVATION_REJECT_GGSN"
    },
    {
     "enum_field_value" : 31,
     "name" : "android::hardware::radio::V1_0::DataCallFailCause::ACTIVATION_REJECT_UNSPECIFIED"
    },
    {
     "enum_field_value" : 32,
     "name" : "android::hardware::radio::V1_0::DataCallFailCause::SERVICE_OPTION_NOT_SUPPORTED"
    },
    {
     "enum_field_value" : 33,
     "name" : "android::hardware::radio::V1_0::DataCallFailCause::SERVICE_OPTION_NOT_SUBSCRIBED"
    },
    {
     "enum_field_value" : 34,
     "name" : "android::hardware::radio::V1_0::DataCallFailCause::SERVICE_OPTION_OUT_OF_ORDER"
    },
    {
     "enum_field_value" : 35,
     "name" : "android::hardware::radio::V1_0::DataCallFailCause::NSAPI_IN_USE"
    },
    {
     "enum_field_value" : 36,
     "name" : "android::hardware::radio::V1_0::DataCallFailCause::REGULAR_DEACTIVATION"
    },
    {
     "enum_field_value" : 37,
     "name" : "android::hardware::radio::V1_0::DataCallFailCause::QOS_NOT_ACCEPTED"
    },
    {
     "enum_field_value" : 38,
     "name" : "android::hardware::radio::V1_0::DataCallFailCause::NETWORK_FAILURE"
    },
    {
     "enum_field_value" : 39,
     "name" : "android::hardware::radio::V1_0::DataCallFailCause::UMTS_REACTIVATION_REQ"
    },
    {
     "enum_field_value" : 40,
     "name" : "android::hardware::radio::V1_0::DataCallFailCause::FEATURE_NOT_SUPP"
    },
    {
     "enum_field_value" : 41,
     "name" : "android::hardware::radio::V1_0::DataCallFailCause::TFT_SEMANTIC_ERROR"
    },
    {
     "enum_field_value" : 42,
     "name" : "android::hardware::radio::V1_0::DataCallFailCause::TFT_SYTAX_ERROR"
    },
    {
     "enum_field_value" : 43,
     "name" : "android::hardware::radio::V1_0::DataCallFailCause::UNKNOWN_PDP_CONTEXT"
    },
    {
     "enum_field_value" : 44,
     "name" : "android::hardware::radio::V1_0::DataCallFailCause::FILTER_SEMANTIC_ERROR"
    },
    {
     "enum_field_value" : 45,
     "name" : "android::hardware::radio::V1_0::DataCallFailCause::FILTER_SYTAX_ERROR"
    },
    {
     "enum_field_value" : 46,
     "name" : "android::hardware::radio::V1_0::DataCallFailCause::PDP_WITHOUT_ACTIVE_TFT"
    },
    {
     "enum_field_value" : 50,
     "name" : "android::hardware::radio::V1_0::DataCallFailCause::ONLY_IPV4_ALLOWED"
    },
    {
     "enum_field_value" : 51,
     "name" : "android::hardware::radio::V1_0::DataCallFailCause::ONLY_IPV6_ALLOWED"
    },
    {
     "enum_field_value" : 52,
     "name" : "android::hardware::radio::V1_0::DataCallFailCause::ONLY_SINGLE_BEARER_ALLOWED"
    },
    {
     "enum_field_value" : 53,
     "name" : "android::hardware::radio::V1_0::DataCallFailCause::ESM_INFO_NOT_RECEIVED"
    },
    {
     "enum_field_value" : 54,
     "name" : "android::hardware::radio::V1_0::DataCallFailCause::PDN_CONN_DOES_NOT_EXIST"
    },
    {
     "enum_field_value" : 55,
     "name" : "android::hardware::radio::V1_0::DataCallFailCause::MULTI_CONN_TO_SAME_PDN_NOT_ALLOWED"
    },
    {
     "enum_field_value" : 65,
     "name" : "android::hardware::radio::V1_0::DataCallFailCause::MAX_ACTIVE_PDP_CONTEXT_REACHED"
    },
    {
     "enum_field_value" : 66,
     "name" : "android::hardware::radio::V1_0::DataCallFailCause::UNSUPPORTED_APN_IN_CURRENT_PLMN"
    },
    {
     "enum_field_value" : 81,
     "name" : "android::hardware::radio::V1_0::DataCallFailCause::INVALID_TRANSACTION_ID"
    },
    {
     "enum_field_value" : 95,
     "name" : "android::hardware::radio::V1_0::DataCallFailCause::MESSAGE_INCORRECT_SEMANTIC"
    },
    {
     "enum_field_value" : 96,
     "name" : "android::hardware::radio::V1_0::DataCallFailCause::INVALID_MANDATORY_INFO"
    },
    {
     "enum_field_value" : 97,
     "name" : "android::hardware::radio::V1_0::DataCallFailCause::MESSAGE_TYPE_UNSUPPORTED"
    },
    {
     "enum_field_value" : 98,
     "name" : "android::hardware::radio::V1_0::DataCallFailCause::MSG_TYPE_NONCOMPATIBLE_STATE"
    },
    {
     "enum_field_value" : 99,
     "name" : "android::hardware::radio::V1_0::DataCallFailCause::UNKNOWN_INFO_ELEMENT"
    },
    {
     "enum_field_value" : 100,
     "name" : "android::hardware::radio::V1_0::DataCallFailCause::CONDITIONAL_IE_ERROR"
    },
    {
     "enum_field_value" : 101,
     "name" : "android::hardware::radio::V1_0::DataCallFailCause::MSG_AND_PROTOCOL_STATE_UNCOMPATIBLE"
    },
    {
     "enum_field_value" : 111,
     "name" : "android::hardware::radio::V1_0::DataCallFailCause::PROTOCOL_ERRORS"
    },
    {
     "enum_field_value" : 112,
     "name" : "android::hardware::radio::V1_0::DataCallFailCause::APN_TYPE_CONFLICT"
    },
    {
     "enum_field_value" : 113,
     "name" : "android::hardware::radio::V1_0::DataCallFailCause::INVALID_PCSCF_ADDR"
    },
    {
     "enum_field_value" : 114,
     "name" : "android::hardware::radio::V1_0::DataCallFailCause::INTERNAL_CALL_PREEMPT_BY_HIGH_PRIO_APN"
    },
    {
     "enum_field_value" : 115,
     "name" : "android::hardware::radio::V1_0::DataCallFailCause::EMM_ACCESS_BARRED"
    },
    {
     "enum_field_value" : 116,
     "name" : "android::hardware::radio::V1_0::DataCallFailCause::EMERGENCY_IFACE_ONLY"
    },
    {
     "enum_field_value" : 117,
     "name" : "android::hardware::radio::V1_0::DataCallFailCause::IFACE_MISMATCH"
    },
    {
     "enum_field_value" : 118,
     "name" : "android::hardware::radio::V1_0::DataCallFailCause::COMPANION_IFACE_IN_USE"
    },
    {
     "enum_field_value" : 119,
     "name" : "android::hardware::radio::V1_0::DataCallFailCause::IP_ADDRESS_MISMATCH"
    },
    {
     "enum_field_value" : 120,
     "name" : "android::hardware::radio::V1_0::DataCallFailCause::IFACE_AND_POL_FAMILY_MISMATCH"
    },
    {
     "enum_field_value" : 121,
     "name" : "android::hardware::radio::V1_0::DataCallFailCause::EMM_ACCESS_BARRED_INFINITE_RETRY"
    },
    {
     "enum_field_value" : 122,
     "name" : "android::hardware::radio::V1_0::DataCallFailCause::AUTH_FAILURE_ON_EMERGENCY_CALL"
    },
    {
     "enum_field_value" : 4097,
     "name" : "android::hardware::radio::V1_0::DataCallFailCause::OEM_DCFAILCAUSE_1"
    },
    {
     "enum_field_value" : 4098,
     "name" : "android::hardware::radio::V1_0::DataCallFailCause::OEM_DCFAILCAUSE_2"
    },
    {
     "enum_field_value" : 4099,
     "name" : "android::hardware::radio::V1_0::DataCallFailCause::OEM_DCFAILCAUSE_3"
    },
    {
     "enum_field_value" : 4100,
     "name" : "android::hardware::radio::V1_0::DataCallFailCause::OEM_DCFAILCAUSE_4"
    },
    {
     "enum_field_value" : 4101,
     "name" : "android::hardware::radio::V1_0::DataCallFailCause::OEM_DCFAILCAUSE_5"
    },
    {
     "enum_field_value" : 4102,
     "name" : "android::hardware::radio::V1_0::DataCallFailCause::OEM_DCFAILCAUSE_6"
    },
    {
     "enum_field_value" : 4103,
     "name" : "android::hardware::radio::V1_0::DataCallFailCause::OEM_DCFAILCAUSE_7"
    },
    {
     "enum_field_value" : 4104,
     "name" : "android::hardware::radio::V1_0::DataCallFailCause::OEM_DCFAILCAUSE_8"
    },
    {
     "enum_field_value" : 4105,
     "name" : "android::hardware::radio::V1_0::DataCallFailCause::OEM_DCFAILCAUSE_9"
    },
    {
     "enum_field_value" : 4106,
     "name" : "android::hardware::radio::V1_0::DataCallFailCause::OEM_DCFAILCAUSE_10"
    },
    {
     "enum_field_value" : 4107,
     "name" : "android::hardware::radio::V1_0::DataCallFailCause::OEM_DCFAILCAUSE_11"
    },
    {
     "enum_field_value" : 4108,
     "name" : "android::hardware::radio::V1_0::DataCallFailCause::OEM_DCFAILCAUSE_12"
    },
    {
     "enum_field_value" : 4109,
     "name" : "android::hardware::radio::V1_0::DataCallFailCause::OEM_DCFAILCAUSE_13"
    },
    {
     "enum_field_value" : 4110,
     "name" : "android::hardware::radio::V1_0::DataCallFailCause::OEM_DCFAILCAUSE_14"
    },
    {
     "enum_field_value" : 4111,
     "name" : "android::hardware::radio::V1_0::DataCallFailCause::OEM_DCFAILCAUSE_15"
    },
    {
     "enum_field_value" : -1,
     "name" : "android::hardware::radio::V1_0::DataCallFailCause::VOICE_REGISTRATION_FAIL"
    },
    {
     "enum_field_value" : -2,
     "name" : "android::hardware::radio::V1_0::DataCallFailCause::DATA_REGISTRATION_FAIL"
    },
    {
     "enum_field_value" : -3,
     "name" : "android::hardware::radio::V1_0::DataCallFailCause::SIGNAL_LOST"
    },
    {
     "enum_field_value" : -4,
     "name" : "android::hardware::radio::V1_0::DataCallFailCause::PREF_RADIO_TECH_CHANGED"
    },
    {
     "enum_field_value" : -5,
     "name" : "android::hardware::radio::V1_0::DataCallFailCause::RADIO_POWER_OFF"
    },
    {
     "enum_field_value" : -6,
     "name" : "android::hardware::radio::V1_0::DataCallFailCause::TETHERED_CALL_ACTIVE"
    },
    {
     "enum_field_value" : 65535,
     "name" : "android::hardware::radio::V1_0::DataCallFailCause::ERROR_UNSPECIFIED"
    }
   ],
   "linker_set_key" : "android::hardware::radio::V1_0::DataCallFailCause",
   "name" : "android::hardware::radio::V1_0::DataCallFailCause",
   "referenced_type" : "type-1093",
   "self_type" : "type-1093",
   "size" : 4,
   "source_file" : "/out/soong/.intermediates/hardware/interfaces/radio/1.0/android.hardware.radio@1.0_genc++_headers/gen/android/hardware/radio/1.0/types.h",
   "underlying_type" : "type-14",
   "unique_id" : "_ZTSN7android8hardware5radio4V1_017DataCallFailCauseE"
  },
  {
   "alignment" : 4,
   "enum_fields" :
   [
    {
     "enum_field_value" : 0,
     "name" : "android::hardware::radio::V1_0::DataProfileId::DEFAULT"
    },
    {
     "enum_field_value" : 1,
     "name" : "android::hardware::radio::V1_0::DataProfileId::TETHERED"
    },
    {
     "enum_field_value" : 2,
     "name" : "android::hardware::radio::V1_0::DataProfileId::IMS"
    },
    {
     "enum_field_value" : 3,
     "name" : "android::hardware::radio::V1_0::DataProfileId::FOTA"
    },
    {
     "enum_field_value" : 4,
     "name" : "android::hardware::radio::V1_0::DataProfileId::CBS"
    },
    {
     "enum_field_value" : 1000,
     "name" : "android::hardware::radio::V1_0::DataProfileId::OEM_BASE"
    },
    {
     "enum_field_value" : -1,
     "name" : "android::hardware::radio::V1_0::DataProfileId::INVALID"
    }
   ],
   "linker_set_key" : "android::hardware::radio::V1_0::DataProfileId",
   "name" : "android::hardware::radio::V1_0::DataProfileId",
   "referenced_type" : "type-610",
   "self_type" : "type-610",
   "size" : 4,
   "source_file" : "/out/soong/.intermediates/hardware/interfaces/radio/1.0/android.hardware.radio@1.0_genc++_headers/gen/android/hardware/radio/1.0/types.h",
   "underlying_type" : "type-14",
   "unique_id" : "_ZTSN7android8hardware5radio4V1_013DataProfileIdE"
  },
  {
   "alignment" : 4,
   "enum_fields" :
   [
    {
     "enum_field_value" : 0,
     "name" : "android::hardware::radio::V1_0::DataProfileInfoType::COMMON"
    },
    {
     "enum_field_value" : 1,
     "name" : "android::hardware::radio::V1_0::DataProfileInfoType::THREE_GPP"
    },
    {
     "enum_field_value" : 2,
     "name" : "android::hardware::radio::V1_0::DataProfileInfoType::THREE_GPP2"
    }
   ],
   "linker_set_key" : "android::hardware::radio::V1_0::DataProfileInfoType",
   "name" : "android::hardware::radio::V1_0::DataProfileInfoType",
   "referenced_type" : "type-612",
   "self_type" : "type-612",
   "size" : 4,
   "source_file" : "/out/soong/.intermediates/hardware/interfaces/radio/1.0/android.hardware.radio@1.0_genc++_headers/gen/android/hardware/radio/1.0/types.h",
   "underlying_type" : "type-14",
   "unique_id" : "_ZTSN7android8hardware5radio4V1_019DataProfileInfoTypeE"
  },
  {
   "alignment" : 4,
   "enum_fields" :
   [
    {
     "enum_field_value" : 0,
     "name" : "android::hardware::radio::V1_0::DeviceStateType::POWER_SAVE_MODE"
    },
    {
     "enum_field_value" : 1,
     "name" : "android::hardware::radio::V1_0::DeviceStateType::CHARGING_STATE"
    },
    {
     "enum_field_value" : 2,
     "name" : "android::hardware::radio::V1_0::DeviceStateType::LOW_DATA_EXPECTED"
    }
   ],
   "linker_set_key" : "android::hardware::radio::V1_0::DeviceStateType",
   "name" : "android::hardware::radio::V1_0::DeviceStateType",
   "referenced_type" : "type-1375",
   "self_type" : "type-1375",
   "size" : 4,
   "source_file" : "/out/soong/.intermediates/hardware/interfaces/radio/1.0/android.hardware.radio@1.0_genc++_headers/gen/android/hardware/radio/1.0/types.h",
   "underlying_type" : "type-14",
   "unique_id" : "_ZTSN7android8hardware5radio4V1_015DeviceStateTypeE"
  },
  {
   "alignment" : 4,
   "enum_fields" :
   [
    {
     "enum_field_value" : 0,
     "name" : "android::hardware::radio::V1_0::HardwareConfigState::ENABLED"
    },
    {
     "enum_field_value" : 1,
     "name" : "android::hardware::radio::V1_0::HardwareConfigState::STANDBY"
    },
    {
     "enum_field_value" : 2,
     "name" : "android::hardware::radio::V1_0::HardwareConfigState::DISABLED"
    }
   ],
   "linker_set_key" : "android::hardware::radio::V1_0::HardwareConfigState",
   "name" : "android::hardware::radio::V1_0::HardwareConfigState",
   "referenced_type" : "type-508",
   "self_type" : "type-508",
   "size" : 4,
   "source_file" : "/out/soong/.intermediates/hardware/interfaces/radio/1.0/android.hardware.radio@1.0_genc++_headers/gen/android/hardware/radio/1.0/types.h",
   "underlying_type" : "type-14",
   "unique_id" : "_ZTSN7android8hardware5radio4V1_019HardwareConfigStateE"
  },
  {
   "alignment" : 4,
   "enum_fields" :
   [
    {
     "enum_field_value" : 0,
     "name" : "android::hardware::radio::V1_0::HardwareConfigType::MODEM"
    },
    {
     "enum_field_value" : 1,
     "name" : "android::hardware::radio::V1_0::HardwareConfigType::SIM"
    }
   ],
   "linker_set_key" : "android::hardware::radio::V1_0::HardwareConfigType",
   "name" : "android::hardware::radio::V1_0::HardwareConfigType",
   "referenced_type" : "type-507",
   "self_type" : "type-507",
   "size" : 4,
   "source_file" : "/out/soong/.intermediates/hardware/interfaces/radio/1.0/android.hardware.radio@1.0_genc++_headers/gen/android/hardware/radio/1.0/types.h",
   "underlying_type" : "type-14",
   "unique_id" : "_ZTSN7android8hardware5radio4V1_018HardwareConfigTypeE"
  },
  {
   "alignment" : 4,
   "enum_fields" :
   [
    {
     "enum_field_value" : 0,
     "name" : "android::hardware::radio::V1_0::IndicationFilter::NONE"
    },
    {
     "enum_field_value" : 1,
     "name" : "android::hardware::radio::V1_0::IndicationFilter::SIGNAL_STRENGTH"
    },
    {
     "enum_field_value" : 2,
     "name" : "android::hardware::radio::V1_0::IndicationFilter::FULL_NETWORK_STATE"
    },
    {
     "enum_field_value" : 4,
     "name" : "android::hardware::radio::V1_0::IndicationFilter::DATA_CALL_DORMANCY_CHANGED"
    },
    {
     "enum_field_value" : 7,
     "name" : "android::hardware::radio::V1_0::IndicationFilter::ALL"
    }
   ],
   "linker_set_key" : "android::hardware::radio::V1_0::IndicationFilter",
   "name" : "android::hardware::radio::V1_0::IndicationFilter",
   "referenced_type" : "type-1358",
   "self_type" : "type-1358",
   "size" : 4,
   "source_file" : "/out/soong/.intermediates/hardware/interfaces/radio/1.0/android.hardware.radio@1.0_genc++_headers/gen/android/hardware/radio/1.0/types.h",
   "underlying_type" : "type-14",
   "unique_id" : "_ZTSN7android8hardware5radio4V1_016IndicationFilterE"
  },
  {
   "alignment" : 4,
   "enum_fields" :
   [
    {
     "enum_field_value" : 1,
     "name" : "android::hardware::radio::V1_0::LastCallFailCause::UNOBTAINABLE_NUMBER"
    },
    {
     "enum_field_value" : 3,
     "name" : "android::hardware::radio::V1_0::LastCallFailCause::NO_ROUTE_TO_DESTINATION"
    },
    {
     "enum_field_value" : 6,
     "name" : "android::hardware::radio::V1_0::LastCallFailCause::CHANNEL_UNACCEPTABLE"
    },
    {
     "enum_field_value" : 8,
     "name" : "android::hardware::radio::V1_0::LastCallFailCause::OPERATOR_DETERMINED_BARRING"
    },
    {
     "enum_field_value" : 16,
     "name" : "android::hardware::radio::V1_0::LastCallFailCause::NORMAL"
    },
    {
     "enum_field_value" : 17,
     "name" : "android::hardware::radio::V1_0::LastCallFailCause::BUSY"
    },
    {
     "enum_field_value" : 18,
     "name" : "android::hardware::radio::V1_0::LastCallFailCause::NO_USER_RESPONDING"
    },
    {
     "enum_field_value" : 19,
     "name" : "android::hardware::radio::V1_0::LastCallFailCause::NO_ANSWER_FROM_USER"
    },
    {
     "enum_field_value" : 21,
     "name" : "android::hardware::radio::V1_0::LastCallFailCause::CALL_REJECTED"
    },
    {
     "enum_field_value" : 22,
     "name" : "android::hardware::radio::V1_0::LastCallFailCause::NUMBER_CHANGED"
    },
    {
     "enum_field_value" : 25,
     "name" : "android::hardware::radio::V1_0::LastCallFailCause::PREEMPTION"
    },
    {
     "enum_field_value" : 27,
     "name" : "android::hardware::radio::V1_0::LastCallFailCause::DESTINATION_OUT_OF_ORDER"
    },
    {
     "enum_field_value" : 28,
     "name" : "android::hardware::radio::V1_0::LastCallFailCause::INVALID_NUMBER_FORMAT"
    },
    {
     "enum_field_value" : 29,
     "name" : "android::hardware::radio::V1_0::LastCallFailCause::FACILITY_REJECTED"
    },
    {
     "enum_field_value" : 30,
     "name" : "android::hardware::radio::V1_0::LastCallFailCause::RESP_TO_STATUS_ENQUIRY"
    },
    {
     "enum_field_value" : 31,
     "name" : "android::hardware::radio::V1_0::LastCallFailCause::NORMAL_UNSPECIFIED"
    },
    {
     "enum_field_value" : 34,
     "name" : "android::hardware::radio::V1_0::LastCallFailCause::CONGESTION"
    },
    {
     "enum_field_value" : 38,
     "name" : "android::hardware::radio::V1_0::LastCallFailCause::NETWORK_OUT_OF_ORDER"
    },
    {
     "enum_field_value" : 41,
     "name" : "android::hardware::radio::V1_0::LastCallFailCause::TEMPORARY_FAILURE"
    },
    {
     "enum_field_value" : 42,
     "name" : "android::hardware::radio::V1_0::LastCallFailCause::SWITCHING_EQUIPMENT_CONGESTION"
    },
    {
     "enum_field_value" : 43,
     "name" : "android::hardware::radio::V1_0::LastCallFailCause::ACCESS_INFORMATION_DISCARDED"
    },
    {
     "enum_field_value" : 44,
     "name" : "android::hardware::radio::V1_0::LastCallFailCause::REQUESTED_CIRCUIT_OR_CHANNEL_NOT_AVAILABLE"
    },
    {
     "enum_field_value" : 47,
     "name" : "android::hardware::radio::V1_0::LastCallFailCause::RESOURCES_UNAVAILABLE_OR_UNSPECIFIED"
    },
    {
     "enum_field_value" : 49,
     "name" : "android::hardware::radio::V1_0::LastCallFailCause::QOS_UNAVAILABLE"
    },
    {
     "enum_field_value" : 50,
     "name" : "android::hardware::radio::V1_0::LastCallFailCause::REQUESTED_FACILITY_NOT_SUBSCRIBED"
    },
    {
     "enum_field_value" : 55,
     "name" : "android::hardware::radio::V1_0::LastCallFailCause::INCOMING_CALLS_BARRED_WITHIN_CUG"
    },
    {
     "enum_field_value" : 57,
     "name" : "android::hardware::radio::V1_0::LastCallFailCause::BEARER_CAPABILITY_NOT_AUTHORIZED"
    },
    {
     "enum_field_value" : 58,
     "name" : "android::hardware::radio::V1_0::LastCallFailCause::BEARER_CAPABILITY_UNAVAILABLE"
    },
    {
     "enum_field_value" : 63,
     "name" : "android::hardware::radio::V1_0::LastCallFailCause::SERVICE_OPTION_NOT_AVAILABLE"
    },
    {
     "enum_field_value" : 65,
     "name" : "android::hardware::radio::V1_0::LastCallFailCause::BEARER_SERVICE_NOT_IMPLEMENTED"
    },
    {
     "enum_field_value" : 68,
     "name" : "android::hardware::radio::V1_0::LastCallFailCause::ACM_LIMIT_EXCEEDED"
    },
    {
     "enum_field_value" : 69,
     "name" : "android::hardware::radio::V1_0::LastCallFailCause::REQUESTED_FACILITY_NOT_IMPLEMENTED"
    },
    {
     "enum_field_value" : 70,
     "name" : "android::hardware::radio::V1_0::LastCallFailCause::ONLY_DIGITAL_INFORMATION_BEARER_AVAILABLE"
    },
    {
     "enum_field_value" : 79,
     "name" : "android::hardware::radio::V1_0::LastCallFailCause::SERVICE_OR_OPTION_NOT_IMPLEMENTED"
    },
    {
     "enum_field_value" : 81,
     "name" : "android::hardware::radio::V1_0::LastCallFailCause::INVALID_TRANSACTION_IDENTIFIER"
    },
    {
     "enum_field_value" : 87,
     "name" : "android::hardware::radio::V1_0::LastCallFailCause::USER_NOT_MEMBER_OF_CUG"
    },
    {
     "enum_field_value" : 88,
     "name" : "android::hardware::radio::V1_0::LastCallFailCause::INCOMPATIBLE_DESTINATION"
    },
    {
     "enum_field_value" : 91,
     "name" : "android::hardware::radio::V1_0::LastCallFailCause::INVALID_TRANSIT_NW_SELECTION"
    },
    {
     "enum_field_value" : 95,
     "name" : "android::hardware::radio::V1_0::LastCallFailCause::SEMANTICALLY_INCORRECT_MESSAGE"
    },
    {
     "enum_field_value" : 96,
     "name" : "android::hardware::radio::V1_0::LastCallFailCause::INVALID_MANDATORY_INFORMATION"
    },
    {
     "enum_field_value" : 97,
     "name" : "android::hardware::radio::V1_0::LastCallFailCause::MESSAGE_TYPE_NON_IMPLEMENTED"
    },
    {
     "enum_field_value" : 98,
     "name" : "android::hardware::radio::V1_0::LastCallFailCause::MESSAGE_TYPE_NOT_COMPATIBLE_WITH_PROTOCOL_STATE"
    },
    {
     "enum_field_value" : 99,
     "name" : "android::hardware::radio::V1_0::LastCallFailCause::INFORMATION_ELEMENT_NON_EXISTENT"
    },
    {
     "enum_field_value" : 100,
     "name" : "android::hardware::radio::V1_0::LastCallFailCause::CONDITIONAL_IE_ERROR"
    },
    {
     "enum_field_value" : 101,
     "name" : "android::hardware::radio::V1_0::LastCallFailCause::MESSAGE_NOT_COMPATIBLE_WITH_PROTOCOL_STATE"
    },
    {
     "enum_field_value" : 102,
     "name" : "android::hardware::radio::V1_0::LastCallFailCause::RECOVERY_ON_TIMER_EXPIRED"
    },
    {
     "enum_field_value" : 111,
     "name" : "android::hardware::radio::V1_0::LastCallFailCause::PROTOCOL_ERROR_UNSPECIFIED"
    },
    {
     "enum_field_value" : 127,
     "name" : "android::hardware::radio::V1_0::LastCallFailCause::INTERWORKING_UNSPECIFIED"
    },
    {
     "enum_field_value" : 240,
     "name" : "android::hardware::radio::V1_0::LastCallFailCause::CALL_BARRED"
    },
    {
     "enum_field_value" : 241,
     "name" : "android::hardware::radio::V1_0::LastCallFailCause::FDN_BLOCKED"
    },
    {
     "enum_field_value" : 242,
     "name" : "android::hardware::radio::V1_0::LastCallFailCause::IMSI_UNKNOWN_IN_VLR"
    },
    {
     "enum_field_value" : 243,
     "name" : "android::hardware::radio::V1_0::LastCallFailCause::IMEI_NOT_ACCEPTED"
    },
    {
     "enum_field_value" : 244,
     "name" : "android::hardware::radio::V1_0::LastCallFailCause::DIAL_MODIFIED_TO_USSD"
    },
    {
     "enum_field_value" : 245,
     "name" : "android::hardware::radio::V1_0::LastCallFailCause::DIAL_MODIFIED_TO_SS"
    },
    {
     "enum_field_value" : 246,
     "name" : "android::hardware::radio::V1_0::LastCallFailCause::DIAL_MODIFIED_TO_DIAL"
    },
    {
     "enum_field_value" : 247,
     "name" : "android::hardware::radio::V1_0::LastCallFailCause::RADIO_OFF"
    },
    {
     "enum_field_value" : 248,
     "name" : "android::hardware::radio::V1_0::LastCallFailCause::OUT_OF_SERVICE"
    },
    {
     "enum_field_value" : 249,
     "name" : "android::hardware::radio::V1_0::LastCallFailCause::NO_VALID_SIM"
    },
    {
     "enum_field_value" : 250,
     "name" : "android::hardware::radio::V1_0::LastCallFailCause::RADIO_INTERNAL_ERROR"
    },
    {
     "enum_field_value" : 251,
     "name" : "android::hardware::radio::V1_0::LastCallFailCause::NETWORK_RESP_TIMEOUT"
    },
    {
     "enum_field_value" : 252,
     "name" : "android::hardware::radio::V1_0::LastCallFailCause::NETWORK_REJECT"
    },
    {
     "enum_field_value" : 253,
     "name" : "android::hardware::radio::V1_0::LastCallFailCause::RADIO_ACCESS_FAILURE"
    },
    {
     "enum_field_value" : 254,
     "name" : "android::hardware::radio::V1_0::LastCallFailCause::RADIO_LINK_FAILURE"
    },
    {
     "enum_field_value" : 255,
     "name" : "android::hardware::radio::V1_0::LastCallFailCause::RADIO_LINK_LOST"
    },
    {
     "enum_field_value" : 256,
     "name" : "android::hardware::radio::V1_0::LastCallFailCause::RADIO_UPLINK_FAILURE"
    },
    {
     "enum_field_value" : 257,
     "name" : "android::hardware::radio::V1_0::LastCallFailCause::RADIO_SETUP_FAILURE"
    },
    {
     "enum_field_value" : 258,
     "name" : "android::hardware::radio::V1_0::LastCallFailCause::RADIO_RELEASE_NORMAL"
    },
    {
     "enum_field_value" : 259,
     "name" : "android::hardware::radio::V1_0::LastCallFailCause::RADIO_RELEASE_ABNORMAL"
    },
    {
     "enum_field_value" : 260,
     "name" : "android::hardware::radio::V1_0::LastCallFailCause::ACCESS_CLASS_BLOCKED"
    },
    {
     "enum_field_value" : 261,
     "name" : "android::hardware::radio::V1_0::LastCallFailCause::NETWORK_DETACH"
    },
    {
     "enum_field_value" : 1000,
     "name" : "android::hardware::radio::V1_0::LastCallFailCause::CDMA_LOCKED_UNTIL_POWER_CYCLE"
    },
    {
     "enum_field_value" : 1001,
     "name" : "android::hardware::radio::V1_0::LastCallFailCause::CDMA_DROP"
    },
    {
     "enum_field_value" : 1002,
     "name" : "android::hardware::radio::V1_0::LastCallFailCause::CDMA_INTERCEPT"
    },
    {
     "enum_field_value" : 1003,
     "name" : "android::hardware::radio::V1_0::LastCallFailCause::CDMA_REORDER"
    },
    {
     "enum_field_value" : 1004,
     "name" : "android::hardware::radio::V1_0::LastCallFailCause::CDMA_SO_REJECT"
    },
    {
     "enum_field_value" : 1005,
     "name" : "android::hardware::radio::V1_0::LastCallFailCause::CDMA_RETRY_ORDER"
    },
    {
     "enum_field_value" : 1006,
     "name" : "android::hardware::radio::V1_0::LastCallFailCause::CDMA_ACCESS_FAILURE"
    },
    {
     "enum_field_value" : 1007,
     "name" : "android::hardware::radio::V1_0::LastCallFailCause::CDMA_PREEMPTED"
    },
    {
     "enum_field_value" : 1008,
     "name" : "android::hardware::radio::V1_0::LastCallFailCause::CDMA_NOT_EMERGENCY"
    },
    {
     "enum_field_value" : 1009,
     "name" : "android::hardware::radio::V1_0::LastCallFailCause::CDMA_ACCESS_BLOCKED"
    },
    {
     "enum_field_value" : 61441,
     "name" : "android::hardware::radio::V1_0::LastCallFailCause::OEM_CAUSE_1"
    },
    {
     "enum_field_value" : 61442,
     "name" : "android::hardware::radio::V1_0::LastCallFailCause::OEM_CAUSE_2"
    },
    {
     "enum_field_value" : 61443,
     "name" : "android::hardware::radio::V1_0::LastCallFailCause::OEM_CAUSE_3"
    },
    {
     "enum_field_value" : 61444,
     "name" : "android::hardware::radio::V1_0::LastCallFailCause::OEM_CAUSE_4"
    },
    {
     "enum_field_value" : 61445,
     "name" : "android::hardware::radio::V1_0::LastCallFailCause::OEM_CAUSE_5"
    },
    {
     "enum_field_value" : 61446,
     "name" : "android::hardware::radio::V1_0::LastCallFailCause::OEM_CAUSE_6"
    },
    {
     "enum_field_value" : 61447,
     "name" : "android::hardware::radio::V1_0::LastCallFailCause::OEM_CAUSE_7"
    },
    {
     "enum_field_value" : 61448,
     "name" : "android::hardware::radio::V1_0::LastCallFailCause::OEM_CAUSE_8"
    },
    {
     "enum_field_value" : 61449,
     "name" : "android::hardware::radio::V1_0::LastCallFailCause::OEM_CAUSE_9"
    },
    {
     "enum_field_value" : 61450,
     "name" : "android::hardware::radio::V1_0::LastCallFailCause::OEM_CAUSE_10"
    },
    {
     "enum_field_value" : 61451,
     "name" : "android::hardware::radio::V1_0::LastCallFailCause::OEM_CAUSE_11"
    },
    {
     "enum_field_value" : 61452,
     "name" : "android::hardware::radio::V1_0::LastCallFailCause::OEM_CAUSE_12"
    },
    {
     "enum_field_value" : 61453,
     "name" : "android::hardware::radio::V1_0::LastCallFailCause::OEM_CAUSE_13"
    },
    {
     "enum_field_value" : 61454,
     "name" : "android::hardware::radio::V1_0::LastCallFailCause::OEM_CAUSE_14"
    },
    {
     "enum_field_value" : 61455,
     "name" : "android::hardware::radio::V1_0::LastCallFailCause::OEM_CAUSE_15"
    },
    {
     "enum_field_value" : 65535,
     "name" : "android::hardware::radio::V1_0::LastCallFailCause::ERROR_UNSPECIFIED"
    }
   ],
   "linker_set_key" : "android::hardware::radio::V1_0::LastCallFailCause",
   "name" : "android::hardware::radio::V1_0::LastCallFailCause",
   "referenced_type" : "type-608",
   "self_type" : "type-608",
   "size" : 4,
   "source_file" : "/out/soong/.intermediates/hardware/interfaces/radio/1.0/android.hardware.radio@1.0_genc++_headers/gen/android/hardware/radio/1.0/types.h",
   "underlying_type" : "type-14",
   "unique_id" : "_ZTSN7android8hardware5radio4V1_017LastCallFailCauseE"
  },
  {
   "alignment" : 4,
   "enum_fields" :
   [
    {
     "enum_field_value" : 0,
     "name" : "android::hardware::radio::V1_0::LceStatus::NOT_SUPPORTED"
    },
    {
     "enum_field_value" : 1,
     "name" : "android::hardware::radio::V1_0::LceStatus::STOPPED"
    },
    {
     "enum_field_value" : 2,
     "name" : "android::hardware::radio::V1_0::LceStatus::ACTIVE"
    }
   ],
   "linker_set_key" : "android::hardware::radio::V1_0::LceStatus",
   "name" : "android::hardware::radio::V1_0::LceStatus",
   "referenced_type" : "type-618",
   "self_type" : "type-618",
   "size" : 4,
   "source_file" : "/out/soong/.intermediates/hardware/interfaces/radio/1.0/android.hardware.radio@1.0_genc++_headers/gen/android/hardware/radio/1.0/types.h",
   "underlying_type" : "type-14",
   "unique_id" : "_ZTSN7android8hardware5radio4V1_09LceStatusE"
  },
  {
   "alignment" : 4,
   "enum_fields" :
   [
    {
     "enum_field_value" : 0,
     "name" : "android::hardware::radio::V1_0::MvnoType::NONE"
    },
    {
     "enum_field_value" : 1,
     "name" : "android::hardware::radio::V1_0::MvnoType::IMSI"
    },
    {
     "enum_field_value" : 2,
     "name" : "android::hardware::radio::V1_0::MvnoType::GID"
    },
    {
     "enum_field_value" : 3,
     "name" : "android::hardware::radio::V1_0::MvnoType::SPN"
    }
   ],
   "linker_set_key" : "android::hardware::radio::V1_0::MvnoType",
   "name" : "android::hardware::radio::V1_0::MvnoType",
   "referenced_type" : "type-613",
   "self_type" : "type-613",
   "size" : 4,
   "source_file" : "/out/soong/.intermediates/hardware/interfaces/radio/1.0/android.hardware.radio@1.0_genc++_headers/gen/android/hardware/radio/1.0/types.h",
   "underlying_type" : "type-14",
   "unique_id" : "_ZTSN7android8hardware5radio4V1_08MvnoTypeE"
  },
  {
   "alignment" : 4,
   "enum_fields" :
   [
    {
     "enum_field_value" : 1,
     "name" : "android::hardware::radio::V1_0::NvItem::CDMA_MEID"
    },
    {
     "enum_field_value" : 2,
     "name" : "android::hardware::radio::V1_0::NvItem::CDMA_MIN"
    },
    {
     "enum_field_value" : 3,
     "name" : "android::hardware::radio::V1_0::NvItem::CDMA_MDN"
    },
    {
     "enum_field_value" : 4,
     "name" : "android::hardware::radio::V1_0::NvItem::CDMA_ACCOLC"
    },
    {
     "enum_field_value" : 11,
     "name" : "android::hardware::radio::V1_0::NvItem::DEVICE_MSL"
    },
    {
     "enum_field_value" : 12,
     "name" : "android::hardware::radio::V1_0::NvItem::RTN_RECONDITIONED_STATUS"
    },
    {
     "enum_field_value" : 13,
     "name" : "android::hardware::radio::V1_0::NvItem::RTN_ACTIVATION_DATE"
    },
    {
     "enum_field_value" : 14,
     "name" : "android::hardware::radio::V1_0::NvItem::RTN_LIFE_TIMER"
    },
    {
     "enum_field_value" : 15,
     "name" : "android::hardware::radio::V1_0::NvItem::RTN_LIFE_CALLS"
    },
    {
     "enum_field_value" : 16,
     "name" : "android::hardware::radio::V1_0::NvItem::RTN_LIFE_DATA_TX"
    },
    {
     "enum_field_value" : 17,
     "name" : "android::hardware::radio::V1_0::NvItem::RTN_LIFE_DATA_RX"
    },
    {
     "enum_field_value" : 18,
     "name" : "android::hardware::radio::V1_0::NvItem::OMADM_HFA_LEVEL"
    },
    {
     "enum_field_value" : 31,
     "name" : "android::hardware::radio::V1_0::NvItem::MIP_PROFILE_NAI"
    },
    {
     "enum_field_value" : 32,
     "name" : "android::hardware::radio::V1_0::NvItem::MIP_PROFILE_HOME_ADDRESS"
    },
    {
     "enum_field_value" : 33,
     "name" : "android::hardware::radio::V1_0::NvItem::MIP_PROFILE_AAA_AUTH"
    },
    {
     "enum_field_value" : 34,
     "name" : "android::hardware::radio::V1_0::NvItem::MIP_PROFILE_HA_AUTH"
    },
    {
     "enum_field_value" : 35,
     "name" : "android::hardware::radio::V1_0::NvItem::MIP_PROFILE_PRI_HA_ADDR"
    },
    {
     "enum_field_value" : 36,
     "name" : "android::hardware::radio::V1_0::NvItem::MIP_PROFILE_SEC_HA_ADDR"
    },
    {
     "enum_field_value" : 37,
     "name" : "android::hardware::radio::V1_0::NvItem::MIP_PROFILE_REV_TUN_PREF"
    },
    {
     "enum_field_value" : 38,
     "name" : "android::hardware::radio::V1_0::NvItem::MIP_PROFILE_HA_SPI"
    },
    {
     "enum_field_value" : 39,
     "name" : "android::hardware::radio::V1_0::NvItem::MIP_PROFILE_AAA_SPI"
    },
    {
     "enum_field_value" : 40,
     "name" : "android::hardware::radio::V1_0::NvItem::MIP_PROFILE_MN_HA_SS"
    },
    {
     "enum_field_value" : 41,
     "name" : "android::hardware::radio::V1_0::NvItem::MIP_PROFILE_MN_AAA_SS"
    },
    {
     "enum_field_value" : 51,
     "name" : "android::hardware::radio::V1_0::NvItem::CDMA_PRL_VERSION"
    },
    {
     "enum_field_value" : 52,
     "name" : "android::hardware::radio::V1_0::NvItem::CDMA_BC10"
    },
    {
     "enum_field_value" : 53,
     "name" : "android::hardware::radio::V1_0::NvItem::CDMA_BC14"
    },
    {
     "enum_field_value" : 54,
     "name" : "android::hardware::radio::V1_0::NvItem::CDMA_SO68"
    },
    {
     "enum_field_value" : 55,
     "name" : "android::hardware::radio::V1_0::NvItem::CDMA_SO73_COP0"
    },
    {
     "enum_field_value" : 56,
     "name" : "android::hardware::radio::V1_0::NvItem::CDMA_SO73_COP1TO7"
    },
    {
     "enum_field_value" : 57,
     "name" : "android::hardware::radio::V1_0::NvItem::CDMA_1X_ADVANCED_ENABLED"
    },
    {
     "enum_field_value" : 58,
     "name" : "android::hardware::radio::V1_0::NvItem::CDMA_EHRPD_ENABLED"
    },
    {
     "enum_field_value" : 59,
     "name" : "android::hardware::radio::V1_0::NvItem::CDMA_EHRPD_FORCED"
    },
    {
     "enum_field_value" : 71,
     "name" : "android::hardware::radio::V1_0::NvItem::LTE_BAND_ENABLE_25"
    },
    {
     "enum_field_value" : 72,
     "name" : "android::hardware::radio::V1_0::NvItem::LTE_BAND_ENABLE_26"
    },
    {
     "enum_field_value" : 73,
     "name" : "android::hardware::radio::V1_0::NvItem::LTE_BAND_ENABLE_41"
    },
    {
     "enum_field_value" : 74,
     "name" : "android::hardware::radio::V1_0::NvItem::LTE_SCAN_PRIORITY_25"
    },
    {
     "enum_field_value" : 75,
     "name" : "android::hardware::radio::V1_0::NvItem::LTE_SCAN_PRIORITY_26"
    },
    {
     "enum_field_value" : 76,
     "name" : "android::hardware::radio::V1_0::NvItem::LTE_SCAN_PRIORITY_41"
    },
    {
     "enum_field_value" : 77,
     "name" : "android::hardware::radio::V1_0::NvItem::LTE_HIDDEN_BAND_PRIORITY_25"
    },
    {
     "enum_field_value" : 78,
     "name" : "android::hardware::radio::V1_0::NvItem::LTE_HIDDEN_BAND_PRIORITY_26"
    },
    {
     "enum_field_value" : 79,
     "name" : "android::hardware::radio::V1_0::NvItem::LTE_HIDDEN_BAND_PRIORITY_41"
    }
   ],
   "linker_set_key" : "android::hardware::radio::V1_0::NvItem",
   "name" : "android::hardware::radio::V1_0::NvItem",
   "referenced_type" : "type-425",
   "self_type" : "type-425",
   "size" : 4,
   "source_file" : "/out/soong/.intermediates/hardware/interfaces/radio/1.0/android.hardware.radio@1.0_genc++_headers/gen/android/hardware/radio/1.0/types.h",
   "underlying_type" : "type-14",
   "unique_id" : "_ZTSN7android8hardware5radio4V1_06NvItemE"
  },
  {
   "alignment" : 4,
   "enum_fields" :
   [
    {
     "enum_field_value" : 0,
     "name" : "android::hardware::radio::V1_0::OperatorStatus::UNKNOWN"
    },
    {
     "enum_field_value" : 1,
     "name" : "android::hardware::radio::V1_0::OperatorStatus::AVAILABLE"
    },
    {
     "enum_field_value" : 2,
     "name" : "android::hardware::radio::V1_0::OperatorStatus::CURRENT"
    },
    {
     "enum_field_value" : 3,
     "name" : "android::hardware::radio::V1_0::OperatorStatus::FORBIDDEN"
    }
   ],
   "linker_set_key" : "android::hardware::radio::V1_0::OperatorStatus",
   "name" : "android::hardware::radio::V1_0::OperatorStatus",
   "referenced_type" : "type-1167",
   "self_type" : "type-1167",
   "size" : 4,
   "source_file" : "/out/soong/.intermediates/hardware/interfaces/radio/1.0/android.hardware.radio@1.0_genc++_headers/gen/android/hardware/radio/1.0/types.h",
   "underlying_type" : "type-14",
   "unique_id" : "_ZTSN7android8hardware5radio4V1_014OperatorStatusE"
  },
  {
   "alignment" : 4,
   "enum_fields" :
   [
    {
     "enum_field_value" : -1,
     "name" : "android::hardware::radio::V1_0::P2Constant::NO_P2"
    }
   ],
   "linker_set_key" : "android::hardware::radio::V1_0::P2Constant",
   "name" : "android::hardware::radio::V1_0::P2Constant",
   "referenced_type" : "type-1377",
   "self_type" : "type-1377",
   "size" : 4,
   "source_file" : "/out/soong/.intermediates/hardware/interfaces/radio/1.0/android.hardware.radio@1.0_genc++_headers/gen/android/hardware/radio/1.0/types.h",
   "underlying_type" : "type-14",
   "unique_id" : "_ZTSN7android8hardware5radio4V1_010P2ConstantE"
  },
  {
   "alignment" : 4,
   "enum_fields" :
   [
    {
     "enum_field_value" : 0,
     "name" : "android::hardware::radio::V1_0::PersoSubstate::UNKNOWN"
    },
    {
     "enum_field_value" : 1,
     "name" : "android::hardware::radio::V1_0::PersoSubstate::IN_PROGRESS"
    },
    {
     "enum_field_value" : 2,
     "name" : "android::hardware::radio::V1_0::PersoSubstate::READY"
    },
    {
     "enum_field_value" : 3,
     "name" : "android::hardware::radio::V1_0::PersoSubstate::SIM_NETWORK"
    },
    {
     "enum_field_value" : 4,
     "name" : "android::hardware::radio::V1_0::PersoSubstate::SIM_NETWORK_SUBSET"
    },
    {
     "enum_field_value" : 5,
     "name" : "android::hardware::radio::V1_0::PersoSubstate::SIM_CORPORATE"
    },
    {
     "enum_field_value" : 6,
     "name" : "android::hardware::radio::V1_0::PersoSubstate::SIM_SERVICE_PROVIDER"
    },
    {
     "enum_field_value" : 7,
     "name" : "android::hardware::radio::V1_0::PersoSubstate::SIM_SIM"
    },
    {
     "enum_field_value" : 8,
     "name" : "android::hardware::radio::V1_0::PersoSubstate::SIM_NETWORK_PUK"
    },
    {
     "enum_field_value" : 9,
     "name" : "android::hardware::radio::V1_0::PersoSubstate::SIM_NETWORK_SUBSET_PUK"
    },
    {
     "enum_field_value" : 10,
     "name" : "android::hardware::radio::V1_0::PersoSubstate::SIM_CORPORATE_PUK"
    },
    {
     "enum_field_value" : 11,
     "name" : "android::hardware::radio::V1_0::PersoSubstate::SIM_SERVICE_PROVIDER_PUK"
    },
    {
     "enum_field_value" : 12,
     "name" : "android::hardware::radio::V1_0::PersoSubstate::SIM_SIM_PUK"
    },
    {
     "enum_field_value" : 13,
     "name" : "android::hardware::radio::V1_0::PersoSubstate::RUIM_NETWORK1"
    },
    {
     "enum_field_value" : 14,
     "name" : "android::hardware::radio::V1_0::PersoSubstate::RUIM_NETWORK2"
    },
    {
     "enum_field_value" : 15,
     "name" : "android::hardware::radio::V1_0::PersoSubstate::RUIM_HRPD"
    },
    {
     "enum_field_value" : 16,
     "name" : "android::hardware::radio::V1_0::PersoSubstate::RUIM_CORPORATE"
    },
    {
     "enum_field_value" : 17,
     "name" : "android::hardware::radio::V1_0::PersoSubstate::RUIM_SERVICE_PROVIDER"
    },
    {
     "enum_field_value" : 18,
     "name" : "android::hardware::radio::V1_0::PersoSubstate::RUIM_RUIM"
    },
    {
     "enum_field_value" : 19,
     "name" : "android::hardware::radio::V1_0::PersoSubstate::RUIM_NETWORK1_PUK"
    },
    {
     "enum_field_value" : 20,
     "name" : "android::hardware::radio::V1_0::PersoSubstate::RUIM_NETWORK2_PUK"
    },
    {
     "enum_field_value" : 21,
     "name" : "android::hardware::radio::V1_0::PersoSubstate::RUIM_HRPD_PUK"
    },
    {
     "enum_field_value" : 22,
     "name" : "android::hardware::radio::V1_0::PersoSubstate::RUIM_CORPORATE_PUK"
    },
    {
     "enum_field_value" : 23,
     "name" : "android::hardware::radio::V1_0::PersoSubstate::RUIM_SERVICE_PROVIDER_PUK"
    },
    {
     "enum_field_value" : 24,
     "name" : "android::hardware::radio::V1_0::PersoSubstate::RUIM_RUIM_PUK"
    }
   ],
   "linker_set_key" : "android::hardware::radio::V1_0::PersoSubstate",
   "name" : "android::hardware::radio::V1_0::PersoSubstate",
   "referenced_type" : "type-37",
   "self_type" : "type-37",
   "size" : 4,
   "source_file" : "/out/soong/.intermediates/hardware/interfaces/radio/1.0/android.hardware.radio@1.0_genc++_headers/gen/android/hardware/radio/1.0/types.h",
   "underlying_type" : "type-14",
   "unique_id" : "_ZTSN7android8hardware5radio4V1_013PersoSubstateE"
  },
  {
   "alignment" : 4,
   "enum_fields" :
   [
    {
     "enum_field_value" : 0,
     "name" : "android::hardware::radio::V1_0::PhoneRestrictedState::NONE"
    },
    {
     "enum_field_value" : 1,
     "name" : "android::hardware::radio::V1_0::PhoneRestrictedState::CS_EMERGENCY"
    },
    {
     "enum_field_value" : 2,
     "name" : "android::hardware::radio::V1_0::PhoneRestrictedState::CS_NORMAL"
    },
    {
     "enum_field_value" : 4,
     "name" : "android::hardware::radio::V1_0::PhoneRestrictedState::CS_ALL"
    },
    {
     "enum_field_value" : 16,
     "name" : "android::hardware::radio::V1_0::PhoneRestrictedState::PS_ALL"
    }
   ],
   "linker_set_key" : "android::hardware::radio::V1_0::PhoneRestrictedState",
   "name" : "android::hardware::radio::V1_0::PhoneRestrictedState",
   "referenced_type" : "type-1285",
   "self_type" : "type-1285",
   "size" : 4,
   "source_file" : "/out/soong/.intermediates/hardware/interfaces/radio/1.0/android.hardware.radio@1.0_genc++_headers/gen/android/hardware/radio/1.0/types.h",
   "underlying_type" : "type-14",
   "unique_id" : "_ZTSN7android8hardware5radio4V1_020PhoneRestrictedStateE"
  },
  {
   "alignment" : 4,
   "enum_fields" :
   [
    {
     "enum_field_value" : 0,
     "name" : "android::hardware::radio::V1_0::PinState::UNKNOWN"
    },
    {
     "enum_field_value" : 1,
     "name" : "android::hardware::radio::V1_0::PinState::ENABLED_NOT_VERIFIED"
    },
    {
     "enum_field_value" : 2,
     "name" : "android::hardware::radio::V1_0::PinState::ENABLED_VERIFIED"
    },
    {
     "enum_field_value" : 3,
     "name" : "android::hardware::radio::V1_0::PinState::DISABLED"
    },
    {
     "enum_field_value" : 4,
     "name" : "android::hardware::radio::V1_0::PinState::ENABLED_BLOCKED"
    },
    {
     "enum_field_value" : 5,
     "name" : "android::hardware::radio::V1_0::PinState::ENABLED_PERM_BLOCKED"
    }
   ],
   "linker_set_key" : "android::hardware::radio::V1_0::PinState",
   "name" : "android::hardware::radio::V1_0::PinState",
   "referenced_type" : "type-38",
   "self_type" : "type-38",
   "size" : 4,
   "source_file" : "/out/soong/.intermediates/hardware/interfaces/radio/1.0/android.hardware.radio@1.0_genc++_headers/gen/android/hardware/radio/1.0/types.h",
   "underlying_type" : "type-14",
   "unique_id" : "_ZTSN7android8hardware5radio4V1_08PinStateE"
  },
  {
   "alignment" : 4,
   "enum_fields" :
   [
    {
     "enum_field_value" : 0,
     "name" : "android::hardware::radio::V1_0::PreferredNetworkType::GSM_WCDMA"
    },
    {
     "enum_field_value" : 1,
     "name" : "android::hardware::radio::V1_0::PreferredNetworkType::GSM_ONLY"
    },
    {
     "enum_field_value" : 2,
     "name" : "android::hardware::radio::V1_0::PreferredNetworkType::WCDMA"
    },
    {
     "enum_field_value" : 3,
     "name" : "android::hardware::radio::V1_0::PreferredNetworkType::GSM_WCDMA_AUTO"
    },
    {
     "enum_field_value" : 4,
     "name" : "android::hardware::radio::V1_0::PreferredNetworkType::CDMA_EVDO_AUTO"
    },
    {
     "enum_field_value" : 5,
     "name" : "android::hardware::radio::V1_0::PreferredNetworkType::CDMA_ONLY"
    },
    {
     "enum_field_value" : 6,
     "name" : "android::hardware::radio::V1_0::PreferredNetworkType::EVDO_ONLY"
    },
    {
     "enum_field_value" : 7,
     "name" : "android::hardware::radio::V1_0::PreferredNetworkType::GSM_WCDMA_CDMA_EVDO_AUTO"
    },
    {
     "enum_field_value" : 8,
     "name" : "android::hardware::radio::V1_0::PreferredNetworkType::LTE_CDMA_EVDO"
    },
    {
     "enum_field_value" : 9,
     "name" : "android::hardware::radio::V1_0::PreferredNetworkType::LTE_GSM_WCDMA"
    },
    {
     "enum_field_value" : 10,
     "name" : "android::hardware::radio::V1_0::PreferredNetworkType::LTE_CMDA_EVDO_GSM_WCDMA"
    },
    {
     "enum_field_value" : 11,
     "name" : "android::hardware::radio::V1_0::PreferredNetworkType::LTE_ONLY"
    },
    {
     "enum_field_value" : 12,
     "name" : "android::hardware::radio::V1_0::PreferredNetworkType::LTE_WCDMA"
    },
    {
     "enum_field_value" : 13,
     "name" : "android::hardware::radio::V1_0::PreferredNetworkType::TD_SCDMA_ONLY"
    },
    {
     "enum_field_value" : 14,
     "name" : "android::hardware::radio::V1_0::PreferredNetworkType::TD_SCDMA_WCDMA"
    },
    {
     "enum_field_value" : 15,
     "name" : "android::hardware::radio::V1_0::PreferredNetworkType::TD_SCDMA_LTE"
    },
    {
     "enum_field_value" : 16,
     "name" : "android::hardware::radio::V1_0::PreferredNetworkType::TD_SCDMA_GSM"
    },
    {
     "enum_field_value" : 17,
     "name" : "android::hardware::radio::V1_0::PreferredNetworkType::TD_SCDMA_GSM_LTE"
    },
    {
     "enum_field_value" : 18,
     "name" : "android::hardware::radio::V1_0::PreferredNetworkType::TD_SCDMA_GSM_WCDMA"
    },
    {
     "enum_field_value" : 19,
     "name" : "android::hardware::radio::V1_0::PreferredNetworkType::TD_SCDMA_WCDMA_LTE"
    },
    {
     "enum_field_value" : 20,
     "name" : "android::hardware::radio::V1_0::PreferredNetworkType::TD_SCDMA_GSM_WCDMA_LTE"
    },
    {
     "enum_field_value" : 21,
     "name" : "android::hardware::radio::V1_0::PreferredNetworkType::TD_SCDMA_GSM_WCDMA_CDMA_EVDO_AUTO"
    },
    {
     "enum_field_value" : 22,
     "name" : "android::hardware::radio::V1_0::PreferredNetworkType::TD_SCDMA_LTE_CDMA_EVDO_GSM_WCDMA"
    }
   ],
   "linker_set_key" : "android::hardware::radio::V1_0::PreferredNetworkType",
   "name" : "android::hardware::radio::V1_0::PreferredNetworkType",
   "referenced_type" : "type-1180",
   "self_type" : "type-1180",
   "size" : 4,
   "source_file" : "/out/soong/.intermediates/hardware/interfaces/radio/1.0/android.hardware.radio@1.0_genc++_headers/gen/android/hardware/radio/1.0/types.h",
   "underlying_type" : "type-14",
   "unique_id" : "_ZTSN7android8hardware5radio4V1_020PreferredNetworkTypeE"
  },
  {
   "alignment" : 4,
   "enum_fields" :
   [
    {
     "enum_field_value" : 1,
     "name" : "android::hardware::radio::V1_0::RadioAccessFamily::UNKNOWN"
    },
    {
     "enum_field_value" : 2,
     "name" : "android::hardware::radio::V1_0::RadioAccessFamily::GPRS"
    },
    {
     "enum_field_value" : 4,
     "name" : "android::hardware::radio::V1_0::RadioAccessFamily::EDGE"
    },
    {
     "enum_field_value" : 8,
     "name" : "android::hardware::radio::V1_0::RadioAccessFamily::UMTS"
    },
    {
     "enum_field_value" : 16,
     "name" : "android::hardware::radio::V1_0::RadioAccessFamily::IS95A"
    },
    {
     "enum_field_value" : 32,
     "name" : "android::hardware::radio::V1_0::RadioAccessFamily::IS95B"
    },
    {
     "enum_field_value" : 64,
     "name" : "android::hardware::radio::V1_0::RadioAccessFamily::ONE_X_RTT"
    },
    {
     "enum_field_value" : 128,
     "name" : "android::hardware::radio::V1_0::RadioAccessFamily::EVDO_0"
    },
    {
     "enum_field_value" : 256,
     "name" : "android::hardware::radio::V1_0::RadioAccessFamily::EVDO_A"
    },
    {
     "enum_field_value" : 512,
     "name" : "android::hardware::radio::V1_0::RadioAccessFamily::HSDPA"
    },
    {
     "enum_field_value" : 1024,
     "name" : "android::hardware::radio::V1_0::RadioAccessFamily::HSUPA"
    },
    {
     "enum_field_value" : 2048,
     "name" : "android::hardware::radio::V1_0::RadioAccessFamily::HSPA"
    },
    {
     "enum_field_value" : 4096,
     "name" : "android::hardware::radio::V1_0::RadioAccessFamily::EVDO_B"
    },
    {
     "enum_field_value" : 8192,
     "name" : "android::hardware::radio::V1_0::RadioAccessFamily::EHRPD"
    },
    {
     "enum_field_value" : 16384,
     "name" : "android::hardware::radio::V1_0::RadioAccessFamily::LTE"
    },
    {
     "enum_field_value" : 32768,
     "name" : "android::hardware::radio::V1_0::RadioAccessFamily::HSPAP"
    },
    {
     "enum_field_value" : 65536,
     "name" : "android::hardware::radio::V1_0::RadioAccessFamily::GSM"
    },
    {
     "enum_field_value" : 131072,
     "name" : "android::hardware::radio::V1_0::RadioAccessFamily::TD_SCDMA"
    },
    {
     "enum_field_value" : 524288,
     "name" : "android::hardware::radio::V1_0::RadioAccessFamily::LTE_CA"
    }
   ],
   "linker_set_key" : "android::hardware::radio::V1_0::RadioAccessFamily",
   "name" : "android::hardware::radio::V1_0::RadioAccessFamily",
   "referenced_type" : "type-1270",
   "self_type" : "type-1270",
   "size" : 4,
   "source_file" : "/out/soong/.intermediates/hardware/interfaces/radio/1.0/android.hardware.radio@1.0_genc++_headers/gen/android/hardware/radio/1.0/types.h",
   "underlying_type" : "type-14",
   "unique_id" : "_ZTSN7android8hardware5radio4V1_017RadioAccessFamilyE"
  },
  {
   "alignment" : 4,
   "enum_fields" :
   [
    {
     "enum_field_value" : 0,
     "name" : "android::hardware::radio::V1_0::RadioBandMode::BAND_MODE_UNSPECIFIED"
    },
    {
     "enum_field_value" : 1,
     "name" : "android::hardware::radio::V1_0::RadioBandMode::BAND_MODE_EURO"
    },
    {
     "enum_field_value" : 2,
     "name" : "android::hardware::radio::V1_0::RadioBandMode::BAND_MODE_USA"
    },
    {
     "enum_field_value" : 3,
     "name" : "android::hardware::radio::V1_0::RadioBandMode::BAND_MODE_JPN"
    },
    {
     "enum_field_value" : 4,
     "name" : "android::hardware::radio::V1_0::RadioBandMode::BAND_MODE_AUS"
    },
    {
     "enum_field_value" : 5,
     "name" : "android::hardware::radio::V1_0::RadioBandMode::BAND_MODE_AUS_2"
    },
    {
     "enum_field_value" : 6,
     "name" : "android::hardware::radio::V1_0::RadioBandMode::BAND_MODE_CELL_800"
    },
    {
     "enum_field_value" : 7,
     "name" : "android::hardware::radio::V1_0::RadioBandMode::BAND_MODE_PCS"
    },
    {
     "enum_field_value" : 8,
     "name" : "android::hardware::radio::V1_0::RadioBandMode::BAND_MODE_JTACS"
    },
    {
     "enum_field_value" : 9,
     "name" : "android::hardware::radio::V1_0::RadioBandMode::BAND_MODE_KOREA_PCS"
    },
    {
     "enum_field_value" : 10,
     "name" : "android::hardware::radio::V1_0::RadioBandMode::BAND_MODE_5_450M"
    },
    {
     "enum_field_value" : 11,
     "name" : "android::hardware::radio::V1_0::RadioBandMode::BAND_MODE_IMT2000"
    },
    {
     "enum_field_value" : 12,
     "name" : "android::hardware::radio::V1_0::RadioBandMode::BAND_MODE_7_700M_2"
    },
    {
     "enum_field_value" : 13,
     "name" : "android::hardware::radio::V1_0::RadioBandMode::BAND_MODE_8_1800M"
    },
    {
     "enum_field_value" : 14,
     "name" : "android::hardware::radio::V1_0::RadioBandMode::BAND_MODE_9_900M"
    },
    {
     "enum_field_value" : 15,
     "name" : "android::hardware::radio::V1_0::RadioBandMode::BAND_MODE_10_800M_2"
    },
    {
     "enum_field_value" : 16,
     "name" : "android::hardware::radio::V1_0::RadioBandMode::BAND_MODE_EURO_PAMR_400M"
    },
    {
     "enum_field_value" : 17,
     "name" : "android::hardware::radio::V1_0::RadioBandMode::BAND_MODE_AWS"
    },
    {
     "enum_field_value" : 18,
     "name" : "android::hardware::radio::V1_0::RadioBandMode::BAND_MODE_USA_2500M"
    }
   ],
   "linker_set_key" : "android::hardware::radio::V1_0::RadioBandMode",
   "name" : "android::hardware::radio::V1_0::RadioBandMode",
   "referenced_type" : "type-1145",
   "self_type" : "type-1145",
   "size" : 4,
   "source_file" : "/out/soong/.intermediates/hardware/interfaces/radio/1.0/android.hardware.radio@1.0_genc++_headers/gen/android/hardware/radio/1.0/types.h",
   "underlying_type" : "type-14",
   "unique_id" : "_ZTSN7android8hardware5radio4V1_013RadioBandModeE"
  },
  {
   "alignment" : 4,
   "enum_fields" :
   [
    {
     "enum_field_value" : 0,
     "name" : "android::hardware::radio::V1_0::RadioCapabilityPhase::CONFIGURED"
    },
    {
     "enum_field_value" : 1,
     "name" : "android::hardware::radio::V1_0::RadioCapabilityPhase::START"
    },
    {
     "enum_field_value" : 2,
     "name" : "android::hardware::radio::V1_0::RadioCapabilityPhase::APPLY"
    },
    {
     "enum_field_value" : 3,
     "name" : "android::hardware::radio::V1_0::RadioCapabilityPhase::UNSOL_RSP"
    },
    {
     "enum_field_value" : 4,
     "name" : "android::hardware::radio::V1_0::RadioCapabilityPhase::FINISH"
    }
   ],
   "linker_set_key" : "android::hardware::radio::V1_0::RadioCapabilityPhase",
   "name" : "android::hardware::radio::V1_0::RadioCapabilityPhase",
   "referenced_type" : "type-615",
   "self_type" : "type-615",
   "size" : 4,
   "source_file" : "/out/soong/.intermediates/hardware/interfaces/radio/1.0/android.hardware.radio@1.0_genc++_headers/gen/android/hardware/radio/1.0/types.h",
   "underlying_type" : "type-14",
   "unique_id" : "_ZTSN7android8hardware5radio4V1_020RadioCapabilityPhaseE"
  },
  {
   "alignment" : 4,
   "enum_fields" :
   [
    {
     "enum_field_value" : 0,
     "name" : "android::hardware::radio::V1_0::RadioCapabilityStatus::NONE"
    },
    {
     "enum_field_value" : 1,
     "name" : "android::hardware::radio::V1_0::RadioCapabilityStatus::SUCCESS"
    },
    {
     "enum_field_value" : 2,
     "name" : "android::hardware::radio::V1_0::RadioCapabilityStatus::FAIL"
    }
   ],
   "linker_set_key" : "android::hardware::radio::V1_0::RadioCapabilityStatus",
   "name" : "android::hardware::radio::V1_0::RadioCapabilityStatus",
   "referenced_type" : "type-616",
   "self_type" : "type-616",
   "size" : 4,
   "source_file" : "/out/soong/.intermediates/hardware/interfaces/radio/1.0/android.hardware.radio@1.0_genc++_headers/gen/android/hardware/radio/1.0/types.h",
   "underlying_type" : "type-14",
   "unique_id" : "_ZTSN7android8hardware5radio4V1_021RadioCapabilityStatusE"
  },
  {
   "alignment" : 4,
   "enum_fields" :
   [
    {
     "enum_field_value" : 36,
     "name" : "android::hardware::radio::V1_0::RadioCdmaSmsConst::ADDRESS_MAX"
    },
    {
     "enum_field_value" : 36,
     "name" : "android::hardware::radio::V1_0::RadioCdmaSmsConst::SUBADDRESS_MAX"
    },
    {
     "enum_field_value" : 255,
     "name" : "android::hardware::radio::V1_0::RadioCdmaSmsConst::BEARER_DATA_MAX"
    },
    {
     "enum_field_value" : 128,
     "name" : "android::hardware::radio::V1_0::RadioCdmaSmsConst::UDH_MAX_SND_SIZE"
    },
    {
     "enum_field_value" : 131,
     "name" : "android::hardware::radio::V1_0::RadioCdmaSmsConst::UDH_EO_DATA_SEGMENT_MAX"
    },
    {
     "enum_field_value" : 7,
     "name" : "android::hardware::radio::V1_0::RadioCdmaSmsConst::MAX_UD_HEADERS"
    },
    {
     "enum_field_value" : 229,
     "name" : "android::hardware::radio::V1_0::RadioCdmaSmsConst::USER_DATA_MAX"
    },
    {
     "enum_field_value" : 128,
     "name" : "android::hardware::radio::V1_0::RadioCdmaSmsConst::UDH_LARGE_PIC_SIZE"
    },
    {
     "enum_field_value" : 32,
     "name" : "android::hardware::radio::V1_0::RadioCdmaSmsConst::UDH_SMALL_PIC_SIZE"
    },
    {
     "enum_field_value" : 134,
     "name" : "android::hardware::radio::V1_0::RadioCdmaSmsConst::UDH_VAR_PIC_SIZE"
    },
    {
     "enum_field_value" : 4,
     "name" : "android::hardware::radio::V1_0::RadioCdmaSmsConst::UDH_ANIM_NUM_BITMAPS"
    },
    {
     "enum_field_value" : 32,
     "name" : "android::hardware::radio::V1_0::RadioCdmaSmsConst::UDH_LARGE_BITMAP_SIZE"
    },
    {
     "enum_field_value" : 8,
     "name" : "android::hardware::radio::V1_0::RadioCdmaSmsConst::UDH_SMALL_BITMAP_SIZE"
    },
    {
     "enum_field_value" : 226,
     "name" : "android::hardware::radio::V1_0::RadioCdmaSmsConst::UDH_OTHER_SIZE"
    },
    {
     "enum_field_value" : 4,
     "name" : "android::hardware::radio::V1_0::RadioCdmaSmsConst::IP_ADDRESS_SIZE"
    }
   ],
   "linker_set_key" : "android::hardware::radio::V1_0::RadioCdmaSmsConst",
   "name" : "android::hardware::radio::V1_0::RadioCdmaSmsConst",
   "referenced_type" : "type-978",
   "self_type" : "type-978",
   "size" : 4,
   "source_file" : "/out/soong/.intermediates/hardware/interfaces/radio/1.0/android.hardware.radio@1.0_genc++_headers/gen/android/hardware/radio/1.0/types.h",
   "underlying_type" : "type-14",
   "unique_id" : "_ZTSN7android8hardware5radio4V1_017RadioCdmaSmsConstE"
  },
  {
   "alignment" : 4,
   "enum_fields" :
   [
    {
     "enum_field_value" : 64,
     "name" : "android::hardware::radio::V1_0::RadioConst::CDMA_ALPHA_INFO_BUFFER_LENGTH"
    },
    {
     "enum_field_value" : 81,
     "name" : "android::hardware::radio::V1_0::RadioConst::CDMA_NUMBER_INFO_BUFFER_LENGTH"
    },
    {
     "enum_field_value" : 3,
     "name" : "android::hardware::radio::V1_0::RadioConst::MAX_RILDS"
    },
    {
     "enum_field_value" : 6,
     "name" : "android::hardware::radio::V1_0::RadioConst::MAX_SOCKET_NAME_LENGTH"
    },
    {
     "enum_field_value" : 2,
     "name" : "android::hardware::radio::V1_0::RadioConst::MAX_CLIENT_ID_LENGTH"
    },
    {
     "enum_field_value" : 12,
     "name" : "android::hardware::radio::V1_0::RadioConst::MAX_DEBUG_SOCKET_NAME_LENGTH"
    },
    {
     "enum_field_value" : 11,
     "name" : "android::hardware::radio::V1_0::RadioConst::MAX_QEMU_PIPE_NAME_LENGTH"
    },
    {
     "enum_field_value" : 64,
     "name" : "android::hardware::radio::V1_0::RadioConst::MAX_UUID_LENGTH"
    },
    {
     "enum_field_value" : 8,
     "name" : "android::hardware::radio::V1_0::RadioConst::CARD_MAX_APPS"
    },
    {
     "enum_field_value" : 10,
     "name" : "android::hardware::radio::V1_0::RadioConst::CDMA_MAX_NUMBER_OF_INFO_RECS"
    },
    {
     "enum_field_value" : 4,
     "name" : "android::hardware::radio::V1_0::RadioConst::SS_INFO_MAX"
    },
    {
     "enum_field_value" : 7,
     "name" : "android::hardware::radio::V1_0::RadioConst::NUM_SERVICE_CLASSES"
    },
    {
     "enum_field_value" : 5,
     "name" : "android::hardware::radio::V1_0::RadioConst::NUM_TX_POWER_LEVELS"
    }
   ],
   "linker_set_key" : "android::hardware::radio::V1_0::RadioConst",
   "name" : "android::hardware::radio::V1_0::RadioConst",
   "referenced_type" : "type-958",
   "self_type" : "type-958",
   "size" : 4,
   "source_file" : "/out/soong/.intermediates/hardware/interfaces/radio/1.0/android.hardware.radio@1.0_genc++_headers/gen/android/hardware/radio/1.0/types.h",
   "underlying_type" : "type-14",
   "unique_id" : "_ZTSN7android8hardware5radio4V1_010RadioConstE"
  },
  {
   "alignment" : 4,
   "enum_fields" :
   [
    {
     "enum_field_value" : 0,
     "name" : "android::hardware::radio::V1_0::RadioError::NONE"
    },
    {
     "enum_field_value" : 1,
     "name" : "android::hardware::radio::V1_0::RadioError::RADIO_NOT_AVAILABLE"
    },
    {
     "enum_field_value" : 2,
     "name" : "android::hardware::radio::V1_0::RadioError::GENERIC_FAILURE"
    },
    {
     "enum_field_value" : 3,
     "name" : "android::hardware::radio::V1_0::RadioError::PASSWORD_INCORRECT"
    },
    {
     "enum_field_value" : 4,
     "name" : "android::hardware::radio::V1_0::RadioError::SIM_PIN2"
    },
    {
     "enum_field_value" : 5,
     "name" : "android::hardware::radio::V1_0::RadioError::SIM_PUK2"
    },
    {
     "enum_field_value" : 6,
     "name" : "android::hardware::radio::V1_0::RadioError::REQUEST_NOT_SUPPORTED"
    },
    {
     "enum_field_value" : 7,
     "name" : "android::hardware::radio::V1_0::RadioError::CANCELLED"
    },
    {
     "enum_field_value" : 8,
     "name" : "android::hardware::radio::V1_0::RadioError::OP_NOT_ALLOWED_DURING_VOICE_CALL"
    },
    {
     "enum_field_value" : 9,
     "name" : "android::hardware::radio::V1_0::RadioError::OP_NOT_ALLOWED_BEFORE_REG_TO_NW"
    },
    {
     "enum_field_value" : 10,
     "name" : "android::hardware::radio::V1_0::RadioError::SMS_SEND_FAIL_RETRY"
    },
    {
     "enum_field_value" : 11,
     "name" : "android::hardware::radio::V1_0::RadioError::SIM_ABSENT"
    },
    {
     "enum_field_value" : 12,
     "name" : "android::hardware::radio::V1_0::RadioError::SUBSCRIPTION_NOT_AVAILABLE"
    },
    {
     "enum_field_value" : 13,
     "name" : "android::hardware::radio::V1_0::RadioError::MODE_NOT_SUPPORTED"
    },
    {
     "enum_field_value" : 14,
     "name" : "android::hardware::radio::V1_0::RadioError::FDN_CHECK_FAILURE"
    },
    {
     "enum_field_value" : 15,
     "name" : "android::hardware::radio::V1_0::RadioError::ILLEGAL_SIM_OR_ME"
    },
    {
     "enum_field_value" : 16,
     "name" : "android::hardware::radio::V1_0::RadioError::MISSING_RESOURCE"
    },
    {
     "enum_field_value" : 17,
     "name" : "android::hardware::radio::V1_0::RadioError::NO_SUCH_ELEMENT"
    },
    {
     "enum_field_value" : 18,
     "name" : "android::hardware::radio::V1_0::RadioError::DIAL_MODIFIED_TO_USSD"
    },
    {
     "enum_field_value" : 19,
     "name" : "android::hardware::radio::V1_0::RadioError::DIAL_MODIFIED_TO_SS"
    },
    {
     "enum_field_value" : 20,
     "name" : "android::hardware::radio::V1_0::RadioError::DIAL_MODIFIED_TO_DIAL"
    },
    {
     "enum_field_value" : 21,
     "name" : "android::hardware::radio::V1_0::RadioError::USSD_MODIFIED_TO_DIAL"
    },
    {
     "enum_field_value" : 22,
     "name" : "android::hardware::radio::V1_0::RadioError::USSD_MODIFIED_TO_SS"
    },
    {
     "enum_field_value" : 23,
     "name" : "android::hardware::radio::V1_0::RadioError::USSD_MODIFIED_TO_USSD"
    },
    {
     "enum_field_value" : 24,
     "name" : "android::hardware::radio::V1_0::RadioError::SS_MODIFIED_TO_DIAL"
    },
    {
     "enum_field_value" : 25,
     "name" : "android::hardware::radio::V1_0::RadioError::SS_MODIFIED_TO_USSD"
    },
    {
     "enum_field_value" : 26,
     "name" : "android::hardware::radio::V1_0::RadioError::SUBSCRIPTION_NOT_SUPPORTED"
    },
    {
     "enum_field_value" : 27,
     "name" : "android::hardware::radio::V1_0::RadioError::SS_MODIFIED_TO_SS"
    },
    {
     "enum_field_value" : 36,
     "name" : "android::hardware::radio::V1_0::RadioError::LCE_NOT_SUPPORTED"
    },
    {
     "enum_field_value" : 37,
     "name" : "android::hardware::radio::V1_0::RadioError::NO_MEMORY"
    },
    {
     "enum_field_value" : 38,
     "name" : "android::hardware::radio::V1_0::RadioError::INTERNAL_ERR"
    },
    {
     "enum_field_value" : 39,
     "name" : "android::hardware::radio::V1_0::RadioError::SYSTEM_ERR"
    },
    {
     "enum_field_value" : 40,
     "name" : "android::hardware::radio::V1_0::RadioError::MODEM_ERR"
    },
    {
     "enum_field_value" : 41,
     "name" : "android::hardware::radio::V1_0::RadioError::INVALID_STATE"
    },
    {
     "enum_field_value" : 42,
     "name" : "android::hardware::radio::V1_0::RadioError::NO_RESOURCES"
    },
    {
     "enum_field_value" : 43,
     "name" : "android::hardware::radio::V1_0::RadioError::SIM_ERR"
    },
    {
     "enum_field_value" : 44,
     "name" : "android::hardware::radio::V1_0::RadioError::INVALID_ARGUMENTS"
    },
    {
     "enum_field_value" : 45,
     "name" : "android::hardware::radio::V1_0::RadioError::INVALID_SIM_STATE"
    },
    {
     "enum_field_value" : 46,
     "name" : "android::hardware::radio::V1_0::RadioError::INVALID_MODEM_STATE"
    },
    {
     "enum_field_value" : 47,
     "name" : "android::hardware::radio::V1_0::RadioError::INVALID_CALL_ID"
    },
    {
     "enum_field_value" : 48,
     "name" : "android::hardware::radio::V1_0::RadioError::NO_SMS_TO_ACK"
    },
    {
     "enum_field_value" : 49,
     "name" : "android::hardware::radio::V1_0::RadioError::NETWORK_ERR"
    },
    {
     "enum_field_value" : 50,
     "name" : "android::hardware::radio::V1_0::RadioError::REQUEST_RATE_LIMITED"
    },
    {
     "enum_field_value" : 51,
     "name" : "android::hardware::radio::V1_0::RadioError::SIM_BUSY"
    },
    {
     "enum_field_value" : 52,
     "name" : "android::hardware::radio::V1_0::RadioError::SIM_FULL"
    },
    {
     "enum_field_value" : 53,
     "name" : "android::hardware::radio::V1_0::RadioError::NETWORK_REJECT"
    },
    {
     "enum_field_value" : 54,
     "name" : "android::hardware::radio::V1_0::RadioError::OPERATION_NOT_ALLOWED"
    },
    {
     "enum_field_value" : 55,
     "name" : "android::hardware::radio::V1_0::RadioError::EMPTY_RECORD"
    },
    {
     "enum_field_value" : 56,
     "name" : "android::hardware::radio::V1_0::RadioError::INVALID_SMS_FORMAT"
    },
    {
     "enum_field_value" : 57,
     "name" : "android::hardware::radio::V1_0::RadioError::ENCODING_ERR"
    },
    {
     "enum_field_value" : 58,
     "name" : "android::hardware::radio::V1_0::RadioError::INVALID_SMSC_ADDRESS"
    },
    {
     "enum_field_value" : 59,
     "name" : "android::hardware::radio::V1_0::RadioError::NO_SUCH_ENTRY"
    },
    {
     "enum_field_value" : 60,
     "name" : "android::hardware::radio::V1_0::RadioError::NETWORK_NOT_READY"
    },
    {
     "enum_field_value" : 61,
     "name" : "android::hardware::radio::V1_0::RadioError::NOT_PROVISIONED"
    },
    {
     "enum_field_value" : 62,
     "name" : "android::hardware::radio::V1_0::RadioError::NO_SUBSCRIPTION"
    },
    {
     "enum_field_value" : 63,
     "name" : "android::hardware::radio::V1_0::RadioError::NO_NETWORK_FOUND"
    },
    {
     "enum_field_value" : 64,
     "name" : "android::hardware::radio::V1_0::RadioError::DEVICE_IN_USE"
    },
    {
     "enum_field_value" : 65,
     "name" : "android::hardware::radio::V1_0::RadioError::ABORTED"
    },
    {
     "enum_field_value" : 66,
     "name" : "android::hardware::radio::V1_0::RadioError::INVALID_RESPONSE"
    },
    {
     "enum_field_value" : 501,
     "name" : "android::hardware::radio::V1_0::RadioError::OEM_ERROR_1"
    },
    {
     "enum_field_value" : 502,
     "name" : "android::hardware::radio::V1_0::RadioError::OEM_ERROR_2"
    },
    {
     "enum_field_value" : 503,
     "name" : "android::hardware::radio::V1_0::RadioError::OEM_ERROR_3"
    },
    {
     "enum_field_value" : 504,
     "name" : "android::hardware::radio::V1_0::RadioError::OEM_ERROR_4"
    },
    {
     "enum_field_value" : 505,
     "name" : "android::hardware::radio::V1_0::RadioError::OEM_ERROR_5"
    },
    {
     "enum_field_value" : 506,
     "name" : "android::hardware::radio::V1_0::RadioError::OEM_ERROR_6"
    },
    {
     "enum_field_value" : 507,
     "name" : "android::hardware::radio::V1_0::RadioError::OEM_ERROR_7"
    },
    {
     "enum_field_value" : 508,
     "name" : "android::hardware::radio::V1_0::RadioError::OEM_ERROR_8"
    },
    {
     "enum_field_value" : 509,
     "name" : "android::hardware::radio::V1_0::RadioError::OEM_ERROR_9"
    },
    {
     "enum_field_value" : 510,
     "name" : "android::hardware::radio::V1_0::RadioError::OEM_ERROR_10"
    },
    {
     "enum_field_value" : 511,
     "name" : "android::hardware::radio::V1_0::RadioError::OEM_ERROR_11"
    },
    {
     "enum_field_value" : 512,
     "name" : "android::hardware::radio::V1_0::RadioError::OEM_ERROR_12"
    },
    {
     "enum_field_value" : 513,
     "name" : "android::hardware::radio::V1_0::RadioError::OEM_ERROR_13"
    },
    {
     "enum_field_value" : 514,
     "name" : "android::hardware::radio::V1_0::RadioError::OEM_ERROR_14"
    },
    {
     "enum_field_value" : 515,
     "name" : "android::hardware::radio::V1_0::RadioError::OEM_ERROR_15"
    },
    {
     "enum_field_value" : 516,
     "name" : "android::hardware::radio::V1_0::RadioError::OEM_ERROR_16"
    },
    {
     "enum_field_value" : 517,
     "name" : "android::hardware::radio::V1_0::RadioError::OEM_ERROR_17"
    },
    {
     "enum_field_value" : 518,
     "name" : "android::hardware::radio::V1_0::RadioError::OEM_ERROR_18"
    },
    {
     "enum_field_value" : 519,
     "name" : "android::hardware::radio::V1_0::RadioError::OEM_ERROR_19"
    },
    {
     "enum_field_value" : 520,
     "name" : "android::hardware::radio::V1_0::RadioError::OEM_ERROR_20"
    },
    {
     "enum_field_value" : 521,
     "name" : "android::hardware::radio::V1_0::RadioError::OEM_ERROR_21"
    },
    {
     "enum_field_value" : 522,
     "name" : "android::hardware::radio::V1_0::RadioError::OEM_ERROR_22"
    },
    {
     "enum_field_value" : 523,
     "name" : "android::hardware::radio::V1_0::RadioError::OEM_ERROR_23"
    },
    {
     "enum_field_value" : 524,
     "name" : "android::hardware::radio::V1_0::RadioError::OEM_ERROR_24"
    },
    {
     "enum_field_value" : 525,
     "name" : "android::hardware::radio::V1_0::RadioError::OEM_ERROR_25"
    }
   ],
   "linker_set_key" : "android::hardware::radio::V1_0::RadioError",
   "name" : "android::hardware::radio::V1_0::RadioError",
   "referenced_type" : "type-599",
   "self_type" : "type-599",
   "size" : 4,
   "source_file" : "/out/soong/.intermediates/hardware/interfaces/radio/1.0/android.hardware.radio@1.0_genc++_headers/gen/android/hardware/radio/1.0/types.h",
   "underlying_type" : "type-14",
   "unique_id" : "_ZTSN7android8hardware5radio4V1_010RadioErrorE"
  },
  {
   "alignment" : 4,
   "enum_fields" :
   [
    {
     "enum_field_value" : 0,
     "name" : "android::hardware::radio::V1_0::RadioIndicationType::UNSOLICITED"
    },
    {
     "enum_field_value" : 1,
     "name" : "android::hardware::radio::V1_0::RadioIndicationType::UNSOLICITED_ACK_EXP"
    }
   ],
   "linker_set_key" : "android::hardware::radio::V1_0::RadioIndicationType",
   "name" : "android::hardware::radio::V1_0::RadioIndicationType",
   "referenced_type" : "type-1030",
   "self_type" : "type-1030",
   "size" : 4,
   "source_file" : "/out/soong/.intermediates/hardware/interfaces/radio/1.0/android.hardware.radio@1.0_genc++_headers/gen/android/hardware/radio/1.0/types.h",
   "underlying_type" : "type-14",
   "unique_id" : "_ZTSN7android8hardware5radio4V1_019RadioIndicationTypeE"
  },
  {
   "alignment" : 4,
   "enum_fields" :
   [
    {
     "enum_field_value" : 0,
     "name" : "android::hardware::radio::V1_0::RadioResponseType::SOLICITED"
    },
    {
     "enum_field_value" : 1,
     "name" : "android::hardware::radio::V1_0::RadioResponseType::SOLICITED_ACK"
    },
    {
     "enum_field_value" : 2,
     "name" : "android::hardware::radio::V1_0::RadioResponseType::SOLICITED_ACK_EXP"
    }
   ],
   "linker_set_key" : "android::hardware::radio::V1_0::RadioResponseType",
   "name" : "android::hardware::radio::V1_0::RadioResponseType",
   "referenced_type" : "type-598",
   "self_type" : "type-598",
   "size" : 4,
   "source_file" : "/out/soong/.intermediates/hardware/interfaces/radio/1.0/android.hardware.radio@1.0_genc++_headers/gen/android/hardware/radio/1.0/types.h",
   "underlying_type" : "type-14",
   "unique_id" : "_ZTSN7android8hardware5radio4V1_017RadioResponseTypeE"
  },
  {
   "alignment" : 4,
   "enum_fields" :
   [
    {
     "enum_field_value" : 0,
     "name" : "android::hardware::radio::V1_0::RadioState::OFF"
    },
    {
     "enum_field_value" : 1,
     "name" : "android::hardware::radio::V1_0::RadioState::UNAVAILABLE"
    },
    {
     "enum_field_value" : 10,
     "name" : "android::hardware::radio::V1_0::RadioState::ON"
    }
   ],
   "linker_set_key" : "android::hardware::radio::V1_0::RadioState",
   "name" : "android::hardware::radio::V1_0::RadioState",
   "referenced_type" : "type-1050",
   "self_type" : "type-1050",
   "size" : 4,
   "source_file" : "/out/soong/.intermediates/hardware/interfaces/radio/1.0/android.hardware.radio@1.0_genc++_headers/gen/android/hardware/radio/1.0/types.h",
   "underlying_type" : "type-14",
   "unique_id" : "_ZTSN7android8hardware5radio4V1_010RadioStateE"
  },
  {
   "alignment" : 4,
   "enum_fields" :
   [
    {
     "enum_field_value" : 0,
     "name" : "android::hardware::radio::V1_0::RadioTechnology::UNKNOWN"
    },
    {
     "enum_field_value" : 1,
     "name" : "android::hardware::radio::V1_0::RadioTechnology::GPRS"
    },
    {
     "enum_field_value" : 2,
     "name" : "android::hardware::radio::V1_0::RadioTechnology::EDGE"
    },
    {
     "enum_field_value" : 3,
     "name" : "android::hardware::radio::V1_0::RadioTechnology::UMTS"
    },
    {
     "enum_field_value" : 4,
     "name" : "android::hardware::radio::V1_0::RadioTechnology::IS95A"
    },
    {
     "enum_field_value" : 5,
     "name" : "android::hardware::radio::V1_0::RadioTechnology::IS95B"
    },
    {
     "enum_field_value" : 6,
     "name" : "android::hardware::radio::V1_0::RadioTechnology::ONE_X_RTT"
    },
    {
     "enum_field_value" : 7,
     "name" : "android::hardware::radio::V1_0::RadioTechnology::EVDO_0"
    },
    {
     "enum_field_value" : 8,
     "name" : "android::hardware::radio::V1_0::RadioTechnology::EVDO_A"
    },
    {
     "enum_field_value" : 9,
     "name" : "android::hardware::radio::V1_0::RadioTechnology::HSDPA"
    },
    {
     "enum_field_value" : 10,
     "name" : "android::hardware::radio::V1_0::RadioTechnology::HSUPA"
    },
    {
     "enum_field_value" : 11,
     "name" : "android::hardware::radio::V1_0::RadioTechnology::HSPA"
    },
    {
     "enum_field_value" : 12,
     "name" : "android::hardware::radio::V1_0::RadioTechnology::EVDO_B"
    },
    {
     "enum_field_value" : 13,
     "name" : "android::hardware::radio::V1_0::RadioTechnology::EHRPD"
    },
    {
     "enum_field_value" : 14,
     "name" : "android::hardware::radio::V1_0::RadioTechnology::LTE"
    },
    {
     "enum_field_value" : 15,
     "name" : "android::hardware::radio::V1_0::RadioTechnology::HSPAP"
    },
    {
     "enum_field_value" : 16,
     "name" : "android::hardware::radio::V1_0::RadioTechnology::GSM"
    },
    {
     "enum_field_value" : 17,
     "name" : "android::hardware::radio::V1_0::RadioTechnology::TD_SCDMA"
    },
    {
     "enum_field_value" : 18,
     "name" : "android::hardware::radio::V1_0::RadioTechnology::IWLAN"
    },
    {
     "enum_field_value" : 19,
     "name" : "android::hardware::radio::V1_0::RadioTechnology::LTE_CA"
    }
   ],
   "linker_set_key" : "android::hardware::radio::V1_0::RadioTechnology",
   "name" : "android::hardware::radio::V1_0::RadioTechnology",
   "referenced_type" : "type-1103",
   "self_type" : "type-1103",
   "size" : 4,
   "source_file" : "/out/soong/.intermediates/hardware/interfaces/radio/1.0/android.hardware.radio@1.0_genc++_headers/gen/android/hardware/radio/1.0/types.h",
   "underlying_type" : "type-14",
   "unique_id" : "_ZTSN7android8hardware5radio4V1_015RadioTechnologyE"
  },
  {
   "alignment" : 4,
   "enum_fields" :
   [
    {
     "enum_field_value" : 0,
     "name" : "android::hardware::radio::V1_0::RadioTechnologyFamily::THREE_GPP"
    },
    {
     "enum_field_value" : 1,
     "name" : "android::hardware::radio::V1_0::RadioTechnologyFamily::THREE_GPP2"
    }
   ],
   "linker_set_key" : "android::hardware::radio::V1_0::RadioTechnologyFamily",
   "name" : "android::hardware::radio::V1_0::RadioTechnologyFamily",
   "referenced_type" : "type-187",
   "self_type" : "type-187",
   "size" : 4,
   "source_file" : "/out/soong/.intermediates/hardware/interfaces/radio/1.0/android.hardware.radio@1.0_genc++_headers/gen/android/hardware/radio/1.0/types.h",
   "underlying_type" : "type-14",
   "unique_id" : "_ZTSN7android8hardware5radio4V1_021RadioTechnologyFamilyE"
  },
  {
   "alignment" : 4,
   "enum_fields" :
   [
    {
     "enum_field_value" : 0,
     "name" : "android::hardware::radio::V1_0::RegState::NOT_REG_MT_NOT_SEARCHING_OP"
    },
    {
     "enum_field_value" : 1,
     "name" : "android::hardware::radio::V1_0::RegState::REG_HOME"
    },
    {
     "enum_field_value" : 2,
     "name" : "android::hardware::radio::V1_0::RegState::NOT_REG_MT_SEARCHING_OP"
    },
    {
     "enum_field_value" : 3,
     "name" : "android::hardware::radio::V1_0::RegState::REG_DENIED"
    },
    {
     "enum_field_value" : 4,
     "name" : "android::hardware::radio::V1_0::RegState::UNKNOWN"
    },
    {
     "enum_field_value" : 5,
     "name" : "android::hardware::radio::V1_0::RegState::REG_ROAMING"
    },
    {
     "enum_field_value" : 10,
     "name" : "android::hardware::radio::V1_0::RegState::NOT_REG_MT_NOT_SEARCHING_OP_EM"
    },
    {
     "enum_field_value" : 12,
     "name" : "android::hardware::radio::V1_0::RegState::NOT_REG_MT_SEARCHING_OP_EM"
    },
    {
     "enum_field_value" : 13,
     "name" : "android::hardware::radio::V1_0::RegState::REG_DENIED_EM"
    },
    {
     "enum_field_value" : 14,
     "name" : "android::hardware::radio::V1_0::RegState::UNKNOWN_EM"
    }
   ],
   "linker_set_key" : "android::hardware::radio::V1_0::RegState",
   "name" : "android::hardware::radio::V1_0::RegState",
   "referenced_type" : "type-99",
   "self_type" : "type-99",
   "size" : 4,
   "source_file" : "/out/soong/.intermediates/hardware/interfaces/radio/1.0/android.hardware.radio@1.0_genc++_headers/gen/android/hardware/radio/1.0/types.h",
   "underlying_type" : "type-14",
   "unique_id" : "_ZTSN7android8hardware5radio4V1_08RegStateE"
  },
  {
   "alignment" : 4,
   "enum_fields" :
   [
    {
     "enum_field_value" : 0,
     "name" : "android::hardware::radio::V1_0::ResetNvType::RELOAD"
    },
    {
     "enum_field_value" : 1,
     "name" : "android::hardware::radio::V1_0::ResetNvType::ERASE"
    },
    {
     "enum_field_value" : 2,
     "name" : "android::hardware::radio::V1_0::ResetNvType::FACTORY_RESET"
    }
   ],
   "linker_set_key" : "android::hardware::radio::V1_0::ResetNvType",
   "name" : "android::hardware::radio::V1_0::ResetNvType",
   "referenced_type" : "type-1237",
   "self_type" : "type-1237",
   "size" : 4,
   "source_file" : "/out/soong/.intermediates/hardware/interfaces/radio/1.0/android.hardware.radio@1.0_genc++_headers/gen/android/hardware/radio/1.0/types.h",
   "underlying_type" : "type-14",
   "unique_id" : "_ZTSN7android8hardware5radio4V1_011ResetNvTypeE"
  },
  {
   "alignment" : 4,
   "enum_fields" :
   [
    {
     "enum_field_value" : 0,
     "name" : "android::hardware::radio::V1_0::RestrictedState::NONE"
    },
    {
     "enum_field_value" : 1,
     "name" : "android::hardware::radio::V1_0::RestrictedState::CS_EMERGENCY"
    },
    {
     "enum_field_value" : 2,
     "name" : "android::hardware::radio::V1_0::RestrictedState::CS_NORMAL"
    },
    {
     "enum_field_value" : 4,
     "name" : "android::hardware::radio::V1_0::RestrictedState::CS_ALL"
    },
    {
     "enum_field_value" : 16,
     "name" : "android::hardware::radio::V1_0::RestrictedState::PS_ALL"
    }
   ],
   "linker_set_key" : "android::hardware::radio::V1_0::RestrictedState",
   "name" : "android::hardware::radio::V1_0::RestrictedState",
   "referenced_type" : "type-1040",
   "self_type" : "type-1040",
   "size" : 4,
   "source_file" : "/out/soong/.intermediates/hardware/interfaces/radio/1.0/android.hardware.radio@1.0_genc++_headers/gen/android/hardware/radio/1.0/types.h",
   "underlying_type" : "type-14",
   "unique_id" : "_ZTSN7android8hardware5radio4V1_015RestrictedStateE"
  },
  {
   "alignment" : 4,
   "enum_fields" :
   [
    {
     "enum_field_value" : 0,
     "name" : "android::hardware::radio::V1_0::SapApduType::APDU"
    },
    {
     "enum_field_value" : 1,
     "name" : "android::hardware::radio::V1_0::SapApduType::APDU7816"
    }
   ],
   "linker_set_key" : "android::hardware::radio::V1_0::SapApduType",
   "name" : "android::hardware::radio::V1_0::SapApduType",
   "referenced_type" : "type-1063",
   "self_type" : "type-1063",
   "size" : 4,
   "source_file" : "/out/soong/.intermediates/hardware/interfaces/radio/1.0/android.hardware.radio@1.0_genc++_headers/gen/android/hardware/radio/1.0/types.h",
   "underlying_type" : "type-14",
   "unique_id" : "_ZTSN7android8hardware5radio4V1_011SapApduTypeE"
  },
  {
   "alignment" : 4,
   "enum_fields" :
   [
    {
     "enum_field_value" : 0,
     "name" : "android::hardware::radio::V1_0::SapConnectRsp::SUCCESS"
    },
    {
     "enum_field_value" : 1,
     "name" : "android::hardware::radio::V1_0::SapConnectRsp::CONNECT_FAILURE"
    },
    {
     "enum_field_value" : 2,
     "name" : "android::hardware::radio::V1_0::SapConnectRsp::MSG_SIZE_TOO_LARGE"
    },
    {
     "enum_field_value" : 3,
     "name" : "android::hardware::radio::V1_0::SapConnectRsp::MSG_SIZE_TOO_SMALL"
    },
    {
     "enum_field_value" : 4,
     "name" : "android::hardware::radio::V1_0::SapConnectRsp::CONNECT_OK_CALL_ONGOING"
    }
   ],
   "linker_set_key" : "android::hardware::radio::V1_0::SapConnectRsp",
   "name" : "android::hardware::radio::V1_0::SapConnectRsp",
   "referenced_type" : "type-1053",
   "self_type" : "type-1053",
   "size" : 4,
   "source_file" : "/out/soong/.intermediates/hardware/interfaces/radio/1.0/android.hardware.radio@1.0_genc++_headers/gen/android/hardware/radio/1.0/types.h",
   "underlying_type" : "type-14",
   "unique_id" : "_ZTSN7android8hardware5radio4V1_013SapConnectRspE"
  },
  {
   "alignment" : 4,
   "enum_fields" :
   [
    {
     "enum_field_value" : 0,
     "name" : "android::hardware::radio::V1_0::SapDisconnectType::GRACEFUL"
    },
    {
     "enum_field_value" : 1,
     "name" : "android::hardware::radio::V1_0::SapDisconnectType::IMMEDIATE"
    }
   ],
   "linker_set_key" : "android::hardware::radio::V1_0::SapDisconnectType",
   "name" : "android::hardware::radio::V1_0::SapDisconnectType",
   "referenced_type" : "type-1061",
   "self_type" : "type-1061",
   "size" : 4,
   "source_file" : "/out/soong/.intermediates/hardware/interfaces/radio/1.0/android.hardware.radio@1.0_genc++_headers/gen/android/hardware/radio/1.0/types.h",
   "underlying_type" : "type-14",
   "unique_id" : "_ZTSN7android8hardware5radio4V1_017SapDisconnectTypeE"
  },
  {
   "alignment" : 4,
   "enum_fields" :
   [
    {
     "enum_field_value" : 0,
     "name" : "android::hardware::radio::V1_0::SapResultCode::SUCCESS"
    },
    {
     "enum_field_value" : 1,
     "name" : "android::hardware::radio::V1_0::SapResultCode::GENERIC_FAILURE"
    },
    {
     "enum_field_value" : 2,
     "name" : "android::hardware::radio::V1_0::SapResultCode::CARD_NOT_ACCESSSIBLE"
    },
    {
     "enum_field_value" : 3,
     "name" : "android::hardware::radio::V1_0::SapResultCode::CARD_ALREADY_POWERED_OFF"
    },
    {
     "enum_field_value" : 4,
     "name" : "android::hardware::radio::V1_0::SapResultCode::CARD_REMOVED"
    },
    {
     "enum_field_value" : 5,
     "name" : "android::hardware::radio::V1_0::SapResultCode::CARD_ALREADY_POWERED_ON"
    },
    {
     "enum_field_value" : 6,
     "name" : "android::hardware::radio::V1_0::SapResultCode::DATA_NOT_AVAILABLE"
    },
    {
     "enum_field_value" : 7,
     "name" : "android::hardware::radio::V1_0::SapResultCode::NOT_SUPPORTED"
    }
   ],
   "linker_set_key" : "android::hardware::radio::V1_0::SapResultCode",
   "name" : "android::hardware::radio::V1_0::SapResultCode",
   "referenced_type" : "type-1071",
   "self_type" : "type-1071",
   "size" : 4,
   "source_file" : "/out/soong/.intermediates/hardware/interfaces/radio/1.0/android.hardware.radio@1.0_genc++_headers/gen/android/hardware/radio/1.0/types.h",
   "underlying_type" : "type-14",
   "unique_id" : "_ZTSN7android8hardware5radio4V1_013SapResultCodeE"
  },
  {
   "alignment" : 4,
   "enum_fields" :
   [
    {
     "enum_field_value" : 0,
     "name" : "android::hardware::radio::V1_0::SapStatus::UNKNOWN_ERROR"
    },
    {
     "enum_field_value" : 1,
     "name" : "android::hardware::radio::V1_0::SapStatus::CARD_RESET"
    },
    {
     "enum_field_value" : 2,
     "name" : "android::hardware::radio::V1_0::SapStatus::CARD_NOT_ACCESSIBLE"
    },
    {
     "enum_field_value" : 3,
     "name" : "android::hardware::radio::V1_0::SapStatus::CARD_REMOVED"
    },
    {
     "enum_field_value" : 4,
     "name" : "android::hardware::radio::V1_0::SapStatus::CARD_INSERTED"
    },
    {
     "enum_field_value" : 5,
     "name" : "android::hardware::radio::V1_0::SapStatus::RECOVERED"
    }
   ],
   "linker_set_key" : "android::hardware::radio::V1_0::SapStatus",
   "name" : "android::hardware::radio::V1_0::SapStatus",
   "referenced_type" : "type-1073",
   "self_type" : "type-1073",
   "size" : 4,
   "source_file" : "/out/soong/.intermediates/hardware/interfaces/radio/1.0/android.hardware.radio@1.0_genc++_headers/gen/android/hardware/radio/1.0/types.h",
   "underlying_type" : "type-14",
   "unique_id" : "_ZTSN7android8hardware5radio4V1_09SapStatusE"
  },
  {
   "alignment" : 4,
   "enum_fields" :
   [
    {
     "enum_field_value" : 0,
     "name" : "android::hardware::radio::V1_0::SapTransferProtocol::T0"
    },
    {
     "enum_field_value" : 1,
     "name" : "android::hardware::radio::V1_0::SapTransferProtocol::T1"
    }
   ],
   "linker_set_key" : "android::hardware::radio::V1_0::SapTransferProtocol",
   "name" : "android::hardware::radio::V1_0::SapTransferProtocol",
   "referenced_type" : "type-1079",
   "self_type" : "type-1079",
   "size" : 4,
   "source_file" : "/out/soong/.intermediates/hardware/interfaces/radio/1.0/android.hardware.radio@1.0_genc++_headers/gen/android/hardware/radio/1.0/types.h",
   "underlying_type" : "type-14",
   "unique_id" : "_ZTSN7android8hardware5radio4V1_019SapTransferProtocolE"
  },
  {
   "alignment" : 4,
   "enum_fields" :
   [
    {
     "enum_field_value" : 0,
     "name" : "android::hardware::radio::V1_0::SimRefreshType::SIM_FILE_UPDATE"
    },
    {
     "enum_field_value" : 1,
     "name" : "android::hardware::radio::V1_0::SimRefreshType::SIM_INIT"
    },
    {
     "enum_field_value" : 2,
     "name" : "android::hardware::radio::V1_0::SimRefreshType::SIM_RESET"
    }
   ],
   "linker_set_key" : "android::hardware::radio::V1_0::SimRefreshType",
   "name" : "android::hardware::radio::V1_0::SimRefreshType",
   "referenced_type" : "type-698",
   "self_type" : "type-698",
   "size" : 4,
   "source_file" : "/out/soong/.intermediates/hardware/interfaces/radio/1.0/android.hardware.radio@1.0_genc++_headers/gen/android/hardware/radio/1.0/types.h",
   "underlying_type" : "type-14",
   "unique_id" : "_ZTSN7android8hardware5radio4V1_014SimRefreshTypeE"
  },
  {
   "alignment" : 4,
   "enum_fields" :
   [
    {
     "enum_field_value" : 211,
     "name" : "android::hardware::radio::V1_0::SmsAcknowledgeFailCause::MEMORY_CAPACITY_EXCEEDED"
    },
    {
     "enum_field_value" : 255,
     "name" : "android::hardware::radio::V1_0::SmsAcknowledgeFailCause::UNSPECIFIED_ERROR"
    }
   ],
   "linker_set_key" : "android::hardware::radio::V1_0::SmsAcknowledgeFailCause",
   "name" : "android::hardware::radio::V1_0::SmsAcknowledgeFailCause",
   "referenced_type" : "type-1117",
   "self_type" : "type-1117",
   "size" : 4,
   "source_file" : "/out/soong/.intermediates/hardware/interfaces/radio/1.0/android.hardware.radio@1.0_genc++_headers/gen/android/hardware/radio/1.0/types.h",
   "underlying_type" : "type-14",
   "unique_id" : "_ZTSN7android8hardware5radio4V1_023SmsAcknowledgeFailCauseE"
  },
  {
   "alignment" : 4,
   "enum_fields" :
   [
    {
     "enum_field_value" : 0,
     "name" : "android::hardware::radio::V1_0::SmsWriteArgsStatus::REC_UNREAD"
    },
    {
     "enum_field_value" : 1,
     "name" : "android::hardware::radio::V1_0::SmsWriteArgsStatus::REC_READ"
    },
    {
     "enum_field_value" : 2,
     "name" : "android::hardware::radio::V1_0::SmsWriteArgsStatus::STO_UNSENT"
    },
    {
     "enum_field_value" : 3,
     "name" : "android::hardware::radio::V1_0::SmsWriteArgsStatus::STO_SENT"
    }
   ],
   "linker_set_key" : "android::hardware::radio::V1_0::SmsWriteArgsStatus",
   "name" : "android::hardware::radio::V1_0::SmsWriteArgsStatus",
   "referenced_type" : "type-1133",
   "self_type" : "type-1133",
   "size" : 4,
   "source_file" : "/out/soong/.intermediates/hardware/interfaces/radio/1.0/android.hardware.radio@1.0_genc++_headers/gen/android/hardware/radio/1.0/types.h",
   "underlying_type" : "type-14",
   "unique_id" : "_ZTSN7android8hardware5radio4V1_018SmsWriteArgsStatusE"
  },
  {
   "alignment" : 4,
   "enum_fields" :
   [
    {
     "enum_field_value" : 0,
     "name" : "android::hardware::radio::V1_0::SrvccState::HANDOVER_STARTED"
    },
    {
     "enum_field_value" : 1,
     "name" : "android::hardware::radio::V1_0::SrvccState::HANDOVER_COMPLETED"
    },
    {
     "enum_field_value" : 2,
     "name" : "android::hardware::radio::V1_0::SrvccState::HANDOVER_FAILED"
    },
    {
     "enum_field_value" : 3,
     "name" : "android::hardware::radio::V1_0::SrvccState::HANDOVER_CANCELED"
    }
   ],
   "linker_set_key" : "android::hardware::radio::V1_0::SrvccState",
   "name" : "android::hardware::radio::V1_0::SrvccState",
   "referenced_type" : "type-1276",
   "self_type" : "type-1276",
   "size" : 4,
   "source_file" : "/out/soong/.intermediates/hardware/interfaces/radio/1.0/android.hardware.radio@1.0_genc++_headers/gen/android/hardware/radio/1.0/types.h",
   "underlying_type" : "type-14",
   "unique_id" : "_ZTSN7android8hardware5radio4V1_010SrvccStateE"
  },
  {
   "alignment" : 4,
   "enum_fields" :
   [
    {
     "enum_field_value" : 0,
     "name" : "android::hardware::radio::V1_0::SsRequestType::ACTIVATION"
    },
    {
     "enum_field_value" : 1,
     "name" : "android::hardware::radio::V1_0::SsRequestType::DEACTIVATION"
    },
    {
     "enum_field_value" : 2,
     "name" : "android::hardware::radio::V1_0::SsRequestType::INTERROGATION"
    },
    {
     "enum_field_value" : 3,
     "name" : "android::hardware::radio::V1_0::SsRequestType::REGISTRATION"
    },
    {
     "enum_field_value" : 4,
     "name" : "android::hardware::radio::V1_0::SsRequestType::ERASURE"
    }
   ],
   "linker_set_key" : "android::hardware::radio::V1_0::SsRequestType",
   "name" : "android::hardware::radio::V1_0::SsRequestType",
   "referenced_type" : "type-845",
   "self_type" : "type-845",
   "size" : 4,
   "source_file" : "/out/soong/.intermediates/hardware/interfaces/radio/1.0/android.hardware.radio@1.0_genc++_headers/gen/android/hardware/radio/1.0/types.h",
   "underlying_type" : "type-14",
   "unique_id" : "_ZTSN7android8hardware5radio4V1_013SsRequestTypeE"
  },
  {
   "alignment" : 4,
   "enum_fields" :
   [
    {
     "enum_field_value" : 0,
     "name" : "android::hardware::radio::V1_0::SsServiceType::CFU"
    },
    {
     "enum_field_value" : 1,
     "name" : "android::hardware::radio::V1_0::SsServiceType::CF_BUSY"
    },
    {
     "enum_field_value" : 2,
     "name" : "android::hardware::radio::V1_0::SsServiceType::CF_NO_REPLY"
    },
    {
     "enum_field_value" : 3,
     "name" : "android::hardware::radio::V1_0::SsServiceType::CF_NOT_REACHABLE"
    },
    {
     "enum_field_value" : 4,
     "name" : "android::hardware::radio::V1_0::SsServiceType::CF_ALL"
    },
    {
     "enum_field_value" : 5,
     "name" : "android::hardware::radio::V1_0::SsServiceType::CF_ALL_CONDITIONAL"
    },
    {
     "enum_field_value" : 6,
     "name" : "android::hardware::radio::V1_0::SsServiceType::CLIP"
    },
    {
     "enum_field_value" : 7,
     "name" : "android::hardware::radio::V1_0::SsServiceType::CLIR"
    },
    {
     "enum_field_value" : 8,
     "name" : "android::hardware::radio::V1_0::SsServiceType::COLP"
    },
    {
     "enum_field_value" : 9,
     "name" : "android::hardware::radio::V1_0::SsServiceType::COLR"
    },
    {
     "enum_field_value" : 10,
     "name" : "android::hardware::radio::V1_0::SsServiceType::WAIT"
    },
    {
     "enum_field_value" : 11,
     "name" : "android::hardware::radio::V1_0::SsServiceType::BAOC"
    },
    {
     "enum_field_value" : 12,
     "name" : "android::hardware::radio::V1_0::SsServiceType::BAOIC"
    },
    {
     "enum_field_value" : 13,
     "name" : "android::hardware::radio::V1_0::SsServiceType::BAOIC_EXC_HOME"
    },
    {
     "enum_field_value" : 14,
     "name" : "android::hardware::radio::V1_0::SsServiceType::BAIC"
    },
    {
     "enum_field_value" : 15,
     "name" : "android::hardware::radio::V1_0::SsServiceType::BAIC_ROAMING"
    },
    {
     "enum_field_value" : 16,
     "name" : "android::hardware::radio::V1_0::SsServiceType::ALL_BARRING"
    },
    {
     "enum_field_value" : 17,
     "name" : "android::hardware::radio::V1_0::SsServiceType::OUTGOING_BARRING"
    },
    {
     "enum_field_value" : 18,
     "name" : "android::hardware::radio::V1_0::SsServiceType::INCOMING_BARRING"
    }
   ],
   "linker_set_key" : "android::hardware::radio::V1_0::SsServiceType",
   "name" : "android::hardware::radio::V1_0::SsServiceType",
   "referenced_type" : "type-844",
   "self_type" : "type-844",
   "size" : 4,
   "source_file" : "/out/soong/.intermediates/hardware/interfaces/radio/1.0/android.hardware.radio@1.0_genc++_headers/gen/android/hardware/radio/1.0/types.h",
   "underlying_type" : "type-14",
   "unique_id" : "_ZTSN7android8hardware5radio4V1_013SsServiceTypeE"
  },
  {
   "alignment" : 4,
   "enum_fields" :
   [
    {
     "enum_field_value" : 0,
     "name" : "android::hardware::radio::V1_0::SsTeleserviceType::ALL_TELE_AND_BEARER_SERVICES"
    },
    {
     "enum_field_value" : 1,
     "name" : "android::hardware::radio::V1_0::SsTeleserviceType::ALL_TELESEVICES"
    },
    {
     "enum_field_value" : 2,
     "name" : "android::hardware::radio::V1_0::SsTeleserviceType::TELEPHONY"
    },
    {
     "enum_field_value" : 3,
     "name" : "android::hardware::radio::V1_0::SsTeleserviceType::ALL_DATA_TELESERVICES"
    },
    {
     "enum_field_value" : 4,
     "name" : "android::hardware::radio::V1_0::SsTeleserviceType::SMS_SERVICES"
    },
    {
     "enum_field_value" : 5,
     "name" : "android::hardware::radio::V1_0::SsTeleserviceType::ALL_TELESERVICES_EXCEPT_SMS"
    }
   ],
   "linker_set_key" : "android::hardware::radio::V1_0::SsTeleserviceType",
   "name" : "android::hardware::radio::V1_0::SsTeleserviceType",
   "referenced_type" : "type-846",
   "self_type" : "type-846",
   "size" : 4,
   "source_file" : "/out/soong/.intermediates/hardware/interfaces/radio/1.0/android.hardware.radio@1.0_genc++_headers/gen/android/hardware/radio/1.0/types.h",
   "underlying_type" : "type-14",
   "unique_id" : "_ZTSN7android8hardware5radio4V1_017SsTeleserviceTypeE"
  },
  {
   "alignment" : 4,
   "enum_fields" :
   [
    {
     "enum_field_value" : 0,
     "name" : "android::hardware::radio::V1_0::SubscriptionType::SUBSCRIPTION_1"
    },
    {
     "enum_field_value" : 1,
     "name" : "android::hardware::radio::V1_0::SubscriptionType::SUBSCRIPTION_2"
    },
    {
     "enum_field_value" : 2,
     "name" : "android::hardware::radio::V1_0::SubscriptionType::SUBSCRIPTION_3"
    }
   ],
   "linker_set_key" : "android::hardware::radio::V1_0::SubscriptionType",
   "name" : "android::hardware::radio::V1_0::SubscriptionType",
   "referenced_type" : "type-460",
   "self_type" : "type-460",
   "size" : 4,
   "source_file" : "/out/soong/.intermediates/hardware/interfaces/radio/1.0/android.hardware.radio@1.0_genc++_headers/gen/android/hardware/radio/1.0/types.h",
   "underlying_type" : "type-14",
   "unique_id" : "_ZTSN7android8hardware5radio4V1_016SubscriptionTypeE"
  },
  {
   "alignment" : 4,
   "enum_fields" :
   [
    {
     "enum_field_value" : 0,
     "name" : "android::hardware::radio::V1_0::SuppServiceClass::NONE"
    },
    {
     "enum_field_value" : 1,
     "name" : "android::hardware::radio::V1_0::SuppServiceClass::VOICE"
    },
    {
     "enum_field_value" : 2,
     "name" : "android::hardware::radio::V1_0::SuppServiceClass::DATA"
    },
    {
     "enum_field_value" : 4,
     "name" : "android::hardware::radio::V1_0::SuppServiceClass::FAX"
    },
    {
     "enum_field_value" : 8,
     "name" : "android::hardware::radio::V1_0::SuppServiceClass::SMS"
    },
    {
     "enum_field_value" : 16,
     "name" : "android::hardware::radio::V1_0::SuppServiceClass::DATA_SYNC"
    },
    {
     "enum_field_value" : 32,
     "name" : "android::hardware::radio::V1_0::SuppServiceClass::DATA_ASYNC"
    },
    {
     "enum_field_value" : 64,
     "name" : "android::hardware::radio::V1_0::SuppServiceClass::PACKET"
    },
    {
     "enum_field_value" : 128,
     "name" : "android::hardware::radio::V1_0::SuppServiceClass::PAD"
    },
    {
     "enum_field_value" : 128,
     "name" : "android::hardware::radio::V1_0::SuppServiceClass::MAX"
    }
   ],
   "linker_set_key" : "android::hardware::radio::V1_0::SuppServiceClass",
   "name" : "android::hardware::radio::V1_0::SuppServiceClass",
   "referenced_type" : "type-1316",
   "self_type" : "type-1316",
   "size" : 4,
   "source_file" : "/out/soong/.intermediates/hardware/interfaces/radio/1.0/android.hardware.radio@1.0_genc++_headers/gen/android/hardware/radio/1.0/types.h",
   "underlying_type" : "type-14",
   "unique_id" : "_ZTSN7android8hardware5radio4V1_016SuppServiceClassE"
  },
  {
   "alignment" : 4,
   "enum_fields" :
   [
    {
     "enum_field_value" : 0,
     "name" : "android::hardware::radio::V1_0::TimeStampType::UNKNOWN"
    },
    {
     "enum_field_value" : 1,
     "name" : "android::hardware::radio::V1_0::TimeStampType::ANTENNA"
    },
    {
     "enum_field_value" : 2,
     "name" : "android::hardware::radio::V1_0::TimeStampType::MODEM"
    },
    {
     "enum_field_value" : 3,
     "name" : "android::hardware::radio::V1_0::TimeStampType::OEM_RIL"
    },
    {
     "enum_field_value" : 4,
     "name" : "android::hardware::radio::V1_0::TimeStampType::JAVA_RIL"
    }
   ],
   "linker_set_key" : "android::hardware::radio::V1_0::TimeStampType",
   "name" : "android::hardware::radio::V1_0::TimeStampType",
   "referenced_type" : "type-1264",
   "self_type" : "type-1264",
   "size" : 4,
   "source_file" : "/out/soong/.intermediates/hardware/interfaces/radio/1.0/android.hardware.radio@1.0_genc++_headers/gen/android/hardware/radio/1.0/types.h",
   "underlying_type" : "type-14",
   "unique_id" : "_ZTSN7android8hardware5radio4V1_013TimeStampTypeE"
  },
  {
   "alignment" : 4,
   "enum_fields" :
   [
    {
     "enum_field_value" : 0,
     "name" : "android::hardware::radio::V1_0::TtyMode::OFF"
    },
    {
     "enum_field_value" : 1,
     "name" : "android::hardware::radio::V1_0::TtyMode::FULL"
    },
    {
     "enum_field_value" : 2,
     "name" : "android::hardware::radio::V1_0::TtyMode::HCO"
    },
    {
     "enum_field_value" : 3,
     "name" : "android::hardware::radio::V1_0::TtyMode::VCO"
    }
   ],
   "linker_set_key" : "android::hardware::radio::V1_0::TtyMode",
   "name" : "android::hardware::radio::V1_0::TtyMode",
   "referenced_type" : "type-1234",
   "self_type" : "type-1234",
   "size" : 4,
   "source_file" : "/out/soong/.intermediates/hardware/interfaces/radio/1.0/android.hardware.radio@1.0_genc++_headers/gen/android/hardware/radio/1.0/types.h",
   "underlying_type" : "type-14",
   "unique_id" : "_ZTSN7android8hardware5radio4V1_07TtyModeE"
  },
  {
   "alignment" : 4,
   "enum_fields" :
   [
    {
     "enum_field_value" : 0,
     "name" : "android::hardware::radio::V1_0::UiccSubActStatus::DEACTIVATE"
    },
    {
     "enum_field_value" : 1,
     "name" : "android::hardware::radio::V1_0::UiccSubActStatus::ACTIVATE"
    }
   ],
   "linker_set_key" : "android::hardware::radio::V1_0::UiccSubActStatus",
   "name" : "android::hardware::radio::V1_0::UiccSubActStatus",
   "referenced_type" : "type-461",
   "self_type" : "type-461",
   "size" : 4,
   "source_file" : "/out/soong/.intermediates/hardware/interfaces/radio/1.0/android.hardware.radio@1.0_genc++_headers/gen/android/hardware/radio/1.0/types.h",
   "underlying_type" : "type-14",
   "unique_id" : "_ZTSN7android8hardware5radio4V1_016UiccSubActStatusE"
  },
  {
   "alignment" : 4,
   "enum_fields" :
   [
    {
     "enum_field_value" : 0,
     "name" : "android::hardware::radio::V1_0::UssdModeType::NOTIFY"
    },
    {
     "enum_field_value" : 1,
     "name" : "android::hardware::radio::V1_0::UssdModeType::REQUEST"
    },
    {
     "enum_field_value" : 2,
     "name" : "android::hardware::radio::V1_0::UssdModeType::NW_RELEASE"
    },
    {
     "enum_field_value" : 3,
     "name" : "android::hardware::radio::V1_0::UssdModeType::LOCAL_CLIENT"
    },
    {
     "enum_field_value" : 4,
     "name" : "android::hardware::radio::V1_0::UssdModeType::NOT_SUPPORTED"
    },
    {
     "enum_field_value" : 5,
     "name" : "android::hardware::radio::V1_0::UssdModeType::NW_TIMEOUT"
    }
   ],
   "linker_set_key" : "android::hardware::radio::V1_0::UssdModeType",
   "name" : "android::hardware::radio::V1_0::UssdModeType",
   "referenced_type" : "type-1272",
   "self_type" : "type-1272",
   "size" : 4,
   "source_file" : "/out/soong/.intermediates/hardware/interfaces/radio/1.0/android.hardware.radio@1.0_genc++_headers/gen/android/hardware/radio/1.0/types.h",
   "underlying_type" : "type-14",
   "unique_id" : "_ZTSN7android8hardware5radio4V1_012UssdModeTypeE"
  },
  {
   "alignment" : 4,
   "enum_fields" :
   [
    {
     "enum_field_value" : 0,
     "name" : "android::hardware::radio::V1_0::UusDcs::USP"
    },
    {
     "enum_field_value" : 1,
     "name" : "android::hardware::radio::V1_0::UusDcs::OSIHLP"
    },
    {
     "enum_field_value" : 2,
     "name" : "android::hardware::radio::V1_0::UusDcs::X244"
    },
    {
     "enum_field_value" : 3,
     "name" : "android::hardware::radio::V1_0::UusDcs::RMCF"
    },
    {
     "enum_field_value" : 4,
     "name" : "android::hardware::radio::V1_0::UusDcs::IA5C"
    }
   ],
   "linker_set_key" : "android::hardware::radio::V1_0::UusDcs",
   "name" : "android::hardware::radio::V1_0::UusDcs",
   "referenced_type" : "type-131",
   "self_type" : "type-131",
   "size" : 4,
   "source_file" : "/out/soong/.intermediates/hardware/interfaces/radio/1.0/android.hardware.radio@1.0_genc++_headers/gen/android/hardware/radio/1.0/types.h",
   "underlying_type" : "type-14",
   "unique_id" : "_ZTSN7android8hardware5radio4V1_06UusDcsE"
  },
  {
   "alignment" : 4,
   "enum_fields" :
   [
    {
     "enum_field_value" : 0,
     "name" : "android::hardware::radio::V1_0::UusType::TYPE1_IMPLICIT"
    },
    {
     "enum_field_value" : 1,
     "name" : "android::hardware::radio::V1_0::UusType::TYPE1_REQUIRED"
    },
    {
     "enum_field_value" : 2,
     "name" : "android::hardware::radio::V1_0::UusType::TYPE1_NOT_REQUIRED"
    },
    {
     "enum_field_value" : 3,
     "name" : "android::hardware::radio::V1_0::UusType::TYPE2_REQUIRED"
    },
    {
     "enum_field_value" : 4,
     "name" : "android::hardware::radio::V1_0::UusType::TYPE2_NOT_REQUIRED"
    },
    {
     "enum_field_value" : 5,
     "name" : "android::hardware::radio::V1_0::UusType::TYPE3_REQUIRED"
    },
    {
     "enum_field_value" : 6,
     "name" : "android::hardware::radio::V1_0::UusType::TYPE3_NOT_REQUIRED"
    }
   ],
   "linker_set_key" : "android::hardware::radio::V1_0::UusType",
   "name" : "android::hardware::radio::V1_0::UusType",
   "referenced_type" : "type-130",
   "self_type" : "type-130",
   "size" : 4,
   "source_file" : "/out/soong/.intermediates/hardware/interfaces/radio/1.0/android.hardware.radio@1.0_genc++_headers/gen/android/hardware/radio/1.0/types.h",
   "underlying_type" : "type-14",
   "unique_id" : "_ZTSN7android8hardware5radio4V1_07UusTypeE"
  },
  {
   "alignment" : 4,
   "enum_fields" :
   [
    {
     "enum_field_value" : 0,
     "name" : "android::hardware::radio::config::V1_0::SlotState::INACTIVE"
    },
    {
     "enum_field_value" : 1,
     "name" : "android::hardware::radio::config::V1_0::SlotState::ACTIVE"
    }
   ],
   "linker_set_key" : "android::hardware::radio::config::V1_0::SlotState",
   "name" : "android::hardware::radio::config::V1_0::SlotState",
   "referenced_type" : "type-796",
   "self_type" : "type-796",
   "size" : 4,
   "source_file" : "/out/soong/.intermediates/hardware/interfaces/radio/config/1.0/android.hardware.radio.config@1.0_genc++_headers/gen/android/hardware/radio/config/1.0/types.h",
   "underlying_type" : "type-14",
   "unique_id" : "_ZTSN7android8hardware5radio6config4V1_09SlotStateE"
  },
  {
   "alignment" : 4,
   "enum_fields" :
   [
    {
     "enum_field_value" : 0,
     "name" : "android::hidl::base::V1_0::DebugInfo::Architecture::UNKNOWN"
    },
    {
     "enum_field_value" : 1,
     "name" : "android::hidl::base::V1_0::DebugInfo::Architecture::IS_64BIT"
    },
    {
     "enum_field_value" : 2,
     "name" : "android::hidl::base::V1_0::DebugInfo::Architecture::IS_32BIT"
    }
   ],
   "linker_set_key" : "android::hidl::base::V1_0::DebugInfo::Architecture",
   "name" : "android::hidl::base::V1_0::DebugInfo::Architecture",
   "referenced_type" : "type-403",
   "self_type" : "type-403",
   "size" : 4,
   "source_file" : "/out/soong/.intermediates/system/libhidl/transport/base/1.0/android.hidl.base@1.0_genc++_headers/gen/android/hidl/base/1.0/types.h",
   "underlying_type" : "type-14",
   "unique_id" : "_ZTSN7android4hidl4base4V1_09DebugInfo12ArchitectureE"
  },
  {
   "alignment" : 4,
   "enum_fields" :
   [
    {
     "enum_field_value" : -1,
     "name" : "android::hidl::manager::V1_0::IServiceManager::PidConstant::NO_PID"
    }
   ],
   "linker_set_key" : "android::hidl::manager::V1_0::IServiceManager::PidConstant",
   "name" : "android::hidl::manager::V1_0::IServiceManager::PidConstant",
   "referenced_type" : "type-582",
   "self_type" : "type-582",
   "size" : 4,
   "source_file" : "/out/soong/.intermediates/system/libhidl/transport/manager/1.0/android.hidl.manager@1.0_genc++_headers/gen/android/hidl/manager/1.0/IServiceManager.h",
   "underlying_type" : "type-14",
   "unique_id" : "_ZTSN7android4hidl7manager4V1_015IServiceManager11PidConstantE"
  },
  {
   "alignment" : 1,
   "enum_fields" :
   [
    {
     "enum_field_value" : 0,
     "name" : "android::hidl::manager::V1_0::IServiceManager::Transport::EMPTY"
    },
    {
     "enum_field_value" : 1,
     "name" : "android::hidl::manager::V1_0::IServiceManager::Transport::HWBINDER"
    },
    {
     "enum_field_value" : 2,
     "name" : "android::hidl::manager::V1_0::IServiceManager::Transport::PASSTHROUGH"
    }
   ],
   "linker_set_key" : "android::hidl::manager::V1_0::IServiceManager::Transport",
   "name" : "android::hidl::manager::V1_0::IServiceManager::Transport",
   "referenced_type" : "type-581",
   "self_type" : "type-581",
   "size" : 1,
   "source_file" : "/out/soong/.intermediates/system/libhidl/transport/manager/1.0/android.hidl.manager@1.0_genc++_headers/gen/android/hidl/manager/1.0/IServiceManager.h",
   "underlying_type" : "type-85",
   "unique_id" : "_ZTSN7android4hidl7manager4V1_015IServiceManager9TransportE"
  },
  {
   "alignment" : 4,
   "enum_fields" :
   [
    {
     "enum_field_value" : 0,
     "name" : "ANDROID_LOG_UNKNOWN"
    },
    {
     "enum_field_value" : 1,
     "name" : "ANDROID_LOG_DEFAULT"
    },
    {
     "enum_field_value" : 2,
     "name" : "ANDROID_LOG_VERBOSE"
    },
    {
     "enum_field_value" : 3,
     "name" : "ANDROID_LOG_DEBUG"
    },
    {
     "enum_field_value" : 4,
     "name" : "ANDROID_LOG_INFO"
    },
    {
     "enum_field_value" : 5,
     "name" : "ANDROID_LOG_WARN"
    },
    {
     "enum_field_value" : 6,
     "name" : "ANDROID_LOG_ERROR"
    },
    {
     "enum_field_value" : 7,
     "name" : "ANDROID_LOG_FATAL"
    },
    {
     "enum_field_value" : 8,
     "name" : "ANDROID_LOG_SILENT"
    }
   ],
   "linker_set_key" : "android_LogPriority",
   "name" : "android_LogPriority",
   "referenced_type" : "type-1",
   "self_type" : "type-1",
   "size" : 4,
   "source_file" : "/system/core/liblog/include/android/log.h",
   "underlying_type" : "type-2",
   "unique_id" : "android_LogPriority"
  },
  {
   "alignment" : 4,
   "enum_fields" :
   [
    {
     "enum_field_value" : 0,
     "name" : "HAL_COLOR_MODE_NATIVE"
    },
    {
     "enum_field_value" : 1,
     "name" : "HAL_COLOR_MODE_STANDARD_BT601_625"
    },
    {
     "enum_field_value" : 2,
     "name" : "HAL_COLOR_MODE_STANDARD_BT601_625_UNADJUSTED"
    },
    {
     "enum_field_value" : 3,
     "name" : "HAL_COLOR_MODE_STANDARD_BT601_525"
    },
    {
     "enum_field_value" : 4,
     "name" : "HAL_COLOR_MODE_STANDARD_BT601_525_UNADJUSTED"
    },
    {
     "enum_field_value" : 5,
     "name" : "HAL_COLOR_MODE_STANDARD_BT709"
    },
    {
     "enum_field_value" : 6,
     "name" : "HAL_COLOR_MODE_DCI_P3"
    },
    {
     "enum_field_value" : 7,
     "name" : "HAL_COLOR_MODE_SRGB"
    },
    {
     "enum_field_value" : 8,
     "name" : "HAL_COLOR_MODE_ADOBE_RGB"
    },
    {
     "enum_field_value" : 9,
     "name" : "HAL_COLOR_MODE_DISPLAY_P3"
    }
   ],
   "linker_set_key" : "android_color_mode_t",
   "name" : "android_color_mode_t",
   "referenced_type" : "type-528",
   "self_type" : "type-528",
   "size" : 4,
   "source_file" : "/system/core/libsystem/include/system/graphics-base-v1.0.h",
   "underlying_type" : "type-2",
   "unique_id" : "android_color_mode_t"
  },
  {
   "alignment" : 4,
   "enum_fields" :
   [
    {
     "enum_field_value" : 10,
     "name" : "HAL_COLOR_MODE_BT2020"
    },
    {
     "enum_field_value" : 11,
     "name" : "HAL_COLOR_MODE_BT2100_PQ"
    },
    {
     "enum_field_value" : 12,
     "name" : "HAL_COLOR_MODE_BT2100_HLG"
    }
   ],
   "linker_set_key" : "android_color_mode_v1_1_t",
   "name" : "android_color_mode_v1_1_t",
   "referenced_type" : "type-533",
   "self_type" : "type-533",
   "size" : 4,
   "source_file" : "/system/core/libsystem/include/system/graphics-base-v1.1.h",
   "underlying_type" : "type-2",
   "unique_id" : "android_color_mode_v1_1_t"
  },
  {
   "alignment" : 4,
   "enum_fields" :
   [
    {
     "enum_field_value" : 0,
     "name" : "HAL_COLOR_TRANSFORM_IDENTITY"
    },
    {
     "enum_field_value" : 1,
     "name" : "HAL_COLOR_TRANSFORM_ARBITRARY_MATRIX"
    },
    {
     "enum_field_value" : 2,
     "name" : "HAL_COLOR_TRANSFORM_VALUE_INVERSE"
    },
    {
     "enum_field_value" : 3,
     "name" : "HAL_COLOR_TRANSFORM_GRAYSCALE"
    },
    {
     "enum_field_value" : 4,
     "name" : "HAL_COLOR_TRANSFORM_CORRECT_PROTANOPIA"
    },
    {
     "enum_field_value" : 5,
     "name" : "HAL_COLOR_TRANSFORM_CORRECT_DEUTERANOPIA"
    },
    {
     "enum_field_value" : 6,
     "name" : "HAL_COLOR_TRANSFORM_CORRECT_TRITANOPIA"
    }
   ],
   "linker_set_key" : "android_color_transform_t",
   "name" : "android_color_transform_t",
   "referenced_type" : "type-529",
   "self_type" : "type-529",
   "size" : 4,
   "source_file" : "/system/core/libsystem/include/system/graphics-base-v1.0.h",
   "underlying_type" : "type-2",
   "unique_id" : "android_color_transform_t"
  },
  {
   "alignment" : 4,
   "enum_fields" :
   [
    {
     "enum_field_value" : 0,
     "name" : "HAL_DATASPACE_UNKNOWN"
    },
    {
     "enum_field_value" : 1,
     "name" : "HAL_DATASPACE_ARBITRARY"
    },
    {
     "enum_field_value" : 16,
     "name" : "HAL_DATASPACE_STANDARD_SHIFT"
    },
    {
     "enum_field_value" : 4128768,
     "name" : "HAL_DATASPACE_STANDARD_MASK"
    },
    {
     "enum_field_value" : 0,
     "name" : "HAL_DATASPACE_STANDARD_UNSPECIFIED"
    },
    {
     "enum_field_value" : 65536,
     "name" : "HAL_DATASPACE_STANDARD_BT709"
    },
    {
     "enum_field_value" : 131072,
     "name" : "HAL_DATASPACE_STANDARD_BT601_625"
    },
    {
     "enum_field_value" : 196608,
     "name" : "HAL_DATASPACE_STANDARD_BT601_625_UNADJUSTED"
    },
    {
     "enum_field_value" : 262144,
     "name" : "HAL_DATASPACE_STANDARD_BT601_525"
    },
    {
     "enum_field_value" : 327680,
     "name" : "HAL_DATASPACE_STANDARD_BT601_525_UNADJUSTED"
    },
    {
     "enum_field_value" : 393216,
     "name" : "HAL_DATASPACE_STANDARD_BT2020"
    },
    {
     "enum_field_value" : 458752,
     "name" : "HAL_DATASPACE_STANDARD_BT2020_CONSTANT_LUMINANCE"
    },
    {
     "enum_field_value" : 524288,
     "name" : "HAL_DATASPACE_STANDARD_BT470M"
    },
    {
     "enum_field_value" : 589824,
     "name" : "HAL_DATASPACE_STANDARD_FILM"
    },
    {
     "enum_field_value" : 655360,
     "name" : "HAL_DATASPACE_STANDARD_DCI_P3"
    },
    {
     "enum_field_value" : 720896,
     "name" : "HAL_DATASPACE_STANDARD_ADOBE_RGB"
    },
    {
     "enum_field_value" : 22,
     "name" : "HAL_DATASPACE_TRANSFER_SHIFT"
    },
    {
     "enum_field_value" : 130023424,
     "name" : "HAL_DATASPACE_TRANSFER_MASK"
    },
    {
     "enum_field_value" : 0,
     "name" : "HAL_DATASPACE_TRANSFER_UNSPECIFIED"
    },
    {
     "enum_field_value" : 4194304,
     "name" : "HAL_DATASPACE_TRANSFER_LINEAR"
    },
    {
     "enum_field_value" : 8388608,
     "name" : "HAL_DATASPACE_TRANSFER_SRGB"
    },
    {
     "enum_field_value" : 12582912,
     "name" : "HAL_DATASPACE_TRANSFER_SMPTE_170M"
    },
    {
     "enum_field_value" : 16777216,
     "name" : "HAL_DATASPACE_TRANSFER_GAMMA2_2"
    },
    {
     "enum_field_value" : 20971520,
     "name" : "HAL_DATASPACE_TRANSFER_GAMMA2_6"
    },
    {
     "enum_field_value" : 25165824,
     "name" : "HAL_DATASPACE_TRANSFER_GAMMA2_8"
    },
    {
     "enum_field_value" : 29360128,
     "name" : "HAL_DATASPACE_TRANSFER_ST2084"
    },
    {
     "enum_field_value" : 33554432,
     "name" : "HAL_DATASPACE_TRANSFER_HLG"
    },
    {
     "enum_field_value" : 27,
     "name" : "HAL_DATASPACE_RANGE_SHIFT"
    },
    {
     "enum_field_value" : 939524096,
     "name" : "HAL_DATASPACE_RANGE_MASK"
    },
    {
     "enum_field_value" : 0,
     "name" : "HAL_DATASPACE_RANGE_UNSPECIFIED"
    },
    {
     "enum_field_value" : 134217728,
     "name" : "HAL_DATASPACE_RANGE_FULL"
    },
    {
     "enum_field_value" : 268435456,
     "name" : "HAL_DATASPACE_RANGE_LIMITED"
    },
    {
     "enum_field_value" : 402653184,
     "name" : "HAL_DATASPACE_RANGE_EXTENDED"
    },
    {
     "enum_field_value" : 512,
     "name" : "HAL_DATASPACE_SRGB_LINEAR"
    },
    {
     "enum_field_value" : 138477568,
     "name" : "HAL_DATASPACE_V0_SRGB_LINEAR"
    },
    {
     "enum_field_value" : 406913024,
     "name" : "HAL_DATASPACE_V0_SCRGB_LINEAR"
    },
    {
     "enum_field_value" : 513,
     "name" : "HAL_DATASPACE_SRGB"
    },
    {
     "enum_field_value" : 142671872,
     "name" : "HAL_DATASPACE_V0_SRGB"
    },
    {
     "enum_field_value" : 411107328,
     "name" : "HAL_DATASPACE_V0_SCRGB"
    },
    {
     "enum_field_value" : 257,
     "name" : "HAL_DATASPACE_JFIF"
    },
    {
     "enum_field_value" : 146931712,
     "name" : "HAL_DATASPACE_V0_JFIF"
    },
    {
     "enum_field_value" : 258,
     "name" : "HAL_DATASPACE_BT601_625"
    },
    {
     "enum_field_value" : 281149440,
     "name" : "HAL_DATASPACE_V0_BT601_625"
    },
    {
     "enum_field_value" : 259,
     "name" : "HAL_DATASPACE_BT601_525"
    },
    {
     "enum_field_value" : 281280512,
     "name" : "HAL_DATASPACE_V0_BT601_525"
    },
    {
     "enum_field_value" : 260,
     "name" : "HAL_DATASPACE_BT709"
    },
    {
     "enum_field_value" : 281083904,
     "name" : "HAL_DATASPACE_V0_BT709"
    },
    {
     "enum_field_value" : 139067392,
     "name" : "HAL_DATASPACE_DCI_P3_LINEAR"
    },
    {
     "enum_field_value" : 155844608,
     "name" : "HAL_DATASPACE_DCI_P3"
    },
    {
     "enum_field_value" : 139067392,
     "name" : "HAL_DATASPACE_DISPLAY_P3_LINEAR"
    },
    {
     "enum_field_value" : 143261696,
     "name" : "HAL_DATASPACE_DISPLAY_P3"
    },
    {
     "enum_field_value" : 151715840,
     "name" : "HAL_DATASPACE_ADOBE_RGB"
    },
    {
     "enum_field_value" : 138805248,
     "name" : "HAL_DATASPACE_BT2020_LINEAR"
    },
    {
     "enum_field_value" : 147193856,
     "name" : "HAL_DATASPACE_BT2020"
    },
    {
     "enum_field_value" : 163971072,
     "name" : "HAL_DATASPACE_BT2020_PQ"
    },
    {
     "enum_field_value" : 4096,
     "name" : "HAL_DATASPACE_DEPTH"
    },
    {
     "enum_field_value" : 4097,
     "name" : "HAL_DATASPACE_SENSOR"
    }
   ],
   "linker_set_key" : "android_dataspace_t",
   "name" : "android_dataspace_t",
   "referenced_type" : "type-527",
   "self_type" : "type-527",
   "size" : 4,
   "source_file" : "/system/core/libsystem/include/system/graphics-base-v1.0.h",
   "underlying_type" : "type-2",
   "unique_id" : "android_dataspace_t"
  },
  {
   "alignment" : 4,
   "enum_fields" :
   [
    {
     "enum_field_value" : 281411584,
     "name" : "HAL_DATASPACE_BT2020_ITU"
    },
    {
     "enum_field_value" : 298188800,
     "name" : "HAL_DATASPACE_BT2020_ITU_PQ"
    },
    {
     "enum_field_value" : 302383104,
     "name" : "HAL_DATASPACE_BT2020_ITU_HLG"
    },
    {
     "enum_field_value" : 168165376,
     "name" : "HAL_DATASPACE_BT2020_HLG"
    }
   ],
   "linker_set_key" : "android_dataspace_v1_1_t",
   "name" : "android_dataspace_v1_1_t",
   "referenced_type" : "type-532",
   "self_type" : "type-532",
   "size" : 4,
   "source_file" : "/system/core/libsystem/include/system/graphics-base-v1.1.h",
   "underlying_type" : "type-2",
   "unique_id" : "android_dataspace_v1_1_t"
  },
  {
   "alignment" : 4,
   "enum_fields" :
   [
    {
     "enum_field_value" : 142999552,
     "name" : "HAL_DATASPACE_DISPLAY_BT2020"
    },
    {
     "enum_field_value" : 4098,
     "name" : "HAL_DATASPACE_DYNAMIC_DEPTH"
    },
    {
     "enum_field_value" : 4099,
     "name" : "HAL_DATASPACE_JPEG_APP_SEGMENTS"
    },
    {
     "enum_field_value" : 4100,
     "name" : "HAL_DATASPACE_HEIF"
    }
   ],
   "linker_set_key" : "android_dataspace_v1_2_t",
   "name" : "android_dataspace_v1_2_t",
   "referenced_type" : "type-536",
   "self_type" : "type-536",
   "size" : 4,
   "source_file" : "/system/core/libsystem/include/system/graphics-base-v1.2.h",
   "underlying_type" : "type-2",
   "unique_id" : "android_dataspace_v1_2_t"
  },
  {
   "alignment" : 4,
   "enum_fields" :
   [
    {
     "enum_field_value" : 1,
     "name" : "FLEX_COMPONENT_Y"
    },
    {
     "enum_field_value" : 2,
     "name" : "FLEX_COMPONENT_Cb"
    },
    {
     "enum_field_value" : 4,
     "name" : "FLEX_COMPONENT_Cr"
    },
    {
     "enum_field_value" : 1024,
     "name" : "FLEX_COMPONENT_R"
    },
    {
     "enum_field_value" : 2048,
     "name" : "FLEX_COMPONENT_G"
    },
    {
     "enum_field_value" : 4096,
     "name" : "FLEX_COMPONENT_B"
    },
    {
     "enum_field_value" : 1073741824,
     "name" : "FLEX_COMPONENT_A"
    }
   ],
   "linker_set_key" : "android_flex_component",
   "name" : "android_flex_component",
   "referenced_type" : "type-541",
   "self_type" : "type-541",
   "size" : 4,
   "source_file" : "/system/core/libsystem/include/system/graphics.h",
   "underlying_type" : "type-2",
   "unique_id" : "android_flex_component"
  },
  {
   "alignment" : 4,
   "enum_fields" :
   [
    {
     "enum_field_value" : 0,
     "name" : "FLEX_FORMAT_INVALID"
    },
    {
     "enum_field_value" : 1,
     "name" : "FLEX_FORMAT_Y"
    },
    {
     "enum_field_value" : 7,
     "name" : "FLEX_FORMAT_YCbCr"
    },
    {
     "enum_field_value" : 1073741831,
     "name" : "FLEX_FORMAT_YCbCrA"
    },
    {
     "enum_field_value" : 7168,
     "name" : "FLEX_FORMAT_RGB"
    },
    {
     "enum_field_value" : 1073748992,
     "name" : "FLEX_FORMAT_RGBA"
    }
   ],
   "linker_set_key" : "android_flex_format",
   "name" : "android_flex_format",
   "referenced_type" : "type-543",
   "self_type" : "type-543",
   "size" : 4,
   "source_file" : "/system/core/libsystem/include/system/graphics.h",
   "underlying_type" : "type-2",
   "unique_id" : "android_flex_format"
  },
  {
   "alignment" : 4,
   "enum_fields" :
   [
    {
     "enum_field_value" : 1,
     "name" : "HAL_HDR_DOLBY_VISION"
    },
    {
     "enum_field_value" : 2,
     "name" : "HAL_HDR_HDR10"
    },
    {
     "enum_field_value" : 3,
     "name" : "HAL_HDR_HLG"
    }
   ],
   "linker_set_key" : "android_hdr_t",
   "name" : "android_hdr_t",
   "referenced_type" : "type-530",
   "self_type" : "type-530",
   "size" : 4,
   "source_file" : "/system/core/libsystem/include/system/graphics-base-v1.0.h",
   "underlying_type" : "type-2",
   "unique_id" : "android_hdr_t"
  },
  {
   "alignment" : 4,
   "enum_fields" :
   [
    {
     "enum_field_value" : 4,
     "name" : "HAL_HDR_HDR10_PLUS"
    }
   ],
   "linker_set_key" : "android_hdr_v1_2_t",
   "name" : "android_hdr_v1_2_t",
   "referenced_type" : "type-535",
   "self_type" : "type-535",
   "size" : 4,
   "source_file" : "/system/core/libsystem/include/system/graphics-base-v1.2.h",
   "underlying_type" : "type-2",
   "unique_id" : "android_hdr_v1_2_t"
  },
  {
   "alignment" : 4,
   "enum_fields" :
   [
    {
     "enum_field_value" : 39,
     "name" : "HAL_PIXEL_FORMAT_YCBCR_422_888"
    },
    {
     "enum_field_value" : 40,
     "name" : "HAL_PIXEL_FORMAT_YCBCR_444_888"
    },
    {
     "enum_field_value" : 41,
     "name" : "HAL_PIXEL_FORMAT_FLEX_RGB_888"
    },
    {
     "enum_field_value" : 42,
     "name" : "HAL_PIXEL_FORMAT_FLEX_RGBA_8888"
    }
   ],
   "linker_set_key" : "android_pixel_format_sw_t",
   "name" : "android_pixel_format_sw_t",
   "referenced_type" : "type-538",
   "self_type" : "type-538",
   "size" : 4,
   "source_file" : "/system/core/libsystem/include/system/graphics-sw.h",
   "underlying_type" : "type-2",
   "unique_id" : "_ZTS25android_pixel_format_sw_t"
  },
  {
   "alignment" : 4,
   "enum_fields" :
   [
    {
     "enum_field_value" : 1,
     "name" : "HAL_PIXEL_FORMAT_RGBA_8888"
    },
    {
     "enum_field_value" : 2,
     "name" : "HAL_PIXEL_FORMAT_RGBX_8888"
    },
    {
     "enum_field_value" : 3,
     "name" : "HAL_PIXEL_FORMAT_RGB_888"
    },
    {
     "enum_field_value" : 4,
     "name" : "HAL_PIXEL_FORMAT_RGB_565"
    },
    {
     "enum_field_value" : 5,
     "name" : "HAL_PIXEL_FORMAT_BGRA_8888"
    },
    {
     "enum_field_value" : 16,
     "name" : "HAL_PIXEL_FORMAT_YCBCR_422_SP"
    },
    {
     "enum_field_value" : 17,
     "name" : "HAL_PIXEL_FORMAT_YCRCB_420_SP"
    },
    {
     "enum_field_value" : 20,
     "name" : "HAL_PIXEL_FORMAT_YCBCR_422_I"
    },
    {
     "enum_field_value" : 22,
     "name" : "HAL_PIXEL_FORMAT_RGBA_FP16"
    },
    {
     "enum_field_value" : 32,
     "name" : "HAL_PIXEL_FORMAT_RAW16"
    },
    {
     "enum_field_value" : 33,
     "name" : "HAL_PIXEL_FORMAT_BLOB"
    },
    {
     "enum_field_value" : 34,
     "name" : "HAL_PIXEL_FORMAT_IMPLEMENTATION_DEFINED"
    },
    {
     "enum_field_value" : 35,
     "name" : "HAL_PIXEL_FORMAT_YCBCR_420_888"
    },
    {
     "enum_field_value" : 36,
     "name" : "HAL_PIXEL_FORMAT_RAW_OPAQUE"
    },
    {
     "enum_field_value" : 37,
     "name" : "HAL_PIXEL_FORMAT_RAW10"
    },
    {
     "enum_field_value" : 38,
     "name" : "HAL_PIXEL_FORMAT_RAW12"
    },
    {
     "enum_field_value" : 43,
     "name" : "HAL_PIXEL_FORMAT_RGBA_1010102"
    },
    {
     "enum_field_value" : 538982489,
     "name" : "HAL_PIXEL_FORMAT_Y8"
    },
    {
     "enum_field_value" : 540422489,
     "name" : "HAL_PIXEL_FORMAT_Y16"
    },
    {
     "enum_field_value" : 842094169,
     "name" : "HAL_PIXEL_FORMAT_YV12"
    }
   ],
   "linker_set_key" : "android_pixel_format_t",
   "name" : "android_pixel_format_t",
   "referenced_type" : "type-525",
   "self_type" : "type-525",
   "size" : 4,
   "source_file" : "/system/core/libsystem/include/system/graphics-base-v1.0.h",
   "underlying_type" : "type-2",
   "unique_id" : "android_pixel_format_t"
  },
  {
   "alignment" : 4,
   "enum_fields" :
   [
    {
     "enum_field_value" : 48,
     "name" : "HAL_PIXEL_FORMAT_DEPTH_16"
    },
    {
     "enum_field_value" : 49,
     "name" : "HAL_PIXEL_FORMAT_DEPTH_24"
    },
    {
     "enum_field_value" : 50,
     "name" : "HAL_PIXEL_FORMAT_DEPTH_24_STENCIL_8"
    },
    {
     "enum_field_value" : 51,
     "name" : "HAL_PIXEL_FORMAT_DEPTH_32F"
    },
    {
     "enum_field_value" : 52,
     "name" : "HAL_PIXEL_FORMAT_DEPTH_32F_STENCIL_8"
    },
    {
     "enum_field_value" : 53,
     "name" : "HAL_PIXEL_FORMAT_STENCIL_8"
    },
    {
     "enum_field_value" : 54,
     "name" : "HAL_PIXEL_FORMAT_YCBCR_P010"
    }
   ],
   "linker_set_key" : "android_pixel_format_v1_1_t",
   "name" : "android_pixel_format_v1_1_t",
   "referenced_type" : "type-531",
   "self_type" : "type-531",
   "size" : 4,
   "source_file" : "/system/core/libsystem/include/system/graphics-base-v1.1.h",
   "underlying_type" : "type-2",
   "unique_id" : "android_pixel_format_v1_1_t"
  },
  {
   "alignment" : 4,
   "enum_fields" :
   [
    {
     "enum_field_value" : 55,
     "name" : "HAL_PIXEL_FORMAT_HSV_888"
    }
   ],
   "linker_set_key" : "android_pixel_format_v1_2_t",
   "name" : "android_pixel_format_v1_2_t",
   "referenced_type" : "type-537",
   "self_type" : "type-537",
   "size" : 4,
   "source_file" : "/system/core/libsystem/include/system/graphics-base-v1.2.h",
   "underlying_type" : "type-2",
   "unique_id" : "android_pixel_format_v1_2_t"
  },
  {
   "alignment" : 4,
   "enum_fields" :
   [
    {
     "enum_field_value" : 0,
     "name" : "HAL_RENDER_INTENT_COLORIMETRIC"
    },
    {
     "enum_field_value" : 1,
     "name" : "HAL_RENDER_INTENT_ENHANCE"
    },
    {
     "enum_field_value" : 2,
     "name" : "HAL_RENDER_INTENT_TONE_MAP_COLORIMETRIC"
    },
    {
     "enum_field_value" : 3,
     "name" : "HAL_RENDER_INTENT_TONE_MAP_ENHANCE"
    }
   ],
   "linker_set_key" : "android_render_intent_v1_1_t",
   "name" : "android_render_intent_v1_1_t",
   "referenced_type" : "type-534",
   "self_type" : "type-534",
   "size" : 4,
   "source_file" : "/system/core/libsystem/include/system/graphics-base-v1.1.h",
   "underlying_type" : "type-2",
   "unique_id" : "android_render_intent_v1_1_t"
  },
  {
   "alignment" : 4,
   "enum_fields" :
   [
    {
     "enum_field_value" : 1,
     "name" : "HAL_TRANSFORM_FLIP_H"
    },
    {
     "enum_field_value" : 2,
     "name" : "HAL_TRANSFORM_FLIP_V"
    },
    {
     "enum_field_value" : 4,
     "name" : "HAL_TRANSFORM_ROT_90"
    },
    {
     "enum_field_value" : 3,
     "name" : "HAL_TRANSFORM_ROT_180"
    },
    {
     "enum_field_value" : 7,
     "name" : "HAL_TRANSFORM_ROT_270"
    }
   ],
   "linker_set_key" : "android_transform_t",
   "name" : "android_transform_t",
   "referenced_type" : "type-526",
   "self_type" : "type-526",
   "size" : 4,
   "source_file" : "/system/core/libsystem/include/system/graphics-base-v1.0.h",
   "underlying_type" : "type-2",
   "unique_id" : "android_transform_t"
  },
  {
   "alignment" : 4,
   "enum_fields" :
   [
    {
     "enum_field_value" : 0,
     "name" : "LOG_ID_MIN"
    },
    {
     "enum_field_value" : 0,
     "name" : "LOG_ID_MAIN"
    },
    {
     "enum_field_value" : 1,
     "name" : "LOG_ID_RADIO"
    },
    {
     "enum_field_value" : 2,
     "name" : "LOG_ID_EVENTS"
    },
    {
     "enum_field_value" : 3,
     "name" : "LOG_ID_SYSTEM"
    },
    {
     "enum_field_value" : 4,
     "name" : "LOG_ID_CRASH"
    },
    {
     "enum_field_value" : 5,
     "name" : "LOG_ID_STATS"
    },
    {
     "enum_field_value" : 6,
     "name" : "LOG_ID_SECURITY"
    },
    {
     "enum_field_value" : 7,
     "name" : "LOG_ID_KERNEL"
    },
    {
     "enum_field_value" : 8,
     "name" : "LOG_ID_MAX"
    }
   ],
   "linker_set_key" : "log_id",
   "name" : "log_id",
   "referenced_type" : "type-1686",
   "self_type" : "type-1686",
   "size" : 4,
   "source_file" : "/system/core/liblog/include/android/log.h",
   "underlying_type" : "type-2",
   "unique_id" : "log_id"
  }
 ],
 "function_types" :
 [
  {
   "alignment" : 4,
   "linker_set_key" : "bool (const android::String16 &, const android::sp<android::hardware::IBinder> &, void *)",
   "name" : "bool (const android::String16 &, const android::sp<android::hardware::IBinder> &, void *)",
   "parameters" :
   [
    {
     "referenced_type" : "type-1764"
    },
    {
     "referenced_type" : "type-1765"
    },
    {
     "referenced_type" : "type-451"
    }
   ],
   "referenced_type" : "type-1763",
   "return_type" : "type-13",
   "self_type" : "type-1763",
   "source_file" : "/system/libhwbinder/include/hwbinder/ProcessState.h"
  },
  {
   "alignment" : 4,
   "linker_set_key" : "int (void *)",
   "name" : "int (void *)",
   "parameters" :
   [
    {
     "referenced_type" : "type-451"
    }
   ],
   "referenced_type" : "type-552",
   "return_type" : "type-14",
   "self_type" : "type-552",
   "source_file" : "/system/core/libutils/include/utils/AndroidThreads.h"
  },
  {
   "alignment" : 4,
   "linker_set_key" : "void (android::hardware::Parcel *, const unsigned char *, unsigned int, const unsigned long long *, unsigned int, void *)",
   "name" : "void (android::hardware::Parcel *, const unsigned char *, unsigned int, const unsigned long long *, unsigned int, void *)",
   "parameters" :
   [
    {
     "referenced_type" : "type-448"
    },
    {
     "referenced_type" : "type-370"
    },
    {
     "referenced_type" : "type-2"
    },
    {
     "referenced_type" : "type-449"
    },
    {
     "referenced_type" : "type-2"
    },
    {
     "referenced_type" : "type-451"
    }
   ],
   "referenced_type" : "type-447",
   "return_type" : "type-385",
   "self_type" : "type-447",
   "source_file" : "/system/libhwbinder/include/hwbinder/Parcel.h"
  }
 ],
 "functions" :
 [
  {
   "function_name" : "android::hardware::fromBinder",
   "linker_set_key" : "_ZN7android8hardware10fromBinderINS0_5radio6config4V1_020IRadioConfigResponseENS4_23BpHwRadioConfigResponseENS4_23BnHwRadioConfigResponseEEENS_2spIT_EERKNS8_INS0_7IBinderEEE",
   "parameters" :
   [
    {
     "referenced_type" : "type-1765"
    }
   ],
   "return_type" : "type-1056",
   "source_file" : "/system/libhidl/transport/include/hidl/HidlBinderSupport.h",
   "template_args" : [ "type-1058", "type-1586", "type-1584" ]
  },
  {
   "function_name" : "android::hardware::fromBinder",
   "linker_set_key" : "_ZN7android8hardware10fromBinderINS0_5radio6config4V1_022IRadioConfigIndicationENS4_25BpHwRadioConfigIndicationENS4_25BnHwRadioConfigIndicationEEENS_2spIT_EERKNS8_INS0_7IBinderEEE",
   "parameters" :
   [
    {
     "referenced_type" : "type-1765"
    }
   ],
   "return_type" : "type-809",
   "source_file" : "/system/libhidl/transport/include/hidl/HidlBinderSupport.h",
   "template_args" : [ "type-811", "type-1574", "type-1572" ]
  },
  {
   "function_name" : "android::hardware::radio::config::V1_0::IRadioConfig::getService",
   "linker_set_key" : "_ZN7android8hardware5radio6config4V1_012IRadioConfig10getServiceERKNSt3__112basic_stringIcNS5_11char_traitsIcEENS5_9allocatorIcEEEEb",
   "parameters" :
   [
    {
     "default_arg" : true,
     "referenced_type" : "type-474"
    },
    {
     "default_arg" : true,
     "referenced_type" : "type-13"
    }
   ],
   "return_type" : "type-1704",
   "source_file" : "/out/soong/.intermediates/hardware/interfaces/radio/config/1.0/android.hardware.radio.config@1.0_genc++_headers/gen/android/hardware/radio/config/1.0/IRadioConfig.h"
  },
  {
   "function_name" : "android::hardware::radio::config::V1_0::IRadioConfig::linkToDeath",
   "linker_set_key" : "_ZN7android8hardware5radio6config4V1_012IRadioConfig11linkToDeathERKNS_2spINS0_20hidl_death_recipientEEEy",
   "parameters" :
   [
    {
     "is_this_ptr" : true,
     "referenced_type" : "type-1705"
    },
    {
     "referenced_type" : "type-1727"
    },
    {
     "referenced_type" : "type-12"
    }
   ],
   "return_type" : "type-1821",
   "source_file" : "/out/soong/.intermediates/hardware/interfaces/radio/config/1.0/android.hardware.radio.config@1.0_genc++_headers/gen/android/hardware/radio/config/1.0/IRadioConfig.h"
  },
  {
   "function_name" : "android::hardware::radio::config::V1_0::IRadioConfig::getDebugInfo",
   "linker_set_key" : "_ZN7android8hardware5radio6config4V1_012IRadioConfig12getDebugInfoENSt3__18functionIFvRKNS_4hidl4base4V1_09DebugInfoEEEE",
   "parameters" :
   [
    {
     "is_this_ptr" : true,
     "referenced_type" : "type-1705"
    },
    {
     "referenced_type" : "type-1924"
    }
   ],
   "return_type" : "type-1839",
   "source_file" : "/out/soong/.intermediates/hardware/interfaces/radio/config/1.0/android.hardware.radio.config@1.0_genc++_headers/gen/android/hardware/radio/config/1.0/IRadioConfig.h"
  },
  {
   "function_name" : "android::hardware::radio::config::V1_0::IRadioConfig::getHashChain",
   "linker_set_key" : "_ZN7android8hardware5radio6config4V1_012IRadioConfig12getHashChainENSt3__18functionIFvRKNS0_8hidl_vecINS0_10hidl_arrayIhLj32EJEEEEEEEE",
   "parameters" :
   [
    {
     "is_this_ptr" : true,
     "referenced_type" : "type-1705"
    },
    {
     "referenced_type" : "type-1925"
    }
   ],
   "return_type" : "type-1839",
   "source_file" : "/out/soong/.intermediates/hardware/interfaces/radio/config/1.0/android.hardware.radio.config@1.0_genc++_headers/gen/android/hardware/radio/config/1.0/IRadioConfig.h"
  },
  {
   "function_name" : "android::hardware::radio::config::V1_0::IRadioConfig::tryGetService",
   "linker_set_key" : "_ZN7android8hardware5radio6config4V1_012IRadioConfig13tryGetServiceERKNSt3__112basic_stringIcNS5_11char_traitsIcEENS5_9allocatorIcEEEEb",
   "parameters" :
   [
    {
     "default_arg" : true,
     "referenced_type" : "type-474"
    },
    {
     "default_arg" : true,
     "referenced_type" : "type-13"
    }
   ],
   "return_type" : "type-1704",
   "source_file" : "/out/soong/.intermediates/hardware/interfaces/radio/config/1.0/android.hardware.radio.config@1.0_genc++_headers/gen/android/hardware/radio/config/1.0/IRadioConfig.h"
  },
  {
   "function_name" : "android::hardware::radio::config::V1_0::IRadioConfig::unlinkToDeath",
   "linker_set_key" : "_ZN7android8hardware5radio6config4V1_012IRadioConfig13unlinkToDeathERKNS_2spINS0_20hidl_death_recipientEEE",
   "parameters" :
   [
    {
     "is_this_ptr" : true,
     "referenced_type" : "type-1705"
    },
    {
     "referenced_type" : "type-1727"
    }
   ],
   "return_type" : "type-1821",
   "source_file" : "/out/soong/.intermediates/hardware/interfaces/radio/config/1.0/android.hardware.radio.config@1.0_genc++_headers/gen/android/hardware/radio/config/1.0/IRadioConfig.h"
  },
  {
   "function_name" : "android::hardware::radio::config::V1_0::IRadioConfig::interfaceChain",
   "linker_set_key" : "_ZN7android8hardware5radio6config4V1_012IRadioConfig14interfaceChainENSt3__18functionIFvRKNS0_8hidl_vecINS0_11hidl_stringEEEEEE",
   "parameters" :
   [
    {
     "is_this_ptr" : true,
     "referenced_type" : "type-1705"
    },
    {
     "referenced_type" : "type-1926"
    }
   ],
   "return_type" : "type-1839",
   "source_file" : "/out/soong/.intermediates/hardware/interfaces/radio/config/1.0/android.hardware.radio.config@1.0_genc++_headers/gen/android/hardware/radio/config/1.0/IRadioConfig.h"
  },
  {
   "function_name" : "android::hardware::radio::config::V1_0::IRadioConfig::registerAsService",
   "linker_set_key" : "_ZN7android8hardware5radio6config4V1_012IRadioConfig17registerAsServiceERKNSt3__112basic_stringIcNS5_11char_traitsIcEENS5_9allocatorIcEEEE",
   "parameters" :
   [
    {
     "is_this_ptr" : true,
     "referenced_type" : "type-1705"
    },
    {
     "default_arg" : true,
     "referenced_type" : "type-474"
    }
   ],
   "return_type" : "type-14",
   "source_file" : "/out/soong/.intermediates/hardware/interfaces/radio/config/1.0/android.hardware.radio.config@1.0_genc++_headers/gen/android/hardware/radio/config/1.0/IRadioConfig.h"
  },
  {
   "function_name" : "android::hardware::radio::config::V1_0::IRadioConfig::interfaceDescriptor",
   "linker_set_key" : "_ZN7android8hardware5radio6config4V1_012IRadioConfig19interfaceDescriptorENSt3__18functionIFvRKNS0_11hidl_stringEEEE",
   "parameters" :
   [
    {
     "is_this_ptr" : true,
     "referenced_type" : "type-1705"
    },
    {
     "referenced_type" : "type-1927"
    }
   ],
   "return_type" : "type-1839",
   "source_file" : "/out/soong/.intermediates/hardware/interfaces/radio/config/1.0/android.hardware.radio.config@1.0_genc++_headers/gen/android/hardware/radio/config/1.0/IRadioConfig.h"
  },
  {
   "function_name" : "android::hardware::radio::config::V1_0::IRadioConfig::notifySyspropsChanged",
   "linker_set_key" : "_ZN7android8hardware5radio6config4V1_012IRadioConfig21notifySyspropsChangedEv",
   "parameters" :
   [
    {
     "is_this_ptr" : true,
     "referenced_type" : "type-1705"
    }
   ],
   "return_type" : "type-1839",
   "source_file" : "/out/soong/.intermediates/hardware/interfaces/radio/config/1.0/android.hardware.radio.config@1.0_genc++_headers/gen/android/hardware/radio/config/1.0/IRadioConfig.h"
  },
  {
   "function_name" : "android::hardware::radio::config::V1_0::IRadioConfig::setHALInstrumentation",
   "linker_set_key" : "_ZN7android8hardware5radio6config4V1_012IRadioConfig21setHALInstrumentationEv",
   "parameters" :
   [
    {
     "is_this_ptr" : true,
     "referenced_type" : "type-1705"
    }
   ],
   "return_type" : "type-1839",
   "source_file" : "/out/soong/.intermediates/hardware/interfaces/radio/config/1.0/android.hardware.radio.config@1.0_genc++_headers/gen/android/hardware/radio/config/1.0/IRadioConfig.h"
  },
  {
   "function_name" : "android::hardware::radio::config::V1_0::IRadioConfig::registerForNotifications",
   "linker_set_key" : "_ZN7android8hardware5radio6config4V1_012IRadioConfig24registerForNotificationsERKNSt3__112basic_stringIcNS5_11char_traitsIcEENS5_9allocatorIcEEEERKNS_2spINS_4hidl7manager4V1_020IServiceNotificationEEE",
   "parameters" :
   [
    {
     "referenced_type" : "type-474"
    },
    {
     "referenced_type" : "type-1561"
    }
   ],
   "return_type" : "type-13",
   "source_file" : "/out/soong/.intermediates/hardware/interfaces/radio/config/1.0/android.hardware.radio.config@1.0_genc++_headers/gen/android/hardware/radio/config/1.0/IRadioConfig.h"
  },
  {
   "function_name" : "android::hardware::radio::config::V1_0::IRadioConfig::ping",
   "linker_set_key" : "_ZN7android8hardware5radio6config4V1_012IRadioConfig4pingEv",
   "parameters" :
   [
    {
     "is_this_ptr" : true,
     "referenced_type" : "type-1705"
    }
   ],
   "return_type" : "type-1839",
   "source_file" : "/out/soong/.intermediates/hardware/interfaces/radio/config/1.0/android.hardware.radio.config@1.0_genc++_headers/gen/android/hardware/radio/config/1.0/IRadioConfig.h"
  },
  {
   "function_name" : "android::hardware::radio::config::V1_0::IRadioConfig::debug",
   "linker_set_key" : "_ZN7android8hardware5radio6config4V1_012IRadioConfig5debugERKNS0_11hidl_handleERKNS0_8hidl_vecINS0_11hidl_stringEEE",
   "parameters" :
   [
    {
     "is_this_ptr" : true,
     "referenced_type" : "type-1705"
    },
    {
     "referenced_type" : "type-390"
    },
    {
     "referenced_type" : "type-1560"
    }
   ],
   "return_type" : "type-1839",
   "source_file" : "/out/soong/.intermediates/hardware/interfaces/radio/config/1.0/android.hardware.radio.config@1.0_genc++_headers/gen/android/hardware/radio/config/1.0/IRadioConfig.h"
  },
  {
   "function_name" : "android::hardware::radio::config::V1_0::IRadioConfig::castFrom",
   "linker_set_key" : "_ZN7android8hardware5radio6config4V1_012IRadioConfig8castFromERKNS_2spINS_4hidl4base4V1_05IBaseEEEb",
   "parameters" :
   [
    {
     "referenced_type" : "type-1739"
    },
    {
     "default_arg" : true,
     "referenced_type" : "type-13"
    }
   ],
   "return_type" : "type-1827",
   "source_file" : "/out/soong/.intermediates/hardware/interfaces/radio/config/1.0/android.hardware.radio.config@1.0_genc++_headers/gen/android/hardware/radio/config/1.0/IRadioConfig.h"
  },
  {
   "function_name" : "android::hardware::radio::config::V1_0::IRadioConfig::castFrom",
   "linker_set_key" : "_ZN7android8hardware5radio6config4V1_012IRadioConfig8castFromERKNS_2spIS4_EEb",
   "parameters" :
   [
    {
     "referenced_type" : "type-1706"
    },
    {
     "default_arg" : true,
     "referenced_type" : "type-13"
    }
   ],
   "return_type" : "type-1827",
   "source_file" : "/out/soong/.intermediates/hardware/interfaces/radio/config/1.0/android.hardware.radio.config@1.0_genc++_headers/gen/android/hardware/radio/config/1.0/IRadioConfig.h"
  },
  {
   "access" : "private",
   "function_name" : "android::hardware::radio::config::V1_0::BsRadioConfig::addOnewayTask",
   "linker_set_key" : "_ZN7android8hardware5radio6config4V1_013BsRadioConfig13addOnewayTaskENSt3__18functionIFvvEEE",
   "parameters" :
   [
    {
     "is_this_ptr" : true,
     "referenced_type" : "type-1741"
    },
    {
     "referenced_type" : "type-1930"
    }
   ],
   "return_type" : "type-1839",
   "source_file" : "/out/soong/.intermediates/hardware/interfaces/radio/config/1.0/android.hardware.radio.config@1.0_genc++_headers/gen/android/hardware/radio/config/1.0/BsRadioConfig.h"
  },
  {
   "function_name" : "android::hardware::radio::config::V1_0::BsRadioConfig::BsRadioConfig",
   "linker_set_key" : "_ZN7android8hardware5radio6config4V1_013BsRadioConfigC1ENS_2spINS3_12IRadioConfigEEE",
   "parameters" :
   [
    {
     "is_this_ptr" : true,
     "referenced_type" : "type-1741"
    },
    {
     "referenced_type" : "type-1703"
    }
   ],
   "return_type" : "type-385",
   "source_file" : "/out/soong/.intermediates/hardware/interfaces/radio/config/1.0/android.hardware.radio.config@1.0_genc++_headers/gen/android/hardware/radio/config/1.0/BsRadioConfig.h"
  },
  {
   "function_name" : "android::hardware::radio::config::V1_0::BsRadioConfig::BsRadioConfig",
   "linker_set_key" : "_ZN7android8hardware5radio6config4V1_013BsRadioConfigC2ENS_2spINS3_12IRadioConfigEEE",
   "parameters" :
   [
    {
     "is_this_ptr" : true,
     "referenced_type" : "type-1741"
    },
    {
     "referenced_type" : "type-1703"
    }
   ],
   "return_type" : "type-385",
   "source_file" : "/out/soong/.intermediates/hardware/interfaces/radio/config/1.0/android.hardware.radio.config@1.0_genc++_headers/gen/android/hardware/radio/config/1.0/BsRadioConfig.h"
  },
  {
   "function_name" : "android::hardware::radio::config::V1_0::BnHwRadioConfig::onTransact",
   "linker_set_key" : "_ZN7android8hardware5radio6config4V1_015BnHwRadioConfig10onTransactEjRKNS0_6ParcelEPS5_jNSt3__18functionIFvRS5_EEE",
   "parameters" :
   [
    {
     "is_this_ptr" : true,
     "referenced_type" : "type-1730"
    },
    {
     "referenced_type" : "type-2"
    },
    {
     "referenced_type" : "type-458"
    },
    {
     "referenced_type" : "type-448"
    },
    {
     "default_arg" : true,
     "referenced_type" : "type-2"
    },
    {
     "default_arg" : true,
     "referenced_type" : "type-1933"
    }
   ],
   "return_type" : "type-14",
   "source_file" : "/out/soong/.intermediates/hardware/interfaces/radio/config/1.0/android.hardware.radio.config@1.0_genc++_headers/gen/android/hardware/radio/config/1.0/BnHwRadioConfig.h"
  },
  {
   "access" : "private",
   "function_name" : "android::hardware::radio::config::V1_0::BnHwRadioConfig::getDebugInfo",
   "linker_set_key" : "_ZN7android8hardware5radio6config4V1_015BnHwRadioConfig12getDebugInfoENSt3__18functionIFvRKNS_4hidl4base4V1_09DebugInfoEEEE",
   "parameters" :
   [
    {
     "is_this_ptr" : true,
     "referenced_type" : "type-1730"
    },
    {
     "referenced_type" : "type-1934"
    }
   ],
   "return_type" : "type-1839",
   "source_file" : "/out/soong/.intermediates/hardware/interfaces/radio/config/1.0/android.hardware.radio.config@1.0_genc++_headers/gen/android/hardware/radio/config/1.0/BnHwRadioConfig.h"
  },
  {
   "function_name" : "android::hardware::radio::config::V1_0::BnHwRadioConfig::_hidl_getSimSlotsStatus",
   "linker_set_key" : "_ZN7android8hardware5radio6config4V1_015BnHwRadioConfig23_hidl_getSimSlotsStatusEPNS_4hidl4base4V1_08BnHwBaseERKNS0_6ParcelEPSA_NSt3__18functionIFvRSA_EEE",
   "parameters" :
   [
    {
     "referenced_type" : "type-462"
    },
    {
     "referenced_type" : "type-458"
    },
    {
     "referenced_type" : "type-448"
    },
    {
     "referenced_type" : "type-1935"
    }
   ],
   "return_type" : "type-14",
   "source_file" : "/out/soong/.intermediates/hardware/interfaces/radio/config/1.0/android.hardware.radio.config@1.0_genc++_headers/gen/android/hardware/radio/config/1.0/BnHwRadioConfig.h"
  },
  {
   "function_name" : "android::hardware::radio::config::V1_0::BnHwRadioConfig::_hidl_setSimSlotsMapping",
   "linker_set_key" : "_ZN7android8hardware5radio6config4V1_015BnHwRadioConfig24_hidl_setSimSlotsMappingEPNS_4hidl4base4V1_08BnHwBaseERKNS0_6ParcelEPSA_NSt3__18functionIFvRSA_EEE",
   "parameters" :
   [
    {
     "referenced_type" : "type-462"
    },
    {
     "referenced_type" : "type-458"
    },
    {
     "referenced_type" : "type-448"
    },
    {
     "referenced_type" : "type-1936"
    }
   ],
   "return_type" : "type-14",
   "source_file" : "/out/soong/.intermediates/hardware/interfaces/radio/config/1.0/android.hardware.radio.config@1.0_genc++_headers/gen/android/hardware/radio/config/1.0/BnHwRadioConfig.h"
  },
  {
   "function_name" : "android::hardware::radio::config::V1_0::BnHwRadioConfig::_hidl_setResponseFunctions",
   "linker_set_key" : "_ZN7android8hardware5radio6config4V1_015BnHwRadioConfig26_hidl_setResponseFunctionsEPNS_4hidl4base4V1_08BnHwBaseERKNS0_6ParcelEPSA_NSt3__18functionIFvRSA_EEE",
   "parameters" :
   [
    {
     "referenced_type" : "type-462"
    },
    {
     "referenced_type" : "type-458"
    },
    {
     "referenced_type" : "type-448"
    },
    {
     "referenced_type" : "type-1937"
    }
   ],
   "return_type" : "type-14",
   "source_file" : "/out/soong/.intermediates/hardware/interfaces/radio/config/1.0/android.hardware.radio.config@1.0_genc++_headers/gen/android/hardware/radio/config/1.0/BnHwRadioConfig.h"
  },
  {
   "access" : "private",
   "function_name" : "android::hardware::radio::config::V1_0::BnHwRadioConfig::ping",
   "linker_set_key" : "_ZN7android8hardware5radio6config4V1_015BnHwRadioConfig4pingEv",
   "parameters" :
   [
    {
     "is_this_ptr" : true,
     "referenced_type" : "type-1730"
    }
   ],
   "return_type" : "type-1839",
   "source_file" : "/out/soong/.intermediates/hardware/interfaces/radio/config/1.0/android.hardware.radio.config@1.0_genc++_headers/gen/android/hardware/radio/config/1.0/BnHwRadioConfig.h"
  },
  {
   "function_name" : "android::hardware::radio::config::V1_0::BnHwRadioConfig::BnHwRadioConfig",
   "linker_set_key" : "_ZN7android8hardware5radio6config4V1_015BnHwRadioConfigC1ERKNS_2spINS3_12IRadioConfigEEE",
   "parameters" :
   [
    {
     "is_this_ptr" : true,
     "referenced_type" : "type-1730"
    },
    {
     "referenced_type" : "type-1706"
    }
   ],
   "return_type" : "type-385",
   "source_file" : "/out/soong/.intermediates/hardware/interfaces/radio/config/1.0/android.hardware.radio.config@1.0_genc++_headers/gen/android/hardware/radio/config/1.0/BnHwRadioConfig.h"
  },
  {
   "function_name" : "android::hardware::radio::config::V1_0::BnHwRadioConfig::BnHwRadioConfig",
   "linker_set_key" : "_ZN7android8hardware5radio6config4V1_015BnHwRadioConfigC2ERKNS_2spINS3_12IRadioConfigEEE",
   "parameters" :
   [
    {
     "is_this_ptr" : true,
     "referenced_type" : "type-1730"
    },
    {
     "referenced_type" : "type-1706"
    }
   ],
   "return_type" : "type-385",
   "source_file" : "/out/soong/.intermediates/hardware/interfaces/radio/config/1.0/android.hardware.radio.config@1.0_genc++_headers/gen/android/hardware/radio/config/1.0/BnHwRadioConfig.h"
  },
  {
   "function_name" : "android::hardware::radio::config::V1_0::BnHwRadioConfig::~BnHwRadioConfig",
   "linker_set_key" : "_ZN7android8hardware5radio6config4V1_015BnHwRadioConfigD0Ev",
   "parameters" :
   [
    {
     "is_this_ptr" : true,
     "referenced_type" : "type-1730"
    }
   ],
   "return_type" : "type-385",
   "source_file" : "/out/soong/.intermediates/hardware/interfaces/radio/config/1.0/android.hardware.radio.config@1.0_genc++_headers/gen/android/hardware/radio/config/1.0/BnHwRadioConfig.h"
  },
  {
   "function_name" : "android::hardware::radio::config::V1_0::BnHwRadioConfig::~BnHwRadioConfig",
   "linker_set_key" : "_ZN7android8hardware5radio6config4V1_015BnHwRadioConfigD1Ev",
   "parameters" :
   [
    {
     "is_this_ptr" : true,
     "referenced_type" : "type-1730"
    }
   ],
   "return_type" : "type-385",
   "source_file" : "/out/soong/.intermediates/hardware/interfaces/radio/config/1.0/android.hardware.radio.config@1.0_genc++_headers/gen/android/hardware/radio/config/1.0/BnHwRadioConfig.h"
  },
  {
   "function_name" : "android::hardware::radio::config::V1_0::BnHwRadioConfig::~BnHwRadioConfig",
   "linker_set_key" : "_ZN7android8hardware5radio6config4V1_015BnHwRadioConfigD2Ev",
   "parameters" :
   [
    {
     "is_this_ptr" : true,
     "referenced_type" : "type-1730"
    }
   ],
   "return_type" : "type-385",
   "source_file" : "/out/soong/.intermediates/hardware/interfaces/radio/config/1.0/android.hardware.radio.config@1.0_genc++_headers/gen/android/hardware/radio/config/1.0/BnHwRadioConfig.h"
  },
  {
   "function_name" : "android::hardware::radio::config::V1_0::BpHwRadioConfig::linkToDeath",
   "linker_set_key" : "_ZN7android8hardware5radio6config4V1_015BpHwRadioConfig11linkToDeathERKNS_2spINS0_20hidl_death_recipientEEEy",
   "parameters" :
   [
    {
     "is_this_ptr" : true,
     "referenced_type" : "type-1742"
    },
    {
     "referenced_type" : "type-1727"
    },
    {
     "referenced_type" : "type-12"
    }
   ],
   "return_type" : "type-1821",
   "source_file" : "/out/soong/.intermediates/hardware/interfaces/radio/config/1.0/android.hardware.radio.config@1.0_genc++_headers/gen/android/hardware/radio/config/1.0/BpHwRadioConfig.h"
  },
  {
   "function_name" : "android::hardware::radio::config::V1_0::BpHwRadioConfig::getDebugInfo",
   "linker_set_key" : "_ZN7android8hardware5radio6config4V1_015BpHwRadioConfig12getDebugInfoENSt3__18functionIFvRKNS_4hidl4base4V1_09DebugInfoEEEE",
   "parameters" :
   [
    {
     "is_this_ptr" : true,
     "referenced_type" : "type-1742"
    },
    {
     "referenced_type" : "type-1938"
    }
   ],
   "return_type" : "type-1839",
   "source_file" : "/out/soong/.intermediates/hardware/interfaces/radio/config/1.0/android.hardware.radio.config@1.0_genc++_headers/gen/android/hardware/radio/config/1.0/BpHwRadioConfig.h"
  },
  {
   "function_name" : "android::hardware::radio::config::V1_0::BpHwRadioConfig::getHashChain",
   "linker_set_key" : "_ZN7android8hardware5radio6config4V1_015BpHwRadioConfig12getHashChainENSt3__18functionIFvRKNS0_8hidl_vecINS0_10hidl_arrayIhLj32EJEEEEEEEE",
   "parameters" :
   [
    {
     "is_this_ptr" : true,
     "referenced_type" : "type-1742"
    },
    {
     "referenced_type" : "type-1939"
    }
   ],
   "return_type" : "type-1839",
   "source_file" : "/out/soong/.intermediates/hardware/interfaces/radio/config/1.0/android.hardware.radio.config@1.0_genc++_headers/gen/android/hardware/radio/config/1.0/BpHwRadioConfig.h"
  },
  {
   "function_name" : "android::hardware::radio::config::V1_0::BpHwRadioConfig::unlinkToDeath",
   "linker_set_key" : "_ZN7android8hardware5radio6config4V1_015BpHwRadioConfig13unlinkToDeathERKNS_2spINS0_20hidl_death_recipientEEE",
   "parameters" :
   [
    {
     "is_this_ptr" : true,
     "referenced_type" : "type-1742"
    },
    {
     "referenced_type" : "type-1727"
    }
   ],
   "return_type" : "type-1821",
   "source_file" : "/out/soong/.intermediates/hardware/interfaces/radio/config/1.0/android.hardware.radio.config@1.0_genc++_headers/gen/android/hardware/radio/config/1.0/BpHwRadioConfig.h"
  },
  {
   "function_name" : "android::hardware::radio::config::V1_0::BpHwRadioConfig::interfaceChain",
   "linker_set_key" : "_ZN7android8hardware5radio6config4V1_015BpHwRadioConfig14interfaceChainENSt3__18functionIFvRKNS0_8hidl_vecINS0_11hidl_stringEEEEEE",
   "parameters" :
   [
    {
     "is_this_ptr" : true,
     "referenced_type" : "type-1742"
    },
    {
     "referenced_type" : "type-1940"
    }
   ],
   "return_type" : "type-1839",
   "source_file" : "/out/soong/.intermediates/hardware/interfaces/radio/config/1.0/android.hardware.radio.config@1.0_genc++_headers/gen/android/hardware/radio/config/1.0/BpHwRadioConfig.h"
  },
  {
   "function_name" : "android::hardware::radio::config::V1_0::BpHwRadioConfig::getSimSlotsStatus",
   "linker_set_key" : "_ZN7android8hardware5radio6config4V1_015BpHwRadioConfig17getSimSlotsStatusEi",
   "parameters" :
   [
    {
     "is_this_ptr" : true,
     "referenced_type" : "type-1742"
    },
    {
     "referenced_type" : "type-14"
    }
   ],
   "return_type" : "type-1839",
   "source_file" : "/out/soong/.intermediates/hardware/interfaces/radio/config/1.0/android.hardware.radio.config@1.0_genc++_headers/gen/android/hardware/radio/config/1.0/BpHwRadioConfig.h"
  },
  {
   "function_name" : "android::hardware::radio::config::V1_0::BpHwRadioConfig::setSimSlotsMapping",
   "linker_set_key" : "_ZN7android8hardware5radio6config4V1_015BpHwRadioConfig18setSimSlotsMappingEiRKNS0_8hidl_vecIjEE",
   "parameters" :
   [
    {
     "is_this_ptr" : true,
     "referenced_type" : "type-1742"
    },
    {
     "referenced_type" : "type-14"
    },
    {
     "referenced_type" : "type-355"
    }
   ],
   "return_type" : "type-1839",
   "source_file" : "/out/soong/.intermediates/hardware/interfaces/radio/config/1.0/android.hardware.radio.config@1.0_genc++_headers/gen/android/hardware/radio/config/1.0/BpHwRadioConfig.h"
  },
  {
   "function_name" : "android::hardware::radio::config::V1_0::BpHwRadioConfig::interfaceDescriptor",
   "linker_set_key" : "_ZN7android8hardware5radio6config4V1_015BpHwRadioConfig19interfaceDescriptorENSt3__18functionIFvRKNS0_11hidl_stringEEEE",
   "parameters" :
   [
    {
     "is_this_ptr" : true,
     "referenced_type" : "type-1742"
    },
    {
     "referenced_type" : "type-1941"
    }
   ],
   "return_type" : "type-1839",
   "source_file" : "/out/soong/.intermediates/hardware/interfaces/radio/config/1.0/android.hardware.radio.config@1.0_genc++_headers/gen/android/hardware/radio/config/1.0/BpHwRadioConfig.h"
  },
  {
   "function_name" : "android::hardware::radio::config::V1_0::BpHwRadioConfig::setResponseFunctions",
   "linker_set_key" : "_ZN7android8hardware5radio6config4V1_015BpHwRadioConfig20setResponseFunctionsERKNS_2spINS3_20IRadioConfigResponseEEERKNS5_INS3_22IRadioConfigIndicationEEE",
   "parameters" :
   [
    {
     "is_this_ptr" : true,
     "referenced_type" : "type-1742"
    },
    {
     "referenced_type" : "type-1743"
    },
    {
     "referenced_type" : "type-1744"
    }
   ],
   "return_type" : "type-1839",
   "source_file" : "/out/soong/.intermediates/hardware/interfaces/radio/config/1.0/android.hardware.radio.config@1.0_genc++_headers/gen/android/hardware/radio/config/1.0/BpHwRadioConfig.h"
  },
  {
   "function_name" : "android::hardware::radio::config::V1_0::BpHwRadioConfig::notifySyspropsChanged",
   "linker_set_key" : "_ZN7android8hardware5radio6config4V1_015BpHwRadioConfig21notifySyspropsChangedEv",
   "parameters" :
   [
    {
     "is_this_ptr" : true,
     "referenced_type" : "type-1742"
    }
   ],
   "return_type" : "type-1839",
   "source_file" : "/out/soong/.intermediates/hardware/interfaces/radio/config/1.0/android.hardware.radio.config@1.0_genc++_headers/gen/android/hardware/radio/config/1.0/BpHwRadioConfig.h"
  },
  {
   "function_name" : "android::hardware::radio::config::V1_0::BpHwRadioConfig::setHALInstrumentation",
   "linker_set_key" : "_ZN7android8hardware5radio6config4V1_015BpHwRadioConfig21setHALInstrumentationEv",
   "parameters" :
   [
    {
     "is_this_ptr" : true,
     "referenced_type" : "type-1742"
    }
   ],
   "return_type" : "type-1839",
   "source_file" : "/out/soong/.intermediates/hardware/interfaces/radio/config/1.0/android.hardware.radio.config@1.0_genc++_headers/gen/android/hardware/radio/config/1.0/BpHwRadioConfig.h"
  },
  {
   "function_name" : "android::hardware::radio::config::V1_0::BpHwRadioConfig::_hidl_getSimSlotsStatus",
   "linker_set_key" : "_ZN7android8hardware5radio6config4V1_015BpHwRadioConfig23_hidl_getSimSlotsStatusEPNS0_10IInterfaceEPNS0_7details16HidlInstrumentorEi",
   "parameters" :
   [
    {
     "referenced_type" : "type-1753"
    },
    {
     "referenced_type" : "type-1701"
    },
    {
     "referenced_type" : "type-14"
    }
   ],
   "return_type" : "type-1839",
   "source_file" : "/out/soong/.intermediates/hardware/interfaces/radio/config/1.0/android.hardware.radio.config@1.0_genc++_headers/gen/android/hardware/radio/config/1.0/BpHwRadioConfig.h"
  },
  {
   "function_name" : "android::hardware::radio::config::V1_0::BpHwRadioConfig::_hidl_setSimSlotsMapping",
   "linker_set_key" : "_ZN7android8hardware5radio6config4V1_015BpHwRadioConfig24_hidl_setSimSlotsMappingEPNS0_10IInterfaceEPNS0_7details16HidlInstrumentorEiRKNS0_8hidl_vecIjEE",
   "parameters" :
   [
    {
     "referenced_type" : "type-1753"
    },
    {
     "referenced_type" : "type-1701"
    },
    {
     "referenced_type" : "type-14"
    },
    {
     "referenced_type" : "type-355"
    }
   ],
   "return_type" : "type-1839",
   "source_file" : "/out/soong/.intermediates/hardware/interfaces/radio/config/1.0/android.hardware.radio.config@1.0_genc++_headers/gen/android/hardware/radio/config/1.0/BpHwRadioConfig.h"
  },
  {
   "function_name" : "android::hardware::radio::config::V1_0::BpHwRadioConfig::_hidl_setResponseFunctions",
   "linker_set_key" : "_ZN7android8hardware5radio6config4V1_015BpHwRadioConfig26_hidl_setResponseFunctionsEPNS0_10IInterfaceEPNS0_7details16HidlInstrumentorERKNS_2spINS3_20IRadioConfigResponseEEERKNSA_INS3_22IRadioConfigIndicationEEE",
   "parameters" :
   [
    {
     "referenced_type" : "type-1753"
    },
    {
     "referenced_type" : "type-1701"
    },
    {
     "referenced_type" : "type-1743"
    },
    {
     "referenced_type" : "type-1744"
    }
   ],
   "return_type" : "type-1839",
   "source_file" : "/out/soong/.intermediates/hardware/interfaces/radio/config/1.0/android.hardware.radio.config@1.0_genc++_headers/gen/android/hardware/radio/config/1.0/BpHwRadioConfig.h"
  },
  {
   "function_name" : "android::hardware::radio::config::V1_0::BpHwRadioConfig::ping",
   "linker_set_key" : "_ZN7android8hardware5radio6config4V1_015BpHwRadioConfig4pingEv",
   "parameters" :
   [
    {
     "is_this_ptr" : true,
     "referenced_type" : "type-1742"
    }
   ],
   "return_type" : "type-1839",
   "source_file" : "/out/soong/.intermediates/hardware/interfaces/radio/config/1.0/android.hardware.radio.config@1.0_genc++_headers/gen/android/hardware/radio/config/1.0/BpHwRadioConfig.h"
  },
  {
   "function_name" : "android::hardware::radio::config::V1_0::BpHwRadioConfig::debug",
   "linker_set_key" : "_ZN7android8hardware5radio6config4V1_015BpHwRadioConfig5debugERKNS0_11hidl_handleERKNS0_8hidl_vecINS0_11hidl_stringEEE",
   "parameters" :
   [
    {
     "is_this_ptr" : true,
     "referenced_type" : "type-1742"
    },
    {
     "referenced_type" : "type-390"
    },
    {
     "referenced_type" : "type-1560"
    }
   ],
   "return_type" : "type-1839",
   "source_file" : "/out/soong/.intermediates/hardware/interfaces/radio/config/1.0/android.hardware.radio.config@1.0_genc++_headers/gen/android/hardware/radio/config/1.0/BpHwRadioConfig.h"
  },
  {
   "function_name" : "android::hardware::radio::config::V1_0::BpHwRadioConfig::BpHwRadioConfig",
   "linker_set_key" : "_ZN7android8hardware5radio6config4V1_015BpHwRadioConfigC1ERKNS_2spINS0_7IBinderEEE",
   "parameters" :
   [
    {
     "is_this_ptr" : true,
     "referenced_type" : "type-1742"
    },
    {
     "referenced_type" : "type-1765"
    }
   ],
   "return_type" : "type-385",
   "source_file" : "/out/soong/.intermediates/hardware/interfaces/radio/config/1.0/android.hardware.radio.config@1.0_genc++_headers/gen/android/hardware/radio/config/1.0/BpHwRadioConfig.h"
  },
  {
   "function_name" : "android::hardware::radio::config::V1_0::BpHwRadioConfig::BpHwRadioConfig",
   "linker_set_key" : "_ZN7android8hardware5radio6config4V1_015BpHwRadioConfigC2ERKNS_2spINS0_7IBinderEEE",
   "parameters" :
   [
    {
     "is_this_ptr" : true,
     "referenced_type" : "type-1742"
    },
    {
     "referenced_type" : "type-1765"
    }
   ],
   "return_type" : "type-385",
   "source_file" : "/out/soong/.intermediates/hardware/interfaces/radio/config/1.0/android.hardware.radio.config@1.0_genc++_headers/gen/android/hardware/radio/config/1.0/BpHwRadioConfig.h"
  },
  {
   "function_name" : "android::hardware::radio::config::V1_0::IRadioConfigResponse::getService",
   "linker_set_key" : "_ZN7android8hardware5radio6config4V1_020IRadioConfigResponse10getServiceERKNSt3__112basic_stringIcNS5_11char_traitsIcEENS5_9allocatorIcEEEEb",
   "parameters" :
   [
    {
     "default_arg" : true,
     "referenced_type" : "type-1108"
    },
    {
     "default_arg" : true,
     "referenced_type" : "type-13"
    }
   ],
   "return_type" : "type-1056",
   "source_file" : "/out/soong/.intermediates/hardware/interfaces/radio/config/1.0/android.hardware.radio.config@1.0_genc++_headers/gen/android/hardware/radio/config/1.0/IRadioConfigResponse.h"
  },
  {
   "function_name" : "android::hardware::radio::config::V1_0::IRadioConfigResponse::linkToDeath",
   "linker_set_key" : "_ZN7android8hardware5radio6config4V1_020IRadioConfigResponse11linkToDeathERKNS_2spINS0_20hidl_death_recipientEEEy",
   "parameters" :
   [
    {
     "is_this_ptr" : true,
     "referenced_type" : "type-1057"
    },
    {
     "referenced_type" : "type-1727"
    },
    {
     "referenced_type" : "type-12"
    }
   ],
   "return_type" : "type-1821",
   "source_file" : "/out/soong/.intermediates/hardware/interfaces/radio/config/1.0/android.hardware.radio.config@1.0_genc++_headers/gen/android/hardware/radio/config/1.0/IRadioConfigResponse.h"
  },
  {
   "function_name" : "android::hardware::radio::config::V1_0::IRadioConfigResponse::getDebugInfo",
   "linker_set_key" : "_ZN7android8hardware5radio6config4V1_020IRadioConfigResponse12getDebugInfoENSt3__18functionIFvRKNS_4hidl4base4V1_09DebugInfoEEEE",
   "parameters" :
   [
    {
     "is_this_ptr" : true,
     "referenced_type" : "type-1057"
    },
    {
     "referenced_type" : "type-1942"
    }
   ],
   "return_type" : "type-1839",
   "source_file" : "/out/soong/.intermediates/hardware/interfaces/radio/config/1.0/android.hardware.radio.config@1.0_genc++_headers/gen/android/hardware/radio/config/1.0/IRadioConfigResponse.h"
  },
  {
   "function_name" : "android::hardware::radio::config::V1_0::IRadioConfigResponse::getHashChain",
   "linker_set_key" : "_ZN7android8hardware5radio6config4V1_020IRadioConfigResponse12getHashChainENSt3__18functionIFvRKNS0_8hidl_vecINS0_10hidl_arrayIhLj32EJEEEEEEEE",
   "parameters" :
   [
    {
     "is_this_ptr" : true,
     "referenced_type" : "type-1057"
    },
    {
     "referenced_type" : "type-1943"
    }
   ],
   "return_type" : "type-1839",
   "source_file" : "/out/soong/.intermediates/hardware/interfaces/radio/config/1.0/android.hardware.radio.config@1.0_genc++_headers/gen/android/hardware/radio/config/1.0/IRadioConfigResponse.h"
  },
  {
   "function_name" : "android::hardware::radio::config::V1_0::IRadioConfigResponse::tryGetService",
   "linker_set_key" : "_ZN7android8hardware5radio6config4V1_020IRadioConfigResponse13tryGetServiceERKNSt3__112basic_stringIcNS5_11char_traitsIcEENS5_9allocatorIcEEEEb",
   "parameters" :
   [
    {
     "default_arg" : true,
     "referenced_type" : "type-1108"
    },
    {
     "default_arg" : true,
     "referenced_type" : "type-13"
    }
   ],
   "return_type" : "type-1056",
   "source_file" : "/out/soong/.intermediates/hardware/interfaces/radio/config/1.0/android.hardware.radio.config@1.0_genc++_headers/gen/android/hardware/radio/config/1.0/IRadioConfigResponse.h"
  },
  {
   "function_name" : "android::hardware::radio::config::V1_0::IRadioConfigResponse::unlinkToDeath",
   "linker_set_key" : "_ZN7android8hardware5radio6config4V1_020IRadioConfigResponse13unlinkToDeathERKNS_2spINS0_20hidl_death_recipientEEE",
   "parameters" :
   [
    {
     "is_this_ptr" : true,
     "referenced_type" : "type-1057"
    },
    {
     "referenced_type" : "type-1727"
    }
   ],
   "return_type" : "type-1821",
   "source_file" : "/out/soong/.intermediates/hardware/interfaces/radio/config/1.0/android.hardware.radio.config@1.0_genc++_headers/gen/android/hardware/radio/config/1.0/IRadioConfigResponse.h"
  },
  {
   "function_name" : "android::hardware::radio::config::V1_0::IRadioConfigResponse::interfaceChain",
   "linker_set_key" : "_ZN7android8hardware5radio6config4V1_020IRadioConfigResponse14interfaceChainENSt3__18functionIFvRKNS0_8hidl_vecINS0_11hidl_stringEEEEEE",
   "parameters" :
   [
    {
     "is_this_ptr" : true,
     "referenced_type" : "type-1057"
    },
    {
     "referenced_type" : "type-1944"
    }
   ],
   "return_type" : "type-1839",
   "source_file" : "/out/soong/.intermediates/hardware/interfaces/radio/config/1.0/android.hardware.radio.config@1.0_genc++_headers/gen/android/hardware/radio/config/1.0/IRadioConfigResponse.h"
  },
  {
   "function_name" : "android::hardware::radio::config::V1_0::IRadioConfigResponse::registerAsService",
   "linker_set_key" : "_ZN7android8hardware5radio6config4V1_020IRadioConfigResponse17registerAsServiceERKNSt3__112basic_stringIcNS5_11char_traitsIcEENS5_9allocatorIcEEEE",
   "parameters" :
   [
    {
     "is_this_ptr" : true,
     "referenced_type" : "type-1057"
    },
    {
     "default_arg" : true,
     "referenced_type" : "type-1108"
    }
   ],
   "return_type" : "type-14",
   "source_file" : "/out/soong/.intermediates/hardware/interfaces/radio/config/1.0/android.hardware.radio.config@1.0_genc++_headers/gen/android/hardware/radio/config/1.0/IRadioConfigResponse.h"
  },
  {
   "function_name" : "android::hardware::radio::config::V1_0::IRadioConfigResponse::interfaceDescriptor",
   "linker_set_key" : "_ZN7android8hardware5radio6config4V1_020IRadioConfigResponse19interfaceDescriptorENSt3__18functionIFvRKNS0_11hidl_stringEEEE",
   "parameters" :
   [
    {
     "is_this_ptr" : true,
     "referenced_type" : "type-1057"
    },
    {
     "referenced_type" : "type-1945"
    }
   ],
   "return_type" : "type-1839",
   "source_file" : "/out/soong/.intermediates/hardware/interfaces/radio/config/1.0/android.hardware.radio.config@1.0_genc++_headers/gen/android/hardware/radio/config/1.0/IRadioConfigResponse.h"
  },
  {
   "function_name" : "android::hardware::radio::config::V1_0::IRadioConfigResponse::notifySyspropsChanged",
   "linker_set_key" : "_ZN7android8hardware5radio6config4V1_020IRadioConfigResponse21notifySyspropsChangedEv",
   "parameters" :
   [
    {
     "is_this_ptr" : true,
     "referenced_type" : "type-1057"
    }
   ],
   "return_type" : "type-1839",
   "source_file" : "/out/soong/.intermediates/hardware/interfaces/radio/config/1.0/android.hardware.radio.config@1.0_genc++_headers/gen/android/hardware/radio/config/1.0/IRadioConfigResponse.h"
  },
  {
   "function_name" : "android::hardware::radio::config::V1_0::IRadioConfigResponse::setHALInstrumentation",
   "linker_set_key" : "_ZN7android8hardware5radio6config4V1_020IRadioConfigResponse21setHALInstrumentationEv",
   "parameters" :
   [
    {
     "is_this_ptr" : true,
     "referenced_type" : "type-1057"
    }
   ],
   "return_type" : "type-1839",
   "source_file" : "/out/soong/.intermediates/hardware/interfaces/radio/config/1.0/android.hardware.radio.config@1.0_genc++_headers/gen/android/hardware/radio/config/1.0/IRadioConfigResponse.h"
  },
  {
   "function_name" : "android::hardware::radio::config::V1_0::IRadioConfigResponse::registerForNotifications",
   "linker_set_key" : "_ZN7android8hardware5radio6config4V1_020IRadioConfigResponse24registerForNotificationsERKNSt3__112basic_stringIcNS5_11char_traitsIcEENS5_9allocatorIcEEEERKNS_2spINS_4hidl7manager4V1_020IServiceNotificationEEE",
   "parameters" :
   [
    {
     "referenced_type" : "type-1108"
    },
    {
     "referenced_type" : "type-1561"
    }
   ],
   "return_type" : "type-13",
   "source_file" : "/out/soong/.intermediates/hardware/interfaces/radio/config/1.0/android.hardware.radio.config@1.0_genc++_headers/gen/android/hardware/radio/config/1.0/IRadioConfigResponse.h"
  },
  {
   "function_name" : "android::hardware::radio::config::V1_0::IRadioConfigResponse::ping",
   "linker_set_key" : "_ZN7android8hardware5radio6config4V1_020IRadioConfigResponse4pingEv",
   "parameters" :
   [
    {
     "is_this_ptr" : true,
     "referenced_type" : "type-1057"
    }
   ],
   "return_type" : "type-1839",
   "source_file" : "/out/soong/.intermediates/hardware/interfaces/radio/config/1.0/android.hardware.radio.config@1.0_genc++_headers/gen/android/hardware/radio/config/1.0/IRadioConfigResponse.h"
  },
  {
   "function_name" : "android::hardware::radio::config::V1_0::IRadioConfigResponse::debug",
   "linker_set_key" : "_ZN7android8hardware5radio6config4V1_020IRadioConfigResponse5debugERKNS0_11hidl_handleERKNS0_8hidl_vecINS0_11hidl_stringEEE",
   "parameters" :
   [
    {
     "is_this_ptr" : true,
     "referenced_type" : "type-1057"
    },
    {
     "referenced_type" : "type-390"
    },
    {
     "referenced_type" : "type-1560"
    }
   ],
   "return_type" : "type-1839",
   "source_file" : "/out/soong/.intermediates/hardware/interfaces/radio/config/1.0/android.hardware.radio.config@1.0_genc++_headers/gen/android/hardware/radio/config/1.0/IRadioConfigResponse.h"
  },
  {
   "function_name" : "android::hardware::radio::config::V1_0::IRadioConfigResponse::castFrom",
   "linker_set_key" : "_ZN7android8hardware5radio6config4V1_020IRadioConfigResponse8castFromERKNS_2spINS_4hidl4base4V1_05IBaseEEEb",
   "parameters" :
   [
    {
     "referenced_type" : "type-1739"
    },
    {
     "default_arg" : true,
     "referenced_type" : "type-13"
    }
   ],
   "return_type" : "type-1064",
   "source_file" : "/out/soong/.intermediates/hardware/interfaces/radio/config/1.0/android.hardware.radio.config@1.0_genc++_headers/gen/android/hardware/radio/config/1.0/IRadioConfigResponse.h"
  },
  {
   "function_name" : "android::hardware::radio::config::V1_0::IRadioConfigResponse::castFrom",
   "linker_set_key" : "_ZN7android8hardware5radio6config4V1_020IRadioConfigResponse8castFromERKNS_2spIS4_EEb",
   "parameters" :
   [
    {
     "referenced_type" : "type-1743"
    },
    {
     "default_arg" : true,
     "referenced_type" : "type-13"
    }
   ],
   "return_type" : "type-1064",
   "source_file" : "/out/soong/.intermediates/hardware/interfaces/radio/config/1.0/android.hardware.radio.config@1.0_genc++_headers/gen/android/hardware/radio/config/1.0/IRadioConfigResponse.h"
  },
  {
   "access" : "private",
   "function_name" : "android::hardware::radio::config::V1_0::BsRadioConfigResponse::addOnewayTask",
   "linker_set_key" : "_ZN7android8hardware5radio6config4V1_021BsRadioConfigResponse13addOnewayTaskENSt3__18functionIFvvEEE",
   "parameters" :
   [
    {
     "is_this_ptr" : true,
     "referenced_type" : "type-1059"
    },
    {
     "referenced_type" : "type-1948"
    }
   ],
   "return_type" : "type-1839",
   "source_file" : "/out/soong/.intermediates/hardware/interfaces/radio/config/1.0/android.hardware.radio.config@1.0_genc++_headers/gen/android/hardware/radio/config/1.0/BsRadioConfigResponse.h"
  },
  {
   "function_name" : "android::hardware::radio::config::V1_0::BsRadioConfigResponse::BsRadioConfigResponse",
   "linker_set_key" : "_ZN7android8hardware5radio6config4V1_021BsRadioConfigResponseC1ENS_2spINS3_20IRadioConfigResponseEEE",
   "parameters" :
   [
    {
     "is_this_ptr" : true,
     "referenced_type" : "type-1059"
    },
    {
     "referenced_type" : "type-1055"
    }
   ],
   "return_type" : "type-385",
   "source_file" : "/out/soong/.intermediates/hardware/interfaces/radio/config/1.0/android.hardware.radio.config@1.0_genc++_headers/gen/android/hardware/radio/config/1.0/BsRadioConfigResponse.h"
  },
  {
   "function_name" : "android::hardware::radio::config::V1_0::BsRadioConfigResponse::BsRadioConfigResponse",
   "linker_set_key" : "_ZN7android8hardware5radio6config4V1_021BsRadioConfigResponseC2ENS_2spINS3_20IRadioConfigResponseEEE",
   "parameters" :
   [
    {
     "is_this_ptr" : true,
     "referenced_type" : "type-1059"
    },
    {
     "referenced_type" : "type-1055"
    }
   ],
   "return_type" : "type-385",
   "source_file" : "/out/soong/.intermediates/hardware/interfaces/radio/config/1.0/android.hardware.radio.config@1.0_genc++_headers/gen/android/hardware/radio/config/1.0/BsRadioConfigResponse.h"
  },
  {
   "function_name" : "android::hardware::radio::config::V1_0::writeEmbeddedToParcel",
   "linker_set_key" : "_ZN7android8hardware5radio6config4V1_021writeEmbeddedToParcelERKNS3_13SimSlotStatusEPNS0_6ParcelEjj",
   "parameters" :
   [
    {
     "referenced_type" : "type-802"
    },
    {
     "referenced_type" : "type-448"
    },
    {
     "referenced_type" : "type-2"
    },
    {
     "referenced_type" : "type-2"
    }
   ],
   "return_type" : "type-14",
   "source_file" : "/out/soong/.intermediates/hardware/interfaces/radio/config/1.0/android.hardware.radio.config@1.0_genc++_headers/gen/android/hardware/radio/config/1.0/hwtypes.h"
  },
  {
   "function_name" : "android::hardware::radio::config::V1_0::IRadioConfigIndication::getService",
   "linker_set_key" : "_ZN7android8hardware5radio6config4V1_022IRadioConfigIndication10getServiceERKNSt3__112basic_stringIcNS5_11char_traitsIcEENS5_9allocatorIcEEEEb",
   "parameters" :
   [
    {
     "default_arg" : true,
     "referenced_type" : "type-853"
    },
    {
     "default_arg" : true,
     "referenced_type" : "type-13"
    }
   ],
   "return_type" : "type-809",
   "source_file" : "/out/soong/.intermediates/hardware/interfaces/radio/config/1.0/android.hardware.radio.config@1.0_genc++_headers/gen/android/hardware/radio/config/1.0/IRadioConfigIndication.h"
  },
  {
   "function_name" : "android::hardware::radio::config::V1_0::IRadioConfigIndication::linkToDeath",
   "linker_set_key" : "_ZN7android8hardware5radio6config4V1_022IRadioConfigIndication11linkToDeathERKNS_2spINS0_20hidl_death_recipientEEEy",
   "parameters" :
   [
    {
     "is_this_ptr" : true,
     "referenced_type" : "type-810"
    },
    {
     "referenced_type" : "type-1727"
    },
    {
     "referenced_type" : "type-12"
    }
   ],
   "return_type" : "type-1821",
   "source_file" : "/out/soong/.intermediates/hardware/interfaces/radio/config/1.0/android.hardware.radio.config@1.0_genc++_headers/gen/android/hardware/radio/config/1.0/IRadioConfigIndication.h"
  },
  {
   "function_name" : "android::hardware::radio::config::V1_0::IRadioConfigIndication::getDebugInfo",
   "linker_set_key" : "_ZN7android8hardware5radio6config4V1_022IRadioConfigIndication12getDebugInfoENSt3__18functionIFvRKNS_4hidl4base4V1_09DebugInfoEEEE",
   "parameters" :
   [
    {
     "is_this_ptr" : true,
     "referenced_type" : "type-810"
    },
    {
     "referenced_type" : "type-1951"
    }
   ],
   "return_type" : "type-1839",
   "source_file" : "/out/soong/.intermediates/hardware/interfaces/radio/config/1.0/android.hardware.radio.config@1.0_genc++_headers/gen/android/hardware/radio/config/1.0/IRadioConfigIndication.h"
  },
  {
   "function_name" : "android::hardware::radio::config::V1_0::IRadioConfigIndication::getHashChain",
   "linker_set_key" : "_ZN7android8hardware5radio6config4V1_022IRadioConfigIndication12getHashChainENSt3__18functionIFvRKNS0_8hidl_vecINS0_10hidl_arrayIhLj32EJEEEEEEEE",
   "parameters" :
   [
    {
     "is_this_ptr" : true,
     "referenced_type" : "type-810"
    },
    {
     "referenced_type" : "type-1952"
    }
   ],
   "return_type" : "type-1839",
   "source_file" : "/out/soong/.intermediates/hardware/interfaces/radio/config/1.0/android.hardware.radio.config@1.0_genc++_headers/gen/android/hardware/radio/config/1.0/IRadioConfigIndication.h"
  },
  {
   "function_name" : "android::hardware::radio::config::V1_0::IRadioConfigIndication::tryGetService",
   "linker_set_key" : "_ZN7android8hardware5radio6config4V1_022IRadioConfigIndication13tryGetServiceERKNSt3__112basic_stringIcNS5_11char_traitsIcEENS5_9allocatorIcEEEEb",
   "parameters" :
   [
    {
     "default_arg" : true,
     "referenced_type" : "type-853"
    },
    {
     "default_arg" : true,
     "referenced_type" : "type-13"
    }
   ],
   "return_type" : "type-809",
   "source_file" : "/out/soong/.intermediates/hardware/interfaces/radio/config/1.0/android.hardware.radio.config@1.0_genc++_headers/gen/android/hardware/radio/config/1.0/IRadioConfigIndication.h"
  },
  {
   "function_name" : "android::hardware::radio::config::V1_0::IRadioConfigIndication::unlinkToDeath",
   "linker_set_key" : "_ZN7android8hardware5radio6config4V1_022IRadioConfigIndication13unlinkToDeathERKNS_2spINS0_20hidl_death_recipientEEE",
   "parameters" :
   [
    {
     "is_this_ptr" : true,
     "referenced_type" : "type-810"
    },
    {
     "referenced_type" : "type-1727"
    }
   ],
   "return_type" : "type-1821",
   "source_file" : "/out/soong/.intermediates/hardware/interfaces/radio/config/1.0/android.hardware.radio.config@1.0_genc++_headers/gen/android/hardware/radio/config/1.0/IRadioConfigIndication.h"
  },
  {
   "function_name" : "android::hardware::radio::config::V1_0::IRadioConfigIndication::interfaceChain",
   "linker_set_key" : "_ZN7android8hardware5radio6config4V1_022IRadioConfigIndication14interfaceChainENSt3__18functionIFvRKNS0_8hidl_vecINS0_11hidl_stringEEEEEE",
   "parameters" :
   [
    {
     "is_this_ptr" : true,
     "referenced_type" : "type-810"
    },
    {
     "referenced_type" : "type-1953"
    }
   ],
   "return_type" : "type-1839",
   "source_file" : "/out/soong/.intermediates/hardware/interfaces/radio/config/1.0/android.hardware.radio.config@1.0_genc++_headers/gen/android/hardware/radio/config/1.0/IRadioConfigIndication.h"
  },
  {
   "function_name" : "android::hardware::radio::config::V1_0::IRadioConfigIndication::registerAsService",
   "linker_set_key" : "_ZN7android8hardware5radio6config4V1_022IRadioConfigIndication17registerAsServiceERKNSt3__112basic_stringIcNS5_11char_traitsIcEENS5_9allocatorIcEEEE",
   "parameters" :
   [
    {
     "is_this_ptr" : true,
     "referenced_type" : "type-810"
    },
    {
     "default_arg" : true,
     "referenced_type" : "type-853"
    }
   ],
   "return_type" : "type-14",
   "source_file" : "/out/soong/.intermediates/hardware/interfaces/radio/config/1.0/android.hardware.radio.config@1.0_genc++_headers/gen/android/hardware/radio/config/1.0/IRadioConfigIndication.h"
  },
  {
   "function_name" : "android::hardware::radio::config::V1_0::IRadioConfigIndication::interfaceDescriptor",
   "linker_set_key" : "_ZN7android8hardware5radio6config4V1_022IRadioConfigIndication19interfaceDescriptorENSt3__18functionIFvRKNS0_11hidl_stringEEEE",
   "parameters" :
   [
    {
     "is_this_ptr" : true,
     "referenced_type" : "type-810"
    },
    {
     "referenced_type" : "type-1954"
    }
   ],
   "return_type" : "type-1839",
   "source_file" : "/out/soong/.intermediates/hardware/interfaces/radio/config/1.0/android.hardware.radio.config@1.0_genc++_headers/gen/android/hardware/radio/config/1.0/IRadioConfigIndication.h"
  },
  {
   "function_name" : "android::hardware::radio::config::V1_0::IRadioConfigIndication::notifySyspropsChanged",
   "linker_set_key" : "_ZN7android8hardware5radio6config4V1_022IRadioConfigIndication21notifySyspropsChangedEv",
   "parameters" :
   [
    {
     "is_this_ptr" : true,
     "referenced_type" : "type-810"
    }
   ],
   "return_type" : "type-1839",
   "source_file" : "/out/soong/.intermediates/hardware/interfaces/radio/config/1.0/android.hardware.radio.config@1.0_genc++_headers/gen/android/hardware/radio/config/1.0/IRadioConfigIndication.h"
  },
  {
   "function_name" : "android::hardware::radio::config::V1_0::IRadioConfigIndication::setHALInstrumentation",
   "linker_set_key" : "_ZN7android8hardware5radio6config4V1_022IRadioConfigIndication21setHALInstrumentationEv",
   "parameters" :
   [
    {
     "is_this_ptr" : true,
     "referenced_type" : "type-810"
    }
   ],
   "return_type" : "type-1839",
   "source_file" : "/out/soong/.intermediates/hardware/interfaces/radio/config/1.0/android.hardware.radio.config@1.0_genc++_headers/gen/android/hardware/radio/config/1.0/IRadioConfigIndication.h"
  },
  {
   "function_name" : "android::hardware::radio::config::V1_0::IRadioConfigIndication::registerForNotifications",
   "linker_set_key" : "_ZN7android8hardware5radio6config4V1_022IRadioConfigIndication24registerForNotificationsERKNSt3__112basic_stringIcNS5_11char_traitsIcEENS5_9allocatorIcEEEERKNS_2spINS_4hidl7manager4V1_020IServiceNotificationEEE",
   "parameters" :
   [
    {
     "referenced_type" : "type-853"
    },
    {
     "referenced_type" : "type-1561"
    }
   ],
   "return_type" : "type-13",
   "source_file" : "/out/soong/.intermediates/hardware/interfaces/radio/config/1.0/android.hardware.radio.config@1.0_genc++_headers/gen/android/hardware/radio/config/1.0/IRadioConfigIndication.h"
  },
  {
   "function_name" : "android::hardware::radio::config::V1_0::IRadioConfigIndication::ping",
   "linker_set_key" : "_ZN7android8hardware5radio6config4V1_022IRadioConfigIndication4pingEv",
   "parameters" :
   [
    {
     "is_this_ptr" : true,
     "referenced_type" : "type-810"
    }
   ],
   "return_type" : "type-1839",
   "source_file" : "/out/soong/.intermediates/hardware/interfaces/radio/config/1.0/android.hardware.radio.config@1.0_genc++_headers/gen/android/hardware/radio/config/1.0/IRadioConfigIndication.h"
  },
  {
   "function_name" : "android::hardware::radio::config::V1_0::IRadioConfigIndication::debug",
   "linker_set_key" : "_ZN7android8hardware5radio6config4V1_022IRadioConfigIndication5debugERKNS0_11hidl_handleERKNS0_8hidl_vecINS0_11hidl_stringEEE",
   "parameters" :
   [
    {
     "is_this_ptr" : true,
     "referenced_type" : "type-810"
    },
    {
     "referenced_type" : "type-390"
    },
    {
     "referenced_type" : "type-1560"
    }
   ],
   "return_type" : "type-1839",
   "source_file" : "/out/soong/.intermediates/hardware/interfaces/radio/config/1.0/android.hardware.radio.config@1.0_genc++_headers/gen/android/hardware/radio/config/1.0/IRadioConfigIndication.h"
  },
  {
   "function_name" : "android::hardware::radio::config::V1_0::IRadioConfigIndication::castFrom",
   "linker_set_key" : "_ZN7android8hardware5radio6config4V1_022IRadioConfigIndication8castFromERKNS_2spINS_4hidl4base4V1_05IBaseEEEb",
   "parameters" :
   [
    {
     "referenced_type" : "type-1739"
    },
    {
     "default_arg" : true,
     "referenced_type" : "type-13"
    }
   ],
   "return_type" : "type-815",
   "source_file" : "/out/soong/.intermediates/hardware/interfaces/radio/config/1.0/android.hardware.radio.config@1.0_genc++_headers/gen/android/hardware/radio/config/1.0/IRadioConfigIndication.h"
  },
  {
   "function_name" : "android::hardware::radio::config::V1_0::IRadioConfigIndication::castFrom",
   "linker_set_key" : "_ZN7android8hardware5radio6config4V1_022IRadioConfigIndication8castFromERKNS_2spIS4_EEb",
   "parameters" :
   [
    {
     "referenced_type" : "type-1744"
    },
    {
     "default_arg" : true,
     "referenced_type" : "type-13"
    }
   ],
   "return_type" : "type-815",
   "source_file" : "/out/soong/.intermediates/hardware/interfaces/radio/config/1.0/android.hardware.radio.config@1.0_genc++_headers/gen/android/hardware/radio/config/1.0/IRadioConfigIndication.h"
  },
  {
   "function_name" : "android::hardware::radio::config::V1_0::readEmbeddedFromParcel",
   "linker_set_key" : "_ZN7android8hardware5radio6config4V1_022readEmbeddedFromParcelERKNS3_13SimSlotStatusERKNS0_6ParcelEjj",
   "parameters" :
   [
    {
     "referenced_type" : "type-802"
    },
    {
     "referenced_type" : "type-458"
    },
    {
     "referenced_type" : "type-2"
    },
    {
     "referenced_type" : "type-2"
    }
   ],
   "return_type" : "type-14",
   "source_file" : "/out/soong/.intermediates/hardware/interfaces/radio/config/1.0/android.hardware.radio.config@1.0_genc++_headers/gen/android/hardware/radio/config/1.0/hwtypes.h"
  },
  {
   "function_name" : "android::hardware::radio::config::V1_0::BnHwRadioConfigResponse::onTransact",
   "linker_set_key" : "_ZN7android8hardware5radio6config4V1_023BnHwRadioConfigResponse10onTransactEjRKNS0_6ParcelEPS5_jNSt3__18functionIFvRS5_EEE",
   "parameters" :
   [
    {
     "is_this_ptr" : true,
     "referenced_type" : "type-1583"
    },
    {
     "referenced_type" : "type-2"
    },
    {
     "referenced_type" : "type-458"
    },
    {
     "referenced_type" : "type-448"
    },
    {
     "default_arg" : true,
     "referenced_type" : "type-2"
    },
    {
     "default_arg" : true,
     "referenced_type" : "type-1955"
    }
   ],
   "return_type" : "type-14",
   "source_file" : "/out/soong/.intermediates/hardware/interfaces/radio/config/1.0/android.hardware.radio.config@1.0_genc++_headers/gen/android/hardware/radio/config/1.0/BnHwRadioConfigResponse.h"
  },
  {
   "access" : "private",
   "function_name" : "android::hardware::radio::config::V1_0::BnHwRadioConfigResponse::getDebugInfo",
   "linker_set_key" : "_ZN7android8hardware5radio6config4V1_023BnHwRadioConfigResponse12getDebugInfoENSt3__18functionIFvRKNS_4hidl4base4V1_09DebugInfoEEEE",
   "parameters" :
   [
    {
     "is_this_ptr" : true,
     "referenced_type" : "type-1583"
    },
    {
     "referenced_type" : "type-1956"
    }
   ],
   "return_type" : "type-1839",
   "source_file" : "/out/soong/.intermediates/hardware/interfaces/radio/config/1.0/android.hardware.radio.config@1.0_genc++_headers/gen/android/hardware/radio/config/1.0/BnHwRadioConfigResponse.h"
  },
  {
   "function_name" : "android::hardware::radio::config::V1_0::BnHwRadioConfigResponse::_hidl_getSimSlotsStatusResponse",
   "linker_set_key" : "_ZN7android8hardware5radio6config4V1_023BnHwRadioConfigResponse31_hidl_getSimSlotsStatusResponseEPNS_4hidl4base4V1_08BnHwBaseERKNS0_6ParcelEPSA_NSt3__18functionIFvRSA_EEE",
   "parameters" :
   [
    {
     "referenced_type" : "type-462"
    },
    {
     "referenced_type" : "type-458"
    },
    {
     "referenced_type" : "type-448"
    },
    {
     "referenced_type" : "type-1957"
    }
   ],
   "return_type" : "type-14",
   "source_file" : "/out/soong/.intermediates/hardware/interfaces/radio/config/1.0/android.hardware.radio.config@1.0_genc++_headers/gen/android/hardware/radio/config/1.0/BnHwRadioConfigResponse.h"
  },
  {
   "function_name" : "android::hardware::radio::config::V1_0::BnHwRadioConfigResponse::_hidl_setSimSlotsMappingResponse",
   "linker_set_key" : "_ZN7android8hardware5radio6config4V1_023BnHwRadioConfigResponse32_hidl_setSimSlotsMappingResponseEPNS_4hidl4base4V1_08BnHwBaseERKNS0_6ParcelEPSA_NSt3__18functionIFvRSA_EEE",
   "parameters" :
   [
    {
     "referenced_type" : "type-462"
    },
    {
     "referenced_type" : "type-458"
    },
    {
     "referenced_type" : "type-448"
    },
    {
     "referenced_type" : "type-1958"
    }
   ],
   "return_type" : "type-14",
   "source_file" : "/out/soong/.intermediates/hardware/interfaces/radio/config/1.0/android.hardware.radio.config@1.0_genc++_headers/gen/android/hardware/radio/config/1.0/BnHwRadioConfigResponse.h"
  },
  {
   "access" : "private",
   "function_name" : "android::hardware::radio::config::V1_0::BnHwRadioConfigResponse::ping",
   "linker_set_key" : "_ZN7android8hardware5radio6config4V1_023BnHwRadioConfigResponse4pingEv",
   "parameters" :
   [
    {
     "is_this_ptr" : true,
     "referenced_type" : "type-1583"
    }
   ],
   "return_type" : "type-1839",
   "source_file" : "/out/soong/.intermediates/hardware/interfaces/radio/config/1.0/android.hardware.radio.config@1.0_genc++_headers/gen/android/hardware/radio/config/1.0/BnHwRadioConfigResponse.h"
  },
  {
   "function_name" : "android::hardware::radio::config::V1_0::BnHwRadioConfigResponse::BnHwRadioConfigResponse",
   "linker_set_key" : "_ZN7android8hardware5radio6config4V1_023BnHwRadioConfigResponseC1ERKNS_2spINS3_20IRadioConfigResponseEEE",
   "parameters" :
   [
    {
     "is_this_ptr" : true,
     "referenced_type" : "type-1583"
    },
    {
     "referenced_type" : "type-1743"
    }
   ],
   "return_type" : "type-385",
   "source_file" : "/out/soong/.intermediates/hardware/interfaces/radio/config/1.0/android.hardware.radio.config@1.0_genc++_headers/gen/android/hardware/radio/config/1.0/BnHwRadioConfigResponse.h"
  },
  {
   "function_name" : "android::hardware::radio::config::V1_0::BnHwRadioConfigResponse::BnHwRadioConfigResponse",
   "linker_set_key" : "_ZN7android8hardware5radio6config4V1_023BnHwRadioConfigResponseC2ERKNS_2spINS3_20IRadioConfigResponseEEE",
   "parameters" :
   [
    {
     "is_this_ptr" : true,
     "referenced_type" : "type-1583"
    },
    {
     "referenced_type" : "type-1743"
    }
   ],
   "return_type" : "type-385",
   "source_file" : "/out/soong/.intermediates/hardware/interfaces/radio/config/1.0/android.hardware.radio.config@1.0_genc++_headers/gen/android/hardware/radio/config/1.0/BnHwRadioConfigResponse.h"
  },
  {
   "function_name" : "android::hardware::radio::config::V1_0::BnHwRadioConfigResponse::~BnHwRadioConfigResponse",
   "linker_set_key" : "_ZN7android8hardware5radio6config4V1_023BnHwRadioConfigResponseD0Ev",
   "parameters" :
   [
    {
     "is_this_ptr" : true,
     "referenced_type" : "type-1583"
    }
   ],
   "return_type" : "type-385",
   "source_file" : "/out/soong/.intermediates/hardware/interfaces/radio/config/1.0/android.hardware.radio.config@1.0_genc++_headers/gen/android/hardware/radio/config/1.0/BnHwRadioConfigResponse.h"
  },
  {
   "function_name" : "android::hardware::radio::config::V1_0::BnHwRadioConfigResponse::~BnHwRadioConfigResponse",
   "linker_set_key" : "_ZN7android8hardware5radio6config4V1_023BnHwRadioConfigResponseD1Ev",
   "parameters" :
   [
    {
     "is_this_ptr" : true,
     "referenced_type" : "type-1583"
    }
   ],
   "return_type" : "type-385",
   "source_file" : "/out/soong/.intermediates/hardware/interfaces/radio/config/1.0/android.hardware.radio.config@1.0_genc++_headers/gen/android/hardware/radio/config/1.0/BnHwRadioConfigResponse.h"
  },
  {
   "function_name" : "android::hardware::radio::config::V1_0::BnHwRadioConfigResponse::~BnHwRadioConfigResponse",
   "linker_set_key" : "_ZN7android8hardware5radio6config4V1_023BnHwRadioConfigResponseD2Ev",
   "parameters" :
   [
    {
     "is_this_ptr" : true,
     "referenced_type" : "type-1583"
    }
   ],
   "return_type" : "type-385",
   "source_file" : "/out/soong/.intermediates/hardware/interfaces/radio/config/1.0/android.hardware.radio.config@1.0_genc++_headers/gen/android/hardware/radio/config/1.0/BnHwRadioConfigResponse.h"
  },
  {
   "function_name" : "android::hardware::radio::config::V1_0::BpHwRadioConfigResponse::linkToDeath",
   "linker_set_key" : "_ZN7android8hardware5radio6config4V1_023BpHwRadioConfigResponse11linkToDeathERKNS_2spINS0_20hidl_death_recipientEEEy",
   "parameters" :
   [
    {
     "is_this_ptr" : true,
     "referenced_type" : "type-1799"
    },
    {
     "referenced_type" : "type-1727"
    },
    {
     "referenced_type" : "type-12"
    }
   ],
   "return_type" : "type-1821",
   "source_file" : "/out/soong/.intermediates/hardware/interfaces/radio/config/1.0/android.hardware.radio.config@1.0_genc++_headers/gen/android/hardware/radio/config/1.0/BpHwRadioConfigResponse.h"
  },
  {
   "function_name" : "android::hardware::radio::config::V1_0::BpHwRadioConfigResponse::getDebugInfo",
   "linker_set_key" : "_ZN7android8hardware5radio6config4V1_023BpHwRadioConfigResponse12getDebugInfoENSt3__18functionIFvRKNS_4hidl4base4V1_09DebugInfoEEEE",
   "parameters" :
   [
    {
     "is_this_ptr" : true,
     "referenced_type" : "type-1799"
    },
    {
     "referenced_type" : "type-1959"
    }
   ],
   "return_type" : "type-1839",
   "source_file" : "/out/soong/.intermediates/hardware/interfaces/radio/config/1.0/android.hardware.radio.config@1.0_genc++_headers/gen/android/hardware/radio/config/1.0/BpHwRadioConfigResponse.h"
  },
  {
   "function_name" : "android::hardware::radio::config::V1_0::BpHwRadioConfigResponse::getHashChain",
   "linker_set_key" : "_ZN7android8hardware5radio6config4V1_023BpHwRadioConfigResponse12getHashChainENSt3__18functionIFvRKNS0_8hidl_vecINS0_10hidl_arrayIhLj32EJEEEEEEEE",
   "parameters" :
   [
    {
     "is_this_ptr" : true,
     "referenced_type" : "type-1799"
    },
    {
     "referenced_type" : "type-1960"
    }
   ],
   "return_type" : "type-1839",
   "source_file" : "/out/soong/.intermediates/hardware/interfaces/radio/config/1.0/android.hardware.radio.config@1.0_genc++_headers/gen/android/hardware/radio/config/1.0/BpHwRadioConfigResponse.h"
  },
  {
   "function_name" : "android::hardware::radio::config::V1_0::BpHwRadioConfigResponse::unlinkToDeath",
   "linker_set_key" : "_ZN7android8hardware5radio6config4V1_023BpHwRadioConfigResponse13unlinkToDeathERKNS_2spINS0_20hidl_death_recipientEEE",
   "parameters" :
   [
    {
     "is_this_ptr" : true,
     "referenced_type" : "type-1799"
    },
    {
     "referenced_type" : "type-1727"
    }
   ],
   "return_type" : "type-1821",
   "source_file" : "/out/soong/.intermediates/hardware/interfaces/radio/config/1.0/android.hardware.radio.config@1.0_genc++_headers/gen/android/hardware/radio/config/1.0/BpHwRadioConfigResponse.h"
  },
  {
   "function_name" : "android::hardware::radio::config::V1_0::BpHwRadioConfigResponse::interfaceChain",
   "linker_set_key" : "_ZN7android8hardware5radio6config4V1_023BpHwRadioConfigResponse14interfaceChainENSt3__18functionIFvRKNS0_8hidl_vecINS0_11hidl_stringEEEEEE",
   "parameters" :
   [
    {
     "is_this_ptr" : true,
     "referenced_type" : "type-1799"
    },
    {
     "referenced_type" : "type-1961"
    }
   ],
   "return_type" : "type-1839",
   "source_file" : "/out/soong/.intermediates/hardware/interfaces/radio/config/1.0/android.hardware.radio.config@1.0_genc++_headers/gen/android/hardware/radio/config/1.0/BpHwRadioConfigResponse.h"
  },
  {
   "function_name" : "android::hardware::radio::config::V1_0::BpHwRadioConfigResponse::interfaceDescriptor",
   "linker_set_key" : "_ZN7android8hardware5radio6config4V1_023BpHwRadioConfigResponse19interfaceDescriptorENSt3__18functionIFvRKNS0_11hidl_stringEEEE",
   "parameters" :
   [
    {
     "is_this_ptr" : true,
     "referenced_type" : "type-1799"
    },
    {
     "referenced_type" : "type-1962"
    }
   ],
   "return_type" : "type-1839",
   "source_file" : "/out/soong/.intermediates/hardware/interfaces/radio/config/1.0/android.hardware.radio.config@1.0_genc++_headers/gen/android/hardware/radio/config/1.0/BpHwRadioConfigResponse.h"
  },
  {
   "function_name" : "android::hardware::radio::config::V1_0::BpHwRadioConfigResponse::notifySyspropsChanged",
   "linker_set_key" : "_ZN7android8hardware5radio6config4V1_023BpHwRadioConfigResponse21notifySyspropsChangedEv",
   "parameters" :
   [
    {
     "is_this_ptr" : true,
     "referenced_type" : "type-1799"
    }
   ],
   "return_type" : "type-1839",
   "source_file" : "/out/soong/.intermediates/hardware/interfaces/radio/config/1.0/android.hardware.radio.config@1.0_genc++_headers/gen/android/hardware/radio/config/1.0/BpHwRadioConfigResponse.h"
  },
  {
   "function_name" : "android::hardware::radio::config::V1_0::BpHwRadioConfigResponse::setHALInstrumentation",
   "linker_set_key" : "_ZN7android8hardware5radio6config4V1_023BpHwRadioConfigResponse21setHALInstrumentationEv",
   "parameters" :
   [
    {
     "is_this_ptr" : true,
     "referenced_type" : "type-1799"
    }
   ],
   "return_type" : "type-1839",
   "source_file" : "/out/soong/.intermediates/hardware/interfaces/radio/config/1.0/android.hardware.radio.config@1.0_genc++_headers/gen/android/hardware/radio/config/1.0/BpHwRadioConfigResponse.h"
  },
  {
   "function_name" : "android::hardware::radio::config::V1_0::BpHwRadioConfigResponse::getSimSlotsStatusResponse",
   "linker_set_key" : "_ZN7android8hardware5radio6config4V1_023BpHwRadioConfigResponse25getSimSlotsStatusResponseERKNS1_4V1_017RadioResponseInfoERKNS0_8hidl_vecINS3_13SimSlotStatusEEE",
   "parameters" :
   [
    {
     "is_this_ptr" : true,
     "referenced_type" : "type-1799"
    },
    {
     "referenced_type" : "type-1038"
    },
    {
     "referenced_type" : "type-837"
    }
   ],
   "return_type" : "type-1839",
   "source_file" : "/out/soong/.intermediates/hardware/interfaces/radio/config/1.0/android.hardware.radio.config@1.0_genc++_headers/gen/android/hardware/radio/config/1.0/BpHwRadioConfigResponse.h"
  },
  {
   "function_name" : "android::hardware::radio::config::V1_0::BpHwRadioConfigResponse::setSimSlotsMappingResponse",
   "linker_set_key" : "_ZN7android8hardware5radio6config4V1_023BpHwRadioConfigResponse26setSimSlotsMappingResponseERKNS1_4V1_017RadioResponseInfoE",
   "parameters" :
   [
    {
     "is_this_ptr" : true,
     "referenced_type" : "type-1799"
    },
    {
     "referenced_type" : "type-1038"
    }
   ],
   "return_type" : "type-1839",
   "source_file" : "/out/soong/.intermediates/hardware/interfaces/radio/config/1.0/android.hardware.radio.config@1.0_genc++_headers/gen/android/hardware/radio/config/1.0/BpHwRadioConfigResponse.h"
  },
  {
   "function_name" : "android::hardware::radio::config::V1_0::BpHwRadioConfigResponse::_hidl_getSimSlotsStatusResponse",
   "linker_set_key" : "_ZN7android8hardware5radio6config4V1_023BpHwRadioConfigResponse31_hidl_getSimSlotsStatusResponseEPNS0_10IInterfaceEPNS0_7details16HidlInstrumentorERKNS1_4V1_017RadioResponseInfoERKNS0_8hidl_vecINS3_13SimSlotStatusEEE",
   "parameters" :
   [
    {
     "referenced_type" : "type-1753"
    },
    {
     "referenced_type" : "type-1701"
    },
    {
     "referenced_type" : "type-1038"
    },
    {
     "referenced_type" : "type-837"
    }
   ],
   "return_type" : "type-1839",
   "source_file" : "/out/soong/.intermediates/hardware/interfaces/radio/config/1.0/android.hardware.radio.config@1.0_genc++_headers/gen/android/hardware/radio/config/1.0/BpHwRadioConfigResponse.h"
  },
  {
   "function_name" : "android::hardware::radio::config::V1_0::BpHwRadioConfigResponse::_hidl_setSimSlotsMappingResponse",
   "linker_set_key" : "_ZN7android8hardware5radio6config4V1_023BpHwRadioConfigResponse32_hidl_setSimSlotsMappingResponseEPNS0_10IInterfaceEPNS0_7details16HidlInstrumentorERKNS1_4V1_017RadioResponseInfoE",
   "parameters" :
   [
    {
     "referenced_type" : "type-1753"
    },
    {
     "referenced_type" : "type-1701"
    },
    {
     "referenced_type" : "type-1038"
    }
   ],
   "return_type" : "type-1839",
   "source_file" : "/out/soong/.intermediates/hardware/interfaces/radio/config/1.0/android.hardware.radio.config@1.0_genc++_headers/gen/android/hardware/radio/config/1.0/BpHwRadioConfigResponse.h"
  },
  {
   "function_name" : "android::hardware::radio::config::V1_0::BpHwRadioConfigResponse::ping",
   "linker_set_key" : "_ZN7android8hardware5radio6config4V1_023BpHwRadioConfigResponse4pingEv",
   "parameters" :
   [
    {
     "is_this_ptr" : true,
     "referenced_type" : "type-1799"
    }
   ],
   "return_type" : "type-1839",
   "source_file" : "/out/soong/.intermediates/hardware/interfaces/radio/config/1.0/android.hardware.radio.config@1.0_genc++_headers/gen/android/hardware/radio/config/1.0/BpHwRadioConfigResponse.h"
  },
  {
   "function_name" : "android::hardware::radio::config::V1_0::BpHwRadioConfigResponse::debug",
   "linker_set_key" : "_ZN7android8hardware5radio6config4V1_023BpHwRadioConfigResponse5debugERKNS0_11hidl_handleERKNS0_8hidl_vecINS0_11hidl_stringEEE",
   "parameters" :
   [
    {
     "is_this_ptr" : true,
     "referenced_type" : "type-1799"
    },
    {
     "referenced_type" : "type-390"
    },
    {
     "referenced_type" : "type-1560"
    }
   ],
   "return_type" : "type-1839",
   "source_file" : "/out/soong/.intermediates/hardware/interfaces/radio/config/1.0/android.hardware.radio.config@1.0_genc++_headers/gen/android/hardware/radio/config/1.0/BpHwRadioConfigResponse.h"
  },
  {
   "function_name" : "android::hardware::radio::config::V1_0::BpHwRadioConfigResponse::BpHwRadioConfigResponse",
   "linker_set_key" : "_ZN7android8hardware5radio6config4V1_023BpHwRadioConfigResponseC1ERKNS_2spINS0_7IBinderEEE",
   "parameters" :
   [
    {
     "is_this_ptr" : true,
     "referenced_type" : "type-1799"
    },
    {
     "referenced_type" : "type-1765"
    }
   ],
   "return_type" : "type-385",
   "source_file" : "/out/soong/.intermediates/hardware/interfaces/radio/config/1.0/android.hardware.radio.config@1.0_genc++_headers/gen/android/hardware/radio/config/1.0/BpHwRadioConfigResponse.h"
  },
  {
   "function_name" : "android::hardware::radio::config::V1_0::BpHwRadioConfigResponse::BpHwRadioConfigResponse",
   "linker_set_key" : "_ZN7android8hardware5radio6config4V1_023BpHwRadioConfigResponseC2ERKNS_2spINS0_7IBinderEEE",
   "parameters" :
   [
    {
     "is_this_ptr" : true,
     "referenced_type" : "type-1799"
    },
    {
     "referenced_type" : "type-1765"
    }
   ],
   "return_type" : "type-385",
   "source_file" : "/out/soong/.intermediates/hardware/interfaces/radio/config/1.0/android.hardware.radio.config@1.0_genc++_headers/gen/android/hardware/radio/config/1.0/BpHwRadioConfigResponse.h"
  },
  {
   "access" : "private",
   "function_name" : "android::hardware::radio::config::V1_0::BsRadioConfigIndication::addOnewayTask",
   "linker_set_key" : "_ZN7android8hardware5radio6config4V1_023BsRadioConfigIndication13addOnewayTaskENSt3__18functionIFvvEEE",
   "parameters" :
   [
    {
     "is_this_ptr" : true,
     "referenced_type" : "type-814"
    },
    {
     "referenced_type" : "type-1965"
    }
   ],
   "return_type" : "type-1839",
   "source_file" : "/out/soong/.intermediates/hardware/interfaces/radio/config/1.0/android.hardware.radio.config@1.0_genc++_headers/gen/android/hardware/radio/config/1.0/BsRadioConfigIndication.h"
  },
  {
   "function_name" : "android::hardware::radio::config::V1_0::BsRadioConfigIndication::BsRadioConfigIndication",
   "linker_set_key" : "_ZN7android8hardware5radio6config4V1_023BsRadioConfigIndicationC1ENS_2spINS3_22IRadioConfigIndicationEEE",
   "parameters" :
   [
    {
     "is_this_ptr" : true,
     "referenced_type" : "type-814"
    },
    {
     "referenced_type" : "type-808"
    }
   ],
   "return_type" : "type-385",
   "source_file" : "/out/soong/.intermediates/hardware/interfaces/radio/config/1.0/android.hardware.radio.config@1.0_genc++_headers/gen/android/hardware/radio/config/1.0/BsRadioConfigIndication.h"
  },
  {
   "function_name" : "android::hardware::radio::config::V1_0::BsRadioConfigIndication::BsRadioConfigIndication",
   "linker_set_key" : "_ZN7android8hardware5radio6config4V1_023BsRadioConfigIndicationC2ENS_2spINS3_22IRadioConfigIndicationEEE",
   "parameters" :
   [
    {
     "is_this_ptr" : true,
     "referenced_type" : "type-814"
    },
    {
     "referenced_type" : "type-808"
    }
   ],
   "return_type" : "type-385",
   "source_file" : "/out/soong/.intermediates/hardware/interfaces/radio/config/1.0/android.hardware.radio.config@1.0_genc++_headers/gen/android/hardware/radio/config/1.0/BsRadioConfigIndication.h"
  },
  {
   "function_name" : "android::hardware::radio::config::V1_0::BnHwRadioConfigIndication::onTransact",
   "linker_set_key" : "_ZN7android8hardware5radio6config4V1_025BnHwRadioConfigIndication10onTransactEjRKNS0_6ParcelEPS5_jNSt3__18functionIFvRS5_EEE",
   "parameters" :
   [
    {
     "is_this_ptr" : true,
     "referenced_type" : "type-1571"
    },
    {
     "referenced_type" : "type-2"
    },
    {
     "referenced_type" : "type-458"
    },
    {
     "referenced_type" : "type-448"
    },
    {
     "default_arg" : true,
     "referenced_type" : "type-2"
    },
    {
     "default_arg" : true,
     "referenced_type" : "type-1968"
    }
   ],
   "return_type" : "type-14",
   "source_file" : "/out/soong/.intermediates/hardware/interfaces/radio/config/1.0/android.hardware.radio.config@1.0_genc++_headers/gen/android/hardware/radio/config/1.0/BnHwRadioConfigIndication.h"
  },
  {
   "access" : "private",
   "function_name" : "android::hardware::radio::config::V1_0::BnHwRadioConfigIndication::getDebugInfo",
   "linker_set_key" : "_ZN7android8hardware5radio6config4V1_025BnHwRadioConfigIndication12getDebugInfoENSt3__18functionIFvRKNS_4hidl4base4V1_09DebugInfoEEEE",
   "parameters" :
   [
    {
     "is_this_ptr" : true,
     "referenced_type" : "type-1571"
    },
    {
     "referenced_type" : "type-1969"
    }
   ],
   "return_type" : "type-1839",
   "source_file" : "/out/soong/.intermediates/hardware/interfaces/radio/config/1.0/android.hardware.radio.config@1.0_genc++_headers/gen/android/hardware/radio/config/1.0/BnHwRadioConfigIndication.h"
  },
  {
   "function_name" : "android::hardware::radio::config::V1_0::BnHwRadioConfigIndication::_hidl_simSlotsStatusChanged",
   "linker_set_key" : "_ZN7android8hardware5radio6config4V1_025BnHwRadioConfigIndication27_hidl_simSlotsStatusChangedEPNS_4hidl4base4V1_08BnHwBaseERKNS0_6ParcelEPSA_NSt3__18functionIFvRSA_EEE",
   "parameters" :
   [
    {
     "referenced_type" : "type-462"
    },
    {
     "referenced_type" : "type-458"
    },
    {
     "referenced_type" : "type-448"
    },
    {
     "referenced_type" : "type-1970"
    }
   ],
   "return_type" : "type-14",
   "source_file" : "/out/soong/.intermediates/hardware/interfaces/radio/config/1.0/android.hardware.radio.config@1.0_genc++_headers/gen/android/hardware/radio/config/1.0/BnHwRadioConfigIndication.h"
  },
  {
   "access" : "private",
   "function_name" : "android::hardware::radio::config::V1_0::BnHwRadioConfigIndication::ping",
   "linker_set_key" : "_ZN7android8hardware5radio6config4V1_025BnHwRadioConfigIndication4pingEv",
   "parameters" :
   [
    {
     "is_this_ptr" : true,
     "referenced_type" : "type-1571"
    }
   ],
   "return_type" : "type-1839",
   "source_file" : "/out/soong/.intermediates/hardware/interfaces/radio/config/1.0/android.hardware.radio.config@1.0_genc++_headers/gen/android/hardware/radio/config/1.0/BnHwRadioConfigIndication.h"
  },
  {
   "function_name" : "android::hardware::radio::config::V1_0::BnHwRadioConfigIndication::BnHwRadioConfigIndication",
   "linker_set_key" : "_ZN7android8hardware5radio6config4V1_025BnHwRadioConfigIndicationC1ERKNS_2spINS3_22IRadioConfigIndicationEEE",
   "parameters" :
   [
    {
     "is_this_ptr" : true,
     "referenced_type" : "type-1571"
    },
    {
     "referenced_type" : "type-1744"
    }
   ],
   "return_type" : "type-385",
   "source_file" : "/out/soong/.intermediates/hardware/interfaces/radio/config/1.0/android.hardware.radio.config@1.0_genc++_headers/gen/android/hardware/radio/config/1.0/BnHwRadioConfigIndication.h"
  },
  {
   "function_name" : "android::hardware::radio::config::V1_0::BnHwRadioConfigIndication::BnHwRadioConfigIndication",
   "linker_set_key" : "_ZN7android8hardware5radio6config4V1_025BnHwRadioConfigIndicationC2ERKNS_2spINS3_22IRadioConfigIndicationEEE",
   "parameters" :
   [
    {
     "is_this_ptr" : true,
     "referenced_type" : "type-1571"
    },
    {
     "referenced_type" : "type-1744"
    }
   ],
   "return_type" : "type-385",
   "source_file" : "/out/soong/.intermediates/hardware/interfaces/radio/config/1.0/android.hardware.radio.config@1.0_genc++_headers/gen/android/hardware/radio/config/1.0/BnHwRadioConfigIndication.h"
  },
  {
   "function_name" : "android::hardware::radio::config::V1_0::BnHwRadioConfigIndication::~BnHwRadioConfigIndication",
   "linker_set_key" : "_ZN7android8hardware5radio6config4V1_025BnHwRadioConfigIndicationD0Ev",
   "parameters" :
   [
    {
     "is_this_ptr" : true,
     "referenced_type" : "type-1571"
    }
   ],
   "return_type" : "type-385",
   "source_file" : "/out/soong/.intermediates/hardware/interfaces/radio/config/1.0/android.hardware.radio.config@1.0_genc++_headers/gen/android/hardware/radio/config/1.0/BnHwRadioConfigIndication.h"
  },
  {
   "function_name" : "android::hardware::radio::config::V1_0::BnHwRadioConfigIndication::~BnHwRadioConfigIndication",
   "linker_set_key" : "_ZN7android8hardware5radio6config4V1_025BnHwRadioConfigIndicationD1Ev",
   "parameters" :
   [
    {
     "is_this_ptr" : true,
     "referenced_type" : "type-1571"
    }
   ],
   "return_type" : "type-385",
   "source_file" : "/out/soong/.intermediates/hardware/interfaces/radio/config/1.0/android.hardware.radio.config@1.0_genc++_headers/gen/android/hardware/radio/config/1.0/BnHwRadioConfigIndication.h"
  },
  {
   "function_name" : "android::hardware::radio::config::V1_0::BnHwRadioConfigIndication::~BnHwRadioConfigIndication",
   "linker_set_key" : "_ZN7android8hardware5radio6config4V1_025BnHwRadioConfigIndicationD2Ev",
   "parameters" :
   [
    {
     "is_this_ptr" : true,
     "referenced_type" : "type-1571"
    }
   ],
   "return_type" : "type-385",
   "source_file" : "/out/soong/.intermediates/hardware/interfaces/radio/config/1.0/android.hardware.radio.config@1.0_genc++_headers/gen/android/hardware/radio/config/1.0/BnHwRadioConfigIndication.h"
  },
  {
   "function_name" : "android::hardware::radio::config::V1_0::BpHwRadioConfigIndication::linkToDeath",
   "linker_set_key" : "_ZN7android8hardware5radio6config4V1_025BpHwRadioConfigIndication11linkToDeathERKNS_2spINS0_20hidl_death_recipientEEEy",
   "parameters" :
   [
    {
     "is_this_ptr" : true,
     "referenced_type" : "type-1792"
    },
    {
     "referenced_type" : "type-1727"
    },
    {
     "referenced_type" : "type-12"
    }
   ],
   "return_type" : "type-1821",
   "source_file" : "/out/soong/.intermediates/hardware/interfaces/radio/config/1.0/android.hardware.radio.config@1.0_genc++_headers/gen/android/hardware/radio/config/1.0/BpHwRadioConfigIndication.h"
  },
  {
   "function_name" : "android::hardware::radio::config::V1_0::BpHwRadioConfigIndication::getDebugInfo",
   "linker_set_key" : "_ZN7android8hardware5radio6config4V1_025BpHwRadioConfigIndication12getDebugInfoENSt3__18functionIFvRKNS_4hidl4base4V1_09DebugInfoEEEE",
   "parameters" :
   [
    {
     "is_this_ptr" : true,
     "referenced_type" : "type-1792"
    },
    {
     "referenced_type" : "type-1971"
    }
   ],
   "return_type" : "type-1839",
   "source_file" : "/out/soong/.intermediates/hardware/interfaces/radio/config/1.0/android.hardware.radio.config@1.0_genc++_headers/gen/android/hardware/radio/config/1.0/BpHwRadioConfigIndication.h"
  },
  {
   "function_name" : "android::hardware::radio::config::V1_0::BpHwRadioConfigIndication::getHashChain",
   "linker_set_key" : "_ZN7android8hardware5radio6config4V1_025BpHwRadioConfigIndication12getHashChainENSt3__18functionIFvRKNS0_8hidl_vecINS0_10hidl_arrayIhLj32EJEEEEEEEE",
   "parameters" :
   [
    {
     "is_this_ptr" : true,
     "referenced_type" : "type-1792"
    },
    {
     "referenced_type" : "type-1972"
    }
   ],
   "return_type" : "type-1839",
   "source_file" : "/out/soong/.intermediates/hardware/interfaces/radio/config/1.0/android.hardware.radio.config@1.0_genc++_headers/gen/android/hardware/radio/config/1.0/BpHwRadioConfigIndication.h"
  },
  {
   "function_name" : "android::hardware::radio::config::V1_0::BpHwRadioConfigIndication::unlinkToDeath",
   "linker_set_key" : "_ZN7android8hardware5radio6config4V1_025BpHwRadioConfigIndication13unlinkToDeathERKNS_2spINS0_20hidl_death_recipientEEE",
   "parameters" :
   [
    {
     "is_this_ptr" : true,
     "referenced_type" : "type-1792"
    },
    {
     "referenced_type" : "type-1727"
    }
   ],
   "return_type" : "type-1821",
   "source_file" : "/out/soong/.intermediates/hardware/interfaces/radio/config/1.0/android.hardware.radio.config@1.0_genc++_headers/gen/android/hardware/radio/config/1.0/BpHwRadioConfigIndication.h"
  },
  {
   "function_name" : "android::hardware::radio::config::V1_0::BpHwRadioConfigIndication::interfaceChain",
   "linker_set_key" : "_ZN7android8hardware5radio6config4V1_025BpHwRadioConfigIndication14interfaceChainENSt3__18functionIFvRKNS0_8hidl_vecINS0_11hidl_stringEEEEEE",
   "parameters" :
   [
    {
     "is_this_ptr" : true,
     "referenced_type" : "type-1792"
    },
    {
     "referenced_type" : "type-1973"
    }
   ],
   "return_type" : "type-1839",
   "source_file" : "/out/soong/.intermediates/hardware/interfaces/radio/config/1.0/android.hardware.radio.config@1.0_genc++_headers/gen/android/hardware/radio/config/1.0/BpHwRadioConfigIndication.h"
  },
  {
   "function_name" : "android::hardware::radio::config::V1_0::BpHwRadioConfigIndication::interfaceDescriptor",
   "linker_set_key" : "_ZN7android8hardware5radio6config4V1_025BpHwRadioConfigIndication19interfaceDescriptorENSt3__18functionIFvRKNS0_11hidl_stringEEEE",
   "parameters" :
   [
    {
     "is_this_ptr" : true,
     "referenced_type" : "type-1792"
    },
    {
     "referenced_type" : "type-1974"
    }
   ],
   "return_type" : "type-1839",
   "source_file" : "/out/soong/.intermediates/hardware/interfaces/radio/config/1.0/android.hardware.radio.config@1.0_genc++_headers/gen/android/hardware/radio/config/1.0/BpHwRadioConfigIndication.h"
  },
  {
   "function_name" : "android::hardware::radio::config::V1_0::BpHwRadioConfigIndication::notifySyspropsChanged",
   "linker_set_key" : "_ZN7android8hardware5radio6config4V1_025BpHwRadioConfigIndication21notifySyspropsChangedEv",
   "parameters" :
   [
    {
     "is_this_ptr" : true,
     "referenced_type" : "type-1792"
    }
   ],
   "return_type" : "type-1839",
   "source_file" : "/out/soong/.intermediates/hardware/interfaces/radio/config/1.0/android.hardware.radio.config@1.0_genc++_headers/gen/android/hardware/radio/config/1.0/BpHwRadioConfigIndication.h"
  },
  {
   "function_name" : "android::hardware::radio::config::V1_0::BpHwRadioConfigIndication::setHALInstrumentation",
   "linker_set_key" : "_ZN7android8hardware5radio6config4V1_025BpHwRadioConfigIndication21setHALInstrumentationEv",
   "parameters" :
   [
    {
     "is_this_ptr" : true,
     "referenced_type" : "type-1792"
    }
   ],
   "return_type" : "type-1839",
   "source_file" : "/out/soong/.intermediates/hardware/interfaces/radio/config/1.0/android.hardware.radio.config@1.0_genc++_headers/gen/android/hardware/radio/config/1.0/BpHwRadioConfigIndication.h"
  },
  {
   "function_name" : "android::hardware::radio::config::V1_0::BpHwRadioConfigIndication::simSlotsStatusChanged",
   "linker_set_key" : "_ZN7android8hardware5radio6config4V1_025BpHwRadioConfigIndication21simSlotsStatusChangedENS1_4V1_019RadioIndicationTypeERKNS0_8hidl_vecINS3_13SimSlotStatusEEE",
   "parameters" :
   [
    {
     "is_this_ptr" : true,
     "referenced_type" : "type-1792"
    },
    {
     "referenced_type" : "type-1030"
    },
    {
     "referenced_type" : "type-837"
    }
   ],
   "return_type" : "type-1839",
   "source_file" : "/out/soong/.intermediates/hardware/interfaces/radio/config/1.0/android.hardware.radio.config@1.0_genc++_headers/gen/android/hardware/radio/config/1.0/BpHwRadioConfigIndication.h"
  },
  {
   "function_name" : "android::hardware::radio::config::V1_0::BpHwRadioConfigIndication::_hidl_simSlotsStatusChanged",
   "linker_set_key" : "_ZN7android8hardware5radio6config4V1_025BpHwRadioConfigIndication27_hidl_simSlotsStatusChangedEPNS0_10IInterfaceEPNS0_7details16HidlInstrumentorENS1_4V1_019RadioIndicationTypeERKNS0_8hidl_vecINS3_13SimSlotStatusEEE",
   "parameters" :
   [
    {
     "referenced_type" : "type-1753"
    },
    {
     "referenced_type" : "type-1701"
    },
    {
     "referenced_type" : "type-1030"
    },
    {
     "referenced_type" : "type-837"
    }
   ],
   "return_type" : "type-1839",
   "source_file" : "/out/soong/.intermediates/hardware/interfaces/radio/config/1.0/android.hardware.radio.config@1.0_genc++_headers/gen/android/hardware/radio/config/1.0/BpHwRadioConfigIndication.h"
  },
  {
   "function_name" : "android::hardware::radio::config::V1_0::BpHwRadioConfigIndication::ping",
   "linker_set_key" : "_ZN7android8hardware5radio6config4V1_025BpHwRadioConfigIndication4pingEv",
   "parameters" :
   [
    {
     "is_this_ptr" : true,
     "referenced_type" : "type-1792"
    }
   ],
   "return_type" : "type-1839",
   "source_file" : "/out/soong/.intermediates/hardware/interfaces/radio/config/1.0/android.hardware.radio.config@1.0_genc++_headers/gen/android/hardware/radio/config/1.0/BpHwRadioConfigIndication.h"
  },
  {
   "function_name" : "android::hardware::radio::config::V1_0::BpHwRadioConfigIndication::debug",
   "linker_set_key" : "_ZN7android8hardware5radio6config4V1_025BpHwRadioConfigIndication5debugERKNS0_11hidl_handleERKNS0_8hidl_vecINS0_11hidl_stringEEE",
   "parameters" :
   [
    {
     "is_this_ptr" : true,
     "referenced_type" : "type-1792"
    },
    {
     "referenced_type" : "type-390"
    },
    {
     "referenced_type" : "type-1560"
    }
   ],
   "return_type" : "type-1839",
   "source_file" : "/out/soong/.intermediates/hardware/interfaces/radio/config/1.0/android.hardware.radio.config@1.0_genc++_headers/gen/android/hardware/radio/config/1.0/BpHwRadioConfigIndication.h"
  },
  {
   "function_name" : "android::hardware::radio::config::V1_0::BpHwRadioConfigIndication::BpHwRadioConfigIndication",
   "linker_set_key" : "_ZN7android8hardware5radio6config4V1_025BpHwRadioConfigIndicationC1ERKNS_2spINS0_7IBinderEEE",
   "parameters" :
   [
    {
     "is_this_ptr" : true,
     "referenced_type" : "type-1792"
    },
    {
     "referenced_type" : "type-1765"
    }
   ],
   "return_type" : "type-385",
   "source_file" : "/out/soong/.intermediates/hardware/interfaces/radio/config/1.0/android.hardware.radio.config@1.0_genc++_headers/gen/android/hardware/radio/config/1.0/BpHwRadioConfigIndication.h"
  },
  {
   "function_name" : "android::hardware::radio::config::V1_0::BpHwRadioConfigIndication::BpHwRadioConfigIndication",
   "linker_set_key" : "_ZN7android8hardware5radio6config4V1_025BpHwRadioConfigIndicationC2ERKNS_2spINS0_7IBinderEEE",
   "parameters" :
   [
    {
     "is_this_ptr" : true,
     "referenced_type" : "type-1792"
    },
    {
     "referenced_type" : "type-1765"
    }
   ],
   "return_type" : "type-385",
   "source_file" : "/out/soong/.intermediates/hardware/interfaces/radio/config/1.0/android.hardware.radio.config@1.0_genc++_headers/gen/android/hardware/radio/config/1.0/BpHwRadioConfigIndication.h"
  },
  {
   "function_name" : "android::hardware::details::castInterface",
   "linker_set_key" : "_ZN7android8hardware7details13castInterfaceINS0_5radio6config4V1_012IRadioConfigENS_4hidl4base4V1_05IBaseENS5_15BpHwRadioConfigEEENS0_6ReturnINS_2spIT_EEEENSD_IT0_EEPKcb",
   "parameters" :
   [
    {
     "referenced_type" : "type-464"
    },
    {
     "referenced_type" : "type-9"
    },
    {
     "referenced_type" : "type-13"
    }
   ],
   "return_type" : "type-1827",
   "source_file" : "/system/libhidl/transport/include/hidl/HidlTransportSupport.h",
   "template_args" : [ "type-440", "type-441", "type-1591" ]
  },
  {
   "function_name" : "android::hardware::details::castInterface",
   "linker_set_key" : "_ZN7android8hardware7details13castInterfaceINS0_5radio6config4V1_020IRadioConfigResponseENS_4hidl4base4V1_05IBaseENS5_23BpHwRadioConfigResponseEEENS0_6ReturnINS_2spIT_EEEENSD_IT0_EEPKcb",
   "parameters" :
   [
    {
     "referenced_type" : "type-464"
    },
    {
     "referenced_type" : "type-9"
    },
    {
     "referenced_type" : "type-13"
    }
   ],
   "return_type" : "type-1064",
   "source_file" : "/system/libhidl/transport/include/hidl/HidlTransportSupport.h",
   "template_args" : [ "type-1058", "type-441", "type-1586" ]
  },
  {
   "function_name" : "android::hardware::details::castInterface",
   "linker_set_key" : "_ZN7android8hardware7details13castInterfaceINS0_5radio6config4V1_022IRadioConfigIndicationENS_4hidl4base4V1_05IBaseENS5_25BpHwRadioConfigIndicationEEENS0_6ReturnINS_2spIT_EEEENSD_IT0_EEPKcb",
   "parameters" :
   [
    {
     "referenced_type" : "type-464"
    },
    {
     "referenced_type" : "type-9"
    },
    {
     "referenced_type" : "type-13"
    }
   ],
   "return_type" : "type-815",
   "source_file" : "/system/libhidl/transport/include/hidl/HidlTransportSupport.h",
   "template_args" : [ "type-811", "type-441", "type-1574" ]
  },
  {
   "function_name" : "android::hardware::details::wrapPassthrough",
   "linker_set_key" : "_ZN7android8hardware7details15wrapPassthroughINS0_5radio6config4V1_020IRadioConfigResponseEvEENS_2spIT_EES9_",
   "parameters" :
   [
    {
     "referenced_type" : "type-1056"
    }
   ],
   "return_type" : "type-1056",
   "source_file" : "/system/libhidl/transport/include/hidl/HidlPassthroughSupport.h",
   "template_args" : [ "type-1058", "type-385" ]
  },
  {
   "function_name" : "android::hardware::details::wrapPassthrough",
   "linker_set_key" : "_ZN7android8hardware7details15wrapPassthroughINS0_5radio6config4V1_022IRadioConfigIndicationEvEENS_2spIT_EES9_",
   "parameters" :
   [
    {
     "referenced_type" : "type-809"
    }
   ],
   "return_type" : "type-809",
   "source_file" : "/system/libhidl/transport/include/hidl/HidlPassthroughSupport.h",
   "template_args" : [ "type-811", "type-385" ]
  },
  {
   "function_name" : "android::hardware::details::getServiceInternal",
   "linker_set_key" : "_ZN7android8hardware7details18getServiceInternalINS0_5radio6config4V1_015BpHwRadioConfigENS5_12IRadioConfigEvvEENS_2spIT0_EERKNSt3__112basic_stringIcNSB_11char_traitsIcEENSB_9allocatorIcEEEEbb",
   "parameters" :
   [
    {
     "referenced_type" : "type-474"
    },
    {
     "referenced_type" : "type-13"
    },
    {
     "referenced_type" : "type-13"
    }
   ],
   "return_type" : "type-1704",
   "source_file" : "/system/libhidl/transport/include/hidl/HidlTransportSupport.h",
   "template_args" : [ "type-1591", "type-440", "type-385", "type-385" ]
  },
  {
   "function_name" : "android::hardware::details::getServiceInternal",
   "linker_set_key" : "_ZN7android8hardware7details18getServiceInternalINS0_5radio6config4V1_023BpHwRadioConfigResponseENS5_20IRadioConfigResponseEvvEENS_2spIT0_EERKNSt3__112basic_stringIcNSB_11char_traitsIcEENSB_9allocatorIcEEEEbb",
   "parameters" :
   [
    {
     "referenced_type" : "type-1108"
    },
    {
     "referenced_type" : "type-13"
    },
    {
     "referenced_type" : "type-13"
    }
   ],
   "return_type" : "type-1056",
   "source_file" : "/system/libhidl/transport/include/hidl/HidlTransportSupport.h",
   "template_args" : [ "type-1586", "type-1058", "type-385", "type-385" ]
  },
  {
   "function_name" : "android::hardware::details::getServiceInternal",
   "linker_set_key" : "_ZN7android8hardware7details18getServiceInternalINS0_5radio6config4V1_025BpHwRadioConfigIndicationENS5_22IRadioConfigIndicationEvvEENS_2spIT0_EERKNSt3__112basic_stringIcNSB_11char_traitsIcEENSB_9allocatorIcEEEEbb",
   "parameters" :
   [
    {
     "referenced_type" : "type-853"
    },
    {
     "referenced_type" : "type-13"
    },
    {
     "referenced_type" : "type-13"
    }
   ],
   "return_type" : "type-809",
   "source_file" : "/system/libhidl/transport/include/hidl/HidlTransportSupport.h",
   "template_args" : [ "type-1574", "type-811", "type-385", "type-385" ]
  }
 ],
 "global_vars" :
 [
  {
   "linker_set_key" : "_ZN7android8hardware5radio6config4V1_012IRadioConfig10descriptorE",
   "name" : "android::hardware::radio::config::V1_0::IRadioConfig::descriptor",
   "referenced_type" : "type-9",
   "source_file" : "/out/soong/.intermediates/hardware/interfaces/radio/config/1.0/android.hardware.radio.config@1.0_genc++_headers/gen/android/hardware/radio/config/1.0/IRadioConfig.h"
  },
  {
   "linker_set_key" : "_ZN7android8hardware5radio6config4V1_020IRadioConfigResponse10descriptorE",
   "name" : "android::hardware::radio::config::V1_0::IRadioConfigResponse::descriptor",
   "referenced_type" : "type-9",
   "source_file" : "/out/soong/.intermediates/hardware/interfaces/radio/config/1.0/android.hardware.radio.config@1.0_genc++_headers/gen/android/hardware/radio/config/1.0/IRadioConfigResponse.h"
  },
  {
   "linker_set_key" : "_ZN7android8hardware5radio6config4V1_022IRadioConfigIndication10descriptorE",
   "name" : "android::hardware::radio::config::V1_0::IRadioConfigIndication::descriptor",
   "referenced_type" : "type-9",
   "source_file" : "/out/soong/.intermediates/hardware/interfaces/radio/config/1.0/android.hardware.radio.config@1.0_genc++_headers/gen/android/hardware/radio/config/1.0/IRadioConfigIndication.h"
  }
 ],
 "lvalue_reference_types" :
 [
  {
   "alignment" : 4,
   "linker_set_key" : "android::Mutex &",
   "name" : "android::Mutex &",
   "referenced_type" : "type-556",
   "self_type" : "type-561",
   "size" : 4,
   "source_file" : "/system/core/libutils/include/utils/Mutex.h"
  },
  {
   "alignment" : 4,
   "linker_set_key" : "android::RWLock &",
   "name" : "android::RWLock &",
   "referenced_type" : "type-567",
   "self_type" : "type-571",
   "size" : 4,
   "source_file" : "/system/core/libutils/include/utils/RWLock.h"
  },
  {
   "alignment" : 4,
   "linker_set_key" : "android::String16 &",
   "name" : "android::String16 &",
   "referenced_type" : "type-420",
   "self_type" : "type-426",
   "size" : 4,
   "source_file" : "/system/core/libutils/include/utils/String16.h"
  },
  {
   "alignment" : 4,
   "linker_set_key" : "android::String8 &",
   "name" : "android::String8 &",
   "referenced_type" : "type-411",
   "self_type" : "type-414",
   "size" : 4,
   "source_file" : "/system/core/libutils/include/utils/String8.h"
  },
  {
   "alignment" : 4,
   "linker_set_key" : "android::hardware::Return<android::sp<android::hardware::radio::config::V1_0::IRadioConfig> > &",
   "name" : "android::hardware::Return<android::sp<android::hardware::radio::config::V1_0::IRadioConfig> > &",
   "referenced_type" : "type-1827",
   "self_type" : "type-1830",
   "size" : 4,
   "source_file" : "/system/libhidl/base/include/hidl/Status.h"
  },
  {
   "alignment" : 4,
   "linker_set_key" : "android::hardware::Return<android::sp<android::hardware::radio::config::V1_0::IRadioConfigIndication> > &",
   "name" : "android::hardware::Return<android::sp<android::hardware::radio::config::V1_0::IRadioConfigIndication> > &",
   "referenced_type" : "type-815",
   "self_type" : "type-821",
   "size" : 4,
   "source_file" : "/system/libhidl/base/include/hidl/Status.h"
  },
  {
   "alignment" : 4,
   "linker_set_key" : "android::hardware::Return<android::sp<android::hardware::radio::config::V1_0::IRadioConfigResponse> > &",
   "name" : "android::hardware::Return<android::sp<android::hardware::radio::config::V1_0::IRadioConfigResponse> > &",
   "referenced_type" : "type-1064",
   "self_type" : "type-1067",
   "size" : 4,
   "source_file" : "/system/libhidl/base/include/hidl/Status.h"
  },
  {
   "alignment" : 4,
   "linker_set_key" : "android::hardware::Return<bool> &",
   "name" : "android::hardware::Return<bool> &",
   "referenced_type" : "type-1821",
   "self_type" : "type-1824",
   "size" : 4,
   "source_file" : "/system/libhidl/base/include/hidl/Status.h"
  },
  {
   "alignment" : 4,
   "linker_set_key" : "android::hardware::Return<void> &",
   "name" : "android::hardware::Return<void> &",
   "referenced_type" : "type-1839",
   "self_type" : "type-1842",
   "size" : 4,
   "source_file" : "/system/libhidl/base/include/hidl/Status.h"
  },
  {
   "alignment" : 4,
   "linker_set_key" : "android::hardware::Status &",
   "name" : "android::hardware::Status &",
   "referenced_type" : "type-817",
   "self_type" : "type-1819",
   "size" : 4,
   "source_file" : "/system/libhidl/base/include/hidl/Status.h"
  },
  {
   "alignment" : 4,
   "linker_set_key" : "android::hardware::TextOutput &",
   "name" : "android::hardware::TextOutput &",
   "referenced_type" : "type-1105",
   "self_type" : "type-1104",
   "size" : 4,
   "source_file" : "/system/libhwbinder/include/hwbinder/Parcel.h"
  },
  {
   "alignment" : 4,
   "linker_set_key" : "android::hardware::TextOutput &",
   "name" : "android::hardware::TextOutput &",
   "referenced_type" : "type-1282",
   "self_type" : "type-1281",
   "size" : 4,
   "source_file" : "/system/libhwbinder/include/hwbinder/Parcel.h"
  },
  {
   "alignment" : 4,
   "linker_set_key" : "android::hardware::TextOutput &",
   "name" : "android::hardware::TextOutput &",
   "referenced_type" : "type-456",
   "self_type" : "type-455",
   "size" : 4,
   "source_file" : "/system/libhwbinder/include/hwbinder/Parcel.h"
  },
  {
   "alignment" : 4,
   "linker_set_key" : "android::hardware::TextOutput &",
   "name" : "android::hardware::TextOutput &",
   "referenced_type" : "type-850",
   "self_type" : "type-849",
   "size" : 4,
   "source_file" : "/system/libhwbinder/include/hwbinder/Parcel.h"
  },
  {
   "alignment" : 4,
   "linker_set_key" : "android::hardware::details::hidl_pointer<android::hardware::hidl_array<unsigned char, 32> > &",
   "name" : "android::hardware::details::hidl_pointer<android::hardware::hidl_array<unsigned char, 32> > &",
   "referenced_type" : "type-80",
   "self_type" : "type-1693",
   "size" : 4,
   "source_file" : "/system/libhidl/base/include/hidl/HidlInternal.h"
  },
  {
   "alignment" : 4,
   "linker_set_key" : "android::hardware::details::hidl_pointer<android::hardware::hidl_string> &",
   "name" : "android::hardware::details::hidl_pointer<android::hardware::hidl_string> &",
   "referenced_type" : "type-73",
   "self_type" : "type-1688",
   "size" : 4,
   "source_file" : "/system/libhidl/base/include/hidl/HidlInternal.h"
  },
  {
   "alignment" : 4,
   "linker_set_key" : "android::hardware::details::hidl_pointer<android::hardware::radio::config::V1_0::SimSlotStatus> &",
   "name" : "android::hardware::details::hidl_pointer<android::hardware::radio::config::V1_0::SimSlotStatus> &",
   "referenced_type" : "type-792",
   "self_type" : "type-798",
   "size" : 4,
   "source_file" : "/system/libhidl/base/include/hidl/HidlInternal.h"
  },
  {
   "alignment" : 4,
   "linker_set_key" : "android::hardware::details::hidl_pointer<unsigned int> &",
   "name" : "android::hardware::details::hidl_pointer<unsigned int> &",
   "referenced_type" : "type-348",
   "self_type" : "type-1679",
   "size" : 4,
   "source_file" : "/system/libhidl/base/include/hidl/HidlInternal.h"
  },
  {
   "alignment" : 4,
   "linker_set_key" : "android::hardware::hidl_array<unsigned char, 32> &",
   "name" : "android::hardware::hidl_array<unsigned char, 32> &",
   "referenced_type" : "type-83",
   "self_type" : "type-1696",
   "size" : 4,
   "source_file" : "/system/libhidl/base/include/hidl/HidlInternal.h"
  },
  {
   "alignment" : 4,
   "linker_set_key" : "android::hardware::hidl_memory &",
   "name" : "android::hardware::hidl_memory &",
   "referenced_type" : "type-50",
   "self_type" : "type-55",
   "size" : 4,
   "source_file" : "/system/libhidl/base/include/hidl/HidlSupport.h"
  },
  {
   "alignment" : 4,
   "linker_set_key" : "android::hardware::hidl_string &",
   "name" : "android::hardware::hidl_string &",
   "referenced_type" : "type-6",
   "self_type" : "type-1691",
   "size" : 4,
   "source_file" : "/system/libhidl/base/include/hidl/HidlInternal.h"
  },
  {
   "alignment" : 4,
   "linker_set_key" : "android::hardware::hidl_vec<android::hardware::hidl_array<unsigned char, 32> > &",
   "name" : "android::hardware::hidl_vec<android::hardware::hidl_array<unsigned char, 32> > &",
   "referenced_type" : "type-79",
   "self_type" : "type-89",
   "size" : 4,
   "source_file" : "/system/libhidl/base/include/hidl/HidlSupport.h"
  },
  {
   "alignment" : 4,
   "linker_set_key" : "android::hardware::hidl_vec<android::hardware::hidl_string> &",
   "name" : "android::hardware::hidl_vec<android::hardware::hidl_string> &",
   "referenced_type" : "type-72",
   "self_type" : "type-78",
   "size" : 4,
   "source_file" : "/system/libhidl/base/include/hidl/HidlSupport.h"
  },
  {
   "alignment" : 4,
   "linker_set_key" : "android::hardware::hidl_vec<android::hardware::radio::config::V1_0::SimSlotStatus> &",
   "name" : "android::hardware::hidl_vec<android::hardware::radio::config::V1_0::SimSlotStatus> &",
   "referenced_type" : "type-834",
   "self_type" : "type-840",
   "size" : 4,
   "source_file" : "/system/libhidl/base/include/hidl/HidlSupport.h"
  },
  {
   "alignment" : 4,
   "linker_set_key" : "android::hardware::hidl_vec<unsigned int> &",
   "name" : "android::hardware::hidl_vec<unsigned int> &",
   "referenced_type" : "type-347",
   "self_type" : "type-359",
   "size" : 4,
   "source_file" : "/system/libhidl/base/include/hidl/HidlSupport.h"
  },
  {
   "alignment" : 4,
   "linker_set_key" : "android::hardware::radio::config::V1_0::SimSlotStatus &",
   "name" : "android::hardware::radio::config::V1_0::SimSlotStatus &",
   "referenced_type" : "type-795",
   "self_type" : "type-801",
   "size" : 4,
   "source_file" : "/system/libhidl/base/include/hidl/HidlInternal.h"
  },
  {
   "alignment" : 4,
   "linker_set_key" : "android::sp<android::hardware::hidl_binder_death_recipient> &",
   "name" : "android::sp<android::hardware::hidl_binder_death_recipient> &",
   "referenced_type" : "type-1715",
   "self_type" : "type-1811",
   "size" : 4,
   "source_file" : "/system/core/libutils/include/utils/StrongPointer.h"
  },
  {
   "alignment" : 4,
   "linker_set_key" : "android::sp<android::hardware::radio::config::V1_0::IRadioConfig> &",
   "name" : "android::sp<android::hardware::radio::config::V1_0::IRadioConfig> &",
   "referenced_type" : "type-1704",
   "self_type" : "type-1807",
   "size" : 4,
   "source_file" : "/system/core/libutils/include/utils/StrongPointer.h"
  },
  {
   "alignment" : 4,
   "linker_set_key" : "android::sp<android::hardware::radio::config::V1_0::IRadioConfigIndication> &",
   "name" : "android::sp<android::hardware::radio::config::V1_0::IRadioConfigIndication> &",
   "referenced_type" : "type-809",
   "self_type" : "type-1793",
   "size" : 4,
   "source_file" : "/system/core/libutils/include/utils/StrongPointer.h"
  },
  {
   "alignment" : 4,
   "linker_set_key" : "android::sp<android::hardware::radio::config::V1_0::IRadioConfigResponse> &",
   "name" : "android::sp<android::hardware::radio::config::V1_0::IRadioConfigResponse> &",
   "referenced_type" : "type-1056",
   "self_type" : "type-1800",
   "size" : 4,
   "source_file" : "/system/core/libutils/include/utils/StrongPointer.h"
  },
  {
   "alignment" : 4,
   "linker_set_key" : "const android::String16 &",
   "name" : "const android::String16 &",
   "referenced_type" : "type-419",
   "self_type" : "type-1764",
   "size" : 4,
   "source_file" : "/system/core/libutils/include/utils/String16.h"
  },
  {
   "alignment" : 4,
   "linker_set_key" : "const android::String8 &",
   "name" : "const android::String8 &",
   "referenced_type" : "type-410",
   "self_type" : "type-413",
   "size" : 4,
   "source_file" : "/system/core/libutils/include/utils/String8.h"
  },
  {
   "alignment" : 4,
   "linker_set_key" : "const android::hardware::Parcel &",
   "name" : "const android::hardware::Parcel &",
   "referenced_type" : "type-457",
   "self_type" : "type-458",
   "size" : 4,
   "source_file" : "/system/libhwbinder/include/hwbinder/Parcel.h"
  },
  {
   "alignment" : 4,
   "linker_set_key" : "const android::hardware::Return<bool> &",
   "name" : "const android::hardware::Return<bool> &",
   "referenced_type" : "type-1825",
   "self_type" : "type-1833",
   "size" : 4,
   "source_file" : "/system/libhidl/base/include/hidl/Status.h"
  },
  {
   "alignment" : 4,
   "linker_set_key" : "const android::hardware::Status &",
   "name" : "const android::hardware::Status &",
   "referenced_type" : "type-1816",
   "self_type" : "type-1817",
   "size" : 4,
   "source_file" : "/system/libhidl/base/include/hidl/Status.h"
  },
  {
   "alignment" : 4,
   "linker_set_key" : "const android::hardware::details::SchedPrio &",
   "name" : "const android::hardware::details::SchedPrio &",
   "referenced_type" : "type-481",
   "self_type" : "type-480",
   "size" : 4,
   "source_file" : "/system/libhidl/transport/include/hidl/ConcurrentMap.h"
  },
  {
   "alignment" : 4,
   "linker_set_key" : "const android::hardware::details::const_accessor<unsigned int, 5> &",
   "name" : "const android::hardware::details::const_accessor<unsigned int, 5> &",
   "referenced_type" : "type-368",
   "self_type" : "type-387",
   "size" : 4,
   "source_file" : "/system/libhidl/base/include/hidl/HidlSupport.h"
  },
  {
   "alignment" : 4,
   "linker_set_key" : "const android::hardware::hidl_array<unsigned int, 5> &",
   "name" : "const android::hardware::hidl_array<unsigned int, 5> &",
   "referenced_type" : "type-374",
   "self_type" : "type-377",
   "size" : 4,
   "source_file" : "/system/libhidl/base/include/hidl/HidlSupport.h"
  },
  {
   "alignment" : 4,
   "linker_set_key" : "const android::hardware::hidl_handle &",
   "name" : "const android::hardware::hidl_handle &",
   "referenced_type" : "type-388",
   "self_type" : "type-390",
   "size" : 4,
   "source_file" : "/system/libhidl/base/include/hidl/HidlSupport.h"
  },
  {
   "alignment" : 4,
   "linker_set_key" : "const android::hardware::hidl_memory &",
   "name" : "const android::hardware::hidl_memory &",
   "referenced_type" : "type-53",
   "self_type" : "type-54",
   "size" : 4,
   "source_file" : "/system/libhidl/base/include/hidl/HidlSupport.h"
  },
  {
   "alignment" : 4,
   "linker_set_key" : "const android::hardware::hidl_string &",
   "name" : "const android::hardware::hidl_string &",
   "referenced_type" : "type-48",
   "self_type" : "type-49",
   "size" : 4,
   "source_file" : "/system/libhidl/base/include/hidl/HidlSupport.h"
  },
  {
   "alignment" : 4,
   "linker_set_key" : "const android::hardware::hidl_vec<android::hardware::hidl_string> &",
   "name" : "const android::hardware::hidl_vec<android::hardware::hidl_string> &",
   "referenced_type" : "type-1558",
   "self_type" : "type-1560",
   "size" : 4,
   "source_file" : "/out/soong/.intermediates/hardware/interfaces/radio/config/1.0/android.hardware.radio.config@1.0_genc++_headers/gen/android/hardware/radio/config/1.0/IRadioConfig.h"
  },
  {
   "alignment" : 4,
   "linker_set_key" : "const android::hardware::hidl_vec<android::hardware::radio::V1_0::AppStatus> &",
   "name" : "const android::hardware::hidl_vec<android::hardware::radio::V1_0::AppStatus> &",
   "referenced_type" : "type-122",
   "self_type" : "type-124",
   "size" : 4,
   "source_file" : "/system/libhidl/base/include/hidl/HidlSupport.h"
  },
  {
   "alignment" : 4,
   "linker_set_key" : "const android::hardware::hidl_vec<android::hardware::radio::V1_0::CallForwardInfo> &",
   "name" : "const android::hardware::hidl_vec<android::hardware::radio::V1_0::CallForwardInfo> &",
   "referenced_type" : "type-322",
   "self_type" : "type-330",
   "size" : 4,
   "source_file" : "/system/libhidl/base/include/hidl/HidlSupport.h"
  },
  {
   "alignment" : 4,
   "linker_set_key" : "const android::hardware::hidl_vec<android::hardware::radio::V1_0::Carrier> &",
   "name" : "const android::hardware::hidl_vec<android::hardware::radio::V1_0::Carrier> &",
   "referenced_type" : "type-245",
   "self_type" : "type-253",
   "size" : 4,
   "source_file" : "/system/libhidl/base/include/hidl/HidlSupport.h"
  },
  {
   "alignment" : 4,
   "linker_set_key" : "const android::hardware::hidl_vec<android::hardware::radio::V1_0::CdmaDisplayInfoRecord> &",
   "name" : "const android::hardware::hidl_vec<android::hardware::radio::V1_0::CdmaDisplayInfoRecord> &",
   "referenced_type" : "type-254",
   "self_type" : "type-261",
   "size" : 4,
   "source_file" : "/system/libhidl/base/include/hidl/HidlSupport.h"
  },
  {
   "alignment" : 4,
   "linker_set_key" : "const android::hardware::hidl_vec<android::hardware::radio::V1_0::CdmaInformationRecord> &",
   "name" : "const android::hardware::hidl_vec<android::hardware::radio::V1_0::CdmaInformationRecord> &",
   "referenced_type" : "type-313",
   "self_type" : "type-321",
   "size" : 4,
   "source_file" : "/system/libhidl/base/include/hidl/HidlSupport.h"
  },
  {
   "alignment" : 4,
   "linker_set_key" : "const android::hardware::hidl_vec<android::hardware::radio::V1_0::CdmaLineControlInfoRecord> &",
   "name" : "const android::hardware::hidl_vec<android::hardware::radio::V1_0::CdmaLineControlInfoRecord> &",
   "referenced_type" : "type-289",
   "self_type" : "type-296",
   "size" : 4,
   "source_file" : "/system/libhidl/base/include/hidl/HidlSupport.h"
  },
  {
   "alignment" : 4,
   "linker_set_key" : "const android::hardware::hidl_vec<android::hardware::radio::V1_0::CdmaNumberInfoRecord> &",
   "name" : "const android::hardware::hidl_vec<android::hardware::radio::V1_0::CdmaNumberInfoRecord> &",
   "referenced_type" : "type-263",
   "self_type" : "type-270",
   "size" : 4,
   "source_file" : "/system/libhidl/base/include/hidl/HidlSupport.h"
  },
  {
   "alignment" : 4,
   "linker_set_key" : "const android::hardware::hidl_vec<android::hardware::radio::V1_0::CdmaRedirectingNumberInfoRecord> &",
   "name" : "const android::hardware::hidl_vec<android::hardware::radio::V1_0::CdmaRedirectingNumberInfoRecord> &",
   "referenced_type" : "type-280",
   "self_type" : "type-288",
   "size" : 4,
   "source_file" : "/system/libhidl/base/include/hidl/HidlSupport.h"
  },
  {
   "alignment" : 4,
   "linker_set_key" : "const android::hardware::hidl_vec<android::hardware::radio::V1_0::CdmaSignalInfoRecord> &",
   "name" : "const android::hardware::hidl_vec<android::hardware::radio::V1_0::CdmaSignalInfoRecord> &",
   "referenced_type" : "type-271",
   "self_type" : "type-279",
   "size" : 4,
   "source_file" : "/system/libhidl/base/include/hidl/HidlSupport.h"
  },
  {
   "alignment" : 4,
   "linker_set_key" : "const android::hardware::hidl_vec<android::hardware::radio::V1_0::CdmaSmsMessage> &",
   "name" : "const android::hardware::hidl_vec<android::hardware::radio::V1_0::CdmaSmsMessage> &",
   "referenced_type" : "type-222",
   "self_type" : "type-224",
   "size" : 4,
   "source_file" : "/system/libhidl/base/include/hidl/HidlSupport.h"
  },
  {
   "alignment" : 4,
   "linker_set_key" : "const android::hardware::hidl_vec<android::hardware::radio::V1_0::CdmaT53AudioControlInfoRecord> &",
   "name" : "const android::hardware::hidl_vec<android::hardware::radio::V1_0::CdmaT53AudioControlInfoRecord> &",
   "referenced_type" : "type-305",
   "self_type" : "type-312",
   "size" : 4,
   "source_file" : "/system/libhidl/base/include/hidl/HidlSupport.h"
  },
  {
   "alignment" : 4,
   "linker_set_key" : "const android::hardware::hidl_vec<android::hardware::radio::V1_0::CdmaT53ClirInfoRecord> &",
   "name" : "const android::hardware::hidl_vec<android::hardware::radio::V1_0::CdmaT53ClirInfoRecord> &",
   "referenced_type" : "type-297",
   "self_type" : "type-304",
   "size" : 4,
   "source_file" : "/system/libhidl/base/include/hidl/HidlSupport.h"
  },
  {
   "alignment" : 4,
   "linker_set_key" : "const android::hardware::hidl_vec<android::hardware::radio::V1_0::CellIdentityCdma> &",
   "name" : "const android::hardware::hidl_vec<android::hardware::radio::V1_0::CellIdentityCdma> &",
   "referenced_type" : "type-211",
   "self_type" : "type-213",
   "size" : 4,
   "source_file" : "/system/libhidl/base/include/hidl/HidlSupport.h"
  },
  {
   "alignment" : 4,
   "linker_set_key" : "const android::hardware::hidl_vec<android::hardware::radio::V1_0::CellIdentityGsm> &",
   "name" : "const android::hardware::hidl_vec<android::hardware::radio::V1_0::CellIdentityGsm> &",
   "referenced_type" : "type-205",
   "self_type" : "type-207",
   "size" : 4,
   "source_file" : "/system/libhidl/base/include/hidl/HidlSupport.h"
  },
  {
   "alignment" : 4,
   "linker_set_key" : "const android::hardware::hidl_vec<android::hardware::radio::V1_0::CellIdentityLte> &",
   "name" : "const android::hardware::hidl_vec<android::hardware::radio::V1_0::CellIdentityLte> &",
   "referenced_type" : "type-214",
   "self_type" : "type-218",
   "size" : 4,
   "source_file" : "/system/libhidl/base/include/hidl/HidlSupport.h"
  },
  {
   "alignment" : 4,
   "linker_set_key" : "const android::hardware::hidl_vec<android::hardware::radio::V1_0::CellIdentityTdscdma> &",
   "name" : "const android::hardware::hidl_vec<android::hardware::radio::V1_0::CellIdentityTdscdma> &",
   "referenced_type" : "type-219",
   "self_type" : "type-221",
   "size" : 4,
   "source_file" : "/system/libhidl/base/include/hidl/HidlSupport.h"
  },
  {
   "alignment" : 4,
   "linker_set_key" : "const android::hardware::hidl_vec<android::hardware::radio::V1_0::CellIdentityWcdma> &",
   "name" : "const android::hardware::hidl_vec<android::hardware::radio::V1_0::CellIdentityWcdma> &",
   "referenced_type" : "type-208",
   "self_type" : "type-210",
   "size" : 4,
   "source_file" : "/system/libhidl/base/include/hidl/HidlSupport.h"
  },
  {
   "alignment" : 4,
   "linker_set_key" : "const android::hardware::hidl_vec<android::hardware::radio::V1_0::CellInfoCdma> &",
   "name" : "const android::hardware::hidl_vec<android::hardware::radio::V1_0::CellInfoCdma> &",
   "referenced_type" : "type-151",
   "self_type" : "type-161",
   "size" : 4,
   "source_file" : "/system/libhidl/base/include/hidl/HidlSupport.h"
  },
  {
   "alignment" : 4,
   "linker_set_key" : "const android::hardware::hidl_vec<android::hardware::radio::V1_0::CellInfoGsm> &",
   "name" : "const android::hardware::hidl_vec<android::hardware::radio::V1_0::CellInfoGsm> &",
   "referenced_type" : "type-142",
   "self_type" : "type-150",
   "size" : 4,
   "source_file" : "/system/libhidl/base/include/hidl/HidlSupport.h"
  },
  {
   "alignment" : 4,
   "linker_set_key" : "const android::hardware::hidl_vec<android::hardware::radio::V1_0::CellInfoLte> &",
   "name" : "const android::hardware::hidl_vec<android::hardware::radio::V1_0::CellInfoLte> &",
   "referenced_type" : "type-162",
   "self_type" : "type-170",
   "size" : 4,
   "source_file" : "/system/libhidl/base/include/hidl/HidlSupport.h"
  },
  {
   "alignment" : 4,
   "linker_set_key" : "const android::hardware::hidl_vec<android::hardware::radio::V1_0::CellInfoTdscdma> &",
   "name" : "const android::hardware::hidl_vec<android::hardware::radio::V1_0::CellInfoTdscdma> &",
   "referenced_type" : "type-177",
   "self_type" : "type-185",
   "size" : 4,
   "source_file" : "/system/libhidl/base/include/hidl/HidlSupport.h"
  },
  {
   "alignment" : 4,
   "linker_set_key" : "const android::hardware::hidl_vec<android::hardware::radio::V1_0::CellInfoWcdma> &",
   "name" : "const android::hardware::hidl_vec<android::hardware::radio::V1_0::CellInfoWcdma> &",
   "referenced_type" : "type-171",
   "self_type" : "type-176",
   "size" : 4,
   "source_file" : "/system/libhidl/base/include/hidl/HidlSupport.h"
  },
  {
   "alignment" : 4,
   "linker_set_key" : "const android::hardware::hidl_vec<android::hardware::radio::V1_0::CfData> &",
   "name" : "const android::hardware::hidl_vec<android::hardware::radio::V1_0::CfData> &",
   "referenced_type" : "type-339",
   "self_type" : "type-346",
   "size" : 4,
   "source_file" : "/system/libhidl/base/include/hidl/HidlSupport.h"
  },
  {
   "alignment" : 4,
   "linker_set_key" : "const android::hardware::hidl_vec<android::hardware::radio::V1_0::GsmSmsMessage> &",
   "name" : "const android::hardware::hidl_vec<android::hardware::radio::V1_0::GsmSmsMessage> &",
   "referenced_type" : "type-225",
   "self_type" : "type-227",
   "size" : 4,
   "source_file" : "/system/libhidl/base/include/hidl/HidlSupport.h"
  },
  {
   "alignment" : 4,
   "linker_set_key" : "const android::hardware::hidl_vec<android::hardware::radio::V1_0::HardwareConfigModem> &",
   "name" : "const android::hardware::hidl_vec<android::hardware::radio::V1_0::HardwareConfigModem> &",
   "referenced_type" : "type-228",
   "self_type" : "type-235",
   "size" : 4,
   "source_file" : "/system/libhidl/base/include/hidl/HidlSupport.h"
  },
  {
   "alignment" : 4,
   "linker_set_key" : "const android::hardware::hidl_vec<android::hardware::radio::V1_0::HardwareConfigSim> &",
   "name" : "const android::hardware::hidl_vec<android::hardware::radio::V1_0::HardwareConfigSim> &",
   "referenced_type" : "type-236",
   "self_type" : "type-244",
   "size" : 4,
   "source_file" : "/system/libhidl/base/include/hidl/HidlSupport.h"
  },
  {
   "alignment" : 4,
   "linker_set_key" : "const android::hardware::hidl_vec<android::hardware::radio::V1_0::SsInfoData> &",
   "name" : "const android::hardware::hidl_vec<android::hardware::radio::V1_0::SsInfoData> &",
   "referenced_type" : "type-331",
   "self_type" : "type-338",
   "size" : 4,
   "source_file" : "/system/libhidl/base/include/hidl/HidlSupport.h"
  },
  {
   "alignment" : 4,
   "linker_set_key" : "const android::hardware::hidl_vec<android::hardware::radio::V1_0::UusInfo> &",
   "name" : "const android::hardware::hidl_vec<android::hardware::radio::V1_0::UusInfo> &",
   "referenced_type" : "type-132",
   "self_type" : "type-134",
   "size" : 4,
   "source_file" : "/system/libhidl/base/include/hidl/HidlSupport.h"
  },
  {
   "alignment" : 4,
   "linker_set_key" : "const android::hardware::hidl_vec<android::hardware::radio::config::V1_0::SimSlotStatus> &",
   "name" : "const android::hardware::hidl_vec<android::hardware::radio::config::V1_0::SimSlotStatus> &",
   "referenced_type" : "type-836",
   "self_type" : "type-837",
   "size" : 4,
   "source_file" : "/system/libhidl/base/include/hidl/HidlSupport.h"
  },
  {
   "alignment" : 4,
   "linker_set_key" : "const android::hardware::hidl_vec<int> &",
   "name" : "const android::hardware::hidl_vec<int> &",
   "referenced_type" : "type-91",
   "self_type" : "type-97",
   "size" : 4,
   "source_file" : "/system/libhidl/base/include/hidl/HidlSupport.h"
  },
  {
   "alignment" : 4,
   "linker_set_key" : "const android::hardware::hidl_vec<unsigned char> &",
   "name" : "const android::hardware::hidl_vec<unsigned char> &",
   "referenced_type" : "type-135",
   "self_type" : "type-141",
   "size" : 4,
   "source_file" : "/system/libhidl/base/include/hidl/HidlSupport.h"
  },
  {
   "alignment" : 4,
   "linker_set_key" : "const android::hardware::hidl_vec<unsigned int> &",
   "name" : "const android::hardware::hidl_vec<unsigned int> &",
   "referenced_type" : "type-354",
   "self_type" : "type-355",
   "size" : 4,
   "source_file" : "/system/libhidl/base/include/hidl/HidlSupport.h"
  },
  {
   "alignment" : 4,
   "linker_set_key" : "const android::hardware::hidl_version &",
   "name" : "const android::hardware::hidl_version &",
   "referenced_type" : "type-381",
   "self_type" : "type-383",
   "size" : 4,
   "source_file" : "/system/libhidl/base/include/hidl/HidlSupport.h"
  },
  {
   "alignment" : 4,
   "linker_set_key" : "const android::hardware::radio::V1_0::AppStatus &",
   "name" : "const android::hardware::radio::V1_0::AppStatus &",
   "referenced_type" : "type-33",
   "self_type" : "type-32",
   "size" : 4,
   "source_file" : "/system/libhidl/base/include/hidl/HidlInternal.h"
  },
  {
   "alignment" : 4,
   "linker_set_key" : "const android::hardware::radio::V1_0::CallForwardInfo &",
   "name" : "const android::hardware::radio::V1_0::CallForwardInfo &",
   "referenced_type" : "type-1665",
   "self_type" : "type-1664",
   "size" : 4,
   "source_file" : "/system/libhidl/base/include/hidl/HidlInternal.h"
  },
  {
   "alignment" : 4,
   "linker_set_key" : "const android::hardware::radio::V1_0::Carrier &",
   "name" : "const android::hardware::radio::V1_0::Carrier &",
   "referenced_type" : "type-1627",
   "self_type" : "type-1626",
   "size" : 4,
   "source_file" : "/system/libhidl/base/include/hidl/HidlInternal.h"
  },
  {
   "alignment" : 4,
   "linker_set_key" : "const android::hardware::radio::V1_0::CdmaDisplayInfoRecord &",
   "name" : "const android::hardware::radio::V1_0::CdmaDisplayInfoRecord &",
   "referenced_type" : "type-1632",
   "self_type" : "type-1631",
   "size" : 4,
   "source_file" : "/system/libhidl/base/include/hidl/HidlInternal.h"
  },
  {
   "alignment" : 4,
   "linker_set_key" : "const android::hardware::radio::V1_0::CdmaInformationRecord &",
   "name" : "const android::hardware::radio::V1_0::CdmaInformationRecord &",
   "referenced_type" : "type-1661",
   "self_type" : "type-1660",
   "size" : 4,
   "source_file" : "/system/libhidl/base/include/hidl/HidlInternal.h"
  },
  {
   "alignment" : 4,
   "linker_set_key" : "const android::hardware::radio::V1_0::CdmaLineControlInfoRecord &",
   "name" : "const android::hardware::radio::V1_0::CdmaLineControlInfoRecord &",
   "referenced_type" : "type-1649",
   "self_type" : "type-1648",
   "size" : 4,
   "source_file" : "/system/libhidl/base/include/hidl/HidlInternal.h"
  },
  {
   "alignment" : 4,
   "linker_set_key" : "const android::hardware::radio::V1_0::CdmaNumberInfoRecord &",
   "name" : "const android::hardware::radio::V1_0::CdmaNumberInfoRecord &",
   "referenced_type" : "type-1636",
   "self_type" : "type-1635",
   "size" : 4,
   "source_file" : "/system/libhidl/base/include/hidl/HidlInternal.h"
  },
  {
   "alignment" : 4,
   "linker_set_key" : "const android::hardware::radio::V1_0::CdmaRedirectingNumberInfoRecord &",
   "name" : "const android::hardware::radio::V1_0::CdmaRedirectingNumberInfoRecord &",
   "referenced_type" : "type-1645",
   "self_type" : "type-1644",
   "size" : 4,
   "source_file" : "/system/libhidl/base/include/hidl/HidlInternal.h"
  },
  {
   "alignment" : 4,
   "linker_set_key" : "const android::hardware::radio::V1_0::CdmaSignalInfoRecord &",
   "name" : "const android::hardware::radio::V1_0::CdmaSignalInfoRecord &",
   "referenced_type" : "type-1640",
   "self_type" : "type-1639",
   "size" : 4,
   "source_file" : "/system/libhidl/base/include/hidl/HidlInternal.h"
  },
  {
   "alignment" : 4,
   "linker_set_key" : "const android::hardware::radio::V1_0::CdmaSmsMessage &",
   "name" : "const android::hardware::radio::V1_0::CdmaSmsMessage &",
   "referenced_type" : "type-1609",
   "self_type" : "type-1608",
   "size" : 4,
   "source_file" : "/system/libhidl/base/include/hidl/HidlInternal.h"
  },
  {
   "alignment" : 4,
   "linker_set_key" : "const android::hardware::radio::V1_0::CdmaT53AudioControlInfoRecord &",
   "name" : "const android::hardware::radio::V1_0::CdmaT53AudioControlInfoRecord &",
   "referenced_type" : "type-1657",
   "self_type" : "type-1656",
   "size" : 4,
   "source_file" : "/system/libhidl/base/include/hidl/HidlInternal.h"
  },
  {
   "alignment" : 4,
   "linker_set_key" : "const android::hardware::radio::V1_0::CdmaT53ClirInfoRecord &",
   "name" : "const android::hardware::radio::V1_0::CdmaT53ClirInfoRecord &",
   "referenced_type" : "type-1653",
   "self_type" : "type-1652",
   "size" : 4,
   "source_file" : "/system/libhidl/base/include/hidl/HidlInternal.h"
  },
  {
   "alignment" : 4,
   "linker_set_key" : "const android::hardware::radio::V1_0::CellIdentityCdma &",
   "name" : "const android::hardware::radio::V1_0::CellIdentityCdma &",
   "referenced_type" : "type-1597",
   "self_type" : "type-1596",
   "size" : 4,
   "source_file" : "/system/libhidl/base/include/hidl/HidlInternal.h"
  },
  {
   "alignment" : 4,
   "linker_set_key" : "const android::hardware::radio::V1_0::CellIdentityGsm &",
   "name" : "const android::hardware::radio::V1_0::CellIdentityGsm &",
   "referenced_type" : "type-1464",
   "self_type" : "type-1463",
   "size" : 4,
   "source_file" : "/system/libhidl/base/include/hidl/HidlInternal.h"
  },
  {
   "alignment" : 4,
   "linker_set_key" : "const android::hardware::radio::V1_0::CellIdentityLte &",
   "name" : "const android::hardware::radio::V1_0::CellIdentityLte &",
   "referenced_type" : "type-1601",
   "self_type" : "type-1600",
   "size" : 4,
   "source_file" : "/system/libhidl/base/include/hidl/HidlInternal.h"
  },
  {
   "alignment" : 4,
   "linker_set_key" : "const android::hardware::radio::V1_0::CellIdentityTdscdma &",
   "name" : "const android::hardware::radio::V1_0::CellIdentityTdscdma &",
   "referenced_type" : "type-1605",
   "self_type" : "type-1604",
   "size" : 4,
   "source_file" : "/system/libhidl/base/include/hidl/HidlInternal.h"
  },
  {
   "alignment" : 4,
   "linker_set_key" : "const android::hardware::radio::V1_0::CellIdentityWcdma &",
   "name" : "const android::hardware::radio::V1_0::CellIdentityWcdma &",
   "referenced_type" : "type-1551",
   "self_type" : "type-1550",
   "size" : 4,
   "source_file" : "/system/libhidl/base/include/hidl/HidlInternal.h"
  },
  {
   "alignment" : 4,
   "linker_set_key" : "const android::hardware::radio::V1_0::CellInfoCdma &",
   "name" : "const android::hardware::radio::V1_0::CellInfoCdma &",
   "referenced_type" : "type-559",
   "self_type" : "type-558",
   "size" : 4,
   "source_file" : "/system/libhidl/base/include/hidl/HidlInternal.h"
  },
  {
   "alignment" : 4,
   "linker_set_key" : "const android::hardware::radio::V1_0::CellInfoGsm &",
   "name" : "const android::hardware::radio::V1_0::CellInfoGsm &",
   "referenced_type" : "type-453",
   "self_type" : "type-452",
   "size" : 4,
   "source_file" : "/system/libhidl/base/include/hidl/HidlInternal.h"
  },
  {
   "alignment" : 4,
   "linker_set_key" : "const android::hardware::radio::V1_0::CellInfoLte &",
   "name" : "const android::hardware::radio::V1_0::CellInfoLte &",
   "referenced_type" : "type-594",
   "self_type" : "type-593",
   "size" : 4,
   "source_file" : "/system/libhidl/base/include/hidl/HidlInternal.h"
  },
  {
   "alignment" : 4,
   "linker_set_key" : "const android::hardware::radio::V1_0::CellInfoTdscdma &",
   "name" : "const android::hardware::radio::V1_0::CellInfoTdscdma &",
   "referenced_type" : "type-1379",
   "self_type" : "type-1378",
   "size" : 4,
   "source_file" : "/system/libhidl/base/include/hidl/HidlInternal.h"
  },
  {
   "alignment" : 4,
   "linker_set_key" : "const android::hardware::radio::V1_0::CellInfoWcdma &",
   "name" : "const android::hardware::radio::V1_0::CellInfoWcdma &",
   "referenced_type" : "type-936",
   "self_type" : "type-935",
   "size" : 4,
   "source_file" : "/system/libhidl/base/include/hidl/HidlInternal.h"
  },
  {
   "alignment" : 4,
   "linker_set_key" : "const android::hardware::radio::V1_0::CfData &",
   "name" : "const android::hardware::radio::V1_0::CfData &",
   "referenced_type" : "type-1675",
   "self_type" : "type-1674",
   "size" : 4,
   "source_file" : "/system/libhidl/base/include/hidl/HidlInternal.h"
  },
  {
   "alignment" : 4,
   "linker_set_key" : "const android::hardware::radio::V1_0::GsmSmsMessage &",
   "name" : "const android::hardware::radio::V1_0::GsmSmsMessage &",
   "referenced_type" : "type-1613",
   "self_type" : "type-1612",
   "size" : 4,
   "source_file" : "/system/libhidl/base/include/hidl/HidlInternal.h"
  },
  {
   "alignment" : 4,
   "linker_set_key" : "const android::hardware::radio::V1_0::HardwareConfigModem &",
   "name" : "const android::hardware::radio::V1_0::HardwareConfigModem &",
   "referenced_type" : "type-1617",
   "self_type" : "type-1616",
   "size" : 4,
   "source_file" : "/system/libhidl/base/include/hidl/HidlInternal.h"
  },
  {
   "alignment" : 4,
   "linker_set_key" : "const android::hardware::radio::V1_0::HardwareConfigSim &",
   "name" : "const android::hardware::radio::V1_0::HardwareConfigSim &",
   "referenced_type" : "type-1622",
   "self_type" : "type-1621",
   "size" : 4,
   "source_file" : "/system/libhidl/base/include/hidl/HidlInternal.h"
  },
  {
   "alignment" : 4,
   "linker_set_key" : "const android::hardware::radio::V1_0::RadioResponseInfo &",
   "name" : "const android::hardware::radio::V1_0::RadioResponseInfo &",
   "referenced_type" : "type-1037",
   "self_type" : "type-1038",
   "size" : 4,
   "source_file" : "/out/soong/.intermediates/hardware/interfaces/radio/config/1.0/android.hardware.radio.config@1.0_genc++_headers/gen/android/hardware/radio/config/1.0/BpHwRadioConfigResponse.h"
  },
  {
   "alignment" : 4,
   "linker_set_key" : "const android::hardware::radio::V1_0::SsInfoData &",
   "name" : "const android::hardware::radio::V1_0::SsInfoData &",
   "referenced_type" : "type-1670",
   "self_type" : "type-1669",
   "size" : 4,
   "source_file" : "/system/libhidl/base/include/hidl/HidlInternal.h"
  },
  {
   "alignment" : 4,
   "linker_set_key" : "const android::hardware::radio::V1_0::UusInfo &",
   "name" : "const android::hardware::radio::V1_0::UusInfo &",
   "referenced_type" : "type-217",
   "self_type" : "type-216",
   "size" : 4,
   "source_file" : "/system/libhidl/base/include/hidl/HidlInternal.h"
  },
  {
   "alignment" : 4,
   "linker_set_key" : "const android::hardware::radio::config::V1_0::SimSlotStatus &",
   "name" : "const android::hardware::radio::config::V1_0::SimSlotStatus &",
   "referenced_type" : "type-803",
   "self_type" : "type-802",
   "size" : 4,
   "source_file" : "/system/libhidl/base/include/hidl/HidlInternal.h"
  },
  {
   "alignment" : 4,
   "linker_set_key" : "const android::hidl::base::V1_0::IBase *const &",
   "name" : "const android::hidl::base::V1_0::IBase *const &",
   "referenced_type" : "type-498",
   "self_type" : "type-499",
   "size" : 4,
   "source_file" : "/system/libhidl/transport/include/hidl/ConcurrentMap.h"
  },
  {
   "alignment" : 4,
   "linker_set_key" : "const android::sp<android::hardware::IBinder> &",
   "name" : "const android::sp<android::hardware::IBinder> &",
   "referenced_type" : "type-1750",
   "self_type" : "type-1765",
   "size" : 4,
   "source_file" : "/system/libhwbinder/include/hwbinder/IInterface.h"
  },
  {
   "alignment" : 4,
   "linker_set_key" : "const android::sp<android::hardware::hidl_binder_death_recipient> &",
   "name" : "const android::sp<android::hardware::hidl_binder_death_recipient> &",
   "referenced_type" : "type-1714",
   "self_type" : "type-1721",
   "size" : 4,
   "source_file" : "/system/core/libutils/include/utils/RefBase.h"
  },
  {
   "alignment" : 4,
   "linker_set_key" : "const android::sp<android::hardware::hidl_death_recipient> &",
   "name" : "const android::sp<android::hardware::hidl_death_recipient> &",
   "referenced_type" : "type-1725",
   "self_type" : "type-1727",
   "size" : 4,
   "source_file" : "/system/core/libutils/include/utils/RefBase.h"
  },
  {
   "alignment" : 4,
   "linker_set_key" : "const android::sp<android::hardware::radio::config::V1_0::IRadioConfig> &",
   "name" : "const android::sp<android::hardware::radio::config::V1_0::IRadioConfig> &",
   "referenced_type" : "type-1703",
   "self_type" : "type-1706",
   "size" : 4,
   "source_file" : "/system/core/libutils/include/utils/RefBase.h"
  },
  {
   "alignment" : 4,
   "linker_set_key" : "const android::sp<android::hardware::radio::config::V1_0::IRadioConfigIndication> &",
   "name" : "const android::sp<android::hardware::radio::config::V1_0::IRadioConfigIndication> &",
   "referenced_type" : "type-808",
   "self_type" : "type-1744",
   "size" : 4,
   "source_file" : "/system/core/libutils/include/utils/StrongPointer.h"
  },
  {
   "alignment" : 4,
   "linker_set_key" : "const android::sp<android::hardware::radio::config::V1_0::IRadioConfigResponse> &",
   "name" : "const android::sp<android::hardware::radio::config::V1_0::IRadioConfigResponse> &",
   "referenced_type" : "type-1055",
   "self_type" : "type-1743",
   "size" : 4,
   "source_file" : "/system/core/libutils/include/utils/StrongPointer.h"
  },
  {
   "alignment" : 4,
   "linker_set_key" : "const android::sp<android::hidl::base::V1_0::IBase> &",
   "name" : "const android::sp<android::hidl::base::V1_0::IBase> &",
   "referenced_type" : "type-1738",
   "self_type" : "type-1739",
   "size" : 4,
   "source_file" : "/system/core/libutils/include/utils/StrongPointer.h"
  },
  {
   "alignment" : 4,
   "linker_set_key" : "const android::sp<android::hidl::manager::V1_0::IServiceNotification> &",
   "name" : "const android::sp<android::hidl::manager::V1_0::IServiceNotification> &",
   "referenced_type" : "type-1562",
   "self_type" : "type-1561",
   "size" : 4,
   "source_file" : "/out/soong/.intermediates/hardware/interfaces/radio/config/1.0/android.hardware.radio.config@1.0_genc++_headers/gen/android/hardware/radio/config/1.0/IRadioConfig.h"
  },
  {
   "alignment" : 4,
   "linker_set_key" : "const android::wp<android::hardware::BHwBinder> &",
   "name" : "const android::wp<android::hardware::BHwBinder> &",
   "referenced_type" : "type-1731",
   "self_type" : "type-1733",
   "size" : 4,
   "source_file" : "/system/core/libutils/include/utils/RefBase.h"
  },
  {
   "alignment" : 4,
   "linker_set_key" : "const android::wp<android::hidl::base::V1_0::IBase> &",
   "name" : "const android::wp<android::hidl::base::V1_0::IBase> &",
   "referenced_type" : "type-1707",
   "self_type" : "type-1709",
   "size" : 4,
   "source_file" : "/system/core/libutils/include/utils/RefBase.h"
  },
  {
   "alignment" : 4,
   "linker_set_key" : "const bool &",
   "name" : "const bool &",
   "referenced_type" : "type-1787",
   "self_type" : "type-1910",
   "size" : 4,
   "source_file" : "/system/core/libutils/include/utils/TypeHelpers.h"
  },
  {
   "alignment" : 4,
   "linker_set_key" : "const double &",
   "name" : "const double &",
   "referenced_type" : "type-21",
   "self_type" : "type-23",
   "size" : 4,
   "source_file" : "/system/core/libutils/include/utils/TypeHelpers.h"
  },
  {
   "alignment" : 4,
   "linker_set_key" : "const float &",
   "name" : "const float &",
   "referenced_type" : "type-1920",
   "self_type" : "type-1921",
   "size" : 4,
   "source_file" : "/system/core/libutils/include/utils/TypeHelpers.h"
  },
  {
   "alignment" : 4,
   "linker_set_key" : "const int &",
   "name" : "const int &",
   "referenced_type" : "type-1855",
   "self_type" : "type-1854",
   "size" : 4,
   "source_file" : "/system/libhidl/base/include/hidl/HidlInternal.h"
  },
  {
   "linker_set_key" : "const iter<is_const> &",
   "name" : "const iter<is_const> &",
   "referenced_type" : "type-1080",
   "self_type" : "type-1082",
   "source_file" : "/system/libhidl/base/include/hidl/HidlSupport.h"
  },
  {
   "linker_set_key" : "const iter<is_const> &",
   "name" : "const iter<is_const> &",
   "referenced_type" : "type-1260",
   "self_type" : "type-1262",
   "source_file" : "/system/libhidl/base/include/hidl/HidlSupport.h"
  },
  {
   "linker_set_key" : "const iter<is_const> &",
   "name" : "const iter<is_const> &",
   "referenced_type" : "type-59",
   "self_type" : "type-61",
   "source_file" : "/system/libhidl/base/include/hidl/HidlSupport.h"
  },
  {
   "linker_set_key" : "const iter<is_const> &",
   "name" : "const iter<is_const> &",
   "referenced_type" : "type-827",
   "self_type" : "type-829",
   "source_file" : "/system/libhidl/base/include/hidl/HidlSupport.h"
  },
  {
   "alignment" : 4,
   "linker_set_key" : "const log_msg &",
   "name" : "const log_msg &",
   "referenced_type" : "type-1620",
   "self_type" : "type-1630",
   "size" : 4,
   "source_file" : "/system/core/liblog/include/log/log_read.h"
  },
  {
   "alignment" : 4,
   "linker_set_key" : "const long long &",
   "name" : "const long long &",
   "referenced_type" : "type-1917",
   "self_type" : "type-1918",
   "size" : 4,
   "source_file" : "/system/core/libutils/include/utils/TypeHelpers.h"
  },
  {
   "alignment" : 4,
   "linker_set_key" : "const short &",
   "name" : "const short &",
   "referenced_type" : "type-1913",
   "self_type" : "type-1914",
   "size" : 4,
   "source_file" : "/system/core/libutils/include/utils/TypeHelpers.h"
  },
  {
   "alignment" : 4,
   "linker_set_key" : "const signed char &",
   "name" : "const signed char &",
   "referenced_type" : "type-1911",
   "self_type" : "type-1912",
   "size" : 4,
   "source_file" : "/system/core/libutils/include/utils/TypeHelpers.h"
  },
  {
   "alignment" : 4,
   "linker_set_key" : "const std::basic_string<char, std::char_traits<char>, std::allocator<char> > &",
   "name" : "const std::basic_string<char, std::char_traits<char>, std::allocator<char> > &",
   "referenced_type" : "type-1106",
   "self_type" : "type-1108",
   "size" : 4,
   "source_file" : "/system/libhidl/transport/include/hidl/HidlTransportSupport.h"
  },
  {
   "alignment" : 4,
   "linker_set_key" : "const std::basic_string<char, std::char_traits<char>, std::allocator<char> > &",
   "name" : "const std::basic_string<char, std::char_traits<char>, std::allocator<char> > &",
   "referenced_type" : "type-472",
   "self_type" : "type-474",
   "size" : 4,
   "source_file" : "/system/libhidl/transport/include/hidl/HidlTransportSupport.h"
  },
  {
   "alignment" : 4,
   "linker_set_key" : "const std::basic_string<char, std::char_traits<char>, std::allocator<char> > &",
   "name" : "const std::basic_string<char, std::char_traits<char>, std::allocator<char> > &",
   "referenced_type" : "type-851",
   "self_type" : "type-853",
   "size" : 4,
   "source_file" : "/system/libhidl/transport/include/hidl/HidlTransportSupport.h"
  },
  {
   "alignment" : 4,
   "linker_set_key" : "const std::vector<std::function<void (InstrumentationEvent, const char *, const char *, const char *, const char *, vector<void *, allocator<void *> > *)>, std::allocator<std::function<void (InstrumentationEvent, const char *, const char *, const char *, const char *, vector<void *, allocator<void *> > *)> > > &",
   "name" : "const std::vector<std::function<void (InstrumentationEvent, const char *, const char *, const char *, const char *, vector<void *, allocator<void *> > *)>, std::allocator<std::function<void (InstrumentationEvent, const char *, const char *, const char *, const char *, vector<void *, allocator<void *> > *)> > > &",
   "referenced_type" : "type-1047",
   "self_type" : "type-1046",
   "size" : 4,
   "source_file" : "/system/libhidl/base/include/hidl/HidlInternal.h"
  },
  {
   "alignment" : 4,
   "linker_set_key" : "const std::vector<std::function<void (InstrumentationEvent, const char *, const char *, const char *, const char *, vector<void *, allocator<void *> > *)>, std::allocator<std::function<void (InstrumentationEvent, const char *, const char *, const char *, const char *, vector<void *, allocator<void *> > *)> > > &",
   "name" : "const std::vector<std::function<void (InstrumentationEvent, const char *, const char *, const char *, const char *, vector<void *, allocator<void *> > *)>, std::allocator<std::function<void (InstrumentationEvent, const char *, const char *, const char *, const char *, vector<void *, allocator<void *> > *)> > > &",
   "referenced_type" : "type-1244",
   "self_type" : "type-1243",
   "size" : 4,
   "source_file" : "/system/libhidl/base/include/hidl/HidlInternal.h"
  },
  {
   "alignment" : 4,
   "linker_set_key" : "const std::vector<std::function<void (InstrumentationEvent, const char *, const char *, const char *, const char *, vector<void *, allocator<void *> > *)>, std::allocator<std::function<void (InstrumentationEvent, const char *, const char *, const char *, const char *, vector<void *, allocator<void *> > *)> > > &",
   "name" : "const std::vector<std::function<void (InstrumentationEvent, const char *, const char *, const char *, const char *, vector<void *, allocator<void *> > *)>, std::allocator<std::function<void (InstrumentationEvent, const char *, const char *, const char *, const char *, vector<void *, allocator<void *> > *)> > > &",
   "referenced_type" : "type-1699",
   "self_type" : "type-1698",
   "size" : 4,
   "source_file" : "/system/libhidl/base/include/hidl/HidlInternal.h"
  },
  {
   "alignment" : 4,
   "linker_set_key" : "const std::vector<std::function<void (InstrumentationEvent, const char *, const char *, const char *, const char *, vector<void *, allocator<void *> > *)>, std::allocator<std::function<void (InstrumentationEvent, const char *, const char *, const char *, const char *, vector<void *, allocator<void *> > *)> > > &",
   "name" : "const std::vector<std::function<void (InstrumentationEvent, const char *, const char *, const char *, const char *, vector<void *, allocator<void *> > *)>, std::allocator<std::function<void (InstrumentationEvent, const char *, const char *, const char *, const char *, vector<void *, allocator<void *> > *)> > > &",
   "referenced_type" : "type-805",
   "self_type" : "type-804",
   "size" : 4,
   "source_file" : "/system/libhidl/base/include/hidl/HidlInternal.h"
  },
  {
   "alignment" : 4,
   "linker_set_key" : "const unsigned char &",
   "name" : "const unsigned char &",
   "referenced_type" : "type-352",
   "self_type" : "type-351",
   "size" : 4,
   "source_file" : "/system/libhidl/base/include/hidl/HidlInternal.h"
  },
  {
   "alignment" : 4,
   "linker_set_key" : "const unsigned int &",
   "name" : "const unsigned int &",
   "referenced_type" : "type-357",
   "self_type" : "type-1684",
   "size" : 4,
   "source_file" : "/system/libhidl/base/include/hidl/HidlInternal.h"
  },
  {
   "alignment" : 4,
   "linker_set_key" : "const unsigned long long &",
   "name" : "const unsigned long long &",
   "referenced_type" : "type-450",
   "self_type" : "type-1919",
   "size" : 4,
   "source_file" : "/system/core/libutils/include/utils/TypeHelpers.h"
  },
  {
   "alignment" : 4,
   "linker_set_key" : "const unsigned short &",
   "name" : "const unsigned short &",
   "referenced_type" : "type-1915",
   "self_type" : "type-1916",
   "size" : 4,
   "source_file" : "/system/core/libutils/include/utils/TypeHelpers.h"
  },
  {
   "alignment" : 4,
   "linker_set_key" : "int &",
   "name" : "int &",
   "referenced_type" : "type-14",
   "self_type" : "type-405",
   "size" : 4,
   "source_file" : "/out/soong/.intermediates/system/libhidl/transport/base/1.0/android.hidl.base@1.0_genc++_headers/gen/android/hidl/base/1.0/types.h"
  },
  {
   "alignment" : 4,
   "linker_set_key" : "unsigned char &",
   "name" : "unsigned char &",
   "referenced_type" : "type-85",
   "self_type" : "type-585",
   "size" : 4,
   "source_file" : "/out/soong/.intermediates/system/libhidl/transport/manager/1.0/android.hidl.manager@1.0_genc++_headers/gen/android/hidl/manager/1.0/IServiceManager.h"
  },
  {
   "alignment" : 4,
   "linker_set_key" : "unsigned int &",
   "name" : "unsigned int &",
   "referenced_type" : "type-2",
   "self_type" : "type-1683",
   "size" : 4,
   "source_file" : "/system/libhidl/base/include/hidl/HidlInternal.h"
  }
 ],
 "pointer_types" :
 [
  {
   "alignment" : 4,
   "linker_set_key" : "android::Condition *",
   "name" : "android::Condition *",
   "referenced_type" : "type-565",
   "self_type" : "type-564",
   "size" : 4,
   "source_file" : "/system/core/libutils/include/utils/Condition.h"
  },
  {
   "alignment" : 4,
   "linker_set_key" : "android::Mutex *",
   "name" : "android::Mutex *",
   "referenced_type" : "type-556",
   "self_type" : "type-555",
   "size" : 4,
   "source_file" : "/system/core/libutils/include/utils/Mutex.h"
  },
  {
   "alignment" : 4,
   "linker_set_key" : "android::Mutex::Autolock *",
   "name" : "android::Mutex::Autolock *",
   "referenced_type" : "type-560",
   "self_type" : "type-562",
   "size" : 4,
   "source_file" : "/system/core/libutils/include/utils/Mutex.h"
  },
  {
   "alignment" : 4,
   "linker_set_key" : "android::RWLock *",
   "name" : "android::RWLock *",
   "referenced_type" : "type-567",
   "self_type" : "type-569",
   "size" : 4,
   "source_file" : "/system/core/libutils/include/utils/RWLock.h"
  },
  {
   "alignment" : 4,
   "linker_set_key" : "android::RWLock::AutoRLock *",
   "name" : "android::RWLock::AutoRLock *",
   "referenced_type" : "type-570",
   "self_type" : "type-572",
   "size" : 4,
   "source_file" : "/system/core/libutils/include/utils/RWLock.h"
  },
  {
   "alignment" : 4,
   "linker_set_key" : "android::RWLock::AutoWLock *",
   "name" : "android::RWLock::AutoWLock *",
   "referenced_type" : "type-573",
   "self_type" : "type-574",
   "size" : 4,
   "source_file" : "/system/core/libutils/include/utils/RWLock.h"
  },
  {
   "alignment" : 4,
   "linker_set_key" : "android::RefBase *",
   "name" : "android::RefBase *",
   "referenced_type" : "type-27",
   "self_type" : "type-39",
   "size" : 4,
   "source_file" : "/system/core/libutils/include/utils/RefBase.h"
  },
  {
   "alignment" : 4,
   "linker_set_key" : "android::RefBase::weakref_impl *",
   "name" : "android::RefBase::weakref_impl *",
   "referenced_type" : "type-1075",
   "self_type" : "type-1074",
   "size" : 4,
   "source_file" : "/system/core/libutils/include/utils/RefBase.h"
  },
  {
   "alignment" : 4,
   "linker_set_key" : "android::RefBase::weakref_impl *",
   "name" : "android::RefBase::weakref_impl *",
   "referenced_type" : "type-1255",
   "self_type" : "type-1254",
   "size" : 4,
   "source_file" : "/system/core/libutils/include/utils/RefBase.h"
  },
  {
   "alignment" : 4,
   "linker_set_key" : "android::RefBase::weakref_impl *",
   "name" : "android::RefBase::weakref_impl *",
   "referenced_type" : "type-30",
   "self_type" : "type-29",
   "size" : 4,
   "source_file" : "/system/core/libutils/include/utils/RefBase.h"
  },
  {
   "alignment" : 4,
   "linker_set_key" : "android::RefBase::weakref_impl *",
   "name" : "android::RefBase::weakref_impl *",
   "referenced_type" : "type-825",
   "self_type" : "type-824",
   "size" : 4,
   "source_file" : "/system/core/libutils/include/utils/RefBase.h"
  },
  {
   "alignment" : 4,
   "linker_set_key" : "android::RefBase::weakref_type *",
   "name" : "android::RefBase::weakref_type *",
   "referenced_type" : "type-435",
   "self_type" : "type-434",
   "size" : 4,
   "source_file" : "/system/core/libutils/include/utils/RefBase.h"
  },
  {
   "alignment" : 4,
   "linker_set_key" : "android::ReferenceRenamer *",
   "name" : "android::ReferenceRenamer *",
   "referenced_type" : "type-24",
   "self_type" : "type-25",
   "size" : 4,
   "source_file" : "/system/core/libutils/include/utils/RefBase.h"
  },
  {
   "alignment" : 4,
   "linker_set_key" : "android::ScopedTrace *",
   "name" : "android::ScopedTrace *",
   "referenced_type" : "type-576",
   "self_type" : "type-577",
   "size" : 4,
   "source_file" : "/system/core/libutils/include/utils/Trace.h"
  },
  {
   "alignment" : 4,
   "linker_set_key" : "android::String16 *",
   "name" : "android::String16 *",
   "referenced_type" : "type-420",
   "self_type" : "type-427",
   "size" : 4,
   "source_file" : "/system/core/libutils/include/utils/String16.h"
  },
  {
   "alignment" : 4,
   "linker_set_key" : "android::String8 *",
   "name" : "android::String8 *",
   "referenced_type" : "type-411",
   "self_type" : "type-415",
   "size" : 4,
   "source_file" : "/system/core/libutils/include/utils/String8.h"
  },
  {
   "alignment" : 4,
   "linker_set_key" : "android::Thread *",
   "name" : "android::Thread *",
   "referenced_type" : "type-1786",
   "self_type" : "type-1785",
   "size" : 4,
   "source_file" : "/system/core/libutils/include/utils/StrongPointer.h"
  },
  {
   "alignment" : 4,
   "linker_set_key" : "android::VirtualLightRefBase *",
   "name" : "android::VirtualLightRefBase *",
   "referenced_type" : "type-1845",
   "self_type" : "type-1846",
   "size" : 4,
   "source_file" : "/system/core/libutils/include/utils/LightRefBase.h"
  },
  {
   "alignment" : 4,
   "linker_set_key" : "android::hardware::BHwBinder *",
   "name" : "android::hardware::BHwBinder *",
   "referenced_type" : "type-466",
   "self_type" : "type-496",
   "size" : 4,
   "source_file" : "/system/core/libutils/include/utils/RefBase.h"
  },
  {
   "alignment" : 4,
   "linker_set_key" : "android::hardware::BpInterface<android::hardware::radio::config::V1_0::IRadioConfig> *",
   "name" : "android::hardware::BpInterface<android::hardware::radio::config::V1_0::IRadioConfig> *",
   "referenced_type" : "type-439",
   "self_type" : "type-438",
   "size" : 4,
   "source_file" : "/system/libhwbinder/include/hwbinder/IInterface.h"
  },
  {
   "alignment" : 4,
   "linker_set_key" : "android::hardware::BpInterface<android::hardware::radio::config::V1_0::IRadioConfigIndication> *",
   "name" : "android::hardware::BpInterface<android::hardware::radio::config::V1_0::IRadioConfigIndication> *",
   "referenced_type" : "type-848",
   "self_type" : "type-847",
   "size" : 4,
   "source_file" : "/system/libhwbinder/include/hwbinder/IInterface.h"
  },
  {
   "alignment" : 4,
   "linker_set_key" : "android::hardware::BpInterface<android::hardware::radio::config::V1_0::IRadioConfigResponse> *",
   "name" : "android::hardware::BpInterface<android::hardware::radio::config::V1_0::IRadioConfigResponse> *",
   "referenced_type" : "type-1101",
   "self_type" : "type-1100",
   "size" : 4,
   "source_file" : "/system/libhwbinder/include/hwbinder/IInterface.h"
  },
  {
   "alignment" : 4,
   "linker_set_key" : "android::hardware::ConcurrentMap<const android::hidl::base::V1_0::IBase *, android::wp<android::hardware::BHwBinder> > *",
   "name" : "android::hardware::ConcurrentMap<const android::hidl::base::V1_0::IBase *, android::wp<android::hardware::BHwBinder> > *",
   "referenced_type" : "type-490",
   "self_type" : "type-497",
   "size" : 4,
   "source_file" : "/system/libhidl/transport/include/hidl/ConcurrentMap.h"
  },
  {
   "alignment" : 4,
   "linker_set_key" : "android::hardware::ConcurrentMap<std::basic_string<char, std::char_traits<char>, std::allocator<char> >, std::function<sp<IBase> (void *)> > *",
   "name" : "android::hardware::ConcurrentMap<std::basic_string<char, std::char_traits<char>, std::allocator<char> >, std::function<sp<IBase> (void *)> > *",
   "referenced_type" : "type-514",
   "self_type" : "type-519",
   "size" : 4,
   "source_file" : "/system/libhidl/transport/include/hidl/ConcurrentMap.h"
  },
  {
   "alignment" : 4,
   "linker_set_key" : "android::hardware::ConcurrentMap<std::basic_string<char, std::char_traits<char>, std::allocator<char> >, std::function<sp<IBinder> (void *)> > *",
   "name" : "android::hardware::ConcurrentMap<std::basic_string<char, std::char_traits<char>, std::allocator<char> >, std::function<sp<IBinder> (void *)> > *",
   "referenced_type" : "type-500",
   "self_type" : "type-509",
   "size" : 4,
   "source_file" : "/system/libhidl/transport/include/hidl/ConcurrentMap.h"
  },
  {
   "alignment" : 4,
   "linker_set_key" : "android::hardware::GrantorDescriptor *",
   "name" : "android::hardware::GrantorDescriptor *",
   "referenced_type" : "type-66",
   "self_type" : "type-65",
   "size" : 4,
   "source_file" : "/system/libhidl/base/include/hidl/HidlInternal.h"
  },
  {
   "alignment" : 4,
   "linker_set_key" : "android::hardware::IBinder *",
   "name" : "android::hardware::IBinder *",
   "referenced_type" : "type-433",
   "self_type" : "type-432",
   "size" : 4,
   "source_file" : "/system/core/libutils/include/utils/StrongPointer.h"
  },
  {
   "alignment" : 4,
   "linker_set_key" : "android::hardware::IBinder::DeathRecipient *",
   "name" : "android::hardware::IBinder::DeathRecipient *",
   "referenced_type" : "type-1712",
   "self_type" : "type-1711",
   "size" : 4,
   "source_file" : "/system/core/libutils/include/utils/RefBase.h"
  },
  {
   "alignment" : 4,
   "linker_set_key" : "android::hardware::IInterface *",
   "name" : "android::hardware::IInterface *",
   "referenced_type" : "type-442",
   "self_type" : "type-1753",
   "size" : 4,
   "source_file" : "/system/core/libutils/include/utils/StrongPointer.h"
  },
  {
   "alignment" : 4,
   "linker_set_key" : "android::hardware::Parcel *",
   "name" : "android::hardware::Parcel *",
   "referenced_type" : "type-443",
   "self_type" : "type-448",
   "size" : 4,
   "source_file" : "/system/libhwbinder/include/hwbinder/Parcel.h"
  },
  {
   "alignment" : 4,
   "linker_set_key" : "android::hardware::ProcessState *",
   "name" : "android::hardware::ProcessState *",
   "referenced_type" : "type-1756",
   "self_type" : "type-1755",
   "size" : 4,
   "source_file" : "/system/core/libutils/include/utils/StrongPointer.h"
  },
  {
   "alignment" : 4,
   "linker_set_key" : "android::hardware::Return<android::sp<android::hardware::radio::config::V1_0::IRadioConfig> > *",
   "name" : "android::hardware::Return<android::sp<android::hardware::radio::config::V1_0::IRadioConfig> > *",
   "referenced_type" : "type-1827",
   "self_type" : "type-1828",
   "size" : 4,
   "source_file" : "/system/libhidl/base/include/hidl/Status.h"
  },
  {
   "alignment" : 4,
   "linker_set_key" : "android::hardware::Return<android::sp<android::hardware::radio::config::V1_0::IRadioConfigIndication> > *",
   "name" : "android::hardware::Return<android::sp<android::hardware::radio::config::V1_0::IRadioConfigIndication> > *",
   "referenced_type" : "type-815",
   "self_type" : "type-819",
   "size" : 4,
   "source_file" : "/system/libhidl/base/include/hidl/Status.h"
  },
  {
   "alignment" : 4,
   "linker_set_key" : "android::hardware::Return<android::sp<android::hardware::radio::config::V1_0::IRadioConfigResponse> > *",
   "name" : "android::hardware::Return<android::sp<android::hardware::radio::config::V1_0::IRadioConfigResponse> > *",
   "referenced_type" : "type-1064",
   "self_type" : "type-1065",
   "size" : 4,
   "source_file" : "/system/libhidl/base/include/hidl/Status.h"
  },
  {
   "alignment" : 4,
   "linker_set_key" : "android::hardware::Return<bool> *",
   "name" : "android::hardware::Return<bool> *",
   "referenced_type" : "type-1821",
   "self_type" : "type-1822",
   "size" : 4,
   "source_file" : "/system/libhidl/base/include/hidl/Status.h"
  },
  {
   "alignment" : 4,
   "linker_set_key" : "android::hardware::Return<void> *",
   "name" : "android::hardware::Return<void> *",
   "referenced_type" : "type-1839",
   "self_type" : "type-1840",
   "size" : 4,
   "source_file" : "/system/libhidl/base/include/hidl/Status.h"
  },
  {
   "alignment" : 4,
   "linker_set_key" : "android::hardware::Status *",
   "name" : "android::hardware::Status *",
   "referenced_type" : "type-817",
   "self_type" : "type-1815",
   "size" : 4,
   "source_file" : "/system/libhidl/base/include/hidl/Status.h"
  },
  {
   "alignment" : 4,
   "linker_set_key" : "android::hardware::details::HidlInstrumentor *",
   "name" : "android::hardware::details::HidlInstrumentor *",
   "referenced_type" : "type-468",
   "self_type" : "type-1701",
   "size" : 4,
   "source_file" : "/system/libhidl/base/include/hidl/HidlInternal.h"
  },
  {
   "alignment" : 4,
   "linker_set_key" : "android::hardware::details::const_accessor<unsigned int, 5> *",
   "name" : "android::hardware::details::const_accessor<unsigned int, 5> *",
   "referenced_type" : "type-366",
   "self_type" : "type-367",
   "size" : 4,
   "source_file" : "/system/libhidl/base/include/hidl/HidlSupport.h"
  },
  {
   "alignment" : 4,
   "linker_set_key" : "android::hardware::details::hidl_pointer<android::hardware::hidl_array<unsigned char, 32> > *",
   "name" : "android::hardware::details::hidl_pointer<android::hardware::hidl_array<unsigned char, 32> > *",
   "referenced_type" : "type-80",
   "self_type" : "type-1692",
   "size" : 4,
   "source_file" : "/system/libhidl/base/include/hidl/HidlInternal.h"
  },
  {
   "alignment" : 4,
   "linker_set_key" : "android::hardware::details::hidl_pointer<android::hardware::hidl_string> *",
   "name" : "android::hardware::details::hidl_pointer<android::hardware::hidl_string> *",
   "referenced_type" : "type-73",
   "self_type" : "type-1685",
   "size" : 4,
   "source_file" : "/system/libhidl/base/include/hidl/HidlInternal.h"
  },
  {
   "alignment" : 4,
   "linker_set_key" : "android::hardware::details::hidl_pointer<android::hardware::radio::config::V1_0::SimSlotStatus> *",
   "name" : "android::hardware::details::hidl_pointer<android::hardware::radio::config::V1_0::SimSlotStatus> *",
   "referenced_type" : "type-792",
   "self_type" : "type-797",
   "size" : 4,
   "source_file" : "/system/libhidl/base/include/hidl/HidlInternal.h"
  },
  {
   "alignment" : 4,
   "linker_set_key" : "android::hardware::details::hidl_pointer<unsigned int> *",
   "name" : "android::hardware::details::hidl_pointer<unsigned int> *",
   "referenced_type" : "type-348",
   "self_type" : "type-1678",
   "size" : 4,
   "source_file" : "/system/libhidl/base/include/hidl/HidlInternal.h"
  },
  {
   "alignment" : 4,
   "linker_set_key" : "android::hardware::details::return_status *",
   "name" : "android::hardware::details::return_status *",
   "referenced_type" : "type-816",
   "self_type" : "type-1834",
   "size" : 4,
   "source_file" : "/system/libhidl/base/include/hidl/Status.h"
  },
  {
   "alignment" : 4,
   "linker_set_key" : "android::hardware::hidl_array<unsigned char, 32> *",
   "name" : "android::hardware::hidl_array<unsigned char, 32> *",
   "referenced_type" : "type-83",
   "self_type" : "type-82",
   "size" : 4,
   "source_file" : "/system/libhidl/base/include/hidl/HidlInternal.h"
  },
  {
   "alignment" : 4,
   "linker_set_key" : "android::hardware::hidl_array<unsigned int, 5> *",
   "name" : "android::hardware::hidl_array<unsigned int, 5> *",
   "referenced_type" : "type-372",
   "self_type" : "type-371",
   "size" : 4,
   "source_file" : "/system/libhidl/base/include/hidl/HidlSupport.h"
  },
  {
   "alignment" : 4,
   "linker_set_key" : "android::hardware::hidl_binder_death_recipient *",
   "name" : "android::hardware::hidl_binder_death_recipient *",
   "referenced_type" : "type-1717",
   "self_type" : "type-1716",
   "size" : 4,
   "source_file" : "/system/core/libutils/include/utils/StrongPointer.h"
  },
  {
   "alignment" : 4,
   "linker_set_key" : "android::hardware::hidl_death_recipient *",
   "name" : "android::hardware::hidl_death_recipient *",
   "referenced_type" : "type-1720",
   "self_type" : "type-1719",
   "size" : 4,
   "source_file" : "/system/core/libutils/include/utils/RefBase.h"
  },
  {
   "alignment" : 4,
   "linker_set_key" : "android::hardware::hidl_memory *",
   "name" : "android::hardware::hidl_memory *",
   "referenced_type" : "type-50",
   "self_type" : "type-51",
   "size" : 4,
   "source_file" : "/system/libhidl/base/include/hidl/HidlSupport.h"
  },
  {
   "alignment" : 4,
   "linker_set_key" : "android::hardware::hidl_string *",
   "name" : "android::hardware::hidl_string *",
   "referenced_type" : "type-6",
   "self_type" : "type-75",
   "size" : 4,
   "source_file" : "/system/libhidl/base/include/hidl/HidlInternal.h"
  },
  {
   "alignment" : 4,
   "linker_set_key" : "android::hardware::hidl_vec<android::hardware::hidl_array<unsigned char, 32> > *",
   "name" : "android::hardware::hidl_vec<android::hardware::hidl_array<unsigned char, 32> > *",
   "referenced_type" : "type-79",
   "self_type" : "type-86",
   "size" : 4,
   "source_file" : "/system/libhidl/base/include/hidl/HidlSupport.h"
  },
  {
   "alignment" : 4,
   "linker_set_key" : "android::hardware::hidl_vec<android::hardware::hidl_string> *",
   "name" : "android::hardware::hidl_vec<android::hardware::hidl_string> *",
   "referenced_type" : "type-72",
   "self_type" : "type-71",
   "size" : 4,
   "source_file" : "/system/libhidl/base/include/hidl/HidlSupport.h"
  },
  {
   "alignment" : 4,
   "linker_set_key" : "android::hardware::hidl_vec<android::hardware::radio::config::V1_0::SimSlotStatus> *",
   "name" : "android::hardware::hidl_vec<android::hardware::radio::config::V1_0::SimSlotStatus> *",
   "referenced_type" : "type-834",
   "self_type" : "type-835",
   "size" : 4,
   "source_file" : "/system/libhidl/base/include/hidl/HidlSupport.h"
  },
  {
   "alignment" : 4,
   "linker_set_key" : "android::hardware::hidl_vec<unsigned int> *",
   "name" : "android::hardware::hidl_vec<unsigned int> *",
   "referenced_type" : "type-347",
   "self_type" : "type-353",
   "size" : 4,
   "source_file" : "/system/libhidl/base/include/hidl/HidlSupport.h"
  },
  {
   "alignment" : 4,
   "linker_set_key" : "android::hardware::hidl_version *",
   "name" : "android::hardware::hidl_version *",
   "referenced_type" : "type-378",
   "self_type" : "type-380",
   "size" : 4,
   "source_file" : "/system/libhidl/base/include/hidl/HidlSupport.h"
  },
  {
   "alignment" : 4,
   "linker_set_key" : "android::hardware::radio::V1_0::AppStatus *",
   "name" : "android::hardware::radio::V1_0::AppStatus *",
   "referenced_type" : "type-34",
   "self_type" : "type-70",
   "size" : 4,
   "source_file" : "/system/libhidl/base/include/hidl/HidlInternal.h"
  },
  {
   "alignment" : 4,
   "linker_set_key" : "android::hardware::radio::V1_0::CallForwardInfo *",
   "name" : "android::hardware::radio::V1_0::CallForwardInfo *",
   "referenced_type" : "type-327",
   "self_type" : "type-326",
   "size" : 4,
   "source_file" : "/system/libhidl/base/include/hidl/HidlInternal.h"
  },
  {
   "alignment" : 4,
   "linker_set_key" : "android::hardware::radio::V1_0::Carrier *",
   "name" : "android::hardware::radio::V1_0::Carrier *",
   "referenced_type" : "type-250",
   "self_type" : "type-249",
   "size" : 4,
   "source_file" : "/system/libhidl/base/include/hidl/HidlInternal.h"
  },
  {
   "alignment" : 4,
   "linker_set_key" : "android::hardware::radio::V1_0::CdmaDisplayInfoRecord *",
   "name" : "android::hardware::radio::V1_0::CdmaDisplayInfoRecord *",
   "referenced_type" : "type-259",
   "self_type" : "type-258",
   "size" : 4,
   "source_file" : "/system/libhidl/base/include/hidl/HidlInternal.h"
  },
  {
   "alignment" : 4,
   "linker_set_key" : "android::hardware::radio::V1_0::CdmaInformationRecord *",
   "name" : "android::hardware::radio::V1_0::CdmaInformationRecord *",
   "referenced_type" : "type-318",
   "self_type" : "type-317",
   "size" : 4,
   "source_file" : "/system/libhidl/base/include/hidl/HidlInternal.h"
  },
  {
   "alignment" : 4,
   "linker_set_key" : "android::hardware::radio::V1_0::CdmaLineControlInfoRecord *",
   "name" : "android::hardware::radio::V1_0::CdmaLineControlInfoRecord *",
   "referenced_type" : "type-294",
   "self_type" : "type-293",
   "size" : 4,
   "source_file" : "/system/libhidl/base/include/hidl/HidlInternal.h"
  },
  {
   "alignment" : 4,
   "linker_set_key" : "android::hardware::radio::V1_0::CdmaNumberInfoRecord *",
   "name" : "android::hardware::radio::V1_0::CdmaNumberInfoRecord *",
   "referenced_type" : "type-268",
   "self_type" : "type-267",
   "size" : 4,
   "source_file" : "/system/libhidl/base/include/hidl/HidlInternal.h"
  },
  {
   "alignment" : 4,
   "linker_set_key" : "android::hardware::radio::V1_0::CdmaRedirectingNumberInfoRecord *",
   "name" : "android::hardware::radio::V1_0::CdmaRedirectingNumberInfoRecord *",
   "referenced_type" : "type-285",
   "self_type" : "type-284",
   "size" : 4,
   "source_file" : "/system/libhidl/base/include/hidl/HidlInternal.h"
  },
  {
   "alignment" : 4,
   "linker_set_key" : "android::hardware::radio::V1_0::CdmaSignalInfoRecord *",
   "name" : "android::hardware::radio::V1_0::CdmaSignalInfoRecord *",
   "referenced_type" : "type-276",
   "self_type" : "type-275",
   "size" : 4,
   "source_file" : "/system/libhidl/base/include/hidl/HidlInternal.h"
  },
  {
   "alignment" : 4,
   "linker_set_key" : "android::hardware::radio::V1_0::CdmaSmsMessage *",
   "name" : "android::hardware::radio::V1_0::CdmaSmsMessage *",
   "referenced_type" : "type-192",
   "self_type" : "type-191",
   "size" : 4,
   "source_file" : "/system/libhidl/base/include/hidl/HidlInternal.h"
  },
  {
   "alignment" : 4,
   "linker_set_key" : "android::hardware::radio::V1_0::CdmaT53AudioControlInfoRecord *",
   "name" : "android::hardware::radio::V1_0::CdmaT53AudioControlInfoRecord *",
   "referenced_type" : "type-310",
   "self_type" : "type-309",
   "size" : 4,
   "source_file" : "/system/libhidl/base/include/hidl/HidlInternal.h"
  },
  {
   "alignment" : 4,
   "linker_set_key" : "android::hardware::radio::V1_0::CdmaT53ClirInfoRecord *",
   "name" : "android::hardware::radio::V1_0::CdmaT53ClirInfoRecord *",
   "referenced_type" : "type-302",
   "self_type" : "type-301",
   "size" : 4,
   "source_file" : "/system/libhidl/base/include/hidl/HidlInternal.h"
  },
  {
   "alignment" : 4,
   "linker_set_key" : "android::hardware::radio::V1_0::CellIdentityCdma *",
   "name" : "android::hardware::radio::V1_0::CellIdentityCdma *",
   "referenced_type" : "type-115",
   "self_type" : "type-114",
   "size" : 4,
   "source_file" : "/system/libhidl/base/include/hidl/HidlInternal.h"
  },
  {
   "alignment" : 4,
   "linker_set_key" : "android::hardware::radio::V1_0::CellIdentityGsm *",
   "name" : "android::hardware::radio::V1_0::CellIdentityGsm *",
   "referenced_type" : "type-106",
   "self_type" : "type-105",
   "size" : 4,
   "source_file" : "/system/libhidl/base/include/hidl/HidlInternal.h"
  },
  {
   "alignment" : 4,
   "linker_set_key" : "android::hardware::radio::V1_0::CellIdentityLte *",
   "name" : "android::hardware::radio::V1_0::CellIdentityLte *",
   "referenced_type" : "type-120",
   "self_type" : "type-119",
   "size" : 4,
   "source_file" : "/system/libhidl/base/include/hidl/HidlInternal.h"
  },
  {
   "alignment" : 4,
   "linker_set_key" : "android::hardware::radio::V1_0::CellIdentityTdscdma *",
   "name" : "android::hardware::radio::V1_0::CellIdentityTdscdma *",
   "referenced_type" : "type-20",
   "self_type" : "type-19",
   "size" : 4,
   "source_file" : "/system/libhidl/base/include/hidl/HidlInternal.h"
  },
  {
   "alignment" : 4,
   "linker_set_key" : "android::hardware::radio::V1_0::CellIdentityWcdma *",
   "name" : "android::hardware::radio::V1_0::CellIdentityWcdma *",
   "referenced_type" : "type-5",
   "self_type" : "type-110",
   "size" : 4,
   "source_file" : "/system/libhidl/base/include/hidl/HidlInternal.h"
  },
  {
   "alignment" : 4,
   "linker_set_key" : "android::hardware::radio::V1_0::CellInfoCdma *",
   "name" : "android::hardware::radio::V1_0::CellInfoCdma *",
   "referenced_type" : "type-156",
   "self_type" : "type-155",
   "size" : 4,
   "source_file" : "/system/libhidl/base/include/hidl/HidlInternal.h"
  },
  {
   "alignment" : 4,
   "linker_set_key" : "android::hardware::radio::V1_0::CellInfoGsm *",
   "name" : "android::hardware::radio::V1_0::CellInfoGsm *",
   "referenced_type" : "type-147",
   "self_type" : "type-146",
   "size" : 4,
   "source_file" : "/system/libhidl/base/include/hidl/HidlInternal.h"
  },
  {
   "alignment" : 4,
   "linker_set_key" : "android::hardware::radio::V1_0::CellInfoLte *",
   "name" : "android::hardware::radio::V1_0::CellInfoLte *",
   "referenced_type" : "type-167",
   "self_type" : "type-166",
   "size" : 4,
   "source_file" : "/system/libhidl/base/include/hidl/HidlInternal.h"
  },
  {
   "alignment" : 4,
   "linker_set_key" : "android::hardware::radio::V1_0::CellInfoTdscdma *",
   "name" : "android::hardware::radio::V1_0::CellInfoTdscdma *",
   "referenced_type" : "type-182",
   "self_type" : "type-181",
   "size" : 4,
   "source_file" : "/system/libhidl/base/include/hidl/HidlInternal.h"
  },
  {
   "alignment" : 4,
   "linker_set_key" : "android::hardware::radio::V1_0::CellInfoWcdma *",
   "name" : "android::hardware::radio::V1_0::CellInfoWcdma *",
   "referenced_type" : "type-4",
   "self_type" : "type-3",
   "size" : 4,
   "source_file" : "/system/libhidl/base/include/hidl/HidlInternal.h"
  },
  {
   "alignment" : 4,
   "linker_set_key" : "android::hardware::radio::V1_0::CfData *",
   "name" : "android::hardware::radio::V1_0::CfData *",
   "referenced_type" : "type-344",
   "self_type" : "type-343",
   "size" : 4,
   "source_file" : "/system/libhidl/base/include/hidl/HidlInternal.h"
  },
  {
   "alignment" : 4,
   "linker_set_key" : "android::hardware::radio::V1_0::GsmSmsMessage *",
   "name" : "android::hardware::radio::V1_0::GsmSmsMessage *",
   "referenced_type" : "type-204",
   "self_type" : "type-203",
   "size" : 4,
   "source_file" : "/system/libhidl/base/include/hidl/HidlInternal.h"
  },
  {
   "alignment" : 4,
   "linker_set_key" : "android::hardware::radio::V1_0::HardwareConfigModem *",
   "name" : "android::hardware::radio::V1_0::HardwareConfigModem *",
   "referenced_type" : "type-233",
   "self_type" : "type-232",
   "size" : 4,
   "source_file" : "/system/libhidl/base/include/hidl/HidlInternal.h"
  },
  {
   "alignment" : 4,
   "linker_set_key" : "android::hardware::radio::V1_0::HardwareConfigSim *",
   "name" : "android::hardware::radio::V1_0::HardwareConfigSim *",
   "referenced_type" : "type-241",
   "self_type" : "type-240",
   "size" : 4,
   "source_file" : "/system/libhidl/base/include/hidl/HidlInternal.h"
  },
  {
   "alignment" : 4,
   "linker_set_key" : "android::hardware::radio::V1_0::SsInfoData *",
   "name" : "android::hardware::radio::V1_0::SsInfoData *",
   "referenced_type" : "type-336",
   "self_type" : "type-335",
   "size" : 4,
   "source_file" : "/system/libhidl/base/include/hidl/HidlInternal.h"
  },
  {
   "alignment" : 4,
   "linker_set_key" : "android::hardware::radio::V1_0::UusInfo *",
   "name" : "android::hardware::radio::V1_0::UusInfo *",
   "referenced_type" : "type-129",
   "self_type" : "type-128",
   "size" : 4,
   "source_file" : "/system/libhidl/base/include/hidl/HidlInternal.h"
  },
  {
   "alignment" : 4,
   "linker_set_key" : "android::hardware::radio::config::V1_0::BnHwRadioConfig *",
   "name" : "android::hardware::radio::config::V1_0::BnHwRadioConfig *",
   "referenced_type" : "type-1729",
   "self_type" : "type-1730",
   "size" : 4,
   "source_file" : "/system/core/libutils/include/utils/RefBase.h"
  },
  {
   "alignment" : 4,
   "linker_set_key" : "android::hardware::radio::config::V1_0::BnHwRadioConfigIndication *",
   "name" : "android::hardware::radio::config::V1_0::BnHwRadioConfigIndication *",
   "referenced_type" : "type-1572",
   "self_type" : "type-1571",
   "size" : 4,
   "source_file" : "/out/soong/.intermediates/hardware/interfaces/radio/config/1.0/android.hardware.radio.config@1.0_genc++_headers/gen/android/hardware/radio/config/1.0/BnHwRadioConfigIndication.h"
  },
  {
   "alignment" : 4,
   "linker_set_key" : "android::hardware::radio::config::V1_0::BnHwRadioConfigResponse *",
   "name" : "android::hardware::radio::config::V1_0::BnHwRadioConfigResponse *",
   "referenced_type" : "type-1584",
   "self_type" : "type-1583",
   "size" : 4,
   "source_file" : "/out/soong/.intermediates/hardware/interfaces/radio/config/1.0/android.hardware.radio.config@1.0_genc++_headers/gen/android/hardware/radio/config/1.0/BnHwRadioConfigResponse.h"
  },
  {
   "alignment" : 4,
   "linker_set_key" : "android::hardware::radio::config::V1_0::BpHwRadioConfig *",
   "name" : "android::hardware::radio::config::V1_0::BpHwRadioConfig *",
   "referenced_type" : "type-1591",
   "self_type" : "type-1742",
   "size" : 4,
   "source_file" : "/system/core/libutils/include/utils/StrongPointer.h"
  },
  {
   "alignment" : 4,
   "linker_set_key" : "android::hardware::radio::config::V1_0::BpHwRadioConfigIndication *",
   "name" : "android::hardware::radio::config::V1_0::BpHwRadioConfigIndication *",
   "referenced_type" : "type-1574",
   "self_type" : "type-1792",
   "size" : 4,
   "source_file" : "/system/core/libutils/include/utils/StrongPointer.h"
  },
  {
   "alignment" : 4,
   "linker_set_key" : "android::hardware::radio::config::V1_0::BpHwRadioConfigResponse *",
   "name" : "android::hardware::radio::config::V1_0::BpHwRadioConfigResponse *",
   "referenced_type" : "type-1586",
   "self_type" : "type-1799",
   "size" : 4,
   "source_file" : "/system/core/libutils/include/utils/StrongPointer.h"
  },
  {
   "alignment" : 4,
   "linker_set_key" : "android::hardware::radio::config::V1_0::BsRadioConfig *",
   "name" : "android::hardware::radio::config::V1_0::BsRadioConfig *",
   "referenced_type" : "type-1740",
   "self_type" : "type-1741",
   "size" : 4,
   "source_file" : "/system/core/libutils/include/utils/StrongPointer.h"
  },
  {
   "alignment" : 4,
   "linker_set_key" : "android::hardware::radio::config::V1_0::BsRadioConfigIndication *",
   "name" : "android::hardware::radio::config::V1_0::BsRadioConfigIndication *",
   "referenced_type" : "type-807",
   "self_type" : "type-814",
   "size" : 4,
   "source_file" : "/system/core/libutils/include/utils/StrongPointer.h"
  },
  {
   "alignment" : 4,
   "linker_set_key" : "android::hardware::radio::config::V1_0::BsRadioConfigResponse *",
   "name" : "android::hardware::radio::config::V1_0::BsRadioConfigResponse *",
   "referenced_type" : "type-1054",
   "self_type" : "type-1059",
   "size" : 4,
   "source_file" : "/system/core/libutils/include/utils/StrongPointer.h"
  },
  {
   "alignment" : 4,
   "linker_set_key" : "android::hardware::radio::config::V1_0::IRadioConfig *",
   "name" : "android::hardware::radio::config::V1_0::IRadioConfig *",
   "referenced_type" : "type-440",
   "self_type" : "type-1705",
   "size" : 4,
   "source_file" : "/system/core/libutils/include/utils/StrongPointer.h"
  },
  {
   "alignment" : 4,
   "linker_set_key" : "android::hardware::radio::config::V1_0::IRadioConfigIndication *",
   "name" : "android::hardware::radio::config::V1_0::IRadioConfigIndication *",
   "referenced_type" : "type-811",
   "self_type" : "type-810",
   "size" : 4,
   "source_file" : "/system/core/libutils/include/utils/StrongPointer.h"
  },
  {
   "alignment" : 4,
   "linker_set_key" : "android::hardware::radio::config::V1_0::IRadioConfigResponse *",
   "name" : "android::hardware::radio::config::V1_0::IRadioConfigResponse *",
   "referenced_type" : "type-1058",
   "self_type" : "type-1057",
   "size" : 4,
   "source_file" : "/system/core/libutils/include/utils/StrongPointer.h"
  },
  {
   "alignment" : 4,
   "linker_set_key" : "android::hardware::radio::config::V1_0::SimSlotStatus *",
   "name" : "android::hardware::radio::config::V1_0::SimSlotStatus *",
   "referenced_type" : "type-795",
   "self_type" : "type-794",
   "size" : 4,
   "source_file" : "/system/libhidl/base/include/hidl/HidlInternal.h"
  },
  {
   "alignment" : 4,
   "linker_set_key" : "android::hidl::base::V1_0::BnHwBase *",
   "name" : "android::hidl::base::V1_0::BnHwBase *",
   "referenced_type" : "type-463",
   "self_type" : "type-462",
   "size" : 4,
   "source_file" : "/out/soong/.intermediates/system/libhidl/transport/base/1.0/android.hidl.base@1.0_genc++_headers/gen/android/hidl/base/1.0/BnHwBase.h"
  },
  {
   "alignment" : 4,
   "linker_set_key" : "android::hidl::base::V1_0::IBase *",
   "name" : "android::hidl::base::V1_0::IBase *",
   "referenced_type" : "type-441",
   "self_type" : "type-465",
   "size" : 4,
   "source_file" : "/system/core/libutils/include/utils/RefBase.h"
  },
  {
   "alignment" : 4,
   "linker_set_key" : "android::hidl::manager::V1_0::IServiceManager *",
   "name" : "android::hidl::manager::V1_0::IServiceManager *",
   "referenced_type" : "type-1778",
   "self_type" : "type-1777",
   "size" : 4,
   "source_file" : "/system/core/libutils/include/utils/StrongPointer.h"
  },
  {
   "alignment" : 4,
   "linker_set_key" : "android::hidl::manager::V1_0::IServiceNotification *",
   "name" : "android::hidl::manager::V1_0::IServiceNotification *",
   "referenced_type" : "type-579",
   "self_type" : "type-1564",
   "size" : 4,
   "source_file" : "/system/core/libutils/include/utils/StrongPointer.h"
  },
  {
   "alignment" : 4,
   "linker_set_key" : "android::sp<android::hardware::IBinder::DeathRecipient> *",
   "name" : "android::sp<android::hardware::IBinder::DeathRecipient> *",
   "referenced_type" : "type-1746",
   "self_type" : "type-1747",
   "size" : 4,
   "source_file" : "/system/core/libutils/include/utils/StrongPointer.h"
  },
  {
   "alignment" : 4,
   "linker_set_key" : "android::sp<android::hardware::IBinder> *",
   "name" : "android::sp<android::hardware::IBinder> *",
   "referenced_type" : "type-1748",
   "self_type" : "type-1749",
   "size" : 4,
   "source_file" : "/system/core/libutils/include/utils/StrongPointer.h"
  },
  {
   "alignment" : 4,
   "linker_set_key" : "android::sp<android::hardware::ProcessState> *",
   "name" : "android::sp<android::hardware::ProcessState> *",
   "referenced_type" : "type-1754",
   "self_type" : "type-1772",
   "size" : 4,
   "source_file" : "/system/core/libutils/include/utils/StrongPointer.h"
  },
  {
   "alignment" : 4,
   "linker_set_key" : "android::sp<android::hardware::hidl_binder_death_recipient> *",
   "name" : "android::sp<android::hardware::hidl_binder_death_recipient> *",
   "referenced_type" : "type-1715",
   "self_type" : "type-1809",
   "size" : 4,
   "source_file" : "/system/core/libutils/include/utils/StrongPointer.h"
  },
  {
   "alignment" : 4,
   "linker_set_key" : "android::sp<android::hardware::radio::config::V1_0::IRadioConfig> *",
   "name" : "android::sp<android::hardware::radio::config::V1_0::IRadioConfig> *",
   "referenced_type" : "type-1704",
   "self_type" : "type-1805",
   "size" : 4,
   "source_file" : "/system/core/libutils/include/utils/StrongPointer.h"
  },
  {
   "alignment" : 4,
   "linker_set_key" : "android::sp<android::hardware::radio::config::V1_0::IRadioConfigIndication> *",
   "name" : "android::sp<android::hardware::radio::config::V1_0::IRadioConfigIndication> *",
   "referenced_type" : "type-809",
   "self_type" : "type-1791",
   "size" : 4,
   "source_file" : "/system/core/libutils/include/utils/StrongPointer.h"
  },
  {
   "alignment" : 4,
   "linker_set_key" : "android::sp<android::hardware::radio::config::V1_0::IRadioConfigResponse> *",
   "name" : "android::sp<android::hardware::radio::config::V1_0::IRadioConfigResponse> *",
   "referenced_type" : "type-1056",
   "self_type" : "type-1798",
   "size" : 4,
   "source_file" : "/system/core/libutils/include/utils/StrongPointer.h"
  },
  {
   "alignment" : 4,
   "linker_set_key" : "android::sp<android::hidl::base::V1_0::IBase> *",
   "name" : "android::sp<android::hidl::base::V1_0::IBase> *",
   "referenced_type" : "type-464",
   "self_type" : "type-1737",
   "size" : 4,
   "source_file" : "/system/core/libutils/include/utils/StrongPointer.h"
  },
  {
   "alignment" : 4,
   "linker_set_key" : "android::sp<android::hidl::manager::V1_0::IServiceManager> *",
   "name" : "android::sp<android::hidl::manager::V1_0::IServiceManager> *",
   "referenced_type" : "type-1776",
   "self_type" : "type-1779",
   "size" : 4,
   "source_file" : "/system/core/libutils/include/utils/StrongPointer.h"
  },
  {
   "alignment" : 4,
   "linker_set_key" : "android::sp<android::hidl::manager::V1_0::IServiceNotification> *",
   "name" : "android::sp<android::hidl::manager::V1_0::IServiceNotification> *",
   "referenced_type" : "type-1563",
   "self_type" : "type-1789",
   "size" : 4,
   "source_file" : "/system/core/libutils/include/utils/StrongPointer.h"
  },
  {
   "alignment" : 4,
   "linker_set_key" : "android::wp<android::hardware::BHwBinder> *",
   "name" : "android::wp<android::hardware::BHwBinder> *",
   "referenced_type" : "type-495",
   "self_type" : "type-1728",
   "size" : 4,
   "source_file" : "/system/core/libutils/include/utils/RefBase.h"
  },
  {
   "alignment" : 4,
   "linker_set_key" : "android::wp<android::hardware::IBinder::DeathRecipient> *",
   "name" : "android::wp<android::hardware::IBinder::DeathRecipient> *",
   "referenced_type" : "type-1710",
   "self_type" : "type-1713",
   "size" : 4,
   "source_file" : "/system/core/libutils/include/utils/RefBase.h"
  },
  {
   "alignment" : 4,
   "linker_set_key" : "android::wp<android::hardware::hidl_death_recipient> *",
   "name" : "android::wp<android::hardware::hidl_death_recipient> *",
   "referenced_type" : "type-1718",
   "self_type" : "type-1722",
   "size" : 4,
   "source_file" : "/system/core/libutils/include/utils/RefBase.h"
  },
  {
   "alignment" : 4,
   "linker_set_key" : "android::wp<android::hidl::base::V1_0::IBase> *",
   "name" : "android::wp<android::hidl::base::V1_0::IBase> *",
   "referenced_type" : "type-478",
   "self_type" : "type-1702",
   "size" : 4,
   "source_file" : "/system/core/libutils/include/utils/RefBase.h"
  },
  {
   "alignment" : 4,
   "linker_set_key" : "android_flex_plane *",
   "name" : "android_flex_plane *",
   "referenced_type" : "type-542",
   "self_type" : "type-545",
   "size" : 4,
   "source_file" : "/system/core/libsystem/include/system/graphics.h"
  },
  {
   "alignment" : 4,
   "linker_set_key" : "bool (*)(const android::String16 &, const android::sp<android::hardware::IBinder> &, void *)",
   "name" : "bool (*)(const android::String16 &, const android::sp<android::hardware::IBinder> &, void *)",
   "referenced_type" : "type-1763",
   "self_type" : "type-1762",
   "size" : 4,
   "source_file" : "/system/libhwbinder/include/hwbinder/ProcessState.h"
  },
  {
   "alignment" : 4,
   "linker_set_key" : "char *",
   "name" : "char *",
   "referenced_type" : "type-11",
   "self_type" : "type-363",
   "size" : 4,
   "source_file" : "/system/core/liblog/include/log/log_read.h"
  },
  {
   "alignment" : 4,
   "linker_set_key" : "const android::NativeHandle *",
   "name" : "const android::NativeHandle *",
   "referenced_type" : "type-397",
   "self_type" : "type-401",
   "size" : 4,
   "source_file" : "/system/core/libutils/include/utils/NativeHandle.h"
  },
  {
   "alignment" : 4,
   "linker_set_key" : "const android::RefBase *",
   "name" : "const android::RefBase *",
   "referenced_type" : "type-26",
   "self_type" : "type-31",
   "size" : 4,
   "source_file" : "/system/core/libutils/include/utils/RefBase.h"
  },
  {
   "alignment" : 4,
   "linker_set_key" : "const android::String16 *",
   "name" : "const android::String16 *",
   "referenced_type" : "type-419",
   "self_type" : "type-418",
   "size" : 4,
   "source_file" : "/system/core/libutils/include/utils/String16.h"
  },
  {
   "alignment" : 4,
   "linker_set_key" : "const android::String8 *",
   "name" : "const android::String8 *",
   "referenced_type" : "type-410",
   "self_type" : "type-412",
   "size" : 4,
   "source_file" : "/system/core/libutils/include/utils/String8.h"
  },
  {
   "alignment" : 4,
   "linker_set_key" : "const android::VectorImpl *",
   "name" : "const android::VectorImpl *",
   "referenced_type" : "type-522",
   "self_type" : "type-524",
   "size" : 4,
   "source_file" : "/system/core/libutils/include/utils/VectorImpl.h"
  },
  {
   "alignment" : 4,
   "linker_set_key" : "const android::hardware::BpHwRefBase *",
   "name" : "const android::hardware::BpHwRefBase *",
   "referenced_type" : "type-429",
   "self_type" : "type-437",
   "size" : 4,
   "source_file" : "/system/libhwbinder/include/hwbinder/Binder.h"
  },
  {
   "alignment" : 4,
   "linker_set_key" : "const android::hardware::ConcurrentMap<android::wp<android::hidl::base::V1_0::IBase>, android::hardware::details::SchedPrio> *",
   "name" : "const android::hardware::ConcurrentMap<android::wp<android::hidl::base::V1_0::IBase>, android::hardware::details::SchedPrio> *",
   "referenced_type" : "type-482",
   "self_type" : "type-483",
   "size" : 4,
   "source_file" : "/system/libhidl/transport/include/hidl/ConcurrentMap.h"
  },
  {
   "alignment" : 4,
   "linker_set_key" : "const android::hardware::ConcurrentMap<android::wp<android::hidl::base::V1_0::IBase>, bool> *",
   "name" : "const android::hardware::ConcurrentMap<android::wp<android::hidl::base::V1_0::IBase>, bool> *",
   "referenced_type" : "type-488",
   "self_type" : "type-489",
   "size" : 4,
   "source_file" : "/system/libhidl/transport/include/hidl/ConcurrentMap.h"
  },
  {
   "alignment" : 4,
   "linker_set_key" : "const android::hardware::Return<android::sp<android::hardware::radio::config::V1_0::IRadioConfig> > *",
   "name" : "const android::hardware::Return<android::sp<android::hardware::radio::config::V1_0::IRadioConfig> > *",
   "referenced_type" : "type-1831",
   "self_type" : "type-1832",
   "size" : 4,
   "source_file" : "/system/libhidl/base/include/hidl/Status.h"
  },
  {
   "alignment" : 4,
   "linker_set_key" : "const android::hardware::Return<android::sp<android::hardware::radio::config::V1_0::IRadioConfigIndication> > *",
   "name" : "const android::hardware::Return<android::sp<android::hardware::radio::config::V1_0::IRadioConfigIndication> > *",
   "referenced_type" : "type-822",
   "self_type" : "type-823",
   "size" : 4,
   "source_file" : "/system/libhidl/base/include/hidl/Status.h"
  },
  {
   "alignment" : 4,
   "linker_set_key" : "const android::hardware::Return<android::sp<android::hardware::radio::config::V1_0::IRadioConfigResponse> > *",
   "name" : "const android::hardware::Return<android::sp<android::hardware::radio::config::V1_0::IRadioConfigResponse> > *",
   "referenced_type" : "type-1068",
   "self_type" : "type-1069",
   "size" : 4,
   "source_file" : "/system/libhidl/base/include/hidl/Status.h"
  },
  {
   "alignment" : 4,
   "linker_set_key" : "const android::hardware::Return<bool> *",
   "name" : "const android::hardware::Return<bool> *",
   "referenced_type" : "type-1825",
   "self_type" : "type-1826",
   "size" : 4,
   "source_file" : "/system/libhidl/base/include/hidl/Status.h"
  },
  {
   "alignment" : 4,
   "linker_set_key" : "const android::hardware::Status *",
   "name" : "const android::hardware::Status *",
   "referenced_type" : "type-1816",
   "self_type" : "type-1820",
   "size" : 4,
   "source_file" : "/system/libhidl/base/include/hidl/Status.h"
  },
  {
   "alignment" : 4,
   "linker_set_key" : "const android::hardware::details::const_accessor<unsigned int, 5> *",
   "name" : "const android::hardware::details::const_accessor<unsigned int, 5> *",
   "referenced_type" : "type-368",
   "self_type" : "type-369",
   "size" : 4,
   "source_file" : "/system/libhidl/base/include/hidl/HidlSupport.h"
  },
  {
   "alignment" : 4,
   "linker_set_key" : "const android::hardware::details::hidl_pointer<android::hardware::hidl_array<unsigned char, 32> > *",
   "name" : "const android::hardware::details::hidl_pointer<android::hardware::hidl_array<unsigned char, 32> > *",
   "referenced_type" : "type-1694",
   "self_type" : "type-1695",
   "size" : 4,
   "source_file" : "/system/libhidl/base/include/hidl/HidlInternal.h"
  },
  {
   "alignment" : 4,
   "linker_set_key" : "const android::hardware::details::hidl_pointer<android::hardware::hidl_string> *",
   "name" : "const android::hardware::details::hidl_pointer<android::hardware::hidl_string> *",
   "referenced_type" : "type-1689",
   "self_type" : "type-1690",
   "size" : 4,
   "source_file" : "/system/libhidl/base/include/hidl/HidlInternal.h"
  },
  {
   "alignment" : 4,
   "linker_set_key" : "const android::hardware::details::hidl_pointer<android::hardware::radio::V1_0::AppStatus> *",
   "name" : "const android::hardware::details::hidl_pointer<android::hardware::radio::V1_0::AppStatus> *",
   "referenced_type" : "type-67",
   "self_type" : "type-90",
   "size" : 4,
   "source_file" : "/system/libhidl/base/include/hidl/HidlInternal.h"
  },
  {
   "alignment" : 4,
   "linker_set_key" : "const android::hardware::details::hidl_pointer<android::hardware::radio::V1_0::CallForwardInfo> *",
   "name" : "const android::hardware::details::hidl_pointer<android::hardware::radio::V1_0::CallForwardInfo> *",
   "referenced_type" : "type-1666",
   "self_type" : "type-1667",
   "size" : 4,
   "source_file" : "/system/libhidl/base/include/hidl/HidlInternal.h"
  },
  {
   "alignment" : 4,
   "linker_set_key" : "const android::hardware::details::hidl_pointer<android::hardware::radio::V1_0::Carrier> *",
   "name" : "const android::hardware::details::hidl_pointer<android::hardware::radio::V1_0::Carrier> *",
   "referenced_type" : "type-1628",
   "self_type" : "type-1629",
   "size" : 4,
   "source_file" : "/system/libhidl/base/include/hidl/HidlInternal.h"
  },
  {
   "alignment" : 4,
   "linker_set_key" : "const android::hardware::details::hidl_pointer<android::hardware::radio::V1_0::CdmaDisplayInfoRecord> *",
   "name" : "const android::hardware::details::hidl_pointer<android::hardware::radio::V1_0::CdmaDisplayInfoRecord> *",
   "referenced_type" : "type-1633",
   "self_type" : "type-1634",
   "size" : 4,
   "source_file" : "/system/libhidl/base/include/hidl/HidlInternal.h"
  },
  {
   "alignment" : 4,
   "linker_set_key" : "const android::hardware::details::hidl_pointer<android::hardware::radio::V1_0::CdmaInformationRecord> *",
   "name" : "const android::hardware::details::hidl_pointer<android::hardware::radio::V1_0::CdmaInformationRecord> *",
   "referenced_type" : "type-1662",
   "self_type" : "type-1663",
   "size" : 4,
   "source_file" : "/system/libhidl/base/include/hidl/HidlInternal.h"
  },
  {
   "alignment" : 4,
   "linker_set_key" : "const android::hardware::details::hidl_pointer<android::hardware::radio::V1_0::CdmaLineControlInfoRecord> *",
   "name" : "const android::hardware::details::hidl_pointer<android::hardware::radio::V1_0::CdmaLineControlInfoRecord> *",
   "referenced_type" : "type-1650",
   "self_type" : "type-1651",
   "size" : 4,
   "source_file" : "/system/libhidl/base/include/hidl/HidlInternal.h"
  },
  {
   "alignment" : 4,
   "linker_set_key" : "const android::hardware::details::hidl_pointer<android::hardware::radio::V1_0::CdmaNumberInfoRecord> *",
   "name" : "const android::hardware::details::hidl_pointer<android::hardware::radio::V1_0::CdmaNumberInfoRecord> *",
   "referenced_type" : "type-1637",
   "self_type" : "type-1638",
   "size" : 4,
   "source_file" : "/system/libhidl/base/include/hidl/HidlInternal.h"
  },
  {
   "alignment" : 4,
   "linker_set_key" : "const android::hardware::details::hidl_pointer<android::hardware::radio::V1_0::CdmaRedirectingNumberInfoRecord> *",
   "name" : "const android::hardware::details::hidl_pointer<android::hardware::radio::V1_0::CdmaRedirectingNumberInfoRecord> *",
   "referenced_type" : "type-1646",
   "self_type" : "type-1647",
   "size" : 4,
   "source_file" : "/system/libhidl/base/include/hidl/HidlInternal.h"
  },
  {
   "alignment" : 4,
   "linker_set_key" : "const android::hardware::details::hidl_pointer<android::hardware::radio::V1_0::CdmaSignalInfoRecord> *",
   "name" : "const android::hardware::details::hidl_pointer<android::hardware::radio::V1_0::CdmaSignalInfoRecord> *",
   "referenced_type" : "type-1641",
   "self_type" : "type-1642",
   "size" : 4,
   "source_file" : "/system/libhidl/base/include/hidl/HidlInternal.h"
  },
  {
   "alignment" : 4,
   "linker_set_key" : "const android::hardware::details::hidl_pointer<android::hardware::radio::V1_0::CdmaSmsMessage> *",
   "name" : "const android::hardware::details::hidl_pointer<android::hardware::radio::V1_0::CdmaSmsMessage> *",
   "referenced_type" : "type-1610",
   "self_type" : "type-1611",
   "size" : 4,
   "source_file" : "/system/libhidl/base/include/hidl/HidlInternal.h"
  },
  {
   "alignment" : 4,
   "linker_set_key" : "const android::hardware::details::hidl_pointer<android::hardware::radio::V1_0::CdmaT53AudioControlInfoRecord> *",
   "name" : "const android::hardware::details::hidl_pointer<android::hardware::radio::V1_0::CdmaT53AudioControlInfoRecord> *",
   "referenced_type" : "type-1658",
   "self_type" : "type-1659",
   "size" : 4,
   "source_file" : "/system/libhidl/base/include/hidl/HidlInternal.h"
  },
  {
   "alignment" : 4,
   "linker_set_key" : "const android::hardware::details::hidl_pointer<android::hardware::radio::V1_0::CdmaT53ClirInfoRecord> *",
   "name" : "const android::hardware::details::hidl_pointer<android::hardware::radio::V1_0::CdmaT53ClirInfoRecord> *",
   "referenced_type" : "type-1654",
   "self_type" : "type-1655",
   "size" : 4,
   "source_file" : "/system/libhidl/base/include/hidl/HidlInternal.h"
  },
  {
   "alignment" : 4,
   "linker_set_key" : "const android::hardware::details::hidl_pointer<android::hardware::radio::V1_0::CellIdentityCdma> *",
   "name" : "const android::hardware::details::hidl_pointer<android::hardware::radio::V1_0::CellIdentityCdma> *",
   "referenced_type" : "type-1598",
   "self_type" : "type-1599",
   "size" : 4,
   "source_file" : "/system/libhidl/base/include/hidl/HidlInternal.h"
  },
  {
   "alignment" : 4,
   "linker_set_key" : "const android::hardware::details::hidl_pointer<android::hardware::radio::V1_0::CellIdentityGsm> *",
   "name" : "const android::hardware::details::hidl_pointer<android::hardware::radio::V1_0::CellIdentityGsm> *",
   "referenced_type" : "type-1485",
   "self_type" : "type-1497",
   "size" : 4,
   "source_file" : "/system/libhidl/base/include/hidl/HidlInternal.h"
  },
  {
   "alignment" : 4,
   "linker_set_key" : "const android::hardware::details::hidl_pointer<android::hardware::radio::V1_0::CellIdentityLte> *",
   "name" : "const android::hardware::details::hidl_pointer<android::hardware::radio::V1_0::CellIdentityLte> *",
   "referenced_type" : "type-1602",
   "self_type" : "type-1603",
   "size" : 4,
   "source_file" : "/system/libhidl/base/include/hidl/HidlInternal.h"
  },
  {
   "alignment" : 4,
   "linker_set_key" : "const android::hardware::details::hidl_pointer<android::hardware::radio::V1_0::CellIdentityTdscdma> *",
   "name" : "const android::hardware::details::hidl_pointer<android::hardware::radio::V1_0::CellIdentityTdscdma> *",
   "referenced_type" : "type-1606",
   "self_type" : "type-1607",
   "size" : 4,
   "source_file" : "/system/libhidl/base/include/hidl/HidlInternal.h"
  },
  {
   "alignment" : 4,
   "linker_set_key" : "const android::hardware::details::hidl_pointer<android::hardware::radio::V1_0::CellIdentityWcdma> *",
   "name" : "const android::hardware::details::hidl_pointer<android::hardware::radio::V1_0::CellIdentityWcdma> *",
   "referenced_type" : "type-1581",
   "self_type" : "type-1595",
   "size" : 4,
   "source_file" : "/system/libhidl/base/include/hidl/HidlInternal.h"
  },
  {
   "alignment" : 4,
   "linker_set_key" : "const android::hardware::details::hidl_pointer<android::hardware::radio::V1_0::CellInfoCdma> *",
   "name" : "const android::hardware::details::hidl_pointer<android::hardware::radio::V1_0::CellInfoCdma> *",
   "referenced_type" : "type-575",
   "self_type" : "type-587",
   "size" : 4,
   "source_file" : "/system/libhidl/base/include/hidl/HidlInternal.h"
  },
  {
   "alignment" : 4,
   "linker_set_key" : "const android::hardware::details::hidl_pointer<android::hardware::radio::V1_0::CellInfoGsm> *",
   "name" : "const android::hardware::details::hidl_pointer<android::hardware::radio::V1_0::CellInfoGsm> *",
   "referenced_type" : "type-487",
   "self_type" : "type-505",
   "size" : 4,
   "source_file" : "/system/libhidl/base/include/hidl/HidlInternal.h"
  },
  {
   "alignment" : 4,
   "linker_set_key" : "const android::hardware::details::hidl_pointer<android::hardware::radio::V1_0::CellInfoLte> *",
   "name" : "const android::hardware::details::hidl_pointer<android::hardware::radio::V1_0::CellInfoLte> *",
   "referenced_type" : "type-595",
   "self_type" : "type-596",
   "size" : 4,
   "source_file" : "/system/libhidl/base/include/hidl/HidlInternal.h"
  },
  {
   "alignment" : 4,
   "linker_set_key" : "const android::hardware::details::hidl_pointer<android::hardware::radio::V1_0::CellInfoTdscdma> *",
   "name" : "const android::hardware::details::hidl_pointer<android::hardware::radio::V1_0::CellInfoTdscdma> *",
   "referenced_type" : "type-1400",
   "self_type" : "type-1411",
   "size" : 4,
   "source_file" : "/system/libhidl/base/include/hidl/HidlInternal.h"
  },
  {
   "alignment" : 4,
   "linker_set_key" : "const android::hardware::details::hidl_pointer<android::hardware::radio::V1_0::CellInfoWcdma> *",
   "name" : "const android::hardware::details::hidl_pointer<android::hardware::radio::V1_0::CellInfoWcdma> *",
   "referenced_type" : "type-1089",
   "self_type" : "type-1123",
   "size" : 4,
   "source_file" : "/system/libhidl/base/include/hidl/HidlInternal.h"
  },
  {
   "alignment" : 4,
   "linker_set_key" : "const android::hardware::details::hidl_pointer<android::hardware::radio::V1_0::CfData> *",
   "name" : "const android::hardware::details::hidl_pointer<android::hardware::radio::V1_0::CfData> *",
   "referenced_type" : "type-1676",
   "self_type" : "type-1677",
   "size" : 4,
   "source_file" : "/system/libhidl/base/include/hidl/HidlInternal.h"
  },
  {
   "alignment" : 4,
   "linker_set_key" : "const android::hardware::details::hidl_pointer<android::hardware::radio::V1_0::GsmSmsMessage> *",
   "name" : "const android::hardware::details::hidl_pointer<android::hardware::radio::V1_0::GsmSmsMessage> *",
   "referenced_type" : "type-1614",
   "self_type" : "type-1615",
   "size" : 4,
   "source_file" : "/system/libhidl/base/include/hidl/HidlInternal.h"
  },
  {
   "alignment" : 4,
   "linker_set_key" : "const android::hardware::details::hidl_pointer<android::hardware::radio::V1_0::HardwareConfigModem> *",
   "name" : "const android::hardware::details::hidl_pointer<android::hardware::radio::V1_0::HardwareConfigModem> *",
   "referenced_type" : "type-1618",
   "self_type" : "type-1619",
   "size" : 4,
   "source_file" : "/system/libhidl/base/include/hidl/HidlInternal.h"
  },
  {
   "alignment" : 4,
   "linker_set_key" : "const android::hardware::details::hidl_pointer<android::hardware::radio::V1_0::HardwareConfigSim> *",
   "name" : "const android::hardware::details::hidl_pointer<android::hardware::radio::V1_0::HardwareConfigSim> *",
   "referenced_type" : "type-1623",
   "self_type" : "type-1624",
   "size" : 4,
   "source_file" : "/system/libhidl/base/include/hidl/HidlInternal.h"
  },
  {
   "alignment" : 4,
   "linker_set_key" : "const android::hardware::details::hidl_pointer<android::hardware::radio::V1_0::SsInfoData> *",
   "name" : "const android::hardware::details::hidl_pointer<android::hardware::radio::V1_0::SsInfoData> *",
   "referenced_type" : "type-1671",
   "self_type" : "type-1672",
   "size" : 4,
   "source_file" : "/system/libhidl/base/include/hidl/HidlInternal.h"
  },
  {
   "alignment" : 4,
   "linker_set_key" : "const android::hardware::details::hidl_pointer<android::hardware::radio::V1_0::UusInfo> *",
   "name" : "const android::hardware::details::hidl_pointer<android::hardware::radio::V1_0::UusInfo> *",
   "referenced_type" : "type-243",
   "self_type" : "type-262",
   "size" : 4,
   "source_file" : "/system/libhidl/base/include/hidl/HidlInternal.h"
  },
  {
   "alignment" : 4,
   "linker_set_key" : "const android::hardware::details::hidl_pointer<android::hardware::radio::config::V1_0::SimSlotStatus> *",
   "name" : "const android::hardware::details::hidl_pointer<android::hardware::radio::config::V1_0::SimSlotStatus> *",
   "referenced_type" : "type-799",
   "self_type" : "type-800",
   "size" : 4,
   "source_file" : "/system/libhidl/base/include/hidl/HidlInternal.h"
  },
  {
   "alignment" : 4,
   "linker_set_key" : "const android::hardware::details::hidl_pointer<int> *",
   "name" : "const android::hardware::details::hidl_pointer<int> *",
   "referenced_type" : "type-1876",
   "self_type" : "type-1887",
   "size" : 4,
   "source_file" : "/system/libhidl/base/include/hidl/HidlInternal.h"
  },
  {
   "alignment" : 4,
   "linker_set_key" : "const android::hardware::details::hidl_pointer<unsigned char> *",
   "name" : "const android::hardware::details::hidl_pointer<unsigned char> *",
   "referenced_type" : "type-376",
   "self_type" : "type-389",
   "size" : 4,
   "source_file" : "/system/libhidl/base/include/hidl/HidlInternal.h"
  },
  {
   "alignment" : 4,
   "linker_set_key" : "const android::hardware::details::hidl_pointer<unsigned int> *",
   "name" : "const android::hardware::details::hidl_pointer<unsigned int> *",
   "referenced_type" : "type-1681",
   "self_type" : "type-1682",
   "size" : 4,
   "source_file" : "/system/libhidl/base/include/hidl/HidlInternal.h"
  },
  {
   "alignment" : 4,
   "linker_set_key" : "const android::hardware::details::return_status *",
   "name" : "const android::hardware::details::return_status *",
   "referenced_type" : "type-1836",
   "self_type" : "type-1837",
   "size" : 4,
   "source_file" : "/system/libhidl/base/include/hidl/Status.h"
  },
  {
   "alignment" : 4,
   "linker_set_key" : "const android::hardware::hidl_array<unsigned int, 5> *",
   "name" : "const android::hardware::hidl_array<unsigned int, 5> *",
   "referenced_type" : "type-374",
   "self_type" : "type-375",
   "size" : 4,
   "source_file" : "/system/libhidl/base/include/hidl/HidlSupport.h"
  },
  {
   "alignment" : 4,
   "linker_set_key" : "const android::hardware::hidl_death_recipient *",
   "name" : "const android::hardware::hidl_death_recipient *",
   "referenced_type" : "type-1735",
   "self_type" : "type-1736",
   "size" : 4,
   "source_file" : "/system/core/libutils/include/utils/StrongPointer.h"
  },
  {
   "alignment" : 4,
   "linker_set_key" : "const android::hardware::hidl_memory *",
   "name" : "const android::hardware::hidl_memory *",
   "referenced_type" : "type-53",
   "self_type" : "type-57",
   "size" : 4,
   "source_file" : "/system/libhidl/base/include/hidl/HidlSupport.h"
  },
  {
   "alignment" : 4,
   "linker_set_key" : "const android::hardware::hidl_vec<android::hardware::radio::V1_0::AppStatus> *",
   "name" : "const android::hardware::hidl_vec<android::hardware::radio::V1_0::AppStatus> *",
   "referenced_type" : "type-122",
   "self_type" : "type-123",
   "size" : 4,
   "source_file" : "/system/libhidl/base/include/hidl/HidlSupport.h"
  },
  {
   "alignment" : 4,
   "linker_set_key" : "const android::hardware::hidl_vec<android::hardware::radio::V1_0::CallForwardInfo> *",
   "name" : "const android::hardware::hidl_vec<android::hardware::radio::V1_0::CallForwardInfo> *",
   "referenced_type" : "type-322",
   "self_type" : "type-329",
   "size" : 4,
   "source_file" : "/system/libhidl/base/include/hidl/HidlSupport.h"
  },
  {
   "alignment" : 4,
   "linker_set_key" : "const android::hardware::hidl_vec<android::hardware::radio::V1_0::Carrier> *",
   "name" : "const android::hardware::hidl_vec<android::hardware::radio::V1_0::Carrier> *",
   "referenced_type" : "type-245",
   "self_type" : "type-252",
   "size" : 4,
   "source_file" : "/system/libhidl/base/include/hidl/HidlSupport.h"
  },
  {
   "alignment" : 4,
   "linker_set_key" : "const android::hardware::hidl_vec<android::hardware::radio::V1_0::CdmaDisplayInfoRecord> *",
   "name" : "const android::hardware::hidl_vec<android::hardware::radio::V1_0::CdmaDisplayInfoRecord> *",
   "referenced_type" : "type-254",
   "self_type" : "type-260",
   "size" : 4,
   "source_file" : "/system/libhidl/base/include/hidl/HidlSupport.h"
  },
  {
   "alignment" : 4,
   "linker_set_key" : "const android::hardware::hidl_vec<android::hardware::radio::V1_0::CdmaInformationRecord> *",
   "name" : "const android::hardware::hidl_vec<android::hardware::radio::V1_0::CdmaInformationRecord> *",
   "referenced_type" : "type-313",
   "self_type" : "type-320",
   "size" : 4,
   "source_file" : "/system/libhidl/base/include/hidl/HidlSupport.h"
  },
  {
   "alignment" : 4,
   "linker_set_key" : "const android::hardware::hidl_vec<android::hardware::radio::V1_0::CdmaLineControlInfoRecord> *",
   "name" : "const android::hardware::hidl_vec<android::hardware::radio::V1_0::CdmaLineControlInfoRecord> *",
   "referenced_type" : "type-289",
   "self_type" : "type-295",
   "size" : 4,
   "source_file" : "/system/libhidl/base/include/hidl/HidlSupport.h"
  },
  {
   "alignment" : 4,
   "linker_set_key" : "const android::hardware::hidl_vec<android::hardware::radio::V1_0::CdmaNumberInfoRecord> *",
   "name" : "const android::hardware::hidl_vec<android::hardware::radio::V1_0::CdmaNumberInfoRecord> *",
   "referenced_type" : "type-263",
   "self_type" : "type-269",
   "size" : 4,
   "source_file" : "/system/libhidl/base/include/hidl/HidlSupport.h"
  },
  {
   "alignment" : 4,
   "linker_set_key" : "const android::hardware::hidl_vec<android::hardware::radio::V1_0::CdmaRedirectingNumberInfoRecord> *",
   "name" : "const android::hardware::hidl_vec<android::hardware::radio::V1_0::CdmaRedirectingNumberInfoRecord> *",
   "referenced_type" : "type-280",
   "self_type" : "type-287",
   "size" : 4,
   "source_file" : "/system/libhidl/base/include/hidl/HidlSupport.h"
  },
  {
   "alignment" : 4,
   "linker_set_key" : "const android::hardware::hidl_vec<android::hardware::radio::V1_0::CdmaSignalInfoRecord> *",
   "name" : "const android::hardware::hidl_vec<android::hardware::radio::V1_0::CdmaSignalInfoRecord> *",
   "referenced_type" : "type-271",
   "self_type" : "type-278",
   "size" : 4,
   "source_file" : "/system/libhidl/base/include/hidl/HidlSupport.h"
  },
  {
   "alignment" : 4,
   "linker_set_key" : "const android::hardware::hidl_vec<android::hardware::radio::V1_0::CdmaSmsMessage> *",
   "name" : "const android::hardware::hidl_vec<android::hardware::radio::V1_0::CdmaSmsMessage> *",
   "referenced_type" : "type-222",
   "self_type" : "type-223",
   "size" : 4,
   "source_file" : "/system/libhidl/base/include/hidl/HidlSupport.h"
  },
  {
   "alignment" : 4,
   "linker_set_key" : "const android::hardware::hidl_vec<android::hardware::radio::V1_0::CdmaT53AudioControlInfoRecord> *",
   "name" : "const android::hardware::hidl_vec<android::hardware::radio::V1_0::CdmaT53AudioControlInfoRecord> *",
   "referenced_type" : "type-305",
   "self_type" : "type-311",
   "size" : 4,
   "source_file" : "/system/libhidl/base/include/hidl/HidlSupport.h"
  },
  {
   "alignment" : 4,
   "linker_set_key" : "const android::hardware::hidl_vec<android::hardware::radio::V1_0::CdmaT53ClirInfoRecord> *",
   "name" : "const android::hardware::hidl_vec<android::hardware::radio::V1_0::CdmaT53ClirInfoRecord> *",
   "referenced_type" : "type-297",
   "self_type" : "type-303",
   "size" : 4,
   "source_file" : "/system/libhidl/base/include/hidl/HidlSupport.h"
  },
  {
   "alignment" : 4,
   "linker_set_key" : "const android::hardware::hidl_vec<android::hardware::radio::V1_0::CellIdentityCdma> *",
   "name" : "const android::hardware::hidl_vec<android::hardware::radio::V1_0::CellIdentityCdma> *",
   "referenced_type" : "type-211",
   "self_type" : "type-212",
   "size" : 4,
   "source_file" : "/system/libhidl/base/include/hidl/HidlSupport.h"
  },
  {
   "alignment" : 4,
   "linker_set_key" : "const android::hardware::hidl_vec<android::hardware::radio::V1_0::CellIdentityGsm> *",
   "name" : "const android::hardware::hidl_vec<android::hardware::radio::V1_0::CellIdentityGsm> *",
   "referenced_type" : "type-205",
   "self_type" : "type-206",
   "size" : 4,
   "source_file" : "/system/libhidl/base/include/hidl/HidlSupport.h"
  },
  {
   "alignment" : 4,
   "linker_set_key" : "const android::hardware::hidl_vec<android::hardware::radio::V1_0::CellIdentityLte> *",
   "name" : "const android::hardware::hidl_vec<android::hardware::radio::V1_0::CellIdentityLte> *",
   "referenced_type" : "type-214",
   "self_type" : "type-215",
   "size" : 4,
   "source_file" : "/system/libhidl/base/include/hidl/HidlSupport.h"
  },
  {
   "alignment" : 4,
   "linker_set_key" : "const android::hardware::hidl_vec<android::hardware::radio::V1_0::CellIdentityTdscdma> *",
   "name" : "const android::hardware::hidl_vec<android::hardware::radio::V1_0::CellIdentityTdscdma> *",
   "referenced_type" : "type-219",
   "self_type" : "type-220",
   "size" : 4,
   "source_file" : "/system/libhidl/base/include/hidl/HidlSupport.h"
  },
  {
   "alignment" : 4,
   "linker_set_key" : "const android::hardware::hidl_vec<android::hardware::radio::V1_0::CellIdentityWcdma> *",
   "name" : "const android::hardware::hidl_vec<android::hardware::radio::V1_0::CellIdentityWcdma> *",
   "referenced_type" : "type-208",
   "self_type" : "type-209",
   "size" : 4,
   "source_file" : "/system/libhidl/base/include/hidl/HidlSupport.h"
  },
  {
   "alignment" : 4,
   "linker_set_key" : "const android::hardware::hidl_vec<android::hardware::radio::V1_0::CellInfoCdma> *",
   "name" : "const android::hardware::hidl_vec<android::hardware::radio::V1_0::CellInfoCdma> *",
   "referenced_type" : "type-151",
   "self_type" : "type-159",
   "size" : 4,
   "source_file" : "/system/libhidl/base/include/hidl/HidlSupport.h"
  },
  {
   "alignment" : 4,
   "linker_set_key" : "const android::hardware::hidl_vec<android::hardware::radio::V1_0::CellInfoGsm> *",
   "name" : "const android::hardware::hidl_vec<android::hardware::radio::V1_0::CellInfoGsm> *",
   "referenced_type" : "type-142",
   "self_type" : "type-149",
   "size" : 4,
   "source_file" : "/system/libhidl/base/include/hidl/HidlSupport.h"
  },
  {
   "alignment" : 4,
   "linker_set_key" : "const android::hardware::hidl_vec<android::hardware::radio::V1_0::CellInfoLte> *",
   "name" : "const android::hardware::hidl_vec<android::hardware::radio::V1_0::CellInfoLte> *",
   "referenced_type" : "type-162",
   "self_type" : "type-169",
   "size" : 4,
   "source_file" : "/system/libhidl/base/include/hidl/HidlSupport.h"
  },
  {
   "alignment" : 4,
   "linker_set_key" : "const android::hardware::hidl_vec<android::hardware::radio::V1_0::CellInfoTdscdma> *",
   "name" : "const android::hardware::hidl_vec<android::hardware::radio::V1_0::CellInfoTdscdma> *",
   "referenced_type" : "type-177",
   "self_type" : "type-184",
   "size" : 4,
   "source_file" : "/system/libhidl/base/include/hidl/HidlSupport.h"
  },
  {
   "alignment" : 4,
   "linker_set_key" : "const android::hardware::hidl_vec<android::hardware::radio::V1_0::CellInfoWcdma> *",
   "name" : "const android::hardware::hidl_vec<android::hardware::radio::V1_0::CellInfoWcdma> *",
   "referenced_type" : "type-171",
   "self_type" : "type-175",
   "size" : 4,
   "source_file" : "/system/libhidl/base/include/hidl/HidlSupport.h"
  },
  {
   "alignment" : 4,
   "linker_set_key" : "const android::hardware::hidl_vec<android::hardware::radio::V1_0::CfData> *",
   "name" : "const android::hardware::hidl_vec<android::hardware::radio::V1_0::CfData> *",
   "referenced_type" : "type-339",
   "self_type" : "type-345",
   "size" : 4,
   "source_file" : "/system/libhidl/base/include/hidl/HidlSupport.h"
  },
  {
   "alignment" : 4,
   "linker_set_key" : "const android::hardware::hidl_vec<android::hardware::radio::V1_0::GsmSmsMessage> *",
   "name" : "const android::hardware::hidl_vec<android::hardware::radio::V1_0::GsmSmsMessage> *",
   "referenced_type" : "type-225",
   "self_type" : "type-226",
   "size" : 4,
   "source_file" : "/system/libhidl/base/include/hidl/HidlSupport.h"
  },
  {
   "alignment" : 4,
   "linker_set_key" : "const android::hardware::hidl_vec<android::hardware::radio::V1_0::HardwareConfigModem> *",
   "name" : "const android::hardware::hidl_vec<android::hardware::radio::V1_0::HardwareConfigModem> *",
   "referenced_type" : "type-228",
   "self_type" : "type-234",
   "size" : 4,
   "source_file" : "/system/libhidl/base/include/hidl/HidlSupport.h"
  },
  {
   "alignment" : 4,
   "linker_set_key" : "const android::hardware::hidl_vec<android::hardware::radio::V1_0::HardwareConfigSim> *",
   "name" : "const android::hardware::hidl_vec<android::hardware::radio::V1_0::HardwareConfigSim> *",
   "referenced_type" : "type-236",
   "self_type" : "type-242",
   "size" : 4,
   "source_file" : "/system/libhidl/base/include/hidl/HidlSupport.h"
  },
  {
   "alignment" : 4,
   "linker_set_key" : "const android::hardware::hidl_vec<android::hardware::radio::V1_0::SsInfoData> *",
   "name" : "const android::hardware::hidl_vec<android::hardware::radio::V1_0::SsInfoData> *",
   "referenced_type" : "type-331",
   "self_type" : "type-337",
   "size" : 4,
   "source_file" : "/system/libhidl/base/include/hidl/HidlSupport.h"
  },
  {
   "alignment" : 4,
   "linker_set_key" : "const android::hardware::hidl_vec<android::hardware::radio::V1_0::UusInfo> *",
   "name" : "const android::hardware::hidl_vec<android::hardware::radio::V1_0::UusInfo> *",
   "referenced_type" : "type-132",
   "self_type" : "type-133",
   "size" : 4,
   "source_file" : "/system/libhidl/base/include/hidl/HidlSupport.h"
  },
  {
   "alignment" : 4,
   "linker_set_key" : "const android::hardware::hidl_vec<android::hardware::radio::config::V1_0::SimSlotStatus> *",
   "name" : "const android::hardware::hidl_vec<android::hardware::radio::config::V1_0::SimSlotStatus> *",
   "referenced_type" : "type-836",
   "self_type" : "type-839",
   "size" : 4,
   "source_file" : "/system/libhidl/base/include/hidl/HidlSupport.h"
  },
  {
   "alignment" : 4,
   "linker_set_key" : "const android::hardware::hidl_vec<int> *",
   "name" : "const android::hardware::hidl_vec<int> *",
   "referenced_type" : "type-91",
   "self_type" : "type-96",
   "size" : 4,
   "source_file" : "/system/libhidl/base/include/hidl/HidlSupport.h"
  },
  {
   "alignment" : 4,
   "linker_set_key" : "const android::hardware::hidl_vec<unsigned char> *",
   "name" : "const android::hardware::hidl_vec<unsigned char> *",
   "referenced_type" : "type-135",
   "self_type" : "type-140",
   "size" : 4,
   "source_file" : "/system/libhidl/base/include/hidl/HidlSupport.h"
  },
  {
   "alignment" : 4,
   "linker_set_key" : "const android::hardware::hidl_vec<unsigned int> *",
   "name" : "const android::hardware::hidl_vec<unsigned int> *",
   "referenced_type" : "type-354",
   "self_type" : "type-358",
   "size" : 4,
   "source_file" : "/system/libhidl/base/include/hidl/HidlSupport.h"
  },
  {
   "alignment" : 4,
   "linker_set_key" : "const android::hardware::hidl_version *",
   "name" : "const android::hardware::hidl_version *",
   "referenced_type" : "type-381",
   "self_type" : "type-382",
   "size" : 4,
   "source_file" : "/system/libhidl/base/include/hidl/HidlSupport.h"
  },
  {
   "alignment" : 4,
   "linker_set_key" : "const android::hardware::radio::config::V1_0::BpHwRadioConfig *",
   "name" : "const android::hardware::radio::config::V1_0::BpHwRadioConfig *",
   "referenced_type" : "type-1590",
   "self_type" : "type-1594",
   "size" : 4,
   "source_file" : "/out/soong/.intermediates/hardware/interfaces/radio/config/1.0/android.hardware.radio.config@1.0_genc++_headers/gen/android/hardware/radio/config/1.0/BpHwRadioConfig.h"
  },
  {
   "alignment" : 4,
   "linker_set_key" : "const android::hardware::radio::config::V1_0::BpHwRadioConfigIndication *",
   "name" : "const android::hardware::radio::config::V1_0::BpHwRadioConfigIndication *",
   "referenced_type" : "type-1573",
   "self_type" : "type-1582",
   "size" : 4,
   "source_file" : "/out/soong/.intermediates/hardware/interfaces/radio/config/1.0/android.hardware.radio.config@1.0_genc++_headers/gen/android/hardware/radio/config/1.0/BpHwRadioConfigIndication.h"
  },
  {
   "alignment" : 4,
   "linker_set_key" : "const android::hardware::radio::config::V1_0::BpHwRadioConfigResponse *",
   "name" : "const android::hardware::radio::config::V1_0::BpHwRadioConfigResponse *",
   "referenced_type" : "type-1585",
   "self_type" : "type-1589",
   "size" : 4,
   "source_file" : "/out/soong/.intermediates/hardware/interfaces/radio/config/1.0/android.hardware.radio.config@1.0_genc++_headers/gen/android/hardware/radio/config/1.0/BpHwRadioConfigResponse.h"
  },
  {
   "alignment" : 4,
   "linker_set_key" : "const android::hardware::radio::config::V1_0::IRadioConfig *",
   "name" : "const android::hardware::radio::config::V1_0::IRadioConfig *",
   "referenced_type" : "type-1555",
   "self_type" : "type-1557",
   "size" : 4,
   "source_file" : "/out/soong/.intermediates/hardware/interfaces/radio/config/1.0/android.hardware.radio.config@1.0_genc++_headers/gen/android/hardware/radio/config/1.0/IRadioConfig.h"
  },
  {
   "alignment" : 4,
   "linker_set_key" : "const android::hardware::radio::config::V1_0::IRadioConfigIndication *",
   "name" : "const android::hardware::radio::config::V1_0::IRadioConfigIndication *",
   "referenced_type" : "type-1796",
   "self_type" : "type-1797",
   "size" : 4,
   "source_file" : "/system/core/libutils/include/utils/StrongPointer.h"
  },
  {
   "alignment" : 4,
   "linker_set_key" : "const android::hardware::radio::config::V1_0::IRadioConfigResponse *",
   "name" : "const android::hardware::radio::config::V1_0::IRadioConfigResponse *",
   "referenced_type" : "type-1803",
   "self_type" : "type-1804",
   "size" : 4,
   "source_file" : "/system/core/libutils/include/utils/StrongPointer.h"
  },
  {
   "alignment" : 4,
   "linker_set_key" : "const android::hardware::radio::config::V1_0::SimSlotStatus *",
   "name" : "const android::hardware::radio::config::V1_0::SimSlotStatus *",
   "referenced_type" : "type-803",
   "self_type" : "type-838",
   "size" : 4,
   "source_file" : "/system/libhidl/base/include/hidl/HidlSupport.h"
  },
  {
   "alignment" : 4,
   "linker_set_key" : "const android::hidl::base::V1_0::BpHwBase *",
   "name" : "const android::hidl::base::V1_0::BpHwBase *",
   "referenced_type" : "type-1569",
   "self_type" : "type-1570",
   "size" : 4,
   "source_file" : "/out/soong/.intermediates/system/libhidl/transport/base/1.0/android.hidl.base@1.0_genc++_headers/gen/android/hidl/base/1.0/BpHwBase.h"
  },
  {
   "alignment" : 4,
   "linker_set_key" : "const android::hidl::base::V1_0::IBase *",
   "name" : "const android::hidl::base::V1_0::IBase *",
   "referenced_type" : "type-494",
   "self_type" : "type-493",
   "size" : 4,
   "source_file" : "/system/core/libutils/include/utils/StrongPointer.h"
  },
  {
   "alignment" : 4,
   "linker_set_key" : "const android::hidl::manager::V1_0::IServiceManager *",
   "name" : "const android::hidl::manager::V1_0::IServiceManager *",
   "referenced_type" : "type-1782",
   "self_type" : "type-1783",
   "size" : 4,
   "source_file" : "/system/core/libutils/include/utils/StrongPointer.h"
  },
  {
   "alignment" : 4,
   "linker_set_key" : "const android::hidl::manager::V1_0::IServiceNotification *",
   "name" : "const android::hidl::manager::V1_0::IServiceNotification *",
   "referenced_type" : "type-578",
   "self_type" : "type-580",
   "size" : 4,
   "source_file" : "/out/soong/.intermediates/system/libhidl/transport/manager/1.0/android.hidl.manager@1.0_genc++_headers/gen/android/hidl/manager/1.0/IServiceNotification.h"
  },
  {
   "alignment" : 4,
   "linker_set_key" : "const android::sp<android::hardware::IBinder> *",
   "name" : "const android::sp<android::hardware::IBinder> *",
   "referenced_type" : "type-1750",
   "self_type" : "type-1751",
   "size" : 4,
   "source_file" : "/system/core/libutils/include/utils/StrongPointer.h"
  },
  {
   "alignment" : 4,
   "linker_set_key" : "const android::sp<android::hardware::ProcessState> *",
   "name" : "const android::sp<android::hardware::ProcessState> *",
   "referenced_type" : "type-1774",
   "self_type" : "type-1775",
   "size" : 4,
   "source_file" : "/system/core/libutils/include/utils/StrongPointer.h"
  },
  {
   "alignment" : 4,
   "linker_set_key" : "const android::sp<android::hardware::hidl_binder_death_recipient> *",
   "name" : "const android::sp<android::hardware::hidl_binder_death_recipient> *",
   "referenced_type" : "type-1714",
   "self_type" : "type-1812",
   "size" : 4,
   "source_file" : "/system/core/libutils/include/utils/StrongPointer.h"
  },
  {
   "alignment" : 4,
   "linker_set_key" : "const android::sp<android::hardware::hidl_death_recipient> *",
   "name" : "const android::sp<android::hardware::hidl_death_recipient> *",
   "referenced_type" : "type-1725",
   "self_type" : "type-1734",
   "size" : 4,
   "source_file" : "/system/core/libutils/include/utils/StrongPointer.h"
  },
  {
   "alignment" : 4,
   "linker_set_key" : "const android::sp<android::hardware::radio::config::V1_0::IRadioConfig> *",
   "name" : "const android::sp<android::hardware::radio::config::V1_0::IRadioConfig> *",
   "referenced_type" : "type-1703",
   "self_type" : "type-1808",
   "size" : 4,
   "source_file" : "/system/core/libutils/include/utils/StrongPointer.h"
  },
  {
   "alignment" : 4,
   "linker_set_key" : "const android::sp<android::hardware::radio::config::V1_0::IRadioConfigIndication> *",
   "name" : "const android::sp<android::hardware::radio::config::V1_0::IRadioConfigIndication> *",
   "referenced_type" : "type-808",
   "self_type" : "type-1795",
   "size" : 4,
   "source_file" : "/system/core/libutils/include/utils/StrongPointer.h"
  },
  {
   "alignment" : 4,
   "linker_set_key" : "const android::sp<android::hardware::radio::config::V1_0::IRadioConfigResponse> *",
   "name" : "const android::sp<android::hardware::radio::config::V1_0::IRadioConfigResponse> *",
   "referenced_type" : "type-1055",
   "self_type" : "type-1802",
   "size" : 4,
   "source_file" : "/system/core/libutils/include/utils/StrongPointer.h"
  },
  {
   "alignment" : 4,
   "linker_set_key" : "const android::sp<android::hidl::base::V1_0::IBase> *",
   "name" : "const android::sp<android::hidl::base::V1_0::IBase> *",
   "referenced_type" : "type-1738",
   "self_type" : "type-1745",
   "size" : 4,
   "source_file" : "/system/core/libutils/include/utils/StrongPointer.h"
  },
  {
   "alignment" : 4,
   "linker_set_key" : "const android::sp<android::hidl::manager::V1_0::IServiceManager> *",
   "name" : "const android::sp<android::hidl::manager::V1_0::IServiceManager> *",
   "referenced_type" : "type-1780",
   "self_type" : "type-1781",
   "size" : 4,
   "source_file" : "/system/core/libutils/include/utils/StrongPointer.h"
  },
  {
   "alignment" : 4,
   "linker_set_key" : "const android::sp<android::hidl::manager::V1_0::IServiceNotification> *",
   "name" : "const android::sp<android::hidl::manager::V1_0::IServiceNotification> *",
   "referenced_type" : "type-1562",
   "self_type" : "type-1790",
   "size" : 4,
   "source_file" : "/system/core/libutils/include/utils/StrongPointer.h"
  },
  {
   "alignment" : 4,
   "linker_set_key" : "const android::wp<android::hardware::BHwBinder> *",
   "name" : "const android::wp<android::hardware::BHwBinder> *",
   "referenced_type" : "type-1731",
   "self_type" : "type-1732",
   "size" : 4,
   "source_file" : "/system/core/libutils/include/utils/RefBase.h"
  },
  {
   "alignment" : 4,
   "linker_set_key" : "const android::wp<android::hardware::hidl_death_recipient> *",
   "name" : "const android::wp<android::hardware::hidl_death_recipient> *",
   "referenced_type" : "type-1723",
   "self_type" : "type-1724",
   "size" : 4,
   "source_file" : "/system/core/libutils/include/utils/RefBase.h"
  },
  {
   "alignment" : 4,
   "linker_set_key" : "const android::wp<android::hidl::base::V1_0::IBase> *",
   "name" : "const android::wp<android::hidl::base::V1_0::IBase> *",
   "referenced_type" : "type-1707",
   "self_type" : "type-1708",
   "size" : 4,
   "source_file" : "/system/core/libutils/include/utils/RefBase.h"
  },
  {
   "alignment" : 4,
   "linker_set_key" : "const char *",
   "name" : "const char *",
   "referenced_type" : "type-10",
   "self_type" : "type-9",
   "size" : 4,
   "source_file" : "/system/libhidl/base/include/hidl/HidlInternal.h"
  },
  {
   "alignment" : 4,
   "linker_set_key" : "const char16_t *",
   "name" : "const char16_t *",
   "referenced_type" : "type-422",
   "self_type" : "type-421",
   "size" : 4,
   "source_file" : "/system/core/libutils/include/utils/String16.h"
  },
  {
   "alignment" : 4,
   "linker_set_key" : "const log_msg *",
   "name" : "const log_msg *",
   "referenced_type" : "type-1620",
   "self_type" : "type-1625",
   "size" : 4,
   "source_file" : "/system/core/liblog/include/log/log_read.h"
  },
  {
   "alignment" : 4,
   "linker_set_key" : "const native_handle *",
   "name" : "const native_handle *",
   "referenced_type" : "type-45",
   "self_type" : "type-44",
   "size" : 4,
   "source_file" : "/system/libhidl/base/include/hidl/HidlInternal.h"
  },
  {
   "alignment" : 4,
   "linker_set_key" : "const unsigned char *",
   "name" : "const unsigned char *",
   "referenced_type" : "type-352",
   "self_type" : "type-370",
   "size" : 4,
   "source_file" : "/system/libhidl/base/include/hidl/HidlSupport.h"
  },
  {
   "alignment" : 4,
   "linker_set_key" : "const unsigned int *",
   "name" : "const unsigned int *",
   "referenced_type" : "type-357",
   "self_type" : "type-356",
   "size" : 4,
   "source_file" : "/system/libhidl/base/include/hidl/HidlSupport.h"
  },
  {
   "alignment" : 4,
   "linker_set_key" : "const unsigned long long *",
   "name" : "const unsigned long long *",
   "referenced_type" : "type-450",
   "self_type" : "type-449",
   "size" : 4,
   "source_file" : "/system/libhwbinder/include/hwbinder/Parcel.h"
  },
  {
   "alignment" : 4,
   "linker_set_key" : "const void *",
   "name" : "const void *",
   "referenced_type" : "type-384",
   "self_type" : "type-386",
   "size" : 4,
   "source_file" : "/system/libhidl/base/include/hidl/HidlSupport.h"
  },
  {
   "alignment" : 4,
   "linker_set_key" : "int (*)(void *)",
   "name" : "int (*)(void *)",
   "referenced_type" : "type-552",
   "self_type" : "type-553",
   "size" : 4,
   "source_file" : "/system/core/libutils/include/utils/AndroidThreads.h"
  },
  {
   "alignment" : 4,
   "linker_set_key" : "int *",
   "name" : "int *",
   "referenced_type" : "type-14",
   "self_type" : "type-95",
   "size" : 4,
   "source_file" : "/system/libhidl/base/include/hidl/HidlInternal.h"
  },
  {
   "alignment" : 4,
   "linker_set_key" : "log_msg *",
   "name" : "log_msg *",
   "referenced_type" : "type-1577",
   "self_type" : "type-1643",
   "size" : 4,
   "source_file" : "/system/core/liblog/include/log/log_read.h"
  },
  {
   "alignment" : 4,
   "linker_set_key" : "native_handle *",
   "name" : "native_handle *",
   "referenced_type" : "type-46",
   "self_type" : "type-395",
   "size" : 4,
   "source_file" : "/system/libhidl/base/include/hidl/HidlInternal.h"
  },
  {
   "alignment" : 4,
   "linker_set_key" : "unsigned char *",
   "name" : "unsigned char *",
   "referenced_type" : "type-85",
   "self_type" : "type-139",
   "size" : 4,
   "source_file" : "/system/libhidl/base/include/hidl/HidlInternal.h"
  },
  {
   "alignment" : 4,
   "linker_set_key" : "unsigned int *",
   "name" : "unsigned int *",
   "referenced_type" : "type-2",
   "self_type" : "type-350",
   "size" : 4,
   "source_file" : "/system/libhidl/base/include/hidl/HidlInternal.h"
  },
  {
   "alignment" : 4,
   "linker_set_key" : "unsigned long long *",
   "name" : "unsigned long long *",
   "referenced_type" : "type-12",
   "self_type" : "type-445",
   "size" : 4,
   "source_file" : "/system/libhwbinder/include/hwbinder/Parcel.h"
  },
  {
   "alignment" : 4,
   "linker_set_key" : "void (*)(android::hardware::Parcel *, const unsigned char *, unsigned int, const unsigned long long *, unsigned int, void *)",
   "name" : "void (*)(android::hardware::Parcel *, const unsigned char *, unsigned int, const unsigned long long *, unsigned int, void *)",
   "referenced_type" : "type-447",
   "self_type" : "type-446",
   "size" : 4,
   "source_file" : "/system/libhwbinder/include/hwbinder/Parcel.h"
  },
  {
   "alignment" : 4,
   "linker_set_key" : "void *",
   "name" : "void *",
   "referenced_type" : "type-385",
   "self_type" : "type-451",
   "size" : 4,
   "source_file" : "/system/libhwbinder/include/hwbinder/Binder.h"
  },
  {
   "alignment" : 4,
   "linker_set_key" : "void **",
   "name" : "void **",
   "referenced_type" : "type-451",
   "self_type" : "type-554",
   "size" : 4,
   "source_file" : "/system/core/libutils/include/utils/AndroidThreads.h"
  }
 ],
 "qualified_types" :
 [
  {
   "alignment" : 4,
   "is_const" : true,
   "linker_set_key" : "android::RefBase::weakref_impl *const",
   "name" : "android::RefBase::weakref_impl *const",
   "referenced_type" : "type-1074",
   "self_type" : "type-1076",
   "size" : 4,
   "source_file" : "/system/core/libutils/include/utils/RefBase.h"
  },
  {
   "alignment" : 4,
   "is_const" : true,
   "linker_set_key" : "android::RefBase::weakref_impl *const",
   "name" : "android::RefBase::weakref_impl *const",
   "referenced_type" : "type-1254",
   "self_type" : "type-1256",
   "size" : 4,
   "source_file" : "/system/core/libutils/include/utils/RefBase.h"
  },
  {
   "alignment" : 4,
   "is_const" : true,
   "linker_set_key" : "android::RefBase::weakref_impl *const",
   "name" : "android::RefBase::weakref_impl *const",
   "referenced_type" : "type-29",
   "self_type" : "type-28",
   "size" : 4,
   "source_file" : "/system/core/libutils/include/utils/RefBase.h"
  },
  {
   "alignment" : 4,
   "is_const" : true,
   "linker_set_key" : "android::RefBase::weakref_impl *const",
   "name" : "android::RefBase::weakref_impl *const",
   "referenced_type" : "type-824",
   "self_type" : "type-826",
   "size" : 4,
   "source_file" : "/system/core/libutils/include/utils/RefBase.h"
  },
  {
   "alignment" : 4,
   "is_const" : true,
   "linker_set_key" : "android::hardware::IBinder *const",
   "name" : "android::hardware::IBinder *const",
   "referenced_type" : "type-432",
   "self_type" : "type-431",
   "size" : 4,
   "source_file" : "/system/libhwbinder/include/hwbinder/Binder.h"
  },
  {
   "alignment" : 4,
   "is_const" : true,
   "linker_set_key" : "const android::NativeHandle",
   "name" : "const android::NativeHandle",
   "referenced_type" : "type-398",
   "self_type" : "type-397",
   "size" : 12,
   "source_file" : "/system/core/libutils/include/utils/NativeHandle.h"
  },
  {
   "alignment" : 4,
   "is_const" : true,
   "linker_set_key" : "const android::RefBase",
   "name" : "const android::RefBase",
   "referenced_type" : "type-27",
   "self_type" : "type-26",
   "size" : 8,
   "source_file" : "/system/core/libutils/include/utils/RefBase.h"
  },
  {
   "alignment" : 4,
   "is_const" : true,
   "linker_set_key" : "const android::String16",
   "name" : "const android::String16",
   "referenced_type" : "type-420",
   "self_type" : "type-419",
   "size" : 4,
   "source_file" : "/system/core/libutils/include/utils/String16.h"
  },
  {
   "alignment" : 4,
   "is_const" : true,
   "linker_set_key" : "const android::String8",
   "name" : "const android::String8",
   "referenced_type" : "type-411",
   "self_type" : "type-410",
   "size" : 4,
   "source_file" : "/system/core/libutils/include/utils/String8.h"
  },
  {
   "alignment" : 4,
   "is_const" : true,
   "linker_set_key" : "const android::VectorImpl",
   "name" : "const android::VectorImpl",
   "referenced_type" : "type-523",
   "self_type" : "type-522",
   "size" : 20,
   "source_file" : "/system/core/libutils/include/utils/VectorImpl.h"
  },
  {
   "alignment" : 4,
   "is_const" : true,
   "linker_set_key" : "const android::hardware::BpHwRefBase",
   "name" : "const android::hardware::BpHwRefBase",
   "referenced_type" : "type-430",
   "self_type" : "type-429",
   "size" : 24,
   "source_file" : "/system/libhwbinder/include/hwbinder/Binder.h"
  },
  {
   "alignment" : 4,
   "is_const" : true,
   "linker_set_key" : "const android::hardware::ConcurrentMap<android::wp<android::hidl::base::V1_0::IBase>, android::hardware::details::SchedPrio>",
   "name" : "const android::hardware::ConcurrentMap<android::wp<android::hidl::base::V1_0::IBase>, android::hardware::details::SchedPrio>",
   "referenced_type" : "type-475",
   "self_type" : "type-482",
   "size" : 16,
   "source_file" : "/system/libhidl/transport/include/hidl/ConcurrentMap.h"
  },
  {
   "alignment" : 4,
   "is_const" : true,
   "linker_set_key" : "const android::hardware::ConcurrentMap<android::wp<android::hidl::base::V1_0::IBase>, bool>",
   "name" : "const android::hardware::ConcurrentMap<android::wp<android::hidl::base::V1_0::IBase>, bool>",
   "referenced_type" : "type-484",
   "self_type" : "type-488",
   "size" : 16,
   "source_file" : "/system/libhidl/transport/include/hidl/ConcurrentMap.h"
  },
  {
   "alignment" : 4,
   "is_const" : true,
   "linker_set_key" : "const android::hardware::Parcel",
   "name" : "const android::hardware::Parcel",
   "referenced_type" : "type-443",
   "self_type" : "type-457",
   "size" : 68,
   "source_file" : "/system/libhwbinder/include/hwbinder/Parcel.h"
  },
  {
   "alignment" : 4,
   "is_const" : true,
   "linker_set_key" : "const android::hardware::Return<android::sp<android::hardware::radio::config::V1_0::IRadioConfig> >",
   "name" : "const android::hardware::Return<android::sp<android::hardware::radio::config::V1_0::IRadioConfig> >",
   "referenced_type" : "type-1827",
   "self_type" : "type-1831",
   "size" : 28,
   "source_file" : "/system/libhidl/base/include/hidl/Status.h"
  },
  {
   "alignment" : 4,
   "is_const" : true,
   "linker_set_key" : "const android::hardware::Return<android::sp<android::hardware::radio::config::V1_0::IRadioConfigIndication> >",
   "name" : "const android::hardware::Return<android::sp<android::hardware::radio::config::V1_0::IRadioConfigIndication> >",
   "referenced_type" : "type-815",
   "self_type" : "type-822",
   "size" : 28,
   "source_file" : "/system/libhidl/base/include/hidl/Status.h"
  },
  {
   "alignment" : 4,
   "is_const" : true,
   "linker_set_key" : "const android::hardware::Return<android::sp<android::hardware::radio::config::V1_0::IRadioConfigResponse> >",
   "name" : "const android::hardware::Return<android::sp<android::hardware::radio::config::V1_0::IRadioConfigResponse> >",
   "referenced_type" : "type-1064",
   "self_type" : "type-1068",
   "size" : 28,
   "source_file" : "/system/libhidl/base/include/hidl/Status.h"
  },
  {
   "alignment" : 4,
   "is_const" : true,
   "linker_set_key" : "const android::hardware::Return<bool>",
   "name" : "const android::hardware::Return<bool>",
   "referenced_type" : "type-1821",
   "self_type" : "type-1825",
   "size" : 24,
   "source_file" : "/system/libhidl/base/include/hidl/Status.h"
  },
  {
   "alignment" : 4,
   "is_const" : true,
   "linker_set_key" : "const android::hardware::Status",
   "name" : "const android::hardware::Status",
   "referenced_type" : "type-817",
   "self_type" : "type-1816",
   "size" : 20,
   "source_file" : "/system/libhidl/base/include/hidl/Status.h"
  },
  {
   "alignment" : 4,
   "is_const" : true,
   "linker_set_key" : "const android::hardware::details::SchedPrio",
   "name" : "const android::hardware::details::SchedPrio",
   "referenced_type" : "type-479",
   "self_type" : "type-481",
   "size" : 8,
   "source_file" : "/system/libhidl/transport/include/hidl/ConcurrentMap.h"
  },
  {
   "alignment" : 4,
   "is_const" : true,
   "linker_set_key" : "const android::hardware::details::const_accessor<unsigned int, 5>",
   "name" : "const android::hardware::details::const_accessor<unsigned int, 5>",
   "referenced_type" : "type-366",
   "self_type" : "type-368",
   "size" : 4,
   "source_file" : "/system/libhidl/base/include/hidl/HidlSupport.h"
  },
  {
   "alignment" : 4,
   "is_const" : true,
   "linker_set_key" : "const android::hardware::details::hidl_pointer<android::hardware::hidl_array<unsigned char, 32> >",
   "name" : "const android::hardware::details::hidl_pointer<android::hardware::hidl_array<unsigned char, 32> >",
   "referenced_type" : "type-80",
   "self_type" : "type-1694",
   "size" : 8,
   "source_file" : "/system/libhidl/base/include/hidl/HidlInternal.h"
  },
  {
   "alignment" : 4,
   "is_const" : true,
   "linker_set_key" : "const android::hardware::details::hidl_pointer<android::hardware::hidl_string>",
   "name" : "const android::hardware::details::hidl_pointer<android::hardware::hidl_string>",
   "referenced_type" : "type-73",
   "self_type" : "type-1689",
   "size" : 8,
   "source_file" : "/system/libhidl/base/include/hidl/HidlInternal.h"
  },
  {
   "alignment" : 4,
   "is_const" : true,
   "linker_set_key" : "const android::hardware::details::hidl_pointer<android::hardware::radio::V1_0::AppStatus>",
   "name" : "const android::hardware::details::hidl_pointer<android::hardware::radio::V1_0::AppStatus>",
   "referenced_type" : "type-68",
   "self_type" : "type-67",
   "size" : 8,
   "source_file" : "/system/libhidl/base/include/hidl/HidlInternal.h"
  },
  {
   "alignment" : 4,
   "is_const" : true,
   "linker_set_key" : "const android::hardware::details::hidl_pointer<android::hardware::radio::V1_0::CallForwardInfo>",
   "name" : "const android::hardware::details::hidl_pointer<android::hardware::radio::V1_0::CallForwardInfo>",
   "referenced_type" : "type-324",
   "self_type" : "type-1666",
   "size" : 8,
   "source_file" : "/system/libhidl/base/include/hidl/HidlInternal.h"
  },
  {
   "alignment" : 4,
   "is_const" : true,
   "linker_set_key" : "const android::hardware::details::hidl_pointer<android::hardware::radio::V1_0::Carrier>",
   "name" : "const android::hardware::details::hidl_pointer<android::hardware::radio::V1_0::Carrier>",
   "referenced_type" : "type-247",
   "self_type" : "type-1628",
   "size" : 8,
   "source_file" : "/system/libhidl/base/include/hidl/HidlInternal.h"
  },
  {
   "alignment" : 4,
   "is_const" : true,
   "linker_set_key" : "const android::hardware::details::hidl_pointer<android::hardware::radio::V1_0::CdmaDisplayInfoRecord>",
   "name" : "const android::hardware::details::hidl_pointer<android::hardware::radio::V1_0::CdmaDisplayInfoRecord>",
   "referenced_type" : "type-256",
   "self_type" : "type-1633",
   "size" : 8,
   "source_file" : "/system/libhidl/base/include/hidl/HidlInternal.h"
  },
  {
   "alignment" : 4,
   "is_const" : true,
   "linker_set_key" : "const android::hardware::details::hidl_pointer<android::hardware::radio::V1_0::CdmaInformationRecord>",
   "name" : "const android::hardware::details::hidl_pointer<android::hardware::radio::V1_0::CdmaInformationRecord>",
   "referenced_type" : "type-315",
   "self_type" : "type-1662",
   "size" : 8,
   "source_file" : "/system/libhidl/base/include/hidl/HidlInternal.h"
  },
  {
   "alignment" : 4,
   "is_const" : true,
   "linker_set_key" : "const android::hardware::details::hidl_pointer<android::hardware::radio::V1_0::CdmaLineControlInfoRecord>",
   "name" : "const android::hardware::details::hidl_pointer<android::hardware::radio::V1_0::CdmaLineControlInfoRecord>",
   "referenced_type" : "type-291",
   "self_type" : "type-1650",
   "size" : 8,
   "source_file" : "/system/libhidl/base/include/hidl/HidlInternal.h"
  },
  {
   "alignment" : 4,
   "is_const" : true,
   "linker_set_key" : "const android::hardware::details::hidl_pointer<android::hardware::radio::V1_0::CdmaNumberInfoRecord>",
   "name" : "const android::hardware::details::hidl_pointer<android::hardware::radio::V1_0::CdmaNumberInfoRecord>",
   "referenced_type" : "type-265",
   "self_type" : "type-1637",
   "size" : 8,
   "source_file" : "/system/libhidl/base/include/hidl/HidlInternal.h"
  },
  {
   "alignment" : 4,
   "is_const" : true,
   "linker_set_key" : "const android::hardware::details::hidl_pointer<android::hardware::radio::V1_0::CdmaRedirectingNumberInfoRecord>",
   "name" : "const android::hardware::details::hidl_pointer<android::hardware::radio::V1_0::CdmaRedirectingNumberInfoRecord>",
   "referenced_type" : "type-282",
   "self_type" : "type-1646",
   "size" : 8,
   "source_file" : "/system/libhidl/base/include/hidl/HidlInternal.h"
  },
  {
   "alignment" : 4,
   "is_const" : true,
   "linker_set_key" : "const android::hardware::details::hidl_pointer<android::hardware::radio::V1_0::CdmaSignalInfoRecord>",
   "name" : "const android::hardware::details::hidl_pointer<android::hardware::radio::V1_0::CdmaSignalInfoRecord>",
   "referenced_type" : "type-273",
   "self_type" : "type-1641",
   "size" : 8,
   "source_file" : "/system/libhidl/base/include/hidl/HidlInternal.h"
  },
  {
   "alignment" : 4,
   "is_const" : true,
   "linker_set_key" : "const android::hardware::details::hidl_pointer<android::hardware::radio::V1_0::CdmaSmsMessage>",
   "name" : "const android::hardware::details::hidl_pointer<android::hardware::radio::V1_0::CdmaSmsMessage>",
   "referenced_type" : "type-189",
   "self_type" : "type-1610",
   "size" : 8,
   "source_file" : "/system/libhidl/base/include/hidl/HidlInternal.h"
  },
  {
   "alignment" : 4,
   "is_const" : true,
   "linker_set_key" : "const android::hardware::details::hidl_pointer<android::hardware::radio::V1_0::CdmaT53AudioControlInfoRecord>",
   "name" : "const android::hardware::details::hidl_pointer<android::hardware::radio::V1_0::CdmaT53AudioControlInfoRecord>",
   "referenced_type" : "type-307",
   "self_type" : "type-1658",
   "size" : 8,
   "source_file" : "/system/libhidl/base/include/hidl/HidlInternal.h"
  },
  {
   "alignment" : 4,
   "is_const" : true,
   "linker_set_key" : "const android::hardware::details::hidl_pointer<android::hardware::radio::V1_0::CdmaT53ClirInfoRecord>",
   "name" : "const android::hardware::details::hidl_pointer<android::hardware::radio::V1_0::CdmaT53ClirInfoRecord>",
   "referenced_type" : "type-299",
   "self_type" : "type-1654",
   "size" : 8,
   "source_file" : "/system/libhidl/base/include/hidl/HidlInternal.h"
  },
  {
   "alignment" : 4,
   "is_const" : true,
   "linker_set_key" : "const android::hardware::details::hidl_pointer<android::hardware::radio::V1_0::CellIdentityCdma>",
   "name" : "const android::hardware::details::hidl_pointer<android::hardware::radio::V1_0::CellIdentityCdma>",
   "referenced_type" : "type-112",
   "self_type" : "type-1598",
   "size" : 8,
   "source_file" : "/system/libhidl/base/include/hidl/HidlInternal.h"
  },
  {
   "alignment" : 4,
   "is_const" : true,
   "linker_set_key" : "const android::hardware::details::hidl_pointer<android::hardware::radio::V1_0::CellIdentityGsm>",
   "name" : "const android::hardware::details::hidl_pointer<android::hardware::radio::V1_0::CellIdentityGsm>",
   "referenced_type" : "type-103",
   "self_type" : "type-1485",
   "size" : 8,
   "source_file" : "/system/libhidl/base/include/hidl/HidlInternal.h"
  },
  {
   "alignment" : 4,
   "is_const" : true,
   "linker_set_key" : "const android::hardware::details::hidl_pointer<android::hardware::radio::V1_0::CellIdentityLte>",
   "name" : "const android::hardware::details::hidl_pointer<android::hardware::radio::V1_0::CellIdentityLte>",
   "referenced_type" : "type-117",
   "self_type" : "type-1602",
   "size" : 8,
   "source_file" : "/system/libhidl/base/include/hidl/HidlInternal.h"
  },
  {
   "alignment" : 4,
   "is_const" : true,
   "linker_set_key" : "const android::hardware::details::hidl_pointer<android::hardware::radio::V1_0::CellIdentityTdscdma>",
   "name" : "const android::hardware::details::hidl_pointer<android::hardware::radio::V1_0::CellIdentityTdscdma>",
   "referenced_type" : "type-17",
   "self_type" : "type-1606",
   "size" : 8,
   "source_file" : "/system/libhidl/base/include/hidl/HidlInternal.h"
  },
  {
   "alignment" : 4,
   "is_const" : true,
   "linker_set_key" : "const android::hardware::details::hidl_pointer<android::hardware::radio::V1_0::CellIdentityWcdma>",
   "name" : "const android::hardware::details::hidl_pointer<android::hardware::radio::V1_0::CellIdentityWcdma>",
   "referenced_type" : "type-108",
   "self_type" : "type-1581",
   "size" : 8,
   "source_file" : "/system/libhidl/base/include/hidl/HidlInternal.h"
  },
  {
   "alignment" : 4,
   "is_const" : true,
   "linker_set_key" : "const android::hardware::details::hidl_pointer<android::hardware::radio::V1_0::CellInfoCdma>",
   "name" : "const android::hardware::details::hidl_pointer<android::hardware::radio::V1_0::CellInfoCdma>",
   "referenced_type" : "type-153",
   "self_type" : "type-575",
   "size" : 8,
   "source_file" : "/system/libhidl/base/include/hidl/HidlInternal.h"
  },
  {
   "alignment" : 4,
   "is_const" : true,
   "linker_set_key" : "const android::hardware::details::hidl_pointer<android::hardware::radio::V1_0::CellInfoGsm>",
   "name" : "const android::hardware::details::hidl_pointer<android::hardware::radio::V1_0::CellInfoGsm>",
   "referenced_type" : "type-144",
   "self_type" : "type-487",
   "size" : 8,
   "source_file" : "/system/libhidl/base/include/hidl/HidlInternal.h"
  },
  {
   "alignment" : 4,
   "is_const" : true,
   "linker_set_key" : "const android::hardware::details::hidl_pointer<android::hardware::radio::V1_0::CellInfoLte>",
   "name" : "const android::hardware::details::hidl_pointer<android::hardware::radio::V1_0::CellInfoLte>",
   "referenced_type" : "type-164",
   "self_type" : "type-595",
   "size" : 8,
   "source_file" : "/system/libhidl/base/include/hidl/HidlInternal.h"
  },
  {
   "alignment" : 4,
   "is_const" : true,
   "linker_set_key" : "const android::hardware::details::hidl_pointer<android::hardware::radio::V1_0::CellInfoTdscdma>",
   "name" : "const android::hardware::details::hidl_pointer<android::hardware::radio::V1_0::CellInfoTdscdma>",
   "referenced_type" : "type-179",
   "self_type" : "type-1400",
   "size" : 8,
   "source_file" : "/system/libhidl/base/include/hidl/HidlInternal.h"
  },
  {
   "alignment" : 4,
   "is_const" : true,
   "linker_set_key" : "const android::hardware::details::hidl_pointer<android::hardware::radio::V1_0::CellInfoWcdma>",
   "name" : "const android::hardware::details::hidl_pointer<android::hardware::radio::V1_0::CellInfoWcdma>",
   "referenced_type" : "type-173",
   "self_type" : "type-1089",
   "size" : 8,
   "source_file" : "/system/libhidl/base/include/hidl/HidlInternal.h"
  },
  {
   "alignment" : 4,
   "is_const" : true,
   "linker_set_key" : "const android::hardware::details::hidl_pointer<android::hardware::radio::V1_0::CfData>",
   "name" : "const android::hardware::details::hidl_pointer<android::hardware::radio::V1_0::CfData>",
   "referenced_type" : "type-341",
   "self_type" : "type-1676",
   "size" : 8,
   "source_file" : "/system/libhidl/base/include/hidl/HidlInternal.h"
  },
  {
   "alignment" : 4,
   "is_const" : true,
   "linker_set_key" : "const android::hardware::details::hidl_pointer<android::hardware::radio::V1_0::GsmSmsMessage>",
   "name" : "const android::hardware::details::hidl_pointer<android::hardware::radio::V1_0::GsmSmsMessage>",
   "referenced_type" : "type-201",
   "self_type" : "type-1614",
   "size" : 8,
   "source_file" : "/system/libhidl/base/include/hidl/HidlInternal.h"
  },
  {
   "alignment" : 4,
   "is_const" : true,
   "linker_set_key" : "const android::hardware::details::hidl_pointer<android::hardware::radio::V1_0::HardwareConfigModem>",
   "name" : "const android::hardware::details::hidl_pointer<android::hardware::radio::V1_0::HardwareConfigModem>",
   "referenced_type" : "type-230",
   "self_type" : "type-1618",
   "size" : 8,
   "source_file" : "/system/libhidl/base/include/hidl/HidlInternal.h"
  },
  {
   "alignment" : 4,
   "is_const" : true,
   "linker_set_key" : "const android::hardware::details::hidl_pointer<android::hardware::radio::V1_0::HardwareConfigSim>",
   "name" : "const android::hardware::details::hidl_pointer<android::hardware::radio::V1_0::HardwareConfigSim>",
   "referenced_type" : "type-238",
   "self_type" : "type-1623",
   "size" : 8,
   "source_file" : "/system/libhidl/base/include/hidl/HidlInternal.h"
  },
  {
   "alignment" : 4,
   "is_const" : true,
   "linker_set_key" : "const android::hardware::details::hidl_pointer<android::hardware::radio::V1_0::SsInfoData>",
   "name" : "const android::hardware::details::hidl_pointer<android::hardware::radio::V1_0::SsInfoData>",
   "referenced_type" : "type-333",
   "self_type" : "type-1671",
   "size" : 8,
   "source_file" : "/system/libhidl/base/include/hidl/HidlInternal.h"
  },
  {
   "alignment" : 4,
   "is_const" : true,
   "linker_set_key" : "const android::hardware::details::hidl_pointer<android::hardware::radio::V1_0::UusInfo>",
   "name" : "const android::hardware::details::hidl_pointer<android::hardware::radio::V1_0::UusInfo>",
   "referenced_type" : "type-126",
   "self_type" : "type-243",
   "size" : 8,
   "source_file" : "/system/libhidl/base/include/hidl/HidlInternal.h"
  },
  {
   "alignment" : 4,
   "is_const" : true,
   "linker_set_key" : "const android::hardware::details::hidl_pointer<android::hardware::radio::config::V1_0::SimSlotStatus>",
   "name" : "const android::hardware::details::hidl_pointer<android::hardware::radio::config::V1_0::SimSlotStatus>",
   "referenced_type" : "type-792",
   "self_type" : "type-799",
   "size" : 8,
   "source_file" : "/system/libhidl/base/include/hidl/HidlInternal.h"
  },
  {
   "alignment" : 4,
   "is_const" : true,
   "linker_set_key" : "const android::hardware::details::hidl_pointer<int>",
   "name" : "const android::hardware::details::hidl_pointer<int>",
   "referenced_type" : "type-93",
   "self_type" : "type-1876",
   "size" : 8,
   "source_file" : "/system/libhidl/base/include/hidl/HidlInternal.h"
  },
  {
   "alignment" : 4,
   "is_const" : true,
   "linker_set_key" : "const android::hardware::details::hidl_pointer<unsigned char>",
   "name" : "const android::hardware::details::hidl_pointer<unsigned char>",
   "referenced_type" : "type-137",
   "self_type" : "type-376",
   "size" : 8,
   "source_file" : "/system/libhidl/base/include/hidl/HidlInternal.h"
  },
  {
   "alignment" : 4,
   "is_const" : true,
   "linker_set_key" : "const android::hardware::details::hidl_pointer<unsigned int>",
   "name" : "const android::hardware::details::hidl_pointer<unsigned int>",
   "referenced_type" : "type-348",
   "self_type" : "type-1681",
   "size" : 8,
   "source_file" : "/system/libhidl/base/include/hidl/HidlInternal.h"
  },
  {
   "alignment" : 4,
   "is_const" : true,
   "linker_set_key" : "const android::hardware::details::return_status",
   "name" : "const android::hardware::details::return_status",
   "referenced_type" : "type-816",
   "self_type" : "type-1836",
   "size" : 24,
   "source_file" : "/system/libhidl/base/include/hidl/Status.h"
  },
  {
   "alignment" : 4,
   "is_const" : true,
   "linker_set_key" : "const android::hardware::hidl_array<unsigned int, 5>",
   "name" : "const android::hardware::hidl_array<unsigned int, 5>",
   "referenced_type" : "type-372",
   "self_type" : "type-374",
   "size" : 20,
   "source_file" : "/system/libhidl/base/include/hidl/HidlSupport.h"
  },
  {
   "alignment" : 4,
   "is_const" : true,
   "linker_set_key" : "const android::hardware::hidl_death_recipient",
   "name" : "const android::hardware::hidl_death_recipient",
   "referenced_type" : "type-1720",
   "self_type" : "type-1735",
   "size" : 12,
   "source_file" : "/system/core/libutils/include/utils/StrongPointer.h"
  },
  {
   "alignment" : 8,
   "is_const" : true,
   "linker_set_key" : "const android::hardware::hidl_handle",
   "name" : "const android::hardware::hidl_handle",
   "referenced_type" : "type-41",
   "self_type" : "type-388",
   "size" : 16,
   "source_file" : "/system/libhidl/base/include/hidl/HidlSupport.h"
  },
  {
   "alignment" : 8,
   "is_const" : true,
   "linker_set_key" : "const android::hardware::hidl_memory",
   "name" : "const android::hardware::hidl_memory",
   "referenced_type" : "type-50",
   "self_type" : "type-53",
   "size" : 40,
   "source_file" : "/system/libhidl/base/include/hidl/HidlSupport.h"
  },
  {
   "alignment" : 4,
   "is_const" : true,
   "linker_set_key" : "const android::hardware::hidl_string",
   "name" : "const android::hardware::hidl_string",
   "referenced_type" : "type-6",
   "self_type" : "type-48",
   "size" : 16,
   "source_file" : "/system/libhidl/base/include/hidl/HidlSupport.h"
  },
  {
   "alignment" : 4,
   "is_const" : true,
   "linker_set_key" : "const android::hardware::hidl_vec<android::hardware::hidl_string>",
   "name" : "const android::hardware::hidl_vec<android::hardware::hidl_string>",
   "referenced_type" : "type-72",
   "self_type" : "type-1558",
   "size" : 16,
   "source_file" : "/out/soong/.intermediates/hardware/interfaces/radio/config/1.0/android.hardware.radio.config@1.0_genc++_headers/gen/android/hardware/radio/config/1.0/IRadioConfig.h"
  },
  {
   "alignment" : 4,
   "is_const" : true,
   "linker_set_key" : "const android::hardware::hidl_vec<android::hardware::radio::V1_0::AppStatus>",
   "name" : "const android::hardware::hidl_vec<android::hardware::radio::V1_0::AppStatus>",
   "referenced_type" : "type-121",
   "self_type" : "type-122",
   "size" : 16,
   "source_file" : "/system/libhidl/base/include/hidl/HidlSupport.h"
  },
  {
   "alignment" : 4,
   "is_const" : true,
   "linker_set_key" : "const android::hardware::hidl_vec<android::hardware::radio::V1_0::CallForwardInfo>",
   "name" : "const android::hardware::hidl_vec<android::hardware::radio::V1_0::CallForwardInfo>",
   "referenced_type" : "type-323",
   "self_type" : "type-322",
   "size" : 16,
   "source_file" : "/system/libhidl/base/include/hidl/HidlSupport.h"
  },
  {
   "alignment" : 4,
   "is_const" : true,
   "linker_set_key" : "const android::hardware::hidl_vec<android::hardware::radio::V1_0::Carrier>",
   "name" : "const android::hardware::hidl_vec<android::hardware::radio::V1_0::Carrier>",
   "referenced_type" : "type-246",
   "self_type" : "type-245",
   "size" : 16,
   "source_file" : "/system/libhidl/base/include/hidl/HidlSupport.h"
  },
  {
   "alignment" : 4,
   "is_const" : true,
   "linker_set_key" : "const android::hardware::hidl_vec<android::hardware::radio::V1_0::CdmaDisplayInfoRecord>",
   "name" : "const android::hardware::hidl_vec<android::hardware::radio::V1_0::CdmaDisplayInfoRecord>",
   "referenced_type" : "type-255",
   "self_type" : "type-254",
   "size" : 16,
   "source_file" : "/system/libhidl/base/include/hidl/HidlSupport.h"
  },
  {
   "alignment" : 4,
   "is_const" : true,
   "linker_set_key" : "const android::hardware::hidl_vec<android::hardware::radio::V1_0::CdmaInformationRecord>",
   "name" : "const android::hardware::hidl_vec<android::hardware::radio::V1_0::CdmaInformationRecord>",
   "referenced_type" : "type-314",
   "self_type" : "type-313",
   "size" : 16,
   "source_file" : "/system/libhidl/base/include/hidl/HidlSupport.h"
  },
  {
   "alignment" : 4,
   "is_const" : true,
   "linker_set_key" : "const android::hardware::hidl_vec<android::hardware::radio::V1_0::CdmaLineControlInfoRecord>",
   "name" : "const android::hardware::hidl_vec<android::hardware::radio::V1_0::CdmaLineControlInfoRecord>",
   "referenced_type" : "type-290",
   "self_type" : "type-289",
   "size" : 16,
   "source_file" : "/system/libhidl/base/include/hidl/HidlSupport.h"
  },
  {
   "alignment" : 4,
   "is_const" : true,
   "linker_set_key" : "const android::hardware::hidl_vec<android::hardware::radio::V1_0::CdmaNumberInfoRecord>",
   "name" : "const android::hardware::hidl_vec<android::hardware::radio::V1_0::CdmaNumberInfoRecord>",
   "referenced_type" : "type-264",
   "self_type" : "type-263",
   "size" : 16,
   "source_file" : "/system/libhidl/base/include/hidl/HidlSupport.h"
  },
  {
   "alignment" : 4,
   "is_const" : true,
   "linker_set_key" : "const android::hardware::hidl_vec<android::hardware::radio::V1_0::CdmaRedirectingNumberInfoRecord>",
   "name" : "const android::hardware::hidl_vec<android::hardware::radio::V1_0::CdmaRedirectingNumberInfoRecord>",
   "referenced_type" : "type-281",
   "self_type" : "type-280",
   "size" : 16,
   "source_file" : "/system/libhidl/base/include/hidl/HidlSupport.h"
  },
  {
   "alignment" : 4,
   "is_const" : true,
   "linker_set_key" : "const android::hardware::hidl_vec<android::hardware::radio::V1_0::CdmaSignalInfoRecord>",
   "name" : "const android::hardware::hidl_vec<android::hardware::radio::V1_0::CdmaSignalInfoRecord>",
   "referenced_type" : "type-272",
   "self_type" : "type-271",
   "size" : 16,
   "source_file" : "/system/libhidl/base/include/hidl/HidlSupport.h"
  },
  {
   "alignment" : 4,
   "is_const" : true,
   "linker_set_key" : "const android::hardware::hidl_vec<android::hardware::radio::V1_0::CdmaSmsMessage>",
   "name" : "const android::hardware::hidl_vec<android::hardware::radio::V1_0::CdmaSmsMessage>",
   "referenced_type" : "type-188",
   "self_type" : "type-222",
   "size" : 16,
   "source_file" : "/system/libhidl/base/include/hidl/HidlSupport.h"
  },
  {
   "alignment" : 4,
   "is_const" : true,
   "linker_set_key" : "const android::hardware::hidl_vec<android::hardware::radio::V1_0::CdmaT53AudioControlInfoRecord>",
   "name" : "const android::hardware::hidl_vec<android::hardware::radio::V1_0::CdmaT53AudioControlInfoRecord>",
   "referenced_type" : "type-306",
   "self_type" : "type-305",
   "size" : 16,
   "source_file" : "/system/libhidl/base/include/hidl/HidlSupport.h"
  },
  {
   "alignment" : 4,
   "is_const" : true,
   "linker_set_key" : "const android::hardware::hidl_vec<android::hardware::radio::V1_0::CdmaT53ClirInfoRecord>",
   "name" : "const android::hardware::hidl_vec<android::hardware::radio::V1_0::CdmaT53ClirInfoRecord>",
   "referenced_type" : "type-298",
   "self_type" : "type-297",
   "size" : 16,
   "source_file" : "/system/libhidl/base/include/hidl/HidlSupport.h"
  },
  {
   "alignment" : 4,
   "is_const" : true,
   "linker_set_key" : "const android::hardware::hidl_vec<android::hardware::radio::V1_0::CellIdentityCdma>",
   "name" : "const android::hardware::hidl_vec<android::hardware::radio::V1_0::CellIdentityCdma>",
   "referenced_type" : "type-111",
   "self_type" : "type-211",
   "size" : 16,
   "source_file" : "/system/libhidl/base/include/hidl/HidlSupport.h"
  },
  {
   "alignment" : 4,
   "is_const" : true,
   "linker_set_key" : "const android::hardware::hidl_vec<android::hardware::radio::V1_0::CellIdentityGsm>",
   "name" : "const android::hardware::hidl_vec<android::hardware::radio::V1_0::CellIdentityGsm>",
   "referenced_type" : "type-102",
   "self_type" : "type-205",
   "size" : 16,
   "source_file" : "/system/libhidl/base/include/hidl/HidlSupport.h"
  },
  {
   "alignment" : 4,
   "is_const" : true,
   "linker_set_key" : "const android::hardware::hidl_vec<android::hardware::radio::V1_0::CellIdentityLte>",
   "name" : "const android::hardware::hidl_vec<android::hardware::radio::V1_0::CellIdentityLte>",
   "referenced_type" : "type-116",
   "self_type" : "type-214",
   "size" : 16,
   "source_file" : "/system/libhidl/base/include/hidl/HidlSupport.h"
  },
  {
   "alignment" : 4,
   "is_const" : true,
   "linker_set_key" : "const android::hardware::hidl_vec<android::hardware::radio::V1_0::CellIdentityTdscdma>",
   "name" : "const android::hardware::hidl_vec<android::hardware::radio::V1_0::CellIdentityTdscdma>",
   "referenced_type" : "type-16",
   "self_type" : "type-219",
   "size" : 16,
   "source_file" : "/system/libhidl/base/include/hidl/HidlSupport.h"
  },
  {
   "alignment" : 4,
   "is_const" : true,
   "linker_set_key" : "const android::hardware::hidl_vec<android::hardware::radio::V1_0::CellIdentityWcdma>",
   "name" : "const android::hardware::hidl_vec<android::hardware::radio::V1_0::CellIdentityWcdma>",
   "referenced_type" : "type-107",
   "self_type" : "type-208",
   "size" : 16,
   "source_file" : "/system/libhidl/base/include/hidl/HidlSupport.h"
  },
  {
   "alignment" : 4,
   "is_const" : true,
   "linker_set_key" : "const android::hardware::hidl_vec<android::hardware::radio::V1_0::CellInfoCdma>",
   "name" : "const android::hardware::hidl_vec<android::hardware::radio::V1_0::CellInfoCdma>",
   "referenced_type" : "type-152",
   "self_type" : "type-151",
   "size" : 16,
   "source_file" : "/system/libhidl/base/include/hidl/HidlSupport.h"
  },
  {
   "alignment" : 4,
   "is_const" : true,
   "linker_set_key" : "const android::hardware::hidl_vec<android::hardware::radio::V1_0::CellInfoGsm>",
   "name" : "const android::hardware::hidl_vec<android::hardware::radio::V1_0::CellInfoGsm>",
   "referenced_type" : "type-143",
   "self_type" : "type-142",
   "size" : 16,
   "source_file" : "/system/libhidl/base/include/hidl/HidlSupport.h"
  },
  {
   "alignment" : 4,
   "is_const" : true,
   "linker_set_key" : "const android::hardware::hidl_vec<android::hardware::radio::V1_0::CellInfoLte>",
   "name" : "const android::hardware::hidl_vec<android::hardware::radio::V1_0::CellInfoLte>",
   "referenced_type" : "type-163",
   "self_type" : "type-162",
   "size" : 16,
   "source_file" : "/system/libhidl/base/include/hidl/HidlSupport.h"
  },
  {
   "alignment" : 4,
   "is_const" : true,
   "linker_set_key" : "const android::hardware::hidl_vec<android::hardware::radio::V1_0::CellInfoTdscdma>",
   "name" : "const android::hardware::hidl_vec<android::hardware::radio::V1_0::CellInfoTdscdma>",
   "referenced_type" : "type-178",
   "self_type" : "type-177",
   "size" : 16,
   "source_file" : "/system/libhidl/base/include/hidl/HidlSupport.h"
  },
  {
   "alignment" : 4,
   "is_const" : true,
   "linker_set_key" : "const android::hardware::hidl_vec<android::hardware::radio::V1_0::CellInfoWcdma>",
   "name" : "const android::hardware::hidl_vec<android::hardware::radio::V1_0::CellInfoWcdma>",
   "referenced_type" : "type-172",
   "self_type" : "type-171",
   "size" : 16,
   "source_file" : "/system/libhidl/base/include/hidl/HidlSupport.h"
  },
  {
   "alignment" : 4,
   "is_const" : true,
   "linker_set_key" : "const android::hardware::hidl_vec<android::hardware::radio::V1_0::CfData>",
   "name" : "const android::hardware::hidl_vec<android::hardware::radio::V1_0::CfData>",
   "referenced_type" : "type-340",
   "self_type" : "type-339",
   "size" : 16,
   "source_file" : "/system/libhidl/base/include/hidl/HidlSupport.h"
  },
  {
   "alignment" : 4,
   "is_const" : true,
   "linker_set_key" : "const android::hardware::hidl_vec<android::hardware::radio::V1_0::GsmSmsMessage>",
   "name" : "const android::hardware::hidl_vec<android::hardware::radio::V1_0::GsmSmsMessage>",
   "referenced_type" : "type-200",
   "self_type" : "type-225",
   "size" : 16,
   "source_file" : "/system/libhidl/base/include/hidl/HidlSupport.h"
  },
  {
   "alignment" : 4,
   "is_const" : true,
   "linker_set_key" : "const android::hardware::hidl_vec<android::hardware::radio::V1_0::HardwareConfigModem>",
   "name" : "const android::hardware::hidl_vec<android::hardware::radio::V1_0::HardwareConfigModem>",
   "referenced_type" : "type-229",
   "self_type" : "type-228",
   "size" : 16,
   "source_file" : "/system/libhidl/base/include/hidl/HidlSupport.h"
  },
  {
   "alignment" : 4,
   "is_const" : true,
   "linker_set_key" : "const android::hardware::hidl_vec<android::hardware::radio::V1_0::HardwareConfigSim>",
   "name" : "const android::hardware::hidl_vec<android::hardware::radio::V1_0::HardwareConfigSim>",
   "referenced_type" : "type-237",
   "self_type" : "type-236",
   "size" : 16,
   "source_file" : "/system/libhidl/base/include/hidl/HidlSupport.h"
  },
  {
   "alignment" : 4,
   "is_const" : true,
   "linker_set_key" : "const android::hardware::hidl_vec<android::hardware::radio::V1_0::SsInfoData>",
   "name" : "const android::hardware::hidl_vec<android::hardware::radio::V1_0::SsInfoData>",
   "referenced_type" : "type-332",
   "self_type" : "type-331",
   "size" : 16,
   "source_file" : "/system/libhidl/base/include/hidl/HidlSupport.h"
  },
  {
   "alignment" : 4,
   "is_const" : true,
   "linker_set_key" : "const android::hardware::hidl_vec<android::hardware::radio::V1_0::UusInfo>",
   "name" : "const android::hardware::hidl_vec<android::hardware::radio::V1_0::UusInfo>",
   "referenced_type" : "type-125",
   "self_type" : "type-132",
   "size" : 16,
   "source_file" : "/system/libhidl/base/include/hidl/HidlSupport.h"
  },
  {
   "alignment" : 4,
   "is_const" : true,
   "linker_set_key" : "const android::hardware::hidl_vec<android::hardware::radio::config::V1_0::SimSlotStatus>",
   "name" : "const android::hardware::hidl_vec<android::hardware::radio::config::V1_0::SimSlotStatus>",
   "referenced_type" : "type-834",
   "self_type" : "type-836",
   "size" : 16,
   "source_file" : "/system/libhidl/base/include/hidl/HidlSupport.h"
  },
  {
   "alignment" : 4,
   "is_const" : true,
   "linker_set_key" : "const android::hardware::hidl_vec<int>",
   "name" : "const android::hardware::hidl_vec<int>",
   "referenced_type" : "type-92",
   "self_type" : "type-91",
   "size" : 16,
   "source_file" : "/system/libhidl/base/include/hidl/HidlSupport.h"
  },
  {
   "alignment" : 4,
   "is_const" : true,
   "linker_set_key" : "const android::hardware::hidl_vec<unsigned char>",
   "name" : "const android::hardware::hidl_vec<unsigned char>",
   "referenced_type" : "type-136",
   "self_type" : "type-135",
   "size" : 16,
   "source_file" : "/system/libhidl/base/include/hidl/HidlSupport.h"
  },
  {
   "alignment" : 4,
   "is_const" : true,
   "linker_set_key" : "const android::hardware::hidl_vec<unsigned int>",
   "name" : "const android::hardware::hidl_vec<unsigned int>",
   "referenced_type" : "type-347",
   "self_type" : "type-354",
   "size" : 16,
   "source_file" : "/system/libhidl/base/include/hidl/HidlSupport.h"
  },
  {
   "alignment" : 2,
   "is_const" : true,
   "linker_set_key" : "const android::hardware::hidl_version",
   "name" : "const android::hardware::hidl_version",
   "referenced_type" : "type-378",
   "self_type" : "type-381",
   "size" : 4,
   "source_file" : "/system/libhidl/base/include/hidl/HidlSupport.h"
  },
  {
   "alignment" : 4,
   "is_const" : true,
   "linker_set_key" : "const android::hardware::radio::V1_0::ApnAuthType",
   "name" : "const android::hardware::radio::V1_0::ApnAuthType",
   "referenced_type" : "type-611",
   "self_type" : "type-1265",
   "size" : 4,
   "source_file" : "/out/soong/.intermediates/hardware/interfaces/radio/1.0/android.hardware.radio@1.0_genc++_headers/gen/android/hardware/radio/1.0/types.h"
  },
  {
   "alignment" : 4,
   "is_const" : true,
   "linker_set_key" : "const android::hardware::radio::V1_0::ApnTypes",
   "name" : "const android::hardware::radio::V1_0::ApnTypes",
   "referenced_type" : "type-1336",
   "self_type" : "type-1335",
   "size" : 4,
   "source_file" : "/out/soong/.intermediates/hardware/interfaces/radio/1.0/android.hardware.radio@1.0_genc++_headers/gen/android/hardware/radio/1.0/types.h"
  },
  {
   "alignment" : 4,
   "is_const" : true,
   "linker_set_key" : "const android::hardware::radio::V1_0::AppState",
   "name" : "const android::hardware::radio::V1_0::AppState",
   "referenced_type" : "type-36",
   "self_type" : "type-1044",
   "size" : 4,
   "source_file" : "/out/soong/.intermediates/hardware/interfaces/radio/1.0/android.hardware.radio@1.0_genc++_headers/gen/android/hardware/radio/1.0/types.h"
  },
  {
   "alignment" : 8,
   "is_const" : true,
   "linker_set_key" : "const android::hardware::radio::V1_0::AppStatus",
   "name" : "const android::hardware::radio::V1_0::AppStatus",
   "referenced_type" : "type-34",
   "self_type" : "type-33",
   "size" : 64,
   "source_file" : "/system/libhidl/base/include/hidl/HidlInternal.h"
  },
  {
   "alignment" : 4,
   "is_const" : true,
   "linker_set_key" : "const android::hardware::radio::V1_0::AppType",
   "name" : "const android::hardware::radio::V1_0::AppType",
   "referenced_type" : "type-35",
   "self_type" : "type-1043",
   "size" : 4,
   "source_file" : "/out/soong/.intermediates/hardware/interfaces/radio/1.0/android.hardware.radio@1.0_genc++_headers/gen/android/hardware/radio/1.0/types.h"
  },
  {
   "alignment" : 8,
   "is_const" : true,
   "linker_set_key" : "const android::hardware::radio::V1_0::CallForwardInfo",
   "name" : "const android::hardware::radio::V1_0::CallForwardInfo",
   "referenced_type" : "type-327",
   "self_type" : "type-1665",
   "size" : 40,
   "source_file" : "/system/libhidl/base/include/hidl/HidlInternal.h"
  },
  {
   "alignment" : 4,
   "is_const" : true,
   "linker_set_key" : "const android::hardware::radio::V1_0::CallForwardInfoStatus",
   "name" : "const android::hardware::radio::V1_0::CallForwardInfoStatus",
   "referenced_type" : "type-328",
   "self_type" : "type-1118",
   "size" : 4,
   "source_file" : "/out/soong/.intermediates/hardware/interfaces/radio/1.0/android.hardware.radio@1.0_genc++_headers/gen/android/hardware/radio/1.0/types.h"
  },
  {
   "alignment" : 4,
   "is_const" : true,
   "linker_set_key" : "const android::hardware::radio::V1_0::CallPresentation",
   "name" : "const android::hardware::radio::V1_0::CallPresentation",
   "referenced_type" : "type-604",
   "self_type" : "type-1091",
   "size" : 4,
   "source_file" : "/out/soong/.intermediates/hardware/interfaces/radio/1.0/android.hardware.radio@1.0_genc++_headers/gen/android/hardware/radio/1.0/types.h"
  },
  {
   "alignment" : 4,
   "is_const" : true,
   "linker_set_key" : "const android::hardware::radio::V1_0::CallState",
   "name" : "const android::hardware::radio::V1_0::CallState",
   "referenced_type" : "type-603",
   "self_type" : "type-1087",
   "size" : 4,
   "source_file" : "/out/soong/.intermediates/hardware/interfaces/radio/1.0/android.hardware.radio@1.0_genc++_headers/gen/android/hardware/radio/1.0/types.h"
  },
  {
   "alignment" : 4,
   "is_const" : true,
   "linker_set_key" : "const android::hardware::radio::V1_0::CardState",
   "name" : "const android::hardware::radio::V1_0::CardState",
   "referenced_type" : "type-601",
   "self_type" : "type-1041",
   "size" : 4,
   "source_file" : "/out/soong/.intermediates/hardware/interfaces/radio/1.0/android.hardware.radio@1.0_genc++_headers/gen/android/hardware/radio/1.0/types.h"
  },
  {
   "alignment" : 8,
   "is_const" : true,
   "linker_set_key" : "const android::hardware::radio::V1_0::Carrier",
   "name" : "const android::hardware::radio::V1_0::Carrier",
   "referenced_type" : "type-250",
   "self_type" : "type-1627",
   "size" : 56,
   "source_file" : "/system/libhidl/base/include/hidl/HidlInternal.h"
  },
  {
   "alignment" : 4,
   "is_const" : true,
   "linker_set_key" : "const android::hardware::radio::V1_0::CarrierMatchType",
   "name" : "const android::hardware::radio::V1_0::CarrierMatchType",
   "referenced_type" : "type-251",
   "self_type" : "type-1242",
   "size" : 4,
   "source_file" : "/out/soong/.intermediates/hardware/interfaces/radio/1.0/android.hardware.radio@1.0_genc++_headers/gen/android/hardware/radio/1.0/types.h"
  },
  {
   "alignment" : 4,
   "is_const" : true,
   "linker_set_key" : "const android::hardware::radio::V1_0::CdmaCallWaitingNumberPlan",
   "name" : "const android::hardware::radio::V1_0::CdmaCallWaitingNumberPlan",
   "referenced_type" : "type-722",
   "self_type" : "type-1289",
   "size" : 4,
   "source_file" : "/out/soong/.intermediates/hardware/interfaces/radio/1.0/android.hardware.radio@1.0_genc++_headers/gen/android/hardware/radio/1.0/types.h"
  },
  {
   "alignment" : 4,
   "is_const" : true,
   "linker_set_key" : "const android::hardware::radio::V1_0::CdmaCallWaitingNumberPresentation",
   "name" : "const android::hardware::radio::V1_0::CdmaCallWaitingNumberPresentation",
   "referenced_type" : "type-720",
   "self_type" : "type-1287",
   "size" : 4,
   "source_file" : "/out/soong/.intermediates/hardware/interfaces/radio/1.0/android.hardware.radio@1.0_genc++_headers/gen/android/hardware/radio/1.0/types.h"
  },
  {
   "alignment" : 4,
   "is_const" : true,
   "linker_set_key" : "const android::hardware::radio::V1_0::CdmaCallWaitingNumberType",
   "name" : "const android::hardware::radio::V1_0::CdmaCallWaitingNumberType",
   "referenced_type" : "type-721",
   "self_type" : "type-1288",
   "size" : 4,
   "source_file" : "/out/soong/.intermediates/hardware/interfaces/radio/1.0/android.hardware.radio@1.0_genc++_headers/gen/android/hardware/radio/1.0/types.h"
  },
  {
   "alignment" : 8,
   "is_const" : true,
   "linker_set_key" : "const android::hardware::radio::V1_0::CdmaDisplayInfoRecord",
   "name" : "const android::hardware::radio::V1_0::CdmaDisplayInfoRecord",
   "referenced_type" : "type-259",
   "self_type" : "type-1632",
   "size" : 16,
   "source_file" : "/system/libhidl/base/include/hidl/HidlInternal.h"
  },
  {
   "alignment" : 4,
   "is_const" : true,
   "linker_set_key" : "const android::hardware::radio::V1_0::CdmaInfoRecName",
   "name" : "const android::hardware::radio::V1_0::CdmaInfoRecName",
   "referenced_type" : "type-319",
   "self_type" : "type-1292",
   "size" : 4,
   "source_file" : "/out/soong/.intermediates/hardware/interfaces/radio/1.0/android.hardware.radio@1.0_genc++_headers/gen/android/hardware/radio/1.0/types.h"
  },
  {
   "alignment" : 8,
   "is_const" : true,
   "linker_set_key" : "const android::hardware::radio::V1_0::CdmaInformationRecord",
   "name" : "const android::hardware::radio::V1_0::CdmaInformationRecord",
   "referenced_type" : "type-318",
   "self_type" : "type-1661",
   "size" : 120,
   "source_file" : "/system/libhidl/base/include/hidl/HidlInternal.h"
  },
  {
   "alignment" : 1,
   "is_const" : true,
   "linker_set_key" : "const android::hardware::radio::V1_0::CdmaLineControlInfoRecord",
   "name" : "const android::hardware::radio::V1_0::CdmaLineControlInfoRecord",
   "referenced_type" : "type-294",
   "self_type" : "type-1649",
   "size" : 4,
   "source_file" : "/system/libhidl/base/include/hidl/HidlInternal.h"
  },
  {
   "alignment" : 8,
   "is_const" : true,
   "linker_set_key" : "const android::hardware::radio::V1_0::CdmaNumberInfoRecord",
   "name" : "const android::hardware::radio::V1_0::CdmaNumberInfoRecord",
   "referenced_type" : "type-268",
   "self_type" : "type-1636",
   "size" : 24,
   "source_file" : "/system/libhidl/base/include/hidl/HidlInternal.h"
  },
  {
   "alignment" : 4,
   "is_const" : true,
   "linker_set_key" : "const android::hardware::radio::V1_0::CdmaOtaProvisionStatus",
   "name" : "const android::hardware::radio::V1_0::CdmaOtaProvisionStatus",
   "referenced_type" : "type-1291",
   "self_type" : "type-1290",
   "size" : 4,
   "source_file" : "/out/soong/.intermediates/hardware/interfaces/radio/1.0/android.hardware.radio@1.0_genc++_headers/gen/android/hardware/radio/1.0/types.h"
  },
  {
   "alignment" : 8,
   "is_const" : true,
   "linker_set_key" : "const android::hardware::radio::V1_0::CdmaRedirectingNumberInfoRecord",
   "name" : "const android::hardware::radio::V1_0::CdmaRedirectingNumberInfoRecord",
   "referenced_type" : "type-285",
   "self_type" : "type-1645",
   "size" : 32,
   "source_file" : "/system/libhidl/base/include/hidl/HidlInternal.h"
  },
  {
   "alignment" : 4,
   "is_const" : true,
   "linker_set_key" : "const android::hardware::radio::V1_0::CdmaRedirectingReason",
   "name" : "const android::hardware::radio::V1_0::CdmaRedirectingReason",
   "referenced_type" : "type-286",
   "self_type" : "type-1293",
   "size" : 4,
   "source_file" : "/out/soong/.intermediates/hardware/interfaces/radio/1.0/android.hardware.radio@1.0_genc++_headers/gen/android/hardware/radio/1.0/types.h"
  },
  {
   "alignment" : 4,
   "is_const" : true,
   "linker_set_key" : "const android::hardware::radio::V1_0::CdmaRoamingType",
   "name" : "const android::hardware::radio::V1_0::CdmaRoamingType",
   "referenced_type" : "type-1222",
   "self_type" : "type-1221",
   "size" : 4,
   "source_file" : "/out/soong/.intermediates/hardware/interfaces/radio/1.0/android.hardware.radio@1.0_genc++_headers/gen/android/hardware/radio/1.0/types.h"
  },
  {
   "alignment" : 1,
   "is_const" : true,
   "linker_set_key" : "const android::hardware::radio::V1_0::CdmaSignalInfoRecord",
   "name" : "const android::hardware::radio::V1_0::CdmaSignalInfoRecord",
   "referenced_type" : "type-276",
   "self_type" : "type-1640",
   "size" : 4,
   "source_file" : "/system/libhidl/base/include/hidl/HidlInternal.h"
  },
  {
   "alignment" : 4,
   "is_const" : true,
   "linker_set_key" : "const android::hardware::radio::V1_0::CdmaSmsDigitMode",
   "name" : "const android::hardware::radio::V1_0::CdmaSmsDigitMode",
   "referenced_type" : "type-194",
   "self_type" : "type-1246",
   "size" : 4,
   "source_file" : "/out/soong/.intermediates/hardware/interfaces/radio/1.0/android.hardware.radio@1.0_genc++_headers/gen/android/hardware/radio/1.0/types.h"
  },
  {
   "alignment" : 4,
   "is_const" : true,
   "linker_set_key" : "const android::hardware::radio::V1_0::CdmaSmsErrorClass",
   "name" : "const android::hardware::radio::V1_0::CdmaSmsErrorClass",
   "referenced_type" : "type-1253",
   "self_type" : "type-1252",
   "size" : 4,
   "source_file" : "/out/soong/.intermediates/hardware/interfaces/radio/1.0/android.hardware.radio@1.0_genc++_headers/gen/android/hardware/radio/1.0/types.h"
  },
  {
   "alignment" : 8,
   "is_const" : true,
   "linker_set_key" : "const android::hardware::radio::V1_0::CdmaSmsMessage",
   "name" : "const android::hardware::radio::V1_0::CdmaSmsMessage",
   "referenced_type" : "type-192",
   "self_type" : "type-1609",
   "size" : 88,
   "source_file" : "/system/libhidl/base/include/hidl/HidlInternal.h"
  },
  {
   "alignment" : 4,
   "is_const" : true,
   "linker_set_key" : "const android::hardware::radio::V1_0::CdmaSmsNumberMode",
   "name" : "const android::hardware::radio::V1_0::CdmaSmsNumberMode",
   "referenced_type" : "type-195",
   "self_type" : "type-1247",
   "size" : 4,
   "source_file" : "/out/soong/.intermediates/hardware/interfaces/radio/1.0/android.hardware.radio@1.0_genc++_headers/gen/android/hardware/radio/1.0/types.h"
  },
  {
   "alignment" : 4,
   "is_const" : true,
   "linker_set_key" : "const android::hardware::radio::V1_0::CdmaSmsNumberPlan",
   "name" : "const android::hardware::radio::V1_0::CdmaSmsNumberPlan",
   "referenced_type" : "type-197",
   "self_type" : "type-1249",
   "size" : 4,
   "source_file" : "/out/soong/.intermediates/hardware/interfaces/radio/1.0/android.hardware.radio@1.0_genc++_headers/gen/android/hardware/radio/1.0/types.h"
  },
  {
   "alignment" : 4,
   "is_const" : true,
   "linker_set_key" : "const android::hardware::radio::V1_0::CdmaSmsNumberType",
   "name" : "const android::hardware::radio::V1_0::CdmaSmsNumberType",
   "referenced_type" : "type-196",
   "self_type" : "type-1248",
   "size" : 4,
   "source_file" : "/out/soong/.intermediates/hardware/interfaces/radio/1.0/android.hardware.radio@1.0_genc++_headers/gen/android/hardware/radio/1.0/types.h"
  },
  {
   "alignment" : 4,
   "is_const" : true,
   "linker_set_key" : "const android::hardware::radio::V1_0::CdmaSmsSubaddressType",
   "name" : "const android::hardware::radio::V1_0::CdmaSmsSubaddressType",
   "referenced_type" : "type-199",
   "self_type" : "type-1250",
   "size" : 4,
   "source_file" : "/out/soong/.intermediates/hardware/interfaces/radio/1.0/android.hardware.radio@1.0_genc++_headers/gen/android/hardware/radio/1.0/types.h"
  },
  {
   "alignment" : 4,
   "is_const" : true,
   "linker_set_key" : "const android::hardware::radio::V1_0::CdmaSmsWriteArgsStatus",
   "name" : "const android::hardware::radio::V1_0::CdmaSmsWriteArgsStatus",
   "referenced_type" : "type-1258",
   "self_type" : "type-1257",
   "size" : 4,
   "source_file" : "/out/soong/.intermediates/hardware/interfaces/radio/1.0/android.hardware.radio@1.0_genc++_headers/gen/android/hardware/radio/1.0/types.h"
  },
  {
   "alignment" : 4,
   "is_const" : true,
   "linker_set_key" : "const android::hardware::radio::V1_0::CdmaSubscriptionSource",
   "name" : "const android::hardware::radio::V1_0::CdmaSubscriptionSource",
   "referenced_type" : "type-1202",
   "self_type" : "type-1201",
   "size" : 4,
   "source_file" : "/out/soong/.intermediates/hardware/interfaces/radio/1.0/android.hardware.radio@1.0_genc++_headers/gen/android/hardware/radio/1.0/types.h"
  },
  {
   "alignment" : 1,
   "is_const" : true,
   "linker_set_key" : "const android::hardware::radio::V1_0::CdmaT53AudioControlInfoRecord",
   "name" : "const android::hardware::radio::V1_0::CdmaT53AudioControlInfoRecord",
   "referenced_type" : "type-310",
   "self_type" : "type-1657",
   "size" : 2,
   "source_file" : "/system/libhidl/base/include/hidl/HidlInternal.h"
  },
  {
   "alignment" : 1,
   "is_const" : true,
   "linker_set_key" : "const android::hardware::radio::V1_0::CdmaT53ClirInfoRecord",
   "name" : "const android::hardware::radio::V1_0::CdmaT53ClirInfoRecord",
   "referenced_type" : "type-302",
   "self_type" : "type-1653",
   "size" : 1,
   "source_file" : "/system/libhidl/base/include/hidl/HidlInternal.h"
  },
  {
   "alignment" : 4,
   "is_const" : true,
   "linker_set_key" : "const android::hardware::radio::V1_0::CellIdentityCdma",
   "name" : "const android::hardware::radio::V1_0::CellIdentityCdma",
   "referenced_type" : "type-115",
   "self_type" : "type-1597",
   "size" : 20,
   "source_file" : "/system/libhidl/base/include/hidl/HidlInternal.h"
  },
  {
   "alignment" : 8,
   "is_const" : true,
   "linker_set_key" : "const android::hardware::radio::V1_0::CellIdentityGsm",
   "name" : "const android::hardware::radio::V1_0::CellIdentityGsm",
   "referenced_type" : "type-106",
   "self_type" : "type-1464",
   "size" : 48,
   "source_file" : "/system/libhidl/base/include/hidl/HidlInternal.h"
  },
  {
   "alignment" : 8,
   "is_const" : true,
   "linker_set_key" : "const android::hardware::radio::V1_0::CellIdentityLte",
   "name" : "const android::hardware::radio::V1_0::CellIdentityLte",
   "referenced_type" : "type-120",
   "self_type" : "type-1601",
   "size" : 48,
   "source_file" : "/system/libhidl/base/include/hidl/HidlInternal.h"
  },
  {
   "alignment" : 8,
   "is_const" : true,
   "linker_set_key" : "const android::hardware::radio::V1_0::CellIdentityTdscdma",
   "name" : "const android::hardware::radio::V1_0::CellIdentityTdscdma",
   "referenced_type" : "type-20",
   "self_type" : "type-1605",
   "size" : 48,
   "source_file" : "/system/libhidl/base/include/hidl/HidlInternal.h"
  },
  {
   "alignment" : 8,
   "is_const" : true,
   "linker_set_key" : "const android::hardware::radio::V1_0::CellIdentityWcdma",
   "name" : "const android::hardware::radio::V1_0::CellIdentityWcdma",
   "referenced_type" : "type-5",
   "self_type" : "type-1551",
   "size" : 48,
   "source_file" : "/system/libhidl/base/include/hidl/HidlInternal.h"
  },
  {
   "alignment" : 4,
   "is_const" : true,
   "linker_set_key" : "const android::hardware::radio::V1_0::CellInfoCdma",
   "name" : "const android::hardware::radio::V1_0::CellInfoCdma",
   "referenced_type" : "type-156",
   "self_type" : "type-559",
   "size" : 40,
   "source_file" : "/system/libhidl/base/include/hidl/HidlInternal.h"
  },
  {
   "alignment" : 8,
   "is_const" : true,
   "linker_set_key" : "const android::hardware::radio::V1_0::CellInfoGsm",
   "name" : "const android::hardware::radio::V1_0::CellInfoGsm",
   "referenced_type" : "type-147",
   "self_type" : "type-453",
   "size" : 64,
   "source_file" : "/system/libhidl/base/include/hidl/HidlInternal.h"
  },
  {
   "alignment" : 8,
   "is_const" : true,
   "linker_set_key" : "const android::hardware::radio::V1_0::CellInfoLte",
   "name" : "const android::hardware::radio::V1_0::CellInfoLte",
   "referenced_type" : "type-167",
   "self_type" : "type-594",
   "size" : 72,
   "source_file" : "/system/libhidl/base/include/hidl/HidlInternal.h"
  },
  {
   "alignment" : 8,
   "is_const" : true,
   "linker_set_key" : "const android::hardware::radio::V1_0::CellInfoTdscdma",
   "name" : "const android::hardware::radio::V1_0::CellInfoTdscdma",
   "referenced_type" : "type-182",
   "self_type" : "type-1379",
   "size" : 56,
   "source_file" : "/system/libhidl/base/include/hidl/HidlInternal.h"
  },
  {
   "alignment" : 4,
   "is_const" : true,
   "linker_set_key" : "const android::hardware::radio::V1_0::CellInfoType",
   "name" : "const android::hardware::radio::V1_0::CellInfoType",
   "referenced_type" : "type-101",
   "self_type" : "type-1259",
   "size" : 4,
   "source_file" : "/out/soong/.intermediates/hardware/interfaces/radio/1.0/android.hardware.radio@1.0_genc++_headers/gen/android/hardware/radio/1.0/types.h"
  },
  {
   "alignment" : 8,
   "is_const" : true,
   "linker_set_key" : "const android::hardware::radio::V1_0::CellInfoWcdma",
   "name" : "const android::hardware::radio::V1_0::CellInfoWcdma",
   "referenced_type" : "type-4",
   "self_type" : "type-936",
   "size" : 56,
   "source_file" : "/system/libhidl/base/include/hidl/HidlInternal.h"
  },
  {
   "alignment" : 8,
   "is_const" : true,
   "linker_set_key" : "const android::hardware::radio::V1_0::CfData",
   "name" : "const android::hardware::radio::V1_0::CfData",
   "referenced_type" : "type-344",
   "self_type" : "type-1675",
   "size" : 16,
   "source_file" : "/system/libhidl/base/include/hidl/HidlInternal.h"
  },
  {
   "alignment" : 4,
   "is_const" : true,
   "linker_set_key" : "const android::hardware::radio::V1_0::ClipStatus",
   "name" : "const android::hardware::radio::V1_0::ClipStatus",
   "referenced_type" : "type-1125",
   "self_type" : "type-1124",
   "size" : 4,
   "source_file" : "/out/soong/.intermediates/hardware/interfaces/radio/1.0/android.hardware.radio@1.0_genc++_headers/gen/android/hardware/radio/1.0/types.h"
  },
  {
   "alignment" : 4,
   "is_const" : true,
   "linker_set_key" : "const android::hardware::radio::V1_0::Clir",
   "name" : "const android::hardware::radio::V1_0::Clir",
   "referenced_type" : "type-606",
   "self_type" : "type-1094",
   "size" : 4,
   "source_file" : "/out/soong/.intermediates/hardware/interfaces/radio/1.0/android.hardware.radio@1.0_genc++_headers/gen/android/hardware/radio/1.0/types.h"
  },
  {
   "alignment" : 4,
   "is_const" : true,
   "linker_set_key" : "const android::hardware::radio::V1_0::DataCallFailCause",
   "name" : "const android::hardware::radio::V1_0::DataCallFailCause",
   "referenced_type" : "type-1093",
   "self_type" : "type-1098",
   "size" : 4,
   "source_file" : "/out/soong/.intermediates/hardware/interfaces/radio/1.0/android.hardware.radio@1.0_genc++_headers/gen/android/hardware/radio/1.0/types.h"
  },
  {
   "alignment" : 4,
   "is_const" : true,
   "linker_set_key" : "const android::hardware::radio::V1_0::DataProfileId",
   "name" : "const android::hardware::radio::V1_0::DataProfileId",
   "referenced_type" : "type-610",
   "self_type" : "type-1109",
   "size" : 4,
   "source_file" : "/out/soong/.intermediates/hardware/interfaces/radio/1.0/android.hardware.radio@1.0_genc++_headers/gen/android/hardware/radio/1.0/types.h"
  },
  {
   "alignment" : 4,
   "is_const" : true,
   "linker_set_key" : "const android::hardware::radio::V1_0::DataProfileInfoType",
   "name" : "const android::hardware::radio::V1_0::DataProfileInfoType",
   "referenced_type" : "type-612",
   "self_type" : "type-1283",
   "size" : 4,
   "source_file" : "/out/soong/.intermediates/hardware/interfaces/radio/1.0/android.hardware.radio@1.0_genc++_headers/gen/android/hardware/radio/1.0/types.h"
  },
  {
   "alignment" : 4,
   "is_const" : true,
   "linker_set_key" : "const android::hardware::radio::V1_0::DeviceStateType",
   "name" : "const android::hardware::radio::V1_0::DeviceStateType",
   "referenced_type" : "type-1375",
   "self_type" : "type-1374",
   "size" : 4,
   "source_file" : "/out/soong/.intermediates/hardware/interfaces/radio/1.0/android.hardware.radio@1.0_genc++_headers/gen/android/hardware/radio/1.0/types.h"
  },
  {
   "alignment" : 8,
   "is_const" : true,
   "linker_set_key" : "const android::hardware::radio::V1_0::GsmSmsMessage",
   "name" : "const android::hardware::radio::V1_0::GsmSmsMessage",
   "referenced_type" : "type-204",
   "self_type" : "type-1613",
   "size" : 32,
   "source_file" : "/system/libhidl/base/include/hidl/HidlInternal.h"
  },
  {
   "alignment" : 4,
   "is_const" : true,
   "linker_set_key" : "const android::hardware::radio::V1_0::HardwareConfigModem",
   "name" : "const android::hardware::radio::V1_0::HardwareConfigModem",
   "referenced_type" : "type-233",
   "self_type" : "type-1617",
   "size" : 20,
   "source_file" : "/system/libhidl/base/include/hidl/HidlInternal.h"
  },
  {
   "alignment" : 8,
   "is_const" : true,
   "linker_set_key" : "const android::hardware::radio::V1_0::HardwareConfigSim",
   "name" : "const android::hardware::radio::V1_0::HardwareConfigSim",
   "referenced_type" : "type-241",
   "self_type" : "type-1622",
   "size" : 16,
   "source_file" : "/system/libhidl/base/include/hidl/HidlInternal.h"
  },
  {
   "alignment" : 4,
   "is_const" : true,
   "linker_set_key" : "const android::hardware::radio::V1_0::HardwareConfigState",
   "name" : "const android::hardware::radio::V1_0::HardwareConfigState",
   "referenced_type" : "type-508",
   "self_type" : "type-1240",
   "size" : 4,
   "source_file" : "/out/soong/.intermediates/hardware/interfaces/radio/1.0/android.hardware.radio@1.0_genc++_headers/gen/android/hardware/radio/1.0/types.h"
  },
  {
   "alignment" : 4,
   "is_const" : true,
   "linker_set_key" : "const android::hardware::radio::V1_0::HardwareConfigType",
   "name" : "const android::hardware::radio::V1_0::HardwareConfigType",
   "referenced_type" : "type-507",
   "self_type" : "type-1239",
   "size" : 4,
   "source_file" : "/out/soong/.intermediates/hardware/interfaces/radio/1.0/android.hardware.radio@1.0_genc++_headers/gen/android/hardware/radio/1.0/types.h"
  },
  {
   "alignment" : 4,
   "is_const" : true,
   "linker_set_key" : "const android::hardware::radio::V1_0::IndicationFilter",
   "name" : "const android::hardware::radio::V1_0::IndicationFilter",
   "referenced_type" : "type-1358",
   "self_type" : "type-1357",
   "size" : 4,
   "source_file" : "/out/soong/.intermediates/hardware/interfaces/radio/1.0/android.hardware.radio@1.0_genc++_headers/gen/android/hardware/radio/1.0/types.h"
  },
  {
   "alignment" : 4,
   "is_const" : true,
   "linker_set_key" : "const android::hardware::radio::V1_0::LastCallFailCause",
   "name" : "const android::hardware::radio::V1_0::LastCallFailCause",
   "referenced_type" : "type-608",
   "self_type" : "type-1095",
   "size" : 4,
   "source_file" : "/out/soong/.intermediates/hardware/interfaces/radio/1.0/android.hardware.radio@1.0_genc++_headers/gen/android/hardware/radio/1.0/types.h"
  },
  {
   "alignment" : 4,
   "is_const" : true,
   "linker_set_key" : "const android::hardware::radio::V1_0::LceStatus",
   "name" : "const android::hardware::radio::V1_0::LceStatus",
   "referenced_type" : "type-618",
   "self_type" : "type-1241",
   "size" : 4,
   "source_file" : "/out/soong/.intermediates/hardware/interfaces/radio/1.0/android.hardware.radio@1.0_genc++_headers/gen/android/hardware/radio/1.0/types.h"
  },
  {
   "alignment" : 4,
   "is_const" : true,
   "linker_set_key" : "const android::hardware::radio::V1_0::MvnoType",
   "name" : "const android::hardware::radio::V1_0::MvnoType",
   "referenced_type" : "type-613",
   "self_type" : "type-1373",
   "size" : 4,
   "source_file" : "/out/soong/.intermediates/hardware/interfaces/radio/1.0/android.hardware.radio@1.0_genc++_headers/gen/android/hardware/radio/1.0/types.h"
  },
  {
   "alignment" : 4,
   "is_const" : true,
   "linker_set_key" : "const android::hardware::radio::V1_0::NvItem",
   "name" : "const android::hardware::radio::V1_0::NvItem",
   "referenced_type" : "type-425",
   "self_type" : "type-1235",
   "size" : 4,
   "source_file" : "/out/soong/.intermediates/hardware/interfaces/radio/1.0/android.hardware.radio@1.0_genc++_headers/gen/android/hardware/radio/1.0/types.h"
  },
  {
   "alignment" : 4,
   "is_const" : true,
   "linker_set_key" : "const android::hardware::radio::V1_0::OperatorStatus",
   "name" : "const android::hardware::radio::V1_0::OperatorStatus",
   "referenced_type" : "type-1167",
   "self_type" : "type-1166",
   "size" : 4,
   "source_file" : "/out/soong/.intermediates/hardware/interfaces/radio/1.0/android.hardware.radio@1.0_genc++_headers/gen/android/hardware/radio/1.0/types.h"
  },
  {
   "alignment" : 4,
   "is_const" : true,
   "linker_set_key" : "const android::hardware::radio::V1_0::P2Constant",
   "name" : "const android::hardware::radio::V1_0::P2Constant",
   "referenced_type" : "type-1377",
   "self_type" : "type-1376",
   "size" : 4,
   "source_file" : "/out/soong/.intermediates/hardware/interfaces/radio/1.0/android.hardware.radio@1.0_genc++_headers/gen/android/hardware/radio/1.0/types.h"
  },
  {
   "alignment" : 4,
   "is_const" : true,
   "linker_set_key" : "const android::hardware::radio::V1_0::PersoSubstate",
   "name" : "const android::hardware::radio::V1_0::PersoSubstate",
   "referenced_type" : "type-37",
   "self_type" : "type-1045",
   "size" : 4,
   "source_file" : "/out/soong/.intermediates/hardware/interfaces/radio/1.0/android.hardware.radio@1.0_genc++_headers/gen/android/hardware/radio/1.0/types.h"
  },
  {
   "alignment" : 4,
   "is_const" : true,
   "linker_set_key" : "const android::hardware::radio::V1_0::PhoneRestrictedState",
   "name" : "const android::hardware::radio::V1_0::PhoneRestrictedState",
   "referenced_type" : "type-1285",
   "self_type" : "type-1284",
   "size" : 4,
   "source_file" : "/out/soong/.intermediates/hardware/interfaces/radio/1.0/android.hardware.radio@1.0_genc++_headers/gen/android/hardware/radio/1.0/types.h"
  },
  {
