{
 "record_types":[
  {
   "vtable_components":[
    {
     "kind":"vbase_offset",
     "component_value":4
    },
    {
     "kind":"offset_to_top"
    },
    {
     "kind":"rtti",
     "mangled_component_name":"_ZTIN7android8hardware6camera6device4V1_013ICameraDeviceE"
    },
    {
     "mangled_component_name":"_ZNK7android8hardware6camera6device4V1_013ICameraDevice8isRemoteEv"
    },
    {
     "mangled_component_name":"_ZN7android8hardware6camera6device4V1_013ICameraDevice14interfaceChainENSt3__18functionIFvRKNS0_8hidl_vecINS0_11hidl_stringEEEEEE"
    },
    {
     "mangled_component_name":"_ZN7android8hardware6camera6device4V1_013ICameraDevice5debugERKNS0_11hidl_handleERKNS0_8hidl_vecINS0_11hidl_stringEEE"
    },
    {
     "mangled_component_name":"_ZN7android8hardware6camera6device4V1_013ICameraDevice19interfaceDescriptorENSt3__18functionIFvRKNS0_11hidl_stringEEEE"
    },
    {
     "mangled_component_name":"_ZN7android8hardware6camera6device4V1_013ICameraDevice12getHashChainENSt3__18functionIFvRKNS0_8hidl_vecINS0_10hidl_arrayIhLj32EJEEEEEEEE"
    },
    {
     "mangled_component_name":"_ZN7android8hardware6camera6device4V1_013ICameraDevice21setHALInstrumentationEv"
    },
    {
     "mangled_component_name":"_ZN7android8hardware6camera6device4V1_013ICameraDevice11linkToDeathERKNS_2spINS0_20hidl_death_recipientEEEy"
    },
    {
     "mangled_component_name":"_ZN7android8hardware6camera6device4V1_013ICameraDevice4pingEv"
    },
    {
     "mangled_component_name":"_ZN7android8hardware6camera6device4V1_013ICameraDevice12getDebugInfoENSt3__18functionIFvRKNS_4hidl4base4V1_09DebugInfoEEEE"
    },
    {
     "mangled_component_name":"_ZN7android8hardware6camera6device4V1_013ICameraDevice21notifySyspropsChangedEv"
    },
    {
     "mangled_component_name":"_ZN7android8hardware6camera6device4V1_013ICameraDevice13unlinkToDeathERKNS_2spINS0_20hidl_death_recipientEEE"
    },
    {
     "kind":"complete_dtor_pointer",
     "mangled_component_name":"_ZN7android8hardware6camera6device4V1_013ICameraDeviceD1Ev"
    },
    {
     "kind":"deleting_dtor_pointer",
     "mangled_component_name":"_ZN7android8hardware6camera6device4V1_013ICameraDeviceD0Ev"
    },
    {
     "is_pure":true,
     "mangled_component_name":"_ZN7android8hardware6camera6device4V1_013ICameraDevice15getResourceCostENSt3__18functionIFvNS1_6common4V1_06StatusERKNS8_18CameraResourceCostEEEE"
    },
    {
     "is_pure":true,
     "mangled_component_name":"_ZN7android8hardware6camera6device4V1_013ICameraDevice13getCameraInfoENSt3__18functionIFvNS1_6common4V1_06StatusERKNS3_10CameraInfoEEEE"
    },
    {
     "is_pure":true,
     "mangled_component_name":"_ZN7android8hardware6camera6device4V1_013ICameraDevice12setTorchModeENS1_6common4V1_09TorchModeE"
    },
    {
     "is_pure":true,
     "mangled_component_name":"_ZN7android8hardware6camera6device4V1_013ICameraDevice9dumpStateERKNS0_11hidl_handleE"
    },
    {
     "is_pure":true,
     "mangled_component_name":"_ZN7android8hardware6camera6device4V1_013ICameraDevice4openERKNS_2spINS3_21ICameraDeviceCallbackEEE"
    },
    {
     "is_pure":true,
     "mangled_component_name":"_ZN7android8hardware6camera6device4V1_013ICameraDevice16setPreviewWindowERKNS_2spINS3_28ICameraDevicePreviewCallbackEEE"
    },
    {
     "is_pure":true,
     "mangled_component_name":"_ZN7android8hardware6camera6device4V1_013ICameraDevice13enableMsgTypeEj"
    },
    {
     "is_pure":true,
     "mangled_component_name":"_ZN7android8hardware6camera6device4V1_013ICameraDevice14disableMsgTypeEj"
    },
    {
     "is_pure":true,
     "mangled_component_name":"_ZN7android8hardware6camera6device4V1_013ICameraDevice14msgTypeEnabledEj"
    },
    {
     "is_pure":true,
     "mangled_component_name":"_ZN7android8hardware6camera6device4V1_013ICameraDevice12startPreviewEv"
    },
    {
     "is_pure":true,
     "mangled_component_name":"_ZN7android8hardware6camera6device4V1_013ICameraDevice11stopPreviewEv"
    },
    {
     "is_pure":true,
     "mangled_component_name":"_ZN7android8hardware6camera6device4V1_013ICameraDevice14previewEnabledEv"
    },
    {
     "is_pure":true,
     "mangled_component_name":"_ZN7android8hardware6camera6device4V1_013ICameraDevice22storeMetaDataInBuffersEb"
    },
    {
     "is_pure":true,
     "mangled_component_name":"_ZN7android8hardware6camera6device4V1_013ICameraDevice14startRecordingEv"
    },
    {
     "is_pure":true,
     "mangled_component_name":"_ZN7android8hardware6camera6device4V1_013ICameraDevice13stopRecordingEv"
    },
    {
     "is_pure":true,
     "mangled_component_name":"_ZN7android8hardware6camera6device4V1_013ICameraDevice16recordingEnabledEv"
    },
    {
     "is_pure":true,
     "mangled_component_name":"_ZN7android8hardware6camera6device4V1_013ICameraDevice21releaseRecordingFrameEjj"
    },
    {
     "is_pure":true,
     "mangled_component_name":"_ZN7android8hardware6camera6device4V1_013ICameraDevice27releaseRecordingFrameHandleEjjRKNS0_11hidl_handleE"
    },
    {
     "is_pure":true,
     "mangled_component_name":"_ZN7android8hardware6camera6device4V1_013ICameraDevice32releaseRecordingFrameHandleBatchERKNS0_8hidl_vecINS3_17VideoFrameMessageEEE"
    },
    {
     "is_pure":true,
     "mangled_component_name":"_ZN7android8hardware6camera6device4V1_013ICameraDevice9autoFocusEv"
    },
    {
     "is_pure":true,
     "mangled_component_name":"_ZN7android8hardware6camera6device4V1_013ICameraDevice15cancelAutoFocusEv"
    },
    {
     "is_pure":true,
     "mangled_component_name":"_ZN7android8hardware6camera6device4V1_013ICameraDevice11takePictureEv"
    },
    {
     "is_pure":true,
     "mangled_component_name":"_ZN7android8hardware6camera6device4V1_013ICameraDevice13cancelPictureEv"
    },
    {
     "is_pure":true,
     "mangled_component_name":"_ZN7android8hardware6camera6device4V1_013ICameraDevice13setParametersERKNS0_11hidl_stringE"
    },
    {
     "is_pure":true,
     "mangled_component_name":"_ZN7android8hardware6camera6device4V1_013ICameraDevice13getParametersENSt3__18functionIFvRKNS0_11hidl_stringEEEE"
    },
    {
     "is_pure":true,
     "mangled_component_name":"_ZN7android8hardware6camera6device4V1_013ICameraDevice11sendCommandENS3_11CommandTypeEii"
    },
    {
     "is_pure":true,
     "mangled_component_name":"_ZN7android8hardware6camera6device4V1_013ICameraDevice5closeEv"
    },
    {
     "kind":"vcall_offset"
    },
    {
     "kind":"vcall_offset"
    },
    {
     "kind":"vcall_offset"
    },
    {
     "kind":"vcall_offset"
    },
    {
     "kind":"vcall_offset",
     "component_value":-4
    },
    {
     "kind":"offset_to_top",
     "component_value":-4
    },
    {
     "kind":"rtti",
     "mangled_component_name":"_ZTIN7android8hardware6camera6device4V1_013ICameraDeviceE"
    },
    {
     "kind":"complete_dtor_pointer",
     "mangled_component_name":"_ZTv0_n12_N7android8hardware6camera6device4V1_013ICameraDeviceD1Ev"
    },
    {
     "kind":"deleting_dtor_pointer",
     "mangled_component_name":"_ZTv0_n12_N7android8hardware6camera6device4V1_013ICameraDeviceD0Ev"
    },
    {
     "mangled_component_name":"_ZN7android7RefBase10onFirstRefEv"
    },
    {
     "mangled_component_name":"_ZN7android7RefBase15onLastStrongRefEPKv"
    },
    {
     "mangled_component_name":"_ZN7android7RefBase20onIncStrongAttemptedEjPKv"
    },
    {
     "mangled_component_name":"_ZN7android7RefBase13onLastWeakRefEPKv"
    }
   ],
   "unique_id":"_ZTSN7android8hardware6camera6device4V1_013ICameraDeviceE"
  },
  {
   "vtable_components":[
    {
     "kind":"vbase_offset",
     "component_value":60
    },
    {
     "kind":"offset_to_top"
    },
    {
     "kind":"rtti",
     "mangled_component_name":"_ZTIN7android8hardware6camera6device4V1_029BsCameraDevicePreviewCallbackE"
    },
    {
     "mangled_component_name":"_ZNK7android8hardware6camera6device4V1_028ICameraDevicePreviewCallback8isRemoteEv"
    },
    {
     "mangled_component_name":"_ZN7android8hardware6camera6device4V1_029BsCameraDevicePreviewCallback14interfaceChainENSt3__18functionIFvRKNS0_8hidl_vecINS0_11hidl_stringEEEEEE"
    },
    {
     "mangled_component_name":"_ZN7android8hardware6camera6device4V1_029BsCameraDevicePreviewCallback5debugERKNS0_11hidl_handleERKNS0_8hidl_vecINS0_11hidl_stringEEE"
    },
    {
     "mangled_component_name":"_ZN7android8hardware6camera6device4V1_029BsCameraDevicePreviewCallback19interfaceDescriptorENSt3__18functionIFvRKNS0_11hidl_stringEEEE"
    },
    {
     "mangled_component_name":"_ZN7android8hardware6camera6device4V1_029BsCameraDevicePreviewCallback12getHashChainENSt3__18functionIFvRKNS0_8hidl_vecINS0_10hidl_arrayIhLj32EJEEEEEEEE"
    },
    {
     "mangled_component_name":"_ZN7android8hardware6camera6device4V1_029BsCameraDevicePreviewCallback21setHALInstrumentationEv"
    },
    {
     "mangled_component_name":"_ZN7android8hardware6camera6device4V1_029BsCameraDevicePreviewCallback11linkToDeathERKNS_2spINS0_20hidl_death_recipientEEEy"
    },
    {
     "mangled_component_name":"_ZN7android8hardware6camera6device4V1_029BsCameraDevicePreviewCallback4pingEv"
    },
    {
     "mangled_component_name":"_ZN7android8hardware6camera6device4V1_029BsCameraDevicePreviewCallback12getDebugInfoENSt3__18functionIFvRKNS_4hidl4base4V1_09DebugInfoEEEE"
    },
    {
     "mangled_component_name":"_ZN7android8hardware6camera6device4V1_029BsCameraDevicePreviewCallback21notifySyspropsChangedEv"
    },
    {
     "mangled_component_name":"_ZN7android8hardware6camera6device4V1_029BsCameraDevicePreviewCallback13unlinkToDeathERKNS_2spINS0_20hidl_death_recipientEEE"
    },
    {
     "kind":"complete_dtor_pointer",
     "mangled_component_name":"_ZN7android8hardware6camera6device4V1_029BsCameraDevicePreviewCallbackD1Ev"
    },
    {
     "kind":"deleting_dtor_pointer",
     "mangled_component_name":"_ZN7android8hardware6camera6device4V1_029BsCameraDevicePreviewCallbackD0Ev"
    },
    {
     "mangled_component_name":"_ZN7android8hardware6camera6device4V1_029BsCameraDevicePreviewCallback13dequeueBufferENSt3__18functionIFvNS1_6common4V1_06StatusEyRKNS0_11hidl_handleEjEEE"
    },
    {
     "mangled_component_name":"_ZN7android8hardware6camera6device4V1_029BsCameraDevicePreviewCallback13enqueueBufferEy"
    },
    {
     "mangled_component_name":"_ZN7android8hardware6camera6device4V1_029BsCameraDevicePreviewCallback12cancelBufferEy"
    },
    {
     "mangled_component_name":"_ZN7android8hardware6camera6device4V1_029BsCameraDevicePreviewCallback14setBufferCountEj"
    },
    {
     "mangled_component_name":"_ZN7android8hardware6camera6device4V1_029BsCameraDevicePreviewCallback18setBuffersGeometryEjjNS0_8graphics6common4V1_011PixelFormatE"
    },
    {
     "mangled_component_name":"_ZN7android8hardware6camera6device4V1_029BsCameraDevicePreviewCallback7setCropEiiii"
    },
    {
     "mangled_component_name":"_ZN7android8hardware6camera6device4V1_029BsCameraDevicePreviewCallback8setUsageENS0_8graphics6common4V1_011BufferUsageE"
    },
    {
     "mangled_component_name":"_ZN7android8hardware6camera6device4V1_029BsCameraDevicePreviewCallback15setSwapIntervalEi"
    },
    {
     "mangled_component_name":"_ZN7android8hardware6camera6device4V1_029BsCameraDevicePreviewCallback27getMinUndequeuedBufferCountENSt3__18functionIFvNS1_6common4V1_06StatusEjEEE"
    },
    {
     "mangled_component_name":"_ZN7android8hardware6camera6device4V1_029BsCameraDevicePreviewCallback12setTimestampEx"
    },
    {
     "kind":"offset_to_top",
     "component_value":-4
    },
    {
     "kind":"rtti",
     "mangled_component_name":"_ZTIN7android8hardware6camera6device4V1_029BsCameraDevicePreviewCallbackE"
    },
    {
     "kind":"complete_dtor_pointer",
     "mangled_component_name":"_ZThn4_N7android8hardware6camera6device4V1_029BsCameraDevicePreviewCallbackD1Ev"
    },
    {
     "kind":"deleting_dtor_pointer",
     "mangled_component_name":"_ZThn4_N7android8hardware6camera6device4V1_029BsCameraDevicePreviewCallbackD0Ev"
    },
    {
     "kind":"vcall_offset"
    },
    {
     "kind":"vcall_offset"
    },
    {
     "kind":"vcall_offset"
    },
    {
     "kind":"vcall_offset"
    },
    {
     "kind":"vcall_offset",
     "component_value":-60
    },
    {
     "kind":"offset_to_top",
     "component_value":-60
    },
    {
     "kind":"rtti",
     "mangled_component_name":"_ZTIN7android8hardware6camera6device4V1_029BsCameraDevicePreviewCallbackE"
    },
    {
     "kind":"complete_dtor_pointer",
     "mangled_component_name":"_ZTv0_n12_N7android8hardware6camera6device4V1_029BsCameraDevicePreviewCallbackD1Ev"
    },
    {
     "kind":"deleting_dtor_pointer",
     "mangled_component_name":"_ZTv0_n12_N7android8hardware6camera6device4V1_029BsCameraDevicePreviewCallbackD0Ev"
    },
    {
     "mangled_component_name":"_ZN7android7RefBase10onFirstRefEv"
    },
    {
     "mangled_component_name":"_ZN7android7RefBase15onLastStrongRefEPKv"
    },
    {
     "mangled_component_name":"_ZN7android7RefBase20onIncStrongAttemptedEjPKv"
    },
    {
     "mangled_component_name":"_ZN7android7RefBase13onLastWeakRefEPKv"
    }
   ],
   "unique_id":"_ZTSN7android8hardware6camera6device4V1_029BsCameraDevicePreviewCallbackE"
  },
  {
   "vtable_components":[
    {
     "kind":"vbase_offset",
     "component_value":84
    },
    {
     "kind":"offset_to_top"
    },
    {
     "kind":"rtti",
     "mangled_component_name":"_ZTIN7android8hardware6camera6device4V1_024BpHwCameraDeviceCallbackE"
    },
    {
     "mangled_component_name":"_ZNK7android8hardware6camera6device4V1_024BpHwCameraDeviceCallback8isRemoteEv"
    },
    {
     "mangled_component_name":"_ZN7android8hardware6camera6device4V1_024BpHwCameraDeviceCallback14interfaceChainENSt3__18functionIFvRKNS0_8hidl_vecINS0_11hidl_stringEEEEEE"
    },
    {
     "mangled_component_name":"_ZN7android8hardware6camera6device4V1_024BpHwCameraDeviceCallback5debugERKNS0_11hidl_handleERKNS0_8hidl_vecINS0_11hidl_stringEEE"
    },
    {
     "mangled_component_name":"_ZN7android8hardware6camera6device4V1_024BpHwCameraDeviceCallback19interfaceDescriptorENSt3__18functionIFvRKNS0_11hidl_stringEEEE"
    },
    {
     "mangled_component_name":"_ZN7android8hardware6camera6device4V1_024BpHwCameraDeviceCallback12getHashChainENSt3__18functionIFvRKNS0_8hidl_vecINS0_10hidl_arrayIhLj32EJEEEEEEEE"
    },
    {
     "mangled_component_name":"_ZN7android8hardware6camera6device4V1_024BpHwCameraDeviceCallback21setHALInstrumentationEv"
    },
    {
     "mangled_component_name":"_ZN7android8hardware6camera6device4V1_024BpHwCameraDeviceCallback11linkToDeathERKNS_2spINS0_20hidl_death_recipientEEEy"
    },
    {
     "mangled_component_name":"_ZN7android8hardware6camera6device4V1_024BpHwCameraDeviceCallback4pingEv"
    },
    {
     "mangled_component_name":"_ZN7android8hardware6camera6device4V1_024BpHwCameraDeviceCallback12getDebugInfoENSt3__18functionIFvRKNS_4hidl4base4V1_09DebugInfoEEEE"
    },
    {
     "mangled_component_name":"_ZN7android8hardware6camera6device4V1_024BpHwCameraDeviceCallback21notifySyspropsChangedEv"
    },
    {
     "mangled_component_name":"_ZN7android8hardware6camera6device4V1_024BpHwCameraDeviceCallback13unlinkToDeathERKNS_2spINS0_20hidl_death_recipientEEE"
    },
    {
     "kind":"complete_dtor_pointer",
     "mangled_component_name":"_ZN7android8hardware6camera6device4V1_024BpHwCameraDeviceCallbackD1Ev"
    },
    {
     "kind":"deleting_dtor_pointer",
     "mangled_component_name":"_ZN7android8hardware6camera6device4V1_024BpHwCameraDeviceCallbackD0Ev"
    },
    {
     "mangled_component_name":"_ZN7android8hardware6camera6device4V1_024BpHwCameraDeviceCallback14notifyCallbackENS3_17NotifyCallbackMsgEii"
    },
    {
     "mangled_component_name":"_ZN7android8hardware6camera6device4V1_024BpHwCameraDeviceCallback14registerMemoryERKNS0_11hidl_handleEjj"
    },
    {
     "mangled_component_name":"_ZN7android8hardware6camera6device4V1_024BpHwCameraDeviceCallback16unregisterMemoryEj"
    },
    {
     "mangled_component_name":"_ZN7android8hardware6camera6device4V1_024BpHwCameraDeviceCallback12dataCallbackENS3_15DataCallbackMsgEjjRKNS3_19CameraFrameMetadataE"
    },
    {
     "mangled_component_name":"_ZN7android8hardware6camera6device4V1_024BpHwCameraDeviceCallback21dataCallbackTimestampENS3_15DataCallbackMsgEjjx"
    },
    {
     "mangled_component_name":"_ZN7android8hardware6camera6device4V1_024BpHwCameraDeviceCallback23handleCallbackTimestampENS3_15DataCallbackMsgERKNS0_11hidl_handleEjjx"
    },
    {
     "mangled_component_name":"_ZN7android8hardware6camera6device4V1_024BpHwCameraDeviceCallback28handleCallbackTimestampBatchENS3_15DataCallbackMsgERKNS0_8hidl_vecINS3_22HandleTimestampMessageEEE"
    },
    {
     "mangled_component_name":"_ZN7android8hardware11BpInterfaceINS0_6camera6device4V1_021ICameraDeviceCallbackEE10onAsBinderEv"
    },
    {
     "kind":"vbase_offset",
     "component_value":80
    },
    {
     "kind":"offset_to_top",
     "component_value":-4
    },
    {
     "kind":"rtti",
     "mangled_component_name":"_ZTIN7android8hardware6camera6device4V1_024BpHwCameraDeviceCallbackE"
    },
    {
     "kind":"complete_dtor_pointer",
     "mangled_component_name":"_ZThn4_N7android8hardware6camera6device4V1_024BpHwCameraDeviceCallbackD1Ev"
    },
    {
     "kind":"deleting_dtor_pointer",
     "mangled_component_name":"_ZThn4_N7android8hardware6camera6device4V1_024BpHwCameraDeviceCallbackD0Ev"
    },
    {
     "mangled_component_name":"_ZThn4_N7android8hardware11BpInterfaceINS0_6camera6device4V1_021ICameraDeviceCallbackEE10onAsBinderEv"
    },
    {
     "kind":"vbase_offset",
     "component_value":76
    },
    {
     "kind":"offset_to_top",
     "component_value":-8
    },
    {
     "kind":"rtti",
     "mangled_component_name":"_ZTIN7android8hardware6camera6device4V1_024BpHwCameraDeviceCallbackE"
    },
    {
     "kind":"complete_dtor_pointer",
     "mangled_component_name":"_ZThn8_N7android8hardware6camera6device4V1_024BpHwCameraDeviceCallbackD1Ev"
    },
    {
     "kind":"deleting_dtor_pointer",
     "mangled_component_name":"_ZThn8_N7android8hardware6camera6device4V1_024BpHwCameraDeviceCallbackD0Ev"
    },
    {
     "mangled_component_name":"_ZN7android8hardware11BpHwRefBase10onFirstRefEv"
    },
    {
     "mangled_component_name":"_ZN7android8hardware11BpHwRefBase15onLastStrongRefEPKv"
    },
    {
     "mangled_component_name":"_ZN7android8hardware11BpHwRefBase20onIncStrongAttemptedEjPKv"
    },
    {
     "kind":"offset_to_top",
     "component_value":-24
    },
    {
     "kind":"rtti",
     "mangled_component_name":"_ZTIN7android8hardware6camera6device4V1_024BpHwCameraDeviceCallbackE"
    },
    {
     "kind":"complete_dtor_pointer",
     "mangled_component_name":"_ZThn24_N7android8hardware6camera6device4V1_024BpHwCameraDeviceCallbackD1Ev"
    },
    {
     "kind":"deleting_dtor_pointer",
     "mangled_component_name":"_ZThn24_N7android8hardware6camera6device4V1_024BpHwCameraDeviceCallbackD0Ev"
    },
    {
     "kind":"vcall_offset"
    },
    {
     "kind":"vcall_offset",
     "component_value":-76
    },
    {
     "kind":"vcall_offset",
     "component_value":-76
    },
    {
     "kind":"vcall_offset",
     "component_value":-76
    },
    {
     "kind":"vcall_offset",
     "component_value":-84
    },
    {
     "kind":"offset_to_top",
     "component_value":-84
    },
    {
     "kind":"rtti",
     "mangled_component_name":"_ZTIN7android8hardware6camera6device4V1_024BpHwCameraDeviceCallbackE"
    },
    {
     "kind":"complete_dtor_pointer",
     "mangled_component_name":"_ZTv0_n12_N7android8hardware6camera6device4V1_024BpHwCameraDeviceCallbackD1Ev"
    },
    {
     "kind":"deleting_dtor_pointer",
     "mangled_component_name":"_ZTv0_n12_N7android8hardware6camera6device4V1_024BpHwCameraDeviceCallbackD0Ev"
    },
    {
     "mangled_component_name":"_ZTv0_n16_N7android8hardware11BpHwRefBase10onFirstRefEv"
    },
    {
     "mangled_component_name":"_ZTv0_n20_N7android8hardware11BpHwRefBase15onLastStrongRefEPKv"
    },
    {
     "mangled_component_name":"_ZTv0_n24_N7android8hardware11BpHwRefBase20onIncStrongAttemptedEjPKv"
    },
    {
     "mangled_component_name":"_ZN7android7RefBase13onLastWeakRefEPKv"
    }
   ],
   "unique_id":"_ZTSN7android8hardware6camera6device4V1_024BpHwCameraDeviceCallbackE"
  },
  {
   "vtable_components":[
    {
     "kind":"vbase_offset",
     "component_value":84
    },
    {
     "kind":"offset_to_top"
    },
    {
     "kind":"rtti",
     "mangled_component_name":"_ZTIN7android8hardware6camera6device4V1_031BpHwCameraDevicePreviewCallbackE"
    },
    {
     "mangled_component_name":"_ZNK7android8hardware6camera6device4V1_031BpHwCameraDevicePreviewCallback8isRemoteEv"
    },
    {
     "mangled_component_name":"_ZN7android8hardware6camera6device4V1_031BpHwCameraDevicePreviewCallback14interfaceChainENSt3__18functionIFvRKNS0_8hidl_vecINS0_11hidl_stringEEEEEE"
    },
    {
     "mangled_component_name":"_ZN7android8hardware6camera6device4V1_031BpHwCameraDevicePreviewCallback5debugERKNS0_11hidl_handleERKNS0_8hidl_vecINS0_11hidl_stringEEE"
    },
    {
     "mangled_component_name":"_ZN7android8hardware6camera6device4V1_031BpHwCameraDevicePreviewCallback19interfaceDescriptorENSt3__18functionIFvRKNS0_11hidl_stringEEEE"
    },
    {
     "mangled_component_name":"_ZN7android8hardware6camera6device4V1_031BpHwCameraDevicePreviewCallback12getHashChainENSt3__18functionIFvRKNS0_8hidl_vecINS0_10hidl_arrayIhLj32EJEEEEEEEE"
    },
    {
     "mangled_component_name":"_ZN7android8hardware6camera6device4V1_031BpHwCameraDevicePreviewCallback21setHALInstrumentationEv"
    },
    {
     "mangled_component_name":"_ZN7android8hardware6camera6device4V1_031BpHwCameraDevicePreviewCallback11linkToDeathERKNS_2spINS0_20hidl_death_recipientEEEy"
    },
    {
     "mangled_component_name":"_ZN7android8hardware6camera6device4V1_031BpHwCameraDevicePreviewCallback4pingEv"
    },
    {
     "mangled_component_name":"_ZN7android8hardware6camera6device4V1_031BpHwCameraDevicePreviewCallback12getDebugInfoENSt3__18functionIFvRKNS_4hidl4base4V1_09DebugInfoEEEE"
    },
    {
     "mangled_component_name":"_ZN7android8hardware6camera6device4V1_031BpHwCameraDevicePreviewCallback21notifySyspropsChangedEv"
    },
    {
     "mangled_component_name":"_ZN7android8hardware6camera6device4V1_031BpHwCameraDevicePreviewCallback13unlinkToDeathERKNS_2spINS0_20hidl_death_recipientEEE"
    },
    {
     "kind":"complete_dtor_pointer",
     "mangled_component_name":"_ZN7android8hardware6camera6device4V1_031BpHwCameraDevicePreviewCallbackD1Ev"
    },
    {
     "kind":"deleting_dtor_pointer",
     "mangled_component_name":"_ZN7android8hardware6camera6device4V1_031BpHwCameraDevicePreviewCallbackD0Ev"
    },
    {
     "mangled_component_name":"_ZN7android8hardware6camera6device4V1_031BpHwCameraDevicePreviewCallback13dequeueBufferENSt3__18functionIFvNS1_6common4V1_06StatusEyRKNS0_11hidl_handleEjEEE"
    },
    {
     "mangled_component_name":"_ZN7android8hardware6camera6device4V1_031BpHwCameraDevicePreviewCallback13enqueueBufferEy"
    },
    {
     "mangled_component_name":"_ZN7android8hardware6camera6device4V1_031BpHwCameraDevicePreviewCallback12cancelBufferEy"
    },
    {
     "mangled_component_name":"_ZN7android8hardware6camera6device4V1_031BpHwCameraDevicePreviewCallback14setBufferCountEj"
    },
    {
     "mangled_component_name":"_ZN7android8hardware6camera6device4V1_031BpHwCameraDevicePreviewCallback18setBuffersGeometryEjjNS0_8graphics6common4V1_011PixelFormatE"
    },
    {
     "mangled_component_name":"_ZN7android8hardware6camera6device4V1_031BpHwCameraDevicePreviewCallback7setCropEiiii"
    },
    {
     "mangled_component_name":"_ZN7android8hardware6camera6device4V1_031BpHwCameraDevicePreviewCallback8setUsageENS0_8graphics6common4V1_011BufferUsageE"
    },
    {
     "mangled_component_name":"_ZN7android8hardware6camera6device4V1_031BpHwCameraDevicePreviewCallback15setSwapIntervalEi"
    },
    {
     "mangled_component_name":"_ZN7android8hardware6camera6device4V1_031BpHwCameraDevicePreviewCallback27getMinUndequeuedBufferCountENSt3__18functionIFvNS1_6common4V1_06StatusEjEEE"
    },
    {
     "mangled_component_name":"_ZN7android8hardware6camera6device4V1_031BpHwCameraDevicePreviewCallback12setTimestampEx"
    },
    {
     "mangled_component_name":"_ZN7android8hardware11BpInterfaceINS0_6camera6device4V1_028ICameraDevicePreviewCallbackEE10onAsBinderEv"
    },
    {
     "kind":"vbase_offset",
     "component_value":80
    },
    {
     "kind":"offset_to_top",
     "component_value":-4
    },
    {
     "kind":"rtti",
     "mangled_component_name":"_ZTIN7android8hardware6camera6device4V1_031BpHwCameraDevicePreviewCallbackE"
    },
    {
     "kind":"complete_dtor_pointer",
     "mangled_component_name":"_ZThn4_N7android8hardware6camera6device4V1_031BpHwCameraDevicePreviewCallbackD1Ev"
    },
    {
     "kind":"deleting_dtor_pointer",
     "mangled_component_name":"_ZThn4_N7android8hardware6camera6device4V1_031BpHwCameraDevicePreviewCallbackD0Ev"
    },
    {
     "mangled_component_name":"_ZThn4_N7android8hardware11BpInterfaceINS0_6camera6device4V1_028ICameraDevicePreviewCallbackEE10onAsBinderEv"
    },
    {
     "kind":"vbase_offset",
     "component_value":76
    },
    {
     "kind":"offset_to_top",
     "component_value":-8
    },
    {
     "kind":"rtti",
     "mangled_component_name":"_ZTIN7android8hardware6camera6device4V1_031BpHwCameraDevicePreviewCallbackE"
    },
    {
     "kind":"complete_dtor_pointer",
     "mangled_component_name":"_ZThn8_N7android8hardware6camera6device4V1_031BpHwCameraDevicePreviewCallbackD1Ev"
    },
    {
     "kind":"deleting_dtor_pointer",
     "mangled_component_name":"_ZThn8_N7android8hardware6camera6device4V1_031BpHwCameraDevicePreviewCallbackD0Ev"
    },
    {
     "mangled_component_name":"_ZN7android8hardware11BpHwRefBase10onFirstRefEv"
    },
    {
     "mangled_component_name":"_ZN7android8hardware11BpHwRefBase15onLastStrongRefEPKv"
    },
    {
     "mangled_component_name":"_ZN7android8hardware11BpHwRefBase20onIncStrongAttemptedEjPKv"
    },
    {
     "kind":"offset_to_top",
     "component_value":-24
    },
    {
     "kind":"rtti",
     "mangled_component_name":"_ZTIN7android8hardware6camera6device4V1_031BpHwCameraDevicePreviewCallbackE"
    },
    {
     "kind":"complete_dtor_pointer",
     "mangled_component_name":"_ZThn24_N7android8hardware6camera6device4V1_031BpHwCameraDevicePreviewCallbackD1Ev"
    },
    {
     "kind":"deleting_dtor_pointer",
     "mangled_component_name":"_ZThn24_N7android8hardware6camera6device4V1_031BpHwCameraDevicePreviewCallbackD0Ev"
    },
    {
     "kind":"vcall_offset"
    },
    {
     "kind":"vcall_offset",
     "component_value":-76
    },
    {
     "kind":"vcall_offset",
     "component_value":-76
    },
    {
     "kind":"vcall_offset",
     "component_value":-76
    },
    {
     "kind":"vcall_offset",
     "component_value":-84
    },
    {
     "kind":"offset_to_top",
     "component_value":-84
    },
    {
     "kind":"rtti",
     "mangled_component_name":"_ZTIN7android8hardware6camera6device4V1_031BpHwCameraDevicePreviewCallbackE"
    },
    {
     "kind":"complete_dtor_pointer",
     "mangled_component_name":"_ZTv0_n12_N7android8hardware6camera6device4V1_031BpHwCameraDevicePreviewCallbackD1Ev"
    },
    {
     "kind":"deleting_dtor_pointer",
     "mangled_component_name":"_ZTv0_n12_N7android8hardware6camera6device4V1_031BpHwCameraDevicePreviewCallbackD0Ev"
    },
    {
     "mangled_component_name":"_ZTv0_n16_N7android8hardware11BpHwRefBase10onFirstRefEv"
    },
    {
     "mangled_component_name":"_ZTv0_n20_N7android8hardware11BpHwRefBase15onLastStrongRefEPKv"
    },
    {
     "mangled_component_name":"_ZTv0_n24_N7android8hardware11BpHwRefBase20onIncStrongAttemptedEjPKv"
    },
    {
     "mangled_component_name":"_ZN7android7RefBase13onLastWeakRefEPKv"
    }
   ],
   "unique_id":"_ZTSN7android8hardware6camera6device4V1_031BpHwCameraDevicePreviewCallbackE"
  },
  {
   "vtable_components":[
    {
     "kind":"vbase_offset",
     "component_value":4
    },
    {
     "kind":"offset_to_top"
    },
    {
     "kind":"rtti",
     "mangled_component_name":"_ZTIN7android8hardware6camera6device4V1_021ICameraDeviceCallbackE"
    },
    {
     "mangled_component_name":"_ZNK7android8hardware6camera6device4V1_021ICameraDeviceCallback8isRemoteEv"
    },
    {
     "mangled_component_name":"_ZN7android8hardware6camera6device4V1_021ICameraDeviceCallback14interfaceChainENSt3__18functionIFvRKNS0_8hidl_vecINS0_11hidl_stringEEEEEE"
    },
    {
     "mangled_component_name":"_ZN7android8hardware6camera6device4V1_021ICameraDeviceCallback5debugERKNS0_11hidl_handleERKNS0_8hidl_vecINS0_11hidl_stringEEE"
    },
    {
     "mangled_component_name":"_ZN7android8hardware6camera6device4V1_021ICameraDeviceCallback19interfaceDescriptorENSt3__18functionIFvRKNS0_11hidl_stringEEEE"
    },
    {
     "mangled_component_name":"_ZN7android8hardware6camera6device4V1_021ICameraDeviceCallback12getHashChainENSt3__18functionIFvRKNS0_8hidl_vecINS0_10hidl_arrayIhLj32EJEEEEEEEE"
    },
    {
     "mangled_component_name":"_ZN7android8hardware6camera6device4V1_021ICameraDeviceCallback21setHALInstrumentationEv"
    },
    {
     "mangled_component_name":"_ZN7android8hardware6camera6device4V1_021ICameraDeviceCallback11linkToDeathERKNS_2spINS0_20hidl_death_recipientEEEy"
    },
    {
     "mangled_component_name":"_ZN7android8hardware6camera6device4V1_021ICameraDeviceCallback4pingEv"
    },
    {
     "mangled_component_name":"_ZN7android8hardware6camera6device4V1_021ICameraDeviceCallback12getDebugInfoENSt3__18functionIFvRKNS_4hidl4base4V1_09DebugInfoEEEE"
    },
    {
     "mangled_component_name":"_ZN7android8hardware6camera6device4V1_021ICameraDeviceCallback21notifySyspropsChangedEv"
    },
    {
     "mangled_component_name":"_ZN7android8hardware6camera6device4V1_021ICameraDeviceCallback13unlinkToDeathERKNS_2spINS0_20hidl_death_recipientEEE"
    },
    {
     "kind":"complete_dtor_pointer",
     "mangled_component_name":"_ZN7android8hardware6camera6device4V1_021ICameraDeviceCallbackD1Ev"
    },
    {
     "kind":"deleting_dtor_pointer",
     "mangled_component_name":"_ZN7android8hardware6camera6device4V1_021ICameraDeviceCallbackD0Ev"
    },
    {
     "is_pure":true,
     "mangled_component_name":"_ZN7android8hardware6camera6device4V1_021ICameraDeviceCallback14notifyCallbackENS3_17NotifyCallbackMsgEii"
    },
    {
     "is_pure":true,
     "mangled_component_name":"_ZN7android8hardware6camera6device4V1_021ICameraDeviceCallback14registerMemoryERKNS0_11hidl_handleEjj"
    },
    {
     "is_pure":true,
     "mangled_component_name":"_ZN7android8hardware6camera6device4V1_021ICameraDeviceCallback16unregisterMemoryEj"
    },
    {
     "is_pure":true,
     "mangled_component_name":"_ZN7android8hardware6camera6device4V1_021ICameraDeviceCallback12dataCallbackENS3_15DataCallbackMsgEjjRKNS3_19CameraFrameMetadataE"
    },
    {
     "is_pure":true,
     "mangled_component_name":"_ZN7android8hardware6camera6device4V1_021ICameraDeviceCallback21dataCallbackTimestampENS3_15DataCallbackMsgEjjx"
    },
    {
     "is_pure":true,
     "mangled_component_name":"_ZN7android8hardware6camera6device4V1_021ICameraDeviceCallback23handleCallbackTimestampENS3_15DataCallbackMsgERKNS0_11hidl_handleEjjx"
    },
    {
     "is_pure":true,
     "mangled_component_name":"_ZN7android8hardware6camera6device4V1_021ICameraDeviceCallback28handleCallbackTimestampBatchENS3_15DataCallbackMsgERKNS0_8hidl_vecINS3_22HandleTimestampMessageEEE"
    },
    {
     "kind":"vcall_offset"
    },
    {
     "kind":"vcall_offset"
    },
    {
     "kind":"vcall_offset"
    },
    {
     "kind":"vcall_offset"
    },
    {
     "kind":"vcall_offset",
     "component_value":-4
    },
    {
     "kind":"offset_to_top",
     "component_value":-4
    },
    {
     "kind":"rtti",
     "mangled_component_name":"_ZTIN7android8hardware6camera6device4V1_021ICameraDeviceCallbackE"
    },
    {
     "kind":"complete_dtor_pointer",
     "mangled_component_name":"_ZTv0_n12_N7android8hardware6camera6device4V1_021ICameraDeviceCallbackD1Ev"
    },
    {
     "kind":"deleting_dtor_pointer",
     "mangled_component_name":"_ZTv0_n12_N7android8hardware6camera6device4V1_021ICameraDeviceCallbackD0Ev"
    },
    {
     "mangled_component_name":"_ZN7android7RefBase10onFirstRefEv"
    },
    {
     "mangled_component_name":"_ZN7android7RefBase15onLastStrongRefEPKv"
    },
    {
     "mangled_component_name":"_ZN7android7RefBase20onIncStrongAttemptedEjPKv"
    },
    {
     "mangled_component_name":"_ZN7android7RefBase13onLastWeakRefEPKv"
    }
   ],
   "unique_id":"_ZTSN7android8hardware6camera6device4V1_021ICameraDeviceCallbackE"
  },
  {
   "vtable_components":[
    {
     "kind":"vbase_offset",
     "component_value":4
    },
    {
     "kind":"offset_to_top"
    },
    {
     "kind":"rtti",
     "mangled_component_name":"_ZTIN7android8hardware6camera6device4V1_028ICameraDevicePreviewCallbackE"
    },
    {
     "mangled_component_name":"_ZNK7android8hardware6camera6device4V1_028ICameraDevicePreviewCallback8isRemoteEv"
    },
    {
     "mangled_component_name":"_ZN7android8hardware6camera6device4V1_028ICameraDevicePreviewCallback14interfaceChainENSt3__18functionIFvRKNS0_8hidl_vecINS0_11hidl_stringEEEEEE"
    },
    {
     "mangled_component_name":"_ZN7android8hardware6camera6device4V1_028ICameraDevicePreviewCallback5debugERKNS0_11hidl_handleERKNS0_8hidl_vecINS0_11hidl_stringEEE"
    },
    {
     "mangled_component_name":"_ZN7android8hardware6camera6device4V1_028ICameraDevicePreviewCallback19interfaceDescriptorENSt3__18functionIFvRKNS0_11hidl_stringEEEE"
    },
    {
     "mangled_component_name":"_ZN7android8hardware6camera6device4V1_028ICameraDevicePreviewCallback12getHashChainENSt3__18functionIFvRKNS0_8hidl_vecINS0_10hidl_arrayIhLj32EJEEEEEEEE"
    },
    {
     "mangled_component_name":"_ZN7android8hardware6camera6device4V1_028ICameraDevicePreviewCallback21setHALInstrumentationEv"
    },
    {
     "mangled_component_name":"_ZN7android8hardware6camera6device4V1_028ICameraDevicePreviewCallback11linkToDeathERKNS_2spINS0_20hidl_death_recipientEEEy"
    },
    {
     "mangled_component_name":"_ZN7android8hardware6camera6device4V1_028ICameraDevicePreviewCallback4pingEv"
    },
    {
     "mangled_component_name":"_ZN7android8hardware6camera6device4V1_028ICameraDevicePreviewCallback12getDebugInfoENSt3__18functionIFvRKNS_4hidl4base4V1_09DebugInfoEEEE"
    },
    {
     "mangled_component_name":"_ZN7android8hardware6camera6device4V1_028ICameraDevicePreviewCallback21notifySyspropsChangedEv"
    },
    {
     "mangled_component_name":"_ZN7android8hardware6camera6device4V1_028ICameraDevicePreviewCallback13unlinkToDeathERKNS_2spINS0_20hidl_death_recipientEEE"
    },
    {
     "kind":"complete_dtor_pointer",
     "mangled_component_name":"_ZN7android8hardware6camera6device4V1_028ICameraDevicePreviewCallbackD1Ev"
    },
    {
     "kind":"deleting_dtor_pointer",
     "mangled_component_name":"_ZN7android8hardware6camera6device4V1_028ICameraDevicePreviewCallbackD0Ev"
    },
    {
     "is_pure":true,
     "mangled_component_name":"_ZN7android8hardware6camera6device4V1_028ICameraDevicePreviewCallback13dequeueBufferENSt3__18functionIFvNS1_6common4V1_06StatusEyRKNS0_11hidl_handleEjEEE"
    },
    {
     "is_pure":true,
     "mangled_component_name":"_ZN7android8hardware6camera6device4V1_028ICameraDevicePreviewCallback13enqueueBufferEy"
    },
    {
     "is_pure":true,
     "mangled_component_name":"_ZN7android8hardware6camera6device4V1_028ICameraDevicePreviewCallback12cancelBufferEy"
    },
    {
     "is_pure":true,
     "mangled_component_name":"_ZN7android8hardware6camera6device4V1_028ICameraDevicePreviewCallback14setBufferCountEj"
    },
    {
     "is_pure":true,
     "mangled_component_name":"_ZN7android8hardware6camera6device4V1_028ICameraDevicePreviewCallback18setBuffersGeometryEjjNS0_8graphics6common4V1_011PixelFormatE"
    },
    {
     "is_pure":true,
     "mangled_component_name":"_ZN7android8hardware6camera6device4V1_028ICameraDevicePreviewCallback7setCropEiiii"
    },
    {
     "is_pure":true,
     "mangled_component_name":"_ZN7android8hardware6camera6device4V1_028ICameraDevicePreviewCallback8setUsageENS0_8graphics6common4V1_011BufferUsageE"
    },
    {
     "is_pure":true,
     "mangled_component_name":"_ZN7android8hardware6camera6device4V1_028ICameraDevicePreviewCallback15setSwapIntervalEi"
    },
    {
     "is_pure":true,
     "mangled_component_name":"_ZN7android8hardware6camera6device4V1_028ICameraDevicePreviewCallback27getMinUndequeuedBufferCountENSt3__18functionIFvNS1_6common4V1_06StatusEjEEE"
    },
    {
     "is_pure":true,
     "mangled_component_name":"_ZN7android8hardware6camera6device4V1_028ICameraDevicePreviewCallback12setTimestampEx"
    },
    {
     "kind":"vcall_offset"
    },
    {
     "kind":"vcall_offset"
    },
    {
     "kind":"vcall_offset"
    },
    {
     "kind":"vcall_offset"
    },
    {
     "kind":"vcall_offset",
     "component_value":-4
    },
    {
     "kind":"offset_to_top",
     "component_value":-4
    },
    {
     "kind":"rtti",
     "mangled_component_name":"_ZTIN7android8hardware6camera6device4V1_028ICameraDevicePreviewCallbackE"
    },
    {
     "kind":"complete_dtor_pointer",
     "mangled_component_name":"_ZTv0_n12_N7android8hardware6camera6device4V1_028ICameraDevicePreviewCallbackD1Ev"
    },
    {
     "kind":"deleting_dtor_pointer",
     "mangled_component_name":"_ZTv0_n12_N7android8hardware6camera6device4V1_028ICameraDevicePreviewCallbackD0Ev"
    },
    {
     "mangled_component_name":"_ZN7android7RefBase10onFirstRefEv"
    },
    {
     "mangled_component_name":"_ZN7android7RefBase15onLastStrongRefEPKv"
    },
    {
     "mangled_component_name":"_ZN7android7RefBase20onIncStrongAttemptedEjPKv"
    },
    {
     "mangled_component_name":"_ZN7android7RefBase13onLastWeakRefEPKv"
    }
   ],
   "unique_id":"_ZTSN7android8hardware6camera6device4V1_028ICameraDevicePreviewCallbackE"
  },
  {
   "vtable_components":[
    {
     "kind":"vbase_offset",
     "component_value":84
    },
    {
     "kind":"offset_to_top"
    },
    {
     "kind":"rtti",
     "mangled_component_name":"_ZTIN7android8hardware6camera6device4V1_016BpHwCameraDeviceE"
    },
    {
     "mangled_component_name":"_ZNK7android8hardware6camera6device4V1_016BpHwCameraDevice8isRemoteEv"
    },
    {
     "mangled_component_name":"_ZN7android8hardware6camera6device4V1_016BpHwCameraDevice14interfaceChainENSt3__18functionIFvRKNS0_8hidl_vecINS0_11hidl_stringEEEEEE"
    },
    {
     "mangled_component_name":"_ZN7android8hardware6camera6device4V1_016BpHwCameraDevice5debugERKNS0_11hidl_handleERKNS0_8hidl_vecINS0_11hidl_stringEEE"
    },
    {
     "mangled_component_name":"_ZN7android8hardware6camera6device4V1_016BpHwCameraDevice19interfaceDescriptorENSt3__18functionIFvRKNS0_11hidl_stringEEEE"
    },
    {
     "mangled_component_name":"_ZN7android8hardware6camera6device4V1_016BpHwCameraDevice12getHashChainENSt3__18functionIFvRKNS0_8hidl_vecINS0_10hidl_arrayIhLj32EJEEEEEEEE"
    },
    {
     "mangled_component_name":"_ZN7android8hardware6camera6device4V1_016BpHwCameraDevice21setHALInstrumentationEv"
    },
    {
     "mangled_component_name":"_ZN7android8hardware6camera6device4V1_016BpHwCameraDevice11linkToDeathERKNS_2spINS0_20hidl_death_recipientEEEy"
    },
    {
     "mangled_component_name":"_ZN7android8hardware6camera6device4V1_016BpHwCameraDevice4pingEv"
    },
    {
     "mangled_component_name":"_ZN7android8hardware6camera6device4V1_016BpHwCameraDevice12getDebugInfoENSt3__18functionIFvRKNS_4hidl4base4V1_09DebugInfoEEEE"
    },
    {
     "mangled_component_name":"_ZN7android8hardware6camera6device4V1_016BpHwCameraDevice21notifySyspropsChangedEv"
    },
    {
     "mangled_component_name":"_ZN7android8hardware6camera6device4V1_016BpHwCameraDevice13unlinkToDeathERKNS_2spINS0_20hidl_death_recipientEEE"
    },
    {
     "kind":"complete_dtor_pointer",
     "mangled_component_name":"_ZN7android8hardware6camera6device4V1_016BpHwCameraDeviceD1Ev"
    },
    {
     "kind":"deleting_dtor_pointer",
     "mangled_component_name":"_ZN7android8hardware6camera6device4V1_016BpHwCameraDeviceD0Ev"
    },
    {
     "mangled_component_name":"_ZN7android8hardware6camera6device4V1_016BpHwCameraDevice15getResourceCostENSt3__18functionIFvNS1_6common4V1_06StatusERKNS8_18CameraResourceCostEEEE"
    },
    {
     "mangled_component_name":"_ZN7android8hardware6camera6device4V1_016BpHwCameraDevice13getCameraInfoENSt3__18functionIFvNS1_6common4V1_06StatusERKNS3_10CameraInfoEEEE"
    },
    {
     "mangled_component_name":"_ZN7android8hardware6camera6device4V1_016BpHwCameraDevice12setTorchModeENS1_6common4V1_09TorchModeE"
    },
    {
     "mangled_component_name":"_ZN7android8hardware6camera6device4V1_016BpHwCameraDevice9dumpStateERKNS0_11hidl_handleE"
    },
    {
     "mangled_component_name":"_ZN7android8hardware6camera6device4V1_016BpHwCameraDevice4openERKNS_2spINS3_21ICameraDeviceCallbackEEE"
    },
    {
     "mangled_component_name":"_ZN7android8hardware6camera6device4V1_016BpHwCameraDevice16setPreviewWindowERKNS_2spINS3_28ICameraDevicePreviewCallbackEEE"
    },
    {
     "mangled_component_name":"_ZN7android8hardware6camera6device4V1_016BpHwCameraDevice13enableMsgTypeEj"
    },
    {
     "mangled_component_name":"_ZN7android8hardware6camera6device4V1_016BpHwCameraDevice14disableMsgTypeEj"
    },
    {
     "mangled_component_name":"_ZN7android8hardware6camera6device4V1_016BpHwCameraDevice14msgTypeEnabledEj"
    },
    {
     "mangled_component_name":"_ZN7android8hardware6camera6device4V1_016BpHwCameraDevice12startPreviewEv"
    },
    {
     "mangled_component_name":"_ZN7android8hardware6camera6device4V1_016BpHwCameraDevice11stopPreviewEv"
    },
    {
     "mangled_component_name":"_ZN7android8hardware6camera6device4V1_016BpHwCameraDevice14previewEnabledEv"
    },
    {
     "mangled_component_name":"_ZN7android8hardware6camera6device4V1_016BpHwCameraDevice22storeMetaDataInBuffersEb"
    },
    {
     "mangled_component_name":"_ZN7android8hardware6camera6device4V1_016BpHwCameraDevice14startRecordingEv"
    },
    {
     "mangled_component_name":"_ZN7android8hardware6camera6device4V1_016BpHwCameraDevice13stopRecordingEv"
    },
    {
     "mangled_component_name":"_ZN7android8hardware6camera6device4V1_016BpHwCameraDevice16recordingEnabledEv"
    },
    {
     "mangled_component_name":"_ZN7android8hardware6camera6device4V1_016BpHwCameraDevice21releaseRecordingFrameEjj"
    },
    {
     "mangled_component_name":"_ZN7android8hardware6camera6device4V1_016BpHwCameraDevice27releaseRecordingFrameHandleEjjRKNS0_11hidl_handleE"
    },
    {
     "mangled_component_name":"_ZN7android8hardware6camera6device4V1_016BpHwCameraDevice32releaseRecordingFrameHandleBatchERKNS0_8hidl_vecINS3_17VideoFrameMessageEEE"
    },
    {
     "mangled_component_name":"_ZN7android8hardware6camera6device4V1_016BpHwCameraDevice9autoFocusEv"
    },
    {
     "mangled_component_name":"_ZN7android8hardware6camera6device4V1_016BpHwCameraDevice15cancelAutoFocusEv"
    },
    {
     "mangled_component_name":"_ZN7android8hardware6camera6device4V1_016BpHwCameraDevice11takePictureEv"
    },
    {
     "mangled_component_name":"_ZN7android8hardware6camera6device4V1_016BpHwCameraDevice13cancelPictureEv"
    },
    {
     "mangled_component_name":"_ZN7android8hardware6camera6device4V1_016BpHwCameraDevice13setParametersERKNS0_11hidl_stringE"
    },
    {
     "mangled_component_name":"_ZN7android8hardware6camera6device4V1_016BpHwCameraDevice13getParametersENSt3__18functionIFvRKNS0_11hidl_stringEEEE"
    },
    {
     "mangled_component_name":"_ZN7android8hardware6camera6device4V1_016BpHwCameraDevice11sendCommandENS3_11CommandTypeEii"
    },
    {
     "mangled_component_name":"_ZN7android8hardware6camera6device4V1_016BpHwCameraDevice5closeEv"
    },
    {
     "mangled_component_name":"_ZN7android8hardware11BpInterfaceINS0_6camera6device4V1_013ICameraDeviceEE10onAsBinderEv"
    },
    {
     "kind":"vbase_offset",
     "component_value":80
    },
    {
     "kind":"offset_to_top",
     "component_value":-4
    },
    {
     "kind":"rtti",
     "mangled_component_name":"_ZTIN7android8hardware6camera6device4V1_016BpHwCameraDeviceE"
    },
    {
     "kind":"complete_dtor_pointer",
     "mangled_component_name":"_ZThn4_N7android8hardware6camera6device4V1_016BpHwCameraDeviceD1Ev"
    },
    {
     "kind":"deleting_dtor_pointer",
     "mangled_component_name":"_ZThn4_N7android8hardware6camera6device4V1_016BpHwCameraDeviceD0Ev"
    },
    {
     "mangled_component_name":"_ZThn4_N7android8hardware11BpInterfaceINS0_6camera6device4V1_013ICameraDeviceEE10onAsBinderEv"
    },
    {
     "kind":"vbase_offset",
     "component_value":76
    },
    {
     "kind":"offset_to_top",
     "component_value":-8
    },
    {
     "kind":"rtti",
     "mangled_component_name":"_ZTIN7android8hardware6camera6device4V1_016BpHwCameraDeviceE"
    },
    {
     "kind":"complete_dtor_pointer",
     "mangled_component_name":"_ZThn8_N7android8hardware6camera6device4V1_016BpHwCameraDeviceD1Ev"
    },
    {
     "kind":"deleting_dtor_pointer",
     "mangled_component_name":"_ZThn8_N7android8hardware6camera6device4V1_016BpHwCameraDeviceD0Ev"
    },
    {
     "mangled_component_name":"_ZN7android8hardware11BpHwRefBase10onFirstRefEv"
    },
    {
     "mangled_component_name":"_ZN7android8hardware11BpHwRefBase15onLastStrongRefEPKv"
    },
    {
     "mangled_component_name":"_ZN7android8hardware11BpHwRefBase20onIncStrongAttemptedEjPKv"
    },
    {
     "kind":"offset_to_top",
     "component_value":-24
    },
    {
     "kind":"rtti",
     "mangled_component_name":"_ZTIN7android8hardware6camera6device4V1_016BpHwCameraDeviceE"
    },
    {
     "kind":"complete_dtor_pointer",
     "mangled_component_name":"_ZThn24_N7android8hardware6camera6device4V1_016BpHwCameraDeviceD1Ev"
    },
    {
     "kind":"deleting_dtor_pointer",
     "mangled_component_name":"_ZThn24_N7android8hardware6camera6device4V1_016BpHwCameraDeviceD0Ev"
    },
    {
     "kind":"vcall_offset"
    },
    {
     "kind":"vcall_offset",
     "component_value":-76
    },
    {
     "kind":"vcall_offset",
     "component_value":-76
    },
    {
     "kind":"vcall_offset",
     "component_value":-76
    },
    {
     "kind":"vcall_offset",
     "component_value":-84
    },
    {
     "kind":"offset_to_top",
     "component_value":-84
    },
    {
     "kind":"rtti",
     "mangled_component_name":"_ZTIN7android8hardware6camera6device4V1_016BpHwCameraDeviceE"
    },
    {
     "kind":"complete_dtor_pointer",
     "mangled_component_name":"_ZTv0_n12_N7android8hardware6camera6device4V1_016BpHwCameraDeviceD1Ev"
    },
    {
     "kind":"deleting_dtor_pointer",
     "mangled_component_name":"_ZTv0_n12_N7android8hardware6camera6device4V1_016BpHwCameraDeviceD0Ev"
    },
    {
     "mangled_component_name":"_ZTv0_n16_N7android8hardware11BpHwRefBase10onFirstRefEv"
    },
    {
     "mangled_component_name":"_ZTv0_n20_N7android8hardware11BpHwRefBase15onLastStrongRefEPKv"
    },
    {
     "mangled_component_name":"_ZTv0_n24_N7android8hardware11BpHwRefBase20onIncStrongAttemptedEjPKv"
    },
    {
     "mangled_component_name":"_ZN7android7RefBase13onLastWeakRefEPKv"
    }
   ],
   "unique_id":"_ZTSN7android8hardware6camera6device4V1_016BpHwCameraDeviceE"
  },
  {
   "vtable_components":[
    {
     "kind":"vbase_offset",
     "component_value":72
    },
    {
     "kind":"offset_to_top"
    },
    {
     "kind":"rtti",
     "mangled_component_name":"_ZTIN7android8hardware6camera6device4V1_016BnHwCameraDeviceE"
    },
    {
     "mangled_component_name":"_ZN7android8hardware9BHwBinder8transactEjRKNS0_6ParcelEPS2_jNSt3__18functionIFvRS2_EEE"
    },
    {
     "mangled_component_name":"_ZN7android8hardware9BHwBinder11linkToDeathERKNS_2spINS0_7IBinder14DeathRecipientEEEPvj"
    },
    {
     "mangled_component_name":"_ZN7android8hardware9BHwBinder13unlinkToDeathERKNS_2wpINS0_7IBinder14DeathRecipientEEEPvjPS5_"
    },
    {
     "mangled_component_name":"_ZNK7android8hardware7IBinder13checkSubclassEPKv"
    },
    {
     "mangled_component_name":"_ZN7android8hardware9BHwBinder12attachObjectEPKvPvS4_PFvS3_S4_S4_E"
    },
    {
     "mangled_component_name":"_ZNK7android8hardware9BHwBinder10findObjectEPKv"
    },
    {
     "mangled_component_name":"_ZN7android8hardware9BHwBinder12detachObjectEPKv"
    },
    {
     "mangled_component_name":"_ZN7android8hardware9BHwBinder11localBinderEv"
    },
    {
     "mangled_component_name":"_ZN7android8hardware7IBinder12remoteBinderEv"
    },
    {
     "kind":"complete_dtor_pointer",
     "mangled_component_name":"_ZN7android8hardware6camera6device4V1_016BnHwCameraDeviceD1Ev"
    },
    {
     "kind":"deleting_dtor_pointer",
     "mangled_component_name":"_ZN7android8hardware6camera6device4V1_016BnHwCameraDeviceD0Ev"
    },
    {
     "mangled_component_name":"_ZN7android8hardware6camera6device4V1_016BnHwCameraDevice10onTransactEjRKNS0_6ParcelEPS5_jNSt3__18functionIFvRS5_EEE"
    },
    {
     "kind":"offset_to_top",
     "component_value":-20
    },
    {
     "kind":"rtti",
     "mangled_component_name":"_ZTIN7android8hardware6camera6device4V1_016BnHwCameraDeviceE"
    },
    {
     "kind":"complete_dtor_pointer",
     "mangled_component_name":"_ZThn20_N7android8hardware6camera6device4V1_016BnHwCameraDeviceD1Ev"
    },
    {
     "kind":"deleting_dtor_pointer",
     "mangled_component_name":"_ZThn20_N7android8hardware6camera6device4V1_016BnHwCameraDeviceD0Ev"
    },
    {
     "kind":"vcall_offset"
    },
    {
     "kind":"vcall_offset"
    },
    {
     "kind":"vcall_offset"
    },
    {
     "kind":"vcall_offset"
    },
    {
     "kind":"vcall_offset",
     "component_value":-72
    },
    {
     "kind":"offset_to_top",
     "component_value":-72
    },
    {
     "kind":"rtti",
     "mangled_component_name":"_ZTIN7android8hardware6camera6device4V1_016BnHwCameraDeviceE"
    },
    {
     "kind":"complete_dtor_pointer",
     "mangled_component_name":"_ZTv0_n12_N7android8hardware6camera6device4V1_016BnHwCameraDeviceD1Ev"
    },
    {
     "kind":"deleting_dtor_pointer",
     "mangled_component_name":"_ZTv0_n12_N7android8hardware6camera6device4V1_016BnHwCameraDeviceD0Ev"
    },
    {
     "mangled_component_name":"_ZN7android7RefBase10onFirstRefEv"
    },
    {
     "mangled_component_name":"_ZN7android7RefBase15onLastStrongRefEPKv"
    },
    {
     "mangled_component_name":"_ZN7android7RefBase20onIncStrongAttemptedEjPKv"
    },
    {
     "mangled_component_name":"_ZN7android7RefBase13onLastWeakRefEPKv"
    }
   ],
   "unique_id":"_ZTSN7android8hardware6camera6device4V1_016BnHwCameraDeviceE"
  },
  {
   "vtable_components":[
    {
     "kind":"vbase_offset",
     "component_value":72
    },
    {
     "kind":"offset_to_top"
    },
    {
     "kind":"rtti",
     "mangled_component_name":"_ZTIN7android8hardware6camera6device4V1_024BnHwCameraDeviceCallbackE"
    },
    {
     "mangled_component_name":"_ZN7android8hardware9BHwBinder8transactEjRKNS0_6ParcelEPS2_jNSt3__18functionIFvRS2_EEE"
    },
    {
     "mangled_component_name":"_ZN7android8hardware9BHwBinder11linkToDeathERKNS_2spINS0_7IBinder14DeathRecipientEEEPvj"
    },
    {
     "mangled_component_name":"_ZN7android8hardware9BHwBinder13unlinkToDeathERKNS_2wpINS0_7IBinder14DeathRecipientEEEPvjPS5_"
    },
    {
     "mangled_component_name":"_ZNK7android8hardware7IBinder13checkSubclassEPKv"
    },
    {
     "mangled_component_name":"_ZN7android8hardware9BHwBinder12attachObjectEPKvPvS4_PFvS3_S4_S4_E"
    },
    {
     "mangled_component_name":"_ZNK7android8hardware9BHwBinder10findObjectEPKv"
    },
    {
     "mangled_component_name":"_ZN7android8hardware9BHwBinder12detachObjectEPKv"
    },
    {
     "mangled_component_name":"_ZN7android8hardware9BHwBinder11localBinderEv"
    },
    {
     "mangled_component_name":"_ZN7android8hardware7IBinder12remoteBinderEv"
    },
    {
     "kind":"complete_dtor_pointer",
     "mangled_component_name":"_ZN7android8hardware6camera6device4V1_024BnHwCameraDeviceCallbackD1Ev"
    },
    {
     "kind":"deleting_dtor_pointer",
     "mangled_component_name":"_ZN7android8hardware6camera6device4V1_024BnHwCameraDeviceCallbackD0Ev"
    },
    {
     "mangled_component_name":"_ZN7android8hardware6camera6device4V1_024BnHwCameraDeviceCallback10onTransactEjRKNS0_6ParcelEPS5_jNSt3__18functionIFvRS5_EEE"
    },
    {
     "kind":"offset_to_top",
     "component_value":-20
    },
    {
     "kind":"rtti",
     "mangled_component_name":"_ZTIN7android8hardware6camera6device4V1_024BnHwCameraDeviceCallbackE"
    },
    {
     "kind":"complete_dtor_pointer",
     "mangled_component_name":"_ZThn20_N7android8hardware6camera6device4V1_024BnHwCameraDeviceCallbackD1Ev"
    },
    {
     "kind":"deleting_dtor_pointer",
     "mangled_component_name":"_ZThn20_N7android8hardware6camera6device4V1_024BnHwCameraDeviceCallbackD0Ev"
    },
    {
     "kind":"vcall_offset"
    },
    {
     "kind":"vcall_offset"
    },
    {
     "kind":"vcall_offset"
    },
    {
     "kind":"vcall_offset"
    },
    {
     "kind":"vcall_offset",
     "component_value":-72
    },
    {
     "kind":"offset_to_top",
     "component_value":-72
    },
    {
     "kind":"rtti",
     "mangled_component_name":"_ZTIN7android8hardware6camera6device4V1_024BnHwCameraDeviceCallbackE"
    },
    {
     "kind":"complete_dtor_pointer",
     "mangled_component_name":"_ZTv0_n12_N7android8hardware6camera6device4V1_024BnHwCameraDeviceCallbackD1Ev"
    },
    {
     "kind":"deleting_dtor_pointer",
     "mangled_component_name":"_ZTv0_n12_N7android8hardware6camera6device4V1_024BnHwCameraDeviceCallbackD0Ev"
    },
    {
     "mangled_component_name":"_ZN7android7RefBase10onFirstRefEv"
    },
    {
     "mangled_component_name":"_ZN7android7RefBase15onLastStrongRefEPKv"
    },
    {
     "mangled_component_name":"_ZN7android7RefBase20onIncStrongAttemptedEjPKv"
    },
    {
     "mangled_component_name":"_ZN7android7RefBase13onLastWeakRefEPKv"
    }
   ],
   "unique_id":"_ZTSN7android8hardware6camera6device4V1_024BnHwCameraDeviceCallbackE"
  },
  {
   "vtable_components":[
    {
     "kind":"vbase_offset",
     "component_value":72
    },
    {
     "kind":"offset_to_top"
    },
    {
     "kind":"rtti",
     "mangled_component_name":"_ZTIN7android8hardware6camera6device4V1_031BnHwCameraDevicePreviewCallbackE"
    },
    {
     "mangled_component_name":"_ZN7android8hardware9BHwBinder8transactEjRKNS0_6ParcelEPS2_jNSt3__18functionIFvRS2_EEE"
    },
    {
     "mangled_component_name":"_ZN7android8hardware9BHwBinder11linkToDeathERKNS_2spINS0_7IBinder14DeathRecipientEEEPvj"
    },
    {
     "mangled_component_name":"_ZN7android8hardware9BHwBinder13unlinkToDeathERKNS_2wpINS0_7IBinder14DeathRecipientEEEPvjPS5_"
    },
    {
     "mangled_component_name":"_ZNK7android8hardware7IBinder13checkSubclassEPKv"
    },
    {
     "mangled_component_name":"_ZN7android8hardware9BHwBinder12attachObjectEPKvPvS4_PFvS3_S4_S4_E"
    },
    {
     "mangled_component_name":"_ZNK7android8hardware9BHwBinder10findObjectEPKv"
    },
    {
     "mangled_component_name":"_ZN7android8hardware9BHwBinder12detachObjectEPKv"
    },
    {
     "mangled_component_name":"_ZN7android8hardware9BHwBinder11localBinderEv"
    },
    {
     "mangled_component_name":"_ZN7android8hardware7IBinder12remoteBinderEv"
    },
    {
     "kind":"complete_dtor_pointer",
     "mangled_component_name":"_ZN7android8hardware6camera6device4V1_031BnHwCameraDevicePreviewCallbackD1Ev"
    },
    {
     "kind":"deleting_dtor_pointer",
     "mangled_component_name":"_ZN7android8hardware6camera6device4V1_031BnHwCameraDevicePreviewCallbackD0Ev"
    },
    {
     "mangled_component_name":"_ZN7android8hardware6camera6device4V1_031BnHwCameraDevicePreviewCallback10onTransactEjRKNS0_6ParcelEPS5_jNSt3__18functionIFvRS5_EEE"
    },
    {
     "kind":"offset_to_top",
     "component_value":-20
    },
    {
     "kind":"rtti",
     "mangled_component_name":"_ZTIN7android8hardware6camera6device4V1_031BnHwCameraDevicePreviewCallbackE"
    },
    {
     "kind":"complete_dtor_pointer",
     "mangled_component_name":"_ZThn20_N7android8hardware6camera6device4V1_031BnHwCameraDevicePreviewCallbackD1Ev"
    },
    {
     "kind":"deleting_dtor_pointer",
     "mangled_component_name":"_ZThn20_N7android8hardware6camera6device4V1_031BnHwCameraDevicePreviewCallbackD0Ev"
    },
    {
     "kind":"vcall_offset"
    },
    {
     "kind":"vcall_offset"
    },
    {
     "kind":"vcall_offset"
    },
    {
     "kind":"vcall_offset"
    },
    {
     "kind":"vcall_offset",
     "component_value":-72
    },
    {
     "kind":"offset_to_top",
     "component_value":-72
    },
    {
     "kind":"rtti",
     "mangled_component_name":"_ZTIN7android8hardware6camera6device4V1_031BnHwCameraDevicePreviewCallbackE"
    },
    {
     "kind":"complete_dtor_pointer",
     "mangled_component_name":"_ZTv0_n12_N7android8hardware6camera6device4V1_031BnHwCameraDevicePreviewCallbackD1Ev"
    },
    {
     "kind":"deleting_dtor_pointer",
     "mangled_component_name":"_ZTv0_n12_N7android8hardware6camera6device4V1_031BnHwCameraDevicePreviewCallbackD0Ev"
    },
    {
     "mangled_component_name":"_ZN7android7RefBase10onFirstRefEv"
    },
    {
     "mangled_component_name":"_ZN7android7RefBase15onLastStrongRefEPKv"
    },
    {
     "mangled_component_name":"_ZN7android7RefBase20onIncStrongAttemptedEjPKv"
    },
    {
     "mangled_component_name":"_ZN7android7RefBase13onLastWeakRefEPKv"
    }
   ],
   "unique_id":"_ZTSN7android8hardware6camera6device4V1_031BnHwCameraDevicePreviewCallbackE"
  },
  {
   "vtable_components":[
    {
     "kind":"vbase_offset",
     "component_value":60
    },
    {
     "kind":"offset_to_top"
    },
    {
     "kind":"rtti",
     "mangled_component_name":"_ZTIN7android8hardware6camera6device4V1_014BsCameraDeviceE"
    },
    {
     "mangled_component_name":"_ZNK7android8hardware6camera6device4V1_013ICameraDevice8isRemoteEv"
    },
    {
     "mangled_component_name":"_ZN7android8hardware6camera6device4V1_014BsCameraDevice14interfaceChainENSt3__18functionIFvRKNS0_8hidl_vecINS0_11hidl_stringEEEEEE"
    },
    {
     "mangled_component_name":"_ZN7android8hardware6camera6device4V1_014BsCameraDevice5debugERKNS0_11hidl_handleERKNS0_8hidl_vecINS0_11hidl_stringEEE"
    },
    {
     "mangled_component_name":"_ZN7android8hardware6camera6device4V1_014BsCameraDevice19interfaceDescriptorENSt3__18functionIFvRKNS0_11hidl_stringEEEE"
    },
    {
     "mangled_component_name":"_ZN7android8hardware6camera6device4V1_014BsCameraDevice12getHashChainENSt3__18functionIFvRKNS0_8hidl_vecINS0_10hidl_arrayIhLj32EJEEEEEEEE"
    },
    {
     "mangled_component_name":"_ZN7android8hardware6camera6device4V1_014BsCameraDevice21setHALInstrumentationEv"
    },
    {
     "mangled_component_name":"_ZN7android8hardware6camera6device4V1_014BsCameraDevice11linkToDeathERKNS_2spINS0_20hidl_death_recipientEEEy"
    },
    {
     "mangled_component_name":"_ZN7android8hardware6camera6device4V1_014BsCameraDevice4pingEv"
    },
    {
     "mangled_component_name":"_ZN7android8hardware6camera6device4V1_014BsCameraDevice12getDebugInfoENSt3__18functionIFvRKNS_4hidl4base4V1_09DebugInfoEEEE"
    },
    {
     "mangled_component_name":"_ZN7android8hardware6camera6device4V1_014BsCameraDevice21notifySyspropsChangedEv"
    },
    {
     "mangled_component_name":"_ZN7android8hardware6camera6device4V1_014BsCameraDevice13unlinkToDeathERKNS_2spINS0_20hidl_death_recipientEEE"
    },
    {
     "kind":"complete_dtor_pointer",
     "mangled_component_name":"_ZN7android8hardware6camera6device4V1_014BsCameraDeviceD1Ev"
    },
    {
     "kind":"deleting_dtor_pointer",
     "mangled_component_name":"_ZN7android8hardware6camera6device4V1_014BsCameraDeviceD0Ev"
    },
    {
     "mangled_component_name":"_ZN7android8hardware6camera6device4V1_014BsCameraDevice15getResourceCostENSt3__18functionIFvNS1_6common4V1_06StatusERKNS8_18CameraResourceCostEEEE"
    },
    {
     "mangled_component_name":"_ZN7android8hardware6camera6device4V1_014BsCameraDevice13getCameraInfoENSt3__18functionIFvNS1_6common4V1_06StatusERKNS3_10CameraInfoEEEE"
    },
    {
     "mangled_component_name":"_ZN7android8hardware6camera6device4V1_014BsCameraDevice12setTorchModeENS1_6common4V1_09TorchModeE"
    },
    {
     "mangled_component_name":"_ZN7android8hardware6camera6device4V1_014BsCameraDevice9dumpStateERKNS0_11hidl_handleE"
    },
    {
     "mangled_component_name":"_ZN7android8hardware6camera6device4V1_014BsCameraDevice4openERKNS_2spINS3_21ICameraDeviceCallbackEEE"
    },
    {
     "mangled_component_name":"_ZN7android8hardware6camera6device4V1_014BsCameraDevice16setPreviewWindowERKNS_2spINS3_28ICameraDevicePreviewCallbackEEE"
    },
    {
     "mangled_component_name":"_ZN7android8hardware6camera6device4V1_014BsCameraDevice13enableMsgTypeEj"
    },
    {
     "mangled_component_name":"_ZN7android8hardware6camera6device4V1_014BsCameraDevice14disableMsgTypeEj"
    },
    {
     "mangled_component_name":"_ZN7android8hardware6camera6device4V1_014BsCameraDevice14msgTypeEnabledEj"
    },
    {
     "mangled_component_name":"_ZN7android8hardware6camera6device4V1_014BsCameraDevice12startPreviewEv"
    },
    {
     "mangled_component_name":"_ZN7android8hardware6camera6device4V1_014BsCameraDevice11stopPreviewEv"
    },
    {
     "mangled_component_name":"_ZN7android8hardware6camera6device4V1_014BsCameraDevice14previewEnabledEv"
    },
    {
     "mangled_component_name":"_ZN7android8hardware6camera6device4V1_014BsCameraDevice22storeMetaDataInBuffersEb"
    },
    {
     "mangled_component_name":"_ZN7android8hardware6camera6device4V1_014BsCameraDevice14startRecordingEv"
    },
    {
     "mangled_component_name":"_ZN7android8hardware6camera6device4V1_014BsCameraDevice13stopRecordingEv"
    },
    {
     "mangled_component_name":"_ZN7android8hardware6camera6device4V1_014BsCameraDevice16recordingEnabledEv"
    },
    {
     "mangled_component_name":"_ZN7android8hardware6camera6device4V1_014BsCameraDevice21releaseRecordingFrameEjj"
    },
    {
     "mangled_component_name":"_ZN7android8hardware6camera6device4V1_014BsCameraDevice27releaseRecordingFrameHandleEjjRKNS0_11hidl_handleE"
    },
    {
     "mangled_component_name":"_ZN7android8hardware6camera6device4V1_014BsCameraDevice32releaseRecordingFrameHandleBatchERKNS0_8hidl_vecINS3_17VideoFrameMessageEEE"
    },
    {
     "mangled_component_name":"_ZN7android8hardware6camera6device4V1_014BsCameraDevice9autoFocusEv"
    },
    {
     "mangled_component_name":"_ZN7android8hardware6camera6device4V1_014BsCameraDevice15cancelAutoFocusEv"
    },
    {
     "mangled_component_name":"_ZN7android8hardware6camera6device4V1_014BsCameraDevice11takePictureEv"
    },
    {
     "mangled_component_name":"_ZN7android8hardware6camera6device4V1_014BsCameraDevice13cancelPictureEv"
    },
    {
     "mangled_component_name":"_ZN7android8hardware6camera6device4V1_014BsCameraDevice13setParametersERKNS0_11hidl_stringE"
    },
    {
     "mangled_component_name":"_ZN7android8hardware6camera6device4V1_014BsCameraDevice13getParametersENSt3__18functionIFvRKNS0_11hidl_stringEEEE"
    },
    {
     "mangled_component_name":"_ZN7android8hardware6camera6device4V1_014BsCameraDevice11sendCommandENS3_11CommandTypeEii"
    },
    {
     "mangled_component_name":"_ZN7android8hardware6camera6device4V1_014BsCameraDevice5closeEv"
    },
    {
     "kind":"offset_to_top",
     "component_value":-4
    },
    {
     "kind":"rtti",
     "mangled_component_name":"_ZTIN7android8hardware6camera6device4V1_014BsCameraDeviceE"
    },
    {
     "kind":"complete_dtor_pointer",
     "mangled_component_name":"_ZThn4_N7android8hardware6camera6device4V1_014BsCameraDeviceD1Ev"
    },
    {
     "kind":"deleting_dtor_pointer",
     "mangled_component_name":"_ZThn4_N7android8hardware6camera6device4V1_014BsCameraDeviceD0Ev"
    },
    {
     "kind":"vcall_offset"
    },
    {
     "kind":"vcall_offset"
    },
    {
     "kind":"vcall_offset"
    },
    {
     "kind":"vcall_offset"
    },
    {
     "kind":"vcall_offset",
     "component_value":-60
    },
    {
     "kind":"offset_to_top",
     "component_value":-60
    },
    {
     "kind":"rtti",
     "mangled_component_name":"_ZTIN7android8hardware6camera6device4V1_014BsCameraDeviceE"
    },
    {
     "kind":"complete_dtor_pointer",
     "mangled_component_name":"_ZTv0_n12_N7android8hardware6camera6device4V1_014BsCameraDeviceD1Ev"
    },
    {
     "kind":"deleting_dtor_pointer",
     "mangled_component_name":"_ZTv0_n12_N7android8hardware6camera6device4V1_014BsCameraDeviceD0Ev"
    },
    {
     "mangled_component_name":"_ZN7android7RefBase10onFirstRefEv"
    },
    {
     "mangled_component_name":"_ZN7android7RefBase15onLastStrongRefEPKv"
    },
    {
     "mangled_component_name":"_ZN7android7RefBase20onIncStrongAttemptedEjPKv"
    },
    {
     "mangled_component_name":"_ZN7android7RefBase13onLastWeakRefEPKv"
    }
   ],
   "unique_id":"_ZTSN7android8hardware6camera6device4V1_014BsCameraDeviceE"
  },
  {
   "vtable_components":[
    {
     "kind":"vbase_offset",
     "component_value":60
    },
    {
     "kind":"offset_to_top"
    },
    {
     "kind":"rtti",
     "mangled_component_name":"_ZTIN7android8hardware6camera6device4V1_022BsCameraDeviceCallbackE"
    },
    {
     "mangled_component_name":"_ZNK7android8hardware6camera6device4V1_021ICameraDeviceCallback8isRemoteEv"
    },
    {
     "mangled_component_name":"_ZN7android8hardware6camera6device4V1_022BsCameraDeviceCallback14interfaceChainENSt3__18functionIFvRKNS0_8hidl_vecINS0_11hidl_stringEEEEEE"
    },
    {
     "mangled_component_name":"_ZN7android8hardware6camera6device4V1_022BsCameraDeviceCallback5debugERKNS0_11hidl_handleERKNS0_8hidl_vecINS0_11hidl_stringEEE"
    },
    {
     "mangled_component_name":"_ZN7android8hardware6camera6device4V1_022BsCameraDeviceCallback19interfaceDescriptorENSt3__18functionIFvRKNS0_11hidl_stringEEEE"
    },
    {
     "mangled_component_name":"_ZN7android8hardware6camera6device4V1_022BsCameraDeviceCallback12getHashChainENSt3__18functionIFvRKNS0_8hidl_vecINS0_10hidl_arrayIhLj32EJEEEEEEEE"
    },
    {
     "mangled_component_name":"_ZN7android8hardware6camera6device4V1_022BsCameraDeviceCallback21setHALInstrumentationEv"
    },
    {
     "mangled_component_name":"_ZN7android8hardware6camera6device4V1_022BsCameraDeviceCallback11linkToDeathERKNS_2spINS0_20hidl_death_recipientEEEy"
    },
    {
     "mangled_component_name":"_ZN7android8hardware6camera6device4V1_022BsCameraDeviceCallback4pingEv"
    },
    {
     "mangled_component_name":"_ZN7android8hardware6camera6device4V1_022BsCameraDeviceCallback12getDebugInfoENSt3__18functionIFvRKNS_4hidl4base4V1_09DebugInfoEEEE"
    },
    {
     "mangled_component_name":"_ZN7android8hardware6camera6device4V1_022BsCameraDeviceCallback21notifySyspropsChangedEv"
    },
    {
     "mangled_component_name":"_ZN7android8hardware6camera6device4V1_022BsCameraDeviceCallback13unlinkToDeathERKNS_2spINS0_20hidl_death_recipientEEE"
    },
    {
     "kind":"complete_dtor_pointer",
     "mangled_component_name":"_ZN7android8hardware6camera6device4V1_022BsCameraDeviceCallbackD1Ev"
    },
    {
     "kind":"deleting_dtor_pointer",
     "mangled_component_name":"_ZN7android8hardware6camera6device4V1_022BsCameraDeviceCallbackD0Ev"
    },
    {
     "mangled_component_name":"_ZN7android8hardware6camera6device4V1_022BsCameraDeviceCallback14notifyCallbackENS3_17NotifyCallbackMsgEii"
    },
    {
     "mangled_component_name":"_ZN7android8hardware6camera6device4V1_022BsCameraDeviceCallback14registerMemoryERKNS0_11hidl_handleEjj"
    },
    {
     "mangled_component_name":"_ZN7android8hardware6camera6device4V1_022BsCameraDeviceCallback16unregisterMemoryEj"
    },
    {
     "mangled_component_name":"_ZN7android8hardware6camera6device4V1_022BsCameraDeviceCallback12dataCallbackENS3_15DataCallbackMsgEjjRKNS3_19CameraFrameMetadataE"
    },
    {
     "mangled_component_name":"_ZN7android8hardware6camera6device4V1_022BsCameraDeviceCallback21dataCallbackTimestampENS3_15DataCallbackMsgEjjx"
    },
    {
     "mangled_component_name":"_ZN7android8hardware6camera6device4V1_022BsCameraDeviceCallback23handleCallbackTimestampENS3_15DataCallbackMsgERKNS0_11hidl_handleEjjx"
    },
    {
     "mangled_component_name":"_ZN7android8hardware6camera6device4V1_022BsCameraDeviceCallback28handleCallbackTimestampBatchENS3_15DataCallbackMsgERKNS0_8hidl_vecINS3_22HandleTimestampMessageEEE"
    },
    {
     "kind":"offset_to_top",
     "component_value":-4
    },
    {
     "kind":"rtti",
     "mangled_component_name":"_ZTIN7android8hardware6camera6device4V1_022BsCameraDeviceCallbackE"
    },
    {
     "kind":"complete_dtor_pointer",
     "mangled_component_name":"_ZThn4_N7android8hardware6camera6device4V1_022BsCameraDeviceCallbackD1Ev"
    },
    {
     "kind":"deleting_dtor_pointer",
     "mangled_component_name":"_ZThn4_N7android8hardware6camera6device4V1_022BsCameraDeviceCallbackD0Ev"
    },
    {
     "kind":"vcall_offset"
    },
    {
     "kind":"vcall_offset"
    },
    {
     "kind":"vcall_offset"
    },
    {
     "kind":"vcall_offset"
    },
    {
     "kind":"vcall_offset",
     "component_value":-60
    },
    {
     "kind":"offset_to_top",
     "component_value":-60
    },
    {
     "kind":"rtti",
     "mangled_component_name":"_ZTIN7android8hardware6camera6device4V1_022BsCameraDeviceCallbackE"
    },
    {
     "kind":"complete_dtor_pointer",
     "mangled_component_name":"_ZTv0_n12_N7android8hardware6camera6device4V1_022BsCameraDeviceCallbackD1Ev"
    },
    {
     "kind":"deleting_dtor_pointer",
     "mangled_component_name":"_ZTv0_n12_N7android8hardware6camera6device4V1_022BsCameraDeviceCallbackD0Ev"
    },
    {
     "mangled_component_name":"_ZN7android7RefBase10onFirstRefEv"
    },
    {
     "mangled_component_name":"_ZN7android7RefBase15onLastStrongRefEPKv"
    },
    {
     "mangled_component_name":"_ZN7android7RefBase20onIncStrongAttemptedEjPKv"
    },
    {
     "mangled_component_name":"_ZN7android7RefBase13onLastWeakRefEPKv"
    }
   ],
   "unique_id":"_ZTSN7android8hardware6camera6device4V1_022BsCameraDeviceCallbackE"
  }
 ],
 "elf_functions":[
  {
   "binding":"weak",
   "name":"_ZN7android8hardware10fromBinderINS0_6camera6device4V1_021ICameraDeviceCallbackENS4_24BpHwCameraDeviceCallbackENS4_24BnHwCameraDeviceCallbackEEENS_2spIT_EERKNS8_INS0_7IBinderEEE"
  },
  {
   "binding":"weak",
   "name":"_ZN7android8hardware10fromBinderINS0_6camera6device4V1_028ICameraDevicePreviewCallbackENS4_31BpHwCameraDevicePreviewCallbackENS4_31BnHwCameraDevicePreviewCallbackEEENS_2spIT_EERKNS8_INS0_7IBinderEEE"
  },
  {
   "name":"_ZN7android8hardware6camera6device4V1_013ICameraDevice10getServiceERKNSt3__112basic_stringIcNS5_11char_traitsIcEENS5_9allocatorIcEEEEb"
  },
  {
   "name":"_ZN7android8hardware6camera6device4V1_013ICameraDevice11linkToDeathERKNS_2spINS0_20hidl_death_recipientEEEy"
  },
  {
   "name":"_ZN7android8hardware6camera6device4V1_013ICameraDevice12getDebugInfoENSt3__18functionIFvRKNS_4hidl4base4V1_09DebugInfoEEEE"
  },
  {
   "name":"_ZN7android8hardware6camera6device4V1_013ICameraDevice12getHashChainENSt3__18functionIFvRKNS0_8hidl_vecINS0_10hidl_arrayIhLj32EJEEEEEEEE"
  },
  {
   "name":"_ZN7android8hardware6camera6device4V1_013ICameraDevice13tryGetServiceERKNSt3__112basic_stringIcNS5_11char_traitsIcEENS5_9allocatorIcEEEEb"
  },
  {
   "name":"_ZN7android8hardware6camera6device4V1_013ICameraDevice13unlinkToDeathERKNS_2spINS0_20hidl_death_recipientEEE"
  },
  {
   "name":"_ZN7android8hardware6camera6device4V1_013ICameraDevice14interfaceChainENSt3__18functionIFvRKNS0_8hidl_vecINS0_11hidl_stringEEEEEE"
  },
  {
   "name":"_ZN7android8hardware6camera6device4V1_013ICameraDevice17registerAsServiceERKNSt3__112basic_stringIcNS5_11char_traitsIcEENS5_9allocatorIcEEEE"
  },
  {
   "name":"_ZN7android8hardware6camera6device4V1_013ICameraDevice19interfaceDescriptorENSt3__18functionIFvRKNS0_11hidl_stringEEEE"
  },
  {
   "name":"_ZN7android8hardware6camera6device4V1_013ICameraDevice21notifySyspropsChangedEv"
  },
  {
   "name":"_ZN7android8hardware6camera6device4V1_013ICameraDevice21setHALInstrumentationEv"
  },
  {
   "name":"_ZN7android8hardware6camera6device4V1_013ICameraDevice24registerForNotificationsERKNSt3__112basic_stringIcNS5_11char_traitsIcEENS5_9allocatorIcEEEERKNS_2spINS_4hidl7manager4V1_020IServiceNotificationEEE"
  },
  {
   "name":"_ZN7android8hardware6camera6device4V1_013ICameraDevice4pingEv"
  },
  {
   "name":"_ZN7android8hardware6camera6device4V1_013ICameraDevice5debugERKNS0_11hidl_handleERKNS0_8hidl_vecINS0_11hidl_stringEEE"
  },
  {
   "name":"_ZN7android8hardware6camera6device4V1_013ICameraDevice8castFromERKNS_2spINS_4hidl4base4V1_05IBaseEEEb"
  },
  {
   "name":"_ZN7android8hardware6camera6device4V1_013ICameraDevice8castFromERKNS_2spIS4_EEb"
  },
  {
   "name":"_ZN7android8hardware6camera6device4V1_014BsCameraDevice13addOnewayTaskENSt3__18functionIFvvEEE"
  },
  {
   "name":"_ZN7android8hardware6camera6device4V1_014BsCameraDeviceC1ENS_2spINS3_13ICameraDeviceEEE"
  },
  {
   "name":"_ZN7android8hardware6camera6device4V1_014BsCameraDeviceC2ENS_2spINS3_13ICameraDeviceEEE"
  },
  {
   "name":"_ZN7android8hardware6camera6device4V1_016BnHwCameraDevice10_hidl_openEPNS_4hidl4base4V1_08BnHwBaseERKNS0_6ParcelEPSA_NSt3__18functionIFvRSA_EEE"
  },
  {
   "name":"_ZN7android8hardware6camera6device4V1_016BnHwCameraDevice10onTransactEjRKNS0_6ParcelEPS5_jNSt3__18functionIFvRS5_EEE"
  },
  {
   "name":"_ZN7android8hardware6camera6device4V1_016BnHwCameraDevice11_hidl_closeEPNS_4hidl4base4V1_08BnHwBaseERKNS0_6ParcelEPSA_NSt3__18functionIFvRSA_EEE"
  },
  {
   "name":"_ZN7android8hardware6camera6device4V1_016BnHwCameraDevice12getDebugInfoENSt3__18functionIFvRKNS_4hidl4base4V1_09DebugInfoEEEE"
  },
  {
   "name":"_ZN7android8hardware6camera6device4V1_016BnHwCameraDevice15_hidl_autoFocusEPNS_4hidl4base4V1_08BnHwBaseERKNS0_6ParcelEPSA_NSt3__18functionIFvRSA_EEE"
  },
  {
   "name":"_ZN7android8hardware6camera6device4V1_016BnHwCameraDevice15_hidl_dumpStateEPNS_4hidl4base4V1_08BnHwBaseERKNS0_6ParcelEPSA_NSt3__18functionIFvRSA_EEE"
  },
  {
   "name":"_ZN7android8hardware6camera6device4V1_016BnHwCameraDevice17_hidl_sendCommandEPNS_4hidl4base4V1_08BnHwBaseERKNS0_6ParcelEPSA_NSt3__18functionIFvRSA_EEE"
  },
  {
   "name":"_ZN7android8hardware6camera6device4V1_016BnHwCameraDevice17_hidl_stopPreviewEPNS_4hidl4base4V1_08BnHwBaseERKNS0_6ParcelEPSA_NSt3__18functionIFvRSA_EEE"
  },
  {
   "name":"_ZN7android8hardware6camera6device4V1_016BnHwCameraDevice17_hidl_takePictureEPNS_4hidl4base4V1_08BnHwBaseERKNS0_6ParcelEPSA_NSt3__18functionIFvRSA_EEE"
  },
  {
   "name":"_ZN7android8hardware6camera6device4V1_016BnHwCameraDevice18_hidl_setTorchModeEPNS_4hidl4base4V1_08BnHwBaseERKNS0_6ParcelEPSA_NSt3__18functionIFvRSA_EEE"
  },
  {
   "name":"_ZN7android8hardware6camera6device4V1_016BnHwCameraDevice18_hidl_startPreviewEPNS_4hidl4base4V1_08BnHwBaseERKNS0_6ParcelEPSA_NSt3__18functionIFvRSA_EEE"
  },
  {
   "name":"_ZN7android8hardware6camera6device4V1_016BnHwCameraDevice19_hidl_cancelPictureEPNS_4hidl4base4V1_08BnHwBaseERKNS0_6ParcelEPSA_NSt3__18functionIFvRSA_EEE"
  },
  {
   "name":"_ZN7android8hardware6camera6device4V1_016BnHwCameraDevice19_hidl_enableMsgTypeEPNS_4hidl4base4V1_08BnHwBaseERKNS0_6ParcelEPSA_NSt3__18functionIFvRSA_EEE"
  },
  {
   "name":"_ZN7android8hardware6camera6device4V1_016BnHwCameraDevice19_hidl_getCameraInfoEPNS_4hidl4base4V1_08BnHwBaseERKNS0_6ParcelEPSA_NSt3__18functionIFvRSA_EEE"
  },
  {
   "name":"_ZN7android8hardware6camera6device4V1_016BnHwCameraDevice19_hidl_getParametersEPNS_4hidl4base4V1_08BnHwBaseERKNS0_6ParcelEPSA_NSt3__18functionIFvRSA_EEE"
  },
  {
   "name":"_ZN7android8hardware6camera6device4V1_016BnHwCameraDevice19_hidl_setParametersEPNS_4hidl4base4V1_08BnHwBaseERKNS0_6ParcelEPSA_NSt3__18functionIFvRSA_EEE"
  },
  {
   "name":"_ZN7android8hardware6camera6device4V1_016BnHwCameraDevice19_hidl_stopRecordingEPNS_4hidl4base4V1_08BnHwBaseERKNS0_6ParcelEPSA_NSt3__18functionIFvRSA_EEE"
  },
  {
   "name":"_ZN7android8hardware6camera6device4V1_016BnHwCameraDevice20_hidl_disableMsgTypeEPNS_4hidl4base4V1_08BnHwBaseERKNS0_6ParcelEPSA_NSt3__18functionIFvRSA_EEE"
  },
  {
   "name":"_ZN7android8hardware6camera6device4V1_016BnHwCameraDevice20_hidl_msgTypeEnabledEPNS_4hidl4base4V1_08BnHwBaseERKNS0_6ParcelEPSA_NSt3__18functionIFvRSA_EEE"
  },
  {
   "name":"_ZN7android8hardware6camera6device4V1_016BnHwCameraDevice20_hidl_previewEnabledEPNS_4hidl4base4V1_08BnHwBaseERKNS0_6ParcelEPSA_NSt3__18functionIFvRSA_EEE"
  },
  {
   "name":"_ZN7android8hardware6camera6device4V1_016BnHwCameraDevice20_hidl_startRecordingEPNS_4hidl4base4V1_08BnHwBaseERKNS0_6ParcelEPSA_NSt3__18functionIFvRSA_EEE"
  },
  {
   "name":"_ZN7android8hardware6camera6device4V1_016BnHwCameraDevice21_hidl_cancelAutoFocusEPNS_4hidl4base4V1_08BnHwBaseERKNS0_6ParcelEPSA_NSt3__18functionIFvRSA_EEE"
  },
  {
   "name":"_ZN7android8hardware6camera6device4V1_016BnHwCameraDevice21_hidl_getResourceCostEPNS_4hidl4base4V1_08BnHwBaseERKNS0_6ParcelEPSA_NSt3__18functionIFvRSA_EEE"
  },
  {
   "name":"_ZN7android8hardware6camera6device4V1_016BnHwCameraDevice22_hidl_recordingEnabledEPNS_4hidl4base4V1_08BnHwBaseERKNS0_6ParcelEPSA_NSt3__18functionIFvRSA_EEE"
  },
  {
   "name":"_ZN7android8hardware6camera6device4V1_016BnHwCameraDevice22_hidl_setPreviewWindowEPNS_4hidl4base4V1_08BnHwBaseERKNS0_6ParcelEPSA_NSt3__18functionIFvRSA_EEE"
  },
  {
   "name":"_ZN7android8hardware6camera6device4V1_016BnHwCameraDevice27_hidl_releaseRecordingFrameEPNS_4hidl4base4V1_08BnHwBaseERKNS0_6ParcelEPSA_NSt3__18functionIFvRSA_EEE"
  },
  {
   "name":"_ZN7android8hardware6camera6device4V1_016BnHwCameraDevice28_hidl_storeMetaDataInBuffersEPNS_4hidl4base4V1_08BnHwBaseERKNS0_6ParcelEPSA_NSt3__18functionIFvRSA_EEE"
  },
  {
   "name":"_ZN7android8hardware6camera6device4V1_016BnHwCameraDevice33_hidl_releaseRecordingFrameHandleEPNS_4hidl4base4V1_08BnHwBaseERKNS0_6ParcelEPSA_NSt3__18functionIFvRSA_EEE"
  },
  {
   "name":"_ZN7android8hardware6camera6device4V1_016BnHwCameraDevice38_hidl_releaseRecordingFrameHandleBatchEPNS_4hidl4base4V1_08BnHwBaseERKNS0_6ParcelEPSA_NSt3__18functionIFvRSA_EEE"
  },
  {
   "name":"_ZN7android8hardware6camera6device4V1_016BnHwCameraDevice4pingEv"
  },
  {
   "name":"_ZN7android8hardware6camera6device4V1_016BnHwCameraDeviceC1ERKNS_2spINS3_13ICameraDeviceEEE"
  },
  {
   "name":"_ZN7android8hardware6camera6device4V1_016BnHwCameraDeviceC2ERKNS_2spINS3_13ICameraDeviceEEE"
  },
  {
   "name":"_ZN7android8hardware6camera6device4V1_016BnHwCameraDeviceD0Ev"
  },
  {
   "name":"_ZN7android8hardware6camera6device4V1_016BnHwCameraDeviceD1Ev"
  },
  {
   "name":"_ZN7android8hardware6camera6device4V1_016BnHwCameraDeviceD2Ev"
  },
  {
   "name":"_ZN7android8hardware6camera6device4V1_016BpHwCameraDevice10_hidl_openEPNS0_10IInterfaceEPNS0_7details16HidlInstrumentorERKNS_2spINS3_21ICameraDeviceCallbackEEE"
  },
  {
   "name":"_ZN7android8hardware6camera6device4V1_016BpHwCameraDevice11_hidl_closeEPNS0_10IInterfaceEPNS0_7details16HidlInstrumentorE"
  },
  {
   "name":"_ZN7android8hardware6camera6device4V1_016BpHwCameraDevice11linkToDeathERKNS_2spINS0_20hidl_death_recipientEEEy"
  },
  {
   "name":"_ZN7android8hardware6camera6device4V1_016BpHwCameraDevice11sendCommandENS3_11CommandTypeEii"
  },
  {
   "name":"_ZN7android8hardware6camera6device4V1_016BpHwCameraDevice11stopPreviewEv"
  },
  {
   "name":"_ZN7android8hardware6camera6device4V1_016BpHwCameraDevice11takePictureEv"
  },
  {
   "name":"_ZN7android8hardware6camera6device4V1_016BpHwCameraDevice12getDebugInfoENSt3__18functionIFvRKNS_4hidl4base4V1_09DebugInfoEEEE"
  },
  {
   "name":"_ZN7android8hardware6camera6device4V1_016BpHwCameraDevice12getHashChainENSt3__18functionIFvRKNS0_8hidl_vecINS0_10hidl_arrayIhLj32EJEEEEEEEE"
  },
  {
   "name":"_ZN7android8hardware6camera6device4V1_016BpHwCameraDevice12setTorchModeENS1_6common4V1_09TorchModeE"
  },
  {
   "name":"_ZN7android8hardware6camera6device4V1_016BpHwCameraDevice12startPreviewEv"
  },
  {
   "name":"_ZN7android8hardware6camera6device4V1_016BpHwCameraDevice13cancelPictureEv"
  },
  {
   "name":"_ZN7android8hardware6camera6device4V1_016BpHwCameraDevice13enableMsgTypeEj"
  },
  {
   "name":"_ZN7android8hardware6camera6device4V1_016BpHwCameraDevice13getCameraInfoENSt3__18functionIFvNS1_6common4V1_06StatusERKNS3_10CameraInfoEEEE"
  },
  {
   "name":"_ZN7android8hardware6camera6device4V1_016BpHwCameraDevice13getParametersENSt3__18functionIFvRKNS0_11hidl_stringEEEE"
  },
  {
   "name":"_ZN7android8hardware6camera6device4V1_016BpHwCameraDevice13setParametersERKNS0_11hidl_stringE"
  },
  {
   "name":"_ZN7android8hardware6camera6device4V1_016BpHwCameraDevice13stopRecordingEv"
  },
  {
   "name":"_ZN7android8hardware6camera6device4V1_016BpHwCameraDevice13unlinkToDeathERKNS_2spINS0_20hidl_death_recipientEEE"
  },
  {
   "name":"_ZN7android8hardware6camera6device4V1_016BpHwCameraDevice14disableMsgTypeEj"
  },
  {
   "name":"_ZN7android8hardware6camera6device4V1_016BpHwCameraDevice14interfaceChainENSt3__18functionIFvRKNS0_8hidl_vecINS0_11hidl_stringEEEEEE"
  },
  {
   "name":"_ZN7android8hardware6camera6device4V1_016BpHwCameraDevice14msgTypeEnabledEj"
  },
  {
   "name":"_ZN7android8hardware6camera6device4V1_016BpHwCameraDevice14previewEnabledEv"
  },
  {
   "name":"_ZN7android8hardware6camera6device4V1_016BpHwCameraDevice14startRecordingEv"
  },
  {
   "name":"_ZN7android8hardware6camera6device4V1_016BpHwCameraDevice15_hidl_autoFocusEPNS0_10IInterfaceEPNS0_7details16HidlInstrumentorE"
  },
  {
   "name":"_ZN7android8hardware6camera6device4V1_016BpHwCameraDevice15_hidl_dumpStateEPNS0_10IInterfaceEPNS0_7details16HidlInstrumentorERKNS0_11hidl_handleE"
  },
  {
   "name":"_ZN7android8hardware6camera6device4V1_016BpHwCameraDevice15cancelAutoFocusEv"
  },
  {
   "name":"_ZN7android8hardware6camera6device4V1_016BpHwCameraDevice15getResourceCostENSt3__18functionIFvNS1_6common4V1_06StatusERKNS8_18CameraResourceCostEEEE"
  },
  {
   "name":"_ZN7android8hardware6camera6device4V1_016BpHwCameraDevice16recordingEnabledEv"
  },
  {
   "name":"_ZN7android8hardware6camera6device4V1_016BpHwCameraDevice16setPreviewWindowERKNS_2spINS3_28ICameraDevicePreviewCallbackEEE"
  },
  {
   "name":"_ZN7android8hardware6camera6device4V1_016BpHwCameraDevice17_hidl_sendCommandEPNS0_10IInterfaceEPNS0_7details16HidlInstrumentorENS3_11CommandTypeEii"
  },
  {
   "name":"_ZN7android8hardware6camera6device4V1_016BpHwCameraDevice17_hidl_stopPreviewEPNS0_10IInterfaceEPNS0_7details16HidlInstrumentorE"
  },
  {
   "name":"_ZN7android8hardware6camera6device4V1_016BpHwCameraDevice17_hidl_takePictureEPNS0_10IInterfaceEPNS0_7details16HidlInstrumentorE"
  },
  {
   "name":"_ZN7android8hardware6camera6device4V1_016BpHwCameraDevice18_hidl_setTorchModeEPNS0_10IInterfaceEPNS0_7details16HidlInstrumentorENS1_6common4V1_09TorchModeE"
  },
  {
   "name":"_ZN7android8hardware6camera6device4V1_016BpHwCameraDevice18_hidl_startPreviewEPNS0_10IInterfaceEPNS0_7details16HidlInstrumentorE"
  },
  {
   "name":"_ZN7android8hardware6camera6device4V1_016BpHwCameraDevice19_hidl_cancelPictureEPNS0_10IInterfaceEPNS0_7details16HidlInstrumentorE"
  },
  {
   "name":"_ZN7android8hardware6camera6device4V1_016BpHwCameraDevice19_hidl_enableMsgTypeEPNS0_10IInterfaceEPNS0_7details16HidlInstrumentorEj"
  },
  {
   "name":"_ZN7android8hardware6camera6device4V1_016BpHwCameraDevice19_hidl_getCameraInfoEPNS0_10IInterfaceEPNS0_7details16HidlInstrumentorENSt3__18functionIFvNS1_6common4V1_06StatusERKNS3_10CameraInfoEEEE"
  },
  {
   "name":"_ZN7android8hardware6camera6device4V1_016BpHwCameraDevice19_hidl_getParametersEPNS0_10IInterfaceEPNS0_7details16HidlInstrumentorENSt3__18functionIFvRKNS0_11hidl_stringEEEE"
  },
  {
   "name":"_ZN7android8hardware6camera6device4V1_016BpHwCameraDevice19_hidl_setParametersEPNS0_10IInterfaceEPNS0_7details16HidlInstrumentorERKNS0_11hidl_stringE"
  },
  {
   "name":"_ZN7android8hardware6camera6device4V1_016BpHwCameraDevice19_hidl_stopRecordingEPNS0_10IInterfaceEPNS0_7details16HidlInstrumentorE"
  },
  {
   "name":"_ZN7android8hardware6camera6device4V1_016BpHwCameraDevice19interfaceDescriptorENSt3__18functionIFvRKNS0_11hidl_stringEEEE"
  },
  {
   "name":"_ZN7android8hardware6camera6device4V1_016BpHwCameraDevice20_hidl_disableMsgTypeEPNS0_10IInterfaceEPNS0_7details16HidlInstrumentorEj"
  },
  {
   "name":"_ZN7android8hardware6camera6device4V1_016BpHwCameraDevice20_hidl_msgTypeEnabledEPNS0_10IInterfaceEPNS0_7details16HidlInstrumentorEj"
  },
  {
   "name":"_ZN7android8hardware6camera6device4V1_016BpHwCameraDevice20_hidl_previewEnabledEPNS0_10IInterfaceEPNS0_7details16HidlInstrumentorE"
  },
  {
   "name":"_ZN7android8hardware6camera6device4V1_016BpHwCameraDevice20_hidl_startRecordingEPNS0_10IInterfaceEPNS0_7details16HidlInstrumentorE"
  },
  {
   "name":"_ZN7android8hardware6camera6device4V1_016BpHwCameraDevice21_hidl_cancelAutoFocusEPNS0_10IInterfaceEPNS0_7details16HidlInstrumentorE"
  },
  {
   "name":"_ZN7android8hardware6camera6device4V1_016BpHwCameraDevice21_hidl_getResourceCostEPNS0_10IInterfaceEPNS0_7details16HidlInstrumentorENSt3__18functionIFvNS1_6common4V1_06StatusERKNSD_18CameraResourceCostEEEE"
  },
  {
   "name":"_ZN7android8hardware6camera6device4V1_016BpHwCameraDevice21notifySyspropsChangedEv"
  },
  {
   "name":"_ZN7android8hardware6camera6device4V1_016BpHwCameraDevice21releaseRecordingFrameEjj"
  },
  {
   "name":"_ZN7android8hardware6camera6device4V1_016BpHwCameraDevice21setHALInstrumentationEv"
  },
  {
   "name":"_ZN7android8hardware6camera6device4V1_016BpHwCameraDevice22_hidl_recordingEnabledEPNS0_10IInterfaceEPNS0_7details16HidlInstrumentorE"
  },
  {
   "name":"_ZN7android8hardware6camera6device4V1_016BpHwCameraDevice22_hidl_setPreviewWindowEPNS0_10IInterfaceEPNS0_7details16HidlInstrumentorERKNS_2spINS3_28ICameraDevicePreviewCallbackEEE"
  },
  {
   "name":"_ZN7android8hardware6camera6device4V1_016BpHwCameraDevice22storeMetaDataInBuffersEb"
  },
  {
   "name":"_ZN7android8hardware6camera6device4V1_016BpHwCameraDevice27_hidl_releaseRecordingFrameEPNS0_10IInterfaceEPNS0_7details16HidlInstrumentorEjj"
  },
  {
   "name":"_ZN7android8hardware6camera6device4V1_016BpHwCameraDevice27releaseRecordingFrameHandleEjjRKNS0_11hidl_handleE"
  },
  {
   "name":"_ZN7android8hardware6camera6device4V1_016BpHwCameraDevice28_hidl_storeMetaDataInBuffersEPNS0_10IInterfaceEPNS0_7details16HidlInstrumentorEb"
  },
  {
   "name":"_ZN7android8hardware6camera6device4V1_016BpHwCameraDevice32releaseRecordingFrameHandleBatchERKNS0_8hidl_vecINS3_17VideoFrameMessageEEE"
  },
  {
   "name":"_ZN7android8hardware6camera6device4V1_016BpHwCameraDevice33_hidl_releaseRecordingFrameHandleEPNS0_10IInterfaceEPNS0_7details16HidlInstrumentorEjjRKNS0_11hidl_handleE"
  },
  {
   "name":"_ZN7android8hardware6camera6device4V1_016BpHwCameraDevice38_hidl_releaseRecordingFrameHandleBatchEPNS0_10IInterfaceEPNS0_7details16HidlInstrumentorERKNS0_8hidl_vecINS3_17VideoFrameMessageEEE"
  },
  {
   "name":"_ZN7android8hardware6camera6device4V1_016BpHwCameraDevice4openERKNS_2spINS3_21ICameraDeviceCallbackEEE"
  },
  {
   "name":"_ZN7android8hardware6camera6device4V1_016BpHwCameraDevice4pingEv"
  },
  {
   "name":"_ZN7android8hardware6camera6device4V1_016BpHwCameraDevice5closeEv"
  },
  {
   "name":"_ZN7android8hardware6camera6device4V1_016BpHwCameraDevice5debugERKNS0_11hidl_handleERKNS0_8hidl_vecINS0_11hidl_stringEEE"
  },
  {
   "name":"_ZN7android8hardware6camera6device4V1_016BpHwCameraDevice9autoFocusEv"
  },
  {
   "name":"_ZN7android8hardware6camera6device4V1_016BpHwCameraDevice9dumpStateERKNS0_11hidl_handleE"
  },
  {
   "name":"_ZN7android8hardware6camera6device4V1_016BpHwCameraDeviceC1ERKNS_2spINS0_7IBinderEEE"
  },
  {
   "name":"_ZN7android8hardware6camera6device4V1_016BpHwCameraDeviceC2ERKNS_2spINS0_7IBinderEEE"
  },
  {
   "name":"_ZN7android8hardware6camera6device4V1_021ICameraDeviceCallback10getServiceERKNSt3__112basic_stringIcNS5_11char_traitsIcEENS5_9allocatorIcEEEEb"
  },
  {
   "name":"_ZN7android8hardware6camera6device4V1_021ICameraDeviceCallback11linkToDeathERKNS_2spINS0_20hidl_death_recipientEEEy"
  },
  {
   "name":"_ZN7android8hardware6camera6device4V1_021ICameraDeviceCallback12getDebugInfoENSt3__18functionIFvRKNS_4hidl4base4V1_09DebugInfoEEEE"
  },
  {
   "name":"_ZN7android8hardware6camera6device4V1_021ICameraDeviceCallback12getHashChainENSt3__18functionIFvRKNS0_8hidl_vecINS0_10hidl_arrayIhLj32EJEEEEEEEE"
  },
  {
   "name":"_ZN7android8hardware6camera6device4V1_021ICameraDeviceCallback13tryGetServiceERKNSt3__112basic_stringIcNS5_11char_traitsIcEENS5_9allocatorIcEEEEb"
  },
  {
   "name":"_ZN7android8hardware6camera6device4V1_021ICameraDeviceCallback13unlinkToDeathERKNS_2spINS0_20hidl_death_recipientEEE"
  },
  {
   "name":"_ZN7android8hardware6camera6device4V1_021ICameraDeviceCallback14interfaceChainENSt3__18functionIFvRKNS0_8hidl_vecINS0_11hidl_stringEEEEEE"
  },
  {
   "name":"_ZN7android8hardware6camera6device4V1_021ICameraDeviceCallback17registerAsServiceERKNSt3__112basic_stringIcNS5_11char_traitsIcEENS5_9allocatorIcEEEE"
  },
  {
   "name":"_ZN7android8hardware6camera6device4V1_021ICameraDeviceCallback19interfaceDescriptorENSt3__18functionIFvRKNS0_11hidl_stringEEEE"
  },
  {
   "name":"_ZN7android8hardware6camera6device4V1_021ICameraDeviceCallback21notifySyspropsChangedEv"
  },
  {
   "name":"_ZN7android8hardware6camera6device4V1_021ICameraDeviceCallback21setHALInstrumentationEv"
  },
  {
   "name":"_ZN7android8hardware6camera6device4V1_021ICameraDeviceCallback24registerForNotificationsERKNSt3__112basic_stringIcNS5_11char_traitsIcEENS5_9allocatorIcEEEERKNS_2spINS_4hidl7manager4V1_020IServiceNotificationEEE"
  },
  {
   "name":"_ZN7android8hardware6camera6device4V1_021ICameraDeviceCallback4pingEv"
  },
  {
   "name":"_ZN7android8hardware6camera6device4V1_021ICameraDeviceCallback5debugERKNS0_11hidl_handleERKNS0_8hidl_vecINS0_11hidl_stringEEE"
  },
  {
   "name":"_ZN7android8hardware6camera6device4V1_021ICameraDeviceCallback8castFromERKNS_2spINS_4hidl4base4V1_05IBaseEEEb"
  },
  {
   "name":"_ZN7android8hardware6camera6device4V1_021ICameraDeviceCallback8castFromERKNS_2spIS4_EEb"
  },
  {
   "name":"_ZN7android8hardware6camera6device4V1_021writeEmbeddedToParcelERKNS3_17VideoFrameMessageEPNS0_6ParcelEjj"
  },
  {
   "name":"_ZN7android8hardware6camera6device4V1_021writeEmbeddedToParcelERKNS3_19CameraFrameMetadataEPNS0_6ParcelEjj"
  },
  {
   "name":"_ZN7android8hardware6camera6device4V1_021writeEmbeddedToParcelERKNS3_22HandleTimestampMessageEPNS0_6ParcelEjj"
  },
  {
   "name":"_ZN7android8hardware6camera6device4V1_022BsCameraDeviceCallback13addOnewayTaskENSt3__18functionIFvvEEE"
  },
  {
   "name":"_ZN7android8hardware6camera6device4V1_022BsCameraDeviceCallbackC1ENS_2spINS3_21ICameraDeviceCallbackEEE"
  },
  {
   "name":"_ZN7android8hardware6camera6device4V1_022BsCameraDeviceCallbackC2ENS_2spINS3_21ICameraDeviceCallbackEEE"
  },
  {
   "name":"_ZN7android8hardware6camera6device4V1_022readEmbeddedFromParcelERKNS3_17VideoFrameMessageERKNS0_6ParcelEjj"
  },
  {
   "name":"_ZN7android8hardware6camera6device4V1_022readEmbeddedFromParcelERKNS3_19CameraFrameMetadataERKNS0_6ParcelEjj"
  },
  {
   "name":"_ZN7android8hardware6camera6device4V1_022readEmbeddedFromParcelERKNS3_22HandleTimestampMessageERKNS0_6ParcelEjj"
  },
  {
   "name":"_ZN7android8hardware6camera6device4V1_024BnHwCameraDeviceCallback10onTransactEjRKNS0_6ParcelEPS5_jNSt3__18functionIFvRS5_EEE"
  },
  {
   "name":"_ZN7android8hardware6camera6device4V1_024BnHwCameraDeviceCallback12getDebugInfoENSt3__18functionIFvRKNS_4hidl4base4V1_09DebugInfoEEEE"
  },
  {
   "name":"_ZN7android8hardware6camera6device4V1_024BnHwCameraDeviceCallback18_hidl_dataCallbackEPNS_4hidl4base4V1_08BnHwBaseERKNS0_6ParcelEPSA_NSt3__18functionIFvRSA_EEE"
  },
  {
   "name":"_ZN7android8hardware6camera6device4V1_024BnHwCameraDeviceCallback20_hidl_notifyCallbackEPNS_4hidl4base4V1_08BnHwBaseERKNS0_6ParcelEPSA_NSt3__18functionIFvRSA_EEE"
  },
  {
   "name":"_ZN7android8hardware6camera6device4V1_024BnHwCameraDeviceCallback20_hidl_registerMemoryEPNS_4hidl4base4V1_08BnHwBaseERKNS0_6ParcelEPSA_NSt3__18functionIFvRSA_EEE"
  },
  {
   "name":"_ZN7android8hardware6camera6device4V1_024BnHwCameraDeviceCallback22_hidl_unregisterMemoryEPNS_4hidl4base4V1_08BnHwBaseERKNS0_6ParcelEPSA_NSt3__18functionIFvRSA_EEE"
  },
  {
   "name":"_ZN7android8hardware6camera6device4V1_024BnHwCameraDeviceCallback27_hidl_dataCallbackTimestampEPNS_4hidl4base4V1_08BnHwBaseERKNS0_6ParcelEPSA_NSt3__18functionIFvRSA_EEE"
  },
  {
   "name":"_ZN7android8hardware6camera6device4V1_024BnHwCameraDeviceCallback29_hidl_handleCallbackTimestampEPNS_4hidl4base4V1_08BnHwBaseERKNS0_6ParcelEPSA_NSt3__18functionIFvRSA_EEE"
  },
  {
   "name":"_ZN7android8hardware6camera6device4V1_024BnHwCameraDeviceCallback34_hidl_handleCallbackTimestampBatchEPNS_4hidl4base4V1_08BnHwBaseERKNS0_6ParcelEPSA_NSt3__18functionIFvRSA_EEE"
  },
  {
   "name":"_ZN7android8hardware6camera6device4V1_024BnHwCameraDeviceCallback4pingEv"
  },
  {
   "name":"_ZN7android8hardware6camera6device4V1_024BnHwCameraDeviceCallbackC1ERKNS_2spINS3_21ICameraDeviceCallbackEEE"
  },
  {
   "name":"_ZN7android8hardware6camera6device4V1_024BnHwCameraDeviceCallbackC2ERKNS_2spINS3_21ICameraDeviceCallbackEEE"
  },
  {
   "name":"_ZN7android8hardware6camera6device4V1_024BnHwCameraDeviceCallbackD0Ev"
  },
  {
   "name":"_ZN7android8hardware6camera6device4V1_024BnHwCameraDeviceCallbackD1Ev"
  },
  {
   "name":"_ZN7android8hardware6camera6device4V1_024BnHwCameraDeviceCallbackD2Ev"
  },
  {
   "name":"_ZN7android8hardware6camera6device4V1_024BpHwCameraDeviceCallback11linkToDeathERKNS_2spINS0_20hidl_death_recipientEEEy"
  },
  {
   "name":"_ZN7android8hardware6camera6device4V1_024BpHwCameraDeviceCallback12dataCallbackENS3_15DataCallbackMsgEjjRKNS3_19CameraFrameMetadataE"
  },
  {
   "name":"_ZN7android8hardware6camera6device4V1_024BpHwCameraDeviceCallback12getDebugInfoENSt3__18functionIFvRKNS_4hidl4base4V1_09DebugInfoEEEE"
  },
  {
   "name":"_ZN7android8hardware6camera6device4V1_024BpHwCameraDeviceCallback12getHashChainENSt3__18functionIFvRKNS0_8hidl_vecINS0_10hidl_arrayIhLj32EJEEEEEEEE"
  },
  {
   "name":"_ZN7android8hardware6camera6device4V1_024BpHwCameraDeviceCallback13unlinkToDeathERKNS_2spINS0_20hidl_death_recipientEEE"
  },
  {
   "name":"_ZN7android8hardware6camera6device4V1_024BpHwCameraDeviceCallback14interfaceChainENSt3__18functionIFvRKNS0_8hidl_vecINS0_11hidl_stringEEEEEE"
  },
  {
   "name":"_ZN7android8hardware6camera6device4V1_024BpHwCameraDeviceCallback14notifyCallbackENS3_17NotifyCallbackMsgEii"
  },
  {
   "name":"_ZN7android8hardware6camera6device4V1_024BpHwCameraDeviceCallback14registerMemoryERKNS0_11hidl_handleEjj"
  },
  {
   "name":"_ZN7android8hardware6camera6device4V1_024BpHwCameraDeviceCallback16unregisterMemoryEj"
  },
  {
   "name":"_ZN7android8hardware6camera6device4V1_024BpHwCameraDeviceCallback18_hidl_dataCallbackEPNS0_10IInterfaceEPNS0_7details16HidlInstrumentorENS3_15DataCallbackMsgEjjRKNS3_19CameraFrameMetadataE"
  },
  {
   "name":"_ZN7android8hardware6camera6device4V1_024BpHwCameraDeviceCallback19interfaceDescriptorENSt3__18functionIFvRKNS0_11hidl_stringEEEE"
  },
  {
   "name":"_ZN7android8hardware6camera6device4V1_024BpHwCameraDeviceCallback20_hidl_notifyCallbackEPNS0_10IInterfaceEPNS0_7details16HidlInstrumentorENS3_17NotifyCallbackMsgEii"
  },
  {
   "name":"_ZN7android8hardware6camera6device4V1_024BpHwCameraDeviceCallback20_hidl_registerMemoryEPNS0_10IInterfaceEPNS0_7details16HidlInstrumentorERKNS0_11hidl_handleEjj"
  },
  {
   "name":"_ZN7android8hardware6camera6device4V1_024BpHwCameraDeviceCallback21dataCallbackTimestampENS3_15DataCallbackMsgEjjx"
  },
  {
   "name":"_ZN7android8hardware6camera6device4V1_024BpHwCameraDeviceCallback21notifySyspropsChangedEv"
  },
  {
   "name":"_ZN7android8hardware6camera6device4V1_024BpHwCameraDeviceCallback21setHALInstrumentationEv"
  },
  {
   "name":"_ZN7android8hardware6camera6device4V1_024BpHwCameraDeviceCallback22_hidl_unregisterMemoryEPNS0_10IInterfaceEPNS0_7details16HidlInstrumentorEj"
  },
  {
   "name":"_ZN7android8hardware6camera6device4V1_024BpHwCameraDeviceCallback23handleCallbackTimestampENS3_15DataCallbackMsgERKNS0_11hidl_handleEjjx"
  },
  {
   "name":"_ZN7android8hardware6camera6device4V1_024BpHwCameraDeviceCallback27_hidl_dataCallbackTimestampEPNS0_10IInterfaceEPNS0_7details16HidlInstrumentorENS3_15DataCallbackMsgEjjx"
  },
  {
   "name":"_ZN7android8hardware6camera6device4V1_024BpHwCameraDeviceCallback28handleCallbackTimestampBatchENS3_15DataCallbackMsgERKNS0_8hidl_vecINS3_22HandleTimestampMessageEEE"
  },
  {
   "name":"_ZN7android8hardware6camera6device4V1_024BpHwCameraDeviceCallback29_hidl_handleCallbackTimestampEPNS0_10IInterfaceEPNS0_7details16HidlInstrumentorENS3_15DataCallbackMsgERKNS0_11hidl_handleEjjx"
  },
  {
   "name":"_ZN7android8hardware6camera6device4V1_024BpHwCameraDeviceCallback34_hidl_handleCallbackTimestampBatchEPNS0_10IInterfaceEPNS0_7details16HidlInstrumentorENS3_15DataCallbackMsgERKNS0_8hidl_vecINS3_22HandleTimestampMessageEEE"
  },
  {
   "name":"_ZN7android8hardware6camera6device4V1_024BpHwCameraDeviceCallback4pingEv"
  },
  {
   "name":"_ZN7android8hardware6camera6device4V1_024BpHwCameraDeviceCallback5debugERKNS0_11hidl_handleERKNS0_8hidl_vecINS0_11hidl_stringEEE"
  },
  {
   "name":"_ZN7android8hardware6camera6device4V1_024BpHwCameraDeviceCallbackC1ERKNS_2spINS0_7IBinderEEE"
  },
  {
   "name":"_ZN7android8hardware6camera6device4V1_024BpHwCameraDeviceCallbackC2ERKNS_2spINS0_7IBinderEEE"
  },
  {
   "name":"_ZN7android8hardware6camera6device4V1_028ICameraDevicePreviewCallback10getServiceERKNSt3__112basic_stringIcNS5_11char_traitsIcEENS5_9allocatorIcEEEEb"
  },
  {
   "name":"_ZN7android8hardware6camera6device4V1_028ICameraDevicePreviewCallback11linkToDeathERKNS_2spINS0_20hidl_death_recipientEEEy"
  },
  {
   "name":"_ZN7android8hardware6camera6device4V1_028ICameraDevicePreviewCallback12getDebugInfoENSt3__18functionIFvRKNS_4hidl4base4V1_09DebugInfoEEEE"
  },
  {
   "name":"_ZN7android8hardware6camera6device4V1_028ICameraDevicePreviewCallback12getHashChainENSt3__18functionIFvRKNS0_8hidl_vecINS0_10hidl_arrayIhLj32EJEEEEEEEE"
  },
  {
   "name":"_ZN7android8hardware6camera6device4V1_028ICameraDevicePreviewCallback13tryGetServiceERKNSt3__112basic_stringIcNS5_11char_traitsIcEENS5_9allocatorIcEEEEb"
  },
  {
   "name":"_ZN7android8hardware6camera6device4V1_028ICameraDevicePreviewCallback13unlinkToDeathERKNS_2spINS0_20hidl_death_recipientEEE"
  },
  {
   "name":"_ZN7android8hardware6camera6device4V1_028ICameraDevicePreviewCallback14interfaceChainENSt3__18functionIFvRKNS0_8hidl_vecINS0_11hidl_stringEEEEEE"
  },
  {
   "name":"_ZN7android8hardware6camera6device4V1_028ICameraDevicePreviewCallback17registerAsServiceERKNSt3__112basic_stringIcNS5_11char_traitsIcEENS5_9allocatorIcEEEE"
  },
  {
   "name":"_ZN7android8hardware6camera6device4V1_028ICameraDevicePreviewCallback19interfaceDescriptorENSt3__18functionIFvRKNS0_11hidl_stringEEEE"
  },
  {
   "name":"_ZN7android8hardware6camera6device4V1_028ICameraDevicePreviewCallback21notifySyspropsChangedEv"
  },
  {
   "name":"_ZN7android8hardware6camera6device4V1_028ICameraDevicePreviewCallback21setHALInstrumentationEv"
  },
  {
   "name":"_ZN7android8hardware6camera6device4V1_028ICameraDevicePreviewCallback24registerForNotificationsERKNSt3__112basic_stringIcNS5_11char_traitsIcEENS5_9allocatorIcEEEERKNS_2spINS_4hidl7manager4V1_020IServiceNotificationEEE"
  },
  {
   "name":"_ZN7android8hardware6camera6device4V1_028ICameraDevicePreviewCallback4pingEv"
  },
  {
   "name":"_ZN7android8hardware6camera6device4V1_028ICameraDevicePreviewCallback5debugERKNS0_11hidl_handleERKNS0_8hidl_vecINS0_11hidl_stringEEE"
  },
  {
   "name":"_ZN7android8hardware6camera6device4V1_028ICameraDevicePreviewCallback8castFromERKNS_2spINS_4hidl4base4V1_05IBaseEEEb"
  },
  {
   "name":"_ZN7android8hardware6camera6device4V1_028ICameraDevicePreviewCallback8castFromERKNS_2spIS4_EEb"
  },
  {
   "name":"_ZN7android8hardware6camera6device4V1_029BsCameraDevicePreviewCallback13addOnewayTaskENSt3__18functionIFvvEEE"
  },
  {
   "name":"_ZN7android8hardware6camera6device4V1_029BsCameraDevicePreviewCallbackC1ENS_2spINS3_28ICameraDevicePreviewCallbackEEE"
  },
  {
   "name":"_ZN7android8hardware6camera6device4V1_029BsCameraDevicePreviewCallbackC2ENS_2spINS3_28ICameraDevicePreviewCallbackEEE"
  },
  {
   "name":"_ZN7android8hardware6camera6device4V1_031BnHwCameraDevicePreviewCallback10onTransactEjRKNS0_6ParcelEPS5_jNSt3__18functionIFvRS5_EEE"
  },
  {
   "name":"_ZN7android8hardware6camera6device4V1_031BnHwCameraDevicePreviewCallback12getDebugInfoENSt3__18functionIFvRKNS_4hidl4base4V1_09DebugInfoEEEE"
  },
  {
   "name":"_ZN7android8hardware6camera6device4V1_031BnHwCameraDevicePreviewCallback13_hidl_setCropEPNS_4hidl4base4V1_08BnHwBaseERKNS0_6ParcelEPSA_NSt3__18functionIFvRSA_EEE"
  },
  {
   "name":"_ZN7android8hardware6camera6device4V1_031BnHwCameraDevicePreviewCallback14_hidl_setUsageEPNS_4hidl4base4V1_08BnHwBaseERKNS0_6ParcelEPSA_NSt3__18functionIFvRSA_EEE"
  },
  {
   "name":"_ZN7android8hardware6camera6device4V1_031BnHwCameraDevicePreviewCallback18_hidl_cancelBufferEPNS_4hidl4base4V1_08BnHwBaseERKNS0_6ParcelEPSA_NSt3__18functionIFvRSA_EEE"
  },
  {
   "name":"_ZN7android8hardware6camera6device4V1_031BnHwCameraDevicePreviewCallback18_hidl_setTimestampEPNS_4hidl4base4V1_08BnHwBaseERKNS0_6ParcelEPSA_NSt3__18functionIFvRSA_EEE"
  },
  {
   "name":"_ZN7android8hardware6camera6device4V1_031BnHwCameraDevicePreviewCallback19_hidl_dequeueBufferEPNS_4hidl4base4V1_08BnHwBaseERKNS0_6ParcelEPSA_NSt3__18functionIFvRSA_EEE"
  },
  {
   "name":"_ZN7android8hardware6camera6device4V1_031BnHwCameraDevicePreviewCallback19_hidl_enqueueBufferEPNS_4hidl4base4V1_08BnHwBaseERKNS0_6ParcelEPSA_NSt3__18functionIFvRSA_EEE"
  },
  {
   "name":"_ZN7android8hardware6camera6device4V1_031BnHwCameraDevicePreviewCallback20_hidl_setBufferCountEPNS_4hidl4base4V1_08BnHwBaseERKNS0_6ParcelEPSA_NSt3__18functionIFvRSA_EEE"
  },
  {
   "name":"_ZN7android8hardware6camera6device4V1_031BnHwCameraDevicePreviewCallback21_hidl_setSwapIntervalEPNS_4hidl4base4V1_08BnHwBaseERKNS0_6ParcelEPSA_NSt3__18functionIFvRSA_EEE"
  },
  {
   "name":"_ZN7android8hardware6camera6device4V1_031BnHwCameraDevicePreviewCallback24_hidl_setBuffersGeometryEPNS_4hidl4base4V1_08BnHwBaseERKNS0_6ParcelEPSA_NSt3__18functionIFvRSA_EEE"
  },
  {
   "name":"_ZN7android8hardware6camera6device4V1_031BnHwCameraDevicePreviewCallback33_hidl_getMinUndequeuedBufferCountEPNS_4hidl4base4V1_08BnHwBaseERKNS0_6ParcelEPSA_NSt3__18functionIFvRSA_EEE"
  },
  {
   "name":"_ZN7android8hardware6camera6device4V1_031BnHwCameraDevicePreviewCallback4pingEv"
  },
  {
   "name":"_ZN7android8hardware6camera6device4V1_031BnHwCameraDevicePreviewCallbackC1ERKNS_2spINS3_28ICameraDevicePreviewCallbackEEE"
  },
  {
   "name":"_ZN7android8hardware6camera6device4V1_031BnHwCameraDevicePreviewCallbackC2ERKNS_2spINS3_28ICameraDevicePreviewCallbackEEE"
  },
  {
   "name":"_ZN7android8hardware6camera6device4V1_031BnHwCameraDevicePreviewCallbackD0Ev"
  },
  {
   "name":"_ZN7android8hardware6camera6device4V1_031BnHwCameraDevicePreviewCallbackD1Ev"
  },
  {
   "name":"_ZN7android8hardware6camera6device4V1_031BnHwCameraDevicePreviewCallbackD2Ev"
  },
  {
   "name":"_ZN7android8hardware6camera6device4V1_031BpHwCameraDevicePreviewCallback11linkToDeathERKNS_2spINS0_20hidl_death_recipientEEEy"
  },
  {
   "name":"_ZN7android8hardware6camera6device4V1_031BpHwCameraDevicePreviewCallback12cancelBufferEy"
  },
  {
   "name":"_ZN7android8hardware6camera6device4V1_031BpHwCameraDevicePreviewCallback12getDebugInfoENSt3__18functionIFvRKNS_4hidl4base4V1_09DebugInfoEEEE"
  },
  {
   "name":"_ZN7android8hardware6camera6device4V1_031BpHwCameraDevicePreviewCallback12getHashChainENSt3__18functionIFvRKNS0_8hidl_vecINS0_10hidl_arrayIhLj32EJEEEEEEEE"
  },
  {
   "name":"_ZN7android8hardware6camera6device4V1_031BpHwCameraDevicePreviewCallback12setTimestampEx"
  },
  {
   "name":"_ZN7android8hardware6camera6device4V1_031BpHwCameraDevicePreviewCallback13_hidl_setCropEPNS0_10IInterfaceEPNS0_7details16HidlInstrumentorEiiii"
  },
  {
   "name":"_ZN7android8hardware6camera6device4V1_031BpHwCameraDevicePreviewCallback13dequeueBufferENSt3__18functionIFvNS1_6common4V1_06StatusEyRKNS0_11hidl_handleEjEEE"
  },
  {
   "name":"_ZN7android8hardware6camera6device4V1_031BpHwCameraDevicePreviewCallback13enqueueBufferEy"
  },
  {
   "name":"_ZN7android8hardware6camera6device4V1_031BpHwCameraDevicePreviewCallback13unlinkToDeathERKNS_2spINS0_20hidl_death_recipientEEE"
  },
  {
   "name":"_ZN7android8hardware6camera6device4V1_031BpHwCameraDevicePreviewCallback14_hidl_setUsageEPNS0_10IInterfaceEPNS0_7details16HidlInstrumentorENS0_8graphics6common4V1_011BufferUsageE"
  },
  {
   "name":"_ZN7android8hardware6camera6device4V1_031BpHwCameraDevicePreviewCallback14interfaceChainENSt3__18functionIFvRKNS0_8hidl_vecINS0_11hidl_stringEEEEEE"
  },
  {
   "name":"_ZN7android8hardware6camera6device4V1_031BpHwCameraDevicePreviewCallback14setBufferCountEj"
  },
  {
   "name":"_ZN7android8hardware6camera6device4V1_031BpHwCameraDevicePreviewCallback15setSwapIntervalEi"
  },
  {
   "name":"_ZN7android8hardware6camera6device4V1_031BpHwCameraDevicePreviewCallback18_hidl_cancelBufferEPNS0_10IInterfaceEPNS0_7details16HidlInstrumentorEy"
  },
  {
   "name":"_ZN7android8hardware6camera6device4V1_031BpHwCameraDevicePreviewCallback18_hidl_setTimestampEPNS0_10IInterfaceEPNS0_7details16HidlInstrumentorEx"
  },
  {
   "name":"_ZN7android8hardware6camera6device4V1_031BpHwCameraDevicePreviewCallback18setBuffersGeometryEjjNS0_8graphics6common4V1_011PixelFormatE"
  },
  {
   "name":"_ZN7android8hardware6camera6device4V1_031BpHwCameraDevicePreviewCallback19_hidl_dequeueBufferEPNS0_10IInterfaceEPNS0_7details16HidlInstrumentorENSt3__18functionIFvNS1_6common4V1_06StatusEyRKNS0_11hidl_handleEjEEE"
  },
  {
   "name":"_ZN7android8hardware6camera6device4V1_031BpHwCameraDevicePreviewCallback19_hidl_enqueueBufferEPNS0_10IInterfaceEPNS0_7details16HidlInstrumentorEy"
  },
  {
   "name":"_ZN7android8hardware6camera6device4V1_031BpHwCameraDevicePreviewCallback19interfaceDescriptorENSt3__18functionIFvRKNS0_11hidl_stringEEEE"
  },
  {
   "name":"_ZN7android8hardware6camera6device4V1_031BpHwCameraDevicePreviewCallback20_hidl_setBufferCountEPNS0_10IInterfaceEPNS0_7details16HidlInstrumentorEj"
  },
  {
   "name":"_ZN7android8hardware6camera6device4V1_031BpHwCameraDevicePreviewCallback21_hidl_setSwapIntervalEPNS0_10IInterfaceEPNS0_7details16HidlInstrumentorEi"
  },
  {
   "name":"_ZN7android8hardware6camera6device4V1_031BpHwCameraDevicePreviewCallback21notifySyspropsChangedEv"
  },
  {
   "name":"_ZN7android8hardware6camera6device4V1_031BpHwCameraDevicePreviewCallback21setHALInstrumentationEv"
  },
  {
   "name":"_ZN7android8hardware6camera6device4V1_031BpHwCameraDevicePreviewCallback24_hidl_setBuffersGeometryEPNS0_10IInterfaceEPNS0_7details16HidlInstrumentorEjjNS0_8graphics6common4V1_011PixelFormatE"
  },
  {
   "name":"_ZN7android8hardware6camera6device4V1_031BpHwCameraDevicePreviewCallback27getMinUndequeuedBufferCountENSt3__18functionIFvNS1_6common4V1_06StatusEjEEE"
  },
  {
   "name":"_ZN7android8hardware6camera6device4V1_031BpHwCameraDevicePreviewCallback33_hidl_getMinUndequeuedBufferCountEPNS0_10IInterfaceEPNS0_7details16HidlInstrumentorENSt3__18functionIFvNS1_6common4V1_06StatusEjEEE"
  },
  {
   "name":"_ZN7android8hardware6camera6device4V1_031BpHwCameraDevicePreviewCallback4pingEv"
  },
  {
   "name":"_ZN7android8hardware6camera6device4V1_031BpHwCameraDevicePreviewCallback5debugERKNS0_11hidl_handleERKNS0_8hidl_vecINS0_11hidl_stringEEE"
  },
  {
   "name":"_ZN7android8hardware6camera6device4V1_031BpHwCameraDevicePreviewCallback7setCropEiiii"
  },
  {
   "name":"_ZN7android8hardware6camera6device4V1_031BpHwCameraDevicePreviewCallback8setUsageENS0_8graphics6common4V1_011BufferUsageE"
  },
  {
   "name":"_ZN7android8hardware6camera6device4V1_031BpHwCameraDevicePreviewCallbackC1ERKNS_2spINS0_7IBinderEEE"
  },
  {
   "name":"_ZN7android8hardware6camera6device4V1_031BpHwCameraDevicePreviewCallbackC2ERKNS_2spINS0_7IBinderEEE"
  },
  {
   "binding":"weak",
   "name":"_ZN7android8hardware7details13castInterfaceINS0_6camera6device4V1_013ICameraDeviceENS_4hidl4base4V1_05IBaseENS5_16BpHwCameraDeviceEEENS0_6ReturnINS_2spIT_EEEENSD_IT0_EEPKcb"
  },
  {
   "binding":"weak",
   "name":"_ZN7android8hardware7details13castInterfaceINS0_6camera6device4V1_021ICameraDeviceCallbackENS_4hidl4base4V1_05IBaseENS5_24BpHwCameraDeviceCallbackEEENS0_6ReturnINS_2spIT_EEEENSD_IT0_EEPKcb"
  },
  {
   "binding":"weak",
   "name":"_ZN7android8hardware7details13castInterfaceINS0_6camera6device4V1_028ICameraDevicePreviewCallbackENS_4hidl4base4V1_05IBaseENS5_31BpHwCameraDevicePreviewCallbackEEENS0_6ReturnINS_2spIT_EEEENSD_IT0_EEPKcb"
  },
  {
   "binding":"weak",
   "name":"_ZN7android8hardware7details15wrapPassthroughINS0_6camera6device4V1_021ICameraDeviceCallbackEvEENS_2spIT_EES9_"
  },
  {
   "binding":"weak",
   "name":"_ZN7android8hardware7details15wrapPassthroughINS0_6camera6device4V1_028ICameraDevicePreviewCallbackEvEENS_2spIT_EES9_"
  },
  {
   "binding":"weak",
   "name":"_ZN7android8hardware7details18getServiceInternalINS0_6camera6device4V1_016BpHwCameraDeviceENS5_13ICameraDeviceEvvEENS_2spIT0_EERKNSt3__112basic_stringIcNSB_11char_traitsIcEENSB_9allocatorIcEEEEbb"
  },
  {
   "binding":"weak",
   "name":"_ZN7android8hardware7details18getServiceInternalINS0_6camera6device4V1_024BpHwCameraDeviceCallbackENS5_21ICameraDeviceCallbackEvvEENS_2spIT0_EERKNSt3__112basic_stringIcNSB_11char_traitsIcEENSB_9allocatorIcEEEEbb"
  },
  {
   "binding":"weak",
   "name":"_ZN7android8hardware7details18getServiceInternalINS0_6camera6device4V1_031BpHwCameraDevicePreviewCallbackENS5_28ICameraDevicePreviewCallbackEvvEENS_2spIT0_EERKNSt3__112basic_stringIcNSB_11char_traitsIcEENSB_9allocatorIcEEEEbb"
  },
  {
   "binding":"weak",
   "name":"_ZN7android8hardware8toBinderINS0_6camera6device4V1_021ICameraDeviceCallbackEvEENS_2spINS0_7IBinderEEENS6_IT_EE"
  },
  {
   "binding":"weak",
   "name":"_ZN7android8hardware8toBinderINS0_6camera6device4V1_028ICameraDevicePreviewCallbackEvEENS_2spINS0_7IBinderEEENS6_IT_EE"
  },
  {
   "binding":"weak",
   "name":"_ZN7android8hardware8toBinderINS_4hidl4base4V1_05IBaseEvEENS_2spINS0_7IBinderEEENS6_IT_EE"
  },
  {
   "name":"_ZThn20_N7android8hardware6camera6device4V1_016BnHwCameraDeviceD0Ev"
  },
  {
   "name":"_ZThn20_N7android8hardware6camera6device4V1_016BnHwCameraDeviceD1Ev"
  },
  {
   "name":"_ZThn20_N7android8hardware6camera6device4V1_024BnHwCameraDeviceCallbackD0Ev"
  },
  {
   "name":"_ZThn20_N7android8hardware6camera6device4V1_024BnHwCameraDeviceCallbackD1Ev"
  },
  {
   "name":"_ZThn20_N7android8hardware6camera6device4V1_031BnHwCameraDevicePreviewCallbackD0Ev"
  },
  {
   "name":"_ZThn20_N7android8hardware6camera6device4V1_031BnHwCameraDevicePreviewCallbackD1Ev"
  },
  {
   "name":"_ZTv0_n12_N7android8hardware6camera6device4V1_016BnHwCameraDeviceD0Ev"
  },
  {
   "name":"_ZTv0_n12_N7android8hardware6camera6device4V1_016BnHwCameraDeviceD1Ev"
  },
  {
   "name":"_ZTv0_n12_N7android8hardware6camera6device4V1_024BnHwCameraDeviceCallbackD0Ev"
  },
  {
   "name":"_ZTv0_n12_N7android8hardware6camera6device4V1_024BnHwCameraDeviceCallbackD1Ev"
  },
  {
   "name":"_ZTv0_n12_N7android8hardware6camera6device4V1_031BnHwCameraDevicePreviewCallbackD0Ev"
  },
  {
   "name":"_ZTv0_n12_N7android8hardware6camera6device4V1_031BnHwCameraDevicePreviewCallbackD1Ev"
  }
 ],
 "elf_objects":[
  {
   "name":"_ZN7android8hardware6camera6device4V1_013ICameraDevice10descriptorE"
  },
  {
   "name":"_ZN7android8hardware6camera6device4V1_021ICameraDeviceCallback10descriptorE"
  },
  {
   "name":"_ZN7android8hardware6camera6device4V1_028ICameraDevicePreviewCallback10descriptorE"
  },
  {
   "name":"_ZTTN7android8hardware6camera6device4V1_013ICameraDeviceE"
  },
  {
   "name":"_ZTTN7android8hardware6camera6device4V1_016BnHwCameraDeviceE"
  },
  {
   "name":"_ZTTN7android8hardware6camera6device4V1_016BpHwCameraDeviceE"
  },
  {
   "name":"_ZTTN7android8hardware6camera6device4V1_021ICameraDeviceCallbackE"
  },
  {
   "name":"_ZTTN7android8hardware6camera6device4V1_024BnHwCameraDeviceCallbackE"
  },
  {
   "name":"_ZTTN7android8hardware6camera6device4V1_024BpHwCameraDeviceCallbackE"
  },
  {
   "name":"_ZTTN7android8hardware6camera6device4V1_028ICameraDevicePreviewCallbackE"
  },
  {
   "name":"_ZTTN7android8hardware6camera6device4V1_031BnHwCameraDevicePreviewCallbackE"
  },
  {
   "name":"_ZTTN7android8hardware6camera6device4V1_031BpHwCameraDevicePreviewCallbackE"
  },
  {
   "name":"_ZTVN7android8hardware6camera6device4V1_013ICameraDeviceE"
  },
  {
   "binding":"weak",
   "name":"_ZTVN7android8hardware6camera6device4V1_014BsCameraDeviceE"
  },
  {
   "name":"_ZTVN7android8hardware6camera6device4V1_016BnHwCameraDeviceE"
  },
  {
   "name":"_ZTVN7android8hardware6camera6device4V1_016BpHwCameraDeviceE"
  },
  {
   "name":"_ZTVN7android8hardware6camera6device4V1_021ICameraDeviceCallbackE"
  },
  {
   "binding":"weak",
   "name":"_ZTVN7android8hardware6camera6device4V1_022BsCameraDeviceCallbackE"
  },
  {
   "name":"_ZTVN7android8hardware6camera6device4V1_024BnHwCameraDeviceCallbackE"
  },
  {
   "name":"_ZTVN7android8hardware6camera6device4V1_024BpHwCameraDeviceCallbackE"
  },
  {
   "name":"_ZTVN7android8hardware6camera6device4V1_028ICameraDevicePreviewCallbackE"
  },
  {
   "binding":"weak",
   "name":"_ZTVN7android8hardware6camera6device4V1_029BsCameraDevicePreviewCallbackE"
  },
  {
   "name":"_ZTVN7android8hardware6camera6device4V1_031BnHwCameraDevicePreviewCallbackE"
  },
  {
   "name":"_ZTVN7android8hardware6camera6device4V1_031BpHwCameraDevicePreviewCallbackE"
  }
 ]
}