{
 "record_types":[
  {
   "vtable_components":[
    {
     "kind":"vbase_offset",
     "component_value":4
    },
    {
     "kind":"offset_to_top"
    },
    {
     "kind":"rtti",
     "mangled_component_name":"_ZTIN7android8hardware5radio4V1_116IRadioIndicationE"
    },
    {
     "mangled_component_name":"_ZNK7android8hardware5radio4V1_116IRadioIndication8isRemoteEv"
    },
    {
     "mangled_component_name":"_ZN7android8hardware5radio4V1_116IRadioIndication14interfaceChainENSt3__18functionIFvRKNS0_8hidl_vecINS0_11hidl_stringEEEEEE"
    },
    {
     "mangled_component_name":"_ZN7android8hardware5radio4V1_116IRadioIndication5debugERKNS0_11hidl_handleERKNS0_8hidl_vecINS0_11hidl_stringEEE"
    },
    {
     "mangled_component_name":"_ZN7android8hardware5radio4V1_116IRadioIndication19interfaceDescriptorENSt3__18functionIFvRKNS0_11hidl_stringEEEE"
    },
    {
     "mangled_component_name":"_ZN7android8hardware5radio4V1_116IRadioIndication12getHashChainENSt3__18functionIFvRKNS0_8hidl_vecINS0_10hidl_arrayIhLj32EJEEEEEEEE"
    },
    {
     "mangled_component_name":"_ZN7android8hardware5radio4V1_116IRadioIndication21setHALInstrumentationEv"
    },
    {
     "mangled_component_name":"_ZN7android8hardware5radio4V1_116IRadioIndication11linkToDeathERKNS_2spINS0_20hidl_death_recipientEEEy"
    },
    {
     "mangled_component_name":"_ZN7android8hardware5radio4V1_116IRadioIndication4pingEv"
    },
    {
     "mangled_component_name":"_ZN7android8hardware5radio4V1_116IRadioIndication12getDebugInfoENSt3__18functionIFvRKNS_4hidl4base4V1_09DebugInfoEEEE"
    },
    {
     "mangled_component_name":"_ZN7android8hardware5radio4V1_116IRadioIndication21notifySyspropsChangedEv"
    },
    {
     "mangled_component_name":"_ZN7android8hardware5radio4V1_116IRadioIndication13unlinkToDeathERKNS_2spINS0_20hidl_death_recipientEEE"
    },
    {
     "kind":"complete_dtor_pointer",
     "mangled_component_name":"_ZN7android8hardware5radio4V1_116IRadioIndicationD1Ev"
    },
    {
     "kind":"deleting_dtor_pointer",
     "mangled_component_name":"_ZN7android8hardware5radio4V1_116IRadioIndicationD0Ev"
    },
    {
     "is_pure":true,
     "mangled_component_name":"_ZN7android8hardware5radio4V1_116IRadioIndication17radioStateChangedENS1_4V1_019RadioIndicationTypeENS4_10RadioStateE"
    },
    {
     "is_pure":true,
     "mangled_component_name":"_ZN7android8hardware5radio4V1_116IRadioIndication16callStateChangedENS1_4V1_019RadioIndicationTypeE"
    },
    {
     "is_pure":true,
     "mangled_component_name":"_ZN7android8hardware5radio4V1_116IRadioIndication19networkStateChangedENS1_4V1_019RadioIndicationTypeE"
    },
    {
     "is_pure":true,
     "mangled_component_name":"_ZN7android8hardware5radio4V1_116IRadioIndication6newSmsENS1_4V1_019RadioIndicationTypeERKNS0_8hidl_vecIhEE"
    },
    {
     "is_pure":true,
     "mangled_component_name":"_ZN7android8hardware5radio4V1_116IRadioIndication18newSmsStatusReportENS1_4V1_019RadioIndicationTypeERKNS0_8hidl_vecIhEE"
    },
    {
     "is_pure":true,
     "mangled_component_name":"_ZN7android8hardware5radio4V1_116IRadioIndication11newSmsOnSimENS1_4V1_019RadioIndicationTypeEi"
    },
    {
     "is_pure":true,
     "mangled_component_name":"_ZN7android8hardware5radio4V1_116IRadioIndication6onUssdENS1_4V1_019RadioIndicationTypeENS4_12UssdModeTypeERKNS0_11hidl_stringE"
    },
    {
     "is_pure":true,
     "mangled_component_name":"_ZN7android8hardware5radio4V1_116IRadioIndication16nitzTimeReceivedENS1_4V1_019RadioIndicationTypeERKNS0_11hidl_stringEy"
    },
    {
     "is_pure":true,
     "mangled_component_name":"_ZN7android8hardware5radio4V1_116IRadioIndication21currentSignalStrengthENS1_4V1_019RadioIndicationTypeERKNS4_14SignalStrengthE"
    },
    {
     "is_pure":true,
     "mangled_component_name":"_ZN7android8hardware5radio4V1_116IRadioIndication19dataCallListChangedENS1_4V1_019RadioIndicationTypeERKNS0_8hidl_vecINS4_19SetupDataCallResultEEE"
    },
    {
     "is_pure":true,
     "mangled_component_name":"_ZN7android8hardware5radio4V1_116IRadioIndication13suppSvcNotifyENS1_4V1_019RadioIndicationTypeERKNS4_19SuppSvcNotificationE"
    },
    {
     "is_pure":true,
     "mangled_component_name":"_ZN7android8hardware5radio4V1_116IRadioIndication13stkSessionEndENS1_4V1_019RadioIndicationTypeE"
    },
    {
     "is_pure":true,
     "mangled_component_name":"_ZN7android8hardware5radio4V1_116IRadioIndication19stkProactiveCommandENS1_4V1_019RadioIndicationTypeERKNS0_11hidl_stringE"
    },
    {
     "is_pure":true,
     "mangled_component_name":"_ZN7android8hardware5radio4V1_116IRadioIndication14stkEventNotifyENS1_4V1_019RadioIndicationTypeERKNS0_11hidl_stringE"
    },
    {
     "is_pure":true,
     "mangled_component_name":"_ZN7android8hardware5radio4V1_116IRadioIndication12stkCallSetupENS1_4V1_019RadioIndicationTypeEx"
    },
    {
     "is_pure":true,
     "mangled_component_name":"_ZN7android8hardware5radio4V1_116IRadioIndication17simSmsStorageFullENS1_4V1_019RadioIndicationTypeE"
    },
    {
     "is_pure":true,
     "mangled_component_name":"_ZN7android8hardware5radio4V1_116IRadioIndication10simRefreshENS1_4V1_019RadioIndicationTypeERKNS4_16SimRefreshResultE"
    },
    {
     "is_pure":true,
     "mangled_component_name":"_ZN7android8hardware5radio4V1_116IRadioIndication8callRingENS1_4V1_019RadioIndicationTypeEbRKNS4_20CdmaSignalInfoRecordE"
    },
    {
     "is_pure":true,
     "mangled_component_name":"_ZN7android8hardware5radio4V1_116IRadioIndication16simStatusChangedENS1_4V1_019RadioIndicationTypeE"
    },
    {
     "is_pure":true,
     "mangled_component_name":"_ZN7android8hardware5radio4V1_116IRadioIndication10cdmaNewSmsENS1_4V1_019RadioIndicationTypeERKNS4_14CdmaSmsMessageE"
    },
    {
     "is_pure":true,
     "mangled_component_name":"_ZN7android8hardware5radio4V1_116IRadioIndication15newBroadcastSmsENS1_4V1_019RadioIndicationTypeERKNS0_8hidl_vecIhEE"
    },
    {
     "is_pure":true,
     "mangled_component_name":"_ZN7android8hardware5radio4V1_116IRadioIndication22cdmaRuimSmsStorageFullENS1_4V1_019RadioIndicationTypeE"
    },
    {
     "is_pure":true,
     "mangled_component_name":"_ZN7android8hardware5radio4V1_116IRadioIndication22restrictedStateChangedENS1_4V1_019RadioIndicationTypeENS4_20PhoneRestrictedStateE"
    },
    {
     "is_pure":true,
     "mangled_component_name":"_ZN7android8hardware5radio4V1_116IRadioIndication26enterEmergencyCallbackModeENS1_4V1_019RadioIndicationTypeE"
    },
    {
     "is_pure":true,
     "mangled_component_name":"_ZN7android8hardware5radio4V1_116IRadioIndication15cdmaCallWaitingENS1_4V1_019RadioIndicationTypeERKNS4_15CdmaCallWaitingE"
    },
    {
     "is_pure":true,
     "mangled_component_name":"_ZN7android8hardware5radio4V1_116IRadioIndication22cdmaOtaProvisionStatusENS1_4V1_019RadioIndicationTypeENS4_22CdmaOtaProvisionStatusE"
    },
    {
     "is_pure":true,
     "mangled_component_name":"_ZN7android8hardware5radio4V1_116IRadioIndication11cdmaInfoRecENS1_4V1_019RadioIndicationTypeERKNS4_22CdmaInformationRecordsE"
    },
    {
     "is_pure":true,
     "mangled_component_name":"_ZN7android8hardware5radio4V1_116IRadioIndication20indicateRingbackToneENS1_4V1_019RadioIndicationTypeEb"
    },
    {
     "is_pure":true,
     "mangled_component_name":"_ZN7android8hardware5radio4V1_116IRadioIndication16resendIncallMuteENS1_4V1_019RadioIndicationTypeE"
    },
    {
     "is_pure":true,
     "mangled_component_name":"_ZN7android8hardware5radio4V1_116IRadioIndication29cdmaSubscriptionSourceChangedENS1_4V1_019RadioIndicationTypeENS4_22CdmaSubscriptionSourceE"
    },
    {
     "is_pure":true,
     "mangled_component_name":"_ZN7android8hardware5radio4V1_116IRadioIndication14cdmaPrlChangedENS1_4V1_019RadioIndicationTypeEi"
    },
    {
     "is_pure":true,
     "mangled_component_name":"_ZN7android8hardware5radio4V1_116IRadioIndication25exitEmergencyCallbackModeENS1_4V1_019RadioIndicationTypeE"
    },
    {
     "is_pure":true,
     "mangled_component_name":"_ZN7android8hardware5radio4V1_116IRadioIndication12rilConnectedENS1_4V1_019RadioIndicationTypeE"
    },
    {
     "is_pure":true,
     "mangled_component_name":"_ZN7android8hardware5radio4V1_116IRadioIndication21voiceRadioTechChangedENS1_4V1_019RadioIndicationTypeENS4_15RadioTechnologyE"
    },
    {
     "is_pure":true,
     "mangled_component_name":"_ZN7android8hardware5radio4V1_116IRadioIndication12cellInfoListENS1_4V1_019RadioIndicationTypeERKNS0_8hidl_vecINS4_8CellInfoEEE"
    },
    {
     "is_pure":true,
     "mangled_component_name":"_ZN7android8hardware5radio4V1_116IRadioIndication22imsNetworkStateChangedENS1_4V1_019RadioIndicationTypeE"
    },
    {
     "is_pure":true,
     "mangled_component_name":"_ZN7android8hardware5radio4V1_116IRadioIndication25subscriptionStatusChangedENS1_4V1_019RadioIndicationTypeEb"
    },
    {
     "is_pure":true,
     "mangled_component_name":"_ZN7android8hardware5radio4V1_116IRadioIndication16srvccStateNotifyENS1_4V1_019RadioIndicationTypeENS4_10SrvccStateE"
    },
    {
     "is_pure":true,
     "mangled_component_name":"_ZN7android8hardware5radio4V1_116IRadioIndication21hardwareConfigChangedENS1_4V1_019RadioIndicationTypeERKNS0_8hidl_vecINS4_14HardwareConfigEEE"
    },
    {
     "is_pure":true,
     "mangled_component_name":"_ZN7android8hardware5radio4V1_116IRadioIndication25radioCapabilityIndicationENS1_4V1_019RadioIndicationTypeERKNS4_15RadioCapabilityE"
    },
    {
     "is_pure":true,
     "mangled_component_name":"_ZN7android8hardware5radio4V1_116IRadioIndication32onSupplementaryServiceIndicationENS1_4V1_019RadioIndicationTypeERKNS4_18StkCcUnsolSsResultE"
    },
    {
     "is_pure":true,
     "mangled_component_name":"_ZN7android8hardware5radio4V1_116IRadioIndication25stkCallControlAlphaNotifyENS1_4V1_019RadioIndicationTypeERKNS0_11hidl_stringE"
    },
    {
     "is_pure":true,
     "mangled_component_name":"_ZN7android8hardware5radio4V1_116IRadioIndication7lceDataENS1_4V1_019RadioIndicationTypeERKNS4_11LceDataInfoE"
    },
    {
     "is_pure":true,
     "mangled_component_name":"_ZN7android8hardware5radio4V1_116IRadioIndication7pcoDataENS1_4V1_019RadioIndicationTypeERKNS4_11PcoDataInfoE"
    },
    {
     "is_pure":true,
     "mangled_component_name":"_ZN7android8hardware5radio4V1_116IRadioIndication10modemResetENS1_4V1_019RadioIndicationTypeERKNS0_11hidl_stringE"
    },
    {
     "is_pure":true,
     "mangled_component_name":"_ZN7android8hardware5radio4V1_116IRadioIndication28carrierInfoForImsiEncryptionENS1_4V1_019RadioIndicationTypeE"
    },
    {
     "is_pure":true,
     "mangled_component_name":"_ZN7android8hardware5radio4V1_116IRadioIndication17networkScanResultENS1_4V1_019RadioIndicationTypeERKNS2_17NetworkScanResultE"
    },
    {
     "is_pure":true,
     "mangled_component_name":"_ZN7android8hardware5radio4V1_116IRadioIndication15keepaliveStatusENS1_4V1_019RadioIndicationTypeERKNS2_15KeepaliveStatusE"
    },
    {
     "kind":"vcall_offset"
    },
    {
     "kind":"vcall_offset"
    },
    {
     "kind":"vcall_offset"
    },
    {
     "kind":"vcall_offset"
    },
    {
     "kind":"vcall_offset",
     "component_value":-4
    },
    {
     "kind":"offset_to_top",
     "component_value":-4
    },
    {
     "kind":"rtti",
     "mangled_component_name":"_ZTIN7android8hardware5radio4V1_116IRadioIndicationE"
    },
    {
     "kind":"complete_dtor_pointer",
     "mangled_component_name":"_ZTv0_n12_N7android8hardware5radio4V1_116IRadioIndicationD1Ev"
    },
    {
     "kind":"deleting_dtor_pointer",
     "mangled_component_name":"_ZTv0_n12_N7android8hardware5radio4V1_116IRadioIndicationD0Ev"
    },
    {
     "mangled_component_name":"_ZN7android7RefBase10onFirstRefEv"
    },
    {
     "mangled_component_name":"_ZN7android7RefBase15onLastStrongRefEPKv"
    },
    {
     "mangled_component_name":"_ZN7android7RefBase20onIncStrongAttemptedEjPKv"
    },
    {
     "mangled_component_name":"_ZN7android7RefBase13onLastWeakRefEPKv"
    }
   ],
   "unique_id":"_ZTSN7android8hardware5radio4V1_116IRadioIndicationE"
  },
  {
   "vtable_components":[
    {
     "kind":"vbase_offset",
     "component_value":84
    },
    {
     "kind":"offset_to_top"
    },
    {
     "kind":"rtti",
     "mangled_component_name":"_ZTIN7android8hardware5radio4V1_119BpHwRadioIndicationE"
    },
    {
     "mangled_component_name":"_ZNK7android8hardware5radio4V1_119BpHwRadioIndication8isRemoteEv"
    },
    {
     "mangled_component_name":"_ZN7android8hardware5radio4V1_119BpHwRadioIndication14interfaceChainENSt3__18functionIFvRKNS0_8hidl_vecINS0_11hidl_stringEEEEEE"
    },
    {
     "mangled_component_name":"_ZN7android8hardware5radio4V1_119BpHwRadioIndication5debugERKNS0_11hidl_handleERKNS0_8hidl_vecINS0_11hidl_stringEEE"
    },
    {
     "mangled_component_name":"_ZN7android8hardware5radio4V1_119BpHwRadioIndication19interfaceDescriptorENSt3__18functionIFvRKNS0_11hidl_stringEEEE"
    },
    {
     "mangled_component_name":"_ZN7android8hardware5radio4V1_119BpHwRadioIndication12getHashChainENSt3__18functionIFvRKNS0_8hidl_vecINS0_10hidl_arrayIhLj32EJEEEEEEEE"
    },
    {
     "mangled_component_name":"_ZN7android8hardware5radio4V1_119BpHwRadioIndication21setHALInstrumentationEv"
    },
    {
     "mangled_component_name":"_ZN7android8hardware5radio4V1_119BpHwRadioIndication11linkToDeathERKNS_2spINS0_20hidl_death_recipientEEEy"
    },
    {
     "mangled_component_name":"_ZN7android8hardware5radio4V1_119BpHwRadioIndication4pingEv"
    },
    {
     "mangled_component_name":"_ZN7android8hardware5radio4V1_119BpHwRadioIndication12getDebugInfoENSt3__18functionIFvRKNS_4hidl4base4V1_09DebugInfoEEEE"
    },
    {
     "mangled_component_name":"_ZN7android8hardware5radio4V1_119BpHwRadioIndication21notifySyspropsChangedEv"
    },
    {
     "mangled_component_name":"_ZN7android8hardware5radio4V1_119BpHwRadioIndication13unlinkToDeathERKNS_2spINS0_20hidl_death_recipientEEE"
    },
    {
     "kind":"complete_dtor_pointer",
     "mangled_component_name":"_ZN7android8hardware5radio4V1_119BpHwRadioIndicationD1Ev"
    },
    {
     "kind":"deleting_dtor_pointer",
     "mangled_component_name":"_ZN7android8hardware5radio4V1_119BpHwRadioIndicationD0Ev"
    },
    {
     "mangled_component_name":"_ZN7android8hardware5radio4V1_119BpHwRadioIndication17radioStateChangedENS1_4V1_019RadioIndicationTypeENS4_10RadioStateE"
    },
    {
     "mangled_component_name":"_ZN7android8hardware5radio4V1_119BpHwRadioIndication16callStateChangedENS1_4V1_019RadioIndicationTypeE"
    },
    {
     "mangled_component_name":"_ZN7android8hardware5radio4V1_119BpHwRadioIndication19networkStateChangedENS1_4V1_019RadioIndicationTypeE"
    },
    {
     "mangled_component_name":"_ZN7android8hardware5radio4V1_119BpHwRadioIndication6newSmsENS1_4V1_019RadioIndicationTypeERKNS0_8hidl_vecIhEE"
    },
    {
     "mangled_component_name":"_ZN7android8hardware5radio4V1_119BpHwRadioIndication18newSmsStatusReportENS1_4V1_019RadioIndicationTypeERKNS0_8hidl_vecIhEE"
    },
    {
     "mangled_component_name":"_ZN7android8hardware5radio4V1_119BpHwRadioIndication11newSmsOnSimENS1_4V1_019RadioIndicationTypeEi"
    },
    {
     "mangled_component_name":"_ZN7android8hardware5radio4V1_119BpHwRadioIndication6onUssdENS1_4V1_019RadioIndicationTypeENS4_12UssdModeTypeERKNS0_11hidl_stringE"
    },
    {
     "mangled_component_name":"_ZN7android8hardware5radio4V1_119BpHwRadioIndication16nitzTimeReceivedENS1_4V1_019RadioIndicationTypeERKNS0_11hidl_stringEy"
    },
    {
     "mangled_component_name":"_ZN7android8hardware5radio4V1_119BpHwRadioIndication21currentSignalStrengthENS1_4V1_019RadioIndicationTypeERKNS4_14SignalStrengthE"
    },
    {
     "mangled_component_name":"_ZN7android8hardware5radio4V1_119BpHwRadioIndication19dataCallListChangedENS1_4V1_019RadioIndicationTypeERKNS0_8hidl_vecINS4_19SetupDataCallResultEEE"
    },
    {
     "mangled_component_name":"_ZN7android8hardware5radio4V1_119BpHwRadioIndication13suppSvcNotifyENS1_4V1_019RadioIndicationTypeERKNS4_19SuppSvcNotificationE"
    },
    {
     "mangled_component_name":"_ZN7android8hardware5radio4V1_119BpHwRadioIndication13stkSessionEndENS1_4V1_019RadioIndicationTypeE"
    },
    {
     "mangled_component_name":"_ZN7android8hardware5radio4V1_119BpHwRadioIndication19stkProactiveCommandENS1_4V1_019RadioIndicationTypeERKNS0_11hidl_stringE"
    },
    {
     "mangled_component_name":"_ZN7android8hardware5radio4V1_119BpHwRadioIndication14stkEventNotifyENS1_4V1_019RadioIndicationTypeERKNS0_11hidl_stringE"
    },
    {
     "mangled_component_name":"_ZN7android8hardware5radio4V1_119BpHwRadioIndication12stkCallSetupENS1_4V1_019RadioIndicationTypeEx"
    },
    {
     "mangled_component_name":"_ZN7android8hardware5radio4V1_119BpHwRadioIndication17simSmsStorageFullENS1_4V1_019RadioIndicationTypeE"
    },
    {
     "mangled_component_name":"_ZN7android8hardware5radio4V1_119BpHwRadioIndication10simRefreshENS1_4V1_019RadioIndicationTypeERKNS4_16SimRefreshResultE"
    },
    {
     "mangled_component_name":"_ZN7android8hardware5radio4V1_119BpHwRadioIndication8callRingENS1_4V1_019RadioIndicationTypeEbRKNS4_20CdmaSignalInfoRecordE"
    },
    {
     "mangled_component_name":"_ZN7android8hardware5radio4V1_119BpHwRadioIndication16simStatusChangedENS1_4V1_019RadioIndicationTypeE"
    },
    {
     "mangled_component_name":"_ZN7android8hardware5radio4V1_119BpHwRadioIndication10cdmaNewSmsENS1_4V1_019RadioIndicationTypeERKNS4_14CdmaSmsMessageE"
    },
    {
     "mangled_component_name":"_ZN7android8hardware5radio4V1_119BpHwRadioIndication15newBroadcastSmsENS1_4V1_019RadioIndicationTypeERKNS0_8hidl_vecIhEE"
    },
    {
     "mangled_component_name":"_ZN7android8hardware5radio4V1_119BpHwRadioIndication22cdmaRuimSmsStorageFullENS1_4V1_019RadioIndicationTypeE"
    },
    {
     "mangled_component_name":"_ZN7android8hardware5radio4V1_119BpHwRadioIndication22restrictedStateChangedENS1_4V1_019RadioIndicationTypeENS4_20PhoneRestrictedStateE"
    },
    {
     "mangled_component_name":"_ZN7android8hardware5radio4V1_119BpHwRadioIndication26enterEmergencyCallbackModeENS1_4V1_019RadioIndicationTypeE"
    },
    {
     "mangled_component_name":"_ZN7android8hardware5radio4V1_119BpHwRadioIndication15cdmaCallWaitingENS1_4V1_019RadioIndicationTypeERKNS4_15CdmaCallWaitingE"
    },
    {
     "mangled_component_name":"_ZN7android8hardware5radio4V1_119BpHwRadioIndication22cdmaOtaProvisionStatusENS1_4V1_019RadioIndicationTypeENS4_22CdmaOtaProvisionStatusE"
    },
    {
     "mangled_component_name":"_ZN7android8hardware5radio4V1_119BpHwRadioIndication11cdmaInfoRecENS1_4V1_019RadioIndicationTypeERKNS4_22CdmaInformationRecordsE"
    },
    {
     "mangled_component_name":"_ZN7android8hardware5radio4V1_119BpHwRadioIndication20indicateRingbackToneENS1_4V1_019RadioIndicationTypeEb"
    },
    {
     "mangled_component_name":"_ZN7android8hardware5radio4V1_119BpHwRadioIndication16resendIncallMuteENS1_4V1_019RadioIndicationTypeE"
    },
    {
     "mangled_component_name":"_ZN7android8hardware5radio4V1_119BpHwRadioIndication29cdmaSubscriptionSourceChangedENS1_4V1_019RadioIndicationTypeENS4_22CdmaSubscriptionSourceE"
    },
    {
     "mangled_component_name":"_ZN7android8hardware5radio4V1_119BpHwRadioIndication14cdmaPrlChangedENS1_4V1_019RadioIndicationTypeEi"
    },
    {
     "mangled_component_name":"_ZN7android8hardware5radio4V1_119BpHwRadioIndication25exitEmergencyCallbackModeENS1_4V1_019RadioIndicationTypeE"
    },
    {
     "mangled_component_name":"_ZN7android8hardware5radio4V1_119BpHwRadioIndication12rilConnectedENS1_4V1_019RadioIndicationTypeE"
    },
    {
     "mangled_component_name":"_ZN7android8hardware5radio4V1_119BpHwRadioIndication21voiceRadioTechChangedENS1_4V1_019RadioIndicationTypeENS4_15RadioTechnologyE"
    },
    {
     "mangled_component_name":"_ZN7android8hardware5radio4V1_119BpHwRadioIndication12cellInfoListENS1_4V1_019RadioIndicationTypeERKNS0_8hidl_vecINS4_8CellInfoEEE"
    },
    {
     "mangled_component_name":"_ZN7android8hardware5radio4V1_119BpHwRadioIndication22imsNetworkStateChangedENS1_4V1_019RadioIndicationTypeE"
    },
    {
     "mangled_component_name":"_ZN7android8hardware5radio4V1_119BpHwRadioIndication25subscriptionStatusChangedENS1_4V1_019RadioIndicationTypeEb"
    },
    {
     "mangled_component_name":"_ZN7android8hardware5radio4V1_119BpHwRadioIndication16srvccStateNotifyENS1_4V1_019RadioIndicationTypeENS4_10SrvccStateE"
    },
    {
     "mangled_component_name":"_ZN7android8hardware5radio4V1_119BpHwRadioIndication21hardwareConfigChangedENS1_4V1_019RadioIndicationTypeERKNS0_8hidl_vecINS4_14HardwareConfigEEE"
    },
    {
     "mangled_component_name":"_ZN7android8hardware5radio4V1_119BpHwRadioIndication25radioCapabilityIndicationENS1_4V1_019RadioIndicationTypeERKNS4_15RadioCapabilityE"
    },
    {
     "mangled_component_name":"_ZN7android8hardware5radio4V1_119BpHwRadioIndication32onSupplementaryServiceIndicationENS1_4V1_019RadioIndicationTypeERKNS4_18StkCcUnsolSsResultE"
    },
    {
     "mangled_component_name":"_ZN7android8hardware5radio4V1_119BpHwRadioIndication25stkCallControlAlphaNotifyENS1_4V1_019RadioIndicationTypeERKNS0_11hidl_stringE"
    },
    {
     "mangled_component_name":"_ZN7android8hardware5radio4V1_119BpHwRadioIndication7lceDataENS1_4V1_019RadioIndicationTypeERKNS4_11LceDataInfoE"
    },
    {
     "mangled_component_name":"_ZN7android8hardware5radio4V1_119BpHwRadioIndication7pcoDataENS1_4V1_019RadioIndicationTypeERKNS4_11PcoDataInfoE"
    },
    {
     "mangled_component_name":"_ZN7android8hardware5radio4V1_119BpHwRadioIndication10modemResetENS1_4V1_019RadioIndicationTypeERKNS0_11hidl_stringE"
    },
    {
     "mangled_component_name":"_ZN7android8hardware5radio4V1_119BpHwRadioIndication28carrierInfoForImsiEncryptionENS1_4V1_019RadioIndicationTypeE"
    },
    {
     "mangled_component_name":"_ZN7android8hardware5radio4V1_119BpHwRadioIndication17networkScanResultENS1_4V1_019RadioIndicationTypeERKNS2_17NetworkScanResultE"
    },
    {
     "mangled_component_name":"_ZN7android8hardware5radio4V1_119BpHwRadioIndication15keepaliveStatusENS1_4V1_019RadioIndicationTypeERKNS2_15KeepaliveStatusE"
    },
    {
     "mangled_component_name":"_ZN7android8hardware11BpInterfaceINS0_5radio4V1_116IRadioIndicationEE10onAsBinderEv"
    },
    {
     "kind":"vbase_offset",
     "component_value":80
    },
    {
     "kind":"offset_to_top",
     "component_value":-4
    },
    {
     "kind":"rtti",
     "mangled_component_name":"_ZTIN7android8hardware5radio4V1_119BpHwRadioIndicationE"
    },
    {
     "kind":"complete_dtor_pointer",
     "mangled_component_name":"_ZThn4_N7android8hardware5radio4V1_119BpHwRadioIndicationD1Ev"
    },
    {
     "kind":"deleting_dtor_pointer",
     "mangled_component_name":"_ZThn4_N7android8hardware5radio4V1_119BpHwRadioIndicationD0Ev"
    },
    {
     "mangled_component_name":"_ZThn4_N7android8hardware11BpInterfaceINS0_5radio4V1_116IRadioIndicationEE10onAsBinderEv"
    },
    {
     "kind":"vbase_offset",
     "component_value":76
    },
    {
     "kind":"offset_to_top",
     "component_value":-8
    },
    {
     "kind":"rtti",
     "mangled_component_name":"_ZTIN7android8hardware5radio4V1_119BpHwRadioIndicationE"
    },
    {
     "kind":"complete_dtor_pointer",
     "mangled_component_name":"_ZThn8_N7android8hardware5radio4V1_119BpHwRadioIndicationD1Ev"
    },
    {
     "kind":"deleting_dtor_pointer",
     "mangled_component_name":"_ZThn8_N7android8hardware5radio4V1_119BpHwRadioIndicationD0Ev"
    },
    {
     "mangled_component_name":"_ZN7android8hardware11BpHwRefBase10onFirstRefEv"
    },
    {
     "mangled_component_name":"_ZN7android8hardware11BpHwRefBase15onLastStrongRefEPKv"
    },
    {
     "mangled_component_name":"_ZN7android8hardware11BpHwRefBase20onIncStrongAttemptedEjPKv"
    },
    {
     "kind":"offset_to_top",
     "component_value":-24
    },
    {
     "kind":"rtti",
     "mangled_component_name":"_ZTIN7android8hardware5radio4V1_119BpHwRadioIndicationE"
    },
    {
     "kind":"complete_dtor_pointer",
     "mangled_component_name":"_ZThn24_N7android8hardware5radio4V1_119BpHwRadioIndicationD1Ev"
    },
    {
     "kind":"deleting_dtor_pointer",
     "mangled_component_name":"_ZThn24_N7android8hardware5radio4V1_119BpHwRadioIndicationD0Ev"
    },
    {
     "kind":"vcall_offset"
    },
    {
     "kind":"vcall_offset",
     "component_value":-76
    },
    {
     "kind":"vcall_offset",
     "component_value":-76
    },
    {
     "kind":"vcall_offset",
     "component_value":-76
    },
    {
     "kind":"vcall_offset",
     "component_value":-84
    },
    {
     "kind":"offset_to_top",
     "component_value":-84
    },
    {
     "kind":"rtti",
     "mangled_component_name":"_ZTIN7android8hardware5radio4V1_119BpHwRadioIndicationE"
    },
    {
     "kind":"complete_dtor_pointer",
     "mangled_component_name":"_ZTv0_n12_N7android8hardware5radio4V1_119BpHwRadioIndicationD1Ev"
    },
    {
     "kind":"deleting_dtor_pointer",
     "mangled_component_name":"_ZTv0_n12_N7android8hardware5radio4V1_119BpHwRadioIndicationD0Ev"
    },
    {
     "mangled_component_name":"_ZTv0_n16_N7android8hardware11BpHwRefBase10onFirstRefEv"
    },
    {
     "mangled_component_name":"_ZTv0_n20_N7android8hardware11BpHwRefBase15onLastStrongRefEPKv"
    },
    {
     "mangled_component_name":"_ZTv0_n24_N7android8hardware11BpHwRefBase20onIncStrongAttemptedEjPKv"
    },
    {
     "mangled_component_name":"_ZN7android7RefBase13onLastWeakRefEPKv"
    }
   ],
   "unique_id":"_ZTSN7android8hardware5radio4V1_119BpHwRadioIndicationE"
  },
  {
   "vtable_components":[
    {
     "kind":"vbase_offset",
     "component_value":72
    },
    {
     "kind":"offset_to_top"
    },
    {
     "kind":"rtti",
     "mangled_component_name":"_ZTIN7android8hardware5radio4V1_119BnHwRadioIndicationE"
    },
    {
     "mangled_component_name":"_ZN7android8hardware9BHwBinder8transactEjRKNS0_6ParcelEPS2_jNSt3__18functionIFvRS2_EEE"
    },
    {
     "mangled_component_name":"_ZN7android8hardware9BHwBinder11linkToDeathERKNS_2spINS0_7IBinder14DeathRecipientEEEPvj"
    },
    {
     "mangled_component_name":"_ZN7android8hardware9BHwBinder13unlinkToDeathERKNS_2wpINS0_7IBinder14DeathRecipientEEEPvjPS5_"
    },
    {
     "mangled_component_name":"_ZNK7android8hardware7IBinder13checkSubclassEPKv"
    },
    {
     "mangled_component_name":"_ZN7android8hardware9BHwBinder12attachObjectEPKvPvS4_PFvS3_S4_S4_E"
    },
    {
     "mangled_component_name":"_ZNK7android8hardware9BHwBinder10findObjectEPKv"
    },
    {
     "mangled_component_name":"_ZN7android8hardware9BHwBinder12detachObjectEPKv"
    },
    {
     "mangled_component_name":"_ZN7android8hardware9BHwBinder11localBinderEv"
    },
    {
     "mangled_component_name":"_ZN7android8hardware7IBinder12remoteBinderEv"
    },
    {
     "kind":"complete_dtor_pointer",
     "mangled_component_name":"_ZN7android8hardware5radio4V1_119BnHwRadioIndicationD1Ev"
    },
    {
     "kind":"deleting_dtor_pointer",
     "mangled_component_name":"_ZN7android8hardware5radio4V1_119BnHwRadioIndicationD0Ev"
    },
    {
     "mangled_component_name":"_ZN7android8hardware5radio4V1_119BnHwRadioIndication10onTransactEjRKNS0_6ParcelEPS4_jNSt3__18functionIFvRS4_EEE"
    },
    {
     "kind":"offset_to_top",
     "component_value":-20
    },
    {
     "kind":"rtti",
     "mangled_component_name":"_ZTIN7android8hardware5radio4V1_119BnHwRadioIndicationE"
    },
    {
     "kind":"complete_dtor_pointer",
     "mangled_component_name":"_ZThn20_N7android8hardware5radio4V1_119BnHwRadioIndicationD1Ev"
    },
    {
     "kind":"deleting_dtor_pointer",
     "mangled_component_name":"_ZThn20_N7android8hardware5radio4V1_119BnHwRadioIndicationD0Ev"
    },
    {
     "kind":"vcall_offset"
    },
    {
     "kind":"vcall_offset"
    },
    {
     "kind":"vcall_offset"
    },
    {
     "kind":"vcall_offset"
    },
    {
     "kind":"vcall_offset",
     "component_value":-72
    },
    {
     "kind":"offset_to_top",
     "component_value":-72
    },
    {
     "kind":"rtti",
     "mangled_component_name":"_ZTIN7android8hardware5radio4V1_119BnHwRadioIndicationE"
    },
    {
     "kind":"complete_dtor_pointer",
     "mangled_component_name":"_ZTv0_n12_N7android8hardware5radio4V1_119BnHwRadioIndicationD1Ev"
    },
    {
     "kind":"deleting_dtor_pointer",
     "mangled_component_name":"_ZTv0_n12_N7android8hardware5radio4V1_119BnHwRadioIndicationD0Ev"
    },
    {
     "mangled_component_name":"_ZN7android7RefBase10onFirstRefEv"
    },
    {
     "mangled_component_name":"_ZN7android7RefBase15onLastStrongRefEPKv"
    },
    {
     "mangled_component_name":"_ZN7android7RefBase20onIncStrongAttemptedEjPKv"
    },
    {
     "mangled_component_name":"_ZN7android7RefBase13onLastWeakRefEPKv"
    }
   ],
   "unique_id":"_ZTSN7android8hardware5radio4V1_119BnHwRadioIndicationE"
  },
  {
   "vtable_components":[
    {
     "kind":"vbase_offset",
     "component_value":60
    },
    {
     "kind":"offset_to_top"
    },
    {
     "kind":"rtti",
     "mangled_component_name":"_ZTIN7android8hardware5radio4V1_117BsRadioIndicationE"
    },
    {
     "mangled_component_name":"_ZNK7android8hardware5radio4V1_116IRadioIndication8isRemoteEv"
    },
    {
     "mangled_component_name":"_ZN7android8hardware5radio4V1_117BsRadioIndication14interfaceChainENSt3__18functionIFvRKNS0_8hidl_vecINS0_11hidl_stringEEEEEE"
    },
    {
     "mangled_component_name":"_ZN7android8hardware5radio4V1_117BsRadioIndication5debugERKNS0_11hidl_handleERKNS0_8hidl_vecINS0_11hidl_stringEEE"
    },
    {
     "mangled_component_name":"_ZN7android8hardware5radio4V1_117BsRadioIndication19interfaceDescriptorENSt3__18functionIFvRKNS0_11hidl_stringEEEE"
    },
    {
     "mangled_component_name":"_ZN7android8hardware5radio4V1_117BsRadioIndication12getHashChainENSt3__18functionIFvRKNS0_8hidl_vecINS0_10hidl_arrayIhLj32EJEEEEEEEE"
    },
    {
     "mangled_component_name":"_ZN7android8hardware5radio4V1_117BsRadioIndication21setHALInstrumentationEv"
    },
    {
     "mangled_component_name":"_ZN7android8hardware5radio4V1_117BsRadioIndication11linkToDeathERKNS_2spINS0_20hidl_death_recipientEEEy"
    },
    {
     "mangled_component_name":"_ZN7android8hardware5radio4V1_117BsRadioIndication4pingEv"
    },
    {
     "mangled_component_name":"_ZN7android8hardware5radio4V1_117BsRadioIndication12getDebugInfoENSt3__18functionIFvRKNS_4hidl4base4V1_09DebugInfoEEEE"
    },
    {
     "mangled_component_name":"_ZN7android8hardware5radio4V1_117BsRadioIndication21notifySyspropsChangedEv"
    },
    {
     "mangled_component_name":"_ZN7android8hardware5radio4V1_117BsRadioIndication13unlinkToDeathERKNS_2spINS0_20hidl_death_recipientEEE"
    },
    {
     "kind":"complete_dtor_pointer",
     "mangled_component_name":"_ZN7android8hardware5radio4V1_117BsRadioIndicationD1Ev"
    },
    {
     "kind":"deleting_dtor_pointer",
     "mangled_component_name":"_ZN7android8hardware5radio4V1_117BsRadioIndicationD0Ev"
    },
    {
     "mangled_component_name":"_ZN7android8hardware5radio4V1_117BsRadioIndication17radioStateChangedENS1_4V1_019RadioIndicationTypeENS4_10RadioStateE"
    },
    {
     "mangled_component_name":"_ZN7android8hardware5radio4V1_117BsRadioIndication16callStateChangedENS1_4V1_019RadioIndicationTypeE"
    },
    {
     "mangled_component_name":"_ZN7android8hardware5radio4V1_117BsRadioIndication19networkStateChangedENS1_4V1_019RadioIndicationTypeE"
    },
    {
     "mangled_component_name":"_ZN7android8hardware5radio4V1_117BsRadioIndication6newSmsENS1_4V1_019RadioIndicationTypeERKNS0_8hidl_vecIhEE"
    },
    {
     "mangled_component_name":"_ZN7android8hardware5radio4V1_117BsRadioIndication18newSmsStatusReportENS1_4V1_019RadioIndicationTypeERKNS0_8hidl_vecIhEE"
    },
    {
     "mangled_component_name":"_ZN7android8hardware5radio4V1_117BsRadioIndication11newSmsOnSimENS1_4V1_019RadioIndicationTypeEi"
    },
    {
     "mangled_component_name":"_ZN7android8hardware5radio4V1_117BsRadioIndication6onUssdENS1_4V1_019RadioIndicationTypeENS4_12UssdModeTypeERKNS0_11hidl_stringE"
    },
    {
     "mangled_component_name":"_ZN7android8hardware5radio4V1_117BsRadioIndication16nitzTimeReceivedENS1_4V1_019RadioIndicationTypeERKNS0_11hidl_stringEy"
    },
    {
     "mangled_component_name":"_ZN7android8hardware5radio4V1_117BsRadioIndication21currentSignalStrengthENS1_4V1_019RadioIndicationTypeERKNS4_14SignalStrengthE"
    },
    {
     "mangled_component_name":"_ZN7android8hardware5radio4V1_117BsRadioIndication19dataCallListChangedENS1_4V1_019RadioIndicationTypeERKNS0_8hidl_vecINS4_19SetupDataCallResultEEE"
    },
    {
     "mangled_component_name":"_ZN7android8hardware5radio4V1_117BsRadioIndication13suppSvcNotifyENS1_4V1_019RadioIndicationTypeERKNS4_19SuppSvcNotificationE"
    },
    {
     "mangled_component_name":"_ZN7android8hardware5radio4V1_117BsRadioIndication13stkSessionEndENS1_4V1_019RadioIndicationTypeE"
    },
    {
     "mangled_component_name":"_ZN7android8hardware5radio4V1_117BsRadioIndication19stkProactiveCommandENS1_4V1_019RadioIndicationTypeERKNS0_11hidl_stringE"
    },
    {
     "mangled_component_name":"_ZN7android8hardware5radio4V1_117BsRadioIndication14stkEventNotifyENS1_4V1_019RadioIndicationTypeERKNS0_11hidl_stringE"
    },
    {
     "mangled_component_name":"_ZN7android8hardware5radio4V1_117BsRadioIndication12stkCallSetupENS1_4V1_019RadioIndicationTypeEx"
    },
    {
     "mangled_component_name":"_ZN7android8hardware5radio4V1_117BsRadioIndication17simSmsStorageFullENS1_4V1_019RadioIndicationTypeE"
    },
    {
     "mangled_component_name":"_ZN7android8hardware5radio4V1_117BsRadioIndication10simRefreshENS1_4V1_019RadioIndicationTypeERKNS4_16SimRefreshResultE"
    },
    {
     "mangled_component_name":"_ZN7android8hardware5radio4V1_117BsRadioIndication8callRingENS1_4V1_019RadioIndicationTypeEbRKNS4_20CdmaSignalInfoRecordE"
    },
    {
     "mangled_component_name":"_ZN7android8hardware5radio4V1_117BsRadioIndication16simStatusChangedENS1_4V1_019RadioIndicationTypeE"
    },
    {
     "mangled_component_name":"_ZN7android8hardware5radio4V1_117BsRadioIndication10cdmaNewSmsENS1_4V1_019RadioIndicationTypeERKNS4_14CdmaSmsMessageE"
    },
    {
     "mangled_component_name":"_ZN7android8hardware5radio4V1_117BsRadioIndication15newBroadcastSmsENS1_4V1_019RadioIndicationTypeERKNS0_8hidl_vecIhEE"
    },
    {
     "mangled_component_name":"_ZN7android8hardware5radio4V1_117BsRadioIndication22cdmaRuimSmsStorageFullENS1_4V1_019RadioIndicationTypeE"
    },
    {
     "mangled_component_name":"_ZN7android8hardware5radio4V1_117BsRadioIndication22restrictedStateChangedENS1_4V1_019RadioIndicationTypeENS4_20PhoneRestrictedStateE"
    },
    {
     "mangled_component_name":"_ZN7android8hardware5radio4V1_117BsRadioIndication26enterEmergencyCallbackModeENS1_4V1_019RadioIndicationTypeE"
    },
    {
     "mangled_component_name":"_ZN7android8hardware5radio4V1_117BsRadioIndication15cdmaCallWaitingENS1_4V1_019RadioIndicationTypeERKNS4_15CdmaCallWaitingE"
    },
    {
     "mangled_component_name":"_ZN7android8hardware5radio4V1_117BsRadioIndication22cdmaOtaProvisionStatusENS1_4V1_019RadioIndicationTypeENS4_22CdmaOtaProvisionStatusE"
    },
    {
     "mangled_component_name":"_ZN7android8hardware5radio4V1_117BsRadioIndication11cdmaInfoRecENS1_4V1_019RadioIndicationTypeERKNS4_22CdmaInformationRecordsE"
    },
    {
     "mangled_component_name":"_ZN7android8hardware5radio4V1_117BsRadioIndication20indicateRingbackToneENS1_4V1_019RadioIndicationTypeEb"
    },
    {
     "mangled_component_name":"_ZN7android8hardware5radio4V1_117BsRadioIndication16resendIncallMuteENS1_4V1_019RadioIndicationTypeE"
    },
    {
     "mangled_component_name":"_ZN7android8hardware5radio4V1_117BsRadioIndication29cdmaSubscriptionSourceChangedENS1_4V1_019RadioIndicationTypeENS4_22CdmaSubscriptionSourceE"
    },
    {
     "mangled_component_name":"_ZN7android8hardware5radio4V1_117BsRadioIndication14cdmaPrlChangedENS1_4V1_019RadioIndicationTypeEi"
    },
    {
     "mangled_component_name":"_ZN7android8hardware5radio4V1_117BsRadioIndication25exitEmergencyCallbackModeENS1_4V1_019RadioIndicationTypeE"
    },
    {
     "mangled_component_name":"_ZN7android8hardware5radio4V1_117BsRadioIndication12rilConnectedENS1_4V1_019RadioIndicationTypeE"
    },
    {
     "mangled_component_name":"_ZN7android8hardware5radio4V1_117BsRadioIndication21voiceRadioTechChangedENS1_4V1_019RadioIndicationTypeENS4_15RadioTechnologyE"
    },
    {
     "mangled_component_name":"_ZN7android8hardware5radio4V1_117BsRadioIndication12cellInfoListENS1_4V1_019RadioIndicationTypeERKNS0_8hidl_vecINS4_8CellInfoEEE"
    },
    {
     "mangled_component_name":"_ZN7android8hardware5radio4V1_117BsRadioIndication22imsNetworkStateChangedENS1_4V1_019RadioIndicationTypeE"
    },
    {
     "mangled_component_name":"_ZN7android8hardware5radio4V1_117BsRadioIndication25subscriptionStatusChangedENS1_4V1_019RadioIndicationTypeEb"
    },
    {
     "mangled_component_name":"_ZN7android8hardware5radio4V1_117BsRadioIndication16srvccStateNotifyENS1_4V1_019RadioIndicationTypeENS4_10SrvccStateE"
    },
    {
     "mangled_component_name":"_ZN7android8hardware5radio4V1_117BsRadioIndication21hardwareConfigChangedENS1_4V1_019RadioIndicationTypeERKNS0_8hidl_vecINS4_14HardwareConfigEEE"
    },
    {
     "mangled_component_name":"_ZN7android8hardware5radio4V1_117BsRadioIndication25radioCapabilityIndicationENS1_4V1_019RadioIndicationTypeERKNS4_15RadioCapabilityE"
    },
    {
     "mangled_component_name":"_ZN7android8hardware5radio4V1_117BsRadioIndication32onSupplementaryServiceIndicationENS1_4V1_019RadioIndicationTypeERKNS4_18StkCcUnsolSsResultE"
    },
    {
     "mangled_component_name":"_ZN7android8hardware5radio4V1_117BsRadioIndication25stkCallControlAlphaNotifyENS1_4V1_019RadioIndicationTypeERKNS0_11hidl_stringE"
    },
    {
     "mangled_component_name":"_ZN7android8hardware5radio4V1_117BsRadioIndication7lceDataENS1_4V1_019RadioIndicationTypeERKNS4_11LceDataInfoE"
    },
    {
     "mangled_component_name":"_ZN7android8hardware5radio4V1_117BsRadioIndication7pcoDataENS1_4V1_019RadioIndicationTypeERKNS4_11PcoDataInfoE"
    },
    {
     "mangled_component_name":"_ZN7android8hardware5radio4V1_117BsRadioIndication10modemResetENS1_4V1_019RadioIndicationTypeERKNS0_11hidl_stringE"
    },
    {
     "mangled_component_name":"_ZN7android8hardware5radio4V1_117BsRadioIndication28carrierInfoForImsiEncryptionENS1_4V1_019RadioIndicationTypeE"
    },
    {
     "mangled_component_name":"_ZN7android8hardware5radio4V1_117BsRadioIndication17networkScanResultENS1_4V1_019RadioIndicationTypeERKNS2_17NetworkScanResultE"
    },
    {
     "mangled_component_name":"_ZN7android8hardware5radio4V1_117BsRadioIndication15keepaliveStatusENS1_4V1_019RadioIndicationTypeERKNS2_15KeepaliveStatusE"
    },
    {
     "kind":"offset_to_top",
     "component_value":-4
    },
    {
     "kind":"rtti",
     "mangled_component_name":"_ZTIN7android8hardware5radio4V1_117BsRadioIndicationE"
    },
    {
     "kind":"complete_dtor_pointer",
     "mangled_component_name":"_ZThn4_N7android8hardware5radio4V1_117BsRadioIndicationD1Ev"
    },
    {
     "kind":"deleting_dtor_pointer",
     "mangled_component_name":"_ZThn4_N7android8hardware5radio4V1_117BsRadioIndicationD0Ev"
    },
    {
     "kind":"vcall_offset"
    },
    {
     "kind":"vcall_offset"
    },
    {
     "kind":"vcall_offset"
    },
    {
     "kind":"vcall_offset"
    },
    {
     "kind":"vcall_offset",
     "component_value":-60
    },
    {
     "kind":"offset_to_top",
     "component_value":-60
    },
    {
     "kind":"rtti",
     "mangled_component_name":"_ZTIN7android8hardware5radio4V1_117BsRadioIndicationE"
    },
    {
     "kind":"complete_dtor_pointer",
     "mangled_component_name":"_ZTv0_n12_N7android8hardware5radio4V1_117BsRadioIndicationD1Ev"
    },
    {
     "kind":"deleting_dtor_pointer",
     "mangled_component_name":"_ZTv0_n12_N7android8hardware5radio4V1_117BsRadioIndicationD0Ev"
    },
    {
     "mangled_component_name":"_ZN7android7RefBase10onFirstRefEv"
    },
    {
     "mangled_component_name":"_ZN7android7RefBase15onLastStrongRefEPKv"
    },
    {
     "mangled_component_name":"_ZN7android7RefBase20onIncStrongAttemptedEjPKv"
    },
    {
     "mangled_component_name":"_ZN7android7RefBase13onLastWeakRefEPKv"
    }
   ],
   "unique_id":"_ZTSN7android8hardware5radio4V1_117BsRadioIndicationE"
  },
  {
   "vtable_components":[
    {
     "kind":"vbase_offset",
     "component_value":4
    },
    {
     "kind":"offset_to_top"
    },
    {
     "kind":"rtti",
     "mangled_component_name":"_ZTIN7android8hardware5radio4V1_114IRadioResponseE"
    },
    {
     "mangled_component_name":"_ZNK7android8hardware5radio4V1_114IRadioResponse8isRemoteEv"
    },
    {
     "mangled_component_name":"_ZN7android8hardware5radio4V1_114IRadioResponse14interfaceChainENSt3__18functionIFvRKNS0_8hidl_vecINS0_11hidl_stringEEEEEE"
    },
    {
     "mangled_component_name":"_ZN7android8hardware5radio4V1_114IRadioResponse5debugERKNS0_11hidl_handleERKNS0_8hidl_vecINS0_11hidl_stringEEE"
    },
    {
     "mangled_component_name":"_ZN7android8hardware5radio4V1_114IRadioResponse19interfaceDescriptorENSt3__18functionIFvRKNS0_11hidl_stringEEEE"
    },
    {
     "mangled_component_name":"_ZN7android8hardware5radio4V1_114IRadioResponse12getHashChainENSt3__18functionIFvRKNS0_8hidl_vecINS0_10hidl_arrayIhLj32EJEEEEEEEE"
    },
    {
     "mangled_component_name":"_ZN7android8hardware5radio4V1_114IRadioResponse21setHALInstrumentationEv"
    },
    {
     "mangled_component_name":"_ZN7android8hardware5radio4V1_114IRadioResponse11linkToDeathERKNS_2spINS0_20hidl_death_recipientEEEy"
    },
    {
     "mangled_component_name":"_ZN7android8hardware5radio4V1_114IRadioResponse4pingEv"
    },
    {
     "mangled_component_name":"_ZN7android8hardware5radio4V1_114IRadioResponse12getDebugInfoENSt3__18functionIFvRKNS_4hidl4base4V1_09DebugInfoEEEE"
    },
    {
     "mangled_component_name":"_ZN7android8hardware5radio4V1_114IRadioResponse21notifySyspropsChangedEv"
    },
    {
     "mangled_component_name":"_ZN7android8hardware5radio4V1_114IRadioResponse13unlinkToDeathERKNS_2spINS0_20hidl_death_recipientEEE"
    },
    {
     "kind":"complete_dtor_pointer",
     "mangled_component_name":"_ZN7android8hardware5radio4V1_114IRadioResponseD1Ev"
    },
    {
     "kind":"deleting_dtor_pointer",
     "mangled_component_name":"_ZN7android8hardware5radio4V1_114IRadioResponseD0Ev"
    },
    {
     "is_pure":true,
     "mangled_component_name":"_ZN7android8hardware5radio4V1_114IRadioResponse24getIccCardStatusResponseERKNS1_4V1_017RadioResponseInfoERKNS4_10CardStatusE"
    },
    {
     "is_pure":true,
     "mangled_component_name":"_ZN7android8hardware5radio4V1_114IRadioResponse26supplyIccPinForAppResponseERKNS1_4V1_017RadioResponseInfoEi"
    },
    {
     "is_pure":true,
     "mangled_component_name":"_ZN7android8hardware5radio4V1_114IRadioResponse26supplyIccPukForAppResponseERKNS1_4V1_017RadioResponseInfoEi"
    },
    {
     "is_pure":true,
     "mangled_component_name":"_ZN7android8hardware5radio4V1_114IRadioResponse27supplyIccPin2ForAppResponseERKNS1_4V1_017RadioResponseInfoEi"
    },
    {
     "is_pure":true,
     "mangled_component_name":"_ZN7android8hardware5radio4V1_114IRadioResponse27supplyIccPuk2ForAppResponseERKNS1_4V1_017RadioResponseInfoEi"
    },
    {
     "is_pure":true,
     "mangled_component_name":"_ZN7android8hardware5radio4V1_114IRadioResponse26changeIccPinForAppResponseERKNS1_4V1_017RadioResponseInfoEi"
    },
    {
     "is_pure":true,
     "mangled_component_name":"_ZN7android8hardware5radio4V1_114IRadioResponse27changeIccPin2ForAppResponseERKNS1_4V1_017RadioResponseInfoEi"
    },
    {
     "is_pure":true,
     "mangled_component_name":"_ZN7android8hardware5radio4V1_114IRadioResponse38supplyNetworkDepersonalizationResponseERKNS1_4V1_017RadioResponseInfoEi"
    },
    {
     "is_pure":true,
     "mangled_component_name":"_ZN7android8hardware5radio4V1_114IRadioResponse23getCurrentCallsResponseERKNS1_4V1_017RadioResponseInfoERKNS0_8hidl_vecINS4_4CallEEE"
    },
    {
     "is_pure":true,
     "mangled_component_name":"_ZN7android8hardware5radio4V1_114IRadioResponse12dialResponseERKNS1_4V1_017RadioResponseInfoE"
    },
    {
     "is_pure":true,
     "mangled_component_name":"_ZN7android8hardware5radio4V1_114IRadioResponse21getIMSIForAppResponseERKNS1_4V1_017RadioResponseInfoERKNS0_11hidl_stringE"
    },
    {
     "is_pure":true,
     "mangled_component_name":"_ZN7android8hardware5radio4V1_114IRadioResponse24hangupConnectionResponseERKNS1_4V1_017RadioResponseInfoE"
    },
    {
     "is_pure":true,
     "mangled_component_name":"_ZN7android8hardware5radio4V1_114IRadioResponse33hangupWaitingOrBackgroundResponseERKNS1_4V1_017RadioResponseInfoE"
    },
    {
     "is_pure":true,
     "mangled_component_name":"_ZN7android8hardware5radio4V1_114IRadioResponse40hangupForegroundResumeBackgroundResponseERKNS1_4V1_017RadioResponseInfoE"
    },
    {
     "is_pure":true,
     "mangled_component_name":"_ZN7android8hardware5radio4V1_114IRadioResponse39switchWaitingOrHoldingAndActiveResponseERKNS1_4V1_017RadioResponseInfoE"
    },
    {
     "is_pure":true,
     "mangled_component_name":"_ZN7android8hardware5radio4V1_114IRadioResponse18conferenceResponseERKNS1_4V1_017RadioResponseInfoE"
    },
    {
     "is_pure":true,
     "mangled_component_name":"_ZN7android8hardware5radio4V1_114IRadioResponse18rejectCallResponseERKNS1_4V1_017RadioResponseInfoE"
    },
    {
     "is_pure":true,
     "mangled_component_name":"_ZN7android8hardware5radio4V1_114IRadioResponse28getLastCallFailCauseResponseERKNS1_4V1_017RadioResponseInfoERKNS4_21LastCallFailCauseInfoE"
    },
    {
     "is_pure":true,
     "mangled_component_name":"_ZN7android8hardware5radio4V1_114IRadioResponse25getSignalStrengthResponseERKNS1_4V1_017RadioResponseInfoERKNS4_14SignalStrengthE"
    },
    {
     "is_pure":true,
     "mangled_component_name":"_ZN7android8hardware5radio4V1_114IRadioResponse33getVoiceRegistrationStateResponseERKNS1_4V1_017RadioResponseInfoERKNS4_19VoiceRegStateResultE"
    },
    {
     "is_pure":true,
     "mangled_component_name":"_ZN7android8hardware5radio4V1_114IRadioResponse32getDataRegistrationStateResponseERKNS1_4V1_017RadioResponseInfoERKNS4_18DataRegStateResultE"
    },
    {
     "is_pure":true,
     "mangled_component_name":"_ZN7android8hardware5radio4V1_114IRadioResponse19getOperatorResponseERKNS1_4V1_017RadioResponseInfoERKNS0_11hidl_stringESA_SA_"
    },
    {
     "is_pure":true,
     "mangled_component_name":"_ZN7android8hardware5radio4V1_114IRadioResponse21setRadioPowerResponseERKNS1_4V1_017RadioResponseInfoE"
    },
    {
     "is_pure":true,
     "mangled_component_name":"_ZN7android8hardware5radio4V1_114IRadioResponse16sendDtmfResponseERKNS1_4V1_017RadioResponseInfoE"
    },
    {
     "is_pure":true,
     "mangled_component_name":"_ZN7android8hardware5radio4V1_114IRadioResponse15sendSmsResponseERKNS1_4V1_017RadioResponseInfoERKNS4_13SendSmsResultE"
    },
    {
     "is_pure":true,
     "mangled_component_name":"_ZN7android8hardware5radio4V1_114IRadioResponse25sendSMSExpectMoreResponseERKNS1_4V1_017RadioResponseInfoERKNS4_13SendSmsResultE"
    },
    {
     "is_pure":true,
     "mangled_component_name":"_ZN7android8hardware5radio4V1_114IRadioResponse21setupDataCallResponseERKNS1_4V1_017RadioResponseInfoERKNS4_19SetupDataCallResultE"
    },
    {
     "is_pure":true,
     "mangled_component_name":"_ZN7android8hardware5radio4V1_114IRadioResponse19iccIOForAppResponseERKNS1_4V1_017RadioResponseInfoERKNS4_11IccIoResultE"
    },
    {
     "is_pure":true,
     "mangled_component_name":"_ZN7android8hardware5radio4V1_114IRadioResponse16sendUssdResponseERKNS1_4V1_017RadioResponseInfoE"
    },
    {
     "is_pure":true,
     "mangled_component_name":"_ZN7android8hardware5radio4V1_114IRadioResponse25cancelPendingUssdResponseERKNS1_4V1_017RadioResponseInfoE"
    },
    {
     "is_pure":true,
     "mangled_component_name":"_ZN7android8hardware5radio4V1_114IRadioResponse15getClirResponseERKNS1_4V1_017RadioResponseInfoEii"
    },
    {
     "is_pure":true,
     "mangled_component_name":"_ZN7android8hardware5radio4V1_114IRadioResponse15setClirResponseERKNS1_4V1_017RadioResponseInfoE"
    },
    {
     "is_pure":true,
     "mangled_component_name":"_ZN7android8hardware5radio4V1_114IRadioResponse28getCallForwardStatusResponseERKNS1_4V1_017RadioResponseInfoERKNS0_8hidl_vecINS4_15CallForwardInfoEEE"
    },
    {
     "is_pure":true,
     "mangled_component_name":"_ZN7android8hardware5radio4V1_114IRadioResponse22setCallForwardResponseERKNS1_4V1_017RadioResponseInfoE"
    },
    {
     "is_pure":true,
     "mangled_component_name":"_ZN7android8hardware5radio4V1_114IRadioResponse22getCallWaitingResponseERKNS1_4V1_017RadioResponseInfoEbi"
    },
    {
     "is_pure":true,
     "mangled_component_name":"_ZN7android8hardware5radio4V1_114IRadioResponse22setCallWaitingResponseERKNS1_4V1_017RadioResponseInfoE"
    },
    {
     "is_pure":true,
     "mangled_component_name":"_ZN7android8hardware5radio4V1_114IRadioResponse37acknowledgeLastIncomingGsmSmsResponseERKNS1_4V1_017RadioResponseInfoE"
    },
    {
     "is_pure":true,
     "mangled_component_name":"_ZN7android8hardware5radio4V1_114IRadioResponse18acceptCallResponseERKNS1_4V1_017RadioResponseInfoE"
    },
    {
     "is_pure":true,
     "mangled_component_name":"_ZN7android8hardware5radio4V1_114IRadioResponse26deactivateDataCallResponseERKNS1_4V1_017RadioResponseInfoE"
    },
    {
     "is_pure":true,
     "mangled_component_name":"_ZN7android8hardware5radio4V1_114IRadioResponse29getFacilityLockForAppResponseERKNS1_4V1_017RadioResponseInfoEi"
    },
    {
     "is_pure":true,
     "mangled_component_name":"_ZN7android8hardware5radio4V1_114IRadioResponse29setFacilityLockForAppResponseERKNS1_4V1_017RadioResponseInfoEi"
    },
    {
     "is_pure":true,
     "mangled_component_name":"_ZN7android8hardware5radio4V1_114IRadioResponse26setBarringPasswordResponseERKNS1_4V1_017RadioResponseInfoE"
    },
    {
     "is_pure":true,
     "mangled_component_name":"_ZN7android8hardware5radio4V1_114IRadioResponse31getNetworkSelectionModeResponseERKNS1_4V1_017RadioResponseInfoEb"
    },
    {
     "is_pure":true,
     "mangled_component_name":"_ZN7android8hardware5radio4V1_114IRadioResponse40setNetworkSelectionModeAutomaticResponseERKNS1_4V1_017RadioResponseInfoE"
    },
    {
     "is_pure":true,
     "mangled_component_name":"_ZN7android8hardware5radio4V1_114IRadioResponse37setNetworkSelectionModeManualResponseERKNS1_4V1_017RadioResponseInfoE"
    },
    {
     "is_pure":true,
     "mangled_component_name":"_ZN7android8hardware5radio4V1_114IRadioResponse28getAvailableNetworksResponseERKNS1_4V1_017RadioResponseInfoERKNS0_8hidl_vecINS4_12OperatorInfoEEE"
    },
    {
     "is_pure":true,
     "mangled_component_name":"_ZN7android8hardware5radio4V1_114IRadioResponse17startDtmfResponseERKNS1_4V1_017RadioResponseInfoE"
    },
    {
     "is_pure":true,
     "mangled_component_name":"_ZN7android8hardware5radio4V1_114IRadioResponse16stopDtmfResponseERKNS1_4V1_017RadioResponseInfoE"
    },
    {
     "is_pure":true,
     "mangled_component_name":"_ZN7android8hardware5radio4V1_114IRadioResponse26getBasebandVersionResponseERKNS1_4V1_017RadioResponseInfoERKNS0_11hidl_stringE"
    },
    {
     "is_pure":true,
     "mangled_component_name":"_ZN7android8hardware5radio4V1_114IRadioResponse26separateConnectionResponseERKNS1_4V1_017RadioResponseInfoE"
    },
    {
     "is_pure":true,
     "mangled_component_name":"_ZN7android8hardware5radio4V1_114IRadioResponse15setMuteResponseERKNS1_4V1_017RadioResponseInfoE"
    },
    {
     "is_pure":true,
     "mangled_component_name":"_ZN7android8hardware5radio4V1_114IRadioResponse15getMuteResponseERKNS1_4V1_017RadioResponseInfoEb"
    },
    {
     "is_pure":true,
     "mangled_component_name":"_ZN7android8hardware5radio4V1_114IRadioResponse15getClipResponseERKNS1_4V1_017RadioResponseInfoENS4_10ClipStatusE"
    },
    {
     "is_pure":true,
     "mangled_component_name":"_ZN7android8hardware5radio4V1_114IRadioResponse23getDataCallListResponseERKNS1_4V1_017RadioResponseInfoERKNS0_8hidl_vecINS4_19SetupDataCallResultEEE"
    },
    {
     "is_pure":true,
     "mangled_component_name":"_ZN7android8hardware5radio4V1_114IRadioResponse35setSuppServiceNotificationsResponseERKNS1_4V1_017RadioResponseInfoE"
    },
    {
     "is_pure":true,
     "mangled_component_name":"_ZN7android8hardware5radio4V1_114IRadioResponse21writeSmsToSimResponseERKNS1_4V1_017RadioResponseInfoEi"
    },
    {
     "is_pure":true,
     "mangled_component_name":"_ZN7android8hardware5radio4V1_114IRadioResponse22deleteSmsOnSimResponseERKNS1_4V1_017RadioResponseInfoE"
    },
    {
     "is_pure":true,
     "mangled_component_name":"_ZN7android8hardware5radio4V1_114IRadioResponse19setBandModeResponseERKNS1_4V1_017RadioResponseInfoE"
    },
    {
     "is_pure":true,
     "mangled_component_name":"_ZN7android8hardware5radio4V1_114IRadioResponse29getAvailableBandModesResponseERKNS1_4V1_017RadioResponseInfoERKNS0_8hidl_vecINS4_13RadioBandModeEEE"
    },
    {
     "is_pure":true,
     "mangled_component_name":"_ZN7android8hardware5radio4V1_114IRadioResponse20sendEnvelopeResponseERKNS1_4V1_017RadioResponseInfoERKNS0_11hidl_stringE"
    },
    {
     "is_pure":true,
     "mangled_component_name":"_ZN7android8hardware5radio4V1_114IRadioResponse33sendTerminalResponseToSimResponseERKNS1_4V1_017RadioResponseInfoE"
    },
    {
     "is_pure":true,
     "mangled_component_name":"_ZN7android8hardware5radio4V1_114IRadioResponse40handleStkCallSetupRequestFromSimResponseERKNS1_4V1_017RadioResponseInfoE"
    },
    {
     "is_pure":true,
     "mangled_component_name":"_ZN7android8hardware5radio4V1_114IRadioResponse28explicitCallTransferResponseERKNS1_4V1_017RadioResponseInfoE"
    },
    {
     "is_pure":true,
     "mangled_component_name":"_ZN7android8hardware5radio4V1_114IRadioResponse31setPreferredNetworkTypeResponseERKNS1_4V1_017RadioResponseInfoE"
    },
    {
     "is_pure":true,
     "mangled_component_name":"_ZN7android8hardware5radio4V1_114IRadioResponse31getPreferredNetworkTypeResponseERKNS1_4V1_017RadioResponseInfoENS4_20PreferredNetworkTypeE"
    },
    {
     "is_pure":true,
     "mangled_component_name":"_ZN7android8hardware5radio4V1_114IRadioResponse26getNeighboringCidsResponseERKNS1_4V1_017RadioResponseInfoERKNS0_8hidl_vecINS4_15NeighboringCellEEE"
    },
    {
     "is_pure":true,
     "mangled_component_name":"_ZN7android8hardware5radio4V1_114IRadioResponse26setLocationUpdatesResponseERKNS1_4V1_017RadioResponseInfoE"
    },
    {
     "is_pure":true,
     "mangled_component_name":"_ZN7android8hardware5radio4V1_114IRadioResponse33setCdmaSubscriptionSourceResponseERKNS1_4V1_017RadioResponseInfoE"
    },
    {
     "is_pure":true,
     "mangled_component_name":"_ZN7android8hardware5radio4V1_114IRadioResponse32setCdmaRoamingPreferenceResponseERKNS1_4V1_017RadioResponseInfoE"
    },
    {
     "is_pure":true,
     "mangled_component_name":"_ZN7android8hardware5radio4V1_114IRadioResponse32getCdmaRoamingPreferenceResponseERKNS1_4V1_017RadioResponseInfoENS4_15CdmaRoamingTypeE"
    },
    {
     "is_pure":true,
     "mangled_component_name":"_ZN7android8hardware5radio4V1_114IRadioResponse18setTTYModeResponseERKNS1_4V1_017RadioResponseInfoE"
    },
    {
     "is_pure":true,
     "mangled_component_name":"_ZN7android8hardware5radio4V1_114IRadioResponse18getTTYModeResponseERKNS1_4V1_017RadioResponseInfoENS4_7TtyModeE"
    },
    {
     "is_pure":true,
     "mangled_component_name":"_ZN7android8hardware5radio4V1_114IRadioResponse32setPreferredVoicePrivacyResponseERKNS1_4V1_017RadioResponseInfoE"
    },
    {
     "is_pure":true,
     "mangled_component_name":"_ZN7android8hardware5radio4V1_114IRadioResponse32getPreferredVoicePrivacyResponseERKNS1_4V1_017RadioResponseInfoEb"
    },
    {
     "is_pure":true,
     "mangled_component_name":"_ZN7android8hardware5radio4V1_114IRadioResponse27sendCDMAFeatureCodeResponseERKNS1_4V1_017RadioResponseInfoE"
    },
    {
     "is_pure":true,
     "mangled_component_name":"_ZN7android8hardware5radio4V1_114IRadioResponse21sendBurstDtmfResponseERKNS1_4V1_017RadioResponseInfoE"
    },
    {
     "is_pure":true,
     "mangled_component_name":"_ZN7android8hardware5radio4V1_114IRadioResponse19sendCdmaSmsResponseERKNS1_4V1_017RadioResponseInfoERKNS4_13SendSmsResultE"
    },
    {
     "is_pure":true,
     "mangled_component_name":"_ZN7android8hardware5radio4V1_114IRadioResponse38acknowledgeLastIncomingCdmaSmsResponseERKNS1_4V1_017RadioResponseInfoE"
    },
    {
     "is_pure":true,
     "mangled_component_name":"_ZN7android8hardware5radio4V1_114IRadioResponse29getGsmBroadcastConfigResponseERKNS1_4V1_017RadioResponseInfoERKNS0_8hidl_vecINS4_25GsmBroadcastSmsConfigInfoEEE"
    },
    {
     "is_pure":true,
     "mangled_component_name":"_ZN7android8hardware5radio4V1_114IRadioResponse29setGsmBroadcastConfigResponseERKNS1_4V1_017RadioResponseInfoE"
    },
    {
     "is_pure":true,
     "mangled_component_name":"_ZN7android8hardware5radio4V1_114IRadioResponse33setGsmBroadcastActivationResponseERKNS1_4V1_017RadioResponseInfoE"
    },
    {
     "is_pure":true,
     "mangled_component_name":"_ZN7android8hardware5radio4V1_114IRadioResponse30getCdmaBroadcastConfigResponseERKNS1_4V1_017RadioResponseInfoERKNS0_8hidl_vecINS4_26CdmaBroadcastSmsConfigInfoEEE"
    },
    {
     "is_pure":true,
     "mangled_component_name":"_ZN7android8hardware5radio4V1_114IRadioResponse30setCdmaBroadcastConfigResponseERKNS1_4V1_017RadioResponseInfoE"
    },
    {
     "is_pure":true,
     "mangled_component_name":"_ZN7android8hardware5radio4V1_114IRadioResponse34setCdmaBroadcastActivationResponseERKNS1_4V1_017RadioResponseInfoE"
    },
    {
     "is_pure":true,
     "mangled_component_name":"_ZN7android8hardware5radio4V1_114IRadioResponse27getCDMASubscriptionResponseERKNS1_4V1_017RadioResponseInfoERKNS0_11hidl_stringESA_SA_SA_SA_"
    },
    {
     "is_pure":true,
     "mangled_component_name":"_ZN7android8hardware5radio4V1_114IRadioResponse22writeSmsToRuimResponseERKNS1_4V1_017RadioResponseInfoEj"
    },
    {
     "is_pure":true,
     "mangled_component_name":"_ZN7android8hardware5radio4V1_114IRadioResponse23deleteSmsOnRuimResponseERKNS1_4V1_017RadioResponseInfoE"
    },
    {
     "is_pure":true,
     "mangled_component_name":"_ZN7android8hardware5radio4V1_114IRadioResponse25getDeviceIdentityResponseERKNS1_4V1_017RadioResponseInfoERKNS0_11hidl_stringESA_SA_SA_"
    },
    {
     "is_pure":true,
     "mangled_component_name":"_ZN7android8hardware5radio4V1_114IRadioResponse33exitEmergencyCallbackModeResponseERKNS1_4V1_017RadioResponseInfoE"
    },
    {
     "is_pure":true,
     "mangled_component_name":"_ZN7android8hardware5radio4V1_114IRadioResponse22getSmscAddressResponseERKNS1_4V1_017RadioResponseInfoERKNS0_11hidl_stringE"
    },
    {
     "is_pure":true,
     "mangled_component_name":"_ZN7android8hardware5radio4V1_114IRadioResponse22setSmscAddressResponseERKNS1_4V1_017RadioResponseInfoE"
    },
    {
     "is_pure":true,
     "mangled_component_name":"_ZN7android8hardware5radio4V1_114IRadioResponse29reportSmsMemoryStatusResponseERKNS1_4V1_017RadioResponseInfoE"
    },
    {
     "is_pure":true,
     "mangled_component_name":"_ZN7android8hardware5radio4V1_114IRadioResponse33reportStkServiceIsRunningResponseERKNS1_4V1_017RadioResponseInfoE"
    },
    {
     "is_pure":true,
     "mangled_component_name":"_ZN7android8hardware5radio4V1_114IRadioResponse33getCdmaSubscriptionSourceResponseERKNS1_4V1_017RadioResponseInfoENS4_22CdmaSubscriptionSourceE"
    },
    {
     "is_pure":true,
     "mangled_component_name":"_ZN7android8hardware5radio4V1_114IRadioResponse33requestIsimAuthenticationResponseERKNS1_4V1_017RadioResponseInfoERKNS0_11hidl_stringE"
    },
    {
     "is_pure":true,
     "mangled_component_name":"_ZN7android8hardware5radio4V1_114IRadioResponse40acknowledgeIncomingGsmSmsWithPduResponseERKNS1_4V1_017RadioResponseInfoE"
    },
    {
     "is_pure":true,
     "mangled_component_name":"_ZN7android8hardware5radio4V1_114IRadioResponse30sendEnvelopeWithStatusResponseERKNS1_4V1_017RadioResponseInfoERKNS4_11IccIoResultE"
    },
    {
     "is_pure":true,
     "mangled_component_name":"_ZN7android8hardware5radio4V1_114IRadioResponse31getVoiceRadioTechnologyResponseERKNS1_4V1_017RadioResponseInfoENS4_15RadioTechnologyE"
    },
    {
     "is_pure":true,
     "mangled_component_name":"_ZN7android8hardware5radio4V1_114IRadioResponse23getCellInfoListResponseERKNS1_4V1_017RadioResponseInfoERKNS0_8hidl_vecINS4_8CellInfoEEE"
    },
    {
     "is_pure":true,
     "mangled_component_name":"_ZN7android8hardware5radio4V1_114IRadioResponse27setCellInfoListRateResponseERKNS1_4V1_017RadioResponseInfoE"
    },
    {
     "is_pure":true,
     "mangled_component_name":"_ZN7android8hardware5radio4V1_114IRadioResponse27setInitialAttachApnResponseERKNS1_4V1_017RadioResponseInfoE"
    },
    {
     "is_pure":true,
     "mangled_component_name":"_ZN7android8hardware5radio4V1_114IRadioResponse31getImsRegistrationStateResponseERKNS1_4V1_017RadioResponseInfoEbNS4_21RadioTechnologyFamilyE"
    },
    {
     "is_pure":true,
     "mangled_component_name":"_ZN7android8hardware5radio4V1_114IRadioResponse18sendImsSmsResponseERKNS1_4V1_017RadioResponseInfoERKNS4_13SendSmsResultE"
    },
    {
     "is_pure":true,
     "mangled_component_name":"_ZN7android8hardware5radio4V1_114IRadioResponse35iccTransmitApduBasicChannelResponseERKNS1_4V1_017RadioResponseInfoERKNS4_11IccIoResultE"
    },
    {
     "is_pure":true,
     "mangled_component_name":"_ZN7android8hardware5radio4V1_114IRadioResponse29iccOpenLogicalChannelResponseERKNS1_4V1_017RadioResponseInfoEiRKNS0_8hidl_vecIaEE"
    },
    {
     "is_pure":true,
     "mangled_component_name":"_ZN7android8hardware5radio4V1_114IRadioResponse30iccCloseLogicalChannelResponseERKNS1_4V1_017RadioResponseInfoE"
    },
    {
     "is_pure":true,
     "mangled_component_name":"_ZN7android8hardware5radio4V1_114IRadioResponse37iccTransmitApduLogicalChannelResponseERKNS1_4V1_017RadioResponseInfoERKNS4_11IccIoResultE"
    },
    {
     "is_pure":true,
     "mangled_component_name":"_ZN7android8hardware5radio4V1_114IRadioResponse18nvReadItemResponseERKNS1_4V1_017RadioResponseInfoERKNS0_11hidl_stringE"
    },
    {
     "is_pure":true,
     "mangled_component_name":"_ZN7android8hardware5radio4V1_114IRadioResponse19nvWriteItemResponseERKNS1_4V1_017RadioResponseInfoE"
    },
    {
     "is_pure":true,
     "mangled_component_name":"_ZN7android8hardware5radio4V1_114IRadioResponse22nvWriteCdmaPrlResponseERKNS1_4V1_017RadioResponseInfoE"
    },
    {
     "is_pure":true,
     "mangled_component_name":"_ZN7android8hardware5radio4V1_114IRadioResponse21nvResetConfigResponseERKNS1_4V1_017RadioResponseInfoE"
    },
    {
     "is_pure":true,
     "mangled_component_name":"_ZN7android8hardware5radio4V1_114IRadioResponse27setUiccSubscriptionResponseERKNS1_4V1_017RadioResponseInfoE"
    },
    {
     "is_pure":true,
     "mangled_component_name":"_ZN7android8hardware5radio4V1_114IRadioResponse22setDataAllowedResponseERKNS1_4V1_017RadioResponseInfoE"
    },
    {
     "is_pure":true,
     "mangled_component_name":"_ZN7android8hardware5radio4V1_114IRadioResponse25getHardwareConfigResponseERKNS1_4V1_017RadioResponseInfoERKNS0_8hidl_vecINS4_14HardwareConfigEEE"
    },
    {
     "is_pure":true,
     "mangled_component_name":"_ZN7android8hardware5radio4V1_114IRadioResponse35requestIccSimAuthenticationResponseERKNS1_4V1_017RadioResponseInfoERKNS4_11IccIoResultE"
    },
    {
     "is_pure":true,
     "mangled_component_name":"_ZN7android8hardware5radio4V1_114IRadioResponse22setDataProfileResponseERKNS1_4V1_017RadioResponseInfoE"
    },
    {
     "is_pure":true,
     "mangled_component_name":"_ZN7android8hardware5radio4V1_114IRadioResponse23requestShutdownResponseERKNS1_4V1_017RadioResponseInfoE"
    },
    {
     "is_pure":true,
     "mangled_component_name":"_ZN7android8hardware5radio4V1_114IRadioResponse26getRadioCapabilityResponseERKNS1_4V1_017RadioResponseInfoERKNS4_15RadioCapabilityE"
    },
    {
     "is_pure":true,
     "mangled_component_name":"_ZN7android8hardware5radio4V1_114IRadioResponse26setRadioCapabilityResponseERKNS1_4V1_017RadioResponseInfoERKNS4_15RadioCapabilityE"
    },
    {
     "is_pure":true,
     "mangled_component_name":"_ZN7android8hardware5radio4V1_114IRadioResponse23startLceServiceResponseERKNS1_4V1_017RadioResponseInfoERKNS4_13LceStatusInfoE"
    },
    {
     "is_pure":true,
     "mangled_component_name":"_ZN7android8hardware5radio4V1_114IRadioResponse22stopLceServiceResponseERKNS1_4V1_017RadioResponseInfoERKNS4_13LceStatusInfoE"
    },
    {
     "is_pure":true,
     "mangled_component_name":"_ZN7android8hardware5radio4V1_114IRadioResponse19pullLceDataResponseERKNS1_4V1_017RadioResponseInfoERKNS4_11LceDataInfoE"
    },
    {
     "is_pure":true,
     "mangled_component_name":"_ZN7android8hardware5radio4V1_114IRadioResponse28getModemActivityInfoResponseERKNS1_4V1_017RadioResponseInfoERKNS4_17ActivityStatsInfoE"
    },
    {
     "is_pure":true,
     "mangled_component_name":"_ZN7android8hardware5radio4V1_114IRadioResponse26setAllowedCarriersResponseERKNS1_4V1_017RadioResponseInfoEi"
    },
    {
     "is_pure":true,
     "mangled_component_name":"_ZN7android8hardware5radio4V1_114IRadioResponse26getAllowedCarriersResponseERKNS1_4V1_017RadioResponseInfoEbRKNS4_19CarrierRestrictionsE"
    },
    {
     "is_pure":true,
     "mangled_component_name":"_ZN7android8hardware5radio4V1_114IRadioResponse23sendDeviceStateResponseERKNS1_4V1_017RadioResponseInfoE"
    },
    {
     "is_pure":true,
     "mangled_component_name":"_ZN7android8hardware5radio4V1_114IRadioResponse27setIndicationFilterResponseERKNS1_4V1_017RadioResponseInfoE"
    },
    {
     "is_pure":true,
     "mangled_component_name":"_ZN7android8hardware5radio4V1_114IRadioResponse23setSimCardPowerResponseERKNS1_4V1_017RadioResponseInfoE"
    },
    {
     "is_pure":true,
     "mangled_component_name":"_ZN7android8hardware5radio4V1_114IRadioResponse18acknowledgeRequestEi"
    },
    {
     "is_pure":true,
     "mangled_component_name":"_ZN7android8hardware5radio4V1_114IRadioResponse39setCarrierInfoForImsiEncryptionResponseERKNS1_4V1_017RadioResponseInfoE"
    },
    {
     "is_pure":true,
     "mangled_component_name":"_ZN7android8hardware5radio4V1_114IRadioResponse27setSimCardPowerResponse_1_1ERKNS1_4V1_017RadioResponseInfoE"
    },
    {
     "is_pure":true,
     "mangled_component_name":"_ZN7android8hardware5radio4V1_114IRadioResponse24startNetworkScanResponseERKNS1_4V1_017RadioResponseInfoE"
    },
    {
     "is_pure":true,
     "mangled_component_name":"_ZN7android8hardware5radio4V1_114IRadioResponse23stopNetworkScanResponseERKNS1_4V1_017RadioResponseInfoE"
    },
    {
     "is_pure":true,
     "mangled_component_name":"_ZN7android8hardware5radio4V1_114IRadioResponse22startKeepaliveResponseERKNS1_4V1_017RadioResponseInfoERKNS2_15KeepaliveStatusE"
    },
    {
     "is_pure":true,
     "mangled_component_name":"_ZN7android8hardware5radio4V1_114IRadioResponse21stopKeepaliveResponseERKNS1_4V1_017RadioResponseInfoE"
    },
    {
     "kind":"vcall_offset"
    },
    {
     "kind":"vcall_offset"
    },
    {
     "kind":"vcall_offset"
    },
    {
     "kind":"vcall_offset"
    },
    {
     "kind":"vcall_offset",
     "component_value":-4
    },
    {
     "kind":"offset_to_top",
     "component_value":-4
    },
    {
     "kind":"rtti",
     "mangled_component_name":"_ZTIN7android8hardware5radio4V1_114IRadioResponseE"
    },
    {
     "kind":"complete_dtor_pointer",
     "mangled_component_name":"_ZTv0_n12_N7android8hardware5radio4V1_114IRadioResponseD1Ev"
    },
    {
     "kind":"deleting_dtor_pointer",
     "mangled_component_name":"_ZTv0_n12_N7android8hardware5radio4V1_114IRadioResponseD0Ev"
    },
    {
     "mangled_component_name":"_ZN7android7RefBase10onFirstRefEv"
    },
    {
     "mangled_component_name":"_ZN7android7RefBase15onLastStrongRefEPKv"
    },
    {
     "mangled_component_name":"_ZN7android7RefBase20onIncStrongAttemptedEjPKv"
    },
    {
     "mangled_component_name":"_ZN7android7RefBase13onLastWeakRefEPKv"
    }
   ],
   "unique_id":"_ZTSN7android8hardware5radio4V1_114IRadioResponseE"
  },
  {
   "vtable_components":[
    {
     "kind":"vbase_offset",
     "component_value":84
    },
    {
     "kind":"offset_to_top"
    },
    {
     "kind":"rtti",
     "mangled_component_name":"_ZTIN7android8hardware5radio4V1_117BpHwRadioResponseE"
    },
    {
     "mangled_component_name":"_ZNK7android8hardware5radio4V1_117BpHwRadioResponse8isRemoteEv"
    },
    {
     "mangled_component_name":"_ZN7android8hardware5radio4V1_117BpHwRadioResponse14interfaceChainENSt3__18functionIFvRKNS0_8hidl_vecINS0_11hidl_stringEEEEEE"
    },
    {
     "mangled_component_name":"_ZN7android8hardware5radio4V1_117BpHwRadioResponse5debugERKNS0_11hidl_handleERKNS0_8hidl_vecINS0_11hidl_stringEEE"
    },
    {
     "mangled_component_name":"_ZN7android8hardware5radio4V1_117BpHwRadioResponse19interfaceDescriptorENSt3__18functionIFvRKNS0_11hidl_stringEEEE"
    },
    {
     "mangled_component_name":"_ZN7android8hardware5radio4V1_117BpHwRadioResponse12getHashChainENSt3__18functionIFvRKNS0_8hidl_vecINS0_10hidl_arrayIhLj32EJEEEEEEEE"
    },
    {
     "mangled_component_name":"_ZN7android8hardware5radio4V1_117BpHwRadioResponse21setHALInstrumentationEv"
    },
    {
     "mangled_component_name":"_ZN7android8hardware5radio4V1_117BpHwRadioResponse11linkToDeathERKNS_2spINS0_20hidl_death_recipientEEEy"
    },
    {
     "mangled_component_name":"_ZN7android8hardware5radio4V1_117BpHwRadioResponse4pingEv"
    },
    {
     "mangled_component_name":"_ZN7android8hardware5radio4V1_117BpHwRadioResponse12getDebugInfoENSt3__18functionIFvRKNS_4hidl4base4V1_09DebugInfoEEEE"
    },
    {
     "mangled_component_name":"_ZN7android8hardware5radio4V1_117BpHwRadioResponse21notifySyspropsChangedEv"
    },
    {
     "mangled_component_name":"_ZN7android8hardware5radio4V1_117BpHwRadioResponse13unlinkToDeathERKNS_2spINS0_20hidl_death_recipientEEE"
    },
    {
     "kind":"complete_dtor_pointer",
     "mangled_component_name":"_ZN7android8hardware5radio4V1_117BpHwRadioResponseD1Ev"
    },
    {
     "kind":"deleting_dtor_pointer",
     "mangled_component_name":"_ZN7android8hardware5radio4V1_117BpHwRadioResponseD0Ev"
    },
    {
     "mangled_component_name":"_ZN7android8hardware5radio4V1_117BpHwRadioResponse24getIccCardStatusResponseERKNS1_4V1_017RadioResponseInfoERKNS4_10CardStatusE"
    },
    {
     "mangled_component_name":"_ZN7android8hardware5radio4V1_117BpHwRadioResponse26supplyIccPinForAppResponseERKNS1_4V1_017RadioResponseInfoEi"
    },
    {
     "mangled_component_name":"_ZN7android8hardware5radio4V1_117BpHwRadioResponse26supplyIccPukForAppResponseERKNS1_4V1_017RadioResponseInfoEi"
    },
    {
     "mangled_component_name":"_ZN7android8hardware5radio4V1_117BpHwRadioResponse27supplyIccPin2ForAppResponseERKNS1_4V1_017RadioResponseInfoEi"
    },
    {
     "mangled_component_name":"_ZN7android8hardware5radio4V1_117BpHwRadioResponse27supplyIccPuk2ForAppResponseERKNS1_4V1_017RadioResponseInfoEi"
    },
    {
     "mangled_component_name":"_ZN7android8hardware5radio4V1_117BpHwRadioResponse26changeIccPinForAppResponseERKNS1_4V1_017RadioResponseInfoEi"
    },
    {
     "mangled_component_name":"_ZN7android8hardware5radio4V1_117BpHwRadioResponse27changeIccPin2ForAppResponseERKNS1_4V1_017RadioResponseInfoEi"
    },
    {
     "mangled_component_name":"_ZN7android8hardware5radio4V1_117BpHwRadioResponse38supplyNetworkDepersonalizationResponseERKNS1_4V1_017RadioResponseInfoEi"
    },
    {
     "mangled_component_name":"_ZN7android8hardware5radio4V1_117BpHwRadioResponse23getCurrentCallsResponseERKNS1_4V1_017RadioResponseInfoERKNS0_8hidl_vecINS4_4CallEEE"
    },
    {
     "mangled_component_name":"_ZN7android8hardware5radio4V1_117BpHwRadioResponse12dialResponseERKNS1_4V1_017RadioResponseInfoE"
    },
    {
     "mangled_component_name":"_ZN7android8hardware5radio4V1_117BpHwRadioResponse21getIMSIForAppResponseERKNS1_4V1_017RadioResponseInfoERKNS0_11hidl_stringE"
    },
    {
     "mangled_component_name":"_ZN7android8hardware5radio4V1_117BpHwRadioResponse24hangupConnectionResponseERKNS1_4V1_017RadioResponseInfoE"
    },
    {
     "mangled_component_name":"_ZN7android8hardware5radio4V1_117BpHwRadioResponse33hangupWaitingOrBackgroundResponseERKNS1_4V1_017RadioResponseInfoE"
    },
    {
     "mangled_component_name":"_ZN7android8hardware5radio4V1_117BpHwRadioResponse40hangupForegroundResumeBackgroundResponseERKNS1_4V1_017RadioResponseInfoE"
    },
    {
     "mangled_component_name":"_ZN7android8hardware5radio4V1_117BpHwRadioResponse39switchWaitingOrHoldingAndActiveResponseERKNS1_4V1_017RadioResponseInfoE"
    },
    {
     "mangled_component_name":"_ZN7android8hardware5radio4V1_117BpHwRadioResponse18conferenceResponseERKNS1_4V1_017RadioResponseInfoE"
    },
    {
     "mangled_component_name":"_ZN7android8hardware5radio4V1_117BpHwRadioResponse18rejectCallResponseERKNS1_4V1_017RadioResponseInfoE"
    },
    {
     "mangled_component_name":"_ZN7android8hardware5radio4V1_117BpHwRadioResponse28getLastCallFailCauseResponseERKNS1_4V1_017RadioResponseInfoERKNS4_21LastCallFailCauseInfoE"
    },
    {
     "mangled_component_name":"_ZN7android8hardware5radio4V1_117BpHwRadioResponse25getSignalStrengthResponseERKNS1_4V1_017RadioResponseInfoERKNS4_14SignalStrengthE"
    },
    {
     "mangled_component_name":"_ZN7android8hardware5radio4V1_117BpHwRadioResponse33getVoiceRegistrationStateResponseERKNS1_4V1_017RadioResponseInfoERKNS4_19VoiceRegStateResultE"
    },
    {
     "mangled_component_name":"_ZN7android8hardware5radio4V1_117BpHwRadioResponse32getDataRegistrationStateResponseERKNS1_4V1_017RadioResponseInfoERKNS4_18DataRegStateResultE"
    },
    {
     "mangled_component_name":"_ZN7android8hardware5radio4V1_117BpHwRadioResponse19getOperatorResponseERKNS1_4V1_017RadioResponseInfoERKNS0_11hidl_stringESA_SA_"
    },
    {
     "mangled_component_name":"_ZN7android8hardware5radio4V1_117BpHwRadioResponse21setRadioPowerResponseERKNS1_4V1_017RadioResponseInfoE"
    },
    {
     "mangled_component_name":"_ZN7android8hardware5radio4V1_117BpHwRadioResponse16sendDtmfResponseERKNS1_4V1_017RadioResponseInfoE"
    },
    {
     "mangled_component_name":"_ZN7android8hardware5radio4V1_117BpHwRadioResponse15sendSmsResponseERKNS1_4V1_017RadioResponseInfoERKNS4_13SendSmsResultE"
    },
    {
     "mangled_component_name":"_ZN7android8hardware5radio4V1_117BpHwRadioResponse25sendSMSExpectMoreResponseERKNS1_4V1_017RadioResponseInfoERKNS4_13SendSmsResultE"
    },
    {
     "mangled_component_name":"_ZN7android8hardware5radio4V1_117BpHwRadioResponse21setupDataCallResponseERKNS1_4V1_017RadioResponseInfoERKNS4_19SetupDataCallResultE"
    },
    {
     "mangled_component_name":"_ZN7android8hardware5radio4V1_117BpHwRadioResponse19iccIOForAppResponseERKNS1_4V1_017RadioResponseInfoERKNS4_11IccIoResultE"
    },
    {
     "mangled_component_name":"_ZN7android8hardware5radio4V1_117BpHwRadioResponse16sendUssdResponseERKNS1_4V1_017RadioResponseInfoE"
    },
    {
     "mangled_component_name":"_ZN7android8hardware5radio4V1_117BpHwRadioResponse25cancelPendingUssdResponseERKNS1_4V1_017RadioResponseInfoE"
    },
    {
     "mangled_component_name":"_ZN7android8hardware5radio4V1_117BpHwRadioResponse15getClirResponseERKNS1_4V1_017RadioResponseInfoEii"
    },
    {
     "mangled_component_name":"_ZN7android8hardware5radio4V1_117BpHwRadioResponse15setClirResponseERKNS1_4V1_017RadioResponseInfoE"
    },
    {
     "mangled_component_name":"_ZN7android8hardware5radio4V1_117BpHwRadioResponse28getCallForwardStatusResponseERKNS1_4V1_017RadioResponseInfoERKNS0_8hidl_vecINS4_15CallForwardInfoEEE"
    },
    {
     "mangled_component_name":"_ZN7android8hardware5radio4V1_117BpHwRadioResponse22setCallForwardResponseERKNS1_4V1_017RadioResponseInfoE"
    },
    {
     "mangled_component_name":"_ZN7android8hardware5radio4V1_117BpHwRadioResponse22getCallWaitingResponseERKNS1_4V1_017RadioResponseInfoEbi"
    },
    {
     "mangled_component_name":"_ZN7android8hardware5radio4V1_117BpHwRadioResponse22setCallWaitingResponseERKNS1_4V1_017RadioResponseInfoE"
    },
    {
     "mangled_component_name":"_ZN7android8hardware5radio4V1_117BpHwRadioResponse37acknowledgeLastIncomingGsmSmsResponseERKNS1_4V1_017RadioResponseInfoE"
    },
    {
     "mangled_component_name":"_ZN7android8hardware5radio4V1_117BpHwRadioResponse18acceptCallResponseERKNS1_4V1_017RadioResponseInfoE"
    },
    {
     "mangled_component_name":"_ZN7android8hardware5radio4V1_117BpHwRadioResponse26deactivateDataCallResponseERKNS1_4V1_017RadioResponseInfoE"
    },
    {
     "mangled_component_name":"_ZN7android8hardware5radio4V1_117BpHwRadioResponse29getFacilityLockForAppResponseERKNS1_4V1_017RadioResponseInfoEi"
    },
    {
     "mangled_component_name":"_ZN7android8hardware5radio4V1_117BpHwRadioResponse29setFacilityLockForAppResponseERKNS1_4V1_017RadioResponseInfoEi"
    },
    {
     "mangled_component_name":"_ZN7android8hardware5radio4V1_117BpHwRadioResponse26setBarringPasswordResponseERKNS1_4V1_017RadioResponseInfoE"
    },
    {
     "mangled_component_name":"_ZN7android8hardware5radio4V1_117BpHwRadioResponse31getNetworkSelectionModeResponseERKNS1_4V1_017RadioResponseInfoEb"
    },
    {
     "mangled_component_name":"_ZN7android8hardware5radio4V1_117BpHwRadioResponse40setNetworkSelectionModeAutomaticResponseERKNS1_4V1_017RadioResponseInfoE"
    },
    {
     "mangled_component_name":"_ZN7android8hardware5radio4V1_117BpHwRadioResponse37setNetworkSelectionModeManualResponseERKNS1_4V1_017RadioResponseInfoE"
    },
    {
     "mangled_component_name":"_ZN7android8hardware5radio4V1_117BpHwRadioResponse28getAvailableNetworksResponseERKNS1_4V1_017RadioResponseInfoERKNS0_8hidl_vecINS4_12OperatorInfoEEE"
    },
    {
     "mangled_component_name":"_ZN7android8hardware5radio4V1_117BpHwRadioResponse17startDtmfResponseERKNS1_4V1_017RadioResponseInfoE"
    },
    {
     "mangled_component_name":"_ZN7android8hardware5radio4V1_117BpHwRadioResponse16stopDtmfResponseERKNS1_4V1_017RadioResponseInfoE"
    },
    {
     "mangled_component_name":"_ZN7android8hardware5radio4V1_117BpHwRadioResponse26getBasebandVersionResponseERKNS1_4V1_017RadioResponseInfoERKNS0_11hidl_stringE"
    },
    {
     "mangled_component_name":"_ZN7android8hardware5radio4V1_117BpHwRadioResponse26separateConnectionResponseERKNS1_4V1_017RadioResponseInfoE"
    },
    {
     "mangled_component_name":"_ZN7android8hardware5radio4V1_117BpHwRadioResponse15setMuteResponseERKNS1_4V1_017RadioResponseInfoE"
    },
    {
     "mangled_component_name":"_ZN7android8hardware5radio4V1_117BpHwRadioResponse15getMuteResponseERKNS1_4V1_017RadioResponseInfoEb"
    },
    {
     "mangled_component_name":"_ZN7android8hardware5radio4V1_117BpHwRadioResponse15getClipResponseERKNS1_4V1_017RadioResponseInfoENS4_10ClipStatusE"
    },
    {
     "mangled_component_name":"_ZN7android8hardware5radio4V1_117BpHwRadioResponse23getDataCallListResponseERKNS1_4V1_017RadioResponseInfoERKNS0_8hidl_vecINS4_19SetupDataCallResultEEE"
    },
    {
     "mangled_component_name":"_ZN7android8hardware5radio4V1_117BpHwRadioResponse35setSuppServiceNotificationsResponseERKNS1_4V1_017RadioResponseInfoE"
    },
    {
     "mangled_component_name":"_ZN7android8hardware5radio4V1_117BpHwRadioResponse21writeSmsToSimResponseERKNS1_4V1_017RadioResponseInfoEi"
    },
    {
     "mangled_component_name":"_ZN7android8hardware5radio4V1_117BpHwRadioResponse22deleteSmsOnSimResponseERKNS1_4V1_017RadioResponseInfoE"
    },
    {
     "mangled_component_name":"_ZN7android8hardware5radio4V1_117BpHwRadioResponse19setBandModeResponseERKNS1_4V1_017RadioResponseInfoE"
    },
    {
     "mangled_component_name":"_ZN7android8hardware5radio4V1_117BpHwRadioResponse29getAvailableBandModesResponseERKNS1_4V1_017RadioResponseInfoERKNS0_8hidl_vecINS4_13RadioBandModeEEE"
    },
    {
     "mangled_component_name":"_ZN7android8hardware5radio4V1_117BpHwRadioResponse20sendEnvelopeResponseERKNS1_4V1_017RadioResponseInfoERKNS0_11hidl_stringE"
    },
    {
     "mangled_component_name":"_ZN7android8hardware5radio4V1_117BpHwRadioResponse33sendTerminalResponseToSimResponseERKNS1_4V1_017RadioResponseInfoE"
    },
    {
     "mangled_component_name":"_ZN7android8hardware5radio4V1_117BpHwRadioResponse40handleStkCallSetupRequestFromSimResponseERKNS1_4V1_017RadioResponseInfoE"
    },
    {
     "mangled_component_name":"_ZN7android8hardware5radio4V1_117BpHwRadioResponse28explicitCallTransferResponseERKNS1_4V1_017RadioResponseInfoE"
    },
    {
     "mangled_component_name":"_ZN7android8hardware5radio4V1_117BpHwRadioResponse31setPreferredNetworkTypeResponseERKNS1_4V1_017RadioResponseInfoE"
    },
    {
     "mangled_component_name":"_ZN7android8hardware5radio4V1_117BpHwRadioResponse31getPreferredNetworkTypeResponseERKNS1_4V1_017RadioResponseInfoENS4_20PreferredNetworkTypeE"
    },
    {
     "mangled_component_name":"_ZN7android8hardware5radio4V1_117BpHwRadioResponse26getNeighboringCidsResponseERKNS1_4V1_017RadioResponseInfoERKNS0_8hidl_vecINS4_15NeighboringCellEEE"
    },
    {
     "mangled_component_name":"_ZN7android8hardware5radio4V1_117BpHwRadioResponse26setLocationUpdatesResponseERKNS1_4V1_017RadioResponseInfoE"
    },
    {
     "mangled_component_name":"_ZN7android8hardware5radio4V1_117BpHwRadioResponse33setCdmaSubscriptionSourceResponseERKNS1_4V1_017RadioResponseInfoE"
    },
    {
     "mangled_component_name":"_ZN7android8hardware5radio4V1_117BpHwRadioResponse32setCdmaRoamingPreferenceResponseERKNS1_4V1_017RadioResponseInfoE"
    },
    {
     "mangled_component_name":"_ZN7android8hardware5radio4V1_117BpHwRadioResponse32getCdmaRoamingPreferenceResponseERKNS1_4V1_017RadioResponseInfoENS4_15CdmaRoamingTypeE"
    },
    {
     "mangled_component_name":"_ZN7android8hardware5radio4V1_117BpHwRadioResponse18setTTYModeResponseERKNS1_4V1_017RadioResponseInfoE"
    },
    {
     "mangled_component_name":"_ZN7android8hardware5radio4V1_117BpHwRadioResponse18getTTYModeResponseERKNS1_4V1_017RadioResponseInfoENS4_7TtyModeE"
    },
    {
     "mangled_component_name":"_ZN7android8hardware5radio4V1_117BpHwRadioResponse32setPreferredVoicePrivacyResponseERKNS1_4V1_017RadioResponseInfoE"
    },
    {
     "mangled_component_name":"_ZN7android8hardware5radio4V1_117BpHwRadioResponse32getPreferredVoicePrivacyResponseERKNS1_4V1_017RadioResponseInfoEb"
    },
    {
     "mangled_component_name":"_ZN7android8hardware5radio4V1_117BpHwRadioResponse27sendCDMAFeatureCodeResponseERKNS1_4V1_017RadioResponseInfoE"
    },
    {
     "mangled_component_name":"_ZN7android8hardware5radio4V1_117BpHwRadioResponse21sendBurstDtmfResponseERKNS1_4V1_017RadioResponseInfoE"
    },
    {
     "mangled_component_name":"_ZN7android8hardware5radio4V1_117BpHwRadioResponse19sendCdmaSmsResponseERKNS1_4V1_017RadioResponseInfoERKNS4_13SendSmsResultE"
    },
    {
     "mangled_component_name":"_ZN7android8hardware5radio4V1_117BpHwRadioResponse38acknowledgeLastIncomingCdmaSmsResponseERKNS1_4V1_017RadioResponseInfoE"
    },
    {
     "mangled_component_name":"_ZN7android8hardware5radio4V1_117BpHwRadioResponse29getGsmBroadcastConfigResponseERKNS1_4V1_017RadioResponseInfoERKNS0_8hidl_vecINS4_25GsmBroadcastSmsConfigInfoEEE"
    },
    {
     "mangled_component_name":"_ZN7android8hardware5radio4V1_117BpHwRadioResponse29setGsmBroadcastConfigResponseERKNS1_4V1_017RadioResponseInfoE"
    },
    {
     "mangled_component_name":"_ZN7android8hardware5radio4V1_117BpHwRadioResponse33setGsmBroadcastActivationResponseERKNS1_4V1_017RadioResponseInfoE"
    },
    {
     "mangled_component_name":"_ZN7android8hardware5radio4V1_117BpHwRadioResponse30getCdmaBroadcastConfigResponseERKNS1_4V1_017RadioResponseInfoERKNS0_8hidl_vecINS4_26CdmaBroadcastSmsConfigInfoEEE"
    },
    {
     "mangled_component_name":"_ZN7android8hardware5radio4V1_117BpHwRadioResponse30setCdmaBroadcastConfigResponseERKNS1_4V1_017RadioResponseInfoE"
    },
    {
     "mangled_component_name":"_ZN7android8hardware5radio4V1_117BpHwRadioResponse34setCdmaBroadcastActivationResponseERKNS1_4V1_017RadioResponseInfoE"
    },
    {
     "mangled_component_name":"_ZN7android8hardware5radio4V1_117BpHwRadioResponse27getCDMASubscriptionResponseERKNS1_4V1_017RadioResponseInfoERKNS0_11hidl_stringESA_SA_SA_SA_"
    },
    {
     "mangled_component_name":"_ZN7android8hardware5radio4V1_117BpHwRadioResponse22writeSmsToRuimResponseERKNS1_4V1_017RadioResponseInfoEj"
    },
    {
     "mangled_component_name":"_ZN7android8hardware5radio4V1_117BpHwRadioResponse23deleteSmsOnRuimResponseERKNS1_4V1_017RadioResponseInfoE"
    },
    {
     "mangled_component_name":"_ZN7android8hardware5radio4V1_117BpHwRadioResponse25getDeviceIdentityResponseERKNS1_4V1_017RadioResponseInfoERKNS0_11hidl_stringESA_SA_SA_"
    },
    {
     "mangled_component_name":"_ZN7android8hardware5radio4V1_117BpHwRadioResponse33exitEmergencyCallbackModeResponseERKNS1_4V1_017RadioResponseInfoE"
    },
    {
     "mangled_component_name":"_ZN7android8hardware5radio4V1_117BpHwRadioResponse22getSmscAddressResponseERKNS1_4V1_017RadioResponseInfoERKNS0_11hidl_stringE"
    },
    {
     "mangled_component_name":"_ZN7android8hardware5radio4V1_117BpHwRadioResponse22setSmscAddressResponseERKNS1_4V1_017RadioResponseInfoE"
    },
    {
     "mangled_component_name":"_ZN7android8hardware5radio4V1_117BpHwRadioResponse29reportSmsMemoryStatusResponseERKNS1_4V1_017RadioResponseInfoE"
    },
    {
     "mangled_component_name":"_ZN7android8hardware5radio4V1_117BpHwRadioResponse33reportStkServiceIsRunningResponseERKNS1_4V1_017RadioResponseInfoE"
    },
    {
     "mangled_component_name":"_ZN7android8hardware5radio4V1_117BpHwRadioResponse33getCdmaSubscriptionSourceResponseERKNS1_4V1_017RadioResponseInfoENS4_22CdmaSubscriptionSourceE"
    },
    {
     "mangled_component_name":"_ZN7android8hardware5radio4V1_117BpHwRadioResponse33requestIsimAuthenticationResponseERKNS1_4V1_017RadioResponseInfoERKNS0_11hidl_stringE"
    },
    {
     "mangled_component_name":"_ZN7android8hardware5radio4V1_117BpHwRadioResponse40acknowledgeIncomingGsmSmsWithPduResponseERKNS1_4V1_017RadioResponseInfoE"
    },
    {
     "mangled_component_name":"_ZN7android8hardware5radio4V1_117BpHwRadioResponse30sendEnvelopeWithStatusResponseERKNS1_4V1_017RadioResponseInfoERKNS4_11IccIoResultE"
    },
    {
     "mangled_component_name":"_ZN7android8hardware5radio4V1_117BpHwRadioResponse31getVoiceRadioTechnologyResponseERKNS1_4V1_017RadioResponseInfoENS4_15RadioTechnologyE"
    },
    {
     "mangled_component_name":"_ZN7android8hardware5radio4V1_117BpHwRadioResponse23getCellInfoListResponseERKNS1_4V1_017RadioResponseInfoERKNS0_8hidl_vecINS4_8CellInfoEEE"
    },
    {
     "mangled_component_name":"_ZN7android8hardware5radio4V1_117BpHwRadioResponse27setCellInfoListRateResponseERKNS1_4V1_017RadioResponseInfoE"
    },
    {
     "mangled_component_name":"_ZN7android8hardware5radio4V1_117BpHwRadioResponse27setInitialAttachApnResponseERKNS1_4V1_017RadioResponseInfoE"
    },
    {
     "mangled_component_name":"_ZN7android8hardware5radio4V1_117BpHwRadioResponse31getImsRegistrationStateResponseERKNS1_4V1_017RadioResponseInfoEbNS4_21RadioTechnologyFamilyE"
    },
    {
     "mangled_component_name":"_ZN7android8hardware5radio4V1_117BpHwRadioResponse18sendImsSmsResponseERKNS1_4V1_017RadioResponseInfoERKNS4_13SendSmsResultE"
    },
    {
     "mangled_component_name":"_ZN7android8hardware5radio4V1_117BpHwRadioResponse35iccTransmitApduBasicChannelResponseERKNS1_4V1_017RadioResponseInfoERKNS4_11IccIoResultE"
    },
    {
     "mangled_component_name":"_ZN7android8hardware5radio4V1_117BpHwRadioResponse29iccOpenLogicalChannelResponseERKNS1_4V1_017RadioResponseInfoEiRKNS0_8hidl_vecIaEE"
    },
    {
     "mangled_component_name":"_ZN7android8hardware5radio4V1_117BpHwRadioResponse30iccCloseLogicalChannelResponseERKNS1_4V1_017RadioResponseInfoE"
    },
    {
     "mangled_component_name":"_ZN7android8hardware5radio4V1_117BpHwRadioResponse37iccTransmitApduLogicalChannelResponseERKNS1_4V1_017RadioResponseInfoERKNS4_11IccIoResultE"
    },
    {
     "mangled_component_name":"_ZN7android8hardware5radio4V1_117BpHwRadioResponse18nvReadItemResponseERKNS1_4V1_017RadioResponseInfoERKNS0_11hidl_stringE"
    },
    {
     "mangled_component_name":"_ZN7android8hardware5radio4V1_117BpHwRadioResponse19nvWriteItemResponseERKNS1_4V1_017RadioResponseInfoE"
    },
    {
     "mangled_component_name":"_ZN7android8hardware5radio4V1_117BpHwRadioResponse22nvWriteCdmaPrlResponseERKNS1_4V1_017RadioResponseInfoE"
    },
    {
     "mangled_component_name":"_ZN7android8hardware5radio4V1_117BpHwRadioResponse21nvResetConfigResponseERKNS1_4V1_017RadioResponseInfoE"
    },
    {
     "mangled_component_name":"_ZN7android8hardware5radio4V1_117BpHwRadioResponse27setUiccSubscriptionResponseERKNS1_4V1_017RadioResponseInfoE"
    },
    {
     "mangled_component_name":"_ZN7android8hardware5radio4V1_117BpHwRadioResponse22setDataAllowedResponseERKNS1_4V1_017RadioResponseInfoE"
    },
    {
     "mangled_component_name":"_ZN7android8hardware5radio4V1_117BpHwRadioResponse25getHardwareConfigResponseERKNS1_4V1_017RadioResponseInfoERKNS0_8hidl_vecINS4_14HardwareConfigEEE"
    },
    {
     "mangled_component_name":"_ZN7android8hardware5radio4V1_117BpHwRadioResponse35requestIccSimAuthenticationResponseERKNS1_4V1_017RadioResponseInfoERKNS4_11IccIoResultE"
    },
    {
     "mangled_component_name":"_ZN7android8hardware5radio4V1_117BpHwRadioResponse22setDataProfileResponseERKNS1_4V1_017RadioResponseInfoE"
    },
    {
     "mangled_component_name":"_ZN7android8hardware5radio4V1_117BpHwRadioResponse23requestShutdownResponseERKNS1_4V1_017RadioResponseInfoE"
    },
    {
     "mangled_component_name":"_ZN7android8hardware5radio4V1_117BpHwRadioResponse26getRadioCapabilityResponseERKNS1_4V1_017RadioResponseInfoERKNS4_15RadioCapabilityE"
    },
    {
     "mangled_component_name":"_ZN7android8hardware5radio4V1_117BpHwRadioResponse26setRadioCapabilityResponseERKNS1_4V1_017RadioResponseInfoERKNS4_15RadioCapabilityE"
    },
    {
     "mangled_component_name":"_ZN7android8hardware5radio4V1_117BpHwRadioResponse23startLceServiceResponseERKNS1_4V1_017RadioResponseInfoERKNS4_13LceStatusInfoE"
    },
    {
     "mangled_component_name":"_ZN7android8hardware5radio4V1_117BpHwRadioResponse22stopLceServiceResponseERKNS1_4V1_017RadioResponseInfoERKNS4_13LceStatusInfoE"
    },
    {
     "mangled_component_name":"_ZN7android8hardware5radio4V1_117BpHwRadioResponse19pullLceDataResponseERKNS1_4V1_017RadioResponseInfoERKNS4_11LceDataInfoE"
    },
    {
     "mangled_component_name":"_ZN7android8hardware5radio4V1_117BpHwRadioResponse28getModemActivityInfoResponseERKNS1_4V1_017RadioResponseInfoERKNS4_17ActivityStatsInfoE"
    },
    {
     "mangled_component_name":"_ZN7android8hardware5radio4V1_117BpHwRadioResponse26setAllowedCarriersResponseERKNS1_4V1_017RadioResponseInfoEi"
    },
    {
     "mangled_component_name":"_ZN7android8hardware5radio4V1_117BpHwRadioResponse26getAllowedCarriersResponseERKNS1_4V1_017RadioResponseInfoEbRKNS4_19CarrierRestrictionsE"
    },
    {
     "mangled_component_name":"_ZN7android8hardware5radio4V1_117BpHwRadioResponse23sendDeviceStateResponseERKNS1_4V1_017RadioResponseInfoE"
    },
    {
     "mangled_component_name":"_ZN7android8hardware5radio4V1_117BpHwRadioResponse27setIndicationFilterResponseERKNS1_4V1_017RadioResponseInfoE"
    },
    {
     "mangled_component_name":"_ZN7android8hardware5radio4V1_117BpHwRadioResponse23setSimCardPowerResponseERKNS1_4V1_017RadioResponseInfoE"
    },
    {
     "mangled_component_name":"_ZN7android8hardware5radio4V1_117BpHwRadioResponse18acknowledgeRequestEi"
    },
    {
     "mangled_component_name":"_ZN7android8hardware5radio4V1_117BpHwRadioResponse39setCarrierInfoForImsiEncryptionResponseERKNS1_4V1_017RadioResponseInfoE"
    },
    {
     "mangled_component_name":"_ZN7android8hardware5radio4V1_117BpHwRadioResponse27setSimCardPowerResponse_1_1ERKNS1_4V1_017RadioResponseInfoE"
    },
    {
     "mangled_component_name":"_ZN7android8hardware5radio4V1_117BpHwRadioResponse24startNetworkScanResponseERKNS1_4V1_017RadioResponseInfoE"
    },
    {
     "mangled_component_name":"_ZN7android8hardware5radio4V1_117BpHwRadioResponse23stopNetworkScanResponseERKNS1_4V1_017RadioResponseInfoE"
    },
    {
     "mangled_component_name":"_ZN7android8hardware5radio4V1_117BpHwRadioResponse22startKeepaliveResponseERKNS1_4V1_017RadioResponseInfoERKNS2_15KeepaliveStatusE"
    },
    {
     "mangled_component_name":"_ZN7android8hardware5radio4V1_117BpHwRadioResponse21stopKeepaliveResponseERKNS1_4V1_017RadioResponseInfoE"
    },
    {
     "mangled_component_name":"_ZN7android8hardware11BpInterfaceINS0_5radio4V1_114IRadioResponseEE10onAsBinderEv"
    },
    {
     "kind":"vbase_offset",
     "component_value":80
    },
    {
     "kind":"offset_to_top",
     "component_value":-4
    },
    {
     "kind":"rtti",
     "mangled_component_name":"_ZTIN7android8hardware5radio4V1_117BpHwRadioResponseE"
    },
    {
     "kind":"complete_dtor_pointer",
     "mangled_component_name":"_ZThn4_N7android8hardware5radio4V1_117BpHwRadioResponseD1Ev"
    },
    {
     "kind":"deleting_dtor_pointer",
     "mangled_component_name":"_ZThn4_N7android8hardware5radio4V1_117BpHwRadioResponseD0Ev"
    },
    {
     "mangled_component_name":"_ZThn4_N7android8hardware11BpInterfaceINS0_5radio4V1_114IRadioResponseEE10onAsBinderEv"
    },
    {
     "kind":"vbase_offset",
     "component_value":76
    },
    {
     "kind":"offset_to_top",
     "component_value":-8
    },
    {
     "kind":"rtti",
     "mangled_component_name":"_ZTIN7android8hardware5radio4V1_117BpHwRadioResponseE"
    },
    {
     "kind":"complete_dtor_pointer",
     "mangled_component_name":"_ZThn8_N7android8hardware5radio4V1_117BpHwRadioResponseD1Ev"
    },
    {
     "kind":"deleting_dtor_pointer",
     "mangled_component_name":"_ZThn8_N7android8hardware5radio4V1_117BpHwRadioResponseD0Ev"
    },
    {
     "mangled_component_name":"_ZN7android8hardware11BpHwRefBase10onFirstRefEv"
    },
    {
     "mangled_component_name":"_ZN7android8hardware11BpHwRefBase15onLastStrongRefEPKv"
    },
    {
     "mangled_component_name":"_ZN7android8hardware11BpHwRefBase20onIncStrongAttemptedEjPKv"
    },
    {
     "kind":"offset_to_top",
     "component_value":-24
    },
    {
     "kind":"rtti",
     "mangled_component_name":"_ZTIN7android8hardware5radio4V1_117BpHwRadioResponseE"
    },
    {
     "kind":"complete_dtor_pointer",
     "mangled_component_name":"_ZThn24_N7android8hardware5radio4V1_117BpHwRadioResponseD1Ev"
    },
    {
     "kind":"deleting_dtor_pointer",
     "mangled_component_name":"_ZThn24_N7android8hardware5radio4V1_117BpHwRadioResponseD0Ev"
    },
    {
     "kind":"vcall_offset"
    },
    {
     "kind":"vcall_offset",
     "component_value":-76
    },
    {
     "kind":"vcall_offset",
     "component_value":-76
    },
    {
     "kind":"vcall_offset",
     "component_value":-76
    },
    {
     "kind":"vcall_offset",
     "component_value":-84
    },
    {
     "kind":"offset_to_top",
     "component_value":-84
    },
    {
     "kind":"rtti",
     "mangled_component_name":"_ZTIN7android8hardware5radio4V1_117BpHwRadioResponseE"
    },
    {
     "kind":"complete_dtor_pointer",
     "mangled_component_name":"_ZTv0_n12_N7android8hardware5radio4V1_117BpHwRadioResponseD1Ev"
    },
    {
     "kind":"deleting_dtor_pointer",
     "mangled_component_name":"_ZTv0_n12_N7android8hardware5radio4V1_117BpHwRadioResponseD0Ev"
    },
    {
     "mangled_component_name":"_ZTv0_n16_N7android8hardware11BpHwRefBase10onFirstRefEv"
    },
    {
     "mangled_component_name":"_ZTv0_n20_N7android8hardware11BpHwRefBase15onLastStrongRefEPKv"
    },
    {
     "mangled_component_name":"_ZTv0_n24_N7android8hardware11BpHwRefBase20onIncStrongAttemptedEjPKv"
    },
    {
     "mangled_component_name":"_ZN7android7RefBase13onLastWeakRefEPKv"
    }
   ],
   "unique_id":"_ZTSN7android8hardware5radio4V1_117BpHwRadioResponseE"
  },
  {
   "vtable_components":[
    {
     "kind":"vbase_offset",
     "component_value":72
    },
    {
     "kind":"offset_to_top"
    },
    {
     "kind":"rtti",
     "mangled_component_name":"_ZTIN7android8hardware5radio4V1_117BnHwRadioResponseE"
    },
    {
     "mangled_component_name":"_ZN7android8hardware9BHwBinder8transactEjRKNS0_6ParcelEPS2_jNSt3__18functionIFvRS2_EEE"
    },
    {
     "mangled_component_name":"_ZN7android8hardware9BHwBinder11linkToDeathERKNS_2spINS0_7IBinder14DeathRecipientEEEPvj"
    },
    {
     "mangled_component_name":"_ZN7android8hardware9BHwBinder13unlinkToDeathERKNS_2wpINS0_7IBinder14DeathRecipientEEEPvjPS5_"
    },
    {
     "mangled_component_name":"_ZNK7android8hardware7IBinder13checkSubclassEPKv"
    },
    {
     "mangled_component_name":"_ZN7android8hardware9BHwBinder12attachObjectEPKvPvS4_PFvS3_S4_S4_E"
    },
    {
     "mangled_component_name":"_ZNK7android8hardware9BHwBinder10findObjectEPKv"
    },
    {
     "mangled_component_name":"_ZN7android8hardware9BHwBinder12detachObjectEPKv"
    },
    {
     "mangled_component_name":"_ZN7android8hardware9BHwBinder11localBinderEv"
    },
    {
     "mangled_component_name":"_ZN7android8hardware7IBinder12remoteBinderEv"
    },
    {
     "kind":"complete_dtor_pointer",
     "mangled_component_name":"_ZN7android8hardware5radio4V1_117BnHwRadioResponseD1Ev"
    },
    {
     "kind":"deleting_dtor_pointer",
     "mangled_component_name":"_ZN7android8hardware5radio4V1_117BnHwRadioResponseD0Ev"
    },
    {
     "mangled_component_name":"_ZN7android8hardware5radio4V1_117BnHwRadioResponse10onTransactEjRKNS0_6ParcelEPS4_jNSt3__18functionIFvRS4_EEE"
    },
    {
     "kind":"offset_to_top",
     "component_value":-20
    },
    {
     "kind":"rtti",
     "mangled_component_name":"_ZTIN7android8hardware5radio4V1_117BnHwRadioResponseE"
    },
    {
     "kind":"complete_dtor_pointer",
     "mangled_component_name":"_ZThn20_N7android8hardware5radio4V1_117BnHwRadioResponseD1Ev"
    },
    {
     "kind":"deleting_dtor_pointer",
     "mangled_component_name":"_ZThn20_N7android8hardware5radio4V1_117BnHwRadioResponseD0Ev"
    },
    {
     "kind":"vcall_offset"
    },
    {
     "kind":"vcall_offset"
    },
    {
     "kind":"vcall_offset"
    },
    {
     "kind":"vcall_offset"
    },
    {
     "kind":"vcall_offset",
     "component_value":-72
    },
    {
     "kind":"offset_to_top",
     "component_value":-72
    },
    {
     "kind":"rtti",
     "mangled_component_name":"_ZTIN7android8hardware5radio4V1_117BnHwRadioResponseE"
    },
    {
     "kind":"complete_dtor_pointer",
     "mangled_component_name":"_ZTv0_n12_N7android8hardware5radio4V1_117BnHwRadioResponseD1Ev"
    },
    {
     "kind":"deleting_dtor_pointer",
     "mangled_component_name":"_ZTv0_n12_N7android8hardware5radio4V1_117BnHwRadioResponseD0Ev"
    },
    {
     "mangled_component_name":"_ZN7android7RefBase10onFirstRefEv"
    },
    {
     "mangled_component_name":"_ZN7android7RefBase15onLastStrongRefEPKv"
    },
    {
     "mangled_component_name":"_ZN7android7RefBase20onIncStrongAttemptedEjPKv"
    },
    {
     "mangled_component_name":"_ZN7android7RefBase13onLastWeakRefEPKv"
    }
   ],
   "unique_id":"_ZTSN7android8hardware5radio4V1_117BnHwRadioResponseE"
  },
  {
   "vtable_components":[
    {
     "kind":"vbase_offset",
     "component_value":60
    },
    {
     "kind":"offset_to_top"
    },
    {
     "kind":"rtti",
     "mangled_component_name":"_ZTIN7android8hardware5radio4V1_115BsRadioResponseE"
    },
    {
     "mangled_component_name":"_ZNK7android8hardware5radio4V1_114IRadioResponse8isRemoteEv"
    },
    {
     "mangled_component_name":"_ZN7android8hardware5radio4V1_115BsRadioResponse14interfaceChainENSt3__18functionIFvRKNS0_8hidl_vecINS0_11hidl_stringEEEEEE"
    },
    {
     "mangled_component_name":"_ZN7android8hardware5radio4V1_115BsRadioResponse5debugERKNS0_11hidl_handleERKNS0_8hidl_vecINS0_11hidl_stringEEE"
    },
    {
     "mangled_component_name":"_ZN7android8hardware5radio4V1_115BsRadioResponse19interfaceDescriptorENSt3__18functionIFvRKNS0_11hidl_stringEEEE"
    },
    {
     "mangled_component_name":"_ZN7android8hardware5radio4V1_115BsRadioResponse12getHashChainENSt3__18functionIFvRKNS0_8hidl_vecINS0_10hidl_arrayIhLj32EJEEEEEEEE"
    },
    {
     "mangled_component_name":"_ZN7android8hardware5radio4V1_115BsRadioResponse21setHALInstrumentationEv"
    },
    {
     "mangled_component_name":"_ZN7android8hardware5radio4V1_115BsRadioResponse11linkToDeathERKNS_2spINS0_20hidl_death_recipientEEEy"
    },
    {
     "mangled_component_name":"_ZN7android8hardware5radio4V1_115BsRadioResponse4pingEv"
    },
    {
     "mangled_component_name":"_ZN7android8hardware5radio4V1_115BsRadioResponse12getDebugInfoENSt3__18functionIFvRKNS_4hidl4base4V1_09DebugInfoEEEE"
    },
    {
     "mangled_component_name":"_ZN7android8hardware5radio4V1_115BsRadioResponse21notifySyspropsChangedEv"
    },
    {
     "mangled_component_name":"_ZN7android8hardware5radio4V1_115BsRadioResponse13unlinkToDeathERKNS_2spINS0_20hidl_death_recipientEEE"
    },
    {
     "kind":"complete_dtor_pointer",
     "mangled_component_name":"_ZN7android8hardware5radio4V1_115BsRadioResponseD1Ev"
    },
    {
     "kind":"deleting_dtor_pointer",
     "mangled_component_name":"_ZN7android8hardware5radio4V1_115BsRadioResponseD0Ev"
    },
    {
     "mangled_component_name":"_ZN7android8hardware5radio4V1_115BsRadioResponse24getIccCardStatusResponseERKNS1_4V1_017RadioResponseInfoERKNS4_10CardStatusE"
    },
    {
     "mangled_component_name":"_ZN7android8hardware5radio4V1_115BsRadioResponse26supplyIccPinForAppResponseERKNS1_4V1_017RadioResponseInfoEi"
    },
    {
     "mangled_component_name":"_ZN7android8hardware5radio4V1_115BsRadioResponse26supplyIccPukForAppResponseERKNS1_4V1_017RadioResponseInfoEi"
    },
    {
     "mangled_component_name":"_ZN7android8hardware5radio4V1_115BsRadioResponse27supplyIccPin2ForAppResponseERKNS1_4V1_017RadioResponseInfoEi"
    },
    {
     "mangled_component_name":"_ZN7android8hardware5radio4V1_115BsRadioResponse27supplyIccPuk2ForAppResponseERKNS1_4V1_017RadioResponseInfoEi"
    },
    {
     "mangled_component_name":"_ZN7android8hardware5radio4V1_115BsRadioResponse26changeIccPinForAppResponseERKNS1_4V1_017RadioResponseInfoEi"
    },
    {
     "mangled_component_name":"_ZN7android8hardware5radio4V1_115BsRadioResponse27changeIccPin2ForAppResponseERKNS1_4V1_017RadioResponseInfoEi"
    },
    {
     "mangled_component_name":"_ZN7android8hardware5radio4V1_115BsRadioResponse38supplyNetworkDepersonalizationResponseERKNS1_4V1_017RadioResponseInfoEi"
    },
    {
     "mangled_component_name":"_ZN7android8hardware5radio4V1_115BsRadioResponse23getCurrentCallsResponseERKNS1_4V1_017RadioResponseInfoERKNS0_8hidl_vecINS4_4CallEEE"
    },
    {
     "mangled_component_name":"_ZN7android8hardware5radio4V1_115BsRadioResponse12dialResponseERKNS1_4V1_017RadioResponseInfoE"
    },
    {
     "mangled_component_name":"_ZN7android8hardware5radio4V1_115BsRadioResponse21getIMSIForAppResponseERKNS1_4V1_017RadioResponseInfoERKNS0_11hidl_stringE"
    },
    {
     "mangled_component_name":"_ZN7android8hardware5radio4V1_115BsRadioResponse24hangupConnectionResponseERKNS1_4V1_017RadioResponseInfoE"
    },
    {
     "mangled_component_name":"_ZN7android8hardware5radio4V1_115BsRadioResponse33hangupWaitingOrBackgroundResponseERKNS1_4V1_017RadioResponseInfoE"
    },
    {
     "mangled_component_name":"_ZN7android8hardware5radio4V1_115BsRadioResponse40hangupForegroundResumeBackgroundResponseERKNS1_4V1_017RadioResponseInfoE"
    },
    {
     "mangled_component_name":"_ZN7android8hardware5radio4V1_115BsRadioResponse39switchWaitingOrHoldingAndActiveResponseERKNS1_4V1_017RadioResponseInfoE"
    },
    {
     "mangled_component_name":"_ZN7android8hardware5radio4V1_115BsRadioResponse18conferenceResponseERKNS1_4V1_017RadioResponseInfoE"
    },
    {
     "mangled_component_name":"_ZN7android8hardware5radio4V1_115BsRadioResponse18rejectCallResponseERKNS1_4V1_017RadioResponseInfoE"
    },
    {
     "mangled_component_name":"_ZN7android8hardware5radio4V1_115BsRadioResponse28getLastCallFailCauseResponseERKNS1_4V1_017RadioResponseInfoERKNS4_21LastCallFailCauseInfoE"
    },
    {
     "mangled_component_name":"_ZN7android8hardware5radio4V1_115BsRadioResponse25getSignalStrengthResponseERKNS1_4V1_017RadioResponseInfoERKNS4_14SignalStrengthE"
    },
    {
     "mangled_component_name":"_ZN7android8hardware5radio4V1_115BsRadioResponse33getVoiceRegistrationStateResponseERKNS1_4V1_017RadioResponseInfoERKNS4_19VoiceRegStateResultE"
    },
    {
     "mangled_component_name":"_ZN7android8hardware5radio4V1_115BsRadioResponse32getDataRegistrationStateResponseERKNS1_4V1_017RadioResponseInfoERKNS4_18DataRegStateResultE"
    },
    {
     "mangled_component_name":"_ZN7android8hardware5radio4V1_115BsRadioResponse19getOperatorResponseERKNS1_4V1_017RadioResponseInfoERKNS0_11hidl_stringESA_SA_"
    },
    {
     "mangled_component_name":"_ZN7android8hardware5radio4V1_115BsRadioResponse21setRadioPowerResponseERKNS1_4V1_017RadioResponseInfoE"
    },
    {
     "mangled_component_name":"_ZN7android8hardware5radio4V1_115BsRadioResponse16sendDtmfResponseERKNS1_4V1_017RadioResponseInfoE"
    },
    {
     "mangled_component_name":"_ZN7android8hardware5radio4V1_115BsRadioResponse15sendSmsResponseERKNS1_4V1_017RadioResponseInfoERKNS4_13SendSmsResultE"
    },
    {
     "mangled_component_name":"_ZN7android8hardware5radio4V1_115BsRadioResponse25sendSMSExpectMoreResponseERKNS1_4V1_017RadioResponseInfoERKNS4_13SendSmsResultE"
    },
    {
     "mangled_component_name":"_ZN7android8hardware5radio4V1_115BsRadioResponse21setupDataCallResponseERKNS1_4V1_017RadioResponseInfoERKNS4_19SetupDataCallResultE"
    },
    {
     "mangled_component_name":"_ZN7android8hardware5radio4V1_115BsRadioResponse19iccIOForAppResponseERKNS1_4V1_017RadioResponseInfoERKNS4_11IccIoResultE"
    },
    {
     "mangled_component_name":"_ZN7android8hardware5radio4V1_115BsRadioResponse16sendUssdResponseERKNS1_4V1_017RadioResponseInfoE"
    },
    {
     "mangled_component_name":"_ZN7android8hardware5radio4V1_115BsRadioResponse25cancelPendingUssdResponseERKNS1_4V1_017RadioResponseInfoE"
    },
    {
     "mangled_component_name":"_ZN7android8hardware5radio4V1_115BsRadioResponse15getClirResponseERKNS1_4V1_017RadioResponseInfoEii"
    },
    {
     "mangled_component_name":"_ZN7android8hardware5radio4V1_115BsRadioResponse15setClirResponseERKNS1_4V1_017RadioResponseInfoE"
    },
    {
     "mangled_component_name":"_ZN7android8hardware5radio4V1_115BsRadioResponse28getCallForwardStatusResponseERKNS1_4V1_017RadioResponseInfoERKNS0_8hidl_vecINS4_15CallForwardInfoEEE"
    },
    {
     "mangled_component_name":"_ZN7android8hardware5radio4V1_115BsRadioResponse22setCallForwardResponseERKNS1_4V1_017RadioResponseInfoE"
    },
    {
     "mangled_component_name":"_ZN7android8hardware5radio4V1_115BsRadioResponse22getCallWaitingResponseERKNS1_4V1_017RadioResponseInfoEbi"
    },
    {
     "mangled_component_name":"_ZN7android8hardware5radio4V1_115BsRadioResponse22setCallWaitingResponseERKNS1_4V1_017RadioResponseInfoE"
    },
    {
     "mangled_component_name":"_ZN7android8hardware5radio4V1_115BsRadioResponse37acknowledgeLastIncomingGsmSmsResponseERKNS1_4V1_017RadioResponseInfoE"
    },
    {
     "mangled_component_name":"_ZN7android8hardware5radio4V1_115BsRadioResponse18acceptCallResponseERKNS1_4V1_017RadioResponseInfoE"
    },
    {
     "mangled_component_name":"_ZN7android8hardware5radio4V1_115BsRadioResponse26deactivateDataCallResponseERKNS1_4V1_017RadioResponseInfoE"
    },
    {
     "mangled_component_name":"_ZN7android8hardware5radio4V1_115BsRadioResponse29getFacilityLockForAppResponseERKNS1_4V1_017RadioResponseInfoEi"
    },
    {
     "mangled_component_name":"_ZN7android8hardware5radio4V1_115BsRadioResponse29setFacilityLockForAppResponseERKNS1_4V1_017RadioResponseInfoEi"
    },
    {
     "mangled_component_name":"_ZN7android8hardware5radio4V1_115BsRadioResponse26setBarringPasswordResponseERKNS1_4V1_017RadioResponseInfoE"
    },
    {
     "mangled_component_name":"_ZN7android8hardware5radio4V1_115BsRadioResponse31getNetworkSelectionModeResponseERKNS1_4V1_017RadioResponseInfoEb"
    },
    {
     "mangled_component_name":"_ZN7android8hardware5radio4V1_115BsRadioResponse40setNetworkSelectionModeAutomaticResponseERKNS1_4V1_017RadioResponseInfoE"
    },
    {
     "mangled_component_name":"_ZN7android8hardware5radio4V1_115BsRadioResponse37setNetworkSelectionModeManualResponseERKNS1_4V1_017RadioResponseInfoE"
    },
    {
     "mangled_component_name":"_ZN7android8hardware5radio4V1_115BsRadioResponse28getAvailableNetworksResponseERKNS1_4V1_017RadioResponseInfoERKNS0_8hidl_vecINS4_12OperatorInfoEEE"
    },
    {
     "mangled_component_name":"_ZN7android8hardware5radio4V1_115BsRadioResponse17startDtmfResponseERKNS1_4V1_017RadioResponseInfoE"
    },
    {
     "mangled_component_name":"_ZN7android8hardware5radio4V1_115BsRadioResponse16stopDtmfResponseERKNS1_4V1_017RadioResponseInfoE"
    },
    {
     "mangled_component_name":"_ZN7android8hardware5radio4V1_115BsRadioResponse26getBasebandVersionResponseERKNS1_4V1_017RadioResponseInfoERKNS0_11hidl_stringE"
    },
    {
     "mangled_component_name":"_ZN7android8hardware5radio4V1_115BsRadioResponse26separateConnectionResponseERKNS1_4V1_017RadioResponseInfoE"
    },
    {
     "mangled_component_name":"_ZN7android8hardware5radio4V1_115BsRadioResponse15setMuteResponseERKNS1_4V1_017RadioResponseInfoE"
    },
    {
     "mangled_component_name":"_ZN7android8hardware5radio4V1_115BsRadioResponse15getMuteResponseERKNS1_4V1_017RadioResponseInfoEb"
    },
    {
     "mangled_component_name":"_ZN7android8hardware5radio4V1_115BsRadioResponse15getClipResponseERKNS1_4V1_017RadioResponseInfoENS4_10ClipStatusE"
    },
    {
     "mangled_component_name":"_ZN7android8hardware5radio4V1_115BsRadioResponse23getDataCallListResponseERKNS1_4V1_017RadioResponseInfoERKNS0_8hidl_vecINS4_19SetupDataCallResultEEE"
    },
    {
     "mangled_component_name":"_ZN7android8hardware5radio4V1_115BsRadioResponse35setSuppServiceNotificationsResponseERKNS1_4V1_017RadioResponseInfoE"
    },
    {
     "mangled_component_name":"_ZN7android8hardware5radio4V1_115BsRadioResponse21writeSmsToSimResponseERKNS1_4V1_017RadioResponseInfoEi"
    },
    {
     "mangled_component_name":"_ZN7android8hardware5radio4V1_115BsRadioResponse22deleteSmsOnSimResponseERKNS1_4V1_017RadioResponseInfoE"
    },
    {
     "mangled_component_name":"_ZN7android8hardware5radio4V1_115BsRadioResponse19setBandModeResponseERKNS1_4V1_017RadioResponseInfoE"
    },
    {
     "mangled_component_name":"_ZN7android8hardware5radio4V1_115BsRadioResponse29getAvailableBandModesResponseERKNS1_4V1_017RadioResponseInfoERKNS0_8hidl_vecINS4_13RadioBandModeEEE"
    },
    {
     "mangled_component_name":"_ZN7android8hardware5radio4V1_115BsRadioResponse20sendEnvelopeResponseERKNS1_4V1_017RadioResponseInfoERKNS0_11hidl_stringE"
    },
    {
     "mangled_component_name":"_ZN7android8hardware5radio4V1_115BsRadioResponse33sendTerminalResponseToSimResponseERKNS1_4V1_017RadioResponseInfoE"
    },
    {
     "mangled_component_name":"_ZN7android8hardware5radio4V1_115BsRadioResponse40handleStkCallSetupRequestFromSimResponseERKNS1_4V1_017RadioResponseInfoE"
    },
    {
     "mangled_component_name":"_ZN7android8hardware5radio4V1_115BsRadioResponse28explicitCallTransferResponseERKNS1_4V1_017RadioResponseInfoE"
    },
    {
     "mangled_component_name":"_ZN7android8hardware5radio4V1_115BsRadioResponse31setPreferredNetworkTypeResponseERKNS1_4V1_017RadioResponseInfoE"
    },
    {
     "mangled_component_name":"_ZN7android8hardware5radio4V1_115BsRadioResponse31getPreferredNetworkTypeResponseERKNS1_4V1_017RadioResponseInfoENS4_20PreferredNetworkTypeE"
    },
    {
     "mangled_component_name":"_ZN7android8hardware5radio4V1_115BsRadioResponse26getNeighboringCidsResponseERKNS1_4V1_017RadioResponseInfoERKNS0_8hidl_vecINS4_15NeighboringCellEEE"
    },
    {
     "mangled_component_name":"_ZN7android8hardware5radio4V1_115BsRadioResponse26setLocationUpdatesResponseERKNS1_4V1_017RadioResponseInfoE"
    },
    {
     "mangled_component_name":"_ZN7android8hardware5radio4V1_115BsRadioResponse33setCdmaSubscriptionSourceResponseERKNS1_4V1_017RadioResponseInfoE"
    },
    {
     "mangled_component_name":"_ZN7android8hardware5radio4V1_115BsRadioResponse32setCdmaRoamingPreferenceResponseERKNS1_4V1_017RadioResponseInfoE"
    },
    {
     "mangled_component_name":"_ZN7android8hardware5radio4V1_115BsRadioResponse32getCdmaRoamingPreferenceResponseERKNS1_4V1_017RadioResponseInfoENS4_15CdmaRoamingTypeE"
    },
    {
     "mangled_component_name":"_ZN7android8hardware5radio4V1_115BsRadioResponse18setTTYModeResponseERKNS1_4V1_017RadioResponseInfoE"
    },
    {
     "mangled_component_name":"_ZN7android8hardware5radio4V1_115BsRadioResponse18getTTYModeResponseERKNS1_4V1_017RadioResponseInfoENS4_7TtyModeE"
    },
    {
     "mangled_component_name":"_ZN7android8hardware5radio4V1_115BsRadioResponse32setPreferredVoicePrivacyResponseERKNS1_4V1_017RadioResponseInfoE"
    },
    {
     "mangled_component_name":"_ZN7android8hardware5radio4V1_115BsRadioResponse32getPreferredVoicePrivacyResponseERKNS1_4V1_017RadioResponseInfoEb"
    },
    {
     "mangled_component_name":"_ZN7android8hardware5radio4V1_115BsRadioResponse27sendCDMAFeatureCodeResponseERKNS1_4V1_017RadioResponseInfoE"
    },
    {
     "mangled_component_name":"_ZN7android8hardware5radio4V1_115BsRadioResponse21sendBurstDtmfResponseERKNS1_4V1_017RadioResponseInfoE"
    },
    {
     "mangled_component_name":"_ZN7android8hardware5radio4V1_115BsRadioResponse19sendCdmaSmsResponseERKNS1_4V1_017RadioResponseInfoERKNS4_13SendSmsResultE"
    },
    {
     "mangled_component_name":"_ZN7android8hardware5radio4V1_115BsRadioResponse38acknowledgeLastIncomingCdmaSmsResponseERKNS1_4V1_017RadioResponseInfoE"
    },
    {
     "mangled_component_name":"_ZN7android8hardware5radio4V1_115BsRadioResponse29getGsmBroadcastConfigResponseERKNS1_4V1_017RadioResponseInfoERKNS0_8hidl_vecINS4_25GsmBroadcastSmsConfigInfoEEE"
    },
    {
     "mangled_component_name":"_ZN7android8hardware5radio4V1_115BsRadioResponse29setGsmBroadcastConfigResponseERKNS1_4V1_017RadioResponseInfoE"
    },
    {
     "mangled_component_name":"_ZN7android8hardware5radio4V1_115BsRadioResponse33setGsmBroadcastActivationResponseERKNS1_4V1_017RadioResponseInfoE"
    },
    {
     "mangled_component_name":"_ZN7android8hardware5radio4V1_115BsRadioResponse30getCdmaBroadcastConfigResponseERKNS1_4V1_017RadioResponseInfoERKNS0_8hidl_vecINS4_26CdmaBroadcastSmsConfigInfoEEE"
    },
    {
     "mangled_component_name":"_ZN7android8hardware5radio4V1_115BsRadioResponse30setCdmaBroadcastConfigResponseERKNS1_4V1_017RadioResponseInfoE"
    },
    {
     "mangled_component_name":"_ZN7android8hardware5radio4V1_115BsRadioResponse34setCdmaBroadcastActivationResponseERKNS1_4V1_017RadioResponseInfoE"
    },
    {
     "mangled_component_name":"_ZN7android8hardware5radio4V1_115BsRadioResponse27getCDMASubscriptionResponseERKNS1_4V1_017RadioResponseInfoERKNS0_11hidl_stringESA_SA_SA_SA_"
    },
    {
     "mangled_component_name":"_ZN7android8hardware5radio4V1_115BsRadioResponse22writeSmsToRuimResponseERKNS1_4V1_017RadioResponseInfoEj"
    },
    {
     "mangled_component_name":"_ZN7android8hardware5radio4V1_115BsRadioResponse23deleteSmsOnRuimResponseERKNS1_4V1_017RadioResponseInfoE"
    },
    {
     "mangled_component_name":"_ZN7android8hardware5radio4V1_115BsRadioResponse25getDeviceIdentityResponseERKNS1_4V1_017RadioResponseInfoERKNS0_11hidl_stringESA_SA_SA_"
    },
    {
     "mangled_component_name":"_ZN7android8hardware5radio4V1_115BsRadioResponse33exitEmergencyCallbackModeResponseERKNS1_4V1_017RadioResponseInfoE"
    },
    {
     "mangled_component_name":"_ZN7android8hardware5radio4V1_115BsRadioResponse22getSmscAddressResponseERKNS1_4V1_017RadioResponseInfoERKNS0_11hidl_stringE"
    },
    {
     "mangled_component_name":"_ZN7android8hardware5radio4V1_115BsRadioResponse22setSmscAddressResponseERKNS1_4V1_017RadioResponseInfoE"
    },
    {
     "mangled_component_name":"_ZN7android8hardware5radio4V1_115BsRadioResponse29reportSmsMemoryStatusResponseERKNS1_4V1_017RadioResponseInfoE"
    },
    {
     "mangled_component_name":"_ZN7android8hardware5radio4V1_115BsRadioResponse33reportStkServiceIsRunningResponseERKNS1_4V1_017RadioResponseInfoE"
    },
    {
     "mangled_component_name":"_ZN7android8hardware5radio4V1_115BsRadioResponse33getCdmaSubscriptionSourceResponseERKNS1_4V1_017RadioResponseInfoENS4_22CdmaSubscriptionSourceE"
    },
    {
     "mangled_component_name":"_ZN7android8hardware5radio4V1_115BsRadioResponse33requestIsimAuthenticationResponseERKNS1_4V1_017RadioResponseInfoERKNS0_11hidl_stringE"
    },
    {
     "mangled_component_name":"_ZN7android8hardware5radio4V1_115BsRadioResponse40acknowledgeIncomingGsmSmsWithPduResponseERKNS1_4V1_017RadioResponseInfoE"
    },
    {
     "mangled_component_name":"_ZN7android8hardware5radio4V1_115BsRadioResponse30sendEnvelopeWithStatusResponseERKNS1_4V1_017RadioResponseInfoERKNS4_11IccIoResultE"
    },
    {
     "mangled_component_name":"_ZN7android8hardware5radio4V1_115BsRadioResponse31getVoiceRadioTechnologyResponseERKNS1_4V1_017RadioResponseInfoENS4_15RadioTechnologyE"
    },
    {
     "mangled_component_name":"_ZN7android8hardware5radio4V1_115BsRadioResponse23getCellInfoListResponseERKNS1_4V1_017RadioResponseInfoERKNS0_8hidl_vecINS4_8CellInfoEEE"
    },
    {
     "mangled_component_name":"_ZN7android8hardware5radio4V1_115BsRadioResponse27setCellInfoListRateResponseERKNS1_4V1_017RadioResponseInfoE"
    },
    {
     "mangled_component_name":"_ZN7android8hardware5radio4V1_115BsRadioResponse27setInitialAttachApnResponseERKNS1_4V1_017RadioResponseInfoE"
    },
    {
     "mangled_component_name":"_ZN7android8hardware5radio4V1_115BsRadioResponse31getImsRegistrationStateResponseERKNS1_4V1_017RadioResponseInfoEbNS4_21RadioTechnologyFamilyE"
    },
    {
     "mangled_component_name":"_ZN7android8hardware5radio4V1_115BsRadioResponse18sendImsSmsResponseERKNS1_4V1_017RadioResponseInfoERKNS4_13SendSmsResultE"
    },
    {
     "mangled_component_name":"_ZN7android8hardware5radio4V1_115BsRadioResponse35iccTransmitApduBasicChannelResponseERKNS1_4V1_017RadioResponseInfoERKNS4_11IccIoResultE"
    },
    {
     "mangled_component_name":"_ZN7android8hardware5radio4V1_115BsRadioResponse29iccOpenLogicalChannelResponseERKNS1_4V1_017RadioResponseInfoEiRKNS0_8hidl_vecIaEE"
    },
    {
     "mangled_component_name":"_ZN7android8hardware5radio4V1_115BsRadioResponse30iccCloseLogicalChannelResponseERKNS1_4V1_017RadioResponseInfoE"
    },
    {
     "mangled_component_name":"_ZN7android8hardware5radio4V1_115BsRadioResponse37iccTransmitApduLogicalChannelResponseERKNS1_4V1_017RadioResponseInfoERKNS4_11IccIoResultE"
    },
    {
     "mangled_component_name":"_ZN7android8hardware5radio4V1_115BsRadioResponse18nvReadItemResponseERKNS1_4V1_017RadioResponseInfoERKNS0_11hidl_stringE"
    },
    {
     "mangled_component_name":"_ZN7android8hardware5radio4V1_115BsRadioResponse19nvWriteItemResponseERKNS1_4V1_017RadioResponseInfoE"
    },
    {
     "mangled_component_name":"_ZN7android8hardware5radio4V1_115BsRadioResponse22nvWriteCdmaPrlResponseERKNS1_4V1_017RadioResponseInfoE"
    },
    {
     "mangled_component_name":"_ZN7android8hardware5radio4V1_115BsRadioResponse21nvResetConfigResponseERKNS1_4V1_017RadioResponseInfoE"
    },
    {
     "mangled_component_name":"_ZN7android8hardware5radio4V1_115BsRadioResponse27setUiccSubscriptionResponseERKNS1_4V1_017RadioResponseInfoE"
    },
    {
     "mangled_component_name":"_ZN7android8hardware5radio4V1_115BsRadioResponse22setDataAllowedResponseERKNS1_4V1_017RadioResponseInfoE"
    },
    {
     "mangled_component_name":"_ZN7android8hardware5radio4V1_115BsRadioResponse25getHardwareConfigResponseERKNS1_4V1_017RadioResponseInfoERKNS0_8hidl_vecINS4_14HardwareConfigEEE"
    },
    {
     "mangled_component_name":"_ZN7android8hardware5radio4V1_115BsRadioResponse35requestIccSimAuthenticationResponseERKNS1_4V1_017RadioResponseInfoERKNS4_11IccIoResultE"
    },
    {
     "mangled_component_name":"_ZN7android8hardware5radio4V1_115BsRadioResponse22setDataProfileResponseERKNS1_4V1_017RadioResponseInfoE"
    },
    {
     "mangled_component_name":"_ZN7android8hardware5radio4V1_115BsRadioResponse23requestShutdownResponseERKNS1_4V1_017RadioResponseInfoE"
    },
    {
     "mangled_component_name":"_ZN7android8hardware5radio4V1_115BsRadioResponse26getRadioCapabilityResponseERKNS1_4V1_017RadioResponseInfoERKNS4_15RadioCapabilityE"
    },
    {
     "mangled_component_name":"_ZN7android8hardware5radio4V1_115BsRadioResponse26setRadioCapabilityResponseERKNS1_4V1_017RadioResponseInfoERKNS4_15RadioCapabilityE"
    },
    {
     "mangled_component_name":"_ZN7android8hardware5radio4V1_115BsRadioResponse23startLceServiceResponseERKNS1_4V1_017RadioResponseInfoERKNS4_13LceStatusInfoE"
    },
    {
     "mangled_component_name":"_ZN7android8hardware5radio4V1_115BsRadioResponse22stopLceServiceResponseERKNS1_4V1_017RadioResponseInfoERKNS4_13LceStatusInfoE"
    },
    {
     "mangled_component_name":"_ZN7android8hardware5radio4V1_115BsRadioResponse19pullLceDataResponseERKNS1_4V1_017RadioResponseInfoERKNS4_11LceDataInfoE"
    },
    {
     "mangled_component_name":"_ZN7android8hardware5radio4V1_115BsRadioResponse28getModemActivityInfoResponseERKNS1_4V1_017RadioResponseInfoERKNS4_17ActivityStatsInfoE"
    },
    {
     "mangled_component_name":"_ZN7android8hardware5radio4V1_115BsRadioResponse26setAllowedCarriersResponseERKNS1_4V1_017RadioResponseInfoEi"
    },
    {
     "mangled_component_name":"_ZN7android8hardware5radio4V1_115BsRadioResponse26getAllowedCarriersResponseERKNS1_4V1_017RadioResponseInfoEbRKNS4_19CarrierRestrictionsE"
    },
    {
     "mangled_component_name":"_ZN7android8hardware5radio4V1_115BsRadioResponse23sendDeviceStateResponseERKNS1_4V1_017RadioResponseInfoE"
    },
    {
     "mangled_component_name":"_ZN7android8hardware5radio4V1_115BsRadioResponse27setIndicationFilterResponseERKNS1_4V1_017RadioResponseInfoE"
    },
    {
     "mangled_component_name":"_ZN7android8hardware5radio4V1_115BsRadioResponse23setSimCardPowerResponseERKNS1_4V1_017RadioResponseInfoE"
    },
    {
     "mangled_component_name":"_ZN7android8hardware5radio4V1_115BsRadioResponse18acknowledgeRequestEi"
    },
    {
     "mangled_component_name":"_ZN7android8hardware5radio4V1_115BsRadioResponse39setCarrierInfoForImsiEncryptionResponseERKNS1_4V1_017RadioResponseInfoE"
    },
    {
     "mangled_component_name":"_ZN7android8hardware5radio4V1_115BsRadioResponse27setSimCardPowerResponse_1_1ERKNS1_4V1_017RadioResponseInfoE"
    },
    {
     "mangled_component_name":"_ZN7android8hardware5radio4V1_115BsRadioResponse24startNetworkScanResponseERKNS1_4V1_017RadioResponseInfoE"
    },
    {
     "mangled_component_name":"_ZN7android8hardware5radio4V1_115BsRadioResponse23stopNetworkScanResponseERKNS1_4V1_017RadioResponseInfoE"
    },
    {
     "mangled_component_name":"_ZN7android8hardware5radio4V1_115BsRadioResponse22startKeepaliveResponseERKNS1_4V1_017RadioResponseInfoERKNS2_15KeepaliveStatusE"
    },
    {
     "mangled_component_name":"_ZN7android8hardware5radio4V1_115BsRadioResponse21stopKeepaliveResponseERKNS1_4V1_017RadioResponseInfoE"
    },
    {
     "kind":"offset_to_top",
     "component_value":-4
    },
    {
     "kind":"rtti",
     "mangled_component_name":"_ZTIN7android8hardware5radio4V1_115BsRadioResponseE"
    },
    {
     "kind":"complete_dtor_pointer",
     "mangled_component_name":"_ZThn4_N7android8hardware5radio4V1_115BsRadioResponseD1Ev"
    },
    {
     "kind":"deleting_dtor_pointer",
     "mangled_component_name":"_ZThn4_N7android8hardware5radio4V1_115BsRadioResponseD0Ev"
    },
    {
     "kind":"vcall_offset"
    },
    {
     "kind":"vcall_offset"
    },
    {
     "kind":"vcall_offset"
    },
    {
     "kind":"vcall_offset"
    },
    {
     "kind":"vcall_offset",
     "component_value":-60
    },
    {
     "kind":"offset_to_top",
     "component_value":-60
    },
    {
     "kind":"rtti",
     "mangled_component_name":"_ZTIN7android8hardware5radio4V1_115BsRadioResponseE"
    },
    {
     "kind":"complete_dtor_pointer",
     "mangled_component_name":"_ZTv0_n12_N7android8hardware5radio4V1_115BsRadioResponseD1Ev"
    },
    {
     "kind":"deleting_dtor_pointer",
     "mangled_component_name":"_ZTv0_n12_N7android8hardware5radio4V1_115BsRadioResponseD0Ev"
    },
    {
     "mangled_component_name":"_ZN7android7RefBase10onFirstRefEv"
    },
    {
     "mangled_component_name":"_ZN7android7RefBase15onLastStrongRefEPKv"
    },
    {
     "mangled_component_name":"_ZN7android7RefBase20onIncStrongAttemptedEjPKv"
    },
    {
     "mangled_component_name":"_ZN7android7RefBase13onLastWeakRefEPKv"
    }
   ],
   "unique_id":"_ZTSN7android8hardware5radio4V1_115BsRadioResponseE"
  },
  {
   "vtable_components":[
    {
     "kind":"vbase_offset",
     "component_value":4
    },
    {
     "kind":"offset_to_top"
    },
    {
     "kind":"rtti",
     "mangled_component_name":"_ZTIN7android8hardware5radio4V1_14ISapE"
    },
    {
     "mangled_component_name":"_ZNK7android8hardware5radio4V1_14ISap8isRemoteEv"
    },
    {
     "mangled_component_name":"_ZN7android8hardware5radio4V1_14ISap14interfaceChainENSt3__18functionIFvRKNS0_8hidl_vecINS0_11hidl_stringEEEEEE"
    },
    {
     "mangled_component_name":"_ZN7android8hardware5radio4V1_14ISap5debugERKNS0_11hidl_handleERKNS0_8hidl_vecINS0_11hidl_stringEEE"
    },
    {
     "mangled_component_name":"_ZN7android8hardware5radio4V1_14ISap19interfaceDescriptorENSt3__18functionIFvRKNS0_11hidl_stringEEEE"
    },
    {
     "mangled_component_name":"_ZN7android8hardware5radio4V1_14ISap12getHashChainENSt3__18functionIFvRKNS0_8hidl_vecINS0_10hidl_arrayIhLj32EJEEEEEEEE"
    },
    {
     "mangled_component_name":"_ZN7android8hardware5radio4V1_14ISap21setHALInstrumentationEv"
    },
    {
     "mangled_component_name":"_ZN7android8hardware5radio4V1_14ISap11linkToDeathERKNS_2spINS0_20hidl_death_recipientEEEy"
    },
    {
     "mangled_component_name":"_ZN7android8hardware5radio4V1_14ISap4pingEv"
    },
    {
     "mangled_component_name":"_ZN7android8hardware5radio4V1_14ISap12getDebugInfoENSt3__18functionIFvRKNS_4hidl4base4V1_09DebugInfoEEEE"
    },
    {
     "mangled_component_name":"_ZN7android8hardware5radio4V1_14ISap21notifySyspropsChangedEv"
    },
    {
     "mangled_component_name":"_ZN7android8hardware5radio4V1_14ISap13unlinkToDeathERKNS_2spINS0_20hidl_death_recipientEEE"
    },
    {
     "kind":"complete_dtor_pointer",
     "mangled_component_name":"_ZN7android8hardware5radio4V1_14ISapD1Ev"
    },
    {
     "kind":"deleting_dtor_pointer",
     "mangled_component_name":"_ZN7android8hardware5radio4V1_14ISapD0Ev"
    },
    {
     "is_pure":true,
     "mangled_component_name":"_ZN7android8hardware5radio4V1_14ISap11setCallbackERKNS_2spINS1_4V1_012ISapCallbackEEE"
    },
    {
     "is_pure":true,
     "mangled_component_name":"_ZN7android8hardware5radio4V1_14ISap10connectReqEii"
    },
    {
     "is_pure":true,
     "mangled_component_name":"_ZN7android8hardware5radio4V1_14ISap13disconnectReqEi"
    },
    {
     "is_pure":true,
     "mangled_component_name":"_ZN7android8hardware5radio4V1_14ISap7apduReqEiNS1_4V1_011SapApduTypeERKNS0_8hidl_vecIhEE"
    },
    {
     "is_pure":true,
     "mangled_component_name":"_ZN7android8hardware5radio4V1_14ISap14transferAtrReqEi"
    },
    {
     "is_pure":true,
     "mangled_component_name":"_ZN7android8hardware5radio4V1_14ISap8powerReqEib"
    },
    {
     "is_pure":true,
     "mangled_component_name":"_ZN7android8hardware5radio4V1_14ISap11resetSimReqEi"
    },
    {
     "is_pure":true,
     "mangled_component_name":"_ZN7android8hardware5radio4V1_14ISap27transferCardReaderStatusReqEi"
    },
    {
     "is_pure":true,
     "mangled_component_name":"_ZN7android8hardware5radio4V1_14ISap22setTransferProtocolReqEiNS1_4V1_019SapTransferProtocolE"
    },
    {
     "kind":"vcall_offset"
    },
    {
     "kind":"vcall_offset"
    },
    {
     "kind":"vcall_offset"
    },
    {
     "kind":"vcall_offset"
    },
    {
     "kind":"vcall_offset",
     "component_value":-4
    },
    {
     "kind":"offset_to_top",
     "component_value":-4
    },
    {
     "kind":"rtti",
     "mangled_component_name":"_ZTIN7android8hardware5radio4V1_14ISapE"
    },
    {
     "kind":"complete_dtor_pointer",
     "mangled_component_name":"_ZTv0_n12_N7android8hardware5radio4V1_14ISapD1Ev"
    },
    {
     "kind":"deleting_dtor_pointer",
     "mangled_component_name":"_ZTv0_n12_N7android8hardware5radio4V1_14ISapD0Ev"
    },
    {
     "mangled_component_name":"_ZN7android7RefBase10onFirstRefEv"
    },
    {
     "mangled_component_name":"_ZN7android7RefBase15onLastStrongRefEPKv"
    },
    {
     "mangled_component_name":"_ZN7android7RefBase20onIncStrongAttemptedEjPKv"
    },
    {
     "mangled_component_name":"_ZN7android7RefBase13onLastWeakRefEPKv"
    }
   ],
   "unique_id":"_ZTSN7android8hardware5radio4V1_14ISapE"
  },
  {
   "vtable_components":[
    {
     "kind":"vbase_offset",
     "component_value":84
    },
    {
     "kind":"offset_to_top"
    },
    {
     "kind":"rtti",
     "mangled_component_name":"_ZTIN7android8hardware5radio4V1_17BpHwSapE"
    },
    {
     "mangled_component_name":"_ZNK7android8hardware5radio4V1_17BpHwSap8isRemoteEv"
    },
    {
     "mangled_component_name":"_ZN7android8hardware5radio4V1_17BpHwSap14interfaceChainENSt3__18functionIFvRKNS0_8hidl_vecINS0_11hidl_stringEEEEEE"
    },
    {
     "mangled_component_name":"_ZN7android8hardware5radio4V1_17BpHwSap5debugERKNS0_11hidl_handleERKNS0_8hidl_vecINS0_11hidl_stringEEE"
    },
    {
     "mangled_component_name":"_ZN7android8hardware5radio4V1_17BpHwSap19interfaceDescriptorENSt3__18functionIFvRKNS0_11hidl_stringEEEE"
    },
    {
     "mangled_component_name":"_ZN7android8hardware5radio4V1_17BpHwSap12getHashChainENSt3__18functionIFvRKNS0_8hidl_vecINS0_10hidl_arrayIhLj32EJEEEEEEEE"
    },
    {
     "mangled_component_name":"_ZN7android8hardware5radio4V1_17BpHwSap21setHALInstrumentationEv"
    },
    {
     "mangled_component_name":"_ZN7android8hardware5radio4V1_17BpHwSap11linkToDeathERKNS_2spINS0_20hidl_death_recipientEEEy"
    },
    {
     "mangled_component_name":"_ZN7android8hardware5radio4V1_17BpHwSap4pingEv"
    },
    {
     "mangled_component_name":"_ZN7android8hardware5radio4V1_17BpHwSap12getDebugInfoENSt3__18functionIFvRKNS_4hidl4base4V1_09DebugInfoEEEE"
    },
    {
     "mangled_component_name":"_ZN7android8hardware5radio4V1_17BpHwSap21notifySyspropsChangedEv"
    },
    {
     "mangled_component_name":"_ZN7android8hardware5radio4V1_17BpHwSap13unlinkToDeathERKNS_2spINS0_20hidl_death_recipientEEE"
    },
    {
     "kind":"complete_dtor_pointer",
     "mangled_component_name":"_ZN7android8hardware5radio4V1_17BpHwSapD1Ev"
    },
    {
     "kind":"deleting_dtor_pointer",
     "mangled_component_name":"_ZN7android8hardware5radio4V1_17BpHwSapD0Ev"
    },
    {
     "mangled_component_name":"_ZN7android8hardware5radio4V1_17BpHwSap11setCallbackERKNS_2spINS1_4V1_012ISapCallbackEEE"
    },
    {
     "mangled_component_name":"_ZN7android8hardware5radio4V1_17BpHwSap10connectReqEii"
    },
    {
     "mangled_component_name":"_ZN7android8hardware5radio4V1_17BpHwSap13disconnectReqEi"
    },
    {
     "mangled_component_name":"_ZN7android8hardware5radio4V1_17BpHwSap7apduReqEiNS1_4V1_011SapApduTypeERKNS0_8hidl_vecIhEE"
    },
    {
     "mangled_component_name":"_ZN7android8hardware5radio4V1_17BpHwSap14transferAtrReqEi"
    },
    {
     "mangled_component_name":"_ZN7android8hardware5radio4V1_17BpHwSap8powerReqEib"
    },
    {
     "mangled_component_name":"_ZN7android8hardware5radio4V1_17BpHwSap11resetSimReqEi"
    },
    {
     "mangled_component_name":"_ZN7android8hardware5radio4V1_17BpHwSap27transferCardReaderStatusReqEi"
    },
    {
     "mangled_component_name":"_ZN7android8hardware5radio4V1_17BpHwSap22setTransferProtocolReqEiNS1_4V1_019SapTransferProtocolE"
    },
    {
     "mangled_component_name":"_ZN7android8hardware11BpInterfaceINS0_5radio4V1_14ISapEE10onAsBinderEv"
    },
    {
     "kind":"vbase_offset",
     "component_value":80
    },
    {
     "kind":"offset_to_top",
     "component_value":-4
    },
    {
     "kind":"rtti",
     "mangled_component_name":"_ZTIN7android8hardware5radio4V1_17BpHwSapE"
    },
    {
     "kind":"complete_dtor_pointer",
     "mangled_component_name":"_ZThn4_N7android8hardware5radio4V1_17BpHwSapD1Ev"
    },
    {
     "kind":"deleting_dtor_pointer",
     "mangled_component_name":"_ZThn4_N7android8hardware5radio4V1_17BpHwSapD0Ev"
    },
    {
     "mangled_component_name":"_ZThn4_N7android8hardware11BpInterfaceINS0_5radio4V1_14ISapEE10onAsBinderEv"
    },
    {
     "kind":"vbase_offset",
     "component_value":76
    },
    {
     "kind":"offset_to_top",
     "component_value":-8
    },
    {
     "kind":"rtti",
     "mangled_component_name":"_ZTIN7android8hardware5radio4V1_17BpHwSapE"
    },
    {
     "kind":"complete_dtor_pointer",
     "mangled_component_name":"_ZThn8_N7android8hardware5radio4V1_17BpHwSapD1Ev"
    },
    {
     "kind":"deleting_dtor_pointer",
     "mangled_component_name":"_ZThn8_N7android8hardware5radio4V1_17BpHwSapD0Ev"
    },
    {
     "mangled_component_name":"_ZN7android8hardware11BpHwRefBase10onFirstRefEv"
    },
    {
     "mangled_component_name":"_ZN7android8hardware11BpHwRefBase15onLastStrongRefEPKv"
    },
    {
     "mangled_component_name":"_ZN7android8hardware11BpHwRefBase20onIncStrongAttemptedEjPKv"
    },
    {
     "kind":"offset_to_top",
     "component_value":-24
    },
    {
     "kind":"rtti",
     "mangled_component_name":"_ZTIN7android8hardware5radio4V1_17BpHwSapE"
    },
    {
     "kind":"complete_dtor_pointer",
     "mangled_component_name":"_ZThn24_N7android8hardware5radio4V1_17BpHwSapD1Ev"
    },
    {
     "kind":"deleting_dtor_pointer",
     "mangled_component_name":"_ZThn24_N7android8hardware5radio4V1_17BpHwSapD0Ev"
    },
    {
     "kind":"vcall_offset"
    },
    {
     "kind":"vcall_offset",
     "component_value":-76
    },
    {
     "kind":"vcall_offset",
     "component_value":-76
    },
    {
     "kind":"vcall_offset",
     "component_value":-76
    },
    {
     "kind":"vcall_offset",
     "component_value":-84
    },
    {
     "kind":"offset_to_top",
     "component_value":-84
    },
    {
     "kind":"rtti",
     "mangled_component_name":"_ZTIN7android8hardware5radio4V1_17BpHwSapE"
    },
    {
     "kind":"complete_dtor_pointer",
     "mangled_component_name":"_ZTv0_n12_N7android8hardware5radio4V1_17BpHwSapD1Ev"
    },
    {
     "kind":"deleting_dtor_pointer",
     "mangled_component_name":"_ZTv0_n12_N7android8hardware5radio4V1_17BpHwSapD0Ev"
    },
    {
     "mangled_component_name":"_ZTv0_n16_N7android8hardware11BpHwRefBase10onFirstRefEv"
    },
    {
     "mangled_component_name":"_ZTv0_n20_N7android8hardware11BpHwRefBase15onLastStrongRefEPKv"
    },
    {
     "mangled_component_name":"_ZTv0_n24_N7android8hardware11BpHwRefBase20onIncStrongAttemptedEjPKv"
    },
    {
     "mangled_component_name":"_ZN7android7RefBase13onLastWeakRefEPKv"
    }
   ],
   "unique_id":"_ZTSN7android8hardware5radio4V1_17BpHwSapE"
  },
  {
   "vtable_components":[
    {
     "kind":"vbase_offset",
     "component_value":72
    },
    {
     "kind":"offset_to_top"
    },
    {
     "kind":"rtti",
     "mangled_component_name":"_ZTIN7android8hardware5radio4V1_17BnHwSapE"
    },
    {
     "mangled_component_name":"_ZN7android8hardware9BHwBinder8transactEjRKNS0_6ParcelEPS2_jNSt3__18functionIFvRS2_EEE"
    },
    {
     "mangled_component_name":"_ZN7android8hardware9BHwBinder11linkToDeathERKNS_2spINS0_7IBinder14DeathRecipientEEEPvj"
    },
    {
     "mangled_component_name":"_ZN7android8hardware9BHwBinder13unlinkToDeathERKNS_2wpINS0_7IBinder14DeathRecipientEEEPvjPS5_"
    },
    {
     "mangled_component_name":"_ZNK7android8hardware7IBinder13checkSubclassEPKv"
    },
    {
     "mangled_component_name":"_ZN7android8hardware9BHwBinder12attachObjectEPKvPvS4_PFvS3_S4_S4_E"
    },
    {
     "mangled_component_name":"_ZNK7android8hardware9BHwBinder10findObjectEPKv"
    },
    {
     "mangled_component_name":"_ZN7android8hardware9BHwBinder12detachObjectEPKv"
    },
    {
     "mangled_component_name":"_ZN7android8hardware9BHwBinder11localBinderEv"
    },
    {
     "mangled_component_name":"_ZN7android8hardware7IBinder12remoteBinderEv"
    },
    {
     "kind":"complete_dtor_pointer",
     "mangled_component_name":"_ZN7android8hardware5radio4V1_17BnHwSapD1Ev"
    },
    {
     "kind":"deleting_dtor_pointer",
     "mangled_component_name":"_ZN7android8hardware5radio4V1_17BnHwSapD0Ev"
    },
    {
     "mangled_component_name":"_ZN7android8hardware5radio4V1_17BnHwSap10onTransactEjRKNS0_6ParcelEPS4_jNSt3__18functionIFvRS4_EEE"
    },
    {
     "kind":"offset_to_top",
     "component_value":-20
    },
    {
     "kind":"rtti",
     "mangled_component_name":"_ZTIN7android8hardware5radio4V1_17BnHwSapE"
    },
    {
     "kind":"complete_dtor_pointer",
     "mangled_component_name":"_ZThn20_N7android8hardware5radio4V1_17BnHwSapD1Ev"
    },
    {
     "kind":"deleting_dtor_pointer",
     "mangled_component_name":"_ZThn20_N7android8hardware5radio4V1_17BnHwSapD0Ev"
    },
    {
     "kind":"vcall_offset"
    },
    {
     "kind":"vcall_offset"
    },
    {
     "kind":"vcall_offset"
    },
    {
     "kind":"vcall_offset"
    },
    {
     "kind":"vcall_offset",
     "component_value":-72
    },
    {
     "kind":"offset_to_top",
     "component_value":-72
    },
    {
     "kind":"rtti",
     "mangled_component_name":"_ZTIN7android8hardware5radio4V1_17BnHwSapE"
    },
    {
     "kind":"complete_dtor_pointer",
     "mangled_component_name":"_ZTv0_n12_N7android8hardware5radio4V1_17BnHwSapD1Ev"
    },
    {
     "kind":"deleting_dtor_pointer",
     "mangled_component_name":"_ZTv0_n12_N7android8hardware5radio4V1_17BnHwSapD0Ev"
    },
    {
     "mangled_component_name":"_ZN7android7RefBase10onFirstRefEv"
    },
    {
     "mangled_component_name":"_ZN7android7RefBase15onLastStrongRefEPKv"
    },
    {
     "mangled_component_name":"_ZN7android7RefBase20onIncStrongAttemptedEjPKv"
    },
    {
     "mangled_component_name":"_ZN7android7RefBase13onLastWeakRefEPKv"
    }
   ],
   "unique_id":"_ZTSN7android8hardware5radio4V1_17BnHwSapE"
  },
  {
   "vtable_components":[
    {
     "kind":"vbase_offset",
     "component_value":60
    },
    {
     "kind":"offset_to_top"
    },
    {
     "kind":"rtti",
     "mangled_component_name":"_ZTIN7android8hardware5radio4V1_15BsSapE"
    },
    {
     "mangled_component_name":"_ZNK7android8hardware5radio4V1_14ISap8isRemoteEv"
    },
    {
     "mangled_component_name":"_ZN7android8hardware5radio4V1_15BsSap14interfaceChainENSt3__18functionIFvRKNS0_8hidl_vecINS0_11hidl_stringEEEEEE"
    },
    {
     "mangled_component_name":"_ZN7android8hardware5radio4V1_15BsSap5debugERKNS0_11hidl_handleERKNS0_8hidl_vecINS0_11hidl_stringEEE"
    },
    {
     "mangled_component_name":"_ZN7android8hardware5radio4V1_15BsSap19interfaceDescriptorENSt3__18functionIFvRKNS0_11hidl_stringEEEE"
    },
    {
     "mangled_component_name":"_ZN7android8hardware5radio4V1_15BsSap12getHashChainENSt3__18functionIFvRKNS0_8hidl_vecINS0_10hidl_arrayIhLj32EJEEEEEEEE"
    },
    {
     "mangled_component_name":"_ZN7android8hardware5radio4V1_15BsSap21setHALInstrumentationEv"
    },
    {
     "mangled_component_name":"_ZN7android8hardware5radio4V1_15BsSap11linkToDeathERKNS_2spINS0_20hidl_death_recipientEEEy"
    },
    {
     "mangled_component_name":"_ZN7android8hardware5radio4V1_15BsSap4pingEv"
    },
    {
     "mangled_component_name":"_ZN7android8hardware5radio4V1_15BsSap12getDebugInfoENSt3__18functionIFvRKNS_4hidl4base4V1_09DebugInfoEEEE"
    },
    {
     "mangled_component_name":"_ZN7android8hardware5radio4V1_15BsSap21notifySyspropsChangedEv"
    },
    {
     "mangled_component_name":"_ZN7android8hardware5radio4V1_15BsSap13unlinkToDeathERKNS_2spINS0_20hidl_death_recipientEEE"
    },
    {
     "kind":"complete_dtor_pointer",
     "mangled_component_name":"_ZN7android8hardware5radio4V1_15BsSapD1Ev"
    },
    {
     "kind":"deleting_dtor_pointer",
     "mangled_component_name":"_ZN7android8hardware5radio4V1_15BsSapD0Ev"
    },
    {
     "mangled_component_name":"_ZN7android8hardware5radio4V1_15BsSap11setCallbackERKNS_2spINS1_4V1_012ISapCallbackEEE"
    },
    {
     "mangled_component_name":"_ZN7android8hardware5radio4V1_15BsSap10connectReqEii"
    },
    {
     "mangled_component_name":"_ZN7android8hardware5radio4V1_15BsSap13disconnectReqEi"
    },
    {
     "mangled_component_name":"_ZN7android8hardware5radio4V1_15BsSap7apduReqEiNS1_4V1_011SapApduTypeERKNS0_8hidl_vecIhEE"
    },
    {
     "mangled_component_name":"_ZN7android8hardware5radio4V1_15BsSap14transferAtrReqEi"
    },
    {
     "mangled_component_name":"_ZN7android8hardware5radio4V1_15BsSap8powerReqEib"
    },
    {
     "mangled_component_name":"_ZN7android8hardware5radio4V1_15BsSap11resetSimReqEi"
    },
    {
     "mangled_component_name":"_ZN7android8hardware5radio4V1_15BsSap27transferCardReaderStatusReqEi"
    },
    {
     "mangled_component_name":"_ZN7android8hardware5radio4V1_15BsSap22setTransferProtocolReqEiNS1_4V1_019SapTransferProtocolE"
    },
    {
     "kind":"offset_to_top",
     "component_value":-4
    },
    {
     "kind":"rtti",
     "mangled_component_name":"_ZTIN7android8hardware5radio4V1_15BsSapE"
    },
    {
     "kind":"complete_dtor_pointer",
     "mangled_component_name":"_ZThn4_N7android8hardware5radio4V1_15BsSapD1Ev"
    },
    {
     "kind":"deleting_dtor_pointer",
     "mangled_component_name":"_ZThn4_N7android8hardware5radio4V1_15BsSapD0Ev"
    },
    {
     "kind":"vcall_offset"
    },
    {
     "kind":"vcall_offset"
    },
    {
     "kind":"vcall_offset"
    },
    {
     "kind":"vcall_offset"
    },
    {
     "kind":"vcall_offset",
     "component_value":-60
    },
    {
     "kind":"offset_to_top",
     "component_value":-60
    },
    {
     "kind":"rtti",
     "mangled_component_name":"_ZTIN7android8hardware5radio4V1_15BsSapE"
    },
    {
     "kind":"complete_dtor_pointer",
     "mangled_component_name":"_ZTv0_n12_N7android8hardware5radio4V1_15BsSapD1Ev"
    },
    {
     "kind":"deleting_dtor_pointer",
     "mangled_component_name":"_ZTv0_n12_N7android8hardware5radio4V1_15BsSapD0Ev"
    },
    {
     "mangled_component_name":"_ZN7android7RefBase10onFirstRefEv"
    },
    {
     "mangled_component_name":"_ZN7android7RefBase15onLastStrongRefEPKv"
    },
    {
     "mangled_component_name":"_ZN7android7RefBase20onIncStrongAttemptedEjPKv"
    },
    {
     "mangled_component_name":"_ZN7android7RefBase13onLastWeakRefEPKv"
    }
   ],
   "unique_id":"_ZTSN7android8hardware5radio4V1_15BsSapE"
  },
  {
   "vtable_components":[
    {
     "kind":"vbase_offset",
     "component_value":84
    },
    {
     "kind":"offset_to_top"
    },
    {
     "kind":"rtti",
     "mangled_component_name":"_ZTIN7android8hardware5radio4V1_19BpHwRadioE"
    },
    {
     "mangled_component_name":"_ZNK7android8hardware5radio4V1_19BpHwRadio8isRemoteEv"
    },
    {
     "mangled_component_name":"_ZN7android8hardware5radio4V1_19BpHwRadio14interfaceChainENSt3__18functionIFvRKNS0_8hidl_vecINS0_11hidl_stringEEEEEE"
    },
    {
     "mangled_component_name":"_ZN7android8hardware5radio4V1_19BpHwRadio5debugERKNS0_11hidl_handleERKNS0_8hidl_vecINS0_11hidl_stringEEE"
    },
    {
     "mangled_component_name":"_ZN7android8hardware5radio4V1_19BpHwRadio19interfaceDescriptorENSt3__18functionIFvRKNS0_11hidl_stringEEEE"
    },
    {
     "mangled_component_name":"_ZN7android8hardware5radio4V1_19BpHwRadio12getHashChainENSt3__18functionIFvRKNS0_8hidl_vecINS0_10hidl_arrayIhLj32EJEEEEEEEE"
    },
    {
     "mangled_component_name":"_ZN7android8hardware5radio4V1_19BpHwRadio21setHALInstrumentationEv"
    },
    {
     "mangled_component_name":"_ZN7android8hardware5radio4V1_19BpHwRadio11linkToDeathERKNS_2spINS0_20hidl_death_recipientEEEy"
    },
    {
     "mangled_component_name":"_ZN7android8hardware5radio4V1_19BpHwRadio4pingEv"
    },
    {
     "mangled_component_name":"_ZN7android8hardware5radio4V1_19BpHwRadio12getDebugInfoENSt3__18functionIFvRKNS_4hidl4base4V1_09DebugInfoEEEE"
    },
    {
     "mangled_component_name":"_ZN7android8hardware5radio4V1_19BpHwRadio21notifySyspropsChangedEv"
    },
    {
     "mangled_component_name":"_ZN7android8hardware5radio4V1_19BpHwRadio13unlinkToDeathERKNS_2spINS0_20hidl_death_recipientEEE"
    },
    {
     "kind":"complete_dtor_pointer",
     "mangled_component_name":"_ZN7android8hardware5radio4V1_19BpHwRadioD1Ev"
    },
    {
     "kind":"deleting_dtor_pointer",
     "mangled_component_name":"_ZN7android8hardware5radio4V1_19BpHwRadioD0Ev"
    },
    {
     "mangled_component_name":"_ZN7android8hardware5radio4V1_19BpHwRadio20setResponseFunctionsERKNS_2spINS1_4V1_014IRadioResponseEEERKNS4_INS5_16IRadioIndicationEEE"
    },
    {
     "mangled_component_name":"_ZN7android8hardware5radio4V1_19BpHwRadio16getIccCardStatusEi"
    },
    {
     "mangled_component_name":"_ZN7android8hardware5radio4V1_19BpHwRadio18supplyIccPinForAppEiRKNS0_11hidl_stringES6_"
    },
    {
     "mangled_component_name":"_ZN7android8hardware5radio4V1_19BpHwRadio18supplyIccPukForAppEiRKNS0_11hidl_stringES6_S6_"
    },
    {
     "mangled_component_name":"_ZN7android8hardware5radio4V1_19BpHwRadio19supplyIccPin2ForAppEiRKNS0_11hidl_stringES6_"
    },
    {
     "mangled_component_name":"_ZN7android8hardware5radio4V1_19BpHwRadio19supplyIccPuk2ForAppEiRKNS0_11hidl_stringES6_S6_"
    },
    {
     "mangled_component_name":"_ZN7android8hardware5radio4V1_19BpHwRadio18changeIccPinForAppEiRKNS0_11hidl_stringES6_S6_"
    },
    {
     "mangled_component_name":"_ZN7android8hardware5radio4V1_19BpHwRadio19changeIccPin2ForAppEiRKNS0_11hidl_stringES6_S6_"
    },
    {
     "mangled_component_name":"_ZN7android8hardware5radio4V1_19BpHwRadio30supplyNetworkDepersonalizationEiRKNS0_11hidl_stringE"
    },
    {
     "mangled_component_name":"_ZN7android8hardware5radio4V1_19BpHwRadio15getCurrentCallsEi"
    },
    {
     "mangled_component_name":"_ZN7android8hardware5radio4V1_19BpHwRadio4dialEiRKNS1_4V1_04DialE"
    },
    {
     "mangled_component_name":"_ZN7android8hardware5radio4V1_19BpHwRadio13getImsiForAppEiRKNS0_11hidl_stringE"
    },
    {
     "mangled_component_name":"_ZN7android8hardware5radio4V1_19BpHwRadio6hangupEii"
    },
    {
     "mangled_component_name":"_ZN7android8hardware5radio4V1_19BpHwRadio25hangupWaitingOrBackgroundEi"
    },
    {
     "mangled_component_name":"_ZN7android8hardware5radio4V1_19BpHwRadio32hangupForegroundResumeBackgroundEi"
    },
    {
     "mangled_component_name":"_ZN7android8hardware5radio4V1_19BpHwRadio31switchWaitingOrHoldingAndActiveEi"
    },
    {
     "mangled_component_name":"_ZN7android8hardware5radio4V1_19BpHwRadio10conferenceEi"
    },
    {
     "mangled_component_name":"_ZN7android8hardware5radio4V1_19BpHwRadio10rejectCallEi"
    },
    {
     "mangled_component_name":"_ZN7android8hardware5radio4V1_19BpHwRadio20getLastCallFailCauseEi"
    },
    {
     "mangled_component_name":"_ZN7android8hardware5radio4V1_19BpHwRadio17getSignalStrengthEi"
    },
    {
     "mangled_component_name":"_ZN7android8hardware5radio4V1_19BpHwRadio25getVoiceRegistrationStateEi"
    },
    {
     "mangled_component_name":"_ZN7android8hardware5radio4V1_19BpHwRadio24getDataRegistrationStateEi"
    },
    {
     "mangled_component_name":"_ZN7android8hardware5radio4V1_19BpHwRadio11getOperatorEi"
    },
    {
     "mangled_component_name":"_ZN7android8hardware5radio4V1_19BpHwRadio13setRadioPowerEib"
    },
    {
     "mangled_component_name":"_ZN7android8hardware5radio4V1_19BpHwRadio8sendDtmfEiRKNS0_11hidl_stringE"
    },
    {
     "mangled_component_name":"_ZN7android8hardware5radio4V1_19BpHwRadio7sendSmsEiRKNS1_4V1_013GsmSmsMessageE"
    },
    {
     "mangled_component_name":"_ZN7android8hardware5radio4V1_19BpHwRadio17sendSMSExpectMoreEiRKNS1_4V1_013GsmSmsMessageE"
    },
    {
     "mangled_component_name":"_ZN7android8hardware5radio4V1_19BpHwRadio13setupDataCallEiNS1_4V1_015RadioTechnologyERKNS4_15DataProfileInfoEbbb"
    },
    {
     "mangled_component_name":"_ZN7android8hardware5radio4V1_19BpHwRadio11iccIOForAppEiRKNS1_4V1_05IccIoE"
    },
    {
     "mangled_component_name":"_ZN7android8hardware5radio4V1_19BpHwRadio8sendUssdEiRKNS0_11hidl_stringE"
    },
    {
     "mangled_component_name":"_ZN7android8hardware5radio4V1_19BpHwRadio17cancelPendingUssdEi"
    },
    {
     "mangled_component_name":"_ZN7android8hardware5radio4V1_19BpHwRadio7getClirEi"
    },
    {
     "mangled_component_name":"_ZN7android8hardware5radio4V1_19BpHwRadio7setClirEii"
    },
    {
     "mangled_component_name":"_ZN7android8hardware5radio4V1_19BpHwRadio20getCallForwardStatusEiRKNS1_4V1_015CallForwardInfoE"
    },
    {
     "mangled_component_name":"_ZN7android8hardware5radio4V1_19BpHwRadio14setCallForwardEiRKNS1_4V1_015CallForwardInfoE"
    },
    {
     "mangled_component_name":"_ZN7android8hardware5radio4V1_19BpHwRadio14getCallWaitingEii"
    },
    {
     "mangled_component_name":"_ZN7android8hardware5radio4V1_19BpHwRadio14setCallWaitingEibi"
    },
    {
     "mangled_component_name":"_ZN7android8hardware5radio4V1_19BpHwRadio29acknowledgeLastIncomingGsmSmsEibNS1_4V1_023SmsAcknowledgeFailCauseE"
    },
    {
     "mangled_component_name":"_ZN7android8hardware5radio4V1_19BpHwRadio10acceptCallEi"
    },
    {
     "mangled_component_name":"_ZN7android8hardware5radio4V1_19BpHwRadio18deactivateDataCallEiib"
    },
    {
     "mangled_component_name":"_ZN7android8hardware5radio4V1_19BpHwRadio21getFacilityLockForAppEiRKNS0_11hidl_stringES6_iS6_"
    },
    {
     "mangled_component_name":"_ZN7android8hardware5radio4V1_19BpHwRadio21setFacilityLockForAppEiRKNS0_11hidl_stringEbS6_iS6_"
    },
    {
     "mangled_component_name":"_ZN7android8hardware5radio4V1_19BpHwRadio18setBarringPasswordEiRKNS0_11hidl_stringES6_S6_"
    },
    {
     "mangled_component_name":"_ZN7android8hardware5radio4V1_19BpHwRadio23getNetworkSelectionModeEi"
    },
    {
     "mangled_component_name":"_ZN7android8hardware5radio4V1_19BpHwRadio32setNetworkSelectionModeAutomaticEi"
    },
    {
     "mangled_component_name":"_ZN7android8hardware5radio4V1_19BpHwRadio29setNetworkSelectionModeManualEiRKNS0_11hidl_stringE"
    },
    {
     "mangled_component_name":"_ZN7android8hardware5radio4V1_19BpHwRadio20getAvailableNetworksEi"
    },
    {
     "mangled_component_name":"_ZN7android8hardware5radio4V1_19BpHwRadio9startDtmfEiRKNS0_11hidl_stringE"
    },
    {
     "mangled_component_name":"_ZN7android8hardware5radio4V1_19BpHwRadio8stopDtmfEi"
    },
    {
     "mangled_component_name":"_ZN7android8hardware5radio4V1_19BpHwRadio18getBasebandVersionEi"
    },
    {
     "mangled_component_name":"_ZN7android8hardware5radio4V1_19BpHwRadio18separateConnectionEii"
    },
    {
     "mangled_component_name":"_ZN7android8hardware5radio4V1_19BpHwRadio7setMuteEib"
    },
    {
     "mangled_component_name":"_ZN7android8hardware5radio4V1_19BpHwRadio7getMuteEi"
    },
    {
     "mangled_component_name":"_ZN7android8hardware5radio4V1_19BpHwRadio7getClipEi"
    },
    {
     "mangled_component_name":"_ZN7android8hardware5radio4V1_19BpHwRadio15getDataCallListEi"
    },
    {
     "mangled_component_name":"_ZN7android8hardware5radio4V1_19BpHwRadio27setSuppServiceNotificationsEib"
    },
    {
     "mangled_component_name":"_ZN7android8hardware5radio4V1_19BpHwRadio13writeSmsToSimEiRKNS1_4V1_012SmsWriteArgsE"
    },
    {
     "mangled_component_name":"_ZN7android8hardware5radio4V1_19BpHwRadio14deleteSmsOnSimEii"
    },
    {
     "mangled_component_name":"_ZN7android8hardware5radio4V1_19BpHwRadio11setBandModeEiNS1_4V1_013RadioBandModeE"
    },
    {
     "mangled_component_name":"_ZN7android8hardware5radio4V1_19BpHwRadio21getAvailableBandModesEi"
    },
    {
     "mangled_component_name":"_ZN7android8hardware5radio4V1_19BpHwRadio12sendEnvelopeEiRKNS0_11hidl_stringE"
    },
    {
     "mangled_component_name":"_ZN7android8hardware5radio4V1_19BpHwRadio25sendTerminalResponseToSimEiRKNS0_11hidl_stringE"
    },
    {
     "mangled_component_name":"_ZN7android8hardware5radio4V1_19BpHwRadio32handleStkCallSetupRequestFromSimEib"
    },
    {
     "mangled_component_name":"_ZN7android8hardware5radio4V1_19BpHwRadio20explicitCallTransferEi"
    },
    {
     "mangled_component_name":"_ZN7android8hardware5radio4V1_19BpHwRadio23setPreferredNetworkTypeEiNS1_4V1_020PreferredNetworkTypeE"
    },
    {
     "mangled_component_name":"_ZN7android8hardware5radio4V1_19BpHwRadio23getPreferredNetworkTypeEi"
    },
    {
     "mangled_component_name":"_ZN7android8hardware5radio4V1_19BpHwRadio18getNeighboringCidsEi"
    },
    {
     "mangled_component_name":"_ZN7android8hardware5radio4V1_19BpHwRadio18setLocationUpdatesEib"
    },
    {
     "mangled_component_name":"_ZN7android8hardware5radio4V1_19BpHwRadio25setCdmaSubscriptionSourceEiNS1_4V1_022CdmaSubscriptionSourceE"
    },
    {
     "mangled_component_name":"_ZN7android8hardware5radio4V1_19BpHwRadio24setCdmaRoamingPreferenceEiNS1_4V1_015CdmaRoamingTypeE"
    },
    {
     "mangled_component_name":"_ZN7android8hardware5radio4V1_19BpHwRadio24getCdmaRoamingPreferenceEi"
    },
    {
     "mangled_component_name":"_ZN7android8hardware5radio4V1_19BpHwRadio10setTTYModeEiNS1_4V1_07TtyModeE"
    },
    {
     "mangled_component_name":"_ZN7android8hardware5radio4V1_19BpHwRadio10getTTYModeEi"
    },
    {
     "mangled_component_name":"_ZN7android8hardware5radio4V1_19BpHwRadio24setPreferredVoicePrivacyEib"
    },
    {
     "mangled_component_name":"_ZN7android8hardware5radio4V1_19BpHwRadio24getPreferredVoicePrivacyEi"
    },
    {
     "mangled_component_name":"_ZN7android8hardware5radio4V1_19BpHwRadio19sendCDMAFeatureCodeEiRKNS0_11hidl_stringE"
    },
    {
     "mangled_component_name":"_ZN7android8hardware5radio4V1_19BpHwRadio13sendBurstDtmfEiRKNS0_11hidl_stringEii"
    },
    {
     "mangled_component_name":"_ZN7android8hardware5radio4V1_19BpHwRadio11sendCdmaSmsEiRKNS1_4V1_014CdmaSmsMessageE"
    },
    {
     "mangled_component_name":"_ZN7android8hardware5radio4V1_19BpHwRadio30acknowledgeLastIncomingCdmaSmsEiRKNS1_4V1_010CdmaSmsAckE"
    },
    {
     "mangled_component_name":"_ZN7android8hardware5radio4V1_19BpHwRadio21getGsmBroadcastConfigEi"
    },
    {
     "mangled_component_name":"_ZN7android8hardware5radio4V1_19BpHwRadio21setGsmBroadcastConfigEiRKNS0_8hidl_vecINS1_4V1_025GsmBroadcastSmsConfigInfoEEE"
    },
    {
     "mangled_component_name":"_ZN7android8hardware5radio4V1_19BpHwRadio25setGsmBroadcastActivationEib"
    },
    {
     "mangled_component_name":"_ZN7android8hardware5radio4V1_19BpHwRadio22getCdmaBroadcastConfigEi"
    },
    {
     "mangled_component_name":"_ZN7android8hardware5radio4V1_19BpHwRadio22setCdmaBroadcastConfigEiRKNS0_8hidl_vecINS1_4V1_026CdmaBroadcastSmsConfigInfoEEE"
    },
    {
     "mangled_component_name":"_ZN7android8hardware5radio4V1_19BpHwRadio26setCdmaBroadcastActivationEib"
    },
    {
     "mangled_component_name":"_ZN7android8hardware5radio4V1_19BpHwRadio19getCDMASubscriptionEi"
    },
    {
     "mangled_component_name":"_ZN7android8hardware5radio4V1_19BpHwRadio14writeSmsToRuimEiRKNS1_4V1_016CdmaSmsWriteArgsE"
    },
    {
     "mangled_component_name":"_ZN7android8hardware5radio4V1_19BpHwRadio15deleteSmsOnRuimEii"
    },
    {
     "mangled_component_name":"_ZN7android8hardware5radio4V1_19BpHwRadio17getDeviceIdentityEi"
    },
    {
     "mangled_component_name":"_ZN7android8hardware5radio4V1_19BpHwRadio25exitEmergencyCallbackModeEi"
    },
    {
     "mangled_component_name":"_ZN7android8hardware5radio4V1_19BpHwRadio14getSmscAddressEi"
    },
    {
     "mangled_component_name":"_ZN7android8hardware5radio4V1_19BpHwRadio14setSmscAddressEiRKNS0_11hidl_stringE"
    },
    {
     "mangled_component_name":"_ZN7android8hardware5radio4V1_19BpHwRadio21reportSmsMemoryStatusEib"
    },
    {
     "mangled_component_name":"_ZN7android8hardware5radio4V1_19BpHwRadio25reportStkServiceIsRunningEi"
    },
    {
     "mangled_component_name":"_ZN7android8hardware5radio4V1_19BpHwRadio25getCdmaSubscriptionSourceEi"
    },
    {
     "mangled_component_name":"_ZN7android8hardware5radio4V1_19BpHwRadio25requestIsimAuthenticationEiRKNS0_11hidl_stringE"
    },
    {
     "mangled_component_name":"_ZN7android8hardware5radio4V1_19BpHwRadio32acknowledgeIncomingGsmSmsWithPduEibRKNS0_11hidl_stringE"
    },
    {
     "mangled_component_name":"_ZN7android8hardware5radio4V1_19BpHwRadio22sendEnvelopeWithStatusEiRKNS0_11hidl_stringE"
    },
    {
     "mangled_component_name":"_ZN7android8hardware5radio4V1_19BpHwRadio23getVoiceRadioTechnologyEi"
    },
    {
     "mangled_component_name":"_ZN7android8hardware5radio4V1_19BpHwRadio15getCellInfoListEi"
    },
    {
     "mangled_component_name":"_ZN7android8hardware5radio4V1_19BpHwRadio19setCellInfoListRateEii"
    },
    {
     "mangled_component_name":"_ZN7android8hardware5radio4V1_19BpHwRadio19setInitialAttachApnEiRKNS1_4V1_015DataProfileInfoEbb"
    },
    {
     "mangled_component_name":"_ZN7android8hardware5radio4V1_19BpHwRadio23getImsRegistrationStateEi"
    },
    {
     "mangled_component_name":"_ZN7android8hardware5radio4V1_19BpHwRadio10sendImsSmsEiRKNS1_4V1_013ImsSmsMessageE"
    },
    {
     "mangled_component_name":"_ZN7android8hardware5radio4V1_19BpHwRadio27iccTransmitApduBasicChannelEiRKNS1_4V1_07SimApduE"
    },
    {
     "mangled_component_name":"_ZN7android8hardware5radio4V1_19BpHwRadio21iccOpenLogicalChannelEiRKNS0_11hidl_stringEi"
    },
    {
     "mangled_component_name":"_ZN7android8hardware5radio4V1_19BpHwRadio22iccCloseLogicalChannelEii"
    },
    {
     "mangled_component_name":"_ZN7android8hardware5radio4V1_19BpHwRadio29iccTransmitApduLogicalChannelEiRKNS1_4V1_07SimApduE"
    },
    {
     "mangled_component_name":"_ZN7android8hardware5radio4V1_19BpHwRadio10nvReadItemEiNS1_4V1_06NvItemE"
    },
    {
     "mangled_component_name":"_ZN7android8hardware5radio4V1_19BpHwRadio11nvWriteItemEiRKNS1_4V1_011NvWriteItemE"
    },
    {
     "mangled_component_name":"_ZN7android8hardware5radio4V1_19BpHwRadio14nvWriteCdmaPrlEiRKNS0_8hidl_vecIhEE"
    },
    {
     "mangled_component_name":"_ZN7android8hardware5radio4V1_19BpHwRadio13nvResetConfigEiNS1_4V1_011ResetNvTypeE"
    },
    {
     "mangled_component_name":"_ZN7android8hardware5radio4V1_19BpHwRadio19setUiccSubscriptionEiRKNS1_4V1_013SelectUiccSubE"
    },
    {
     "mangled_component_name":"_ZN7android8hardware5radio4V1_19BpHwRadio14setDataAllowedEib"
    },
    {
     "mangled_component_name":"_ZN7android8hardware5radio4V1_19BpHwRadio17getHardwareConfigEi"
    },
    {
     "mangled_component_name":"_ZN7android8hardware5radio4V1_19BpHwRadio27requestIccSimAuthenticationEiiRKNS0_11hidl_stringES6_"
    },
    {
     "mangled_component_name":"_ZN7android8hardware5radio4V1_19BpHwRadio14setDataProfileEiRKNS0_8hidl_vecINS1_4V1_015DataProfileInfoEEEb"
    },
    {
     "mangled_component_name":"_ZN7android8hardware5radio4V1_19BpHwRadio15requestShutdownEi"
    },
    {
     "mangled_component_name":"_ZN7android8hardware5radio4V1_19BpHwRadio18getRadioCapabilityEi"
    },
    {
     "mangled_component_name":"_ZN7android8hardware5radio4V1_19BpHwRadio18setRadioCapabilityEiRKNS1_4V1_015RadioCapabilityE"
    },
    {
     "mangled_component_name":"_ZN7android8hardware5radio4V1_19BpHwRadio15startLceServiceEiib"
    },
    {
     "mangled_component_name":"_ZN7android8hardware5radio4V1_19BpHwRadio14stopLceServiceEi"
    },
    {
     "mangled_component_name":"_ZN7android8hardware5radio4V1_19BpHwRadio11pullLceDataEi"
    },
    {
     "mangled_component_name":"_ZN7android8hardware5radio4V1_19BpHwRadio20getModemActivityInfoEi"
    },
    {
     "mangled_component_name":"_ZN7android8hardware5radio4V1_19BpHwRadio18setAllowedCarriersEibRKNS1_4V1_019CarrierRestrictionsE"
    },
    {
     "mangled_component_name":"_ZN7android8hardware5radio4V1_19BpHwRadio18getAllowedCarriersEi"
    },
    {
     "mangled_component_name":"_ZN7android8hardware5radio4V1_19BpHwRadio15sendDeviceStateEiNS1_4V1_015DeviceStateTypeEb"
    },
    {
     "mangled_component_name":"_ZN7android8hardware5radio4V1_19BpHwRadio19setIndicationFilterEii"
    },
    {
     "mangled_component_name":"_ZN7android8hardware5radio4V1_19BpHwRadio15setSimCardPowerEib"
    },
    {
     "mangled_component_name":"_ZN7android8hardware5radio4V1_19BpHwRadio23responseAcknowledgementEv"
    },
    {
     "mangled_component_name":"_ZN7android8hardware5radio4V1_19BpHwRadio31setCarrierInfoForImsiEncryptionEiRKNS2_18ImsiEncryptionInfoE"
    },
    {
     "mangled_component_name":"_ZN7android8hardware5radio4V1_19BpHwRadio19setSimCardPower_1_1EiNS2_14CardPowerStateE"
    },
    {
     "mangled_component_name":"_ZN7android8hardware5radio4V1_19BpHwRadio16startNetworkScanEiRKNS2_18NetworkScanRequestE"
    },
    {
     "mangled_component_name":"_ZN7android8hardware5radio4V1_19BpHwRadio15stopNetworkScanEi"
    },
    {
     "mangled_component_name":"_ZN7android8hardware5radio4V1_19BpHwRadio14startKeepaliveEiRKNS2_16KeepaliveRequestE"
    },
    {
     "mangled_component_name":"_ZN7android8hardware5radio4V1_19BpHwRadio13stopKeepaliveEii"
    },
    {
     "mangled_component_name":"_ZN7android8hardware11BpInterfaceINS0_5radio4V1_16IRadioEE10onAsBinderEv"
    },
    {
     "kind":"vbase_offset",
     "component_value":80
    },
    {
     "kind":"offset_to_top",
     "component_value":-4
    },
    {
     "kind":"rtti",
     "mangled_component_name":"_ZTIN7android8hardware5radio4V1_19BpHwRadioE"
    },
    {
     "kind":"complete_dtor_pointer",
     "mangled_component_name":"_ZThn4_N7android8hardware5radio4V1_19BpHwRadioD1Ev"
    },
    {
     "kind":"deleting_dtor_pointer",
     "mangled_component_name":"_ZThn4_N7android8hardware5radio4V1_19BpHwRadioD0Ev"
    },
    {
     "mangled_component_name":"_ZThn4_N7android8hardware11BpInterfaceINS0_5radio4V1_16IRadioEE10onAsBinderEv"
    },
    {
     "kind":"vbase_offset",
     "component_value":76
    },
    {
     "kind":"offset_to_top",
     "component_value":-8
    },
    {
     "kind":"rtti",
     "mangled_component_name":"_ZTIN7android8hardware5radio4V1_19BpHwRadioE"
    },
    {
     "kind":"complete_dtor_pointer",
     "mangled_component_name":"_ZThn8_N7android8hardware5radio4V1_19BpHwRadioD1Ev"
    },
    {
     "kind":"deleting_dtor_pointer",
     "mangled_component_name":"_ZThn8_N7android8hardware5radio4V1_19BpHwRadioD0Ev"
    },
    {
     "mangled_component_name":"_ZN7android8hardware11BpHwRefBase10onFirstRefEv"
    },
    {
     "mangled_component_name":"_ZN7android8hardware11BpHwRefBase15onLastStrongRefEPKv"
    },
    {
     "mangled_component_name":"_ZN7android8hardware11BpHwRefBase20onIncStrongAttemptedEjPKv"
    },
    {
     "kind":"offset_to_top",
     "component_value":-24
    },
    {
     "kind":"rtti",
     "mangled_component_name":"_ZTIN7android8hardware5radio4V1_19BpHwRadioE"
    },
    {
     "kind":"complete_dtor_pointer",
     "mangled_component_name":"_ZThn24_N7android8hardware5radio4V1_19BpHwRadioD1Ev"
    },
    {
     "kind":"deleting_dtor_pointer",
     "mangled_component_name":"_ZThn24_N7android8hardware5radio4V1_19BpHwRadioD0Ev"
    },
    {
     "kind":"vcall_offset"
    },
    {
     "kind":"vcall_offset",
     "component_value":-76
    },
    {
     "kind":"vcall_offset",
     "component_value":-76
    },
    {
     "kind":"vcall_offset",
     "component_value":-76
    },
    {
     "kind":"vcall_offset",
     "component_value":-84
    },
    {
     "kind":"offset_to_top",
     "component_value":-84
    },
    {
     "kind":"rtti",
     "mangled_component_name":"_ZTIN7android8hardware5radio4V1_19BpHwRadioE"
    },
    {
     "kind":"complete_dtor_pointer",
     "mangled_component_name":"_ZTv0_n12_N7android8hardware5radio4V1_19BpHwRadioD1Ev"
    },
    {
     "kind":"deleting_dtor_pointer",
     "mangled_component_name":"_ZTv0_n12_N7android8hardware5radio4V1_19BpHwRadioD0Ev"
    },
    {
     "mangled_component_name":"_ZTv0_n16_N7android8hardware11BpHwRefBase10onFirstRefEv"
    },
    {
     "mangled_component_name":"_ZTv0_n20_N7android8hardware11BpHwRefBase15onLastStrongRefEPKv"
    },
    {
     "mangled_component_name":"_ZTv0_n24_N7android8hardware11BpHwRefBase20onIncStrongAttemptedEjPKv"
    },
    {
     "mangled_component_name":"_ZN7android7RefBase13onLastWeakRefEPKv"
    }
   ],
   "unique_id":"_ZTSN7android8hardware5radio4V1_19BpHwRadioE"
  },
  {
   "vtable_components":[
    {
     "kind":"vbase_offset",
     "component_value":72
    },
    {
     "kind":"offset_to_top"
    },
    {
     "kind":"rtti",
     "mangled_component_name":"_ZTIN7android8hardware5radio4V1_19BnHwRadioE"
    },
    {
     "mangled_component_name":"_ZN7android8hardware9BHwBinder8transactEjRKNS0_6ParcelEPS2_jNSt3__18functionIFvRS2_EEE"
    },
    {
     "mangled_component_name":"_ZN7android8hardware9BHwBinder11linkToDeathERKNS_2spINS0_7IBinder14DeathRecipientEEEPvj"
    },
    {
     "mangled_component_name":"_ZN7android8hardware9BHwBinder13unlinkToDeathERKNS_2wpINS0_7IBinder14DeathRecipientEEEPvjPS5_"
    },
    {
     "mangled_component_name":"_ZNK7android8hardware7IBinder13checkSubclassEPKv"
    },
    {
     "mangled_component_name":"_ZN7android8hardware9BHwBinder12attachObjectEPKvPvS4_PFvS3_S4_S4_E"
    },
    {
     "mangled_component_name":"_ZNK7android8hardware9BHwBinder10findObjectEPKv"
    },
    {
     "mangled_component_name":"_ZN7android8hardware9BHwBinder12detachObjectEPKv"
    },
    {
     "mangled_component_name":"_ZN7android8hardware9BHwBinder11localBinderEv"
    },
    {
     "mangled_component_name":"_ZN7android8hardware7IBinder12remoteBinderEv"
    },
    {
     "kind":"complete_dtor_pointer",
     "mangled_component_name":"_ZN7android8hardware5radio4V1_19BnHwRadioD1Ev"
    },
    {
     "kind":"deleting_dtor_pointer",
     "mangled_component_name":"_ZN7android8hardware5radio4V1_19BnHwRadioD0Ev"
    },
    {
     "mangled_component_name":"_ZN7android8hardware5radio4V1_19BnHwRadio10onTransactEjRKNS0_6ParcelEPS4_jNSt3__18functionIFvRS4_EEE"
    },
    {
     "kind":"offset_to_top",
     "component_value":-20
    },
    {
     "kind":"rtti",
     "mangled_component_name":"_ZTIN7android8hardware5radio4V1_19BnHwRadioE"
    },
    {
     "kind":"complete_dtor_pointer",
     "mangled_component_name":"_ZThn20_N7android8hardware5radio4V1_19BnHwRadioD1Ev"
    },
    {
     "kind":"deleting_dtor_pointer",
     "mangled_component_name":"_ZThn20_N7android8hardware5radio4V1_19BnHwRadioD0Ev"
    },
    {
     "kind":"vcall_offset"
    },
    {
     "kind":"vcall_offset"
    },
    {
     "kind":"vcall_offset"
    },
    {
     "kind":"vcall_offset"
    },
    {
     "kind":"vcall_offset",
     "component_value":-72
    },
    {
     "kind":"offset_to_top",
     "component_value":-72
    },
    {
     "kind":"rtti",
     "mangled_component_name":"_ZTIN7android8hardware5radio4V1_19BnHwRadioE"
    },
    {
     "kind":"complete_dtor_pointer",
     "mangled_component_name":"_ZTv0_n12_N7android8hardware5radio4V1_19BnHwRadioD1Ev"
    },
    {
     "kind":"deleting_dtor_pointer",
     "mangled_component_name":"_ZTv0_n12_N7android8hardware5radio4V1_19BnHwRadioD0Ev"
    },
    {
     "mangled_component_name":"_ZN7android7RefBase10onFirstRefEv"
    },
    {
     "mangled_component_name":"_ZN7android7RefBase15onLastStrongRefEPKv"
    },
    {
     "mangled_component_name":"_ZN7android7RefBase20onIncStrongAttemptedEjPKv"
    },
    {
     "mangled_component_name":"_ZN7android7RefBase13onLastWeakRefEPKv"
    }
   ],
   "unique_id":"_ZTSN7android8hardware5radio4V1_19BnHwRadioE"
  },
  {
   "vtable_components":[
    {
     "kind":"vbase_offset",
     "component_value":60
    },
    {
     "kind":"offset_to_top"
    },
    {
     "kind":"rtti",
     "mangled_component_name":"_ZTIN7android8hardware5radio4V1_17BsRadioE"
    },
    {
     "mangled_component_name":"_ZNK7android8hardware5radio4V1_16IRadio8isRemoteEv"
    },
    {
     "mangled_component_name":"_ZN7android8hardware5radio4V1_17BsRadio14interfaceChainENSt3__18functionIFvRKNS0_8hidl_vecINS0_11hidl_stringEEEEEE"
    },
    {
     "mangled_component_name":"_ZN7android8hardware5radio4V1_17BsRadio5debugERKNS0_11hidl_handleERKNS0_8hidl_vecINS0_11hidl_stringEEE"
    },
    {
     "mangled_component_name":"_ZN7android8hardware5radio4V1_17BsRadio19interfaceDescriptorENSt3__18functionIFvRKNS0_11hidl_stringEEEE"
    },
    {
     "mangled_component_name":"_ZN7android8hardware5radio4V1_17BsRadio12getHashChainENSt3__18functionIFvRKNS0_8hidl_vecINS0_10hidl_arrayIhLj32EJEEEEEEEE"
    },
    {
     "mangled_component_name":"_ZN7android8hardware5radio4V1_17BsRadio21setHALInstrumentationEv"
    },
    {
     "mangled_component_name":"_ZN7android8hardware5radio4V1_17BsRadio11linkToDeathERKNS_2spINS0_20hidl_death_recipientEEEy"
    },
    {
     "mangled_component_name":"_ZN7android8hardware5radio4V1_17BsRadio4pingEv"
    },
    {
     "mangled_component_name":"_ZN7android8hardware5radio4V1_17BsRadio12getDebugInfoENSt3__18functionIFvRKNS_4hidl4base4V1_09DebugInfoEEEE"
    },
    {
     "mangled_component_name":"_ZN7android8hardware5radio4V1_17BsRadio21notifySyspropsChangedEv"
    },
    {
     "mangled_component_name":"_ZN7android8hardware5radio4V1_17BsRadio13unlinkToDeathERKNS_2spINS0_20hidl_death_recipientEEE"
    },
    {
     "kind":"complete_dtor_pointer",
     "mangled_component_name":"_ZN7android8hardware5radio4V1_17BsRadioD1Ev"
    },
    {
     "kind":"deleting_dtor_pointer",
     "mangled_component_name":"_ZN7android8hardware5radio4V1_17BsRadioD0Ev"
    },
    {
     "mangled_component_name":"_ZN7android8hardware5radio4V1_17BsRadio20setResponseFunctionsERKNS_2spINS1_4V1_014IRadioResponseEEERKNS4_INS5_16IRadioIndicationEEE"
    },
    {
     "mangled_component_name":"_ZN7android8hardware5radio4V1_17BsRadio16getIccCardStatusEi"
    },
    {
     "mangled_component_name":"_ZN7android8hardware5radio4V1_17BsRadio18supplyIccPinForAppEiRKNS0_11hidl_stringES6_"
    },
    {
     "mangled_component_name":"_ZN7android8hardware5radio4V1_17BsRadio18supplyIccPukForAppEiRKNS0_11hidl_stringES6_S6_"
    },
    {
     "mangled_component_name":"_ZN7android8hardware5radio4V1_17BsRadio19supplyIccPin2ForAppEiRKNS0_11hidl_stringES6_"
    },
    {
     "mangled_component_name":"_ZN7android8hardware5radio4V1_17BsRadio19supplyIccPuk2ForAppEiRKNS0_11hidl_stringES6_S6_"
    },
    {
     "mangled_component_name":"_ZN7android8hardware5radio4V1_17BsRadio18changeIccPinForAppEiRKNS0_11hidl_stringES6_S6_"
    },
    {
     "mangled_component_name":"_ZN7android8hardware5radio4V1_17BsRadio19changeIccPin2ForAppEiRKNS0_11hidl_stringES6_S6_"
    },
    {
     "mangled_component_name":"_ZN7android8hardware5radio4V1_17BsRadio30supplyNetworkDepersonalizationEiRKNS0_11hidl_stringE"
    },
    {
     "mangled_component_name":"_ZN7android8hardware5radio4V1_17BsRadio15getCurrentCallsEi"
    },
    {
     "mangled_component_name":"_ZN7android8hardware5radio4V1_17BsRadio4dialEiRKNS1_4V1_04DialE"
    },
    {
     "mangled_component_name":"_ZN7android8hardware5radio4V1_17BsRadio13getImsiForAppEiRKNS0_11hidl_stringE"
    },
    {
     "mangled_component_name":"_ZN7android8hardware5radio4V1_17BsRadio6hangupEii"
    },
    {
     "mangled_component_name":"_ZN7android8hardware5radio4V1_17BsRadio25hangupWaitingOrBackgroundEi"
    },
    {
     "mangled_component_name":"_ZN7android8hardware5radio4V1_17BsRadio32hangupForegroundResumeBackgroundEi"
    },
    {
     "mangled_component_name":"_ZN7android8hardware5radio4V1_17BsRadio31switchWaitingOrHoldingAndActiveEi"
    },
    {
     "mangled_component_name":"_ZN7android8hardware5radio4V1_17BsRadio10conferenceEi"
    },
    {
     "mangled_component_name":"_ZN7android8hardware5radio4V1_17BsRadio10rejectCallEi"
    },
    {
     "mangled_component_name":"_ZN7android8hardware5radio4V1_17BsRadio20getLastCallFailCauseEi"
    },
    {
     "mangled_component_name":"_ZN7android8hardware5radio4V1_17BsRadio17getSignalStrengthEi"
    },
    {
     "mangled_component_name":"_ZN7android8hardware5radio4V1_17BsRadio25getVoiceRegistrationStateEi"
    },
    {
     "mangled_component_name":"_ZN7android8hardware5radio4V1_17BsRadio24getDataRegistrationStateEi"
    },
    {
     "mangled_component_name":"_ZN7android8hardware5radio4V1_17BsRadio11getOperatorEi"
    },
    {
     "mangled_component_name":"_ZN7android8hardware5radio4V1_17BsRadio13setRadioPowerEib"
    },
    {
     "mangled_component_name":"_ZN7android8hardware5radio4V1_17BsRadio8sendDtmfEiRKNS0_11hidl_stringE"
    },
    {
     "mangled_component_name":"_ZN7android8hardware5radio4V1_17BsRadio7sendSmsEiRKNS1_4V1_013GsmSmsMessageE"
    },
    {
     "mangled_component_name":"_ZN7android8hardware5radio4V1_17BsRadio17sendSMSExpectMoreEiRKNS1_4V1_013GsmSmsMessageE"
    },
    {
     "mangled_component_name":"_ZN7android8hardware5radio4V1_17BsRadio13setupDataCallEiNS1_4V1_015RadioTechnologyERKNS4_15DataProfileInfoEbbb"
    },
    {
     "mangled_component_name":"_ZN7android8hardware5radio4V1_17BsRadio11iccIOForAppEiRKNS1_4V1_05IccIoE"
    },
    {
     "mangled_component_name":"_ZN7android8hardware5radio4V1_17BsRadio8sendUssdEiRKNS0_11hidl_stringE"
    },
    {
     "mangled_component_name":"_ZN7android8hardware5radio4V1_17BsRadio17cancelPendingUssdEi"
    },
    {
     "mangled_component_name":"_ZN7android8hardware5radio4V1_17BsRadio7getClirEi"
    },
    {
     "mangled_component_name":"_ZN7android8hardware5radio4V1_17BsRadio7setClirEii"
    },
    {
     "mangled_component_name":"_ZN7android8hardware5radio4V1_17BsRadio20getCallForwardStatusEiRKNS1_4V1_015CallForwardInfoE"
    },
    {
     "mangled_component_name":"_ZN7android8hardware5radio4V1_17BsRadio14setCallForwardEiRKNS1_4V1_015CallForwardInfoE"
    },
    {
     "mangled_component_name":"_ZN7android8hardware5radio4V1_17BsRadio14getCallWaitingEii"
    },
    {
     "mangled_component_name":"_ZN7android8hardware5radio4V1_17BsRadio14setCallWaitingEibi"
    },
    {
     "mangled_component_name":"_ZN7android8hardware5radio4V1_17BsRadio29acknowledgeLastIncomingGsmSmsEibNS1_4V1_023SmsAcknowledgeFailCauseE"
    },
    {
     "mangled_component_name":"_ZN7android8hardware5radio4V1_17BsRadio10acceptCallEi"
    },
    {
     "mangled_component_name":"_ZN7android8hardware5radio4V1_17BsRadio18deactivateDataCallEiib"
    },
    {
     "mangled_component_name":"_ZN7android8hardware5radio4V1_17BsRadio21getFacilityLockForAppEiRKNS0_11hidl_stringES6_iS6_"
    },
    {
     "mangled_component_name":"_ZN7android8hardware5radio4V1_17BsRadio21setFacilityLockForAppEiRKNS0_11hidl_stringEbS6_iS6_"
    },
    {
     "mangled_component_name":"_ZN7android8hardware5radio4V1_17BsRadio18setBarringPasswordEiRKNS0_11hidl_stringES6_S6_"
    },
    {
     "mangled_component_name":"_ZN7android8hardware5radio4V1_17BsRadio23getNetworkSelectionModeEi"
    },
    {
     "mangled_component_name":"_ZN7android8hardware5radio4V1_17BsRadio32setNetworkSelectionModeAutomaticEi"
    },
    {
     "mangled_component_name":"_ZN7android8hardware5radio4V1_17BsRadio29setNetworkSelectionModeManualEiRKNS0_11hidl_stringE"
    },
    {
     "mangled_component_name":"_ZN7android8hardware5radio4V1_17BsRadio20getAvailableNetworksEi"
    },
    {
     "mangled_component_name":"_ZN7android8hardware5radio4V1_17BsRadio9startDtmfEiRKNS0_11hidl_stringE"
    },
    {
     "mangled_component_name":"_ZN7android8hardware5radio4V1_17BsRadio8stopDtmfEi"
    },
    {
     "mangled_component_name":"_ZN7android8hardware5radio4V1_17BsRadio18getBasebandVersionEi"
    },
    {
     "mangled_component_name":"_ZN7android8hardware5radio4V1_17BsRadio18separateConnectionEii"
    },
    {
     "mangled_component_name":"_ZN7android8hardware5radio4V1_17BsRadio7setMuteEib"
    },
    {
     "mangled_component_name":"_ZN7android8hardware5radio4V1_17BsRadio7getMuteEi"
    },
    {
     "mangled_component_name":"_ZN7android8hardware5radio4V1_17BsRadio7getClipEi"
    },
    {
     "mangled_component_name":"_ZN7android8hardware5radio4V1_17BsRadio15getDataCallListEi"
    },
    {
     "mangled_component_name":"_ZN7android8hardware5radio4V1_17BsRadio27setSuppServiceNotificationsEib"
    },
    {
     "mangled_component_name":"_ZN7android8hardware5radio4V1_17BsRadio13writeSmsToSimEiRKNS1_4V1_012SmsWriteArgsE"
    },
    {
     "mangled_component_name":"_ZN7android8hardware5radio4V1_17BsRadio14deleteSmsOnSimEii"
    },
    {
     "mangled_component_name":"_ZN7android8hardware5radio4V1_17BsRadio11setBandModeEiNS1_4V1_013RadioBandModeE"
    },
    {
     "mangled_component_name":"_ZN7android8hardware5radio4V1_17BsRadio21getAvailableBandModesEi"
    },
    {
     "mangled_component_name":"_ZN7android8hardware5radio4V1_17BsRadio12sendEnvelopeEiRKNS0_11hidl_stringE"
    },
    {
     "mangled_component_name":"_ZN7android8hardware5radio4V1_17BsRadio25sendTerminalResponseToSimEiRKNS0_11hidl_stringE"
    },
    {
     "mangled_component_name":"_ZN7android8hardware5radio4V1_17BsRadio32handleStkCallSetupRequestFromSimEib"
    },
    {
     "mangled_component_name":"_ZN7android8hardware5radio4V1_17BsRadio20explicitCallTransferEi"
    },
    {
     "mangled_component_name":"_ZN7android8hardware5radio4V1_17BsRadio23setPreferredNetworkTypeEiNS1_4V1_020PreferredNetworkTypeE"
    },
    {
     "mangled_component_name":"_ZN7android8hardware5radio4V1_17BsRadio23getPreferredNetworkTypeEi"
    },
    {
     "mangled_component_name":"_ZN7android8hardware5radio4V1_17BsRadio18getNeighboringCidsEi"
    },
    {
     "mangled_component_name":"_ZN7android8hardware5radio4V1_17BsRadio18setLocationUpdatesEib"
    },
    {
     "mangled_component_name":"_ZN7android8hardware5radio4V1_17BsRadio25setCdmaSubscriptionSourceEiNS1_4V1_022CdmaSubscriptionSourceE"
    },
    {
     "mangled_component_name":"_ZN7android8hardware5radio4V1_17BsRadio24setCdmaRoamingPreferenceEiNS1_4V1_015CdmaRoamingTypeE"
    },
    {
     "mangled_component_name":"_ZN7android8hardware5radio4V1_17BsRadio24getCdmaRoamingPreferenceEi"
    },
    {
     "mangled_component_name":"_ZN7android8hardware5radio4V1_17BsRadio10setTTYModeEiNS1_4V1_07TtyModeE"
    },
    {
     "mangled_component_name":"_ZN7android8hardware5radio4V1_17BsRadio10getTTYModeEi"
    },
    {
     "mangled_component_name":"_ZN7android8hardware5radio4V1_17BsRadio24setPreferredVoicePrivacyEib"
    },
    {
     "mangled_component_name":"_ZN7android8hardware5radio4V1_17BsRadio24getPreferredVoicePrivacyEi"
    },
    {
     "mangled_component_name":"_ZN7android8hardware5radio4V1_17BsRadio19sendCDMAFeatureCodeEiRKNS0_11hidl_stringE"
    },
    {
     "mangled_component_name":"_ZN7android8hardware5radio4V1_17BsRadio13sendBurstDtmfEiRKNS0_11hidl_stringEii"
    },
    {
     "mangled_component_name":"_ZN7android8hardware5radio4V1_17BsRadio11sendCdmaSmsEiRKNS1_4V1_014CdmaSmsMessageE"
    },
    {
     "mangled_component_name":"_ZN7android8hardware5radio4V1_17BsRadio30acknowledgeLastIncomingCdmaSmsEiRKNS1_4V1_010CdmaSmsAckE"
    },
    {
     "mangled_component_name":"_ZN7android8hardware5radio4V1_17BsRadio21getGsmBroadcastConfigEi"
    },
    {
     "mangled_component_name":"_ZN7android8hardware5radio4V1_17BsRadio21setGsmBroadcastConfigEiRKNS0_8hidl_vecINS1_4V1_025GsmBroadcastSmsConfigInfoEEE"
    },
    {
     "mangled_component_name":"_ZN7android8hardware5radio4V1_17BsRadio25setGsmBroadcastActivationEib"
    },
    {
     "mangled_component_name":"_ZN7android8hardware5radio4V1_17BsRadio22getCdmaBroadcastConfigEi"
    },
    {
     "mangled_component_name":"_ZN7android8hardware5radio4V1_17BsRadio22setCdmaBroadcastConfigEiRKNS0_8hidl_vecINS1_4V1_026CdmaBroadcastSmsConfigInfoEEE"
    },
    {
     "mangled_component_name":"_ZN7android8hardware5radio4V1_17BsRadio26setCdmaBroadcastActivationEib"
    },
    {
     "mangled_component_name":"_ZN7android8hardware5radio4V1_17BsRadio19getCDMASubscriptionEi"
    },
    {
     "mangled_component_name":"_ZN7android8hardware5radio4V1_17BsRadio14writeSmsToRuimEiRKNS1_4V1_016CdmaSmsWriteArgsE"
    },
    {
     "mangled_component_name":"_ZN7android8hardware5radio4V1_17BsRadio15deleteSmsOnRuimEii"
    },
    {
     "mangled_component_name":"_ZN7android8hardware5radio4V1_17BsRadio17getDeviceIdentityEi"
    },
    {
     "mangled_component_name":"_ZN7android8hardware5radio4V1_17BsRadio25exitEmergencyCallbackModeEi"
    },
    {
     "mangled_component_name":"_ZN7android8hardware5radio4V1_17BsRadio14getSmscAddressEi"
    },
    {
     "mangled_component_name":"_ZN7android8hardware5radio4V1_17BsRadio14setSmscAddressEiRKNS0_11hidl_stringE"
    },
    {
     "mangled_component_name":"_ZN7android8hardware5radio4V1_17BsRadio21reportSmsMemoryStatusEib"
    },
    {
     "mangled_component_name":"_ZN7android8hardware5radio4V1_17BsRadio25reportStkServiceIsRunningEi"
    },
    {
     "mangled_component_name":"_ZN7android8hardware5radio4V1_17BsRadio25getCdmaSubscriptionSourceEi"
    },
    {
     "mangled_component_name":"_ZN7android8hardware5radio4V1_17BsRadio25requestIsimAuthenticationEiRKNS0_11hidl_stringE"
    },
    {
     "mangled_component_name":"_ZN7android8hardware5radio4V1_17BsRadio32acknowledgeIncomingGsmSmsWithPduEibRKNS0_11hidl_stringE"
    },
    {
     "mangled_component_name":"_ZN7android8hardware5radio4V1_17BsRadio22sendEnvelopeWithStatusEiRKNS0_11hidl_stringE"
    },
    {
     "mangled_component_name":"_ZN7android8hardware5radio4V1_17BsRadio23getVoiceRadioTechnologyEi"
    },
    {
     "mangled_component_name":"_ZN7android8hardware5radio4V1_17BsRadio15getCellInfoListEi"
    },
    {
     "mangled_component_name":"_ZN7android8hardware5radio4V1_17BsRadio19setCellInfoListRateEii"
    },
    {
     "mangled_component_name":"_ZN7android8hardware5radio4V1_17BsRadio19setInitialAttachApnEiRKNS1_4V1_015DataProfileInfoEbb"
    },
    {
     "mangled_component_name":"_ZN7android8hardware5radio4V1_17BsRadio23getImsRegistrationStateEi"
    },
    {
     "mangled_component_name":"_ZN7android8hardware5radio4V1_17BsRadio10sendImsSmsEiRKNS1_4V1_013ImsSmsMessageE"
    },
    {
     "mangled_component_name":"_ZN7android8hardware5radio4V1_17BsRadio27iccTransmitApduBasicChannelEiRKNS1_4V1_07SimApduE"
    },
    {
     "mangled_component_name":"_ZN7android8hardware5radio4V1_17BsRadio21iccOpenLogicalChannelEiRKNS0_11hidl_stringEi"
    },
    {
     "mangled_component_name":"_ZN7android8hardware5radio4V1_17BsRadio22iccCloseLogicalChannelEii"
    },
    {
     "mangled_component_name":"_ZN7android8hardware5radio4V1_17BsRadio29iccTransmitApduLogicalChannelEiRKNS1_4V1_07SimApduE"
    },
    {
     "mangled_component_name":"_ZN7android8hardware5radio4V1_17BsRadio10nvReadItemEiNS1_4V1_06NvItemE"
    },
    {
     "mangled_component_name":"_ZN7android8hardware5radio4V1_17BsRadio11nvWriteItemEiRKNS1_4V1_011NvWriteItemE"
    },
    {
     "mangled_component_name":"_ZN7android8hardware5radio4V1_17BsRadio14nvWriteCdmaPrlEiRKNS0_8hidl_vecIhEE"
    },
    {
     "mangled_component_name":"_ZN7android8hardware5radio4V1_17BsRadio13nvResetConfigEiNS1_4V1_011ResetNvTypeE"
    },
    {
     "mangled_component_name":"_ZN7android8hardware5radio4V1_17BsRadio19setUiccSubscriptionEiRKNS1_4V1_013SelectUiccSubE"
    },
    {
     "mangled_component_name":"_ZN7android8hardware5radio4V1_17BsRadio14setDataAllowedEib"
    },
    {
     "mangled_component_name":"_ZN7android8hardware5radio4V1_17BsRadio17getHardwareConfigEi"
    },
    {
     "mangled_component_name":"_ZN7android8hardware5radio4V1_17BsRadio27requestIccSimAuthenticationEiiRKNS0_11hidl_stringES6_"
    },
    {
     "mangled_component_name":"_ZN7android8hardware5radio4V1_17BsRadio14setDataProfileEiRKNS0_8hidl_vecINS1_4V1_015DataProfileInfoEEEb"
    },
    {
     "mangled_component_name":"_ZN7android8hardware5radio4V1_17BsRadio15requestShutdownEi"
    },
    {
     "mangled_component_name":"_ZN7android8hardware5radio4V1_17BsRadio18getRadioCapabilityEi"
    },
    {
     "mangled_component_name":"_ZN7android8hardware5radio4V1_17BsRadio18setRadioCapabilityEiRKNS1_4V1_015RadioCapabilityE"
    },
    {
     "mangled_component_name":"_ZN7android8hardware5radio4V1_17BsRadio15startLceServiceEiib"
    },
    {
     "mangled_component_name":"_ZN7android8hardware5radio4V1_17BsRadio14stopLceServiceEi"
    },
    {
     "mangled_component_name":"_ZN7android8hardware5radio4V1_17BsRadio11pullLceDataEi"
    },
    {
     "mangled_component_name":"_ZN7android8hardware5radio4V1_17BsRadio20getModemActivityInfoEi"
    },
    {
     "mangled_component_name":"_ZN7android8hardware5radio4V1_17BsRadio18setAllowedCarriersEibRKNS1_4V1_019CarrierRestrictionsE"
    },
    {
     "mangled_component_name":"_ZN7android8hardware5radio4V1_17BsRadio18getAllowedCarriersEi"
    },
    {
     "mangled_component_name":"_ZN7android8hardware5radio4V1_17BsRadio15sendDeviceStateEiNS1_4V1_015DeviceStateTypeEb"
    },
    {
     "mangled_component_name":"_ZN7android8hardware5radio4V1_17BsRadio19setIndicationFilterEii"
    },
    {
     "mangled_component_name":"_ZN7android8hardware5radio4V1_17BsRadio15setSimCardPowerEib"
    },
    {
     "mangled_component_name":"_ZN7android8hardware5radio4V1_17BsRadio23responseAcknowledgementEv"
    },
    {
     "mangled_component_name":"_ZN7android8hardware5radio4V1_17BsRadio31setCarrierInfoForImsiEncryptionEiRKNS2_18ImsiEncryptionInfoE"
    },
    {
     "mangled_component_name":"_ZN7android8hardware5radio4V1_17BsRadio19setSimCardPower_1_1EiNS2_14CardPowerStateE"
    },
    {
     "mangled_component_name":"_ZN7android8hardware5radio4V1_17BsRadio16startNetworkScanEiRKNS2_18NetworkScanRequestE"
    },
    {
     "mangled_component_name":"_ZN7android8hardware5radio4V1_17BsRadio15stopNetworkScanEi"
    },
    {
     "mangled_component_name":"_ZN7android8hardware5radio4V1_17BsRadio14startKeepaliveEiRKNS2_16KeepaliveRequestE"
    },
    {
     "mangled_component_name":"_ZN7android8hardware5radio4V1_17BsRadio13stopKeepaliveEii"
    },
    {
     "kind":"offset_to_top",
     "component_value":-4
    },
    {
     "kind":"rtti",
     "mangled_component_name":"_ZTIN7android8hardware5radio4V1_17BsRadioE"
    },
    {
     "kind":"complete_dtor_pointer",
     "mangled_component_name":"_ZThn4_N7android8hardware5radio4V1_17BsRadioD1Ev"
    },
    {
     "kind":"deleting_dtor_pointer",
     "mangled_component_name":"_ZThn4_N7android8hardware5radio4V1_17BsRadioD0Ev"
    },
    {
     "kind":"vcall_offset"
    },
    {
     "kind":"vcall_offset"
    },
    {
     "kind":"vcall_offset"
    },
    {
     "kind":"vcall_offset"
    },
    {
     "kind":"vcall_offset",
     "component_value":-60
    },
    {
     "kind":"offset_to_top",
     "component_value":-60
    },
    {
     "kind":"rtti",
     "mangled_component_name":"_ZTIN7android8hardware5radio4V1_17BsRadioE"
    },
    {
     "kind":"complete_dtor_pointer",
     "mangled_component_name":"_ZTv0_n12_N7android8hardware5radio4V1_17BsRadioD1Ev"
    },
    {
     "kind":"deleting_dtor_pointer",
     "mangled_component_name":"_ZTv0_n12_N7android8hardware5radio4V1_17BsRadioD0Ev"
    },
    {
     "mangled_component_name":"_ZN7android7RefBase10onFirstRefEv"
    },
    {
     "mangled_component_name":"_ZN7android7RefBase15onLastStrongRefEPKv"
    },
    {
     "mangled_component_name":"_ZN7android7RefBase20onIncStrongAttemptedEjPKv"
    },
    {
     "mangled_component_name":"_ZN7android7RefBase13onLastWeakRefEPKv"
    }
   ],
   "unique_id":"_ZTSN7android8hardware5radio4V1_17BsRadioE"
  },
  {
   "vtable_components":[
    {
     "kind":"vbase_offset",
     "component_value":4
    },
    {
     "kind":"offset_to_top"
    },
    {
     "kind":"rtti",
     "mangled_component_name":"_ZTIN7android8hardware5radio4V1_16IRadioE"
    },
    {
     "mangled_component_name":"_ZNK7android8hardware5radio4V1_16IRadio8isRemoteEv"
    },
    {
     "mangled_component_name":"_ZN7android8hardware5radio4V1_16IRadio14interfaceChainENSt3__18functionIFvRKNS0_8hidl_vecINS0_11hidl_stringEEEEEE"
    },
    {
     "mangled_component_name":"_ZN7android8hardware5radio4V1_16IRadio5debugERKNS0_11hidl_handleERKNS0_8hidl_vecINS0_11hidl_stringEEE"
    },
    {
     "mangled_component_name":"_ZN7android8hardware5radio4V1_16IRadio19interfaceDescriptorENSt3__18functionIFvRKNS0_11hidl_stringEEEE"
    },
    {
     "mangled_component_name":"_ZN7android8hardware5radio4V1_16IRadio12getHashChainENSt3__18functionIFvRKNS0_8hidl_vecINS0_10hidl_arrayIhLj32EJEEEEEEEE"
    },
    {
     "mangled_component_name":"_ZN7android8hardware5radio4V1_16IRadio21setHALInstrumentationEv"
    },
    {
     "mangled_component_name":"_ZN7android8hardware5radio4V1_16IRadio11linkToDeathERKNS_2spINS0_20hidl_death_recipientEEEy"
    },
    {
     "mangled_component_name":"_ZN7android8hardware5radio4V1_16IRadio4pingEv"
    },
    {
     "mangled_component_name":"_ZN7android8hardware5radio4V1_16IRadio12getDebugInfoENSt3__18functionIFvRKNS_4hidl4base4V1_09DebugInfoEEEE"
    },
    {
     "mangled_component_name":"_ZN7android8hardware5radio4V1_16IRadio21notifySyspropsChangedEv"
    },
    {
     "mangled_component_name":"_ZN7android8hardware5radio4V1_16IRadio13unlinkToDeathERKNS_2spINS0_20hidl_death_recipientEEE"
    },
    {
     "kind":"complete_dtor_pointer",
     "mangled_component_name":"_ZN7android8hardware5radio4V1_16IRadioD1Ev"
    },
    {
     "kind":"deleting_dtor_pointer",
     "mangled_component_name":"_ZN7android8hardware5radio4V1_16IRadioD0Ev"
    },
    {
     "is_pure":true,
     "mangled_component_name":"_ZN7android8hardware5radio4V1_16IRadio20setResponseFunctionsERKNS_2spINS1_4V1_014IRadioResponseEEERKNS4_INS5_16IRadioIndicationEEE"
    },
    {
     "is_pure":true,
     "mangled_component_name":"_ZN7android8hardware5radio4V1_16IRadio16getIccCardStatusEi"
    },
    {
     "is_pure":true,
     "mangled_component_name":"_ZN7android8hardware5radio4V1_16IRadio18supplyIccPinForAppEiRKNS0_11hidl_stringES6_"
    },
    {
     "is_pure":true,
     "mangled_component_name":"_ZN7android8hardware5radio4V1_16IRadio18supplyIccPukForAppEiRKNS0_11hidl_stringES6_S6_"
    },
    {
     "is_pure":true,
     "mangled_component_name":"_ZN7android8hardware5radio4V1_16IRadio19supplyIccPin2ForAppEiRKNS0_11hidl_stringES6_"
    },
    {
     "is_pure":true,
     "mangled_component_name":"_ZN7android8hardware5radio4V1_16IRadio19supplyIccPuk2ForAppEiRKNS0_11hidl_stringES6_S6_"
    },
    {
     "is_pure":true,
     "mangled_component_name":"_ZN7android8hardware5radio4V1_16IRadio18changeIccPinForAppEiRKNS0_11hidl_stringES6_S6_"
    },
    {
     "is_pure":true,
     "mangled_component_name":"_ZN7android8hardware5radio4V1_16IRadio19changeIccPin2ForAppEiRKNS0_11hidl_stringES6_S6_"
    },
    {
     "is_pure":true,
     "mangled_component_name":"_ZN7android8hardware5radio4V1_16IRadio30supplyNetworkDepersonalizationEiRKNS0_11hidl_stringE"
    },
    {
     "is_pure":true,
     "mangled_component_name":"_ZN7android8hardware5radio4V1_16IRadio15getCurrentCallsEi"
    },
    {
     "is_pure":true,
     "mangled_component_name":"_ZN7android8hardware5radio4V1_16IRadio4dialEiRKNS1_4V1_04DialE"
    },
    {
     "is_pure":true,
     "mangled_component_name":"_ZN7android8hardware5radio4V1_16IRadio13getImsiForAppEiRKNS0_11hidl_stringE"
    },
    {
     "is_pure":true,
     "mangled_component_name":"_ZN7android8hardware5radio4V1_16IRadio6hangupEii"
    },
    {
     "is_pure":true,
     "mangled_component_name":"_ZN7android8hardware5radio4V1_16IRadio25hangupWaitingOrBackgroundEi"
    },
    {
     "is_pure":true,
     "mangled_component_name":"_ZN7android8hardware5radio4V1_16IRadio32hangupForegroundResumeBackgroundEi"
    },
    {
     "is_pure":true,
     "mangled_component_name":"_ZN7android8hardware5radio4V1_16IRadio31switchWaitingOrHoldingAndActiveEi"
    },
    {
     "is_pure":true,
     "mangled_component_name":"_ZN7android8hardware5radio4V1_16IRadio10conferenceEi"
    },
    {
     "is_pure":true,
     "mangled_component_name":"_ZN7android8hardware5radio4V1_16IRadio10rejectCallEi"
    },
    {
     "is_pure":true,
     "mangled_component_name":"_ZN7android8hardware5radio4V1_16IRadio20getLastCallFailCauseEi"
    },
    {
     "is_pure":true,
     "mangled_component_name":"_ZN7android8hardware5radio4V1_16IRadio17getSignalStrengthEi"
    },
    {
     "is_pure":true,
     "mangled_component_name":"_ZN7android8hardware5radio4V1_16IRadio25getVoiceRegistrationStateEi"
    },
    {
     "is_pure":true,
     "mangled_component_name":"_ZN7android8hardware5radio4V1_16IRadio24getDataRegistrationStateEi"
    },
    {
     "is_pure":true,
     "mangled_component_name":"_ZN7android8hardware5radio4V1_16IRadio11getOperatorEi"
    },
    {
     "is_pure":true,
     "mangled_component_name":"_ZN7android8hardware5radio4V1_16IRadio13setRadioPowerEib"
    },
    {
     "is_pure":true,
     "mangled_component_name":"_ZN7android8hardware5radio4V1_16IRadio8sendDtmfEiRKNS0_11hidl_stringE"
    },
    {
     "is_pure":true,
     "mangled_component_name":"_ZN7android8hardware5radio4V1_16IRadio7sendSmsEiRKNS1_4V1_013GsmSmsMessageE"
    },
    {
     "is_pure":true,
     "mangled_component_name":"_ZN7android8hardware5radio4V1_16IRadio17sendSMSExpectMoreEiRKNS1_4V1_013GsmSmsMessageE"
    },
    {
     "is_pure":true,
     "mangled_component_name":"_ZN7android8hardware5radio4V1_16IRadio13setupDataCallEiNS1_4V1_015RadioTechnologyERKNS4_15DataProfileInfoEbbb"
    },
    {
     "is_pure":true,
     "mangled_component_name":"_ZN7android8hardware5radio4V1_16IRadio11iccIOForAppEiRKNS1_4V1_05IccIoE"
    },
    {
     "is_pure":true,
     "mangled_component_name":"_ZN7android8hardware5radio4V1_16IRadio8sendUssdEiRKNS0_11hidl_stringE"
    },
    {
     "is_pure":true,
     "mangled_component_name":"_ZN7android8hardware5radio4V1_16IRadio17cancelPendingUssdEi"
    },
    {
     "is_pure":true,
     "mangled_component_name":"_ZN7android8hardware5radio4V1_16IRadio7getClirEi"
    },
    {
     "is_pure":true,
     "mangled_component_name":"_ZN7android8hardware5radio4V1_16IRadio7setClirEii"
    },
    {
     "is_pure":true,
     "mangled_component_name":"_ZN7android8hardware5radio4V1_16IRadio20getCallForwardStatusEiRKNS1_4V1_015CallForwardInfoE"
    },
    {
     "is_pure":true,
     "mangled_component_name":"_ZN7android8hardware5radio4V1_16IRadio14setCallForwardEiRKNS1_4V1_015CallForwardInfoE"
    },
    {
     "is_pure":true,
     "mangled_component_name":"_ZN7android8hardware5radio4V1_16IRadio14getCallWaitingEii"
    },
    {
     "is_pure":true,
     "mangled_component_name":"_ZN7android8hardware5radio4V1_16IRadio14setCallWaitingEibi"
    },
    {
     "is_pure":true,
     "mangled_component_name":"_ZN7android8hardware5radio4V1_16IRadio29acknowledgeLastIncomingGsmSmsEibNS1_4V1_023SmsAcknowledgeFailCauseE"
    },
    {
     "is_pure":true,
     "mangled_component_name":"_ZN7android8hardware5radio4V1_16IRadio10acceptCallEi"
    },
    {
     "is_pure":true,
     "mangled_component_name":"_ZN7android8hardware5radio4V1_16IRadio18deactivateDataCallEiib"
    },
    {
     "is_pure":true,
     "mangled_component_name":"_ZN7android8hardware5radio4V1_16IRadio21getFacilityLockForAppEiRKNS0_11hidl_stringES6_iS6_"
    },
    {
     "is_pure":true,
     "mangled_component_name":"_ZN7android8hardware5radio4V1_16IRadio21setFacilityLockForAppEiRKNS0_11hidl_stringEbS6_iS6_"
    },
    {
     "is_pure":true,
     "mangled_component_name":"_ZN7android8hardware5radio4V1_16IRadio18setBarringPasswordEiRKNS0_11hidl_stringES6_S6_"
    },
    {
     "is_pure":true,
     "mangled_component_name":"_ZN7android8hardware5radio4V1_16IRadio23getNetworkSelectionModeEi"
    },
    {
     "is_pure":true,
     "mangled_component_name":"_ZN7android8hardware5radio4V1_16IRadio32setNetworkSelectionModeAutomaticEi"
    },
    {
     "is_pure":true,
     "mangled_component_name":"_ZN7android8hardware5radio4V1_16IRadio29setNetworkSelectionModeManualEiRKNS0_11hidl_stringE"
    },
    {
     "is_pure":true,
     "mangled_component_name":"_ZN7android8hardware5radio4V1_16IRadio20getAvailableNetworksEi"
    },
    {
     "is_pure":true,
     "mangled_component_name":"_ZN7android8hardware5radio4V1_16IRadio9startDtmfEiRKNS0_11hidl_stringE"
    },
    {
     "is_pure":true,
     "mangled_component_name":"_ZN7android8hardware5radio4V1_16IRadio8stopDtmfEi"
    },
    {
     "is_pure":true,
     "mangled_component_name":"_ZN7android8hardware5radio4V1_16IRadio18getBasebandVersionEi"
    },
    {
     "is_pure":true,
     "mangled_component_name":"_ZN7android8hardware5radio4V1_16IRadio18separateConnectionEii"
    },
    {
     "is_pure":true,
     "mangled_component_name":"_ZN7android8hardware5radio4V1_16IRadio7setMuteEib"
    },
    {
     "is_pure":true,
     "mangled_component_name":"_ZN7android8hardware5radio4V1_16IRadio7getMuteEi"
    },
    {
     "is_pure":true,
     "mangled_component_name":"_ZN7android8hardware5radio4V1_16IRadio7getClipEi"
    },
    {
     "is_pure":true,
     "mangled_component_name":"_ZN7android8hardware5radio4V1_16IRadio15getDataCallListEi"
    },
    {
     "is_pure":true,
     "mangled_component_name":"_ZN7android8hardware5radio4V1_16IRadio27setSuppServiceNotificationsEib"
    },
    {
     "is_pure":true,
     "mangled_component_name":"_ZN7android8hardware5radio4V1_16IRadio13writeSmsToSimEiRKNS1_4V1_012SmsWriteArgsE"
    },
    {
     "is_pure":true,
     "mangled_component_name":"_ZN7android8hardware5radio4V1_16IRadio14deleteSmsOnSimEii"
    },
    {
     "is_pure":true,
     "mangled_component_name":"_ZN7android8hardware5radio4V1_16IRadio11setBandModeEiNS1_4V1_013RadioBandModeE"
    },
    {
     "is_pure":true,
     "mangled_component_name":"_ZN7android8hardware5radio4V1_16IRadio21getAvailableBandModesEi"
    },
    {
     "is_pure":true,
     "mangled_component_name":"_ZN7android8hardware5radio4V1_16IRadio12sendEnvelopeEiRKNS0_11hidl_stringE"
    },
    {
     "is_pure":true,
     "mangled_component_name":"_ZN7android8hardware5radio4V1_16IRadio25sendTerminalResponseToSimEiRKNS0_11hidl_stringE"
    },
    {
     "is_pure":true,
     "mangled_component_name":"_ZN7android8hardware5radio4V1_16IRadio32handleStkCallSetupRequestFromSimEib"
    },
    {
     "is_pure":true,
     "mangled_component_name":"_ZN7android8hardware5radio4V1_16IRadio20explicitCallTransferEi"
    },
    {
     "is_pure":true,
     "mangled_component_name":"_ZN7android8hardware5radio4V1_16IRadio23setPreferredNetworkTypeEiNS1_4V1_020PreferredNetworkTypeE"
    },
    {
     "is_pure":true,
     "mangled_component_name":"_ZN7android8hardware5radio4V1_16IRadio23getPreferredNetworkTypeEi"
    },
    {
     "is_pure":true,
     "mangled_component_name":"_ZN7android8hardware5radio4V1_16IRadio18getNeighboringCidsEi"
    },
    {
     "is_pure":true,
     "mangled_component_name":"_ZN7android8hardware5radio4V1_16IRadio18setLocationUpdatesEib"
    },
    {
     "is_pure":true,
     "mangled_component_name":"_ZN7android8hardware5radio4V1_16IRadio25setCdmaSubscriptionSourceEiNS1_4V1_022CdmaSubscriptionSourceE"
    },
    {
     "is_pure":true,
     "mangled_component_name":"_ZN7android8hardware5radio4V1_16IRadio24setCdmaRoamingPreferenceEiNS1_4V1_015CdmaRoamingTypeE"
    },
    {
     "is_pure":true,
     "mangled_component_name":"_ZN7android8hardware5radio4V1_16IRadio24getCdmaRoamingPreferenceEi"
    },
    {
     "is_pure":true,
     "mangled_component_name":"_ZN7android8hardware5radio4V1_16IRadio10setTTYModeEiNS1_4V1_07TtyModeE"
    },
    {
     "is_pure":true,
     "mangled_component_name":"_ZN7android8hardware5radio4V1_16IRadio10getTTYModeEi"
    },
    {
     "is_pure":true,
     "mangled_component_name":"_ZN7android8hardware5radio4V1_16IRadio24setPreferredVoicePrivacyEib"
    },
    {
     "is_pure":true,
     "mangled_component_name":"_ZN7android8hardware5radio4V1_16IRadio24getPreferredVoicePrivacyEi"
    },
    {
     "is_pure":true,
     "mangled_component_name":"_ZN7android8hardware5radio4V1_16IRadio19sendCDMAFeatureCodeEiRKNS0_11hidl_stringE"
    },
    {
     "is_pure":true,
     "mangled_component_name":"_ZN7android8hardware5radio4V1_16IRadio13sendBurstDtmfEiRKNS0_11hidl_stringEii"
    },
    {
     "is_pure":true,
     "mangled_component_name":"_ZN7android8hardware5radio4V1_16IRadio11sendCdmaSmsEiRKNS1_4V1_014CdmaSmsMessageE"
    },
    {
     "is_pure":true,
     "mangled_component_name":"_ZN7android8hardware5radio4V1_16IRadio30acknowledgeLastIncomingCdmaSmsEiRKNS1_4V1_010CdmaSmsAckE"
    },
    {
     "is_pure":true,
     "mangled_component_name":"_ZN7android8hardware5radio4V1_16IRadio21getGsmBroadcastConfigEi"
    },
    {
     "is_pure":true,
     "mangled_component_name":"_ZN7android8hardware5radio4V1_16IRadio21setGsmBroadcastConfigEiRKNS0_8hidl_vecINS1_4V1_025GsmBroadcastSmsConfigInfoEEE"
    },
    {
     "is_pure":true,
     "mangled_component_name":"_ZN7android8hardware5radio4V1_16IRadio25setGsmBroadcastActivationEib"
    },
    {
     "is_pure":true,
     "mangled_component_name":"_ZN7android8hardware5radio4V1_16IRadio22getCdmaBroadcastConfigEi"
    },
    {
     "is_pure":true,
     "mangled_component_name":"_ZN7android8hardware5radio4V1_16IRadio22setCdmaBroadcastConfigEiRKNS0_8hidl_vecINS1_4V1_026CdmaBroadcastSmsConfigInfoEEE"
    },
    {
     "is_pure":true,
     "mangled_component_name":"_ZN7android8hardware5radio4V1_16IRadio26setCdmaBroadcastActivationEib"
    },
    {
     "is_pure":true,
     "mangled_component_name":"_ZN7android8hardware5radio4V1_16IRadio19getCDMASubscriptionEi"
    },
    {
     "is_pure":true,
     "mangled_component_name":"_ZN7android8hardware5radio4V1_16IRadio14writeSmsToRuimEiRKNS1_4V1_016CdmaSmsWriteArgsE"
    },
    {
     "is_pure":true,
     "mangled_component_name":"_ZN7android8hardware5radio4V1_16IRadio15deleteSmsOnRuimEii"
    },
    {
     "is_pure":true,
     "mangled_component_name":"_ZN7android8hardware5radio4V1_16IRadio17getDeviceIdentityEi"
    },
    {
     "is_pure":true,
     "mangled_component_name":"_ZN7android8hardware5radio4V1_16IRadio25exitEmergencyCallbackModeEi"
    },
    {
     "is_pure":true,
     "mangled_component_name":"_ZN7android8hardware5radio4V1_16IRadio14getSmscAddressEi"
    },
    {
     "is_pure":true,
     "mangled_component_name":"_ZN7android8hardware5radio4V1_16IRadio14setSmscAddressEiRKNS0_11hidl_stringE"
    },
    {
     "is_pure":true,
     "mangled_component_name":"_ZN7android8hardware5radio4V1_16IRadio21reportSmsMemoryStatusEib"
    },
    {
     "is_pure":true,
     "mangled_component_name":"_ZN7android8hardware5radio4V1_16IRadio25reportStkServiceIsRunningEi"
    },
    {
     "is_pure":true,
     "mangled_component_name":"_ZN7android8hardware5radio4V1_16IRadio25getCdmaSubscriptionSourceEi"
    },
    {
     "is_pure":true,
     "mangled_component_name":"_ZN7android8hardware5radio4V1_16IRadio25requestIsimAuthenticationEiRKNS0_11hidl_stringE"
    },
    {
     "is_pure":true,
     "mangled_component_name":"_ZN7android8hardware5radio4V1_16IRadio32acknowledgeIncomingGsmSmsWithPduEibRKNS0_11hidl_stringE"
    },
    {
     "is_pure":true,
     "mangled_component_name":"_ZN7android8hardware5radio4V1_16IRadio22sendEnvelopeWithStatusEiRKNS0_11hidl_stringE"
    },
    {
     "is_pure":true,
     "mangled_component_name":"_ZN7android8hardware5radio4V1_16IRadio23getVoiceRadioTechnologyEi"
    },
    {
     "is_pure":true,
     "mangled_component_name":"_ZN7android8hardware5radio4V1_16IRadio15getCellInfoListEi"
    },
    {
     "is_pure":true,
     "mangled_component_name":"_ZN7android8hardware5radio4V1_16IRadio19setCellInfoListRateEii"
    },
    {
     "is_pure":true,
     "mangled_component_name":"_ZN7android8hardware5radio4V1_16IRadio19setInitialAttachApnEiRKNS1_4V1_015DataProfileInfoEbb"
    },
    {
     "is_pure":true,
     "mangled_component_name":"_ZN7android8hardware5radio4V1_16IRadio23getImsRegistrationStateEi"
    },
    {
     "is_pure":true,
     "mangled_component_name":"_ZN7android8hardware5radio4V1_16IRadio10sendImsSmsEiRKNS1_4V1_013ImsSmsMessageE"
    },
    {
     "is_pure":true,
     "mangled_component_name":"_ZN7android8hardware5radio4V1_16IRadio27iccTransmitApduBasicChannelEiRKNS1_4V1_07SimApduE"
    },
    {
     "is_pure":true,
     "mangled_component_name":"_ZN7android8hardware5radio4V1_16IRadio21iccOpenLogicalChannelEiRKNS0_11hidl_stringEi"
    },
    {
     "is_pure":true,
     "mangled_component_name":"_ZN7android8hardware5radio4V1_16IRadio22iccCloseLogicalChannelEii"
    },
    {
     "is_pure":true,
     "mangled_component_name":"_ZN7android8hardware5radio4V1_16IRadio29iccTransmitApduLogicalChannelEiRKNS1_4V1_07SimApduE"
    },
    {
     "is_pure":true,
     "mangled_component_name":"_ZN7android8hardware5radio4V1_16IRadio10nvReadItemEiNS1_4V1_06NvItemE"
    },
    {
     "is_pure":true,
     "mangled_component_name":"_ZN7android8hardware5radio4V1_16IRadio11nvWriteItemEiRKNS1_4V1_011NvWriteItemE"
    },
    {
     "is_pure":true,
     "mangled_component_name":"_ZN7android8hardware5radio4V1_16IRadio14nvWriteCdmaPrlEiRKNS0_8hidl_vecIhEE"
    },
    {
     "is_pure":true,
     "mangled_component_name":"_ZN7android8hardware5radio4V1_16IRadio13nvResetConfigEiNS1_4V1_011ResetNvTypeE"
    },
    {
     "is_pure":true,
     "mangled_component_name":"_ZN7android8hardware5radio4V1_16IRadio19setUiccSubscriptionEiRKNS1_4V1_013SelectUiccSubE"
    },
    {
     "is_pure":true,
     "mangled_component_name":"_ZN7android8hardware5radio4V1_16IRadio14setDataAllowedEib"
    },
    {
     "is_pure":true,
     "mangled_component_name":"_ZN7android8hardware5radio4V1_16IRadio17getHardwareConfigEi"
    },
    {
     "is_pure":true,
     "mangled_component_name":"_ZN7android8hardware5radio4V1_16IRadio27requestIccSimAuthenticationEiiRKNS0_11hidl_stringES6_"
    },
    {
     "is_pure":true,
     "mangled_component_name":"_ZN7android8hardware5radio4V1_16IRadio14setDataProfileEiRKNS0_8hidl_vecINS1_4V1_015DataProfileInfoEEEb"
    },
    {
     "is_pure":true,
     "mangled_component_name":"_ZN7android8hardware5radio4V1_16IRadio15requestShutdownEi"
    },
    {
     "is_pure":true,
     "mangled_component_name":"_ZN7android8hardware5radio4V1_16IRadio18getRadioCapabilityEi"
    },
    {
     "is_pure":true,
     "mangled_component_name":"_ZN7android8hardware5radio4V1_16IRadio18setRadioCapabilityEiRKNS1_4V1_015RadioCapabilityE"
    },
    {
     "is_pure":true,
     "mangled_component_name":"_ZN7android8hardware5radio4V1_16IRadio15startLceServiceEiib"
    },
    {
     "is_pure":true,
     "mangled_component_name":"_ZN7android8hardware5radio4V1_16IRadio14stopLceServiceEi"
    },
    {
     "is_pure":true,
     "mangled_component_name":"_ZN7android8hardware5radio4V1_16IRadio11pullLceDataEi"
    },
    {
     "is_pure":true,
     "mangled_component_name":"_ZN7android8hardware5radio4V1_16IRadio20getModemActivityInfoEi"
    },
    {
     "is_pure":true,
     "mangled_component_name":"_ZN7android8hardware5radio4V1_16IRadio18setAllowedCarriersEibRKNS1_4V1_019CarrierRestrictionsE"
    },
    {
     "is_pure":true,
     "mangled_component_name":"_ZN7android8hardware5radio4V1_16IRadio18getAllowedCarriersEi"
    },
    {
     "is_pure":true,
     "mangled_component_name":"_ZN7android8hardware5radio4V1_16IRadio15sendDeviceStateEiNS1_4V1_015DeviceStateTypeEb"
    },
    {
     "is_pure":true,
     "mangled_component_name":"_ZN7android8hardware5radio4V1_16IRadio19setIndicationFilterEii"
    },
    {
     "is_pure":true,
     "mangled_component_name":"_ZN7android8hardware5radio4V1_16IRadio15setSimCardPowerEib"
    },
    {
     "is_pure":true,
     "mangled_component_name":"_ZN7android8hardware5radio4V1_16IRadio23responseAcknowledgementEv"
    },
    {
     "is_pure":true,
     "mangled_component_name":"_ZN7android8hardware5radio4V1_16IRadio31setCarrierInfoForImsiEncryptionEiRKNS2_18ImsiEncryptionInfoE"
    },
    {
     "is_pure":true,
     "mangled_component_name":"_ZN7android8hardware5radio4V1_16IRadio19setSimCardPower_1_1EiNS2_14CardPowerStateE"
    },
    {
     "is_pure":true,
     "mangled_component_name":"_ZN7android8hardware5radio4V1_16IRadio16startNetworkScanEiRKNS2_18NetworkScanRequestE"
    },
    {
     "is_pure":true,
     "mangled_component_name":"_ZN7android8hardware5radio4V1_16IRadio15stopNetworkScanEi"
    },
    {
     "is_pure":true,
     "mangled_component_name":"_ZN7android8hardware5radio4V1_16IRadio14startKeepaliveEiRKNS2_16KeepaliveRequestE"
    },
    {
     "is_pure":true,
     "mangled_component_name":"_ZN7android8hardware5radio4V1_16IRadio13stopKeepaliveEii"
    },
    {
     "kind":"vcall_offset"
    },
    {
     "kind":"vcall_offset"
    },
    {
     "kind":"vcall_offset"
    },
    {
     "kind":"vcall_offset"
    },
    {
     "kind":"vcall_offset",
     "component_value":-4
    },
    {
     "kind":"offset_to_top",
     "component_value":-4
    },
    {
     "kind":"rtti",
     "mangled_component_name":"_ZTIN7android8hardware5radio4V1_16IRadioE"
    },
    {
     "kind":"complete_dtor_pointer",
     "mangled_component_name":"_ZTv0_n12_N7android8hardware5radio4V1_16IRadioD1Ev"
    },
    {
     "kind":"deleting_dtor_pointer",
     "mangled_component_name":"_ZTv0_n12_N7android8hardware5radio4V1_16IRadioD0Ev"
    },
    {
     "mangled_component_name":"_ZN7android7RefBase10onFirstRefEv"
    },
    {
     "mangled_component_name":"_ZN7android7RefBase15onLastStrongRefEPKv"
    },
    {
     "mangled_component_name":"_ZN7android7RefBase20onIncStrongAttemptedEjPKv"
    },
    {
     "mangled_component_name":"_ZN7android7RefBase13onLastWeakRefEPKv"
    }
   ],
   "unique_id":"_ZTSN7android8hardware5radio4V1_16IRadioE"
  }
 ],
 "elf_functions":[
  {
   "name":"_ZN7android8hardware5radio4V1_114IRadioResponse10getServiceERKNSt3__112basic_stringIcNS4_11char_traitsIcEENS4_9allocatorIcEEEEb"
  },
  {
   "name":"_ZN7android8hardware5radio4V1_114IRadioResponse11linkToDeathERKNS_2spINS0_20hidl_death_recipientEEEy"
  },
  {
   "name":"_ZN7android8hardware5radio4V1_114IRadioResponse12getDebugInfoENSt3__18functionIFvRKNS_4hidl4base4V1_09DebugInfoEEEE"
  },
  {
   "name":"_ZN7android8hardware5radio4V1_114IRadioResponse12getHashChainENSt3__18functionIFvRKNS0_8hidl_vecINS0_10hidl_arrayIhLj32EJEEEEEEEE"
  },
  {
   "name":"_ZN7android8hardware5radio4V1_114IRadioResponse13tryGetServiceERKNSt3__112basic_stringIcNS4_11char_traitsIcEENS4_9allocatorIcEEEEb"
  },
  {
   "name":"_ZN7android8hardware5radio4V1_114IRadioResponse13unlinkToDeathERKNS_2spINS0_20hidl_death_recipientEEE"
  },
  {
   "name":"_ZN7android8hardware5radio4V1_114IRadioResponse14interfaceChainENSt3__18functionIFvRKNS0_8hidl_vecINS0_11hidl_stringEEEEEE"
  },
  {
   "name":"_ZN7android8hardware5radio4V1_114IRadioResponse17registerAsServiceERKNSt3__112basic_stringIcNS4_11char_traitsIcEENS4_9allocatorIcEEEE"
  },
  {
   "name":"_ZN7android8hardware5radio4V1_114IRadioResponse19interfaceDescriptorENSt3__18functionIFvRKNS0_11hidl_stringEEEE"
  },
  {
   "name":"_ZN7android8hardware5radio4V1_114IRadioResponse21notifySyspropsChangedEv"
  },
  {
   "name":"_ZN7android8hardware5radio4V1_114IRadioResponse21setHALInstrumentationEv"
  },
  {
   "name":"_ZN7android8hardware5radio4V1_114IRadioResponse24registerForNotificationsERKNSt3__112basic_stringIcNS4_11char_traitsIcEENS4_9allocatorIcEEEERKNS_2spINS_4hidl7manager4V1_020IServiceNotificationEEE"
  },
  {
   "name":"_ZN7android8hardware5radio4V1_114IRadioResponse4pingEv"
  },
  {
   "name":"_ZN7android8hardware5radio4V1_114IRadioResponse5debugERKNS0_11hidl_handleERKNS0_8hidl_vecINS0_11hidl_stringEEE"
  },
  {
   "name":"_ZN7android8hardware5radio4V1_114IRadioResponse8castFromERKNS_2spINS1_4V1_014IRadioResponseEEEb"
  },
  {
   "name":"_ZN7android8hardware5radio4V1_114IRadioResponse8castFromERKNS_2spINS_4hidl4base4V1_05IBaseEEEb"
  },
  {
   "name":"_ZN7android8hardware5radio4V1_114IRadioResponse8castFromERKNS_2spIS3_EEb"
  },
  {
   "name":"_ZN7android8hardware5radio4V1_115BsRadioResponse13addOnewayTaskENSt3__18functionIFvvEEE"
  },
  {
   "name":"_ZN7android8hardware5radio4V1_115BsRadioResponseC1ENS_2spINS2_14IRadioResponseEEE"
  },
  {
   "name":"_ZN7android8hardware5radio4V1_115BsRadioResponseC2ENS_2spINS2_14IRadioResponseEEE"
  },
  {
   "name":"_ZN7android8hardware5radio4V1_116IRadioIndication10getServiceERKNSt3__112basic_stringIcNS4_11char_traitsIcEENS4_9allocatorIcEEEEb"
  },
  {
   "name":"_ZN7android8hardware5radio4V1_116IRadioIndication11linkToDeathERKNS_2spINS0_20hidl_death_recipientEEEy"
  },
  {
   "name":"_ZN7android8hardware5radio4V1_116IRadioIndication12getDebugInfoENSt3__18functionIFvRKNS_4hidl4base4V1_09DebugInfoEEEE"
  },
  {
   "name":"_ZN7android8hardware5radio4V1_116IRadioIndication12getHashChainENSt3__18functionIFvRKNS0_8hidl_vecINS0_10hidl_arrayIhLj32EJEEEEEEEE"
  },
  {
   "name":"_ZN7android8hardware5radio4V1_116IRadioIndication13tryGetServiceERKNSt3__112basic_stringIcNS4_11char_traitsIcEENS4_9allocatorIcEEEEb"
  },
  {
   "name":"_ZN7android8hardware5radio4V1_116IRadioIndication13unlinkToDeathERKNS_2spINS0_20hidl_death_recipientEEE"
  },
  {
   "name":"_ZN7android8hardware5radio4V1_116IRadioIndication14interfaceChainENSt3__18functionIFvRKNS0_8hidl_vecINS0_11hidl_stringEEEEEE"
  },
  {
   "name":"_ZN7android8hardware5radio4V1_116IRadioIndication17registerAsServiceERKNSt3__112basic_stringIcNS4_11char_traitsIcEENS4_9allocatorIcEEEE"
  },
  {
   "name":"_ZN7android8hardware5radio4V1_116IRadioIndication19interfaceDescriptorENSt3__18functionIFvRKNS0_11hidl_stringEEEE"
  },
  {
   "name":"_ZN7android8hardware5radio4V1_116IRadioIndication21notifySyspropsChangedEv"
  },
  {
   "name":"_ZN7android8hardware5radio4V1_116IRadioIndication21setHALInstrumentationEv"
  },
  {
   "name":"_ZN7android8hardware5radio4V1_116IRadioIndication24registerForNotificationsERKNSt3__112basic_stringIcNS4_11char_traitsIcEENS4_9allocatorIcEEEERKNS_2spINS_4hidl7manager4V1_020IServiceNotificationEEE"
  },
  {
   "name":"_ZN7android8hardware5radio4V1_116IRadioIndication4pingEv"
  },
  {
   "name":"_ZN7android8hardware5radio4V1_116IRadioIndication5debugERKNS0_11hidl_handleERKNS0_8hidl_vecINS0_11hidl_stringEEE"
  },
  {
   "name":"_ZN7android8hardware5radio4V1_116IRadioIndication8castFromERKNS_2spINS1_4V1_016IRadioIndicationEEEb"
  },
  {
   "name":"_ZN7android8hardware5radio4V1_116IRadioIndication8castFromERKNS_2spINS_4hidl4base4V1_05IBaseEEEb"
  },
  {
   "name":"_ZN7android8hardware5radio4V1_116IRadioIndication8castFromERKNS_2spIS3_EEb"
  },
  {
   "name":"_ZN7android8hardware5radio4V1_117BnHwRadioResponse10onTransactEjRKNS0_6ParcelEPS4_jNSt3__18functionIFvRS4_EEE"
  },
  {
   "name":"_ZN7android8hardware5radio4V1_117BnHwRadioResponse12getDebugInfoENSt3__18functionIFvRKNS_4hidl4base4V1_09DebugInfoEEEE"
  },
  {
   "name":"_ZN7android8hardware5radio4V1_117BnHwRadioResponse27_hidl_stopKeepaliveResponseEPNS_4hidl4base4V1_08BnHwBaseERKNS0_6ParcelEPS9_NSt3__18functionIFvRS9_EEE"
  },
  {
   "name":"_ZN7android8hardware5radio4V1_117BnHwRadioResponse28_hidl_startKeepaliveResponseEPNS_4hidl4base4V1_08BnHwBaseERKNS0_6ParcelEPS9_NSt3__18functionIFvRS9_EEE"
  },
  {
   "name":"_ZN7android8hardware5radio4V1_117BnHwRadioResponse29_hidl_stopNetworkScanResponseEPNS_4hidl4base4V1_08BnHwBaseERKNS0_6ParcelEPS9_NSt3__18functionIFvRS9_EEE"
  },
  {
   "name":"_ZN7android8hardware5radio4V1_117BnHwRadioResponse30_hidl_startNetworkScanResponseEPNS_4hidl4base4V1_08BnHwBaseERKNS0_6ParcelEPS9_NSt3__18functionIFvRS9_EEE"
  },
  {
   "name":"_ZN7android8hardware5radio4V1_117BnHwRadioResponse33_hidl_setSimCardPowerResponse_1_1EPNS_4hidl4base4V1_08BnHwBaseERKNS0_6ParcelEPS9_NSt3__18functionIFvRS9_EEE"
  },
  {
   "name":"_ZN7android8hardware5radio4V1_117BnHwRadioResponse45_hidl_setCarrierInfoForImsiEncryptionResponseEPNS_4hidl4base4V1_08BnHwBaseERKNS0_6ParcelEPS9_NSt3__18functionIFvRS9_EEE"
  },
  {
   "name":"_ZN7android8hardware5radio4V1_117BnHwRadioResponse4pingEv"
  },
  {
   "name":"_ZN7android8hardware5radio4V1_117BnHwRadioResponseC1ERKNS_2spINS2_14IRadioResponseEEE"
  },
  {
   "name":"_ZN7android8hardware5radio4V1_117BnHwRadioResponseC2ERKNS_2spINS2_14IRadioResponseEEE"
  },
  {
   "name":"_ZN7android8hardware5radio4V1_117BnHwRadioResponseD0Ev"
  },
  {
   "name":"_ZN7android8hardware5radio4V1_117BnHwRadioResponseD1Ev"
  },
  {
   "name":"_ZN7android8hardware5radio4V1_117BnHwRadioResponseD2Ev"
  },
  {
   "name":"_ZN7android8hardware5radio4V1_117BpHwRadioResponse11linkToDeathERKNS_2spINS0_20hidl_death_recipientEEEy"
  },
  {
   "name":"_ZN7android8hardware5radio4V1_117BpHwRadioResponse12dialResponseERKNS1_4V1_017RadioResponseInfoE"
  },
  {
   "name":"_ZN7android8hardware5radio4V1_117BpHwRadioResponse12getDebugInfoENSt3__18functionIFvRKNS_4hidl4base4V1_09DebugInfoEEEE"
  },
  {
   "name":"_ZN7android8hardware5radio4V1_117BpHwRadioResponse12getHashChainENSt3__18functionIFvRKNS0_8hidl_vecINS0_10hidl_arrayIhLj32EJEEEEEEEE"
  },
  {
   "name":"_ZN7android8hardware5radio4V1_117BpHwRadioResponse13unlinkToDeathERKNS_2spINS0_20hidl_death_recipientEEE"
  },
  {
   "name":"_ZN7android8hardware5radio4V1_117BpHwRadioResponse14interfaceChainENSt3__18functionIFvRKNS0_8hidl_vecINS0_11hidl_stringEEEEEE"
  },
  {
   "name":"_ZN7android8hardware5radio4V1_117BpHwRadioResponse15getClipResponseERKNS1_4V1_017RadioResponseInfoENS4_10ClipStatusE"
  },
  {
   "name":"_ZN7android8hardware5radio4V1_117BpHwRadioResponse15getClirResponseERKNS1_4V1_017RadioResponseInfoEii"
  },
  {
   "name":"_ZN7android8hardware5radio4V1_117BpHwRadioResponse15getMuteResponseERKNS1_4V1_017RadioResponseInfoEb"
  },
  {
   "name":"_ZN7android8hardware5radio4V1_117BpHwRadioResponse15sendSmsResponseERKNS1_4V1_017RadioResponseInfoERKNS4_13SendSmsResultE"
  },
  {
   "name":"_ZN7android8hardware5radio4V1_117BpHwRadioResponse15setClirResponseERKNS1_4V1_017RadioResponseInfoE"
  },
  {
   "name":"_ZN7android8hardware5radio4V1_117BpHwRadioResponse15setMuteResponseERKNS1_4V1_017RadioResponseInfoE"
  },
  {
   "name":"_ZN7android8hardware5radio4V1_117BpHwRadioResponse16sendDtmfResponseERKNS1_4V1_017RadioResponseInfoE"
  },
  {
   "name":"_ZN7android8hardware5radio4V1_117BpHwRadioResponse16sendUssdResponseERKNS1_4V1_017RadioResponseInfoE"
  },
  {
   "name":"_ZN7android8hardware5radio4V1_117BpHwRadioResponse16stopDtmfResponseERKNS1_4V1_017RadioResponseInfoE"
  },
  {
   "name":"_ZN7android8hardware5radio4V1_117BpHwRadioResponse17startDtmfResponseERKNS1_4V1_017RadioResponseInfoE"
  },
  {
   "name":"_ZN7android8hardware5radio4V1_117BpHwRadioResponse18acceptCallResponseERKNS1_4V1_017RadioResponseInfoE"
  },
  {
   "name":"_ZN7android8hardware5radio4V1_117BpHwRadioResponse18acknowledgeRequestEi"
  },
  {
   "name":"_ZN7android8hardware5radio4V1_117BpHwRadioResponse18conferenceResponseERKNS1_4V1_017RadioResponseInfoE"
  },
  {
   "name":"_ZN7android8hardware5radio4V1_117BpHwRadioResponse18getTTYModeResponseERKNS1_4V1_017RadioResponseInfoENS4_7TtyModeE"
  },
  {
   "name":"_ZN7android8hardware5radio4V1_117BpHwRadioResponse18nvReadItemResponseERKNS1_4V1_017RadioResponseInfoERKNS0_11hidl_stringE"
  },
  {
   "name":"_ZN7android8hardware5radio4V1_117BpHwRadioResponse18rejectCallResponseERKNS1_4V1_017RadioResponseInfoE"
  },
  {
   "name":"_ZN7android8hardware5radio4V1_117BpHwRadioResponse18sendImsSmsResponseERKNS1_4V1_017RadioResponseInfoERKNS4_13SendSmsResultE"
  },
  {
   "name":"_ZN7android8hardware5radio4V1_117BpHwRadioResponse18setTTYModeResponseERKNS1_4V1_017RadioResponseInfoE"
  },
  {
   "name":"_ZN7android8hardware5radio4V1_117BpHwRadioResponse19getOperatorResponseERKNS1_4V1_017RadioResponseInfoERKNS0_11hidl_stringESA_SA_"
  },
  {
   "name":"_ZN7android8hardware5radio4V1_117BpHwRadioResponse19iccIOForAppResponseERKNS1_4V1_017RadioResponseInfoERKNS4_11IccIoResultE"
  },
  {
   "name":"_ZN7android8hardware5radio4V1_117BpHwRadioResponse19interfaceDescriptorENSt3__18functionIFvRKNS0_11hidl_stringEEEE"
  },
  {
   "name":"_ZN7android8hardware5radio4V1_117BpHwRadioResponse19nvWriteItemResponseERKNS1_4V1_017RadioResponseInfoE"
  },
  {
   "name":"_ZN7android8hardware5radio4V1_117BpHwRadioResponse19pullLceDataResponseERKNS1_4V1_017RadioResponseInfoERKNS4_11LceDataInfoE"
  },
  {
   "name":"_ZN7android8hardware5radio4V1_117BpHwRadioResponse19sendCdmaSmsResponseERKNS1_4V1_017RadioResponseInfoERKNS4_13SendSmsResultE"
  },
  {
   "name":"_ZN7android8hardware5radio4V1_117BpHwRadioResponse19setBandModeResponseERKNS1_4V1_017RadioResponseInfoE"
  },
  {
   "name":"_ZN7android8hardware5radio4V1_117BpHwRadioResponse20sendEnvelopeResponseERKNS1_4V1_017RadioResponseInfoERKNS0_11hidl_stringE"
  },
  {
   "name":"_ZN7android8hardware5radio4V1_117BpHwRadioResponse21getIMSIForAppResponseERKNS1_4V1_017RadioResponseInfoERKNS0_11hidl_stringE"
  },
  {
   "name":"_ZN7android8hardware5radio4V1_117BpHwRadioResponse21notifySyspropsChangedEv"
  },
  {
   "name":"_ZN7android8hardware5radio4V1_117BpHwRadioResponse21nvResetConfigResponseERKNS1_4V1_017RadioResponseInfoE"
  },
  {
   "name":"_ZN7android8hardware5radio4V1_117BpHwRadioResponse21sendBurstDtmfResponseERKNS1_4V1_017RadioResponseInfoE"
  },
  {
   "name":"_ZN7android8hardware5radio4V1_117BpHwRadioResponse21setHALInstrumentationEv"
  },
  {
   "name":"_ZN7android8hardware5radio4V1_117BpHwRadioResponse21setRadioPowerResponseERKNS1_4V1_017RadioResponseInfoE"
  },
  {
   "name":"_ZN7android8hardware5radio4V1_117BpHwRadioResponse21setupDataCallResponseERKNS1_4V1_017RadioResponseInfoERKNS4_19SetupDataCallResultE"
  },
  {
   "name":"_ZN7android8hardware5radio4V1_117BpHwRadioResponse21stopKeepaliveResponseERKNS1_4V1_017RadioResponseInfoE"
  },
  {
   "name":"_ZN7android8hardware5radio4V1_117BpHwRadioResponse21writeSmsToSimResponseERKNS1_4V1_017RadioResponseInfoEi"
  },
  {
   "name":"_ZN7android8hardware5radio4V1_117BpHwRadioResponse22deleteSmsOnSimResponseERKNS1_4V1_017RadioResponseInfoE"
  },
  {
   "name":"_ZN7android8hardware5radio4V1_117BpHwRadioResponse22getCallWaitingResponseERKNS1_4V1_017RadioResponseInfoEbi"
  },
  {
   "name":"_ZN7android8hardware5radio4V1_117BpHwRadioResponse22getSmscAddressResponseERKNS1_4V1_017RadioResponseInfoERKNS0_11hidl_stringE"
  },
  {
   "name":"_ZN7android8hardware5radio4V1_117BpHwRadioResponse22nvWriteCdmaPrlResponseERKNS1_4V1_017RadioResponseInfoE"
  },
  {
   "name":"_ZN7android8hardware5radio4V1_117BpHwRadioResponse22setCallForwardResponseERKNS1_4V1_017RadioResponseInfoE"
  },
  {
   "name":"_ZN7android8hardware5radio4V1_117BpHwRadioResponse22setCallWaitingResponseERKNS1_4V1_017RadioResponseInfoE"
  },
  {
   "name":"_ZN7android8hardware5radio4V1_117BpHwRadioResponse22setDataAllowedResponseERKNS1_4V1_017RadioResponseInfoE"
  },
  {
   "name":"_ZN7android8hardware5radio4V1_117BpHwRadioResponse22setDataProfileResponseERKNS1_4V1_017RadioResponseInfoE"
  },
  {
   "name":"_ZN7android8hardware5radio4V1_117BpHwRadioResponse22setSmscAddressResponseERKNS1_4V1_017RadioResponseInfoE"
  },
  {
   "name":"_ZN7android8hardware5radio4V1_117BpHwRadioResponse22startKeepaliveResponseERKNS1_4V1_017RadioResponseInfoERKNS2_15KeepaliveStatusE"
  },
  {
   "name":"_ZN7android8hardware5radio4V1_117BpHwRadioResponse22stopLceServiceResponseERKNS1_4V1_017RadioResponseInfoERKNS4_13LceStatusInfoE"
  },
  {
   "name":"_ZN7android8hardware5radio4V1_117BpHwRadioResponse22writeSmsToRuimResponseERKNS1_4V1_017RadioResponseInfoEj"
  },
  {
   "name":"_ZN7android8hardware5radio4V1_117BpHwRadioResponse23deleteSmsOnRuimResponseERKNS1_4V1_017RadioResponseInfoE"
  },
  {
   "name":"_ZN7android8hardware5radio4V1_117BpHwRadioResponse23getCellInfoListResponseERKNS1_4V1_017RadioResponseInfoERKNS0_8hidl_vecINS4_8CellInfoEEE"
  },
  {
   "name":"_ZN7android8hardware5radio4V1_117BpHwRadioResponse23getCurrentCallsResponseERKNS1_4V1_017RadioResponseInfoERKNS0_8hidl_vecINS4_4CallEEE"
  },
  {
   "name":"_ZN7android8hardware5radio4V1_117BpHwRadioResponse23getDataCallListResponseERKNS1_4V1_017RadioResponseInfoERKNS0_8hidl_vecINS4_19SetupDataCallResultEEE"
  },
  {
   "name":"_ZN7android8hardware5radio4V1_117BpHwRadioResponse23requestShutdownResponseERKNS1_4V1_017RadioResponseInfoE"
  },
  {
   "name":"_ZN7android8hardware5radio4V1_117BpHwRadioResponse23sendDeviceStateResponseERKNS1_4V1_017RadioResponseInfoE"
  },
  {
   "name":"_ZN7android8hardware5radio4V1_117BpHwRadioResponse23setSimCardPowerResponseERKNS1_4V1_017RadioResponseInfoE"
  },
  {
   "name":"_ZN7android8hardware5radio4V1_117BpHwRadioResponse23startLceServiceResponseERKNS1_4V1_017RadioResponseInfoERKNS4_13LceStatusInfoE"
  },
  {
   "name":"_ZN7android8hardware5radio4V1_117BpHwRadioResponse23stopNetworkScanResponseERKNS1_4V1_017RadioResponseInfoE"
  },
  {
   "name":"_ZN7android8hardware5radio4V1_117BpHwRadioResponse24getIccCardStatusResponseERKNS1_4V1_017RadioResponseInfoERKNS4_10CardStatusE"
  },
  {
   "name":"_ZN7android8hardware5radio4V1_117BpHwRadioResponse24hangupConnectionResponseERKNS1_4V1_017RadioResponseInfoE"
  },
  {
   "name":"_ZN7android8hardware5radio4V1_117BpHwRadioResponse24startNetworkScanResponseERKNS1_4V1_017RadioResponseInfoE"
  },
  {
   "name":"_ZN7android8hardware5radio4V1_117BpHwRadioResponse25cancelPendingUssdResponseERKNS1_4V1_017RadioResponseInfoE"
  },
  {
   "name":"_ZN7android8hardware5radio4V1_117BpHwRadioResponse25getDeviceIdentityResponseERKNS1_4V1_017RadioResponseInfoERKNS0_11hidl_stringESA_SA_SA_"
  },
  {
   "name":"_ZN7android8hardware5radio4V1_117BpHwRadioResponse25getHardwareConfigResponseERKNS1_4V1_017RadioResponseInfoERKNS0_8hidl_vecINS4_14HardwareConfigEEE"
  },
  {
   "name":"_ZN7android8hardware5radio4V1_117BpHwRadioResponse25getSignalStrengthResponseERKNS1_4V1_017RadioResponseInfoERKNS4_14SignalStrengthE"
  },
  {
   "name":"_ZN7android8hardware5radio4V1_117BpHwRadioResponse25sendSMSExpectMoreResponseERKNS1_4V1_017RadioResponseInfoERKNS4_13SendSmsResultE"
  },
  {
   "name":"_ZN7android8hardware5radio4V1_117BpHwRadioResponse26changeIccPinForAppResponseERKNS1_4V1_017RadioResponseInfoEi"
  },
  {
   "name":"_ZN7android8hardware5radio4V1_117BpHwRadioResponse26deactivateDataCallResponseERKNS1_4V1_017RadioResponseInfoE"
  },
  {
   "name":"_ZN7android8hardware5radio4V1_117BpHwRadioResponse26getAllowedCarriersResponseERKNS1_4V1_017RadioResponseInfoEbRKNS4_19CarrierRestrictionsE"
  },
  {
   "name":"_ZN7android8hardware5radio4V1_117BpHwRadioResponse26getBasebandVersionResponseERKNS1_4V1_017RadioResponseInfoERKNS0_11hidl_stringE"
  },
  {
   "name":"_ZN7android8hardware5radio4V1_117BpHwRadioResponse26getNeighboringCidsResponseERKNS1_4V1_017RadioResponseInfoERKNS0_8hidl_vecINS4_15NeighboringCellEEE"
  },
  {
   "name":"_ZN7android8hardware5radio4V1_117BpHwRadioResponse26getRadioCapabilityResponseERKNS1_4V1_017RadioResponseInfoERKNS4_15RadioCapabilityE"
  },
  {
   "name":"_ZN7android8hardware5radio4V1_117BpHwRadioResponse26separateConnectionResponseERKNS1_4V1_017RadioResponseInfoE"
  },
  {
   "name":"_ZN7android8hardware5radio4V1_117BpHwRadioResponse26setAllowedCarriersResponseERKNS1_4V1_017RadioResponseInfoEi"
  },
  {
   "name":"_ZN7android8hardware5radio4V1_117BpHwRadioResponse26setBarringPasswordResponseERKNS1_4V1_017RadioResponseInfoE"
  },
  {
   "name":"_ZN7android8hardware5radio4V1_117BpHwRadioResponse26setLocationUpdatesResponseERKNS1_4V1_017RadioResponseInfoE"
  },
  {
   "name":"_ZN7android8hardware5radio4V1_117BpHwRadioResponse26setRadioCapabilityResponseERKNS1_4V1_017RadioResponseInfoERKNS4_15RadioCapabilityE"
  },
  {
   "name":"_ZN7android8hardware5radio4V1_117BpHwRadioResponse26supplyIccPinForAppResponseERKNS1_4V1_017RadioResponseInfoEi"
  },
  {
   "name":"_ZN7android8hardware5radio4V1_117BpHwRadioResponse26supplyIccPukForAppResponseERKNS1_4V1_017RadioResponseInfoEi"
  },
  {
   "name":"_ZN7android8hardware5radio4V1_117BpHwRadioResponse27_hidl_stopKeepaliveResponseEPNS0_10IInterfaceEPNS0_7details16HidlInstrumentorERKNS1_4V1_017RadioResponseInfoE"
  },
  {
   "name":"_ZN7android8hardware5radio4V1_117BpHwRadioResponse27changeIccPin2ForAppResponseERKNS1_4V1_017RadioResponseInfoEi"
  },
  {
   "name":"_ZN7android8hardware5radio4V1_117BpHwRadioResponse27getCDMASubscriptionResponseERKNS1_4V1_017RadioResponseInfoERKNS0_11hidl_stringESA_SA_SA_SA_"
  },
  {
   "name":"_ZN7android8hardware5radio4V1_117BpHwRadioResponse27sendCDMAFeatureCodeResponseERKNS1_4V1_017RadioResponseInfoE"
  },
  {
   "name":"_ZN7android8hardware5radio4V1_117BpHwRadioResponse27setCellInfoListRateResponseERKNS1_4V1_017RadioResponseInfoE"
  },
  {
   "name":"_ZN7android8hardware5radio4V1_117BpHwRadioResponse27setIndicationFilterResponseERKNS1_4V1_017RadioResponseInfoE"
  },
  {
   "name":"_ZN7android8hardware5radio4V1_117BpHwRadioResponse27setInitialAttachApnResponseERKNS1_4V1_017RadioResponseInfoE"
  },
  {
   "name":"_ZN7android8hardware5radio4V1_117BpHwRadioResponse27setSimCardPowerResponse_1_1ERKNS1_4V1_017RadioResponseInfoE"
  },
  {
   "name":"_ZN7android8hardware5radio4V1_117BpHwRadioResponse27setUiccSubscriptionResponseERKNS1_4V1_017RadioResponseInfoE"
  },
  {
   "name":"_ZN7android8hardware5radio4V1_117BpHwRadioResponse27supplyIccPin2ForAppResponseERKNS1_4V1_017RadioResponseInfoEi"
  },
  {
   "name":"_ZN7android8hardware5radio4V1_117BpHwRadioResponse27supplyIccPuk2ForAppResponseERKNS1_4V1_017RadioResponseInfoEi"
  },
  {
   "name":"_ZN7android8hardware5radio4V1_117BpHwRadioResponse28_hidl_startKeepaliveResponseEPNS0_10IInterfaceEPNS0_7details16HidlInstrumentorERKNS1_4V1_017RadioResponseInfoERKNS2_15KeepaliveStatusE"
  },
  {
   "name":"_ZN7android8hardware5radio4V1_117BpHwRadioResponse28explicitCallTransferResponseERKNS1_4V1_017RadioResponseInfoE"
  },
  {
   "name":"_ZN7android8hardware5radio4V1_117BpHwRadioResponse28getAvailableNetworksResponseERKNS1_4V1_017RadioResponseInfoERKNS0_8hidl_vecINS4_12OperatorInfoEEE"
  },
  {
   "name":"_ZN7android8hardware5radio4V1_117BpHwRadioResponse28getCallForwardStatusResponseERKNS1_4V1_017RadioResponseInfoERKNS0_8hidl_vecINS4_15CallForwardInfoEEE"
  },
  {
   "name":"_ZN7android8hardware5radio4V1_117BpHwRadioResponse28getLastCallFailCauseResponseERKNS1_4V1_017RadioResponseInfoERKNS4_21LastCallFailCauseInfoE"
  },
  {
   "name":"_ZN7android8hardware5radio4V1_117BpHwRadioResponse28getModemActivityInfoResponseERKNS1_4V1_017RadioResponseInfoERKNS4_17ActivityStatsInfoE"
  },
  {
   "name":"_ZN7android8hardware5radio4V1_117BpHwRadioResponse29_hidl_stopNetworkScanResponseEPNS0_10IInterfaceEPNS0_7details16HidlInstrumentorERKNS1_4V1_017RadioResponseInfoE"
  },
  {
   "name":"_ZN7android8hardware5radio4V1_117BpHwRadioResponse29getAvailableBandModesResponseERKNS1_4V1_017RadioResponseInfoERKNS0_8hidl_vecINS4_13RadioBandModeEEE"
  },
  {
   "name":"_ZN7android8hardware5radio4V1_117BpHwRadioResponse29getFacilityLockForAppResponseERKNS1_4V1_017RadioResponseInfoEi"
  },
  {
   "name":"_ZN7android8hardware5radio4V1_117BpHwRadioResponse29getGsmBroadcastConfigResponseERKNS1_4V1_017RadioResponseInfoERKNS0_8hidl_vecINS4_25GsmBroadcastSmsConfigInfoEEE"
  },
  {
   "name":"_ZN7android8hardware5radio4V1_117BpHwRadioResponse29iccOpenLogicalChannelResponseERKNS1_4V1_017RadioResponseInfoEiRKNS0_8hidl_vecIaEE"
  },
  {
   "name":"_ZN7android8hardware5radio4V1_117BpHwRadioResponse29reportSmsMemoryStatusResponseERKNS1_4V1_017RadioResponseInfoE"
  },
  {
   "name":"_ZN7android8hardware5radio4V1_117BpHwRadioResponse29setFacilityLockForAppResponseERKNS1_4V1_017RadioResponseInfoEi"
  },
  {
   "name":"_ZN7android8hardware5radio4V1_117BpHwRadioResponse29setGsmBroadcastConfigResponseERKNS1_4V1_017RadioResponseInfoE"
  },
  {
   "name":"_ZN7android8hardware5radio4V1_117BpHwRadioResponse30_hidl_startNetworkScanResponseEPNS0_10IInterfaceEPNS0_7details16HidlInstrumentorERKNS1_4V1_017RadioResponseInfoE"
  },
  {
   "name":"_ZN7android8hardware5radio4V1_117BpHwRadioResponse30getCdmaBroadcastConfigResponseERKNS1_4V1_017RadioResponseInfoERKNS0_8hidl_vecINS4_26CdmaBroadcastSmsConfigInfoEEE"
  },
  {
   "name":"_ZN7android8hardware5radio4V1_117BpHwRadioResponse30iccCloseLogicalChannelResponseERKNS1_4V1_017RadioResponseInfoE"
  },
  {
   "name":"_ZN7android8hardware5radio4V1_117BpHwRadioResponse30sendEnvelopeWithStatusResponseERKNS1_4V1_017RadioResponseInfoERKNS4_11IccIoResultE"
  },
  {
   "name":"_ZN7android8hardware5radio4V1_117BpHwRadioResponse30setCdmaBroadcastConfigResponseERKNS1_4V1_017RadioResponseInfoE"
  },
  {
   "name":"_ZN7android8hardware5radio4V1_117BpHwRadioResponse31getImsRegistrationStateResponseERKNS1_4V1_017RadioResponseInfoEbNS4_21RadioTechnologyFamilyE"
  },
  {
   "name":"_ZN7android8hardware5radio4V1_117BpHwRadioResponse31getNetworkSelectionModeResponseERKNS1_4V1_017RadioResponseInfoEb"
  },
  {
   "name":"_ZN7android8hardware5radio4V1_117BpHwRadioResponse31getPreferredNetworkTypeResponseERKNS1_4V1_017RadioResponseInfoENS4_20PreferredNetworkTypeE"
  },
  {
   "name":"_ZN7android8hardware5radio4V1_117BpHwRadioResponse31getVoiceRadioTechnologyResponseERKNS1_4V1_017RadioResponseInfoENS4_15RadioTechnologyE"
  },
  {
   "name":"_ZN7android8hardware5radio4V1_117BpHwRadioResponse31setPreferredNetworkTypeResponseERKNS1_4V1_017RadioResponseInfoE"
  },
  {
   "name":"_ZN7android8hardware5radio4V1_117BpHwRadioResponse32getCdmaRoamingPreferenceResponseERKNS1_4V1_017RadioResponseInfoENS4_15CdmaRoamingTypeE"
  },
  {
   "name":"_ZN7android8hardware5radio4V1_117BpHwRadioResponse32getDataRegistrationStateResponseERKNS1_4V1_017RadioResponseInfoERKNS4_18DataRegStateResultE"
  },
  {
   "name":"_ZN7android8hardware5radio4V1_117BpHwRadioResponse32getPreferredVoicePrivacyResponseERKNS1_4V1_017RadioResponseInfoEb"
  },
  {
   "name":"_ZN7android8hardware5radio4V1_117BpHwRadioResponse32setCdmaRoamingPreferenceResponseERKNS1_4V1_017RadioResponseInfoE"
  },
  {
   "name":"_ZN7android8hardware5radio4V1_117BpHwRadioResponse32setPreferredVoicePrivacyResponseERKNS1_4V1_017RadioResponseInfoE"
  },
  {
   "name":"_ZN7android8hardware5radio4V1_117BpHwRadioResponse33_hidl_setSimCardPowerResponse_1_1EPNS0_10IInterfaceEPNS0_7details16HidlInstrumentorERKNS1_4V1_017RadioResponseInfoE"
  },
  {
   "name":"_ZN7android8hardware5radio4V1_117BpHwRadioResponse33exitEmergencyCallbackModeResponseERKNS1_4V1_017RadioResponseInfoE"
  },
  {
   "name":"_ZN7android8hardware5radio4V1_117BpHwRadioResponse33getCdmaSubscriptionSourceResponseERKNS1_4V1_017RadioResponseInfoENS4_22CdmaSubscriptionSourceE"
  },
  {
   "name":"_ZN7android8hardware5radio4V1_117BpHwRadioResponse33getVoiceRegistrationStateResponseERKNS1_4V1_017RadioResponseInfoERKNS4_19VoiceRegStateResultE"
  },
  {
   "name":"_ZN7android8hardware5radio4V1_117BpHwRadioResponse33hangupWaitingOrBackgroundResponseERKNS1_4V1_017RadioResponseInfoE"
  },
  {
   "name":"_ZN7android8hardware5radio4V1_117BpHwRadioResponse33reportStkServiceIsRunningResponseERKNS1_4V1_017RadioResponseInfoE"
  },
  {
   "name":"_ZN7android8hardware5radio4V1_117BpHwRadioResponse33requestIsimAuthenticationResponseERKNS1_4V1_017RadioResponseInfoERKNS0_11hidl_stringE"
  },
  {
   "name":"_ZN7android8hardware5radio4V1_117BpHwRadioResponse33sendTerminalResponseToSimResponseERKNS1_4V1_017RadioResponseInfoE"
  },
  {
   "name":"_ZN7android8hardware5radio4V1_117BpHwRadioResponse33setCdmaSubscriptionSourceResponseERKNS1_4V1_017RadioResponseInfoE"
  },
  {
   "name":"_ZN7android8hardware5radio4V1_117BpHwRadioResponse33setGsmBroadcastActivationResponseERKNS1_4V1_017RadioResponseInfoE"
  },
  {
   "name":"_ZN7android8hardware5radio4V1_117BpHwRadioResponse34setCdmaBroadcastActivationResponseERKNS1_4V1_017RadioResponseInfoE"
  },
  {
   "name":"_ZN7android8hardware5radio4V1_117BpHwRadioResponse35iccTransmitApduBasicChannelResponseERKNS1_4V1_017RadioResponseInfoERKNS4_11IccIoResultE"
  },
  {
   "name":"_ZN7android8hardware5radio4V1_117BpHwRadioResponse35requestIccSimAuthenticationResponseERKNS1_4V1_017RadioResponseInfoERKNS4_11IccIoResultE"
  },
  {
   "name":"_ZN7android8hardware5radio4V1_117BpHwRadioResponse35setSuppServiceNotificationsResponseERKNS1_4V1_017RadioResponseInfoE"
  },
  {
   "name":"_ZN7android8hardware5radio4V1_117BpHwRadioResponse37acknowledgeLastIncomingGsmSmsResponseERKNS1_4V1_017RadioResponseInfoE"
  },
  {
   "name":"_ZN7android8hardware5radio4V1_117BpHwRadioResponse37iccTransmitApduLogicalChannelResponseERKNS1_4V1_017RadioResponseInfoERKNS4_11IccIoResultE"
  },
  {
   "name":"_ZN7android8hardware5radio4V1_117BpHwRadioResponse37setNetworkSelectionModeManualResponseERKNS1_4V1_017RadioResponseInfoE"
  },
  {
   "name":"_ZN7android8hardware5radio4V1_117BpHwRadioResponse38acknowledgeLastIncomingCdmaSmsResponseERKNS1_4V1_017RadioResponseInfoE"
  },
  {
   "name":"_ZN7android8hardware5radio4V1_117BpHwRadioResponse38supplyNetworkDepersonalizationResponseERKNS1_4V1_017RadioResponseInfoEi"
  },
  {
   "name":"_ZN7android8hardware5radio4V1_117BpHwRadioResponse39setCarrierInfoForImsiEncryptionResponseERKNS1_4V1_017RadioResponseInfoE"
  },
  {
   "name":"_ZN7android8hardware5radio4V1_117BpHwRadioResponse39switchWaitingOrHoldingAndActiveResponseERKNS1_4V1_017RadioResponseInfoE"
  },
  {
   "name":"_ZN7android8hardware5radio4V1_117BpHwRadioResponse40acknowledgeIncomingGsmSmsWithPduResponseERKNS1_4V1_017RadioResponseInfoE"
  },
  {
   "name":"_ZN7android8hardware5radio4V1_117BpHwRadioResponse40handleStkCallSetupRequestFromSimResponseERKNS1_4V1_017RadioResponseInfoE"
  },
  {
   "name":"_ZN7android8hardware5radio4V1_117BpHwRadioResponse40hangupForegroundResumeBackgroundResponseERKNS1_4V1_017RadioResponseInfoE"
  },
  {
   "name":"_ZN7android8hardware5radio4V1_117BpHwRadioResponse40setNetworkSelectionModeAutomaticResponseERKNS1_4V1_017RadioResponseInfoE"
  },
  {
   "name":"_ZN7android8hardware5radio4V1_117BpHwRadioResponse45_hidl_setCarrierInfoForImsiEncryptionResponseEPNS0_10IInterfaceEPNS0_7details16HidlInstrumentorERKNS1_4V1_017RadioResponseInfoE"
  },
  {
   "name":"_ZN7android8hardware5radio4V1_117BpHwRadioResponse4pingEv"
  },
  {
   "name":"_ZN7android8hardware5radio4V1_117BpHwRadioResponse5debugERKNS0_11hidl_handleERKNS0_8hidl_vecINS0_11hidl_stringEEE"
  },
  {
   "name":"_ZN7android8hardware5radio4V1_117BpHwRadioResponseC1ERKNS_2spINS0_7IBinderEEE"
  },
  {
   "name":"_ZN7android8hardware5radio4V1_117BpHwRadioResponseC2ERKNS_2spINS0_7IBinderEEE"
  },
  {
   "name":"_ZN7android8hardware5radio4V1_117BsRadioIndication13addOnewayTaskENSt3__18functionIFvvEEE"
  },
  {
   "name":"_ZN7android8hardware5radio4V1_117BsRadioIndicationC1ENS_2spINS2_16IRadioIndicationEEE"
  },
  {
   "name":"_ZN7android8hardware5radio4V1_117BsRadioIndicationC2ENS_2spINS2_16IRadioIndicationEEE"
  },
  {
   "name":"_ZN7android8hardware5radio4V1_119BnHwRadioIndication10onTransactEjRKNS0_6ParcelEPS4_jNSt3__18functionIFvRS4_EEE"
  },
  {
   "name":"_ZN7android8hardware5radio4V1_119BnHwRadioIndication12getDebugInfoENSt3__18functionIFvRKNS_4hidl4base4V1_09DebugInfoEEEE"
  },
  {
   "name":"_ZN7android8hardware5radio4V1_119BnHwRadioIndication21_hidl_keepaliveStatusEPNS_4hidl4base4V1_08BnHwBaseERKNS0_6ParcelEPS9_NSt3__18functionIFvRS9_EEE"
  },
  {
   "name":"_ZN7android8hardware5radio4V1_119BnHwRadioIndication23_hidl_networkScanResultEPNS_4hidl4base4V1_08BnHwBaseERKNS0_6ParcelEPS9_NSt3__18functionIFvRS9_EEE"
  },
  {
   "name":"_ZN7android8hardware5radio4V1_119BnHwRadioIndication34_hidl_carrierInfoForImsiEncryptionEPNS_4hidl4base4V1_08BnHwBaseERKNS0_6ParcelEPS9_NSt3__18functionIFvRS9_EEE"
  },
  {
   "name":"_ZN7android8hardware5radio4V1_119BnHwRadioIndication4pingEv"
  },
  {
   "name":"_ZN7android8hardware5radio4V1_119BnHwRadioIndicationC1ERKNS_2spINS2_16IRadioIndicationEEE"
  },
  {
   "name":"_ZN7android8hardware5radio4V1_119BnHwRadioIndicationC2ERKNS_2spINS2_16IRadioIndicationEEE"
  },
  {
   "name":"_ZN7android8hardware5radio4V1_119BnHwRadioIndicationD0Ev"
  },
  {
   "name":"_ZN7android8hardware5radio4V1_119BnHwRadioIndicationD1Ev"
  },
  {
   "name":"_ZN7android8hardware5radio4V1_119BnHwRadioIndicationD2Ev"
  },
  {
   "name":"_ZN7android8hardware5radio4V1_119BpHwRadioIndication10cdmaNewSmsENS1_4V1_019RadioIndicationTypeERKNS4_14CdmaSmsMessageE"
  },
  {
   "name":"_ZN7android8hardware5radio4V1_119BpHwRadioIndication10modemResetENS1_4V1_019RadioIndicationTypeERKNS0_11hidl_stringE"
  },
  {
   "name":"_ZN7android8hardware5radio4V1_119BpHwRadioIndication10simRefreshENS1_4V1_019RadioIndicationTypeERKNS4_16SimRefreshResultE"
  },
  {
   "name":"_ZN7android8hardware5radio4V1_119BpHwRadioIndication11cdmaInfoRecENS1_4V1_019RadioIndicationTypeERKNS4_22CdmaInformationRecordsE"
  },
  {
   "name":"_ZN7android8hardware5radio4V1_119BpHwRadioIndication11linkToDeathERKNS_2spINS0_20hidl_death_recipientEEEy"
  },
  {
   "name":"_ZN7android8hardware5radio4V1_119BpHwRadioIndication11newSmsOnSimENS1_4V1_019RadioIndicationTypeEi"
  },
  {
   "name":"_ZN7android8hardware5radio4V1_119BpHwRadioIndication12cellInfoListENS1_4V1_019RadioIndicationTypeERKNS0_8hidl_vecINS4_8CellInfoEEE"
  },
  {
   "name":"_ZN7android8hardware5radio4V1_119BpHwRadioIndication12getDebugInfoENSt3__18functionIFvRKNS_4hidl4base4V1_09DebugInfoEEEE"
  },
  {
   "name":"_ZN7android8hardware5radio4V1_119BpHwRadioIndication12getHashChainENSt3__18functionIFvRKNS0_8hidl_vecINS0_10hidl_arrayIhLj32EJEEEEEEEE"
  },
  {
   "name":"_ZN7android8hardware5radio4V1_119BpHwRadioIndication12rilConnectedENS1_4V1_019RadioIndicationTypeE"
  },
  {
   "name":"_ZN7android8hardware5radio4V1_119BpHwRadioIndication12stkCallSetupENS1_4V1_019RadioIndicationTypeEx"
  },
  {
   "name":"_ZN7android8hardware5radio4V1_119BpHwRadioIndication13stkSessionEndENS1_4V1_019RadioIndicationTypeE"
  },
  {
   "name":"_ZN7android8hardware5radio4V1_119BpHwRadioIndication13suppSvcNotifyENS1_4V1_019RadioIndicationTypeERKNS4_19SuppSvcNotificationE"
  },
  {
   "name":"_ZN7android8hardware5radio4V1_119BpHwRadioIndication13unlinkToDeathERKNS_2spINS0_20hidl_death_recipientEEE"
  },
  {
   "name":"_ZN7android8hardware5radio4V1_119BpHwRadioIndication14cdmaPrlChangedENS1_4V1_019RadioIndicationTypeEi"
  },
  {
   "name":"_ZN7android8hardware5radio4V1_119BpHwRadioIndication14interfaceChainENSt3__18functionIFvRKNS0_8hidl_vecINS0_11hidl_stringEEEEEE"
  },
  {
   "name":"_ZN7android8hardware5radio4V1_119BpHwRadioIndication14stkEventNotifyENS1_4V1_019RadioIndicationTypeERKNS0_11hidl_stringE"
  },
  {
   "name":"_ZN7android8hardware5radio4V1_119BpHwRadioIndication15cdmaCallWaitingENS1_4V1_019RadioIndicationTypeERKNS4_15CdmaCallWaitingE"
  },
  {
   "name":"_ZN7android8hardware5radio4V1_119BpHwRadioIndication15keepaliveStatusENS1_4V1_019RadioIndicationTypeERKNS2_15KeepaliveStatusE"
  },
  {
   "name":"_ZN7android8hardware5radio4V1_119BpHwRadioIndication15newBroadcastSmsENS1_4V1_019RadioIndicationTypeERKNS0_8hidl_vecIhEE"
  },
  {
   "name":"_ZN7android8hardware5radio4V1_119BpHwRadioIndication16callStateChangedENS1_4V1_019RadioIndicationTypeE"
  },
  {
   "name":"_ZN7android8hardware5radio4V1_119BpHwRadioIndication16nitzTimeReceivedENS1_4V1_019RadioIndicationTypeERKNS0_11hidl_stringEy"
  },
  {
   "name":"_ZN7android8hardware5radio4V1_119BpHwRadioIndication16resendIncallMuteENS1_4V1_019RadioIndicationTypeE"
  },
  {
   "name":"_ZN7android8hardware5radio4V1_119BpHwRadioIndication16simStatusChangedENS1_4V1_019RadioIndicationTypeE"
  },
  {
   "name":"_ZN7android8hardware5radio4V1_119BpHwRadioIndication16srvccStateNotifyENS1_4V1_019RadioIndicationTypeENS4_10SrvccStateE"
  },
  {
   "name":"_ZN7android8hardware5radio4V1_119BpHwRadioIndication17networkScanResultENS1_4V1_019RadioIndicationTypeERKNS2_17NetworkScanResultE"
  },
  {
   "name":"_ZN7android8hardware5radio4V1_119BpHwRadioIndication17radioStateChangedENS1_4V1_019RadioIndicationTypeENS4_10RadioStateE"
  },
  {
   "name":"_ZN7android8hardware5radio4V1_119BpHwRadioIndication17simSmsStorageFullENS1_4V1_019RadioIndicationTypeE"
  },
  {
   "name":"_ZN7android8hardware5radio4V1_119BpHwRadioIndication18newSmsStatusReportENS1_4V1_019RadioIndicationTypeERKNS0_8hidl_vecIhEE"
  },
  {
   "name":"_ZN7android8hardware5radio4V1_119BpHwRadioIndication19dataCallListChangedENS1_4V1_019RadioIndicationTypeERKNS0_8hidl_vecINS4_19SetupDataCallResultEEE"
  },
  {
   "name":"_ZN7android8hardware5radio4V1_119BpHwRadioIndication19interfaceDescriptorENSt3__18functionIFvRKNS0_11hidl_stringEEEE"
  },
  {
   "name":"_ZN7android8hardware5radio4V1_119BpHwRadioIndication19networkStateChangedENS1_4V1_019RadioIndicationTypeE"
  },
  {
   "name":"_ZN7android8hardware5radio4V1_119BpHwRadioIndication19stkProactiveCommandENS1_4V1_019RadioIndicationTypeERKNS0_11hidl_stringE"
  },
  {
   "name":"_ZN7android8hardware5radio4V1_119BpHwRadioIndication20indicateRingbackToneENS1_4V1_019RadioIndicationTypeEb"
  },
  {
   "name":"_ZN7android8hardware5radio4V1_119BpHwRadioIndication21_hidl_keepaliveStatusEPNS0_10IInterfaceEPNS0_7details16HidlInstrumentorENS1_4V1_019RadioIndicationTypeERKNS2_15KeepaliveStatusE"
  },
  {
   "name":"_ZN7android8hardware5radio4V1_119BpHwRadioIndication21currentSignalStrengthENS1_4V1_019RadioIndicationTypeERKNS4_14SignalStrengthE"
  },
  {
   "name":"_ZN7android8hardware5radio4V1_119BpHwRadioIndication21hardwareConfigChangedENS1_4V1_019RadioIndicationTypeERKNS0_8hidl_vecINS4_14HardwareConfigEEE"
  },
  {
   "name":"_ZN7android8hardware5radio4V1_119BpHwRadioIndication21notifySyspropsChangedEv"
  },
  {
   "name":"_ZN7android8hardware5radio4V1_119BpHwRadioIndication21setHALInstrumentationEv"
  },
  {
   "name":"_ZN7android8hardware5radio4V1_119BpHwRadioIndication21voiceRadioTechChangedENS1_4V1_019RadioIndicationTypeENS4_15RadioTechnologyE"
  },
  {
   "name":"_ZN7android8hardware5radio4V1_119BpHwRadioIndication22cdmaOtaProvisionStatusENS1_4V1_019RadioIndicationTypeENS4_22CdmaOtaProvisionStatusE"
  },
  {
   "name":"_ZN7android8hardware5radio4V1_119BpHwRadioIndication22cdmaRuimSmsStorageFullENS1_4V1_019RadioIndicationTypeE"
  },
  {
   "name":"_ZN7android8hardware5radio4V1_119BpHwRadioIndication22imsNetworkStateChangedENS1_4V1_019RadioIndicationTypeE"
  },
  {
   "name":"_ZN7android8hardware5radio4V1_119BpHwRadioIndication22restrictedStateChangedENS1_4V1_019RadioIndicationTypeENS4_20PhoneRestrictedStateE"
  },
  {
   "name":"_ZN7android8hardware5radio4V1_119BpHwRadioIndication23_hidl_networkScanResultEPNS0_10IInterfaceEPNS0_7details16HidlInstrumentorENS1_4V1_019RadioIndicationTypeERKNS2_17NetworkScanResultE"
  },
  {
   "name":"_ZN7android8hardware5radio4V1_119BpHwRadioIndication25exitEmergencyCallbackModeENS1_4V1_019RadioIndicationTypeE"
  },
  {
   "name":"_ZN7android8hardware5radio4V1_119BpHwRadioIndication25radioCapabilityIndicationENS1_4V1_019RadioIndicationTypeERKNS4_15RadioCapabilityE"
  },
  {
   "name":"_ZN7android8hardware5radio4V1_119BpHwRadioIndication25stkCallControlAlphaNotifyENS1_4V1_019RadioIndicationTypeERKNS0_11hidl_stringE"
  },
  {
   "name":"_ZN7android8hardware5radio4V1_119BpHwRadioIndication25subscriptionStatusChangedENS1_4V1_019RadioIndicationTypeEb"
  },
  {
   "name":"_ZN7android8hardware5radio4V1_119BpHwRadioIndication26enterEmergencyCallbackModeENS1_4V1_019RadioIndicationTypeE"
  },
  {
   "name":"_ZN7android8hardware5radio4V1_119BpHwRadioIndication28carrierInfoForImsiEncryptionENS1_4V1_019RadioIndicationTypeE"
  },
  {
   "name":"_ZN7android8hardware5radio4V1_119BpHwRadioIndication29cdmaSubscriptionSourceChangedENS1_4V1_019RadioIndicationTypeENS4_22CdmaSubscriptionSourceE"
  },
  {
   "name":"_ZN7android8hardware5radio4V1_119BpHwRadioIndication32onSupplementaryServiceIndicationENS1_4V1_019RadioIndicationTypeERKNS4_18StkCcUnsolSsResultE"
  },
  {
   "name":"_ZN7android8hardware5radio4V1_119BpHwRadioIndication34_hidl_carrierInfoForImsiEncryptionEPNS0_10IInterfaceEPNS0_7details16HidlInstrumentorENS1_4V1_019RadioIndicationTypeE"
  },
  {
   "name":"_ZN7android8hardware5radio4V1_119BpHwRadioIndication4pingEv"
  },
  {
   "name":"_ZN7android8hardware5radio4V1_119BpHwRadioIndication5debugERKNS0_11hidl_handleERKNS0_8hidl_vecINS0_11hidl_stringEEE"
  },
  {
   "name":"_ZN7android8hardware5radio4V1_119BpHwRadioIndication6newSmsENS1_4V1_019RadioIndicationTypeERKNS0_8hidl_vecIhEE"
  },
  {
   "name":"_ZN7android8hardware5radio4V1_119BpHwRadioIndication6onUssdENS1_4V1_019RadioIndicationTypeENS4_12UssdModeTypeERKNS0_11hidl_stringE"
  },
  {
   "name":"_ZN7android8hardware5radio4V1_119BpHwRadioIndication7lceDataENS1_4V1_019RadioIndicationTypeERKNS4_11LceDataInfoE"
  },
  {
   "name":"_ZN7android8hardware5radio4V1_119BpHwRadioIndication7pcoDataENS1_4V1_019RadioIndicationTypeERKNS4_11PcoDataInfoE"
  },
  {
   "name":"_ZN7android8hardware5radio4V1_119BpHwRadioIndication8callRingENS1_4V1_019RadioIndicationTypeEbRKNS4_20CdmaSignalInfoRecordE"
  },
  {
   "name":"_ZN7android8hardware5radio4V1_119BpHwRadioIndicationC1ERKNS_2spINS0_7IBinderEEE"
  },
  {
   "name":"_ZN7android8hardware5radio4V1_119BpHwRadioIndicationC2ERKNS_2spINS0_7IBinderEEE"
  },
  {
   "name":"_ZN7android8hardware5radio4V1_121writeEmbeddedToParcelERKNS2_16KeepaliveRequestEPNS0_6ParcelEjj"
  },
  {
   "name":"_ZN7android8hardware5radio4V1_121writeEmbeddedToParcelERKNS2_17NetworkScanResultEPNS0_6ParcelEjj"
  },
  {
   "name":"_ZN7android8hardware5radio4V1_121writeEmbeddedToParcelERKNS2_18ImsiEncryptionInfoEPNS0_6ParcelEjj"
  },
  {
   "name":"_ZN7android8hardware5radio4V1_121writeEmbeddedToParcelERKNS2_18NetworkScanRequestEPNS0_6ParcelEjj"
  },
  {
   "name":"_ZN7android8hardware5radio4V1_121writeEmbeddedToParcelERKNS2_20RadioAccessSpecifierEPNS0_6ParcelEjj"
  },
  {
   "name":"_ZN7android8hardware5radio4V1_122readEmbeddedFromParcelERKNS2_16KeepaliveRequestERKNS0_6ParcelEjj"
  },
  {
   "name":"_ZN7android8hardware5radio4V1_122readEmbeddedFromParcelERKNS2_17NetworkScanResultERKNS0_6ParcelEjj"
  },
  {
   "name":"_ZN7android8hardware5radio4V1_122readEmbeddedFromParcelERKNS2_18ImsiEncryptionInfoERKNS0_6ParcelEjj"
  },
  {
   "name":"_ZN7android8hardware5radio4V1_122readEmbeddedFromParcelERKNS2_18NetworkScanRequestERKNS0_6ParcelEjj"
  },
  {
   "name":"_ZN7android8hardware5radio4V1_122readEmbeddedFromParcelERKNS2_20RadioAccessSpecifierERKNS0_6ParcelEjj"
  },
  {
   "name":"_ZN7android8hardware5radio4V1_14ISap10getServiceERKNSt3__112basic_stringIcNS4_11char_traitsIcEENS4_9allocatorIcEEEEb"
  },
  {
   "name":"_ZN7android8hardware5radio4V1_14ISap11linkToDeathERKNS_2spINS0_20hidl_death_recipientEEEy"
  },
  {
   "name":"_ZN7android8hardware5radio4V1_14ISap12getDebugInfoENSt3__18functionIFvRKNS_4hidl4base4V1_09DebugInfoEEEE"
  },
  {
   "name":"_ZN7android8hardware5radio4V1_14ISap12getHashChainENSt3__18functionIFvRKNS0_8hidl_vecINS0_10hidl_arrayIhLj32EJEEEEEEEE"
  },
  {
   "name":"_ZN7android8hardware5radio4V1_14ISap13tryGetServiceERKNSt3__112basic_stringIcNS4_11char_traitsIcEENS4_9allocatorIcEEEEb"
  },
  {
   "name":"_ZN7android8hardware5radio4V1_14ISap13unlinkToDeathERKNS_2spINS0_20hidl_death_recipientEEE"
  },
  {
   "name":"_ZN7android8hardware5radio4V1_14ISap14interfaceChainENSt3__18functionIFvRKNS0_8hidl_vecINS0_11hidl_stringEEEEEE"
  },
  {
   "name":"_ZN7android8hardware5radio4V1_14ISap17registerAsServiceERKNSt3__112basic_stringIcNS4_11char_traitsIcEENS4_9allocatorIcEEEE"
  },
  {
   "name":"_ZN7android8hardware5radio4V1_14ISap19interfaceDescriptorENSt3__18functionIFvRKNS0_11hidl_stringEEEE"
  },
  {
   "name":"_ZN7android8hardware5radio4V1_14ISap21notifySyspropsChangedEv"
  },
  {
   "name":"_ZN7android8hardware5radio4V1_14ISap21setHALInstrumentationEv"
  },
  {
   "name":"_ZN7android8hardware5radio4V1_14ISap24registerForNotificationsERKNSt3__112basic_stringIcNS4_11char_traitsIcEENS4_9allocatorIcEEEERKNS_2spINS_4hidl7manager4V1_020IServiceNotificationEEE"
  },
  {
   "name":"_ZN7android8hardware5radio4V1_14ISap4pingEv"
  },
  {
   "name":"_ZN7android8hardware5radio4V1_14ISap5debugERKNS0_11hidl_handleERKNS0_8hidl_vecINS0_11hidl_stringEEE"
  },
  {
   "name":"_ZN7android8hardware5radio4V1_14ISap8castFromERKNS_2spINS1_4V1_04ISapEEEb"
  },
  {
   "name":"_ZN7android8hardware5radio4V1_14ISap8castFromERKNS_2spINS_4hidl4base4V1_05IBaseEEEb"
  },
  {
   "name":"_ZN7android8hardware5radio4V1_14ISap8castFromERKNS_2spIS3_EEb"
  },
  {
   "name":"_ZN7android8hardware5radio4V1_15BsSap13addOnewayTaskENSt3__18functionIFvvEEE"
  },
  {
   "name":"_ZN7android8hardware5radio4V1_15BsSapC1ENS_2spINS2_4ISapEEE"
  },
  {
   "name":"_ZN7android8hardware5radio4V1_15BsSapC2ENS_2spINS2_4ISapEEE"
  },
  {
   "name":"_ZN7android8hardware5radio4V1_16IRadio10getServiceERKNSt3__112basic_stringIcNS4_11char_traitsIcEENS4_9allocatorIcEEEEb"
  },
  {
   "name":"_ZN7android8hardware5radio4V1_16IRadio11linkToDeathERKNS_2spINS0_20hidl_death_recipientEEEy"
  },
  {
   "name":"_ZN7android8hardware5radio4V1_16IRadio12getDebugInfoENSt3__18functionIFvRKNS_4hidl4base4V1_09DebugInfoEEEE"
  },
  {
   "name":"_ZN7android8hardware5radio4V1_16IRadio12getHashChainENSt3__18functionIFvRKNS0_8hidl_vecINS0_10hidl_arrayIhLj32EJEEEEEEEE"
  },
  {
   "name":"_ZN7android8hardware5radio4V1_16IRadio13tryGetServiceERKNSt3__112basic_stringIcNS4_11char_traitsIcEENS4_9allocatorIcEEEEb"
  },
  {
   "name":"_ZN7android8hardware5radio4V1_16IRadio13unlinkToDeathERKNS_2spINS0_20hidl_death_recipientEEE"
  },
  {
   "name":"_ZN7android8hardware5radio4V1_16IRadio14interfaceChainENSt3__18functionIFvRKNS0_8hidl_vecINS0_11hidl_stringEEEEEE"
  },
  {
   "name":"_ZN7android8hardware5radio4V1_16IRadio17registerAsServiceERKNSt3__112basic_stringIcNS4_11char_traitsIcEENS4_9allocatorIcEEEE"
  },
  {
   "name":"_ZN7android8hardware5radio4V1_16IRadio19interfaceDescriptorENSt3__18functionIFvRKNS0_11hidl_stringEEEE"
  },
  {
   "name":"_ZN7android8hardware5radio4V1_16IRadio21notifySyspropsChangedEv"
  },
  {
   "name":"_ZN7android8hardware5radio4V1_16IRadio21setHALInstrumentationEv"
  },
  {
   "name":"_ZN7android8hardware5radio4V1_16IRadio24registerForNotificationsERKNSt3__112basic_stringIcNS4_11char_traitsIcEENS4_9allocatorIcEEEERKNS_2spINS_4hidl7manager4V1_020IServiceNotificationEEE"
  },
  {
   "name":"_ZN7android8hardware5radio4V1_16IRadio4pingEv"
  },
  {
   "name":"_ZN7android8hardware5radio4V1_16IRadio5debugERKNS0_11hidl_handleERKNS0_8hidl_vecINS0_11hidl_stringEEE"
  },
  {
   "name":"_ZN7android8hardware5radio4V1_16IRadio8castFromERKNS_2spINS1_4V1_06IRadioEEEb"
  },
  {
   "name":"_ZN7android8hardware5radio4V1_16IRadio8castFromERKNS_2spINS_4hidl4base4V1_05IBaseEEEb"
  },
  {
   "name":"_ZN7android8hardware5radio4V1_16IRadio8castFromERKNS_2spIS3_EEb"
  },
  {
   "name":"_ZN7android8hardware5radio4V1_17BnHwSap10onTransactEjRKNS0_6ParcelEPS4_jNSt3__18functionIFvRS4_EEE"
  },
  {
   "name":"_ZN7android8hardware5radio4V1_17BnHwSap12getDebugInfoENSt3__18functionIFvRKNS_4hidl4base4V1_09DebugInfoEEEE"
  },
  {
   "name":"_ZN7android8hardware5radio4V1_17BnHwSap4pingEv"
  },
  {
   "name":"_ZN7android8hardware5radio4V1_17BnHwSapC1ERKNS_2spINS2_4ISapEEE"
  },
  {
   "name":"_ZN7android8hardware5radio4V1_17BnHwSapC2ERKNS_2spINS2_4ISapEEE"
  },
  {
   "name":"_ZN7android8hardware5radio4V1_17BnHwSapD0Ev"
  },
  {
   "name":"_ZN7android8hardware5radio4V1_17BnHwSapD1Ev"
  },
  {
   "name":"_ZN7android8hardware5radio4V1_17BnHwSapD2Ev"
  },
  {
   "name":"_ZN7android8hardware5radio4V1_17BpHwSap10connectReqEii"
  },
  {
   "name":"_ZN7android8hardware5radio4V1_17BpHwSap11linkToDeathERKNS_2spINS0_20hidl_death_recipientEEEy"
  },
  {
   "name":"_ZN7android8hardware5radio4V1_17BpHwSap11resetSimReqEi"
  },
  {
   "name":"_ZN7android8hardware5radio4V1_17BpHwSap11setCallbackERKNS_2spINS1_4V1_012ISapCallbackEEE"
  },
  {
   "name":"_ZN7android8hardware5radio4V1_17BpHwSap12getDebugInfoENSt3__18functionIFvRKNS_4hidl4base4V1_09DebugInfoEEEE"
  },
  {
   "name":"_ZN7android8hardware5radio4V1_17BpHwSap12getHashChainENSt3__18functionIFvRKNS0_8hidl_vecINS0_10hidl_arrayIhLj32EJEEEEEEEE"
  },
  {
   "name":"_ZN7android8hardware5radio4V1_17BpHwSap13disconnectReqEi"
  },
  {
   "name":"_ZN7android8hardware5radio4V1_17BpHwSap13unlinkToDeathERKNS_2spINS0_20hidl_death_recipientEEE"
  },
  {
   "name":"_ZN7android8hardware5radio4V1_17BpHwSap14interfaceChainENSt3__18functionIFvRKNS0_8hidl_vecINS0_11hidl_stringEEEEEE"
  },
  {
   "name":"_ZN7android8hardware5radio4V1_17BpHwSap14transferAtrReqEi"
  },
  {
   "name":"_ZN7android8hardware5radio4V1_17BpHwSap19interfaceDescriptorENSt3__18functionIFvRKNS0_11hidl_stringEEEE"
  },
  {
   "name":"_ZN7android8hardware5radio4V1_17BpHwSap21notifySyspropsChangedEv"
  },
  {
   "name":"_ZN7android8hardware5radio4V1_17BpHwSap21setHALInstrumentationEv"
  },
  {
   "name":"_ZN7android8hardware5radio4V1_17BpHwSap22setTransferProtocolReqEiNS1_4V1_019SapTransferProtocolE"
  },
  {
   "name":"_ZN7android8hardware5radio4V1_17BpHwSap27transferCardReaderStatusReqEi"
  },
  {
   "name":"_ZN7android8hardware5radio4V1_17BpHwSap4pingEv"
  },
  {
   "name":"_ZN7android8hardware5radio4V1_17BpHwSap5debugERKNS0_11hidl_handleERKNS0_8hidl_vecINS0_11hidl_stringEEE"
  },
  {
   "name":"_ZN7android8hardware5radio4V1_17BpHwSap7apduReqEiNS1_4V1_011SapApduTypeERKNS0_8hidl_vecIhEE"
  },
  {
   "name":"_ZN7android8hardware5radio4V1_17BpHwSap8powerReqEib"
  },
  {
   "name":"_ZN7android8hardware5radio4V1_17BpHwSapC1ERKNS_2spINS0_7IBinderEEE"
  },
  {
   "name":"_ZN7android8hardware5radio4V1_17BpHwSapC2ERKNS_2spINS0_7IBinderEEE"
  },
  {
   "name":"_ZN7android8hardware5radio4V1_17BsRadio13addOnewayTaskENSt3__18functionIFvvEEE"
  },
  {
   "name":"_ZN7android8hardware5radio4V1_17BsRadioC1ENS_2spINS2_6IRadioEEE"
  },
  {
   "name":"_ZN7android8hardware5radio4V1_17BsRadioC2ENS_2spINS2_6IRadioEEE"
  },
  {
   "name":"_ZN7android8hardware5radio4V1_19BnHwRadio10onTransactEjRKNS0_6ParcelEPS4_jNSt3__18functionIFvRS4_EEE"
  },
  {
   "name":"_ZN7android8hardware5radio4V1_19BnHwRadio12getDebugInfoENSt3__18functionIFvRKNS_4hidl4base4V1_09DebugInfoEEEE"
  },
  {
   "name":"_ZN7android8hardware5radio4V1_19BnHwRadio19_hidl_stopKeepaliveEPNS_4hidl4base4V1_08BnHwBaseERKNS0_6ParcelEPS9_NSt3__18functionIFvRS9_EEE"
  },
  {
   "name":"_ZN7android8hardware5radio4V1_19BnHwRadio20_hidl_startKeepaliveEPNS_4hidl4base4V1_08BnHwBaseERKNS0_6ParcelEPS9_NSt3__18functionIFvRS9_EEE"
  },
  {
   "name":"_ZN7android8hardware5radio4V1_19BnHwRadio21_hidl_stopNetworkScanEPNS_4hidl4base4V1_08BnHwBaseERKNS0_6ParcelEPS9_NSt3__18functionIFvRS9_EEE"
  },
  {
   "name":"_ZN7android8hardware5radio4V1_19BnHwRadio22_hidl_startNetworkScanEPNS_4hidl4base4V1_08BnHwBaseERKNS0_6ParcelEPS9_NSt3__18functionIFvRS9_EEE"
  },
  {
   "name":"_ZN7android8hardware5radio4V1_19BnHwRadio25_hidl_setSimCardPower_1_1EPNS_4hidl4base4V1_08BnHwBaseERKNS0_6ParcelEPS9_NSt3__18functionIFvRS9_EEE"
  },
  {
   "name":"_ZN7android8hardware5radio4V1_19BnHwRadio37_hidl_setCarrierInfoForImsiEncryptionEPNS_4hidl4base4V1_08BnHwBaseERKNS0_6ParcelEPS9_NSt3__18functionIFvRS9_EEE"
  },
  {
   "name":"_ZN7android8hardware5radio4V1_19BnHwRadio4pingEv"
  },
  {
   "name":"_ZN7android8hardware5radio4V1_19BnHwRadioC1ERKNS_2spINS2_6IRadioEEE"
  },
  {
   "name":"_ZN7android8hardware5radio4V1_19BnHwRadioC2ERKNS_2spINS2_6IRadioEEE"
  },
  {
   "name":"_ZN7android8hardware5radio4V1_19BnHwRadioD0Ev"
  },
  {
   "name":"_ZN7android8hardware5radio4V1_19BnHwRadioD1Ev"
  },
  {
   "name":"_ZN7android8hardware5radio4V1_19BnHwRadioD2Ev"
  },
  {
   "name":"_ZN7android8hardware5radio4V1_19BpHwRadio10acceptCallEi"
  },
  {
   "name":"_ZN7android8hardware5radio4V1_19BpHwRadio10conferenceEi"
  },
  {
   "name":"_ZN7android8hardware5radio4V1_19BpHwRadio10getTTYModeEi"
  },
  {
   "name":"_ZN7android8hardware5radio4V1_19BpHwRadio10nvReadItemEiNS1_4V1_06NvItemE"
  },
  {
   "name":"_ZN7android8hardware5radio4V1_19BpHwRadio10rejectCallEi"
  },
  {
   "name":"_ZN7android8hardware5radio4V1_19BpHwRadio10sendImsSmsEiRKNS1_4V1_013ImsSmsMessageE"
  },
  {
   "name":"_ZN7android8hardware5radio4V1_19BpHwRadio10setTTYModeEiNS1_4V1_07TtyModeE"
  },
  {
   "name":"_ZN7android8hardware5radio4V1_19BpHwRadio11getOperatorEi"
  },
  {
   "name":"_ZN7android8hardware5radio4V1_19BpHwRadio11iccIOForAppEiRKNS1_4V1_05IccIoE"
  },
  {
   "name":"_ZN7android8hardware5radio4V1_19BpHwRadio11linkToDeathERKNS_2spINS0_20hidl_death_recipientEEEy"
  },
  {
   "name":"_ZN7android8hardware5radio4V1_19BpHwRadio11nvWriteItemEiRKNS1_4V1_011NvWriteItemE"
  },
  {
   "name":"_ZN7android8hardware5radio4V1_19BpHwRadio11pullLceDataEi"
  },
  {
   "name":"_ZN7android8hardware5radio4V1_19BpHwRadio11sendCdmaSmsEiRKNS1_4V1_014CdmaSmsMessageE"
  },
  {
   "name":"_ZN7android8hardware5radio4V1_19BpHwRadio11setBandModeEiNS1_4V1_013RadioBandModeE"
  },
  {
   "name":"_ZN7android8hardware5radio4V1_19BpHwRadio12getDebugInfoENSt3__18functionIFvRKNS_4hidl4base4V1_09DebugInfoEEEE"
  },
  {
   "name":"_ZN7android8hardware5radio4V1_19BpHwRadio12getHashChainENSt3__18functionIFvRKNS0_8hidl_vecINS0_10hidl_arrayIhLj32EJEEEEEEEE"
  },
  {
   "name":"_ZN7android8hardware5radio4V1_19BpHwRadio12sendEnvelopeEiRKNS0_11hidl_stringE"
  },
  {
   "name":"_ZN7android8hardware5radio4V1_19BpHwRadio13getImsiForAppEiRKNS0_11hidl_stringE"
  },
  {
   "name":"_ZN7android8hardware5radio4V1_19BpHwRadio13nvResetConfigEiNS1_4V1_011ResetNvTypeE"
  },
  {
   "name":"_ZN7android8hardware5radio4V1_19BpHwRadio13sendBurstDtmfEiRKNS0_11hidl_stringEii"
  },
  {
   "name":"_ZN7android8hardware5radio4V1_19BpHwRadio13setRadioPowerEib"
  },
  {
   "name":"_ZN7android8hardware5radio4V1_19BpHwRadio13setupDataCallEiNS1_4V1_015RadioTechnologyERKNS4_15DataProfileInfoEbbb"
  },
  {
   "name":"_ZN7android8hardware5radio4V1_19BpHwRadio13stopKeepaliveEii"
  },
  {
   "name":"_ZN7android8hardware5radio4V1_19BpHwRadio13unlinkToDeathERKNS_2spINS0_20hidl_death_recipientEEE"
  },
  {
   "name":"_ZN7android8hardware5radio4V1_19BpHwRadio13writeSmsToSimEiRKNS1_4V1_012SmsWriteArgsE"
  },
  {
   "name":"_ZN7android8hardware5radio4V1_19BpHwRadio14deleteSmsOnSimEii"
  },
  {
   "name":"_ZN7android8hardware5radio4V1_19BpHwRadio14getCallWaitingEii"
  },
  {
   "name":"_ZN7android8hardware5radio4V1_19BpHwRadio14getSmscAddressEi"
  },
  {
   "name":"_ZN7android8hardware5radio4V1_19BpHwRadio14interfaceChainENSt3__18functionIFvRKNS0_8hidl_vecINS0_11hidl_stringEEEEEE"
  },
  {
   "name":"_ZN7android8hardware5radio4V1_19BpHwRadio14nvWriteCdmaPrlEiRKNS0_8hidl_vecIhEE"
  },
  {
   "name":"_ZN7android8hardware5radio4V1_19BpHwRadio14setCallForwardEiRKNS1_4V1_015CallForwardInfoE"
  },
  {
   "name":"_ZN7android8hardware5radio4V1_19BpHwRadio14setCallWaitingEibi"
  },
  {
   "name":"_ZN7android8hardware5radio4V1_19BpHwRadio14setDataAllowedEib"
  },
  {
   "name":"_ZN7android8hardware5radio4V1_19BpHwRadio14setDataProfileEiRKNS0_8hidl_vecINS1_4V1_015DataProfileInfoEEEb"
  },
  {
   "name":"_ZN7android8hardware5radio4V1_19BpHwRadio14setSmscAddressEiRKNS0_11hidl_stringE"
  },
  {
   "name":"_ZN7android8hardware5radio4V1_19BpHwRadio14startKeepaliveEiRKNS2_16KeepaliveRequestE"
  },
  {
   "name":"_ZN7android8hardware5radio4V1_19BpHwRadio14stopLceServiceEi"
  },
  {
   "name":"_ZN7android8hardware5radio4V1_19BpHwRadio14writeSmsToRuimEiRKNS1_4V1_016CdmaSmsWriteArgsE"
  },
  {
   "name":"_ZN7android8hardware5radio4V1_19BpHwRadio15deleteSmsOnRuimEii"
  },
  {
   "name":"_ZN7android8hardware5radio4V1_19BpHwRadio15getCellInfoListEi"
  },
  {
   "name":"_ZN7android8hardware5radio4V1_19BpHwRadio15getCurrentCallsEi"
  },
  {
   "name":"_ZN7android8hardware5radio4V1_19BpHwRadio15getDataCallListEi"
  },
  {
   "name":"_ZN7android8hardware5radio4V1_19BpHwRadio15requestShutdownEi"
  },
  {
   "name":"_ZN7android8hardware5radio4V1_19BpHwRadio15sendDeviceStateEiNS1_4V1_015DeviceStateTypeEb"
  },
  {
   "name":"_ZN7android8hardware5radio4V1_19BpHwRadio15setSimCardPowerEib"
  },
  {
   "name":"_ZN7android8hardware5radio4V1_19BpHwRadio15startLceServiceEiib"
  },
  {
   "name":"_ZN7android8hardware5radio4V1_19BpHwRadio15stopNetworkScanEi"
  },
  {
   "name":"_ZN7android8hardware5radio4V1_19BpHwRadio16getIccCardStatusEi"
  },
  {
   "name":"_ZN7android8hardware5radio4V1_19BpHwRadio16startNetworkScanEiRKNS2_18NetworkScanRequestE"
  },
  {
   "name":"_ZN7android8hardware5radio4V1_19BpHwRadio17cancelPendingUssdEi"
  },
  {
   "name":"_ZN7android8hardware5radio4V1_19BpHwRadio17getDeviceIdentityEi"
  },
  {
   "name":"_ZN7android8hardware5radio4V1_19BpHwRadio17getHardwareConfigEi"
  },
  {
   "name":"_ZN7android8hardware5radio4V1_19BpHwRadio17getSignalStrengthEi"
  },
  {
   "name":"_ZN7android8hardware5radio4V1_19BpHwRadio17sendSMSExpectMoreEiRKNS1_4V1_013GsmSmsMessageE"
  },
  {
   "name":"_ZN7android8hardware5radio4V1_19BpHwRadio18changeIccPinForAppEiRKNS0_11hidl_stringES6_S6_"
  },
  {
   "name":"_ZN7android8hardware5radio4V1_19BpHwRadio18deactivateDataCallEiib"
  },
  {
   "name":"_ZN7android8hardware5radio4V1_19BpHwRadio18getAllowedCarriersEi"
  },
  {
   "name":"_ZN7android8hardware5radio4V1_19BpHwRadio18getBasebandVersionEi"
  },
  {
   "name":"_ZN7android8hardware5radio4V1_19BpHwRadio18getNeighboringCidsEi"
  },
  {
   "name":"_ZN7android8hardware5radio4V1_19BpHwRadio18getRadioCapabilityEi"
  },
  {
   "name":"_ZN7android8hardware5radio4V1_19BpHwRadio18separateConnectionEii"
  },
  {
   "name":"_ZN7android8hardware5radio4V1_19BpHwRadio18setAllowedCarriersEibRKNS1_4V1_019CarrierRestrictionsE"
  },
  {
   "name":"_ZN7android8hardware5radio4V1_19BpHwRadio18setBarringPasswordEiRKNS0_11hidl_stringES6_S6_"
  },
  {
   "name":"_ZN7android8hardware5radio4V1_19BpHwRadio18setLocationUpdatesEib"
  },
  {
   "name":"_ZN7android8hardware5radio4V1_19BpHwRadio18setRadioCapabilityEiRKNS1_4V1_015RadioCapabilityE"
  },
  {
   "name":"_ZN7android8hardware5radio4V1_19BpHwRadio18supplyIccPinForAppEiRKNS0_11hidl_stringES6_"
  },
  {
   "name":"_ZN7android8hardware5radio4V1_19BpHwRadio18supplyIccPukForAppEiRKNS0_11hidl_stringES6_S6_"
  },
  {
   "name":"_ZN7android8hardware5radio4V1_19BpHwRadio19_hidl_stopKeepaliveEPNS0_10IInterfaceEPNS0_7details16HidlInstrumentorEii"
  },
  {
   "name":"_ZN7android8hardware5radio4V1_19BpHwRadio19changeIccPin2ForAppEiRKNS0_11hidl_stringES6_S6_"
  },
  {
   "name":"_ZN7android8hardware5radio4V1_19BpHwRadio19getCDMASubscriptionEi"
  },
  {
   "name":"_ZN7android8hardware5radio4V1_19BpHwRadio19interfaceDescriptorENSt3__18functionIFvRKNS0_11hidl_stringEEEE"
  },
  {
   "name":"_ZN7android8hardware5radio4V1_19BpHwRadio19sendCDMAFeatureCodeEiRKNS0_11hidl_stringE"
  },
  {
   "name":"_ZN7android8hardware5radio4V1_19BpHwRadio19setCellInfoListRateEii"
  },
  {
   "name":"_ZN7android8hardware5radio4V1_19BpHwRadio19setIndicationFilterEii"
  },
  {
   "name":"_ZN7android8hardware5radio4V1_19BpHwRadio19setInitialAttachApnEiRKNS1_4V1_015DataProfileInfoEbb"
  },
  {
   "name":"_ZN7android8hardware5radio4V1_19BpHwRadio19setSimCardPower_1_1EiNS2_14CardPowerStateE"
  },
  {
   "name":"_ZN7android8hardware5radio4V1_19BpHwRadio19setUiccSubscriptionEiRKNS1_4V1_013SelectUiccSubE"
  },
  {
   "name":"_ZN7android8hardware5radio4V1_19BpHwRadio19supplyIccPin2ForAppEiRKNS0_11hidl_stringES6_"
  },
  {
   "name":"_ZN7android8hardware5radio4V1_19BpHwRadio19supplyIccPuk2ForAppEiRKNS0_11hidl_stringES6_S6_"
  },
  {
   "name":"_ZN7android8hardware5radio4V1_19BpHwRadio20_hidl_startKeepaliveEPNS0_10IInterfaceEPNS0_7details16HidlInstrumentorEiRKNS2_16KeepaliveRequestE"
  },
  {
   "name":"_ZN7android8hardware5radio4V1_19BpHwRadio20explicitCallTransferEi"
  },
  {
   "name":"_ZN7android8hardware5radio4V1_19BpHwRadio20getAvailableNetworksEi"
  },
  {
   "name":"_ZN7android8hardware5radio4V1_19BpHwRadio20getCallForwardStatusEiRKNS1_4V1_015CallForwardInfoE"
  },
  {
   "name":"_ZN7android8hardware5radio4V1_19BpHwRadio20getLastCallFailCauseEi"
  },
  {
   "name":"_ZN7android8hardware5radio4V1_19BpHwRadio20getModemActivityInfoEi"
  },
  {
   "name":"_ZN7android8hardware5radio4V1_19BpHwRadio20setResponseFunctionsERKNS_2spINS1_4V1_014IRadioResponseEEERKNS4_INS5_16IRadioIndicationEEE"
  },
  {
   "name":"_ZN7android8hardware5radio4V1_19BpHwRadio21_hidl_stopNetworkScanEPNS0_10IInterfaceEPNS0_7details16HidlInstrumentorEi"
  },
  {
   "name":"_ZN7android8hardware5radio4V1_19BpHwRadio21getAvailableBandModesEi"
  },
  {
   "name":"_ZN7android8hardware5radio4V1_19BpHwRadio21getFacilityLockForAppEiRKNS0_11hidl_stringES6_iS6_"
  },
  {
   "name":"_ZN7android8hardware5radio4V1_19BpHwRadio21getGsmBroadcastConfigEi"
  },
  {
   "name":"_ZN7android8hardware5radio4V1_19BpHwRadio21iccOpenLogicalChannelEiRKNS0_11hidl_stringEi"
  },
  {
   "name":"_ZN7android8hardware5radio4V1_19BpHwRadio21notifySyspropsChangedEv"
  },
  {
   "name":"_ZN7android8hardware5radio4V1_19BpHwRadio21reportSmsMemoryStatusEib"
  },
  {
   "name":"_ZN7android8hardware5radio4V1_19BpHwRadio21setFacilityLockForAppEiRKNS0_11hidl_stringEbS6_iS6_"
  },
  {
   "name":"_ZN7android8hardware5radio4V1_19BpHwRadio21setGsmBroadcastConfigEiRKNS0_8hidl_vecINS1_4V1_025GsmBroadcastSmsConfigInfoEEE"
  },
  {
   "name":"_ZN7android8hardware5radio4V1_19BpHwRadio21setHALInstrumentationEv"
  },
  {
   "name":"_ZN7android8hardware5radio4V1_19BpHwRadio22_hidl_startNetworkScanEPNS0_10IInterfaceEPNS0_7details16HidlInstrumentorEiRKNS2_18NetworkScanRequestE"
  },
  {
   "name":"_ZN7android8hardware5radio4V1_19BpHwRadio22getCdmaBroadcastConfigEi"
  },
  {
   "name":"_ZN7android8hardware5radio4V1_19BpHwRadio22iccCloseLogicalChannelEii"
  },
  {
   "name":"_ZN7android8hardware5radio4V1_19BpHwRadio22sendEnvelopeWithStatusEiRKNS0_11hidl_stringE"
  },
  {
   "name":"_ZN7android8hardware5radio4V1_19BpHwRadio22setCdmaBroadcastConfigEiRKNS0_8hidl_vecINS1_4V1_026CdmaBroadcastSmsConfigInfoEEE"
  },
  {
   "name":"_ZN7android8hardware5radio4V1_19BpHwRadio23getImsRegistrationStateEi"
  },
  {
   "name":"_ZN7android8hardware5radio4V1_19BpHwRadio23getNetworkSelectionModeEi"
  },
  {
   "name":"_ZN7android8hardware5radio4V1_19BpHwRadio23getPreferredNetworkTypeEi"
  },
  {
   "name":"_ZN7android8hardware5radio4V1_19BpHwRadio23getVoiceRadioTechnologyEi"
  },
  {
   "name":"_ZN7android8hardware5radio4V1_19BpHwRadio23responseAcknowledgementEv"
  },
  {
   "name":"_ZN7android8hardware5radio4V1_19BpHwRadio23setPreferredNetworkTypeEiNS1_4V1_020PreferredNetworkTypeE"
  },
  {
   "name":"_ZN7android8hardware5radio4V1_19BpHwRadio24getCdmaRoamingPreferenceEi"
  },
  {
   "name":"_ZN7android8hardware5radio4V1_19BpHwRadio24getDataRegistrationStateEi"
  },
  {
   "name":"_ZN7android8hardware5radio4V1_19BpHwRadio24getPreferredVoicePrivacyEi"
  },
  {
   "name":"_ZN7android8hardware5radio4V1_19BpHwRadio24setCdmaRoamingPreferenceEiNS1_4V1_015CdmaRoamingTypeE"
  },
  {
   "name":"_ZN7android8hardware5radio4V1_19BpHwRadio24setPreferredVoicePrivacyEib"
  },
  {
   "name":"_ZN7android8hardware5radio4V1_19BpHwRadio25_hidl_setSimCardPower_1_1EPNS0_10IInterfaceEPNS0_7details16HidlInstrumentorEiNS2_14CardPowerStateE"
  },
  {
   "name":"_ZN7android8hardware5radio4V1_19BpHwRadio25exitEmergencyCallbackModeEi"
  },
  {
   "name":"_ZN7android8hardware5radio4V1_19BpHwRadio25getCdmaSubscriptionSourceEi"
  },
  {
   "name":"_ZN7android8hardware5radio4V1_19BpHwRadio25getVoiceRegistrationStateEi"
  },
  {
   "name":"_ZN7android8hardware5radio4V1_19BpHwRadio25hangupWaitingOrBackgroundEi"
  },
  {
   "name":"_ZN7android8hardware5radio4V1_19BpHwRadio25reportStkServiceIsRunningEi"
  },
  {
   "name":"_ZN7android8hardware5radio4V1_19BpHwRadio25requestIsimAuthenticationEiRKNS0_11hidl_stringE"
  },
  {
   "name":"_ZN7android8hardware5radio4V1_19BpHwRadio25sendTerminalResponseToSimEiRKNS0_11hidl_stringE"
  },
  {
   "name":"_ZN7android8hardware5radio4V1_19BpHwRadio25setCdmaSubscriptionSourceEiNS1_4V1_022CdmaSubscriptionSourceE"
  },
  {
   "name":"_ZN7android8hardware5radio4V1_19BpHwRadio25setGsmBroadcastActivationEib"
  },
  {
   "name":"_ZN7android8hardware5radio4V1_19BpHwRadio26setCdmaBroadcastActivationEib"
  },
  {
   "name":"_ZN7android8hardware5radio4V1_19BpHwRadio27iccTransmitApduBasicChannelEiRKNS1_4V1_07SimApduE"
  },
  {
   "name":"_ZN7android8hardware5radio4V1_19BpHwRadio27requestIccSimAuthenticationEiiRKNS0_11hidl_stringES6_"
  },
  {
   "name":"_ZN7android8hardware5radio4V1_19BpHwRadio27setSuppServiceNotificationsEib"
  },
  {
   "name":"_ZN7android8hardware5radio4V1_19BpHwRadio29acknowledgeLastIncomingGsmSmsEibNS1_4V1_023SmsAcknowledgeFailCauseE"
  },
  {
   "name":"_ZN7android8hardware5radio4V1_19BpHwRadio29iccTransmitApduLogicalChannelEiRKNS1_4V1_07SimApduE"
  },
  {
   "name":"_ZN7android8hardware5radio4V1_19BpHwRadio29setNetworkSelectionModeManualEiRKNS0_11hidl_stringE"
  },
  {
   "name":"_ZN7android8hardware5radio4V1_19BpHwRadio30acknowledgeLastIncomingCdmaSmsEiRKNS1_4V1_010CdmaSmsAckE"
  },
  {
   "name":"_ZN7android8hardware5radio4V1_19BpHwRadio30supplyNetworkDepersonalizationEiRKNS0_11hidl_stringE"
  },
  {
   "name":"_ZN7android8hardware5radio4V1_19BpHwRadio31setCarrierInfoForImsiEncryptionEiRKNS2_18ImsiEncryptionInfoE"
  },
  {
   "name":"_ZN7android8hardware5radio4V1_19BpHwRadio31switchWaitingOrHoldingAndActiveEi"
  },
  {
   "name":"_ZN7android8hardware5radio4V1_19BpHwRadio32acknowledgeIncomingGsmSmsWithPduEibRKNS0_11hidl_stringE"
  },
  {
   "name":"_ZN7android8hardware5radio4V1_19BpHwRadio32handleStkCallSetupRequestFromSimEib"
  },
  {
   "name":"_ZN7android8hardware5radio4V1_19BpHwRadio32hangupForegroundResumeBackgroundEi"
  },
  {
   "name":"_ZN7android8hardware5radio4V1_19BpHwRadio32setNetworkSelectionModeAutomaticEi"
  },
  {
   "name":"_ZN7android8hardware5radio4V1_19BpHwRadio37_hidl_setCarrierInfoForImsiEncryptionEPNS0_10IInterfaceEPNS0_7details16HidlInstrumentorEiRKNS2_18ImsiEncryptionInfoE"
  },
  {
   "name":"_ZN7android8hardware5radio4V1_19BpHwRadio4dialEiRKNS1_4V1_04DialE"
  },
  {
   "name":"_ZN7android8hardware5radio4V1_19BpHwRadio4pingEv"
  },
  {
   "name":"_ZN7android8hardware5radio4V1_19BpHwRadio5debugERKNS0_11hidl_handleERKNS0_8hidl_vecINS0_11hidl_stringEEE"
  },
  {
   "name":"_ZN7android8hardware5radio4V1_19BpHwRadio6hangupEii"
  },
  {
   "name":"_ZN7android8hardware5radio4V1_19BpHwRadio7getClipEi"
  },
  {
   "name":"_ZN7android8hardware5radio4V1_19BpHwRadio7getClirEi"
  },
  {
   "name":"_ZN7android8hardware5radio4V1_19BpHwRadio7getMuteEi"
  },
  {
   "name":"_ZN7android8hardware5radio4V1_19BpHwRadio7sendSmsEiRKNS1_4V1_013GsmSmsMessageE"
  },
  {
   "name":"_ZN7android8hardware5radio4V1_19BpHwRadio7setClirEii"
  },
  {
   "name":"_ZN7android8hardware5radio4V1_19BpHwRadio7setMuteEib"
  },
  {
   "name":"_ZN7android8hardware5radio4V1_19BpHwRadio8sendDtmfEiRKNS0_11hidl_stringE"
  },
  {
   "name":"_ZN7android8hardware5radio4V1_19BpHwRadio8sendUssdEiRKNS0_11hidl_stringE"
  },
  {
   "name":"_ZN7android8hardware5radio4V1_19BpHwRadio8stopDtmfEi"
  },
  {
   "name":"_ZN7android8hardware5radio4V1_19BpHwRadio9startDtmfEiRKNS0_11hidl_stringE"
  },
  {
   "name":"_ZN7android8hardware5radio4V1_19BpHwRadioC1ERKNS_2spINS0_7IBinderEEE"
  },
  {
   "name":"_ZN7android8hardware5radio4V1_19BpHwRadioC2ERKNS_2spINS0_7IBinderEEE"
  },
  {
   "binding":"weak",
   "name":"_ZN7android8hardware7details13castInterfaceINS0_5radio4V1_114IRadioResponseENS3_4V1_014IRadioResponseENS4_17BpHwRadioResponseEEENS0_6ReturnINS_2spIT_EEEENSA_IT0_EEPKcb"
  },
  {
   "binding":"weak",
   "name":"_ZN7android8hardware7details13castInterfaceINS0_5radio4V1_114IRadioResponseENS_4hidl4base4V1_05IBaseENS4_17BpHwRadioResponseEEENS0_6ReturnINS_2spIT_EEEENSC_IT0_EEPKcb"
  },
  {
   "binding":"weak",
   "name":"_ZN7android8hardware7details13castInterfaceINS0_5radio4V1_116IRadioIndicationENS3_4V1_016IRadioIndicationENS4_19BpHwRadioIndicationEEENS0_6ReturnINS_2spIT_EEEENSA_IT0_EEPKcb"
  },
  {
   "binding":"weak",
   "name":"_ZN7android8hardware7details13castInterfaceINS0_5radio4V1_116IRadioIndicationENS_4hidl4base4V1_05IBaseENS4_19BpHwRadioIndicationEEENS0_6ReturnINS_2spIT_EEEENSC_IT0_EEPKcb"
  },
  {
   "binding":"weak",
   "name":"_ZN7android8hardware7details13castInterfaceINS0_5radio4V1_14ISapENS3_4V1_04ISapENS4_7BpHwSapEEENS0_6ReturnINS_2spIT_EEEENSA_IT0_EEPKcb"
  },
  {
   "binding":"weak",
   "name":"_ZN7android8hardware7details13castInterfaceINS0_5radio4V1_14ISapENS_4hidl4base4V1_05IBaseENS4_7BpHwSapEEENS0_6ReturnINS_2spIT_EEEENSC_IT0_EEPKcb"
  },
  {
   "binding":"weak",
   "name":"_ZN7android8hardware7details13castInterfaceINS0_5radio4V1_16IRadioENS3_4V1_06IRadioENS4_9BpHwRadioEEENS0_6ReturnINS_2spIT_EEEENSA_IT0_EEPKcb"
  },
  {
   "binding":"weak",
   "name":"_ZN7android8hardware7details13castInterfaceINS0_5radio4V1_16IRadioENS_4hidl4base4V1_05IBaseENS4_9BpHwRadioEEENS0_6ReturnINS_2spIT_EEEENSC_IT0_EEPKcb"
  },
  {
   "binding":"weak",
   "name":"_ZN7android8hardware7details15wrapPassthroughINS0_5radio4V1_012ISapCallbackEvEENS_2spIT_EES8_"
  },
  {
   "binding":"weak",
   "name":"_ZN7android8hardware7details15wrapPassthroughINS0_5radio4V1_014IRadioResponseEvEENS_2spIT_EES8_"
  },
  {
   "binding":"weak",
   "name":"_ZN7android8hardware7details15wrapPassthroughINS0_5radio4V1_016IRadioIndicationEvEENS_2spIT_EES8_"
  },
  {
   "binding":"weak",
   "name":"_ZN7android8hardware7details18getServiceInternalINS0_5radio4V1_117BpHwRadioResponseENS4_14IRadioResponseEvvEENS_2spIT0_EERKNSt3__112basic_stringIcNSA_11char_traitsIcEENSA_9allocatorIcEEEEbb"
  },
  {
   "binding":"weak",
   "name":"_ZN7android8hardware7details18getServiceInternalINS0_5radio4V1_119BpHwRadioIndicationENS4_16IRadioIndicationEvvEENS_2spIT0_EERKNSt3__112basic_stringIcNSA_11char_traitsIcEENSA_9allocatorIcEEEEbb"
  },
  {
   "binding":"weak",
   "name":"_ZN7android8hardware7details18getServiceInternalINS0_5radio4V1_17BpHwSapENS4_4ISapEvvEENS_2spIT0_EERKNSt3__112basic_stringIcNSA_11char_traitsIcEENSA_9allocatorIcEEEEbb"
  },
  {
   "binding":"weak",
   "name":"_ZN7android8hardware7details18getServiceInternalINS0_5radio4V1_19BpHwRadioENS4_6IRadioEvvEENS_2spIT0_EERKNSt3__112basic_stringIcNSA_11char_traitsIcEENSA_9allocatorIcEEEEbb"
  },
  {
   "binding":"weak",
   "name":"_ZN7android8hardware8toBinderINS0_5radio4V1_014IRadioResponseEvEENS_2spINS0_7IBinderEEENS5_IT_EE"
  },
  {
   "binding":"weak",
   "name":"_ZN7android8hardware8toBinderINS0_5radio4V1_016IRadioIndicationEvEENS_2spINS0_7IBinderEEENS5_IT_EE"
  },
  {
   "binding":"weak",
   "name":"_ZN7android8hardware8toBinderINS0_5radio4V1_04ISapEvEENS_2spINS0_7IBinderEEENS5_IT_EE"
  },
  {
   "binding":"weak",
   "name":"_ZN7android8hardware8toBinderINS0_5radio4V1_06IRadioEvEENS_2spINS0_7IBinderEEENS5_IT_EE"
  },
  {
   "binding":"weak",
   "name":"_ZN7android8hardware8toBinderINS_4hidl4base4V1_05IBaseEvEENS_2spINS0_7IBinderEEENS6_IT_EE"
  },
  {
   "name":"_ZThn20_N7android8hardware5radio4V1_117BnHwRadioResponseD0Ev"
  },
  {
   "name":"_ZThn20_N7android8hardware5radio4V1_117BnHwRadioResponseD1Ev"
  },
  {
   "name":"_ZThn20_N7android8hardware5radio4V1_119BnHwRadioIndicationD0Ev"
  },
  {
   "name":"_ZThn20_N7android8hardware5radio4V1_119BnHwRadioIndicationD1Ev"
  },
  {
   "name":"_ZThn20_N7android8hardware5radio4V1_17BnHwSapD0Ev"
  },
  {
   "name":"_ZThn20_N7android8hardware5radio4V1_17BnHwSapD1Ev"
  },
  {
   "name":"_ZThn20_N7android8hardware5radio4V1_19BnHwRadioD0Ev"
  },
  {
   "name":"_ZThn20_N7android8hardware5radio4V1_19BnHwRadioD1Ev"
  },
  {
   "name":"_ZTv0_n12_N7android8hardware5radio4V1_117BnHwRadioResponseD0Ev"
  },
  {
   "name":"_ZTv0_n12_N7android8hardware5radio4V1_117BnHwRadioResponseD1Ev"
  },
  {
   "name":"_ZTv0_n12_N7android8hardware5radio4V1_119BnHwRadioIndicationD0Ev"
  },
  {
   "name":"_ZTv0_n12_N7android8hardware5radio4V1_119BnHwRadioIndicationD1Ev"
  },
  {
   "name":"_ZTv0_n12_N7android8hardware5radio4V1_17BnHwSapD0Ev"
  },
  {
   "name":"_ZTv0_n12_N7android8hardware5radio4V1_17BnHwSapD1Ev"
  },
  {
   "name":"_ZTv0_n12_N7android8hardware5radio4V1_19BnHwRadioD0Ev"
  },
  {
   "name":"_ZTv0_n12_N7android8hardware5radio4V1_19BnHwRadioD1Ev"
  }
 ],
 "elf_objects":[
  {
   "name":"_ZN7android8hardware5radio4V1_114IRadioResponse10descriptorE"
  },
  {
   "name":"_ZN7android8hardware5radio4V1_116IRadioIndication10descriptorE"
  },
  {
   "name":"_ZN7android8hardware5radio4V1_14ISap10descriptorE"
  },
  {
   "name":"_ZN7android8hardware5radio4V1_16IRadio10descriptorE"
  },
  {
   "name":"_ZTTN7android8hardware5radio4V1_114IRadioResponseE"
  },
  {
   "name":"_ZTTN7android8hardware5radio4V1_116IRadioIndicationE"
  },
  {
   "name":"_ZTTN7android8hardware5radio4V1_117BnHwRadioResponseE"
  },
  {
   "name":"_ZTTN7android8hardware5radio4V1_117BpHwRadioResponseE"
  },
  {
   "name":"_ZTTN7android8hardware5radio4V1_119BnHwRadioIndicationE"
  },
  {
   "name":"_ZTTN7android8hardware5radio4V1_119BpHwRadioIndicationE"
  },
  {
   "name":"_ZTTN7android8hardware5radio4V1_14ISapE"
  },
  {
   "name":"_ZTTN7android8hardware5radio4V1_16IRadioE"
  },
  {
   "name":"_ZTTN7android8hardware5radio4V1_17BnHwSapE"
  },
  {
   "name":"_ZTTN7android8hardware5radio4V1_17BpHwSapE"
  },
  {
   "name":"_ZTTN7android8hardware5radio4V1_19BnHwRadioE"
  },
  {
   "name":"_ZTTN7android8hardware5radio4V1_19BpHwRadioE"
  },
  {
   "name":"_ZTVN7android8hardware5radio4V1_114IRadioResponseE"
  },
  {
   "binding":"weak",
   "name":"_ZTVN7android8hardware5radio4V1_115BsRadioResponseE"
  },
  {
   "name":"_ZTVN7android8hardware5radio4V1_116IRadioIndicationE"
  },
  {
   "name":"_ZTVN7android8hardware5radio4V1_117BnHwRadioResponseE"
  },
  {
   "name":"_ZTVN7android8hardware5radio4V1_117BpHwRadioResponseE"
  },
  {
   "binding":"weak",
   "name":"_ZTVN7android8hardware5radio4V1_117BsRadioIndicationE"
  },
  {
   "name":"_ZTVN7android8hardware5radio4V1_119BnHwRadioIndicationE"
  },
  {
   "name":"_ZTVN7android8hardware5radio4V1_119BpHwRadioIndicationE"
  },
  {
   "name":"_ZTVN7android8hardware5radio4V1_14ISapE"
  },
  {
   "binding":"weak",
   "name":"_ZTVN7android8hardware5radio4V1_15BsSapE"
  },
  {
   "name":"_ZTVN7android8hardware5radio4V1_16IRadioE"
  },
  {
   "name":"_ZTVN7android8hardware5radio4V1_17BnHwSapE"
  },
  {
   "name":"_ZTVN7android8hardware5radio4V1_17BpHwSapE"
  },
  {
   "binding":"weak",
   "name":"_ZTVN7android8hardware5radio4V1_17BsRadioE"
  },
  {
   "name":"_ZTVN7android8hardware5radio4V1_19BnHwRadioE"
  },
  {
   "name":"_ZTVN7android8hardware5radio4V1_19BpHwRadioE"
  }
 ]
}