{
 "record_types":[
  {
   "vtable_components":[
    {
     "kind":"vbase_offset",
     "component_value":72
    },
    {
     "kind":"offset_to_top"
    },
    {
     "kind":"rtti",
     "mangled_component_name":"_ZTIN7android8hardware9bluetooth4a2dp4V1_022BnHwBluetoothAudioHostE"
    },
    {
     "mangled_component_name":"_ZN7android8hardware9BHwBinder8transactEjRKNS0_6ParcelEPS2_jNSt3__18functionIFvRS2_EEE"
    },
    {
     "mangled_component_name":"_ZN7android8hardware9BHwBinder11linkToDeathERKNS_2spINS0_7IBinder14DeathRecipientEEEPvj"
    },
    {
     "mangled_component_name":"_ZN7android8hardware9BHwBinder13unlinkToDeathERKNS_2wpINS0_7IBinder14DeathRecipientEEEPvjPS5_"
    },
    {
     "mangled_component_name":"_ZNK7android8hardware7IBinder13checkSubclassEPKv"
    },
    {
     "mangled_component_name":"_ZN7android8hardware9BHwBinder12attachObjectEPKvPvS4_PFvS3_S4_S4_E"
    },
    {
     "mangled_component_name":"_ZNK7android8hardware9BHwBinder10findObjectEPKv"
    },
    {
     "mangled_component_name":"_ZN7android8hardware9BHwBinder12detachObjectEPKv"
    },
    {
     "mangled_component_name":"_ZN7android8hardware9BHwBinder11localBinderEv"
    },
    {
     "mangled_component_name":"_ZN7android8hardware7IBinder12remoteBinderEv"
    },
    {
     "kind":"complete_dtor_pointer",
     "mangled_component_name":"_ZN7android8hardware9bluetooth4a2dp4V1_022BnHwBluetoothAudioHostD1Ev"
    },
    {
     "kind":"deleting_dtor_pointer",
     "mangled_component_name":"_ZN7android8hardware9bluetooth4a2dp4V1_022BnHwBluetoothAudioHostD0Ev"
    },
    {
     "mangled_component_name":"_ZN7android8hardware9bluetooth4a2dp4V1_022BnHwBluetoothAudioHost10onTransactEjRKNS0_6ParcelEPS5_jNSt3__18functionIFvRS5_EEE"
    },
    {
     "kind":"offset_to_top",
     "component_value":-20
    },
    {
     "kind":"rtti",
     "mangled_component_name":"_ZTIN7android8hardware9bluetooth4a2dp4V1_022BnHwBluetoothAudioHostE"
    },
    {
     "kind":"complete_dtor_pointer",
     "mangled_component_name":"_ZThn20_N7android8hardware9bluetooth4a2dp4V1_022BnHwBluetoothAudioHostD1Ev"
    },
    {
     "kind":"deleting_dtor_pointer",
     "mangled_component_name":"_ZThn20_N7android8hardware9bluetooth4a2dp4V1_022BnHwBluetoothAudioHostD0Ev"
    },
    {
     "kind":"vcall_offset"
    },
    {
     "kind":"vcall_offset"
    },
    {
     "kind":"vcall_offset"
    },
    {
     "kind":"vcall_offset"
    },
    {
     "kind":"vcall_offset",
     "component_value":-72
    },
    {
     "kind":"offset_to_top",
     "component_value":-72
    },
    {
     "kind":"rtti",
     "mangled_component_name":"_ZTIN7android8hardware9bluetooth4a2dp4V1_022BnHwBluetoothAudioHostE"
    },
    {
     "kind":"complete_dtor_pointer",
     "mangled_component_name":"_ZTv0_n12_N7android8hardware9bluetooth4a2dp4V1_022BnHwBluetoothAudioHostD1Ev"
    },
    {
     "kind":"deleting_dtor_pointer",
     "mangled_component_name":"_ZTv0_n12_N7android8hardware9bluetooth4a2dp4V1_022BnHwBluetoothAudioHostD0Ev"
    },
    {
     "mangled_component_name":"_ZN7android7RefBase10onFirstRefEv"
    },
    {
     "mangled_component_name":"_ZN7android7RefBase15onLastStrongRefEPKv"
    },
    {
     "mangled_component_name":"_ZN7android7RefBase20onIncStrongAttemptedEjPKv"
    },
    {
     "mangled_component_name":"_ZN7android7RefBase13onLastWeakRefEPKv"
    }
   ],
   "unique_id":"_ZTSN7android8hardware9bluetooth4a2dp4V1_022BnHwBluetoothAudioHostE"
  },
  {
   "vtable_components":[
    {
     "kind":"vbase_offset",
     "component_value":60
    },
    {
     "kind":"offset_to_top"
    },
    {
     "kind":"rtti",
     "mangled_component_name":"_ZTIN7android8hardware9bluetooth4a2dp4V1_020BsBluetoothAudioHostE"
    },
    {
     "mangled_component_name":"_ZNK7android8hardware9bluetooth4a2dp4V1_019IBluetoothAudioHost8isRemoteEv"
    },
    {
     "mangled_component_name":"_ZN7android8hardware9bluetooth4a2dp4V1_020BsBluetoothAudioHost14interfaceChainENSt3__18functionIFvRKNS0_8hidl_vecINS0_11hidl_stringEEEEEE"
    },
    {
     "mangled_component_name":"_ZN7android8hardware9bluetooth4a2dp4V1_020BsBluetoothAudioHost5debugERKNS0_11hidl_handleERKNS0_8hidl_vecINS0_11hidl_stringEEE"
    },
    {
     "mangled_component_name":"_ZN7android8hardware9bluetooth4a2dp4V1_020BsBluetoothAudioHost19interfaceDescriptorENSt3__18functionIFvRKNS0_11hidl_stringEEEE"
    },
    {
     "mangled_component_name":"_ZN7android8hardware9bluetooth4a2dp4V1_020BsBluetoothAudioHost12getHashChainENSt3__18functionIFvRKNS0_8hidl_vecINS0_10hidl_arrayIhLj32EJEEEEEEEE"
    },
    {
     "mangled_component_name":"_ZN7android8hardware9bluetooth4a2dp4V1_020BsBluetoothAudioHost21setHALInstrumentationEv"
    },
    {
     "mangled_component_name":"_ZN7android8hardware9bluetooth4a2dp4V1_020BsBluetoothAudioHost11linkToDeathERKNS_2spINS0_20hidl_death_recipientEEEy"
    },
    {
     "mangled_component_name":"_ZN7android8hardware9bluetooth4a2dp4V1_020BsBluetoothAudioHost4pingEv"
    },
    {
     "mangled_component_name":"_ZN7android8hardware9bluetooth4a2dp4V1_020BsBluetoothAudioHost12getDebugInfoENSt3__18functionIFvRKNS_4hidl4base4V1_09DebugInfoEEEE"
    },
    {
     "mangled_component_name":"_ZN7android8hardware9bluetooth4a2dp4V1_020BsBluetoothAudioHost21notifySyspropsChangedEv"
    },
    {
     "mangled_component_name":"_ZN7android8hardware9bluetooth4a2dp4V1_020BsBluetoothAudioHost13unlinkToDeathERKNS_2spINS0_20hidl_death_recipientEEE"
    },
    {
     "kind":"complete_dtor_pointer",
     "mangled_component_name":"_ZN7android8hardware9bluetooth4a2dp4V1_020BsBluetoothAudioHostD1Ev"
    },
    {
     "kind":"deleting_dtor_pointer",
     "mangled_component_name":"_ZN7android8hardware9bluetooth4a2dp4V1_020BsBluetoothAudioHostD0Ev"
    },
    {
     "mangled_component_name":"_ZN7android8hardware9bluetooth4a2dp4V1_020BsBluetoothAudioHost11startStreamEv"
    },
    {
     "mangled_component_name":"_ZN7android8hardware9bluetooth4a2dp4V1_020BsBluetoothAudioHost13suspendStreamEv"
    },
    {
     "mangled_component_name":"_ZN7android8hardware9bluetooth4a2dp4V1_020BsBluetoothAudioHost10stopStreamEv"
    },
    {
     "kind":"offset_to_top",
     "component_value":-4
    },
    {
     "kind":"rtti",
     "mangled_component_name":"_ZTIN7android8hardware9bluetooth4a2dp4V1_020BsBluetoothAudioHostE"
    },
    {
     "kind":"complete_dtor_pointer",
     "mangled_component_name":"_ZThn4_N7android8hardware9bluetooth4a2dp4V1_020BsBluetoothAudioHostD1Ev"
    },
    {
     "kind":"deleting_dtor_pointer",
     "mangled_component_name":"_ZThn4_N7android8hardware9bluetooth4a2dp4V1_020BsBluetoothAudioHostD0Ev"
    },
    {
     "kind":"vcall_offset"
    },
    {
     "kind":"vcall_offset"
    },
    {
     "kind":"vcall_offset"
    },
    {
     "kind":"vcall_offset"
    },
    {
     "kind":"vcall_offset",
     "component_value":-60
    },
    {
     "kind":"offset_to_top",
     "component_value":-60
    },
    {
     "kind":"rtti",
     "mangled_component_name":"_ZTIN7android8hardware9bluetooth4a2dp4V1_020BsBluetoothAudioHostE"
    },
    {
     "kind":"complete_dtor_pointer",
     "mangled_component_name":"_ZTv0_n12_N7android8hardware9bluetooth4a2dp4V1_020BsBluetoothAudioHostD1Ev"
    },
    {
     "kind":"deleting_dtor_pointer",
     "mangled_component_name":"_ZTv0_n12_N7android8hardware9bluetooth4a2dp4V1_020BsBluetoothAudioHostD0Ev"
    },
    {
     "mangled_component_name":"_ZN7android7RefBase10onFirstRefEv"
    },
    {
     "mangled_component_name":"_ZN7android7RefBase15onLastStrongRefEPKv"
    },
    {
     "mangled_component_name":"_ZN7android7RefBase20onIncStrongAttemptedEjPKv"
    },
    {
     "mangled_component_name":"_ZN7android7RefBase13onLastWeakRefEPKv"
    }
   ],
   "unique_id":"_ZTSN7android8hardware9bluetooth4a2dp4V1_020BsBluetoothAudioHostE"
  },
  {
   "vtable_components":[
    {
     "kind":"vbase_offset",
     "component_value":84
    },
    {
     "kind":"offset_to_top"
    },
    {
     "kind":"rtti",
     "mangled_component_name":"_ZTIN7android8hardware9bluetooth4a2dp4V1_022BpHwBluetoothAudioHostE"
    },
    {
     "mangled_component_name":"_ZNK7android8hardware9bluetooth4a2dp4V1_022BpHwBluetoothAudioHost8isRemoteEv"
    },
    {
     "mangled_component_name":"_ZN7android8hardware9bluetooth4a2dp4V1_022BpHwBluetoothAudioHost14interfaceChainENSt3__18functionIFvRKNS0_8hidl_vecINS0_11hidl_stringEEEEEE"
    },
    {
     "mangled_component_name":"_ZN7android8hardware9bluetooth4a2dp4V1_022BpHwBluetoothAudioHost5debugERKNS0_11hidl_handleERKNS0_8hidl_vecINS0_11hidl_stringEEE"
    },
    {
     "mangled_component_name":"_ZN7android8hardware9bluetooth4a2dp4V1_022BpHwBluetoothAudioHost19interfaceDescriptorENSt3__18functionIFvRKNS0_11hidl_stringEEEE"
    },
    {
     "mangled_component_name":"_ZN7android8hardware9bluetooth4a2dp4V1_022BpHwBluetoothAudioHost12getHashChainENSt3__18functionIFvRKNS0_8hidl_vecINS0_10hidl_arrayIhLj32EJEEEEEEEE"
    },
    {
     "mangled_component_name":"_ZN7android8hardware9bluetooth4a2dp4V1_022BpHwBluetoothAudioHost21setHALInstrumentationEv"
    },
    {
     "mangled_component_name":"_ZN7android8hardware9bluetooth4a2dp4V1_022BpHwBluetoothAudioHost11linkToDeathERKNS_2spINS0_20hidl_death_recipientEEEy"
    },
    {
     "mangled_component_name":"_ZN7android8hardware9bluetooth4a2dp4V1_022BpHwBluetoothAudioHost4pingEv"
    },
    {
     "mangled_component_name":"_ZN7android8hardware9bluetooth4a2dp4V1_022BpHwBluetoothAudioHost12getDebugInfoENSt3__18functionIFvRKNS_4hidl4base4V1_09DebugInfoEEEE"
    },
    {
     "mangled_component_name":"_ZN7android8hardware9bluetooth4a2dp4V1_022BpHwBluetoothAudioHost21notifySyspropsChangedEv"
    },
    {
     "mangled_component_name":"_ZN7android8hardware9bluetooth4a2dp4V1_022BpHwBluetoothAudioHost13unlinkToDeathERKNS_2spINS0_20hidl_death_recipientEEE"
    },
    {
     "kind":"complete_dtor_pointer",
     "mangled_component_name":"_ZN7android8hardware9bluetooth4a2dp4V1_022BpHwBluetoothAudioHostD1Ev"
    },
    {
     "kind":"deleting_dtor_pointer",
     "mangled_component_name":"_ZN7android8hardware9bluetooth4a2dp4V1_022BpHwBluetoothAudioHostD0Ev"
    },
    {
     "mangled_component_name":"_ZN7android8hardware9bluetooth4a2dp4V1_022BpHwBluetoothAudioHost11startStreamEv"
    },
    {
     "mangled_component_name":"_ZN7android8hardware9bluetooth4a2dp4V1_022BpHwBluetoothAudioHost13suspendStreamEv"
    },
    {
     "mangled_component_name":"_ZN7android8hardware9bluetooth4a2dp4V1_022BpHwBluetoothAudioHost10stopStreamEv"
    },
    {
     "mangled_component_name":"_ZN7android8hardware11BpInterfaceINS0_9bluetooth4a2dp4V1_019IBluetoothAudioHostEE10onAsBinderEv"
    },
    {
     "kind":"vbase_offset",
     "component_value":80
    },
    {
     "kind":"offset_to_top",
     "component_value":-4
    },
    {
     "kind":"rtti",
     "mangled_component_name":"_ZTIN7android8hardware9bluetooth4a2dp4V1_022BpHwBluetoothAudioHostE"
    },
    {
     "kind":"complete_dtor_pointer",
     "mangled_component_name":"_ZThn4_N7android8hardware9bluetooth4a2dp4V1_022BpHwBluetoothAudioHostD1Ev"
    },
    {
     "kind":"deleting_dtor_pointer",
     "mangled_component_name":"_ZThn4_N7android8hardware9bluetooth4a2dp4V1_022BpHwBluetoothAudioHostD0Ev"
    },
    {
     "mangled_component_name":"_ZThn4_N7android8hardware11BpInterfaceINS0_9bluetooth4a2dp4V1_019IBluetoothAudioHostEE10onAsBinderEv"
    },
    {
     "kind":"vbase_offset",
     "component_value":76
    },
    {
     "kind":"offset_to_top",
     "component_value":-8
    },
    {
     "kind":"rtti",
     "mangled_component_name":"_ZTIN7android8hardware9bluetooth4a2dp4V1_022BpHwBluetoothAudioHostE"
    },
    {
     "kind":"complete_dtor_pointer",
     "mangled_component_name":"_ZThn8_N7android8hardware9bluetooth4a2dp4V1_022BpHwBluetoothAudioHostD1Ev"
    },
    {
     "kind":"deleting_dtor_pointer",
     "mangled_component_name":"_ZThn8_N7android8hardware9bluetooth4a2dp4V1_022BpHwBluetoothAudioHostD0Ev"
    },
    {
     "mangled_component_name":"_ZN7android8hardware11BpHwRefBase10onFirstRefEv"
    },
    {
     "mangled_component_name":"_ZN7android8hardware11BpHwRefBase15onLastStrongRefEPKv"
    },
    {
     "mangled_component_name":"_ZN7android8hardware11BpHwRefBase20onIncStrongAttemptedEjPKv"
    },
    {
     "kind":"offset_to_top",
     "component_value":-24
    },
    {
     "kind":"rtti",
     "mangled_component_name":"_ZTIN7android8hardware9bluetooth4a2dp4V1_022BpHwBluetoothAudioHostE"
    },
    {
     "kind":"complete_dtor_pointer",
     "mangled_component_name":"_ZThn24_N7android8hardware9bluetooth4a2dp4V1_022BpHwBluetoothAudioHostD1Ev"
    },
    {
     "kind":"deleting_dtor_pointer",
     "mangled_component_name":"_ZThn24_N7android8hardware9bluetooth4a2dp4V1_022BpHwBluetoothAudioHostD0Ev"
    },
    {
     "kind":"vcall_offset"
    },
    {
     "kind":"vcall_offset",
     "component_value":-76
    },
    {
     "kind":"vcall_offset",
     "component_value":-76
    },
    {
     "kind":"vcall_offset",
     "component_value":-76
    },
    {
     "kind":"vcall_offset",
     "component_value":-84
    },
    {
     "kind":"offset_to_top",
     "component_value":-84
    },
    {
     "kind":"rtti",
     "mangled_component_name":"_ZTIN7android8hardware9bluetooth4a2dp4V1_022BpHwBluetoothAudioHostE"
    },
    {
     "kind":"complete_dtor_pointer",
     "mangled_component_name":"_ZTv0_n12_N7android8hardware9bluetooth4a2dp4V1_022BpHwBluetoothAudioHostD1Ev"
    },
    {
     "kind":"deleting_dtor_pointer",
     "mangled_component_name":"_ZTv0_n12_N7android8hardware9bluetooth4a2dp4V1_022BpHwBluetoothAudioHostD0Ev"
    },
    {
     "mangled_component_name":"_ZTv0_n16_N7android8hardware11BpHwRefBase10onFirstRefEv"
    },
    {
     "mangled_component_name":"_ZTv0_n20_N7android8hardware11BpHwRefBase15onLastStrongRefEPKv"
    },
    {
     "mangled_component_name":"_ZTv0_n24_N7android8hardware11BpHwRefBase20onIncStrongAttemptedEjPKv"
    },
    {
     "mangled_component_name":"_ZN7android7RefBase13onLastWeakRefEPKv"
    }
   ],
   "unique_id":"_ZTSN7android8hardware9bluetooth4a2dp4V1_022BpHwBluetoothAudioHostE"
  },
  {
   "vtable_components":[
    {
     "kind":"vbase_offset",
     "component_value":72
    },
    {
     "kind":"offset_to_top"
    },
    {
     "kind":"rtti",
     "mangled_component_name":"_ZTIN7android8hardware9bluetooth4a2dp4V1_025BnHwBluetoothAudioOffloadE"
    },
    {
     "mangled_component_name":"_ZN7android8hardware9BHwBinder8transactEjRKNS0_6ParcelEPS2_jNSt3__18functionIFvRS2_EEE"
    },
    {
     "mangled_component_name":"_ZN7android8hardware9BHwBinder11linkToDeathERKNS_2spINS0_7IBinder14DeathRecipientEEEPvj"
    },
    {
     "mangled_component_name":"_ZN7android8hardware9BHwBinder13unlinkToDeathERKNS_2wpINS0_7IBinder14DeathRecipientEEEPvjPS5_"
    },
    {
     "mangled_component_name":"_ZNK7android8hardware7IBinder13checkSubclassEPKv"
    },
    {
     "mangled_component_name":"_ZN7android8hardware9BHwBinder12attachObjectEPKvPvS4_PFvS3_S4_S4_E"
    },
    {
     "mangled_component_name":"_ZNK7android8hardware9BHwBinder10findObjectEPKv"
    },
    {
     "mangled_component_name":"_ZN7android8hardware9BHwBinder12detachObjectEPKv"
    },
    {
     "mangled_component_name":"_ZN7android8hardware9BHwBinder11localBinderEv"
    },
    {
     "mangled_component_name":"_ZN7android8hardware7IBinder12remoteBinderEv"
    },
    {
     "kind":"complete_dtor_pointer",
     "mangled_component_name":"_ZN7android8hardware9bluetooth4a2dp4V1_025BnHwBluetoothAudioOffloadD1Ev"
    },
    {
     "kind":"deleting_dtor_pointer",
     "mangled_component_name":"_ZN7android8hardware9bluetooth4a2dp4V1_025BnHwBluetoothAudioOffloadD0Ev"
    },
    {
     "mangled_component_name":"_ZN7android8hardware9bluetooth4a2dp4V1_025BnHwBluetoothAudioOffload10onTransactEjRKNS0_6ParcelEPS5_jNSt3__18functionIFvRS5_EEE"
    },
    {
     "kind":"offset_to_top",
     "component_value":-20
    },
    {
     "kind":"rtti",
     "mangled_component_name":"_ZTIN7android8hardware9bluetooth4a2dp4V1_025BnHwBluetoothAudioOffloadE"
    },
    {
     "kind":"complete_dtor_pointer",
     "mangled_component_name":"_ZThn20_N7android8hardware9bluetooth4a2dp4V1_025BnHwBluetoothAudioOffloadD1Ev"
    },
    {
     "kind":"deleting_dtor_pointer",
     "mangled_component_name":"_ZThn20_N7android8hardware9bluetooth4a2dp4V1_025BnHwBluetoothAudioOffloadD0Ev"
    },
    {
     "kind":"vcall_offset"
    },
    {
     "kind":"vcall_offset"
    },
    {
     "kind":"vcall_offset"
    },
    {
     "kind":"vcall_offset"
    },
    {
     "kind":"vcall_offset",
     "component_value":-72
    },
    {
     "kind":"offset_to_top",
     "component_value":-72
    },
    {
     "kind":"rtti",
     "mangled_component_name":"_ZTIN7android8hardware9bluetooth4a2dp4V1_025BnHwBluetoothAudioOffloadE"
    },
    {
     "kind":"complete_dtor_pointer",
     "mangled_component_name":"_ZTv0_n12_N7android8hardware9bluetooth4a2dp4V1_025BnHwBluetoothAudioOffloadD1Ev"
    },
    {
     "kind":"deleting_dtor_pointer",
     "mangled_component_name":"_ZTv0_n12_N7android8hardware9bluetooth4a2dp4V1_025BnHwBluetoothAudioOffloadD0Ev"
    },
    {
     "mangled_component_name":"_ZN7android7RefBase10onFirstRefEv"
    },
    {
     "mangled_component_name":"_ZN7android7RefBase15onLastStrongRefEPKv"
    },
    {
     "mangled_component_name":"_ZN7android7RefBase20onIncStrongAttemptedEjPKv"
    },
    {
     "mangled_component_name":"_ZN7android7RefBase13onLastWeakRefEPKv"
    }
   ],
   "unique_id":"_ZTSN7android8hardware9bluetooth4a2dp4V1_025BnHwBluetoothAudioOffloadE"
  },
  {
   "vtable_components":[
    {
     "kind":"vbase_offset",
     "component_value":4
    },
    {
     "kind":"offset_to_top"
    },
    {
     "kind":"rtti",
     "mangled_component_name":"_ZTIN7android8hardware9bluetooth4a2dp4V1_022IBluetoothAudioOffloadE"
    },
    {
     "mangled_component_name":"_ZNK7android8hardware9bluetooth4a2dp4V1_022IBluetoothAudioOffload8isRemoteEv"
    },
    {
     "mangled_component_name":"_ZN7android8hardware9bluetooth4a2dp4V1_022IBluetoothAudioOffload14interfaceChainENSt3__18functionIFvRKNS0_8hidl_vecINS0_11hidl_stringEEEEEE"
    },
    {
     "mangled_component_name":"_ZN7android8hardware9bluetooth4a2dp4V1_022IBluetoothAudioOffload5debugERKNS0_11hidl_handleERKNS0_8hidl_vecINS0_11hidl_stringEEE"
    },
    {
     "mangled_component_name":"_ZN7android8hardware9bluetooth4a2dp4V1_022IBluetoothAudioOffload19interfaceDescriptorENSt3__18functionIFvRKNS0_11hidl_stringEEEE"
    },
    {
     "mangled_component_name":"_ZN7android8hardware9bluetooth4a2dp4V1_022IBluetoothAudioOffload12getHashChainENSt3__18functionIFvRKNS0_8hidl_vecINS0_10hidl_arrayIhLj32EJEEEEEEEE"
    },
    {
     "mangled_component_name":"_ZN7android8hardware9bluetooth4a2dp4V1_022IBluetoothAudioOffload21setHALInstrumentationEv"
    },
    {
     "mangled_component_name":"_ZN7android8hardware9bluetooth4a2dp4V1_022IBluetoothAudioOffload11linkToDeathERKNS_2spINS0_20hidl_death_recipientEEEy"
    },
    {
     "mangled_component_name":"_ZN7android8hardware9bluetooth4a2dp4V1_022IBluetoothAudioOffload4pingEv"
    },
    {
     "mangled_component_name":"_ZN7android8hardware9bluetooth4a2dp4V1_022IBluetoothAudioOffload12getDebugInfoENSt3__18functionIFvRKNS_4hidl4base4V1_09DebugInfoEEEE"
    },
    {
     "mangled_component_name":"_ZN7android8hardware9bluetooth4a2dp4V1_022IBluetoothAudioOffload21notifySyspropsChangedEv"
    },
    {
     "mangled_component_name":"_ZN7android8hardware9bluetooth4a2dp4V1_022IBluetoothAudioOffload13unlinkToDeathERKNS_2spINS0_20hidl_death_recipientEEE"
    },
    {
     "kind":"complete_dtor_pointer",
     "mangled_component_name":"_ZN7android8hardware9bluetooth4a2dp4V1_022IBluetoothAudioOffloadD1Ev"
    },
    {
     "kind":"deleting_dtor_pointer",
     "mangled_component_name":"_ZN7android8hardware9bluetooth4a2dp4V1_022IBluetoothAudioOffloadD0Ev"
    },
    {
     "is_pure":true,
     "mangled_component_name":"_ZN7android8hardware9bluetooth4a2dp4V1_022IBluetoothAudioOffload12startSessionERKNS_2spINS3_19IBluetoothAudioHostEEERKNS3_18CodecConfigurationE"
    },
    {
     "is_pure":true,
     "mangled_component_name":"_ZN7android8hardware9bluetooth4a2dp4V1_022IBluetoothAudioOffload13streamStartedENS3_6StatusE"
    },
    {
     "is_pure":true,
     "mangled_component_name":"_ZN7android8hardware9bluetooth4a2dp4V1_022IBluetoothAudioOffload15streamSuspendedENS3_6StatusE"
    },
    {
     "is_pure":true,
     "mangled_component_name":"_ZN7android8hardware9bluetooth4a2dp4V1_022IBluetoothAudioOffload10endSessionEv"
    },
    {
     "kind":"vcall_offset"
    },
    {
     "kind":"vcall_offset"
    },
    {
     "kind":"vcall_offset"
    },
    {
     "kind":"vcall_offset"
    },
    {
     "kind":"vcall_offset",
     "component_value":-4
    },
    {
     "kind":"offset_to_top",
     "component_value":-4
    },
    {
     "kind":"rtti",
     "mangled_component_name":"_ZTIN7android8hardware9bluetooth4a2dp4V1_022IBluetoothAudioOffloadE"
    },
    {
     "kind":"complete_dtor_pointer",
     "mangled_component_name":"_ZTv0_n12_N7android8hardware9bluetooth4a2dp4V1_022IBluetoothAudioOffloadD1Ev"
    },
    {
     "kind":"deleting_dtor_pointer",
     "mangled_component_name":"_ZTv0_n12_N7android8hardware9bluetooth4a2dp4V1_022IBluetoothAudioOffloadD0Ev"
    },
    {
     "mangled_component_name":"_ZN7android7RefBase10onFirstRefEv"
    },
    {
     "mangled_component_name":"_ZN7android7RefBase15onLastStrongRefEPKv"
    },
    {
     "mangled_component_name":"_ZN7android7RefBase20onIncStrongAttemptedEjPKv"
    },
    {
     "mangled_component_name":"_ZN7android7RefBase13onLastWeakRefEPKv"
    }
   ],
   "unique_id":"_ZTSN7android8hardware9bluetooth4a2dp4V1_022IBluetoothAudioOffloadE"
  },
  {
   "vtable_components":[
    {
     "kind":"vbase_offset",
     "component_value":60
    },
    {
     "kind":"offset_to_top"
    },
    {
     "kind":"rtti",
     "mangled_component_name":"_ZTIN7android8hardware9bluetooth4a2dp4V1_023BsBluetoothAudioOffloadE"
    },
    {
     "mangled_component_name":"_ZNK7android8hardware9bluetooth4a2dp4V1_022IBluetoothAudioOffload8isRemoteEv"
    },
    {
     "mangled_component_name":"_ZN7android8hardware9bluetooth4a2dp4V1_023BsBluetoothAudioOffload14interfaceChainENSt3__18functionIFvRKNS0_8hidl_vecINS0_11hidl_stringEEEEEE"
    },
    {
     "mangled_component_name":"_ZN7android8hardware9bluetooth4a2dp4V1_023BsBluetoothAudioOffload5debugERKNS0_11hidl_handleERKNS0_8hidl_vecINS0_11hidl_stringEEE"
    },
    {
     "mangled_component_name":"_ZN7android8hardware9bluetooth4a2dp4V1_023BsBluetoothAudioOffload19interfaceDescriptorENSt3__18functionIFvRKNS0_11hidl_stringEEEE"
    },
    {
     "mangled_component_name":"_ZN7android8hardware9bluetooth4a2dp4V1_023BsBluetoothAudioOffload12getHashChainENSt3__18functionIFvRKNS0_8hidl_vecINS0_10hidl_arrayIhLj32EJEEEEEEEE"
    },
    {
     "mangled_component_name":"_ZN7android8hardware9bluetooth4a2dp4V1_023BsBluetoothAudioOffload21setHALInstrumentationEv"
    },
    {
     "mangled_component_name":"_ZN7android8hardware9bluetooth4a2dp4V1_023BsBluetoothAudioOffload11linkToDeathERKNS_2spINS0_20hidl_death_recipientEEEy"
    },
    {
     "mangled_component_name":"_ZN7android8hardware9bluetooth4a2dp4V1_023BsBluetoothAudioOffload4pingEv"
    },
    {
     "mangled_component_name":"_ZN7android8hardware9bluetooth4a2dp4V1_023BsBluetoothAudioOffload12getDebugInfoENSt3__18functionIFvRKNS_4hidl4base4V1_09DebugInfoEEEE"
    },
    {
     "mangled_component_name":"_ZN7android8hardware9bluetooth4a2dp4V1_023BsBluetoothAudioOffload21notifySyspropsChangedEv"
    },
    {
     "mangled_component_name":"_ZN7android8hardware9bluetooth4a2dp4V1_023BsBluetoothAudioOffload13unlinkToDeathERKNS_2spINS0_20hidl_death_recipientEEE"
    },
    {
     "kind":"complete_dtor_pointer",
     "mangled_component_name":"_ZN7android8hardware9bluetooth4a2dp4V1_023BsBluetoothAudioOffloadD1Ev"
    },
    {
     "kind":"deleting_dtor_pointer",
     "mangled_component_name":"_ZN7android8hardware9bluetooth4a2dp4V1_023BsBluetoothAudioOffloadD0Ev"
    },
    {
     "mangled_component_name":"_ZN7android8hardware9bluetooth4a2dp4V1_023BsBluetoothAudioOffload12startSessionERKNS_2spINS3_19IBluetoothAudioHostEEERKNS3_18CodecConfigurationE"
    },
    {
     "mangled_component_name":"_ZN7android8hardware9bluetooth4a2dp4V1_023BsBluetoothAudioOffload13streamStartedENS3_6StatusE"
    },
    {
     "mangled_component_name":"_ZN7android8hardware9bluetooth4a2dp4V1_023BsBluetoothAudioOffload15streamSuspendedENS3_6StatusE"
    },
    {
     "mangled_component_name":"_ZN7android8hardware9bluetooth4a2dp4V1_023BsBluetoothAudioOffload10endSessionEv"
    },
    {
     "kind":"offset_to_top",
     "component_value":-4
    },
    {
     "kind":"rtti",
     "mangled_component_name":"_ZTIN7android8hardware9bluetooth4a2dp4V1_023BsBluetoothAudioOffloadE"
    },
    {
     "kind":"complete_dtor_pointer",
     "mangled_component_name":"_ZThn4_N7android8hardware9bluetooth4a2dp4V1_023BsBluetoothAudioOffloadD1Ev"
    },
    {
     "kind":"deleting_dtor_pointer",
     "mangled_component_name":"_ZThn4_N7android8hardware9bluetooth4a2dp4V1_023BsBluetoothAudioOffloadD0Ev"
    },
    {
     "kind":"vcall_offset"
    },
    {
     "kind":"vcall_offset"
    },
    {
     "kind":"vcall_offset"
    },
    {
     "kind":"vcall_offset"
    },
    {
     "kind":"vcall_offset",
     "component_value":-60
    },
    {
     "kind":"offset_to_top",
     "component_value":-60
    },
    {
     "kind":"rtti",
     "mangled_component_name":"_ZTIN7android8hardware9bluetooth4a2dp4V1_023BsBluetoothAudioOffloadE"
    },
    {
     "kind":"complete_dtor_pointer",
     "mangled_component_name":"_ZTv0_n12_N7android8hardware9bluetooth4a2dp4V1_023BsBluetoothAudioOffloadD1Ev"
    },
    {
     "kind":"deleting_dtor_pointer",
     "mangled_component_name":"_ZTv0_n12_N7android8hardware9bluetooth4a2dp4V1_023BsBluetoothAudioOffloadD0Ev"
    },
    {
     "mangled_component_name":"_ZN7android7RefBase10onFirstRefEv"
    },
    {
     "mangled_component_name":"_ZN7android7RefBase15onLastStrongRefEPKv"
    },
    {
     "mangled_component_name":"_ZN7android7RefBase20onIncStrongAttemptedEjPKv"
    },
    {
     "mangled_component_name":"_ZN7android7RefBase13onLastWeakRefEPKv"
    }
   ],
   "unique_id":"_ZTSN7android8hardware9bluetooth4a2dp4V1_023BsBluetoothAudioOffloadE"
  },
  {
   "vtable_components":[
    {
     "kind":"vbase_offset",
     "component_value":84
    },
    {
     "kind":"offset_to_top"
    },
    {
     "kind":"rtti",
     "mangled_component_name":"_ZTIN7android8hardware9bluetooth4a2dp4V1_025BpHwBluetoothAudioOffloadE"
    },
    {
     "mangled_component_name":"_ZNK7android8hardware9bluetooth4a2dp4V1_025BpHwBluetoothAudioOffload8isRemoteEv"
    },
    {
     "mangled_component_name":"_ZN7android8hardware9bluetooth4a2dp4V1_025BpHwBluetoothAudioOffload14interfaceChainENSt3__18functionIFvRKNS0_8hidl_vecINS0_11hidl_stringEEEEEE"
    },
    {
     "mangled_component_name":"_ZN7android8hardware9bluetooth4a2dp4V1_025BpHwBluetoothAudioOffload5debugERKNS0_11hidl_handleERKNS0_8hidl_vecINS0_11hidl_stringEEE"
    },
    {
     "mangled_component_name":"_ZN7android8hardware9bluetooth4a2dp4V1_025BpHwBluetoothAudioOffload19interfaceDescriptorENSt3__18functionIFvRKNS0_11hidl_stringEEEE"
    },
    {
     "mangled_component_name":"_ZN7android8hardware9bluetooth4a2dp4V1_025BpHwBluetoothAudioOffload12getHashChainENSt3__18functionIFvRKNS0_8hidl_vecINS0_10hidl_arrayIhLj32EJEEEEEEEE"
    },
    {
     "mangled_component_name":"_ZN7android8hardware9bluetooth4a2dp4V1_025BpHwBluetoothAudioOffload21setHALInstrumentationEv"
    },
    {
     "mangled_component_name":"_ZN7android8hardware9bluetooth4a2dp4V1_025BpHwBluetoothAudioOffload11linkToDeathERKNS_2spINS0_20hidl_death_recipientEEEy"
    },
    {
     "mangled_component_name":"_ZN7android8hardware9bluetooth4a2dp4V1_025BpHwBluetoothAudioOffload4pingEv"
    },
    {
     "mangled_component_name":"_ZN7android8hardware9bluetooth4a2dp4V1_025BpHwBluetoothAudioOffload12getDebugInfoENSt3__18functionIFvRKNS_4hidl4base4V1_09DebugInfoEEEE"
    },
    {
     "mangled_component_name":"_ZN7android8hardware9bluetooth4a2dp4V1_025BpHwBluetoothAudioOffload21notifySyspropsChangedEv"
    },
    {
     "mangled_component_name":"_ZN7android8hardware9bluetooth4a2dp4V1_025BpHwBluetoothAudioOffload13unlinkToDeathERKNS_2spINS0_20hidl_death_recipientEEE"
    },
    {
     "kind":"complete_dtor_pointer",
     "mangled_component_name":"_ZN7android8hardware9bluetooth4a2dp4V1_025BpHwBluetoothAudioOffloadD1Ev"
    },
    {
     "kind":"deleting_dtor_pointer",
     "mangled_component_name":"_ZN7android8hardware9bluetooth4a2dp4V1_025BpHwBluetoothAudioOffloadD0Ev"
    },
    {
     "mangled_component_name":"_ZN7android8hardware9bluetooth4a2dp4V1_025BpHwBluetoothAudioOffload12startSessionERKNS_2spINS3_19IBluetoothAudioHostEEERKNS3_18CodecConfigurationE"
    },
    {
     "mangled_component_name":"_ZN7android8hardware9bluetooth4a2dp4V1_025BpHwBluetoothAudioOffload13streamStartedENS3_6StatusE"
    },
    {
     "mangled_component_name":"_ZN7android8hardware9bluetooth4a2dp4V1_025BpHwBluetoothAudioOffload15streamSuspendedENS3_6StatusE"
    },
    {
     "mangled_component_name":"_ZN7android8hardware9bluetooth4a2dp4V1_025BpHwBluetoothAudioOffload10endSessionEv"
    },
    {
     "mangled_component_name":"_ZN7android8hardware11BpInterfaceINS0_9bluetooth4a2dp4V1_022IBluetoothAudioOffloadEE10onAsBinderEv"
    },
    {
     "kind":"vbase_offset",
     "component_value":80
    },
    {
     "kind":"offset_to_top",
     "component_value":-4
    },
    {
     "kind":"rtti",
     "mangled_component_name":"_ZTIN7android8hardware9bluetooth4a2dp4V1_025BpHwBluetoothAudioOffloadE"
    },
    {
     "kind":"complete_dtor_pointer",
     "mangled_component_name":"_ZThn4_N7android8hardware9bluetooth4a2dp4V1_025BpHwBluetoothAudioOffloadD1Ev"
    },
    {
     "kind":"deleting_dtor_pointer",
     "mangled_component_name":"_ZThn4_N7android8hardware9bluetooth4a2dp4V1_025BpHwBluetoothAudioOffloadD0Ev"
    },
    {
     "mangled_component_name":"_ZThn4_N7android8hardware11BpInterfaceINS0_9bluetooth4a2dp4V1_022IBluetoothAudioOffloadEE10onAsBinderEv"
    },
    {
     "kind":"vbase_offset",
     "component_value":76
    },
    {
     "kind":"offset_to_top",
     "component_value":-8
    },
    {
     "kind":"rtti",
     "mangled_component_name":"_ZTIN7android8hardware9bluetooth4a2dp4V1_025BpHwBluetoothAudioOffloadE"
    },
    {
     "kind":"complete_dtor_pointer",
     "mangled_component_name":"_ZThn8_N7android8hardware9bluetooth4a2dp4V1_025BpHwBluetoothAudioOffloadD1Ev"
    },
    {
     "kind":"deleting_dtor_pointer",
     "mangled_component_name":"_ZThn8_N7android8hardware9bluetooth4a2dp4V1_025BpHwBluetoothAudioOffloadD0Ev"
    },
    {
     "mangled_component_name":"_ZN7android8hardware11BpHwRefBase10onFirstRefEv"
    },
    {
     "mangled_component_name":"_ZN7android8hardware11BpHwRefBase15onLastStrongRefEPKv"
    },
    {
     "mangled_component_name":"_ZN7android8hardware11BpHwRefBase20onIncStrongAttemptedEjPKv"
    },
    {
     "kind":"offset_to_top",
     "component_value":-24
    },
    {
     "kind":"rtti",
     "mangled_component_name":"_ZTIN7android8hardware9bluetooth4a2dp4V1_025BpHwBluetoothAudioOffloadE"
    },
    {
     "kind":"complete_dtor_pointer",
     "mangled_component_name":"_ZThn24_N7android8hardware9bluetooth4a2dp4V1_025BpHwBluetoothAudioOffloadD1Ev"
    },
    {
     "kind":"deleting_dtor_pointer",
     "mangled_component_name":"_ZThn24_N7android8hardware9bluetooth4a2dp4V1_025BpHwBluetoothAudioOffloadD0Ev"
    },
    {
     "kind":"vcall_offset"
    },
    {
     "kind":"vcall_offset",
     "component_value":-76
    },
    {
     "kind":"vcall_offset",
     "component_value":-76
    },
    {
     "kind":"vcall_offset",
     "component_value":-76
    },
    {
     "kind":"vcall_offset",
     "component_value":-84
    },
    {
     "kind":"offset_to_top",
     "component_value":-84
    },
    {
     "kind":"rtti",
     "mangled_component_name":"_ZTIN7android8hardware9bluetooth4a2dp4V1_025BpHwBluetoothAudioOffloadE"
    },
    {
     "kind":"complete_dtor_pointer",
     "mangled_component_name":"_ZTv0_n12_N7android8hardware9bluetooth4a2dp4V1_025BpHwBluetoothAudioOffloadD1Ev"
    },
    {
     "kind":"deleting_dtor_pointer",
     "mangled_component_name":"_ZTv0_n12_N7android8hardware9bluetooth4a2dp4V1_025BpHwBluetoothAudioOffloadD0Ev"
    },
    {
     "mangled_component_name":"_ZTv0_n16_N7android8hardware11BpHwRefBase10onFirstRefEv"
    },
    {
     "mangled_component_name":"_ZTv0_n20_N7android8hardware11BpHwRefBase15onLastStrongRefEPKv"
    },
    {
     "mangled_component_name":"_ZTv0_n24_N7android8hardware11BpHwRefBase20onIncStrongAttemptedEjPKv"
    },
    {
     "mangled_component_name":"_ZN7android7RefBase13onLastWeakRefEPKv"
    }
   ],
   "unique_id":"_ZTSN7android8hardware9bluetooth4a2dp4V1_025BpHwBluetoothAudioOffloadE"
  },
  {
   "vtable_components":[
    {
     "kind":"vbase_offset",
     "component_value":4
    },
    {
     "kind":"offset_to_top"
    },
    {
     "kind":"rtti",
     "mangled_component_name":"_ZTIN7android8hardware9bluetooth4a2dp4V1_019IBluetoothAudioHostE"
    },
    {
     "mangled_component_name":"_ZNK7android8hardware9bluetooth4a2dp4V1_019IBluetoothAudioHost8isRemoteEv"
    },
    {
     "mangled_component_name":"_ZN7android8hardware9bluetooth4a2dp4V1_019IBluetoothAudioHost14interfaceChainENSt3__18functionIFvRKNS0_8hidl_vecINS0_11hidl_stringEEEEEE"
    },
    {
     "mangled_component_name":"_ZN7android8hardware9bluetooth4a2dp4V1_019IBluetoothAudioHost5debugERKNS0_11hidl_handleERKNS0_8hidl_vecINS0_11hidl_stringEEE"
    },
    {
     "mangled_component_name":"_ZN7android8hardware9bluetooth4a2dp4V1_019IBluetoothAudioHost19interfaceDescriptorENSt3__18functionIFvRKNS0_11hidl_stringEEEE"
    },
    {
     "mangled_component_name":"_ZN7android8hardware9bluetooth4a2dp4V1_019IBluetoothAudioHost12getHashChainENSt3__18functionIFvRKNS0_8hidl_vecINS0_10hidl_arrayIhLj32EJEEEEEEEE"
    },
    {
     "mangled_component_name":"_ZN7android8hardware9bluetooth4a2dp4V1_019IBluetoothAudioHost21setHALInstrumentationEv"
    },
    {
     "mangled_component_name":"_ZN7android8hardware9bluetooth4a2dp4V1_019IBluetoothAudioHost11linkToDeathERKNS_2spINS0_20hidl_death_recipientEEEy"
    },
    {
     "mangled_component_name":"_ZN7android8hardware9bluetooth4a2dp4V1_019IBluetoothAudioHost4pingEv"
    },
    {
     "mangled_component_name":"_ZN7android8hardware9bluetooth4a2dp4V1_019IBluetoothAudioHost12getDebugInfoENSt3__18functionIFvRKNS_4hidl4base4V1_09DebugInfoEEEE"
    },
    {
     "mangled_component_name":"_ZN7android8hardware9bluetooth4a2dp4V1_019IBluetoothAudioHost21notifySyspropsChangedEv"
    },
    {
     "mangled_component_name":"_ZN7android8hardware9bluetooth4a2dp4V1_019IBluetoothAudioHost13unlinkToDeathERKNS_2spINS0_20hidl_death_recipientEEE"
    },
    {
     "kind":"complete_dtor_pointer",
     "mangled_component_name":"_ZN7android8hardware9bluetooth4a2dp4V1_019IBluetoothAudioHostD1Ev"
    },
    {
     "kind":"deleting_dtor_pointer",
     "mangled_component_name":"_ZN7android8hardware9bluetooth4a2dp4V1_019IBluetoothAudioHostD0Ev"
    },
    {
     "is_pure":true,
     "mangled_component_name":"_ZN7android8hardware9bluetooth4a2dp4V1_019IBluetoothAudioHost11startStreamEv"
    },
    {
     "is_pure":true,
     "mangled_component_name":"_ZN7android8hardware9bluetooth4a2dp4V1_019IBluetoothAudioHost13suspendStreamEv"
    },
    {
     "is_pure":true,
     "mangled_component_name":"_ZN7android8hardware9bluetooth4a2dp4V1_019IBluetoothAudioHost10stopStreamEv"
    },
    {
     "kind":"vcall_offset"
    },
    {
     "kind":"vcall_offset"
    },
    {
     "kind":"vcall_offset"
    },
    {
     "kind":"vcall_offset"
    },
    {
     "kind":"vcall_offset",
     "component_value":-4
    },
    {
     "kind":"offset_to_top",
     "component_value":-4
    },
    {
     "kind":"rtti",
     "mangled_component_name":"_ZTIN7android8hardware9bluetooth4a2dp4V1_019IBluetoothAudioHostE"
    },
    {
     "kind":"complete_dtor_pointer",
     "mangled_component_name":"_ZTv0_n12_N7android8hardware9bluetooth4a2dp4V1_019IBluetoothAudioHostD1Ev"
    },
    {
     "kind":"deleting_dtor_pointer",
     "mangled_component_name":"_ZTv0_n12_N7android8hardware9bluetooth4a2dp4V1_019IBluetoothAudioHostD0Ev"
    },
    {
     "mangled_component_name":"_ZN7android7RefBase10onFirstRefEv"
    },
    {
     "mangled_component_name":"_ZN7android7RefBase15onLastStrongRefEPKv"
    },
    {
     "mangled_component_name":"_ZN7android7RefBase20onIncStrongAttemptedEjPKv"
    },
    {
     "mangled_component_name":"_ZN7android7RefBase13onLastWeakRefEPKv"
    }
   ],
   "unique_id":"_ZTSN7android8hardware9bluetooth4a2dp4V1_019IBluetoothAudioHostE"
  }
 ],
 "elf_functions":[
  {
   "binding":"weak",
   "name":"_ZN7android8hardware10fromBinderINS0_9bluetooth4a2dp4V1_019IBluetoothAudioHostENS4_22BpHwBluetoothAudioHostENS4_22BnHwBluetoothAudioHostEEENS_2spIT_EERKNS8_INS0_7IBinderEEE"
  },
  {
   "binding":"weak",
   "name":"_ZN7android8hardware7details13castInterfaceINS0_9bluetooth4a2dp4V1_019IBluetoothAudioHostENS_4hidl4base4V1_05IBaseENS5_22BpHwBluetoothAudioHostEEENS0_6ReturnINS_2spIT_EEEENSD_IT0_EEPKcb"
  },
  {
   "binding":"weak",
   "name":"_ZN7android8hardware7details13castInterfaceINS0_9bluetooth4a2dp4V1_022IBluetoothAudioOffloadENS_4hidl4base4V1_05IBaseENS5_25BpHwBluetoothAudioOffloadEEENS0_6ReturnINS_2spIT_EEEENSD_IT0_EEPKcb"
  },
  {
   "binding":"weak",
   "name":"_ZN7android8hardware7details15wrapPassthroughINS0_9bluetooth4a2dp4V1_019IBluetoothAudioHostEvEENS_2spIT_EES9_"
  },
  {
   "binding":"weak",
   "name":"_ZN7android8hardware7details18getServiceInternalINS0_9bluetooth4a2dp4V1_022BpHwBluetoothAudioHostENS5_19IBluetoothAudioHostEvvEENS_2spIT0_EERKNSt3__112basic_stringIcNSB_11char_traitsIcEENSB_9allocatorIcEEEEbb"
  },
  {
   "binding":"weak",
   "name":"_ZN7android8hardware7details18getServiceInternalINS0_9bluetooth4a2dp4V1_025BpHwBluetoothAudioOffloadENS5_22IBluetoothAudioOffloadEvvEENS_2spIT0_EERKNSt3__112basic_stringIcNSB_11char_traitsIcEENSB_9allocatorIcEEEEbb"
  },
  {
   "binding":"weak",
   "name":"_ZN7android8hardware8toBinderINS0_9bluetooth4a2dp4V1_019IBluetoothAudioHostEvEENS_2spINS0_7IBinderEEENS6_IT_EE"
  },
  {
   "binding":"weak",
   "name":"_ZN7android8hardware8toBinderINS_4hidl4base4V1_05IBaseEvEENS_2spINS0_7IBinderEEENS6_IT_EE"
  },
  {
   "name":"_ZN7android8hardware9bluetooth4a2dp4V1_019IBluetoothAudioHost10getServiceERKNSt3__112basic_stringIcNS5_11char_traitsIcEENS5_9allocatorIcEEEEb"
  },
  {
   "name":"_ZN7android8hardware9bluetooth4a2dp4V1_019IBluetoothAudioHost11linkToDeathERKNS_2spINS0_20hidl_death_recipientEEEy"
  },
  {
   "name":"_ZN7android8hardware9bluetooth4a2dp4V1_019IBluetoothAudioHost12getDebugInfoENSt3__18functionIFvRKNS_4hidl4base4V1_09DebugInfoEEEE"
  },
  {
   "name":"_ZN7android8hardware9bluetooth4a2dp4V1_019IBluetoothAudioHost12getHashChainENSt3__18functionIFvRKNS0_8hidl_vecINS0_10hidl_arrayIhLj32EJEEEEEEEE"
  },
  {
   "name":"_ZN7android8hardware9bluetooth4a2dp4V1_019IBluetoothAudioHost13tryGetServiceERKNSt3__112basic_stringIcNS5_11char_traitsIcEENS5_9allocatorIcEEEEb"
  },
  {
   "name":"_ZN7android8hardware9bluetooth4a2dp4V1_019IBluetoothAudioHost13unlinkToDeathERKNS_2spINS0_20hidl_death_recipientEEE"
  },
  {
   "name":"_ZN7android8hardware9bluetooth4a2dp4V1_019IBluetoothAudioHost14interfaceChainENSt3__18functionIFvRKNS0_8hidl_vecINS0_11hidl_stringEEEEEE"
  },
  {
   "name":"_ZN7android8hardware9bluetooth4a2dp4V1_019IBluetoothAudioHost17registerAsServiceERKNSt3__112basic_stringIcNS5_11char_traitsIcEENS5_9allocatorIcEEEE"
  },
  {
   "name":"_ZN7android8hardware9bluetooth4a2dp4V1_019IBluetoothAudioHost19interfaceDescriptorENSt3__18functionIFvRKNS0_11hidl_stringEEEE"
  },
  {
   "name":"_ZN7android8hardware9bluetooth4a2dp4V1_019IBluetoothAudioHost21notifySyspropsChangedEv"
  },
  {
   "name":"_ZN7android8hardware9bluetooth4a2dp4V1_019IBluetoothAudioHost21setHALInstrumentationEv"
  },
  {
   "name":"_ZN7android8hardware9bluetooth4a2dp4V1_019IBluetoothAudioHost24registerForNotificationsERKNSt3__112basic_stringIcNS5_11char_traitsIcEENS5_9allocatorIcEEEERKNS_2spINS_4hidl7manager4V1_020IServiceNotificationEEE"
  },
  {
   "name":"_ZN7android8hardware9bluetooth4a2dp4V1_019IBluetoothAudioHost4pingEv"
  },
  {
   "name":"_ZN7android8hardware9bluetooth4a2dp4V1_019IBluetoothAudioHost5debugERKNS0_11hidl_handleERKNS0_8hidl_vecINS0_11hidl_stringEEE"
  },
  {
   "name":"_ZN7android8hardware9bluetooth4a2dp4V1_019IBluetoothAudioHost8castFromERKNS_2spINS_4hidl4base4V1_05IBaseEEEb"
  },
  {
   "name":"_ZN7android8hardware9bluetooth4a2dp4V1_019IBluetoothAudioHost8castFromERKNS_2spIS4_EEb"
  },
  {
   "name":"_ZN7android8hardware9bluetooth4a2dp4V1_020BsBluetoothAudioHost13addOnewayTaskENSt3__18functionIFvvEEE"
  },
  {
   "name":"_ZN7android8hardware9bluetooth4a2dp4V1_020BsBluetoothAudioHostC1ENS_2spINS3_19IBluetoothAudioHostEEE"
  },
  {
   "name":"_ZN7android8hardware9bluetooth4a2dp4V1_020BsBluetoothAudioHostC2ENS_2spINS3_19IBluetoothAudioHostEEE"
  },
  {
   "name":"_ZN7android8hardware9bluetooth4a2dp4V1_022BnHwBluetoothAudioHost10onTransactEjRKNS0_6ParcelEPS5_jNSt3__18functionIFvRS5_EEE"
  },
  {
   "name":"_ZN7android8hardware9bluetooth4a2dp4V1_022BnHwBluetoothAudioHost12getDebugInfoENSt3__18functionIFvRKNS_4hidl4base4V1_09DebugInfoEEEE"
  },
  {
   "name":"_ZN7android8hardware9bluetooth4a2dp4V1_022BnHwBluetoothAudioHost16_hidl_stopStreamEPNS_4hidl4base4V1_08BnHwBaseERKNS0_6ParcelEPSA_NSt3__18functionIFvRSA_EEE"
  },
  {
   "name":"_ZN7android8hardware9bluetooth4a2dp4V1_022BnHwBluetoothAudioHost17_hidl_startStreamEPNS_4hidl4base4V1_08BnHwBaseERKNS0_6ParcelEPSA_NSt3__18functionIFvRSA_EEE"
  },
  {
   "name":"_ZN7android8hardware9bluetooth4a2dp4V1_022BnHwBluetoothAudioHost19_hidl_suspendStreamEPNS_4hidl4base4V1_08BnHwBaseERKNS0_6ParcelEPSA_NSt3__18functionIFvRSA_EEE"
  },
  {
   "name":"_ZN7android8hardware9bluetooth4a2dp4V1_022BnHwBluetoothAudioHost4pingEv"
  },
  {
   "name":"_ZN7android8hardware9bluetooth4a2dp4V1_022BnHwBluetoothAudioHostC1ERKNS_2spINS3_19IBluetoothAudioHostEEE"
  },
  {
   "name":"_ZN7android8hardware9bluetooth4a2dp4V1_022BnHwBluetoothAudioHostC2ERKNS_2spINS3_19IBluetoothAudioHostEEE"
  },
  {
   "name":"_ZN7android8hardware9bluetooth4a2dp4V1_022BnHwBluetoothAudioHostD0Ev"
  },
  {
   "name":"_ZN7android8hardware9bluetooth4a2dp4V1_022BnHwBluetoothAudioHostD1Ev"
  },
  {
   "name":"_ZN7android8hardware9bluetooth4a2dp4V1_022BnHwBluetoothAudioHostD2Ev"
  },
  {
   "name":"_ZN7android8hardware9bluetooth4a2dp4V1_022BpHwBluetoothAudioHost10stopStreamEv"
  },
  {
   "name":"_ZN7android8hardware9bluetooth4a2dp4V1_022BpHwBluetoothAudioHost11linkToDeathERKNS_2spINS0_20hidl_death_recipientEEEy"
  },
  {
   "name":"_ZN7android8hardware9bluetooth4a2dp4V1_022BpHwBluetoothAudioHost11startStreamEv"
  },
  {
   "name":"_ZN7android8hardware9bluetooth4a2dp4V1_022BpHwBluetoothAudioHost12getDebugInfoENSt3__18functionIFvRKNS_4hidl4base4V1_09DebugInfoEEEE"
  },
  {
   "name":"_ZN7android8hardware9bluetooth4a2dp4V1_022BpHwBluetoothAudioHost12getHashChainENSt3__18functionIFvRKNS0_8hidl_vecINS0_10hidl_arrayIhLj32EJEEEEEEEE"
  },
  {
   "name":"_ZN7android8hardware9bluetooth4a2dp4V1_022BpHwBluetoothAudioHost13suspendStreamEv"
  },
  {
   "name":"_ZN7android8hardware9bluetooth4a2dp4V1_022BpHwBluetoothAudioHost13unlinkToDeathERKNS_2spINS0_20hidl_death_recipientEEE"
  },
  {
   "name":"_ZN7android8hardware9bluetooth4a2dp4V1_022BpHwBluetoothAudioHost14interfaceChainENSt3__18functionIFvRKNS0_8hidl_vecINS0_11hidl_stringEEEEEE"
  },
  {
   "name":"_ZN7android8hardware9bluetooth4a2dp4V1_022BpHwBluetoothAudioHost16_hidl_stopStreamEPNS0_10IInterfaceEPNS0_7details16HidlInstrumentorE"
  },
  {
   "name":"_ZN7android8hardware9bluetooth4a2dp4V1_022BpHwBluetoothAudioHost17_hidl_startStreamEPNS0_10IInterfaceEPNS0_7details16HidlInstrumentorE"
  },
  {
   "name":"_ZN7android8hardware9bluetooth4a2dp4V1_022BpHwBluetoothAudioHost19_hidl_suspendStreamEPNS0_10IInterfaceEPNS0_7details16HidlInstrumentorE"
  },
  {
   "name":"_ZN7android8hardware9bluetooth4a2dp4V1_022BpHwBluetoothAudioHost19interfaceDescriptorENSt3__18functionIFvRKNS0_11hidl_stringEEEE"
  },
  {
   "name":"_ZN7android8hardware9bluetooth4a2dp4V1_022BpHwBluetoothAudioHost21notifySyspropsChangedEv"
  },
  {
   "name":"_ZN7android8hardware9bluetooth4a2dp4V1_022BpHwBluetoothAudioHost21setHALInstrumentationEv"
  },
  {
   "name":"_ZN7android8hardware9bluetooth4a2dp4V1_022BpHwBluetoothAudioHost4pingEv"
  },
  {
   "name":"_ZN7android8hardware9bluetooth4a2dp4V1_022BpHwBluetoothAudioHost5debugERKNS0_11hidl_handleERKNS0_8hidl_vecINS0_11hidl_stringEEE"
  },
  {
   "name":"_ZN7android8hardware9bluetooth4a2dp4V1_022BpHwBluetoothAudioHostC1ERKNS_2spINS0_7IBinderEEE"
  },
  {
   "name":"_ZN7android8hardware9bluetooth4a2dp4V1_022BpHwBluetoothAudioHostC2ERKNS_2spINS0_7IBinderEEE"
  },
  {
   "name":"_ZN7android8hardware9bluetooth4a2dp4V1_022IBluetoothAudioOffload10getServiceERKNSt3__112basic_stringIcNS5_11char_traitsIcEENS5_9allocatorIcEEEEb"
  },
  {
   "name":"_ZN7android8hardware9bluetooth4a2dp4V1_022IBluetoothAudioOffload11linkToDeathERKNS_2spINS0_20hidl_death_recipientEEEy"
  },
  {
   "name":"_ZN7android8hardware9bluetooth4a2dp4V1_022IBluetoothAudioOffload12getDebugInfoENSt3__18functionIFvRKNS_4hidl4base4V1_09DebugInfoEEEE"
  },
  {
   "name":"_ZN7android8hardware9bluetooth4a2dp4V1_022IBluetoothAudioOffload12getHashChainENSt3__18functionIFvRKNS0_8hidl_vecINS0_10hidl_arrayIhLj32EJEEEEEEEE"
  },
  {
   "name":"_ZN7android8hardware9bluetooth4a2dp4V1_022IBluetoothAudioOffload13tryGetServiceERKNSt3__112basic_stringIcNS5_11char_traitsIcEENS5_9allocatorIcEEEEb"
  },
  {
   "name":"_ZN7android8hardware9bluetooth4a2dp4V1_022IBluetoothAudioOffload13unlinkToDeathERKNS_2spINS0_20hidl_death_recipientEEE"
  },
  {
   "name":"_ZN7android8hardware9bluetooth4a2dp4V1_022IBluetoothAudioOffload14interfaceChainENSt3__18functionIFvRKNS0_8hidl_vecINS0_11hidl_stringEEEEEE"
  },
  {
   "name":"_ZN7android8hardware9bluetooth4a2dp4V1_022IBluetoothAudioOffload17registerAsServiceERKNSt3__112basic_stringIcNS5_11char_traitsIcEENS5_9allocatorIcEEEE"
  },
  {
   "name":"_ZN7android8hardware9bluetooth4a2dp4V1_022IBluetoothAudioOffload19interfaceDescriptorENSt3__18functionIFvRKNS0_11hidl_stringEEEE"
  },
  {
   "name":"_ZN7android8hardware9bluetooth4a2dp4V1_022IBluetoothAudioOffload21notifySyspropsChangedEv"
  },
  {
   "name":"_ZN7android8hardware9bluetooth4a2dp4V1_022IBluetoothAudioOffload21setHALInstrumentationEv"
  },
  {
   "name":"_ZN7android8hardware9bluetooth4a2dp4V1_022IBluetoothAudioOffload24registerForNotificationsERKNSt3__112basic_stringIcNS5_11char_traitsIcEENS5_9allocatorIcEEEERKNS_2spINS_4hidl7manager4V1_020IServiceNotificationEEE"
  },
  {
   "name":"_ZN7android8hardware9bluetooth4a2dp4V1_022IBluetoothAudioOffload4pingEv"
  },
  {
   "name":"_ZN7android8hardware9bluetooth4a2dp4V1_022IBluetoothAudioOffload5debugERKNS0_11hidl_handleERKNS0_8hidl_vecINS0_11hidl_stringEEE"
  },
  {
   "name":"_ZN7android8hardware9bluetooth4a2dp4V1_022IBluetoothAudioOffload8castFromERKNS_2spINS_4hidl4base4V1_05IBaseEEEb"
  },
  {
   "name":"_ZN7android8hardware9bluetooth4a2dp4V1_022IBluetoothAudioOffload8castFromERKNS_2spIS4_EEb"
  },
  {
   "name":"_ZN7android8hardware9bluetooth4a2dp4V1_023BsBluetoothAudioOffload13addOnewayTaskENSt3__18functionIFvvEEE"
  },
  {
   "name":"_ZN7android8hardware9bluetooth4a2dp4V1_023BsBluetoothAudioOffloadC1ENS_2spINS3_22IBluetoothAudioOffloadEEE"
  },
  {
   "name":"_ZN7android8hardware9bluetooth4a2dp4V1_023BsBluetoothAudioOffloadC2ENS_2spINS3_22IBluetoothAudioOffloadEEE"
  },
  {
   "name":"_ZN7android8hardware9bluetooth4a2dp4V1_025BnHwBluetoothAudioOffload10onTransactEjRKNS0_6ParcelEPS5_jNSt3__18functionIFvRS5_EEE"
  },
  {
   "name":"_ZN7android8hardware9bluetooth4a2dp4V1_025BnHwBluetoothAudioOffload12getDebugInfoENSt3__18functionIFvRKNS_4hidl4base4V1_09DebugInfoEEEE"
  },
  {
   "name":"_ZN7android8hardware9bluetooth4a2dp4V1_025BnHwBluetoothAudioOffload16_hidl_endSessionEPNS_4hidl4base4V1_08BnHwBaseERKNS0_6ParcelEPSA_NSt3__18functionIFvRSA_EEE"
  },
  {
   "name":"_ZN7android8hardware9bluetooth4a2dp4V1_025BnHwBluetoothAudioOffload18_hidl_startSessionEPNS_4hidl4base4V1_08BnHwBaseERKNS0_6ParcelEPSA_NSt3__18functionIFvRSA_EEE"
  },
  {
   "name":"_ZN7android8hardware9bluetooth4a2dp4V1_025BnHwBluetoothAudioOffload19_hidl_streamStartedEPNS_4hidl4base4V1_08BnHwBaseERKNS0_6ParcelEPSA_NSt3__18functionIFvRSA_EEE"
  },
  {
   "name":"_ZN7android8hardware9bluetooth4a2dp4V1_025BnHwBluetoothAudioOffload21_hidl_streamSuspendedEPNS_4hidl4base4V1_08BnHwBaseERKNS0_6ParcelEPSA_NSt3__18functionIFvRSA_EEE"
  },
  {
   "name":"_ZN7android8hardware9bluetooth4a2dp4V1_025BnHwBluetoothAudioOffload4pingEv"
  },
  {
   "name":"_ZN7android8hardware9bluetooth4a2dp4V1_025BnHwBluetoothAudioOffloadC1ERKNS_2spINS3_22IBluetoothAudioOffloadEEE"
  },
  {
   "name":"_ZN7android8hardware9bluetooth4a2dp4V1_025BnHwBluetoothAudioOffloadC2ERKNS_2spINS3_22IBluetoothAudioOffloadEEE"
  },
  {
   "name":"_ZN7android8hardware9bluetooth4a2dp4V1_025BnHwBluetoothAudioOffloadD0Ev"
  },
  {
   "name":"_ZN7android8hardware9bluetooth4a2dp4V1_025BnHwBluetoothAudioOffloadD1Ev"
  },
  {
   "name":"_ZN7android8hardware9bluetooth4a2dp4V1_025BnHwBluetoothAudioOffloadD2Ev"
  },
  {
   "name":"_ZN7android8hardware9bluetooth4a2dp4V1_025BpHwBluetoothAudioOffload10endSessionEv"
  },
  {
   "name":"_ZN7android8hardware9bluetooth4a2dp4V1_025BpHwBluetoothAudioOffload11linkToDeathERKNS_2spINS0_20hidl_death_recipientEEEy"
  },
  {
   "name":"_ZN7android8hardware9bluetooth4a2dp4V1_025BpHwBluetoothAudioOffload12getDebugInfoENSt3__18functionIFvRKNS_4hidl4base4V1_09DebugInfoEEEE"
  },
  {
   "name":"_ZN7android8hardware9bluetooth4a2dp4V1_025BpHwBluetoothAudioOffload12getHashChainENSt3__18functionIFvRKNS0_8hidl_vecINS0_10hidl_arrayIhLj32EJEEEEEEEE"
  },
  {
   "name":"_ZN7android8hardware9bluetooth4a2dp4V1_025BpHwBluetoothAudioOffload12startSessionERKNS_2spINS3_19IBluetoothAudioHostEEERKNS3_18CodecConfigurationE"
  },
  {
   "name":"_ZN7android8hardware9bluetooth4a2dp4V1_025BpHwBluetoothAudioOffload13streamStartedENS3_6StatusE"
  },
  {
   "name":"_ZN7android8hardware9bluetooth4a2dp4V1_025BpHwBluetoothAudioOffload13unlinkToDeathERKNS_2spINS0_20hidl_death_recipientEEE"
  },
  {
   "name":"_ZN7android8hardware9bluetooth4a2dp4V1_025BpHwBluetoothAudioOffload14interfaceChainENSt3__18functionIFvRKNS0_8hidl_vecINS0_11hidl_stringEEEEEE"
  },
  {
   "name":"_ZN7android8hardware9bluetooth4a2dp4V1_025BpHwBluetoothAudioOffload15streamSuspendedENS3_6StatusE"
  },
  {
   "name":"_ZN7android8hardware9bluetooth4a2dp4V1_025BpHwBluetoothAudioOffload16_hidl_endSessionEPNS0_10IInterfaceEPNS0_7details16HidlInstrumentorE"
  },
  {
   "name":"_ZN7android8hardware9bluetooth4a2dp4V1_025BpHwBluetoothAudioOffload18_hidl_startSessionEPNS0_10IInterfaceEPNS0_7details16HidlInstrumentorERKNS_2spINS3_19IBluetoothAudioHostEEERKNS3_18CodecConfigurationE"
  },
  {
   "name":"_ZN7android8hardware9bluetooth4a2dp4V1_025BpHwBluetoothAudioOffload19_hidl_streamStartedEPNS0_10IInterfaceEPNS0_7details16HidlInstrumentorENS3_6StatusE"
  },
  {
   "name":"_ZN7android8hardware9bluetooth4a2dp4V1_025BpHwBluetoothAudioOffload19interfaceDescriptorENSt3__18functionIFvRKNS0_11hidl_stringEEEE"
  },
  {
   "name":"_ZN7android8hardware9bluetooth4a2dp4V1_025BpHwBluetoothAudioOffload21_hidl_streamSuspendedEPNS0_10IInterfaceEPNS0_7details16HidlInstrumentorENS3_6StatusE"
  },
  {
   "name":"_ZN7android8hardware9bluetooth4a2dp4V1_025BpHwBluetoothAudioOffload21notifySyspropsChangedEv"
  },
  {
   "name":"_ZN7android8hardware9bluetooth4a2dp4V1_025BpHwBluetoothAudioOffload21setHALInstrumentationEv"
  },
  {
   "name":"_ZN7android8hardware9bluetooth4a2dp4V1_025BpHwBluetoothAudioOffload4pingEv"
  },
  {
   "name":"_ZN7android8hardware9bluetooth4a2dp4V1_025BpHwBluetoothAudioOffload5debugERKNS0_11hidl_handleERKNS0_8hidl_vecINS0_11hidl_stringEEE"
  },
  {
   "name":"_ZN7android8hardware9bluetooth4a2dp4V1_025BpHwBluetoothAudioOffloadC1ERKNS_2spINS0_7IBinderEEE"
  },
  {
   "name":"_ZN7android8hardware9bluetooth4a2dp4V1_025BpHwBluetoothAudioOffloadC2ERKNS_2spINS0_7IBinderEEE"
  },
  {
   "name":"_ZThn20_N7android8hardware9bluetooth4a2dp4V1_022BnHwBluetoothAudioHostD0Ev"
  },
  {
   "name":"_ZThn20_N7android8hardware9bluetooth4a2dp4V1_022BnHwBluetoothAudioHostD1Ev"
  },
  {
   "name":"_ZThn20_N7android8hardware9bluetooth4a2dp4V1_025BnHwBluetoothAudioOffloadD0Ev"
  },
  {
   "name":"_ZThn20_N7android8hardware9bluetooth4a2dp4V1_025BnHwBluetoothAudioOffloadD1Ev"
  },
  {
   "name":"_ZTv0_n12_N7android8hardware9bluetooth4a2dp4V1_022BnHwBluetoothAudioHostD0Ev"
  },
  {
   "name":"_ZTv0_n12_N7android8hardware9bluetooth4a2dp4V1_022BnHwBluetoothAudioHostD1Ev"
  },
  {
   "name":"_ZTv0_n12_N7android8hardware9bluetooth4a2dp4V1_025BnHwBluetoothAudioOffloadD0Ev"
  },
  {
   "name":"_ZTv0_n12_N7android8hardware9bluetooth4a2dp4V1_025BnHwBluetoothAudioOffloadD1Ev"
  }
 ],
 "elf_objects":[
  {
   "name":"_ZN7android8hardware9bluetooth4a2dp4V1_019IBluetoothAudioHost10descriptorE"
  },
  {
   "name":"_ZN7android8hardware9bluetooth4a2dp4V1_022IBluetoothAudioOffload10descriptorE"
  },
  {
   "name":"_ZTTN7android8hardware9bluetooth4a2dp4V1_019IBluetoothAudioHostE"
  },
  {
   "name":"_ZTTN7android8hardware9bluetooth4a2dp4V1_022BnHwBluetoothAudioHostE"
  },
  {
   "name":"_ZTTN7android8hardware9bluetooth4a2dp4V1_022BpHwBluetoothAudioHostE"
  },
  {
   "name":"_ZTTN7android8hardware9bluetooth4a2dp4V1_022IBluetoothAudioOffloadE"
  },
  {
   "name":"_ZTTN7android8hardware9bluetooth4a2dp4V1_025BnHwBluetoothAudioOffloadE"
  },
  {
   "name":"_ZTTN7android8hardware9bluetooth4a2dp4V1_025BpHwBluetoothAudioOffloadE"
  },
  {
   "name":"_ZTVN7android8hardware9bluetooth4a2dp4V1_019IBluetoothAudioHostE"
  },
  {
   "binding":"weak",
   "name":"_ZTVN7android8hardware9bluetooth4a2dp4V1_020BsBluetoothAudioHostE"
  },
  {
   "name":"_ZTVN7android8hardware9bluetooth4a2dp4V1_022BnHwBluetoothAudioHostE"
  },
  {
   "name":"_ZTVN7android8hardware9bluetooth4a2dp4V1_022BpHwBluetoothAudioHostE"
  },
  {
   "name":"_ZTVN7android8hardware9bluetooth4a2dp4V1_022IBluetoothAudioOffloadE"
  },
  {
   "binding":"weak",
   "name":"_ZTVN7android8hardware9bluetooth4a2dp4V1_023BsBluetoothAudioOffloadE"
  },
  {
   "name":"_ZTVN7android8hardware9bluetooth4a2dp4V1_025BnHwBluetoothAudioOffloadE"
  },
  {
   "name":"_ZTVN7android8hardware9bluetooth4a2dp4V1_025BpHwBluetoothAudioOffloadE"
  }
 ]
}