{
 "record_types":[
  {
   "vtable_components":[
    {
     "kind":"vbase_offset",
     "component_value":60
    },
    {
     "kind":"offset_to_top"
    },
    {
     "kind":"rtti",
     "mangled_component_name":"_ZTIN7android8hardware5radio6config4V1_021BsRadioConfigResponseE"
    },
    {
     "mangled_component_name":"_ZNK7android8hardware5radio6config4V1_020IRadioConfigResponse8isRemoteEv"
    },
    {
     "mangled_component_name":"_ZN7android8hardware5radio6config4V1_021BsRadioConfigResponse14interfaceChainENSt3__18functionIFvRKNS0_8hidl_vecINS0_11hidl_stringEEEEEE"
    },
    {
     "mangled_component_name":"_ZN7android8hardware5radio6config4V1_021BsRadioConfigResponse5debugERKNS0_11hidl_handleERKNS0_8hidl_vecINS0_11hidl_stringEEE"
    },
    {
     "mangled_component_name":"_ZN7android8hardware5radio6config4V1_021BsRadioConfigResponse19interfaceDescriptorENSt3__18functionIFvRKNS0_11hidl_stringEEEE"
    },
    {
     "mangled_component_name":"_ZN7android8hardware5radio6config4V1_021BsRadioConfigResponse12getHashChainENSt3__18functionIFvRKNS0_8hidl_vecINS0_10hidl_arrayIhLj32EJEEEEEEEE"
    },
    {
     "mangled_component_name":"_ZN7android8hardware5radio6config4V1_021BsRadioConfigResponse21setHALInstrumentationEv"
    },
    {
     "mangled_component_name":"_ZN7android8hardware5radio6config4V1_021BsRadioConfigResponse11linkToDeathERKNS_2spINS0_20hidl_death_recipientEEEy"
    },
    {
     "mangled_component_name":"_ZN7android8hardware5radio6config4V1_021BsRadioConfigResponse4pingEv"
    },
    {
     "mangled_component_name":"_ZN7android8hardware5radio6config4V1_021BsRadioConfigResponse12getDebugInfoENSt3__18functionIFvRKNS_4hidl4base4V1_09DebugInfoEEEE"
    },
    {
     "mangled_component_name":"_ZN7android8hardware5radio6config4V1_021BsRadioConfigResponse21notifySyspropsChangedEv"
    },
    {
     "mangled_component_name":"_ZN7android8hardware5radio6config4V1_021BsRadioConfigResponse13unlinkToDeathERKNS_2spINS0_20hidl_death_recipientEEE"
    },
    {
     "kind":"complete_dtor_pointer",
     "mangled_component_name":"_ZN7android8hardware5radio6config4V1_021BsRadioConfigResponseD1Ev"
    },
    {
     "kind":"deleting_dtor_pointer",
     "mangled_component_name":"_ZN7android8hardware5radio6config4V1_021BsRadioConfigResponseD0Ev"
    },
    {
     "mangled_component_name":"_ZN7android8hardware5radio6config4V1_021BsRadioConfigResponse25getSimSlotsStatusResponseERKNS1_4V1_017RadioResponseInfoERKNS0_8hidl_vecINS3_13SimSlotStatusEEE"
    },
    {
     "mangled_component_name":"_ZN7android8hardware5radio6config4V1_021BsRadioConfigResponse26setSimSlotsMappingResponseERKNS1_4V1_017RadioResponseInfoE"
    },
    {
     "kind":"offset_to_top",
     "component_value":-4
    },
    {
     "kind":"rtti",
     "mangled_component_name":"_ZTIN7android8hardware5radio6config4V1_021BsRadioConfigResponseE"
    },
    {
     "kind":"complete_dtor_pointer",
     "mangled_component_name":"_ZThn4_N7android8hardware5radio6config4V1_021BsRadioConfigResponseD1Ev"
    },
    {
     "kind":"deleting_dtor_pointer",
     "mangled_component_name":"_ZThn4_N7android8hardware5radio6config4V1_021BsRadioConfigResponseD0Ev"
    },
    {
     "kind":"vcall_offset"
    },
    {
     "kind":"vcall_offset"
    },
    {
     "kind":"vcall_offset"
    },
    {
     "kind":"vcall_offset"
    },
    {
     "kind":"vcall_offset",
     "component_value":-60
    },
    {
     "kind":"offset_to_top",
     "component_value":-60
    },
    {
     "kind":"rtti",
     "mangled_component_name":"_ZTIN7android8hardware5radio6config4V1_021BsRadioConfigResponseE"
    },
    {
     "kind":"complete_dtor_pointer",
     "mangled_component_name":"_ZTv0_n12_N7android8hardware5radio6config4V1_021BsRadioConfigResponseD1Ev"
    },
    {
     "kind":"deleting_dtor_pointer",
     "mangled_component_name":"_ZTv0_n12_N7android8hardware5radio6config4V1_021BsRadioConfigResponseD0Ev"
    },
    {
     "mangled_component_name":"_ZN7android7RefBase10onFirstRefEv"
    },
    {
     "mangled_component_name":"_ZN7android7RefBase15onLastStrongRefEPKv"
    },
    {
     "mangled_component_name":"_ZN7android7RefBase20onIncStrongAttemptedEjPKv"
    },
    {
     "mangled_component_name":"_ZN7android7RefBase13onLastWeakRefEPKv"
    }
   ],
   "unique_id":"_ZTSN7android8hardware5radio6config4V1_021BsRadioConfigResponseE"
  },
  {
   "vtable_components":[
    {
     "kind":"vbase_offset",
     "component_value":72
    },
    {
     "kind":"offset_to_top"
    },
    {
     "kind":"rtti",
     "mangled_component_name":"_ZTIN7android8hardware5radio6config4V1_025BnHwRadioConfigIndicationE"
    },
    {
     "mangled_component_name":"_ZN7android8hardware9BHwBinder8transactEjRKNS0_6ParcelEPS2_jNSt3__18functionIFvRS2_EEE"
    },
    {
     "mangled_component_name":"_ZN7android8hardware9BHwBinder11linkToDeathERKNS_2spINS0_7IBinder14DeathRecipientEEEPvj"
    },
    {
     "mangled_component_name":"_ZN7android8hardware9BHwBinder13unlinkToDeathERKNS_2wpINS0_7IBinder14DeathRecipientEEEPvjPS5_"
    },
    {
     "mangled_component_name":"_ZNK7android8hardware7IBinder13checkSubclassEPKv"
    },
    {
     "mangled_component_name":"_ZN7android8hardware9BHwBinder12attachObjectEPKvPvS4_PFvS3_S4_S4_E"
    },
    {
     "mangled_component_name":"_ZNK7android8hardware9BHwBinder10findObjectEPKv"
    },
    {
     "mangled_component_name":"_ZN7android8hardware9BHwBinder12detachObjectEPKv"
    },
    {
     "mangled_component_name":"_ZN7android8hardware9BHwBinder11localBinderEv"
    },
    {
     "mangled_component_name":"_ZN7android8hardware7IBinder12remoteBinderEv"
    },
    {
     "kind":"complete_dtor_pointer",
     "mangled_component_name":"_ZN7android8hardware5radio6config4V1_025BnHwRadioConfigIndicationD1Ev"
    },
    {
     "kind":"deleting_dtor_pointer",
     "mangled_component_name":"_ZN7android8hardware5radio6config4V1_025BnHwRadioConfigIndicationD0Ev"
    },
    {
     "mangled_component_name":"_ZN7android8hardware5radio6config4V1_025BnHwRadioConfigIndication10onTransactEjRKNS0_6ParcelEPS5_jNSt3__18functionIFvRS5_EEE"
    },
    {
     "kind":"offset_to_top",
     "component_value":-20
    },
    {
     "kind":"rtti",
     "mangled_component_name":"_ZTIN7android8hardware5radio6config4V1_025BnHwRadioConfigIndicationE"
    },
    {
     "kind":"complete_dtor_pointer",
     "mangled_component_name":"_ZThn20_N7android8hardware5radio6config4V1_025BnHwRadioConfigIndicationD1Ev"
    },
    {
     "kind":"deleting_dtor_pointer",
     "mangled_component_name":"_ZThn20_N7android8hardware5radio6config4V1_025BnHwRadioConfigIndicationD0Ev"
    },
    {
     "kind":"vcall_offset"
    },
    {
     "kind":"vcall_offset"
    },
    {
     "kind":"vcall_offset"
    },
    {
     "kind":"vcall_offset"
    },
    {
     "kind":"vcall_offset",
     "component_value":-72
    },
    {
     "kind":"offset_to_top",
     "component_value":-72
    },
    {
     "kind":"rtti",
     "mangled_component_name":"_ZTIN7android8hardware5radio6config4V1_025BnHwRadioConfigIndicationE"
    },
    {
     "kind":"complete_dtor_pointer",
     "mangled_component_name":"_ZTv0_n12_N7android8hardware5radio6config4V1_025BnHwRadioConfigIndicationD1Ev"
    },
    {
     "kind":"deleting_dtor_pointer",
     "mangled_component_name":"_ZTv0_n12_N7android8hardware5radio6config4V1_025BnHwRadioConfigIndicationD0Ev"
    },
    {
     "mangled_component_name":"_ZN7android7RefBase10onFirstRefEv"
    },
    {
     "mangled_component_name":"_ZN7android7RefBase15onLastStrongRefEPKv"
    },
    {
     "mangled_component_name":"_ZN7android7RefBase20onIncStrongAttemptedEjPKv"
    },
    {
     "mangled_component_name":"_ZN7android7RefBase13onLastWeakRefEPKv"
    }
   ],
   "unique_id":"_ZTSN7android8hardware5radio6config4V1_025BnHwRadioConfigIndicationE"
  },
  {
   "vtable_components":[
    {
     "kind":"vbase_offset",
     "component_value":72
    },
    {
     "kind":"offset_to_top"
    },
    {
     "kind":"rtti",
     "mangled_component_name":"_ZTIN7android8hardware5radio6config4V1_023BnHwRadioConfigResponseE"
    },
    {
     "mangled_component_name":"_ZN7android8hardware9BHwBinder8transactEjRKNS0_6ParcelEPS2_jNSt3__18functionIFvRS2_EEE"
    },
    {
     "mangled_component_name":"_ZN7android8hardware9BHwBinder11linkToDeathERKNS_2spINS0_7IBinder14DeathRecipientEEEPvj"
    },
    {
     "mangled_component_name":"_ZN7android8hardware9BHwBinder13unlinkToDeathERKNS_2wpINS0_7IBinder14DeathRecipientEEEPvjPS5_"
    },
    {
     "mangled_component_name":"_ZNK7android8hardware7IBinder13checkSubclassEPKv"
    },
    {
     "mangled_component_name":"_ZN7android8hardware9BHwBinder12attachObjectEPKvPvS4_PFvS3_S4_S4_E"
    },
    {
     "mangled_component_name":"_ZNK7android8hardware9BHwBinder10findObjectEPKv"
    },
    {
     "mangled_component_name":"_ZN7android8hardware9BHwBinder12detachObjectEPKv"
    },
    {
     "mangled_component_name":"_ZN7android8hardware9BHwBinder11localBinderEv"
    },
    {
     "mangled_component_name":"_ZN7android8hardware7IBinder12remoteBinderEv"
    },
    {
     "kind":"complete_dtor_pointer",
     "mangled_component_name":"_ZN7android8hardware5radio6config4V1_023BnHwRadioConfigResponseD1Ev"
    },
    {
     "kind":"deleting_dtor_pointer",
     "mangled_component_name":"_ZN7android8hardware5radio6config4V1_023BnHwRadioConfigResponseD0Ev"
    },
    {
     "mangled_component_name":"_ZN7android8hardware5radio6config4V1_023BnHwRadioConfigResponse10onTransactEjRKNS0_6ParcelEPS5_jNSt3__18functionIFvRS5_EEE"
    },
    {
     "kind":"offset_to_top",
     "component_value":-20
    },
    {
     "kind":"rtti",
     "mangled_component_name":"_ZTIN7android8hardware5radio6config4V1_023BnHwRadioConfigResponseE"
    },
    {
     "kind":"complete_dtor_pointer",
     "mangled_component_name":"_ZThn20_N7android8hardware5radio6config4V1_023BnHwRadioConfigResponseD1Ev"
    },
    {
     "kind":"deleting_dtor_pointer",
     "mangled_component_name":"_ZThn20_N7android8hardware5radio6config4V1_023BnHwRadioConfigResponseD0Ev"
    },
    {
     "kind":"vcall_offset"
    },
    {
     "kind":"vcall_offset"
    },
    {
     "kind":"vcall_offset"
    },
    {
     "kind":"vcall_offset"
    },
    {
     "kind":"vcall_offset",
     "component_value":-72
    },
    {
     "kind":"offset_to_top",
     "component_value":-72
    },
    {
     "kind":"rtti",
     "mangled_component_name":"_ZTIN7android8hardware5radio6config4V1_023BnHwRadioConfigResponseE"
    },
    {
     "kind":"complete_dtor_pointer",
     "mangled_component_name":"_ZTv0_n12_N7android8hardware5radio6config4V1_023BnHwRadioConfigResponseD1Ev"
    },
    {
     "kind":"deleting_dtor_pointer",
     "mangled_component_name":"_ZTv0_n12_N7android8hardware5radio6config4V1_023BnHwRadioConfigResponseD0Ev"
    },
    {
     "mangled_component_name":"_ZN7android7RefBase10onFirstRefEv"
    },
    {
     "mangled_component_name":"_ZN7android7RefBase15onLastStrongRefEPKv"
    },
    {
     "mangled_component_name":"_ZN7android7RefBase20onIncStrongAttemptedEjPKv"
    },
    {
     "mangled_component_name":"_ZN7android7RefBase13onLastWeakRefEPKv"
    }
   ],
   "unique_id":"_ZTSN7android8hardware5radio6config4V1_023BnHwRadioConfigResponseE"
  },
  {
   "vtable_components":[
    {
     "kind":"vbase_offset",
     "component_value":84
    },
    {
     "kind":"offset_to_top"
    },
    {
     "kind":"rtti",
     "mangled_component_name":"_ZTIN7android8hardware5radio6config4V1_025BpHwRadioConfigIndicationE"
    },
    {
     "mangled_component_name":"_ZNK7android8hardware5radio6config4V1_025BpHwRadioConfigIndication8isRemoteEv"
    },
    {
     "mangled_component_name":"_ZN7android8hardware5radio6config4V1_025BpHwRadioConfigIndication14interfaceChainENSt3__18functionIFvRKNS0_8hidl_vecINS0_11hidl_stringEEEEEE"
    },
    {
     "mangled_component_name":"_ZN7android8hardware5radio6config4V1_025BpHwRadioConfigIndication5debugERKNS0_11hidl_handleERKNS0_8hidl_vecINS0_11hidl_stringEEE"
    },
    {
     "mangled_component_name":"_ZN7android8hardware5radio6config4V1_025BpHwRadioConfigIndication19interfaceDescriptorENSt3__18functionIFvRKNS0_11hidl_stringEEEE"
    },
    {
     "mangled_component_name":"_ZN7android8hardware5radio6config4V1_025BpHwRadioConfigIndication12getHashChainENSt3__18functionIFvRKNS0_8hidl_vecINS0_10hidl_arrayIhLj32EJEEEEEEEE"
    },
    {
     "mangled_component_name":"_ZN7android8hardware5radio6config4V1_025BpHwRadioConfigIndication21setHALInstrumentationEv"
    },
    {
     "mangled_component_name":"_ZN7android8hardware5radio6config4V1_025BpHwRadioConfigIndication11linkToDeathERKNS_2spINS0_20hidl_death_recipientEEEy"
    },
    {
     "mangled_component_name":"_ZN7android8hardware5radio6config4V1_025BpHwRadioConfigIndication4pingEv"
    },
    {
     "mangled_component_name":"_ZN7android8hardware5radio6config4V1_025BpHwRadioConfigIndication12getDebugInfoENSt3__18functionIFvRKNS_4hidl4base4V1_09DebugInfoEEEE"
    },
    {
     "mangled_component_name":"_ZN7android8hardware5radio6config4V1_025BpHwRadioConfigIndication21notifySyspropsChangedEv"
    },
    {
     "mangled_component_name":"_ZN7android8hardware5radio6config4V1_025BpHwRadioConfigIndication13unlinkToDeathERKNS_2spINS0_20hidl_death_recipientEEE"
    },
    {
     "kind":"complete_dtor_pointer",
     "mangled_component_name":"_ZN7android8hardware5radio6config4V1_025BpHwRadioConfigIndicationD1Ev"
    },
    {
     "kind":"deleting_dtor_pointer",
     "mangled_component_name":"_ZN7android8hardware5radio6config4V1_025BpHwRadioConfigIndicationD0Ev"
    },
    {
     "mangled_component_name":"_ZN7android8hardware5radio6config4V1_025BpHwRadioConfigIndication21simSlotsStatusChangedENS1_4V1_019RadioIndicationTypeERKNS0_8hidl_vecINS3_13SimSlotStatusEEE"
    },
    {
     "mangled_component_name":"_ZN7android8hardware11BpInterfaceINS0_5radio6config4V1_022IRadioConfigIndicationEE10onAsBinderEv"
    },
    {
     "kind":"vbase_offset",
     "component_value":80
    },
    {
     "kind":"offset_to_top",
     "component_value":-4
    },
    {
     "kind":"rtti",
     "mangled_component_name":"_ZTIN7android8hardware5radio6config4V1_025BpHwRadioConfigIndicationE"
    },
    {
     "kind":"complete_dtor_pointer",
     "mangled_component_name":"_ZThn4_N7android8hardware5radio6config4V1_025BpHwRadioConfigIndicationD1Ev"
    },
    {
     "kind":"deleting_dtor_pointer",
     "mangled_component_name":"_ZThn4_N7android8hardware5radio6config4V1_025BpHwRadioConfigIndicationD0Ev"
    },
    {
     "mangled_component_name":"_ZThn4_N7android8hardware11BpInterfaceINS0_5radio6config4V1_022IRadioConfigIndicationEE10onAsBinderEv"
    },
    {
     "kind":"vbase_offset",
     "component_value":76
    },
    {
     "kind":"offset_to_top",
     "component_value":-8
    },
    {
     "kind":"rtti",
     "mangled_component_name":"_ZTIN7android8hardware5radio6config4V1_025BpHwRadioConfigIndicationE"
    },
    {
     "kind":"complete_dtor_pointer",
     "mangled_component_name":"_ZThn8_N7android8hardware5radio6config4V1_025BpHwRadioConfigIndicationD1Ev"
    },
    {
     "kind":"deleting_dtor_pointer",
     "mangled_component_name":"_ZThn8_N7android8hardware5radio6config4V1_025BpHwRadioConfigIndicationD0Ev"
    },
    {
     "mangled_component_name":"_ZN7android8hardware11BpHwRefBase10onFirstRefEv"
    },
    {
     "mangled_component_name":"_ZN7android8hardware11BpHwRefBase15onLastStrongRefEPKv"
    },
    {
     "mangled_component_name":"_ZN7android8hardware11BpHwRefBase20onIncStrongAttemptedEjPKv"
    },
    {
     "kind":"offset_to_top",
     "component_value":-24
    },
    {
     "kind":"rtti",
     "mangled_component_name":"_ZTIN7android8hardware5radio6config4V1_025BpHwRadioConfigIndicationE"
    },
    {
     "kind":"complete_dtor_pointer",
     "mangled_component_name":"_ZThn24_N7android8hardware5radio6config4V1_025BpHwRadioConfigIndicationD1Ev"
    },
    {
     "kind":"deleting_dtor_pointer",
     "mangled_component_name":"_ZThn24_N7android8hardware5radio6config4V1_025BpHwRadioConfigIndicationD0Ev"
    },
    {
     "kind":"vcall_offset"
    },
    {
     "kind":"vcall_offset",
     "component_value":-76
    },
    {
     "kind":"vcall_offset",
     "component_value":-76
    },
    {
     "kind":"vcall_offset",
     "component_value":-76
    },
    {
     "kind":"vcall_offset",
     "component_value":-84
    },
    {
     "kind":"offset_to_top",
     "component_value":-84
    },
    {
     "kind":"rtti",
     "mangled_component_name":"_ZTIN7android8hardware5radio6config4V1_025BpHwRadioConfigIndicationE"
    },
    {
     "kind":"complete_dtor_pointer",
     "mangled_component_name":"_ZTv0_n12_N7android8hardware5radio6config4V1_025BpHwRadioConfigIndicationD1Ev"
    },
    {
     "kind":"deleting_dtor_pointer",
     "mangled_component_name":"_ZTv0_n12_N7android8hardware5radio6config4V1_025BpHwRadioConfigIndicationD0Ev"
    },
    {
     "mangled_component_name":"_ZTv0_n16_N7android8hardware11BpHwRefBase10onFirstRefEv"
    },
    {
     "mangled_component_name":"_ZTv0_n20_N7android8hardware11BpHwRefBase15onLastStrongRefEPKv"
    },
    {
     "mangled_component_name":"_ZTv0_n24_N7android8hardware11BpHwRefBase20onIncStrongAttemptedEjPKv"
    },
    {
     "mangled_component_name":"_ZN7android7RefBase13onLastWeakRefEPKv"
    }
   ],
   "unique_id":"_ZTSN7android8hardware5radio6config4V1_025BpHwRadioConfigIndicationE"
  },
  {
   "vtable_components":[
    {
     "kind":"vbase_offset",
     "component_value":84
    },
    {
     "kind":"offset_to_top"
    },
    {
     "kind":"rtti",
     "mangled_component_name":"_ZTIN7android8hardware5radio6config4V1_023BpHwRadioConfigResponseE"
    },
    {
     "mangled_component_name":"_ZNK7android8hardware5radio6config4V1_023BpHwRadioConfigResponse8isRemoteEv"
    },
    {
     "mangled_component_name":"_ZN7android8hardware5radio6config4V1_023BpHwRadioConfigResponse14interfaceChainENSt3__18functionIFvRKNS0_8hidl_vecINS0_11hidl_stringEEEEEE"
    },
    {
     "mangled_component_name":"_ZN7android8hardware5radio6config4V1_023BpHwRadioConfigResponse5debugERKNS0_11hidl_handleERKNS0_8hidl_vecINS0_11hidl_stringEEE"
    },
    {
     "mangled_component_name":"_ZN7android8hardware5radio6config4V1_023BpHwRadioConfigResponse19interfaceDescriptorENSt3__18functionIFvRKNS0_11hidl_stringEEEE"
    },
    {
     "mangled_component_name":"_ZN7android8hardware5radio6config4V1_023BpHwRadioConfigResponse12getHashChainENSt3__18functionIFvRKNS0_8hidl_vecINS0_10hidl_arrayIhLj32EJEEEEEEEE"
    },
    {
     "mangled_component_name":"_ZN7android8hardware5radio6config4V1_023BpHwRadioConfigResponse21setHALInstrumentationEv"
    },
    {
     "mangled_component_name":"_ZN7android8hardware5radio6config4V1_023BpHwRadioConfigResponse11linkToDeathERKNS_2spINS0_20hidl_death_recipientEEEy"
    },
    {
     "mangled_component_name":"_ZN7android8hardware5radio6config4V1_023BpHwRadioConfigResponse4pingEv"
    },
    {
     "mangled_component_name":"_ZN7android8hardware5radio6config4V1_023BpHwRadioConfigResponse12getDebugInfoENSt3__18functionIFvRKNS_4hidl4base4V1_09DebugInfoEEEE"
    },
    {
     "mangled_component_name":"_ZN7android8hardware5radio6config4V1_023BpHwRadioConfigResponse21notifySyspropsChangedEv"
    },
    {
     "mangled_component_name":"_ZN7android8hardware5radio6config4V1_023BpHwRadioConfigResponse13unlinkToDeathERKNS_2spINS0_20hidl_death_recipientEEE"
    },
    {
     "kind":"complete_dtor_pointer",
     "mangled_component_name":"_ZN7android8hardware5radio6config4V1_023BpHwRadioConfigResponseD1Ev"
    },
    {
     "kind":"deleting_dtor_pointer",
     "mangled_component_name":"_ZN7android8hardware5radio6config4V1_023BpHwRadioConfigResponseD0Ev"
    },
    {
     "mangled_component_name":"_ZN7android8hardware5radio6config4V1_023BpHwRadioConfigResponse25getSimSlotsStatusResponseERKNS1_4V1_017RadioResponseInfoERKNS0_8hidl_vecINS3_13SimSlotStatusEEE"
    },
    {
     "mangled_component_name":"_ZN7android8hardware5radio6config4V1_023BpHwRadioConfigResponse26setSimSlotsMappingResponseERKNS1_4V1_017RadioResponseInfoE"
    },
    {
     "mangled_component_name":"_ZN7android8hardware11BpInterfaceINS0_5radio6config4V1_020IRadioConfigResponseEE10onAsBinderEv"
    },
    {
     "kind":"vbase_offset",
     "component_value":80
    },
    {
     "kind":"offset_to_top",
     "component_value":-4
    },
    {
     "kind":"rtti",
     "mangled_component_name":"_ZTIN7android8hardware5radio6config4V1_023BpHwRadioConfigResponseE"
    },
    {
     "kind":"complete_dtor_pointer",
     "mangled_component_name":"_ZThn4_N7android8hardware5radio6config4V1_023BpHwRadioConfigResponseD1Ev"
    },
    {
     "kind":"deleting_dtor_pointer",
     "mangled_component_name":"_ZThn4_N7android8hardware5radio6config4V1_023BpHwRadioConfigResponseD0Ev"
    },
    {
     "mangled_component_name":"_ZThn4_N7android8hardware11BpInterfaceINS0_5radio6config4V1_020IRadioConfigResponseEE10onAsBinderEv"
    },
    {
     "kind":"vbase_offset",
     "component_value":76
    },
    {
     "kind":"offset_to_top",
     "component_value":-8
    },
    {
     "kind":"rtti",
     "mangled_component_name":"_ZTIN7android8hardware5radio6config4V1_023BpHwRadioConfigResponseE"
    },
    {
     "kind":"complete_dtor_pointer",
     "mangled_component_name":"_ZThn8_N7android8hardware5radio6config4V1_023BpHwRadioConfigResponseD1Ev"
    },
    {
     "kind":"deleting_dtor_pointer",
     "mangled_component_name":"_ZThn8_N7android8hardware5radio6config4V1_023BpHwRadioConfigResponseD0Ev"
    },
    {
     "mangled_component_name":"_ZN7android8hardware11BpHwRefBase10onFirstRefEv"
    },
    {
     "mangled_component_name":"_ZN7android8hardware11BpHwRefBase15onLastStrongRefEPKv"
    },
    {
     "mangled_component_name":"_ZN7android8hardware11BpHwRefBase20onIncStrongAttemptedEjPKv"
    },
    {
     "kind":"offset_to_top",
     "component_value":-24
    },
    {
     "kind":"rtti",
     "mangled_component_name":"_ZTIN7android8hardware5radio6config4V1_023BpHwRadioConfigResponseE"
    },
    {
     "kind":"complete_dtor_pointer",
     "mangled_component_name":"_ZThn24_N7android8hardware5radio6config4V1_023BpHwRadioConfigResponseD1Ev"
    },
    {
     "kind":"deleting_dtor_pointer",
     "mangled_component_name":"_ZThn24_N7android8hardware5radio6config4V1_023BpHwRadioConfigResponseD0Ev"
    },
    {
     "kind":"vcall_offset"
    },
    {
     "kind":"vcall_offset",
     "component_value":-76
    },
    {
     "kind":"vcall_offset",
     "component_value":-76
    },
    {
     "kind":"vcall_offset",
     "component_value":-76
    },
    {
     "kind":"vcall_offset",
     "component_value":-84
    },
    {
     "kind":"offset_to_top",
     "component_value":-84
    },
    {
     "kind":"rtti",
     "mangled_component_name":"_ZTIN7android8hardware5radio6config4V1_023BpHwRadioConfigResponseE"
    },
    {
     "kind":"complete_dtor_pointer",
     "mangled_component_name":"_ZTv0_n12_N7android8hardware5radio6config4V1_023BpHwRadioConfigResponseD1Ev"
    },
    {
     "kind":"deleting_dtor_pointer",
     "mangled_component_name":"_ZTv0_n12_N7android8hardware5radio6config4V1_023BpHwRadioConfigResponseD0Ev"
    },
    {
     "mangled_component_name":"_ZTv0_n16_N7android8hardware11BpHwRefBase10onFirstRefEv"
    },
    {
     "mangled_component_name":"_ZTv0_n20_N7android8hardware11BpHwRefBase15onLastStrongRefEPKv"
    },
    {
     "mangled_component_name":"_ZTv0_n24_N7android8hardware11BpHwRefBase20onIncStrongAttemptedEjPKv"
    },
    {
     "mangled_component_name":"_ZN7android7RefBase13onLastWeakRefEPKv"
    }
   ],
   "unique_id":"_ZTSN7android8hardware5radio6config4V1_023BpHwRadioConfigResponseE"
  },
  {
   "vtable_components":[
    {
     "kind":"vbase_offset",
     "component_value":72
    },
    {
     "kind":"offset_to_top"
    },
    {
     "kind":"rtti",
     "mangled_component_name":"_ZTIN7android8hardware5radio6config4V1_015BnHwRadioConfigE"
    },
    {
     "mangled_component_name":"_ZN7android8hardware9BHwBinder8transactEjRKNS0_6ParcelEPS2_jNSt3__18functionIFvRS2_EEE"
    },
    {
     "mangled_component_name":"_ZN7android8hardware9BHwBinder11linkToDeathERKNS_2spINS0_7IBinder14DeathRecipientEEEPvj"
    },
    {
     "mangled_component_name":"_ZN7android8hardware9BHwBinder13unlinkToDeathERKNS_2wpINS0_7IBinder14DeathRecipientEEEPvjPS5_"
    },
    {
     "mangled_component_name":"_ZNK7android8hardware7IBinder13checkSubclassEPKv"
    },
    {
     "mangled_component_name":"_ZN7android8hardware9BHwBinder12attachObjectEPKvPvS4_PFvS3_S4_S4_E"
    },
    {
     "mangled_component_name":"_ZNK7android8hardware9BHwBinder10findObjectEPKv"
    },
    {
     "mangled_component_name":"_ZN7android8hardware9BHwBinder12detachObjectEPKv"
    },
    {
     "mangled_component_name":"_ZN7android8hardware9BHwBinder11localBinderEv"
    },
    {
     "mangled_component_name":"_ZN7android8hardware7IBinder12remoteBinderEv"
    },
    {
     "kind":"complete_dtor_pointer",
     "mangled_component_name":"_ZN7android8hardware5radio6config4V1_015BnHwRadioConfigD1Ev"
    },
    {
     "kind":"deleting_dtor_pointer",
     "mangled_component_name":"_ZN7android8hardware5radio6config4V1_015BnHwRadioConfigD0Ev"
    },
    {
     "mangled_component_name":"_ZN7android8hardware5radio6config4V1_015BnHwRadioConfig10onTransactEjRKNS0_6ParcelEPS5_jNSt3__18functionIFvRS5_EEE"
    },
    {
     "kind":"offset_to_top",
     "component_value":-20
    },
    {
     "kind":"rtti",
     "mangled_component_name":"_ZTIN7android8hardware5radio6config4V1_015BnHwRadioConfigE"
    },
    {
     "kind":"complete_dtor_pointer",
     "mangled_component_name":"_ZThn20_N7android8hardware5radio6config4V1_015BnHwRadioConfigD1Ev"
    },
    {
     "kind":"deleting_dtor_pointer",
     "mangled_component_name":"_ZThn20_N7android8hardware5radio6config4V1_015BnHwRadioConfigD0Ev"
    },
    {
     "kind":"vcall_offset"
    },
    {
     "kind":"vcall_offset"
    },
    {
     "kind":"vcall_offset"
    },
    {
     "kind":"vcall_offset"
    },
    {
     "kind":"vcall_offset",
     "component_value":-72
    },
    {
     "kind":"offset_to_top",
     "component_value":-72
    },
    {
     "kind":"rtti",
     "mangled_component_name":"_ZTIN7android8hardware5radio6config4V1_015BnHwRadioConfigE"
    },
    {
     "kind":"complete_dtor_pointer",
     "mangled_component_name":"_ZTv0_n12_N7android8hardware5radio6config4V1_015BnHwRadioConfigD1Ev"
    },
    {
     "kind":"deleting_dtor_pointer",
     "mangled_component_name":"_ZTv0_n12_N7android8hardware5radio6config4V1_015BnHwRadioConfigD0Ev"
    },
    {
     "mangled_component_name":"_ZN7android7RefBase10onFirstRefEv"
    },
    {
     "mangled_component_name":"_ZN7android7RefBase15onLastStrongRefEPKv"
    },
    {
     "mangled_component_name":"_ZN7android7RefBase20onIncStrongAttemptedEjPKv"
    },
    {
     "mangled_component_name":"_ZN7android7RefBase13onLastWeakRefEPKv"
    }
   ],
   "unique_id":"_ZTSN7android8hardware5radio6config4V1_015BnHwRadioConfigE"
  },
  {
   "vtable_components":[
    {
     "kind":"vbase_offset",
     "component_value":4
    },
    {
     "kind":"offset_to_top"
    },
    {
     "kind":"rtti",
     "mangled_component_name":"_ZTIN7android8hardware5radio6config4V1_012IRadioConfigE"
    },
    {
     "mangled_component_name":"_ZNK7android8hardware5radio6config4V1_012IRadioConfig8isRemoteEv"
    },
    {
     "mangled_component_name":"_ZN7android8hardware5radio6config4V1_012IRadioConfig14interfaceChainENSt3__18functionIFvRKNS0_8hidl_vecINS0_11hidl_stringEEEEEE"
    },
    {
     "mangled_component_name":"_ZN7android8hardware5radio6config4V1_012IRadioConfig5debugERKNS0_11hidl_handleERKNS0_8hidl_vecINS0_11hidl_stringEEE"
    },
    {
     "mangled_component_name":"_ZN7android8hardware5radio6config4V1_012IRadioConfig19interfaceDescriptorENSt3__18functionIFvRKNS0_11hidl_stringEEEE"
    },
    {
     "mangled_component_name":"_ZN7android8hardware5radio6config4V1_012IRadioConfig12getHashChainENSt3__18functionIFvRKNS0_8hidl_vecINS0_10hidl_arrayIhLj32EJEEEEEEEE"
    },
    {
     "mangled_component_name":"_ZN7android8hardware5radio6config4V1_012IRadioConfig21setHALInstrumentationEv"
    },
    {
     "mangled_component_name":"_ZN7android8hardware5radio6config4V1_012IRadioConfig11linkToDeathERKNS_2spINS0_20hidl_death_recipientEEEy"
    },
    {
     "mangled_component_name":"_ZN7android8hardware5radio6config4V1_012IRadioConfig4pingEv"
    },
    {
     "mangled_component_name":"_ZN7android8hardware5radio6config4V1_012IRadioConfig12getDebugInfoENSt3__18functionIFvRKNS_4hidl4base4V1_09DebugInfoEEEE"
    },
    {
     "mangled_component_name":"_ZN7android8hardware5radio6config4V1_012IRadioConfig21notifySyspropsChangedEv"
    },
    {
     "mangled_component_name":"_ZN7android8hardware5radio6config4V1_012IRadioConfig13unlinkToDeathERKNS_2spINS0_20hidl_death_recipientEEE"
    },
    {
     "kind":"complete_dtor_pointer",
     "mangled_component_name":"_ZN7android8hardware5radio6config4V1_012IRadioConfigD1Ev"
    },
    {
     "kind":"deleting_dtor_pointer",
     "mangled_component_name":"_ZN7android8hardware5radio6config4V1_012IRadioConfigD0Ev"
    },
    {
     "is_pure":true,
     "mangled_component_name":"_ZN7android8hardware5radio6config4V1_012IRadioConfig20setResponseFunctionsERKNS_2spINS3_20IRadioConfigResponseEEERKNS5_INS3_22IRadioConfigIndicationEEE"
    },
    {
     "is_pure":true,
     "mangled_component_name":"_ZN7android8hardware5radio6config4V1_012IRadioConfig17getSimSlotsStatusEi"
    },
    {
     "is_pure":true,
     "mangled_component_name":"_ZN7android8hardware5radio6config4V1_012IRadioConfig18setSimSlotsMappingEiRKNS0_8hidl_vecIjEE"
    },
    {
     "kind":"vcall_offset"
    },
    {
     "kind":"vcall_offset"
    },
    {
     "kind":"vcall_offset"
    },
    {
     "kind":"vcall_offset"
    },
    {
     "kind":"vcall_offset",
     "component_value":-4
    },
    {
     "kind":"offset_to_top",
     "component_value":-4
    },
    {
     "kind":"rtti",
     "mangled_component_name":"_ZTIN7android8hardware5radio6config4V1_012IRadioConfigE"
    },
    {
     "kind":"complete_dtor_pointer",
     "mangled_component_name":"_ZTv0_n12_N7android8hardware5radio6config4V1_012IRadioConfigD1Ev"
    },
    {
     "kind":"deleting_dtor_pointer",
     "mangled_component_name":"_ZTv0_n12_N7android8hardware5radio6config4V1_012IRadioConfigD0Ev"
    },
    {
     "mangled_component_name":"_ZN7android7RefBase10onFirstRefEv"
    },
    {
     "mangled_component_name":"_ZN7android7RefBase15onLastStrongRefEPKv"
    },
    {
     "mangled_component_name":"_ZN7android7RefBase20onIncStrongAttemptedEjPKv"
    },
    {
     "mangled_component_name":"_ZN7android7RefBase13onLastWeakRefEPKv"
    }
   ],
   "unique_id":"_ZTSN7android8hardware5radio6config4V1_012IRadioConfigE"
  },
  {
   "vtable_components":[
    {
     "kind":"vbase_offset",
     "component_value":4
    },
    {
     "kind":"offset_to_top"
    },
    {
     "kind":"rtti",
     "mangled_component_name":"_ZTIN7android8hardware5radio6config4V1_022IRadioConfigIndicationE"
    },
    {
     "mangled_component_name":"_ZNK7android8hardware5radio6config4V1_022IRadioConfigIndication8isRemoteEv"
    },
    {
     "mangled_component_name":"_ZN7android8hardware5radio6config4V1_022IRadioConfigIndication14interfaceChainENSt3__18functionIFvRKNS0_8hidl_vecINS0_11hidl_stringEEEEEE"
    },
    {
     "mangled_component_name":"_ZN7android8hardware5radio6config4V1_022IRadioConfigIndication5debugERKNS0_11hidl_handleERKNS0_8hidl_vecINS0_11hidl_stringEEE"
    },
    {
     "mangled_component_name":"_ZN7android8hardware5radio6config4V1_022IRadioConfigIndication19interfaceDescriptorENSt3__18functionIFvRKNS0_11hidl_stringEEEE"
    },
    {
     "mangled_component_name":"_ZN7android8hardware5radio6config4V1_022IRadioConfigIndication12getHashChainENSt3__18functionIFvRKNS0_8hidl_vecINS0_10hidl_arrayIhLj32EJEEEEEEEE"
    },
    {
     "mangled_component_name":"_ZN7android8hardware5radio6config4V1_022IRadioConfigIndication21setHALInstrumentationEv"
    },
    {
     "mangled_component_name":"_ZN7android8hardware5radio6config4V1_022IRadioConfigIndication11linkToDeathERKNS_2spINS0_20hidl_death_recipientEEEy"
    },
    {
     "mangled_component_name":"_ZN7android8hardware5radio6config4V1_022IRadioConfigIndication4pingEv"
    },
    {
     "mangled_component_name":"_ZN7android8hardware5radio6config4V1_022IRadioConfigIndication12getDebugInfoENSt3__18functionIFvRKNS_4hidl4base4V1_09DebugInfoEEEE"
    },
    {
     "mangled_component_name":"_ZN7android8hardware5radio6config4V1_022IRadioConfigIndication21notifySyspropsChangedEv"
    },
    {
     "mangled_component_name":"_ZN7android8hardware5radio6config4V1_022IRadioConfigIndication13unlinkToDeathERKNS_2spINS0_20hidl_death_recipientEEE"
    },
    {
     "kind":"complete_dtor_pointer",
     "mangled_component_name":"_ZN7android8hardware5radio6config4V1_022IRadioConfigIndicationD1Ev"
    },
    {
     "kind":"deleting_dtor_pointer",
     "mangled_component_name":"_ZN7android8hardware5radio6config4V1_022IRadioConfigIndicationD0Ev"
    },
    {
     "is_pure":true,
     "mangled_component_name":"_ZN7android8hardware5radio6config4V1_022IRadioConfigIndication21simSlotsStatusChangedENS1_4V1_019RadioIndicationTypeERKNS0_8hidl_vecINS3_13SimSlotStatusEEE"
    },
    {
     "kind":"vcall_offset"
    },
    {
     "kind":"vcall_offset"
    },
    {
     "kind":"vcall_offset"
    },
    {
     "kind":"vcall_offset"
    },
    {
     "kind":"vcall_offset",
     "component_value":-4
    },
    {
     "kind":"offset_to_top",
     "component_value":-4
    },
    {
     "kind":"rtti",
     "mangled_component_name":"_ZTIN7android8hardware5radio6config4V1_022IRadioConfigIndicationE"
    },
    {
     "kind":"complete_dtor_pointer",
     "mangled_component_name":"_ZTv0_n12_N7android8hardware5radio6config4V1_022IRadioConfigIndicationD1Ev"
    },
    {
     "kind":"deleting_dtor_pointer",
     "mangled_component_name":"_ZTv0_n12_N7android8hardware5radio6config4V1_022IRadioConfigIndicationD0Ev"
    },
    {
     "mangled_component_name":"_ZN7android7RefBase10onFirstRefEv"
    },
    {
     "mangled_component_name":"_ZN7android7RefBase15onLastStrongRefEPKv"
    },
    {
     "mangled_component_name":"_ZN7android7RefBase20onIncStrongAttemptedEjPKv"
    },
    {
     "mangled_component_name":"_ZN7android7RefBase13onLastWeakRefEPKv"
    }
   ],
   "unique_id":"_ZTSN7android8hardware5radio6config4V1_022IRadioConfigIndicationE"
  },
  {
   "vtable_components":[
    {
     "kind":"vbase_offset",
     "component_value":4
    },
    {
     "kind":"offset_to_top"
    },
    {
     "kind":"rtti",
     "mangled_component_name":"_ZTIN7android8hardware5radio6config4V1_020IRadioConfigResponseE"
    },
    {
     "mangled_component_name":"_ZNK7android8hardware5radio6config4V1_020IRadioConfigResponse8isRemoteEv"
    },
    {
     "mangled_component_name":"_ZN7android8hardware5radio6config4V1_020IRadioConfigResponse14interfaceChainENSt3__18functionIFvRKNS0_8hidl_vecINS0_11hidl_stringEEEEEE"
    },
    {
     "mangled_component_name":"_ZN7android8hardware5radio6config4V1_020IRadioConfigResponse5debugERKNS0_11hidl_handleERKNS0_8hidl_vecINS0_11hidl_stringEEE"
    },
    {
     "mangled_component_name":"_ZN7android8hardware5radio6config4V1_020IRadioConfigResponse19interfaceDescriptorENSt3__18functionIFvRKNS0_11hidl_stringEEEE"
    },
    {
     "mangled_component_name":"_ZN7android8hardware5radio6config4V1_020IRadioConfigResponse12getHashChainENSt3__18functionIFvRKNS0_8hidl_vecINS0_10hidl_arrayIhLj32EJEEEEEEEE"
    },
    {
     "mangled_component_name":"_ZN7android8hardware5radio6config4V1_020IRadioConfigResponse21setHALInstrumentationEv"
    },
    {
     "mangled_component_name":"_ZN7android8hardware5radio6config4V1_020IRadioConfigResponse11linkToDeathERKNS_2spINS0_20hidl_death_recipientEEEy"
    },
    {
     "mangled_component_name":"_ZN7android8hardware5radio6config4V1_020IRadioConfigResponse4pingEv"
    },
    {
     "mangled_component_name":"_ZN7android8hardware5radio6config4V1_020IRadioConfigResponse12getDebugInfoENSt3__18functionIFvRKNS_4hidl4base4V1_09DebugInfoEEEE"
    },
    {
     "mangled_component_name":"_ZN7android8hardware5radio6config4V1_020IRadioConfigResponse21notifySyspropsChangedEv"
    },
    {
     "mangled_component_name":"_ZN7android8hardware5radio6config4V1_020IRadioConfigResponse13unlinkToDeathERKNS_2spINS0_20hidl_death_recipientEEE"
    },
    {
     "kind":"complete_dtor_pointer",
     "mangled_component_name":"_ZN7android8hardware5radio6config4V1_020IRadioConfigResponseD1Ev"
    },
    {
     "kind":"deleting_dtor_pointer",
     "mangled_component_name":"_ZN7android8hardware5radio6config4V1_020IRadioConfigResponseD0Ev"
    },
    {
     "is_pure":true,
     "mangled_component_name":"_ZN7android8hardware5radio6config4V1_020IRadioConfigResponse25getSimSlotsStatusResponseERKNS1_4V1_017RadioResponseInfoERKNS0_8hidl_vecINS3_13SimSlotStatusEEE"
    },
    {
     "is_pure":true,
     "mangled_component_name":"_ZN7android8hardware5radio6config4V1_020IRadioConfigResponse26setSimSlotsMappingResponseERKNS1_4V1_017RadioResponseInfoE"
    },
    {
     "kind":"vcall_offset"
    },
    {
     "kind":"vcall_offset"
    },
    {
     "kind":"vcall_offset"
    },
    {
     "kind":"vcall_offset"
    },
    {
     "kind":"vcall_offset",
     "component_value":-4
    },
    {
     "kind":"offset_to_top",
     "component_value":-4
    },
    {
     "kind":"rtti",
     "mangled_component_name":"_ZTIN7android8hardware5radio6config4V1_020IRadioConfigResponseE"
    },
    {
     "kind":"complete_dtor_pointer",
     "mangled_component_name":"_ZTv0_n12_N7android8hardware5radio6config4V1_020IRadioConfigResponseD1Ev"
    },
    {
     "kind":"deleting_dtor_pointer",
     "mangled_component_name":"_ZTv0_n12_N7android8hardware5radio6config4V1_020IRadioConfigResponseD0Ev"
    },
    {
     "mangled_component_name":"_ZN7android7RefBase10onFirstRefEv"
    },
    {
     "mangled_component_name":"_ZN7android7RefBase15onLastStrongRefEPKv"
    },
    {
     "mangled_component_name":"_ZN7android7RefBase20onIncStrongAttemptedEjPKv"
    },
    {
     "mangled_component_name":"_ZN7android7RefBase13onLastWeakRefEPKv"
    }
   ],
   "unique_id":"_ZTSN7android8hardware5radio6config4V1_020IRadioConfigResponseE"
  },
  {
   "vtable_components":[
    {
     "kind":"vbase_offset",
     "component_value":60
    },
    {
     "kind":"offset_to_top"
    },
    {
     "kind":"rtti",
     "mangled_component_name":"_ZTIN7android8hardware5radio6config4V1_013BsRadioConfigE"
    },
    {
     "mangled_component_name":"_ZNK7android8hardware5radio6config4V1_012IRadioConfig8isRemoteEv"
    },
    {
     "mangled_component_name":"_ZN7android8hardware5radio6config4V1_013BsRadioConfig14interfaceChainENSt3__18functionIFvRKNS0_8hidl_vecINS0_11hidl_stringEEEEEE"
    },
    {
     "mangled_component_name":"_ZN7android8hardware5radio6config4V1_013BsRadioConfig5debugERKNS0_11hidl_handleERKNS0_8hidl_vecINS0_11hidl_stringEEE"
    },
    {
     "mangled_component_name":"_ZN7android8hardware5radio6config4V1_013BsRadioConfig19interfaceDescriptorENSt3__18functionIFvRKNS0_11hidl_stringEEEE"
    },
    {
     "mangled_component_name":"_ZN7android8hardware5radio6config4V1_013BsRadioConfig12getHashChainENSt3__18functionIFvRKNS0_8hidl_vecINS0_10hidl_arrayIhLj32EJEEEEEEEE"
    },
    {
     "mangled_component_name":"_ZN7android8hardware5radio6config4V1_013BsRadioConfig21setHALInstrumentationEv"
    },
    {
     "mangled_component_name":"_ZN7android8hardware5radio6config4V1_013BsRadioConfig11linkToDeathERKNS_2spINS0_20hidl_death_recipientEEEy"
    },
    {
     "mangled_component_name":"_ZN7android8hardware5radio6config4V1_013BsRadioConfig4pingEv"
    },
    {
     "mangled_component_name":"_ZN7android8hardware5radio6config4V1_013BsRadioConfig12getDebugInfoENSt3__18functionIFvRKNS_4hidl4base4V1_09DebugInfoEEEE"
    },
    {
     "mangled_component_name":"_ZN7android8hardware5radio6config4V1_013BsRadioConfig21notifySyspropsChangedEv"
    },
    {
     "mangled_component_name":"_ZN7android8hardware5radio6config4V1_013BsRadioConfig13unlinkToDeathERKNS_2spINS0_20hidl_death_recipientEEE"
    },
    {
     "kind":"complete_dtor_pointer",
     "mangled_component_name":"_ZN7android8hardware5radio6config4V1_013BsRadioConfigD1Ev"
    },
    {
     "kind":"deleting_dtor_pointer",
     "mangled_component_name":"_ZN7android8hardware5radio6config4V1_013BsRadioConfigD0Ev"
    },
    {
     "mangled_component_name":"_ZN7android8hardware5radio6config4V1_013BsRadioConfig20setResponseFunctionsERKNS_2spINS3_20IRadioConfigResponseEEERKNS5_INS3_22IRadioConfigIndicationEEE"
    },
    {
     "mangled_component_name":"_ZN7android8hardware5radio6config4V1_013BsRadioConfig17getSimSlotsStatusEi"
    },
    {
     "mangled_component_name":"_ZN7android8hardware5radio6config4V1_013BsRadioConfig18setSimSlotsMappingEiRKNS0_8hidl_vecIjEE"
    },
    {
     "kind":"offset_to_top",
     "component_value":-4
    },
    {
     "kind":"rtti",
     "mangled_component_name":"_ZTIN7android8hardware5radio6config4V1_013BsRadioConfigE"
    },
    {
     "kind":"complete_dtor_pointer",
     "mangled_component_name":"_ZThn4_N7android8hardware5radio6config4V1_013BsRadioConfigD1Ev"
    },
    {
     "kind":"deleting_dtor_pointer",
     "mangled_component_name":"_ZThn4_N7android8hardware5radio6config4V1_013BsRadioConfigD0Ev"
    },
    {
     "kind":"vcall_offset"
    },
    {
     "kind":"vcall_offset"
    },
    {
     "kind":"vcall_offset"
    },
    {
     "kind":"vcall_offset"
    },
    {
     "kind":"vcall_offset",
     "component_value":-60
    },
    {
     "kind":"offset_to_top",
     "component_value":-60
    },
    {
     "kind":"rtti",
     "mangled_component_name":"_ZTIN7android8hardware5radio6config4V1_013BsRadioConfigE"
    },
    {
     "kind":"complete_dtor_pointer",
     "mangled_component_name":"_ZTv0_n12_N7android8hardware5radio6config4V1_013BsRadioConfigD1Ev"
    },
    {
     "kind":"deleting_dtor_pointer",
     "mangled_component_name":"_ZTv0_n12_N7android8hardware5radio6config4V1_013BsRadioConfigD0Ev"
    },
    {
     "mangled_component_name":"_ZN7android7RefBase10onFirstRefEv"
    },
    {
     "mangled_component_name":"_ZN7android7RefBase15onLastStrongRefEPKv"
    },
    {
     "mangled_component_name":"_ZN7android7RefBase20onIncStrongAttemptedEjPKv"
    },
    {
     "mangled_component_name":"_ZN7android7RefBase13onLastWeakRefEPKv"
    }
   ],
   "unique_id":"_ZTSN7android8hardware5radio6config4V1_013BsRadioConfigE"
  },
  {
   "vtable_components":[
    {
     "kind":"vbase_offset",
     "component_value":60
    },
    {
     "kind":"offset_to_top"
    },
    {
     "kind":"rtti",
     "mangled_component_name":"_ZTIN7android8hardware5radio6config4V1_023BsRadioConfigIndicationE"
    },
    {
     "mangled_component_name":"_ZNK7android8hardware5radio6config4V1_022IRadioConfigIndication8isRemoteEv"
    },
    {
     "mangled_component_name":"_ZN7android8hardware5radio6config4V1_023BsRadioConfigIndication14interfaceChainENSt3__18functionIFvRKNS0_8hidl_vecINS0_11hidl_stringEEEEEE"
    },
    {
     "mangled_component_name":"_ZN7android8hardware5radio6config4V1_023BsRadioConfigIndication5debugERKNS0_11hidl_handleERKNS0_8hidl_vecINS0_11hidl_stringEEE"
    },
    {
     "mangled_component_name":"_ZN7android8hardware5radio6config4V1_023BsRadioConfigIndication19interfaceDescriptorENSt3__18functionIFvRKNS0_11hidl_stringEEEE"
    },
    {
     "mangled_component_name":"_ZN7android8hardware5radio6config4V1_023BsRadioConfigIndication12getHashChainENSt3__18functionIFvRKNS0_8hidl_vecINS0_10hidl_arrayIhLj32EJEEEEEEEE"
    },
    {
     "mangled_component_name":"_ZN7android8hardware5radio6config4V1_023BsRadioConfigIndication21setHALInstrumentationEv"
    },
    {
     "mangled_component_name":"_ZN7android8hardware5radio6config4V1_023BsRadioConfigIndication11linkToDeathERKNS_2spINS0_20hidl_death_recipientEEEy"
    },
    {
     "mangled_component_name":"_ZN7android8hardware5radio6config4V1_023BsRadioConfigIndication4pingEv"
    },
    {
     "mangled_component_name":"_ZN7android8hardware5radio6config4V1_023BsRadioConfigIndication12getDebugInfoENSt3__18functionIFvRKNS_4hidl4base4V1_09DebugInfoEEEE"
    },
    {
     "mangled_component_name":"_ZN7android8hardware5radio6config4V1_023BsRadioConfigIndication21notifySyspropsChangedEv"
    },
    {
     "mangled_component_name":"_ZN7android8hardware5radio6config4V1_023BsRadioConfigIndication13unlinkToDeathERKNS_2spINS0_20hidl_death_recipientEEE"
    },
    {
     "kind":"complete_dtor_pointer",
     "mangled_component_name":"_ZN7android8hardware5radio6config4V1_023BsRadioConfigIndicationD1Ev"
    },
    {
     "kind":"deleting_dtor_pointer",
     "mangled_component_name":"_ZN7android8hardware5radio6config4V1_023BsRadioConfigIndicationD0Ev"
    },
    {
     "mangled_component_name":"_ZN7android8hardware5radio6config4V1_023BsRadioConfigIndication21simSlotsStatusChangedENS1_4V1_019RadioIndicationTypeERKNS0_8hidl_vecINS3_13SimSlotStatusEEE"
    },
    {
     "kind":"offset_to_top",
     "component_value":-4
    },
    {
     "kind":"rtti",
     "mangled_component_name":"_ZTIN7android8hardware5radio6config4V1_023BsRadioConfigIndicationE"
    },
    {
     "kind":"complete_dtor_pointer",
     "mangled_component_name":"_ZThn4_N7android8hardware5radio6config4V1_023BsRadioConfigIndicationD1Ev"
    },
    {
     "kind":"deleting_dtor_pointer",
     "mangled_component_name":"_ZThn4_N7android8hardware5radio6config4V1_023BsRadioConfigIndicationD0Ev"
    },
    {
     "kind":"vcall_offset"
    },
    {
     "kind":"vcall_offset"
    },
    {
     "kind":"vcall_offset"
    },
    {
     "kind":"vcall_offset"
    },
    {
     "kind":"vcall_offset",
     "component_value":-60
    },
    {
     "kind":"offset_to_top",
     "component_value":-60
    },
    {
     "kind":"rtti",
     "mangled_component_name":"_ZTIN7android8hardware5radio6config4V1_023BsRadioConfigIndicationE"
    },
    {
     "kind":"complete_dtor_pointer",
     "mangled_component_name":"_ZTv0_n12_N7android8hardware5radio6config4V1_023BsRadioConfigIndicationD1Ev"
    },
    {
     "kind":"deleting_dtor_pointer",
     "mangled_component_name":"_ZTv0_n12_N7android8hardware5radio6config4V1_023BsRadioConfigIndicationD0Ev"
    },
    {
     "mangled_component_name":"_ZN7android7RefBase10onFirstRefEv"
    },
    {
     "mangled_component_name":"_ZN7android7RefBase15onLastStrongRefEPKv"
    },
    {
     "mangled_component_name":"_ZN7android7RefBase20onIncStrongAttemptedEjPKv"
    },
    {
     "mangled_component_name":"_ZN7android7RefBase13onLastWeakRefEPKv"
    }
   ],
   "unique_id":"_ZTSN7android8hardware5radio6config4V1_023BsRadioConfigIndicationE"
  },
  {
   "vtable_components":[
    {
     "kind":"vbase_offset",
     "component_value":84
    },
    {
     "kind":"offset_to_top"
    },
    {
     "kind":"rtti",
     "mangled_component_name":"_ZTIN7android8hardware5radio6config4V1_015BpHwRadioConfigE"
    },
    {
     "mangled_component_name":"_ZNK7android8hardware5radio6config4V1_015BpHwRadioConfig8isRemoteEv"
    },
    {
     "mangled_component_name":"_ZN7android8hardware5radio6config4V1_015BpHwRadioConfig14interfaceChainENSt3__18functionIFvRKNS0_8hidl_vecINS0_11hidl_stringEEEEEE"
    },
    {
     "mangled_component_name":"_ZN7android8hardware5radio6config4V1_015BpHwRadioConfig5debugERKNS0_11hidl_handleERKNS0_8hidl_vecINS0_11hidl_stringEEE"
    },
    {
     "mangled_component_name":"_ZN7android8hardware5radio6config4V1_015BpHwRadioConfig19interfaceDescriptorENSt3__18functionIFvRKNS0_11hidl_stringEEEE"
    },
    {
     "mangled_component_name":"_ZN7android8hardware5radio6config4V1_015BpHwRadioConfig12getHashChainENSt3__18functionIFvRKNS0_8hidl_vecINS0_10hidl_arrayIhLj32EJEEEEEEEE"
    },
    {
     "mangled_component_name":"_ZN7android8hardware5radio6config4V1_015BpHwRadioConfig21setHALInstrumentationEv"
    },
    {
     "mangled_component_name":"_ZN7android8hardware5radio6config4V1_015BpHwRadioConfig11linkToDeathERKNS_2spINS0_20hidl_death_recipientEEEy"
    },
    {
     "mangled_component_name":"_ZN7android8hardware5radio6config4V1_015BpHwRadioConfig4pingEv"
    },
    {
     "mangled_component_name":"_ZN7android8hardware5radio6config4V1_015BpHwRadioConfig12getDebugInfoENSt3__18functionIFvRKNS_4hidl4base4V1_09DebugInfoEEEE"
    },
    {
     "mangled_component_name":"_ZN7android8hardware5radio6config4V1_015BpHwRadioConfig21notifySyspropsChangedEv"
    },
    {
     "mangled_component_name":"_ZN7android8hardware5radio6config4V1_015BpHwRadioConfig13unlinkToDeathERKNS_2spINS0_20hidl_death_recipientEEE"
    },
    {
     "kind":"complete_dtor_pointer",
     "mangled_component_name":"_ZN7android8hardware5radio6config4V1_015BpHwRadioConfigD1Ev"
    },
    {
     "kind":"deleting_dtor_pointer",
     "mangled_component_name":"_ZN7android8hardware5radio6config4V1_015BpHwRadioConfigD0Ev"
    },
    {
     "mangled_component_name":"_ZN7android8hardware5radio6config4V1_015BpHwRadioConfig20setResponseFunctionsERKNS_2spINS3_20IRadioConfigResponseEEERKNS5_INS3_22IRadioConfigIndicationEEE"
    },
    {
     "mangled_component_name":"_ZN7android8hardware5radio6config4V1_015BpHwRadioConfig17getSimSlotsStatusEi"
    },
    {
     "mangled_component_name":"_ZN7android8hardware5radio6config4V1_015BpHwRadioConfig18setSimSlotsMappingEiRKNS0_8hidl_vecIjEE"
    },
    {
     "mangled_component_name":"_ZN7android8hardware11BpInterfaceINS0_5radio6config4V1_012IRadioConfigEE10onAsBinderEv"
    },
    {
     "kind":"vbase_offset",
     "component_value":80
    },
    {
     "kind":"offset_to_top",
     "component_value":-4
    },
    {
     "kind":"rtti",
     "mangled_component_name":"_ZTIN7android8hardware5radio6config4V1_015BpHwRadioConfigE"
    },
    {
     "kind":"complete_dtor_pointer",
     "mangled_component_name":"_ZThn4_N7android8hardware5radio6config4V1_015BpHwRadioConfigD1Ev"
    },
    {
     "kind":"deleting_dtor_pointer",
     "mangled_component_name":"_ZThn4_N7android8hardware5radio6config4V1_015BpHwRadioConfigD0Ev"
    },
    {
     "mangled_component_name":"_ZThn4_N7android8hardware11BpInterfaceINS0_5radio6config4V1_012IRadioConfigEE10onAsBinderEv"
    },
    {
     "kind":"vbase_offset",
     "component_value":76
    },
    {
     "kind":"offset_to_top",
     "component_value":-8
    },
    {
     "kind":"rtti",
     "mangled_component_name":"_ZTIN7android8hardware5radio6config4V1_015BpHwRadioConfigE"
    },
    {
     "kind":"complete_dtor_pointer",
     "mangled_component_name":"_ZThn8_N7android8hardware5radio6config4V1_015BpHwRadioConfigD1Ev"
    },
    {
     "kind":"deleting_dtor_pointer",
     "mangled_component_name":"_ZThn8_N7android8hardware5radio6config4V1_015BpHwRadioConfigD0Ev"
    },
    {
     "mangled_component_name":"_ZN7android8hardware11BpHwRefBase10onFirstRefEv"
    },
    {
     "mangled_component_name":"_ZN7android8hardware11BpHwRefBase15onLastStrongRefEPKv"
    },
    {
     "mangled_component_name":"_ZN7android8hardware11BpHwRefBase20onIncStrongAttemptedEjPKv"
    },
    {
     "kind":"offset_to_top",
     "component_value":-24
    },
    {
     "kind":"rtti",
     "mangled_component_name":"_ZTIN7android8hardware5radio6config4V1_015BpHwRadioConfigE"
    },
    {
     "kind":"complete_dtor_pointer",
     "mangled_component_name":"_ZThn24_N7android8hardware5radio6config4V1_015BpHwRadioConfigD1Ev"
    },
    {
     "kind":"deleting_dtor_pointer",
     "mangled_component_name":"_ZThn24_N7android8hardware5radio6config4V1_015BpHwRadioConfigD0Ev"
    },
    {
     "kind":"vcall_offset"
    },
    {
     "kind":"vcall_offset",
     "component_value":-76
    },
    {
     "kind":"vcall_offset",
     "component_value":-76
    },
    {
     "kind":"vcall_offset",
     "component_value":-76
    },
    {
     "kind":"vcall_offset",
     "component_value":-84
    },
    {
     "kind":"offset_to_top",
     "component_value":-84
    },
    {
     "kind":"rtti",
     "mangled_component_name":"_ZTIN7android8hardware5radio6config4V1_015BpHwRadioConfigE"
    },
    {
     "kind":"complete_dtor_pointer",
     "mangled_component_name":"_ZTv0_n12_N7android8hardware5radio6config4V1_015BpHwRadioConfigD1Ev"
    },
    {
     "kind":"deleting_dtor_pointer",
     "mangled_component_name":"_ZTv0_n12_N7android8hardware5radio6config4V1_015BpHwRadioConfigD0Ev"
    },
    {
     "mangled_component_name":"_ZTv0_n16_N7android8hardware11BpHwRefBase10onFirstRefEv"
    },
    {
     "mangled_component_name":"_ZTv0_n20_N7android8hardware11BpHwRefBase15onLastStrongRefEPKv"
    },
    {
     "mangled_component_name":"_ZTv0_n24_N7android8hardware11BpHwRefBase20onIncStrongAttemptedEjPKv"
    },
    {
     "mangled_component_name":"_ZN7android7RefBase13onLastWeakRefEPKv"
    }
   ],
   "unique_id":"_ZTSN7android8hardware5radio6config4V1_015BpHwRadioConfigE"
  }
 ],
 "elf_functions":[
  {
   "binding":"weak",
   "name":"_ZN7android8hardware10fromBinderINS0_5radio6config4V1_020IRadioConfigResponseENS4_23BpHwRadioConfigResponseENS4_23BnHwRadioConfigResponseEEENS_2spIT_EERKNS8_INS0_7IBinderEEE"
  },
  {
   "binding":"weak",
   "name":"_ZN7android8hardware10fromBinderINS0_5radio6config4V1_022IRadioConfigIndicationENS4_25BpHwRadioConfigIndicationENS4_25BnHwRadioConfigIndicationEEENS_2spIT_EERKNS8_INS0_7IBinderEEE"
  },
  {
   "name":"_ZN7android8hardware5radio6config4V1_012IRadioConfig10getServiceERKNSt3__112basic_stringIcNS5_11char_traitsIcEENS5_9allocatorIcEEEEb"
  },
  {
   "name":"_ZN7android8hardware5radio6config4V1_012IRadioConfig11linkToDeathERKNS_2spINS0_20hidl_death_recipientEEEy"
  },
  {
   "name":"_ZN7android8hardware5radio6config4V1_012IRadioConfig12getDebugInfoENSt3__18functionIFvRKNS_4hidl4base4V1_09DebugInfoEEEE"
  },
  {
   "name":"_ZN7android8hardware5radio6config4V1_012IRadioConfig12getHashChainENSt3__18functionIFvRKNS0_8hidl_vecINS0_10hidl_arrayIhLj32EJEEEEEEEE"
  },
  {
   "name":"_ZN7android8hardware5radio6config4V1_012IRadioConfig13tryGetServiceERKNSt3__112basic_stringIcNS5_11char_traitsIcEENS5_9allocatorIcEEEEb"
  },
  {
   "name":"_ZN7android8hardware5radio6config4V1_012IRadioConfig13unlinkToDeathERKNS_2spINS0_20hidl_death_recipientEEE"
  },
  {
   "name":"_ZN7android8hardware5radio6config4V1_012IRadioConfig14interfaceChainENSt3__18functionIFvRKNS0_8hidl_vecINS0_11hidl_stringEEEEEE"
  },
  {
   "name":"_ZN7android8hardware5radio6config4V1_012IRadioConfig17registerAsServiceERKNSt3__112basic_stringIcNS5_11char_traitsIcEENS5_9allocatorIcEEEE"
  },
  {
   "name":"_ZN7android8hardware5radio6config4V1_012IRadioConfig19interfaceDescriptorENSt3__18functionIFvRKNS0_11hidl_stringEEEE"
  },
  {
   "name":"_ZN7android8hardware5radio6config4V1_012IRadioConfig21notifySyspropsChangedEv"
  },
  {
   "name":"_ZN7android8hardware5radio6config4V1_012IRadioConfig21setHALInstrumentationEv"
  },
  {
   "name":"_ZN7android8hardware5radio6config4V1_012IRadioConfig24registerForNotificationsERKNSt3__112basic_stringIcNS5_11char_traitsIcEENS5_9allocatorIcEEEERKNS_2spINS_4hidl7manager4V1_020IServiceNotificationEEE"
  },
  {
   "name":"_ZN7android8hardware5radio6config4V1_012IRadioConfig4pingEv"
  },
  {
   "name":"_ZN7android8hardware5radio6config4V1_012IRadioConfig5debugERKNS0_11hidl_handleERKNS0_8hidl_vecINS0_11hidl_stringEEE"
  },
  {
   "name":"_ZN7android8hardware5radio6config4V1_012IRadioConfig8castFromERKNS_2spINS_4hidl4base4V1_05IBaseEEEb"
  },
  {
   "name":"_ZN7android8hardware5radio6config4V1_012IRadioConfig8castFromERKNS_2spIS4_EEb"
  },
  {
   "name":"_ZN7android8hardware5radio6config4V1_013BsRadioConfig13addOnewayTaskENSt3__18functionIFvvEEE"
  },
  {
   "name":"_ZN7android8hardware5radio6config4V1_013BsRadioConfigC1ENS_2spINS3_12IRadioConfigEEE"
  },
  {
   "name":"_ZN7android8hardware5radio6config4V1_013BsRadioConfigC2ENS_2spINS3_12IRadioConfigEEE"
  },
  {
   "name":"_ZN7android8hardware5radio6config4V1_015BnHwRadioConfig10onTransactEjRKNS0_6ParcelEPS5_jNSt3__18functionIFvRS5_EEE"
  },
  {
   "name":"_ZN7android8hardware5radio6config4V1_015BnHwRadioConfig12getDebugInfoENSt3__18functionIFvRKNS_4hidl4base4V1_09DebugInfoEEEE"
  },
  {
   "name":"_ZN7android8hardware5radio6config4V1_015BnHwRadioConfig23_hidl_getSimSlotsStatusEPNS_4hidl4base4V1_08BnHwBaseERKNS0_6ParcelEPSA_NSt3__18functionIFvRSA_EEE"
  },
  {
   "name":"_ZN7android8hardware5radio6config4V1_015BnHwRadioConfig24_hidl_setSimSlotsMappingEPNS_4hidl4base4V1_08BnHwBaseERKNS0_6ParcelEPSA_NSt3__18functionIFvRSA_EEE"
  },
  {
   "name":"_ZN7android8hardware5radio6config4V1_015BnHwRadioConfig26_hidl_setResponseFunctionsEPNS_4hidl4base4V1_08BnHwBaseERKNS0_6ParcelEPSA_NSt3__18functionIFvRSA_EEE"
  },
  {
   "name":"_ZN7android8hardware5radio6config4V1_015BnHwRadioConfig4pingEv"
  },
  {
   "name":"_ZN7android8hardware5radio6config4V1_015BnHwRadioConfigC1ERKNS_2spINS3_12IRadioConfigEEE"
  },
  {
   "name":"_ZN7android8hardware5radio6config4V1_015BnHwRadioConfigC2ERKNS_2spINS3_12IRadioConfigEEE"
  },
  {
   "name":"_ZN7android8hardware5radio6config4V1_015BnHwRadioConfigD0Ev"
  },
  {
   "name":"_ZN7android8hardware5radio6config4V1_015BnHwRadioConfigD1Ev"
  },
  {
   "name":"_ZN7android8hardware5radio6config4V1_015BnHwRadioConfigD2Ev"
  },
  {
   "name":"_ZN7android8hardware5radio6config4V1_015BpHwRadioConfig11linkToDeathERKNS_2spINS0_20hidl_death_recipientEEEy"
  },
  {
   "name":"_ZN7android8hardware5radio6config4V1_015BpHwRadioConfig12getDebugInfoENSt3__18functionIFvRKNS_4hidl4base4V1_09DebugInfoEEEE"
  },
  {
   "name":"_ZN7android8hardware5radio6config4V1_015BpHwRadioConfig12getHashChainENSt3__18functionIFvRKNS0_8hidl_vecINS0_10hidl_arrayIhLj32EJEEEEEEEE"
  },
  {
   "name":"_ZN7android8hardware5radio6config4V1_015BpHwRadioConfig13unlinkToDeathERKNS_2spINS0_20hidl_death_recipientEEE"
  },
  {
   "name":"_ZN7android8hardware5radio6config4V1_015BpHwRadioConfig14interfaceChainENSt3__18functionIFvRKNS0_8hidl_vecINS0_11hidl_stringEEEEEE"
  },
  {
   "name":"_ZN7android8hardware5radio6config4V1_015BpHwRadioConfig17getSimSlotsStatusEi"
  },
  {
   "name":"_ZN7android8hardware5radio6config4V1_015BpHwRadioConfig18setSimSlotsMappingEiRKNS0_8hidl_vecIjEE"
  },
  {
   "name":"_ZN7android8hardware5radio6config4V1_015BpHwRadioConfig19interfaceDescriptorENSt3__18functionIFvRKNS0_11hidl_stringEEEE"
  },
  {
   "name":"_ZN7android8hardware5radio6config4V1_015BpHwRadioConfig20setResponseFunctionsERKNS_2spINS3_20IRadioConfigResponseEEERKNS5_INS3_22IRadioConfigIndicationEEE"
  },
  {
   "name":"_ZN7android8hardware5radio6config4V1_015BpHwRadioConfig21notifySyspropsChangedEv"
  },
  {
   "name":"_ZN7android8hardware5radio6config4V1_015BpHwRadioConfig21setHALInstrumentationEv"
  },
  {
   "name":"_ZN7android8hardware5radio6config4V1_015BpHwRadioConfig23_hidl_getSimSlotsStatusEPNS0_10IInterfaceEPNS0_7details16HidlInstrumentorEi"
  },
  {
   "name":"_ZN7android8hardware5radio6config4V1_015BpHwRadioConfig24_hidl_setSimSlotsMappingEPNS0_10IInterfaceEPNS0_7details16HidlInstrumentorEiRKNS0_8hidl_vecIjEE"
  },
  {
   "name":"_ZN7android8hardware5radio6config4V1_015BpHwRadioConfig26_hidl_setResponseFunctionsEPNS0_10IInterfaceEPNS0_7details16HidlInstrumentorERKNS_2spINS3_20IRadioConfigResponseEEERKNSA_INS3_22IRadioConfigIndicationEEE"
  },
  {
   "name":"_ZN7android8hardware5radio6config4V1_015BpHwRadioConfig4pingEv"
  },
  {
   "name":"_ZN7android8hardware5radio6config4V1_015BpHwRadioConfig5debugERKNS0_11hidl_handleERKNS0_8hidl_vecINS0_11hidl_stringEEE"
  },
  {
   "name":"_ZN7android8hardware5radio6config4V1_015BpHwRadioConfigC1ERKNS_2spINS0_7IBinderEEE"
  },
  {
   "name":"_ZN7android8hardware5radio6config4V1_015BpHwRadioConfigC2ERKNS_2spINS0_7IBinderEEE"
  },
  {
   "name":"_ZN7android8hardware5radio6config4V1_020IRadioConfigResponse10getServiceERKNSt3__112basic_stringIcNS5_11char_traitsIcEENS5_9allocatorIcEEEEb"
  },
  {
   "name":"_ZN7android8hardware5radio6config4V1_020IRadioConfigResponse11linkToDeathERKNS_2spINS0_20hidl_death_recipientEEEy"
  },
  {
   "name":"_ZN7android8hardware5radio6config4V1_020IRadioConfigResponse12getDebugInfoENSt3__18functionIFvRKNS_4hidl4base4V1_09DebugInfoEEEE"
  },
  {
   "name":"_ZN7android8hardware5radio6config4V1_020IRadioConfigResponse12getHashChainENSt3__18functionIFvRKNS0_8hidl_vecINS0_10hidl_arrayIhLj32EJEEEEEEEE"
  },
  {
   "name":"_ZN7android8hardware5radio6config4V1_020IRadioConfigResponse13tryGetServiceERKNSt3__112basic_stringIcNS5_11char_traitsIcEENS5_9allocatorIcEEEEb"
  },
  {
   "name":"_ZN7android8hardware5radio6config4V1_020IRadioConfigResponse13unlinkToDeathERKNS_2spINS0_20hidl_death_recipientEEE"
  },
  {
   "name":"_ZN7android8hardware5radio6config4V1_020IRadioConfigResponse14interfaceChainENSt3__18functionIFvRKNS0_8hidl_vecINS0_11hidl_stringEEEEEE"
  },
  {
   "name":"_ZN7android8hardware5radio6config4V1_020IRadioConfigResponse17registerAsServiceERKNSt3__112basic_stringIcNS5_11char_traitsIcEENS5_9allocatorIcEEEE"
  },
  {
   "name":"_ZN7android8hardware5radio6config4V1_020IRadioConfigResponse19interfaceDescriptorENSt3__18functionIFvRKNS0_11hidl_stringEEEE"
  },
  {
   "name":"_ZN7android8hardware5radio6config4V1_020IRadioConfigResponse21notifySyspropsChangedEv"
  },
  {
   "name":"_ZN7android8hardware5radio6config4V1_020IRadioConfigResponse21setHALInstrumentationEv"
  },
  {
   "name":"_ZN7android8hardware5radio6config4V1_020IRadioConfigResponse24registerForNotificationsERKNSt3__112basic_stringIcNS5_11char_traitsIcEENS5_9allocatorIcEEEERKNS_2spINS_4hidl7manager4V1_020IServiceNotificationEEE"
  },
  {
   "name":"_ZN7android8hardware5radio6config4V1_020IRadioConfigResponse4pingEv"
  },
  {
   "name":"_ZN7android8hardware5radio6config4V1_020IRadioConfigResponse5debugERKNS0_11hidl_handleERKNS0_8hidl_vecINS0_11hidl_stringEEE"
  },
  {
   "name":"_ZN7android8hardware5radio6config4V1_020IRadioConfigResponse8castFromERKNS_2spINS_4hidl4base4V1_05IBaseEEEb"
  },
  {
   "name":"_ZN7android8hardware5radio6config4V1_020IRadioConfigResponse8castFromERKNS_2spIS4_EEb"
  },
  {
   "name":"_ZN7android8hardware5radio6config4V1_021BsRadioConfigResponse13addOnewayTaskENSt3__18functionIFvvEEE"
  },
  {
   "name":"_ZN7android8hardware5radio6config4V1_021BsRadioConfigResponseC1ENS_2spINS3_20IRadioConfigResponseEEE"
  },
  {
   "name":"_ZN7android8hardware5radio6config4V1_021BsRadioConfigResponseC2ENS_2spINS3_20IRadioConfigResponseEEE"
  },
  {
   "name":"_ZN7android8hardware5radio6config4V1_021writeEmbeddedToParcelERKNS3_13SimSlotStatusEPNS0_6ParcelEjj"
  },
  {
   "name":"_ZN7android8hardware5radio6config4V1_022IRadioConfigIndication10getServiceERKNSt3__112basic_stringIcNS5_11char_traitsIcEENS5_9allocatorIcEEEEb"
  },
  {
   "name":"_ZN7android8hardware5radio6config4V1_022IRadioConfigIndication11linkToDeathERKNS_2spINS0_20hidl_death_recipientEEEy"
  },
  {
   "name":"_ZN7android8hardware5radio6config4V1_022IRadioConfigIndication12getDebugInfoENSt3__18functionIFvRKNS_4hidl4base4V1_09DebugInfoEEEE"
  },
  {
   "name":"_ZN7android8hardware5radio6config4V1_022IRadioConfigIndication12getHashChainENSt3__18functionIFvRKNS0_8hidl_vecINS0_10hidl_arrayIhLj32EJEEEEEEEE"
  },
  {
   "name":"_ZN7android8hardware5radio6config4V1_022IRadioConfigIndication13tryGetServiceERKNSt3__112basic_stringIcNS5_11char_traitsIcEENS5_9allocatorIcEEEEb"
  },
  {
   "name":"_ZN7android8hardware5radio6config4V1_022IRadioConfigIndication13unlinkToDeathERKNS_2spINS0_20hidl_death_recipientEEE"
  },
  {
   "name":"_ZN7android8hardware5radio6config4V1_022IRadioConfigIndication14interfaceChainENSt3__18functionIFvRKNS0_8hidl_vecINS0_11hidl_stringEEEEEE"
  },
  {
   "name":"_ZN7android8hardware5radio6config4V1_022IRadioConfigIndication17registerAsServiceERKNSt3__112basic_stringIcNS5_11char_traitsIcEENS5_9allocatorIcEEEE"
  },
  {
   "name":"_ZN7android8hardware5radio6config4V1_022IRadioConfigIndication19interfaceDescriptorENSt3__18functionIFvRKNS0_11hidl_stringEEEE"
  },
  {
   "name":"_ZN7android8hardware5radio6config4V1_022IRadioConfigIndication21notifySyspropsChangedEv"
  },
  {
   "name":"_ZN7android8hardware5radio6config4V1_022IRadioConfigIndication21setHALInstrumentationEv"
  },
  {
   "name":"_ZN7android8hardware5radio6config4V1_022IRadioConfigIndication24registerForNotificationsERKNSt3__112basic_stringIcNS5_11char_traitsIcEENS5_9allocatorIcEEEERKNS_2spINS_4hidl7manager4V1_020IServiceNotificationEEE"
  },
  {
   "name":"_ZN7android8hardware5radio6config4V1_022IRadioConfigIndication4pingEv"
  },
  {
   "name":"_ZN7android8hardware5radio6config4V1_022IRadioConfigIndication5debugERKNS0_11hidl_handleERKNS0_8hidl_vecINS0_11hidl_stringEEE"
  },
  {
   "name":"_ZN7android8hardware5radio6config4V1_022IRadioConfigIndication8castFromERKNS_2spINS_4hidl4base4V1_05IBaseEEEb"
  },
  {
   "name":"_ZN7android8hardware5radio6config4V1_022IRadioConfigIndication8castFromERKNS_2spIS4_EEb"
  },
  {
   "name":"_ZN7android8hardware5radio6config4V1_022readEmbeddedFromParcelERKNS3_13SimSlotStatusERKNS0_6ParcelEjj"
  },
  {
   "name":"_ZN7android8hardware5radio6config4V1_023BnHwRadioConfigResponse10onTransactEjRKNS0_6ParcelEPS5_jNSt3__18functionIFvRS5_EEE"
  },
  {
   "name":"_ZN7android8hardware5radio6config4V1_023BnHwRadioConfigResponse12getDebugInfoENSt3__18functionIFvRKNS_4hidl4base4V1_09DebugInfoEEEE"
  },
  {
   "name":"_ZN7android8hardware5radio6config4V1_023BnHwRadioConfigResponse31_hidl_getSimSlotsStatusResponseEPNS_4hidl4base4V1_08BnHwBaseERKNS0_6ParcelEPSA_NSt3__18functionIFvRSA_EEE"
  },
  {
   "name":"_ZN7android8hardware5radio6config4V1_023BnHwRadioConfigResponse32_hidl_setSimSlotsMappingResponseEPNS_4hidl4base4V1_08BnHwBaseERKNS0_6ParcelEPSA_NSt3__18functionIFvRSA_EEE"
  },
  {
   "name":"_ZN7android8hardware5radio6config4V1_023BnHwRadioConfigResponse4pingEv"
  },
  {
   "name":"_ZN7android8hardware5radio6config4V1_023BnHwRadioConfigResponseC1ERKNS_2spINS3_20IRadioConfigResponseEEE"
  },
  {
   "name":"_ZN7android8hardware5radio6config4V1_023BnHwRadioConfigResponseC2ERKNS_2spINS3_20IRadioConfigResponseEEE"
  },
  {
   "name":"_ZN7android8hardware5radio6config4V1_023BnHwRadioConfigResponseD0Ev"
  },
  {
   "name":"_ZN7android8hardware5radio6config4V1_023BnHwRadioConfigResponseD1Ev"
  },
  {
   "name":"_ZN7android8hardware5radio6config4V1_023BnHwRadioConfigResponseD2Ev"
  },
  {
   "name":"_ZN7android8hardware5radio6config4V1_023BpHwRadioConfigResponse11linkToDeathERKNS_2spINS0_20hidl_death_recipientEEEy"
  },
  {
   "name":"_ZN7android8hardware5radio6config4V1_023BpHwRadioConfigResponse12getDebugInfoENSt3__18functionIFvRKNS_4hidl4base4V1_09DebugInfoEEEE"
  },
  {
   "name":"_ZN7android8hardware5radio6config4V1_023BpHwRadioConfigResponse12getHashChainENSt3__18functionIFvRKNS0_8hidl_vecINS0_10hidl_arrayIhLj32EJEEEEEEEE"
  },
  {
   "name":"_ZN7android8hardware5radio6config4V1_023BpHwRadioConfigResponse13unlinkToDeathERKNS_2spINS0_20hidl_death_recipientEEE"
  },
  {
   "name":"_ZN7android8hardware5radio6config4V1_023BpHwRadioConfigResponse14interfaceChainENSt3__18functionIFvRKNS0_8hidl_vecINS0_11hidl_stringEEEEEE"
  },
  {
   "name":"_ZN7android8hardware5radio6config4V1_023BpHwRadioConfigResponse19interfaceDescriptorENSt3__18functionIFvRKNS0_11hidl_stringEEEE"
  },
  {
   "name":"_ZN7android8hardware5radio6config4V1_023BpHwRadioConfigResponse21notifySyspropsChangedEv"
  },
  {
   "name":"_ZN7android8hardware5radio6config4V1_023BpHwRadioConfigResponse21setHALInstrumentationEv"
  },
  {
   "name":"_ZN7android8hardware5radio6config4V1_023BpHwRadioConfigResponse25getSimSlotsStatusResponseERKNS1_4V1_017RadioResponseInfoERKNS0_8hidl_vecINS3_13SimSlotStatusEEE"
  },
  {
   "name":"_ZN7android8hardware5radio6config4V1_023BpHwRadioConfigResponse26setSimSlotsMappingResponseERKNS1_4V1_017RadioResponseInfoE"
  },
  {
   "name":"_ZN7android8hardware5radio6config4V1_023BpHwRadioConfigResponse31_hidl_getSimSlotsStatusResponseEPNS0_10IInterfaceEPNS0_7details16HidlInstrumentorERKNS1_4V1_017RadioResponseInfoERKNS0_8hidl_vecINS3_13SimSlotStatusEEE"
  },
  {
   "name":"_ZN7android8hardware5radio6config4V1_023BpHwRadioConfigResponse32_hidl_setSimSlotsMappingResponseEPNS0_10IInterfaceEPNS0_7details16HidlInstrumentorERKNS1_4V1_017RadioResponseInfoE"
  },
  {
   "name":"_ZN7android8hardware5radio6config4V1_023BpHwRadioConfigResponse4pingEv"
  },
  {
   "name":"_ZN7android8hardware5radio6config4V1_023BpHwRadioConfigResponse5debugERKNS0_11hidl_handleERKNS0_8hidl_vecINS0_11hidl_stringEEE"
  },
  {
   "name":"_ZN7android8hardware5radio6config4V1_023BpHwRadioConfigResponseC1ERKNS_2spINS0_7IBinderEEE"
  },
  {
   "name":"_ZN7android8hardware5radio6config4V1_023BpHwRadioConfigResponseC2ERKNS_2spINS0_7IBinderEEE"
  },
  {
   "name":"_ZN7android8hardware5radio6config4V1_023BsRadioConfigIndication13addOnewayTaskENSt3__18functionIFvvEEE"
  },
  {
   "name":"_ZN7android8hardware5radio6config4V1_023BsRadioConfigIndicationC1ENS_2spINS3_22IRadioConfigIndicationEEE"
  },
  {
   "name":"_ZN7android8hardware5radio6config4V1_023BsRadioConfigIndicationC2ENS_2spINS3_22IRadioConfigIndicationEEE"
  },
  {
   "name":"_ZN7android8hardware5radio6config4V1_025BnHwRadioConfigIndication10onTransactEjRKNS0_6ParcelEPS5_jNSt3__18functionIFvRS5_EEE"
  },
  {
   "name":"_ZN7android8hardware5radio6config4V1_025BnHwRadioConfigIndication12getDebugInfoENSt3__18functionIFvRKNS_4hidl4base4V1_09DebugInfoEEEE"
  },
  {
   "name":"_ZN7android8hardware5radio6config4V1_025BnHwRadioConfigIndication27_hidl_simSlotsStatusChangedEPNS_4hidl4base4V1_08BnHwBaseERKNS0_6ParcelEPSA_NSt3__18functionIFvRSA_EEE"
  },
  {
   "name":"_ZN7android8hardware5radio6config4V1_025BnHwRadioConfigIndication4pingEv"
  },
  {
   "name":"_ZN7android8hardware5radio6config4V1_025BnHwRadioConfigIndicationC1ERKNS_2spINS3_22IRadioConfigIndicationEEE"
  },
  {
   "name":"_ZN7android8hardware5radio6config4V1_025BnHwRadioConfigIndicationC2ERKNS_2spINS3_22IRadioConfigIndicationEEE"
  },
  {
   "name":"_ZN7android8hardware5radio6config4V1_025BnHwRadioConfigIndicationD0Ev"
  },
  {
   "name":"_ZN7android8hardware5radio6config4V1_025BnHwRadioConfigIndicationD1Ev"
  },
  {
   "name":"_ZN7android8hardware5radio6config4V1_025BnHwRadioConfigIndicationD2Ev"
  },
  {
   "name":"_ZN7android8hardware5radio6config4V1_025BpHwRadioConfigIndication11linkToDeathERKNS_2spINS0_20hidl_death_recipientEEEy"
  },
  {
   "name":"_ZN7android8hardware5radio6config4V1_025BpHwRadioConfigIndication12getDebugInfoENSt3__18functionIFvRKNS_4hidl4base4V1_09DebugInfoEEEE"
  },
  {
   "name":"_ZN7android8hardware5radio6config4V1_025BpHwRadioConfigIndication12getHashChainENSt3__18functionIFvRKNS0_8hidl_vecINS0_10hidl_arrayIhLj32EJEEEEEEEE"
  },
  {
   "name":"_ZN7android8hardware5radio6config4V1_025BpHwRadioConfigIndication13unlinkToDeathERKNS_2spINS0_20hidl_death_recipientEEE"
  },
  {
   "name":"_ZN7android8hardware5radio6config4V1_025BpHwRadioConfigIndication14interfaceChainENSt3__18functionIFvRKNS0_8hidl_vecINS0_11hidl_stringEEEEEE"
  },
  {
   "name":"_ZN7android8hardware5radio6config4V1_025BpHwRadioConfigIndication19interfaceDescriptorENSt3__18functionIFvRKNS0_11hidl_stringEEEE"
  },
  {
   "name":"_ZN7android8hardware5radio6config4V1_025BpHwRadioConfigIndication21notifySyspropsChangedEv"
  },
  {
   "name":"_ZN7android8hardware5radio6config4V1_025BpHwRadioConfigIndication21setHALInstrumentationEv"
  },
  {
   "name":"_ZN7android8hardware5radio6config4V1_025BpHwRadioConfigIndication21simSlotsStatusChangedENS1_4V1_019RadioIndicationTypeERKNS0_8hidl_vecINS3_13SimSlotStatusEEE"
  },
  {
   "name":"_ZN7android8hardware5radio6config4V1_025BpHwRadioConfigIndication27_hidl_simSlotsStatusChangedEPNS0_10IInterfaceEPNS0_7details16HidlInstrumentorENS1_4V1_019RadioIndicationTypeERKNS0_8hidl_vecINS3_13SimSlotStatusEEE"
  },
  {
   "name":"_ZN7android8hardware5radio6config4V1_025BpHwRadioConfigIndication4pingEv"
  },
  {
   "name":"_ZN7android8hardware5radio6config4V1_025BpHwRadioConfigIndication5debugERKNS0_11hidl_handleERKNS0_8hidl_vecINS0_11hidl_stringEEE"
  },
  {
   "name":"_ZN7android8hardware5radio6config4V1_025BpHwRadioConfigIndicationC1ERKNS_2spINS0_7IBinderEEE"
  },
  {
   "name":"_ZN7android8hardware5radio6config4V1_025BpHwRadioConfigIndicationC2ERKNS_2spINS0_7IBinderEEE"
  },
  {
   "binding":"weak",
   "name":"_ZN7android8hardware7details13castInterfaceINS0_5radio6config4V1_012IRadioConfigENS_4hidl4base4V1_05IBaseENS5_15BpHwRadioConfigEEENS0_6ReturnINS_2spIT_EEEENSD_IT0_EEPKcb"
  },
  {
   "binding":"weak",
   "name":"_ZN7android8hardware7details13castInterfaceINS0_5radio6config4V1_020IRadioConfigResponseENS_4hidl4base4V1_05IBaseENS5_23BpHwRadioConfigResponseEEENS0_6ReturnINS_2spIT_EEEENSD_IT0_EEPKcb"
  },
  {
   "binding":"weak",
   "name":"_ZN7android8hardware7details13castInterfaceINS0_5radio6config4V1_022IRadioConfigIndicationENS_4hidl4base4V1_05IBaseENS5_25BpHwRadioConfigIndicationEEENS0_6ReturnINS_2spIT_EEEENSD_IT0_EEPKcb"
  },
  {
   "binding":"weak",
   "name":"_ZN7android8hardware7details15wrapPassthroughINS0_5radio6config4V1_020IRadioConfigResponseEvEENS_2spIT_EES9_"
  },
  {
   "binding":"weak",
   "name":"_ZN7android8hardware7details15wrapPassthroughINS0_5radio6config4V1_022IRadioConfigIndicationEvEENS_2spIT_EES9_"
  },
  {
   "binding":"weak",
   "name":"_ZN7android8hardware7details18getServiceInternalINS0_5radio6config4V1_015BpHwRadioConfigENS5_12IRadioConfigEvvEENS_2spIT0_EERKNSt3__112basic_stringIcNSB_11char_traitsIcEENSB_9allocatorIcEEEEbb"
  },
  {
   "binding":"weak",
   "name":"_ZN7android8hardware7details18getServiceInternalINS0_5radio6config4V1_023BpHwRadioConfigResponseENS5_20IRadioConfigResponseEvvEENS_2spIT0_EERKNSt3__112basic_stringIcNSB_11char_traitsIcEENSB_9allocatorIcEEEEbb"
  },
  {
   "binding":"weak",
   "name":"_ZN7android8hardware7details18getServiceInternalINS0_5radio6config4V1_025BpHwRadioConfigIndicationENS5_22IRadioConfigIndicationEvvEENS_2spIT0_EERKNSt3__112basic_stringIcNSB_11char_traitsIcEENSB_9allocatorIcEEEEbb"
  },
  {
   "binding":"weak",
   "name":"_ZN7android8hardware8toBinderINS0_5radio6config4V1_020IRadioConfigResponseEvEENS_2spINS0_7IBinderEEENS6_IT_EE"
  },
  {
   "binding":"weak",
   "name":"_ZN7android8hardware8toBinderINS0_5radio6config4V1_022IRadioConfigIndicationEvEENS_2spINS0_7IBinderEEENS6_IT_EE"
  },
  {
   "binding":"weak",
   "name":"_ZN7android8hardware8toBinderINS_4hidl4base4V1_05IBaseEvEENS_2spINS0_7IBinderEEENS6_IT_EE"
  },
  {
   "name":"_ZThn20_N7android8hardware5radio6config4V1_015BnHwRadioConfigD0Ev"
  },
  {
   "name":"_ZThn20_N7android8hardware5radio6config4V1_015BnHwRadioConfigD1Ev"
  },
  {
   "name":"_ZThn20_N7android8hardware5radio6config4V1_023BnHwRadioConfigResponseD0Ev"
  },
  {
   "name":"_ZThn20_N7android8hardware5radio6config4V1_023BnHwRadioConfigResponseD1Ev"
  },
  {
   "name":"_ZThn20_N7android8hardware5radio6config4V1_025BnHwRadioConfigIndicationD0Ev"
  },
  {
   "name":"_ZThn20_N7android8hardware5radio6config4V1_025BnHwRadioConfigIndicationD1Ev"
  },
  {
   "name":"_ZTv0_n12_N7android8hardware5radio6config4V1_015BnHwRadioConfigD0Ev"
  },
  {
   "name":"_ZTv0_n12_N7android8hardware5radio6config4V1_015BnHwRadioConfigD1Ev"
  },
  {
   "name":"_ZTv0_n12_N7android8hardware5radio6config4V1_023BnHwRadioConfigResponseD0Ev"
  },
  {
   "name":"_ZTv0_n12_N7android8hardware5radio6config4V1_023BnHwRadioConfigResponseD1Ev"
  },
  {
   "name":"_ZTv0_n12_N7android8hardware5radio6config4V1_025BnHwRadioConfigIndicationD0Ev"
  },
  {
   "name":"_ZTv0_n12_N7android8hardware5radio6config4V1_025BnHwRadioConfigIndicationD1Ev"
  }
 ],
 "elf_objects":[
  {
   "name":"_ZN7android8hardware5radio6config4V1_012IRadioConfig10descriptorE"
  },
  {
   "name":"_ZN7android8hardware5radio6config4V1_020IRadioConfigResponse10descriptorE"
  },
  {
   "name":"_ZN7android8hardware5radio6config4V1_022IRadioConfigIndication10descriptorE"
  },
  {
   "name":"_ZTTN7android8hardware5radio6config4V1_012IRadioConfigE"
  },
  {
   "name":"_ZTTN7android8hardware5radio6config4V1_015BnHwRadioConfigE"
  },
  {
   "name":"_ZTTN7android8hardware5radio6config4V1_015BpHwRadioConfigE"
  },
  {
   "name":"_ZTTN7android8hardware5radio6config4V1_020IRadioConfigResponseE"
  },
  {
   "name":"_ZTTN7android8hardware5radio6config4V1_022IRadioConfigIndicationE"
  },
  {
   "name":"_ZTTN7android8hardware5radio6config4V1_023BnHwRadioConfigResponseE"
  },
  {
   "name":"_ZTTN7android8hardware5radio6config4V1_023BpHwRadioConfigResponseE"
  },
  {
   "name":"_ZTTN7android8hardware5radio6config4V1_025BnHwRadioConfigIndicationE"
  },
  {
   "name":"_ZTTN7android8hardware5radio6config4V1_025BpHwRadioConfigIndicationE"
  },
  {
   "name":"_ZTVN7android8hardware5radio6config4V1_012IRadioConfigE"
  },
  {
   "binding":"weak",
   "name":"_ZTVN7android8hardware5radio6config4V1_013BsRadioConfigE"
  },
  {
   "name":"_ZTVN7android8hardware5radio6config4V1_015BnHwRadioConfigE"
  },
  {
   "name":"_ZTVN7android8hardware5radio6config4V1_015BpHwRadioConfigE"
  },
  {
   "name":"_ZTVN7android8hardware5radio6config4V1_020IRadioConfigResponseE"
  },
  {
   "binding":"weak",
   "name":"_ZTVN7android8hardware5radio6config4V1_021BsRadioConfigResponseE"
  },
  {
   "name":"_ZTVN7android8hardware5radio6config4V1_022IRadioConfigIndicationE"
  },
  {
   "name":"_ZTVN7android8hardware5radio6config4V1_023BnHwRadioConfigResponseE"
  },
  {
   "name":"_ZTVN7android8hardware5radio6config4V1_023BpHwRadioConfigResponseE"
  },
  {
   "binding":"weak",
   "name":"_ZTVN7android8hardware5radio6config4V1_023BsRadioConfigIndicationE"
  },
  {
   "name":"_ZTVN7android8hardware5radio6config4V1_025BnHwRadioConfigIndicationE"
  },
  {
   "name":"_ZTVN7android8hardware5radio6config4V1_025BpHwRadioConfigIndicationE"
  }
 ]
}