{
 "record_types":[
  {
   "vtable_components":[
    {
     "kind":"offset_to_top"
    },
    {
     "kind":"rtti",
     "mangled_component_name":"_ZTIN7android10VectorImplE"
    },
    {
     "kind":"complete_dtor_pointer",
     "mangled_component_name":"_ZN7android10VectorImplD1Ev"
    },
    {
     "kind":"deleting_dtor_pointer",
     "mangled_component_name":"_ZN7android10VectorImplD0Ev"
    },
    {
     "is_pure":true,
     "mangled_component_name":"_ZNK7android10VectorImpl12do_constructEPvj"
    },
    {
     "is_pure":true,
     "mangled_component_name":"_ZNK7android10VectorImpl10do_destroyEPvj"
    },
    {
     "is_pure":true,
     "mangled_component_name":"_ZNK7android10VectorImpl7do_copyEPvPKvj"
    },
    {
     "is_pure":true,
     "mangled_component_name":"_ZNK7android10VectorImpl8do_splatEPvPKvj"
    },
    {
     "is_pure":true,
     "mangled_component_name":"_ZNK7android10VectorImpl15do_move_forwardEPvPKvj"
    },
    {
     "is_pure":true,
     "mangled_component_name":"_ZNK7android10VectorImpl16do_move_backwardEPvPKvj"
    }
   ],
   "unique_id":"_ZTSN7android10VectorImplE"
  },
  {
   "vtable_components":[
    {
     "kind":"offset_to_top"
    },
    {
     "kind":"rtti",
     "mangled_component_name":"_ZTIN7android16SortedVectorImplE"
    },
    {
     "kind":"complete_dtor_pointer",
     "mangled_component_name":"_ZN7android16SortedVectorImplD1Ev"
    },
    {
     "kind":"deleting_dtor_pointer",
     "mangled_component_name":"_ZN7android16SortedVectorImplD0Ev"
    },
    {
     "is_pure":true,
     "mangled_component_name":"_ZNK7android10VectorImpl12do_constructEPvj"
    },
    {
     "is_pure":true,
     "mangled_component_name":"_ZNK7android10VectorImpl10do_destroyEPvj"
    },
    {
     "is_pure":true,
     "mangled_component_name":"_ZNK7android10VectorImpl7do_copyEPvPKvj"
    },
    {
     "is_pure":true,
     "mangled_component_name":"_ZNK7android10VectorImpl8do_splatEPvPKvj"
    },
    {
     "is_pure":true,
     "mangled_component_name":"_ZNK7android10VectorImpl15do_move_forwardEPvPKvj"
    },
    {
     "is_pure":true,
     "mangled_component_name":"_ZNK7android10VectorImpl16do_move_backwardEPvPKvj"
    },
    {
     "is_pure":true,
     "mangled_component_name":"_ZNK7android16SortedVectorImpl10do_compareEPKvS2_"
    }
   ],
   "unique_id":"_ZTSN7android16SortedVectorImplE"
  },
  {
   "vtable_components":[
    {
     "kind":"offset_to_top"
    },
    {
     "kind":"rtti",
     "mangled_component_name":"_ZTIN7android12SortedVectorINS_16key_value_pair_tINS_7String8ES2_EEEE"
    },
    {
     "kind":"complete_dtor_pointer",
     "mangled_component_name":"_ZN7android12SortedVectorINS_16key_value_pair_tINS_7String8ES2_EEED1Ev"
    },
    {
     "kind":"deleting_dtor_pointer",
     "mangled_component_name":"_ZN7android12SortedVectorINS_16key_value_pair_tINS_7String8ES2_EEED0Ev"
    },
    {
     "mangled_component_name":"_ZNK7android12SortedVectorINS_16key_value_pair_tINS_7String8ES2_EEE12do_constructEPvj"
    },
    {
     "mangled_component_name":"_ZNK7android12SortedVectorINS_16key_value_pair_tINS_7String8ES2_EEE10do_destroyEPvj"
    },
    {
     "mangled_component_name":"_ZNK7android12SortedVectorINS_16key_value_pair_tINS_7String8ES2_EEE7do_copyEPvPKvj"
    },
    {
     "mangled_component_name":"_ZNK7android12SortedVectorINS_16key_value_pair_tINS_7String8ES2_EEE8do_splatEPvPKvj"
    },
    {
     "mangled_component_name":"_ZNK7android12SortedVectorINS_16key_value_pair_tINS_7String8ES2_EEE15do_move_forwardEPvPKvj"
    },
    {
     "mangled_component_name":"_ZNK7android12SortedVectorINS_16key_value_pair_tINS_7String8ES2_EEE16do_move_backwardEPvPKvj"
    },
    {
     "mangled_component_name":"_ZNK7android12SortedVectorINS_16key_value_pair_tINS_7String8ES2_EEE10do_compareEPKvS6_"
    }
   ],
   "unique_id":"_ZTSN7android12SortedVectorINS_16key_value_pair_tINS_7String8ES2_EEEE"
  },
  {
   "vtable_components":[
    {
     "kind":"vbase_offset",
     "component_value":36
    },
    {
     "kind":"offset_to_top"
    },
    {
     "kind":"rtti",
     "mangled_component_name":"_ZTIN7android6ThreadE"
    },
    {
     "kind":"complete_dtor_pointer",
     "mangled_component_name":"_ZN7android6ThreadD1Ev"
    },
    {
     "kind":"deleting_dtor_pointer",
     "mangled_component_name":"_ZN7android6ThreadD0Ev"
    },
    {
     "mangled_component_name":"_ZN7android6Thread3runEPKcij"
    },
    {
     "mangled_component_name":"_ZN7android6Thread11requestExitEv"
    },
    {
     "mangled_component_name":"_ZN7android6Thread10readyToRunEv"
    },
    {
     "is_pure":true,
     "mangled_component_name":"_ZN7android6Thread10threadLoopEv"
    },
    {
     "kind":"vcall_offset"
    },
    {
     "kind":"vcall_offset"
    },
    {
     "kind":"vcall_offset"
    },
    {
     "kind":"vcall_offset"
    },
    {
     "kind":"vcall_offset",
     "component_value":-36
    },
    {
     "kind":"offset_to_top",
     "component_value":-36
    },
    {
     "kind":"rtti",
     "mangled_component_name":"_ZTIN7android6ThreadE"
    },
    {
     "kind":"complete_dtor_pointer",
     "mangled_component_name":"_ZTv0_n12_N7android6ThreadD1Ev"
    },
    {
     "kind":"deleting_dtor_pointer",
     "mangled_component_name":"_ZTv0_n12_N7android6ThreadD0Ev"
    },
    {
     "mangled_component_name":"_ZN7android7RefBase10onFirstRefEv"
    },
    {
     "mangled_component_name":"_ZN7android7RefBase15onLastStrongRefEPKv"
    },
    {
     "mangled_component_name":"_ZN7android7RefBase20onIncStrongAttemptedEjPKv"
    },
    {
     "mangled_component_name":"_ZN7android7RefBase13onLastWeakRefEPKv"
    }
   ],
   "unique_id":"_ZTSN7android6ThreadE"
  },
  {
   "vtable_components":[
    {
     "kind":"offset_to_top"
    },
    {
     "kind":"rtti",
     "mangled_component_name":"_ZTIN7android6VectorINS_6Looper15MessageEnvelopeEEE"
    },
    {
     "kind":"complete_dtor_pointer",
     "mangled_component_name":"_ZN7android6VectorINS_6Looper15MessageEnvelopeEED1Ev"
    },
    {
     "kind":"deleting_dtor_pointer",
     "mangled_component_name":"_ZN7android6VectorINS_6Looper15MessageEnvelopeEED0Ev"
    },
    {
     "mangled_component_name":"_ZNK7android6VectorINS_6Looper15MessageEnvelopeEE12do_constructEPvj"
    },
    {
     "mangled_component_name":"_ZNK7android6VectorINS_6Looper15MessageEnvelopeEE10do_destroyEPvj"
    },
    {
     "mangled_component_name":"_ZNK7android6VectorINS_6Looper15MessageEnvelopeEE7do_copyEPvPKvj"
    },
    {
     "mangled_component_name":"_ZNK7android6VectorINS_6Looper15MessageEnvelopeEE8do_splatEPvPKvj"
    },
    {
     "mangled_component_name":"_ZNK7android6VectorINS_6Looper15MessageEnvelopeEE15do_move_forwardEPvPKvj"
    },
    {
     "mangled_component_name":"_ZNK7android6VectorINS_6Looper15MessageEnvelopeEE16do_move_backwardEPvPKvj"
    }
   ],
   "unique_id":"_ZTSN7android6VectorINS_6Looper15MessageEnvelopeEEE"
  },
  {
   "vtable_components":[
    {
     "kind":"vbase_offset",
     "component_value":4
    },
    {
     "kind":"offset_to_top"
    },
    {
     "kind":"rtti",
     "mangled_component_name":"_ZTIN7android14MessageHandlerE"
    },
    {
     "kind":"complete_dtor_pointer",
     "mangled_component_name":"_ZN7android14MessageHandlerD1Ev"
    },
    {
     "kind":"deleting_dtor_pointer",
     "mangled_component_name":"_ZN7android14MessageHandlerD0Ev"
    },
    {
     "is_pure":true,
     "mangled_component_name":"_ZN7android14MessageHandler13handleMessageERKNS_7MessageE"
    },
    {
     "kind":"vcall_offset"
    },
    {
     "kind":"vcall_offset"
    },
    {
     "kind":"vcall_offset"
    },
    {
     "kind":"vcall_offset"
    },
    {
     "kind":"vcall_offset",
     "component_value":-4
    },
    {
     "kind":"offset_to_top",
     "component_value":-4
    },
    {
     "kind":"rtti",
     "mangled_component_name":"_ZTIN7android14MessageHandlerE"
    },
    {
     "kind":"complete_dtor_pointer",
     "mangled_component_name":"_ZTv0_n12_N7android14MessageHandlerD1Ev"
    },
    {
     "kind":"deleting_dtor_pointer",
     "mangled_component_name":"_ZTv0_n12_N7android14MessageHandlerD0Ev"
    },
    {
     "mangled_component_name":"_ZN7android7RefBase10onFirstRefEv"
    },
    {
     "mangled_component_name":"_ZN7android7RefBase15onLastStrongRefEPKv"
    },
    {
     "mangled_component_name":"_ZN7android7RefBase20onIncStrongAttemptedEjPKv"
    },
    {
     "mangled_component_name":"_ZN7android7RefBase13onLastWeakRefEPKv"
    }
   ],
   "unique_id":"_ZTSN7android14MessageHandlerE"
  },
  {
   "vtable_components":[
    {
     "kind":"offset_to_top"
    },
    {
     "kind":"rtti",
     "mangled_component_name":"_ZTIN7android12SortedVectorINS_16key_value_pair_tIiNS_6Looper7RequestEEEEE"
    },
    {
     "kind":"complete_dtor_pointer",
     "mangled_component_name":"_ZN7android12SortedVectorINS_16key_value_pair_tIiNS_6Looper7RequestEEEED1Ev"
    },
    {
     "kind":"deleting_dtor_pointer",
     "mangled_component_name":"_ZN7android12SortedVectorINS_16key_value_pair_tIiNS_6Looper7RequestEEEED0Ev"
    },
    {
     "mangled_component_name":"_ZNK7android12SortedVectorINS_16key_value_pair_tIiNS_6Looper7RequestEEEE12do_constructEPvj"
    },
    {
     "mangled_component_name":"_ZNK7android12SortedVectorINS_16key_value_pair_tIiNS_6Looper7RequestEEEE10do_destroyEPvj"
    },
    {
     "mangled_component_name":"_ZNK7android12SortedVectorINS_16key_value_pair_tIiNS_6Looper7RequestEEEE7do_copyEPvPKvj"
    },
    {
     "mangled_component_name":"_ZNK7android12SortedVectorINS_16key_value_pair_tIiNS_6Looper7RequestEEEE8do_splatEPvPKvj"
    },
    {
     "mangled_component_name":"_ZNK7android12SortedVectorINS_16key_value_pair_tIiNS_6Looper7RequestEEEE15do_move_forwardEPvPKvj"
    },
    {
     "mangled_component_name":"_ZNK7android12SortedVectorINS_16key_value_pair_tIiNS_6Looper7RequestEEEE16do_move_backwardEPvPKvj"
    },
    {
     "mangled_component_name":"_ZNK7android12SortedVectorINS_16key_value_pair_tIiNS_6Looper7RequestEEEE10do_compareEPKvS7_"
    }
   ],
   "unique_id":"_ZTSN7android12SortedVectorINS_16key_value_pair_tIiNS_6Looper7RequestEEEEE"
  },
  {
   "vtable_components":[
    {
     "kind":"vbase_offset",
     "component_value":4
    },
    {
     "kind":"offset_to_top"
    },
    {
     "kind":"rtti",
     "mangled_component_name":"_ZTIN7android14LooperCallbackE"
    },
    {
     "kind":"complete_dtor_pointer",
     "mangled_component_name":"_ZN7android14LooperCallbackD1Ev"
    },
    {
     "kind":"deleting_dtor_pointer",
     "mangled_component_name":"_ZN7android14LooperCallbackD0Ev"
    },
    {
     "is_pure":true,
     "mangled_component_name":"_ZN7android14LooperCallback11handleEventEiiPv"
    },
    {
     "kind":"vcall_offset"
    },
    {
     "kind":"vcall_offset"
    },
    {
     "kind":"vcall_offset"
    },
    {
     "kind":"vcall_offset"
    },
    {
     "kind":"vcall_offset",
     "component_value":-4
    },
    {
     "kind":"offset_to_top",
     "component_value":-4
    },
    {
     "kind":"rtti",
     "mangled_component_name":"_ZTIN7android14LooperCallbackE"
    },
    {
     "kind":"complete_dtor_pointer",
     "mangled_component_name":"_ZTv0_n12_N7android14LooperCallbackD1Ev"
    },
    {
     "kind":"deleting_dtor_pointer",
     "mangled_component_name":"_ZTv0_n12_N7android14LooperCallbackD0Ev"
    },
    {
     "mangled_component_name":"_ZN7android7RefBase10onFirstRefEv"
    },
    {
     "mangled_component_name":"_ZN7android7RefBase15onLastStrongRefEPKv"
    },
    {
     "mangled_component_name":"_ZN7android7RefBase20onIncStrongAttemptedEjPKv"
    },
    {
     "mangled_component_name":"_ZN7android7RefBase13onLastWeakRefEPKv"
    }
   ],
   "unique_id":"_ZTSN7android14LooperCallbackE"
  },
  {
   "vtable_components":[
    {
     "kind":"offset_to_top"
    },
    {
     "kind":"rtti",
     "mangled_component_name":"_ZTIN7android6VectorINS_6Looper8ResponseEEE"
    },
    {
     "kind":"complete_dtor_pointer",
     "mangled_component_name":"_ZN7android6VectorINS_6Looper8ResponseEED1Ev"
    },
    {
     "kind":"deleting_dtor_pointer",
     "mangled_component_name":"_ZN7android6VectorINS_6Looper8ResponseEED0Ev"
    },
    {
     "mangled_component_name":"_ZNK7android6VectorINS_6Looper8ResponseEE12do_constructEPvj"
    },
    {
     "mangled_component_name":"_ZNK7android6VectorINS_6Looper8ResponseEE10do_destroyEPvj"
    },
    {
     "mangled_component_name":"_ZNK7android6VectorINS_6Looper8ResponseEE7do_copyEPvPKvj"
    },
    {
     "mangled_component_name":"_ZNK7android6VectorINS_6Looper8ResponseEE8do_splatEPvPKvj"
    },
    {
     "mangled_component_name":"_ZNK7android6VectorINS_6Looper8ResponseEE15do_move_forwardEPvPKvj"
    },
    {
     "mangled_component_name":"_ZNK7android6VectorINS_6Looper8ResponseEE16do_move_backwardEPvPKvj"
    }
   ],
   "unique_id":"_ZTSN7android6VectorINS_6Looper8ResponseEEE"
  },
  {
   "vtable_components":[
    {
     "kind":"offset_to_top"
    },
    {
     "kind":"rtti",
     "mangled_component_name":"_ZTIN7android6LooperE"
    },
    {
     "kind":"complete_dtor_pointer",
     "mangled_component_name":"_ZN7android6LooperD1Ev"
    },
    {
     "kind":"deleting_dtor_pointer",
     "mangled_component_name":"_ZN7android6LooperD0Ev"
    },
    {
     "mangled_component_name":"_ZN7android7RefBase10onFirstRefEv"
    },
    {
     "mangled_component_name":"_ZN7android7RefBase15onLastStrongRefEPKv"
    },
    {
     "mangled_component_name":"_ZN7android7RefBase20onIncStrongAttemptedEjPKv"
    },
    {
     "mangled_component_name":"_ZN7android7RefBase13onLastWeakRefEPKv"
    }
   ],
   "unique_id":"_ZTSN7android6LooperE"
  },
  {
   "vtable_components":[
    {
     "kind":"vbase_offset",
     "component_value":12
    },
    {
     "kind":"offset_to_top"
    },
    {
     "kind":"rtti",
     "mangled_component_name":"_ZTIN7android18WeakMessageHandlerE"
    },
    {
     "kind":"complete_dtor_pointer",
     "mangled_component_name":"_ZN7android18WeakMessageHandlerD1Ev"
    },
    {
     "kind":"deleting_dtor_pointer",
     "mangled_component_name":"_ZN7android18WeakMessageHandlerD0Ev"
    },
    {
     "mangled_component_name":"_ZN7android18WeakMessageHandler13handleMessageERKNS_7MessageE"
    },
    {
     "kind":"vcall_offset"
    },
    {
     "kind":"vcall_offset"
    },
    {
     "kind":"vcall_offset"
    },
    {
     "kind":"vcall_offset"
    },
    {
     "kind":"vcall_offset",
     "component_value":-12
    },
    {
     "kind":"offset_to_top",
     "component_value":-12
    },
    {
     "kind":"rtti",
     "mangled_component_name":"_ZTIN7android18WeakMessageHandlerE"
    },
    {
     "kind":"complete_dtor_pointer",
     "mangled_component_name":"_ZTv0_n12_N7android18WeakMessageHandlerD1Ev"
    },
    {
     "kind":"deleting_dtor_pointer",
     "mangled_component_name":"_ZTv0_n12_N7android18WeakMessageHandlerD0Ev"
    },
    {
     "mangled_component_name":"_ZN7android7RefBase10onFirstRefEv"
    },
    {
     "mangled_component_name":"_ZN7android7RefBase15onLastStrongRefEPKv"
    },
    {
     "mangled_component_name":"_ZN7android7RefBase20onIncStrongAttemptedEjPKv"
    },
    {
     "mangled_component_name":"_ZN7android7RefBase13onLastWeakRefEPKv"
    }
   ],
   "unique_id":"_ZTSN7android18WeakMessageHandlerE"
  },
  {
   "vtable_components":[
    {
     "kind":"vbase_offset",
     "component_value":8
    },
    {
     "kind":"offset_to_top"
    },
    {
     "kind":"rtti",
     "mangled_component_name":"_ZTIN7android20SimpleLooperCallbackE"
    },
    {
     "kind":"complete_dtor_pointer",
     "mangled_component_name":"_ZN7android20SimpleLooperCallbackD1Ev"
    },
    {
     "kind":"deleting_dtor_pointer",
     "mangled_component_name":"_ZN7android20SimpleLooperCallbackD0Ev"
    },
    {
     "mangled_component_name":"_ZN7android20SimpleLooperCallback11handleEventEiiPv"
    },
    {
     "kind":"vcall_offset"
    },
    {
     "kind":"vcall_offset"
    },
    {
     "kind":"vcall_offset"
    },
    {
     "kind":"vcall_offset"
    },
    {
     "kind":"vcall_offset",
     "component_value":-8
    },
    {
     "kind":"offset_to_top",
     "component_value":-8
    },
    {
     "kind":"rtti",
     "mangled_component_name":"_ZTIN7android20SimpleLooperCallbackE"
    },
    {
     "kind":"complete_dtor_pointer",
     "mangled_component_name":"_ZTv0_n12_N7android20SimpleLooperCallbackD1Ev"
    },
    {
     "kind":"deleting_dtor_pointer",
     "mangled_component_name":"_ZTv0_n12_N7android20SimpleLooperCallbackD0Ev"
    },
    {
     "mangled_component_name":"_ZN7android7RefBase10onFirstRefEv"
    },
    {
     "mangled_component_name":"_ZN7android7RefBase15onLastStrongRefEPKv"
    },
    {
     "mangled_component_name":"_ZN7android7RefBase20onIncStrongAttemptedEjPKv"
    },
    {
     "mangled_component_name":"_ZN7android7RefBase13onLastWeakRefEPKv"
    }
   ],
   "unique_id":"_ZTSN7android20SimpleLooperCallbackE"
  },
  {
   "vtable_components":[
    {
     "kind":"offset_to_top"
    },
    {
     "kind":"rtti",
     "mangled_component_name":"_ZTIN7android7RefBaseE"
    },
    {
     "kind":"complete_dtor_pointer",
     "mangled_component_name":"_ZN7android7RefBaseD1Ev"
    },
    {
     "kind":"deleting_dtor_pointer",
     "mangled_component_name":"_ZN7android7RefBaseD0Ev"
    },
    {
     "mangled_component_name":"_ZN7android7RefBase10onFirstRefEv"
    },
    {
     "mangled_component_name":"_ZN7android7RefBase15onLastStrongRefEPKv"
    },
    {
     "mangled_component_name":"_ZN7android7RefBase20onIncStrongAttemptedEjPKv"
    },
    {
     "mangled_component_name":"_ZN7android7RefBase13onLastWeakRefEPKv"
    }
   ],
   "unique_id":"_ZTSN7android7RefBaseE"
  },
  {
   "vtable_components":[
    {
     "kind":"offset_to_top"
    },
    {
     "kind":"rtti",
     "mangled_component_name":"_ZTIN7android6VectorINS_28sysprop_change_callback_infoEEE"
    },
    {
     "kind":"complete_dtor_pointer",
     "mangled_component_name":"_ZN7android6VectorINS_28sysprop_change_callback_infoEED1Ev"
    },
    {
     "kind":"deleting_dtor_pointer",
     "mangled_component_name":"_ZN7android6VectorINS_28sysprop_change_callback_infoEED0Ev"
    },
    {
     "mangled_component_name":"_ZNK7android6VectorINS_28sysprop_change_callback_infoEE12do_constructEPvj"
    },
    {
     "mangled_component_name":"_ZNK7android6VectorINS_28sysprop_change_callback_infoEE10do_destroyEPvj"
    },
    {
     "mangled_component_name":"_ZNK7android6VectorINS_28sysprop_change_callback_infoEE7do_copyEPvPKvj"
    },
    {
     "mangled_component_name":"_ZNK7android6VectorINS_28sysprop_change_callback_infoEE8do_splatEPvPKvj"
    },
    {
     "mangled_component_name":"_ZNK7android6VectorINS_28sysprop_change_callback_infoEE15do_move_forwardEPvPKvj"
    },
    {
     "mangled_component_name":"_ZNK7android6VectorINS_28sysprop_change_callback_infoEE16do_move_backwardEPvPKvj"
    }
   ],
   "unique_id":"_ZTSN7android6VectorINS_28sysprop_change_callback_infoEEE"
  },
  {
   "vtable_components":[
    {
     "kind":"offset_to_top"
    },
    {
     "kind":"rtti",
     "mangled_component_name":"_ZTIN7android10LogPrinterE"
    },
    {
     "mangled_component_name":"_ZN7android10LogPrinter9printLineEPKc"
    },
    {
     "mangled_component_name":"_ZN7android7Printer15printFormatLineEPKcz"
    },
    {
     "kind":"complete_dtor_pointer",
     "mangled_component_name":"_ZN7android10LogPrinterD1Ev"
    },
    {
     "kind":"deleting_dtor_pointer",
     "mangled_component_name":"_ZN7android10LogPrinterD0Ev"
    }
   ],
   "unique_id":"_ZTSN7android10LogPrinterE"
  },
  {
   "vtable_components":[
    {
     "kind":"offset_to_top"
    },
    {
     "kind":"rtti",
     "mangled_component_name":"_ZTIN7android7PrinterE"
    },
    {
     "is_pure":true,
     "mangled_component_name":"_ZN7android7Printer9printLineEPKc"
    },
    {
     "mangled_component_name":"_ZN7android7Printer15printFormatLineEPKcz"
    },
    {
     "kind":"complete_dtor_pointer",
     "mangled_component_name":"_ZN7android7PrinterD1Ev"
    },
    {
     "kind":"deleting_dtor_pointer",
     "mangled_component_name":"_ZN7android7PrinterD0Ev"
    }
   ],
   "unique_id":"_ZTSN7android7PrinterE"
  },
  {
   "vtable_components":[
    {
     "kind":"offset_to_top"
    },
    {
     "kind":"rtti",
     "mangled_component_name":"_ZTIN7android9FdPrinterE"
    },
    {
     "mangled_component_name":"_ZN7android9FdPrinter9printLineEPKc"
    },
    {
     "mangled_component_name":"_ZN7android7Printer15printFormatLineEPKcz"
    },
    {
     "kind":"complete_dtor_pointer",
     "mangled_component_name":"_ZN7android9FdPrinterD1Ev"
    },
    {
     "kind":"deleting_dtor_pointer",
     "mangled_component_name":"_ZN7android9FdPrinterD0Ev"
    }
   ],
   "unique_id":"_ZTSN7android9FdPrinterE"
  },
  {
   "vtable_components":[
    {
     "kind":"offset_to_top"
    },
    {
     "kind":"rtti",
     "mangled_component_name":"_ZTIN7android14String8PrinterE"
    },
    {
     "mangled_component_name":"_ZN7android14String8Printer9printLineEPKc"
    },
    {
     "mangled_component_name":"_ZN7android7Printer15printFormatLineEPKcz"
    },
    {
     "kind":"complete_dtor_pointer",
     "mangled_component_name":"_ZN7android14String8PrinterD1Ev"
    },
    {
     "kind":"deleting_dtor_pointer",
     "mangled_component_name":"_ZN7android14String8PrinterD0Ev"
    }
   ],
   "unique_id":"_ZTSN7android14String8PrinterE"
  },
  {
   "vtable_components":[
    {
     "kind":"offset_to_top"
    },
    {
     "kind":"rtti",
     "mangled_component_name":"_ZTIN7android13PrefixPrinterE"
    },
    {
     "mangled_component_name":"_ZN7android13PrefixPrinter9printLineEPKc"
    },
    {
     "mangled_component_name":"_ZN7android7Printer15printFormatLineEPKcz"
    },
    {
     "kind":"complete_dtor_pointer",
     "mangled_component_name":"_ZN7android13PrefixPrinterD1Ev"
    },
    {
     "kind":"deleting_dtor_pointer",
     "mangled_component_name":"_ZN7android13PrefixPrinterD0Ev"
    }
   ],
   "unique_id":"_ZTSN7android13PrefixPrinterE"
  }
 ],
 "elf_functions":[
  {
   "name":"_ZN7android10LogPrinter8printRawEPKc"
  },
  {
   "name":"_ZN7android10LogPrinter9printLineEPKc"
  },
  {
   "name":"_ZN7android10LogPrinterC1EPKc19android_LogPriorityS2_b"
  },
  {
   "name":"_ZN7android10LogPrinterC2EPKc19android_LogPriorityS2_b"
  },
  {
   "name":"_ZN7android10VectorImpl11appendArrayEPKvj"
  },
  {
   "name":"_ZN7android10VectorImpl11setCapacityEj"
  },
  {
   "name":"_ZN7android10VectorImpl12appendVectorERKS0_"
  },
  {
   "name":"_ZN7android10VectorImpl13editArrayImplEv"
  },
  {
   "name":"_ZN7android10VectorImpl13finish_vectorEv"
  },
  {
   "name":"_ZN7android10VectorImpl13insertArrayAtEPKvjj"
  },
  {
   "name":"_ZN7android10VectorImpl13removeItemsAtEjj"
  },
  {
   "name":"_ZN7android10VectorImpl14insertVectorAtERKS0_j"
  },
  {
   "name":"_ZN7android10VectorImpl15release_storageEv"
  },
  {
   "name":"_ZN7android10VectorImpl16editItemLocationEj"
  },
  {
   "name":"_ZN7android10VectorImpl3addEPKv"
  },
  {
   "name":"_ZN7android10VectorImpl3addEv"
  },
  {
   "name":"_ZN7android10VectorImpl3popEv"
  },
  {
   "name":"_ZN7android10VectorImpl4pushEPKv"
  },
  {
   "name":"_ZN7android10VectorImpl4pushEv"
  },
  {
   "name":"_ZN7android10VectorImpl4sortEPFiPKvS2_E"
  },
  {
   "name":"_ZN7android10VectorImpl4sortEPFiPKvS2_PvES3_"
  },
  {
   "name":"_ZN7android10VectorImpl5_growEjj"
  },
  {
   "name":"_ZN7android10VectorImpl5clearEv"
  },
  {
   "name":"_ZN7android10VectorImpl6resizeEj"
  },
  {
   "name":"_ZN7android10VectorImpl7_shrinkEjj"
  },
  {
   "name":"_ZN7android10VectorImpl8insertAtEPKvjj"
  },
  {
   "name":"_ZN7android10VectorImpl8insertAtEjj"
  },
  {
   "name":"_ZN7android10VectorImpl9replaceAtEPKvj"
  },
  {
   "name":"_ZN7android10VectorImpl9replaceAtEj"
  },
  {
   "name":"_ZN7android10VectorImplC2ERKS0_"
  },
  {
   "name":"_ZN7android10VectorImplC2Ejj"
  },
  {
   "name":"_ZN7android10VectorImplD0Ev"
  },
  {
   "name":"_ZN7android10VectorImplD1Ev"
  },
  {
   "name":"_ZN7android10VectorImplD2Ev"
  },
  {
   "name":"_ZN7android10VectorImplaSERKS0_"
  },
  {
   "name":"_ZN7android11PropertyMap11addPropertyERKNS_7String8ES3_"
  },
  {
   "name":"_ZN7android11PropertyMap4loadERKNS_7String8EPPS0_"
  },
  {
   "name":"_ZN7android11PropertyMap5clearEv"
  },
  {
   "name":"_ZN7android11PropertyMap6Parser5parseEv"
  },
  {
   "name":"_ZN7android11PropertyMap6ParserC1EPS0_PNS_9TokenizerE"
  },
  {
   "name":"_ZN7android11PropertyMap6ParserC2EPS0_PNS_9TokenizerE"
  },
  {
   "name":"_ZN7android11PropertyMap6ParserD1Ev"
  },
  {
   "name":"_ZN7android11PropertyMap6ParserD2Ev"
  },
  {
   "name":"_ZN7android11PropertyMap6addAllEPKS0_"
  },
  {
   "name":"_ZN7android11PropertyMapC1Ev"
  },
  {
   "name":"_ZN7android11PropertyMapC2Ev"
  },
  {
   "name":"_ZN7android11PropertyMapD1Ev"
  },
  {
   "name":"_ZN7android11PropertyMapD2Ev"
  },
  {
   "name":"_ZN7android12NativeHandle6createEP13native_handleb"
  },
  {
   "name":"_ZN7android12NativeHandleC1EP13native_handleb"
  },
  {
   "name":"_ZN7android12NativeHandleC2EP13native_handleb"
  },
  {
   "name":"_ZN7android12NativeHandleD1Ev"
  },
  {
   "name":"_ZN7android12NativeHandleD2Ev"
  },
  {
   "name":"_ZN7android12uptimeMillisEv"
  },
  {
   "name":"_ZN7android13PrefixPrinter9printLineEPKc"
  },
  {
   "name":"_ZN7android13PrefixPrinterC1ERNS_7PrinterEPKc"
  },
  {
   "name":"_ZN7android13PrefixPrinterC2ERNS_7PrinterEPKc"
  },
  {
   "name":"_ZN7android14LooperCallbackD0Ev"
  },
  {
   "name":"_ZN7android14LooperCallbackD1Ev"
  },
  {
   "name":"_ZN7android14LooperCallbackD2Ev"
  },
  {
   "name":"_ZN7android14MessageHandlerD0Ev"
  },
  {
   "name":"_ZN7android14MessageHandlerD1Ev"
  },
  {
   "name":"_ZN7android14MessageHandlerD2Ev"
  },
  {
   "name":"_ZN7android14String8Printer9printLineEPKc"
  },
  {
   "name":"_ZN7android14String8PrinterC1EPNS_7String8EPKc"
  },
  {
   "name":"_ZN7android14String8PrinterC2EPNS_7String8EPKc"
  },
  {
   "name":"_ZN7android15elapsedRealtimeEv"
  },
  {
   "name":"_ZN7android16SortedVectorImpl3addEPKv"
  },
  {
   "name":"_ZN7android16SortedVectorImpl5mergeERKNS_10VectorImplE"
  },
  {
   "name":"_ZN7android16SortedVectorImpl5mergeERKS0_"
  },
  {
   "name":"_ZN7android16SortedVectorImpl6removeEPKv"
  },
  {
   "name":"_ZN7android16SortedVectorImplC2ERKNS_10VectorImplE"
  },
  {
   "name":"_ZN7android16SortedVectorImplC2Ejj"
  },
  {
   "name":"_ZN7android16SortedVectorImplD0Ev"
  },
  {
   "name":"_ZN7android16SortedVectorImplD1Ev"
  },
  {
   "name":"_ZN7android16SortedVectorImplD2Ev"
  },
  {
   "name":"_ZN7android16SortedVectorImplaSERKS0_"
  },
  {
   "name":"_ZN7android17JenkinsHashWhitenEj"
  },
  {
   "name":"_ZN7android18WeakMessageHandler13handleMessageERKNS_7MessageE"
  },
  {
   "name":"_ZN7android18WeakMessageHandlerC1ERKNS_2wpINS_14MessageHandlerEEE"
  },
  {
   "name":"_ZN7android18WeakMessageHandlerC2ERKNS_2wpINS_14MessageHandlerEEE"
  },
  {
   "name":"_ZN7android18WeakMessageHandlerD0Ev"
  },
  {
   "name":"_ZN7android18WeakMessageHandlerD1Ev"
  },
  {
   "name":"_ZN7android18WeakMessageHandlerD2Ev"
  },
  {
   "name":"_ZN7android19JenkinsHashMixBytesEjPKhj"
  },
  {
   "name":"_ZN7android19elapsedRealtimeNanoEv"
  },
  {
   "name":"_ZN7android20JenkinsHashMixShortsEjPKtj"
  },
  {
   "name":"_ZN7android20SimpleLooperCallback11handleEventEiiPv"
  },
  {
   "name":"_ZN7android20SimpleLooperCallbackC1EPFiiiPvE"
  },
  {
   "name":"_ZN7android20SimpleLooperCallbackC2EPFiiiPvE"
  },
  {
   "name":"_ZN7android20SimpleLooperCallbackD0Ev"
  },
  {
   "name":"_ZN7android20SimpleLooperCallbackD1Ev"
  },
  {
   "name":"_ZN7android20SimpleLooperCallbackD2Ev"
  },
  {
   "name":"_ZN7android21report_sysprop_changeEv"
  },
  {
   "name":"_ZN7android27add_sysprop_change_callbackEPFvvEi"
  },
  {
   "name":"_ZN7android6Looper10initTLSKeyEv"
  },
  {
   "name":"_ZN7android6Looper11sendMessageERKNS_2spINS_14MessageHandlerEEERKNS_7MessageE"
  },
  {
   "name":"_ZN7android6Looper12getForThreadEv"
  },
  {
   "name":"_ZN7android6Looper12pushResponseEiRKNS0_7RequestE"
  },
  {
   "name":"_ZN7android6Looper12setForThreadERKNS_2spIS0_EE"
  },
  {
   "name":"_ZN7android6Looper14removeMessagesERKNS_2spINS_14MessageHandlerEEE"
  },
  {
   "name":"_ZN7android6Looper14removeMessagesERKNS_2spINS_14MessageHandlerEEEi"
  },
  {
   "name":"_ZN7android6Looper16threadDestructorEPv"
  },
  {
   "name":"_ZN7android6Looper17sendMessageAtTimeExRKNS_2spINS_14MessageHandlerEEERKNS_7MessageE"
  },
  {
   "name":"_ZN7android6Looper18rebuildEpollLockedEv"
  },
  {
   "name":"_ZN7android6Looper18sendMessageDelayedExRKNS_2spINS_14MessageHandlerEEERKNS_7MessageE"
  },
  {
   "name":"_ZN7android6Looper26scheduleEpollRebuildLockedEv"
  },
  {
   "name":"_ZN7android6Looper4wakeEv"
  },
  {
   "name":"_ZN7android6Looper5addFdEiiiPFiiiPvES1_"
  },
  {
   "name":"_ZN7android6Looper5addFdEiiiRKNS_2spINS_14LooperCallbackEEEPv"
  },
  {
   "name":"_ZN7android6Looper6awokenEv"
  },
  {
   "name":"_ZN7android6Looper7pollAllEiPiS1_PPv"
  },
  {
   "name":"_ZN7android6Looper7prepareEi"
  },
  {
   "name":"_ZN7android6Looper8pollOnceEiPiS1_PPv"
  },
  {
   "name":"_ZN7android6Looper8removeFdEi"
  },
  {
   "name":"_ZN7android6Looper8removeFdEii"
  },
  {
   "name":"_ZN7android6Looper9pollInnerEi"
  },
  {
   "name":"_ZN7android6LooperC1Eb"
  },
  {
   "name":"_ZN7android6LooperC2Eb"
  },
  {
   "name":"_ZN7android6LooperD0Ev"
  },
  {
   "name":"_ZN7android6LooperD1Ev"
  },
  {
   "name":"_ZN7android6LooperD2Ev"
  },
  {
   "name":"_ZN7android6Thread10readyToRunEv"
  },
  {
   "name":"_ZN7android6Thread11_threadLoopEPv"
  },
  {
   "name":"_ZN7android6Thread11requestExitEv"
  },
  {
   "name":"_ZN7android6Thread18requestExitAndWaitEv"
  },
  {
   "name":"_ZN7android6Thread3runEPKcij"
  },
  {
   "name":"_ZN7android6Thread4joinEv"
  },
  {
   "name":"_ZN7android6ThreadC2Eb"
  },
  {
   "name":"_ZN7android6ThreadD0Ev"
  },
  {
   "name":"_ZN7android6ThreadD1Ev"
  },
  {
   "name":"_ZN7android6ThreadD2Ev"
  },
  {
   "name":"_ZN7android7FileMap6adviseENS0_9MapAdviceE"
  },
  {
   "name":"_ZN7android7FileMap6createEPKcixjb"
  },
  {
   "name":"_ZN7android7FileMapC1EOS0_"
  },
  {
   "name":"_ZN7android7FileMapC1Ev"
  },
  {
   "name":"_ZN7android7FileMapC2EOS0_"
  },
  {
   "name":"_ZN7android7FileMapC2Ev"
  },
  {
   "name":"_ZN7android7FileMapD1Ev"
  },
  {
   "name":"_ZN7android7FileMapD2Ev"
  },
  {
   "name":"_ZN7android7FileMapaSEOS0_"
  },
  {
   "name":"_ZN7android7Printer15printFormatLineEPKcz"
  },
  {
   "name":"_ZN7android7PrinterC2Ev"
  },
  {
   "name":"_ZN7android7PrinterD0Ev"
  },
  {
   "name":"_ZN7android7PrinterD1Ev"
  },
  {
   "name":"_ZN7android7PrinterD2Ev"
  },
  {
   "name":"_ZN7android7RefBase10onFirstRefEv"
  },
  {
   "name":"_ZN7android7RefBase10renameRefsEjRKNS_16ReferenceRenamerE"
  },
  {
   "name":"_ZN7android7RefBase11renameRefIdEPNS0_12weakref_typeEPKvS4_"
  },
  {
   "name":"_ZN7android7RefBase11renameRefIdEPS0_PKvS3_"
  },
  {
   "name":"_ZN7android7RefBase12weakref_type14attemptIncWeakEPKv"
  },
  {
   "name":"_ZN7android7RefBase12weakref_type16attemptIncStrongEPKv"
  },
  {
   "name":"_ZN7android7RefBase12weakref_type7decWeakEPKv"
  },
  {
   "name":"_ZN7android7RefBase12weakref_type7incWeakEPKv"
  },
  {
   "name":"_ZN7android7RefBase12weakref_type7trackMeEbb"
  },
  {
   "name":"_ZN7android7RefBase13onLastWeakRefEPKv"
  },
  {
   "name":"_ZN7android7RefBase15onLastStrongRefEPKv"
  },
  {
   "name":"_ZN7android7RefBase20extendObjectLifetimeEi"
  },
  {
   "name":"_ZN7android7RefBase20onIncStrongAttemptedEjPKv"
  },
  {
   "name":"_ZN7android7RefBaseC1Ev"
  },
  {
   "name":"_ZN7android7RefBaseC2Ev"
  },
  {
   "name":"_ZN7android7RefBaseD0Ev"
  },
  {
   "name":"_ZN7android7RefBaseD1Ev"
  },
  {
   "name":"_ZN7android7RefBaseD2Ev"
  },
  {
   "name":"_ZN7android7String810appendPathEPKc"
  },
  {
   "name":"_ZN7android7String810lockBufferEj"
  },
  {
   "name":"_ZN7android7String811real_appendEPKcj"
  },
  {
   "name":"_ZN7android7String811setPathNameEPKc"
  },
  {
   "name":"_ZN7android7String811setPathNameEPKcj"
  },
  {
   "name":"_ZN7android7String812appendFormatEPKcz"
  },
  {
   "name":"_ZN7android7String812unlockBufferEj"
  },
  {
   "name":"_ZN7android7String812unlockBufferEv"
  },
  {
   "name":"_ZN7android7String813appendFormatVEPKcPc"
  },
  {
   "name":"_ZN7android7String816convertToResPathEv"
  },
  {
   "name":"_ZN7android7String85clearEv"
  },
  {
   "name":"_ZN7android7String85setToEPKDij"
  },
  {
   "name":"_ZN7android7String85setToEPKDsj"
  },
  {
   "name":"_ZN7android7String85setToEPKc"
  },
  {
   "name":"_ZN7android7String85setToEPKcj"
  },
  {
   "name":"_ZN7android7String85setToERKS0_"
  },
  {
   "name":"_ZN7android7String86appendEPKc"
  },
  {
   "name":"_ZN7android7String86appendEPKcj"
  },
  {
   "name":"_ZN7android7String86appendERKS0_"
  },
  {
   "name":"_ZN7android7String86formatEPKcz"
  },
  {
   "name":"_ZN7android7String87formatVEPKcPc"
  },
  {
   "name":"_ZN7android7String87toLowerEjj"
  },
  {
   "name":"_ZN7android7String87toLowerEv"
  },
  {
   "name":"_ZN7android7String87toUpperEjj"
  },
  {
   "name":"_ZN7android7String87toUpperEv"
  },
  {
   "name":"_ZN7android7String89removeAllEPKc"
  },
  {
   "name":"_ZN7android7String8C1ENS0_13StaticLinkageE"
  },
  {
   "name":"_ZN7android7String8C1EPKDi"
  },
  {
   "name":"_ZN7android7String8C1EPKDij"
  },
  {
   "name":"_ZN7android7String8C1EPKDs"
  },
  {
   "name":"_ZN7android7String8C1EPKDsj"
  },
  {
   "name":"_ZN7android7String8C1EPKc"
  },
  {
   "name":"_ZN7android7String8C1EPKcj"
  },
  {
   "name":"_ZN7android7String8C1ERKNS_8String16E"
  },
  {
   "name":"_ZN7android7String8C1ERKS0_"
  },
  {
   "name":"_ZN7android7String8C1Ev"
  },
  {
   "name":"_ZN7android7String8C2ENS0_13StaticLinkageE"
  },
  {
   "name":"_ZN7android7String8C2EPKDi"
  },
  {
   "name":"_ZN7android7String8C2EPKDij"
  },
  {
   "name":"_ZN7android7String8C2EPKDs"
  },
  {
   "name":"_ZN7android7String8C2EPKDsj"
  },
  {
   "name":"_ZN7android7String8C2EPKc"
  },
  {
   "name":"_ZN7android7String8C2EPKcj"
  },
  {
   "name":"_ZN7android7String8C2ERKNS_8String16E"
  },
  {
   "name":"_ZN7android7String8C2ERKS0_"
  },
  {
   "name":"_ZN7android7String8C2Ev"
  },
  {
   "name":"_ZN7android7String8D1Ev"
  },
  {
   "name":"_ZN7android7String8D2Ev"
  },
  {
   "name":"_ZN7android8String1610replaceAllEDsDs"
  },
  {
   "name":"_ZN7android8String165setToEPKDs"
  },
  {
   "name":"_ZN7android8String165setToEPKDsj"
  },
  {
   "name":"_ZN7android8String165setToERKS0_"
  },
  {
   "name":"_ZN7android8String165setToERKS0_jj"
  },
  {
   "name":"_ZN7android8String166appendEPKDsj"
  },
  {
   "name":"_ZN7android8String166appendERKS0_"
  },
  {
   "name":"_ZN7android8String166insertEjPKDs"
  },
  {
   "name":"_ZN7android8String166insertEjPKDsj"
  },
  {
   "name":"_ZN7android8String166removeEjj"
  },
  {
   "name":"_ZN7android8String169makeLowerEv"
  },
  {
   "name":"_ZN7android8String16C1ENS0_13StaticLinkageE"
  },
  {
   "name":"_ZN7android8String16C1EPKDs"
  },
  {
   "name":"_ZN7android8String16C1EPKDsj"
  },
  {
   "name":"_ZN7android8String16C1EPKc"
  },
  {
   "name":"_ZN7android8String16C1EPKcj"
  },
  {
   "name":"_ZN7android8String16C1ERKNS_7String8E"
  },
  {
   "name":"_ZN7android8String16C1ERKS0_"
  },
  {
   "name":"_ZN7android8String16C1ERKS0_jj"
  },
  {
   "name":"_ZN7android8String16C1Ev"
  },
  {
   "name":"_ZN7android8String16C2ENS0_13StaticLinkageE"
  },
  {
   "name":"_ZN7android8String16C2EPKDs"
  },
  {
   "name":"_ZN7android8String16C2EPKDsj"
  },
  {
   "name":"_ZN7android8String16C2EPKc"
  },
  {
   "name":"_ZN7android8String16C2EPKcj"
  },
  {
   "name":"_ZN7android8String16C2ERKNS_7String8E"
  },
  {
   "name":"_ZN7android8String16C2ERKS0_"
  },
  {
   "name":"_ZN7android8String16C2ERKS0_jj"
  },
  {
   "name":"_ZN7android8String16C2Ev"
  },
  {
   "name":"_ZN7android8String16D1Ev"
  },
  {
   "name":"_ZN7android8String16D2Ev"
  },
  {
   "name":"_ZN7android9FdPrinter9printLineEPKc"
  },
  {
   "name":"_ZN7android9FdPrinterC1EijPKc"
  },
  {
   "name":"_ZN7android9FdPrinterC2EijPKc"
  },
  {
   "name":"_ZN7android9StopWatch3lapEv"
  },
  {
   "name":"_ZN7android9StopWatch5resetEv"
  },
  {
   "name":"_ZN7android9StopWatchC1EPKci"
  },
  {
   "name":"_ZN7android9StopWatchC2EPKci"
  },
  {
   "name":"_ZN7android9StopWatchD1Ev"
  },
  {
   "name":"_ZN7android9StopWatchD2Ev"
  },
  {
   "name":"_ZN7android9Tokenizer12fromContentsERKNS_7String8EPKcPPS0_"
  },
  {
   "name":"_ZN7android9Tokenizer14skipDelimitersEPKc"
  },
  {
   "name":"_ZN7android9Tokenizer4openERKNS_7String8EPPS0_"
  },
  {
   "name":"_ZN7android9Tokenizer8nextLineEv"
  },
  {
   "name":"_ZN7android9Tokenizer9nextTokenEPKc"
  },
  {
   "name":"_ZN7android9TokenizerC1ERKNS_7String8EPNS_7FileMapEPcbj"
  },
  {
   "name":"_ZN7android9TokenizerC2ERKNS_7String8EPNS_7FileMapEPcbj"
  },
  {
   "name":"_ZN7android9TokenizerD1Ev"
  },
  {
   "name":"_ZN7android9TokenizerD2Ev"
  },
  {
   "name":"_ZNK7android10VectorImpl12itemLocationEj"
  },
  {
   "name":"_ZNK7android10VectorImpl8capacityEv"
  },
  {
   "name":"_ZNK7android10VectorImpl8itemSizeEv"
  },
  {
   "name":"_ZNK7android11PropertyMap11hasPropertyERKNS_7String8E"
  },
  {
   "name":"_ZNK7android11PropertyMap14tryGetPropertyERKNS_7String8ERS1_"
  },
  {
   "name":"_ZNK7android11PropertyMap14tryGetPropertyERKNS_7String8ERb"
  },
  {
   "name":"_ZNK7android11PropertyMap14tryGetPropertyERKNS_7String8ERf"
  },
  {
   "name":"_ZNK7android11PropertyMap14tryGetPropertyERKNS_7String8ERi"
  },
  {
   "binding":"weak",
   "name":"_ZNK7android12SortedVectorINS_16key_value_pair_tINS_7String8ES2_EEE10do_compareEPKvS6_"
  },
  {
   "binding":"weak",
   "name":"_ZNK7android12SortedVectorINS_16key_value_pair_tINS_7String8ES2_EEE10do_destroyEPvj"
  },
  {
   "binding":"weak",
   "name":"_ZNK7android12SortedVectorINS_16key_value_pair_tINS_7String8ES2_EEE12do_constructEPvj"
  },
  {
   "binding":"weak",
   "name":"_ZNK7android12SortedVectorINS_16key_value_pair_tINS_7String8ES2_EEE15do_move_forwardEPvPKvj"
  },
  {
   "binding":"weak",
   "name":"_ZNK7android12SortedVectorINS_16key_value_pair_tINS_7String8ES2_EEE16do_move_backwardEPvPKvj"
  },
  {
   "binding":"weak",
   "name":"_ZNK7android12SortedVectorINS_16key_value_pair_tINS_7String8ES2_EEE7do_copyEPvPKvj"
  },
  {
   "binding":"weak",
   "name":"_ZNK7android12SortedVectorINS_16key_value_pair_tINS_7String8ES2_EEE8do_splatEPvPKvj"
  },
  {
   "binding":"weak",
   "name":"_ZNK7android12SortedVectorINS_16key_value_pair_tIiNS_6Looper7RequestEEEE10do_compareEPKvS7_"
  },
  {
   "binding":"weak",
   "name":"_ZNK7android12SortedVectorINS_16key_value_pair_tIiNS_6Looper7RequestEEEE10do_destroyEPvj"
  },
  {
   "binding":"weak",
   "name":"_ZNK7android12SortedVectorINS_16key_value_pair_tIiNS_6Looper7RequestEEEE12do_constructEPvj"
  },
  {
   "binding":"weak",
   "name":"_ZNK7android12SortedVectorINS_16key_value_pair_tIiNS_6Looper7RequestEEEE15do_move_forwardEPvPKvj"
  },
  {
   "binding":"weak",
   "name":"_ZNK7android12SortedVectorINS_16key_value_pair_tIiNS_6Looper7RequestEEEE16do_move_backwardEPvPKvj"
  },
  {
   "binding":"weak",
   "name":"_ZNK7android12SortedVectorINS_16key_value_pair_tIiNS_6Looper7RequestEEEE7do_copyEPvPKvj"
  },
  {
   "binding":"weak",
   "name":"_ZNK7android12SortedVectorINS_16key_value_pair_tIiNS_6Looper7RequestEEEE8do_splatEPvPKvj"
  },
  {
   "name":"_ZNK7android16SortedVectorImpl13_indexOrderOfEPKvPj"
  },
  {
   "name":"_ZNK7android16SortedVectorImpl7indexOfEPKv"
  },
  {
   "name":"_ZNK7android16SortedVectorImpl7orderOfEPKv"
  },
  {
   "name":"_ZNK7android6Looper20getAllowNonCallbacksEv"
  },
  {
   "name":"_ZNK7android6Looper7Request13initEventItemEP11epoll_event"
  },
  {
   "name":"_ZNK7android6Looper9isPollingEv"
  },
  {
   "name":"_ZNK7android6Thread11exitPendingEv"
  },
  {
   "name":"_ZNK7android6Thread6getTidEv"
  },
  {
   "name":"_ZNK7android6Thread9isRunningEv"
  },
  {
   "binding":"weak",
   "name":"_ZNK7android6VectorINS_28sysprop_change_callback_infoEE10do_destroyEPvj"
  },
  {
   "binding":"weak",
   "name":"_ZNK7android6VectorINS_28sysprop_change_callback_infoEE12do_constructEPvj"
  },
  {
   "binding":"weak",
   "name":"_ZNK7android6VectorINS_28sysprop_change_callback_infoEE15do_move_forwardEPvPKvj"
  },
  {
   "binding":"weak",
   "name":"_ZNK7android6VectorINS_28sysprop_change_callback_infoEE16do_move_backwardEPvPKvj"
  },
  {
   "binding":"weak",
   "name":"_ZNK7android6VectorINS_28sysprop_change_callback_infoEE7do_copyEPvPKvj"
  },
  {
   "binding":"weak",
   "name":"_ZNK7android6VectorINS_28sysprop_change_callback_infoEE8do_splatEPvPKvj"
  },
  {
   "binding":"weak",
   "name":"_ZNK7android6VectorINS_6Looper15MessageEnvelopeEE10do_destroyEPvj"
  },
  {
   "binding":"weak",
   "name":"_ZNK7android6VectorINS_6Looper15MessageEnvelopeEE12do_constructEPvj"
  },
  {
   "binding":"weak",
   "name":"_ZNK7android6VectorINS_6Looper15MessageEnvelopeEE15do_move_forwardEPvPKvj"
  },
  {
   "binding":"weak",
   "name":"_ZNK7android6VectorINS_6Looper15MessageEnvelopeEE16do_move_backwardEPvPKvj"
  },
  {
   "binding":"weak",
   "name":"_ZNK7android6VectorINS_6Looper15MessageEnvelopeEE7do_copyEPvPKvj"
  },
  {
   "binding":"weak",
   "name":"_ZNK7android6VectorINS_6Looper15MessageEnvelopeEE8do_splatEPvPKvj"
  },
  {
   "binding":"weak",
   "name":"_ZNK7android6VectorINS_6Looper8ResponseEE10do_destroyEPvj"
  },
  {
   "binding":"weak",
   "name":"_ZNK7android6VectorINS_6Looper8ResponseEE12do_constructEPvj"
  },
  {
   "binding":"weak",
   "name":"_ZNK7android6VectorINS_6Looper8ResponseEE15do_move_forwardEPvPKvj"
  },
  {
   "binding":"weak",
   "name":"_ZNK7android6VectorINS_6Looper8ResponseEE16do_move_backwardEPvPKvj"
  },
  {
   "binding":"weak",
   "name":"_ZNK7android6VectorINS_6Looper8ResponseEE7do_copyEPvPKvj"
  },
  {
   "binding":"weak",
   "name":"_ZNK7android6VectorINS_6Looper8ResponseEE8do_splatEPvPKvj"
  },
  {
   "name":"_ZNK7android7RefBase10createWeakEPKv"
  },
  {
   "name":"_ZNK7android7RefBase11getWeakRefsEv"
  },
  {
   "name":"_ZNK7android7RefBase12weakref_type12getWeakCountEv"
  },
  {
   "name":"_ZNK7android7RefBase12weakref_type7refBaseEv"
  },
  {
   "name":"_ZNK7android7RefBase12weakref_type9printRefsEv"
  },
  {
   "name":"_ZNK7android7RefBase14forceIncStrongEPKv"
  },
  {
   "name":"_ZNK7android7RefBase14getStrongCountEv"
  },
  {
   "name":"_ZNK7android7RefBase9decStrongEPKv"
  },
  {
   "name":"_ZNK7android7RefBase9incStrongEPKv"
  },
  {
   "name":"_ZNK7android7String810getPathDirEv"
  },
  {
   "name":"_ZNK7android7String810getUtf32AtEjPj"
  },
  {
   "name":"_ZNK7android7String811getBasePathEv"
  },
  {
   "name":"_ZNK7android7String811getPathLeafEv"
  },
  {
   "name":"_ZNK7android7String814find_extensionEv"
  },
  {
   "name":"_ZNK7android7String814getUtf32LengthEv"
  },
  {
   "name":"_ZNK7android7String816getPathExtensionEv"
  },
  {
   "name":"_ZNK7android7String84findEPKcj"
  },
  {
   "name":"_ZNK7android7String86lengthEv"
  },
  {
   "name":"_ZNK7android7String88getUtf32EPDi"
  },
  {
   "name":"_ZNK7android7String88walkPathEPS0_"
  },
  {
   "name":"_ZNK7android8String1610startsWithEPKDs"
  },
  {
   "name":"_ZNK7android8String1610startsWithERKS0_"
  },
  {
   "name":"_ZNK7android8String164sizeEv"
  },
  {
   "name":"_ZNK7android8String168containsEPKDs"
  },
  {
   "name":"_ZNK7android8String168findLastEDs"
  },
  {
   "name":"_ZNK7android8String169findFirstEDs"
  },
  {
   "name":"_ZNK7android9StopWatch11elapsedTimeEv"
  },
  {
   "name":"_ZNK7android9StopWatch4nameEv"
  },
  {
   "name":"_ZNK7android9Tokenizer11getLocationEv"
  },
  {
   "name":"_ZNK7android9Tokenizer19peekRemainderOfLineEv"
  },
  {
   "name":"_ZTv0_n12_N7android14LooperCallbackD0Ev"
  },
  {
   "name":"_ZTv0_n12_N7android14LooperCallbackD1Ev"
  },
  {
   "name":"_ZTv0_n12_N7android14MessageHandlerD0Ev"
  },
  {
   "name":"_ZTv0_n12_N7android14MessageHandlerD1Ev"
  },
  {
   "name":"_ZTv0_n12_N7android18WeakMessageHandlerD0Ev"
  },
  {
   "name":"_ZTv0_n12_N7android18WeakMessageHandlerD1Ev"
  },
  {
   "name":"_ZTv0_n12_N7android20SimpleLooperCallbackD0Ev"
  },
  {
   "name":"_ZTv0_n12_N7android20SimpleLooperCallbackD1Ev"
  },
  {
   "name":"_ZTv0_n12_N7android6ThreadD0Ev"
  },
  {
   "name":"_ZTv0_n12_N7android6ThreadD1Ev"
  },
  {
   "name":"androidCreateRawThreadEtc"
  },
  {
   "name":"androidCreateThread"
  },
  {
   "name":"androidCreateThreadEtc"
  },
  {
   "name":"androidGetThreadId"
  },
  {
   "name":"androidGetThreadPriority"
  },
  {
   "name":"androidSetCreateThreadFunc"
  },
  {
   "name":"androidSetThreadName"
  },
  {
   "name":"androidSetThreadPriority"
  },
  {
   "name":"strcmp16"
  },
  {
   "name":"strcpy16"
  },
  {
   "name":"strlen16"
  },
  {
   "name":"strlen32"
  },
  {
   "name":"strncmp16"
  },
  {
   "name":"strncpy16"
  },
  {
   "name":"strnlen16"
  },
  {
   "name":"strnlen32"
  },
  {
   "name":"strstr16"
  },
  {
   "name":"strzcmp16"
  },
  {
   "name":"strzcmp16_h_n"
  },
  {
   "name":"systemTime"
  },
  {
   "name":"toMillisecondTimeoutDelay"
  },
  {
   "name":"utf16_to_utf8"
  },
  {
   "name":"utf16_to_utf8_length"
  },
  {
   "name":"utf32_from_utf8_at"
  },
  {
   "name":"utf32_to_utf8"
  },
  {
   "name":"utf32_to_utf8_length"
  },
  {
   "name":"utf8_length"
  },
  {
   "name":"utf8_to_utf16"
  },
  {
   "name":"utf8_to_utf16_length"
  },
  {
   "name":"utf8_to_utf16_no_null_terminator"
  },
  {
   "name":"utf8_to_utf32"
  },
  {
   "name":"utf8_to_utf32_length"
  }
 ],
 "elf_objects":[
  {
   "name":"_ZN7android7FileMap9mPageSizeE"
  },
  {
   "name":"_ZTTN7android14LooperCallbackE"
  },
  {
   "name":"_ZTTN7android14MessageHandlerE"
  },
  {
   "name":"_ZTTN7android18WeakMessageHandlerE"
  },
  {
   "name":"_ZTTN7android20SimpleLooperCallbackE"
  },
  {
   "name":"_ZTTN7android6ThreadE"
  },
  {
   "name":"_ZTVN7android10LogPrinterE"
  },
  {
   "name":"_ZTVN7android10VectorImplE"
  },
  {
   "binding":"weak",
   "name":"_ZTVN7android12SortedVectorINS_16key_value_pair_tINS_7String8ES2_EEEE"
  },
  {
   "binding":"weak",
   "name":"_ZTVN7android12SortedVectorINS_16key_value_pair_tIiNS_6Looper7RequestEEEEE"
  },
  {
   "name":"_ZTVN7android13PrefixPrinterE"
  },
  {
   "name":"_ZTVN7android14LooperCallbackE"
  },
  {
   "name":"_ZTVN7android14MessageHandlerE"
  },
  {
   "name":"_ZTVN7android14String8PrinterE"
  },
  {
   "name":"_ZTVN7android16SortedVectorImplE"
  },
  {
   "name":"_ZTVN7android18WeakMessageHandlerE"
  },
  {
   "name":"_ZTVN7android20SimpleLooperCallbackE"
  },
  {
   "name":"_ZTVN7android6LooperE"
  },
  {
   "name":"_ZTVN7android6ThreadE"
  },
  {
   "binding":"weak",
   "name":"_ZTVN7android6VectorINS_28sysprop_change_callback_infoEEE"
  },
  {
   "binding":"weak",
   "name":"_ZTVN7android6VectorINS_6Looper15MessageEnvelopeEEE"
  },
  {
   "binding":"weak",
   "name":"_ZTVN7android6VectorINS_6Looper8ResponseEEE"
  },
  {
   "name":"_ZTVN7android7PrinterE"
  },
  {
   "name":"_ZTVN7android7RefBaseE"
  },
  {
   "name":"_ZTVN7android9FdPrinterE"
  }
 ]
}