{
 "array_types" :
 [
  {
   "alignment" : 4,
   "linker_set_key" : "_ZTIA0_i",
   "name" : "int [0]",
   "referenced_type" : "_ZTIi",
   "self_type" : "_ZTIA0_i",
   "source_file" : "/system/core/libcutils/include/cutils/native_handle.h"
  },
  {
   "alignment" : 1,
   "linker_set_key" : "_ZTIA16_h",
   "name" : "unsigned char [16]",
   "referenced_type" : "_ZTIh",
   "self_type" : "_ZTIA16_h",
   "size" : 16,
   "source_file" : "/system/libhidl/base/include/hidl/HidlSupport.h"
  },
  {
   "alignment" : 1,
   "linker_set_key" : "_ZTIA32_h",
   "name" : "unsigned char [32]",
   "referenced_type" : "_ZTIh",
   "self_type" : "_ZTIA32_h",
   "size" : 32,
   "source_file" : "/system/libhidl/base/include/hidl/HidlSupport.h"
  },
  {
   "alignment" : 1,
   "linker_set_key" : "_ZTIA3_h",
   "name" : "unsigned char [3]",
   "referenced_type" : "_ZTIh",
   "self_type" : "_ZTIA3_h",
   "size" : 3,
   "source_file" : "/system/libhidl/base/include/hidl/HidlSupport.h"
  },
  {
   "alignment" : 1,
   "linker_set_key" : "_ZTIA4_h",
   "name" : "unsigned char [4]",
   "referenced_type" : "_ZTIh",
   "self_type" : "_ZTIA4_h",
   "size" : 4,
   "source_file" : "/system/libhidl/base/include/hidl/HidlSupport.h"
  },
  {
   "alignment" : 1,
   "linker_set_key" : "_ZTIA5121_h",
   "name" : "unsigned char [5121]",
   "referenced_type" : "_ZTIh",
   "self_type" : "_ZTIA5121_h",
   "size" : 5121,
   "source_file" : "/system/core/liblog/include/log/log_read.h"
  },
  {
   "alignment" : 1,
   "linker_set_key" : "_ZTIA64_c",
   "name" : "char [64]",
   "referenced_type" : "_ZTIc",
   "self_type" : "_ZTIA64_c",
   "size" : 64,
   "source_file" : "/system/libhidl/transport/include/hidl/ConcurrentMap.h"
  },
  {
   "alignment" : 1,
   "linker_set_key" : "_ZTIA7_h",
   "name" : "unsigned char [7]",
   "referenced_type" : "_ZTIh",
   "self_type" : "_ZTIA7_h",
   "size" : 7,
   "source_file" : "/system/libhidl/base/include/hidl/HidlSupport.h"
  },
  {
   "alignment" : 4,
   "linker_set_key" : "_ZTIA8_j",
   "name" : "unsigned int [8]",
   "referenced_type" : "_ZTIj",
   "self_type" : "_ZTIA8_j",
   "size" : 32,
   "source_file" : "/system/core/libsystem/include/system/graphics.h"
  },
  {
   "linker_set_key" : "_ZTIA_f",
   "name" : "float []",
   "referenced_type" : "_ZTIf",
   "self_type" : "_ZTIA_f",
   "source_file" : "/system/core/libsystem/include/system/graphics.h"
  }
 ],
 "builtin_types" :
 [
  {
   "alignment" : 2,
   "is_integral" : true,
   "is_unsigned" : true,
   "linker_set_key" : "_ZTIDs",
   "name" : "char16_t",
   "referenced_type" : "_ZTIDs",
   "self_type" : "_ZTIDs",
   "size" : 2
  },
  {
   "alignment" : 1,
   "is_integral" : true,
   "linker_set_key" : "_ZTIa",
   "name" : "signed char",
   "referenced_type" : "_ZTIa",
   "self_type" : "_ZTIa",
   "size" : 1
  },
  {
   "alignment" : 1,
   "is_integral" : true,
   "is_unsigned" : true,
   "linker_set_key" : "_ZTIb",
   "name" : "bool",
   "referenced_type" : "_ZTIb",
   "self_type" : "_ZTIb",
   "size" : 1
  },
  {
   "alignment" : 1,
   "is_integral" : true,
   "is_unsigned" : true,
   "linker_set_key" : "_ZTIc",
   "name" : "char",
   "referenced_type" : "_ZTIc",
   "self_type" : "_ZTIc",
   "size" : 1
  },
  {
   "alignment" : 8,
   "linker_set_key" : "_ZTId",
   "name" : "double",
   "referenced_type" : "_ZTId",
   "self_type" : "_ZTId",
   "size" : 8
  },
  {
   "alignment" : 4,
   "linker_set_key" : "_ZTIf",
   "name" : "float",
   "referenced_type" : "_ZTIf",
   "self_type" : "_ZTIf",
   "size" : 4
  },
  {
   "alignment" : 1,
   "is_integral" : true,
   "is_unsigned" : true,
   "linker_set_key" : "_ZTIh",
   "name" : "unsigned char",
   "referenced_type" : "_ZTIh",
   "self_type" : "_ZTIh",
   "size" : 1
  },
  {
   "alignment" : 4,
   "is_integral" : true,
   "linker_set_key" : "_ZTIi",
   "name" : "int",
   "referenced_type" : "_ZTIi",
   "self_type" : "_ZTIi",
   "size" : 4
  },
  {
   "alignment" : 4,
   "is_integral" : true,
   "is_unsigned" : true,
   "linker_set_key" : "_ZTIj",
   "name" : "unsigned int",
   "referenced_type" : "_ZTIj",
   "self_type" : "_ZTIj",
   "size" : 4
  },
  {
   "alignment" : 8,
   "is_integral" : true,
   "linker_set_key" : "_ZTIl",
   "name" : "long",
   "referenced_type" : "_ZTIl",
   "self_type" : "_ZTIl",
   "size" : 8
  },
  {
   "alignment" : 8,
   "is_integral" : true,
   "is_unsigned" : true,
   "linker_set_key" : "_ZTIm",
   "name" : "unsigned long",
   "referenced_type" : "_ZTIm",
   "self_type" : "_ZTIm",
   "size" : 8
  },
  {
   "alignment" : 2,
   "is_integral" : true,
   "linker_set_key" : "_ZTIs",
   "name" : "short",
   "referenced_type" : "_ZTIs",
   "self_type" : "_ZTIs",
   "size" : 2
  },
  {
   "alignment" : 2,
   "is_integral" : true,
   "is_unsigned" : true,
   "linker_set_key" : "_ZTIt",
   "name" : "unsigned short",
   "referenced_type" : "_ZTIt",
   "self_type" : "_ZTIt",
   "size" : 2
  },
  {
   "linker_set_key" : "_ZTIv",
   "name" : "void",
   "referenced_type" : "_ZTIv",
   "self_type" : "_ZTIv"
  },
  {
   "alignment" : 8,
   "is_integral" : true,
   "linker_set_key" : "_ZTIx",
   "name" : "long long",
   "referenced_type" : "_ZTIx",
   "self_type" : "_ZTIx",
   "size" : 8
  },
  {
   "alignment" : 8,
   "is_integral" : true,
   "is_unsigned" : true,
   "linker_set_key" : "_ZTIy",
   "name" : "unsigned long long",
   "referenced_type" : "_ZTIy",
   "self_type" : "_ZTIy",
   "size" : 8
  }
 ],
 "elf_functions" :
 [
  {
   "binding" : "weak",
   "name" : "_ZN7android8hardware10fromBinderINS0_2tv5tuner4V1_011ITimeFilterENS4_14BpHwTimeFilterENS4_14BnHwTimeFilterEEENS_2spIT_EERKNS8_INS0_7IBinderEEE"
  },
  {
   "binding" : "weak",
   "name" : "_ZN7android8hardware10fromBinderINS0_2tv5tuner4V1_012IDescramblerENS4_15BpHwDescramblerENS4_15BnHwDescramblerEEENS_2spIT_EERKNS8_INS0_7IBinderEEE"
  },
  {
   "binding" : "weak",
   "name" : "_ZN7android8hardware10fromBinderINS0_2tv5tuner4V1_012IDvrCallbackENS4_15BpHwDvrCallbackENS4_15BnHwDvrCallbackEEENS_2spIT_EERKNS8_INS0_7IBinderEEE"
  },
  {
   "binding" : "weak",
   "name" : "_ZN7android8hardware10fromBinderINS0_2tv5tuner4V1_012ILnbCallbackENS4_15BpHwLnbCallbackENS4_15BnHwLnbCallbackEEENS_2spIT_EERKNS8_INS0_7IBinderEEE"
  },
  {
   "binding" : "weak",
   "name" : "_ZN7android8hardware10fromBinderINS0_2tv5tuner4V1_015IFilterCallbackENS4_18BpHwFilterCallbackENS4_18BnHwFilterCallbackEEENS_2spIT_EERKNS8_INS0_7IBinderEEE"
  },
  {
   "binding" : "weak",
   "name" : "_ZN7android8hardware10fromBinderINS0_2tv5tuner4V1_017IFrontendCallbackENS4_20BpHwFrontendCallbackENS4_20BnHwFrontendCallbackEEENS_2spIT_EERKNS8_INS0_7IBinderEEE"
  },
  {
   "binding" : "weak",
   "name" : "_ZN7android8hardware10fromBinderINS0_2tv5tuner4V1_04IDvrENS4_7BpHwDvrENS4_7BnHwDvrEEENS_2spIT_EERKNS8_INS0_7IBinderEEE"
  },
  {
   "binding" : "weak",
   "name" : "_ZN7android8hardware10fromBinderINS0_2tv5tuner4V1_04ILnbENS4_7BpHwLnbENS4_7BnHwLnbEEENS_2spIT_EERKNS8_INS0_7IBinderEEE"
  },
  {
   "binding" : "weak",
   "name" : "_ZN7android8hardware10fromBinderINS0_2tv5tuner4V1_06IDemuxENS4_9BpHwDemuxENS4_9BnHwDemuxEEENS_2spIT_EERKNS8_INS0_7IBinderEEE"
  },
  {
   "binding" : "weak",
   "name" : "_ZN7android8hardware10fromBinderINS0_2tv5tuner4V1_07IFilterENS4_10BpHwFilterENS4_10BnHwFilterEEENS_2spIT_EERKNS8_INS0_7IBinderEEE"
  },
  {
   "binding" : "weak",
   "name" : "_ZN7android8hardware10fromBinderINS0_2tv5tuner4V1_09IFrontendENS4_12BpHwFrontendENS4_12BnHwFrontendEEENS_2spIT_EERKNS8_INS0_7IBinderEEE"
  },
  {
   "name" : "_ZN7android8hardware2tv5tuner4V1_010BnHwFilter10_hidl_stopEPNS_4hidl4base4V1_08BnHwBaseERKNS0_6ParcelEPSA_NSt3__18functionIFvRSA_EEE"
  },
  {
   "name" : "_ZN7android8hardware2tv5tuner4V1_010BnHwFilter10onTransactEjRKNS0_6ParcelEPS5_jNSt3__18functionIFvRS5_EEE"
  },
  {
   "name" : "_ZN7android8hardware2tv5tuner4V1_010BnHwFilter11_hidl_closeEPNS_4hidl4base4V1_08BnHwBaseERKNS0_6ParcelEPSA_NSt3__18functionIFvRSA_EEE"
  },
  {
   "name" : "_ZN7android8hardware2tv5tuner4V1_010BnHwFilter11_hidl_flushEPNS_4hidl4base4V1_08BnHwBaseERKNS0_6ParcelEPSA_NSt3__18functionIFvRSA_EEE"
  },
  {
   "name" : "_ZN7android8hardware2tv5tuner4V1_010BnHwFilter11_hidl_getIdEPNS_4hidl4base4V1_08BnHwBaseERKNS0_6ParcelEPSA_NSt3__18functionIFvRSA_EEE"
  },
  {
   "name" : "_ZN7android8hardware2tv5tuner4V1_010BnHwFilter11_hidl_startEPNS_4hidl4base4V1_08BnHwBaseERKNS0_6ParcelEPSA_NSt3__18functionIFvRSA_EEE"
  },
  {
   "name" : "_ZN7android8hardware2tv5tuner4V1_010BnHwFilter12getDebugInfoENSt3__18functionIFvRKNS_4hidl4base4V1_09DebugInfoEEEE"
  },
  {
   "name" : "_ZN7android8hardware2tv5tuner4V1_010BnHwFilter15_hidl_configureEPNS_4hidl4base4V1_08BnHwBaseERKNS0_6ParcelEPSA_NSt3__18functionIFvRSA_EEE"
  },
  {
   "name" : "_ZN7android8hardware2tv5tuner4V1_010BnHwFilter18_hidl_getQueueDescEPNS_4hidl4base4V1_08BnHwBaseERKNS0_6ParcelEPSA_NSt3__18functionIFvRSA_EEE"
  },
  {
   "name" : "_ZN7android8hardware2tv5tuner4V1_010BnHwFilter19_hidl_setDataSourceEPNS_4hidl4base4V1_08BnHwBaseERKNS0_6ParcelEPSA_NSt3__18functionIFvRSA_EEE"
  },
  {
   "name" : "_ZN7android8hardware2tv5tuner4V1_010BnHwFilter21_hidl_releaseAvHandleEPNS_4hidl4base4V1_08BnHwBaseERKNS0_6ParcelEPSA_NSt3__18functionIFvRSA_EEE"
  },
  {
   "name" : "_ZN7android8hardware2tv5tuner4V1_010BnHwFilter4pingEv"
  },
  {
   "name" : "_ZN7android8hardware2tv5tuner4V1_010BnHwFilterC1ERKNS_2spINS3_7IFilterEEE"
  },
  {
   "name" : "_ZN7android8hardware2tv5tuner4V1_010BnHwFilterC2ERKNS_2spINS3_7IFilterEEE"
  },
  {
   "name" : "_ZN7android8hardware2tv5tuner4V1_010BnHwFilterD0Ev"
  },
  {
   "name" : "_ZN7android8hardware2tv5tuner4V1_010BnHwFilterD1Ev"
  },
  {
   "name" : "_ZN7android8hardware2tv5tuner4V1_010BnHwFilterD2Ev"
  },
  {
   "name" : "_ZN7android8hardware2tv5tuner4V1_010BpHwFilter10_hidl_stopEPNS0_10IInterfaceEPNS0_7details16HidlInstrumentorE"
  },
  {
   "name" : "_ZN7android8hardware2tv5tuner4V1_010BpHwFilter11_hidl_closeEPNS0_10IInterfaceEPNS0_7details16HidlInstrumentorE"
  },
  {
   "name" : "_ZN7android8hardware2tv5tuner4V1_010BpHwFilter11_hidl_flushEPNS0_10IInterfaceEPNS0_7details16HidlInstrumentorE"
  },
  {
   "name" : "_ZN7android8hardware2tv5tuner4V1_010BpHwFilter11_hidl_getIdEPNS0_10IInterfaceEPNS0_7details16HidlInstrumentorENSt3__18functionIFvNS3_6ResultEjEEE"
  },
  {
   "name" : "_ZN7android8hardware2tv5tuner4V1_010BpHwFilter11_hidl_startEPNS0_10IInterfaceEPNS0_7details16HidlInstrumentorE"
  },
  {
   "name" : "_ZN7android8hardware2tv5tuner4V1_010BpHwFilter11linkToDeathERKNS_2spINS0_20hidl_death_recipientEEEm"
  },
  {
   "name" : "_ZN7android8hardware2tv5tuner4V1_010BpHwFilter12getDebugInfoENSt3__18functionIFvRKNS_4hidl4base4V1_09DebugInfoEEEE"
  },
  {
   "name" : "_ZN7android8hardware2tv5tuner4V1_010BpHwFilter12getHashChainENSt3__18functionIFvRKNS0_8hidl_vecINS0_10hidl_arrayIhLm32EJEEEEEEEE"
  },
  {
   "name" : "_ZN7android8hardware2tv5tuner4V1_010BpHwFilter12getQueueDescENSt3__18functionIFvNS3_6ResultERKNS0_12MQDescriptorIhLNS0_8MQFlavorE1EEEEEE"
  },
  {
   "name" : "_ZN7android8hardware2tv5tuner4V1_010BpHwFilter13setDataSourceERKNS_2spINS3_7IFilterEEE"
  },
  {
   "name" : "_ZN7android8hardware2tv5tuner4V1_010BpHwFilter13unlinkToDeathERKNS_2spINS0_20hidl_death_recipientEEE"
  },
  {
   "name" : "_ZN7android8hardware2tv5tuner4V1_010BpHwFilter14interfaceChainENSt3__18functionIFvRKNS0_8hidl_vecINS0_11hidl_stringEEEEEE"
  },
  {
   "name" : "_ZN7android8hardware2tv5tuner4V1_010BpHwFilter15_hidl_configureEPNS0_10IInterfaceEPNS0_7details16HidlInstrumentorERKNS3_19DemuxFilterSettingsE"
  },
  {
   "name" : "_ZN7android8hardware2tv5tuner4V1_010BpHwFilter15onLastStrongRefEPKv"
  },
  {
   "name" : "_ZN7android8hardware2tv5tuner4V1_010BpHwFilter15releaseAvHandleERKNS0_11hidl_handleEm"
  },
  {
   "name" : "_ZN7android8hardware2tv5tuner4V1_010BpHwFilter18_hidl_getQueueDescEPNS0_10IInterfaceEPNS0_7details16HidlInstrumentorENSt3__18functionIFvNS3_6ResultERKNS0_12MQDescriptorIhLNS0_8MQFlavorE1EEEEEE"
  },
  {
   "name" : "_ZN7android8hardware2tv5tuner4V1_010BpHwFilter19_hidl_setDataSourceEPNS0_10IInterfaceEPNS0_7details16HidlInstrumentorERKNS_2spINS3_7IFilterEEE"
  },
  {
   "name" : "_ZN7android8hardware2tv5tuner4V1_010BpHwFilter19interfaceDescriptorENSt3__18functionIFvRKNS0_11hidl_stringEEEE"
  },
  {
   "name" : "_ZN7android8hardware2tv5tuner4V1_010BpHwFilter21_hidl_releaseAvHandleEPNS0_10IInterfaceEPNS0_7details16HidlInstrumentorERKNS0_11hidl_handleEm"
  },
  {
   "name" : "_ZN7android8hardware2tv5tuner4V1_010BpHwFilter21notifySyspropsChangedEv"
  },
  {
   "name" : "_ZN7android8hardware2tv5tuner4V1_010BpHwFilter21setHALInstrumentationEv"
  },
  {
   "name" : "_ZN7android8hardware2tv5tuner4V1_010BpHwFilter4pingEv"
  },
  {
   "name" : "_ZN7android8hardware2tv5tuner4V1_010BpHwFilter4stopEv"
  },
  {
   "name" : "_ZN7android8hardware2tv5tuner4V1_010BpHwFilter5closeEv"
  },
  {
   "name" : "_ZN7android8hardware2tv5tuner4V1_010BpHwFilter5debugERKNS0_11hidl_handleERKNS0_8hidl_vecINS0_11hidl_stringEEE"
  },
  {
   "name" : "_ZN7android8hardware2tv5tuner4V1_010BpHwFilter5flushEv"
  },
  {
   "name" : "_ZN7android8hardware2tv5tuner4V1_010BpHwFilter5getIdENSt3__18functionIFvNS3_6ResultEjEEE"
  },
  {
   "name" : "_ZN7android8hardware2tv5tuner4V1_010BpHwFilter5startEv"
  },
  {
   "name" : "_ZN7android8hardware2tv5tuner4V1_010BpHwFilter9configureERKNS3_19DemuxFilterSettingsE"
  },
  {
   "name" : "_ZN7android8hardware2tv5tuner4V1_010BpHwFilterC1ERKNS_2spINS0_7IBinderEEE"
  },
  {
   "name" : "_ZN7android8hardware2tv5tuner4V1_010BpHwFilterC2ERKNS_2spINS0_7IBinderEEE"
  },
  {
   "name" : "_ZN7android8hardware2tv5tuner4V1_010BsFrontend13addOnewayTaskENSt3__18functionIFvvEEE"
  },
  {
   "name" : "_ZN7android8hardware2tv5tuner4V1_010BsFrontendC1ENS_2spINS3_9IFrontendEEE"
  },
  {
   "name" : "_ZN7android8hardware2tv5tuner4V1_010BsFrontendC2ENS_2spINS3_9IFrontendEEE"
  },
  {
   "name" : "_ZN7android8hardware2tv5tuner4V1_011DvrSettings10hidl_unionC1Ev"
  },
  {
   "name" : "_ZN7android8hardware2tv5tuner4V1_011DvrSettings10hidl_unionC2Ev"
  },
  {
   "name" : "_ZN7android8hardware2tv5tuner4V1_011DvrSettings10hidl_unionD1Ev"
  },
  {
   "name" : "_ZN7android8hardware2tv5tuner4V1_011DvrSettings10hidl_unionD2Ev"
  },
  {
   "name" : "_ZN7android8hardware2tv5tuner4V1_011DvrSettings18hidl_destructUnionEv"
  },
  {
   "name" : "_ZN7android8hardware2tv5tuner4V1_011DvrSettings6recordEONS3_14RecordSettingsE"
  },
  {
   "name" : "_ZN7android8hardware2tv5tuner4V1_011DvrSettings6recordERKNS3_14RecordSettingsE"
  },
  {
   "name" : "_ZN7android8hardware2tv5tuner4V1_011DvrSettings6recordEv"
  },
  {
   "name" : "_ZN7android8hardware2tv5tuner4V1_011DvrSettings8playbackEONS3_16PlaybackSettingsE"
  },
  {
   "name" : "_ZN7android8hardware2tv5tuner4V1_011DvrSettings8playbackERKNS3_16PlaybackSettingsE"
  },
  {
   "name" : "_ZN7android8hardware2tv5tuner4V1_011DvrSettings8playbackEv"
  },
  {
   "name" : "_ZN7android8hardware2tv5tuner4V1_011DvrSettingsC1EOS4_"
  },
  {
   "name" : "_ZN7android8hardware2tv5tuner4V1_011DvrSettingsC1ERKS4_"
  },
  {
   "name" : "_ZN7android8hardware2tv5tuner4V1_011DvrSettingsC1Ev"
  },
  {
   "name" : "_ZN7android8hardware2tv5tuner4V1_011DvrSettingsC2EOS4_"
  },
  {
   "name" : "_ZN7android8hardware2tv5tuner4V1_011DvrSettingsC2ERKS4_"
  },
  {
   "name" : "_ZN7android8hardware2tv5tuner4V1_011DvrSettingsC2Ev"
  },
  {
   "name" : "_ZN7android8hardware2tv5tuner4V1_011DvrSettingsD1Ev"
  },
  {
   "name" : "_ZN7android8hardware2tv5tuner4V1_011DvrSettingsD2Ev"
  },
  {
   "name" : "_ZN7android8hardware2tv5tuner4V1_011DvrSettingsaSEOS4_"
  },
  {
   "name" : "_ZN7android8hardware2tv5tuner4V1_011DvrSettingsaSERKS4_"
  },
  {
   "name" : "_ZN7android8hardware2tv5tuner4V1_011ITimeFilter10getServiceERKNSt3__112basic_stringIcNS5_11char_traitsIcEENS5_9allocatorIcEEEEb"
  },
  {
   "name" : "_ZN7android8hardware2tv5tuner4V1_011ITimeFilter11linkToDeathERKNS_2spINS0_20hidl_death_recipientEEEm"
  },
  {
   "name" : "_ZN7android8hardware2tv5tuner4V1_011ITimeFilter12getDebugInfoENSt3__18functionIFvRKNS_4hidl4base4V1_09DebugInfoEEEE"
  },
  {
   "name" : "_ZN7android8hardware2tv5tuner4V1_011ITimeFilter12getHashChainENSt3__18functionIFvRKNS0_8hidl_vecINS0_10hidl_arrayIhLm32EJEEEEEEEE"
  },
  {
   "name" : "_ZN7android8hardware2tv5tuner4V1_011ITimeFilter13tryGetServiceERKNSt3__112basic_stringIcNS5_11char_traitsIcEENS5_9allocatorIcEEEEb"
  },
  {
   "name" : "_ZN7android8hardware2tv5tuner4V1_011ITimeFilter13unlinkToDeathERKNS_2spINS0_20hidl_death_recipientEEE"
  },
  {
   "name" : "_ZN7android8hardware2tv5tuner4V1_011ITimeFilter14interfaceChainENSt3__18functionIFvRKNS0_8hidl_vecINS0_11hidl_stringEEEEEE"
  },
  {
   "name" : "_ZN7android8hardware2tv5tuner4V1_011ITimeFilter17registerAsServiceERKNSt3__112basic_stringIcNS5_11char_traitsIcEENS5_9allocatorIcEEEE"
  },
  {
   "name" : "_ZN7android8hardware2tv5tuner4V1_011ITimeFilter19interfaceDescriptorENSt3__18functionIFvRKNS0_11hidl_stringEEEE"
  },
  {
   "name" : "_ZN7android8hardware2tv5tuner4V1_011ITimeFilter21notifySyspropsChangedEv"
  },
  {
   "name" : "_ZN7android8hardware2tv5tuner4V1_011ITimeFilter21setHALInstrumentationEv"
  },
  {
   "name" : "_ZN7android8hardware2tv5tuner4V1_011ITimeFilter24registerForNotificationsERKNSt3__112basic_stringIcNS5_11char_traitsIcEENS5_9allocatorIcEEEERKNS_2spINS_4hidl7manager4V1_020IServiceNotificationEEE"
  },
  {
   "name" : "_ZN7android8hardware2tv5tuner4V1_011ITimeFilter4pingEv"
  },
  {
   "name" : "_ZN7android8hardware2tv5tuner4V1_011ITimeFilter5debugERKNS0_11hidl_handleERKNS0_8hidl_vecINS0_11hidl_stringEEE"
  },
  {
   "name" : "_ZN7android8hardware2tv5tuner4V1_011ITimeFilter8castFromERKNS_2spINS_4hidl4base4V1_05IBaseEEEb"
  },
  {
   "name" : "_ZN7android8hardware2tv5tuner4V1_011ITimeFilter8castFromERKNS_2spIS4_EEb"
  },
  {
   "name" : "_ZN7android8hardware2tv5tuner4V1_012BnHwFrontend10_hidl_scanEPNS_4hidl4base4V1_08BnHwBaseERKNS0_6ParcelEPSA_NSt3__18functionIFvRSA_EEE"
  },
  {
   "name" : "_ZN7android8hardware2tv5tuner4V1_012BnHwFrontend10_hidl_tuneEPNS_4hidl4base4V1_08BnHwBaseERKNS0_6ParcelEPSA_NSt3__18functionIFvRSA_EEE"
  },
  {
   "name" : "_ZN7android8hardware2tv5tuner4V1_012BnHwFrontend10onTransactEjRKNS0_6ParcelEPS5_jNSt3__18functionIFvRS5_EEE"
  },
  {
   "name" : "_ZN7android8hardware2tv5tuner4V1_012BnHwFrontend11_hidl_closeEPNS_4hidl4base4V1_08BnHwBaseERKNS0_6ParcelEPSA_NSt3__18functionIFvRSA_EEE"
  },
  {
   "name" : "_ZN7android8hardware2tv5tuner4V1_012BnHwFrontend12_hidl_setLnaEPNS_4hidl4base4V1_08BnHwBaseERKNS0_6ParcelEPSA_NSt3__18functionIFvRSA_EEE"
  },
  {
   "name" : "_ZN7android8hardware2tv5tuner4V1_012BnHwFrontend12_hidl_setLnbEPNS_4hidl4base4V1_08BnHwBaseERKNS0_6ParcelEPSA_NSt3__18functionIFvRSA_EEE"
  },
  {
   "name" : "_ZN7android8hardware2tv5tuner4V1_012BnHwFrontend12getDebugInfoENSt3__18functionIFvRKNS_4hidl4base4V1_09DebugInfoEEEE"
  },
  {
   "name" : "_ZN7android8hardware2tv5tuner4V1_012BnHwFrontend14_hidl_stopScanEPNS_4hidl4base4V1_08BnHwBaseERKNS0_6ParcelEPSA_NSt3__18functionIFvRSA_EEE"
  },
  {
   "name" : "_ZN7android8hardware2tv5tuner4V1_012BnHwFrontend14_hidl_stopTuneEPNS_4hidl4base4V1_08BnHwBaseERKNS0_6ParcelEPSA_NSt3__18functionIFvRSA_EEE"
  },
  {
   "name" : "_ZN7android8hardware2tv5tuner4V1_012BnHwFrontend15_hidl_getStatusEPNS_4hidl4base4V1_08BnHwBaseERKNS0_6ParcelEPSA_NSt3__18functionIFvRSA_EEE"
  },
  {
   "name" : "_ZN7android8hardware2tv5tuner4V1_012BnHwFrontend17_hidl_setCallbackEPNS_4hidl4base4V1_08BnHwBaseERKNS0_6ParcelEPSA_NSt3__18functionIFvRSA_EEE"
  },
  {
   "name" : "_ZN7android8hardware2tv5tuner4V1_012BnHwFrontend4pingEv"
  },
  {
   "name" : "_ZN7android8hardware2tv5tuner4V1_012BnHwFrontendC1ERKNS_2spINS3_9IFrontendEEE"
  },
  {
   "name" : "_ZN7android8hardware2tv5tuner4V1_012BnHwFrontendC2ERKNS_2spINS3_9IFrontendEEE"
  },
  {
   "name" : "_ZN7android8hardware2tv5tuner4V1_012BnHwFrontendD0Ev"
  },
  {
   "name" : "_ZN7android8hardware2tv5tuner4V1_012BnHwFrontendD1Ev"
  },
  {
   "name" : "_ZN7android8hardware2tv5tuner4V1_012BnHwFrontendD2Ev"
  },
  {
   "name" : "_ZN7android8hardware2tv5tuner4V1_012BpHwFrontend10_hidl_scanEPNS0_10IInterfaceEPNS0_7details16HidlInstrumentorERKNS3_16FrontendSettingsENS3_16FrontendScanTypeE"
  },
  {
   "name" : "_ZN7android8hardware2tv5tuner4V1_012BpHwFrontend10_hidl_tuneEPNS0_10IInterfaceEPNS0_7details16HidlInstrumentorERKNS3_16FrontendSettingsE"
  },
  {
   "name" : "_ZN7android8hardware2tv5tuner4V1_012BpHwFrontend11_hidl_closeEPNS0_10IInterfaceEPNS0_7details16HidlInstrumentorE"
  },
  {
   "name" : "_ZN7android8hardware2tv5tuner4V1_012BpHwFrontend11linkToDeathERKNS_2spINS0_20hidl_death_recipientEEEm"
  },
  {
   "name" : "_ZN7android8hardware2tv5tuner4V1_012BpHwFrontend11setCallbackERKNS_2spINS3_17IFrontendCallbackEEE"
  },
  {
   "name" : "_ZN7android8hardware2tv5tuner4V1_012BpHwFrontend12_hidl_setLnaEPNS0_10IInterfaceEPNS0_7details16HidlInstrumentorEb"
  },
  {
   "name" : "_ZN7android8hardware2tv5tuner4V1_012BpHwFrontend12_hidl_setLnbEPNS0_10IInterfaceEPNS0_7details16HidlInstrumentorEj"
  },
  {
   "name" : "_ZN7android8hardware2tv5tuner4V1_012BpHwFrontend12getDebugInfoENSt3__18functionIFvRKNS_4hidl4base4V1_09DebugInfoEEEE"
  },
  {
   "name" : "_ZN7android8hardware2tv5tuner4V1_012BpHwFrontend12getHashChainENSt3__18functionIFvRKNS0_8hidl_vecINS0_10hidl_arrayIhLm32EJEEEEEEEE"
  },
  {
   "name" : "_ZN7android8hardware2tv5tuner4V1_012BpHwFrontend13unlinkToDeathERKNS_2spINS0_20hidl_death_recipientEEE"
  },
  {
   "name" : "_ZN7android8hardware2tv5tuner4V1_012BpHwFrontend14_hidl_stopScanEPNS0_10IInterfaceEPNS0_7details16HidlInstrumentorE"
  },
  {
   "name" : "_ZN7android8hardware2tv5tuner4V1_012BpHwFrontend14_hidl_stopTuneEPNS0_10IInterfaceEPNS0_7details16HidlInstrumentorE"
  },
  {
   "name" : "_ZN7android8hardware2tv5tuner4V1_012BpHwFrontend14interfaceChainENSt3__18functionIFvRKNS0_8hidl_vecINS0_11hidl_stringEEEEEE"
  },
  {
   "name" : "_ZN7android8hardware2tv5tuner4V1_012BpHwFrontend15_hidl_getStatusEPNS0_10IInterfaceEPNS0_7details16HidlInstrumentorERKNS0_8hidl_vecINS3_18FrontendStatusTypeEEENSt3__18functionIFvNS3_6ResultERKNSA_INS3_14FrontendStatusEEEEEE"
  },
  {
   "name" : "_ZN7android8hardware2tv5tuner4V1_012BpHwFrontend15onLastStrongRefEPKv"
  },
  {
   "name" : "_ZN7android8hardware2tv5tuner4V1_012BpHwFrontend17_hidl_setCallbackEPNS0_10IInterfaceEPNS0_7details16HidlInstrumentorERKNS_2spINS3_17IFrontendCallbackEEE"
  },
  {
   "name" : "_ZN7android8hardware2tv5tuner4V1_012BpHwFrontend19interfaceDescriptorENSt3__18functionIFvRKNS0_11hidl_stringEEEE"
  },
  {
   "name" : "_ZN7android8hardware2tv5tuner4V1_012BpHwFrontend21notifySyspropsChangedEv"
  },
  {
   "name" : "_ZN7android8hardware2tv5tuner4V1_012BpHwFrontend21setHALInstrumentationEv"
  },
  {
   "name" : "_ZN7android8hardware2tv5tuner4V1_012BpHwFrontend4pingEv"
  },
  {
   "name" : "_ZN7android8hardware2tv5tuner4V1_012BpHwFrontend4scanERKNS3_16FrontendSettingsENS3_16FrontendScanTypeE"
  },
  {
   "name" : "_ZN7android8hardware2tv5tuner4V1_012BpHwFrontend4tuneERKNS3_16FrontendSettingsE"
  },
  {
   "name" : "_ZN7android8hardware2tv5tuner4V1_012BpHwFrontend5closeEv"
  },
  {
   "name" : "_ZN7android8hardware2tv5tuner4V1_012BpHwFrontend5debugERKNS0_11hidl_handleERKNS0_8hidl_vecINS0_11hidl_stringEEE"
  },
  {
   "name" : "_ZN7android8hardware2tv5tuner4V1_012BpHwFrontend6setLnaEb"
  },
  {
   "name" : "_ZN7android8hardware2tv5tuner4V1_012BpHwFrontend6setLnbEj"
  },
  {
   "name" : "_ZN7android8hardware2tv5tuner4V1_012BpHwFrontend8stopScanEv"
  },
  {
   "name" : "_ZN7android8hardware2tv5tuner4V1_012BpHwFrontend8stopTuneEv"
  },
  {
   "name" : "_ZN7android8hardware2tv5tuner4V1_012BpHwFrontend9getStatusERKNS0_8hidl_vecINS3_18FrontendStatusTypeEEENSt3__18functionIFvNS3_6ResultERKNS5_INS3_14FrontendStatusEEEEEE"
  },
  {
   "name" : "_ZN7android8hardware2tv5tuner4V1_012BpHwFrontendC1ERKNS_2spINS0_7IBinderEEE"
  },
  {
   "name" : "_ZN7android8hardware2tv5tuner4V1_012BpHwFrontendC2ERKNS_2spINS0_7IBinderEEE"
  },
  {
   "name" : "_ZN7android8hardware2tv5tuner4V1_012BsTimeFilter13addOnewayTaskENSt3__18functionIFvvEEE"
  },
  {
   "name" : "_ZN7android8hardware2tv5tuner4V1_012BsTimeFilterC1ENS_2spINS3_11ITimeFilterEEE"
  },
  {
   "name" : "_ZN7android8hardware2tv5tuner4V1_012BsTimeFilterC2ENS_2spINS3_11ITimeFilterEEE"
  },
  {
   "name" : "_ZN7android8hardware2tv5tuner4V1_012FrontendInfo20FrontendCapabilities10analogCapsEONS3_26FrontendAnalogCapabilitiesE"
  },
  {
   "name" : "_ZN7android8hardware2tv5tuner4V1_012FrontendInfo20FrontendCapabilities10analogCapsERKNS3_26FrontendAnalogCapabilitiesE"
  },
  {
   "name" : "_ZN7android8hardware2tv5tuner4V1_012FrontendInfo20FrontendCapabilities10analogCapsEv"
  },
  {
   "name" : "_ZN7android8hardware2tv5tuner4V1_012FrontendInfo20FrontendCapabilities10hidl_unionC1Ev"
  },
  {
   "name" : "_ZN7android8hardware2tv5tuner4V1_012FrontendInfo20FrontendCapabilities10hidl_unionC2Ev"
  },
  {
   "name" : "_ZN7android8hardware2tv5tuner4V1_012FrontendInfo20FrontendCapabilities10hidl_unionD1Ev"
  },
  {
   "name" : "_ZN7android8hardware2tv5tuner4V1_012FrontendInfo20FrontendCapabilities10hidl_unionD2Ev"
  },
  {
   "name" : "_ZN7android8hardware2tv5tuner4V1_012FrontendInfo20FrontendCapabilities10isdbs3CapsEONS3_26FrontendIsdbs3CapabilitiesE"
  },
  {
   "name" : "_ZN7android8hardware2tv5tuner4V1_012FrontendInfo20FrontendCapabilities10isdbs3CapsERKNS3_26FrontendIsdbs3CapabilitiesE"
  },
  {
   "name" : "_ZN7android8hardware2tv5tuner4V1_012FrontendInfo20FrontendCapabilities10isdbs3CapsEv"
  },
  {
   "name" : "_ZN7android8hardware2tv5tuner4V1_012FrontendInfo20FrontendCapabilities18hidl_destructUnionEv"
  },
  {
   "name" : "_ZN7android8hardware2tv5tuner4V1_012FrontendInfo20FrontendCapabilities8atscCapsEONS3_24FrontendAtscCapabilitiesE"
  },
  {
   "name" : "_ZN7android8hardware2tv5tuner4V1_012FrontendInfo20FrontendCapabilities8atscCapsERKNS3_24FrontendAtscCapabilitiesE"
  },
  {
   "name" : "_ZN7android8hardware2tv5tuner4V1_012FrontendInfo20FrontendCapabilities8atscCapsEv"
  },
  {
   "name" : "_ZN7android8hardware2tv5tuner4V1_012FrontendInfo20FrontendCapabilities8dvbcCapsEONS3_24FrontendDvbcCapabilitiesE"
  },
  {
   "name" : "_ZN7android8hardware2tv5tuner4V1_012FrontendInfo20FrontendCapabilities8dvbcCapsERKNS3_24FrontendDvbcCapabilitiesE"
  },
  {
   "name" : "_ZN7android8hardware2tv5tuner4V1_012FrontendInfo20FrontendCapabilities8dvbcCapsEv"
  },
  {
   "name" : "_ZN7android8hardware2tv5tuner4V1_012FrontendInfo20FrontendCapabilities8dvbsCapsEONS3_24FrontendDvbsCapabilitiesE"
  },
  {
   "name" : "_ZN7android8hardware2tv5tuner4V1_012FrontendInfo20FrontendCapabilities8dvbsCapsERKNS3_24FrontendDvbsCapabilitiesE"
  },
  {
   "name" : "_ZN7android8hardware2tv5tuner4V1_012FrontendInfo20FrontendCapabilities8dvbsCapsEv"
  },
  {
   "name" : "_ZN7android8hardware2tv5tuner4V1_012FrontendInfo20FrontendCapabilities8dvbtCapsEONS3_24FrontendDvbtCapabilitiesE"
  },
  {
   "name" : "_ZN7android8hardware2tv5tuner4V1_012FrontendInfo20FrontendCapabilities8dvbtCapsERKNS3_24FrontendDvbtCapabilitiesE"
  },
  {
   "name" : "_ZN7android8hardware2tv5tuner4V1_012FrontendInfo20FrontendCapabilities8dvbtCapsEv"
  },
  {
   "name" : "_ZN7android8hardware2tv5tuner4V1_012FrontendInfo20FrontendCapabilities9atsc3CapsEONS3_25FrontendAtsc3CapabilitiesE"
  },
  {
   "name" : "_ZN7android8hardware2tv5tuner4V1_012FrontendInfo20FrontendCapabilities9atsc3CapsERKNS3_25FrontendAtsc3CapabilitiesE"
  },
  {
   "name" : "_ZN7android8hardware2tv5tuner4V1_012FrontendInfo20FrontendCapabilities9atsc3CapsEv"
  },
  {
   "name" : "_ZN7android8hardware2tv5tuner4V1_012FrontendInfo20FrontendCapabilities9isdbsCapsEONS3_25FrontendIsdbsCapabilitiesE"
  },
  {
   "name" : "_ZN7android8hardware2tv5tuner4V1_012FrontendInfo20FrontendCapabilities9isdbsCapsERKNS3_25FrontendIsdbsCapabilitiesE"
  },
  {
   "name" : "_ZN7android8hardware2tv5tuner4V1_012FrontendInfo20FrontendCapabilities9isdbsCapsEv"
  },
  {
   "name" : "_ZN7android8hardware2tv5tuner4V1_012FrontendInfo20FrontendCapabilities9isdbtCapsEONS3_25FrontendIsdbtCapabilitiesE"
  },
  {
   "name" : "_ZN7android8hardware2tv5tuner4V1_012FrontendInfo20FrontendCapabilities9isdbtCapsERKNS3_25FrontendIsdbtCapabilitiesE"
  },
  {
   "name" : "_ZN7android8hardware2tv5tuner4V1_012FrontendInfo20FrontendCapabilities9isdbtCapsEv"
  },
  {
   "name" : "_ZN7android8hardware2tv5tuner4V1_012FrontendInfo20FrontendCapabilitiesC1EOS5_"
  },
  {
   "name" : "_ZN7android8hardware2tv5tuner4V1_012FrontendInfo20FrontendCapabilitiesC1ERKS5_"
  },
  {
   "name" : "_ZN7android8hardware2tv5tuner4V1_012FrontendInfo20FrontendCapabilitiesC1Ev"
  },
  {
   "name" : "_ZN7android8hardware2tv5tuner4V1_012FrontendInfo20FrontendCapabilitiesC2EOS5_"
  },
  {
   "name" : "_ZN7android8hardware2tv5tuner4V1_012FrontendInfo20FrontendCapabilitiesC2ERKS5_"
  },
  {
   "name" : "_ZN7android8hardware2tv5tuner4V1_012FrontendInfo20FrontendCapabilitiesC2Ev"
  },
  {
   "name" : "_ZN7android8hardware2tv5tuner4V1_012FrontendInfo20FrontendCapabilitiesD1Ev"
  },
  {
   "name" : "_ZN7android8hardware2tv5tuner4V1_012FrontendInfo20FrontendCapabilitiesD2Ev"
  },
  {
   "name" : "_ZN7android8hardware2tv5tuner4V1_012FrontendInfo20FrontendCapabilitiesaSEOS5_"
  },
  {
   "name" : "_ZN7android8hardware2tv5tuner4V1_012FrontendInfo20FrontendCapabilitiesaSERKS5_"
  },
  {
   "name" : "_ZN7android8hardware2tv5tuner4V1_012IDescrambler10getServiceERKNSt3__112basic_stringIcNS5_11char_traitsIcEENS5_9allocatorIcEEEEb"
  },
  {
   "name" : "_ZN7android8hardware2tv5tuner4V1_012IDescrambler11linkToDeathERKNS_2spINS0_20hidl_death_recipientEEEm"
  },
  {
   "name" : "_ZN7android8hardware2tv5tuner4V1_012IDescrambler12getDebugInfoENSt3__18functionIFvRKNS_4hidl4base4V1_09DebugInfoEEEE"
  },
  {
   "name" : "_ZN7android8hardware2tv5tuner4V1_012IDescrambler12getHashChainENSt3__18functionIFvRKNS0_8hidl_vecINS0_10hidl_arrayIhLm32EJEEEEEEEE"
  },
  {
   "name" : "_ZN7android8hardware2tv5tuner4V1_012IDescrambler13tryGetServiceERKNSt3__112basic_stringIcNS5_11char_traitsIcEENS5_9allocatorIcEEEEb"
  },
  {
   "name" : "_ZN7android8hardware2tv5tuner4V1_012IDescrambler13unlinkToDeathERKNS_2spINS0_20hidl_death_recipientEEE"
  },
  {
   "name" : "_ZN7android8hardware2tv5tuner4V1_012IDescrambler14interfaceChainENSt3__18functionIFvRKNS0_8hidl_vecINS0_11hidl_stringEEEEEE"
  },
  {
   "name" : "_ZN7android8hardware2tv5tuner4V1_012IDescrambler17registerAsServiceERKNSt3__112basic_stringIcNS5_11char_traitsIcEENS5_9allocatorIcEEEE"
  },
  {
   "name" : "_ZN7android8hardware2tv5tuner4V1_012IDescrambler19interfaceDescriptorENSt3__18functionIFvRKNS0_11hidl_stringEEEE"
  },
  {
   "name" : "_ZN7android8hardware2tv5tuner4V1_012IDescrambler21notifySyspropsChangedEv"
  },
  {
   "name" : "_ZN7android8hardware2tv5tuner4V1_012IDescrambler21setHALInstrumentationEv"
  },
  {
   "name" : "_ZN7android8hardware2tv5tuner4V1_012IDescrambler24registerForNotificationsERKNSt3__112basic_stringIcNS5_11char_traitsIcEENS5_9allocatorIcEEEERKNS_2spINS_4hidl7manager4V1_020IServiceNotificationEEE"
  },
  {
   "name" : "_ZN7android8hardware2tv5tuner4V1_012IDescrambler4pingEv"
  },
  {
   "name" : "_ZN7android8hardware2tv5tuner4V1_012IDescrambler5debugERKNS0_11hidl_handleERKNS0_8hidl_vecINS0_11hidl_stringEEE"
  },
  {
   "name" : "_ZN7android8hardware2tv5tuner4V1_012IDescrambler8castFromERKNS_2spINS_4hidl4base4V1_05IBaseEEEb"
  },
  {
   "name" : "_ZN7android8hardware2tv5tuner4V1_012IDescrambler8castFromERKNS_2spIS4_EEb"
  },
  {
   "name" : "_ZN7android8hardware2tv5tuner4V1_012IDvrCallback10getServiceERKNSt3__112basic_stringIcNS5_11char_traitsIcEENS5_9allocatorIcEEEEb"
  },
  {
   "name" : "_ZN7android8hardware2tv5tuner4V1_012IDvrCallback11linkToDeathERKNS_2spINS0_20hidl_death_recipientEEEm"
  },
  {
   "name" : "_ZN7android8hardware2tv5tuner4V1_012IDvrCallback12getDebugInfoENSt3__18functionIFvRKNS_4hidl4base4V1_09DebugInfoEEEE"
  },
  {
   "name" : "_ZN7android8hardware2tv5tuner4V1_012IDvrCallback12getHashChainENSt3__18functionIFvRKNS0_8hidl_vecINS0_10hidl_arrayIhLm32EJEEEEEEEE"
  },
  {
   "name" : "_ZN7android8hardware2tv5tuner4V1_012IDvrCallback13tryGetServiceERKNSt3__112basic_stringIcNS5_11char_traitsIcEENS5_9allocatorIcEEEEb"
  },
  {
   "name" : "_ZN7android8hardware2tv5tuner4V1_012IDvrCallback13unlinkToDeathERKNS_2spINS0_20hidl_death_recipientEEE"
  },
  {
   "name" : "_ZN7android8hardware2tv5tuner4V1_012IDvrCallback14interfaceChainENSt3__18functionIFvRKNS0_8hidl_vecINS0_11hidl_stringEEEEEE"
  },
  {
   "name" : "_ZN7android8hardware2tv5tuner4V1_012IDvrCallback17registerAsServiceERKNSt3__112basic_stringIcNS5_11char_traitsIcEENS5_9allocatorIcEEEE"
  },
  {
   "name" : "_ZN7android8hardware2tv5tuner4V1_012IDvrCallback19interfaceDescriptorENSt3__18functionIFvRKNS0_11hidl_stringEEEE"
  },
  {
   "name" : "_ZN7android8hardware2tv5tuner4V1_012IDvrCallback21notifySyspropsChangedEv"
  },
  {
   "name" : "_ZN7android8hardware2tv5tuner4V1_012IDvrCallback21setHALInstrumentationEv"
  },
  {
   "name" : "_ZN7android8hardware2tv5tuner4V1_012IDvrCallback24registerForNotificationsERKNSt3__112basic_stringIcNS5_11char_traitsIcEENS5_9allocatorIcEEEERKNS_2spINS_4hidl7manager4V1_020IServiceNotificationEEE"
  },
  {
   "name" : "_ZN7android8hardware2tv5tuner4V1_012IDvrCallback4pingEv"
  },
  {
   "name" : "_ZN7android8hardware2tv5tuner4V1_012IDvrCallback5debugERKNS0_11hidl_handleERKNS0_8hidl_vecINS0_11hidl_stringEEE"
  },
  {
   "name" : "_ZN7android8hardware2tv5tuner4V1_012IDvrCallback8castFromERKNS_2spINS_4hidl4base4V1_05IBaseEEEb"
  },
  {
   "name" : "_ZN7android8hardware2tv5tuner4V1_012IDvrCallback8castFromERKNS_2spIS4_EEb"
  },
  {
   "name" : "_ZN7android8hardware2tv5tuner4V1_012ILnbCallback10getServiceERKNSt3__112basic_stringIcNS5_11char_traitsIcEENS5_9allocatorIcEEEEb"
  },
  {
   "name" : "_ZN7android8hardware2tv5tuner4V1_012ILnbCallback11linkToDeathERKNS_2spINS0_20hidl_death_recipientEEEm"
  },
  {
   "name" : "_ZN7android8hardware2tv5tuner4V1_012ILnbCallback12getDebugInfoENSt3__18functionIFvRKNS_4hidl4base4V1_09DebugInfoEEEE"
  },
  {
   "name" : "_ZN7android8hardware2tv5tuner4V1_012ILnbCallback12getHashChainENSt3__18functionIFvRKNS0_8hidl_vecINS0_10hidl_arrayIhLm32EJEEEEEEEE"
  },
  {
   "name" : "_ZN7android8hardware2tv5tuner4V1_012ILnbCallback13tryGetServiceERKNSt3__112basic_stringIcNS5_11char_traitsIcEENS5_9allocatorIcEEEEb"
  },
  {
   "name" : "_ZN7android8hardware2tv5tuner4V1_012ILnbCallback13unlinkToDeathERKNS_2spINS0_20hidl_death_recipientEEE"
  },
  {
   "name" : "_ZN7android8hardware2tv5tuner4V1_012ILnbCallback14interfaceChainENSt3__18functionIFvRKNS0_8hidl_vecINS0_11hidl_stringEEEEEE"
  },
  {
   "name" : "_ZN7android8hardware2tv5tuner4V1_012ILnbCallback17registerAsServiceERKNSt3__112basic_stringIcNS5_11char_traitsIcEENS5_9allocatorIcEEEE"
  },
  {
   "name" : "_ZN7android8hardware2tv5tuner4V1_012ILnbCallback19interfaceDescriptorENSt3__18functionIFvRKNS0_11hidl_stringEEEE"
  },
  {
   "name" : "_ZN7android8hardware2tv5tuner4V1_012ILnbCallback21notifySyspropsChangedEv"
  },
  {
   "name" : "_ZN7android8hardware2tv5tuner4V1_012ILnbCallback21setHALInstrumentationEv"
  },
  {
   "name" : "_ZN7android8hardware2tv5tuner4V1_012ILnbCallback24registerForNotificationsERKNSt3__112basic_stringIcNS5_11char_traitsIcEENS5_9allocatorIcEEEERKNS_2spINS_4hidl7manager4V1_020IServiceNotificationEEE"
  },
  {
   "name" : "_ZN7android8hardware2tv5tuner4V1_012ILnbCallback4pingEv"
  },
  {
   "name" : "_ZN7android8hardware2tv5tuner4V1_012ILnbCallback5debugERKNS0_11hidl_handleERKNS0_8hidl_vecINS0_11hidl_stringEEE"
  },
  {
   "name" : "_ZN7android8hardware2tv5tuner4V1_012ILnbCallback8castFromERKNS_2spINS_4hidl4base4V1_05IBaseEEEb"
  },
  {
   "name" : "_ZN7android8hardware2tv5tuner4V1_012ILnbCallback8castFromERKNS_2spIS4_EEb"
  },
  {
   "name" : "_ZN7android8hardware2tv5tuner4V1_013BsDescrambler13addOnewayTaskENSt3__18functionIFvvEEE"
  },
  {
   "name" : "_ZN7android8hardware2tv5tuner4V1_013BsDescramblerC1ENS_2spINS3_12IDescramblerEEE"
  },
  {
   "name" : "_ZN7android8hardware2tv5tuner4V1_013BsDescramblerC2ENS_2spINS3_12IDescramblerEEE"
  },
  {
   "name" : "_ZN7android8hardware2tv5tuner4V1_013BsDvrCallback13addOnewayTaskENSt3__18functionIFvvEEE"
  },
  {
   "name" : "_ZN7android8hardware2tv5tuner4V1_013BsDvrCallbackC1ENS_2spINS3_12IDvrCallbackEEE"
  },
  {
   "name" : "_ZN7android8hardware2tv5tuner4V1_013BsDvrCallbackC2ENS_2spINS3_12IDvrCallbackEEE"
  },
  {
   "name" : "_ZN7android8hardware2tv5tuner4V1_013BsLnbCallback13addOnewayTaskENSt3__18functionIFvvEEE"
  },
  {
   "name" : "_ZN7android8hardware2tv5tuner4V1_013BsLnbCallbackC1ENS_2spINS3_12ILnbCallbackEEE"
  },
  {
   "name" : "_ZN7android8hardware2tv5tuner4V1_013BsLnbCallbackC2ENS_2spINS3_12ILnbCallbackEEE"
  },
  {
   "name" : "_ZN7android8hardware2tv5tuner4V1_014BnHwTimeFilter10onTransactEjRKNS0_6ParcelEPS5_jNSt3__18functionIFvRS5_EEE"
  },
  {
   "name" : "_ZN7android8hardware2tv5tuner4V1_014BnHwTimeFilter11_hidl_closeEPNS_4hidl4base4V1_08BnHwBaseERKNS0_6ParcelEPSA_NSt3__18functionIFvRSA_EEE"
  },
  {
   "name" : "_ZN7android8hardware2tv5tuner4V1_014BnHwTimeFilter12getDebugInfoENSt3__18functionIFvRKNS_4hidl4base4V1_09DebugInfoEEEE"
  },
  {
   "name" : "_ZN7android8hardware2tv5tuner4V1_014BnHwTimeFilter18_hidl_getTimeStampEPNS_4hidl4base4V1_08BnHwBaseERKNS0_6ParcelEPSA_NSt3__18functionIFvRSA_EEE"
  },
  {
   "name" : "_ZN7android8hardware2tv5tuner4V1_014BnHwTimeFilter18_hidl_setTimeStampEPNS_4hidl4base4V1_08BnHwBaseERKNS0_6ParcelEPSA_NSt3__18functionIFvRSA_EEE"
  },
  {
   "name" : "_ZN7android8hardware2tv5tuner4V1_014BnHwTimeFilter19_hidl_getSourceTimeEPNS_4hidl4base4V1_08BnHwBaseERKNS0_6ParcelEPSA_NSt3__18functionIFvRSA_EEE"
  },
  {
   "name" : "_ZN7android8hardware2tv5tuner4V1_014BnHwTimeFilter20_hidl_clearTimeStampEPNS_4hidl4base4V1_08BnHwBaseERKNS0_6ParcelEPSA_NSt3__18functionIFvRSA_EEE"
  },
  {
   "name" : "_ZN7android8hardware2tv5tuner4V1_014BnHwTimeFilter4pingEv"
  },
  {
   "name" : "_ZN7android8hardware2tv5tuner4V1_014BnHwTimeFilterC1ERKNS_2spINS3_11ITimeFilterEEE"
  },
  {
   "name" : "_ZN7android8hardware2tv5tuner4V1_014BnHwTimeFilterC2ERKNS_2spINS3_11ITimeFilterEEE"
  },
  {
   "name" : "_ZN7android8hardware2tv5tuner4V1_014BnHwTimeFilterD0Ev"
  },
  {
   "name" : "_ZN7android8hardware2tv5tuner4V1_014BnHwTimeFilterD1Ev"
  },
  {
   "name" : "_ZN7android8hardware2tv5tuner4V1_014BnHwTimeFilterD2Ev"
  },
  {
   "name" : "_ZN7android8hardware2tv5tuner4V1_014BpHwTimeFilter11_hidl_closeEPNS0_10IInterfaceEPNS0_7details16HidlInstrumentorE"
  },
  {
   "name" : "_ZN7android8hardware2tv5tuner4V1_014BpHwTimeFilter11linkToDeathERKNS_2spINS0_20hidl_death_recipientEEEm"
  },
  {
   "name" : "_ZN7android8hardware2tv5tuner4V1_014BpHwTimeFilter12getDebugInfoENSt3__18functionIFvRKNS_4hidl4base4V1_09DebugInfoEEEE"
  },
  {
   "name" : "_ZN7android8hardware2tv5tuner4V1_014BpHwTimeFilter12getHashChainENSt3__18functionIFvRKNS0_8hidl_vecINS0_10hidl_arrayIhLm32EJEEEEEEEE"
  },
  {
   "name" : "_ZN7android8hardware2tv5tuner4V1_014BpHwTimeFilter12getTimeStampENSt3__18functionIFvNS3_6ResultEmEEE"
  },
  {
   "name" : "_ZN7android8hardware2tv5tuner4V1_014BpHwTimeFilter12setTimeStampEm"
  },
  {
   "name" : "_ZN7android8hardware2tv5tuner4V1_014BpHwTimeFilter13getSourceTimeENSt3__18functionIFvNS3_6ResultEmEEE"
  },
  {
   "name" : "_ZN7android8hardware2tv5tuner4V1_014BpHwTimeFilter13unlinkToDeathERKNS_2spINS0_20hidl_death_recipientEEE"
  },
  {
   "name" : "_ZN7android8hardware2tv5tuner4V1_014BpHwTimeFilter14clearTimeStampEv"
  },
  {
   "name" : "_ZN7android8hardware2tv5tuner4V1_014BpHwTimeFilter14interfaceChainENSt3__18functionIFvRKNS0_8hidl_vecINS0_11hidl_stringEEEEEE"
  },
  {
   "name" : "_ZN7android8hardware2tv5tuner4V1_014BpHwTimeFilter15onLastStrongRefEPKv"
  },
  {
   "name" : "_ZN7android8hardware2tv5tuner4V1_014BpHwTimeFilter18_hidl_getTimeStampEPNS0_10IInterfaceEPNS0_7details16HidlInstrumentorENSt3__18functionIFvNS3_6ResultEmEEE"
  },
  {
   "name" : "_ZN7android8hardware2tv5tuner4V1_014BpHwTimeFilter18_hidl_setTimeStampEPNS0_10IInterfaceEPNS0_7details16HidlInstrumentorEm"
  },
  {
   "name" : "_ZN7android8hardware2tv5tuner4V1_014BpHwTimeFilter19_hidl_getSourceTimeEPNS0_10IInterfaceEPNS0_7details16HidlInstrumentorENSt3__18functionIFvNS3_6ResultEmEEE"
  },
  {
   "name" : "_ZN7android8hardware2tv5tuner4V1_014BpHwTimeFilter19interfaceDescriptorENSt3__18functionIFvRKNS0_11hidl_stringEEEE"
  },
  {
   "name" : "_ZN7android8hardware2tv5tuner4V1_014BpHwTimeFilter20_hidl_clearTimeStampEPNS0_10IInterfaceEPNS0_7details16HidlInstrumentorE"
  },
  {
   "name" : "_ZN7android8hardware2tv5tuner4V1_014BpHwTimeFilter21notifySyspropsChangedEv"
  },
  {
   "name" : "_ZN7android8hardware2tv5tuner4V1_014BpHwTimeFilter21setHALInstrumentationEv"
  },
  {
   "name" : "_ZN7android8hardware2tv5tuner4V1_014BpHwTimeFilter4pingEv"
  },
  {
   "name" : "_ZN7android8hardware2tv5tuner4V1_014BpHwTimeFilter5closeEv"
  },
  {
   "name" : "_ZN7android8hardware2tv5tuner4V1_014BpHwTimeFilter5debugERKNS0_11hidl_handleERKNS0_8hidl_vecINS0_11hidl_stringEEE"
  },
  {
   "name" : "_ZN7android8hardware2tv5tuner4V1_014BpHwTimeFilterC1ERKNS_2spINS0_7IBinderEEE"
  },
  {
   "name" : "_ZN7android8hardware2tv5tuner4V1_014BpHwTimeFilterC2ERKNS_2spINS0_7IBinderEEE"
  },
  {
   "name" : "_ZN7android8hardware2tv5tuner4V1_014DemuxIpAddress12DstIpAddress10hidl_unionC1Ev"
  },
  {
   "name" : "_ZN7android8hardware2tv5tuner4V1_014DemuxIpAddress12DstIpAddress10hidl_unionC2Ev"
  },
  {
   "name" : "_ZN7android8hardware2tv5tuner4V1_014DemuxIpAddress12DstIpAddress10hidl_unionD1Ev"
  },
  {
   "name" : "_ZN7android8hardware2tv5tuner4V1_014DemuxIpAddress12DstIpAddress10hidl_unionD2Ev"
  },
  {
   "name" : "_ZN7android8hardware2tv5tuner4V1_014DemuxIpAddress12DstIpAddress18hidl_destructUnionEv"
  },
  {
   "name" : "_ZN7android8hardware2tv5tuner4V1_014DemuxIpAddress12DstIpAddress2v4EONS0_10hidl_arrayIhLm4EJEEE"
  },
  {
   "name" : "_ZN7android8hardware2tv5tuner4V1_014DemuxIpAddress12DstIpAddress2v4ERKNS0_10hidl_arrayIhLm4EJEEE"
  },
  {
   "name" : "_ZN7android8hardware2tv5tuner4V1_014DemuxIpAddress12DstIpAddress2v4Ev"
  },
  {
   "name" : "_ZN7android8hardware2tv5tuner4V1_014DemuxIpAddress12DstIpAddress2v6EONS0_10hidl_arrayIhLm16EJEEE"
  },
  {
   "name" : "_ZN7android8hardware2tv5tuner4V1_014DemuxIpAddress12DstIpAddress2v6ERKNS0_10hidl_arrayIhLm16EJEEE"
  },
  {
   "name" : "_ZN7android8hardware2tv5tuner4V1_014DemuxIpAddress12DstIpAddress2v6Ev"
  },
  {
   "name" : "_ZN7android8hardware2tv5tuner4V1_014DemuxIpAddress12DstIpAddressC1EOS5_"
  },
  {
   "name" : "_ZN7android8hardware2tv5tuner4V1_014DemuxIpAddress12DstIpAddressC1ERKS5_"
  },
  {
   "name" : "_ZN7android8hardware2tv5tuner4V1_014DemuxIpAddress12DstIpAddressC1Ev"
  },
  {
   "name" : "_ZN7android8hardware2tv5tuner4V1_014DemuxIpAddress12DstIpAddressC2EOS5_"
  },
  {
   "name" : "_ZN7android8hardware2tv5tuner4V1_014DemuxIpAddress12DstIpAddressC2ERKS5_"
  },
  {
   "name" : "_ZN7android8hardware2tv5tuner4V1_014DemuxIpAddress12DstIpAddressC2Ev"
  },
  {
   "name" : "_ZN7android8hardware2tv5tuner4V1_014DemuxIpAddress12DstIpAddressD1Ev"
  },
  {
   "name" : "_ZN7android8hardware2tv5tuner4V1_014DemuxIpAddress12DstIpAddressD2Ev"
  },
  {
   "name" : "_ZN7android8hardware2tv5tuner4V1_014DemuxIpAddress12DstIpAddressaSEOS5_"
  },
  {
   "name" : "_ZN7android8hardware2tv5tuner4V1_014DemuxIpAddress12DstIpAddressaSERKS5_"
  },
  {
   "name" : "_ZN7android8hardware2tv5tuner4V1_014DemuxIpAddress12SrcIpAddress10hidl_unionC1Ev"
  },
  {
   "name" : "_ZN7android8hardware2tv5tuner4V1_014DemuxIpAddress12SrcIpAddress10hidl_unionC2Ev"
  },
  {
   "name" : "_ZN7android8hardware2tv5tuner4V1_014DemuxIpAddress12SrcIpAddress10hidl_unionD1Ev"
  },
  {
   "name" : "_ZN7android8hardware2tv5tuner4V1_014DemuxIpAddress12SrcIpAddress10hidl_unionD2Ev"
  },
  {
   "name" : "_ZN7android8hardware2tv5tuner4V1_014DemuxIpAddress12SrcIpAddress18hidl_destructUnionEv"
  },
  {
   "name" : "_ZN7android8hardware2tv5tuner4V1_014DemuxIpAddress12SrcIpAddress2v4EONS0_10hidl_arrayIhLm4EJEEE"
  },
  {
   "name" : "_ZN7android8hardware2tv5tuner4V1_014DemuxIpAddress12SrcIpAddress2v4ERKNS0_10hidl_arrayIhLm4EJEEE"
  },
  {
   "name" : "_ZN7android8hardware2tv5tuner4V1_014DemuxIpAddress12SrcIpAddress2v4Ev"
  },
  {
   "name" : "_ZN7android8hardware2tv5tuner4V1_014DemuxIpAddress12SrcIpAddress2v6EONS0_10hidl_arrayIhLm16EJEEE"
  },
  {
   "name" : "_ZN7android8hardware2tv5tuner4V1_014DemuxIpAddress12SrcIpAddress2v6ERKNS0_10hidl_arrayIhLm16EJEEE"
  },
  {
   "name" : "_ZN7android8hardware2tv5tuner4V1_014DemuxIpAddress12SrcIpAddress2v6Ev"
  },
  {
   "name" : "_ZN7android8hardware2tv5tuner4V1_014DemuxIpAddress12SrcIpAddressC1EOS5_"
  },
  {
   "name" : "_ZN7android8hardware2tv5tuner4V1_014DemuxIpAddress12SrcIpAddressC1ERKS5_"
  },
  {
   "name" : "_ZN7android8hardware2tv5tuner4V1_014DemuxIpAddress12SrcIpAddressC1Ev"
  },
  {
   "name" : "_ZN7android8hardware2tv5tuner4V1_014DemuxIpAddress12SrcIpAddressC2EOS5_"
  },
  {
   "name" : "_ZN7android8hardware2tv5tuner4V1_014DemuxIpAddress12SrcIpAddressC2ERKS5_"
  },
  {
   "name" : "_ZN7android8hardware2tv5tuner4V1_014DemuxIpAddress12SrcIpAddressC2Ev"
  },
  {
   "name" : "_ZN7android8hardware2tv5tuner4V1_014DemuxIpAddress12SrcIpAddressD1Ev"
  },
  {
   "name" : "_ZN7android8hardware2tv5tuner4V1_014DemuxIpAddress12SrcIpAddressD2Ev"
  },
  {
   "name" : "_ZN7android8hardware2tv5tuner4V1_014DemuxIpAddress12SrcIpAddressaSEOS5_"
  },
  {
   "name" : "_ZN7android8hardware2tv5tuner4V1_014DemuxIpAddress12SrcIpAddressaSERKS5_"
  },
  {
   "name" : "_ZN7android8hardware2tv5tuner4V1_014FrontendStatus10freqOffsetEi"
  },
  {
   "name" : "_ZN7android8hardware2tv5tuner4V1_014FrontendStatus10freqOffsetEv"
  },
  {
   "name" : "_ZN7android8hardware2tv5tuner4V1_014FrontendStatus10hidl_unionC1Ev"
  },
  {
   "name" : "_ZN7android8hardware2tv5tuner4V1_014FrontendStatus10hidl_unionC2Ev"
  },
  {
   "name" : "_ZN7android8hardware2tv5tuner4V1_014FrontendStatus10hidl_unionD1Ev"
  },
  {
   "name" : "_ZN7android8hardware2tv5tuner4V1_014FrontendStatus10hidl_unionD2Ev"
  },
  {
   "name" : "_ZN7android8hardware2tv5tuner4V1_014FrontendStatus10isRfLockedEb"
  },
  {
   "name" : "_ZN7android8hardware2tv5tuner4V1_014FrontendStatus10isRfLockedEv"
  },
  {
   "name" : "_ZN7android8hardware2tv5tuner4V1_014FrontendStatus10lnbVoltageENS3_10LnbVoltageE"
  },
  {
   "name" : "_ZN7android8hardware2tv5tuner4V1_014FrontendStatus10lnbVoltageEv"
  },
  {
   "name" : "_ZN7android8hardware2tv5tuner4V1_014FrontendStatus10modulationEONS3_24FrontendModulationStatusE"
  },
  {
   "name" : "_ZN7android8hardware2tv5tuner4V1_014FrontendStatus10modulationERKNS3_24FrontendModulationStatusE"
  },
  {
   "name" : "_ZN7android8hardware2tv5tuner4V1_014FrontendStatus10modulationEv"
  },
  {
   "name" : "_ZN7android8hardware2tv5tuner4V1_014FrontendStatus10symbolRateEj"
  },
  {
   "name" : "_ZN7android8hardware2tv5tuner4V1_014FrontendStatus10symbolRateEv"
  },
  {
   "name" : "_ZN7android8hardware2tv5tuner4V1_014FrontendStatus12isLayerErrorEONS0_8hidl_vecIbEE"
  },
  {
   "name" : "_ZN7android8hardware2tv5tuner4V1_014FrontendStatus12isLayerErrorERKNS0_8hidl_vecIbEE"
  },
  {
   "name" : "_ZN7android8hardware2tv5tuner4V1_014FrontendStatus12isLayerErrorEv"
  },
  {
   "name" : "_ZN7android8hardware2tv5tuner4V1_014FrontendStatus13isDemodLockedEb"
  },
  {
   "name" : "_ZN7android8hardware2tv5tuner4V1_014FrontendStatus13isDemodLockedEv"
  },
  {
   "name" : "_ZN7android8hardware2tv5tuner4V1_014FrontendStatus13signalQualityEj"
  },
  {
   "name" : "_ZN7android8hardware2tv5tuner4V1_014FrontendStatus13signalQualityEv"
  },
  {
   "name" : "_ZN7android8hardware2tv5tuner4V1_014FrontendStatus14signalStrengthEi"
  },
  {
   "name" : "_ZN7android8hardware2tv5tuner4V1_014FrontendStatus14signalStrengthEv"
  },
  {
   "name" : "_ZN7android8hardware2tv5tuner4V1_014FrontendStatus18hidl_destructUnionEv"
  },
  {
   "name" : "_ZN7android8hardware2tv5tuner4V1_014FrontendStatus3agcEh"
  },
  {
   "name" : "_ZN7android8hardware2tv5tuner4V1_014FrontendStatus3agcEv"
  },
  {
   "name" : "_ZN7android8hardware2tv5tuner4V1_014FrontendStatus3berEj"
  },
  {
   "name" : "_ZN7android8hardware2tv5tuner4V1_014FrontendStatus3berEv"
  },
  {
   "name" : "_ZN7android8hardware2tv5tuner4V1_014FrontendStatus3merEi"
  },
  {
   "name" : "_ZN7android8hardware2tv5tuner4V1_014FrontendStatus3merEv"
  },
  {
   "name" : "_ZN7android8hardware2tv5tuner4V1_014FrontendStatus3perEj"
  },
  {
   "name" : "_ZN7android8hardware2tv5tuner4V1_014FrontendStatus3perEv"
  },
  {
   "name" : "_ZN7android8hardware2tv5tuner4V1_014FrontendStatus3snrEi"
  },
  {
   "name" : "_ZN7android8hardware2tv5tuner4V1_014FrontendStatus3snrEv"
  },
  {
   "name" : "_ZN7android8hardware2tv5tuner4V1_014FrontendStatus5plpIdEh"
  },
  {
   "name" : "_ZN7android8hardware2tv5tuner4V1_014FrontendStatus5plpIdEv"
  },
  {
   "name" : "_ZN7android8hardware2tv5tuner4V1_014FrontendStatus6isEWBSEb"
  },
  {
   "name" : "_ZN7android8hardware2tv5tuner4V1_014FrontendStatus6isEWBSEv"
  },
  {
   "name" : "_ZN7android8hardware2tv5tuner4V1_014FrontendStatus6preBerEj"
  },
  {
   "name" : "_ZN7android8hardware2tv5tuner4V1_014FrontendStatus6preBerEv"
  },
  {
   "name" : "_ZN7android8hardware2tv5tuner4V1_014FrontendStatus7isLnaOnEb"
  },
  {
   "name" : "_ZN7android8hardware2tv5tuner4V1_014FrontendStatus7isLnaOnEv"
  },
  {
   "name" : "_ZN7android8hardware2tv5tuner4V1_014FrontendStatus7plpInfoEONS0_8hidl_vecINS3_26FrontendStatusAtsc3PlpInfoEEE"
  },
  {
   "name" : "_ZN7android8hardware2tv5tuner4V1_014FrontendStatus7plpInfoERKNS0_8hidl_vecINS3_26FrontendStatusAtsc3PlpInfoEEE"
  },
  {
   "name" : "_ZN7android8hardware2tv5tuner4V1_014FrontendStatus7plpInfoEv"
  },
  {
   "name" : "_ZN7android8hardware2tv5tuner4V1_014FrontendStatus8innerFecENS3_16FrontendInnerFecE"
  },
  {
   "name" : "_ZN7android8hardware2tv5tuner4V1_014FrontendStatus8innerFecEv"
  },
  {
   "name" : "_ZN7android8hardware2tv5tuner4V1_014FrontendStatus9hierarchyENS3_21FrontendDvbtHierarchyE"
  },
  {
   "name" : "_ZN7android8hardware2tv5tuner4V1_014FrontendStatus9hierarchyEv"
  },
  {
   "name" : "_ZN7android8hardware2tv5tuner4V1_014FrontendStatus9inversionENS3_29FrontendDvbcSpectralInversionE"
  },
  {
   "name" : "_ZN7android8hardware2tv5tuner4V1_014FrontendStatus9inversionEv"
  },
  {
   "name" : "_ZN7android8hardware2tv5tuner4V1_014FrontendStatusC1EOS4_"
  },
  {
   "name" : "_ZN7android8hardware2tv5tuner4V1_014FrontendStatusC1ERKS4_"
  },
  {
   "name" : "_ZN7android8hardware2tv5tuner4V1_014FrontendStatusC1Ev"
  },
  {
   "name" : "_ZN7android8hardware2tv5tuner4V1_014FrontendStatusC2EOS4_"
  },
  {
   "name" : "_ZN7android8hardware2tv5tuner4V1_014FrontendStatusC2ERKS4_"
  },
  {
   "name" : "_ZN7android8hardware2tv5tuner4V1_014FrontendStatusC2Ev"
  },
  {
   "name" : "_ZN7android8hardware2tv5tuner4V1_014FrontendStatusD1Ev"
  },
  {
   "name" : "_ZN7android8hardware2tv5tuner4V1_014FrontendStatusD2Ev"
  },
  {
   "name" : "_ZN7android8hardware2tv5tuner4V1_014FrontendStatusaSEOS4_"
  },
  {
   "name" : "_ZN7android8hardware2tv5tuner4V1_014FrontendStatusaSERKS4_"
  },
  {
   "name" : "_ZN7android8hardware2tv5tuner4V1_015BnHwDescrambler10onTransactEjRKNS0_6ParcelEPS5_jNSt3__18functionIFvRS5_EEE"
  },
  {
   "name" : "_ZN7android8hardware2tv5tuner4V1_015BnHwDescrambler11_hidl_closeEPNS_4hidl4base4V1_08BnHwBaseERKNS0_6ParcelEPSA_NSt3__18functionIFvRSA_EEE"
  },
  {
   "name" : "_ZN7android8hardware2tv5tuner4V1_015BnHwDescrambler12_hidl_addPidEPNS_4hidl4base4V1_08BnHwBaseERKNS0_6ParcelEPSA_NSt3__18functionIFvRSA_EEE"
  },
  {
   "name" : "_ZN7android8hardware2tv5tuner4V1_015BnHwDescrambler12getDebugInfoENSt3__18functionIFvRKNS_4hidl4base4V1_09DebugInfoEEEE"
  },
  {
   "name" : "_ZN7android8hardware2tv5tuner4V1_015BnHwDescrambler15_hidl_removePidEPNS_4hidl4base4V1_08BnHwBaseERKNS0_6ParcelEPSA_NSt3__18functionIFvRSA_EEE"
  },
  {
   "name" : "_ZN7android8hardware2tv5tuner4V1_015BnHwDescrambler17_hidl_setKeyTokenEPNS_4hidl4base4V1_08BnHwBaseERKNS0_6ParcelEPSA_NSt3__18functionIFvRSA_EEE"
  },
  {
   "name" : "_ZN7android8hardware2tv5tuner4V1_015BnHwDescrambler20_hidl_setDemuxSourceEPNS_4hidl4base4V1_08BnHwBaseERKNS0_6ParcelEPSA_NSt3__18functionIFvRSA_EEE"
  },
  {
   "name" : "_ZN7android8hardware2tv5tuner4V1_015BnHwDescrambler4pingEv"
  },
  {
   "name" : "_ZN7android8hardware2tv5tuner4V1_015BnHwDescramblerC1ERKNS_2spINS3_12IDescramblerEEE"
  },
  {
   "name" : "_ZN7android8hardware2tv5tuner4V1_015BnHwDescramblerC2ERKNS_2spINS3_12IDescramblerEEE"
  },
  {
   "name" : "_ZN7android8hardware2tv5tuner4V1_015BnHwDescramblerD0Ev"
  },
  {
   "name" : "_ZN7android8hardware2tv5tuner4V1_015BnHwDescramblerD1Ev"
  },
  {
   "name" : "_ZN7android8hardware2tv5tuner4V1_015BnHwDescramblerD2Ev"
  },
  {
   "name" : "_ZN7android8hardware2tv5tuner4V1_015BnHwDvrCallback10onTransactEjRKNS0_6ParcelEPS5_jNSt3__18functionIFvRS5_EEE"
  },
  {
   "name" : "_ZN7android8hardware2tv5tuner4V1_015BnHwDvrCallback12getDebugInfoENSt3__18functionIFvRKNS_4hidl4base4V1_09DebugInfoEEEE"
  },
  {
   "name" : "_ZN7android8hardware2tv5tuner4V1_015BnHwDvrCallback20_hidl_onRecordStatusEPNS_4hidl4base4V1_08BnHwBaseERKNS0_6ParcelEPSA_NSt3__18functionIFvRSA_EEE"
  },
  {
   "name" : "_ZN7android8hardware2tv5tuner4V1_015BnHwDvrCallback22_hidl_onPlaybackStatusEPNS_4hidl4base4V1_08BnHwBaseERKNS0_6ParcelEPSA_NSt3__18functionIFvRSA_EEE"
  },
  {
   "name" : "_ZN7android8hardware2tv5tuner4V1_015BnHwDvrCallback4pingEv"
  },
  {
   "name" : "_ZN7android8hardware2tv5tuner4V1_015BnHwDvrCallbackC1ERKNS_2spINS3_12IDvrCallbackEEE"
  },
  {
   "name" : "_ZN7android8hardware2tv5tuner4V1_015BnHwDvrCallbackC2ERKNS_2spINS3_12IDvrCallbackEEE"
  },
  {
   "name" : "_ZN7android8hardware2tv5tuner4V1_015BnHwDvrCallbackD0Ev"
  },
  {
   "name" : "_ZN7android8hardware2tv5tuner4V1_015BnHwDvrCallbackD1Ev"
  },
  {
   "name" : "_ZN7android8hardware2tv5tuner4V1_015BnHwDvrCallbackD2Ev"
  },
  {
   "name" : "_ZN7android8hardware2tv5tuner4V1_015BnHwLnbCallback10onTransactEjRKNS0_6ParcelEPS5_jNSt3__18functionIFvRS5_EEE"
  },
  {
   "name" : "_ZN7android8hardware2tv5tuner4V1_015BnHwLnbCallback12getDebugInfoENSt3__18functionIFvRKNS_4hidl4base4V1_09DebugInfoEEEE"
  },
  {
   "name" : "_ZN7android8hardware2tv5tuner4V1_015BnHwLnbCallback13_hidl_onEventEPNS_4hidl4base4V1_08BnHwBaseERKNS0_6ParcelEPSA_NSt3__18functionIFvRSA_EEE"
  },
  {
   "name" : "_ZN7android8hardware2tv5tuner4V1_015BnHwLnbCallback21_hidl_onDiseqcMessageEPNS_4hidl4base4V1_08BnHwBaseERKNS0_6ParcelEPSA_NSt3__18functionIFvRSA_EEE"
  },
  {
   "name" : "_ZN7android8hardware2tv5tuner4V1_015BnHwLnbCallback4pingEv"
  },
  {
   "name" : "_ZN7android8hardware2tv5tuner4V1_015BnHwLnbCallbackC1ERKNS_2spINS3_12ILnbCallbackEEE"
  },
  {
   "name" : "_ZN7android8hardware2tv5tuner4V1_015BnHwLnbCallbackC2ERKNS_2spINS3_12ILnbCallbackEEE"
  },
  {
   "name" : "_ZN7android8hardware2tv5tuner4V1_015BnHwLnbCallbackD0Ev"
  },
  {
   "name" : "_ZN7android8hardware2tv5tuner4V1_015BnHwLnbCallbackD1Ev"
  },
  {
   "name" : "_ZN7android8hardware2tv5tuner4V1_015BnHwLnbCallbackD2Ev"
  },
  {
   "name" : "_ZN7android8hardware2tv5tuner4V1_015BpHwDescrambler11_hidl_closeEPNS0_10IInterfaceEPNS0_7details16HidlInstrumentorE"
  },
  {
   "name" : "_ZN7android8hardware2tv5tuner4V1_015BpHwDescrambler11linkToDeathERKNS_2spINS0_20hidl_death_recipientEEEm"
  },
  {
   "name" : "_ZN7android8hardware2tv5tuner4V1_015BpHwDescrambler11setKeyTokenERKNS0_8hidl_vecIhEE"
  },
  {
   "name" : "_ZN7android8hardware2tv5tuner4V1_015BpHwDescrambler12_hidl_addPidEPNS0_10IInterfaceEPNS0_7details16HidlInstrumentorERKNS3_8DemuxPidERKNS_2spINS3_7IFilterEEE"
  },
  {
   "name" : "_ZN7android8hardware2tv5tuner4V1_015BpHwDescrambler12getDebugInfoENSt3__18functionIFvRKNS_4hidl4base4V1_09DebugInfoEEEE"
  },
  {
   "name" : "_ZN7android8hardware2tv5tuner4V1_015BpHwDescrambler12getHashChainENSt3__18functionIFvRKNS0_8hidl_vecINS0_10hidl_arrayIhLm32EJEEEEEEEE"
  },
  {
   "name" : "_ZN7android8hardware2tv5tuner4V1_015BpHwDescrambler13unlinkToDeathERKNS_2spINS0_20hidl_death_recipientEEE"
  },
  {
   "name" : "_ZN7android8hardware2tv5tuner4V1_015BpHwDescrambler14interfaceChainENSt3__18functionIFvRKNS0_8hidl_vecINS0_11hidl_stringEEEEEE"
  },
  {
   "name" : "_ZN7android8hardware2tv5tuner4V1_015BpHwDescrambler14setDemuxSourceEj"
  },
  {
   "name" : "_ZN7android8hardware2tv5tuner4V1_015BpHwDescrambler15_hidl_removePidEPNS0_10IInterfaceEPNS0_7details16HidlInstrumentorERKNS3_8DemuxPidERKNS_2spINS3_7IFilterEEE"
  },
  {
   "name" : "_ZN7android8hardware2tv5tuner4V1_015BpHwDescrambler15onLastStrongRefEPKv"
  },
  {
   "name" : "_ZN7android8hardware2tv5tuner4V1_015BpHwDescrambler17_hidl_setKeyTokenEPNS0_10IInterfaceEPNS0_7details16HidlInstrumentorERKNS0_8hidl_vecIhEE"
  },
  {
   "name" : "_ZN7android8hardware2tv5tuner4V1_015BpHwDescrambler19interfaceDescriptorENSt3__18functionIFvRKNS0_11hidl_stringEEEE"
  },
  {
   "name" : "_ZN7android8hardware2tv5tuner4V1_015BpHwDescrambler20_hidl_setDemuxSourceEPNS0_10IInterfaceEPNS0_7details16HidlInstrumentorEj"
  },
  {
   "name" : "_ZN7android8hardware2tv5tuner4V1_015BpHwDescrambler21notifySyspropsChangedEv"
  },
  {
   "name" : "_ZN7android8hardware2tv5tuner4V1_015BpHwDescrambler21setHALInstrumentationEv"
  },
  {
   "name" : "_ZN7android8hardware2tv5tuner4V1_015BpHwDescrambler4pingEv"
  },
  {
   "name" : "_ZN7android8hardware2tv5tuner4V1_015BpHwDescrambler5closeEv"
  },
  {
   "name" : "_ZN7android8hardware2tv5tuner4V1_015BpHwDescrambler5debugERKNS0_11hidl_handleERKNS0_8hidl_vecINS0_11hidl_stringEEE"
  },
  {
   "name" : "_ZN7android8hardware2tv5tuner4V1_015BpHwDescrambler6addPidERKNS3_8DemuxPidERKNS_2spINS3_7IFilterEEE"
  },
  {
   "name" : "_ZN7android8hardware2tv5tuner4V1_015BpHwDescrambler9removePidERKNS3_8DemuxPidERKNS_2spINS3_7IFilterEEE"
  },
  {
   "name" : "_ZN7android8hardware2tv5tuner4V1_015BpHwDescramblerC1ERKNS_2spINS0_7IBinderEEE"
  },
  {
   "name" : "_ZN7android8hardware2tv5tuner4V1_015BpHwDescramblerC2ERKNS_2spINS0_7IBinderEEE"
  },
  {
   "name" : "_ZN7android8hardware2tv5tuner4V1_015BpHwDvrCallback11linkToDeathERKNS_2spINS0_20hidl_death_recipientEEEm"
  },
  {
   "name" : "_ZN7android8hardware2tv5tuner4V1_015BpHwDvrCallback12getDebugInfoENSt3__18functionIFvRKNS_4hidl4base4V1_09DebugInfoEEEE"
  },
  {
   "name" : "_ZN7android8hardware2tv5tuner4V1_015BpHwDvrCallback12getHashChainENSt3__18functionIFvRKNS0_8hidl_vecINS0_10hidl_arrayIhLm32EJEEEEEEEE"
  },
  {
   "name" : "_ZN7android8hardware2tv5tuner4V1_015BpHwDvrCallback13unlinkToDeathERKNS_2spINS0_20hidl_death_recipientEEE"
  },
  {
   "name" : "_ZN7android8hardware2tv5tuner4V1_015BpHwDvrCallback14interfaceChainENSt3__18functionIFvRKNS0_8hidl_vecINS0_11hidl_stringEEEEEE"
  },
  {
   "name" : "_ZN7android8hardware2tv5tuner4V1_015BpHwDvrCallback14onRecordStatusENS3_17DemuxFilterStatusE"
  },
  {
   "name" : "_ZN7android8hardware2tv5tuner4V1_015BpHwDvrCallback15onLastStrongRefEPKv"
  },
  {
   "name" : "_ZN7android8hardware2tv5tuner4V1_015BpHwDvrCallback16onPlaybackStatusENS3_14PlaybackStatusE"
  },
  {
   "name" : "_ZN7android8hardware2tv5tuner4V1_015BpHwDvrCallback19interfaceDescriptorENSt3__18functionIFvRKNS0_11hidl_stringEEEE"
  },
  {
   "name" : "_ZN7android8hardware2tv5tuner4V1_015BpHwDvrCallback20_hidl_onRecordStatusEPNS0_10IInterfaceEPNS0_7details16HidlInstrumentorENS3_17DemuxFilterStatusE"
  },
  {
   "name" : "_ZN7android8hardware2tv5tuner4V1_015BpHwDvrCallback21notifySyspropsChangedEv"
  },
  {
   "name" : "_ZN7android8hardware2tv5tuner4V1_015BpHwDvrCallback21setHALInstrumentationEv"
  },
  {
   "name" : "_ZN7android8hardware2tv5tuner4V1_015BpHwDvrCallback22_hidl_onPlaybackStatusEPNS0_10IInterfaceEPNS0_7details16HidlInstrumentorENS3_14PlaybackStatusE"
  },
  {
   "name" : "_ZN7android8hardware2tv5tuner4V1_015BpHwDvrCallback4pingEv"
  },
  {
   "name" : "_ZN7android8hardware2tv5tuner4V1_015BpHwDvrCallback5debugERKNS0_11hidl_handleERKNS0_8hidl_vecINS0_11hidl_stringEEE"
  },
  {
   "name" : "_ZN7android8hardware2tv5tuner4V1_015BpHwDvrCallbackC1ERKNS_2spINS0_7IBinderEEE"
  },
  {
   "name" : "_ZN7android8hardware2tv5tuner4V1_015BpHwDvrCallbackC2ERKNS_2spINS0_7IBinderEEE"
  },
  {
   "name" : "_ZN7android8hardware2tv5tuner4V1_015BpHwLnbCallback11linkToDeathERKNS_2spINS0_20hidl_death_recipientEEEm"
  },
  {
   "name" : "_ZN7android8hardware2tv5tuner4V1_015BpHwLnbCallback12getDebugInfoENSt3__18functionIFvRKNS_4hidl4base4V1_09DebugInfoEEEE"
  },
  {
   "name" : "_ZN7android8hardware2tv5tuner4V1_015BpHwLnbCallback12getHashChainENSt3__18functionIFvRKNS0_8hidl_vecINS0_10hidl_arrayIhLm32EJEEEEEEEE"
  },
  {
   "name" : "_ZN7android8hardware2tv5tuner4V1_015BpHwLnbCallback13_hidl_onEventEPNS0_10IInterfaceEPNS0_7details16HidlInstrumentorENS3_12LnbEventTypeE"
  },
  {
   "name" : "_ZN7android8hardware2tv5tuner4V1_015BpHwLnbCallback13unlinkToDeathERKNS_2spINS0_20hidl_death_recipientEEE"
  },
  {
   "name" : "_ZN7android8hardware2tv5tuner4V1_015BpHwLnbCallback14interfaceChainENSt3__18functionIFvRKNS0_8hidl_vecINS0_11hidl_stringEEEEEE"
  },
  {
   "name" : "_ZN7android8hardware2tv5tuner4V1_015BpHwLnbCallback15onDiseqcMessageERKNS0_8hidl_vecIhEE"
  },
  {
   "name" : "_ZN7android8hardware2tv5tuner4V1_015BpHwLnbCallback15onLastStrongRefEPKv"
  },
  {
   "name" : "_ZN7android8hardware2tv5tuner4V1_015BpHwLnbCallback19interfaceDescriptorENSt3__18functionIFvRKNS0_11hidl_stringEEEE"
  },
  {
   "name" : "_ZN7android8hardware2tv5tuner4V1_015BpHwLnbCallback21_hidl_onDiseqcMessageEPNS0_10IInterfaceEPNS0_7details16HidlInstrumentorERKNS0_8hidl_vecIhEE"
  },
  {
   "name" : "_ZN7android8hardware2tv5tuner4V1_015BpHwLnbCallback21notifySyspropsChangedEv"
  },
  {
   "name" : "_ZN7android8hardware2tv5tuner4V1_015BpHwLnbCallback21setHALInstrumentationEv"
  },
  {
   "name" : "_ZN7android8hardware2tv5tuner4V1_015BpHwLnbCallback4pingEv"
  },
  {
   "name" : "_ZN7android8hardware2tv5tuner4V1_015BpHwLnbCallback5debugERKNS0_11hidl_handleERKNS0_8hidl_vecINS0_11hidl_stringEEE"
  },
  {
   "name" : "_ZN7android8hardware2tv5tuner4V1_015BpHwLnbCallback7onEventENS3_12LnbEventTypeE"
  },
  {
   "name" : "_ZN7android8hardware2tv5tuner4V1_015BpHwLnbCallbackC1ERKNS_2spINS0_7IBinderEEE"
  },
  {
   "name" : "_ZN7android8hardware2tv5tuner4V1_015BpHwLnbCallbackC2ERKNS_2spINS0_7IBinderEEE"
  },
  {
   "name" : "_ZN7android8hardware2tv5tuner4V1_015DemuxFilterType18DemuxFilterSubType10hidl_unionC1Ev"
  },
  {
   "name" : "_ZN7android8hardware2tv5tuner4V1_015DemuxFilterType18DemuxFilterSubType10hidl_unionC2Ev"
  },
  {
   "name" : "_ZN7android8hardware2tv5tuner4V1_015DemuxFilterType18DemuxFilterSubType10hidl_unionD1Ev"
  },
  {
   "name" : "_ZN7android8hardware2tv5tuner4V1_015DemuxFilterType18DemuxFilterSubType10hidl_unionD2Ev"
  },
  {
   "name" : "_ZN7android8hardware2tv5tuner4V1_015DemuxFilterType18DemuxFilterSubType12ipFilterTypeENS3_17DemuxIpFilterTypeE"
  },
  {
   "name" : "_ZN7android8hardware2tv5tuner4V1_015DemuxFilterType18DemuxFilterSubType12ipFilterTypeEv"
  },
  {
   "name" : "_ZN7android8hardware2tv5tuner4V1_015DemuxFilterType18DemuxFilterSubType12tsFilterTypeENS3_17DemuxTsFilterTypeE"
  },
  {
   "name" : "_ZN7android8hardware2tv5tuner4V1_015DemuxFilterType18DemuxFilterSubType12tsFilterTypeEv"
  },
  {
   "name" : "_ZN7android8hardware2tv5tuner4V1_015DemuxFilterType18DemuxFilterSubType13alpFilterTypeENS3_18DemuxAlpFilterTypeE"
  },
  {
   "name" : "_ZN7android8hardware2tv5tuner4V1_015DemuxFilterType18DemuxFilterSubType13alpFilterTypeEv"
  },
  {
   "name" : "_ZN7android8hardware2tv5tuner4V1_015DemuxFilterType18DemuxFilterSubType13tlvFilterTypeENS3_18DemuxTlvFilterTypeE"
  },
  {
   "name" : "_ZN7android8hardware2tv5tuner4V1_015DemuxFilterType18DemuxFilterSubType13tlvFilterTypeEv"
  },
  {
   "name" : "_ZN7android8hardware2tv5tuner4V1_015DemuxFilterType18DemuxFilterSubType14mmtpFilterTypeENS3_19DemuxMmtpFilterTypeE"
  },
  {
   "name" : "_ZN7android8hardware2tv5tuner4V1_015DemuxFilterType18DemuxFilterSubType14mmtpFilterTypeEv"
  },
  {
   "name" : "_ZN7android8hardware2tv5tuner4V1_015DemuxFilterType18DemuxFilterSubType18hidl_destructUnionEv"
  },
  {
   "name" : "_ZN7android8hardware2tv5tuner4V1_015DemuxFilterType18DemuxFilterSubTypeC1EOS5_"
  },
  {
   "name" : "_ZN7android8hardware2tv5tuner4V1_015DemuxFilterType18DemuxFilterSubTypeC1ERKS5_"
  },
  {
   "name" : "_ZN7android8hardware2tv5tuner4V1_015DemuxFilterType18DemuxFilterSubTypeC1Ev"
  },
  {
   "name" : "_ZN7android8hardware2tv5tuner4V1_015DemuxFilterType18DemuxFilterSubTypeC2EOS5_"
  },
  {
   "name" : "_ZN7android8hardware2tv5tuner4V1_015DemuxFilterType18DemuxFilterSubTypeC2ERKS5_"
  },
  {
   "name" : "_ZN7android8hardware2tv5tuner4V1_015DemuxFilterType18DemuxFilterSubTypeC2Ev"
  },
  {
   "name" : "_ZN7android8hardware2tv5tuner4V1_015DemuxFilterType18DemuxFilterSubTypeD1Ev"
  },
  {
   "name" : "_ZN7android8hardware2tv5tuner4V1_015DemuxFilterType18DemuxFilterSubTypeD2Ev"
  },
  {
   "name" : "_ZN7android8hardware2tv5tuner4V1_015DemuxFilterType18DemuxFilterSubTypeaSEOS5_"
  },
  {
   "name" : "_ZN7android8hardware2tv5tuner4V1_015DemuxFilterType18DemuxFilterSubTypeaSERKS5_"
  },
  {
   "name" : "_ZN7android8hardware2tv5tuner4V1_015IFilterCallback10getServiceERKNSt3__112basic_stringIcNS5_11char_traitsIcEENS5_9allocatorIcEEEEb"
  },
  {
   "name" : "_ZN7android8hardware2tv5tuner4V1_015IFilterCallback11linkToDeathERKNS_2spINS0_20hidl_death_recipientEEEm"
  },
  {
   "name" : "_ZN7android8hardware2tv5tuner4V1_015IFilterCallback12getDebugInfoENSt3__18functionIFvRKNS_4hidl4base4V1_09DebugInfoEEEE"
  },
  {
   "name" : "_ZN7android8hardware2tv5tuner4V1_015IFilterCallback12getHashChainENSt3__18functionIFvRKNS0_8hidl_vecINS0_10hidl_arrayIhLm32EJEEEEEEEE"
  },
  {
   "name" : "_ZN7android8hardware2tv5tuner4V1_015IFilterCallback13tryGetServiceERKNSt3__112basic_stringIcNS5_11char_traitsIcEENS5_9allocatorIcEEEEb"
  },
  {
   "name" : "_ZN7android8hardware2tv5tuner4V1_015IFilterCallback13unlinkToDeathERKNS_2spINS0_20hidl_death_recipientEEE"
  },
  {
   "name" : "_ZN7android8hardware2tv5tuner4V1_015IFilterCallback14interfaceChainENSt3__18functionIFvRKNS0_8hidl_vecINS0_11hidl_stringEEEEEE"
  },
  {
   "name" : "_ZN7android8hardware2tv5tuner4V1_015IFilterCallback17registerAsServiceERKNSt3__112basic_stringIcNS5_11char_traitsIcEENS5_9allocatorIcEEEE"
  },
  {
   "name" : "_ZN7android8hardware2tv5tuner4V1_015IFilterCallback19interfaceDescriptorENSt3__18functionIFvRKNS0_11hidl_stringEEEE"
  },
  {
   "name" : "_ZN7android8hardware2tv5tuner4V1_015IFilterCallback21notifySyspropsChangedEv"
  },
  {
   "name" : "_ZN7android8hardware2tv5tuner4V1_015IFilterCallback21setHALInstrumentationEv"
  },
  {
   "name" : "_ZN7android8hardware2tv5tuner4V1_015IFilterCallback24registerForNotificationsERKNSt3__112basic_stringIcNS5_11char_traitsIcEENS5_9allocatorIcEEEERKNS_2spINS_4hidl7manager4V1_020IServiceNotificationEEE"
  },
  {
   "name" : "_ZN7android8hardware2tv5tuner4V1_015IFilterCallback4pingEv"
  },
  {
   "name" : "_ZN7android8hardware2tv5tuner4V1_015IFilterCallback5debugERKNS0_11hidl_handleERKNS0_8hidl_vecINS0_11hidl_stringEEE"
  },
  {
   "name" : "_ZN7android8hardware2tv5tuner4V1_015IFilterCallback8castFromERKNS_2spINS_4hidl4base4V1_05IBaseEEEb"
  },
  {
   "name" : "_ZN7android8hardware2tv5tuner4V1_015IFilterCallback8castFromERKNS_2spIS4_EEb"
  },
  {
   "name" : "_ZN7android8hardware2tv5tuner4V1_016BsFilterCallback13addOnewayTaskENSt3__18functionIFvvEEE"
  },
  {
   "name" : "_ZN7android8hardware2tv5tuner4V1_016BsFilterCallbackC1ENS_2spINS3_15IFilterCallbackEEE"
  },
  {
   "name" : "_ZN7android8hardware2tv5tuner4V1_016BsFilterCallbackC2ENS_2spINS3_15IFilterCallbackEEE"
  },
  {
   "name" : "_ZN7android8hardware2tv5tuner4V1_016DemuxFilterEvent5Event10hidl_unionC1Ev"
  },
  {
   "name" : "_ZN7android8hardware2tv5tuner4V1_016DemuxFilterEvent5Event10hidl_unionC2Ev"
  },
  {
   "name" : "_ZN7android8hardware2tv5tuner4V1_016DemuxFilterEvent5Event10hidl_unionD1Ev"
  },
  {
   "name" : "_ZN7android8hardware2tv5tuner4V1_016DemuxFilterEvent5Event10hidl_unionD2Ev"
  },
  {
   "name" : "_ZN7android8hardware2tv5tuner4V1_016DemuxFilterEvent5Event10mmtpRecordEONS3_26DemuxFilterMmtpRecordEventE"
  },
  {
   "name" : "_ZN7android8hardware2tv5tuner4V1_016DemuxFilterEvent5Event10mmtpRecordERKNS3_26DemuxFilterMmtpRecordEventE"
  },
  {
   "name" : "_ZN7android8hardware2tv5tuner4V1_016DemuxFilterEvent5Event10mmtpRecordEv"
  },
  {
   "name" : "_ZN7android8hardware2tv5tuner4V1_016DemuxFilterEvent5Event18hidl_destructUnionEv"
  },
  {
   "name" : "_ZN7android8hardware2tv5tuner4V1_016DemuxFilterEvent5Event3pesEONS3_19DemuxFilterPesEventE"
  },
  {
   "name" : "_ZN7android8hardware2tv5tuner4V1_016DemuxFilterEvent5Event3pesERKNS3_19DemuxFilterPesEventE"
  },
  {
   "name" : "_ZN7android8hardware2tv5tuner4V1_016DemuxFilterEvent5Event3pesEv"
  },
  {
   "name" : "_ZN7android8hardware2tv5tuner4V1_016DemuxFilterEvent5Event4temiEONS3_20DemuxFilterTemiEventE"
  },
  {
   "name" : "_ZN7android8hardware2tv5tuner4V1_016DemuxFilterEvent5Event4temiERKNS3_20DemuxFilterTemiEventE"
  },
  {
   "name" : "_ZN7android8hardware2tv5tuner4V1_016DemuxFilterEvent5Event4temiEv"
  },
  {
   "name" : "_ZN7android8hardware2tv5tuner4V1_016DemuxFilterEvent5Event5mediaEONS3_21DemuxFilterMediaEventE"
  },
  {
   "name" : "_ZN7android8hardware2tv5tuner4V1_016DemuxFilterEvent5Event5mediaERKNS3_21DemuxFilterMediaEventE"
  },
  {
   "name" : "_ZN7android8hardware2tv5tuner4V1_016DemuxFilterEvent5Event5mediaEv"
  },
  {
   "name" : "_ZN7android8hardware2tv5tuner4V1_016DemuxFilterEvent5Event7sectionEONS3_23DemuxFilterSectionEventE"
  },
  {
   "name" : "_ZN7android8hardware2tv5tuner4V1_016DemuxFilterEvent5Event7sectionERKNS3_23DemuxFilterSectionEventE"
  },
  {
   "name" : "_ZN7android8hardware2tv5tuner4V1_016DemuxFilterEvent5Event7sectionEv"
  },
  {
   "name" : "_ZN7android8hardware2tv5tuner4V1_016DemuxFilterEvent5Event8downloadEONS3_24DemuxFilterDownloadEventE"
  },
  {
   "name" : "_ZN7android8hardware2tv5tuner4V1_016DemuxFilterEvent5Event8downloadERKNS3_24DemuxFilterDownloadEventE"
  },
  {
   "name" : "_ZN7android8hardware2tv5tuner4V1_016DemuxFilterEvent5Event8downloadEv"
  },
  {
   "name" : "_ZN7android8hardware2tv5tuner4V1_016DemuxFilterEvent5Event8tsRecordEONS3_24DemuxFilterTsRecordEventE"
  },
  {
   "name" : "_ZN7android8hardware2tv5tuner4V1_016DemuxFilterEvent5Event8tsRecordERKNS3_24DemuxFilterTsRecordEventE"
  },
  {
   "name" : "_ZN7android8hardware2tv5tuner4V1_016DemuxFilterEvent5Event8tsRecordEv"
  },
  {
   "name" : "_ZN7android8hardware2tv5tuner4V1_016DemuxFilterEvent5Event9ipPayloadEONS3_25DemuxFilterIpPayloadEventE"
  },
  {
   "name" : "_ZN7android8hardware2tv5tuner4V1_016DemuxFilterEvent5Event9ipPayloadERKNS3_25DemuxFilterIpPayloadEventE"
  },
  {
   "name" : "_ZN7android8hardware2tv5tuner4V1_016DemuxFilterEvent5Event9ipPayloadEv"
  },
  {
   "name" : "_ZN7android8hardware2tv5tuner4V1_016DemuxFilterEvent5EventC1EOS5_"
  },
  {
   "name" : "_ZN7android8hardware2tv5tuner4V1_016DemuxFilterEvent5EventC1ERKS5_"
  },
  {
   "name" : "_ZN7android8hardware2tv5tuner4V1_016DemuxFilterEvent5EventC1Ev"
  },
  {
   "name" : "_ZN7android8hardware2tv5tuner4V1_016DemuxFilterEvent5EventC2EOS5_"
  },
  {
   "name" : "_ZN7android8hardware2tv5tuner4V1_016DemuxFilterEvent5EventC2ERKS5_"
  },
  {
   "name" : "_ZN7android8hardware2tv5tuner4V1_016DemuxFilterEvent5EventC2Ev"
  },
  {
   "name" : "_ZN7android8hardware2tv5tuner4V1_016DemuxFilterEvent5EventD1Ev"
  },
  {
   "name" : "_ZN7android8hardware2tv5tuner4V1_016DemuxFilterEvent5EventD2Ev"
  },
  {
   "name" : "_ZN7android8hardware2tv5tuner4V1_016DemuxFilterEvent5EventaSEOS5_"
  },
  {
   "name" : "_ZN7android8hardware2tv5tuner4V1_016DemuxFilterEvent5EventaSERKS5_"
  },
  {
   "name" : "_ZN7android8hardware2tv5tuner4V1_016FrontendSettings10hidl_unionC1Ev"
  },
  {
   "name" : "_ZN7android8hardware2tv5tuner4V1_016FrontendSettings10hidl_unionC2Ev"
  },
  {
   "name" : "_ZN7android8hardware2tv5tuner4V1_016FrontendSettings10hidl_unionD1Ev"
  },
  {
   "name" : "_ZN7android8hardware2tv5tuner4V1_016FrontendSettings10hidl_unionD2Ev"
  },
  {
   "name" : "_ZN7android8hardware2tv5tuner4V1_016FrontendSettings18hidl_destructUnionEv"
  },
  {
   "name" : "_ZN7android8hardware2tv5tuner4V1_016FrontendSettings4atscEONS3_20FrontendAtscSettingsE"
  },
  {
   "name" : "_ZN7android8hardware2tv5tuner4V1_016FrontendSettings4atscERKNS3_20FrontendAtscSettingsE"
  },
  {
   "name" : "_ZN7android8hardware2tv5tuner4V1_016FrontendSettings4atscEv"
  },
  {
   "name" : "_ZN7android8hardware2tv5tuner4V1_016FrontendSettings4dvbcEONS3_20FrontendDvbcSettingsE"
  },
  {
   "name" : "_ZN7android8hardware2tv5tuner4V1_016FrontendSettings4dvbcERKNS3_20FrontendDvbcSettingsE"
  },
  {
   "name" : "_ZN7android8hardware2tv5tuner4V1_016FrontendSettings4dvbcEv"
  },
  {
   "name" : "_ZN7android8hardware2tv5tuner4V1_016FrontendSettings4dvbsEONS3_20FrontendDvbsSettingsE"
  },
  {
   "name" : "_ZN7android8hardware2tv5tuner4V1_016FrontendSettings4dvbsERKNS3_20FrontendDvbsSettingsE"
  },
  {
   "name" : "_ZN7android8hardware2tv5tuner4V1_016FrontendSettings4dvbsEv"
  },
  {
   "name" : "_ZN7android8hardware2tv5tuner4V1_016FrontendSettings4dvbtEONS3_20FrontendDvbtSettingsE"
  },
  {
   "name" : "_ZN7android8hardware2tv5tuner4V1_016FrontendSettings4dvbtERKNS3_20FrontendDvbtSettingsE"
  },
  {
   "name" : "_ZN7android8hardware2tv5tuner4V1_016FrontendSettings4dvbtEv"
  },
  {
   "name" : "_ZN7android8hardware2tv5tuner4V1_016FrontendSettings5atsc3EONS3_21FrontendAtsc3SettingsE"
  },
  {
   "name" : "_ZN7android8hardware2tv5tuner4V1_016FrontendSettings5atsc3ERKNS3_21FrontendAtsc3SettingsE"
  },
  {
   "name" : "_ZN7android8hardware2tv5tuner4V1_016FrontendSettings5atsc3Ev"
  },
  {
   "name" : "_ZN7android8hardware2tv5tuner4V1_016FrontendSettings5isdbsEONS3_21FrontendIsdbsSettingsE"
  },
  {
   "name" : "_ZN7android8hardware2tv5tuner4V1_016FrontendSettings5isdbsERKNS3_21FrontendIsdbsSettingsE"
  },
  {
   "name" : "_ZN7android8hardware2tv5tuner4V1_016FrontendSettings5isdbsEv"
  },
  {
   "name" : "_ZN7android8hardware2tv5tuner4V1_016FrontendSettings5isdbtEONS3_21FrontendIsdbtSettingsE"
  },
  {
   "name" : "_ZN7android8hardware2tv5tuner4V1_016FrontendSettings5isdbtERKNS3_21FrontendIsdbtSettingsE"
  },
  {
   "name" : "_ZN7android8hardware2tv5tuner4V1_016FrontendSettings5isdbtEv"
  },
  {
   "name" : "_ZN7android8hardware2tv5tuner4V1_016FrontendSettings6analogEONS3_22FrontendAnalogSettingsE"
  },
  {
   "name" : "_ZN7android8hardware2tv5tuner4V1_016FrontendSettings6analogERKNS3_22FrontendAnalogSettingsE"
  },
  {
   "name" : "_ZN7android8hardware2tv5tuner4V1_016FrontendSettings6analogEv"
  },
  {
   "name" : "_ZN7android8hardware2tv5tuner4V1_016FrontendSettings6isdbs3EONS3_22FrontendIsdbs3SettingsE"
  },
  {
   "name" : "_ZN7android8hardware2tv5tuner4V1_016FrontendSettings6isdbs3ERKNS3_22FrontendIsdbs3SettingsE"
  },
  {
   "name" : "_ZN7android8hardware2tv5tuner4V1_016FrontendSettings6isdbs3Ev"
  },
  {
   "name" : "_ZN7android8hardware2tv5tuner4V1_016FrontendSettingsC1EOS4_"
  },
  {
   "name" : "_ZN7android8hardware2tv5tuner4V1_016FrontendSettingsC1ERKS4_"
  },
  {
   "name" : "_ZN7android8hardware2tv5tuner4V1_016FrontendSettingsC1Ev"
  },
  {
   "name" : "_ZN7android8hardware2tv5tuner4V1_016FrontendSettingsC2EOS4_"
  },
  {
   "name" : "_ZN7android8hardware2tv5tuner4V1_016FrontendSettingsC2ERKS4_"
  },
  {
   "name" : "_ZN7android8hardware2tv5tuner4V1_016FrontendSettingsC2Ev"
  },
  {
   "name" : "_ZN7android8hardware2tv5tuner4V1_016FrontendSettingsD1Ev"
  },
  {
   "name" : "_ZN7android8hardware2tv5tuner4V1_016FrontendSettingsD2Ev"
  },
  {
   "name" : "_ZN7android8hardware2tv5tuner4V1_016FrontendSettingsaSEOS4_"
  },
  {
   "name" : "_ZN7android8hardware2tv5tuner4V1_016FrontendSettingsaSERKS4_"
  },
  {
   "name" : "_ZN7android8hardware2tv5tuner4V1_017IFrontendCallback10getServiceERKNSt3__112basic_stringIcNS5_11char_traitsIcEENS5_9allocatorIcEEEEb"
  },
  {
   "name" : "_ZN7android8hardware2tv5tuner4V1_017IFrontendCallback11linkToDeathERKNS_2spINS0_20hidl_death_recipientEEEm"
  },
  {
   "name" : "_ZN7android8hardware2tv5tuner4V1_017IFrontendCallback12getDebugInfoENSt3__18functionIFvRKNS_4hidl4base4V1_09DebugInfoEEEE"
  },
  {
   "name" : "_ZN7android8hardware2tv5tuner4V1_017IFrontendCallback12getHashChainENSt3__18functionIFvRKNS0_8hidl_vecINS0_10hidl_arrayIhLm32EJEEEEEEEE"
  },
  {
   "name" : "_ZN7android8hardware2tv5tuner4V1_017IFrontendCallback13tryGetServiceERKNSt3__112basic_stringIcNS5_11char_traitsIcEENS5_9allocatorIcEEEEb"
  },
  {
   "name" : "_ZN7android8hardware2tv5tuner4V1_017IFrontendCallback13unlinkToDeathERKNS_2spINS0_20hidl_death_recipientEEE"
  },
  {
   "name" : "_ZN7android8hardware2tv5tuner4V1_017IFrontendCallback14interfaceChainENSt3__18functionIFvRKNS0_8hidl_vecINS0_11hidl_stringEEEEEE"
  },
  {
   "name" : "_ZN7android8hardware2tv5tuner4V1_017IFrontendCallback17registerAsServiceERKNSt3__112basic_stringIcNS5_11char_traitsIcEENS5_9allocatorIcEEEE"
  },
  {
   "name" : "_ZN7android8hardware2tv5tuner4V1_017IFrontendCallback19interfaceDescriptorENSt3__18functionIFvRKNS0_11hidl_stringEEEE"
  },
  {
   "name" : "_ZN7android8hardware2tv5tuner4V1_017IFrontendCallback21notifySyspropsChangedEv"
  },
  {
   "name" : "_ZN7android8hardware2tv5tuner4V1_017IFrontendCallback21setHALInstrumentationEv"
  },
  {
   "name" : "_ZN7android8hardware2tv5tuner4V1_017IFrontendCallback24registerForNotificationsERKNSt3__112basic_stringIcNS5_11char_traitsIcEENS5_9allocatorIcEEEERKNS_2spINS_4hidl7manager4V1_020IServiceNotificationEEE"
  },
  {
   "name" : "_ZN7android8hardware2tv5tuner4V1_017IFrontendCallback4pingEv"
  },
  {
   "name" : "_ZN7android8hardware2tv5tuner4V1_017IFrontendCallback5debugERKNS0_11hidl_handleERKNS0_8hidl_vecINS0_11hidl_stringEEE"
  },
  {
   "name" : "_ZN7android8hardware2tv5tuner4V1_017IFrontendCallback8castFromERKNS_2spINS_4hidl4base4V1_05IBaseEEEb"
  },
  {
   "name" : "_ZN7android8hardware2tv5tuner4V1_017IFrontendCallback8castFromERKNS_2spIS4_EEb"
  },
  {
   "name" : "_ZN7android8hardware2tv5tuner4V1_018BnHwFilterCallback10onTransactEjRKNS0_6ParcelEPS5_jNSt3__18functionIFvRS5_EEE"
  },
  {
   "name" : "_ZN7android8hardware2tv5tuner4V1_018BnHwFilterCallback12getDebugInfoENSt3__18functionIFvRKNS_4hidl4base4V1_09DebugInfoEEEE"
  },
  {
   "name" : "_ZN7android8hardware2tv5tuner4V1_018BnHwFilterCallback19_hidl_onFilterEventEPNS_4hidl4base4V1_08BnHwBaseERKNS0_6ParcelEPSA_NSt3__18functionIFvRSA_EEE"
  },
  {
   "name" : "_ZN7android8hardware2tv5tuner4V1_018BnHwFilterCallback20_hidl_onFilterStatusEPNS_4hidl4base4V1_08BnHwBaseERKNS0_6ParcelEPSA_NSt3__18functionIFvRSA_EEE"
  },
  {
   "name" : "_ZN7android8hardware2tv5tuner4V1_018BnHwFilterCallback4pingEv"
  },
  {
   "name" : "_ZN7android8hardware2tv5tuner4V1_018BnHwFilterCallbackC1ERKNS_2spINS3_15IFilterCallbackEEE"
  },
  {
   "name" : "_ZN7android8hardware2tv5tuner4V1_018BnHwFilterCallbackC2ERKNS_2spINS3_15IFilterCallbackEEE"
  },
  {
   "name" : "_ZN7android8hardware2tv5tuner4V1_018BnHwFilterCallbackD0Ev"
  },
  {
   "name" : "_ZN7android8hardware2tv5tuner4V1_018BnHwFilterCallbackD1Ev"
  },
  {
   "name" : "_ZN7android8hardware2tv5tuner4V1_018BnHwFilterCallbackD2Ev"
  },
  {
   "name" : "_ZN7android8hardware2tv5tuner4V1_018BpHwFilterCallback11linkToDeathERKNS_2spINS0_20hidl_death_recipientEEEm"
  },
  {
   "name" : "_ZN7android8hardware2tv5tuner4V1_018BpHwFilterCallback12getDebugInfoENSt3__18functionIFvRKNS_4hidl4base4V1_09DebugInfoEEEE"
  },
  {
   "name" : "_ZN7android8hardware2tv5tuner4V1_018BpHwFilterCallback12getHashChainENSt3__18functionIFvRKNS0_8hidl_vecINS0_10hidl_arrayIhLm32EJEEEEEEEE"
  },
  {
   "name" : "_ZN7android8hardware2tv5tuner4V1_018BpHwFilterCallback13onFilterEventERKNS3_16DemuxFilterEventE"
  },
  {
   "name" : "_ZN7android8hardware2tv5tuner4V1_018BpHwFilterCallback13unlinkToDeathERKNS_2spINS0_20hidl_death_recipientEEE"
  },
  {
   "name" : "_ZN7android8hardware2tv5tuner4V1_018BpHwFilterCallback14interfaceChainENSt3__18functionIFvRKNS0_8hidl_vecINS0_11hidl_stringEEEEEE"
  },
  {
   "name" : "_ZN7android8hardware2tv5tuner4V1_018BpHwFilterCallback14onFilterStatusENS3_17DemuxFilterStatusE"
  },
  {
   "name" : "_ZN7android8hardware2tv5tuner4V1_018BpHwFilterCallback15onLastStrongRefEPKv"
  },
  {
   "name" : "_ZN7android8hardware2tv5tuner4V1_018BpHwFilterCallback19_hidl_onFilterEventEPNS0_10IInterfaceEPNS0_7details16HidlInstrumentorERKNS3_16DemuxFilterEventE"
  },
  {
   "name" : "_ZN7android8hardware2tv5tuner4V1_018BpHwFilterCallback19interfaceDescriptorENSt3__18functionIFvRKNS0_11hidl_stringEEEE"
  },
  {
   "name" : "_ZN7android8hardware2tv5tuner4V1_018BpHwFilterCallback20_hidl_onFilterStatusEPNS0_10IInterfaceEPNS0_7details16HidlInstrumentorENS3_17DemuxFilterStatusE"
  },
  {
   "name" : "_ZN7android8hardware2tv5tuner4V1_018BpHwFilterCallback21notifySyspropsChangedEv"
  },
  {
   "name" : "_ZN7android8hardware2tv5tuner4V1_018BpHwFilterCallback21setHALInstrumentationEv"
  },
  {
   "name" : "_ZN7android8hardware2tv5tuner4V1_018BpHwFilterCallback4pingEv"
  },
  {
   "name" : "_ZN7android8hardware2tv5tuner4V1_018BpHwFilterCallback5debugERKNS0_11hidl_handleERKNS0_8hidl_vecINS0_11hidl_stringEEE"
  },
  {
   "name" : "_ZN7android8hardware2tv5tuner4V1_018BpHwFilterCallbackC1ERKNS_2spINS0_7IBinderEEE"
  },
  {
   "name" : "_ZN7android8hardware2tv5tuner4V1_018BpHwFilterCallbackC2ERKNS_2spINS0_7IBinderEEE"
  },
  {
   "name" : "_ZN7android8hardware2tv5tuner4V1_018BsFrontendCallback13addOnewayTaskENSt3__18functionIFvvEEE"
  },
  {
   "name" : "_ZN7android8hardware2tv5tuner4V1_018BsFrontendCallbackC1ENS_2spINS3_17IFrontendCallbackEEE"
  },
  {
   "name" : "_ZN7android8hardware2tv5tuner4V1_018BsFrontendCallbackC2ENS_2spINS3_17IFrontendCallbackEEE"
  },
  {
   "name" : "_ZN7android8hardware2tv5tuner4V1_019DemuxFilterSettings10hidl_unionC1Ev"
  },
  {
   "name" : "_ZN7android8hardware2tv5tuner4V1_019DemuxFilterSettings10hidl_unionC2Ev"
  },
  {
   "name" : "_ZN7android8hardware2tv5tuner4V1_019DemuxFilterSettings10hidl_unionD1Ev"
  },
  {
   "name" : "_ZN7android8hardware2tv5tuner4V1_019DemuxFilterSettings10hidl_unionD2Ev"
  },
  {
   "name" : "_ZN7android8hardware2tv5tuner4V1_019DemuxFilterSettings18hidl_destructUnionEv"
  },
  {
   "name" : "_ZN7android8hardware2tv5tuner4V1_019DemuxFilterSettings2ipEONS3_21DemuxIpFilterSettingsE"
  },
  {
   "name" : "_ZN7android8hardware2tv5tuner4V1_019DemuxFilterSettings2ipERKNS3_21DemuxIpFilterSettingsE"
  },
  {
   "name" : "_ZN7android8hardware2tv5tuner4V1_019DemuxFilterSettings2ipEv"
  },
  {
   "name" : "_ZN7android8hardware2tv5tuner4V1_019DemuxFilterSettings2tsEONS3_21DemuxTsFilterSettingsE"
  },
  {
   "name" : "_ZN7android8hardware2tv5tuner4V1_019DemuxFilterSettings2tsERKNS3_21DemuxTsFilterSettingsE"
  },
  {
   "name" : "_ZN7android8hardware2tv5tuner4V1_019DemuxFilterSettings2tsEv"
  },
  {
   "name" : "_ZN7android8hardware2tv5tuner4V1_019DemuxFilterSettings3alpEONS3_22DemuxAlpFilterSettingsE"
  },
  {
   "name" : "_ZN7android8hardware2tv5tuner4V1_019DemuxFilterSettings3alpERKNS3_22DemuxAlpFilterSettingsE"
  },
  {
   "name" : "_ZN7android8hardware2tv5tuner4V1_019DemuxFilterSettings3alpEv"
  },
  {
   "name" : "_ZN7android8hardware2tv5tuner4V1_019DemuxFilterSettings3tlvEONS3_22DemuxTlvFilterSettingsE"
  },
  {
   "name" : "_ZN7android8hardware2tv5tuner4V1_019DemuxFilterSettings3tlvERKNS3_22DemuxTlvFilterSettingsE"
  },
  {
   "name" : "_ZN7android8hardware2tv5tuner4V1_019DemuxFilterSettings3tlvEv"
  },
  {
   "name" : "_ZN7android8hardware2tv5tuner4V1_019DemuxFilterSettings4mmtpEONS3_23DemuxMmtpFilterSettingsE"
  },
  {
   "name" : "_ZN7android8hardware2tv5tuner4V1_019DemuxFilterSettings4mmtpERKNS3_23DemuxMmtpFilterSettingsE"
  },
  {
   "name" : "_ZN7android8hardware2tv5tuner4V1_019DemuxFilterSettings4mmtpEv"
  },
  {
   "name" : "_ZN7android8hardware2tv5tuner4V1_019DemuxFilterSettingsC1EOS4_"
  },
  {
   "name" : "_ZN7android8hardware2tv5tuner4V1_019DemuxFilterSettingsC1ERKS4_"
  },
  {
   "name" : "_ZN7android8hardware2tv5tuner4V1_019DemuxFilterSettingsC1Ev"
  },
  {
   "name" : "_ZN7android8hardware2tv5tuner4V1_019DemuxFilterSettingsC2EOS4_"
  },
  {
   "name" : "_ZN7android8hardware2tv5tuner4V1_019DemuxFilterSettingsC2ERKS4_"
  },
  {
   "name" : "_ZN7android8hardware2tv5tuner4V1_019DemuxFilterSettingsC2Ev"
  },
  {
   "name" : "_ZN7android8hardware2tv5tuner4V1_019DemuxFilterSettingsD1Ev"
  },
  {
   "name" : "_ZN7android8hardware2tv5tuner4V1_019DemuxFilterSettingsD2Ev"
  },
  {
   "name" : "_ZN7android8hardware2tv5tuner4V1_019DemuxFilterSettingsaSEOS4_"
  },
  {
   "name" : "_ZN7android8hardware2tv5tuner4V1_019DemuxFilterSettingsaSERKS4_"
  },
  {
   "name" : "_ZN7android8hardware2tv5tuner4V1_019FrontendScanMessage10analogTypeENS3_18FrontendAnalogTypeE"
  },
  {
   "name" : "_ZN7android8hardware2tv5tuner4V1_019FrontendScanMessage10analogTypeEv"
  },
  {
   "name" : "_ZN7android8hardware2tv5tuner4V1_019FrontendScanMessage10hidl_unionC1Ev"
  },
  {
   "name" : "_ZN7android8hardware2tv5tuner4V1_019FrontendScanMessage10hidl_unionC2Ev"
  },
  {
   "name" : "_ZN7android8hardware2tv5tuner4V1_019FrontendScanMessage10hidl_unionD1Ev"
  },
  {
   "name" : "_ZN7android8hardware2tv5tuner4V1_019FrontendScanMessage10hidl_unionD2Ev"
  },
  {
   "name" : "_ZN7android8hardware2tv5tuner4V1_019FrontendScanMessage11frequenciesEONS0_8hidl_vecIjEE"
  },
  {
   "name" : "_ZN7android8hardware2tv5tuner4V1_019FrontendScanMessage11frequenciesERKNS0_8hidl_vecIjEE"
  },
  {
   "name" : "_ZN7android8hardware2tv5tuner4V1_019FrontendScanMessage11frequenciesEv"
  },
  {
   "name" : "_ZN7android8hardware2tv5tuner4V1_019FrontendScanMessage11symbolRatesEONS0_8hidl_vecIjEE"
  },
  {
   "name" : "_ZN7android8hardware2tv5tuner4V1_019FrontendScanMessage11symbolRatesERKNS0_8hidl_vecIjEE"
  },
  {
   "name" : "_ZN7android8hardware2tv5tuner4V1_019FrontendScanMessage11symbolRatesEv"
  },
  {
   "name" : "_ZN7android8hardware2tv5tuner4V1_019FrontendScanMessage13atsc3PlpInfosEONS0_8hidl_vecINS3_24FrontendScanAtsc3PlpInfoEEE"
  },
  {
   "name" : "_ZN7android8hardware2tv5tuner4V1_019FrontendScanMessage13atsc3PlpInfosERKNS0_8hidl_vecINS3_24FrontendScanAtsc3PlpInfoEEE"
  },
  {
   "name" : "_ZN7android8hardware2tv5tuner4V1_019FrontendScanMessage13atsc3PlpInfosEv"
  },
  {
   "name" : "_ZN7android8hardware2tv5tuner4V1_019FrontendScanMessage14inputStreamIdsEONS0_8hidl_vecItEE"
  },
  {
   "name" : "_ZN7android8hardware2tv5tuner4V1_019FrontendScanMessage14inputStreamIdsERKNS0_8hidl_vecItEE"
  },
  {
   "name" : "_ZN7android8hardware2tv5tuner4V1_019FrontendScanMessage14inputStreamIdsEv"
  },
  {
   "name" : "_ZN7android8hardware2tv5tuner4V1_019FrontendScanMessage15progressPercentEh"
  },
  {
   "name" : "_ZN7android8hardware2tv5tuner4V1_019FrontendScanMessage15progressPercentEv"
  },
  {
   "name" : "_ZN7android8hardware2tv5tuner4V1_019FrontendScanMessage18hidl_destructUnionEv"
  },
  {
   "name" : "_ZN7android8hardware2tv5tuner4V1_019FrontendScanMessage3stdEONS4_8StandardE"
  },
  {
   "name" : "_ZN7android8hardware2tv5tuner4V1_019FrontendScanMessage3stdERKNS4_8StandardE"
  },
  {
   "name" : "_ZN7android8hardware2tv5tuner4V1_019FrontendScanMessage3stdEv"
  },
  {
   "name" : "_ZN7android8hardware2tv5tuner4V1_019FrontendScanMessage5isEndEb"
  },
  {
   "name" : "_ZN7android8hardware2tv5tuner4V1_019FrontendScanMessage5isEndEv"
  },
  {
   "name" : "_ZN7android8hardware2tv5tuner4V1_019FrontendScanMessage6plpIdsEONS0_8hidl_vecIhEE"
  },
  {
   "name" : "_ZN7android8hardware2tv5tuner4V1_019FrontendScanMessage6plpIdsERKNS0_8hidl_vecIhEE"
  },
  {
   "name" : "_ZN7android8hardware2tv5tuner4V1_019FrontendScanMessage6plpIdsEv"
  },
  {
   "name" : "_ZN7android8hardware2tv5tuner4V1_019FrontendScanMessage8Standard10hidl_unionC1Ev"
  },
  {
   "name" : "_ZN7android8hardware2tv5tuner4V1_019FrontendScanMessage8Standard10hidl_unionC2Ev"
  },
  {
   "name" : "_ZN7android8hardware2tv5tuner4V1_019FrontendScanMessage8Standard10hidl_unionD1Ev"
  },
  {
   "name" : "_ZN7android8hardware2tv5tuner4V1_019FrontendScanMessage8Standard10hidl_unionD2Ev"
  },
  {
   "name" : "_ZN7android8hardware2tv5tuner4V1_019FrontendScanMessage8Standard18hidl_destructUnionEv"
  },
  {
   "name" : "_ZN7android8hardware2tv5tuner4V1_019FrontendScanMessage8Standard4sStdENS3_20FrontendDvbsStandardE"
  },
  {
   "name" : "_ZN7android8hardware2tv5tuner4V1_019FrontendScanMessage8Standard4sStdEv"
  },
  {
   "name" : "_ZN7android8hardware2tv5tuner4V1_019FrontendScanMessage8Standard4tStdENS3_20FrontendDvbtStandardE"
  },
  {
   "name" : "_ZN7android8hardware2tv5tuner4V1_019FrontendScanMessage8Standard4tStdEv"
  },
  {
   "name" : "_ZN7android8hardware2tv5tuner4V1_019FrontendScanMessage8Standard6sifStdENS3_25FrontendAnalogSifStandardE"
  },
  {
   "name" : "_ZN7android8hardware2tv5tuner4V1_019FrontendScanMessage8Standard6sifStdEv"
  },
  {
   "name" : "_ZN7android8hardware2tv5tuner4V1_019FrontendScanMessage8StandardC1EOS5_"
  },
  {
   "name" : "_ZN7android8hardware2tv5tuner4V1_019FrontendScanMessage8StandardC1ERKS5_"
  },
  {
   "name" : "_ZN7android8hardware2tv5tuner4V1_019FrontendScanMessage8StandardC1Ev"
  },
  {
   "name" : "_ZN7android8hardware2tv5tuner4V1_019FrontendScanMessage8StandardC2EOS5_"
  },
  {
   "name" : "_ZN7android8hardware2tv5tuner4V1_019FrontendScanMessage8StandardC2ERKS5_"
  },
  {
   "name" : "_ZN7android8hardware2tv5tuner4V1_019FrontendScanMessage8StandardC2Ev"
  },
  {
   "name" : "_ZN7android8hardware2tv5tuner4V1_019FrontendScanMessage8StandardD1Ev"
  },
  {
   "name" : "_ZN7android8hardware2tv5tuner4V1_019FrontendScanMessage8StandardD2Ev"
  },
  {
   "name" : "_ZN7android8hardware2tv5tuner4V1_019FrontendScanMessage8StandardaSEOS5_"
  },
  {
   "name" : "_ZN7android8hardware2tv5tuner4V1_019FrontendScanMessage8StandardaSERKS5_"
  },
  {
   "name" : "_ZN7android8hardware2tv5tuner4V1_019FrontendScanMessage8groupIdsEONS0_8hidl_vecIhEE"
  },
  {
   "name" : "_ZN7android8hardware2tv5tuner4V1_019FrontendScanMessage8groupIdsERKNS0_8hidl_vecIhEE"
  },
  {
   "name" : "_ZN7android8hardware2tv5tuner4V1_019FrontendScanMessage8groupIdsEv"
  },
  {
   "name" : "_ZN7android8hardware2tv5tuner4V1_019FrontendScanMessage8isLockedEb"
  },
  {
   "name" : "_ZN7android8hardware2tv5tuner4V1_019FrontendScanMessage8isLockedEv"
  },
  {
   "name" : "_ZN7android8hardware2tv5tuner4V1_019FrontendScanMessage9hierarchyENS3_21FrontendDvbtHierarchyE"
  },
  {
   "name" : "_ZN7android8hardware2tv5tuner4V1_019FrontendScanMessage9hierarchyEv"
  },
  {
   "name" : "_ZN7android8hardware2tv5tuner4V1_019FrontendScanMessageC1EOS4_"
  },
  {
   "name" : "_ZN7android8hardware2tv5tuner4V1_019FrontendScanMessageC1ERKS4_"
  },
  {
   "name" : "_ZN7android8hardware2tv5tuner4V1_019FrontendScanMessageC1Ev"
  },
  {
   "name" : "_ZN7android8hardware2tv5tuner4V1_019FrontendScanMessageC2EOS4_"
  },
  {
   "name" : "_ZN7android8hardware2tv5tuner4V1_019FrontendScanMessageC2ERKS4_"
  },
  {
   "name" : "_ZN7android8hardware2tv5tuner4V1_019FrontendScanMessageC2Ev"
  },
  {
   "name" : "_ZN7android8hardware2tv5tuner4V1_019FrontendScanMessageD1Ev"
  },
  {
   "name" : "_ZN7android8hardware2tv5tuner4V1_019FrontendScanMessageD2Ev"
  },
  {
   "name" : "_ZN7android8hardware2tv5tuner4V1_019FrontendScanMessageaSEOS4_"
  },
  {
   "name" : "_ZN7android8hardware2tv5tuner4V1_019FrontendScanMessageaSERKS4_"
  },
  {
   "name" : "_ZN7android8hardware2tv5tuner4V1_020BnHwFrontendCallback10onTransactEjRKNS0_6ParcelEPS5_jNSt3__18functionIFvRS5_EEE"
  },
  {
   "name" : "_ZN7android8hardware2tv5tuner4V1_020BnHwFrontendCallback12getDebugInfoENSt3__18functionIFvRKNS_4hidl4base4V1_09DebugInfoEEEE"
  },
  {
   "name" : "_ZN7android8hardware2tv5tuner4V1_020BnHwFrontendCallback13_hidl_onEventEPNS_4hidl4base4V1_08BnHwBaseERKNS0_6ParcelEPSA_NSt3__18functionIFvRSA_EEE"
  },
  {
   "name" : "_ZN7android8hardware2tv5tuner4V1_020BnHwFrontendCallback19_hidl_onScanMessageEPNS_4hidl4base4V1_08BnHwBaseERKNS0_6ParcelEPSA_NSt3__18functionIFvRSA_EEE"
  },
  {
   "name" : "_ZN7android8hardware2tv5tuner4V1_020BnHwFrontendCallback4pingEv"
  },
  {
   "name" : "_ZN7android8hardware2tv5tuner4V1_020BnHwFrontendCallbackC1ERKNS_2spINS3_17IFrontendCallbackEEE"
  },
  {
   "name" : "_ZN7android8hardware2tv5tuner4V1_020BnHwFrontendCallbackC2ERKNS_2spINS3_17IFrontendCallbackEEE"
  },
  {
   "name" : "_ZN7android8hardware2tv5tuner4V1_020BnHwFrontendCallbackD0Ev"
  },
  {
   "name" : "_ZN7android8hardware2tv5tuner4V1_020BnHwFrontendCallbackD1Ev"
  },
  {
   "name" : "_ZN7android8hardware2tv5tuner4V1_020BnHwFrontendCallbackD2Ev"
  },
  {
   "name" : "_ZN7android8hardware2tv5tuner4V1_020BpHwFrontendCallback11linkToDeathERKNS_2spINS0_20hidl_death_recipientEEEm"
  },
  {
   "name" : "_ZN7android8hardware2tv5tuner4V1_020BpHwFrontendCallback12getDebugInfoENSt3__18functionIFvRKNS_4hidl4base4V1_09DebugInfoEEEE"
  },
  {
   "name" : "_ZN7android8hardware2tv5tuner4V1_020BpHwFrontendCallback12getHashChainENSt3__18functionIFvRKNS0_8hidl_vecINS0_10hidl_arrayIhLm32EJEEEEEEEE"
  },
  {
   "name" : "_ZN7android8hardware2tv5tuner4V1_020BpHwFrontendCallback13_hidl_onEventEPNS0_10IInterfaceEPNS0_7details16HidlInstrumentorENS3_17FrontendEventTypeE"
  },
  {
   "name" : "_ZN7android8hardware2tv5tuner4V1_020BpHwFrontendCallback13onScanMessageENS3_23FrontendScanMessageTypeERKNS3_19FrontendScanMessageE"
  },
  {
   "name" : "_ZN7android8hardware2tv5tuner4V1_020BpHwFrontendCallback13unlinkToDeathERKNS_2spINS0_20hidl_death_recipientEEE"
  },
  {
   "name" : "_ZN7android8hardware2tv5tuner4V1_020BpHwFrontendCallback14interfaceChainENSt3__18functionIFvRKNS0_8hidl_vecINS0_11hidl_stringEEEEEE"
  },
  {
   "name" : "_ZN7android8hardware2tv5tuner4V1_020BpHwFrontendCallback15onLastStrongRefEPKv"
  },
  {
   "name" : "_ZN7android8hardware2tv5tuner4V1_020BpHwFrontendCallback19_hidl_onScanMessageEPNS0_10IInterfaceEPNS0_7details16HidlInstrumentorENS3_23FrontendScanMessageTypeERKNS3_19FrontendScanMessageE"
  },
  {
   "name" : "_ZN7android8hardware2tv5tuner4V1_020BpHwFrontendCallback19interfaceDescriptorENSt3__18functionIFvRKNS0_11hidl_stringEEEE"
  },
  {
   "name" : "_ZN7android8hardware2tv5tuner4V1_020BpHwFrontendCallback21notifySyspropsChangedEv"
  },
  {
   "name" : "_ZN7android8hardware2tv5tuner4V1_020BpHwFrontendCallback21setHALInstrumentationEv"
  },
  {
   "name" : "_ZN7android8hardware2tv5tuner4V1_020BpHwFrontendCallback4pingEv"
  },
  {
   "name" : "_ZN7android8hardware2tv5tuner4V1_020BpHwFrontendCallback5debugERKNS0_11hidl_handleERKNS0_8hidl_vecINS0_11hidl_stringEEE"
  },
  {
   "name" : "_ZN7android8hardware2tv5tuner4V1_020BpHwFrontendCallback7onEventENS3_17FrontendEventTypeE"
  },
  {
   "name" : "_ZN7android8hardware2tv5tuner4V1_020BpHwFrontendCallbackC1ERKNS_2spINS0_7IBinderEEE"
  },
  {
   "name" : "_ZN7android8hardware2tv5tuner4V1_020BpHwFrontendCallbackC2ERKNS_2spINS0_7IBinderEEE"
  },
  {
   "name" : "_ZN7android8hardware2tv5tuner4V1_021DemuxFilterMediaEvent13ExtraMetaData10hidl_unionC1Ev"
  },
  {
   "name" : "_ZN7android8hardware2tv5tuner4V1_021DemuxFilterMediaEvent13ExtraMetaData10hidl_unionC2Ev"
  },
  {
   "name" : "_ZN7android8hardware2tv5tuner4V1_021DemuxFilterMediaEvent13ExtraMetaData10hidl_unionD1Ev"
  },
  {
   "name" : "_ZN7android8hardware2tv5tuner4V1_021DemuxFilterMediaEvent13ExtraMetaData10hidl_unionD2Ev"
  },
  {
   "name" : "_ZN7android8hardware2tv5tuner4V1_021DemuxFilterMediaEvent13ExtraMetaData18hidl_destructUnionEv"
  },
  {
   "name" : "_ZN7android8hardware2tv5tuner4V1_021DemuxFilterMediaEvent13ExtraMetaData5audioEONS3_18AudioExtraMetaDataE"
  },
  {
   "name" : "_ZN7android8hardware2tv5tuner4V1_021DemuxFilterMediaEvent13ExtraMetaData5audioERKNS3_18AudioExtraMetaDataE"
  },
  {
   "name" : "_ZN7android8hardware2tv5tuner4V1_021DemuxFilterMediaEvent13ExtraMetaData5audioEv"
  },
  {
   "name" : "_ZN7android8hardware2tv5tuner4V1_021DemuxFilterMediaEvent13ExtraMetaData6noinitEONS_4hidl10safe_union4V1_09MonostateE"
  },
  {
   "name" : "_ZN7android8hardware2tv5tuner4V1_021DemuxFilterMediaEvent13ExtraMetaData6noinitERKNS_4hidl10safe_union4V1_09MonostateE"
  },
  {
   "name" : "_ZN7android8hardware2tv5tuner4V1_021DemuxFilterMediaEvent13ExtraMetaData6noinitEv"
  },
  {
   "name" : "_ZN7android8hardware2tv5tuner4V1_021DemuxFilterMediaEvent13ExtraMetaDataC1EOS5_"
  },
  {
   "name" : "_ZN7android8hardware2tv5tuner4V1_021DemuxFilterMediaEvent13ExtraMetaDataC1ERKS5_"
  },
  {
   "name" : "_ZN7android8hardware2tv5tuner4V1_021DemuxFilterMediaEvent13ExtraMetaDataC1Ev"
  },
  {
   "name" : "_ZN7android8hardware2tv5tuner4V1_021DemuxFilterMediaEvent13ExtraMetaDataC2EOS5_"
  },
  {
   "name" : "_ZN7android8hardware2tv5tuner4V1_021DemuxFilterMediaEvent13ExtraMetaDataC2ERKS5_"
  },
  {
   "name" : "_ZN7android8hardware2tv5tuner4V1_021DemuxFilterMediaEvent13ExtraMetaDataC2Ev"
  },
  {
   "name" : "_ZN7android8hardware2tv5tuner4V1_021DemuxFilterMediaEvent13ExtraMetaDataD1Ev"
  },
  {
   "name" : "_ZN7android8hardware2tv5tuner4V1_021DemuxFilterMediaEvent13ExtraMetaDataD2Ev"
  },
  {
   "name" : "_ZN7android8hardware2tv5tuner4V1_021DemuxFilterMediaEvent13ExtraMetaDataaSEOS5_"
  },
  {
   "name" : "_ZN7android8hardware2tv5tuner4V1_021DemuxFilterMediaEvent13ExtraMetaDataaSERKS5_"
  },
  {
   "name" : "_ZN7android8hardware2tv5tuner4V1_021DemuxIpFilterSettings14FilterSettings10hidl_unionC1Ev"
  },
  {
   "name" : "_ZN7android8hardware2tv5tuner4V1_021DemuxIpFilterSettings14FilterSettings10hidl_unionC2Ev"
  },
  {
   "name" : "_ZN7android8hardware2tv5tuner4V1_021DemuxIpFilterSettings14FilterSettings10hidl_unionD1Ev"
  },
  {
   "name" : "_ZN7android8hardware2tv5tuner4V1_021DemuxIpFilterSettings14FilterSettings10hidl_unionD2Ev"
  },
  {
   "name" : "_ZN7android8hardware2tv5tuner4V1_021DemuxIpFilterSettings14FilterSettings12bPassthroughEb"
  },
  {
   "name" : "_ZN7android8hardware2tv5tuner4V1_021DemuxIpFilterSettings14FilterSettings12bPassthroughEv"
  },
  {
   "name" : "_ZN7android8hardware2tv5tuner4V1_021DemuxIpFilterSettings14FilterSettings18hidl_destructUnionEv"
  },
  {
   "name" : "_ZN7android8hardware2tv5tuner4V1_021DemuxIpFilterSettings14FilterSettings6noinitEONS_4hidl10safe_union4V1_09MonostateE"
  },
  {
   "name" : "_ZN7android8hardware2tv5tuner4V1_021DemuxIpFilterSettings14FilterSettings6noinitERKNS_4hidl10safe_union4V1_09MonostateE"
  },
  {
   "name" : "_ZN7android8hardware2tv5tuner4V1_021DemuxIpFilterSettings14FilterSettings6noinitEv"
  },
  {
   "name" : "_ZN7android8hardware2tv5tuner4V1_021DemuxIpFilterSettings14FilterSettings7sectionEONS3_26DemuxFilterSectionSettingsE"
  },
  {
   "name" : "_ZN7android8hardware2tv5tuner4V1_021DemuxIpFilterSettings14FilterSettings7sectionERKNS3_26DemuxFilterSectionSettingsE"
  },
  {
   "name" : "_ZN7android8hardware2tv5tuner4V1_021DemuxIpFilterSettings14FilterSettings7sectionEv"
  },
  {
   "name" : "_ZN7android8hardware2tv5tuner4V1_021DemuxIpFilterSettings14FilterSettingsC1EOS5_"
  },
  {
   "name" : "_ZN7android8hardware2tv5tuner4V1_021DemuxIpFilterSettings14FilterSettingsC1ERKS5_"
  },
  {
   "name" : "_ZN7android8hardware2tv5tuner4V1_021DemuxIpFilterSettings14FilterSettingsC1Ev"
  },
  {
   "name" : "_ZN7android8hardware2tv5tuner4V1_021DemuxIpFilterSettings14FilterSettingsC2EOS5_"
  },
  {
   "name" : "_ZN7android8hardware2tv5tuner4V1_021DemuxIpFilterSettings14FilterSettingsC2ERKS5_"
  },
  {
   "name" : "_ZN7android8hardware2tv5tuner4V1_021DemuxIpFilterSettings14FilterSettingsC2Ev"
  },
  {
   "name" : "_ZN7android8hardware2tv5tuner4V1_021DemuxIpFilterSettings14FilterSettingsD1Ev"
  },
  {
   "name" : "_ZN7android8hardware2tv5tuner4V1_021DemuxIpFilterSettings14FilterSettingsD2Ev"
  },
  {
   "name" : "_ZN7android8hardware2tv5tuner4V1_021DemuxIpFilterSettings14FilterSettingsaSEOS5_"
  },
  {
   "name" : "_ZN7android8hardware2tv5tuner4V1_021DemuxIpFilterSettings14FilterSettingsaSERKS5_"
  },
  {
   "name" : "_ZN7android8hardware2tv5tuner4V1_021DemuxTsFilterSettings14FilterSettings10hidl_unionC1Ev"
  },
  {
   "name" : "_ZN7android8hardware2tv5tuner4V1_021DemuxTsFilterSettings14FilterSettings10hidl_unionC2Ev"
  },
  {
   "name" : "_ZN7android8hardware2tv5tuner4V1_021DemuxTsFilterSettings14FilterSettings10hidl_unionD1Ev"
  },
  {
   "name" : "_ZN7android8hardware2tv5tuner4V1_021DemuxTsFilterSettings14FilterSettings10hidl_unionD2Ev"
  },
  {
   "name" : "_ZN7android8hardware2tv5tuner4V1_021DemuxTsFilterSettings14FilterSettings18hidl_destructUnionEv"
  },
  {
   "name" : "_ZN7android8hardware2tv5tuner4V1_021DemuxTsFilterSettings14FilterSettings2avEONS3_21DemuxFilterAvSettingsE"
  },
  {
   "name" : "_ZN7android8hardware2tv5tuner4V1_021DemuxTsFilterSettings14FilterSettings2avERKNS3_21DemuxFilterAvSettingsE"
  },
  {
   "name" : "_ZN7android8hardware2tv5tuner4V1_021DemuxTsFilterSettings14FilterSettings2avEv"
  },
  {
   "name" : "_ZN7android8hardware2tv5tuner4V1_021DemuxTsFilterSettings14FilterSettings6noinitEONS_4hidl10safe_union4V1_09MonostateE"
  },
  {
   "name" : "_ZN7android8hardware2tv5tuner4V1_021DemuxTsFilterSettings14FilterSettings6noinitERKNS_4hidl10safe_union4V1_09MonostateE"
  },
  {
   "name" : "_ZN7android8hardware2tv5tuner4V1_021DemuxTsFilterSettings14FilterSettings6noinitEv"
  },
  {
   "name" : "_ZN7android8hardware2tv5tuner4V1_021DemuxTsFilterSettings14FilterSettings6recordEONS3_25DemuxFilterRecordSettingsE"
  },
  {
   "name" : "_ZN7android8hardware2tv5tuner4V1_021DemuxTsFilterSettings14FilterSettings6recordERKNS3_25DemuxFilterRecordSettingsE"
  },
  {
   "name" : "_ZN7android8hardware2tv5tuner4V1_021DemuxTsFilterSettings14FilterSettings6recordEv"
  },
  {
   "name" : "_ZN7android8hardware2tv5tuner4V1_021DemuxTsFilterSettings14FilterSettings7pesDataEONS3_26DemuxFilterPesDataSettingsE"
  },
  {
   "name" : "_ZN7android8hardware2tv5tuner4V1_021DemuxTsFilterSettings14FilterSettings7pesDataERKNS3_26DemuxFilterPesDataSettingsE"
  },
  {
   "name" : "_ZN7android8hardware2tv5tuner4V1_021DemuxTsFilterSettings14FilterSettings7pesDataEv"
  },
  {
   "name" : "_ZN7android8hardware2tv5tuner4V1_021DemuxTsFilterSettings14FilterSettings7sectionEONS3_26DemuxFilterSectionSettingsE"
  },
  {
   "name" : "_ZN7android8hardware2tv5tuner4V1_021DemuxTsFilterSettings14FilterSettings7sectionERKNS3_26DemuxFilterSectionSettingsE"
  },
  {
   "name" : "_ZN7android8hardware2tv5tuner4V1_021DemuxTsFilterSettings14FilterSettings7sectionEv"
  },
  {
   "name" : "_ZN7android8hardware2tv5tuner4V1_021DemuxTsFilterSettings14FilterSettingsC1EOS5_"
  },
  {
   "name" : "_ZN7android8hardware2tv5tuner4V1_021DemuxTsFilterSettings14FilterSettingsC1ERKS5_"
  },
  {
   "name" : "_ZN7android8hardware2tv5tuner4V1_021DemuxTsFilterSettings14FilterSettingsC1Ev"
  },
  {
   "name" : "_ZN7android8hardware2tv5tuner4V1_021DemuxTsFilterSettings14FilterSettingsC2EOS5_"
  },
  {
   "name" : "_ZN7android8hardware2tv5tuner4V1_021DemuxTsFilterSettings14FilterSettingsC2ERKS5_"
  },
  {
   "name" : "_ZN7android8hardware2tv5tuner4V1_021DemuxTsFilterSettings14FilterSettingsC2Ev"
  },
  {
   "name" : "_ZN7android8hardware2tv5tuner4V1_021DemuxTsFilterSettings14FilterSettingsD1Ev"
  },
  {
   "name" : "_ZN7android8hardware2tv5tuner4V1_021DemuxTsFilterSettings14FilterSettingsD2Ev"
  },
  {
   "name" : "_ZN7android8hardware2tv5tuner4V1_021DemuxTsFilterSettings14FilterSettingsaSEOS5_"
  },
  {
   "name" : "_ZN7android8hardware2tv5tuner4V1_021DemuxTsFilterSettings14FilterSettingsaSERKS5_"
  },
  {
   "name" : "_ZN7android8hardware2tv5tuner4V1_021writeEmbeddedToParcelERKNS3_12FrontendInfoEPNS0_6ParcelEmm"
  },
  {
   "name" : "_ZN7android8hardware2tv5tuner4V1_021writeEmbeddedToParcelERKNS3_14FrontendStatusEPNS0_6ParcelEmm"
  },
  {
   "name" : "_ZN7android8hardware2tv5tuner4V1_021writeEmbeddedToParcelERKNS3_16DemuxFilterEvent5EventEPNS0_6ParcelEmm"
  },
  {
   "name" : "_ZN7android8hardware2tv5tuner4V1_021writeEmbeddedToParcelERKNS3_16DemuxFilterEventEPNS0_6ParcelEmm"
  },
  {
   "name" : "_ZN7android8hardware2tv5tuner4V1_021writeEmbeddedToParcelERKNS3_16FrontendSettingsEPNS0_6ParcelEmm"
  },
  {
   "name" : "_ZN7android8hardware2tv5tuner4V1_021writeEmbeddedToParcelERKNS3_17DemuxCapabilitiesEPNS0_6ParcelEmm"
  },
  {
   "name" : "_ZN7android8hardware2tv5tuner4V1_021writeEmbeddedToParcelERKNS3_19DemuxFilterSettingsEPNS0_6ParcelEmm"
  },
  {
   "name" : "_ZN7android8hardware2tv5tuner4V1_021writeEmbeddedToParcelERKNS3_19FrontendScanMessageEPNS0_6ParcelEmm"
  },
  {
   "name" : "_ZN7android8hardware2tv5tuner4V1_021writeEmbeddedToParcelERKNS3_20DemuxFilterTemiEventEPNS0_6ParcelEmm"
  },
  {
   "name" : "_ZN7android8hardware2tv5tuner4V1_021writeEmbeddedToParcelERKNS3_21DemuxFilterMediaEventEPNS0_6ParcelEmm"
  },
  {
   "name" : "_ZN7android8hardware2tv5tuner4V1_021writeEmbeddedToParcelERKNS3_21DemuxIpFilterSettings14FilterSettingsEPNS0_6ParcelEmm"
  },
  {
   "name" : "_ZN7android8hardware2tv5tuner4V1_021writeEmbeddedToParcelERKNS3_21DemuxIpFilterSettingsEPNS0_6ParcelEmm"
  },
  {
   "name" : "_ZN7android8hardware2tv5tuner4V1_021writeEmbeddedToParcelERKNS3_21DemuxTsFilterSettings14FilterSettingsEPNS0_6ParcelEmm"
  },
  {
   "name" : "_ZN7android8hardware2tv5tuner4V1_021writeEmbeddedToParcelERKNS3_21DemuxTsFilterSettingsEPNS0_6ParcelEmm"
  },
  {
   "name" : "_ZN7android8hardware2tv5tuner4V1_021writeEmbeddedToParcelERKNS3_21FrontendAtsc3SettingsEPNS0_6ParcelEmm"
  },
  {
   "name" : "_ZN7android8hardware2tv5tuner4V1_021writeEmbeddedToParcelERKNS3_22DemuxAlpFilterSettings14FilterSettingsEPNS0_6ParcelEmm"
  },
  {
   "name" : "_ZN7android8hardware2tv5tuner4V1_021writeEmbeddedToParcelERKNS3_22DemuxAlpFilterSettingsEPNS0_6ParcelEmm"
  },
  {
   "name" : "_ZN7android8hardware2tv5tuner4V1_021writeEmbeddedToParcelERKNS3_22DemuxFilterSectionBitsEPNS0_6ParcelEmm"
  },
  {
   "name" : "_ZN7android8hardware2tv5tuner4V1_021writeEmbeddedToParcelERKNS3_22DemuxTlvFilterSettings14FilterSettingsEPNS0_6ParcelEmm"
  },
  {
   "name" : "_ZN7android8hardware2tv5tuner4V1_021writeEmbeddedToParcelERKNS3_22DemuxTlvFilterSettingsEPNS0_6ParcelEmm"
  },
  {
   "name" : "_ZN7android8hardware2tv5tuner4V1_021writeEmbeddedToParcelERKNS3_23DemuxMmtpFilterSettings14FilterSettingsEPNS0_6ParcelEmm"
  },
  {
   "name" : "_ZN7android8hardware2tv5tuner4V1_021writeEmbeddedToParcelERKNS3_23DemuxMmtpFilterSettingsEPNS0_6ParcelEmm"
  },
  {
   "name" : "_ZN7android8hardware2tv5tuner4V1_021writeEmbeddedToParcelERKNS3_26DemuxFilterSectionSettings9ConditionEPNS0_6ParcelEmm"
  },
  {
   "name" : "_ZN7android8hardware2tv5tuner4V1_021writeEmbeddedToParcelERKNS3_26DemuxFilterSectionSettingsEPNS0_6ParcelEmm"
  },
  {
   "name" : "_ZN7android8hardware2tv5tuner4V1_022DemuxAlpFilterSettings14FilterSettings10hidl_unionC1Ev"
  },
  {
   "name" : "_ZN7android8hardware2tv5tuner4V1_022DemuxAlpFilterSettings14FilterSettings10hidl_unionC2Ev"
  },
  {
   "name" : "_ZN7android8hardware2tv5tuner4V1_022DemuxAlpFilterSettings14FilterSettings10hidl_unionD1Ev"
  },
  {
   "name" : "_ZN7android8hardware2tv5tuner4V1_022DemuxAlpFilterSettings14FilterSettings10hidl_unionD2Ev"
  },
  {
   "name" : "_ZN7android8hardware2tv5tuner4V1_022DemuxAlpFilterSettings14FilterSettings18hidl_destructUnionEv"
  },
  {
   "name" : "_ZN7android8hardware2tv5tuner4V1_022DemuxAlpFilterSettings14FilterSettings6noinitEONS_4hidl10safe_union4V1_09MonostateE"
  },
  {
   "name" : "_ZN7android8hardware2tv5tuner4V1_022DemuxAlpFilterSettings14FilterSettings6noinitERKNS_4hidl10safe_union4V1_09MonostateE"
  },
  {
   "name" : "_ZN7android8hardware2tv5tuner4V1_022DemuxAlpFilterSettings14FilterSettings6noinitEv"
  },
  {
   "name" : "_ZN7android8hardware2tv5tuner4V1_022DemuxAlpFilterSettings14FilterSettings7sectionEONS3_26DemuxFilterSectionSettingsE"
  },
  {
   "name" : "_ZN7android8hardware2tv5tuner4V1_022DemuxAlpFilterSettings14FilterSettings7sectionERKNS3_26DemuxFilterSectionSettingsE"
  },
  {
   "name" : "_ZN7android8hardware2tv5tuner4V1_022DemuxAlpFilterSettings14FilterSettings7sectionEv"
  },
  {
   "name" : "_ZN7android8hardware2tv5tuner4V1_022DemuxAlpFilterSettings14FilterSettingsC1EOS5_"
  },
  {
   "name" : "_ZN7android8hardware2tv5tuner4V1_022DemuxAlpFilterSettings14FilterSettingsC1ERKS5_"
  },
  {
   "name" : "_ZN7android8hardware2tv5tuner4V1_022DemuxAlpFilterSettings14FilterSettingsC1Ev"
  },
  {
   "name" : "_ZN7android8hardware2tv5tuner4V1_022DemuxAlpFilterSettings14FilterSettingsC2EOS5_"
  },
  {
   "name" : "_ZN7android8hardware2tv5tuner4V1_022DemuxAlpFilterSettings14FilterSettingsC2ERKS5_"
  },
  {
   "name" : "_ZN7android8hardware2tv5tuner4V1_022DemuxAlpFilterSettings14FilterSettingsC2Ev"
  },
  {
   "name" : "_ZN7android8hardware2tv5tuner4V1_022DemuxAlpFilterSettings14FilterSettingsD1Ev"
  },
  {
   "name" : "_ZN7android8hardware2tv5tuner4V1_022DemuxAlpFilterSettings14FilterSettingsD2Ev"
  },
  {
   "name" : "_ZN7android8hardware2tv5tuner4V1_022DemuxAlpFilterSettings14FilterSettingsaSEOS5_"
  },
  {
   "name" : "_ZN7android8hardware2tv5tuner4V1_022DemuxAlpFilterSettings14FilterSettingsaSERKS5_"
  },
  {
   "name" : "_ZN7android8hardware2tv5tuner4V1_022DemuxTlvFilterSettings14FilterSettings10hidl_unionC1Ev"
  },
  {
   "name" : "_ZN7android8hardware2tv5tuner4V1_022DemuxTlvFilterSettings14FilterSettings10hidl_unionC2Ev"
  },
  {
   "name" : "_ZN7android8hardware2tv5tuner4V1_022DemuxTlvFilterSettings14FilterSettings10hidl_unionD1Ev"
  },
  {
   "name" : "_ZN7android8hardware2tv5tuner4V1_022DemuxTlvFilterSettings14FilterSettings10hidl_unionD2Ev"
  },
  {
   "name" : "_ZN7android8hardware2tv5tuner4V1_022DemuxTlvFilterSettings14FilterSettings12bPassthroughEb"
  },
  {
   "name" : "_ZN7android8hardware2tv5tuner4V1_022DemuxTlvFilterSettings14FilterSettings12bPassthroughEv"
  },
  {
   "name" : "_ZN7android8hardware2tv5tuner4V1_022DemuxTlvFilterSettings14FilterSettings18hidl_destructUnionEv"
  },
  {
   "name" : "_ZN7android8hardware2tv5tuner4V1_022DemuxTlvFilterSettings14FilterSettings6noinitEONS_4hidl10safe_union4V1_09MonostateE"
  },
  {
   "name" : "_ZN7android8hardware2tv5tuner4V1_022DemuxTlvFilterSettings14FilterSettings6noinitERKNS_4hidl10safe_union4V1_09MonostateE"
  },
  {
   "name" : "_ZN7android8hardware2tv5tuner4V1_022DemuxTlvFilterSettings14FilterSettings6noinitEv"
  },
  {
   "name" : "_ZN7android8hardware2tv5tuner4V1_022DemuxTlvFilterSettings14FilterSettings7sectionEONS3_26DemuxFilterSectionSettingsE"
  },
  {
   "name" : "_ZN7android8hardware2tv5tuner4V1_022DemuxTlvFilterSettings14FilterSettings7sectionERKNS3_26DemuxFilterSectionSettingsE"
  },
  {
   "name" : "_ZN7android8hardware2tv5tuner4V1_022DemuxTlvFilterSettings14FilterSettings7sectionEv"
  },
  {
   "name" : "_ZN7android8hardware2tv5tuner4V1_022DemuxTlvFilterSettings14FilterSettingsC1EOS5_"
  },
  {
   "name" : "_ZN7android8hardware2tv5tuner4V1_022DemuxTlvFilterSettings14FilterSettingsC1ERKS5_"
  },
  {
   "name" : "_ZN7android8hardware2tv5tuner4V1_022DemuxTlvFilterSettings14FilterSettingsC1Ev"
  },
  {
   "name" : "_ZN7android8hardware2tv5tuner4V1_022DemuxTlvFilterSettings14FilterSettingsC2EOS5_"
  },
  {
   "name" : "_ZN7android8hardware2tv5tuner4V1_022DemuxTlvFilterSettings14FilterSettingsC2ERKS5_"
  },
  {
   "name" : "_ZN7android8hardware2tv5tuner4V1_022DemuxTlvFilterSettings14FilterSettingsC2Ev"
  },
  {
   "name" : "_ZN7android8hardware2tv5tuner4V1_022DemuxTlvFilterSettings14FilterSettingsD1Ev"
  },
  {
   "name" : "_ZN7android8hardware2tv5tuner4V1_022DemuxTlvFilterSettings14FilterSettingsD2Ev"
  },
  {
   "name" : "_ZN7android8hardware2tv5tuner4V1_022DemuxTlvFilterSettings14FilterSettingsaSEOS5_"
  },
  {
   "name" : "_ZN7android8hardware2tv5tuner4V1_022DemuxTlvFilterSettings14FilterSettingsaSERKS5_"
  },
  {
   "name" : "_ZN7android8hardware2tv5tuner4V1_022readEmbeddedFromParcelERKNS3_12FrontendInfoERKNS0_6ParcelEmm"
  },
  {
   "name" : "_ZN7android8hardware2tv5tuner4V1_022readEmbeddedFromParcelERKNS3_14FrontendStatusERKNS0_6ParcelEmm"
  },
  {
   "name" : "_ZN7android8hardware2tv5tuner4V1_022readEmbeddedFromParcelERKNS3_16DemuxFilterEvent5EventERKNS0_6ParcelEmm"
  },
  {
   "name" : "_ZN7android8hardware2tv5tuner4V1_022readEmbeddedFromParcelERKNS3_16DemuxFilterEventERKNS0_6ParcelEmm"
  },
  {
   "name" : "_ZN7android8hardware2tv5tuner4V1_022readEmbeddedFromParcelERKNS3_16FrontendSettingsERKNS0_6ParcelEmm"
  },
  {
   "name" : "_ZN7android8hardware2tv5tuner4V1_022readEmbeddedFromParcelERKNS3_17DemuxCapabilitiesERKNS0_6ParcelEmm"
  },
  {
   "name" : "_ZN7android8hardware2tv5tuner4V1_022readEmbeddedFromParcelERKNS3_19DemuxFilterSettingsERKNS0_6ParcelEmm"
  },
  {
   "name" : "_ZN7android8hardware2tv5tuner4V1_022readEmbeddedFromParcelERKNS3_19FrontendScanMessageERKNS0_6ParcelEmm"
  },
  {
   "name" : "_ZN7android8hardware2tv5tuner4V1_022readEmbeddedFromParcelERKNS3_20DemuxFilterTemiEventERKNS0_6ParcelEmm"
  },
  {
   "name" : "_ZN7android8hardware2tv5tuner4V1_022readEmbeddedFromParcelERKNS3_21DemuxFilterMediaEventERKNS0_6ParcelEmm"
  },
  {
   "name" : "_ZN7android8hardware2tv5tuner4V1_022readEmbeddedFromParcelERKNS3_21DemuxIpFilterSettings14FilterSettingsERKNS0_6ParcelEmm"
  },
  {
   "name" : "_ZN7android8hardware2tv5tuner4V1_022readEmbeddedFromParcelERKNS3_21DemuxIpFilterSettingsERKNS0_6ParcelEmm"
  },
  {
   "name" : "_ZN7android8hardware2tv5tuner4V1_022readEmbeddedFromParcelERKNS3_21DemuxTsFilterSettings14FilterSettingsERKNS0_6ParcelEmm"
  },
  {
   "name" : "_ZN7android8hardware2tv5tuner4V1_022readEmbeddedFromParcelERKNS3_21DemuxTsFilterSettingsERKNS0_6ParcelEmm"
  },
  {
   "name" : "_ZN7android8hardware2tv5tuner4V1_022readEmbeddedFromParcelERKNS3_21FrontendAtsc3SettingsERKNS0_6ParcelEmm"
  },
  {
   "name" : "_ZN7android8hardware2tv5tuner4V1_022readEmbeddedFromParcelERKNS3_22DemuxAlpFilterSettings14FilterSettingsERKNS0_6ParcelEmm"
  },
  {
   "name" : "_ZN7android8hardware2tv5tuner4V1_022readEmbeddedFromParcelERKNS3_22DemuxAlpFilterSettingsERKNS0_6ParcelEmm"
  },
  {
   "name" : "_ZN7android8hardware2tv5tuner4V1_022readEmbeddedFromParcelERKNS3_22DemuxFilterSectionBitsERKNS0_6ParcelEmm"
  },
  {
   "name" : "_ZN7android8hardware2tv5tuner4V1_022readEmbeddedFromParcelERKNS3_22DemuxTlvFilterSettings14FilterSettingsERKNS0_6ParcelEmm"
  },
  {
   "name" : "_ZN7android8hardware2tv5tuner4V1_022readEmbeddedFromParcelERKNS3_22DemuxTlvFilterSettingsERKNS0_6ParcelEmm"
  },
  {
   "name" : "_ZN7android8hardware2tv5tuner4V1_022readEmbeddedFromParcelERKNS3_23DemuxMmtpFilterSettings14FilterSettingsERKNS0_6ParcelEmm"
  },
  {
   "name" : "_ZN7android8hardware2tv5tuner4V1_022readEmbeddedFromParcelERKNS3_23DemuxMmtpFilterSettingsERKNS0_6ParcelEmm"
  },
  {
   "name" : "_ZN7android8hardware2tv5tuner4V1_022readEmbeddedFromParcelERKNS3_26DemuxFilterSectionSettings9ConditionERKNS0_6ParcelEmm"
  },
  {
   "name" : "_ZN7android8hardware2tv5tuner4V1_022readEmbeddedFromParcelERKNS3_26DemuxFilterSectionSettingsERKNS0_6ParcelEmm"
  },
  {
   "name" : "_ZN7android8hardware2tv5tuner4V1_023DemuxMmtpFilterSettings14FilterSettings10hidl_unionC1Ev"
  },
  {
   "name" : "_ZN7android8hardware2tv5tuner4V1_023DemuxMmtpFilterSettings14FilterSettings10hidl_unionC2Ev"
  },
  {
   "name" : "_ZN7android8hardware2tv5tuner4V1_023DemuxMmtpFilterSettings14FilterSettings10hidl_unionD1Ev"
  },
  {
   "name" : "_ZN7android8hardware2tv5tuner4V1_023DemuxMmtpFilterSettings14FilterSettings10hidl_unionD2Ev"
  },
  {
   "name" : "_ZN7android8hardware2tv5tuner4V1_023DemuxMmtpFilterSettings14FilterSettings18hidl_destructUnionEv"
  },
  {
   "name" : "_ZN7android8hardware2tv5tuner4V1_023DemuxMmtpFilterSettings14FilterSettings2avEONS3_21DemuxFilterAvSettingsE"
  },
  {
   "name" : "_ZN7android8hardware2tv5tuner4V1_023DemuxMmtpFilterSettings14FilterSettings2avERKNS3_21DemuxFilterAvSettingsE"
  },
  {
   "name" : "_ZN7android8hardware2tv5tuner4V1_023DemuxMmtpFilterSettings14FilterSettings2avEv"
  },
  {
   "name" : "_ZN7android8hardware2tv5tuner4V1_023DemuxMmtpFilterSettings14FilterSettings6noinitEONS_4hidl10safe_union4V1_09MonostateE"
  },
  {
   "name" : "_ZN7android8hardware2tv5tuner4V1_023DemuxMmtpFilterSettings14FilterSettings6noinitERKNS_4hidl10safe_union4V1_09MonostateE"
  },
  {
   "name" : "_ZN7android8hardware2tv5tuner4V1_023DemuxMmtpFilterSettings14FilterSettings6noinitEv"
  },
  {
   "name" : "_ZN7android8hardware2tv5tuner4V1_023DemuxMmtpFilterSettings14FilterSettings6recordEONS3_25DemuxFilterRecordSettingsE"
  },
  {
   "name" : "_ZN7android8hardware2tv5tuner4V1_023DemuxMmtpFilterSettings14FilterSettings6recordERKNS3_25DemuxFilterRecordSettingsE"
  },
  {
   "name" : "_ZN7android8hardware2tv5tuner4V1_023DemuxMmtpFilterSettings14FilterSettings6recordEv"
  },
  {
   "name" : "_ZN7android8hardware2tv5tuner4V1_023DemuxMmtpFilterSettings14FilterSettings7pesDataEONS3_26DemuxFilterPesDataSettingsE"
  },
  {
   "name" : "_ZN7android8hardware2tv5tuner4V1_023DemuxMmtpFilterSettings14FilterSettings7pesDataERKNS3_26DemuxFilterPesDataSettingsE"
  },
  {
   "name" : "_ZN7android8hardware2tv5tuner4V1_023DemuxMmtpFilterSettings14FilterSettings7pesDataEv"
  },
  {
   "name" : "_ZN7android8hardware2tv5tuner4V1_023DemuxMmtpFilterSettings14FilterSettings7sectionEONS3_26DemuxFilterSectionSettingsE"
  },
  {
   "name" : "_ZN7android8hardware2tv5tuner4V1_023DemuxMmtpFilterSettings14FilterSettings7sectionERKNS3_26DemuxFilterSectionSettingsE"
  },
  {
   "name" : "_ZN7android8hardware2tv5tuner4V1_023DemuxMmtpFilterSettings14FilterSettings7sectionEv"
  },
  {
   "name" : "_ZN7android8hardware2tv5tuner4V1_023DemuxMmtpFilterSettings14FilterSettings8downloadEONS3_27DemuxFilterDownloadSettingsE"
  },
  {
   "name" : "_ZN7android8hardware2tv5tuner4V1_023DemuxMmtpFilterSettings14FilterSettings8downloadERKNS3_27DemuxFilterDownloadSettingsE"
  },
  {
   "name" : "_ZN7android8hardware2tv5tuner4V1_023DemuxMmtpFilterSettings14FilterSettings8downloadEv"
  },
  {
   "name" : "_ZN7android8hardware2tv5tuner4V1_023DemuxMmtpFilterSettings14FilterSettingsC1EOS5_"
  },
  {
   "name" : "_ZN7android8hardware2tv5tuner4V1_023DemuxMmtpFilterSettings14FilterSettingsC1ERKS5_"
  },
  {
   "name" : "_ZN7android8hardware2tv5tuner4V1_023DemuxMmtpFilterSettings14FilterSettingsC1Ev"
  },
  {
   "name" : "_ZN7android8hardware2tv5tuner4V1_023DemuxMmtpFilterSettings14FilterSettingsC2EOS5_"
  },
  {
   "name" : "_ZN7android8hardware2tv5tuner4V1_023DemuxMmtpFilterSettings14FilterSettingsC2ERKS5_"
  },
  {
   "name" : "_ZN7android8hardware2tv5tuner4V1_023DemuxMmtpFilterSettings14FilterSettingsC2Ev"
  },
  {
   "name" : "_ZN7android8hardware2tv5tuner4V1_023DemuxMmtpFilterSettings14FilterSettingsD1Ev"
  },
  {
   "name" : "_ZN7android8hardware2tv5tuner4V1_023DemuxMmtpFilterSettings14FilterSettingsD2Ev"
  },
  {
   "name" : "_ZN7android8hardware2tv5tuner4V1_023DemuxMmtpFilterSettings14FilterSettingsaSEOS5_"
  },
  {
   "name" : "_ZN7android8hardware2tv5tuner4V1_023DemuxMmtpFilterSettings14FilterSettingsaSERKS5_"
  },
  {
   "name" : "_ZN7android8hardware2tv5tuner4V1_024DemuxFilterTsRecordEvent11ScIndexMask10hidl_unionC1Ev"
  },
  {
   "name" : "_ZN7android8hardware2tv5tuner4V1_024DemuxFilterTsRecordEvent11ScIndexMask10hidl_unionC2Ev"
  },
  {
   "name" : "_ZN7android8hardware2tv5tuner4V1_024DemuxFilterTsRecordEvent11ScIndexMask10hidl_unionD1Ev"
  },
  {
   "name" : "_ZN7android8hardware2tv5tuner4V1_024DemuxFilterTsRecordEvent11ScIndexMask10hidl_unionD2Ev"
  },
  {
   "name" : "_ZN7android8hardware2tv5tuner4V1_024DemuxFilterTsRecordEvent11ScIndexMask18hidl_destructUnionEv"
  },
  {
   "name" : "_ZN7android8hardware2tv5tuner4V1_024DemuxFilterTsRecordEvent11ScIndexMask2scEj"
  },
  {
   "name" : "_ZN7android8hardware2tv5tuner4V1_024DemuxFilterTsRecordEvent11ScIndexMask2scEv"
  },
  {
   "name" : "_ZN7android8hardware2tv5tuner4V1_024DemuxFilterTsRecordEvent11ScIndexMask6scHevcEj"
  },
  {
   "name" : "_ZN7android8hardware2tv5tuner4V1_024DemuxFilterTsRecordEvent11ScIndexMask6scHevcEv"
  },
  {
   "name" : "_ZN7android8hardware2tv5tuner4V1_024DemuxFilterTsRecordEvent11ScIndexMaskC1EOS5_"
  },
  {
   "name" : "_ZN7android8hardware2tv5tuner4V1_024DemuxFilterTsRecordEvent11ScIndexMaskC1ERKS5_"
  },
  {
   "name" : "_ZN7android8hardware2tv5tuner4V1_024DemuxFilterTsRecordEvent11ScIndexMaskC1Ev"
  },
  {
   "name" : "_ZN7android8hardware2tv5tuner4V1_024DemuxFilterTsRecordEvent11ScIndexMaskC2EOS5_"
  },
  {
   "name" : "_ZN7android8hardware2tv5tuner4V1_024DemuxFilterTsRecordEvent11ScIndexMaskC2ERKS5_"
  },
  {
   "name" : "_ZN7android8hardware2tv5tuner4V1_024DemuxFilterTsRecordEvent11ScIndexMaskC2Ev"
  },
  {
   "name" : "_ZN7android8hardware2tv5tuner4V1_024DemuxFilterTsRecordEvent11ScIndexMaskD1Ev"
  },
  {
   "name" : "_ZN7android8hardware2tv5tuner4V1_024DemuxFilterTsRecordEvent11ScIndexMaskD2Ev"
  },
  {
   "name" : "_ZN7android8hardware2tv5tuner4V1_024DemuxFilterTsRecordEvent11ScIndexMaskaSEOS5_"
  },
  {
   "name" : "_ZN7android8hardware2tv5tuner4V1_024DemuxFilterTsRecordEvent11ScIndexMaskaSERKS5_"
  },
  {
   "name" : "_ZN7android8hardware2tv5tuner4V1_024FrontendModulationStatus10hidl_unionC1Ev"
  },
  {
   "name" : "_ZN7android8hardware2tv5tuner4V1_024FrontendModulationStatus10hidl_unionC2Ev"
  },
  {
   "name" : "_ZN7android8hardware2tv5tuner4V1_024FrontendModulationStatus10hidl_unionD1Ev"
  },
  {
   "name" : "_ZN7android8hardware2tv5tuner4V1_024FrontendModulationStatus10hidl_unionD2Ev"
  },
  {
   "name" : "_ZN7android8hardware2tv5tuner4V1_024FrontendModulationStatus18hidl_destructUnionEv"
  },
  {
   "name" : "_ZN7android8hardware2tv5tuner4V1_024FrontendModulationStatus4dvbcENS3_22FrontendDvbcModulationE"
  },
  {
   "name" : "_ZN7android8hardware2tv5tuner4V1_024FrontendModulationStatus4dvbcEv"
  },
  {
   "name" : "_ZN7android8hardware2tv5tuner4V1_024FrontendModulationStatus4dvbsENS3_22FrontendDvbsModulationE"
  },
  {
   "name" : "_ZN7android8hardware2tv5tuner4V1_024FrontendModulationStatus4dvbsEv"
  },
  {
   "name" : "_ZN7android8hardware2tv5tuner4V1_024FrontendModulationStatus5isdbsENS3_23FrontendIsdbsModulationE"
  },
  {
   "name" : "_ZN7android8hardware2tv5tuner4V1_024FrontendModulationStatus5isdbsEv"
  },
  {
   "name" : "_ZN7android8hardware2tv5tuner4V1_024FrontendModulationStatus5isdbtENS3_23FrontendIsdbtModulationE"
  },
  {
   "name" : "_ZN7android8hardware2tv5tuner4V1_024FrontendModulationStatus5isdbtEv"
  },
  {
   "name" : "_ZN7android8hardware2tv5tuner4V1_024FrontendModulationStatus6isdbs3ENS3_24FrontendIsdbs3ModulationE"
  },
  {
   "name" : "_ZN7android8hardware2tv5tuner4V1_024FrontendModulationStatus6isdbs3Ev"
  },
  {
   "name" : "_ZN7android8hardware2tv5tuner4V1_024FrontendModulationStatusC1EOS4_"
  },
  {
   "name" : "_ZN7android8hardware2tv5tuner4V1_024FrontendModulationStatusC1ERKS4_"
  },
  {
   "name" : "_ZN7android8hardware2tv5tuner4V1_024FrontendModulationStatusC1Ev"
  },
  {
   "name" : "_ZN7android8hardware2tv5tuner4V1_024FrontendModulationStatusC2EOS4_"
  },
  {
   "name" : "_ZN7android8hardware2tv5tuner4V1_024FrontendModulationStatusC2ERKS4_"
  },
  {
   "name" : "_ZN7android8hardware2tv5tuner4V1_024FrontendModulationStatusC2Ev"
  },
  {
   "name" : "_ZN7android8hardware2tv5tuner4V1_024FrontendModulationStatusD1Ev"
  },
  {
   "name" : "_ZN7android8hardware2tv5tuner4V1_024FrontendModulationStatusD2Ev"
  },
  {
   "name" : "_ZN7android8hardware2tv5tuner4V1_024FrontendModulationStatusaSEOS4_"
  },
  {
   "name" : "_ZN7android8hardware2tv5tuner4V1_024FrontendModulationStatusaSERKS4_"
  },
  {
   "name" : "_ZN7android8hardware2tv5tuner4V1_025DemuxFilterRecordSettings11ScIndexMask10hidl_unionC1Ev"
  },
  {
   "name" : "_ZN7android8hardware2tv5tuner4V1_025DemuxFilterRecordSettings11ScIndexMask10hidl_unionC2Ev"
  },
  {
   "name" : "_ZN7android8hardware2tv5tuner4V1_025DemuxFilterRecordSettings11ScIndexMask10hidl_unionD1Ev"
  },
  {
   "name" : "_ZN7android8hardware2tv5tuner4V1_025DemuxFilterRecordSettings11ScIndexMask10hidl_unionD2Ev"
  },
  {
   "name" : "_ZN7android8hardware2tv5tuner4V1_025DemuxFilterRecordSettings11ScIndexMask18hidl_destructUnionEv"
  },
  {
   "name" : "_ZN7android8hardware2tv5tuner4V1_025DemuxFilterRecordSettings11ScIndexMask2scEj"
  },
  {
   "name" : "_ZN7android8hardware2tv5tuner4V1_025DemuxFilterRecordSettings11ScIndexMask2scEv"
  },
  {
   "name" : "_ZN7android8hardware2tv5tuner4V1_025DemuxFilterRecordSettings11ScIndexMask6scHevcEj"
  },
  {
   "name" : "_ZN7android8hardware2tv5tuner4V1_025DemuxFilterRecordSettings11ScIndexMask6scHevcEv"
  },
  {
   "name" : "_ZN7android8hardware2tv5tuner4V1_025DemuxFilterRecordSettings11ScIndexMaskC1EOS5_"
  },
  {
   "name" : "_ZN7android8hardware2tv5tuner4V1_025DemuxFilterRecordSettings11ScIndexMaskC1ERKS5_"
  },
  {
   "name" : "_ZN7android8hardware2tv5tuner4V1_025DemuxFilterRecordSettings11ScIndexMaskC1Ev"
  },
  {
   "name" : "_ZN7android8hardware2tv5tuner4V1_025DemuxFilterRecordSettings11ScIndexMaskC2EOS5_"
  },
  {
   "name" : "_ZN7android8hardware2tv5tuner4V1_025DemuxFilterRecordSettings11ScIndexMaskC2ERKS5_"
  },
  {
   "name" : "_ZN7android8hardware2tv5tuner4V1_025DemuxFilterRecordSettings11ScIndexMaskC2Ev"
  },
  {
   "name" : "_ZN7android8hardware2tv5tuner4V1_025DemuxFilterRecordSettings11ScIndexMaskD1Ev"
  },
  {
   "name" : "_ZN7android8hardware2tv5tuner4V1_025DemuxFilterRecordSettings11ScIndexMaskD2Ev"
  },
  {
   "name" : "_ZN7android8hardware2tv5tuner4V1_025DemuxFilterRecordSettings11ScIndexMaskaSEOS5_"
  },
  {
   "name" : "_ZN7android8hardware2tv5tuner4V1_025DemuxFilterRecordSettings11ScIndexMaskaSERKS5_"
  },
  {
   "name" : "_ZN7android8hardware2tv5tuner4V1_026DemuxFilterSectionSettings9Condition10hidl_unionC1Ev"
  },
  {
   "name" : "_ZN7android8hardware2tv5tuner4V1_026DemuxFilterSectionSettings9Condition10hidl_unionC2Ev"
  },
  {
   "name" : "_ZN7android8hardware2tv5tuner4V1_026DemuxFilterSectionSettings9Condition10hidl_unionD1Ev"
  },
  {
   "name" : "_ZN7android8hardware2tv5tuner4V1_026DemuxFilterSectionSettings9Condition10hidl_unionD2Ev"
  },
  {
   "name" : "_ZN7android8hardware2tv5tuner4V1_026DemuxFilterSectionSettings9Condition11sectionBitsEONS3_22DemuxFilterSectionBitsE"
  },
  {
   "name" : "_ZN7android8hardware2tv5tuner4V1_026DemuxFilterSectionSettings9Condition11sectionBitsERKNS3_22DemuxFilterSectionBitsE"
  },
  {
   "name" : "_ZN7android8hardware2tv5tuner4V1_026DemuxFilterSectionSettings9Condition11sectionBitsEv"
  },
  {
   "name" : "_ZN7android8hardware2tv5tuner4V1_026DemuxFilterSectionSettings9Condition18hidl_destructUnionEv"
  },
  {
   "name" : "_ZN7android8hardware2tv5tuner4V1_026DemuxFilterSectionSettings9Condition9tableInfoEONS5_9TableInfoE"
  },
  {
   "name" : "_ZN7android8hardware2tv5tuner4V1_026DemuxFilterSectionSettings9Condition9tableInfoERKNS5_9TableInfoE"
  },
  {
   "name" : "_ZN7android8hardware2tv5tuner4V1_026DemuxFilterSectionSettings9Condition9tableInfoEv"
  },
  {
   "name" : "_ZN7android8hardware2tv5tuner4V1_026DemuxFilterSectionSettings9ConditionC1EOS5_"
  },
  {
   "name" : "_ZN7android8hardware2tv5tuner4V1_026DemuxFilterSectionSettings9ConditionC1ERKS5_"
  },
  {
   "name" : "_ZN7android8hardware2tv5tuner4V1_026DemuxFilterSectionSettings9ConditionC1Ev"
  },
  {
   "name" : "_ZN7android8hardware2tv5tuner4V1_026DemuxFilterSectionSettings9ConditionC2EOS5_"
  },
  {
   "name" : "_ZN7android8hardware2tv5tuner4V1_026DemuxFilterSectionSettings9ConditionC2ERKS5_"
  },
  {
   "name" : "_ZN7android8hardware2tv5tuner4V1_026DemuxFilterSectionSettings9ConditionC2Ev"
  },
  {
   "name" : "_ZN7android8hardware2tv5tuner4V1_026DemuxFilterSectionSettings9ConditionD1Ev"
  },
  {
   "name" : "_ZN7android8hardware2tv5tuner4V1_026DemuxFilterSectionSettings9ConditionD2Ev"
  },
  {
   "name" : "_ZN7android8hardware2tv5tuner4V1_026DemuxFilterSectionSettings9ConditionaSEOS5_"
  },
  {
   "name" : "_ZN7android8hardware2tv5tuner4V1_026DemuxFilterSectionSettings9ConditionaSERKS5_"
  },
  {
   "name" : "_ZN7android8hardware2tv5tuner4V1_04IDvr10getServiceERKNSt3__112basic_stringIcNS5_11char_traitsIcEENS5_9allocatorIcEEEEb"
  },
  {
   "name" : "_ZN7android8hardware2tv5tuner4V1_04IDvr11linkToDeathERKNS_2spINS0_20hidl_death_recipientEEEm"
  },
  {
   "name" : "_ZN7android8hardware2tv5tuner4V1_04IDvr12getDebugInfoENSt3__18functionIFvRKNS_4hidl4base4V1_09DebugInfoEEEE"
  },
  {
   "name" : "_ZN7android8hardware2tv5tuner4V1_04IDvr12getHashChainENSt3__18functionIFvRKNS0_8hidl_vecINS0_10hidl_arrayIhLm32EJEEEEEEEE"
  },
  {
   "name" : "_ZN7android8hardware2tv5tuner4V1_04IDvr13tryGetServiceERKNSt3__112basic_stringIcNS5_11char_traitsIcEENS5_9allocatorIcEEEEb"
  },
  {
   "name" : "_ZN7android8hardware2tv5tuner4V1_04IDvr13unlinkToDeathERKNS_2spINS0_20hidl_death_recipientEEE"
  },
  {
   "name" : "_ZN7android8hardware2tv5tuner4V1_04IDvr14interfaceChainENSt3__18functionIFvRKNS0_8hidl_vecINS0_11hidl_stringEEEEEE"
  },
  {
   "name" : "_ZN7android8hardware2tv5tuner4V1_04IDvr17registerAsServiceERKNSt3__112basic_stringIcNS5_11char_traitsIcEENS5_9allocatorIcEEEE"
  },
  {
   "name" : "_ZN7android8hardware2tv5tuner4V1_04IDvr19interfaceDescriptorENSt3__18functionIFvRKNS0_11hidl_stringEEEE"
  },
  {
   "name" : "_ZN7android8hardware2tv5tuner4V1_04IDvr21notifySyspropsChangedEv"
  },
  {
   "name" : "_ZN7android8hardware2tv5tuner4V1_04IDvr21setHALInstrumentationEv"
  },
  {
   "name" : "_ZN7android8hardware2tv5tuner4V1_04IDvr24registerForNotificationsERKNSt3__112basic_stringIcNS5_11char_traitsIcEENS5_9allocatorIcEEEERKNS_2spINS_4hidl7manager4V1_020IServiceNotificationEEE"
  },
  {
   "name" : "_ZN7android8hardware2tv5tuner4V1_04IDvr4pingEv"
  },
  {
   "name" : "_ZN7android8hardware2tv5tuner4V1_04IDvr5debugERKNS0_11hidl_handleERKNS0_8hidl_vecINS0_11hidl_stringEEE"
  },
  {
   "name" : "_ZN7android8hardware2tv5tuner4V1_04IDvr8castFromERKNS_2spINS_4hidl4base4V1_05IBaseEEEb"
  },
  {
   "name" : "_ZN7android8hardware2tv5tuner4V1_04IDvr8castFromERKNS_2spIS4_EEb"
  },
  {
   "name" : "_ZN7android8hardware2tv5tuner4V1_04ILnb10getServiceERKNSt3__112basic_stringIcNS5_11char_traitsIcEENS5_9allocatorIcEEEEb"
  },
  {
   "name" : "_ZN7android8hardware2tv5tuner4V1_04ILnb11linkToDeathERKNS_2spINS0_20hidl_death_recipientEEEm"
  },
  {
   "name" : "_ZN7android8hardware2tv5tuner4V1_04ILnb12getDebugInfoENSt3__18functionIFvRKNS_4hidl4base4V1_09DebugInfoEEEE"
  },
  {
   "name" : "_ZN7android8hardware2tv5tuner4V1_04ILnb12getHashChainENSt3__18functionIFvRKNS0_8hidl_vecINS0_10hidl_arrayIhLm32EJEEEEEEEE"
  },
  {
   "name" : "_ZN7android8hardware2tv5tuner4V1_04ILnb13tryGetServiceERKNSt3__112basic_stringIcNS5_11char_traitsIcEENS5_9allocatorIcEEEEb"
  },
  {
   "name" : "_ZN7android8hardware2tv5tuner4V1_04ILnb13unlinkToDeathERKNS_2spINS0_20hidl_death_recipientEEE"
  },
  {
   "name" : "_ZN7android8hardware2tv5tuner4V1_04ILnb14interfaceChainENSt3__18functionIFvRKNS0_8hidl_vecINS0_11hidl_stringEEEEEE"
  },
  {
   "name" : "_ZN7android8hardware2tv5tuner4V1_04ILnb17registerAsServiceERKNSt3__112basic_stringIcNS5_11char_traitsIcEENS5_9allocatorIcEEEE"
  },
  {
   "name" : "_ZN7android8hardware2tv5tuner4V1_04ILnb19interfaceDescriptorENSt3__18functionIFvRKNS0_11hidl_stringEEEE"
  },
  {
   "name" : "_ZN7android8hardware2tv5tuner4V1_04ILnb21notifySyspropsChangedEv"
  },
  {
   "name" : "_ZN7android8hardware2tv5tuner4V1_04ILnb21setHALInstrumentationEv"
  },
  {
   "name" : "_ZN7android8hardware2tv5tuner4V1_04ILnb24registerForNotificationsERKNSt3__112basic_stringIcNS5_11char_traitsIcEENS5_9allocatorIcEEEERKNS_2spINS_4hidl7manager4V1_020IServiceNotificationEEE"
  },
  {
   "name" : "_ZN7android8hardware2tv5tuner4V1_04ILnb4pingEv"
  },
  {
   "name" : "_ZN7android8hardware2tv5tuner4V1_04ILnb5debugERKNS0_11hidl_handleERKNS0_8hidl_vecINS0_11hidl_stringEEE"
  },
  {
   "name" : "_ZN7android8hardware2tv5tuner4V1_04ILnb8castFromERKNS_2spINS_4hidl4base4V1_05IBaseEEEb"
  },
  {
   "name" : "_ZN7android8hardware2tv5tuner4V1_04ILnb8castFromERKNS_2spIS4_EEb"
  },
  {
   "name" : "_ZN7android8hardware2tv5tuner4V1_05BsDvr13addOnewayTaskENSt3__18functionIFvvEEE"
  },
  {
   "name" : "_ZN7android8hardware2tv5tuner4V1_05BsDvrC1ENS_2spINS3_4IDvrEEE"
  },
  {
   "name" : "_ZN7android8hardware2tv5tuner4V1_05BsDvrC2ENS_2spINS3_4IDvrEEE"
  },
  {
   "name" : "_ZN7android8hardware2tv5tuner4V1_05BsLnb13addOnewayTaskENSt3__18functionIFvvEEE"
  },
  {
   "name" : "_ZN7android8hardware2tv5tuner4V1_05BsLnbC1ENS_2spINS3_4ILnbEEE"
  },
  {
   "name" : "_ZN7android8hardware2tv5tuner4V1_05BsLnbC2ENS_2spINS3_4ILnbEEE"
  },
  {
   "name" : "_ZN7android8hardware2tv5tuner4V1_06IDemux10getServiceERKNSt3__112basic_stringIcNS5_11char_traitsIcEENS5_9allocatorIcEEEEb"
  },
  {
   "name" : "_ZN7android8hardware2tv5tuner4V1_06IDemux11linkToDeathERKNS_2spINS0_20hidl_death_recipientEEEm"
  },
  {
   "name" : "_ZN7android8hardware2tv5tuner4V1_06IDemux12getDebugInfoENSt3__18functionIFvRKNS_4hidl4base4V1_09DebugInfoEEEE"
  },
  {
   "name" : "_ZN7android8hardware2tv5tuner4V1_06IDemux12getHashChainENSt3__18functionIFvRKNS0_8hidl_vecINS0_10hidl_arrayIhLm32EJEEEEEEEE"
  },
  {
   "name" : "_ZN7android8hardware2tv5tuner4V1_06IDemux13tryGetServiceERKNSt3__112basic_stringIcNS5_11char_traitsIcEENS5_9allocatorIcEEEEb"
  },
  {
   "name" : "_ZN7android8hardware2tv5tuner4V1_06IDemux13unlinkToDeathERKNS_2spINS0_20hidl_death_recipientEEE"
  },
  {
   "name" : "_ZN7android8hardware2tv5tuner4V1_06IDemux14interfaceChainENSt3__18functionIFvRKNS0_8hidl_vecINS0_11hidl_stringEEEEEE"
  },
  {
   "name" : "_ZN7android8hardware2tv5tuner4V1_06IDemux17registerAsServiceERKNSt3__112basic_stringIcNS5_11char_traitsIcEENS5_9allocatorIcEEEE"
  },
  {
   "name" : "_ZN7android8hardware2tv5tuner4V1_06IDemux19interfaceDescriptorENSt3__18functionIFvRKNS0_11hidl_stringEEEE"
  },
  {
   "name" : "_ZN7android8hardware2tv5tuner4V1_06IDemux21notifySyspropsChangedEv"
  },
  {
   "name" : "_ZN7android8hardware2tv5tuner4V1_06IDemux21setHALInstrumentationEv"
  },
  {
   "name" : "_ZN7android8hardware2tv5tuner4V1_06IDemux24registerForNotificationsERKNSt3__112basic_stringIcNS5_11char_traitsIcEENS5_9allocatorIcEEEERKNS_2spINS_4hidl7manager4V1_020IServiceNotificationEEE"
  },
  {
   "name" : "_ZN7android8hardware2tv5tuner4V1_06IDemux4pingEv"
  },
  {
   "name" : "_ZN7android8hardware2tv5tuner4V1_06IDemux5debugERKNS0_11hidl_handleERKNS0_8hidl_vecINS0_11hidl_stringEEE"
  },
  {
   "name" : "_ZN7android8hardware2tv5tuner4V1_06IDemux8castFromERKNS_2spINS_4hidl4base4V1_05IBaseEEEb"
  },
  {
   "name" : "_ZN7android8hardware2tv5tuner4V1_06IDemux8castFromERKNS_2spIS4_EEb"
  },
  {
   "name" : "_ZN7android8hardware2tv5tuner4V1_06ITuner10getServiceERKNSt3__112basic_stringIcNS5_11char_traitsIcEENS5_9allocatorIcEEEEb"
  },
  {
   "name" : "_ZN7android8hardware2tv5tuner4V1_06ITuner11linkToDeathERKNS_2spINS0_20hidl_death_recipientEEEm"
  },
  {
   "name" : "_ZN7android8hardware2tv5tuner4V1_06ITuner12getDebugInfoENSt3__18functionIFvRKNS_4hidl4base4V1_09DebugInfoEEEE"
  },
  {
   "name" : "_ZN7android8hardware2tv5tuner4V1_06ITuner12getHashChainENSt3__18functionIFvRKNS0_8hidl_vecINS0_10hidl_arrayIhLm32EJEEEEEEEE"
  },
  {
   "name" : "_ZN7android8hardware2tv5tuner4V1_06ITuner13tryGetServiceERKNSt3__112basic_stringIcNS5_11char_traitsIcEENS5_9allocatorIcEEEEb"
  },
  {
   "name" : "_ZN7android8hardware2tv5tuner4V1_06ITuner13unlinkToDeathERKNS_2spINS0_20hidl_death_recipientEEE"
  },
  {
   "name" : "_ZN7android8hardware2tv5tuner4V1_06ITuner14interfaceChainENSt3__18functionIFvRKNS0_8hidl_vecINS0_11hidl_stringEEEEEE"
  },
  {
   "name" : "_ZN7android8hardware2tv5tuner4V1_06ITuner17registerAsServiceERKNSt3__112basic_stringIcNS5_11char_traitsIcEENS5_9allocatorIcEEEE"
  },
  {
   "name" : "_ZN7android8hardware2tv5tuner4V1_06ITuner19interfaceDescriptorENSt3__18functionIFvRKNS0_11hidl_stringEEEE"
  },
  {
   "name" : "_ZN7android8hardware2tv5tuner4V1_06ITuner21notifySyspropsChangedEv"
  },
  {
   "name" : "_ZN7android8hardware2tv5tuner4V1_06ITuner21setHALInstrumentationEv"
  },
  {
   "name" : "_ZN7android8hardware2tv5tuner4V1_06ITuner24registerForNotificationsERKNSt3__112basic_stringIcNS5_11char_traitsIcEENS5_9allocatorIcEEEERKNS_2spINS_4hidl7manager4V1_020IServiceNotificationEEE"
  },
  {
   "name" : "_ZN7android8hardware2tv5tuner4V1_06ITuner4pingEv"
  },
  {
   "name" : "_ZN7android8hardware2tv5tuner4V1_06ITuner5debugERKNS0_11hidl_handleERKNS0_8hidl_vecINS0_11hidl_stringEEE"
  },
  {
   "name" : "_ZN7android8hardware2tv5tuner4V1_06ITuner8castFromERKNS_2spINS_4hidl4base4V1_05IBaseEEEb"
  },
  {
   "name" : "_ZN7android8hardware2tv5tuner4V1_06ITuner8castFromERKNS_2spIS4_EEb"
  },
  {
   "name" : "_ZN7android8hardware2tv5tuner4V1_07BnHwDvr10_hidl_stopEPNS_4hidl4base4V1_08BnHwBaseERKNS0_6ParcelEPSA_NSt3__18functionIFvRSA_EEE"
  },
  {
   "name" : "_ZN7android8hardware2tv5tuner4V1_07BnHwDvr10onTransactEjRKNS0_6ParcelEPS5_jNSt3__18functionIFvRS5_EEE"
  },
  {
   "name" : "_ZN7android8hardware2tv5tuner4V1_07BnHwDvr11_hidl_closeEPNS_4hidl4base4V1_08BnHwBaseERKNS0_6ParcelEPSA_NSt3__18functionIFvRSA_EEE"
  },
  {
   "name" : "_ZN7android8hardware2tv5tuner4V1_07BnHwDvr11_hidl_flushEPNS_4hidl4base4V1_08BnHwBaseERKNS0_6ParcelEPSA_NSt3__18functionIFvRSA_EEE"
  },
  {
   "name" : "_ZN7android8hardware2tv5tuner4V1_07BnHwDvr11_hidl_startEPNS_4hidl4base4V1_08BnHwBaseERKNS0_6ParcelEPSA_NSt3__18functionIFvRSA_EEE"
  },
  {
   "name" : "_ZN7android8hardware2tv5tuner4V1_07BnHwDvr12getDebugInfoENSt3__18functionIFvRKNS_4hidl4base4V1_09DebugInfoEEEE"
  },
  {
   "name" : "_ZN7android8hardware2tv5tuner4V1_07BnHwDvr15_hidl_configureEPNS_4hidl4base4V1_08BnHwBaseERKNS0_6ParcelEPSA_NSt3__18functionIFvRSA_EEE"
  },
  {
   "name" : "_ZN7android8hardware2tv5tuner4V1_07BnHwDvr18_hidl_attachFilterEPNS_4hidl4base4V1_08BnHwBaseERKNS0_6ParcelEPSA_NSt3__18functionIFvRSA_EEE"
  },
  {
   "name" : "_ZN7android8hardware2tv5tuner4V1_07BnHwDvr18_hidl_detachFilterEPNS_4hidl4base4V1_08BnHwBaseERKNS0_6ParcelEPSA_NSt3__18functionIFvRSA_EEE"
  },
  {
   "name" : "_ZN7android8hardware2tv5tuner4V1_07BnHwDvr18_hidl_getQueueDescEPNS_4hidl4base4V1_08BnHwBaseERKNS0_6ParcelEPSA_NSt3__18functionIFvRSA_EEE"
  },
  {
   "name" : "_ZN7android8hardware2tv5tuner4V1_07BnHwDvr4pingEv"
  },
  {
   "name" : "_ZN7android8hardware2tv5tuner4V1_07BnHwDvrC1ERKNS_2spINS3_4IDvrEEE"
  },
  {
   "name" : "_ZN7android8hardware2tv5tuner4V1_07BnHwDvrC2ERKNS_2spINS3_4IDvrEEE"
  },
  {
   "name" : "_ZN7android8hardware2tv5tuner4V1_07BnHwDvrD0Ev"
  },
  {
   "name" : "_ZN7android8hardware2tv5tuner4V1_07BnHwDvrD1Ev"
  },
  {
   "name" : "_ZN7android8hardware2tv5tuner4V1_07BnHwDvrD2Ev"
  },
  {
   "name" : "_ZN7android8hardware2tv5tuner4V1_07BnHwLnb10onTransactEjRKNS0_6ParcelEPS5_jNSt3__18functionIFvRS5_EEE"
  },
  {
   "name" : "_ZN7android8hardware2tv5tuner4V1_07BnHwLnb11_hidl_closeEPNS_4hidl4base4V1_08BnHwBaseERKNS0_6ParcelEPSA_NSt3__18functionIFvRSA_EEE"
  },
  {
   "name" : "_ZN7android8hardware2tv5tuner4V1_07BnHwLnb12getDebugInfoENSt3__18functionIFvRKNS_4hidl4base4V1_09DebugInfoEEEE"
  },
  {
   "name" : "_ZN7android8hardware2tv5tuner4V1_07BnHwLnb13_hidl_setToneEPNS_4hidl4base4V1_08BnHwBaseERKNS0_6ParcelEPSA_NSt3__18functionIFvRSA_EEE"
  },
  {
   "name" : "_ZN7android8hardware2tv5tuner4V1_07BnHwLnb16_hidl_setVoltageEPNS_4hidl4base4V1_08BnHwBaseERKNS0_6ParcelEPSA_NSt3__18functionIFvRSA_EEE"
  },
  {
   "name" : "_ZN7android8hardware2tv5tuner4V1_07BnHwLnb17_hidl_setCallbackEPNS_4hidl4base4V1_08BnHwBaseERKNS0_6ParcelEPSA_NSt3__18functionIFvRSA_EEE"
  },
  {
   "name" : "_ZN7android8hardware2tv5tuner4V1_07BnHwLnb23_hidl_sendDiseqcMessageEPNS_4hidl4base4V1_08BnHwBaseERKNS0_6ParcelEPSA_NSt3__18functionIFvRSA_EEE"
  },
  {
   "name" : "_ZN7android8hardware2tv5tuner4V1_07BnHwLnb26_hidl_setSatellitePositionEPNS_4hidl4base4V1_08BnHwBaseERKNS0_6ParcelEPSA_NSt3__18functionIFvRSA_EEE"
  },
  {
   "name" : "_ZN7android8hardware2tv5tuner4V1_07BnHwLnb4pingEv"
  },
  {
   "name" : "_ZN7android8hardware2tv5tuner4V1_07BnHwLnbC1ERKNS_2spINS3_4ILnbEEE"
  },
  {
   "name" : "_ZN7android8hardware2tv5tuner4V1_07BnHwLnbC2ERKNS_2spINS3_4ILnbEEE"
  },
  {
   "name" : "_ZN7android8hardware2tv5tuner4V1_07BnHwLnbD0Ev"
  },
  {
   "name" : "_ZN7android8hardware2tv5tuner4V1_07BnHwLnbD1Ev"
  },
  {
   "name" : "_ZN7android8hardware2tv5tuner4V1_07BnHwLnbD2Ev"
  },
  {
   "name" : "_ZN7android8hardware2tv5tuner4V1_07BpHwDvr10_hidl_stopEPNS0_10IInterfaceEPNS0_7details16HidlInstrumentorE"
  },
  {
   "name" : "_ZN7android8hardware2tv5tuner4V1_07BpHwDvr11_hidl_closeEPNS0_10IInterfaceEPNS0_7details16HidlInstrumentorE"
  },
  {
   "name" : "_ZN7android8hardware2tv5tuner4V1_07BpHwDvr11_hidl_flushEPNS0_10IInterfaceEPNS0_7details16HidlInstrumentorE"
  },
  {
   "name" : "_ZN7android8hardware2tv5tuner4V1_07BpHwDvr11_hidl_startEPNS0_10IInterfaceEPNS0_7details16HidlInstrumentorE"
  },
  {
   "name" : "_ZN7android8hardware2tv5tuner4V1_07BpHwDvr11linkToDeathERKNS_2spINS0_20hidl_death_recipientEEEm"
  },
  {
   "name" : "_ZN7android8hardware2tv5tuner4V1_07BpHwDvr12attachFilterERKNS_2spINS3_7IFilterEEE"
  },
  {
   "name" : "_ZN7android8hardware2tv5tuner4V1_07BpHwDvr12detachFilterERKNS_2spINS3_7IFilterEEE"
  },
  {
   "name" : "_ZN7android8hardware2tv5tuner4V1_07BpHwDvr12getDebugInfoENSt3__18functionIFvRKNS_4hidl4base4V1_09DebugInfoEEEE"
  },
  {
   "name" : "_ZN7android8hardware2tv5tuner4V1_07BpHwDvr12getHashChainENSt3__18functionIFvRKNS0_8hidl_vecINS0_10hidl_arrayIhLm32EJEEEEEEEE"
  },
  {
   "name" : "_ZN7android8hardware2tv5tuner4V1_07BpHwDvr12getQueueDescENSt3__18functionIFvNS3_6ResultERKNS0_12MQDescriptorIhLNS0_8MQFlavorE1EEEEEE"
  },
  {
   "name" : "_ZN7android8hardware2tv5tuner4V1_07BpHwDvr13unlinkToDeathERKNS_2spINS0_20hidl_death_recipientEEE"
  },
  {
   "name" : "_ZN7android8hardware2tv5tuner4V1_07BpHwDvr14interfaceChainENSt3__18functionIFvRKNS0_8hidl_vecINS0_11hidl_stringEEEEEE"
  },
  {
   "name" : "_ZN7android8hardware2tv5tuner4V1_07BpHwDvr15_hidl_configureEPNS0_10IInterfaceEPNS0_7details16HidlInstrumentorERKNS3_11DvrSettingsE"
  },
  {
   "name" : "_ZN7android8hardware2tv5tuner4V1_07BpHwDvr15onLastStrongRefEPKv"
  },
  {
   "name" : "_ZN7android8hardware2tv5tuner4V1_07BpHwDvr18_hidl_attachFilterEPNS0_10IInterfaceEPNS0_7details16HidlInstrumentorERKNS_2spINS3_7IFilterEEE"
  },
  {
   "name" : "_ZN7android8hardware2tv5tuner4V1_07BpHwDvr18_hidl_detachFilterEPNS0_10IInterfaceEPNS0_7details16HidlInstrumentorERKNS_2spINS3_7IFilterEEE"
  },
  {
   "name" : "_ZN7android8hardware2tv5tuner4V1_07BpHwDvr18_hidl_getQueueDescEPNS0_10IInterfaceEPNS0_7details16HidlInstrumentorENSt3__18functionIFvNS3_6ResultERKNS0_12MQDescriptorIhLNS0_8MQFlavorE1EEEEEE"
  },
  {
   "name" : "_ZN7android8hardware2tv5tuner4V1_07BpHwDvr19interfaceDescriptorENSt3__18functionIFvRKNS0_11hidl_stringEEEE"
  },
  {
   "name" : "_ZN7android8hardware2tv5tuner4V1_07BpHwDvr21notifySyspropsChangedEv"
  },
  {
   "name" : "_ZN7android8hardware2tv5tuner4V1_07BpHwDvr21setHALInstrumentationEv"
  },
  {
   "name" : "_ZN7android8hardware2tv5tuner4V1_07BpHwDvr4pingEv"
  },
  {
   "name" : "_ZN7android8hardware2tv5tuner4V1_07BpHwDvr4stopEv"
  },
  {
   "name" : "_ZN7android8hardware2tv5tuner4V1_07BpHwDvr5closeEv"
  },
  {
   "name" : "_ZN7android8hardware2tv5tuner4V1_07BpHwDvr5debugERKNS0_11hidl_handleERKNS0_8hidl_vecINS0_11hidl_stringEEE"
  },
  {
   "name" : "_ZN7android8hardware2tv5tuner4V1_07BpHwDvr5flushEv"
  },
  {
   "name" : "_ZN7android8hardware2tv5tuner4V1_07BpHwDvr5startEv"
  },
  {
   "name" : "_ZN7android8hardware2tv5tuner4V1_07BpHwDvr9configureERKNS3_11DvrSettingsE"
  },
  {
   "name" : "_ZN7android8hardware2tv5tuner4V1_07BpHwDvrC1ERKNS_2spINS0_7IBinderEEE"
  },
  {
   "name" : "_ZN7android8hardware2tv5tuner4V1_07BpHwDvrC2ERKNS_2spINS0_7IBinderEEE"
  },
  {
   "name" : "_ZN7android8hardware2tv5tuner4V1_07BpHwLnb10setVoltageENS3_10LnbVoltageE"
  },
  {
   "name" : "_ZN7android8hardware2tv5tuner4V1_07BpHwLnb11_hidl_closeEPNS0_10IInterfaceEPNS0_7details16HidlInstrumentorE"
  },
  {
   "name" : "_ZN7android8hardware2tv5tuner4V1_07BpHwLnb11linkToDeathERKNS_2spINS0_20hidl_death_recipientEEEm"
  },
  {
   "name" : "_ZN7android8hardware2tv5tuner4V1_07BpHwLnb11setCallbackERKNS_2spINS3_12ILnbCallbackEEE"
  },
  {
   "name" : "_ZN7android8hardware2tv5tuner4V1_07BpHwLnb12getDebugInfoENSt3__18functionIFvRKNS_4hidl4base4V1_09DebugInfoEEEE"
  },
  {
   "name" : "_ZN7android8hardware2tv5tuner4V1_07BpHwLnb12getHashChainENSt3__18functionIFvRKNS0_8hidl_vecINS0_10hidl_arrayIhLm32EJEEEEEEEE"
  },
  {
   "name" : "_ZN7android8hardware2tv5tuner4V1_07BpHwLnb13_hidl_setToneEPNS0_10IInterfaceEPNS0_7details16HidlInstrumentorENS3_7LnbToneE"
  },
  {
   "name" : "_ZN7android8hardware2tv5tuner4V1_07BpHwLnb13unlinkToDeathERKNS_2spINS0_20hidl_death_recipientEEE"
  },
  {
   "name" : "_ZN7android8hardware2tv5tuner4V1_07BpHwLnb14interfaceChainENSt3__18functionIFvRKNS0_8hidl_vecINS0_11hidl_stringEEEEEE"
  },
  {
   "name" : "_ZN7android8hardware2tv5tuner4V1_07BpHwLnb15onLastStrongRefEPKv"
  },
  {
   "name" : "_ZN7android8hardware2tv5tuner4V1_07BpHwLnb16_hidl_setVoltageEPNS0_10IInterfaceEPNS0_7details16HidlInstrumentorENS3_10LnbVoltageE"
  },
  {
   "name" : "_ZN7android8hardware2tv5tuner4V1_07BpHwLnb17_hidl_setCallbackEPNS0_10IInterfaceEPNS0_7details16HidlInstrumentorERKNS_2spINS3_12ILnbCallbackEEE"
  },
  {
   "name" : "_ZN7android8hardware2tv5tuner4V1_07BpHwLnb17sendDiseqcMessageERKNS0_8hidl_vecIhEE"
  },
  {
   "name" : "_ZN7android8hardware2tv5tuner4V1_07BpHwLnb19interfaceDescriptorENSt3__18functionIFvRKNS0_11hidl_stringEEEE"
  },
  {
   "name" : "_ZN7android8hardware2tv5tuner4V1_07BpHwLnb20setSatellitePositionENS3_11LnbPositionE"
  },
  {
   "name" : "_ZN7android8hardware2tv5tuner4V1_07BpHwLnb21notifySyspropsChangedEv"
  },
  {
   "name" : "_ZN7android8hardware2tv5tuner4V1_07BpHwLnb21setHALInstrumentationEv"
  },
  {
   "name" : "_ZN7android8hardware2tv5tuner4V1_07BpHwLnb23_hidl_sendDiseqcMessageEPNS0_10IInterfaceEPNS0_7details16HidlInstrumentorERKNS0_8hidl_vecIhEE"
  },
  {
   "name" : "_ZN7android8hardware2tv5tuner4V1_07BpHwLnb26_hidl_setSatellitePositionEPNS0_10IInterfaceEPNS0_7details16HidlInstrumentorENS3_11LnbPositionE"
  },
  {
   "name" : "_ZN7android8hardware2tv5tuner4V1_07BpHwLnb4pingEv"
  },
  {
   "name" : "_ZN7android8hardware2tv5tuner4V1_07BpHwLnb5closeEv"
  },
  {
   "name" : "_ZN7android8hardware2tv5tuner4V1_07BpHwLnb5debugERKNS0_11hidl_handleERKNS0_8hidl_vecINS0_11hidl_stringEEE"
  },
  {
   "name" : "_ZN7android8hardware2tv5tuner4V1_07BpHwLnb7setToneENS3_7LnbToneE"
  },
  {
   "name" : "_ZN7android8hardware2tv5tuner4V1_07BpHwLnbC1ERKNS_2spINS0_7IBinderEEE"
  },
  {
   "name" : "_ZN7android8hardware2tv5tuner4V1_07BpHwLnbC2ERKNS_2spINS0_7IBinderEEE"
  },
  {
   "name" : "_ZN7android8hardware2tv5tuner4V1_07BsDemux13addOnewayTaskENSt3__18functionIFvvEEE"
  },
  {
   "name" : "_ZN7android8hardware2tv5tuner4V1_07BsDemuxC1ENS_2spINS3_6IDemuxEEE"
  },
  {
   "name" : "_ZN7android8hardware2tv5tuner4V1_07BsDemuxC2ENS_2spINS3_6IDemuxEEE"
  },
  {
   "name" : "_ZN7android8hardware2tv5tuner4V1_07BsTuner13addOnewayTaskENSt3__18functionIFvvEEE"
  },
  {
   "name" : "_ZN7android8hardware2tv5tuner4V1_07BsTunerC1ENS_2spINS3_6ITunerEEE"
  },
  {
   "name" : "_ZN7android8hardware2tv5tuner4V1_07BsTunerC2ENS_2spINS3_6ITunerEEE"
  },
  {
   "name" : "_ZN7android8hardware2tv5tuner4V1_07IFilter10getServiceERKNSt3__112basic_stringIcNS5_11char_traitsIcEENS5_9allocatorIcEEEEb"
  },
  {
   "name" : "_ZN7android8hardware2tv5tuner4V1_07IFilter11linkToDeathERKNS_2spINS0_20hidl_death_recipientEEEm"
  },
  {
   "name" : "_ZN7android8hardware2tv5tuner4V1_07IFilter12getDebugInfoENSt3__18functionIFvRKNS_4hidl4base4V1_09DebugInfoEEEE"
  },
  {
   "name" : "_ZN7android8hardware2tv5tuner4V1_07IFilter12getHashChainENSt3__18functionIFvRKNS0_8hidl_vecINS0_10hidl_arrayIhLm32EJEEEEEEEE"
  },
  {
   "name" : "_ZN7android8hardware2tv5tuner4V1_07IFilter13tryGetServiceERKNSt3__112basic_stringIcNS5_11char_traitsIcEENS5_9allocatorIcEEEEb"
  },
  {
   "name" : "_ZN7android8hardware2tv5tuner4V1_07IFilter13unlinkToDeathERKNS_2spINS0_20hidl_death_recipientEEE"
  },
  {
   "name" : "_ZN7android8hardware2tv5tuner4V1_07IFilter14interfaceChainENSt3__18functionIFvRKNS0_8hidl_vecINS0_11hidl_stringEEEEEE"
  },
  {
   "name" : "_ZN7android8hardware2tv5tuner4V1_07IFilter17registerAsServiceERKNSt3__112basic_stringIcNS5_11char_traitsIcEENS5_9allocatorIcEEEE"
  },
  {
   "name" : "_ZN7android8hardware2tv5tuner4V1_07IFilter19interfaceDescriptorENSt3__18functionIFvRKNS0_11hidl_stringEEEE"
  },
  {
   "name" : "_ZN7android8hardware2tv5tuner4V1_07IFilter21notifySyspropsChangedEv"
  },
  {
   "name" : "_ZN7android8hardware2tv5tuner4V1_07IFilter21setHALInstrumentationEv"
  },
  {
   "name" : "_ZN7android8hardware2tv5tuner4V1_07IFilter24registerForNotificationsERKNSt3__112basic_stringIcNS5_11char_traitsIcEENS5_9allocatorIcEEEERKNS_2spINS_4hidl7manager4V1_020IServiceNotificationEEE"
  },
  {
   "name" : "_ZN7android8hardware2tv5tuner4V1_07IFilter4pingEv"
  },
  {
   "name" : "_ZN7android8hardware2tv5tuner4V1_07IFilter5debugERKNS0_11hidl_handleERKNS0_8hidl_vecINS0_11hidl_stringEEE"
  },
  {
   "name" : "_ZN7android8hardware2tv5tuner4V1_07IFilter8castFromERKNS_2spINS_4hidl4base4V1_05IBaseEEEb"
  },
  {
   "name" : "_ZN7android8hardware2tv5tuner4V1_07IFilter8castFromERKNS_2spIS4_EEb"
  },
  {
   "name" : "_ZN7android8hardware2tv5tuner4V1_08BsFilter13addOnewayTaskENSt3__18functionIFvvEEE"
  },
  {
   "name" : "_ZN7android8hardware2tv5tuner4V1_08BsFilterC1ENS_2spINS3_7IFilterEEE"
  },
  {
   "name" : "_ZN7android8hardware2tv5tuner4V1_08BsFilterC2ENS_2spINS3_7IFilterEEE"
  },
  {
   "name" : "_ZN7android8hardware2tv5tuner4V1_08DemuxPid10hidl_unionC1Ev"
  },
  {
   "name" : "_ZN7android8hardware2tv5tuner4V1_08DemuxPid10hidl_unionC2Ev"
  },
  {
   "name" : "_ZN7android8hardware2tv5tuner4V1_08DemuxPid10hidl_unionD1Ev"
  },
  {
   "name" : "_ZN7android8hardware2tv5tuner4V1_08DemuxPid10hidl_unionD2Ev"
  },
  {
   "name" : "_ZN7android8hardware2tv5tuner4V1_08DemuxPid18hidl_destructUnionEv"
  },
  {
   "name" : "_ZN7android8hardware2tv5tuner4V1_08DemuxPid4tPidEt"
  },
  {
   "name" : "_ZN7android8hardware2tv5tuner4V1_08DemuxPid4tPidEv"
  },
  {
   "name" : "_ZN7android8hardware2tv5tuner4V1_08DemuxPid7mmtpPidEt"
  },
  {
   "name" : "_ZN7android8hardware2tv5tuner4V1_08DemuxPid7mmtpPidEv"
  },
  {
   "name" : "_ZN7android8hardware2tv5tuner4V1_08DemuxPidC1EOS4_"
  },
  {
   "name" : "_ZN7android8hardware2tv5tuner4V1_08DemuxPidC1ERKS4_"
  },
  {
   "name" : "_ZN7android8hardware2tv5tuner4V1_08DemuxPidC1Ev"
  },
  {
   "name" : "_ZN7android8hardware2tv5tuner4V1_08DemuxPidC2EOS4_"
  },
  {
   "name" : "_ZN7android8hardware2tv5tuner4V1_08DemuxPidC2ERKS4_"
  },
  {
   "name" : "_ZN7android8hardware2tv5tuner4V1_08DemuxPidC2Ev"
  },
  {
   "name" : "_ZN7android8hardware2tv5tuner4V1_08DemuxPidD1Ev"
  },
  {
   "name" : "_ZN7android8hardware2tv5tuner4V1_08DemuxPidD2Ev"
  },
  {
   "name" : "_ZN7android8hardware2tv5tuner4V1_08DemuxPidaSEOS4_"
  },
  {
   "name" : "_ZN7android8hardware2tv5tuner4V1_08DemuxPidaSERKS4_"
  },
  {
   "name" : "_ZN7android8hardware2tv5tuner4V1_09BnHwDemux10onTransactEjRKNS0_6ParcelEPS5_jNSt3__18functionIFvRS5_EEE"
  },
  {
   "name" : "_ZN7android8hardware2tv5tuner4V1_09BnHwDemux11_hidl_closeEPNS_4hidl4base4V1_08BnHwBaseERKNS0_6ParcelEPSA_NSt3__18functionIFvRSA_EEE"
  },
  {
   "name" : "_ZN7android8hardware2tv5tuner4V1_09BnHwDemux12getDebugInfoENSt3__18functionIFvRKNS_4hidl4base4V1_09DebugInfoEEEE"
  },
  {
   "name" : "_ZN7android8hardware2tv5tuner4V1_09BnHwDemux13_hidl_openDvrEPNS_4hidl4base4V1_08BnHwBaseERKNS0_6ParcelEPSA_NSt3__18functionIFvRSA_EEE"
  },
  {
   "name" : "_ZN7android8hardware2tv5tuner4V1_09BnHwDemux16_hidl_openFilterEPNS_4hidl4base4V1_08BnHwBaseERKNS0_6ParcelEPSA_NSt3__18functionIFvRSA_EEE"
  },
  {
   "name" : "_ZN7android8hardware2tv5tuner4V1_09BnHwDemux18_hidl_connectCiCamEPNS_4hidl4base4V1_08BnHwBaseERKNS0_6ParcelEPSA_NSt3__18functionIFvRSA_EEE"
  },
  {
   "name" : "_ZN7android8hardware2tv5tuner4V1_09BnHwDemux19_hidl_getAvSyncHwIdEPNS_4hidl4base4V1_08BnHwBaseERKNS0_6ParcelEPSA_NSt3__18functionIFvRSA_EEE"
  },
  {
   "name" : "_ZN7android8hardware2tv5tuner4V1_09BnHwDemux19_hidl_getAvSyncTimeEPNS_4hidl4base4V1_08BnHwBaseERKNS0_6ParcelEPSA_NSt3__18functionIFvRSA_EEE"
  },
  {
   "name" : "_ZN7android8hardware2tv5tuner4V1_09BnHwDemux20_hidl_openTimeFilterEPNS_4hidl4base4V1_08BnHwBaseERKNS0_6ParcelEPSA_NSt3__18functionIFvRSA_EEE"
  },
  {
   "name" : "_ZN7android8hardware2tv5tuner4V1_09BnHwDemux21_hidl_disconnectCiCamEPNS_4hidl4base4V1_08BnHwBaseERKNS0_6ParcelEPSA_NSt3__18functionIFvRSA_EEE"
  },
  {
   "name" : "_ZN7android8hardware2tv5tuner4V1_09BnHwDemux27_hidl_setFrontendDataSourceEPNS_4hidl4base4V1_08BnHwBaseERKNS0_6ParcelEPSA_NSt3__18functionIFvRSA_EEE"
  },
  {
   "name" : "_ZN7android8hardware2tv5tuner4V1_09BnHwDemux4pingEv"
  },
  {
   "name" : "_ZN7android8hardware2tv5tuner4V1_09BnHwDemuxC1ERKNS_2spINS3_6IDemuxEEE"
  },
  {
   "name" : "_ZN7android8hardware2tv5tuner4V1_09BnHwDemuxC2ERKNS_2spINS3_6IDemuxEEE"
  },
  {
   "name" : "_ZN7android8hardware2tv5tuner4V1_09BnHwDemuxD0Ev"
  },
  {
   "name" : "_ZN7android8hardware2tv5tuner4V1_09BnHwDemuxD1Ev"
  },
  {
   "name" : "_ZN7android8hardware2tv5tuner4V1_09BnHwDemuxD2Ev"
  },
  {
   "name" : "_ZN7android8hardware2tv5tuner4V1_09BnHwTuner10onTransactEjRKNS0_6ParcelEPS5_jNSt3__18functionIFvRS5_EEE"
  },
  {
   "name" : "_ZN7android8hardware2tv5tuner4V1_09BnHwTuner12getDebugInfoENSt3__18functionIFvRKNS_4hidl4base4V1_09DebugInfoEEEE"
  },
  {
   "name" : "_ZN7android8hardware2tv5tuner4V1_09BnHwTuner15_hidl_getLnbIdsEPNS_4hidl4base4V1_08BnHwBaseERKNS0_6ParcelEPSA_NSt3__18functionIFvRSA_EEE"
  },
  {
   "name" : "_ZN7android8hardware2tv5tuner4V1_09BnHwTuner15_hidl_openDemuxEPNS_4hidl4base4V1_08BnHwBaseERKNS0_6ParcelEPSA_NSt3__18functionIFvRSA_EEE"
  },
  {
   "name" : "_ZN7android8hardware2tv5tuner4V1_09BnHwTuner17_hidl_openLnbByIdEPNS_4hidl4base4V1_08BnHwBaseERKNS0_6ParcelEPSA_NSt3__18functionIFvRSA_EEE"
  },
  {
   "name" : "_ZN7android8hardware2tv5tuner4V1_09BnHwTuner18_hidl_getDemuxCapsEPNS_4hidl4base4V1_08BnHwBaseERKNS0_6ParcelEPSA_NSt3__18functionIFvRSA_EEE"
  },
  {
   "name" : "_ZN7android8hardware2tv5tuner4V1_09BnHwTuner19_hidl_openLnbByNameEPNS_4hidl4base4V1_08BnHwBaseERKNS0_6ParcelEPSA_NSt3__18functionIFvRSA_EEE"
  },
  {
   "name" : "_ZN7android8hardware2tv5tuner4V1_09BnHwTuner20_hidl_getFrontendIdsEPNS_4hidl4base4V1_08BnHwBaseERKNS0_6ParcelEPSA_NSt3__18functionIFvRSA_EEE"
  },
  {
   "name" : "_ZN7android8hardware2tv5tuner4V1_09BnHwTuner21_hidl_getFrontendInfoEPNS_4hidl4base4V1_08BnHwBaseERKNS0_6ParcelEPSA_NSt3__18functionIFvRSA_EEE"
  },
  {
   "name" : "_ZN7android8hardware2tv5tuner4V1_09BnHwTuner21_hidl_openDescramblerEPNS_4hidl4base4V1_08BnHwBaseERKNS0_6ParcelEPSA_NSt3__18functionIFvRSA_EEE"
  },
  {
   "name" : "_ZN7android8hardware2tv5tuner4V1_09BnHwTuner22_hidl_openFrontendByIdEPNS_4hidl4base4V1_08BnHwBaseERKNS0_6ParcelEPSA_NSt3__18functionIFvRSA_EEE"
  },
  {
   "name" : "_ZN7android8hardware2tv5tuner4V1_09BnHwTuner4pingEv"
  },
  {
   "name" : "_ZN7android8hardware2tv5tuner4V1_09BnHwTunerC1ERKNS_2spINS3_6ITunerEEE"
  },
  {
   "name" : "_ZN7android8hardware2tv5tuner4V1_09BnHwTunerC2ERKNS_2spINS3_6ITunerEEE"
  },
  {
   "name" : "_ZN7android8hardware2tv5tuner4V1_09BnHwTunerD0Ev"
  },
  {
   "name" : "_ZN7android8hardware2tv5tuner4V1_09BnHwTunerD1Ev"
  },
  {
   "name" : "_ZN7android8hardware2tv5tuner4V1_09BnHwTunerD2Ev"
  },
  {
   "name" : "_ZN7android8hardware2tv5tuner4V1_09BpHwDemux10openFilterERKNS3_15DemuxFilterTypeEjRKNS_2spINS3_15IFilterCallbackEEENSt3__18functionIFvNS3_6ResultERKNS8_INS3_7IFilterEEEEEE"
  },
  {
   "name" : "_ZN7android8hardware2tv5tuner4V1_09BpHwDemux11_hidl_closeEPNS0_10IInterfaceEPNS0_7details16HidlInstrumentorE"
  },
  {
   "name" : "_ZN7android8hardware2tv5tuner4V1_09BpHwDemux11linkToDeathERKNS_2spINS0_20hidl_death_recipientEEEm"
  },
  {
   "name" : "_ZN7android8hardware2tv5tuner4V1_09BpHwDemux12connectCiCamEj"
  },
  {
   "name" : "_ZN7android8hardware2tv5tuner4V1_09BpHwDemux12getDebugInfoENSt3__18functionIFvRKNS_4hidl4base4V1_09DebugInfoEEEE"
  },
  {
   "name" : "_ZN7android8hardware2tv5tuner4V1_09BpHwDemux12getHashChainENSt3__18functionIFvRKNS0_8hidl_vecINS0_10hidl_arrayIhLm32EJEEEEEEEE"
  },
  {
   "name" : "_ZN7android8hardware2tv5tuner4V1_09BpHwDemux13_hidl_openDvrEPNS0_10IInterfaceEPNS0_7details16HidlInstrumentorENS3_7DvrTypeEjRKNS_2spINS3_12IDvrCallbackEEENSt3__18functionIFvNS3_6ResultERKNSB_INS3_4IDvrEEEEEE"
  },
  {
   "name" : "_ZN7android8hardware2tv5tuner4V1_09BpHwDemux13getAvSyncHwIdERKNS_2spINS3_7IFilterEEENSt3__18functionIFvNS3_6ResultEjEEE"
  },
  {
   "name" : "_ZN7android8hardware2tv5tuner4V1_09BpHwDemux13getAvSyncTimeEjNSt3__18functionIFvNS3_6ResultEmEEE"
  },
  {
   "name" : "_ZN7android8hardware2tv5tuner4V1_09BpHwDemux13unlinkToDeathERKNS_2spINS0_20hidl_death_recipientEEE"
  },
  {
   "name" : "_ZN7android8hardware2tv5tuner4V1_09BpHwDemux14interfaceChainENSt3__18functionIFvRKNS0_8hidl_vecINS0_11hidl_stringEEEEEE"
  },
  {
   "name" : "_ZN7android8hardware2tv5tuner4V1_09BpHwDemux14openTimeFilterENSt3__18functionIFvNS3_6ResultERKNS_2spINS3_11ITimeFilterEEEEEE"
  },
  {
   "name" : "_ZN7android8hardware2tv5tuner4V1_09BpHwDemux15disconnectCiCamEv"
  },
  {
   "name" : "_ZN7android8hardware2tv5tuner4V1_09BpHwDemux15onLastStrongRefEPKv"
  },
  {
   "name" : "_ZN7android8hardware2tv5tuner4V1_09BpHwDemux16_hidl_openFilterEPNS0_10IInterfaceEPNS0_7details16HidlInstrumentorERKNS3_15DemuxFilterTypeEjRKNS_2spINS3_15IFilterCallbackEEENSt3__18functionIFvNS3_6ResultERKNSD_INS3_7IFilterEEEEEE"
  },
  {
   "name" : "_ZN7android8hardware2tv5tuner4V1_09BpHwDemux18_hidl_connectCiCamEPNS0_10IInterfaceEPNS0_7details16HidlInstrumentorEj"
  },
  {
   "name" : "_ZN7android8hardware2tv5tuner4V1_09BpHwDemux19_hidl_getAvSyncHwIdEPNS0_10IInterfaceEPNS0_7details16HidlInstrumentorERKNS_2spINS3_7IFilterEEENSt3__18functionIFvNS3_6ResultEjEEE"
  },
  {
   "name" : "_ZN7android8hardware2tv5tuner4V1_09BpHwDemux19_hidl_getAvSyncTimeEPNS0_10IInterfaceEPNS0_7details16HidlInstrumentorEjNSt3__18functionIFvNS3_6ResultEmEEE"
  },
  {
   "name" : "_ZN7android8hardware2tv5tuner4V1_09BpHwDemux19interfaceDescriptorENSt3__18functionIFvRKNS0_11hidl_stringEEEE"
  },
  {
   "name" : "_ZN7android8hardware2tv5tuner4V1_09BpHwDemux20_hidl_openTimeFilterEPNS0_10IInterfaceEPNS0_7details16HidlInstrumentorENSt3__18functionIFvNS3_6ResultERKNS_2spINS3_11ITimeFilterEEEEEE"
  },
  {
   "name" : "_ZN7android8hardware2tv5tuner4V1_09BpHwDemux21_hidl_disconnectCiCamEPNS0_10IInterfaceEPNS0_7details16HidlInstrumentorE"
  },
  {
   "name" : "_ZN7android8hardware2tv5tuner4V1_09BpHwDemux21notifySyspropsChangedEv"
  },
  {
   "name" : "_ZN7android8hardware2tv5tuner4V1_09BpHwDemux21setFrontendDataSourceEj"
  },
  {
   "name" : "_ZN7android8hardware2tv5tuner4V1_09BpHwDemux21setHALInstrumentationEv"
  },
  {
   "name" : "_ZN7android8hardware2tv5tuner4V1_09BpHwDemux27_hidl_setFrontendDataSourceEPNS0_10IInterfaceEPNS0_7details16HidlInstrumentorEj"
  },
  {
   "name" : "_ZN7android8hardware2tv5tuner4V1_09BpHwDemux4pingEv"
  },
  {
   "name" : "_ZN7android8hardware2tv5tuner4V1_09BpHwDemux5closeEv"
  },
  {
   "name" : "_ZN7android8hardware2tv5tuner4V1_09BpHwDemux5debugERKNS0_11hidl_handleERKNS0_8hidl_vecINS0_11hidl_stringEEE"
  },
  {
   "name" : "_ZN7android8hardware2tv5tuner4V1_09BpHwDemux7openDvrENS3_7DvrTypeEjRKNS_2spINS3_12IDvrCallbackEEENSt3__18functionIFvNS3_6ResultERKNS6_INS3_4IDvrEEEEEE"
  },
  {
   "name" : "_ZN7android8hardware2tv5tuner4V1_09BpHwDemuxC1ERKNS_2spINS0_7IBinderEEE"
  },
  {
   "name" : "_ZN7android8hardware2tv5tuner4V1_09BpHwDemuxC2ERKNS_2spINS0_7IBinderEEE"
  },
  {
   "name" : "_ZN7android8hardware2tv5tuner4V1_09BpHwTuner11linkToDeathERKNS_2spINS0_20hidl_death_recipientEEEm"
  },
  {
   "name" : "_ZN7android8hardware2tv5tuner4V1_09BpHwTuner11openLnbByIdEjNSt3__18functionIFvNS3_6ResultERKNS_2spINS3_4ILnbEEEEEE"
  },
  {
   "name" : "_ZN7android8hardware2tv5tuner4V1_09BpHwTuner12getDebugInfoENSt3__18functionIFvRKNS_4hidl4base4V1_09DebugInfoEEEE"
  },
  {
   "name" : "_ZN7android8hardware2tv5tuner4V1_09BpHwTuner12getDemuxCapsENSt3__18functionIFvNS3_6ResultERKNS3_17DemuxCapabilitiesEEEE"
  },
  {
   "name" : "_ZN7android8hardware2tv5tuner4V1_09BpHwTuner12getHashChainENSt3__18functionIFvRKNS0_8hidl_vecINS0_10hidl_arrayIhLm32EJEEEEEEEE"
  },
  {
   "name" : "_ZN7android8hardware2tv5tuner4V1_09BpHwTuner13openLnbByNameERKNS0_11hidl_stringENSt3__18functionIFvNS3_6ResultEjRKNS_2spINS3_4ILnbEEEEEE"
  },
  {
   "name" : "_ZN7android8hardware2tv5tuner4V1_09BpHwTuner13unlinkToDeathERKNS_2spINS0_20hidl_death_recipientEEE"
  },
  {
   "name" : "_ZN7android8hardware2tv5tuner4V1_09BpHwTuner14getFrontendIdsENSt3__18functionIFvNS3_6ResultERKNS0_8hidl_vecIjEEEEE"
  },
  {
   "name" : "_ZN7android8hardware2tv5tuner4V1_09BpHwTuner14interfaceChainENSt3__18functionIFvRKNS0_8hidl_vecINS0_11hidl_stringEEEEEE"
  },
  {
   "name" : "_ZN7android8hardware2tv5tuner4V1_09BpHwTuner15_hidl_getLnbIdsEPNS0_10IInterfaceEPNS0_7details16HidlInstrumentorENSt3__18functionIFvNS3_6ResultERKNS0_8hidl_vecIjEEEEE"
  },
  {
   "name" : "_ZN7android8hardware2tv5tuner4V1_09BpHwTuner15_hidl_openDemuxEPNS0_10IInterfaceEPNS0_7details16HidlInstrumentorENSt3__18functionIFvNS3_6ResultEjRKNS_2spINS3_6IDemuxEEEEEE"
  },
  {
   "name" : "_ZN7android8hardware2tv5tuner4V1_09BpHwTuner15getFrontendInfoEjNSt3__18functionIFvNS3_6ResultERKNS3_12FrontendInfoEEEE"
  },
  {
   "name" : "_ZN7android8hardware2tv5tuner4V1_09BpHwTuner15onLastStrongRefEPKv"
  },
  {
   "name" : "_ZN7android8hardware2tv5tuner4V1_09BpHwTuner15openDescramblerENSt3__18functionIFvNS3_6ResultERKNS_2spINS3_12IDescramblerEEEEEE"
  },
  {
   "name" : "_ZN7android8hardware2tv5tuner4V1_09BpHwTuner16openFrontendByIdEjNSt3__18functionIFvNS3_6ResultERKNS_2spINS3_9IFrontendEEEEEE"
  },
  {
   "name" : "_ZN7android8hardware2tv5tuner4V1_09BpHwTuner17_hidl_openLnbByIdEPNS0_10IInterfaceEPNS0_7details16HidlInstrumentorEjNSt3__18functionIFvNS3_6ResultERKNS_2spINS3_4ILnbEEEEEE"
  },
  {
   "name" : "_ZN7android8hardware2tv5tuner4V1_09BpHwTuner18_hidl_getDemuxCapsEPNS0_10IInterfaceEPNS0_7details16HidlInstrumentorENSt3__18functionIFvNS3_6ResultERKNS3_17DemuxCapabilitiesEEEE"
  },
  {
   "name" : "_ZN7android8hardware2tv5tuner4V1_09BpHwTuner19_hidl_openLnbByNameEPNS0_10IInterfaceEPNS0_7details16HidlInstrumentorERKNS0_11hidl_stringENSt3__18functionIFvNS3_6ResultEjRKNS_2spINS3_4ILnbEEEEEE"
  },
  {
   "name" : "_ZN7android8hardware2tv5tuner4V1_09BpHwTuner19interfaceDescriptorENSt3__18functionIFvRKNS0_11hidl_stringEEEE"
  },
  {
   "name" : "_ZN7android8hardware2tv5tuner4V1_09BpHwTuner20_hidl_getFrontendIdsEPNS0_10IInterfaceEPNS0_7details16HidlInstrumentorENSt3__18functionIFvNS3_6ResultERKNS0_8hidl_vecIjEEEEE"
  },
  {
   "name" : "_ZN7android8hardware2tv5tuner4V1_09BpHwTuner21_hidl_getFrontendInfoEPNS0_10IInterfaceEPNS0_7details16HidlInstrumentorEjNSt3__18functionIFvNS3_6ResultERKNS3_12FrontendInfoEEEE"
  },
  {
   "name" : "_ZN7android8hardware2tv5tuner4V1_09BpHwTuner21_hidl_openDescramblerEPNS0_10IInterfaceEPNS0_7details16HidlInstrumentorENSt3__18functionIFvNS3_6ResultERKNS_2spINS3_12IDescramblerEEEEEE"
  },
  {
   "name" : "_ZN7android8hardware2tv5tuner4V1_09BpHwTuner21notifySyspropsChangedEv"
  },
  {
   "name" : "_ZN7android8hardware2tv5tuner4V1_09BpHwTuner21setHALInstrumentationEv"
  },
  {
   "name" : "_ZN7android8hardware2tv5tuner4V1_09BpHwTuner22_hidl_openFrontendByIdEPNS0_10IInterfaceEPNS0_7details16HidlInstrumentorEjNSt3__18functionIFvNS3_6ResultERKNS_2spINS3_9IFrontendEEEEEE"
  },
  {
   "name" : "_ZN7android8hardware2tv5tuner4V1_09BpHwTuner4pingEv"
  },
  {
   "name" : "_ZN7android8hardware2tv5tuner4V1_09BpHwTuner5debugERKNS0_11hidl_handleERKNS0_8hidl_vecINS0_11hidl_stringEEE"
  },
  {
   "name" : "_ZN7android8hardware2tv5tuner4V1_09BpHwTuner9getLnbIdsENSt3__18functionIFvNS3_6ResultERKNS0_8hidl_vecIjEEEEE"
  },
  {
   "name" : "_ZN7android8hardware2tv5tuner4V1_09BpHwTuner9openDemuxENSt3__18functionIFvNS3_6ResultEjRKNS_2spINS3_6IDemuxEEEEEE"
  },
  {
   "name" : "_ZN7android8hardware2tv5tuner4V1_09BpHwTunerC1ERKNS_2spINS0_7IBinderEEE"
  },
  {
   "name" : "_ZN7android8hardware2tv5tuner4V1_09BpHwTunerC2ERKNS_2spINS0_7IBinderEEE"
  },
  {
   "name" : "_ZN7android8hardware2tv5tuner4V1_09IFrontend10getServiceERKNSt3__112basic_stringIcNS5_11char_traitsIcEENS5_9allocatorIcEEEEb"
  },
  {
   "name" : "_ZN7android8hardware2tv5tuner4V1_09IFrontend11linkToDeathERKNS_2spINS0_20hidl_death_recipientEEEm"
  },
  {
   "name" : "_ZN7android8hardware2tv5tuner4V1_09IFrontend12getDebugInfoENSt3__18functionIFvRKNS_4hidl4base4V1_09DebugInfoEEEE"
  },
  {
   "name" : "_ZN7android8hardware2tv5tuner4V1_09IFrontend12getHashChainENSt3__18functionIFvRKNS0_8hidl_vecINS0_10hidl_arrayIhLm32EJEEEEEEEE"
  },
  {
   "name" : "_ZN7android8hardware2tv5tuner4V1_09IFrontend13tryGetServiceERKNSt3__112basic_stringIcNS5_11char_traitsIcEENS5_9allocatorIcEEEEb"
  },
  {
   "name" : "_ZN7android8hardware2tv5tuner4V1_09IFrontend13unlinkToDeathERKNS_2spINS0_20hidl_death_recipientEEE"
  },
  {
   "name" : "_ZN7android8hardware2tv5tuner4V1_09IFrontend14interfaceChainENSt3__18functionIFvRKNS0_8hidl_vecINS0_11hidl_stringEEEEEE"
  },
  {
   "name" : "_ZN7android8hardware2tv5tuner4V1_09IFrontend17registerAsServiceERKNSt3__112basic_stringIcNS5_11char_traitsIcEENS5_9allocatorIcEEEE"
  },
  {
   "name" : "_ZN7android8hardware2tv5tuner4V1_09IFrontend19interfaceDescriptorENSt3__18functionIFvRKNS0_11hidl_stringEEEE"
  },
  {
   "name" : "_ZN7android8hardware2tv5tuner4V1_09IFrontend21notifySyspropsChangedEv"
  },
  {
   "name" : "_ZN7android8hardware2tv5tuner4V1_09IFrontend21setHALInstrumentationEv"
  },
  {
   "name" : "_ZN7android8hardware2tv5tuner4V1_09IFrontend24registerForNotificationsERKNSt3__112basic_stringIcNS5_11char_traitsIcEENS5_9allocatorIcEEEERKNS_2spINS_4hidl7manager4V1_020IServiceNotificationEEE"
  },
  {
   "name" : "_ZN7android8hardware2tv5tuner4V1_09IFrontend4pingEv"
  },
  {
   "name" : "_ZN7android8hardware2tv5tuner4V1_09IFrontend5debugERKNS0_11hidl_handleERKNS0_8hidl_vecINS0_11hidl_stringEEE"
  },
  {
   "name" : "_ZN7android8hardware2tv5tuner4V1_09IFrontend8castFromERKNS_2spINS_4hidl4base4V1_05IBaseEEEb"
  },
  {
   "name" : "_ZN7android8hardware2tv5tuner4V1_09IFrontend8castFromERKNS_2spIS4_EEb"
  },
  {
   "binding" : "weak",
   "name" : "_ZN7android8hardware7details13castInterfaceINS0_2tv5tuner4V1_011ITimeFilterENS_4hidl4base4V1_05IBaseENS5_14BpHwTimeFilterEEENS0_6ReturnINS_2spIT_EEEENSD_IT0_EEPKcb"
  },
  {
   "binding" : "weak",
   "name" : "_ZN7android8hardware7details13castInterfaceINS0_2tv5tuner4V1_012IDescramblerENS_4hidl4base4V1_05IBaseENS5_15BpHwDescramblerEEENS0_6ReturnINS_2spIT_EEEENSD_IT0_EEPKcb"
  },
  {
   "binding" : "weak",
   "name" : "_ZN7android8hardware7details13castInterfaceINS0_2tv5tuner4V1_012IDvrCallbackENS_4hidl4base4V1_05IBaseENS5_15BpHwDvrCallbackEEENS0_6ReturnINS_2spIT_EEEENSD_IT0_EEPKcb"
  },
  {
   "binding" : "weak",
   "name" : "_ZN7android8hardware7details13castInterfaceINS0_2tv5tuner4V1_012ILnbCallbackENS_4hidl4base4V1_05IBaseENS5_15BpHwLnbCallbackEEENS0_6ReturnINS_2spIT_EEEENSD_IT0_EEPKcb"
  },
  {
   "binding" : "weak",
   "name" : "_ZN7android8hardware7details13castInterfaceINS0_2tv5tuner4V1_015IFilterCallbackENS_4hidl4base4V1_05IBaseENS5_18BpHwFilterCallbackEEENS0_6ReturnINS_2spIT_EEEENSD_IT0_EEPKcb"
  },
  {
   "binding" : "weak",
   "name" : "_ZN7android8hardware7details13castInterfaceINS0_2tv5tuner4V1_017IFrontendCallbackENS_4hidl4base4V1_05IBaseENS5_20BpHwFrontendCallbackEEENS0_6ReturnINS_2spIT_EEEENSD_IT0_EEPKcb"
  },
  {
   "binding" : "weak",
   "name" : "_ZN7android8hardware7details13castInterfaceINS0_2tv5tuner4V1_04IDvrENS_4hidl4base4V1_05IBaseENS5_7BpHwDvrEEENS0_6ReturnINS_2spIT_EEEENSD_IT0_EEPKcb"
  },
  {
   "binding" : "weak",
   "name" : "_ZN7android8hardware7details13castInterfaceINS0_2tv5tuner4V1_04ILnbENS_4hidl4base4V1_05IBaseENS5_7BpHwLnbEEENS0_6ReturnINS_2spIT_EEEENSD_IT0_EEPKcb"
  },
  {
   "binding" : "weak",
   "name" : "_ZN7android8hardware7details13castInterfaceINS0_2tv5tuner4V1_06IDemuxENS_4hidl4base4V1_05IBaseENS5_9BpHwDemuxEEENS0_6ReturnINS_2spIT_EEEENSD_IT0_EEPKcb"
  },
  {
   "binding" : "weak",
   "name" : "_ZN7android8hardware7details13castInterfaceINS0_2tv5tuner4V1_06ITunerENS_4hidl4base4V1_05IBaseENS5_9BpHwTunerEEENS0_6ReturnINS_2spIT_EEEENSD_IT0_EEPKcb"
  },
  {
   "binding" : "weak",
   "name" : "_ZN7android8hardware7details13castInterfaceINS0_2tv5tuner4V1_07IFilterENS_4hidl4base4V1_05IBaseENS5_10BpHwFilterEEENS0_6ReturnINS_2spIT_EEEENSD_IT0_EEPKcb"
  },
  {
   "binding" : "weak",
   "name" : "_ZN7android8hardware7details13castInterfaceINS0_2tv5tuner4V1_09IFrontendENS_4hidl4base4V1_05IBaseENS5_12BpHwFrontendEEENS0_6ReturnINS_2spIT_EEEENSD_IT0_EEPKcb"
  },
  {
   "binding" : "weak",
   "name" : "_ZN7android8hardware7details15wrapPassthroughINS0_2tv5tuner4V1_011ITimeFilterEvEENS_2spIT_EES9_"
  },
  {
   "binding" : "weak",
   "name" : "_ZN7android8hardware7details15wrapPassthroughINS0_2tv5tuner4V1_012IDescramblerEvEENS_2spIT_EES9_"
  },
  {
   "binding" : "weak",
   "name" : "_ZN7android8hardware7details15wrapPassthroughINS0_2tv5tuner4V1_012IDvrCallbackEvEENS_2spIT_EES9_"
  },
  {
   "binding" : "weak",
   "name" : "_ZN7android8hardware7details15wrapPassthroughINS0_2tv5tuner4V1_012ILnbCallbackEvEENS_2spIT_EES9_"
  },
  {
   "binding" : "weak",
   "name" : "_ZN7android8hardware7details15wrapPassthroughINS0_2tv5tuner4V1_015IFilterCallbackEvEENS_2spIT_EES9_"
  },
  {
   "binding" : "weak",
   "name" : "_ZN7android8hardware7details15wrapPassthroughINS0_2tv5tuner4V1_017IFrontendCallbackEvEENS_2spIT_EES9_"
  },
  {
   "binding" : "weak",
   "name" : "_ZN7android8hardware7details15wrapPassthroughINS0_2tv5tuner4V1_04IDvrEvEENS_2spIT_EES9_"
  },
  {
   "binding" : "weak",
   "name" : "_ZN7android8hardware7details15wrapPassthroughINS0_2tv5tuner4V1_04ILnbEvEENS_2spIT_EES9_"
  },
  {
   "binding" : "weak",
   "name" : "_ZN7android8hardware7details15wrapPassthroughINS0_2tv5tuner4V1_06IDemuxEvEENS_2spIT_EES9_"
  },
  {
   "binding" : "weak",
   "name" : "_ZN7android8hardware7details15wrapPassthroughINS0_2tv5tuner4V1_07IFilterEvEENS_2spIT_EES9_"
  },
  {
   "binding" : "weak",
   "name" : "_ZN7android8hardware7details15wrapPassthroughINS0_2tv5tuner4V1_09IFrontendEvEENS_2spIT_EES9_"
  },
  {
   "binding" : "weak",
   "name" : "_ZN7android8hardware7details18getServiceInternalINS0_2tv5tuner4V1_010BpHwFilterENS5_7IFilterEvvEENS_2spIT0_EERKNSt3__112basic_stringIcNSB_11char_traitsIcEENSB_9allocatorIcEEEEbb"
  },
  {
   "binding" : "weak",
   "name" : "_ZN7android8hardware7details18getServiceInternalINS0_2tv5tuner4V1_012BpHwFrontendENS5_9IFrontendEvvEENS_2spIT0_EERKNSt3__112basic_stringIcNSB_11char_traitsIcEENSB_9allocatorIcEEEEbb"
  },
  {
   "binding" : "weak",
   "name" : "_ZN7android8hardware7details18getServiceInternalINS0_2tv5tuner4V1_014BpHwTimeFilterENS5_11ITimeFilterEvvEENS_2spIT0_EERKNSt3__112basic_stringIcNSB_11char_traitsIcEENSB_9allocatorIcEEEEbb"
  },
  {
   "binding" : "weak",
   "name" : "_ZN7android8hardware7details18getServiceInternalINS0_2tv5tuner4V1_015BpHwDescramblerENS5_12IDescramblerEvvEENS_2spIT0_EERKNSt3__112basic_stringIcNSB_11char_traitsIcEENSB_9allocatorIcEEEEbb"
  },
  {
   "binding" : "weak",
   "name" : "_ZN7android8hardware7details18getServiceInternalINS0_2tv5tuner4V1_015BpHwDvrCallbackENS5_12IDvrCallbackEvvEENS_2spIT0_EERKNSt3__112basic_stringIcNSB_11char_traitsIcEENSB_9allocatorIcEEEEbb"
  },
  {
   "binding" : "weak",
   "name" : "_ZN7android8hardware7details18getServiceInternalINS0_2tv5tuner4V1_015BpHwLnbCallbackENS5_12ILnbCallbackEvvEENS_2spIT0_EERKNSt3__112basic_stringIcNSB_11char_traitsIcEENSB_9allocatorIcEEEEbb"
  },
  {
   "binding" : "weak",
   "name" : "_ZN7android8hardware7details18getServiceInternalINS0_2tv5tuner4V1_018BpHwFilterCallbackENS5_15IFilterCallbackEvvEENS_2spIT0_EERKNSt3__112basic_stringIcNSB_11char_traitsIcEENSB_9allocatorIcEEEEbb"
  },
  {
   "binding" : "weak",
   "name" : "_ZN7android8hardware7details18getServiceInternalINS0_2tv5tuner4V1_020BpHwFrontendCallbackENS5_17IFrontendCallbackEvvEENS_2spIT0_EERKNSt3__112basic_stringIcNSB_11char_traitsIcEENSB_9allocatorIcEEEEbb"
  },
  {
   "binding" : "weak",
   "name" : "_ZN7android8hardware7details18getServiceInternalINS0_2tv5tuner4V1_07BpHwDvrENS5_4IDvrEvvEENS_2spIT0_EERKNSt3__112basic_stringIcNSB_11char_traitsIcEENSB_9allocatorIcEEEEbb"
  },
  {
   "binding" : "weak",
   "name" : "_ZN7android8hardware7details18getServiceInternalINS0_2tv5tuner4V1_07BpHwLnbENS5_4ILnbEvvEENS_2spIT0_EERKNSt3__112basic_stringIcNSB_11char_traitsIcEENSB_9allocatorIcEEEEbb"
  },
  {
   "binding" : "weak",
   "name" : "_ZN7android8hardware7details18getServiceInternalINS0_2tv5tuner4V1_09BpHwDemuxENS5_6IDemuxEvvEENS_2spIT0_EERKNSt3__112basic_stringIcNSB_11char_traitsIcEENSB_9allocatorIcEEEEbb"
  },
  {
   "binding" : "weak",
   "name" : "_ZN7android8hardware7details18getServiceInternalINS0_2tv5tuner4V1_09BpHwTunerENS5_6ITunerEvvEENS_2spIT0_EERKNSt3__112basic_stringIcNSB_11char_traitsIcEENSB_9allocatorIcEEEEbb"
  },
  {
   "name" : "_ZNK7android8hardware2tv5tuner4V1_011DvrSettings16getDiscriminatorEv"
  },
  {
   "name" : "_ZNK7android8hardware2tv5tuner4V1_011DvrSettings6recordEv"
  },
  {
   "name" : "_ZNK7android8hardware2tv5tuner4V1_011DvrSettings8playbackEv"
  },
  {
   "name" : "_ZNK7android8hardware2tv5tuner4V1_012FrontendInfo20FrontendCapabilities10analogCapsEv"
  },
  {
   "name" : "_ZNK7android8hardware2tv5tuner4V1_012FrontendInfo20FrontendCapabilities10isdbs3CapsEv"
  },
  {
   "name" : "_ZNK7android8hardware2tv5tuner4V1_012FrontendInfo20FrontendCapabilities16getDiscriminatorEv"
  },
  {
   "name" : "_ZNK7android8hardware2tv5tuner4V1_012FrontendInfo20FrontendCapabilities8atscCapsEv"
  },
  {
   "name" : "_ZNK7android8hardware2tv5tuner4V1_012FrontendInfo20FrontendCapabilities8dvbcCapsEv"
  },
  {
   "name" : "_ZNK7android8hardware2tv5tuner4V1_012FrontendInfo20FrontendCapabilities8dvbsCapsEv"
  },
  {
   "name" : "_ZNK7android8hardware2tv5tuner4V1_012FrontendInfo20FrontendCapabilities8dvbtCapsEv"
  },
  {
   "name" : "_ZNK7android8hardware2tv5tuner4V1_012FrontendInfo20FrontendCapabilities9atsc3CapsEv"
  },
  {
   "name" : "_ZNK7android8hardware2tv5tuner4V1_012FrontendInfo20FrontendCapabilities9isdbsCapsEv"
  },
  {
   "name" : "_ZNK7android8hardware2tv5tuner4V1_012FrontendInfo20FrontendCapabilities9isdbtCapsEv"
  },
  {
   "name" : "_ZNK7android8hardware2tv5tuner4V1_014DemuxIpAddress12DstIpAddress16getDiscriminatorEv"
  },
  {
   "name" : "_ZNK7android8hardware2tv5tuner4V1_014DemuxIpAddress12DstIpAddress2v4Ev"
  },
  {
   "name" : "_ZNK7android8hardware2tv5tuner4V1_014DemuxIpAddress12DstIpAddress2v6Ev"
  },
  {
   "name" : "_ZNK7android8hardware2tv5tuner4V1_014DemuxIpAddress12SrcIpAddress16getDiscriminatorEv"
  },
  {
   "name" : "_ZNK7android8hardware2tv5tuner4V1_014DemuxIpAddress12SrcIpAddress2v4Ev"
  },
  {
   "name" : "_ZNK7android8hardware2tv5tuner4V1_014DemuxIpAddress12SrcIpAddress2v6Ev"
  },
  {
   "name" : "_ZNK7android8hardware2tv5tuner4V1_014FrontendStatus10freqOffsetEv"
  },
  {
   "name" : "_ZNK7android8hardware2tv5tuner4V1_014FrontendStatus10isRfLockedEv"
  },
  {
   "name" : "_ZNK7android8hardware2tv5tuner4V1_014FrontendStatus10lnbVoltageEv"
  },
  {
   "name" : "_ZNK7android8hardware2tv5tuner4V1_014FrontendStatus10modulationEv"
  },
  {
   "name" : "_ZNK7android8hardware2tv5tuner4V1_014FrontendStatus10symbolRateEv"
  },
  {
   "name" : "_ZNK7android8hardware2tv5tuner4V1_014FrontendStatus12isLayerErrorEv"
  },
  {
   "name" : "_ZNK7android8hardware2tv5tuner4V1_014FrontendStatus13isDemodLockedEv"
  },
  {
   "name" : "_ZNK7android8hardware2tv5tuner4V1_014FrontendStatus13signalQualityEv"
  },
  {
   "name" : "_ZNK7android8hardware2tv5tuner4V1_014FrontendStatus14signalStrengthEv"
  },
  {
   "name" : "_ZNK7android8hardware2tv5tuner4V1_014FrontendStatus16getDiscriminatorEv"
  },
  {
   "name" : "_ZNK7android8hardware2tv5tuner4V1_014FrontendStatus3agcEv"
  },
  {
   "name" : "_ZNK7android8hardware2tv5tuner4V1_014FrontendStatus3berEv"
  },
  {
   "name" : "_ZNK7android8hardware2tv5tuner4V1_014FrontendStatus3merEv"
  },
  {
   "name" : "_ZNK7android8hardware2tv5tuner4V1_014FrontendStatus3perEv"
  },
  {
   "name" : "_ZNK7android8hardware2tv5tuner4V1_014FrontendStatus3snrEv"
  },
  {
   "name" : "_ZNK7android8hardware2tv5tuner4V1_014FrontendStatus5plpIdEv"
  },
  {
   "name" : "_ZNK7android8hardware2tv5tuner4V1_014FrontendStatus6isEWBSEv"
  },
  {
   "name" : "_ZNK7android8hardware2tv5tuner4V1_014FrontendStatus6preBerEv"
  },
  {
   "name" : "_ZNK7android8hardware2tv5tuner4V1_014FrontendStatus7isLnaOnEv"
  },
  {
   "name" : "_ZNK7android8hardware2tv5tuner4V1_014FrontendStatus7plpInfoEv"
  },
  {
   "name" : "_ZNK7android8hardware2tv5tuner4V1_014FrontendStatus8innerFecEv"
  },
  {
   "name" : "_ZNK7android8hardware2tv5tuner4V1_014FrontendStatus9hierarchyEv"
  },
  {
   "name" : "_ZNK7android8hardware2tv5tuner4V1_014FrontendStatus9inversionEv"
  },
  {
   "name" : "_ZNK7android8hardware2tv5tuner4V1_015DemuxFilterType18DemuxFilterSubType12ipFilterTypeEv"
  },
  {
   "name" : "_ZNK7android8hardware2tv5tuner4V1_015DemuxFilterType18DemuxFilterSubType12tsFilterTypeEv"
  },
  {
   "name" : "_ZNK7android8hardware2tv5tuner4V1_015DemuxFilterType18DemuxFilterSubType13alpFilterTypeEv"
  },
  {
   "name" : "_ZNK7android8hardware2tv5tuner4V1_015DemuxFilterType18DemuxFilterSubType13tlvFilterTypeEv"
  },
  {
   "name" : "_ZNK7android8hardware2tv5tuner4V1_015DemuxFilterType18DemuxFilterSubType14mmtpFilterTypeEv"
  },
  {
   "name" : "_ZNK7android8hardware2tv5tuner4V1_015DemuxFilterType18DemuxFilterSubType16getDiscriminatorEv"
  },
  {
   "name" : "_ZNK7android8hardware2tv5tuner4V1_016DemuxFilterEvent5Event10mmtpRecordEv"
  },
  {
   "name" : "_ZNK7android8hardware2tv5tuner4V1_016DemuxFilterEvent5Event16getDiscriminatorEv"
  },
  {
   "name" : "_ZNK7android8hardware2tv5tuner4V1_016DemuxFilterEvent5Event3pesEv"
  },
  {
   "name" : "_ZNK7android8hardware2tv5tuner4V1_016DemuxFilterEvent5Event4temiEv"
  },
  {
   "name" : "_ZNK7android8hardware2tv5tuner4V1_016DemuxFilterEvent5Event5mediaEv"
  },
  {
   "name" : "_ZNK7android8hardware2tv5tuner4V1_016DemuxFilterEvent5Event7sectionEv"
  },
  {
   "name" : "_ZNK7android8hardware2tv5tuner4V1_016DemuxFilterEvent5Event8downloadEv"
  },
  {
   "name" : "_ZNK7android8hardware2tv5tuner4V1_016DemuxFilterEvent5Event8tsRecordEv"
  },
  {
   "name" : "_ZNK7android8hardware2tv5tuner4V1_016DemuxFilterEvent5Event9ipPayloadEv"
  },
  {
   "name" : "_ZNK7android8hardware2tv5tuner4V1_016FrontendSettings16getDiscriminatorEv"
  },
  {
   "name" : "_ZNK7android8hardware2tv5tuner4V1_016FrontendSettings4atscEv"
  },
  {
   "name" : "_ZNK7android8hardware2tv5tuner4V1_016FrontendSettings4dvbcEv"
  },
  {
   "name" : "_ZNK7android8hardware2tv5tuner4V1_016FrontendSettings4dvbsEv"
  },
  {
   "name" : "_ZNK7android8hardware2tv5tuner4V1_016FrontendSettings4dvbtEv"
  },
  {
   "name" : "_ZNK7android8hardware2tv5tuner4V1_016FrontendSettings5atsc3Ev"
  },
  {
   "name" : "_ZNK7android8hardware2tv5tuner4V1_016FrontendSettings5isdbsEv"
  },
  {
   "name" : "_ZNK7android8hardware2tv5tuner4V1_016FrontendSettings5isdbtEv"
  },
  {
   "name" : "_ZNK7android8hardware2tv5tuner4V1_016FrontendSettings6analogEv"
  },
  {
   "name" : "_ZNK7android8hardware2tv5tuner4V1_016FrontendSettings6isdbs3Ev"
  },
  {
   "name" : "_ZNK7android8hardware2tv5tuner4V1_019DemuxFilterSettings16getDiscriminatorEv"
  },
  {
   "name" : "_ZNK7android8hardware2tv5tuner4V1_019DemuxFilterSettings2ipEv"
  },
  {
   "name" : "_ZNK7android8hardware2tv5tuner4V1_019DemuxFilterSettings2tsEv"
  },
  {
   "name" : "_ZNK7android8hardware2tv5tuner4V1_019DemuxFilterSettings3alpEv"
  },
  {
   "name" : "_ZNK7android8hardware2tv5tuner4V1_019DemuxFilterSettings3tlvEv"
  },
  {
   "name" : "_ZNK7android8hardware2tv5tuner4V1_019DemuxFilterSettings4mmtpEv"
  },
  {
   "name" : "_ZNK7android8hardware2tv5tuner4V1_019FrontendScanMessage10analogTypeEv"
  },
  {
   "name" : "_ZNK7android8hardware2tv5tuner4V1_019FrontendScanMessage11frequenciesEv"
  },
  {
   "name" : "_ZNK7android8hardware2tv5tuner4V1_019FrontendScanMessage11symbolRatesEv"
  },
  {
   "name" : "_ZNK7android8hardware2tv5tuner4V1_019FrontendScanMessage13atsc3PlpInfosEv"
  },
  {
   "name" : "_ZNK7android8hardware2tv5tuner4V1_019FrontendScanMessage14inputStreamIdsEv"
  },
  {
   "name" : "_ZNK7android8hardware2tv5tuner4V1_019FrontendScanMessage15progressPercentEv"
  },
  {
   "name" : "_ZNK7android8hardware2tv5tuner4V1_019FrontendScanMessage16getDiscriminatorEv"
  },
  {
   "name" : "_ZNK7android8hardware2tv5tuner4V1_019FrontendScanMessage3stdEv"
  },
  {
   "name" : "_ZNK7android8hardware2tv5tuner4V1_019FrontendScanMessage5isEndEv"
  },
  {
   "name" : "_ZNK7android8hardware2tv5tuner4V1_019FrontendScanMessage6plpIdsEv"
  },
  {
   "name" : "_ZNK7android8hardware2tv5tuner4V1_019FrontendScanMessage8Standard16getDiscriminatorEv"
  },
  {
   "name" : "_ZNK7android8hardware2tv5tuner4V1_019FrontendScanMessage8Standard4sStdEv"
  },
  {
   "name" : "_ZNK7android8hardware2tv5tuner4V1_019FrontendScanMessage8Standard4tStdEv"
  },
  {
   "name" : "_ZNK7android8hardware2tv5tuner4V1_019FrontendScanMessage8Standard6sifStdEv"
  },
  {
   "name" : "_ZNK7android8hardware2tv5tuner4V1_019FrontendScanMessage8groupIdsEv"
  },
  {
   "name" : "_ZNK7android8hardware2tv5tuner4V1_019FrontendScanMessage8isLockedEv"
  },
  {
   "name" : "_ZNK7android8hardware2tv5tuner4V1_019FrontendScanMessage9hierarchyEv"
  },
  {
   "name" : "_ZNK7android8hardware2tv5tuner4V1_021DemuxFilterMediaEvent13ExtraMetaData16getDiscriminatorEv"
  },
  {
   "name" : "_ZNK7android8hardware2tv5tuner4V1_021DemuxFilterMediaEvent13ExtraMetaData5audioEv"
  },
  {
   "name" : "_ZNK7android8hardware2tv5tuner4V1_021DemuxFilterMediaEvent13ExtraMetaData6noinitEv"
  },
  {
   "name" : "_ZNK7android8hardware2tv5tuner4V1_021DemuxIpFilterSettings14FilterSettings12bPassthroughEv"
  },
  {
   "name" : "_ZNK7android8hardware2tv5tuner4V1_021DemuxIpFilterSettings14FilterSettings16getDiscriminatorEv"
  },
  {
   "name" : "_ZNK7android8hardware2tv5tuner4V1_021DemuxIpFilterSettings14FilterSettings6noinitEv"
  },
  {
   "name" : "_ZNK7android8hardware2tv5tuner4V1_021DemuxIpFilterSettings14FilterSettings7sectionEv"
  },
  {
   "name" : "_ZNK7android8hardware2tv5tuner4V1_021DemuxTsFilterSettings14FilterSettings16getDiscriminatorEv"
  },
  {
   "name" : "_ZNK7android8hardware2tv5tuner4V1_021DemuxTsFilterSettings14FilterSettings2avEv"
  },
  {
   "name" : "_ZNK7android8hardware2tv5tuner4V1_021DemuxTsFilterSettings14FilterSettings6noinitEv"
  },
  {
   "name" : "_ZNK7android8hardware2tv5tuner4V1_021DemuxTsFilterSettings14FilterSettings6recordEv"
  },
  {
   "name" : "_ZNK7android8hardware2tv5tuner4V1_021DemuxTsFilterSettings14FilterSettings7pesDataEv"
  },
  {
   "name" : "_ZNK7android8hardware2tv5tuner4V1_021DemuxTsFilterSettings14FilterSettings7sectionEv"
  },
  {
   "name" : "_ZNK7android8hardware2tv5tuner4V1_022DemuxAlpFilterSettings14FilterSettings16getDiscriminatorEv"
  },
  {
   "name" : "_ZNK7android8hardware2tv5tuner4V1_022DemuxAlpFilterSettings14FilterSettings6noinitEv"
  },
  {
   "name" : "_ZNK7android8hardware2tv5tuner4V1_022DemuxAlpFilterSettings14FilterSettings7sectionEv"
  },
  {
   "name" : "_ZNK7android8hardware2tv5tuner4V1_022DemuxTlvFilterSettings14FilterSettings12bPassthroughEv"
  },
  {
   "name" : "_ZNK7android8hardware2tv5tuner4V1_022DemuxTlvFilterSettings14FilterSettings16getDiscriminatorEv"
  },
  {
   "name" : "_ZNK7android8hardware2tv5tuner4V1_022DemuxTlvFilterSettings14FilterSettings6noinitEv"
  },
  {
   "name" : "_ZNK7android8hardware2tv5tuner4V1_022DemuxTlvFilterSettings14FilterSettings7sectionEv"
  },
  {
   "name" : "_ZNK7android8hardware2tv5tuner4V1_023DemuxMmtpFilterSettings14FilterSettings16getDiscriminatorEv"
  },
  {
   "name" : "_ZNK7android8hardware2tv5tuner4V1_023DemuxMmtpFilterSettings14FilterSettings2avEv"
  },
  {
   "name" : "_ZNK7android8hardware2tv5tuner4V1_023DemuxMmtpFilterSettings14FilterSettings6noinitEv"
  },
  {
   "name" : "_ZNK7android8hardware2tv5tuner4V1_023DemuxMmtpFilterSettings14FilterSettings6recordEv"
  },
  {
   "name" : "_ZNK7android8hardware2tv5tuner4V1_023DemuxMmtpFilterSettings14FilterSettings7pesDataEv"
  },
  {
   "name" : "_ZNK7android8hardware2tv5tuner4V1_023DemuxMmtpFilterSettings14FilterSettings7sectionEv"
  },
  {
   "name" : "_ZNK7android8hardware2tv5tuner4V1_023DemuxMmtpFilterSettings14FilterSettings8downloadEv"
  },
  {
   "name" : "_ZNK7android8hardware2tv5tuner4V1_024DemuxFilterTsRecordEvent11ScIndexMask16getDiscriminatorEv"
  },
  {
   "name" : "_ZNK7android8hardware2tv5tuner4V1_024DemuxFilterTsRecordEvent11ScIndexMask2scEv"
  },
  {
   "name" : "_ZNK7android8hardware2tv5tuner4V1_024DemuxFilterTsRecordEvent11ScIndexMask6scHevcEv"
  },
  {
   "name" : "_ZNK7android8hardware2tv5tuner4V1_024FrontendModulationStatus16getDiscriminatorEv"
  },
  {
   "name" : "_ZNK7android8hardware2tv5tuner4V1_024FrontendModulationStatus4dvbcEv"
  },
  {
   "name" : "_ZNK7android8hardware2tv5tuner4V1_024FrontendModulationStatus4dvbsEv"
  },
  {
   "name" : "_ZNK7android8hardware2tv5tuner4V1_024FrontendModulationStatus5isdbsEv"
  },
  {
   "name" : "_ZNK7android8hardware2tv5tuner4V1_024FrontendModulationStatus5isdbtEv"
  },
  {
   "name" : "_ZNK7android8hardware2tv5tuner4V1_024FrontendModulationStatus6isdbs3Ev"
  },
  {
   "name" : "_ZNK7android8hardware2tv5tuner4V1_025DemuxFilterRecordSettings11ScIndexMask16getDiscriminatorEv"
  },
  {
   "name" : "_ZNK7android8hardware2tv5tuner4V1_025DemuxFilterRecordSettings11ScIndexMask2scEv"
  },
  {
   "name" : "_ZNK7android8hardware2tv5tuner4V1_025DemuxFilterRecordSettings11ScIndexMask6scHevcEv"
  },
  {
   "name" : "_ZNK7android8hardware2tv5tuner4V1_026DemuxFilterSectionSettings9Condition11sectionBitsEv"
  },
  {
   "name" : "_ZNK7android8hardware2tv5tuner4V1_026DemuxFilterSectionSettings9Condition16getDiscriminatorEv"
  },
  {
   "name" : "_ZNK7android8hardware2tv5tuner4V1_026DemuxFilterSectionSettings9Condition9tableInfoEv"
  },
  {
   "name" : "_ZNK7android8hardware2tv5tuner4V1_08DemuxPid16getDiscriminatorEv"
  },
  {
   "name" : "_ZNK7android8hardware2tv5tuner4V1_08DemuxPid4tPidEv"
  },
  {
   "name" : "_ZNK7android8hardware2tv5tuner4V1_08DemuxPid7mmtpPidEv"
  },
  {
   "binding" : "weak",
   "name" : "_ZNKSt3__18functionIFvN7android8hardware7details16HidlInstrumentor20InstrumentationEventEPKcS7_S7_S7_PNS_6vectorIPvNS_9allocatorIS9_EEEEEEclES5_S7_S7_S7_S7_SD_"
  },
  {
   "binding" : "weak",
   "name" : "_ZNSt3__113__tree_removeIPNS_16__tree_node_baseIPvEEEEvT_S5_"
  },
  {
   "binding" : "weak",
   "name" : "_ZNSt3__127__tree_balance_after_insertIPNS_16__tree_node_baseIPvEEEEvT_S5_"
  },
  {
   "binding" : "weak",
   "name" : "_ZNSt3__16__treeINS_12__value_typeINS_12basic_stringIcNS_11char_traitsIcEENS_9allocatorIcEEEENS_8functionIFN7android2spINS9_4hidl4base4V1_05IBaseEEEPvEEEEENS_19__map_value_compareIS7_SJ_NS_4lessIS7_EELb1EEENS5_ISJ_EEE12__find_equalIS7_EERPNS_16__tree_node_baseISG_EERPNS_15__tree_end_nodeIST_EERKT_"
  },
  {
   "binding" : "weak",
   "name" : "_ZNSt3__16__treeINS_12__value_typeINS_12basic_stringIcNS_11char_traitsIcEENS_9allocatorIcEEEENS_8functionIFN7android2spINS9_4hidl4base4V1_05IBaseEEEPvEEEEENS_19__map_value_compareIS7_SJ_NS_4lessIS7_EELb1EEENS5_ISJ_EEE4findIS7_EENS_15__tree_iteratorISJ_PNS_11__tree_nodeISJ_SG_EElEERKT_"
  },
  {
   "binding" : "weak",
   "name" : "_ZNSt3__16__treeINS_12__value_typeINS_12basic_stringIcNS_11char_traitsIcEENS_9allocatorIcEEEENS_8functionIFN7android2spINS9_4hidl4base4V1_05IBaseEEEPvEEEEENS_19__map_value_compareIS7_SJ_NS_4lessIS7_EELb1EEENS5_ISJ_EEE5eraseENS_21__tree_const_iteratorISJ_PNS_11__tree_nodeISJ_SG_EElEE"
  },
  {
   "binding" : "weak",
   "name" : "_ZNSt3__16__treeINS_12__value_typeINS_12basic_stringIcNS_11char_traitsIcEENS_9allocatorIcEEEENS_8functionIFN7android2spINS9_8hardware7IBinderEEEPvEEEEENS_19__map_value_compareIS7_SH_NS_4lessIS7_EELb1EEENS5_ISH_EEE12__find_equalIS7_EERPNS_16__tree_node_baseISE_EERPNS_15__tree_end_nodeISR_EERKT_"
  },
  {
   "binding" : "weak",
   "name" : "_ZNSt3__16__treeINS_12__value_typeINS_12basic_stringIcNS_11char_traitsIcEENS_9allocatorIcEEEENS_8functionIFN7android2spINS9_8hardware7IBinderEEEPvEEEEENS_19__map_value_compareIS7_SH_NS_4lessIS7_EELb1EEENS5_ISH_EEE4findIS7_EENS_15__tree_iteratorISH_PNS_11__tree_nodeISH_SE_EElEERKT_"
  },
  {
   "binding" : "weak",
   "name" : "_ZNSt3__16__treeINS_12__value_typeINS_12basic_stringIcNS_11char_traitsIcEENS_9allocatorIcEEEENS_8functionIFN7android2spINS9_8hardware7IBinderEEEPvEEEEENS_19__map_value_compareIS7_SH_NS_4lessIS7_EELb1EEENS5_ISH_EEE5eraseENS_21__tree_const_iteratorISH_PNS_11__tree_nodeISH_SE_EElEE"
  },
  {
   "binding" : "weak",
   "name" : "_ZNSt3__16vectorIN7android2spINS1_8hardware27hidl_binder_death_recipientEEENS_9allocatorIS5_EEE21__push_back_slow_pathIS5_EEvOT_"
  },
  {
   "binding" : "weak",
   "name" : "_ZNSt3__16vectorINS_8functionIFvN7android8hardware7details16HidlInstrumentor20InstrumentationEventEPKcS8_S8_S8_PNS0_IPvNS_9allocatorIS9_EEEEEEENSA_ISF_EEEC2ERKSH_"
  },
  {
   "binding" : "weak",
   "name" : "_ZNSt3__16vectorIPvNS_9allocatorIS1_EEE21__push_back_slow_pathIS1_EEvOT_"
  },
  {
   "name" : "_ZThn16_N7android8hardware2tv5tuner4V1_010BpHwFilter15onLastStrongRefEPKv"
  },
  {
   "name" : "_ZThn16_N7android8hardware2tv5tuner4V1_012BpHwFrontend15onLastStrongRefEPKv"
  },
  {
   "name" : "_ZThn16_N7android8hardware2tv5tuner4V1_014BpHwTimeFilter15onLastStrongRefEPKv"
  },
  {
   "name" : "_ZThn16_N7android8hardware2tv5tuner4V1_015BpHwDescrambler15onLastStrongRefEPKv"
  },
  {
   "name" : "_ZThn16_N7android8hardware2tv5tuner4V1_015BpHwDvrCallback15onLastStrongRefEPKv"
  },
  {
   "name" : "_ZThn16_N7android8hardware2tv5tuner4V1_015BpHwLnbCallback15onLastStrongRefEPKv"
  },
  {
   "name" : "_ZThn16_N7android8hardware2tv5tuner4V1_018BpHwFilterCallback15onLastStrongRefEPKv"
  },
  {
   "name" : "_ZThn16_N7android8hardware2tv5tuner4V1_020BpHwFrontendCallback15onLastStrongRefEPKv"
  },
  {
   "name" : "_ZThn16_N7android8hardware2tv5tuner4V1_07BpHwDvr15onLastStrongRefEPKv"
  },
  {
   "name" : "_ZThn16_N7android8hardware2tv5tuner4V1_07BpHwLnb15onLastStrongRefEPKv"
  },
  {
   "name" : "_ZThn16_N7android8hardware2tv5tuner4V1_09BpHwDemux15onLastStrongRefEPKv"
  },
  {
   "name" : "_ZThn16_N7android8hardware2tv5tuner4V1_09BpHwTuner15onLastStrongRefEPKv"
  },
  {
   "name" : "_ZThn32_N7android8hardware2tv5tuner4V1_010BnHwFilterD0Ev"
  },
  {
   "name" : "_ZThn32_N7android8hardware2tv5tuner4V1_010BnHwFilterD1Ev"
  },
  {
   "name" : "_ZThn32_N7android8hardware2tv5tuner4V1_012BnHwFrontendD0Ev"
  },
  {
   "name" : "_ZThn32_N7android8hardware2tv5tuner4V1_012BnHwFrontendD1Ev"
  },
  {
   "name" : "_ZThn32_N7android8hardware2tv5tuner4V1_014BnHwTimeFilterD0Ev"
  },
  {
   "name" : "_ZThn32_N7android8hardware2tv5tuner4V1_014BnHwTimeFilterD1Ev"
  },
  {
   "name" : "_ZThn32_N7android8hardware2tv5tuner4V1_015BnHwDescramblerD0Ev"
  },
  {
   "name" : "_ZThn32_N7android8hardware2tv5tuner4V1_015BnHwDescramblerD1Ev"
  },
  {
   "name" : "_ZThn32_N7android8hardware2tv5tuner4V1_015BnHwDvrCallbackD0Ev"
  },
  {
   "name" : "_ZThn32_N7android8hardware2tv5tuner4V1_015BnHwDvrCallbackD1Ev"
  },
  {
   "name" : "_ZThn32_N7android8hardware2tv5tuner4V1_015BnHwLnbCallbackD0Ev"
  },
  {
   "name" : "_ZThn32_N7android8hardware2tv5tuner4V1_015BnHwLnbCallbackD1Ev"
  },
  {
   "name" : "_ZThn32_N7android8hardware2tv5tuner4V1_018BnHwFilterCallbackD0Ev"
  },
  {
   "name" : "_ZThn32_N7android8hardware2tv5tuner4V1_018BnHwFilterCallbackD1Ev"
  },
  {
   "name" : "_ZThn32_N7android8hardware2tv5tuner4V1_020BnHwFrontendCallbackD0Ev"
  },
  {
   "name" : "_ZThn32_N7android8hardware2tv5tuner4V1_020BnHwFrontendCallbackD1Ev"
  },
  {
   "name" : "_ZThn32_N7android8hardware2tv5tuner4V1_07BnHwDvrD0Ev"
  },
  {
   "name" : "_ZThn32_N7android8hardware2tv5tuner4V1_07BnHwDvrD1Ev"
  },
  {
   "name" : "_ZThn32_N7android8hardware2tv5tuner4V1_07BnHwLnbD0Ev"
  },
  {
   "name" : "_ZThn32_N7android8hardware2tv5tuner4V1_07BnHwLnbD1Ev"
  },
  {
   "name" : "_ZThn32_N7android8hardware2tv5tuner4V1_09BnHwDemuxD0Ev"
  },
  {
   "name" : "_ZThn32_N7android8hardware2tv5tuner4V1_09BnHwDemuxD1Ev"
  },
  {
   "name" : "_ZThn32_N7android8hardware2tv5tuner4V1_09BnHwTunerD0Ev"
  },
  {
   "name" : "_ZThn32_N7android8hardware2tv5tuner4V1_09BnHwTunerD1Ev"
  },
  {
   "name" : "_ZTv0_n24_N7android8hardware2tv5tuner4V1_010BnHwFilterD0Ev"
  },
  {
   "name" : "_ZTv0_n24_N7android8hardware2tv5tuner4V1_010BnHwFilterD1Ev"
  },
  {
   "name" : "_ZTv0_n24_N7android8hardware2tv5tuner4V1_012BnHwFrontendD0Ev"
  },
  {
   "name" : "_ZTv0_n24_N7android8hardware2tv5tuner4V1_012BnHwFrontendD1Ev"
  },
  {
   "name" : "_ZTv0_n24_N7android8hardware2tv5tuner4V1_014BnHwTimeFilterD0Ev"
  },
  {
   "name" : "_ZTv0_n24_N7android8hardware2tv5tuner4V1_014BnHwTimeFilterD1Ev"
  },
  {
   "name" : "_ZTv0_n24_N7android8hardware2tv5tuner4V1_015BnHwDescramblerD0Ev"
  },
  {
   "name" : "_ZTv0_n24_N7android8hardware2tv5tuner4V1_015BnHwDescramblerD1Ev"
  },
  {
   "name" : "_ZTv0_n24_N7android8hardware2tv5tuner4V1_015BnHwDvrCallbackD0Ev"
  },
  {
   "name" : "_ZTv0_n24_N7android8hardware2tv5tuner4V1_015BnHwDvrCallbackD1Ev"
  },
  {
   "name" : "_ZTv0_n24_N7android8hardware2tv5tuner4V1_015BnHwLnbCallbackD0Ev"
  },
  {
   "name" : "_ZTv0_n24_N7android8hardware2tv5tuner4V1_015BnHwLnbCallbackD1Ev"
  },
  {
   "name" : "_ZTv0_n24_N7android8hardware2tv5tuner4V1_018BnHwFilterCallbackD0Ev"
  },
  {
   "name" : "_ZTv0_n24_N7android8hardware2tv5tuner4V1_018BnHwFilterCallbackD1Ev"
  },
  {
   "name" : "_ZTv0_n24_N7android8hardware2tv5tuner4V1_020BnHwFrontendCallbackD0Ev"
  },
  {
   "name" : "_ZTv0_n24_N7android8hardware2tv5tuner4V1_020BnHwFrontendCallbackD1Ev"
  },
  {
   "name" : "_ZTv0_n24_N7android8hardware2tv5tuner4V1_07BnHwDvrD0Ev"
  },
  {
   "name" : "_ZTv0_n24_N7android8hardware2tv5tuner4V1_07BnHwDvrD1Ev"
  },
  {
   "name" : "_ZTv0_n24_N7android8hardware2tv5tuner4V1_07BnHwLnbD0Ev"
  },
  {
   "name" : "_ZTv0_n24_N7android8hardware2tv5tuner4V1_07BnHwLnbD1Ev"
  },
  {
   "name" : "_ZTv0_n24_N7android8hardware2tv5tuner4V1_09BnHwDemuxD0Ev"
  },
  {
   "name" : "_ZTv0_n24_N7android8hardware2tv5tuner4V1_09BnHwDemuxD1Ev"
  },
  {
   "name" : "_ZTv0_n24_N7android8hardware2tv5tuner4V1_09BnHwTunerD0Ev"
  },
  {
   "name" : "_ZTv0_n24_N7android8hardware2tv5tuner4V1_09BnHwTunerD1Ev"
  },
  {
   "name" : "_ZTv0_n40_N7android8hardware2tv5tuner4V1_010BpHwFilter15onLastStrongRefEPKv"
  },
  {
   "name" : "_ZTv0_n40_N7android8hardware2tv5tuner4V1_012BpHwFrontend15onLastStrongRefEPKv"
  },
  {
   "name" : "_ZTv0_n40_N7android8hardware2tv5tuner4V1_014BpHwTimeFilter15onLastStrongRefEPKv"
  },
  {
   "name" : "_ZTv0_n40_N7android8hardware2tv5tuner4V1_015BpHwDescrambler15onLastStrongRefEPKv"
  },
  {
   "name" : "_ZTv0_n40_N7android8hardware2tv5tuner4V1_015BpHwDvrCallback15onLastStrongRefEPKv"
  },
  {
   "name" : "_ZTv0_n40_N7android8hardware2tv5tuner4V1_015BpHwLnbCallback15onLastStrongRefEPKv"
  },
  {
   "name" : "_ZTv0_n40_N7android8hardware2tv5tuner4V1_018BpHwFilterCallback15onLastStrongRefEPKv"
  },
  {
   "name" : "_ZTv0_n40_N7android8hardware2tv5tuner4V1_020BpHwFrontendCallback15onLastStrongRefEPKv"
  },
  {
   "name" : "_ZTv0_n40_N7android8hardware2tv5tuner4V1_07BpHwDvr15onLastStrongRefEPKv"
  },
  {
   "name" : "_ZTv0_n40_N7android8hardware2tv5tuner4V1_07BpHwLnb15onLastStrongRefEPKv"
  },
  {
   "name" : "_ZTv0_n40_N7android8hardware2tv5tuner4V1_09BpHwDemux15onLastStrongRefEPKv"
  },
  {
   "name" : "_ZTv0_n40_N7android8hardware2tv5tuner4V1_09BpHwTuner15onLastStrongRefEPKv"
  }
 ],
 "elf_objects" :
 [
  {
   "name" : "_ZN7android8hardware2tv5tuner4V1_011ITimeFilter10descriptorE"
  },
  {
   "name" : "_ZN7android8hardware2tv5tuner4V1_012IDescrambler10descriptorE"
  },
  {
   "name" : "_ZN7android8hardware2tv5tuner4V1_012IDvrCallback10descriptorE"
  },
  {
   "name" : "_ZN7android8hardware2tv5tuner4V1_012ILnbCallback10descriptorE"
  },
  {
   "name" : "_ZN7android8hardware2tv5tuner4V1_015IFilterCallback10descriptorE"
  },
  {
   "name" : "_ZN7android8hardware2tv5tuner4V1_017IFrontendCallback10descriptorE"
  },
  {
   "name" : "_ZN7android8hardware2tv5tuner4V1_04IDvr10descriptorE"
  },
  {
   "name" : "_ZN7android8hardware2tv5tuner4V1_04ILnb10descriptorE"
  },
  {
   "name" : "_ZN7android8hardware2tv5tuner4V1_06IDemux10descriptorE"
  },
  {
   "name" : "_ZN7android8hardware2tv5tuner4V1_06ITuner10descriptorE"
  },
  {
   "name" : "_ZN7android8hardware2tv5tuner4V1_07IFilter10descriptorE"
  },
  {
   "name" : "_ZN7android8hardware2tv5tuner4V1_09IFrontend10descriptorE"
  },
  {
   "name" : "_ZTCN7android8hardware2tv5tuner4V1_010BnHwFilterE0_NS0_7IBinderE"
  },
  {
   "name" : "_ZTCN7android8hardware2tv5tuner4V1_010BnHwFilterE0_NS0_9BHwBinderE"
  },
  {
   "name" : "_ZTCN7android8hardware2tv5tuner4V1_010BnHwFilterE0_NS_4hidl4base4V1_08BnHwBaseE"
  },
  {
   "name" : "_ZTCN7android8hardware2tv5tuner4V1_010BpHwFilterE0_NS0_11BpInterfaceINS3_7IFilterEEE"
  },
  {
   "name" : "_ZTCN7android8hardware2tv5tuner4V1_010BpHwFilterE0_NS3_7IFilterE"
  },
  {
   "name" : "_ZTCN7android8hardware2tv5tuner4V1_010BpHwFilterE0_NS_4hidl4base4V1_05IBaseE"
  },
  {
   "name" : "_ZTCN7android8hardware2tv5tuner4V1_010BpHwFilterE16_NS0_11BpHwRefBaseE"
  },
  {
   "name" : "_ZTCN7android8hardware2tv5tuner4V1_010BpHwFilterE8_NS0_10IInterfaceE"
  },
  {
   "binding" : "weak",
   "name" : "_ZTCN7android8hardware2tv5tuner4V1_010BsFrontendE0_NS3_9IFrontendE"
  },
  {
   "name" : "_ZTCN7android8hardware2tv5tuner4V1_011ITimeFilterE0_NS_4hidl4base4V1_05IBaseE"
  },
  {
   "name" : "_ZTCN7android8hardware2tv5tuner4V1_012BnHwFrontendE0_NS0_7IBinderE"
  },
  {
   "name" : "_ZTCN7android8hardware2tv5tuner4V1_012BnHwFrontendE0_NS0_9BHwBinderE"
  },
  {
   "name" : "_ZTCN7android8hardware2tv5tuner4V1_012BnHwFrontendE0_NS_4hidl4base4V1_08BnHwBaseE"
  },
  {
   "name" : "_ZTCN7android8hardware2tv5tuner4V1_012BpHwFrontendE0_NS0_11BpInterfaceINS3_9IFrontendEEE"
  },
  {
   "name" : "_ZTCN7android8hardware2tv5tuner4V1_012BpHwFrontendE0_NS3_9IFrontendE"
  },
  {
   "name" : "_ZTCN7android8hardware2tv5tuner4V1_012BpHwFrontendE0_NS_4hidl4base4V1_05IBaseE"
  },
  {
   "name" : "_ZTCN7android8hardware2tv5tuner4V1_012BpHwFrontendE16_NS0_11BpHwRefBaseE"
  },
  {
   "name" : "_ZTCN7android8hardware2tv5tuner4V1_012BpHwFrontendE8_NS0_10IInterfaceE"
  },
  {
   "binding" : "weak",
   "name" : "_ZTCN7android8hardware2tv5tuner4V1_012BsTimeFilterE0_NS3_11ITimeFilterE"
  },
  {
   "name" : "_ZTCN7android8hardware2tv5tuner4V1_012IDescramblerE0_NS_4hidl4base4V1_05IBaseE"
  },
  {
   "name" : "_ZTCN7android8hardware2tv5tuner4V1_012IDvrCallbackE0_NS_4hidl4base4V1_05IBaseE"
  },
  {
   "name" : "_ZTCN7android8hardware2tv5tuner4V1_012ILnbCallbackE0_NS_4hidl4base4V1_05IBaseE"
  },
  {
   "binding" : "weak",
   "name" : "_ZTCN7android8hardware2tv5tuner4V1_013BsDescramblerE0_NS3_12IDescramblerE"
  },
  {
   "binding" : "weak",
   "name" : "_ZTCN7android8hardware2tv5tuner4V1_013BsDvrCallbackE0_NS3_12IDvrCallbackE"
  },
  {
   "binding" : "weak",
   "name" : "_ZTCN7android8hardware2tv5tuner4V1_013BsLnbCallbackE0_NS3_12ILnbCallbackE"
  },
  {
   "name" : "_ZTCN7android8hardware2tv5tuner4V1_014BnHwTimeFilterE0_NS0_7IBinderE"
  },
  {
   "name" : "_ZTCN7android8hardware2tv5tuner4V1_014BnHwTimeFilterE0_NS0_9BHwBinderE"
  },
  {
   "name" : "_ZTCN7android8hardware2tv5tuner4V1_014BnHwTimeFilterE0_NS_4hidl4base4V1_08BnHwBaseE"
  },
  {
   "name" : "_ZTCN7android8hardware2tv5tuner4V1_014BpHwTimeFilterE0_NS0_11BpInterfaceINS3_11ITimeFilterEEE"
  },
  {
   "name" : "_ZTCN7android8hardware2tv5tuner4V1_014BpHwTimeFilterE0_NS3_11ITimeFilterE"
  },
  {
   "name" : "_ZTCN7android8hardware2tv5tuner4V1_014BpHwTimeFilterE0_NS_4hidl4base4V1_05IBaseE"
  },
  {
   "name" : "_ZTCN7android8hardware2tv5tuner4V1_014BpHwTimeFilterE16_NS0_11BpHwRefBaseE"
  },
  {
   "name" : "_ZTCN7android8hardware2tv5tuner4V1_014BpHwTimeFilterE8_NS0_10IInterfaceE"
  },
  {
   "name" : "_ZTCN7android8hardware2tv5tuner4V1_015BnHwDescramblerE0_NS0_7IBinderE"
  },
  {
   "name" : "_ZTCN7android8hardware2tv5tuner4V1_015BnHwDescramblerE0_NS0_9BHwBinderE"
  },
  {
   "name" : "_ZTCN7android8hardware2tv5tuner4V1_015BnHwDescramblerE0_NS_4hidl4base4V1_08BnHwBaseE"
  },
  {
   "name" : "_ZTCN7android8hardware2tv5tuner4V1_015BnHwDvrCallbackE0_NS0_7IBinderE"
  },
  {
   "name" : "_ZTCN7android8hardware2tv5tuner4V1_015BnHwDvrCallbackE0_NS0_9BHwBinderE"
  },
  {
   "name" : "_ZTCN7android8hardware2tv5tuner4V1_015BnHwDvrCallbackE0_NS_4hidl4base4V1_08BnHwBaseE"
  },
  {
   "name" : "_ZTCN7android8hardware2tv5tuner4V1_015BnHwLnbCallbackE0_NS0_7IBinderE"
  },
  {
   "name" : "_ZTCN7android8hardware2tv5tuner4V1_015BnHwLnbCallbackE0_NS0_9BHwBinderE"
  },
  {
   "name" : "_ZTCN7android8hardware2tv5tuner4V1_015BnHwLnbCallbackE0_NS_4hidl4base4V1_08BnHwBaseE"
  },
  {
   "name" : "_ZTCN7android8hardware2tv5tuner4V1_015BpHwDescramblerE0_NS0_11BpInterfaceINS3_12IDescramblerEEE"
  },
  {
   "name" : "_ZTCN7android8hardware2tv5tuner4V1_015BpHwDescramblerE0_NS3_12IDescramblerE"
  },
  {
   "name" : "_ZTCN7android8hardware2tv5tuner4V1_015BpHwDescramblerE0_NS_4hidl4base4V1_05IBaseE"
  },
  {
   "name" : "_ZTCN7android8hardware2tv5tuner4V1_015BpHwDescramblerE16_NS0_11BpHwRefBaseE"
  },
  {
   "name" : "_ZTCN7android8hardware2tv5tuner4V1_015BpHwDescramblerE8_NS0_10IInterfaceE"
  },
  {
   "name" : "_ZTCN7android8hardware2tv5tuner4V1_015BpHwDvrCallbackE0_NS0_11BpInterfaceINS3_12IDvrCallbackEEE"
  },
  {
   "name" : "_ZTCN7android8hardware2tv5tuner4V1_015BpHwDvrCallbackE0_NS3_12IDvrCallbackE"
  },
  {
   "name" : "_ZTCN7android8hardware2tv5tuner4V1_015BpHwDvrCallbackE0_NS_4hidl4base4V1_05IBaseE"
  },
  {
   "name" : "_ZTCN7android8hardware2tv5tuner4V1_015BpHwDvrCallbackE16_NS0_11BpHwRefBaseE"
  },
  {
   "name" : "_ZTCN7android8hardware2tv5tuner4V1_015BpHwDvrCallbackE8_NS0_10IInterfaceE"
  },
  {
   "name" : "_ZTCN7android8hardware2tv5tuner4V1_015BpHwLnbCallbackE0_NS0_11BpInterfaceINS3_12ILnbCallbackEEE"
  },
  {
   "name" : "_ZTCN7android8hardware2tv5tuner4V1_015BpHwLnbCallbackE0_NS3_12ILnbCallbackE"
  },
  {
   "name" : "_ZTCN7android8hardware2tv5tuner4V1_015BpHwLnbCallbackE0_NS_4hidl4base4V1_05IBaseE"
  },
  {
   "name" : "_ZTCN7android8hardware2tv5tuner4V1_015BpHwLnbCallbackE16_NS0_11BpHwRefBaseE"
  },
  {
   "name" : "_ZTCN7android8hardware2tv5tuner4V1_015BpHwLnbCallbackE8_NS0_10IInterfaceE"
  },
  {
   "name" : "_ZTCN7android8hardware2tv5tuner4V1_015IFilterCallbackE0_NS_4hidl4base4V1_05IBaseE"
  },
  {
   "binding" : "weak",
   "name" : "_ZTCN7android8hardware2tv5tuner4V1_016BsFilterCallbackE0_NS3_15IFilterCallbackE"
  },
  {
   "name" : "_ZTCN7android8hardware2tv5tuner4V1_017IFrontendCallbackE0_NS_4hidl4base4V1_05IBaseE"
  },
  {
   "name" : "_ZTCN7android8hardware2tv5tuner4V1_018BnHwFilterCallbackE0_NS0_7IBinderE"
  },
  {
   "name" : "_ZTCN7android8hardware2tv5tuner4V1_018BnHwFilterCallbackE0_NS0_9BHwBinderE"
  },
  {
   "name" : "_ZTCN7android8hardware2tv5tuner4V1_018BnHwFilterCallbackE0_NS_4hidl4base4V1_08BnHwBaseE"
  },
  {
   "name" : "_ZTCN7android8hardware2tv5tuner4V1_018BpHwFilterCallbackE0_NS0_11BpInterfaceINS3_15IFilterCallbackEEE"
  },
  {
   "name" : "_ZTCN7android8hardware2tv5tuner4V1_018BpHwFilterCallbackE0_NS3_15IFilterCallbackE"
  },
  {
   "name" : "_ZTCN7android8hardware2tv5tuner4V1_018BpHwFilterCallbackE0_NS_4hidl4base4V1_05IBaseE"
  },
  {
   "name" : "_ZTCN7android8hardware2tv5tuner4V1_018BpHwFilterCallbackE16_NS0_11BpHwRefBaseE"
  },
  {
   "name" : "_ZTCN7android8hardware2tv5tuner4V1_018BpHwFilterCallbackE8_NS0_10IInterfaceE"
  },
  {
   "binding" : "weak",
   "name" : "_ZTCN7android8hardware2tv5tuner4V1_018BsFrontendCallbackE0_NS3_17IFrontendCallbackE"
  },
  {
   "name" : "_ZTCN7android8hardware2tv5tuner4V1_020BnHwFrontendCallbackE0_NS0_7IBinderE"
  },
  {
   "name" : "_ZTCN7android8hardware2tv5tuner4V1_020BnHwFrontendCallbackE0_NS0_9BHwBinderE"
  },
  {
   "name" : "_ZTCN7android8hardware2tv5tuner4V1_020BnHwFrontendCallbackE0_NS_4hidl4base4V1_08BnHwBaseE"
  },
  {
   "name" : "_ZTCN7android8hardware2tv5tuner4V1_020BpHwFrontendCallbackE0_NS0_11BpInterfaceINS3_17IFrontendCallbackEEE"
  },
  {
   "name" : "_ZTCN7android8hardware2tv5tuner4V1_020BpHwFrontendCallbackE0_NS3_17IFrontendCallbackE"
  },
  {
   "name" : "_ZTCN7android8hardware2tv5tuner4V1_020BpHwFrontendCallbackE0_NS_4hidl4base4V1_05IBaseE"
  },
  {
   "name" : "_ZTCN7android8hardware2tv5tuner4V1_020BpHwFrontendCallbackE16_NS0_11BpHwRefBaseE"
  },
  {
   "name" : "_ZTCN7android8hardware2tv5tuner4V1_020BpHwFrontendCallbackE8_NS0_10IInterfaceE"
  },
  {
   "name" : "_ZTCN7android8hardware2tv5tuner4V1_04IDvrE0_NS_4hidl4base4V1_05IBaseE"
  },
  {
   "name" : "_ZTCN7android8hardware2tv5tuner4V1_04ILnbE0_NS_4hidl4base4V1_05IBaseE"
  },
  {
   "binding" : "weak",
   "name" : "_ZTCN7android8hardware2tv5tuner4V1_05BsDvrE0_NS3_4IDvrE"
  },
  {
   "binding" : "weak",
   "name" : "_ZTCN7android8hardware2tv5tuner4V1_05BsLnbE0_NS3_4ILnbE"
  },
  {
   "name" : "_ZTCN7android8hardware2tv5tuner4V1_06IDemuxE0_NS_4hidl4base4V1_05IBaseE"
  },
  {
   "name" : "_ZTCN7android8hardware2tv5tuner4V1_06ITunerE0_NS_4hidl4base4V1_05IBaseE"
  },
  {
   "name" : "_ZTCN7android8hardware2tv5tuner4V1_07BnHwDvrE0_NS0_7IBinderE"
  },
  {
   "name" : "_ZTCN7android8hardware2tv5tuner4V1_07BnHwDvrE0_NS0_9BHwBinderE"
  },
  {
   "name" : "_ZTCN7android8hardware2tv5tuner4V1_07BnHwDvrE0_NS_4hidl4base4V1_08BnHwBaseE"
  },
  {
   "name" : "_ZTCN7android8hardware2tv5tuner4V1_07BnHwLnbE0_NS0_7IBinderE"
  },
  {
   "name" : "_ZTCN7android8hardware2tv5tuner4V1_07BnHwLnbE0_NS0_9BHwBinderE"
  },
  {
   "name" : "_ZTCN7android8hardware2tv5tuner4V1_07BnHwLnbE0_NS_4hidl4base4V1_08BnHwBaseE"
  },
  {
   "name" : "_ZTCN7android8hardware2tv5tuner4V1_07BpHwDvrE0_NS0_11BpInterfaceINS3_4IDvrEEE"
  },
  {
   "name" : "_ZTCN7android8hardware2tv5tuner4V1_07BpHwDvrE0_NS3_4IDvrE"
  },
  {
   "name" : "_ZTCN7android8hardware2tv5tuner4V1_07BpHwDvrE0_NS_4hidl4base4V1_05IBaseE"
  },
  {
   "name" : "_ZTCN7android8hardware2tv5tuner4V1_07BpHwDvrE16_NS0_11BpHwRefBaseE"
  },
  {
   "name" : "_ZTCN7android8hardware2tv5tuner4V1_07BpHwDvrE8_NS0_10IInterfaceE"
  },
  {
   "name" : "_ZTCN7android8hardware2tv5tuner4V1_07BpHwLnbE0_NS0_11BpInterfaceINS3_4ILnbEEE"
  },
  {
   "name" : "_ZTCN7android8hardware2tv5tuner4V1_07BpHwLnbE0_NS3_4ILnbE"
  },
  {
   "name" : "_ZTCN7android8hardware2tv5tuner4V1_07BpHwLnbE0_NS_4hidl4base4V1_05IBaseE"
  },
  {
   "name" : "_ZTCN7android8hardware2tv5tuner4V1_07BpHwLnbE16_NS0_11BpHwRefBaseE"
  },
  {
   "name" : "_ZTCN7android8hardware2tv5tuner4V1_07BpHwLnbE8_NS0_10IInterfaceE"
  },
  {
   "binding" : "weak",
   "name" : "_ZTCN7android8hardware2tv5tuner4V1_07BsDemuxE0_NS3_6IDemuxE"
  },
  {
   "binding" : "weak",
   "name" : "_ZTCN7android8hardware2tv5tuner4V1_07BsTunerE0_NS3_6ITunerE"
  },
  {
   "name" : "_ZTCN7android8hardware2tv5tuner4V1_07IFilterE0_NS_4hidl4base4V1_05IBaseE"
  },
  {
   "binding" : "weak",
   "name" : "_ZTCN7android8hardware2tv5tuner4V1_08BsFilterE0_NS3_7IFilterE"
  },
  {
   "name" : "_ZTCN7android8hardware2tv5tuner4V1_09BnHwDemuxE0_NS0_7IBinderE"
  },
  {
   "name" : "_ZTCN7android8hardware2tv5tuner4V1_09BnHwDemuxE0_NS0_9BHwBinderE"
  },
  {
   "name" : "_ZTCN7android8hardware2tv5tuner4V1_09BnHwDemuxE0_NS_4hidl4base4V1_08BnHwBaseE"
  },
  {
   "name" : "_ZTCN7android8hardware2tv5tuner4V1_09BnHwTunerE0_NS0_7IBinderE"
  },
  {
   "name" : "_ZTCN7android8hardware2tv5tuner4V1_09BnHwTunerE0_NS0_9BHwBinderE"
  },
  {
   "name" : "_ZTCN7android8hardware2tv5tuner4V1_09BnHwTunerE0_NS_4hidl4base4V1_08BnHwBaseE"
  },
  {
   "name" : "_ZTCN7android8hardware2tv5tuner4V1_09BpHwDemuxE0_NS0_11BpInterfaceINS3_6IDemuxEEE"
  },
  {
   "name" : "_ZTCN7android8hardware2tv5tuner4V1_09BpHwDemuxE0_NS3_6IDemuxE"
  },
  {
   "name" : "_ZTCN7android8hardware2tv5tuner4V1_09BpHwDemuxE0_NS_4hidl4base4V1_05IBaseE"
  },
  {
   "name" : "_ZTCN7android8hardware2tv5tuner4V1_09BpHwDemuxE16_NS0_11BpHwRefBaseE"
  },
  {
   "name" : "_ZTCN7android8hardware2tv5tuner4V1_09BpHwDemuxE8_NS0_10IInterfaceE"
  },
  {
   "name" : "_ZTCN7android8hardware2tv5tuner4V1_09BpHwTunerE0_NS0_11BpInterfaceINS3_6ITunerEEE"
  },
  {
   "name" : "_ZTCN7android8hardware2tv5tuner4V1_09BpHwTunerE0_NS3_6ITunerE"
  },
  {
   "name" : "_ZTCN7android8hardware2tv5tuner4V1_09BpHwTunerE0_NS_4hidl4base4V1_05IBaseE"
  },
  {
   "name" : "_ZTCN7android8hardware2tv5tuner4V1_09BpHwTunerE16_NS0_11BpHwRefBaseE"
  },
  {
   "name" : "_ZTCN7android8hardware2tv5tuner4V1_09BpHwTunerE8_NS0_10IInterfaceE"
  },
  {
   "name" : "_ZTCN7android8hardware2tv5tuner4V1_09IFrontendE0_NS_4hidl4base4V1_05IBaseE"
  },
  {
   "name" : "_ZTTN7android8hardware2tv5tuner4V1_010BnHwFilterE"
  },
  {
   "name" : "_ZTTN7android8hardware2tv5tuner4V1_010BpHwFilterE"
  },
  {
   "name" : "_ZTTN7android8hardware2tv5tuner4V1_011ITimeFilterE"
  },
  {
   "name" : "_ZTTN7android8hardware2tv5tuner4V1_012BnHwFrontendE"
  },
  {
   "name" : "_ZTTN7android8hardware2tv5tuner4V1_012BpHwFrontendE"
  },
  {
   "name" : "_ZTTN7android8hardware2tv5tuner4V1_012IDescramblerE"
  },
  {
   "name" : "_ZTTN7android8hardware2tv5tuner4V1_012IDvrCallbackE"
  },
  {
   "name" : "_ZTTN7android8hardware2tv5tuner4V1_012ILnbCallbackE"
  },
  {
   "name" : "_ZTTN7android8hardware2tv5tuner4V1_014BnHwTimeFilterE"
  },
  {
   "name" : "_ZTTN7android8hardware2tv5tuner4V1_014BpHwTimeFilterE"
  },
  {
   "name" : "_ZTTN7android8hardware2tv5tuner4V1_015BnHwDescramblerE"
  },
  {
   "name" : "_ZTTN7android8hardware2tv5tuner4V1_015BnHwDvrCallbackE"
  },
  {
   "name" : "_ZTTN7android8hardware2tv5tuner4V1_015BnHwLnbCallbackE"
  },
  {
   "name" : "_ZTTN7android8hardware2tv5tuner4V1_015BpHwDescramblerE"
  },
  {
   "name" : "_ZTTN7android8hardware2tv5tuner4V1_015BpHwDvrCallbackE"
  },
  {
   "name" : "_ZTTN7android8hardware2tv5tuner4V1_015BpHwLnbCallbackE"
  },
  {
   "name" : "_ZTTN7android8hardware2tv5tuner4V1_015IFilterCallbackE"
  },
  {
   "name" : "_ZTTN7android8hardware2tv5tuner4V1_017IFrontendCallbackE"
  },
  {
   "name" : "_ZTTN7android8hardware2tv5tuner4V1_018BnHwFilterCallbackE"
  },
  {
   "name" : "_ZTTN7android8hardware2tv5tuner4V1_018BpHwFilterCallbackE"
  },
  {
   "name" : "_ZTTN7android8hardware2tv5tuner4V1_020BnHwFrontendCallbackE"
  },
  {
   "name" : "_ZTTN7android8hardware2tv5tuner4V1_020BpHwFrontendCallbackE"
  },
  {
   "name" : "_ZTTN7android8hardware2tv5tuner4V1_04IDvrE"
  },
  {
   "name" : "_ZTTN7android8hardware2tv5tuner4V1_04ILnbE"
  },
  {
   "name" : "_ZTTN7android8hardware2tv5tuner4V1_06IDemuxE"
  },
  {
   "name" : "_ZTTN7android8hardware2tv5tuner4V1_06ITunerE"
  },
  {
   "name" : "_ZTTN7android8hardware2tv5tuner4V1_07BnHwDvrE"
  },
  {
   "name" : "_ZTTN7android8hardware2tv5tuner4V1_07BnHwLnbE"
  },
  {
   "name" : "_ZTTN7android8hardware2tv5tuner4V1_07BpHwDvrE"
  },
  {
   "name" : "_ZTTN7android8hardware2tv5tuner4V1_07BpHwLnbE"
  },
  {
   "name" : "_ZTTN7android8hardware2tv5tuner4V1_07IFilterE"
  },
  {
   "name" : "_ZTTN7android8hardware2tv5tuner4V1_09BnHwDemuxE"
  },
  {
   "name" : "_ZTTN7android8hardware2tv5tuner4V1_09BnHwTunerE"
  },
  {
   "name" : "_ZTTN7android8hardware2tv5tuner4V1_09BpHwDemuxE"
  },
  {
   "name" : "_ZTTN7android8hardware2tv5tuner4V1_09BpHwTunerE"
  },
  {
   "name" : "_ZTTN7android8hardware2tv5tuner4V1_09IFrontendE"
  },
  {
   "name" : "_ZTVN7android8hardware2tv5tuner4V1_010BnHwFilterE"
  },
  {
   "name" : "_ZTVN7android8hardware2tv5tuner4V1_010BpHwFilterE"
  },
  {
   "binding" : "weak",
   "name" : "_ZTVN7android8hardware2tv5tuner4V1_010BsFrontendE"
  },
  {
   "name" : "_ZTVN7android8hardware2tv5tuner4V1_011ITimeFilterE"
  },
  {
   "name" : "_ZTVN7android8hardware2tv5tuner4V1_012BnHwFrontendE"
  },
  {
   "name" : "_ZTVN7android8hardware2tv5tuner4V1_012BpHwFrontendE"
  },
  {
   "binding" : "weak",
   "name" : "_ZTVN7android8hardware2tv5tuner4V1_012BsTimeFilterE"
  },
  {
   "name" : "_ZTVN7android8hardware2tv5tuner4V1_012IDescramblerE"
  },
  {
   "name" : "_ZTVN7android8hardware2tv5tuner4V1_012IDvrCallbackE"
  },
  {
   "name" : "_ZTVN7android8hardware2tv5tuner4V1_012ILnbCallbackE"
  },
  {
   "binding" : "weak",
   "name" : "_ZTVN7android8hardware2tv5tuner4V1_013BsDescramblerE"
  },
  {
   "binding" : "weak",
   "name" : "_ZTVN7android8hardware2tv5tuner4V1_013BsDvrCallbackE"
  },
  {
   "binding" : "weak",
   "name" : "_ZTVN7android8hardware2tv5tuner4V1_013BsLnbCallbackE"
  },
  {
   "name" : "_ZTVN7android8hardware2tv5tuner4V1_014BnHwTimeFilterE"
  },
  {
   "name" : "_ZTVN7android8hardware2tv5tuner4V1_014BpHwTimeFilterE"
  },
  {
   "name" : "_ZTVN7android8hardware2tv5tuner4V1_015BnHwDescramblerE"
  },
  {
   "name" : "_ZTVN7android8hardware2tv5tuner4V1_015BnHwDvrCallbackE"
  },
  {
   "name" : "_ZTVN7android8hardware2tv5tuner4V1_015BnHwLnbCallbackE"
  },
  {
   "name" : "_ZTVN7android8hardware2tv5tuner4V1_015BpHwDescramblerE"
  },
  {
   "name" : "_ZTVN7android8hardware2tv5tuner4V1_015BpHwDvrCallbackE"
  },
  {
   "name" : "_ZTVN7android8hardware2tv5tuner4V1_015BpHwLnbCallbackE"
  },
  {
   "name" : "_ZTVN7android8hardware2tv5tuner4V1_015IFilterCallbackE"
  },
  {
   "binding" : "weak",
   "name" : "_ZTVN7android8hardware2tv5tuner4V1_016BsFilterCallbackE"
  },
  {
   "name" : "_ZTVN7android8hardware2tv5tuner4V1_017IFrontendCallbackE"
  },
  {
   "name" : "_ZTVN7android8hardware2tv5tuner4V1_018BnHwFilterCallbackE"
  },
  {
   "name" : "_ZTVN7android8hardware2tv5tuner4V1_018BpHwFilterCallbackE"
  },
  {
   "binding" : "weak",
   "name" : "_ZTVN7android8hardware2tv5tuner4V1_018BsFrontendCallbackE"
  },
  {
   "name" : "_ZTVN7android8hardware2tv5tuner4V1_020BnHwFrontendCallbackE"
  },
  {
   "name" : "_ZTVN7android8hardware2tv5tuner4V1_020BpHwFrontendCallbackE"
  },
  {
   "name" : "_ZTVN7android8hardware2tv5tuner4V1_04IDvrE"
  },
  {
   "name" : "_ZTVN7android8hardware2tv5tuner4V1_04ILnbE"
  },
  {
   "binding" : "weak",
   "name" : "_ZTVN7android8hardware2tv5tuner4V1_05BsDvrE"
  },
  {
   "binding" : "weak",
   "name" : "_ZTVN7android8hardware2tv5tuner4V1_05BsLnbE"
  },
  {
   "name" : "_ZTVN7android8hardware2tv5tuner4V1_06IDemuxE"
  },
  {
   "name" : "_ZTVN7android8hardware2tv5tuner4V1_06ITunerE"
  },
  {
   "name" : "_ZTVN7android8hardware2tv5tuner4V1_07BnHwDvrE"
  },
  {
   "name" : "_ZTVN7android8hardware2tv5tuner4V1_07BnHwLnbE"
  },
  {
   "name" : "_ZTVN7android8hardware2tv5tuner4V1_07BpHwDvrE"
  },
  {
   "name" : "_ZTVN7android8hardware2tv5tuner4V1_07BpHwLnbE"
  },
  {
   "binding" : "weak",
   "name" : "_ZTVN7android8hardware2tv5tuner4V1_07BsDemuxE"
  },
  {
   "binding" : "weak",
   "name" : "_ZTVN7android8hardware2tv5tuner4V1_07BsTunerE"
  },
  {
   "name" : "_ZTVN7android8hardware2tv5tuner4V1_07IFilterE"
  },
  {
   "binding" : "weak",
   "name" : "_ZTVN7android8hardware2tv5tuner4V1_08BsFilterE"
  },
  {
   "name" : "_ZTVN7android8hardware2tv5tuner4V1_09BnHwDemuxE"
  },
  {
   "name" : "_ZTVN7android8hardware2tv5tuner4V1_09BnHwTunerE"
  },
  {
   "name" : "_ZTVN7android8hardware2tv5tuner4V1_09BpHwDemuxE"
  },
  {
   "name" : "_ZTVN7android8hardware2tv5tuner4V1_09BpHwTunerE"
  },
  {
   "name" : "_ZTVN7android8hardware2tv5tuner4V1_09IFrontendE"
  }
 ],
 "enum_types" :
 [
  {
   "alignment" : 4,
   "enum_fields" :
   [
    {
     "enum_field_value" : 1,
     "name" : "HAL_HDR_DOLBY_VISION"
    },
    {
     "enum_field_value" : 2,
     "name" : "HAL_HDR_HDR10"
    },
    {
     "enum_field_value" : 3,
     "name" : "HAL_HDR_HLG"
    }
   ],
   "linker_set_key" : "_ZTI13android_hdr_t",
   "name" : "android_hdr_t",
   "referenced_type" : "_ZTI13android_hdr_t",
   "self_type" : "_ZTI13android_hdr_t",
   "size" : 4,
   "source_file" : "/system/core/libsystem/include/system/graphics-base-v1.0.h",
   "underlying_type" : "_ZTIj"
  },
  {
   "alignment" : 4,
   "enum_fields" :
   [
    {
     "enum_field_value" : 4,
     "name" : "HAL_HDR_HDR10_PLUS"
    }
   ],
   "linker_set_key" : "_ZTI18android_hdr_v1_2_t",
   "name" : "android_hdr_v1_2_t",
   "referenced_type" : "_ZTI18android_hdr_v1_2_t",
   "self_type" : "_ZTI18android_hdr_v1_2_t",
   "size" : 4,
   "source_file" : "/system/core/libsystem/include/system/graphics-base-v1.2.h",
   "underlying_type" : "_ZTIj"
  },
  {
   "alignment" : 4,
   "enum_fields" :
   [
    {
     "enum_field_value" : 0,
     "name" : "ANDROID_LOG_UNKNOWN"
    },
    {
     "enum_field_value" : 1,
     "name" : "ANDROID_LOG_DEFAULT"
    },
    {
     "enum_field_value" : 2,
     "name" : "ANDROID_LOG_VERBOSE"
    },
    {
     "enum_field_value" : 3,
     "name" : "ANDROID_LOG_DEBUG"
    },
    {
     "enum_field_value" : 4,
     "name" : "ANDROID_LOG_INFO"
    },
    {
     "enum_field_value" : 5,
     "name" : "ANDROID_LOG_WARN"
    },
    {
     "enum_field_value" : 6,
     "name" : "ANDROID_LOG_ERROR"
    },
    {
     "enum_field_value" : 7,
     "name" : "ANDROID_LOG_FATAL"
    },
    {
     "enum_field_value" : 8,
     "name" : "ANDROID_LOG_SILENT"
    }
   ],
   "linker_set_key" : "_ZTI19android_LogPriority",
   "name" : "android_LogPriority",
   "referenced_type" : "_ZTI19android_LogPriority",
   "self_type" : "_ZTI19android_LogPriority",
   "size" : 4,
   "source_file" : "/system/core/liblog/include/android/log.h",
   "underlying_type" : "_ZTIj"
  },
  {
   "alignment" : 4,
   "enum_fields" :
   [
    {
     "enum_field_value" : 0,
     "name" : "HAL_DATASPACE_UNKNOWN"
    },
    {
     "enum_field_value" : 1,
     "name" : "HAL_DATASPACE_ARBITRARY"
    },
    {
     "enum_field_value" : 16,
     "name" : "HAL_DATASPACE_STANDARD_SHIFT"
    },
    {
     "enum_field_value" : 4128768,
     "name" : "HAL_DATASPACE_STANDARD_MASK"
    },
    {
     "enum_field_value" : 0,
     "name" : "HAL_DATASPACE_STANDARD_UNSPECIFIED"
    },
    {
     "enum_field_value" : 65536,
     "name" : "HAL_DATASPACE_STANDARD_BT709"
    },
    {
     "enum_field_value" : 131072,
     "name" : "HAL_DATASPACE_STANDARD_BT601_625"
    },
    {
     "enum_field_value" : 196608,
     "name" : "HAL_DATASPACE_STANDARD_BT601_625_UNADJUSTED"
    },
    {
     "enum_field_value" : 262144,
     "name" : "HAL_DATASPACE_STANDARD_BT601_525"
    },
    {
     "enum_field_value" : 327680,
     "name" : "HAL_DATASPACE_STANDARD_BT601_525_UNADJUSTED"
    },
    {
     "enum_field_value" : 393216,
     "name" : "HAL_DATASPACE_STANDARD_BT2020"
    },
    {
     "enum_field_value" : 458752,
     "name" : "HAL_DATASPACE_STANDARD_BT2020_CONSTANT_LUMINANCE"
    },
    {
     "enum_field_value" : 524288,
     "name" : "HAL_DATASPACE_STANDARD_BT470M"
    },
    {
     "enum_field_value" : 589824,
     "name" : "HAL_DATASPACE_STANDARD_FILM"
    },
    {
     "enum_field_value" : 655360,
     "name" : "HAL_DATASPACE_STANDARD_DCI_P3"
    },
    {
     "enum_field_value" : 720896,
     "name" : "HAL_DATASPACE_STANDARD_ADOBE_RGB"
    },
    {
     "enum_field_value" : 22,
     "name" : "HAL_DATASPACE_TRANSFER_SHIFT"
    },
    {
     "enum_field_value" : 130023424,
     "name" : "HAL_DATASPACE_TRANSFER_MASK"
    },
    {
     "enum_field_value" : 0,
     "name" : "HAL_DATASPACE_TRANSFER_UNSPECIFIED"
    },
    {
     "enum_field_value" : 4194304,
     "name" : "HAL_DATASPACE_TRANSFER_LINEAR"
    },
    {
     "enum_field_value" : 8388608,
     "name" : "HAL_DATASPACE_TRANSFER_SRGB"
    },
    {
     "enum_field_value" : 12582912,
     "name" : "HAL_DATASPACE_TRANSFER_SMPTE_170M"
    },
    {
     "enum_field_value" : 16777216,
     "name" : "HAL_DATASPACE_TRANSFER_GAMMA2_2"
    },
    {
     "enum_field_value" : 20971520,
     "name" : "HAL_DATASPACE_TRANSFER_GAMMA2_6"
    },
    {
     "enum_field_value" : 25165824,
     "name" : "HAL_DATASPACE_TRANSFER_GAMMA2_8"
    },
    {
     "enum_field_value" : 29360128,
     "name" : "HAL_DATASPACE_TRANSFER_ST2084"
    },
    {
     "enum_field_value" : 33554432,
     "name" : "HAL_DATASPACE_TRANSFER_HLG"
    },
    {
     "enum_field_value" : 27,
     "name" : "HAL_DATASPACE_RANGE_SHIFT"
    },
    {
     "enum_field_value" : 939524096,
     "name" : "HAL_DATASPACE_RANGE_MASK"
    },
    {
     "enum_field_value" : 0,
     "name" : "HAL_DATASPACE_RANGE_UNSPECIFIED"
    },
    {
     "enum_field_value" : 134217728,
     "name" : "HAL_DATASPACE_RANGE_FULL"
    },
    {
     "enum_field_value" : 268435456,
     "name" : "HAL_DATASPACE_RANGE_LIMITED"
    },
    {
     "enum_field_value" : 402653184,
     "name" : "HAL_DATASPACE_RANGE_EXTENDED"
    },
    {
     "enum_field_value" : 512,
     "name" : "HAL_DATASPACE_SRGB_LINEAR"
    },
    {
     "enum_field_value" : 138477568,
     "name" : "HAL_DATASPACE_V0_SRGB_LINEAR"
    },
    {
     "enum_field_value" : 406913024,
     "name" : "HAL_DATASPACE_V0_SCRGB_LINEAR"
    },
    {
     "enum_field_value" : 513,
     "name" : "HAL_DATASPACE_SRGB"
    },
    {
     "enum_field_value" : 142671872,
     "name" : "HAL_DATASPACE_V0_SRGB"
    },
    {
     "enum_field_value" : 411107328,
     "name" : "HAL_DATASPACE_V0_SCRGB"
    },
    {
     "enum_field_value" : 257,
     "name" : "HAL_DATASPACE_JFIF"
    },
    {
     "enum_field_value" : 146931712,
     "name" : "HAL_DATASPACE_V0_JFIF"
    },
    {
     "enum_field_value" : 258,
     "name" : "HAL_DATASPACE_BT601_625"
    },
    {
     "enum_field_value" : 281149440,
     "name" : "HAL_DATASPACE_V0_BT601_625"
    },
    {
     "enum_field_value" : 259,
     "name" : "HAL_DATASPACE_BT601_525"
    },
    {
     "enum_field_value" : 281280512,
     "name" : "HAL_DATASPACE_V0_BT601_525"
    },
    {
     "enum_field_value" : 260,
     "name" : "HAL_DATASPACE_BT709"
    },
    {
     "enum_field_value" : 281083904,
     "name" : "HAL_DATASPACE_V0_BT709"
    },
    {
     "enum_field_value" : 139067392,
     "name" : "HAL_DATASPACE_DCI_P3_LINEAR"
    },
    {
     "enum_field_value" : 155844608,
     "name" : "HAL_DATASPACE_DCI_P3"
    },
    {
     "enum_field_value" : 139067392,
     "name" : "HAL_DATASPACE_DISPLAY_P3_LINEAR"
    },
    {
     "enum_field_value" : 143261696,
     "name" : "HAL_DATASPACE_DISPLAY_P3"
    },
    {
     "enum_field_value" : 151715840,
     "name" : "HAL_DATASPACE_ADOBE_RGB"
    },
    {
     "enum_field_value" : 138805248,
     "name" : "HAL_DATASPACE_BT2020_LINEAR"
    },
    {
     "enum_field_value" : 147193856,
     "name" : "HAL_DATASPACE_BT2020"
    },
    {
     "enum_field_value" : 163971072,
     "name" : "HAL_DATASPACE_BT2020_PQ"
    },
    {
     "enum_field_value" : 4096,
     "name" : "HAL_DATASPACE_DEPTH"
    },
    {
     "enum_field_value" : 4097,
     "name" : "HAL_DATASPACE_SENSOR"
    }
   ],
   "linker_set_key" : "_ZTI19android_dataspace_t",
   "name" : "android_dataspace_t",
   "referenced_type" : "_ZTI19android_dataspace_t",
   "self_type" : "_ZTI19android_dataspace_t",
   "size" : 4,
   "source_file" : "/system/core/libsystem/include/system/graphics-base-v1.0.h",
   "underlying_type" : "_ZTIj"
  },
  {
   "alignment" : 4,
   "enum_fields" :
   [
    {
     "enum_field_value" : 0,
     "name" : "FLEX_FORMAT_INVALID"
    },
    {
     "enum_field_value" : 1,
     "name" : "FLEX_FORMAT_Y"
    },
    {
     "enum_field_value" : 7,
     "name" : "FLEX_FORMAT_YCbCr"
    },
    {
     "enum_field_value" : 1073741831,
     "name" : "FLEX_FORMAT_YCbCrA"
    },
    {
     "enum_field_value" : 7168,
     "name" : "FLEX_FORMAT_RGB"
    },
    {
     "enum_field_value" : 1073748992,
     "name" : "FLEX_FORMAT_RGBA"
    }
   ],
   "linker_set_key" : "_ZTI19android_flex_format",
   "name" : "android_flex_format",
   "referenced_type" : "_ZTI19android_flex_format",
   "self_type" : "_ZTI19android_flex_format",
   "size" : 4,
   "source_file" : "/system/core/libsystem/include/system/graphics.h",
   "underlying_type" : "_ZTIj"
  },
  {
   "alignment" : 4,
   "enum_fields" :
   [
    {
     "enum_field_value" : 1,
     "name" : "HAL_TRANSFORM_FLIP_H"
    },
    {
     "enum_field_value" : 2,
     "name" : "HAL_TRANSFORM_FLIP_V"
    },
    {
     "enum_field_value" : 4,
     "name" : "HAL_TRANSFORM_ROT_90"
    },
    {
     "enum_field_value" : 3,
     "name" : "HAL_TRANSFORM_ROT_180"
    },
    {
     "enum_field_value" : 7,
     "name" : "HAL_TRANSFORM_ROT_270"
    }
   ],
   "linker_set_key" : "_ZTI19android_transform_t",
   "name" : "android_transform_t",
   "referenced_type" : "_ZTI19android_transform_t",
   "self_type" : "_ZTI19android_transform_t",
   "size" : 4,
   "source_file" : "/system/core/libsystem/include/system/graphics-base-v1.0.h",
   "underlying_type" : "_ZTIj"
  },
  {
   "alignment" : 4,
   "enum_fields" :
   [
    {
     "enum_field_value" : 0,
     "name" : "HAL_COLOR_MODE_NATIVE"
    },
    {
     "enum_field_value" : 1,
     "name" : "HAL_COLOR_MODE_STANDARD_BT601_625"
    },
    {
     "enum_field_value" : 2,
     "name" : "HAL_COLOR_MODE_STANDARD_BT601_625_UNADJUSTED"
    },
    {
     "enum_field_value" : 3,
     "name" : "HAL_COLOR_MODE_STANDARD_BT601_525"
    },
    {
     "enum_field_value" : 4,
     "name" : "HAL_COLOR_MODE_STANDARD_BT601_525_UNADJUSTED"
    },
    {
     "enum_field_value" : 5,
     "name" : "HAL_COLOR_MODE_STANDARD_BT709"
    },
    {
     "enum_field_value" : 6,
     "name" : "HAL_COLOR_MODE_DCI_P3"
    },
    {
     "enum_field_value" : 7,
     "name" : "HAL_COLOR_MODE_SRGB"
    },
    {
     "enum_field_value" : 8,
     "name" : "HAL_COLOR_MODE_ADOBE_RGB"
    },
    {
     "enum_field_value" : 9,
     "name" : "HAL_COLOR_MODE_DISPLAY_P3"
    }
   ],
   "linker_set_key" : "_ZTI20android_color_mode_t",
   "name" : "android_color_mode_t",
   "referenced_type" : "_ZTI20android_color_mode_t",
   "self_type" : "_ZTI20android_color_mode_t",
   "size" : 4,
   "source_file" : "/system/core/libsystem/include/system/graphics-base-v1.0.h",
   "underlying_type" : "_ZTIj"
  },
  {
   "alignment" : 4,
   "enum_fields" :
   [
    {
     "enum_field_value" : 0,
     "name" : "SYSTEM_TIME_REALTIME"
    },
    {
     "enum_field_value" : 1,
     "name" : "SYSTEM_TIME_MONOTONIC"
    },
    {
     "enum_field_value" : 2,
     "name" : "SYSTEM_TIME_PROCESS"
    },
    {
     "enum_field_value" : 3,
     "name" : "SYSTEM_TIME_THREAD"
    },
    {
     "enum_field_value" : 4,
     "name" : "SYSTEM_TIME_BOOTTIME"
    }
   ],
   "linker_set_key" : "_ZTI21$SYSTEM_TIME_BOOTTIME",
   "name" : "(anonymous enum at system/core/libutils/include/utils/Timers.h:79:1)",
   "referenced_type" : "_ZTI21$SYSTEM_TIME_BOOTTIME",
   "self_type" : "_ZTI21$SYSTEM_TIME_BOOTTIME",
   "size" : 4,
   "source_file" : "/system/core/libutils/include/utils/Timers.h",
   "underlying_type" : "_ZTIj"
  },
  {
   "alignment" : 4,
   "enum_fields" :
   [
    {
     "enum_field_value" : 1,
     "name" : "FLEX_COMPONENT_Y"
    },
    {
     "enum_field_value" : 2,
     "name" : "FLEX_COMPONENT_Cb"
    },
    {
     "enum_field_value" : 4,
     "name" : "FLEX_COMPONENT_Cr"
    },
    {
     "enum_field_value" : 1024,
     "name" : "FLEX_COMPONENT_R"
    },
    {
     "enum_field_value" : 2048,
     "name" : "FLEX_COMPONENT_G"
    },
    {
     "enum_field_value" : 4096,
     "name" : "FLEX_COMPONENT_B"
    },
    {
     "enum_field_value" : 1073741824,
     "name" : "FLEX_COMPONENT_A"
    }
   ],
   "linker_set_key" : "_ZTI22android_flex_component",
   "name" : "android_flex_component",
   "referenced_type" : "_ZTI22android_flex_component",
   "self_type" : "_ZTI22android_flex_component",
   "size" : 4,
   "source_file" : "/system/core/libsystem/include/system/graphics.h",
   "underlying_type" : "_ZTIj"
  },
  {
   "alignment" : 4,
   "enum_fields" :
   [
    {
     "enum_field_value" : 1,
     "name" : "HAL_PIXEL_FORMAT_RGBA_8888"
    },
    {
     "enum_field_value" : 2,
     "name" : "HAL_PIXEL_FORMAT_RGBX_8888"
    },
    {
     "enum_field_value" : 3,
     "name" : "HAL_PIXEL_FORMAT_RGB_888"
    },
    {
     "enum_field_value" : 4,
     "name" : "HAL_PIXEL_FORMAT_RGB_565"
    },
    {
     "enum_field_value" : 5,
     "name" : "HAL_PIXEL_FORMAT_BGRA_8888"
    },
    {
     "enum_field_value" : 16,
     "name" : "HAL_PIXEL_FORMAT_YCBCR_422_SP"
    },
    {
     "enum_field_value" : 17,
     "name" : "HAL_PIXEL_FORMAT_YCRCB_420_SP"
    },
    {
     "enum_field_value" : 20,
     "name" : "HAL_PIXEL_FORMAT_YCBCR_422_I"
    },
    {
     "enum_field_value" : 22,
     "name" : "HAL_PIXEL_FORMAT_RGBA_FP16"
    },
    {
     "enum_field_value" : 32,
     "name" : "HAL_PIXEL_FORMAT_RAW16"
    },
    {
     "enum_field_value" : 33,
     "name" : "HAL_PIXEL_FORMAT_BLOB"
    },
    {
     "enum_field_value" : 34,
     "name" : "HAL_PIXEL_FORMAT_IMPLEMENTATION_DEFINED"
    },
    {
     "enum_field_value" : 35,
     "name" : "HAL_PIXEL_FORMAT_YCBCR_420_888"
    },
    {
     "enum_field_value" : 36,
     "name" : "HAL_PIXEL_FORMAT_RAW_OPAQUE"
    },
    {
     "enum_field_value" : 37,
     "name" : "HAL_PIXEL_FORMAT_RAW10"
    },
    {
     "enum_field_value" : 38,
     "name" : "HAL_PIXEL_FORMAT_RAW12"
    },
    {
     "enum_field_value" : 43,
     "name" : "HAL_PIXEL_FORMAT_RGBA_1010102"
    },
    {
     "enum_field_value" : 538982489,
     "name" : "HAL_PIXEL_FORMAT_Y8"
    },
    {
     "enum_field_value" : 540422489,
     "name" : "HAL_PIXEL_FORMAT_Y16"
    },
    {
     "enum_field_value" : 842094169,
     "name" : "HAL_PIXEL_FORMAT_YV12"
    }
   ],
   "linker_set_key" : "_ZTI22android_pixel_format_t",
   "name" : "android_pixel_format_t",
   "referenced_type" : "_ZTI22android_pixel_format_t",
   "self_type" : "_ZTI22android_pixel_format_t",
   "size" : 4,
   "source_file" : "/system/core/libsystem/include/system/graphics-base-v1.0.h",
   "underlying_type" : "_ZTIj"
  },
  {
   "alignment" : 4,
   "enum_fields" :
   [
    {
     "enum_field_value" : 19,
     "name" : "ANDROID_PRIORITY_LOWEST"
    },
    {
     "enum_field_value" : 10,
     "name" : "ANDROID_PRIORITY_BACKGROUND"
    },
    {
     "enum_field_value" : 0,
     "name" : "ANDROID_PRIORITY_NORMAL"
    },
    {
     "enum_field_value" : -2,
     "name" : "ANDROID_PRIORITY_FOREGROUND"
    },
    {
     "enum_field_value" : -4,
     "name" : "ANDROID_PRIORITY_DISPLAY"
    },
    {
     "enum_field_value" : -8,
     "name" : "ANDROID_PRIORITY_URGENT_DISPLAY"
    },
    {
     "enum_field_value" : -10,
     "name" : "ANDROID_PRIORITY_VIDEO"
    },
    {
     "enum_field_value" : -16,
     "name" : "ANDROID_PRIORITY_AUDIO"
    },
    {
     "enum_field_value" : -19,
     "name" : "ANDROID_PRIORITY_URGENT_AUDIO"
    },
    {
     "enum_field_value" : -20,
     "name" : "ANDROID_PRIORITY_HIGHEST"
    },
    {
     "enum_field_value" : 0,
     "name" : "ANDROID_PRIORITY_DEFAULT"
    },
    {
     "enum_field_value" : -1,
     "name" : "ANDROID_PRIORITY_MORE_FAVORABLE"
    },
    {
     "enum_field_value" : 1,
     "name" : "ANDROID_PRIORITY_LESS_FAVORABLE"
    }
   ],
   "linker_set_key" : "_ZTI23$ANDROID_PRIORITY_AUDIO",
   "name" : "(anonymous enum at system/core/libsystem/include/system/thread_defs.h:26:1)",
   "referenced_type" : "_ZTI23$ANDROID_PRIORITY_AUDIO",
   "self_type" : "_ZTI23$ANDROID_PRIORITY_AUDIO",
   "size" : 4,
   "source_file" : "/system/core/libsystem/include/system/thread_defs.h",
   "underlying_type" : "_ZTIi"
  },
  {
   "alignment" : 4,
   "enum_fields" :
   [
    {
     "enum_field_value" : 281411584,
     "name" : "HAL_DATASPACE_BT2020_ITU"
    },
    {
     "enum_field_value" : 298188800,
     "name" : "HAL_DATASPACE_BT2020_ITU_PQ"
    },
    {
     "enum_field_value" : 302383104,
     "name" : "HAL_DATASPACE_BT2020_ITU_HLG"
    },
    {
     "enum_field_value" : 168165376,
     "name" : "HAL_DATASPACE_BT2020_HLG"
    }
   ],
   "linker_set_key" : "_ZTI24android_dataspace_v1_1_t",
   "name" : "android_dataspace_v1_1_t",
   "referenced_type" : "_ZTI24android_dataspace_v1_1_t",
   "self_type" : "_ZTI24android_dataspace_v1_1_t",
   "size" : 4,
   "source_file" : "/system/core/libsystem/include/system/graphics-base-v1.1.h",
   "underlying_type" : "_ZTIj"
  },
  {
   "alignment" : 4,
   "enum_fields" :
   [
    {
     "enum_field_value" : 142999552,
     "name" : "HAL_DATASPACE_DISPLAY_BT2020"
    },
    {
     "enum_field_value" : 4098,
     "name" : "HAL_DATASPACE_DYNAMIC_DEPTH"
    },
    {
     "enum_field_value" : 4099,
     "name" : "HAL_DATASPACE_JPEG_APP_SEGMENTS"
    },
    {
     "enum_field_value" : 4100,
     "name" : "HAL_DATASPACE_HEIF"
    }
   ],
   "linker_set_key" : "_ZTI24android_dataspace_v1_2_t",
   "name" : "android_dataspace_v1_2_t",
   "referenced_type" : "_ZTI24android_dataspace_v1_2_t",
   "self_type" : "_ZTI24android_dataspace_v1_2_t",
   "size" : 4,
   "source_file" : "/system/core/libsystem/include/system/graphics-base-v1.2.h",
   "underlying_type" : "_ZTIj"
  },
  {
   "alignment" : 4,
   "enum_fields" :
   [
    {
     "enum_field_value" : 10,
     "name" : "HAL_COLOR_MODE_BT2020"
    },
    {
     "enum_field_value" : 11,
     "name" : "HAL_COLOR_MODE_BT2100_PQ"
    },
    {
     "enum_field_value" : 12,
     "name" : "HAL_COLOR_MODE_BT2100_HLG"
    }
   ],
   "linker_set_key" : "_ZTI25android_color_mode_v1_1_t",
   "name" : "android_color_mode_v1_1_t",
   "referenced_type" : "_ZTI25android_color_mode_v1_1_t",
   "self_type" : "_ZTI25android_color_mode_v1_1_t",
   "size" : 4,
   "source_file" : "/system/core/libsystem/include/system/graphics-base-v1.1.h",
   "underlying_type" : "_ZTIj"
  },
  {
   "alignment" : 4,
   "enum_fields" :
   [
    {
     "enum_field_value" : 0,
     "name" : "HAL_COLOR_TRANSFORM_IDENTITY"
    },
    {
     "enum_field_value" : 1,
     "name" : "HAL_COLOR_TRANSFORM_ARBITRARY_MATRIX"
    },
    {
     "enum_field_value" : 2,
     "name" : "HAL_COLOR_TRANSFORM_VALUE_INVERSE"
    },
    {
     "enum_field_value" : 3,
     "name" : "HAL_COLOR_TRANSFORM_GRAYSCALE"
    },
    {
     "enum_field_value" : 4,
     "name" : "HAL_COLOR_TRANSFORM_CORRECT_PROTANOPIA"
    },
    {
     "enum_field_value" : 5,
     "name" : "HAL_COLOR_TRANSFORM_CORRECT_DEUTERANOPIA"
    },
    {
     "enum_field_value" : 6,
     "name" : "HAL_COLOR_TRANSFORM_CORRECT_TRITANOPIA"
    }
   ],
   "linker_set_key" : "_ZTI25android_color_transform_t",
   "name" : "android_color_transform_t",
   "referenced_type" : "_ZTI25android_color_transform_t",
   "self_type" : "_ZTI25android_color_transform_t",
   "size" : 4,
   "source_file" : "/system/core/libsystem/include/system/graphics-base-v1.0.h",
   "underlying_type" : "_ZTIj"
  },
  {
   "alignment" : 4,
   "enum_fields" :
   [
    {
     "enum_field_value" : 39,
     "name" : "HAL_PIXEL_FORMAT_YCBCR_422_888"
    },
    {
     "enum_field_value" : 40,
     "name" : "HAL_PIXEL_FORMAT_YCBCR_444_888"
    },
    {
     "enum_field_value" : 41,
     "name" : "HAL_PIXEL_FORMAT_FLEX_RGB_888"
    },
    {
     "enum_field_value" : 42,
     "name" : "HAL_PIXEL_FORMAT_FLEX_RGBA_8888"
    }
   ],
   "linker_set_key" : "_ZTI25android_pixel_format_sw_t",
   "name" : "android_pixel_format_sw_t",
   "referenced_type" : "_ZTI25android_pixel_format_sw_t",
   "self_type" : "_ZTI25android_pixel_format_sw_t",
   "size" : 4,
   "source_file" : "/system/core/libsystem/include/system/graphics-sw.h",
   "underlying_type" : "_ZTIj"
  },
  {
   "alignment" : 4,
   "enum_fields" :
   [
    {
     "enum_field_value" : 48,
     "name" : "HAL_PIXEL_FORMAT_DEPTH_16"
    },
    {
     "enum_field_value" : 49,
     "name" : "HAL_PIXEL_FORMAT_DEPTH_24"
    },
    {
     "enum_field_value" : 50,
     "name" : "HAL_PIXEL_FORMAT_DEPTH_24_STENCIL_8"
    },
    {
     "enum_field_value" : 51,
     "name" : "HAL_PIXEL_FORMAT_DEPTH_32F"
    },
    {
     "enum_field_value" : 52,
     "name" : "HAL_PIXEL_FORMAT_DEPTH_32F_STENCIL_8"
    },
    {
     "enum_field_value" : 53,
     "name" : "HAL_PIXEL_FORMAT_STENCIL_8"
    },
    {
     "enum_field_value" : 54,
     "name" : "HAL_PIXEL_FORMAT_YCBCR_P010"
    }
   ],
   "linker_set_key" : "_ZTI27android_pixel_format_v1_1_t",
   "name" : "android_pixel_format_v1_1_t",
   "referenced_type" : "_ZTI27android_pixel_format_v1_1_t",
   "self_type" : "_ZTI27android_pixel_format_v1_1_t",
   "size" : 4,
   "source_file" : "/system/core/libsystem/include/system/graphics-base-v1.1.h",
   "underlying_type" : "_ZTIj"
  },
  {
   "alignment" : 4,
   "enum_fields" :
   [
    {
     "enum_field_value" : 55,
     "name" : "HAL_PIXEL_FORMAT_HSV_888"
    }
   ],
   "linker_set_key" : "_ZTI27android_pixel_format_v1_2_t",
   "name" : "android_pixel_format_v1_2_t",
   "referenced_type" : "_ZTI27android_pixel_format_v1_2_t",
   "self_type" : "_ZTI27android_pixel_format_v1_2_t",
   "size" : 4,
   "source_file" : "/system/core/libsystem/include/system/graphics-base-v1.2.h",
   "underlying_type" : "_ZTIj"
  },
  {
   "alignment" : 4,
   "enum_fields" :
   [
    {
     "enum_field_value" : 0,
     "name" : "HAL_RENDER_INTENT_COLORIMETRIC"
    },
    {
     "enum_field_value" : 1,
     "name" : "HAL_RENDER_INTENT_ENHANCE"
    },
    {
     "enum_field_value" : 2,
     "name" : "HAL_RENDER_INTENT_TONE_MAP_COLORIMETRIC"
    },
    {
     "enum_field_value" : 3,
     "name" : "HAL_RENDER_INTENT_TONE_MAP_ENHANCE"
    }
   ],
   "linker_set_key" : "_ZTI28android_render_intent_v1_1_t",
   "name" : "android_render_intent_v1_1_t",
   "referenced_type" : "_ZTI28android_render_intent_v1_1_t",
   "self_type" : "_ZTI28android_render_intent_v1_1_t",
   "size" : 4,
   "source_file" : "/system/core/libsystem/include/system/graphics-base-v1.1.h",
   "underlying_type" : "_ZTIj"
  },
  {
   "alignment" : 4,
   "enum_fields" :
   [
    {
     "enum_field_value" : 0,
     "name" : "LOG_ID_MIN"
    },
    {
     "enum_field_value" : 0,
     "name" : "LOG_ID_MAIN"
    },
    {
     "enum_field_value" : 1,
     "name" : "LOG_ID_RADIO"
    },
    {
     "enum_field_value" : 2,
     "name" : "LOG_ID_EVENTS"
    },
    {
     "enum_field_value" : 3,
     "name" : "LOG_ID_SYSTEM"
    },
    {
     "enum_field_value" : 4,
     "name" : "LOG_ID_CRASH"
    },
    {
     "enum_field_value" : 5,
     "name" : "LOG_ID_STATS"
    },
    {
     "enum_field_value" : 6,
     "name" : "LOG_ID_SECURITY"
    },
    {
     "enum_field_value" : 7,
     "name" : "LOG_ID_KERNEL"
    },
    {
     "enum_field_value" : 8,
     "name" : "LOG_ID_MAX"
    },
    {
     "enum_field_value" : 2147483647,
     "name" : "LOG_ID_DEFAULT"
    }
   ],
   "linker_set_key" : "_ZTI6log_id",
   "name" : "log_id",
   "referenced_type" : "_ZTI6log_id",
   "self_type" : "_ZTI6log_id",
   "size" : 4,
   "source_file" : "/system/core/liblog/include/android/log.h",
   "underlying_type" : "_ZTIj"
  },
  {
   "alignment" : 4,
   "enum_fields" :
   [
    {
     "enum_field_value" : 1,
     "name" : "android::VectorImpl::HAS_TRIVIAL_CTOR"
    },
    {
     "enum_field_value" : 2,
     "name" : "android::VectorImpl::HAS_TRIVIAL_DTOR"
    },
    {
     "enum_field_value" : 4,
     "name" : "android::VectorImpl::HAS_TRIVIAL_COPY"
    }
   ],
   "linker_set_key" : "_ZTIN7android10VectorImpl17$HAS_TRIVIAL_COPYE",
   "name" : "android::VectorImpl::(anonymous enum at system/core/libutils/include/utils/VectorImpl.h:43:5)",
   "referenced_type" : "_ZTIN7android10VectorImpl17$HAS_TRIVIAL_COPYE",
   "self_type" : "_ZTIN7android10VectorImpl17$HAS_TRIVIAL_COPYE",
   "size" : 4,
   "source_file" : "/system/core/libutils/include/utils/VectorImpl.h",
   "underlying_type" : "_ZTIj"
  },
  {
   "alignment" : 4,
   "enum_fields" :
   [
    {
     "enum_field_value" : 0,
     "name" : "android::OK"
    },
    {
     "enum_field_value" : 0,
     "name" : "android::NO_ERROR"
    },
    {
     "enum_field_value" : -2147483648,
     "name" : "android::UNKNOWN_ERROR"
    },
    {
     "enum_field_value" : -12,
     "name" : "android::NO_MEMORY"
    },
    {
     "enum_field_value" : -38,
     "name" : "android::INVALID_OPERATION"
    },
    {
     "enum_field_value" : -22,
     "name" : "android::BAD_VALUE"
    },
    {
     "enum_field_value" : -2147483647,
     "name" : "android::BAD_TYPE"
    },
    {
     "enum_field_value" : -2,
     "name" : "android::NAME_NOT_FOUND"
    },
    {
     "enum_field_value" : -1,
     "name" : "android::PERMISSION_DENIED"
    },
    {
     "enum_field_value" : -19,
     "name" : "android::NO_INIT"
    },
    {
     "enum_field_value" : -17,
     "name" : "android::ALREADY_EXISTS"
    },
    {
     "enum_field_value" : -32,
     "name" : "android::DEAD_OBJECT"
    },
    {
     "enum_field_value" : -2147483646,
     "name" : "android::FAILED_TRANSACTION"
    },
    {
     "enum_field_value" : -75,
     "name" : "android::BAD_INDEX"
    },
    {
     "enum_field_value" : -61,
     "name" : "android::NOT_ENOUGH_DATA"
    },
    {
     "enum_field_value" : -11,
     "name" : "android::WOULD_BLOCK"
    },
    {
     "enum_field_value" : -110,
     "name" : "android::TIMED_OUT"
    },
    {
     "enum_field_value" : -74,
     "name" : "android::UNKNOWN_TRANSACTION"
    },
    {
     "enum_field_value" : -2147483641,
     "name" : "android::FDS_NOT_ALLOWED"
    },
    {
     "enum_field_value" : -2147483640,
     "name" : "android::UNEXPECTED_NULL"
    }
   ],
   "linker_set_key" : "_ZTIN7android15$ALREADY_EXISTSE",
   "name" : "android::(anonymous enum at system/core/libutils/include/utils/Errors.h:43:1)",
   "referenced_type" : "_ZTIN7android15$ALREADY_EXISTSE",
   "self_type" : "_ZTIN7android15$ALREADY_EXISTSE",
   "size" : 4,
   "source_file" : "/system/core/libutils/include/utils/Errors.h",
   "underlying_type" : "_ZTIi"
  },
  {
   "alignment" : 4,
   "enum_fields" :
   [
    {
     "enum_field_value" : 19,
     "name" : "android::PRIORITY_LOWEST"
    },
    {
     "enum_field_value" : 10,
     "name" : "android::PRIORITY_BACKGROUND"
    },
    {
     "enum_field_value" : 0,
     "name" : "android::PRIORITY_NORMAL"
    },
    {
     "enum_field_value" : -2,
     "name" : "android::PRIORITY_FOREGROUND"
    },
    {
     "enum_field_value" : -4,
     "name" : "android::PRIORITY_DISPLAY"
    },
    {
     "enum_field_value" : -8,
     "name" : "android::PRIORITY_URGENT_DISPLAY"
    },
    {
     "enum_field_value" : -16,
     "name" : "android::PRIORITY_AUDIO"
    },
    {
     "enum_field_value" : -19,
     "name" : "android::PRIORITY_URGENT_AUDIO"
    },
    {
     "enum_field_value" : -20,
     "name" : "android::PRIORITY_HIGHEST"
    },
    {
     "enum_field_value" : 0,
     "name" : "android::PRIORITY_DEFAULT"
    },
    {
     "enum_field_value" : -1,
     "name" : "android::PRIORITY_MORE_FAVORABLE"
    },
    {
     "enum_field_value" : 1,
     "name" : "android::PRIORITY_LESS_FAVORABLE"
    }
   ],
   "linker_set_key" : "_ZTIN7android15$PRIORITY_AUDIOE",
   "name" : "android::(anonymous enum at system/core/libutils/include/utils/ThreadDefs.h:53:1)",
   "referenced_type" : "_ZTIN7android15$PRIORITY_AUDIOE",
   "self_type" : "_ZTIN7android15$PRIORITY_AUDIOE",
   "size" : 4,
   "source_file" : "/system/core/libutils/include/utils/ThreadDefs.h",
   "underlying_type" : "_ZTIi"
  },
  {
   "alignment" : 4,
   "enum_fields" :
   [
    {
     "enum_field_value" : 1,
     "name" : "android::trait_trivial_copy<bool>::value"
    }
   ],
   "linker_set_key" : "_ZTIN7android18trait_trivial_copyIbE6$valueE",
   "name" : "android::trait_trivial_copy<bool>::(anonymous enum at system/core/libutils/include/utils/TypeHelpers.h:98:1)",
   "referenced_type" : "_ZTIN7android18trait_trivial_copyIbE6$valueE",
   "self_type" : "_ZTIN7android18trait_trivial_copyIbE6$valueE",
   "size" : 4,
   "source_file" : "/system/core/libutils/include/utils/TypeHelpers.h",
   "underlying_type" : "_ZTIj"
  },
  {
   "alignment" : 4,
   "enum_fields" :
   [
    {
     "enum_field_value" : 1,
     "name" : "android::trait_trivial_copy<char>::value"
    }
   ],
   "linker_set_key" : "_ZTIN7android18trait_trivial_copyIcE6$valueE",
   "name" : "android::trait_trivial_copy<char>::(anonymous enum at system/core/libutils/include/utils/TypeHelpers.h:99:1)",
   "referenced_type" : "_ZTIN7android18trait_trivial_copyIcE6$valueE",
   "self_type" : "_ZTIN7android18trait_trivial_copyIcE6$valueE",
   "size" : 4,
   "source_file" : "/system/core/libutils/include/utils/TypeHelpers.h",
   "underlying_type" : "_ZTIj"
  },
  {
   "alignment" : 4,
   "enum_fields" :
   [
    {
     "enum_field_value" : 1,
     "name" : "android::trait_trivial_copy<double>::value"
    }
   ],
   "linker_set_key" : "_ZTIN7android18trait_trivial_copyIdE6$valueE",
   "name" : "android::trait_trivial_copy<double>::(anonymous enum at system/core/libutils/include/utils/TypeHelpers.h:110:1)",
   "referenced_type" : "_ZTIN7android18trait_trivial_copyIdE6$valueE",
   "self_type" : "_ZTIN7android18trait_trivial_copyIdE6$valueE",
   "size" : 4,
   "source_file" : "/system/core/libutils/include/utils/TypeHelpers.h",
   "underlying_type" : "_ZTIj"
  },
  {
   "alignment" : 4,
   "enum_fields" :
   [
    {
     "enum_field_value" : 1,
     "name" : "android::trait_trivial_copy<float>::value"
    }
   ],
   "linker_set_key" : "_ZTIN7android18trait_trivial_copyIfE6$valueE",
   "name" : "android::trait_trivial_copy<float>::(anonymous enum at system/core/libutils/include/utils/TypeHelpers.h:109:1)",
   "referenced_type" : "_ZTIN7android18trait_trivial_copyIfE6$valueE",
   "self_type" : "_ZTIN7android18trait_trivial_copyIfE6$valueE",
   "size" : 4,
   "source_file" : "/system/core/libutils/include/utils/TypeHelpers.h",
   "underlying_type" : "_ZTIj"
  },
  {
   "alignment" : 4,
   "enum_fields" :
   [
    {
     "enum_field_value" : 1,
     "name" : "android::trait_trivial_copy<unsigned char>::value"
    }
   ],
   "linker_set_key" : "_ZTIN7android18trait_trivial_copyIhE6$valueE",
   "name" : "android::trait_trivial_copy<unsigned char>::(anonymous enum at system/core/libutils/include/utils/TypeHelpers.h:100:1)",
   "referenced_type" : "_ZTIN7android18trait_trivial_copyIhE6$valueE",
   "self_type" : "_ZTIN7android18trait_trivial_copyIhE6$valueE",
   "size" : 4,
   "source_file" : "/system/core/libutils/include/utils/TypeHelpers.h",
   "underlying_type" : "_ZTIj"
  },
  {
   "alignment" : 4,
   "enum_fields" :
   [
    {
     "enum_field_value" : 1,
     "name" : "android::trait_trivial_copy<int>::value"
    }
   ],
   "linker_set_key" : "_ZTIN7android18trait_trivial_copyIiE6$valueE",
   "name" : "android::trait_trivial_copy<int>::(anonymous enum at system/core/libutils/include/utils/TypeHelpers.h:103:1)",
   "referenced_type" : "_ZTIN7android18trait_trivial_copyIiE6$valueE",
   "self_type" : "_ZTIN7android18trait_trivial_copyIiE6$valueE",
   "size" : 4,
   "source_file" : "/system/core/libutils/include/utils/TypeHelpers.h",
   "underlying_type" : "_ZTIj"
  },
  {
   "alignment" : 4,
   "enum_fields" :
   [
    {
     "enum_field_value" : 1,
     "name" : "android::trait_trivial_copy<unsigned int>::value"
    }
   ],
   "linker_set_key" : "_ZTIN7android18trait_trivial_copyIjE6$valueE",
   "name" : "android::trait_trivial_copy<unsigned int>::(anonymous enum at system/core/libutils/include/utils/TypeHelpers.h:104:1)",
   "referenced_type" : "_ZTIN7android18trait_trivial_copyIjE6$valueE",
   "self_type" : "_ZTIN7android18trait_trivial_copyIjE6$valueE",
   "size" : 4,
   "source_file" : "/system/core/libutils/include/utils/TypeHelpers.h",
   "underlying_type" : "_ZTIj"
  },
  {
   "alignment" : 4,
   "enum_fields" :
   [
    {
     "enum_field_value" : 1,
     "name" : "android::trait_trivial_copy<long>::value"
    }
   ],
   "linker_set_key" : "_ZTIN7android18trait_trivial_copyIlE6$valueE",
   "name" : "android::trait_trivial_copy<long>::(anonymous enum at system/core/libutils/include/utils/TypeHelpers.h:105:1)",
   "referenced_type" : "_ZTIN7android18trait_trivial_copyIlE6$valueE",
   "self_type" : "_ZTIN7android18trait_trivial_copyIlE6$valueE",
   "size" : 4,
   "source_file" : "/system/core/libutils/include/utils/TypeHelpers.h",
   "underlying_type" : "_ZTIj"
  },
  {
   "alignment" : 4,
   "enum_fields" :
   [
    {
     "enum_field_value" : 1,
     "name" : "android::trait_trivial_copy<unsigned long>::value"
    }
   ],
   "linker_set_key" : "_ZTIN7android18trait_trivial_copyImE6$valueE",
   "name" : "android::trait_trivial_copy<unsigned long>::(anonymous enum at system/core/libutils/include/utils/TypeHelpers.h:106:1)",
   "referenced_type" : "_ZTIN7android18trait_trivial_copyImE6$valueE",
   "self_type" : "_ZTIN7android18trait_trivial_copyImE6$valueE",
   "size" : 4,
   "source_file" : "/system/core/libutils/include/utils/TypeHelpers.h",
   "underlying_type" : "_ZTIj"
  },
  {
   "alignment" : 4,
   "enum_fields" :
   [
    {
     "enum_field_value" : 1,
     "name" : "android::trait_trivial_copy<short>::value"
    }
   ],
   "linker_set_key" : "_ZTIN7android18trait_trivial_copyIsE6$valueE",
   "name" : "android::trait_trivial_copy<short>::(anonymous enum at system/core/libutils/include/utils/TypeHelpers.h:101:1)",
   "referenced_type" : "_ZTIN7android18trait_trivial_copyIsE6$valueE",
   "self_type" : "_ZTIN7android18trait_trivial_copyIsE6$valueE",
   "size" : 4,
   "source_file" : "/system/core/libutils/include/utils/TypeHelpers.h",
   "underlying_type" : "_ZTIj"
  },
  {
   "alignment" : 4,
   "enum_fields" :
   [
    {
     "enum_field_value" : 1,
     "name" : "android::trait_trivial_copy<unsigned short>::value"
    }
   ],
   "linker_set_key" : "_ZTIN7android18trait_trivial_copyItE6$valueE",
   "name" : "android::trait_trivial_copy<unsigned short>::(anonymous enum at system/core/libutils/include/utils/TypeHelpers.h:102:1)",
   "referenced_type" : "_ZTIN7android18trait_trivial_copyItE6$valueE",
   "self_type" : "_ZTIN7android18trait_trivial_copyItE6$valueE",
   "size" : 4,
   "source_file" : "/system/core/libutils/include/utils/TypeHelpers.h",
   "underlying_type" : "_ZTIj"
  },
  {
   "alignment" : 4,
   "enum_fields" :
   [
    {
     "enum_field_value" : 1,
     "name" : "android::trait_trivial_copy<void>::value"
    }
   ],
   "linker_set_key" : "_ZTIN7android18trait_trivial_copyIvE6$valueE",
   "name" : "android::trait_trivial_copy<void>::(anonymous enum at system/core/libutils/include/utils/TypeHelpers.h:97:1)",
   "referenced_type" : "_ZTIN7android18trait_trivial_copyIvE6$valueE",
   "self_type" : "_ZTIN7android18trait_trivial_copyIvE6$valueE",
   "size" : 4,
   "source_file" : "/system/core/libutils/include/utils/TypeHelpers.h",
   "underlying_type" : "_ZTIj"
  },
  {
   "alignment" : 4,
   "enum_fields" :
   [
    {
     "enum_field_value" : 1,
     "name" : "android::trait_trivial_copy<long long>::value"
    }
   ],
   "linker_set_key" : "_ZTIN7android18trait_trivial_copyIxE6$valueE",
   "name" : "android::trait_trivial_copy<long long>::(anonymous enum at system/core/libutils/include/utils/TypeHelpers.h:107:1)",
   "referenced_type" : "_ZTIN7android18trait_trivial_copyIxE6$valueE",
   "self_type" : "_ZTIN7android18trait_trivial_copyIxE6$valueE",
   "size" : 4,
   "source_file" : "/system/core/libutils/include/utils/TypeHelpers.h",
   "underlying_type" : "_ZTIj"
  },
  {
   "alignment" : 4,
   "enum_fields" :
   [
    {
     "enum_field_value" : 1,
     "name" : "android::trait_trivial_copy<unsigned long long>::value"
    }
   ],
   "linker_set_key" : "_ZTIN7android18trait_trivial_copyIyE6$valueE",
   "name" : "android::trait_trivial_copy<unsigned long long>::(anonymous enum at system/core/libutils/include/utils/TypeHelpers.h:108:1)",
   "referenced_type" : "_ZTIN7android18trait_trivial_copyIyE6$valueE",
   "self_type" : "_ZTIN7android18trait_trivial_copyIyE6$valueE",
   "size" : 4,
   "source_file" : "/system/core/libutils/include/utils/TypeHelpers.h",
   "underlying_type" : "_ZTIj"
  },
  {
   "alignment" : 4,
   "enum_fields" :
   [
    {
     "enum_field_value" : 1,
     "name" : "android::trait_trivial_ctor<bool>::value"
    }
   ],
   "linker_set_key" : "_ZTIN7android18trait_trivial_ctorIbE6$valueE",
   "name" : "android::trait_trivial_ctor<bool>::(anonymous enum at system/core/libutils/include/utils/TypeHelpers.h:98:1)",
   "referenced_type" : "_ZTIN7android18trait_trivial_ctorIbE6$valueE",
   "self_type" : "_ZTIN7android18trait_trivial_ctorIbE6$valueE",
   "size" : 4,
   "source_file" : "/system/core/libutils/include/utils/TypeHelpers.h",
   "underlying_type" : "_ZTIj"
  },
  {
   "alignment" : 4,
   "enum_fields" :
   [
    {
     "enum_field_value" : 1,
     "name" : "android::trait_trivial_ctor<char>::value"
    }
   ],
   "linker_set_key" : "_ZTIN7android18trait_trivial_ctorIcE6$valueE",
   "name" : "android::trait_trivial_ctor<char>::(anonymous enum at system/core/libutils/include/utils/TypeHelpers.h:99:1)",
   "referenced_type" : "_ZTIN7android18trait_trivial_ctorIcE6$valueE",
   "self_type" : "_ZTIN7android18trait_trivial_ctorIcE6$valueE",
   "size" : 4,
   "source_file" : "/system/core/libutils/include/utils/TypeHelpers.h",
   "underlying_type" : "_ZTIj"
  },
  {
   "alignment" : 4,
   "enum_fields" :
   [
    {
     "enum_field_value" : 1,
     "name" : "android::trait_trivial_ctor<double>::value"
    }
   ],
   "linker_set_key" : "_ZTIN7android18trait_trivial_ctorIdE6$valueE",
   "name" : "android::trait_trivial_ctor<double>::(anonymous enum at system/core/libutils/include/utils/TypeHelpers.h:110:1)",
   "referenced_type" : "_ZTIN7android18trait_trivial_ctorIdE6$valueE",
   "self_type" : "_ZTIN7android18trait_trivial_ctorIdE6$valueE",
   "size" : 4,
   "source_file" : "/system/core/libutils/include/utils/TypeHelpers.h",
   "underlying_type" : "_ZTIj"
  },
  {
   "alignment" : 4,
   "enum_fields" :
   [
    {
     "enum_field_value" : 1,
     "name" : "android::trait_trivial_ctor<float>::value"
    }
   ],
   "linker_set_key" : "_ZTIN7android18trait_trivial_ctorIfE6$valueE",
   "name" : "android::trait_trivial_ctor<float>::(anonymous enum at system/core/libutils/include/utils/TypeHelpers.h:109:1)",
   "referenced_type" : "_ZTIN7android18trait_trivial_ctorIfE6$valueE",
   "self_type" : "_ZTIN7android18trait_trivial_ctorIfE6$valueE",
   "size" : 4,
   "source_file" : "/system/core/libutils/include/utils/TypeHelpers.h",
   "underlying_type" : "_ZTIj"
  },
  {
   "alignment" : 4,
   "enum_fields" :
   [
    {
     "enum_field_value" : 1,
     "name" : "android::trait_trivial_ctor<unsigned char>::value"
    }
   ],
   "linker_set_key" : "_ZTIN7android18trait_trivial_ctorIhE6$valueE",
   "name" : "android::trait_trivial_ctor<unsigned char>::(anonymous enum at system/core/libutils/include/utils/TypeHelpers.h:100:1)",
   "referenced_type" : "_ZTIN7android18trait_trivial_ctorIhE6$valueE",
   "self_type" : "_ZTIN7android18trait_trivial_ctorIhE6$valueE",
   "size" : 4,
   "source_file" : "/system/core/libutils/include/utils/TypeHelpers.h",
   "underlying_type" : "_ZTIj"
  },
  {
   "alignment" : 4,
   "enum_fields" :
   [
    {
     "enum_field_value" : 1,
     "name" : "android::trait_trivial_ctor<int>::value"
    }
   ],
   "linker_set_key" : "_ZTIN7android18trait_trivial_ctorIiE6$valueE",
   "name" : "android::trait_trivial_ctor<int>::(anonymous enum at system/core/libutils/include/utils/TypeHelpers.h:103:1)",
   "referenced_type" : "_ZTIN7android18trait_trivial_ctorIiE6$valueE",
   "self_type" : "_ZTIN7android18trait_trivial_ctorIiE6$valueE",
   "size" : 4,
   "source_file" : "/system/core/libutils/include/utils/TypeHelpers.h",
   "underlying_type" : "_ZTIj"
  },
  {
   "alignment" : 4,
   "enum_fields" :
   [
    {
     "enum_field_value" : 1,
     "name" : "android::trait_trivial_ctor<unsigned int>::value"
    }
   ],
   "linker_set_key" : "_ZTIN7android18trait_trivial_ctorIjE6$valueE",
   "name" : "android::trait_trivial_ctor<unsigned int>::(anonymous enum at system/core/libutils/include/utils/TypeHelpers.h:104:1)",
   "referenced_type" : "_ZTIN7android18trait_trivial_ctorIjE6$valueE",
   "self_type" : "_ZTIN7android18trait_trivial_ctorIjE6$valueE",
   "size" : 4,
   "source_file" : "/system/core/libutils/include/utils/TypeHelpers.h",
   "underlying_type" : "_ZTIj"
  },
  {
   "alignment" : 4,
   "enum_fields" :
   [
    {
     "enum_field_value" : 1,
     "name" : "android::trait_trivial_ctor<long>::value"
    }
   ],
   "linker_set_key" : "_ZTIN7android18trait_trivial_ctorIlE6$valueE",
   "name" : "android::trait_trivial_ctor<long>::(anonymous enum at system/core/libutils/include/utils/TypeHelpers.h:105:1)",
   "referenced_type" : "_ZTIN7android18trait_trivial_ctorIlE6$valueE",
   "self_type" : "_ZTIN7android18trait_trivial_ctorIlE6$valueE",
   "size" : 4,
   "source_file" : "/system/core/libutils/include/utils/TypeHelpers.h",
   "underlying_type" : "_ZTIj"
  },
  {
   "alignment" : 4,
   "enum_fields" :
   [
    {
     "enum_field_value" : 1,
     "name" : "android::trait_trivial_ctor<unsigned long>::value"
    }
   ],
   "linker_set_key" : "_ZTIN7android18trait_trivial_ctorImE6$valueE",
   "name" : "android::trait_trivial_ctor<unsigned long>::(anonymous enum at system/core/libutils/include/utils/TypeHelpers.h:106:1)",
   "referenced_type" : "_ZTIN7android18trait_trivial_ctorImE6$valueE",
   "self_type" : "_ZTIN7android18trait_trivial_ctorImE6$valueE",
   "size" : 4,
   "source_file" : "/system/core/libutils/include/utils/TypeHelpers.h",
   "underlying_type" : "_ZTIj"
  },
  {
   "alignment" : 4,
   "enum_fields" :
   [
    {
     "enum_field_value" : 1,
     "name" : "android::trait_trivial_ctor<short>::value"
    }
   ],
   "linker_set_key" : "_ZTIN7android18trait_trivial_ctorIsE6$valueE",
   "name" : "android::trait_trivial_ctor<short>::(anonymous enum at system/core/libutils/include/utils/TypeHelpers.h:101:1)",
   "referenced_type" : "_ZTIN7android18trait_trivial_ctorIsE6$valueE",
   "self_type" : "_ZTIN7android18trait_trivial_ctorIsE6$valueE",
   "size" : 4,
   "source_file" : "/system/core/libutils/include/utils/TypeHelpers.h",
   "underlying_type" : "_ZTIj"
  },
  {
   "alignment" : 4,
   "enum_fields" :
   [
    {
     "enum_field_value" : 1,
     "name" : "android::trait_trivial_ctor<unsigned short>::value"
    }
   ],
   "linker_set_key" : "_ZTIN7android18trait_trivial_ctorItE6$valueE",
   "name" : "android::trait_trivial_ctor<unsigned short>::(anonymous enum at system/core/libutils/include/utils/TypeHelpers.h:102:1)",
   "referenced_type" : "_ZTIN7android18trait_trivial_ctorItE6$valueE",
   "self_type" : "_ZTIN7android18trait_trivial_ctorItE6$valueE",
   "size" : 4,
   "source_file" : "/system/core/libutils/include/utils/TypeHelpers.h",
   "underlying_type" : "_ZTIj"
  },
  {
   "alignment" : 4,
   "enum_fields" :
   [
    {
     "enum_field_value" : 1,
     "name" : "android::trait_trivial_ctor<void>::value"
    }
   ],
   "linker_set_key" : "_ZTIN7android18trait_trivial_ctorIvE6$valueE",
   "name" : "android::trait_trivial_ctor<void>::(anonymous enum at system/core/libutils/include/utils/TypeHelpers.h:97:1)",
   "referenced_type" : "_ZTIN7android18trait_trivial_ctorIvE6$valueE",
   "self_type" : "_ZTIN7android18trait_trivial_ctorIvE6$valueE",
   "size" : 4,
   "source_file" : "/system/core/libutils/include/utils/TypeHelpers.h",
   "underlying_type" : "_ZTIj"
  },
  {
   "alignment" : 4,
   "enum_fields" :
   [
    {
     "enum_field_value" : 1,
     "name" : "android::trait_trivial_ctor<long long>::value"
    }
   ],
   "linker_set_key" : "_ZTIN7android18trait_trivial_ctorIxE6$valueE",
   "name" : "android::trait_trivial_ctor<long long>::(anonymous enum at system/core/libutils/include/utils/TypeHelpers.h:107:1)",
   "referenced_type" : "_ZTIN7android18trait_trivial_ctorIxE6$valueE",
   "self_type" : "_ZTIN7android18trait_trivial_ctorIxE6$valueE",
   "size" : 4,
   "source_file" : "/system/core/libutils/include/utils/TypeHelpers.h",
   "underlying_type" : "_ZTIj"
  },
  {
   "alignment" : 4,
   "enum_fields" :
   [
    {
     "enum_field_value" : 1,
     "name" : "android::trait_trivial_ctor<unsigned long long>::value"
    }
   ],
   "linker_set_key" : "_ZTIN7android18trait_trivial_ctorIyE6$valueE",
   "name" : "android::trait_trivial_ctor<unsigned long long>::(anonymous enum at system/core/libutils/include/utils/TypeHelpers.h:108:1)",
   "referenced_type" : "_ZTIN7android18trait_trivial_ctorIyE6$valueE",
   "self_type" : "_ZTIN7android18trait_trivial_ctorIyE6$valueE",
   "size" : 4,
   "source_file" : "/system/core/libutils/include/utils/TypeHelpers.h",
   "underlying_type" : "_ZTIj"
  },
  {
   "alignment" : 4,
   "enum_fields" :
   [
    {
     "enum_field_value" : 1,
     "name" : "android::trait_trivial_dtor<bool>::value"
    }
   ],
   "linker_set_key" : "_ZTIN7android18trait_trivial_dtorIbE6$valueE",
   "name" : "android::trait_trivial_dtor<bool>::(anonymous enum at system/core/libutils/include/utils/TypeHelpers.h:98:1)",
   "referenced_type" : "_ZTIN7android18trait_trivial_dtorIbE6$valueE",
   "self_type" : "_ZTIN7android18trait_trivial_dtorIbE6$valueE",
   "size" : 4,
   "source_file" : "/system/core/libutils/include/utils/TypeHelpers.h",
   "underlying_type" : "_ZTIj"
  },
  {
   "alignment" : 4,
   "enum_fields" :
   [
    {
     "enum_field_value" : 1,
     "name" : "android::trait_trivial_dtor<char>::value"
    }
   ],
   "linker_set_key" : "_ZTIN7android18trait_trivial_dtorIcE6$valueE",
   "name" : "android::trait_trivial_dtor<char>::(anonymous enum at system/core/libutils/include/utils/TypeHelpers.h:99:1)",
   "referenced_type" : "_ZTIN7android18trait_trivial_dtorIcE6$valueE",
   "self_type" : "_ZTIN7android18trait_trivial_dtorIcE6$valueE",
   "size" : 4,
   "source_file" : "/system/core/libutils/include/utils/TypeHelpers.h",
   "underlying_type" : "_ZTIj"
  },
  {
   "alignment" : 4,
   "enum_fields" :
   [
    {
     "enum_field_value" : 1,
     "name" : "android::trait_trivial_dtor<double>::value"
    }
   ],
   "linker_set_key" : "_ZTIN7android18trait_trivial_dtorIdE6$valueE",
   "name" : "android::trait_trivial_dtor<double>::(anonymous enum at system/core/libutils/include/utils/TypeHelpers.h:110:1)",
   "referenced_type" : "_ZTIN7android18trait_trivial_dtorIdE6$valueE",
   "self_type" : "_ZTIN7android18trait_trivial_dtorIdE6$valueE",
   "size" : 4,
   "source_file" : "/system/core/libutils/include/utils/TypeHelpers.h",
   "underlying_type" : "_ZTIj"
  },
  {
   "alignment" : 4,
   "enum_fields" :
   [
    {
     "enum_field_value" : 1,
     "name" : "android::trait_trivial_dtor<float>::value"
    }
   ],
   "linker_set_key" : "_ZTIN7android18trait_trivial_dtorIfE6$valueE",
   "name" : "android::trait_trivial_dtor<float>::(anonymous enum at system/core/libutils/include/utils/TypeHelpers.h:109:1)",
   "referenced_type" : "_ZTIN7android18trait_trivial_dtorIfE6$valueE",
   "self_type" : "_ZTIN7android18trait_trivial_dtorIfE6$valueE",
   "size" : 4,
   "source_file" : "/system/core/libutils/include/utils/TypeHelpers.h",
   "underlying_type" : "_ZTIj"
  },
  {
   "alignment" : 4,
   "enum_fields" :
   [
    {
     "enum_field_value" : 1,
     "name" : "android::trait_trivial_dtor<unsigned char>::value"
    }
   ],
   "linker_set_key" : "_ZTIN7android18trait_trivial_dtorIhE6$valueE",
   "name" : "android::trait_trivial_dtor<unsigned char>::(anonymous enum at system/core/libutils/include/utils/TypeHelpers.h:100:1)",
   "referenced_type" : "_ZTIN7android18trait_trivial_dtorIhE6$valueE",
   "self_type" : "_ZTIN7android18trait_trivial_dtorIhE6$valueE",
   "size" : 4,
   "source_file" : "/system/core/libutils/include/utils/TypeHelpers.h",
   "underlying_type" : "_ZTIj"
  },
  {
   "alignment" : 4,
   "enum_fields" :
   [
    {
     "enum_field_value" : 1,
     "name" : "android::trait_trivial_dtor<int>::value"
    }
   ],
   "linker_set_key" : "_ZTIN7android18trait_trivial_dtorIiE6$valueE",
   "name" : "android::trait_trivial_dtor<int>::(anonymous enum at system/core/libutils/include/utils/TypeHelpers.h:103:1)",
   "referenced_type" : "_ZTIN7android18trait_trivial_dtorIiE6$valueE",
   "self_type" : "_ZTIN7android18trait_trivial_dtorIiE6$valueE",
   "size" : 4,
   "source_file" : "/system/core/libutils/include/utils/TypeHelpers.h",
   "underlying_type" : "_ZTIj"
  },
  {
   "alignment" : 4,
   "enum_fields" :
   [
    {
     "enum_field_value" : 1,
     "name" : "android::trait_trivial_dtor<unsigned int>::value"
    }
   ],
   "linker_set_key" : "_ZTIN7android18trait_trivial_dtorIjE6$valueE",
   "name" : "android::trait_trivial_dtor<unsigned int>::(anonymous enum at system/core/libutils/include/utils/TypeHelpers.h:104:1)",
   "referenced_type" : "_ZTIN7android18trait_trivial_dtorIjE6$valueE",
   "self_type" : "_ZTIN7android18trait_trivial_dtorIjE6$valueE",
   "size" : 4,
   "source_file" : "/system/core/libutils/include/utils/TypeHelpers.h",
   "underlying_type" : "_ZTIj"
  },
  {
   "alignment" : 4,
   "enum_fields" :
   [
    {
     "enum_field_value" : 1,
     "name" : "android::trait_trivial_dtor<long>::value"
    }
   ],
   "linker_set_key" : "_ZTIN7android18trait_trivial_dtorIlE6$valueE",
   "name" : "android::trait_trivial_dtor<long>::(anonymous enum at system/core/libutils/include/utils/TypeHelpers.h:105:1)",
   "referenced_type" : "_ZTIN7android18trait_trivial_dtorIlE6$valueE",
   "self_type" : "_ZTIN7android18trait_trivial_dtorIlE6$valueE",
   "size" : 4,
   "source_file" : "/system/core/libutils/include/utils/TypeHelpers.h",
   "underlying_type" : "_ZTIj"
  },
  {
   "alignment" : 4,
   "enum_fields" :
   [
    {
     "enum_field_value" : 1,
     "name" : "android::trait_trivial_dtor<unsigned long>::value"
    }
   ],
   "linker_set_key" : "_ZTIN7android18trait_trivial_dtorImE6$valueE",
   "name" : "android::trait_trivial_dtor<unsigned long>::(anonymous enum at system/core/libutils/include/utils/TypeHelpers.h:106:1)",
   "referenced_type" : "_ZTIN7android18trait_trivial_dtorImE6$valueE",
   "self_type" : "_ZTIN7android18trait_trivial_dtorImE6$valueE",
   "size" : 4,
   "source_file" : "/system/core/libutils/include/utils/TypeHelpers.h",
   "underlying_type" : "_ZTIj"
  },
  {
   "alignment" : 4,
   "enum_fields" :
   [
    {
     "enum_field_value" : 1,
     "name" : "android::trait_trivial_dtor<short>::value"
    }
   ],
   "linker_set_key" : "_ZTIN7android18trait_trivial_dtorIsE6$valueE",
   "name" : "android::trait_trivial_dtor<short>::(anonymous enum at system/core/libutils/include/utils/TypeHelpers.h:101:1)",
   "referenced_type" : "_ZTIN7android18trait_trivial_dtorIsE6$valueE",
   "self_type" : "_ZTIN7android18trait_trivial_dtorIsE6$valueE",
   "size" : 4,
   "source_file" : "/system/core/libutils/include/utils/TypeHelpers.h",
   "underlying_type" : "_ZTIj"
  },
  {
   "alignment" : 4,
   "enum_fields" :
   [
    {
     "enum_field_value" : 1,
     "name" : "android::trait_trivial_dtor<unsigned short>::value"
    }
   ],
   "linker_set_key" : "_ZTIN7android18trait_trivial_dtorItE6$valueE",
   "name" : "android::trait_trivial_dtor<unsigned short>::(anonymous enum at system/core/libutils/include/utils/TypeHelpers.h:102:1)",
   "referenced_type" : "_ZTIN7android18trait_trivial_dtorItE6$valueE",
   "self_type" : "_ZTIN7android18trait_trivial_dtorItE6$valueE",
   "size" : 4,
   "source_file" : "/system/core/libutils/include/utils/TypeHelpers.h",
   "underlying_type" : "_ZTIj"
  },
  {
   "alignment" : 4,
   "enum_fields" :
   [
    {
     "enum_field_value" : 1,
     "name" : "android::trait_trivial_dtor<void>::value"
    }
   ],
   "linker_set_key" : "_ZTIN7android18trait_trivial_dtorIvE6$valueE",
   "name" : "android::trait_trivial_dtor<void>::(anonymous enum at system/core/libutils/include/utils/TypeHelpers.h:97:1)",
   "referenced_type" : "_ZTIN7android18trait_trivial_dtorIvE6$valueE",
   "self_type" : "_ZTIN7android18trait_trivial_dtorIvE6$valueE",
   "size" : 4,
   "source_file" : "/system/core/libutils/include/utils/TypeHelpers.h",
   "underlying_type" : "_ZTIj"
  },
  {
   "alignment" : 4,
   "enum_fields" :
   [
    {
     "enum_field_value" : 1,
     "name" : "android::trait_trivial_dtor<long long>::value"
    }
   ],
   "linker_set_key" : "_ZTIN7android18trait_trivial_dtorIxE6$valueE",
   "name" : "android::trait_trivial_dtor<long long>::(anonymous enum at system/core/libutils/include/utils/TypeHelpers.h:107:1)",
   "referenced_type" : "_ZTIN7android18trait_trivial_dtorIxE6$valueE",
   "self_type" : "_ZTIN7android18trait_trivial_dtorIxE6$valueE",
   "size" : 4,
   "source_file" : "/system/core/libutils/include/utils/TypeHelpers.h",
   "underlying_type" : "_ZTIj"
  },
  {
   "alignment" : 4,
   "enum_fields" :
   [
    {
     "enum_field_value" : 1,
     "name" : "android::trait_trivial_dtor<unsigned long long>::value"
    }
   ],
   "linker_set_key" : "_ZTIN7android18trait_trivial_dtorIyE6$valueE",
   "name" : "android::trait_trivial_dtor<unsigned long long>::(anonymous enum at system/core/libutils/include/utils/TypeHelpers.h:108:1)",
   "referenced_type" : "_ZTIN7android18trait_trivial_dtorIyE6$valueE",
   "self_type" : "_ZTIN7android18trait_trivial_dtorIyE6$valueE",
   "size" : 4,
   "source_file" : "/system/core/libutils/include/utils/TypeHelpers.h",
   "underlying_type" : "_ZTIj"
  },
  {
   "alignment" : 4,
   "enum_fields" :
   [
    {
     "enum_field_value" : 1,
     "name" : "android::trait_trivial_move<android::String8>::value"
    }
   ],
   "linker_set_key" : "_ZTIN7android18trait_trivial_moveINS_7String8EE6$valueE",
   "name" : "android::trait_trivial_move<String8>::(anonymous enum at system/core/libutils/include/utils/String8.h:242:1)",
   "referenced_type" : "_ZTIN7android18trait_trivial_moveINS_7String8EE6$valueE",
   "self_type" : "_ZTIN7android18trait_trivial_moveINS_7String8EE6$valueE",
   "size" : 4,
   "source_file" : "/system/core/libutils/include/utils/String8.h",
   "underlying_type" : "_ZTIj"
  },
  {
   "alignment" : 4,
   "enum_fields" :
   [
    {
     "enum_field_value" : 1,
     "name" : "android::trait_trivial_move<android::String16>::value"
    }
   ],
   "linker_set_key" : "_ZTIN7android18trait_trivial_moveINS_8String16EE6$valueE",
   "name" : "android::trait_trivial_move<String16>::(anonymous enum at system/core/libutils/include/utils/String16.h:197:1)",
   "referenced_type" : "_ZTIN7android18trait_trivial_moveINS_8String16EE6$valueE",
   "self_type" : "_ZTIN7android18trait_trivial_moveINS_8String16EE6$valueE",
   "size" : 4,
   "source_file" : "/system/core/libutils/include/utils/String16.h",
   "underlying_type" : "_ZTIj"
  },
  {
   "alignment" : 4,
   "enum_fields" :
   [
    {
     "enum_field_value" : 1,
     "name" : "android::trait_trivial_move<bool>::value"
    }
   ],
   "linker_set_key" : "_ZTIN7android18trait_trivial_moveIbE6$valueE",
   "name" : "android::trait_trivial_move<bool>::(anonymous enum at system/core/libutils/include/utils/TypeHelpers.h:98:1)",
   "referenced_type" : "_ZTIN7android18trait_trivial_moveIbE6$valueE",
   "self_type" : "_ZTIN7android18trait_trivial_moveIbE6$valueE",
   "size" : 4,
   "source_file" : "/system/core/libutils/include/utils/TypeHelpers.h",
   "underlying_type" : "_ZTIj"
  },
  {
   "alignment" : 4,
   "enum_fields" :
   [
    {
     "enum_field_value" : 1,
     "name" : "android::trait_trivial_move<char>::value"
    }
   ],
   "linker_set_key" : "_ZTIN7android18trait_trivial_moveIcE6$valueE",
   "name" : "android::trait_trivial_move<char>::(anonymous enum at system/core/libutils/include/utils/TypeHelpers.h:99:1)",
   "referenced_type" : "_ZTIN7android18trait_trivial_moveIcE6$valueE",
   "self_type" : "_ZTIN7android18trait_trivial_moveIcE6$valueE",
   "size" : 4,
   "source_file" : "/system/core/libutils/include/utils/TypeHelpers.h",
   "underlying_type" : "_ZTIj"
  },
  {
   "alignment" : 4,
   "enum_fields" :
   [
    {
     "enum_field_value" : 1,
     "name" : "android::trait_trivial_move<double>::value"
    }
   ],
   "linker_set_key" : "_ZTIN7android18trait_trivial_moveIdE6$valueE",
   "name" : "android::trait_trivial_move<double>::(anonymous enum at system/core/libutils/include/utils/TypeHelpers.h:110:1)",
   "referenced_type" : "_ZTIN7android18trait_trivial_moveIdE6$valueE",
   "self_type" : "_ZTIN7android18trait_trivial_moveIdE6$valueE",
   "size" : 4,
   "source_file" : "/system/core/libutils/include/utils/TypeHelpers.h",
   "underlying_type" : "_ZTIj"
  },
  {
   "alignment" : 4,
   "enum_fields" :
   [
    {
     "enum_field_value" : 1,
     "name" : "android::trait_trivial_move<float>::value"
    }
   ],
   "linker_set_key" : "_ZTIN7android18trait_trivial_moveIfE6$valueE",
   "name" : "android::trait_trivial_move<float>::(anonymous enum at system/core/libutils/include/utils/TypeHelpers.h:109:1)",
   "referenced_type" : "_ZTIN7android18trait_trivial_moveIfE6$valueE",
   "self_type" : "_ZTIN7android18trait_trivial_moveIfE6$valueE",
   "size" : 4,
   "source_file" : "/system/core/libutils/include/utils/TypeHelpers.h",
   "underlying_type" : "_ZTIj"
  },
  {
   "alignment" : 4,
   "enum_fields" :
   [
    {
     "enum_field_value" : 1,
     "name" : "android::trait_trivial_move<unsigned char>::value"
    }
   ],
   "linker_set_key" : "_ZTIN7android18trait_trivial_moveIhE6$valueE",
   "name" : "android::trait_trivial_move<unsigned char>::(anonymous enum at system/core/libutils/include/utils/TypeHelpers.h:100:1)",
   "referenced_type" : "_ZTIN7android18trait_trivial_moveIhE6$valueE",
   "self_type" : "_ZTIN7android18trait_trivial_moveIhE6$valueE",
   "size" : 4,
   "source_file" : "/system/core/libutils/include/utils/TypeHelpers.h",
   "underlying_type" : "_ZTIj"
  },
  {
   "alignment" : 4,
   "enum_fields" :
   [
    {
     "enum_field_value" : 1,
     "name" : "android::trait_trivial_move<int>::value"
    }
   ],
   "linker_set_key" : "_ZTIN7android18trait_trivial_moveIiE6$valueE",
   "name" : "android::trait_trivial_move<int>::(anonymous enum at system/core/libutils/include/utils/TypeHelpers.h:103:1)",
   "referenced_type" : "_ZTIN7android18trait_trivial_moveIiE6$valueE",
   "self_type" : "_ZTIN7android18trait_trivial_moveIiE6$valueE",
   "size" : 4,
   "source_file" : "/system/core/libutils/include/utils/TypeHelpers.h",
   "underlying_type" : "_ZTIj"
  },
  {
   "alignment" : 4,
   "enum_fields" :
   [
    {
     "enum_field_value" : 1,
     "name" : "android::trait_trivial_move<unsigned int>::value"
    }
   ],
   "linker_set_key" : "_ZTIN7android18trait_trivial_moveIjE6$valueE",
   "name" : "android::trait_trivial_move<unsigned int>::(anonymous enum at system/core/libutils/include/utils/TypeHelpers.h:104:1)",
   "referenced_type" : "_ZTIN7android18trait_trivial_moveIjE6$valueE",
   "self_type" : "_ZTIN7android18trait_trivial_moveIjE6$valueE",
   "size" : 4,
   "source_file" : "/system/core/libutils/include/utils/TypeHelpers.h",
   "underlying_type" : "_ZTIj"
  },
  {
   "alignment" : 4,
   "enum_fields" :
   [
    {
     "enum_field_value" : 1,
     "name" : "android::trait_trivial_move<long>::value"
    }
   ],
   "linker_set_key" : "_ZTIN7android18trait_trivial_moveIlE6$valueE",
   "name" : "android::trait_trivial_move<long>::(anonymous enum at system/core/libutils/include/utils/TypeHelpers.h:105:1)",
   "referenced_type" : "_ZTIN7android18trait_trivial_moveIlE6$valueE",
   "self_type" : "_ZTIN7android18trait_trivial_moveIlE6$valueE",
   "size" : 4,
   "source_file" : "/system/core/libutils/include/utils/TypeHelpers.h",
   "underlying_type" : "_ZTIj"
  },
  {
   "alignment" : 4,
   "enum_fields" :
   [
    {
     "enum_field_value" : 1,
     "name" : "android::trait_trivial_move<unsigned long>::value"
    }
   ],
   "linker_set_key" : "_ZTIN7android18trait_trivial_moveImE6$valueE",
   "name" : "android::trait_trivial_move<unsigned long>::(anonymous enum at system/core/libutils/include/utils/TypeHelpers.h:106:1)",
   "referenced_type" : "_ZTIN7android18trait_trivial_moveImE6$valueE",
   "self_type" : "_ZTIN7android18trait_trivial_moveImE6$valueE",
   "size" : 4,
   "source_file" : "/system/core/libutils/include/utils/TypeHelpers.h",
   "underlying_type" : "_ZTIj"
  },
  {
   "alignment" : 4,
   "enum_fields" :
   [
    {
     "enum_field_value" : 1,
     "name" : "android::trait_trivial_move<short>::value"
    }
   ],
   "linker_set_key" : "_ZTIN7android18trait_trivial_moveIsE6$valueE",
   "name" : "android::trait_trivial_move<short>::(anonymous enum at system/core/libutils/include/utils/TypeHelpers.h:101:1)",
   "referenced_type" : "_ZTIN7android18trait_trivial_moveIsE6$valueE",
   "self_type" : "_ZTIN7android18trait_trivial_moveIsE6$valueE",
   "size" : 4,
   "source_file" : "/system/core/libutils/include/utils/TypeHelpers.h",
   "underlying_type" : "_ZTIj"
  },
  {
   "alignment" : 4,
   "enum_fields" :
   [
    {
     "enum_field_value" : 1,
     "name" : "android::trait_trivial_move<unsigned short>::value"
    }
   ],
   "linker_set_key" : "_ZTIN7android18trait_trivial_moveItE6$valueE",
   "name" : "android::trait_trivial_move<unsigned short>::(anonymous enum at system/core/libutils/include/utils/TypeHelpers.h:102:1)",
   "referenced_type" : "_ZTIN7android18trait_trivial_moveItE6$valueE",
   "self_type" : "_ZTIN7android18trait_trivial_moveItE6$valueE",
   "size" : 4,
   "source_file" : "/system/core/libutils/include/utils/TypeHelpers.h",
   "underlying_type" : "_ZTIj"
  },
  {
   "alignment" : 4,
   "enum_fields" :
   [
    {
     "enum_field_value" : 1,
     "name" : "android::trait_trivial_move<void>::value"
    }
   ],
   "linker_set_key" : "_ZTIN7android18trait_trivial_moveIvE6$valueE",
   "name" : "android::trait_trivial_move<void>::(anonymous enum at system/core/libutils/include/utils/TypeHelpers.h:97:1)",
   "referenced_type" : "_ZTIN7android18trait_trivial_moveIvE6$valueE",
   "self_type" : "_ZTIN7android18trait_trivial_moveIvE6$valueE",
   "size" : 4,
   "source_file" : "/system/core/libutils/include/utils/TypeHelpers.h",
   "underlying_type" : "_ZTIj"
  },
  {
   "alignment" : 4,
   "enum_fields" :
   [
    {
     "enum_field_value" : 1,
     "name" : "android::trait_trivial_move<long long>::value"
    }
   ],
   "linker_set_key" : "_ZTIN7android18trait_trivial_moveIxE6$valueE",
   "name" : "android::trait_trivial_move<long long>::(anonymous enum at system/core/libutils/include/utils/TypeHelpers.h:107:1)",
   "referenced_type" : "_ZTIN7android18trait_trivial_moveIxE6$valueE",
   "self_type" : "_ZTIN7android18trait_trivial_moveIxE6$valueE",
   "size" : 4,
   "source_file" : "/system/core/libutils/include/utils/TypeHelpers.h",
   "underlying_type" : "_ZTIj"
  },
  {
   "alignment" : 4,
   "enum_fields" :
   [
    {
     "enum_field_value" : 1,
     "name" : "android::trait_trivial_move<unsigned long long>::value"
    }
   ],
   "linker_set_key" : "_ZTIN7android18trait_trivial_moveIyE6$valueE",
   "name" : "android::trait_trivial_move<unsigned long long>::(anonymous enum at system/core/libutils/include/utils/TypeHelpers.h:108:1)",
   "referenced_type" : "_ZTIN7android18trait_trivial_moveIyE6$valueE",
   "self_type" : "_ZTIN7android18trait_trivial_moveIyE6$valueE",
   "size" : 4,
   "source_file" : "/system/core/libutils/include/utils/TypeHelpers.h",
   "underlying_type" : "_ZTIj"
  },
  {
   "alignment" : 4,
   "enum_fields" :
   [
    {
     "enum_field_value" : 0,
     "name" : "android::hidl::base::V1_0::DebugInfo::Architecture::UNKNOWN"
    },
    {
     "enum_field_value" : 1,
     "name" : "android::hidl::base::V1_0::DebugInfo::Architecture::IS_64BIT"
    },
    {
     "enum_field_value" : 2,
     "name" : "android::hidl::base::V1_0::DebugInfo::Architecture::IS_32BIT"
    }
   ],
   "linker_set_key" : "_ZTIN7android4hidl4base4V1_09DebugInfo12ArchitectureE",
   "name" : "android::hidl::base::V1_0::DebugInfo::Architecture",
   "referenced_type" : "_ZTIN7android4hidl4base4V1_09DebugInfo12ArchitectureE",
   "self_type" : "_ZTIN7android4hidl4base4V1_09DebugInfo12ArchitectureE",
   "size" : 4,
   "source_file" : "/out/soong/.intermediates/system/libhidl/transport/base/1.0/android.hidl.base@1.0_genc++_headers/gen/android/hidl/base/1.0/types.h",
   "underlying_type" : "_ZTIi"
  },
  {
   "alignment" : 4,
   "enum_fields" :
   [
    {
     "enum_field_value" : -1,
     "name" : "android::hidl::manager::V1_0::IServiceManager::PidConstant::NO_PID"
    }
   ],
   "linker_set_key" : "_ZTIN7android4hidl7manager4V1_015IServiceManager11PidConstantE",
   "name" : "android::hidl::manager::V1_0::IServiceManager::PidConstant",
   "referenced_type" : "_ZTIN7android4hidl7manager4V1_015IServiceManager11PidConstantE",
   "self_type" : "_ZTIN7android4hidl7manager4V1_015IServiceManager11PidConstantE",
   "size" : 4,
   "source_file" : "/out/soong/.intermediates/system/libhidl/transport/manager/1.0/android.hidl.manager@1.0_genc++_headers/gen/android/hidl/manager/1.0/IServiceManager.h",
   "underlying_type" : "_ZTIi"
  },
  {
   "alignment" : 1,
   "enum_fields" :
   [
    {
     "enum_field_value" : 0,
     "name" : "android::hidl::manager::V1_0::IServiceManager::Transport::EMPTY"
    },
    {
     "enum_field_value" : 1,
     "name" : "android::hidl::manager::V1_0::IServiceManager::Transport::HWBINDER"
    },
    {
     "enum_field_value" : 2,
     "name" : "android::hidl::manager::V1_0::IServiceManager::Transport::PASSTHROUGH"
    }
   ],
   "linker_set_key" : "_ZTIN7android4hidl7manager4V1_015IServiceManager9TransportE",
   "name" : "android::hidl::manager::V1_0::IServiceManager::Transport",
   "referenced_type" : "_ZTIN7android4hidl7manager4V1_015IServiceManager9TransportE",
   "self_type" : "_ZTIN7android4hidl7manager4V1_015IServiceManager9TransportE",
   "size" : 1,
   "source_file" : "/out/soong/.intermediates/system/libhidl/transport/manager/1.0/android.hidl.manager@1.0_genc++_headers/gen/android/hidl/manager/1.0/IServiceManager.h",
   "underlying_type" : "_ZTIh"
  },
  {
   "alignment" : 4,
   "enum_fields" :
   [
    {
     "enum_field_value" : 0,
     "name" : "android::Mutex::PRIVATE"
    },
    {
     "enum_field_value" : 1,
     "name" : "android::Mutex::SHARED"
    }
   ],
   "linker_set_key" : "_ZTIN7android5Mutex8$PRIVATEE",
   "name" : "android::Mutex::(anonymous enum at system/core/libutils/include/utils/Mutex.h:96:5)",
   "referenced_type" : "_ZTIN7android5Mutex8$PRIVATEE",
   "self_type" : "_ZTIN7android5Mutex8$PRIVATEE",
   "size" : 4,
   "source_file" : "/system/core/libutils/include/utils/Mutex.h",
   "underlying_type" : "_ZTIj"
  },
  {
   "alignment" : 4,
   "enum_fields" :
   [
    {
     "enum_field_value" : 0,
     "name" : "android::RWLock::PRIVATE"
    },
    {
     "enum_field_value" : 1,
     "name" : "android::RWLock::SHARED"
    }
   ],
   "linker_set_key" : "_ZTIN7android6RWLock8$PRIVATEE",
   "name" : "android::RWLock::(anonymous enum at system/core/libutils/include/utils/RWLock.h:44:5)",
   "referenced_type" : "_ZTIN7android6RWLock8$PRIVATEE",
   "self_type" : "_ZTIN7android6RWLock8$PRIVATEE",
   "size" : 4,
   "source_file" : "/system/core/libutils/include/utils/RWLock.h",
   "underlying_type" : "_ZTIj"
  },
  {
   "access" : "protected",
   "alignment" : 4,
   "enum_fields" :
   [
    {
     "enum_field_value" : 1,
     "name" : "android::RefBase::FIRST_INC_STRONG"
    }
   ],
   "linker_set_key" : "_ZTIN7android7RefBase17$FIRST_INC_STRONGE",
   "name" : "android::RefBase::(anonymous enum at system/core/libutils/include/utils/RefBase.h:313:5)",
   "referenced_type" : "_ZTIN7android7RefBase17$FIRST_INC_STRONGE",
   "self_type" : "_ZTIN7android7RefBase17$FIRST_INC_STRONGE",
   "size" : 4,
   "source_file" : "/system/core/libutils/include/utils/RefBase.h",
   "underlying_type" : "_ZTIj"
  },
  {
   "access" : "protected",
   "alignment" : 4,
   "enum_fields" :
   [
    {
     "enum_field_value" : 0,
     "name" : "android::RefBase::OBJECT_LIFETIME_STRONG"
    },
    {
     "enum_field_value" : 1,
     "name" : "android::RefBase::OBJECT_LIFETIME_WEAK"
    },
    {
     "enum_field_value" : 1,
     "name" : "android::RefBase::OBJECT_LIFETIME_MASK"
    }
   ],
   "linker_set_key" : "_ZTIN7android7RefBase21$OBJECT_LIFETIME_MASKE",
   "name" : "android::RefBase::(anonymous enum at system/core/libutils/include/utils/RefBase.h:304:5)",
   "referenced_type" : "_ZTIN7android7RefBase21$OBJECT_LIFETIME_MASKE",
   "self_type" : "_ZTIN7android7RefBase21$OBJECT_LIFETIME_MASKE",
   "size" : 4,
   "source_file" : "/system/core/libutils/include/utils/RefBase.h",
   "underlying_type" : "_ZTIj"
  },
  {
   "alignment" : 4,
   "enum_fields" :
   [
    {
     "enum_field_value" : 0,
     "name" : "android::String8::kEmptyString"
    }
   ],
   "linker_set_key" : "_ZTIN7android7String813StaticLinkageE",
   "name" : "android::String8::StaticLinkage",
   "referenced_type" : "_ZTIN7android7String813StaticLinkageE",
   "self_type" : "_ZTIN7android7String813StaticLinkageE",
   "size" : 4,
   "source_file" : "/system/core/libutils/include/utils/String8.h",
   "underlying_type" : "_ZTIj"
  },
  {
   "alignment" : 4,
   "enum_fields" :
   [
    {
     "enum_field_value" : 0,
     "name" : "android::String16::kEmptyString"
    }
   ],
   "linker_set_key" : "_ZTIN7android8String1613StaticLinkageE",
   "name" : "android::String16::StaticLinkage",
   "referenced_type" : "_ZTIN7android8String1613StaticLinkageE",
   "self_type" : "_ZTIN7android8String1613StaticLinkageE",
   "size" : 4,
   "source_file" : "/system/core/libutils/include/utils/String16.h",
   "underlying_type" : "_ZTIj"
  },
  {
   "alignment" : 4,
   "enum_fields" :
   [
    {
     "enum_field_value" : 0,
     "name" : "android::hardware::MQDescriptor<char, android::hardware::kSynchronizedReadWrite>::READPTRPOS"
    },
    {
     "enum_field_value" : 1,
     "name" : "android::hardware::MQDescriptor<char, android::hardware::kSynchronizedReadWrite>::WRITEPTRPOS"
    },
    {
     "enum_field_value" : 2,
     "name" : "android::hardware::MQDescriptor<char, android::hardware::kSynchronizedReadWrite>::DATAPTRPOS"
    },
    {
     "enum_field_value" : 3,
     "name" : "android::hardware::MQDescriptor<char, android::hardware::kSynchronizedReadWrite>::EVFLAGWORDPOS"
    }
   ],
   "linker_set_key" : "_ZTIN7android8hardware12MQDescriptorIcLNS0_8MQFlavorE1EE11GrantorTypeE",
   "name" : "android::hardware::MQDescriptor<char, android::hardware::kSynchronizedReadWrite>::GrantorType",
   "referenced_type" : "_ZTIN7android8hardware12MQDescriptorIcLNS0_8MQFlavorE1EE11GrantorTypeE",
   "self_type" : "_ZTIN7android8hardware12MQDescriptorIcLNS0_8MQFlavorE1EE11GrantorTypeE",
   "size" : 4,
   "source_file" : "/system/libhidl/base/include/hidl/MQDescriptor.h",
   "underlying_type" : "_ZTIi"
  },
  {
   "alignment" : 4,
   "enum_fields" :
   [
    {
     "enum_field_value" : 0,
     "name" : "android::hardware::MQDescriptor<unsigned char, android::hardware::kSynchronizedReadWrite>::READPTRPOS"
    },
    {
     "enum_field_value" : 1,
     "name" : "android::hardware::MQDescriptor<unsigned char, android::hardware::kSynchronizedReadWrite>::WRITEPTRPOS"
    },
    {
     "enum_field_value" : 2,
     "name" : "android::hardware::MQDescriptor<unsigned char, android::hardware::kSynchronizedReadWrite>::DATAPTRPOS"
    },
    {
     "enum_field_value" : 3,
     "name" : "android::hardware::MQDescriptor<unsigned char, android::hardware::kSynchronizedReadWrite>::EVFLAGWORDPOS"
    }
   ],
   "linker_set_key" : "_ZTIN7android8hardware12MQDescriptorIhLNS0_8MQFlavorE1EE11GrantorTypeE",
   "name" : "android::hardware::MQDescriptor<unsigned char, android::hardware::kSynchronizedReadWrite>::GrantorType",
   "referenced_type" : "_ZTIN7android8hardware12MQDescriptorIhLNS0_8MQFlavorE1EE11GrantorTypeE",
   "self_type" : "_ZTIN7android8hardware12MQDescriptorIhLNS0_8MQFlavorE1EE11GrantorTypeE",
   "size" : 4,
   "source_file" : "/system/libhidl/base/include/hidl/MQDescriptor.h",
   "underlying_type" : "_ZTIi"
  },
  {
   "alignment" : 4,
   "enum_fields" :
   [
    {
     "enum_field_value" : 0,
     "name" : "android::hardware::ProcessState::CallRestriction::NONE"
    },
    {
     "enum_field_value" : 1,
     "name" : "android::hardware::ProcessState::CallRestriction::ERROR_IF_NOT_ONEWAY"
    },
    {
     "enum_field_value" : 2,
     "name" : "android::hardware::ProcessState::CallRestriction::FATAL_IF_NOT_ONEWAY"
    }
   ],
   "linker_set_key" : "_ZTIN7android8hardware12ProcessState15CallRestrictionE",
   "name" : "android::hardware::ProcessState::CallRestriction",
   "referenced_type" : "_ZTIN7android8hardware12ProcessState15CallRestrictionE",
   "self_type" : "_ZTIN7android8hardware12ProcessState15CallRestrictionE",
   "size" : 4,
   "source_file" : "/system/libhwbinder/include/hwbinder/ProcessState.h",
   "underlying_type" : "_ZTIi"
  },
  {
   "alignment" : 4,
   "enum_fields" :
   [
    {
     "enum_field_value" : 0,
     "name" : "android::hardware::HidlReturnRestriction::NONE"
    },
    {
     "enum_field_value" : 1,
     "name" : "android::hardware::HidlReturnRestriction::ERROR_IF_UNCHECKED"
    },
    {
     "enum_field_value" : 2,
     "name" : "android::hardware::HidlReturnRestriction::FATAL_IF_UNCHECKED"
    }
   ],
   "linker_set_key" : "_ZTIN7android8hardware21HidlReturnRestrictionE",
   "name" : "android::hardware::HidlReturnRestriction",
   "referenced_type" : "_ZTIN7android8hardware21HidlReturnRestrictionE",
   "self_type" : "_ZTIN7android8hardware21HidlReturnRestrictionE",
   "size" : 4,
   "source_file" : "/system/libhidl/base/include/hidl/Status.h",
   "underlying_type" : "_ZTIi"
  },
  {
   "alignment" : 4,
   "enum_fields" :
   [
    {
     "enum_field_value" : 0,
     "name" : "android::hardware::tv::tuner::V1_0::DataFormat::TS"
    },
    {
     "enum_field_value" : 1,
     "name" : "android::hardware::tv::tuner::V1_0::DataFormat::PES"
    },
    {
     "enum_field_value" : 2,
     "name" : "android::hardware::tv::tuner::V1_0::DataFormat::ES"
    },
    {
     "enum_field_value" : 3,
     "name" : "android::hardware::tv::tuner::V1_0::DataFormat::SHV_TLV"
    }
   ],
   "linker_set_key" : "_ZTIN7android8hardware2tv5tuner4V1_010DataFormatE",
   "name" : "android::hardware::tv::tuner::V1_0::DataFormat",
   "referenced_type" : "_ZTIN7android8hardware2tv5tuner4V1_010DataFormatE",
   "self_type" : "_ZTIN7android8hardware2tv5tuner4V1_010DataFormatE",
   "size" : 4,
   "source_file" : "/out/soong/.intermediates/hardware/interfaces/tv/tuner/1.0/android.hardware.tv.tuner@1.0_genc++_headers/gen/android/hardware/tv/tuner/1.0/types.h",
   "underlying_type" : "_ZTIj"
  },
  {
   "alignment" : 4,
   "enum_fields" :
   [
    {
     "enum_field_value" : 0,
     "name" : "android::hardware::tv::tuner::V1_0::LnbVoltage::NONE"
    },
    {
     "enum_field_value" : 1,
     "name" : "android::hardware::tv::tuner::V1_0::LnbVoltage::VOLTAGE_5V"
    },
    {
     "enum_field_value" : 2,
     "name" : "android::hardware::tv::tuner::V1_0::LnbVoltage::VOLTAGE_11V"
    },
    {
     "enum_field_value" : 3,
     "name" : "android::hardware::tv::tuner::V1_0::LnbVoltage::VOLTAGE_12V"
    },
    {
     "enum_field_value" : 4,
     "name" : "android::hardware::tv::tuner::V1_0::LnbVoltage::VOLTAGE_13V"
    },
    {
     "enum_field_value" : 5,
     "name" : "android::hardware::tv::tuner::V1_0::LnbVoltage::VOLTAGE_14V"
    },
    {
     "enum_field_value" : 6,
     "name" : "android::hardware::tv::tuner::V1_0::LnbVoltage::VOLTAGE_15V"
    },
    {
     "enum_field_value" : 7,
     "name" : "android::hardware::tv::tuner::V1_0::LnbVoltage::VOLTAGE_18V"
    },
    {
     "enum_field_value" : 8,
     "name" : "android::hardware::tv::tuner::V1_0::LnbVoltage::VOLTAGE_19V"
    }
   ],
   "linker_set_key" : "_ZTIN7android8hardware2tv5tuner4V1_010LnbVoltageE",
   "name" : "android::hardware::tv::tuner::V1_0::LnbVoltage",
   "referenced_type" : "_ZTIN7android8hardware2tv5tuner4V1_010LnbVoltageE",
   "self_type" : "_ZTIN7android8hardware2tv5tuner4V1_010LnbVoltageE",
   "size" : 4,
   "source_file" : "/out/soong/.intermediates/hardware/interfaces/tv/tuner/1.0/android.hardware.tv.tuner@1.0_genc++_headers/gen/android/hardware/tv/tuner/1.0/types.h",
   "underlying_type" : "_ZTIj"
  },
  {
   "alignment" : 1,
   "enum_fields" :
   [
    {
     "enum_field_value" : 0,
     "name" : "android::hardware::tv::tuner::V1_0::DvrSettings::hidl_discriminator::record"
    },
    {
     "enum_field_value" : 1,
     "name" : "android::hardware::tv::tuner::V1_0::DvrSettings::hidl_discriminator::playback"
    }
   ],
   "linker_set_key" : "_ZTIN7android8hardware2tv5tuner4V1_011DvrSettings18hidl_discriminatorE",
   "name" : "android::hardware::tv::tuner::V1_0::DvrSettings::hidl_discriminator",
   "referenced_type" : "_ZTIN7android8hardware2tv5tuner4V1_011DvrSettings18hidl_discriminatorE",
   "self_type" : "_ZTIN7android8hardware2tv5tuner4V1_011DvrSettings18hidl_discriminatorE",
   "size" : 1,
   "source_file" : "/out/soong/.intermediates/hardware/interfaces/tv/tuner/1.0/android.hardware.tv.tuner@1.0_genc++_headers/gen/android/hardware/tv/tuner/1.0/types.h",
   "underlying_type" : "_ZTIh"
  },
  {
   "alignment" : 4,
   "enum_fields" :
   [
    {
     "enum_field_value" : 0,
     "name" : "android::hardware::tv::tuner::V1_0::LnbPosition::UNDEFINED"
    },
    {
     "enum_field_value" : 1,
     "name" : "android::hardware::tv::tuner::V1_0::LnbPosition::POSITION_A"
    },
    {
     "enum_field_value" : 2,
     "name" : "android::hardware::tv::tuner::V1_0::LnbPosition::POSITION_B"
    }
   ],
   "linker_set_key" : "_ZTIN7android8hardware2tv5tuner4V1_011LnbPositionE",
   "name" : "android::hardware::tv::tuner::V1_0::LnbPosition",
   "referenced_type" : "_ZTIN7android8hardware2tv5tuner4V1_011LnbPositionE",
   "self_type" : "_ZTIN7android8hardware2tv5tuner4V1_011LnbPositionE",
   "size" : 4,
   "source_file" : "/out/soong/.intermediates/hardware/interfaces/tv/tuner/1.0/android.hardware.tv.tuner@1.0_genc++_headers/gen/android/hardware/tv/tuner/1.0/types.h",
   "underlying_type" : "_ZTIi"
  },
  {
   "alignment" : 4,
   "enum_fields" :
   [
    {
     "enum_field_value" : 1,
     "name" : "android::hardware::tv::tuner::V1_0::DemuxScIndex::I_FRAME"
    },
    {
     "enum_field_value" : 2,
     "name" : "android::hardware::tv::tuner::V1_0::DemuxScIndex::P_FRAME"
    },
    {
     "enum_field_value" : 4,
     "name" : "android::hardware::tv::tuner::V1_0::DemuxScIndex::B_FRAME"
    },
    {
     "enum_field_value" : 8,
     "name" : "android::hardware::tv::tuner::V1_0::DemuxScIndex::SEQUENCE"
    }
   ],
   "linker_set_key" : "_ZTIN7android8hardware2tv5tuner4V1_012DemuxScIndexE",
   "name" : "android::hardware::tv::tuner::V1_0::DemuxScIndex",
   "referenced_type" : "_ZTIN7android8hardware2tv5tuner4V1_012DemuxScIndexE",
   "self_type" : "_ZTIN7android8hardware2tv5tuner4V1_012DemuxScIndexE",
   "size" : 4,
   "source_file" : "/out/soong/.intermediates/hardware/interfaces/tv/tuner/1.0/android.hardware.tv.tuner@1.0_genc++_headers/gen/android/hardware/tv/tuner/1.0/types.h",
   "underlying_type" : "_ZTIj"
  },
  {
   "alignment" : 4,
   "enum_fields" :
   [
    {
     "enum_field_value" : 1,
     "name" : "android::hardware::tv::tuner::V1_0::DemuxTsIndex::FIRST_PACKET"
    },
    {
     "enum_field_value" : 2,
     "name" : "android::hardware::tv::tuner::V1_0::DemuxTsIndex::PAYLOAD_UNIT_START_INDICATOR"
    },
    {
     "enum_field_value" : 4,
     "name" : "android::hardware::tv::tuner::V1_0::DemuxTsIndex::CHANGE_TO_NOT_SCRAMBLED"
    },
    {
     "enum_field_value" : 8,
     "name" : "android::hardware::tv::tuner::V1_0::DemuxTsIndex::CHANGE_TO_EVEN_SCRAMBLED"
    },
    {
     "enum_field_value" : 16,
     "name" : "android::hardware::tv::tuner::V1_0::DemuxTsIndex::CHANGE_TO_ODD_SCRAMBLED"
    },
    {
     "enum_field_value" : 32,
     "name" : "android::hardware::tv::tuner::V1_0::DemuxTsIndex::DISCONTINUITY_INDICATOR"
    },
    {
     "enum_field_value" : 64,
     "name" : "android::hardware::tv::tuner::V1_0::DemuxTsIndex::RANDOM_ACCESS_INDICATOR"
    },
    {
     "enum_field_value" : 128,
     "name" : "android::hardware::tv::tuner::V1_0::DemuxTsIndex::PRIORITY_INDICATOR"
    },
    {
     "enum_field_value" : 256,
     "name" : "android::hardware::tv::tuner::V1_0::DemuxTsIndex::PCR_FLAG"
    },
    {
     "enum_field_value" : 512,
     "name" : "android::hardware::tv::tuner::V1_0::DemuxTsIndex::OPCR_FLAG"
    },
    {
     "enum_field_value" : 1024,
     "name" : "android::hardware::tv::tuner::V1_0::DemuxTsIndex::SPLICING_POINT_FLAG"
    },
    {
     "enum_field_value" : 2048,
     "name" : "android::hardware::tv::tuner::V1_0::DemuxTsIndex::PRIVATE_DATA"
    },
    {
     "enum_field_value" : 4096,
     "name" : "android::hardware::tv::tuner::V1_0::DemuxTsIndex::ADAPTATION_EXTENSION_FLAG"
    }
   ],
   "linker_set_key" : "_ZTIN7android8hardware2tv5tuner4V1_012DemuxTsIndexE",
   "name" : "android::hardware::tv::tuner::V1_0::DemuxTsIndex",
   "referenced_type" : "_ZTIN7android8hardware2tv5tuner4V1_012DemuxTsIndexE",
   "self_type" : "_ZTIN7android8hardware2tv5tuner4V1_012DemuxTsIndexE",
   "size" : 4,
   "source_file" : "/out/soong/.intermediates/hardware/interfaces/tv/tuner/1.0/android.hardware.tv.tuner@1.0_genc++_headers/gen/android/hardware/tv/tuner/1.0/types.h",
   "underlying_type" : "_ZTIj"
  },
  {
   "alignment" : 1,
   "enum_fields" :
   [
    {
     "enum_field_value" : 0,
     "name" : "android::hardware::tv::tuner::V1_0::FrontendInfo::FrontendCapabilities::hidl_discriminator::analogCaps"
    },
    {
     "enum_field_value" : 1,
     "name" : "android::hardware::tv::tuner::V1_0::FrontendInfo::FrontendCapabilities::hidl_discriminator::atscCaps"
    },
    {
     "enum_field_value" : 2,
     "name" : "android::hardware::tv::tuner::V1_0::FrontendInfo::FrontendCapabilities::hidl_discriminator::atsc3Caps"
    },
    {
     "enum_field_value" : 3,
     "name" : "android::hardware::tv::tuner::V1_0::FrontendInfo::FrontendCapabilities::hidl_discriminator::dvbsCaps"
    },
    {
     "enum_field_value" : 4,
     "name" : "android::hardware::tv::tuner::V1_0::FrontendInfo::FrontendCapabilities::hidl_discriminator::dvbcCaps"
    },
    {
     "enum_field_value" : 5,
     "name" : "android::hardware::tv::tuner::V1_0::FrontendInfo::FrontendCapabilities::hidl_discriminator::dvbtCaps"
    },
    {
     "enum_field_value" : 6,
     "name" : "android::hardware::tv::tuner::V1_0::FrontendInfo::FrontendCapabilities::hidl_discriminator::isdbsCaps"
    },
    {
     "enum_field_value" : 7,
     "name" : "android::hardware::tv::tuner::V1_0::FrontendInfo::FrontendCapabilities::hidl_discriminator::isdbs3Caps"
    },
    {
     "enum_field_value" : 8,
     "name" : "android::hardware::tv::tuner::V1_0::FrontendInfo::FrontendCapabilities::hidl_discriminator::isdbtCaps"
    }
   ],
   "linker_set_key" : "_ZTIN7android8hardware2tv5tuner4V1_012FrontendInfo20FrontendCapabilities18hidl_discriminatorE",
   "name" : "android::hardware::tv::tuner::V1_0::FrontendInfo::FrontendCapabilities::hidl_discriminator",
   "referenced_type" : "_ZTIN7android8hardware2tv5tuner4V1_012FrontendInfo20FrontendCapabilities18hidl_discriminatorE",
   "self_type" : "_ZTIN7android8hardware2tv5tuner4V1_012FrontendInfo20FrontendCapabilities18hidl_discriminatorE",
   "size" : 1,
   "source_file" : "/out/soong/.intermediates/hardware/interfaces/tv/tuner/1.0/android.hardware.tv.tuner@1.0_genc++_headers/gen/android/hardware/tv/tuner/1.0/types.h",
   "underlying_type" : "_ZTIh"
  },
  {
   "alignment" : 4,
   "enum_fields" :
   [
    {
     "enum_field_value" : 0,
     "name" : "android::hardware::tv::tuner::V1_0::FrontendType::UNDEFINED"
    },
    {
     "enum_field_value" : 1,
     "name" : "android::hardware::tv::tuner::V1_0::FrontendType::ANALOG"
    },
    {
     "enum_field_value" : 2,
     "name" : "android::hardware::tv::tuner::V1_0::FrontendType::ATSC"
    },
    {
     "enum_field_value" : 3,
     "name" : "android::hardware::tv::tuner::V1_0::FrontendType::ATSC3"
    },
    {
     "enum_field_value" : 4,
     "name" : "android::hardware::tv::tuner::V1_0::FrontendType::DVBC"
    },
    {
     "enum_field_value" : 5,
     "name" : "android::hardware::tv::tuner::V1_0::FrontendType::DVBS"
    },
    {
     "enum_field_value" : 6,
     "name" : "android::hardware::tv::tuner::V1_0::FrontendType::DVBT"
    },
    {
     "enum_field_value" : 7,
     "name" : "android::hardware::tv::tuner::V1_0::FrontendType::ISDBS"
    },
    {
     "enum_field_value" : 8,
     "name" : "android::hardware::tv::tuner::V1_0::FrontendType::ISDBS3"
    },
    {
     "enum_field_value" : 9,
     "name" : "android::hardware::tv::tuner::V1_0::FrontendType::ISDBT"
    }
   ],
   "linker_set_key" : "_ZTIN7android8hardware2tv5tuner4V1_012FrontendTypeE",
   "name" : "android::hardware::tv::tuner::V1_0::FrontendType",
   "referenced_type" : "_ZTIN7android8hardware2tv5tuner4V1_012FrontendTypeE",
   "self_type" : "_ZTIN7android8hardware2tv5tuner4V1_012FrontendTypeE",
   "size" : 4,
   "source_file" : "/out/soong/.intermediates/hardware/interfaces/tv/tuner/1.0/android.hardware.tv.tuner@1.0_genc++_headers/gen/android/hardware/tv/tuner/1.0/types.h",
   "underlying_type" : "_ZTIj"
  },
  {
   "alignment" : 4,
   "enum_fields" :
   [
    {
     "enum_field_value" : 0,
     "name" : "android::hardware::tv::tuner::V1_0::LnbEventType::DISEQC_RX_OVERFLOW"
    },
    {
     "enum_field_value" : 1,
     "name" : "android::hardware::tv::tuner::V1_0::LnbEventType::DISEQC_RX_TIMEOUT"
    },
    {
     "enum_field_value" : 2,
     "name" : "android::hardware::tv::tuner::V1_0::LnbEventType::DISEQC_RX_PARITY_ERROR"
    },
    {
     "enum_field_value" : 3,
     "name" : "android::hardware::tv::tuner::V1_0::LnbEventType::LNB_OVERLOAD"
    }
   ],
   "linker_set_key" : "_ZTIN7android8hardware2tv5tuner4V1_012LnbEventTypeE",
   "name" : "android::hardware::tv::tuner::V1_0::LnbEventType",
   "referenced_type" : "_ZTIN7android8hardware2tv5tuner4V1_012LnbEventTypeE",
   "self_type" : "_ZTIN7android8hardware2tv5tuner4V1_012LnbEventTypeE",
   "size" : 4,
   "source_file" : "/out/soong/.intermediates/hardware/interfaces/tv/tuner/1.0/android.hardware.tv.tuner@1.0_genc++_headers/gen/android/hardware/tv/tuner/1.0/types.h",
   "underlying_type" : "_ZTIj"
  },
  {
   "alignment" : 1,
   "enum_fields" :
   [
    {
     "enum_field_value" : 0,
     "name" : "android::hardware::tv::tuner::V1_0::DemuxIpAddress::DstIpAddress::hidl_discriminator::v4"
    },
    {
     "enum_field_value" : 1,
     "name" : "android::hardware::tv::tuner::V1_0::DemuxIpAddress::DstIpAddress::hidl_discriminator::v6"
    }
   ],
   "linker_set_key" : "_ZTIN7android8hardware2tv5tuner4V1_014DemuxIpAddress12DstIpAddress18hidl_discriminatorE",
   "name" : "android::hardware::tv::tuner::V1_0::DemuxIpAddress::DstIpAddress::hidl_discriminator",
   "referenced_type" : "_ZTIN7android8hardware2tv5tuner4V1_014DemuxIpAddress12DstIpAddress18hidl_discriminatorE",
   "self_type" : "_ZTIN7android8hardware2tv5tuner4V1_014DemuxIpAddress12DstIpAddress18hidl_discriminatorE",
   "size" : 1,
   "source_file" : "/out/soong/.intermediates/hardware/interfaces/tv/tuner/1.0/android.hardware.tv.tuner@1.0_genc++_headers/gen/android/hardware/tv/tuner/1.0/types.h",
   "underlying_type" : "_ZTIh"
  },
  {
   "alignment" : 1,
   "enum_fields" :
   [
    {
     "enum_field_value" : 0,
     "name" : "android::hardware::tv::tuner::V1_0::DemuxIpAddress::SrcIpAddress::hidl_discriminator::v4"
    },
    {
     "enum_field_value" : 1,
     "name" : "android::hardware::tv::tuner::V1_0::DemuxIpAddress::SrcIpAddress::hidl_discriminator::v6"
    }
   ],
   "linker_set_key" : "_ZTIN7android8hardware2tv5tuner4V1_014DemuxIpAddress12SrcIpAddress18hidl_discriminatorE",
   "name" : "android::hardware::tv::tuner::V1_0::DemuxIpAddress::SrcIpAddress::hidl_discriminator",
   "referenced_type" : "_ZTIN7android8hardware2tv5tuner4V1_014DemuxIpAddress12SrcIpAddress18hidl_discriminatorE",
   "self_type" : "_ZTIN7android8hardware2tv5tuner4V1_014DemuxIpAddress12SrcIpAddress18hidl_discriminatorE",
   "size" : 1,
   "source_file" : "/out/soong/.intermediates/hardware/interfaces/tv/tuner/1.0/android.hardware.tv.tuner@1.0_genc++_headers/gen/android/hardware/tv/tuner/1.0/types.h",
   "underlying_type" : "_ZTIh"
  },
  {
   "alignment" : 1,
   "enum_fields" :
   [
    {
     "enum_field_value" : 0,
     "name" : "android::hardware::tv::tuner::V1_0::FrontendStatus::hidl_discriminator::isDemodLocked"
    },
    {
     "enum_field_value" : 1,
     "name" : "android::hardware::tv::tuner::V1_0::FrontendStatus::hidl_discriminator::snr"
    },
    {
     "enum_field_value" : 2,
     "name" : "android::hardware::tv::tuner::V1_0::FrontendStatus::hidl_discriminator::ber"
    },
    {
     "enum_field_value" : 3,
     "name" : "android::hardware::tv::tuner::V1_0::FrontendStatus::hidl_discriminator::per"
    },
    {
     "enum_field_value" : 4,
     "name" : "android::hardware::tv::tuner::V1_0::FrontendStatus::hidl_discriminator::preBer"
    },
    {
     "enum_field_value" : 5,
     "name" : "android::hardware::tv::tuner::V1_0::FrontendStatus::hidl_discriminator::signalQuality"
    },
    {
     "enum_field_value" : 6,
     "name" : "android::hardware::tv::tuner::V1_0::FrontendStatus::hidl_discriminator::signalStrength"
    },
    {
     "enum_field_value" : 7,
     "name" : "android::hardware::tv::tuner::V1_0::FrontendStatus::hidl_discriminator::symbolRate"
    },
    {
     "enum_field_value" : 8,
     "name" : "android::hardware::tv::tuner::V1_0::FrontendStatus::hidl_discriminator::innerFec"
    },
    {
     "enum_field_value" : 9,
     "name" : "android::hardware::tv::tuner::V1_0::FrontendStatus::hidl_discriminator::modulation"
    },
    {
     "enum_field_value" : 10,
     "name" : "android::hardware::tv::tuner::V1_0::FrontendStatus::hidl_discriminator::inversion"
    },
    {
     "enum_field_value" : 11,
     "name" : "android::hardware::tv::tuner::V1_0::FrontendStatus::hidl_discriminator::lnbVoltage"
    },
    {
     "enum_field_value" : 12,
     "name" : "android::hardware::tv::tuner::V1_0::FrontendStatus::hidl_discriminator::plpId"
    },
    {
     "enum_field_value" : 13,
     "name" : "android::hardware::tv::tuner::V1_0::FrontendStatus::hidl_discriminator::isEWBS"
    },
    {
     "enum_field_value" : 14,
     "name" : "android::hardware::tv::tuner::V1_0::FrontendStatus::hidl_discriminator::agc"
    },
    {
     "enum_field_value" : 15,
     "name" : "android::hardware::tv::tuner::V1_0::FrontendStatus::hidl_discriminator::isLnaOn"
    },
    {
     "enum_field_value" : 16,
     "name" : "android::hardware::tv::tuner::V1_0::FrontendStatus::hidl_discriminator::isLayerError"
    },
    {
     "enum_field_value" : 17,
     "name" : "android::hardware::tv::tuner::V1_0::FrontendStatus::hidl_discriminator::mer"
    },
    {
     "enum_field_value" : 18,
     "name" : "android::hardware::tv::tuner::V1_0::FrontendStatus::hidl_discriminator::freqOffset"
    },
    {
     "enum_field_value" : 19,
     "name" : "android::hardware::tv::tuner::V1_0::FrontendStatus::hidl_discriminator::hierarchy"
    },
    {
     "enum_field_value" : 20,
     "name" : "android::hardware::tv::tuner::V1_0::FrontendStatus::hidl_discriminator::isRfLocked"
    },
    {
     "enum_field_value" : 21,
     "name" : "android::hardware::tv::tuner::V1_0::FrontendStatus::hidl_discriminator::plpInfo"
    }
   ],
   "linker_set_key" : "_ZTIN7android8hardware2tv5tuner4V1_014FrontendStatus18hidl_discriminatorE",
   "name" : "android::hardware::tv::tuner::V1_0::FrontendStatus::hidl_discriminator",
   "referenced_type" : "_ZTIN7android8hardware2tv5tuner4V1_014FrontendStatus18hidl_discriminatorE",
   "self_type" : "_ZTIN7android8hardware2tv5tuner4V1_014FrontendStatus18hidl_discriminatorE",
   "size" : 1,
   "source_file" : "/out/soong/.intermediates/hardware/interfaces/tv/tuner/1.0/android.hardware.tv.tuner@1.0_genc++_headers/gen/android/hardware/tv/tuner/1.0/types.h",
   "underlying_type" : "_ZTIh"
  },
  {
   "alignment" : 4,
   "enum_fields" :
   [
    {
     "enum_field_value" : 1,
     "name" : "android::hardware::tv::tuner::V1_0::PlaybackStatus::SPACE_EMPTY"
    },
    {
     "enum_field_value" : 2,
     "name" : "android::hardware::tv::tuner::V1_0::PlaybackStatus::SPACE_ALMOST_EMPTY"
    },
    {
     "enum_field_value" : 4,
     "name" : "android::hardware::tv::tuner::V1_0::PlaybackStatus::SPACE_ALMOST_FULL"
    },
    {
     "enum_field_value" : 8,
     "name" : "android::hardware::tv::tuner::V1_0::PlaybackStatus::SPACE_FULL"
    }
   ],
   "linker_set_key" : "_ZTIN7android8hardware2tv5tuner4V1_014PlaybackStatusE",
   "name" : "android::hardware::tv::tuner::V1_0::PlaybackStatus",
   "referenced_type" : "_ZTIN7android8hardware2tv5tuner4V1_014PlaybackStatusE",
   "self_type" : "_ZTIN7android8hardware2tv5tuner4V1_014PlaybackStatusE",
   "size" : 4,
   "source_file" : "/out/soong/.intermediates/hardware/interfaces/tv/tuner/1.0/android.hardware.tv.tuner@1.0_genc++_headers/gen/android/hardware/tv/tuner/1.0/types.h",
   "underlying_type" : "_ZTIj"
  },
  {
   "alignment" : 1,
   "enum_fields" :
   [
    {
     "enum_field_value" : 0,
     "name" : "android::hardware::tv::tuner::V1_0::DemuxFilterType::DemuxFilterSubType::hidl_discriminator::tsFilterType"
    },
    {
     "enum_field_value" : 1,
     "name" : "android::hardware::tv::tuner::V1_0::DemuxFilterType::DemuxFilterSubType::hidl_discriminator::mmtpFilterType"
    },
    {
     "enum_field_value" : 2,
     "name" : "android::hardware::tv::tuner::V1_0::DemuxFilterType::DemuxFilterSubType::hidl_discriminator::ipFilterType"
    },
    {
     "enum_field_value" : 3,
     "name" : "android::hardware::tv::tuner::V1_0::DemuxFilterType::DemuxFilterSubType::hidl_discriminator::tlvFilterType"
    },
    {
     "enum_field_value" : 4,
     "name" : "android::hardware::tv::tuner::V1_0::DemuxFilterType::DemuxFilterSubType::hidl_discriminator::alpFilterType"
    }
   ],
   "linker_set_key" : "_ZTIN7android8hardware2tv5tuner4V1_015DemuxFilterType18DemuxFilterSubType18hidl_discriminatorE",
   "name" : "android::hardware::tv::tuner::V1_0::DemuxFilterType::DemuxFilterSubType::hidl_discriminator",
   "referenced_type" : "_ZTIN7android8hardware2tv5tuner4V1_015DemuxFilterType18DemuxFilterSubType18hidl_discriminatorE",
   "self_type" : "_ZTIN7android8hardware2tv5tuner4V1_015DemuxFilterType18DemuxFilterSubType18hidl_discriminatorE",
   "size" : 1,
   "source_file" : "/out/soong/.intermediates/hardware/interfaces/tv/tuner/1.0/android.hardware.tv.tuner@1.0_genc++_headers/gen/android/hardware/tv/tuner/1.0/types.h",
   "underlying_type" : "_ZTIh"
  },
  {
   "alignment" : 1,
   "enum_fields" :
   [
    {
     "enum_field_value" : 0,
     "name" : "android::hardware::tv::tuner::V1_0::DemuxFilterEvent::Event::hidl_discriminator::section"
    },
    {
     "enum_field_value" : 1,
     "name" : "android::hardware::tv::tuner::V1_0::DemuxFilterEvent::Event::hidl_discriminator::media"
    },
    {
     "enum_field_value" : 2,
     "name" : "android::hardware::tv::tuner::V1_0::DemuxFilterEvent::Event::hidl_discriminator::pes"
    },
    {
     "enum_field_value" : 3,
     "name" : "android::hardware::tv::tuner::V1_0::DemuxFilterEvent::Event::hidl_discriminator::tsRecord"
    },
    {
     "enum_field_value" : 4,
     "name" : "android::hardware::tv::tuner::V1_0::DemuxFilterEvent::Event::hidl_discriminator::mmtpRecord"
    },
    {
     "enum_field_value" : 5,
     "name" : "android::hardware::tv::tuner::V1_0::DemuxFilterEvent::Event::hidl_discriminator::download"
    },
    {
     "enum_field_value" : 6,
     "name" : "android::hardware::tv::tuner::V1_0::DemuxFilterEvent::Event::hidl_discriminator::ipPayload"
    },
    {
     "enum_field_value" : 7,
     "name" : "android::hardware::tv::tuner::V1_0::DemuxFilterEvent::Event::hidl_discriminator::temi"
    }
   ],
   "linker_set_key" : "_ZTIN7android8hardware2tv5tuner4V1_016DemuxFilterEvent5Event18hidl_discriminatorE",
   "name" : "android::hardware::tv::tuner::V1_0::DemuxFilterEvent::Event::hidl_discriminator",
   "referenced_type" : "_ZTIN7android8hardware2tv5tuner4V1_016DemuxFilterEvent5Event18hidl_discriminatorE",
   "self_type" : "_ZTIN7android8hardware2tv5tuner4V1_016DemuxFilterEvent5Event18hidl_discriminatorE",
   "size" : 1,
   "source_file" : "/out/soong/.intermediates/hardware/interfaces/tv/tuner/1.0/android.hardware.tv.tuner@1.0_genc++_headers/gen/android/hardware/tv/tuner/1.0/types.h",
   "underlying_type" : "_ZTIh"
  },
  {
   "alignment" : 4,
   "enum_fields" :
   [
    {
     "enum_field_value" : 1,
     "name" : "android::hardware::tv::tuner::V1_0::DemuxScHevcIndex::SPS"
    },
    {
     "enum_field_value" : 2,
     "name" : "android::hardware::tv::tuner::V1_0::DemuxScHevcIndex::AUD"
    },
    {
     "enum_field_value" : 4,
     "name" : "android::hardware::tv::tuner::V1_0::DemuxScHevcIndex::SLICE_CE_BLA_W_LP"
    },
    {
     "enum_field_value" : 8,
     "name" : "android::hardware::tv::tuner::V1_0::DemuxScHevcIndex::SLICE_BLA_W_RADL"
    },
    {
     "enum_field_value" : 16,
     "name" : "android::hardware::tv::tuner::V1_0::DemuxScHevcIndex::SLICE_BLA_N_LP"
    },
    {
     "enum_field_value" : 32,
     "name" : "android::hardware::tv::tuner::V1_0::DemuxScHevcIndex::SLICE_IDR_W_RADL"
    },
    {
     "enum_field_value" : 64,
     "name" : "android::hardware::tv::tuner::V1_0::DemuxScHevcIndex::SLICE_IDR_N_LP"
    },
    {
     "enum_field_value" : 128,
     "name" : "android::hardware::tv::tuner::V1_0::DemuxScHevcIndex::SLICE_TRAIL_CRA"
    }
   ],
   "linker_set_key" : "_ZTIN7android8hardware2tv5tuner4V1_016DemuxScHevcIndexE",
   "name" : "android::hardware::tv::tuner::V1_0::DemuxScHevcIndex",
   "referenced_type" : "_ZTIN7android8hardware2tv5tuner4V1_016DemuxScHevcIndexE",
   "self_type" : "_ZTIN7android8hardware2tv5tuner4V1_016DemuxScHevcIndexE",
   "size" : 4,
   "source_file" : "/out/soong/.intermediates/hardware/interfaces/tv/tuner/1.0/android.hardware.tv.tuner@1.0_genc++_headers/gen/android/hardware/tv/tuner/1.0/types.h",
   "underlying_type" : "_ZTIj"
  },
  {
   "alignment" : 4,
   "enum_fields" :
   [
    {
     "enum_field_value" : 0,
     "name" : "android::hardware::tv::tuner::V1_0::FrontendAtsc3Fec::UNDEFINED"
    },
    {
     "enum_field_value" : 1,
     "name" : "android::hardware::tv::tuner::V1_0::FrontendAtsc3Fec::AUTO"
    },
    {
     "enum_field_value" : 2,
     "name" : "android::hardware::tv::tuner::V1_0::FrontendAtsc3Fec::BCH_LDPC_16K"
    },
    {
     "enum_field_value" : 4,
     "name" : "android::hardware::tv::tuner::V1_0::FrontendAtsc3Fec::BCH_LDPC_64K"
    },
    {
     "enum_field_value" : 8,
     "name" : "android::hardware::tv::tuner::V1_0::FrontendAtsc3Fec::CRC_LDPC_16K"
    },
    {
     "enum_field_value" : 16,
     "name" : "android::hardware::tv::tuner::V1_0::FrontendAtsc3Fec::CRC_LDPC_64K"
    },
    {
     "enum_field_value" : 32,
     "name" : "android::hardware::tv::tuner::V1_0::FrontendAtsc3Fec::LDPC_16K"
    },
    {
     "enum_field_value" : 64,
     "name" : "android::hardware::tv::tuner::V1_0::FrontendAtsc3Fec::LDPC_64K"
    }
   ],
   "linker_set_key" : "_ZTIN7android8hardware2tv5tuner4V1_016FrontendAtsc3FecE",
   "name" : "android::hardware::tv::tuner::V1_0::FrontendAtsc3Fec",
   "referenced_type" : "_ZTIN7android8hardware2tv5tuner4V1_016FrontendAtsc3FecE",
   "self_type" : "_ZTIN7android8hardware2tv5tuner4V1_016FrontendAtsc3FecE",
   "size" : 4,
   "source_file" : "/out/soong/.intermediates/hardware/interfaces/tv/tuner/1.0/android.hardware.tv.tuner@1.0_genc++_headers/gen/android/hardware/tv/tuner/1.0/types.h",
   "underlying_type" : "_ZTIj"
  },
  {
   "alignment" : 8,
   "enum_fields" :
   [
    {
     "enum_field_value" : 0,
     "name" : "android::hardware::tv::tuner::V1_0::FrontendInnerFec::FEC_UNDEFINED"
    },
    {
     "enum_field_value" : 1,
     "name" : "android::hardware::tv::tuner::V1_0::FrontendInnerFec::AUTO"
    },
    {
     "enum_field_value" : 2,
     "name" : "android::hardware::tv::tuner::V1_0::FrontendInnerFec::FEC_1_2"
    },
    {
     "enum_field_value" : 4,
     "name" : "android::hardware::tv::tuner::V1_0::FrontendInnerFec::FEC_1_3"
    },
    {
     "enum_field_value" : 8,
     "name" : "android::hardware::tv::tuner::V1_0::FrontendInnerFec::FEC_1_4"
    },
    {
     "enum_field_value" : 16,
     "name" : "android::hardware::tv::tuner::V1_0::FrontendInnerFec::FEC_1_5"
    },
    {
     "enum_field_value" : 32,
     "name" : "android::hardware::tv::tuner::V1_0::FrontendInnerFec::FEC_2_3"
    },
    {
     "enum_field_value" : 64,
     "name" : "android::hardware::tv::tuner::V1_0::FrontendInnerFec::FEC_2_5"
    },
    {
     "enum_field_value" : 128,
     "name" : "android::hardware::tv::tuner::V1_0::FrontendInnerFec::FEC_2_9"
    },
    {
     "enum_field_value" : 256,
     "name" : "android::hardware::tv::tuner::V1_0::FrontendInnerFec::FEC_3_4"
    },
    {
     "enum_field_value" : 512,
     "name" : "android::hardware::tv::tuner::V1_0::FrontendInnerFec::FEC_3_5"
    },
    {
     "enum_field_value" : 1024,
     "name" : "android::hardware::tv::tuner::V1_0::FrontendInnerFec::FEC_4_5"
    },
    {
     "enum_field_value" : 2048,
     "name" : "android::hardware::tv::tuner::V1_0::FrontendInnerFec::FEC_4_15"
    },
    {
     "enum_field_value" : 4096,
     "name" : "android::hardware::tv::tuner::V1_0::FrontendInnerFec::FEC_5_6"
    },
    {
     "enum_field_value" : 8192,
     "name" : "android::hardware::tv::tuner::V1_0::FrontendInnerFec::FEC_5_9"
    },
    {
     "enum_field_value" : 16384,
     "name" : "android::hardware::tv::tuner::V1_0::FrontendInnerFec::FEC_6_7"
    },
    {
     "enum_field_value" : 32768,
     "name" : "android::hardware::tv::tuner::V1_0::FrontendInnerFec::FEC_7_8"
    },
    {
     "enum_field_value" : 65536,
     "name" : "android::hardware::tv::tuner::V1_0::FrontendInnerFec::FEC_7_9"
    },
    {
     "enum_field_value" : 131072,
     "name" : "android::hardware::tv::tuner::V1_0::FrontendInnerFec::FEC_7_15"
    },
    {
     "enum_field_value" : 262144,
     "name" : "android::hardware::tv::tuner::V1_0::FrontendInnerFec::FEC_8_9"
    },
    {
     "enum_field_value" : 524288,
     "name" : "android::hardware::tv::tuner::V1_0::FrontendInnerFec::FEC_8_15"
    },
    {
     "enum_field_value" : 1048576,
     "name" : "android::hardware::tv::tuner::V1_0::FrontendInnerFec::FEC_9_10"
    },
    {
     "enum_field_value" : 2097152,
     "name" : "android::hardware::tv::tuner::V1_0::FrontendInnerFec::FEC_9_20"
    },
    {
     "enum_field_value" : 4194304,
     "name" : "android::hardware::tv::tuner::V1_0::FrontendInnerFec::FEC_11_15"
    },
    {
     "enum_field_value" : 8388608,
     "name" : "android::hardware::tv::tuner::V1_0::FrontendInnerFec::FEC_11_20"
    },
    {
     "enum_field_value" : 16777216,
     "name" : "android::hardware::tv::tuner::V1_0::FrontendInnerFec::FEC_11_45"
    },
    {
     "enum_field_value" : 33554432,
     "name" : "android::hardware::tv::tuner::V1_0::FrontendInnerFec::FEC_13_18"
    },
    {
     "enum_field_value" : 67108864,
     "name" : "android::hardware::tv::tuner::V1_0::FrontendInnerFec::FEC_13_45"
    },
    {
     "enum_field_value" : 134217728,
     "name" : "android::hardware::tv::tuner::V1_0::FrontendInnerFec::FEC_14_45"
    },
    {
     "enum_field_value" : 268435456,
     "name" : "android::hardware::tv::tuner::V1_0::FrontendInnerFec::FEC_23_36"
    },
    {
     "enum_field_value" : 536870912,
     "name" : "android::hardware::tv::tuner::V1_0::FrontendInnerFec::FEC_25_36"
    },
    {
     "enum_field_value" : 1073741824,
     "name" : "android::hardware::tv::tuner::V1_0::FrontendInnerFec::FEC_26_45"
    },
    {
     "enum_field_value" : -2147483648,
     "name" : "android::hardware::tv::tuner::V1_0::FrontendInnerFec::FEC_28_45"
    },
    {
     "enum_field_value" : 1,
     "name" : "android::hardware::tv::tuner::V1_0::FrontendInnerFec::FEC_29_45"
    },
    {
     "enum_field_value" : 2,
     "name" : "android::hardware::tv::tuner::V1_0::FrontendInnerFec::FEC_31_45"
    },
    {
     "enum_field_value" : 4,
     "name" : "android::hardware::tv::tuner::V1_0::FrontendInnerFec::FEC_32_45"
    },
    {
     "enum_field_value" : 8,
     "name" : "android::hardware::tv::tuner::V1_0::FrontendInnerFec::FEC_77_90"
    }
   ],
   "linker_set_key" : "_ZTIN7android8hardware2tv5tuner4V1_016FrontendInnerFecE",
   "name" : "android::hardware::tv::tuner::V1_0::FrontendInnerFec",
   "referenced_type" : "_ZTIN7android8hardware2tv5tuner4V1_016FrontendInnerFecE",
   "self_type" : "_ZTIN7android8hardware2tv5tuner4V1_016FrontendInnerFecE",
   "size" : 8,
   "source_file" : "/out/soong/.intermediates/hardware/interfaces/tv/tuner/1.0/android.hardware.tv.tuner@1.0_genc++_headers/gen/android/hardware/tv/tuner/1.0/types.h",
   "underlying_type" : "_ZTIm"
  },
  {
   "alignment" : 4,
   "enum_fields" :
   [
    {
     "enum_field_value" : 0,
     "name" : "android::hardware::tv::tuner::V1_0::FrontendScanType::SCAN_UNDEFINED"
    },
    {
     "enum_field_value" : 1,
     "name" : "android::hardware::tv::tuner::V1_0::FrontendScanType::SCAN_AUTO"
    },
    {
     "enum_field_value" : 2,
     "name" : "android::hardware::tv::tuner::V1_0::FrontendScanType::SCAN_BLIND"
    }
   ],
   "linker_set_key" : "_ZTIN7android8hardware2tv5tuner4V1_016FrontendScanTypeE",
   "name" : "android::hardware::tv::tuner::V1_0::FrontendScanType",
   "referenced_type" : "_ZTIN7android8hardware2tv5tuner4V1_016FrontendScanTypeE",
   "self_type" : "_ZTIN7android8hardware2tv5tuner4V1_016FrontendScanTypeE",
   "size" : 4,
   "source_file" : "/out/soong/.intermediates/hardware/interfaces/tv/tuner/1.0/android.hardware.tv.tuner@1.0_genc++_headers/gen/android/hardware/tv/tuner/1.0/types.h",
   "underlying_type" : "_ZTIj"
  },
  {
   "alignment" : 1,
   "enum_fields" :
   [
    {
     "enum_field_value" : 0,
     "name" : "android::hardware::tv::tuner::V1_0::FrontendSettings::hidl_discriminator::analog"
    },
    {
     "enum_field_value" : 1,
     "name" : "android::hardware::tv::tuner::V1_0::FrontendSettings::hidl_discriminator::atsc"
    },
    {
     "enum_field_value" : 2,
     "name" : "android::hardware::tv::tuner::V1_0::FrontendSettings::hidl_discriminator::atsc3"
    },
    {
     "enum_field_value" : 3,
     "name" : "android::hardware::tv::tuner::V1_0::FrontendSettings::hidl_discriminator::dvbs"
    },
    {
     "enum_field_value" : 4,
     "name" : "android::hardware::tv::tuner::V1_0::FrontendSettings::hidl_discriminator::dvbc"
    },
    {
     "enum_field_value" : 5,
     "name" : "android::hardware::tv::tuner::V1_0::FrontendSettings::hidl_discriminator::dvbt"
    },
    {
     "enum_field_value" : 6,
     "name" : "android::hardware::tv::tuner::V1_0::FrontendSettings::hidl_discriminator::isdbs"
    },
    {
     "enum_field_value" : 7,
     "name" : "android::hardware::tv::tuner::V1_0::FrontendSettings::hidl_discriminator::isdbs3"
    },
    {
     "enum_field_value" : 8,
     "name" : "android::hardware::tv::tuner::V1_0::FrontendSettings::hidl_discriminator::isdbt"
    }
   ],
   "linker_set_key" : "_ZTIN7android8hardware2tv5tuner4V1_016FrontendSettings18hidl_discriminatorE",
   "name" : "android::hardware::tv::tuner::V1_0::FrontendSettings::hidl_discriminator",
   "referenced_type" : "_ZTIN7android8hardware2tv5tuner4V1_016FrontendSettings18hidl_discriminatorE",
   "self_type" : "_ZTIN7android8hardware2tv5tuner4V1_016FrontendSettings18hidl_discriminatorE",
   "size" : 1,
   "source_file" : "/out/soong/.intermediates/hardware/interfaces/tv/tuner/1.0/android.hardware.tv.tuner@1.0_genc++_headers/gen/android/hardware/tv/tuner/1.0/types.h",
   "underlying_type" : "_ZTIh"
  },
  {
   "alignment" : 1,
   "enum_fields" :
   [
    {
     "enum_field_value" : 1,
     "name" : "android::hardware::tv::tuner::V1_0::DemuxFilterStatus::DATA_READY"
    },
    {
     "enum_field_value" : 2,
     "name" : "android::hardware::tv::tuner::V1_0::DemuxFilterStatus::LOW_WATER"
    },
    {
     "enum_field_value" : 4,
     "name" : "android::hardware::tv::tuner::V1_0::DemuxFilterStatus::HIGH_WATER"
    },
    {
     "enum_field_value" : 8,
     "name" : "android::hardware::tv::tuner::V1_0::DemuxFilterStatus::OVERFLOW"
    }
   ],
   "linker_set_key" : "_ZTIN7android8hardware2tv5tuner4V1_017DemuxFilterStatusE",
   "name" : "android::hardware::tv::tuner::V1_0::DemuxFilterStatus",
   "referenced_type" : "_ZTIN7android8hardware2tv5tuner4V1_017DemuxFilterStatusE",
   "self_type" : "_ZTIN7android8hardware2tv5tuner4V1_017DemuxFilterStatusE",
   "size" : 1,
   "source_file" : "/out/soong/.intermediates/hardware/interfaces/tv/tuner/1.0/android.hardware.tv.tuner@1.0_genc++_headers/gen/android/hardware/tv/tuner/1.0/types.h",
   "underlying_type" : "_ZTIh"
  },
  {
   "alignment" : 4,
   "enum_fields" :
   [
    {
     "enum_field_value" : 0,
     "name" : "android::hardware::tv::tuner::V1_0::DemuxIpFilterType::UNDEFINED"
    },
    {
     "enum_field_value" : 1,
     "name" : "android::hardware::tv::tuner::V1_0::DemuxIpFilterType::SECTION"
    },
    {
     "enum_field_value" : 2,
     "name" : "android::hardware::tv::tuner::V1_0::DemuxIpFilterType::NTP"
    },
    {
     "enum_field_value" : 3,
     "name" : "android::hardware::tv::tuner::V1_0::DemuxIpFilterType::IP_PAYLOAD"
    },
    {
     "enum_field_value" : 4,
     "name" : "android::hardware::tv::tuner::V1_0::DemuxIpFilterType::IP"
    },
    {
     "enum_field_value" : 5,
     "name" : "android::hardware::tv::tuner::V1_0::DemuxIpFilterType::PAYLOAD_THROUGH"
    }
   ],
   "linker_set_key" : "_ZTIN7android8hardware2tv5tuner4V1_017DemuxIpFilterTypeE",
   "name" : "android::hardware::tv::tuner::V1_0::DemuxIpFilterType",
   "referenced_type" : "_ZTIN7android8hardware2tv5tuner4V1_017DemuxIpFilterTypeE",
   "self_type" : "_ZTIN7android8hardware2tv5tuner4V1_017DemuxIpFilterTypeE",
   "size" : 4,
   "source_file" : "/out/soong/.intermediates/hardware/interfaces/tv/tuner/1.0/android.hardware.tv.tuner@1.0_genc++_headers/gen/android/hardware/tv/tuner/1.0/types.h",
   "underlying_type" : "_ZTIj"
  },
  {
   "alignment" : 4,
   "enum_fields" :
   [
    {
     "enum_field_value" : 0,
     "name" : "android::hardware::tv::tuner::V1_0::DemuxTsFilterType::UNDEFINED"
    },
    {
     "enum_field_value" : 1,
     "name" : "android::hardware::tv::tuner::V1_0::DemuxTsFilterType::SECTION"
    },
    {
     "enum_field_value" : 2,
     "name" : "android::hardware::tv::tuner::V1_0::DemuxTsFilterType::PES"
    },
    {
     "enum_field_value" : 3,
     "name" : "android::hardware::tv::tuner::V1_0::DemuxTsFilterType::TS"
    },
    {
     "enum_field_value" : 4,
     "name" : "android::hardware::tv::tuner::V1_0::DemuxTsFilterType::AUDIO"
    },
    {
     "enum_field_value" : 5,
     "name" : "android::hardware::tv::tuner::V1_0::DemuxTsFilterType::VIDEO"
    },
    {
     "enum_field_value" : 6,
     "name" : "android::hardware::tv::tuner::V1_0::DemuxTsFilterType::PCR"
    },
    {
     "enum_field_value" : 7,
     "name" : "android::hardware::tv::tuner::V1_0::DemuxTsFilterType::RECORD"
    },
    {
     "enum_field_value" : 8,
     "name" : "android::hardware::tv::tuner::V1_0::DemuxTsFilterType::TEMI"
    }
   ],
   "linker_set_key" : "_ZTIN7android8hardware2tv5tuner4V1_017DemuxTsFilterTypeE",
   "name" : "android::hardware::tv::tuner::V1_0::DemuxTsFilterType",
   "referenced_type" : "_ZTIN7android8hardware2tv5tuner4V1_017DemuxTsFilterTypeE",
   "self_type" : "_ZTIN7android8hardware2tv5tuner4V1_017DemuxTsFilterTypeE",
   "size" : 4,
   "source_file" : "/out/soong/.intermediates/hardware/interfaces/tv/tuner/1.0/android.hardware.tv.tuner@1.0_genc++_headers/gen/android/hardware/tv/tuner/1.0/types.h",
   "underlying_type" : "_ZTIj"
  },
  {
   "alignment" : 1,
   "enum_fields" :
   [
    {
     "enum_field_value" : 0,
     "name" : "android::hardware::tv::tuner::V1_0::FrontendDvbcAnnex::UNDEFINED"
    },
    {
     "enum_field_value" : 1,
     "name" : "android::hardware::tv::tuner::V1_0::FrontendDvbcAnnex::A"
    },
    {
     "enum_field_value" : 2,
     "name" : "android::hardware::tv::tuner::V1_0::FrontendDvbcAnnex::B"
    },
    {
     "enum_field_value" : 4,
     "name" : "android::hardware::tv::tuner::V1_0::FrontendDvbcAnnex::C"
    }
   ],
   "linker_set_key" : "_ZTIN7android8hardware2tv5tuner4V1_017FrontendDvbcAnnexE",
   "name" : "android::hardware::tv::tuner::V1_0::FrontendDvbcAnnex",
   "referenced_type" : "_ZTIN7android8hardware2tv5tuner4V1_017FrontendDvbcAnnexE",
   "self_type" : "_ZTIN7android8hardware2tv5tuner4V1_017FrontendDvbcAnnexE",
   "size" : 1,
   "source_file" : "/out/soong/.intermediates/hardware/interfaces/tv/tuner/1.0/android.hardware.tv.tuner@1.0_genc++_headers/gen/android/hardware/tv/tuner/1.0/types.h",
   "underlying_type" : "_ZTIh"
  },
  {
   "alignment" : 4,
   "enum_fields" :
   [
    {
     "enum_field_value" : 0,
     "name" : "android::hardware::tv::tuner::V1_0::FrontendDvbsPilot::UNDEFINED"
    },
    {
     "enum_field_value" : 1,
     "name" : "android::hardware::tv::tuner::V1_0::FrontendDvbsPilot::ON"
    },
    {
     "enum_field_value" : 2,
     "name" : "android::hardware::tv::tuner::V1_0::FrontendDvbsPilot::OFF"
    },
    {
     "enum_field_value" : 3,
     "name" : "android::hardware::tv::tuner::V1_0::FrontendDvbsPilot::AUTO"
    }
   ],
   "linker_set_key" : "_ZTIN7android8hardware2tv5tuner4V1_017FrontendDvbsPilotE",
   "name" : "android::hardware::tv::tuner::V1_0::FrontendDvbsPilot",
   "referenced_type" : "_ZTIN7android8hardware2tv5tuner4V1_017FrontendDvbsPilotE",
   "self_type" : "_ZTIN7android8hardware2tv5tuner4V1_017FrontendDvbsPilotE",
   "size" : 4,
   "source_file" : "/out/soong/.intermediates/hardware/interfaces/tv/tuner/1.0/android.hardware.tv.tuner@1.0_genc++_headers/gen/android/hardware/tv/tuner/1.0/types.h",
   "underlying_type" : "_ZTIj"
  },
  {
   "alignment" : 4,
   "enum_fields" :
   [
    {
     "enum_field_value" : 0,
     "name" : "android::hardware::tv::tuner::V1_0::FrontendEventType::LOCKED"
    },
    {
     "enum_field_value" : 1,
     "name" : "android::hardware::tv::tuner::V1_0::FrontendEventType::NO_SIGNAL"
    },
    {
     "enum_field_value" : 2,
     "name" : "android::hardware::tv::tuner::V1_0::FrontendEventType::LOST_LOCK"
    }
   ],
   "linker_set_key" : "_ZTIN7android8hardware2tv5tuner4V1_017FrontendEventTypeE",
   "name" : "android::hardware::tv::tuner::V1_0::FrontendEventType",
   "referenced_type" : "_ZTIN7android8hardware2tv5tuner4V1_017FrontendEventTypeE",
   "self_type" : "_ZTIN7android8hardware2tv5tuner4V1_017FrontendEventTypeE",
   "size" : 4,
   "source_file" : "/out/soong/.intermediates/hardware/interfaces/tv/tuner/1.0/android.hardware.tv.tuner@1.0_genc++_headers/gen/android/hardware/tv/tuner/1.0/types.h",
   "underlying_type" : "_ZTIj"
  },
  {
   "alignment" : 4,
   "enum_fields" :
   [
    {
     "enum_field_value" : 0,
     "name" : "android::hardware::tv::tuner::V1_0::FrontendIsdbtMode::UNDEFINED"
    },
    {
     "enum_field_value" : 1,
     "name" : "android::hardware::tv::tuner::V1_0::FrontendIsdbtMode::AUTO"
    },
    {
     "enum_field_value" : 2,
     "name" : "android::hardware::tv::tuner::V1_0::FrontendIsdbtMode::MODE_1"
    },
    {
     "enum_field_value" : 4,
     "name" : "android::hardware::tv::tuner::V1_0::FrontendIsdbtMode::MODE_2"
    },
    {
     "enum_field_value" : 8,
     "name" : "android::hardware::tv::tuner::V1_0::FrontendIsdbtMode::MODE_3"
    }
   ],
   "linker_set_key" : "_ZTIN7android8hardware2tv5tuner4V1_017FrontendIsdbtModeE",
   "name" : "android::hardware::tv::tuner::V1_0::FrontendIsdbtMode",
   "referenced_type" : "_ZTIN7android8hardware2tv5tuner4V1_017FrontendIsdbtModeE",
   "self_type" : "_ZTIN7android8hardware2tv5tuner4V1_017FrontendIsdbtModeE",
   "size" : 4,
   "source_file" : "/out/soong/.intermediates/hardware/interfaces/tv/tuner/1.0/android.hardware.tv.tuner@1.0_genc++_headers/gen/android/hardware/tv/tuner/1.0/types.h",
   "underlying_type" : "_ZTIj"
  },
  {
   "alignment" : 4,
   "enum_fields" :
   [
    {
     "enum_field_value" : 0,
     "name" : "android::hardware::tv::tuner::V1_0::DemuxAlpFilterType::UNDEFINED"
    },
    {
     "enum_field_value" : 1,
     "name" : "android::hardware::tv::tuner::V1_0::DemuxAlpFilterType::SECTION"
    },
    {
     "enum_field_value" : 2,
     "name" : "android::hardware::tv::tuner::V1_0::DemuxAlpFilterType::PTP"
    },
    {
     "enum_field_value" : 3,
     "name" : "android::hardware::tv::tuner::V1_0::DemuxAlpFilterType::PAYLOAD_THROUGH"
    }
   ],
   "linker_set_key" : "_ZTIN7android8hardware2tv5tuner4V1_018DemuxAlpFilterTypeE",
   "name" : "android::hardware::tv::tuner::V1_0::DemuxAlpFilterType",
   "referenced_type" : "_ZTIN7android8hardware2tv5tuner4V1_018DemuxAlpFilterTypeE",
   "self_type" : "_ZTIN7android8hardware2tv5tuner4V1_018DemuxAlpFilterTypeE",
   "size" : 4,
   "source_file" : "/out/soong/.intermediates/hardware/interfaces/tv/tuner/1.0/android.hardware.tv.tuner@1.0_genc++_headers/gen/android/hardware/tv/tuner/1.0/types.h",
   "underlying_type" : "_ZTIj"
  },
  {
   "alignment" : 1,
   "enum_fields" :
   [
    {
     "enum_field_value" : 0,
     "name" : "android::hardware::tv::tuner::V1_0::DemuxAlpLengthType::UNDEFINED"
    },
    {
     "enum_field_value" : 1,
     "name" : "android::hardware::tv::tuner::V1_0::DemuxAlpLengthType::WITHOUT_ADDITIONAL_HEADER"
    },
    {
     "enum_field_value" : 2,
     "name" : "android::hardware::tv::tuner::V1_0::DemuxAlpLengthType::WITH_ADDITIONAL_HEADER"
    }
   ],
   "linker_set_key" : "_ZTIN7android8hardware2tv5tuner4V1_018DemuxAlpLengthTypeE",
   "name" : "android::hardware::tv::tuner::V1_0::DemuxAlpLengthType",
   "referenced_type" : "_ZTIN7android8hardware2tv5tuner4V1_018DemuxAlpLengthTypeE",
   "self_type" : "_ZTIN7android8hardware2tv5tuner4V1_018DemuxAlpLengthTypeE",
   "size" : 1,
   "source_file" : "/out/soong/.intermediates/hardware/interfaces/tv/tuner/1.0/android.hardware.tv.tuner@1.0_genc++_headers/gen/android/hardware/tv/tuner/1.0/types.h",
   "underlying_type" : "_ZTIh"
  },
  {
   "alignment" : 4,
   "enum_fields" :
   [
    {
     "enum_field_value" : 0,
     "name" : "android::hardware::tv::tuner::V1_0::DemuxTlvFilterType::UNDEFINED"
    },
    {
     "enum_field_value" : 1,
     "name" : "android::hardware::tv::tuner::V1_0::DemuxTlvFilterType::SECTION"
    },
    {
     "enum_field_value" : 2,
     "name" : "android::hardware::tv::tuner::V1_0::DemuxTlvFilterType::TLV"
    },
    {
     "enum_field_value" : 3,
     "name" : "android::hardware::tv::tuner::V1_0::DemuxTlvFilterType::PAYLOAD_THROUGH"
    }
   ],
   "linker_set_key" : "_ZTIN7android8hardware2tv5tuner4V1_018DemuxTlvFilterTypeE",
   "name" : "android::hardware::tv::tuner::V1_0::DemuxTlvFilterType",
   "referenced_type" : "_ZTIN7android8hardware2tv5tuner4V1_018DemuxTlvFilterTypeE",
   "self_type" : "_ZTIN7android8hardware2tv5tuner4V1_018DemuxTlvFilterTypeE",
   "size" : 4,
   "source_file" : "/out/soong/.intermediates/hardware/interfaces/tv/tuner/1.0/android.hardware.tv.tuner@1.0_genc++_headers/gen/android/hardware/tv/tuner/1.0/types.h",
   "underlying_type" : "_ZTIj"
  },
  {
   "alignment" : 4,
   "enum_fields" :
   [
    {
     "enum_field_value" : 0,
     "name" : "android::hardware::tv::tuner::V1_0::FrontendAnalogType::UNDEFINED"
    },
    {
     "enum_field_value" : 1,
     "name" : "android::hardware::tv::tuner::V1_0::FrontendAnalogType::AUTO"
    },
    {
     "enum_field_value" : 2,
     "name" : "android::hardware::tv::tuner::V1_0::FrontendAnalogType::PAL"
    },
    {
     "enum_field_value" : 4,
     "name" : "android::hardware::tv::tuner::V1_0::FrontendAnalogType::PAL_M"
    },
    {
     "enum_field_value" : 8,
     "name" : "android::hardware::tv::tuner::V1_0::FrontendAnalogType::PAL_N"
    },
    {
     "enum_field_value" : 16,
     "name" : "android::hardware::tv::tuner::V1_0::FrontendAnalogType::PAL_60"
    },
    {
     "enum_field_value" : 32,
     "name" : "android::hardware::tv::tuner::V1_0::FrontendAnalogType::NTSC"
    },
    {
     "enum_field_value" : 64,
     "name" : "android::hardware::tv::tuner::V1_0::FrontendAnalogType::NTSC_443"
    },
    {
     "enum_field_value" : 128,
     "name" : "android::hardware::tv::tuner::V1_0::FrontendAnalogType::SECAM"
    }
   ],
   "linker_set_key" : "_ZTIN7android8hardware2tv5tuner4V1_018FrontendAnalogTypeE",
   "name" : "android::hardware::tv::tuner::V1_0::FrontendAnalogType",
   "referenced_type" : "_ZTIN7android8hardware2tv5tuner4V1_018FrontendAnalogTypeE",
   "self_type" : "_ZTIN7android8hardware2tv5tuner4V1_018FrontendAnalogTypeE",
   "size" : 4,
   "source_file" : "/out/soong/.intermediates/hardware/interfaces/tv/tuner/1.0/android.hardware.tv.tuner@1.0_genc++_headers/gen/android/hardware/tv/tuner/1.0/types.h",
   "underlying_type" : "_ZTIj"
  },
  {
   "alignment" : 4,
   "enum_fields" :
   [
    {
     "enum_field_value" : 0,
     "name" : "android::hardware::tv::tuner::V1_0::FrontendStatusType::DEMOD_LOCK"
    },
    {
     "enum_field_value" : 1,
     "name" : "android::hardware::tv::tuner::V1_0::FrontendStatusType::SNR"
    },
    {
     "enum_field_value" : 2,
     "name" : "android::hardware::tv::tuner::V1_0::FrontendStatusType::BER"
    },
    {
     "enum_field_value" : 3,
     "name" : "android::hardware::tv::tuner::V1_0::FrontendStatusType::PER"
    },
    {
     "enum_field_value" : 4,
     "name" : "android::hardware::tv::tuner::V1_0::FrontendStatusType::PRE_BER"
    },
    {
     "enum_field_value" : 5,
     "name" : "android::hardware::tv::tuner::V1_0::FrontendStatusType::SIGNAL_QUALITY"
    },
    {
     "enum_field_value" : 6,
     "name" : "android::hardware::tv::tuner::V1_0::FrontendStatusType::SIGNAL_STRENGTH"
    },
    {
     "enum_field_value" : 7,
     "name" : "android::hardware::tv::tuner::V1_0::FrontendStatusType::SYMBOL_RATE"
    },
    {
     "enum_field_value" : 8,
     "name" : "android::hardware::tv::tuner::V1_0::FrontendStatusType::FEC"
    },
    {
     "enum_field_value" : 9,
     "name" : "android::hardware::tv::tuner::V1_0::FrontendStatusType::MODULATION"
    },
    {
     "enum_field_value" : 10,
     "name" : "android::hardware::tv::tuner::V1_0::FrontendStatusType::SPECTRAL"
    },
    {
     "enum_field_value" : 11,
     "name" : "android::hardware::tv::tuner::V1_0::FrontendStatusType::LNB_VOLTAGE"
    },
    {
     "enum_field_value" : 12,
     "name" : "android::hardware::tv::tuner::V1_0::FrontendStatusType::PLP_ID"
    },
    {
     "enum_field_value" : 13,
     "name" : "android::hardware::tv::tuner::V1_0::FrontendStatusType::EWBS"
    },
    {
     "enum_field_value" : 14,
     "name" : "android::hardware::tv::tuner::V1_0::FrontendStatusType::AGC"
    },
    {
     "enum_field_value" : 15,
     "name" : "android::hardware::tv::tuner::V1_0::FrontendStatusType::LNA"
    },
    {
     "enum_field_value" : 16,
     "name" : "android::hardware::tv::tuner::V1_0::FrontendStatusType::LAYER_ERROR"
    },
    {
     "enum_field_value" : 17,
     "name" : "android::hardware::tv::tuner::V1_0::FrontendStatusType::MER"
    },
    {
     "enum_field_value" : 18,
     "name" : "android::hardware::tv::tuner::V1_0::FrontendStatusType::FREQ_OFFSET"
    },
    {
     "enum_field_value" : 19,
     "name" : "android::hardware::tv::tuner::V1_0::FrontendStatusType::HIERARCHY"
    },
    {
     "enum_field_value" : 20,
     "name" : "android::hardware::tv::tuner::V1_0::FrontendStatusType::RF_LOCK"
    },
    {
     "enum_field_value" : 21,
     "name" : "android::hardware::tv::tuner::V1_0::FrontendStatusType::ATSC3_PLP_INFO"
    }
   ],
   "linker_set_key" : "_ZTIN7android8hardware2tv5tuner4V1_018FrontendStatusTypeE",
   "name" : "android::hardware::tv::tuner::V1_0::FrontendStatusType",
   "referenced_type" : "_ZTIN7android8hardware2tv5tuner4V1_018FrontendStatusTypeE",
   "self_type" : "_ZTIN7android8hardware2tv5tuner4V1_018FrontendStatusTypeE",
   "size" : 4,
   "source_file" : "/out/soong/.intermediates/hardware/interfaces/tv/tuner/1.0/android.hardware.tv.tuner@1.0_genc++_headers/gen/android/hardware/tv/tuner/1.0/types.h",
   "underlying_type" : "_ZTIj"
  },
  {
   "alignment" : 4,
   "enum_fields" :
   [
    {
     "enum_field_value" : 1,
     "name" : "android::hardware::tv::tuner::V1_0::DemuxFilterMainType::TS"
    },
    {
     "enum_field_value" : 2,
     "name" : "android::hardware::tv::tuner::V1_0::DemuxFilterMainType::MMTP"
    },
    {
     "enum_field_value" : 4,
     "name" : "android::hardware::tv::tuner::V1_0::DemuxFilterMainType::IP"
    },
    {
     "enum_field_value" : 8,
     "name" : "android::hardware::tv::tuner::V1_0::DemuxFilterMainType::TLV"
    },
    {
     "enum_field_value" : 16,
     "name" : "android::hardware::tv::tuner::V1_0::DemuxFilterMainType::ALP"
    }
   ],
   "linker_set_key" : "_ZTIN7android8hardware2tv5tuner4V1_019DemuxFilterMainTypeE",
   "name" : "android::hardware::tv::tuner::V1_0::DemuxFilterMainType",
   "referenced_type" : "_ZTIN7android8hardware2tv5tuner4V1_019DemuxFilterMainTypeE",
   "self_type" : "_ZTIN7android8hardware2tv5tuner4V1_019DemuxFilterMainTypeE",
   "size" : 4,
   "source_file" : "/out/soong/.intermediates/hardware/interfaces/tv/tuner/1.0/android.hardware.tv.tuner@1.0_genc++_headers/gen/android/hardware/tv/tuner/1.0/types.h",
   "underlying_type" : "_ZTIj"
  },
  {
   "alignment" : 1,
   "enum_fields" :
   [
    {
     "enum_field_value" : 0,
     "name" : "android::hardware::tv::tuner::V1_0::DemuxFilterSettings::hidl_discriminator::ts"
    },
    {
     "enum_field_value" : 1,
     "name" : "android::hardware::tv::tuner::V1_0::DemuxFilterSettings::hidl_discriminator::mmtp"
    },
    {
     "enum_field_value" : 2,
     "name" : "android::hardware::tv::tuner::V1_0::DemuxFilterSettings::hidl_discriminator::ip"
    },
    {
     "enum_field_value" : 3,
     "name" : "android::hardware::tv::tuner::V1_0::DemuxFilterSettings::hidl_discriminator::tlv"
    },
    {
     "enum_field_value" : 4,
     "name" : "android::hardware::tv::tuner::V1_0::DemuxFilterSettings::hidl_discriminator::alp"
    }
   ],
   "linker_set_key" : "_ZTIN7android8hardware2tv5tuner4V1_019DemuxFilterSettings18hidl_discriminatorE",
   "name" : "android::hardware::tv::tuner::V1_0::DemuxFilterSettings::hidl_discriminator",
   "referenced_type" : "_ZTIN7android8hardware2tv5tuner4V1_019DemuxFilterSettings18hidl_discriminatorE",
   "self_type" : "_ZTIN7android8hardware2tv5tuner4V1_019DemuxFilterSettings18hidl_discriminatorE",
   "size" : 1,
   "source_file" : "/out/soong/.intermediates/hardware/interfaces/tv/tuner/1.0/android.hardware.tv.tuner@1.0_genc++_headers/gen/android/hardware/tv/tuner/1.0/types.h",
   "underlying_type" : "_ZTIh"
  },
  {
   "alignment" : 4,
   "enum_fields" :
   [
    {
     "enum_field_value" : 0,
     "name" : "android::hardware::tv::tuner::V1_0::DemuxMmtpFilterType::UNDEFINED"
    },
    {
     "enum_field_value" : 1,
     "name" : "android::hardware::tv::tuner::V1_0::DemuxMmtpFilterType::SECTION"
    },
    {
     "enum_field_value" : 2,
     "name" : "android::hardware::tv::tuner::V1_0::DemuxMmtpFilterType::PES"
    },
    {
     "enum_field_value" : 3,
     "name" : "android::hardware::tv::tuner::V1_0::DemuxMmtpFilterType::MMTP"
    },
    {
     "enum_field_value" : 4,
     "name" : "android::hardware::tv::tuner::V1_0::DemuxMmtpFilterType::AUDIO"
    },
    {
     "enum_field_value" : 5,
     "name" : "android::hardware::tv::tuner::V1_0::DemuxMmtpFilterType::VIDEO"
    },
    {
     "enum_field_value" : 6,
     "name" : "android::hardware::tv::tuner::V1_0::DemuxMmtpFilterType::RECORD"
    },
    {
     "enum_field_value" : 7,
     "name" : "android::hardware::tv::tuner::V1_0::DemuxMmtpFilterType::DOWNLOAD"
    }
   ],
   "linker_set_key" : "_ZTIN7android8hardware2tv5tuner4V1_019DemuxMmtpFilterTypeE",
   "name" : "android::hardware::tv::tuner::V1_0::DemuxMmtpFilterType",
   "referenced_type" : "_ZTIN7android8hardware2tv5tuner4V1_019DemuxMmtpFilterTypeE",
   "self_type" : "_ZTIN7android8hardware2tv5tuner4V1_019DemuxMmtpFilterTypeE",
   "size" : 4,
   "source_file" : "/out/soong/.intermediates/hardware/interfaces/tv/tuner/1.0/android.hardware.tv.tuner@1.0_genc++_headers/gen/android/hardware/tv/tuner/1.0/types.h",
   "underlying_type" : "_ZTIj"
  },
  {
   "alignment" : 4,
   "enum_fields" :
   [
    {
     "enum_field_value" : 0,
     "name" : "android::hardware::tv::tuner::V1_0::FrontendDvbsRolloff::UNDEFINED"
    },
    {
     "enum_field_value" : 1,
     "name" : "android::hardware::tv::tuner::V1_0::FrontendDvbsRolloff::ROLLOFF_0_35"
    },
    {
     "enum_field_value" : 2,
     "name" : "android::hardware::tv::tuner::V1_0::FrontendDvbsRolloff::ROLLOFF_0_25"
    },
    {
     "enum_field_value" : 3,
     "name" : "android::hardware::tv::tuner::V1_0::FrontendDvbsRolloff::ROLLOFF_0_20"
    },
    {
     "enum_field_value" : 4,
     "name" : "android::hardware::tv::tuner::V1_0::FrontendDvbsRolloff::ROLLOFF_0_15"
    },
    {
     "enum_field_value" : 5,
     "name" : "android::hardware::tv::tuner::V1_0::FrontendDvbsRolloff::ROLLOFF_0_10"
    },
    {
     "enum_field_value" : 6,
     "name" : "android::hardware::tv::tuner::V1_0::FrontendDvbsRolloff::ROLLOFF_0_5"
    }
   ],
   "linker_set_key" : "_ZTIN7android8hardware2tv5tuner4V1_019FrontendDvbsRolloffE",
   "name" : "android::hardware::tv::tuner::V1_0::FrontendDvbsRolloff",
   "referenced_type" : "_ZTIN7android8hardware2tv5tuner4V1_019FrontendDvbsRolloffE",
   "self_type" : "_ZTIN7android8hardware2tv5tuner4V1_019FrontendDvbsRolloffE",
   "size" : 4,
   "source_file" : "/out/soong/.intermediates/hardware/interfaces/tv/tuner/1.0/android.hardware.tv.tuner@1.0_genc++_headers/gen/android/hardware/tv/tuner/1.0/types.h",
   "underlying_type" : "_ZTIj"
  },
  {
   "alignment" : 4,
   "enum_fields" :
   [
    {
     "enum_field_value" : 0,
     "name" : "android::hardware::tv::tuner::V1_0::FrontendDvbsVcmMode::UNDEFINED"
    },
    {
     "enum_field_value" : 1,
     "name" : "android::hardware::tv::tuner::V1_0::FrontendDvbsVcmMode::AUTO"
    },
    {
     "enum_field_value" : 2,
     "name" : "android::hardware::tv::tuner::V1_0::FrontendDvbsVcmMode::MANUAL"
    }
   ],
   "linker_set_key" : "_ZTIN7android8hardware2tv5tuner4V1_019FrontendDvbsVcmModeE",
   "name" : "android::hardware::tv::tuner::V1_0::FrontendDvbsVcmMode",
   "referenced_type" : "_ZTIN7android8hardware2tv5tuner4V1_019FrontendDvbsVcmModeE",
   "self_type" : "_ZTIN7android8hardware2tv5tuner4V1_019FrontendDvbsVcmModeE",
   "size" : 4,
   "source_file" : "/out/soong/.intermediates/hardware/interfaces/tv/tuner/1.0/android.hardware.tv.tuner@1.0_genc++_headers/gen/android/hardware/tv/tuner/1.0/types.h",
   "underlying_type" : "_ZTIj"
  },
  {
   "alignment" : 4,
   "enum_fields" :
   [
    {
     "enum_field_value" : 0,
     "name" : "android::hardware::tv::tuner::V1_0::FrontendDvbtPlpMode::UNDEFINED"
    },
    {
     "enum_field_value" : 1,
     "name" : "android::hardware::tv::tuner::V1_0::FrontendDvbtPlpMode::AUTO"
    },
    {
     "enum_field_value" : 2,
     "name" : "android::hardware::tv::tuner::V1_0::FrontendDvbtPlpMode::MANUAL"
    }
   ],
   "linker_set_key" : "_ZTIN7android8hardware2tv5tuner4V1_019FrontendDvbtPlpModeE",
   "name" : "android::hardware::tv::tuner::V1_0::FrontendDvbtPlpMode",
   "referenced_type" : "_ZTIN7android8hardware2tv5tuner4V1_019FrontendDvbtPlpModeE",
   "self_type" : "_ZTIN7android8hardware2tv5tuner4V1_019FrontendDvbtPlpModeE",
   "size" : 4,
   "source_file" : "/out/soong/.intermediates/hardware/interfaces/tv/tuner/1.0/android.hardware.tv.tuner@1.0_genc++_headers/gen/android/hardware/tv/tuner/1.0/types.h",
   "underlying_type" : "_ZTIj"
  },
  {
   "alignment" : 1,
   "enum_fields" :
   [
    {
     "enum_field_value" : 0,
     "name" : "android::hardware::tv::tuner::V1_0::FrontendScanMessage::hidl_discriminator::isLocked"
    },
    {
     "enum_field_value" : 1,
     "name" : "android::hardware::tv::tuner::V1_0::FrontendScanMessage::hidl_discriminator::isEnd"
    },
    {
     "enum_field_value" : 2,
     "name" : "android::hardware::tv::tuner::V1_0::FrontendScanMessage::hidl_discriminator::progressPercent"
    },
    {
     "enum_field_value" : 3,
     "name" : "android::hardware::tv::tuner::V1_0::FrontendScanMessage::hidl_discriminator::frequencies"
    },
    {
     "enum_field_value" : 4,
     "name" : "android::hardware::tv::tuner::V1_0::FrontendScanMessage::hidl_discriminator::symbolRates"
    },
    {
     "enum_field_value" : 5,
     "name" : "android::hardware::tv::tuner::V1_0::FrontendScanMessage::hidl_discriminator::hierarchy"
    },
    {
     "enum_field_value" : 6,
     "name" : "android::hardware::tv::tuner::V1_0::FrontendScanMessage::hidl_discriminator::analogType"
    },
    {
     "enum_field_value" : 7,
     "name" : "android::hardware::tv::tuner::V1_0::FrontendScanMessage::hidl_discriminator::plpIds"
    },
    {
     "enum_field_value" : 8,
     "name" : "android::hardware::tv::tuner::V1_0::FrontendScanMessage::hidl_discriminator::groupIds"
    },
    {
     "enum_field_value" : 9,
     "name" : "android::hardware::tv::tuner::V1_0::FrontendScanMessage::hidl_discriminator::inputStreamIds"
    },
    {
     "enum_field_value" : 10,
     "name" : "android::hardware::tv::tuner::V1_0::FrontendScanMessage::hidl_discriminator::std"
    },
    {
     "enum_field_value" : 11,
     "name" : "android::hardware::tv::tuner::V1_0::FrontendScanMessage::hidl_discriminator::atsc3PlpInfos"
    }
   ],
   "linker_set_key" : "_ZTIN7android8hardware2tv5tuner4V1_019FrontendScanMessage18hidl_discriminatorE",
   "name" : "android::hardware::tv::tuner::V1_0::FrontendScanMessage::hidl_discriminator",
   "referenced_type" : "_ZTIN7android8hardware2tv5tuner4V1_019FrontendScanMessage18hidl_discriminatorE",
   "self_type" : "_ZTIN7android8hardware2tv5tuner4V1_019FrontendScanMessage18hidl_discriminatorE",
   "size" : 1,
   "source_file" : "/out/soong/.intermediates/hardware/interfaces/tv/tuner/1.0/android.hardware.tv.tuner@1.0_genc++_headers/gen/android/hardware/tv/tuner/1.0/types.h",
   "underlying_type" : "_ZTIh"
  },
  {
   "alignment" : 1,
   "enum_fields" :
   [
    {
     "enum_field_value" : 0,
     "name" : "android::hardware::tv::tuner::V1_0::FrontendScanMessage::Standard::hidl_discriminator::sStd"
    },
    {
     "enum_field_value" : 1,
     "name" : "android::hardware::tv::tuner::V1_0::FrontendScanMessage::Standard::hidl_discriminator::tStd"
    },
    {
     "enum_field_value" : 2,
     "name" : "android::hardware::tv::tuner::V1_0::FrontendScanMessage::Standard::hidl_discriminator::sifStd"
    }
   ],
   "linker_set_key" : "_ZTIN7android8hardware2tv5tuner4V1_019FrontendScanMessage8Standard18hidl_discriminatorE",
   "name" : "android::hardware::tv::tuner::V1_0::FrontendScanMessage::Standard::hidl_discriminator",
   "referenced_type" : "_ZTIN7android8hardware2tv5tuner4V1_019FrontendScanMessage8Standard18hidl_discriminatorE",
   "self_type" : "_ZTIN7android8hardware2tv5tuner4V1_019FrontendScanMessage8Standard18hidl_discriminatorE",
   "size" : 1,
   "source_file" : "/out/soong/.intermediates/hardware/interfaces/tv/tuner/1.0/android.hardware.tv.tuner@1.0_genc++_headers/gen/android/hardware/tv/tuner/1.0/types.h",
   "underlying_type" : "_ZTIh"
  },
  {
   "alignment" : 4,
   "enum_fields" :
   [
    {
     "enum_field_value" : 1,
     "name" : "android::hardware::tv::tuner::V1_0::DemuxQueueNotifyBits::DATA_READY"
    },
    {
     "enum_field_value" : 2,
     "name" : "android::hardware::tv::tuner::V1_0::DemuxQueueNotifyBits::DATA_CONSUMED"
    }
   ],
   "linker_set_key" : "_ZTIN7android8hardware2tv5tuner4V1_020DemuxQueueNotifyBitsE",
   "name" : "android::hardware::tv::tuner::V1_0::DemuxQueueNotifyBits",
   "referenced_type" : "_ZTIN7android8hardware2tv5tuner4V1_020DemuxQueueNotifyBitsE",
   "self_type" : "_ZTIN7android8hardware2tv5tuner4V1_020DemuxQueueNotifyBitsE",
   "size" : 4,
   "source_file" : "/out/soong/.intermediates/hardware/interfaces/tv/tuner/1.0/android.hardware.tv.tuner@1.0_genc++_headers/gen/android/hardware/tv/tuner/1.0/types.h",
   "underlying_type" : "_ZTIj"
  },
  {
   "alignment" : 4,
   "enum_fields" :
   [
    {
     "enum_field_value" : 0,
     "name" : "android::hardware::tv::tuner::V1_0::FrontendDvbcOuterFec::UNDEFINED"
    },
    {
     "enum_field_value" : 1,
     "name" : "android::hardware::tv::tuner::V1_0::FrontendDvbcOuterFec::OUTER_FEC_NONE"
    },
    {
     "enum_field_value" : 2,
     "name" : "android::hardware::tv::tuner::V1_0::FrontendDvbcOuterFec::OUTER_FEC_RS"
    }
   ],
   "linker_set_key" : "_ZTIN7android8hardware2tv5tuner4V1_020FrontendDvbcOuterFecE",
   "name" : "android::hardware::tv::tuner::V1_0::FrontendDvbcOuterFec",
   "referenced_type" : "_ZTIN7android8hardware2tv5tuner4V1_020FrontendDvbcOuterFecE",
   "self_type" : "_ZTIN7android8hardware2tv5tuner4V1_020FrontendDvbcOuterFecE",
   "size" : 4,
   "source_file" : "/out/soong/.intermediates/hardware/interfaces/tv/tuner/1.0/android.hardware.tv.tuner@1.0_genc++_headers/gen/android/hardware/tv/tuner/1.0/types.h",
   "underlying_type" : "_ZTIj"
  },
  {
   "alignment" : 1,
   "enum_fields" :
   [
    {
     "enum_field_value" : 1,
     "name" : "android::hardware::tv::tuner::V1_0::FrontendDvbsStandard::AUTO"
    },
    {
     "enum_field_value" : 2,
     "name" : "android::hardware::tv::tuner::V1_0::FrontendDvbsStandard::S"
    },
    {
     "enum_field_value" : 4,
     "name" : "android::hardware::tv::tuner::V1_0::FrontendDvbsStandard::S2"
    },
    {
     "enum_field_value" : 8,
     "name" : "android::hardware::tv::tuner::V1_0::FrontendDvbsStandard::S2X"
    }
   ],
   "linker_set_key" : "_ZTIN7android8hardware2tv5tuner4V1_020FrontendDvbsStandardE",
   "name" : "android::hardware::tv::tuner::V1_0::FrontendDvbsStandard",
   "referenced_type" : "_ZTIN7android8hardware2tv5tuner4V1_020FrontendDvbsStandardE",
   "self_type" : "_ZTIN7android8hardware2tv5tuner4V1_020FrontendDvbsStandardE",
   "size" : 1,
   "source_file" : "/out/soong/.intermediates/hardware/interfaces/tv/tuner/1.0/android.hardware.tv.tuner@1.0_genc++_headers/gen/android/hardware/tv/tuner/1.0/types.h",
   "underlying_type" : "_ZTIh"
  },
  {
   "alignment" : 4,
   "enum_fields" :
   [
    {
     "enum_field_value" : 0,
     "name" : "android::hardware::tv::tuner::V1_0::FrontendDvbtCoderate::UNDEFINED"
    },
    {
     "enum_field_value" : 1,
     "name" : "android::hardware::tv::tuner::V1_0::FrontendDvbtCoderate::AUTO"
    },
    {
     "enum_field_value" : 2,
     "name" : "android::hardware::tv::tuner::V1_0::FrontendDvbtCoderate::CODERATE_1_2"
    },
    {
     "enum_field_value" : 4,
     "name" : "android::hardware::tv::tuner::V1_0::FrontendDvbtCoderate::CODERATE_2_3"
    },
    {
     "enum_field_value" : 8,
     "name" : "android::hardware::tv::tuner::V1_0::FrontendDvbtCoderate::CODERATE_3_4"
    },
    {
     "enum_field_value" : 16,
     "name" : "android::hardware::tv::tuner::V1_0::FrontendDvbtCoderate::CODERATE_5_6"
    },
    {
     "enum_field_value" : 32,
     "name" : "android::hardware::tv::tuner::V1_0::FrontendDvbtCoderate::CODERATE_7_8"
    },
    {
     "enum_field_value" : 64,
     "name" : "android::hardware::tv::tuner::V1_0::FrontendDvbtCoderate::CODERATE_3_5"
    },
    {
     "enum_field_value" : 128,
     "name" : "android::hardware::tv::tuner::V1_0::FrontendDvbtCoderate::CODERATE_4_5"
    },
    {
     "enum_field_value" : 256,
     "name" : "android::hardware::tv::tuner::V1_0::FrontendDvbtCoderate::CODERATE_6_7"
    },
    {
     "enum_field_value" : 512,
     "name" : "android::hardware::tv::tuner::V1_0::FrontendDvbtCoderate::CODERATE_8_9"
    }
   ],
   "linker_set_key" : "_ZTIN7android8hardware2tv5tuner4V1_020FrontendDvbtCoderateE",
   "name" : "android::hardware::tv::tuner::V1_0::FrontendDvbtCoderate",
   "referenced_type" : "_ZTIN7android8hardware2tv5tuner4V1_020FrontendDvbtCoderateE",
   "self_type" : "_ZTIN7android8hardware2tv5tuner4V1_020FrontendDvbtCoderateE",
   "size" : 4,
   "source_file" : "/out/soong/.intermediates/hardware/interfaces/tv/tuner/1.0/android.hardware.tv.tuner@1.0_genc++_headers/gen/android/hardware/tv/tuner/1.0/types.h",
   "underlying_type" : "_ZTIj"
  },
  {
   "alignment" : 1,
   "enum_fields" :
   [
    {
     "enum_field_value" : 1,
     "name" : "android::hardware::tv::tuner::V1_0::FrontendDvbtStandard::AUTO"
    },
    {
     "enum_field_value" : 2,
     "name" : "android::hardware::tv::tuner::V1_0::FrontendDvbtStandard::T"
    },
    {
     "enum_field_value" : 4,
     "name" : "android::hardware::tv::tuner::V1_0::FrontendDvbtStandard::T2"
    }
   ],
   "linker_set_key" : "_ZTIN7android8hardware2tv5tuner4V1_020FrontendDvbtStandardE",
   "name" : "android::hardware::tv::tuner::V1_0::FrontendDvbtStandard",
   "referenced_type" : "_ZTIN7android8hardware2tv5tuner4V1_020FrontendDvbtStandardE",
   "self_type" : "_ZTIN7android8hardware2tv5tuner4V1_020FrontendDvbtStandardE",
   "size" : 1,
   "source_file" : "/out/soong/.intermediates/hardware/interfaces/tv/tuner/1.0/android.hardware.tv.tuner@1.0_genc++_headers/gen/android/hardware/tv/tuner/1.0/types.h",
   "underlying_type" : "_ZTIh"
  },
  {
   "alignment" : 4,
   "enum_fields" :
   [
    {
     "enum_field_value" : 0,
     "name" : "android::hardware::tv::tuner::V1_0::FrontendIsdbsRolloff::UNDEFINED"
    },
    {
     "enum_field_value" : 1,
     "name" : "android::hardware::tv::tuner::V1_0::FrontendIsdbsRolloff::ROLLOFF_0_35"
    }
   ],
   "linker_set_key" : "_ZTIN7android8hardware2tv5tuner4V1_020FrontendIsdbsRolloffE",
   "name" : "android::hardware::tv::tuner::V1_0::FrontendIsdbsRolloff",
   "referenced_type" : "_ZTIN7android8hardware2tv5tuner4V1_020FrontendIsdbsRolloffE",
   "self_type" : "_ZTIN7android8hardware2tv5tuner4V1_020FrontendIsdbsRolloffE",
   "size" : 4,
   "source_file" : "/out/soong/.intermediates/hardware/interfaces/tv/tuner/1.0/android.hardware.tv.tuner@1.0_genc++_headers/gen/android/hardware/tv/tuner/1.0/types.h",
   "underlying_type" : "_ZTIj"
  },
  {
   "alignment" : 1,
   "enum_fields" :
   [
    {
     "enum_field_value" : 0,
     "name" : "android::hardware::tv::tuner::V1_0::DemuxFilterMediaEvent::ExtraMetaData::hidl_discriminator::noinit"
    },
    {
     "enum_field_value" : 1,
     "name" : "android::hardware::tv::tuner::V1_0::DemuxFilterMediaEvent::ExtraMetaData::hidl_discriminator::audio"
    }
   ],
   "linker_set_key" : "_ZTIN7android8hardware2tv5tuner4V1_021DemuxFilterMediaEvent13ExtraMetaData18hidl_discriminatorE",
   "name" : "android::hardware::tv::tuner::V1_0::DemuxFilterMediaEvent::ExtraMetaData::hidl_discriminator",
   "referenced_type" : "_ZTIN7android8hardware2tv5tuner4V1_021DemuxFilterMediaEvent13ExtraMetaData18hidl_discriminatorE",
   "self_type" : "_ZTIN7android8hardware2tv5tuner4V1_021DemuxFilterMediaEvent13ExtraMetaData18hidl_discriminatorE",
   "size" : 1,
   "source_file" : "/out/soong/.intermediates/hardware/interfaces/tv/tuner/1.0/android.hardware.tv.tuner@1.0_genc++_headers/gen/android/hardware/tv/tuner/1.0/types.h",
   "underlying_type" : "_ZTIh"
  },
  {
   "alignment" : 1,
   "enum_fields" :
   [
    {
     "enum_field_value" : 0,
     "name" : "android::hardware::tv::tuner::V1_0::DemuxIpFilterSettings::FilterSettings::hidl_discriminator::noinit"
    },
    {
     "enum_field_value" : 1,
     "name" : "android::hardware::tv::tuner::V1_0::DemuxIpFilterSettings::FilterSettings::hidl_discriminator::section"
    },
    {
     "enum_field_value" : 2,
     "name" : "android::hardware::tv::tuner::V1_0::DemuxIpFilterSettings::FilterSettings::hidl_discriminator::bPassthrough"
    }
   ],
   "linker_set_key" : "_ZTIN7android8hardware2tv5tuner4V1_021DemuxIpFilterSettings14FilterSettings18hidl_discriminatorE",
   "name" : "android::hardware::tv::tuner::V1_0::DemuxIpFilterSettings::FilterSettings::hidl_discriminator",
   "referenced_type" : "_ZTIN7android8hardware2tv5tuner4V1_021DemuxIpFilterSettings14FilterSettings18hidl_discriminatorE",
   "self_type" : "_ZTIN7android8hardware2tv5tuner4V1_021DemuxIpFilterSettings14FilterSettings18hidl_discriminatorE",
   "size" : 1,
   "source_file" : "/out/soong/.intermediates/hardware/interfaces/tv/tuner/1.0/android.hardware.tv.tuner@1.0_genc++_headers/gen/android/hardware/tv/tuner/1.0/types.h",
   "underlying_type" : "_ZTIh"
  },
  {
   "alignment" : 1,
   "enum_fields" :
   [
    {
     "enum_field_value" : 0,
     "name" : "android::hardware::tv::tuner::V1_0::DemuxTsFilterSettings::FilterSettings::hidl_discriminator::noinit"
    },
    {
     "enum_field_value" : 1,
     "name" : "android::hardware::tv::tuner::V1_0::DemuxTsFilterSettings::FilterSettings::hidl_discriminator::section"
    },
    {
     "enum_field_value" : 2,
     "name" : "android::hardware::tv::tuner::V1_0::DemuxTsFilterSettings::FilterSettings::hidl_discriminator::av"
    },
    {
     "enum_field_value" : 3,
     "name" : "android::hardware::tv::tuner::V1_0::DemuxTsFilterSettings::FilterSettings::hidl_discriminator::pesData"
    },
    {
     "enum_field_value" : 4,
     "name" : "android::hardware::tv::tuner::V1_0::DemuxTsFilterSettings::FilterSettings::hidl_discriminator::record"
    }
   ],
   "linker_set_key" : "_ZTIN7android8hardware2tv5tuner4V1_021DemuxTsFilterSettings14FilterSettings18hidl_discriminatorE",
   "name" : "android::hardware::tv::tuner::V1_0::DemuxTsFilterSettings::FilterSettings::hidl_discriminator",
   "referenced_type" : "_ZTIN7android8hardware2tv5tuner4V1_021DemuxTsFilterSettings14FilterSettings18hidl_discriminatorE",
   "self_type" : "_ZTIN7android8hardware2tv5tuner4V1_021DemuxTsFilterSettings14FilterSettings18hidl_discriminatorE",
   "size" : 1,
   "source_file" : "/out/soong/.intermediates/hardware/interfaces/tv/tuner/1.0/android.hardware.tv.tuner@1.0_genc++_headers/gen/android/hardware/tv/tuner/1.0/types.h",
   "underlying_type" : "_ZTIh"
  },
  {
   "alignment" : 4,
   "enum_fields" :
   [
    {
     "enum_field_value" : 0,
     "name" : "android::hardware::tv::tuner::V1_0::FrontendAtsc3CodeRate::UNDEFINED"
    },
    {
     "enum_field_value" : 1,
     "name" : "android::hardware::tv::tuner::V1_0::FrontendAtsc3CodeRate::AUTO"
    },
    {
     "enum_field_value" : 2,
     "name" : "android::hardware::tv::tuner::V1_0::FrontendAtsc3CodeRate::CODERATE_2_15"
    },
    {
     "enum_field_value" : 4,
     "name" : "android::hardware::tv::tuner::V1_0::FrontendAtsc3CodeRate::CODERATE_3_15"
    },
    {
     "enum_field_value" : 8,
     "name" : "android::hardware::tv::tuner::V1_0::FrontendAtsc3CodeRate::CODERATE_4_15"
    },
    {
     "enum_field_value" : 16,
     "name" : "android::hardware::tv::tuner::V1_0::FrontendAtsc3CodeRate::CODERATE_5_15"
    },
    {
     "enum_field_value" : 32,
     "name" : "android::hardware::tv::tuner::V1_0::FrontendAtsc3CodeRate::CODERATE_6_15"
    },
    {
     "enum_field_value" : 64,
     "name" : "android::hardware::tv::tuner::V1_0::FrontendAtsc3CodeRate::CODERATE_7_15"
    },
    {
     "enum_field_value" : 128,
     "name" : "android::hardware::tv::tuner::V1_0::FrontendAtsc3CodeRate::CODERATE_8_15"
    },
    {
     "enum_field_value" : 256,
     "name" : "android::hardware::tv::tuner::V1_0::FrontendAtsc3CodeRate::CODERATE_9_15"
    },
    {
     "enum_field_value" : 512,
     "name" : "android::hardware::tv::tuner::V1_0::FrontendAtsc3CodeRate::CODERATE_10_15"
    },
    {
     "enum_field_value" : 1024,
     "name" : "android::hardware::tv::tuner::V1_0::FrontendAtsc3CodeRate::CODERATE_11_15"
    },
    {
     "enum_field_value" : 2048,
     "name" : "android::hardware::tv::tuner::V1_0::FrontendAtsc3CodeRate::CODERATE_12_15"
    },
    {
     "enum_field_value" : 4096,
     "name" : "android::hardware::tv::tuner::V1_0::FrontendAtsc3CodeRate::CODERATE_13_15"
    }
   ],
   "linker_set_key" : "_ZTIN7android8hardware2tv5tuner4V1_021FrontendAtsc3CodeRateE",
   "name" : "android::hardware::tv::tuner::V1_0::FrontendAtsc3CodeRate",
   "referenced_type" : "_ZTIN7android8hardware2tv5tuner4V1_021FrontendAtsc3CodeRateE",
   "self_type" : "_ZTIN7android8hardware2tv5tuner4V1_021FrontendAtsc3CodeRateE",
   "size" : 4,
   "source_file" : "/out/soong/.intermediates/hardware/interfaces/tv/tuner/1.0/android.hardware.tv.tuner@1.0_genc++_headers/gen/android/hardware/tv/tuner/1.0/types.h",
   "underlying_type" : "_ZTIj"
  },
  {
   "alignment" : 4,
   "enum_fields" :
   [
    {
     "enum_field_value" : 0,
     "name" : "android::hardware::tv::tuner::V1_0::FrontendDvbtBandwidth::UNDEFINED"
    },
    {
     "enum_field_value" : 1,
     "name" : "android::hardware::tv::tuner::V1_0::FrontendDvbtBandwidth::AUTO"
    },
    {
     "enum_field_value" : 2,
     "name" : "android::hardware::tv::tuner::V1_0::FrontendDvbtBandwidth::BANDWIDTH_8MHZ"
    },
    {
     "enum_field_value" : 4,
     "name" : "android::hardware::tv::tuner::V1_0::FrontendDvbtBandwidth::BANDWIDTH_7MHZ"
    },
    {
     "enum_field_value" : 8,
     "name" : "android::hardware::tv::tuner::V1_0::FrontendDvbtBandwidth::BANDWIDTH_6MHZ"
    },
    {
     "enum_field_value" : 16,
     "name" : "android::hardware::tv::tuner::V1_0::FrontendDvbtBandwidth::BANDWIDTH_5MHZ"
    },
    {
     "enum_field_value" : 32,
     "name" : "android::hardware::tv::tuner::V1_0::FrontendDvbtBandwidth::BANDWIDTH_1_7MHZ"
    },
    {
     "enum_field_value" : 64,
     "name" : "android::hardware::tv::tuner::V1_0::FrontendDvbtBandwidth::BANDWIDTH_10MHZ"
    }
   ],
   "linker_set_key" : "_ZTIN7android8hardware2tv5tuner4V1_021FrontendDvbtBandwidthE",
   "name" : "android::hardware::tv::tuner::V1_0::FrontendDvbtBandwidth",
   "referenced_type" : "_ZTIN7android8hardware2tv5tuner4V1_021FrontendDvbtBandwidthE",
   "self_type" : "_ZTIN7android8hardware2tv5tuner4V1_021FrontendDvbtBandwidthE",
   "size" : 4,
   "source_file" : "/out/soong/.intermediates/hardware/interfaces/tv/tuner/1.0/android.hardware.tv.tuner@1.0_genc++_headers/gen/android/hardware/tv/tuner/1.0/types.h",
   "underlying_type" : "_ZTIj"
  },
  {
   "alignment" : 4,
   "enum_fields" :
   [
    {
     "enum_field_value" : 0,
     "name" : "android::hardware::tv::tuner::V1_0::FrontendDvbtHierarchy::UNDEFINED"
    },
    {
     "enum_field_value" : 1,
     "name" : "android::hardware::tv::tuner::V1_0::FrontendDvbtHierarchy::AUTO"
    },
    {
     "enum_field_value" : 2,
     "name" : "android::hardware::tv::tuner::V1_0::FrontendDvbtHierarchy::HIERARCHY_NON_NATIVE"
    },
    {
     "enum_field_value" : 4,
     "name" : "android::hardware::tv::tuner::V1_0::FrontendDvbtHierarchy::HIERARCHY_1_NATIVE"
    },
    {
     "enum_field_value" : 8,
     "name" : "android::hardware::tv::tuner::V1_0::FrontendDvbtHierarchy::HIERARCHY_2_NATIVE"
    },
    {
     "enum_field_value" : 16,
     "name" : "android::hardware::tv::tuner::V1_0::FrontendDvbtHierarchy::HIERARCHY_4_NATIVE"
    },
    {
     "enum_field_value" : 32,
     "name" : "android::hardware::tv::tuner::V1_0::FrontendDvbtHierarchy::HIERARCHY_NON_INDEPTH"
    },
    {
     "enum_field_value" : 64,
     "name" : "android::hardware::tv::tuner::V1_0::FrontendDvbtHierarchy::HIERARCHY_1_INDEPTH"
    },
    {
     "enum_field_value" : 128,
     "name" : "android::hardware::tv::tuner::V1_0::FrontendDvbtHierarchy::HIERARCHY_2_INDEPTH"
    },
    {
     "enum_field_value" : 256,
     "name" : "android::hardware::tv::tuner::V1_0::FrontendDvbtHierarchy::HIERARCHY_4_INDEPTH"
    }
   ],
   "linker_set_key" : "_ZTIN7android8hardware2tv5tuner4V1_021FrontendDvbtHierarchyE",
   "name" : "android::hardware::tv::tuner::V1_0::FrontendDvbtHierarchy",
   "referenced_type" : "_ZTIN7android8hardware2tv5tuner4V1_021FrontendDvbtHierarchyE",
   "self_type" : "_ZTIN7android8hardware2tv5tuner4V1_021FrontendDvbtHierarchyE",
   "size" : 4,
   "source_file" : "/out/soong/.intermediates/hardware/interfaces/tv/tuner/1.0/android.hardware.tv.tuner@1.0_genc++_headers/gen/android/hardware/tv/tuner/1.0/types.h",
   "underlying_type" : "_ZTIj"
  },
  {
   "alignment" : 4,
   "enum_fields" :
   [
    {
     "enum_field_value" : 0,
     "name" : "android::hardware::tv::tuner::V1_0::FrontendIsdbs3Rolloff::UNDEFINED"
    },
    {
     "enum_field_value" : 1,
     "name" : "android::hardware::tv::tuner::V1_0::FrontendIsdbs3Rolloff::ROLLOFF_0_03"
    }
   ],
   "linker_set_key" : "_ZTIN7android8hardware2tv5tuner4V1_021FrontendIsdbs3RolloffE",
   "name" : "android::hardware::tv::tuner::V1_0::FrontendIsdbs3Rolloff",
   "referenced_type" : "_ZTIN7android8hardware2tv5tuner4V1_021FrontendIsdbs3RolloffE",
   "self_type" : "_ZTIN7android8hardware2tv5tuner4V1_021FrontendIsdbs3RolloffE",
   "size" : 4,
   "source_file" : "/out/soong/.intermediates/hardware/interfaces/tv/tuner/1.0/android.hardware.tv.tuner@1.0_genc++_headers/gen/android/hardware/tv/tuner/1.0/types.h",
   "underlying_type" : "_ZTIj"
  },
  {
   "alignment" : 4,
   "enum_fields" :
   [
    {
     "enum_field_value" : 0,
     "name" : "android::hardware::tv::tuner::V1_0::FrontendIsdbsCoderate::UNDEFINED"
    },
    {
     "enum_field_value" : 1,
     "name" : "android::hardware::tv::tuner::V1_0::FrontendIsdbsCoderate::AUTO"
    },
    {
     "enum_field_value" : 2,
     "name" : "android::hardware::tv::tuner::V1_0::FrontendIsdbsCoderate::CODERATE_1_2"
    },
    {
     "enum_field_value" : 4,
     "name" : "android::hardware::tv::tuner::V1_0::FrontendIsdbsCoderate::CODERATE_2_3"
    },
    {
     "enum_field_value" : 8,
     "name" : "android::hardware::tv::tuner::V1_0::FrontendIsdbsCoderate::CODERATE_3_4"
    },
    {
     "enum_field_value" : 16,
     "name" : "android::hardware::tv::tuner::V1_0::FrontendIsdbsCoderate::CODERATE_5_6"
    },
    {
     "enum_field_value" : 32,
     "name" : "android::hardware::tv::tuner::V1_0::FrontendIsdbsCoderate::CODERATE_7_8"
    }
   ],
   "linker_set_key" : "_ZTIN7android8hardware2tv5tuner4V1_021FrontendIsdbsCoderateE",
   "name" : "android::hardware::tv::tuner::V1_0::FrontendIsdbsCoderate",
   "referenced_type" : "_ZTIN7android8hardware2tv5tuner4V1_021FrontendIsdbsCoderateE",
   "self_type" : "_ZTIN7android8hardware2tv5tuner4V1_021FrontendIsdbsCoderateE",
   "size" : 4,
   "source_file" : "/out/soong/.intermediates/hardware/interfaces/tv/tuner/1.0/android.hardware.tv.tuner@1.0_genc++_headers/gen/android/hardware/tv/tuner/1.0/types.h",
   "underlying_type" : "_ZTIj"
  },
  {
   "alignment" : 1,
   "enum_fields" :
   [
    {
     "enum_field_value" : 0,
     "name" : "android::hardware::tv::tuner::V1_0::DemuxAlpFilterSettings::FilterSettings::hidl_discriminator::noinit"
    },
    {
     "enum_field_value" : 1,
     "name" : "android::hardware::tv::tuner::V1_0::DemuxAlpFilterSettings::FilterSettings::hidl_discriminator::section"
    }
   ],
   "linker_set_key" : "_ZTIN7android8hardware2tv5tuner4V1_022DemuxAlpFilterSettings14FilterSettings18hidl_discriminatorE",
   "name" : "android::hardware::tv::tuner::V1_0::DemuxAlpFilterSettings::FilterSettings::hidl_discriminator",
   "referenced_type" : "_ZTIN7android8hardware2tv5tuner4V1_022DemuxAlpFilterSettings14FilterSettings18hidl_discriminatorE",
   "self_type" : "_ZTIN7android8hardware2tv5tuner4V1_022DemuxAlpFilterSettings14FilterSettings18hidl_discriminatorE",
   "size" : 1,
   "source_file" : "/out/soong/.intermediates/hardware/interfaces/tv/tuner/1.0/android.hardware.tv.tuner@1.0_genc++_headers/gen/android/hardware/tv/tuner/1.0/types.h",
   "underlying_type" : "_ZTIh"
  },
  {
   "alignment" : 4,
   "enum_fields" :
   [
    {
     "enum_field_value" : 0,
     "name" : "android::hardware::tv::tuner::V1_0::DemuxRecordScIndexType::NONE"
    },
    {
     "enum_field_value" : 1,
     "name" : "android::hardware::tv::tuner::V1_0::DemuxRecordScIndexType::SC"
    },
    {
     "enum_field_value" : 2,
     "name" : "android::hardware::tv::tuner::V1_0::DemuxRecordScIndexType::SC_HEVC"
    }
   ],
   "linker_set_key" : "_ZTIN7android8hardware2tv5tuner4V1_022DemuxRecordScIndexTypeE",
   "name" : "android::hardware::tv::tuner::V1_0::DemuxRecordScIndexType",
   "referenced_type" : "_ZTIN7android8hardware2tv5tuner4V1_022DemuxRecordScIndexTypeE",
   "self_type" : "_ZTIN7android8hardware2tv5tuner4V1_022DemuxRecordScIndexTypeE",
   "size" : 4,
   "source_file" : "/out/soong/.intermediates/hardware/interfaces/tv/tuner/1.0/android.hardware.tv.tuner@1.0_genc++_headers/gen/android/hardware/tv/tuner/1.0/types.h",
   "underlying_type" : "_ZTIj"
  },
  {
   "alignment" : 1,
   "enum_fields" :
   [
    {
     "enum_field_value" : 0,
     "name" : "android::hardware::tv::tuner::V1_0::DemuxTlvFilterSettings::FilterSettings::hidl_discriminator::noinit"
    },
    {
     "enum_field_value" : 1,
     "name" : "android::hardware::tv::tuner::V1_0::DemuxTlvFilterSettings::FilterSettings::hidl_discriminator::section"
    },
    {
     "enum_field_value" : 2,
     "name" : "android::hardware::tv::tuner::V1_0::DemuxTlvFilterSettings::FilterSettings::hidl_discriminator::bPassthrough"
    }
   ],
   "linker_set_key" : "_ZTIN7android8hardware2tv5tuner4V1_022DemuxTlvFilterSettings14FilterSettings18hidl_discriminatorE",
   "name" : "android::hardware::tv::tuner::V1_0::DemuxTlvFilterSettings::FilterSettings::hidl_discriminator",
   "referenced_type" : "_ZTIN7android8hardware2tv5tuner4V1_022DemuxTlvFilterSettings14FilterSettings18hidl_discriminatorE",
   "self_type" : "_ZTIN7android8hardware2tv5tuner4V1_022DemuxTlvFilterSettings14FilterSettings18hidl_discriminatorE",
   "size" : 1,
   "source_file" : "/out/soong/.intermediates/hardware/interfaces/tv/tuner/1.0/android.hardware.tv.tuner@1.0_genc++_headers/gen/android/hardware/tv/tuner/1.0/types.h",
   "underlying_type" : "_ZTIh"
  },
  {
   "alignment" : 4,
   "enum_fields" :
   [
    {
     "enum_field_value" : 0,
     "name" : "android::hardware::tv::tuner::V1_0::FrontendAtsc3Bandwidth::UNDEFINED"
    },
    {
     "enum_field_value" : 1,
     "name" : "android::hardware::tv::tuner::V1_0::FrontendAtsc3Bandwidth::AUTO"
    },
    {
     "enum_field_value" : 2,
     "name" : "android::hardware::tv::tuner::V1_0::FrontendAtsc3Bandwidth::BANDWIDTH_6MHZ"
    },
    {
     "enum_field_value" : 4,
     "name" : "android::hardware::tv::tuner::V1_0::FrontendAtsc3Bandwidth::BANDWIDTH_7MHZ"
    },
    {
     "enum_field_value" : 8,
     "name" : "android::hardware::tv::tuner::V1_0::FrontendAtsc3Bandwidth::BANDWIDTH_8MHZ"
    }
   ],
   "linker_set_key" : "_ZTIN7android8hardware2tv5tuner4V1_022FrontendAtsc3BandwidthE",
   "name" : "android::hardware::tv::tuner::V1_0::FrontendAtsc3Bandwidth",
   "referenced_type" : "_ZTIN7android8hardware2tv5tuner4V1_022FrontendAtsc3BandwidthE",
   "self_type" : "_ZTIN7android8hardware2tv5tuner4V1_022FrontendAtsc3BandwidthE",
   "size" : 4,
   "source_file" : "/out/soong/.intermediates/hardware/interfaces/tv/tuner/1.0/android.hardware.tv.tuner@1.0_genc++_headers/gen/android/hardware/tv/tuner/1.0/types.h",
   "underlying_type" : "_ZTIj"
  },
  {
   "alignment" : 4,
   "enum_fields" :
   [
    {
     "enum_field_value" : 0,
     "name" : "android::hardware::tv::tuner::V1_0::FrontendAtscModulation::UNDEFINED"
    },
    {
     "enum_field_value" : 1,
     "name" : "android::hardware::tv::tuner::V1_0::FrontendAtscModulation::AUTO"
    },
    {
     "enum_field_value" : 4,
     "name" : "android::hardware::tv::tuner::V1_0::FrontendAtscModulation::MOD_8VSB"
    },
    {
     "enum_field_value" : 8,
     "name" : "android::hardware::tv::tuner::V1_0::FrontendAtscModulation::MOD_16VSB"
    }
   ],
   "linker_set_key" : "_ZTIN7android8hardware2tv5tuner4V1_022FrontendAtscModulationE",
   "name" : "android::hardware::tv::tuner::V1_0::FrontendAtscModulation",
   "referenced_type" : "_ZTIN7android8hardware2tv5tuner4V1_022FrontendAtscModulationE",
   "self_type" : "_ZTIN7android8hardware2tv5tuner4V1_022FrontendAtscModulationE",
   "size" : 4,
   "source_file" : "/out/soong/.intermediates/hardware/interfaces/tv/tuner/1.0/android.hardware.tv.tuner@1.0_genc++_headers/gen/android/hardware/tv/tuner/1.0/types.h",
   "underlying_type" : "_ZTIj"
  },
  {
   "alignment" : 4,
   "enum_fields" :
   [
    {
     "enum_field_value" : 0,
     "name" : "android::hardware::tv::tuner::V1_0::FrontendDvbcModulation::UNDEFINED"
    },
    {
     "enum_field_value" : 1,
     "name" : "android::hardware::tv::tuner::V1_0::FrontendDvbcModulation::AUTO"
    },
    {
     "enum_field_value" : 2,
     "name" : "android::hardware::tv::tuner::V1_0::FrontendDvbcModulation::MOD_16QAM"
    },
    {
     "enum_field_value" : 4,
     "name" : "android::hardware::tv::tuner::V1_0::FrontendDvbcModulation::MOD_32QAM"
    },
    {
     "enum_field_value" : 8,
     "name" : "android::hardware::tv::tuner::V1_0::FrontendDvbcModulation::MOD_64QAM"
    },
    {
     "enum_field_value" : 16,
     "name" : "android::hardware::tv::tuner::V1_0::FrontendDvbcModulation::MOD_128QAM"
    },
    {
     "enum_field_value" : 32,
     "name" : "android::hardware::tv::tuner::V1_0::FrontendDvbcModulation::MOD_256QAM"
    }
   ],
   "linker_set_key" : "_ZTIN7android8hardware2tv5tuner4V1_022FrontendDvbcModulationE",
   "name" : "android::hardware::tv::tuner::V1_0::FrontendDvbcModulation",
   "referenced_type" : "_ZTIN7android8hardware2tv5tuner4V1_022FrontendDvbcModulationE",
   "self_type" : "_ZTIN7android8hardware2tv5tuner4V1_022FrontendDvbcModulationE",
   "size" : 4,
   "source_file" : "/out/soong/.intermediates/hardware/interfaces/tv/tuner/1.0/android.hardware.tv.tuner@1.0_genc++_headers/gen/android/hardware/tv/tuner/1.0/types.h",
   "underlying_type" : "_ZTIj"
  },
  {
   "alignment" : 4,
   "enum_fields" :
   [
    {
     "enum_field_value" : 0,
     "name" : "android::hardware::tv::tuner::V1_0::FrontendDvbsModulation::UNDEFINED"
    },
    {
     "enum_field_value" : 1,
     "name" : "android::hardware::tv::tuner::V1_0::FrontendDvbsModulation::AUTO"
    },
    {
     "enum_field_value" : 2,
     "name" : "android::hardware::tv::tuner::V1_0::FrontendDvbsModulation::MOD_QPSK"
    },
    {
     "enum_field_value" : 4,
     "name" : "android::hardware::tv::tuner::V1_0::FrontendDvbsModulation::MOD_8PSK"
    },
    {
     "enum_field_value" : 8,
     "name" : "android::hardware::tv::tuner::V1_0::FrontendDvbsModulation::MOD_16QAM"
    },
    {
     "enum_field_value" : 16,
     "name" : "android::hardware::tv::tuner::V1_0::FrontendDvbsModulation::MOD_16PSK"
    },
    {
     "enum_field_value" : 32,
     "name" : "android::hardware::tv::tuner::V1_0::FrontendDvbsModulation::MOD_32PSK"
    },
    {
     "enum_field_value" : 64,
     "name" : "android::hardware::tv::tuner::V1_0::FrontendDvbsModulation::MOD_ACM"
    },
    {
     "enum_field_value" : 128,
     "name" : "android::hardware::tv::tuner::V1_0::FrontendDvbsModulation::MOD_8APSK"
    },
    {
     "enum_field_value" : 256,
     "name" : "android::hardware::tv::tuner::V1_0::FrontendDvbsModulation::MOD_16APSK"
    },
    {
     "enum_field_value" : 512,
     "name" : "android::hardware::tv::tuner::V1_0::FrontendDvbsModulation::MOD_32APSK"
    },
    {
     "enum_field_value" : 1024,
     "name" : "android::hardware::tv::tuner::V1_0::FrontendDvbsModulation::MOD_64APSK"
    },
    {
     "enum_field_value" : 2048,
     "name" : "android::hardware::tv::tuner::V1_0::FrontendDvbsModulation::MOD_128APSK"
    },
    {
     "enum_field_value" : 4096,
     "name" : "android::hardware::tv::tuner::V1_0::FrontendDvbsModulation::MOD_256APSK"
    },
    {
     "enum_field_value" : 8192,
     "name" : "android::hardware::tv::tuner::V1_0::FrontendDvbsModulation::MOD_RESERVED"
    }
   ],
   "linker_set_key" : "_ZTIN7android8hardware2tv5tuner4V1_022FrontendDvbsModulationE",
   "name" : "android::hardware::tv::tuner::V1_0::FrontendDvbsModulation",
   "referenced_type" : "_ZTIN7android8hardware2tv5tuner4V1_022FrontendDvbsModulationE",
   "self_type" : "_ZTIN7android8hardware2tv5tuner4V1_022FrontendDvbsModulationE",
   "size" : 4,
   "source_file" : "/out/soong/.intermediates/hardware/interfaces/tv/tuner/1.0/android.hardware.tv.tuner@1.0_genc++_headers/gen/android/hardware/tv/tuner/1.0/types.h",
   "underlying_type" : "_ZTIi"
  },
  {
   "alignment" : 4,
   "enum_fields" :
   [
    {
     "enum_field_value" : 0,
     "name" : "android::hardware::tv::tuner::V1_0::FrontendIsdbs3Coderate::UNDEFINED"
    },
    {
     "enum_field_value" : 1,
     "name" : "android::hardware::tv::tuner::V1_0::FrontendIsdbs3Coderate::AUTO"
    },
    {
     "enum_field_value" : 2,
     "name" : "android::hardware::tv::tuner::V1_0::FrontendIsdbs3Coderate::CODERATE_1_3"
    },
    {
     "enum_field_value" : 4,
     "name" : "android::hardware::tv::tuner::V1_0::FrontendIsdbs3Coderate::CODERATE_2_5"
    },
    {
     "enum_field_value" : 8,
     "name" : "android::hardware::tv::tuner::V1_0::FrontendIsdbs3Coderate::CODERATE_1_2"
    },
    {
     "enum_field_value" : 16,
     "name" : "android::hardware::tv::tuner::V1_0::FrontendIsdbs3Coderate::CODERATE_3_5"
    },
    {
     "enum_field_value" : 32,
     "name" : "android::hardware::tv::tuner::V1_0::FrontendIsdbs3Coderate::CODERATE_2_3"
    },
    {
     "enum_field_value" : 64,
     "name" : "android::hardware::tv::tuner::V1_0::FrontendIsdbs3Coderate::CODERATE_3_4"
    },
    {
     "enum_field_value" : 128,
     "name" : "android::hardware::tv::tuner::V1_0::FrontendIsdbs3Coderate::CODERATE_7_9"
    },
    {
     "enum_field_value" : 256,
     "name" : "android::hardware::tv::tuner::V1_0::FrontendIsdbs3Coderate::CODERATE_4_5"
    },
    {
     "enum_field_value" : 512,
     "name" : "android::hardware::tv::tuner::V1_0::FrontendIsdbs3Coderate::CODERATE_5_6"
    },
    {
     "enum_field_value" : 1024,
     "name" : "android::hardware::tv::tuner::V1_0::FrontendIsdbs3Coderate::CODERATE_7_8"
    },
    {
     "enum_field_value" : 2048,
     "name" : "android::hardware::tv::tuner::V1_0::FrontendIsdbs3Coderate::CODERATE_9_10"
    }
   ],
   "linker_set_key" : "_ZTIN7android8hardware2tv5tuner4V1_022FrontendIsdbs3CoderateE",
   "name" : "android::hardware::tv::tuner::V1_0::FrontendIsdbs3Coderate",
   "referenced_type" : "_ZTIN7android8hardware2tv5tuner4V1_022FrontendIsdbs3CoderateE",
   "self_type" : "_ZTIN7android8hardware2tv5tuner4V1_022FrontendIsdbs3CoderateE",
   "size" : 4,
   "source_file" : "/out/soong/.intermediates/hardware/interfaces/tv/tuner/1.0/android.hardware.tv.tuner@1.0_genc++_headers/gen/android/hardware/tv/tuner/1.0/types.h",
   "underlying_type" : "_ZTIj"
  },
  {
   "alignment" : 4,
   "enum_fields" :
   [
    {
     "enum_field_value" : 0,
     "name" : "android::hardware::tv::tuner::V1_0::FrontendIsdbtBandwidth::UNDEFINED"
    },
    {
     "enum_field_value" : 1,
     "name" : "android::hardware::tv::tuner::V1_0::FrontendIsdbtBandwidth::AUTO"
    },
    {
     "enum_field_value" : 2,
     "name" : "android::hardware::tv::tuner::V1_0::FrontendIsdbtBandwidth::BANDWIDTH_8MHZ"
    },
    {
     "enum_field_value" : 4,
     "name" : "android::hardware::tv::tuner::V1_0::FrontendIsdbtBandwidth::BANDWIDTH_7MHZ"
    },
    {
     "enum_field_value" : 8,
     "name" : "android::hardware::tv::tuner::V1_0::FrontendIsdbtBandwidth::BANDWIDTH_6MHZ"
    }
   ],
   "linker_set_key" : "_ZTIN7android8hardware2tv5tuner4V1_022FrontendIsdbtBandwidthE",
   "name" : "android::hardware::tv::tuner::V1_0::FrontendIsdbtBandwidth",
   "referenced_type" : "_ZTIN7android8hardware2tv5tuner4V1_022FrontendIsdbtBandwidthE",
   "self_type" : "_ZTIN7android8hardware2tv5tuner4V1_022FrontendIsdbtBandwidthE",
   "size" : 4,
   "source_file" : "/out/soong/.intermediates/hardware/interfaces/tv/tuner/1.0/android.hardware.tv.tuner@1.0_genc++_headers/gen/android/hardware/tv/tuner/1.0/types.h",
   "underlying_type" : "_ZTIj"
  },
  {
   "alignment" : 1,
   "enum_fields" :
   [
    {
     "enum_field_value" : 0,
     "name" : "android::hardware::tv::tuner::V1_0::DemuxMmtpFilterSettings::FilterSettings::hidl_discriminator::noinit"
    },
    {
     "enum_field_value" : 1,
     "name" : "android::hardware::tv::tuner::V1_0::DemuxMmtpFilterSettings::FilterSettings::hidl_discriminator::section"
    },
    {
     "enum_field_value" : 2,
     "name" : "android::hardware::tv::tuner::V1_0::DemuxMmtpFilterSettings::FilterSettings::hidl_discriminator::av"
    },
    {
     "enum_field_value" : 3,
     "name" : "android::hardware::tv::tuner::V1_0::DemuxMmtpFilterSettings::FilterSettings::hidl_discriminator::pesData"
    },
    {
     "enum_field_value" : 4,
     "name" : "android::hardware::tv::tuner::V1_0::DemuxMmtpFilterSettings::FilterSettings::hidl_discriminator::record"
    },
    {
     "enum_field_value" : 5,
     "name" : "android::hardware::tv::tuner::V1_0::DemuxMmtpFilterSettings::FilterSettings::hidl_discriminator::download"
    }
   ],
   "linker_set_key" : "_ZTIN7android8hardware2tv5tuner4V1_023DemuxMmtpFilterSettings14FilterSettings18hidl_discriminatorE",
   "name" : "android::hardware::tv::tuner::V1_0::DemuxMmtpFilterSettings::FilterSettings::hidl_discriminator",
   "referenced_type" : "_ZTIN7android8hardware2tv5tuner4V1_023DemuxMmtpFilterSettings14FilterSettings18hidl_discriminatorE",
   "self_type" : "_ZTIN7android8hardware2tv5tuner4V1_023DemuxMmtpFilterSettings14FilterSettings18hidl_discriminatorE",
   "size" : 1,
   "source_file" : "/out/soong/.intermediates/hardware/interfaces/tv/tuner/1.0/android.hardware.tv.tuner@1.0_genc++_headers/gen/android/hardware/tv/tuner/1.0/types.h",
   "underlying_type" : "_ZTIh"
  },
  {
   "alignment" : 4,
   "enum_fields" :
   [
    {
     "enum_field_value" : 0,
     "name" : "android::hardware::tv::tuner::V1_0::FrontendAtsc3Modulation::UNDEFINED"
    },
    {
     "enum_field_value" : 1,
     "name" : "android::hardware::tv::tuner::V1_0::FrontendAtsc3Modulation::AUTO"
    },
    {
     "enum_field_value" : 2,
     "name" : "android::hardware::tv::tuner::V1_0::FrontendAtsc3Modulation::MOD_QPSK"
    },
    {
     "enum_field_value" : 4,
     "name" : "android::hardware::tv::tuner::V1_0::FrontendAtsc3Modulation::MOD_16QAM"
    },
    {
     "enum_field_value" : 8,
     "name" : "android::hardware::tv::tuner::V1_0::FrontendAtsc3Modulation::MOD_64QAM"
    },
    {
     "enum_field_value" : 16,
     "name" : "android::hardware::tv::tuner::V1_0::FrontendAtsc3Modulation::MOD_256QAM"
    },
    {
     "enum_field_value" : 32,
     "name" : "android::hardware::tv::tuner::V1_0::FrontendAtsc3Modulation::MOD_1024QAM"
    },
    {
     "enum_field_value" : 64,
     "name" : "android::hardware::tv::tuner::V1_0::FrontendAtsc3Modulation::MOD_4096QAM"
    }
   ],
   "linker_set_key" : "_ZTIN7android8hardware2tv5tuner4V1_023FrontendAtsc3ModulationE",
   "name" : "android::hardware::tv::tuner::V1_0::FrontendAtsc3Modulation",
   "referenced_type" : "_ZTIN7android8hardware2tv5tuner4V1_023FrontendAtsc3ModulationE",
   "self_type" : "_ZTIN7android8hardware2tv5tuner4V1_023FrontendAtsc3ModulationE",
   "size" : 4,
   "source_file" : "/out/soong/.intermediates/hardware/interfaces/tv/tuner/1.0/android.hardware.tv.tuner@1.0_genc++_headers/gen/android/hardware/tv/tuner/1.0/types.h",
   "underlying_type" : "_ZTIj"
  },
  {
   "alignment" : 4,
   "enum_fields" :
   [
    {
     "enum_field_value" : 0,
     "name" : "android::hardware::tv::tuner::V1_0::FrontendIsdbsModulation::UNDEFINED"
    },
    {
     "enum_field_value" : 1,
     "name" : "android::hardware::tv::tuner::V1_0::FrontendIsdbsModulation::AUTO"
    },
    {
     "enum_field_value" : 2,
     "name" : "android::hardware::tv::tuner::V1_0::FrontendIsdbsModulation::MOD_BPSK"
    },
    {
     "enum_field_value" : 4,
     "name" : "android::hardware::tv::tuner::V1_0::FrontendIsdbsModulation::MOD_QPSK"
    },
    {
     "enum_field_value" : 8,
     "name" : "android::hardware::tv::tuner::V1_0::FrontendIsdbsModulation::MOD_TC8PSK"
    }
   ],
   "linker_set_key" : "_ZTIN7android8hardware2tv5tuner4V1_023FrontendIsdbsModulationE",
   "name" : "android::hardware::tv::tuner::V1_0::FrontendIsdbsModulation",
   "referenced_type" : "_ZTIN7android8hardware2tv5tuner4V1_023FrontendIsdbsModulationE",
   "self_type" : "_ZTIN7android8hardware2tv5tuner4V1_023FrontendIsdbsModulationE",
   "size" : 4,
   "source_file" : "/out/soong/.intermediates/hardware/interfaces/tv/tuner/1.0/android.hardware.tv.tuner@1.0_genc++_headers/gen/android/hardware/tv/tuner/1.0/types.h",
   "underlying_type" : "_ZTIj"
  },
  {
   "alignment" : 4,
   "enum_fields" :
   [
    {
     "enum_field_value" : 0,
     "name" : "android::hardware::tv::tuner::V1_0::FrontendIsdbtModulation::UNDEFINED"
    },
    {
     "enum_field_value" : 1,
     "name" : "android::hardware::tv::tuner::V1_0::FrontendIsdbtModulation::AUTO"
    },
    {
     "enum_field_value" : 2,
     "name" : "android::hardware::tv::tuner::V1_0::FrontendIsdbtModulation::MOD_DQPSK"
    },
    {
     "enum_field_value" : 4,
     "name" : "android::hardware::tv::tuner::V1_0::FrontendIsdbtModulation::MOD_QPSK"
    },
    {
     "enum_field_value" : 8,
     "name" : "android::hardware::tv::tuner::V1_0::FrontendIsdbtModulation::MOD_16QAM"
    },
    {
     "enum_field_value" : 16,
     "name" : "android::hardware::tv::tuner::V1_0::FrontendIsdbtModulation::MOD_64QAM"
    }
   ],
   "linker_set_key" : "_ZTIN7android8hardware2tv5tuner4V1_023FrontendIsdbtModulationE",
   "name" : "android::hardware::tv::tuner::V1_0::FrontendIsdbtModulation",
   "referenced_type" : "_ZTIN7android8hardware2tv5tuner4V1_023FrontendIsdbtModulationE",
   "self_type" : "_ZTIN7android8hardware2tv5tuner4V1_023FrontendIsdbtModulationE",
   "size" : 4,
   "source_file" : "/out/soong/.intermediates/hardware/interfaces/tv/tuner/1.0/android.hardware.tv.tuner@1.0_genc++_headers/gen/android/hardware/tv/tuner/1.0/types.h",
   "underlying_type" : "_ZTIj"
  },
  {
   "alignment" : 4,
   "enum_fields" :
   [
    {
     "enum_field_value" : 0,
     "name" : "android::hardware::tv::tuner::V1_0::FrontendScanMessageType::LOCKED"
    },
    {
     "enum_field_value" : 1,
     "name" : "android::hardware::tv::tuner::V1_0::FrontendScanMessageType::END"
    },
    {
     "enum_field_value" : 2,
     "name" : "android::hardware::tv::tuner::V1_0::FrontendScanMessageType::PROGRESS_PERCENT"
    },
    {
     "enum_field_value" : 3,
     "name" : "android::hardware::tv::tuner::V1_0::FrontendScanMessageType::FREQUENCY"
    },
    {
     "enum_field_value" : 4,
     "name" : "android::hardware::tv::tuner::V1_0::FrontendScanMessageType::SYMBOL_RATE"
    },
    {
     "enum_field_value" : 5,
     "name" : "android::hardware::tv::tuner::V1_0::FrontendScanMessageType::HIERARCHY"
    },
    {
     "enum_field_value" : 6,
     "name" : "android::hardware::tv::tuner::V1_0::FrontendScanMessageType::ANALOG_TYPE"
    },
    {
     "enum_field_value" : 7,
     "name" : "android::hardware::tv::tuner::V1_0::FrontendScanMessageType::PLP_IDS"
    },
    {
     "enum_field_value" : 8,
     "name" : "android::hardware::tv::tuner::V1_0::FrontendScanMessageType::GROUP_IDS"
    },
    {
     "enum_field_value" : 9,
     "name" : "android::hardware::tv::tuner::V1_0::FrontendScanMessageType::INPUT_STREAM_IDS"
    },
    {
     "enum_field_value" : 10,
     "name" : "android::hardware::tv::tuner::V1_0::FrontendScanMessageType::STANDARD"
    },
    {
     "enum_field_value" : 11,
     "name" : "android::hardware::tv::tuner::V1_0::FrontendScanMessageType::ATSC3_PLP_INFO"
    }
   ],
   "linker_set_key" : "_ZTIN7android8hardware2tv5tuner4V1_023FrontendScanMessageTypeE",
   "name" : "android::hardware::tv::tuner::V1_0::FrontendScanMessageType",
   "referenced_type" : "_ZTIN7android8hardware2tv5tuner4V1_023FrontendScanMessageTypeE",
   "self_type" : "_ZTIN7android8hardware2tv5tuner4V1_023FrontendScanMessageTypeE",
   "size" : 4,
   "source_file" : "/out/soong/.intermediates/hardware/interfaces/tv/tuner/1.0/android.hardware.tv.tuner@1.0_genc++_headers/gen/android/hardware/tv/tuner/1.0/types.h",
   "underlying_type" : "_ZTIj"
  },
  {
   "alignment" : 1,
   "enum_fields" :
   [
    {
     "enum_field_value" : 0,
     "name" : "android::hardware::tv::tuner::V1_0::DemuxFilterTsRecordEvent::ScIndexMask::hidl_discriminator::sc"
    },
    {
     "enum_field_value" : 1,
     "name" : "android::hardware::tv::tuner::V1_0::DemuxFilterTsRecordEvent::ScIndexMask::hidl_discriminator::scHevc"
    }
   ],
   "linker_set_key" : "_ZTIN7android8hardware2tv5tuner4V1_024DemuxFilterTsRecordEvent11ScIndexMask18hidl_discriminatorE",
   "name" : "android::hardware::tv::tuner::V1_0::DemuxFilterTsRecordEvent::ScIndexMask::hidl_discriminator",
   "referenced_type" : "_ZTIN7android8hardware2tv5tuner4V1_024DemuxFilterTsRecordEvent11ScIndexMask18hidl_discriminatorE",
   "self_type" : "_ZTIN7android8hardware2tv5tuner4V1_024DemuxFilterTsRecordEvent11ScIndexMask18hidl_discriminatorE",
   "size" : 1,
   "source_file" : "/out/soong/.intermediates/hardware/interfaces/tv/tuner/1.0/android.hardware.tv.tuner@1.0_genc++_headers/gen/android/hardware/tv/tuner/1.0/types.h",
   "underlying_type" : "_ZTIh"
  },
  {
   "alignment" : 4,
   "enum_fields" :
   [
    {
     "enum_field_value" : 0,
     "name" : "android::hardware::tv::tuner::V1_0::FrontendIsdbs3Modulation::UNDEFINED"
    },
    {
     "enum_field_value" : 1,
     "name" : "android::hardware::tv::tuner::V1_0::FrontendIsdbs3Modulation::AUTO"
    },
    {
     "enum_field_value" : 2,
     "name" : "android::hardware::tv::tuner::V1_0::FrontendIsdbs3Modulation::MOD_BPSK"
    },
    {
     "enum_field_value" : 4,
     "name" : "android::hardware::tv::tuner::V1_0::FrontendIsdbs3Modulation::MOD_QPSK"
    },
    {
     "enum_field_value" : 8,
     "name" : "android::hardware::tv::tuner::V1_0::FrontendIsdbs3Modulation::MOD_8PSK"
    },
    {
     "enum_field_value" : 16,
     "name" : "android::hardware::tv::tuner::V1_0::FrontendIsdbs3Modulation::MOD_16APSK"
    },
    {
     "enum_field_value" : 32,
     "name" : "android::hardware::tv::tuner::V1_0::FrontendIsdbs3Modulation::MOD_32APSK"
    }
   ],
   "linker_set_key" : "_ZTIN7android8hardware2tv5tuner4V1_024FrontendIsdbs3ModulationE",
   "name" : "android::hardware::tv::tuner::V1_0::FrontendIsdbs3Modulation",
   "referenced_type" : "_ZTIN7android8hardware2tv5tuner4V1_024FrontendIsdbs3ModulationE",
   "self_type" : "_ZTIN7android8hardware2tv5tuner4V1_024FrontendIsdbs3ModulationE",
   "size" : 4,
   "source_file" : "/out/soong/.intermediates/hardware/interfaces/tv/tuner/1.0/android.hardware.tv.tuner@1.0_genc++_headers/gen/android/hardware/tv/tuner/1.0/types.h",
   "underlying_type" : "_ZTIj"
  },
  {
   "alignment" : 1,
   "enum_fields" :
   [
    {
     "enum_field_value" : 0,
     "name" : "android::hardware::tv::tuner::V1_0::FrontendModulationStatus::hidl_discriminator::dvbc"
    },
    {
     "enum_field_value" : 1,
     "name" : "android::hardware::tv::tuner::V1_0::FrontendModulationStatus::hidl_discriminator::dvbs"
    },
    {
     "enum_field_value" : 2,
     "name" : "android::hardware::tv::tuner::V1_0::FrontendModulationStatus::hidl_discriminator::isdbs"
    },
    {
     "enum_field_value" : 3,
     "name" : "android::hardware::tv::tuner::V1_0::FrontendModulationStatus::hidl_discriminator::isdbs3"
    },
    {
     "enum_field_value" : 4,
     "name" : "android::hardware::tv::tuner::V1_0::FrontendModulationStatus::hidl_discriminator::isdbt"
    }
   ],
   "linker_set_key" : "_ZTIN7android8hardware2tv5tuner4V1_024FrontendModulationStatus18hidl_discriminatorE",
   "name" : "android::hardware::tv::tuner::V1_0::FrontendModulationStatus::hidl_discriminator",
   "referenced_type" : "_ZTIN7android8hardware2tv5tuner4V1_024FrontendModulationStatus18hidl_discriminatorE",
   "self_type" : "_ZTIN7android8hardware2tv5tuner4V1_024FrontendModulationStatus18hidl_discriminatorE",
   "size" : 1,
   "source_file" : "/out/soong/.intermediates/hardware/interfaces/tv/tuner/1.0/android.hardware.tv.tuner@1.0_genc++_headers/gen/android/hardware/tv/tuner/1.0/types.h",
   "underlying_type" : "_ZTIh"
  },
  {
   "alignment" : 1,
   "enum_fields" :
   [
    {
     "enum_field_value" : 0,
     "name" : "android::hardware::tv::tuner::V1_0::DemuxFilterRecordSettings::ScIndexMask::hidl_discriminator::sc"
    },
    {
     "enum_field_value" : 1,
     "name" : "android::hardware::tv::tuner::V1_0::DemuxFilterRecordSettings::ScIndexMask::hidl_discriminator::scHevc"
    }
   ],
   "linker_set_key" : "_ZTIN7android8hardware2tv5tuner4V1_025DemuxFilterRecordSettings11ScIndexMask18hidl_discriminatorE",
   "name" : "android::hardware::tv::tuner::V1_0::DemuxFilterRecordSettings::ScIndexMask::hidl_discriminator",
   "referenced_type" : "_ZTIN7android8hardware2tv5tuner4V1_025DemuxFilterRecordSettings11ScIndexMask18hidl_discriminatorE",
   "self_type" : "_ZTIN7android8hardware2tv5tuner4V1_025DemuxFilterRecordSettings11ScIndexMask18hidl_discriminatorE",
   "size" : 1,
   "source_file" : "/out/soong/.intermediates/hardware/interfaces/tv/tuner/1.0/android.hardware.tv.tuner@1.0_genc++_headers/gen/android/hardware/tv/tuner/1.0/types.h",
   "underlying_type" : "_ZTIh"
  },
  {
   "alignment" : 4,
   "enum_fields" :
   [
    {
     "enum_field_value" : 0,
     "name" : "android::hardware::tv::tuner::V1_0::FrontendAnalogSifStandard::UNDEFINED"
    },
    {
     "enum_field_value" : 1,
     "name" : "android::hardware::tv::tuner::V1_0::FrontendAnalogSifStandard::AUTO"
    },
    {
     "enum_field_value" : 2,
     "name" : "android::hardware::tv::tuner::V1_0::FrontendAnalogSifStandard::BG"
    },
    {
     "enum_field_value" : 4,
     "name" : "android::hardware::tv::tuner::V1_0::FrontendAnalogSifStandard::BG_A2"
    },
    {
     "enum_field_value" : 8,
     "name" : "android::hardware::tv::tuner::V1_0::FrontendAnalogSifStandard::BG_NICAM"
    },
    {
     "enum_field_value" : 16,
     "name" : "android::hardware::tv::tuner::V1_0::FrontendAnalogSifStandard::I"
    },
    {
     "enum_field_value" : 32,
     "name" : "android::hardware::tv::tuner::V1_0::FrontendAnalogSifStandard::DK"
    },
    {
     "enum_field_value" : 64,
     "name" : "android::hardware::tv::tuner::V1_0::FrontendAnalogSifStandard::DK1_A2"
    },
    {
     "enum_field_value" : 128,
     "name" : "android::hardware::tv::tuner::V1_0::FrontendAnalogSifStandard::DK2_A2"
    },
    {
     "enum_field_value" : 256,
     "name" : "android::hardware::tv::tuner::V1_0::FrontendAnalogSifStandard::DK3_A2"
    },
    {
     "enum_field_value" : 512,
     "name" : "android::hardware::tv::tuner::V1_0::FrontendAnalogSifStandard::DK_NICAM"
    },
    {
     "enum_field_value" : 1024,
     "name" : "android::hardware::tv::tuner::V1_0::FrontendAnalogSifStandard::L"
    },
    {
     "enum_field_value" : 2048,
     "name" : "android::hardware::tv::tuner::V1_0::FrontendAnalogSifStandard::M"
    },
    {
     "enum_field_value" : 4096,
     "name" : "android::hardware::tv::tuner::V1_0::FrontendAnalogSifStandard::M_BTSC"
    },
    {
     "enum_field_value" : 8192,
     "name" : "android::hardware::tv::tuner::V1_0::FrontendAnalogSifStandard::M_A2"
    },
    {
     "enum_field_value" : 16384,
     "name" : "android::hardware::tv::tuner::V1_0::FrontendAnalogSifStandard::M_EIAJ"
    },
    {
     "enum_field_value" : 32768,
     "name" : "android::hardware::tv::tuner::V1_0::FrontendAnalogSifStandard::I_NICAM"
    },
    {
     "enum_field_value" : 65536,
     "name" : "android::hardware::tv::tuner::V1_0::FrontendAnalogSifStandard::L_NICAM"
    },
    {
     "enum_field_value" : 131072,
     "name" : "android::hardware::tv::tuner::V1_0::FrontendAnalogSifStandard::L_PRIME"
    }
   ],
   "linker_set_key" : "_ZTIN7android8hardware2tv5tuner4V1_025FrontendAnalogSifStandardE",
   "name" : "android::hardware::tv::tuner::V1_0::FrontendAnalogSifStandard",
   "referenced_type" : "_ZTIN7android8hardware2tv5tuner4V1_025FrontendAnalogSifStandardE",
   "self_type" : "_ZTIN7android8hardware2tv5tuner4V1_025FrontendAnalogSifStandardE",
   "size" : 4,
   "source_file" : "/out/soong/.intermediates/hardware/interfaces/tv/tuner/1.0/android.hardware.tv.tuner@1.0_genc++_headers/gen/android/hardware/tv/tuner/1.0/types.h",
   "underlying_type" : "_ZTIj"
  },
  {
   "alignment" : 4,
   "enum_fields" :
   [
    {
     "enum_field_value" : 0,
     "name" : "android::hardware::tv::tuner::V1_0::FrontendDvbtConstellation::UNDEFINED"
    },
    {
     "enum_field_value" : 1,
     "name" : "android::hardware::tv::tuner::V1_0::FrontendDvbtConstellation::AUTO"
    },
    {
     "enum_field_value" : 2,
     "name" : "android::hardware::tv::tuner::V1_0::FrontendDvbtConstellation::CONSTELLATION_QPSK"
    },
    {
     "enum_field_value" : 4,
     "name" : "android::hardware::tv::tuner::V1_0::FrontendDvbtConstellation::CONSTELLATION_16QAM"
    },
    {
     "enum_field_value" : 8,
     "name" : "android::hardware::tv::tuner::V1_0::FrontendDvbtConstellation::CONSTELLATION_64QAM"
    },
    {
     "enum_field_value" : 16,
     "name" : "android::hardware::tv::tuner::V1_0::FrontendDvbtConstellation::CONSTELLATION_256QAM"
    }
   ],
   "linker_set_key" : "_ZTIN7android8hardware2tv5tuner4V1_025FrontendDvbtConstellationE",
   "name" : "android::hardware::tv::tuner::V1_0::FrontendDvbtConstellation",
   "referenced_type" : "_ZTIN7android8hardware2tv5tuner4V1_025FrontendDvbtConstellationE",
   "self_type" : "_ZTIN7android8hardware2tv5tuner4V1_025FrontendDvbtConstellationE",
   "size" : 4,
   "source_file" : "/out/soong/.intermediates/hardware/interfaces/tv/tuner/1.0/android.hardware.tv.tuner@1.0_genc++_headers/gen/android/hardware/tv/tuner/1.0/types.h",
   "underlying_type" : "_ZTIj"
  },
  {
   "alignment" : 4,
   "enum_fields" :
   [
    {
     "enum_field_value" : 0,
     "name" : "android::hardware::tv::tuner::V1_0::FrontendDvbtGuardInterval::UNDEFINED"
    },
    {
     "enum_field_value" : 1,
     "name" : "android::hardware::tv::tuner::V1_0::FrontendDvbtGuardInterval::AUTO"
    },
    {
     "enum_field_value" : 2,
     "name" : "android::hardware::tv::tuner::V1_0::FrontendDvbtGuardInterval::INTERVAL_1_32"
    },
    {
     "enum_field_value" : 4,
     "name" : "android::hardware::tv::tuner::V1_0::FrontendDvbtGuardInterval::INTERVAL_1_16"
    },
    {
     "enum_field_value" : 8,
     "name" : "android::hardware::tv::tuner::V1_0::FrontendDvbtGuardInterval::INTERVAL_1_8"
    },
    {
     "enum_field_value" : 16,
     "name" : "android::hardware::tv::tuner::V1_0::FrontendDvbtGuardInterval::INTERVAL_1_4"
    },
    {
     "enum_field_value" : 32,
     "name" : "android::hardware::tv::tuner::V1_0::FrontendDvbtGuardInterval::INTERVAL_1_128"
    },
    {
     "enum_field_value" : 64,
     "name" : "android::hardware::tv::tuner::V1_0::FrontendDvbtGuardInterval::INTERVAL_19_128"
    },
    {
     "enum_field_value" : 128,
     "name" : "android::hardware::tv::tuner::V1_0::FrontendDvbtGuardInterval::INTERVAL_19_256"
    }
   ],
   "linker_set_key" : "_ZTIN7android8hardware2tv5tuner4V1_025FrontendDvbtGuardIntervalE",
   "name" : "android::hardware::tv::tuner::V1_0::FrontendDvbtGuardInterval",
   "referenced_type" : "_ZTIN7android8hardware2tv5tuner4V1_025FrontendDvbtGuardIntervalE",
   "self_type" : "_ZTIN7android8hardware2tv5tuner4V1_025FrontendDvbtGuardIntervalE",
   "size" : 4,
   "source_file" : "/out/soong/.intermediates/hardware/interfaces/tv/tuner/1.0/android.hardware.tv.tuner@1.0_genc++_headers/gen/android/hardware/tv/tuner/1.0/types.h",
   "underlying_type" : "_ZTIj"
  },
  {
   "alignment" : 4,
   "enum_fields" :
   [
    {
     "enum_field_value" : 0,
     "name" : "android::hardware::tv::tuner::V1_0::FrontendIsdbsStreamIdType::STREAM_ID"
    },
    {
     "enum_field_value" : 1,
     "name" : "android::hardware::tv::tuner::V1_0::FrontendIsdbsStreamIdType::RELATIVE_STREAM_NUMBER"
    }
   ],
   "linker_set_key" : "_ZTIN7android8hardware2tv5tuner4V1_025FrontendIsdbsStreamIdTypeE",
   "name" : "android::hardware::tv::tuner::V1_0::FrontendIsdbsStreamIdType",
   "referenced_type" : "_ZTIN7android8hardware2tv5tuner4V1_025FrontendIsdbsStreamIdTypeE",
   "self_type" : "_ZTIN7android8hardware2tv5tuner4V1_025FrontendIsdbsStreamIdTypeE",
   "size" : 4,
   "source_file" : "/out/soong/.intermediates/hardware/interfaces/tv/tuner/1.0/android.hardware.tv.tuner@1.0_genc++_headers/gen/android/hardware/tv/tuner/1.0/types.h",
   "underlying_type" : "_ZTIj"
  },
  {
   "alignment" : 1,
   "enum_fields" :
   [
    {
     "enum_field_value" : 0,
     "name" : "android::hardware::tv::tuner::V1_0::DemuxFilterSectionSettings::Condition::hidl_discriminator::sectionBits"
    },
    {
     "enum_field_value" : 1,
     "name" : "android::hardware::tv::tuner::V1_0::DemuxFilterSectionSettings::Condition::hidl_discriminator::tableInfo"
    }
   ],
   "linker_set_key" : "_ZTIN7android8hardware2tv5tuner4V1_026DemuxFilterSectionSettings9Condition18hidl_discriminatorE",
   "name" : "android::hardware::tv::tuner::V1_0::DemuxFilterSectionSettings::Condition::hidl_discriminator",
   "referenced_type" : "_ZTIN7android8hardware2tv5tuner4V1_026DemuxFilterSectionSettings9Condition18hidl_discriminatorE",
   "self_type" : "_ZTIN7android8hardware2tv5tuner4V1_026DemuxFilterSectionSettings9Condition18hidl_discriminatorE",
   "size" : 1,
   "source_file" : "/out/soong/.intermediates/hardware/interfaces/tv/tuner/1.0/android.hardware.tv.tuner@1.0_genc++_headers/gen/android/hardware/tv/tuner/1.0/types.h",
   "underlying_type" : "_ZTIh"
  },
  {
   "alignment" : 4,
   "enum_fields" :
   [
    {
     "enum_field_value" : 0,
     "name" : "android::hardware::tv::tuner::V1_0::FrontendDvbtTransmissionMode::UNDEFINED"
    },
    {
     "enum_field_value" : 1,
     "name" : "android::hardware::tv::tuner::V1_0::FrontendDvbtTransmissionMode::AUTO"
    },
    {
     "enum_field_value" : 2,
     "name" : "android::hardware::tv::tuner::V1_0::FrontendDvbtTransmissionMode::MODE_2K"
    },
    {
     "enum_field_value" : 4,
     "name" : "android::hardware::tv::tuner::V1_0::FrontendDvbtTransmissionMode::MODE_8K"
    },
    {
     "enum_field_value" : 8,
     "name" : "android::hardware::tv::tuner::V1_0::FrontendDvbtTransmissionMode::MODE_4K"
    },
    {
     "enum_field_value" : 16,
     "name" : "android::hardware::tv::tuner::V1_0::FrontendDvbtTransmissionMode::MODE_1K"
    },
    {
     "enum_field_value" : 32,
     "name" : "android::hardware::tv::tuner::V1_0::FrontendDvbtTransmissionMode::MODE_16K"
    },
    {
     "enum_field_value" : 64,
     "name" : "android::hardware::tv::tuner::V1_0::FrontendDvbtTransmissionMode::MODE_32K"
    }
   ],
   "linker_set_key" : "_ZTIN7android8hardware2tv5tuner4V1_028FrontendDvbtTransmissionModeE",
   "name" : "android::hardware::tv::tuner::V1_0::FrontendDvbtTransmissionMode",
   "referenced_type" : "_ZTIN7android8hardware2tv5tuner4V1_028FrontendDvbtTransmissionModeE",
   "self_type" : "_ZTIN7android8hardware2tv5tuner4V1_028FrontendDvbtTransmissionModeE",
   "size" : 4,
   "source_file" : "/out/soong/.intermediates/hardware/interfaces/tv/tuner/1.0/android.hardware.tv.tuner@1.0_genc++_headers/gen/android/hardware/tv/tuner/1.0/types.h",
   "underlying_type" : "_ZTIj"
  },
  {
   "alignment" : 4,
   "enum_fields" :
   [
    {
     "enum_field_value" : 0,
     "name" : "android::hardware::tv::tuner::V1_0::FrontendDvbcSpectralInversion::UNDEFINED"
    },
    {
     "enum_field_value" : 1,
     "name" : "android::hardware::tv::tuner::V1_0::FrontendDvbcSpectralInversion::NORMAL"
    },
    {
     "enum_field_value" : 2,
     "name" : "android::hardware::tv::tuner::V1_0::FrontendDvbcSpectralInversion::INVERTED"
    }
   ],
   "linker_set_key" : "_ZTIN7android8hardware2tv5tuner4V1_029FrontendDvbcSpectralInversionE",
   "name" : "android::hardware::tv::tuner::V1_0::FrontendDvbcSpectralInversion",
   "referenced_type" : "_ZTIN7android8hardware2tv5tuner4V1_029FrontendDvbcSpectralInversionE",
   "self_type" : "_ZTIN7android8hardware2tv5tuner4V1_029FrontendDvbcSpectralInversionE",
   "size" : 4,
   "source_file" : "/out/soong/.intermediates/hardware/interfaces/tv/tuner/1.0/android.hardware.tv.tuner@1.0_genc++_headers/gen/android/hardware/tv/tuner/1.0/types.h",
   "underlying_type" : "_ZTIj"
  },
  {
   "alignment" : 1,
   "enum_fields" :
   [
    {
     "enum_field_value" : 0,
     "name" : "android::hardware::tv::tuner::V1_0::FrontendAtsc3DemodOutputFormat::UNDEFINED"
    },
    {
     "enum_field_value" : 1,
     "name" : "android::hardware::tv::tuner::V1_0::FrontendAtsc3DemodOutputFormat::ATSC3_LINKLAYER_PACKET"
    },
    {
     "enum_field_value" : 2,
     "name" : "android::hardware::tv::tuner::V1_0::FrontendAtsc3DemodOutputFormat::BASEBAND_PACKET"
    }
   ],
   "linker_set_key" : "_ZTIN7android8hardware2tv5tuner4V1_030FrontendAtsc3DemodOutputFormatE",
   "name" : "android::hardware::tv::tuner::V1_0::FrontendAtsc3DemodOutputFormat",
   "referenced_type" : "_ZTIN7android8hardware2tv5tuner4V1_030FrontendAtsc3DemodOutputFormatE",
   "self_type" : "_ZTIN7android8hardware2tv5tuner4V1_030FrontendAtsc3DemodOutputFormatE",
   "size" : 1,
   "source_file" : "/out/soong/.intermediates/hardware/interfaces/tv/tuner/1.0/android.hardware.tv.tuner@1.0_genc++_headers/gen/android/hardware/tv/tuner/1.0/types.h",
   "underlying_type" : "_ZTIh"
  },
  {
   "alignment" : 4,
   "enum_fields" :
   [
    {
     "enum_field_value" : 0,
     "name" : "android::hardware::tv::tuner::V1_0::FrontendAtsc3TimeInterleaveMode::UNDEFINED"
    },
    {
     "enum_field_value" : 1,
     "name" : "android::hardware::tv::tuner::V1_0::FrontendAtsc3TimeInterleaveMode::AUTO"
    },
    {
     "enum_field_value" : 2,
     "name" : "android::hardware::tv::tuner::V1_0::FrontendAtsc3TimeInterleaveMode::CTI"
    },
    {
     "enum_field_value" : 4,
     "name" : "android::hardware::tv::tuner::V1_0::FrontendAtsc3TimeInterleaveMode::HTI"
    }
   ],
   "linker_set_key" : "_ZTIN7android8hardware2tv5tuner4V1_031FrontendAtsc3TimeInterleaveModeE",
   "name" : "android::hardware::tv::tuner::V1_0::FrontendAtsc3TimeInterleaveMode",
   "referenced_type" : "_ZTIN7android8hardware2tv5tuner4V1_031FrontendAtsc3TimeInterleaveModeE",
   "self_type" : "_ZTIN7android8hardware2tv5tuner4V1_031FrontendAtsc3TimeInterleaveModeE",
   "size" : 4,
   "source_file" : "/out/soong/.intermediates/hardware/interfaces/tv/tuner/1.0/android.hardware.tv.tuner@1.0_genc++_headers/gen/android/hardware/tv/tuner/1.0/types.h",
   "underlying_type" : "_ZTIj"
  },
  {
   "alignment" : 4,
   "enum_fields" :
   [
    {
     "enum_field_value" : 0,
     "name" : "android::hardware::tv::tuner::V1_0::Result::SUCCESS"
    },
    {
     "enum_field_value" : 1,
     "name" : "android::hardware::tv::tuner::V1_0::Result::UNAVAILABLE"
    },
    {
     "enum_field_value" : 2,
     "name" : "android::hardware::tv::tuner::V1_0::Result::NOT_INITIALIZED"
    },
    {
     "enum_field_value" : 3,
     "name" : "android::hardware::tv::tuner::V1_0::Result::INVALID_STATE"
    },
    {
     "enum_field_value" : 4,
     "name" : "android::hardware::tv::tuner::V1_0::Result::INVALID_ARGUMENT"
    },
    {
     "enum_field_value" : 5,
     "name" : "android::hardware::tv::tuner::V1_0::Result::OUT_OF_MEMORY"
    },
    {
     "enum_field_value" : 6,
     "name" : "android::hardware::tv::tuner::V1_0::Result::UNKNOWN_ERROR"
    }
   ],
   "linker_set_key" : "_ZTIN7android8hardware2tv5tuner4V1_06ResultE",
   "name" : "android::hardware::tv::tuner::V1_0::Result",
   "referenced_type" : "_ZTIN7android8hardware2tv5tuner4V1_06ResultE",
   "self_type" : "_ZTIN7android8hardware2tv5tuner4V1_06ResultE",
   "size" : 4,
   "source_file" : "/out/soong/.intermediates/hardware/interfaces/tv/tuner/1.0/android.hardware.tv.tuner@1.0_genc++_headers/gen/android/hardware/tv/tuner/1.0/types.h",
   "underlying_type" : "_ZTIi"
  },
  {
   "alignment" : 1,
   "enum_fields" :
   [
    {
     "enum_field_value" : 0,
     "name" : "android::hardware::tv::tuner::V1_0::DvrType::RECORD"
    },
    {
     "enum_field_value" : 1,
     "name" : "android::hardware::tv::tuner::V1_0::DvrType::PLAYBACK"
    }
   ],
   "linker_set_key" : "_ZTIN7android8hardware2tv5tuner4V1_07DvrTypeE",
   "name" : "android::hardware::tv::tuner::V1_0::DvrType",
   "referenced_type" : "_ZTIN7android8hardware2tv5tuner4V1_07DvrTypeE",
   "self_type" : "_ZTIN7android8hardware2tv5tuner4V1_07DvrTypeE",
   "size" : 1,
   "source_file" : "/out/soong/.intermediates/hardware/interfaces/tv/tuner/1.0/android.hardware.tv.tuner@1.0_genc++_headers/gen/android/hardware/tv/tuner/1.0/types.h",
   "underlying_type" : "_ZTIh"
  },
  {
   "alignment" : 4,
   "enum_fields" :
   [
    {
     "enum_field_value" : 0,
     "name" : "android::hardware::tv::tuner::V1_0::LnbTone::NONE"
    },
    {
     "enum_field_value" : 1,
     "name" : "android::hardware::tv::tuner::V1_0::LnbTone::CONTINUOUS"
    }
   ],
   "linker_set_key" : "_ZTIN7android8hardware2tv5tuner4V1_07LnbToneE",
   "name" : "android::hardware::tv::tuner::V1_0::LnbTone",
   "referenced_type" : "_ZTIN7android8hardware2tv5tuner4V1_07LnbToneE",
   "self_type" : "_ZTIN7android8hardware2tv5tuner4V1_07LnbToneE",
   "size" : 4,
   "source_file" : "/out/soong/.intermediates/hardware/interfaces/tv/tuner/1.0/android.hardware.tv.tuner@1.0_genc++_headers/gen/android/hardware/tv/tuner/1.0/types.h",
   "underlying_type" : "_ZTIi"
  },
  {
   "alignment" : 4,
   "enum_fields" :
   [
    {
     "enum_field_value" : 65535,
     "name" : "android::hardware::tv::tuner::V1_0::Constant::INVALID_TS_PID"
    },
    {
     "enum_field_value" : 65535,
     "name" : "android::hardware::tv::tuner::V1_0::Constant::INVALID_STREAM_ID"
    },
    {
     "enum_field_value" : -1,
     "name" : "android::hardware::tv::tuner::V1_0::Constant::INVALID_FILTER_ID"
    },
    {
     "enum_field_value" : -1,
     "name" : "android::hardware::tv::tuner::V1_0::Constant::INVALID_AV_SYNC_ID"
    }
   ],
   "linker_set_key" : "_ZTIN7android8hardware2tv5tuner4V1_08ConstantE",
   "name" : "android::hardware::tv::tuner::V1_0::Constant",
   "referenced_type" : "_ZTIN7android8hardware2tv5tuner4V1_08ConstantE",
   "self_type" : "_ZTIN7android8hardware2tv5tuner4V1_08ConstantE",
   "size" : 4,
   "source_file" : "/out/soong/.intermediates/hardware/interfaces/tv/tuner/1.0/android.hardware.tv.tuner@1.0_genc++_headers/gen/android/hardware/tv/tuner/1.0/types.h",
   "underlying_type" : "_ZTIj"
  },
  {
   "alignment" : 1,
   "enum_fields" :
   [
    {
     "enum_field_value" : 0,
     "name" : "android::hardware::tv::tuner::V1_0::DemuxPid::hidl_discriminator::tPid"
    },
    {
     "enum_field_value" : 1,
     "name" : "android::hardware::tv::tuner::V1_0::DemuxPid::hidl_discriminator::mmtpPid"
    }
   ],
   "linker_set_key" : "_ZTIN7android8hardware2tv5tuner4V1_08DemuxPid18hidl_discriminatorE",
   "name" : "android::hardware::tv::tuner::V1_0::DemuxPid::hidl_discriminator",
   "referenced_type" : "_ZTIN7android8hardware2tv5tuner4V1_08DemuxPid18hidl_discriminatorE",
   "self_type" : "_ZTIN7android8hardware2tv5tuner4V1_08DemuxPid18hidl_discriminatorE",
   "size" : 1,
   "source_file" : "/out/soong/.intermediates/hardware/interfaces/tv/tuner/1.0/android.hardware.tv.tuner@1.0_genc++_headers/gen/android/hardware/tv/tuner/1.0/types.h",
   "underlying_type" : "_ZTIh"
  },
  {
   "alignment" : 4,
   "enum_fields" :
   [
    {
     "enum_field_value" : 0,
     "name" : "android::hardware::Status::EX_NONE"
    },
    {
     "enum_field_value" : -1,
     "name" : "android::hardware::Status::EX_SECURITY"
    },
    {
     "enum_field_value" : -2,
     "name" : "android::hardware::Status::EX_BAD_PARCELABLE"
    },
    {
     "enum_field_value" : -3,
     "name" : "android::hardware::Status::EX_ILLEGAL_ARGUMENT"
    },
    {
     "enum_field_value" : -4,
     "name" : "android::hardware::Status::EX_NULL_POINTER"
    },
    {
     "enum_field_value" : -5,
     "name" : "android::hardware::Status::EX_ILLEGAL_STATE"
    },
    {
     "enum_field_value" : -6,
     "name" : "android::hardware::Status::EX_NETWORK_MAIN_THREAD"
    },
    {
     "enum_field_value" : -7,
     "name" : "android::hardware::Status::EX_UNSUPPORTED_OPERATION"
    },
    {
     "enum_field_value" : -128,
     "name" : "android::hardware::Status::EX_HAS_REPLY_HEADER"
    },
    {
     "enum_field_value" : -129,
     "name" : "android::hardware::Status::EX_TRANSACTION_FAILED"
    }
   ],
   "linker_set_key" : "_ZTIN7android8hardware6Status9ExceptionE",
   "name" : "android::hardware::Status::Exception",
   "referenced_type" : "_ZTIN7android8hardware6Status9ExceptionE",
   "self_type" : "_ZTIN7android8hardware6Status9ExceptionE",
   "size" : 4,
   "source_file" : "/system/libhidl/base/include/hidl/Status.h",
   "underlying_type" : "_ZTIi"
  },
  {
   "alignment" : 4,
   "enum_fields" :
   [
    {
     "enum_field_value" : 1,
     "name" : "android::hardware::IBinder::FLAG_ONEWAY"
    }
   ],
   "linker_set_key" : "_ZTIN7android8hardware7IBinder12$FLAG_ONEWAYE",
   "name" : "android::hardware::IBinder::(anonymous enum at system/libhwbinder/include/hwbinder/IBinder.h:47:5)",
   "referenced_type" : "_ZTIN7android8hardware7IBinder12$FLAG_ONEWAYE",
   "self_type" : "_ZTIN7android8hardware7IBinder12$FLAG_ONEWAYE",
   "size" : 4,
   "source_file" : "/system/libhwbinder/include/hwbinder/IBinder.h",
   "underlying_type" : "_ZTIj"
  },
  {
   "alignment" : 4,
   "enum_fields" :
   [
    {
     "enum_field_value" : 0,
     "name" : "android::hardware::details::HidlInstrumentor::SERVER_API_ENTRY"
    },
    {
     "enum_field_value" : 1,
     "name" : "android::hardware::details::HidlInstrumentor::SERVER_API_EXIT"
    },
    {
     "enum_field_value" : 2,
     "name" : "android::hardware::details::HidlInstrumentor::CLIENT_API_ENTRY"
    },
    {
     "enum_field_value" : 3,
     "name" : "android::hardware::details::HidlInstrumentor::CLIENT_API_EXIT"
    },
    {
     "enum_field_value" : 4,
     "name" : "android::hardware::details::HidlInstrumentor::SYNC_CALLBACK_ENTRY"
    },
    {
     "enum_field_value" : 5,
     "name" : "android::hardware::details::HidlInstrumentor::SYNC_CALLBACK_EXIT"
    },
    {
     "enum_field_value" : 6,
     "name" : "android::hardware::details::HidlInstrumentor::ASYNC_CALLBACK_ENTRY"
    },
    {
     "enum_field_value" : 7,
     "name" : "android::hardware::details::HidlInstrumentor::ASYNC_CALLBACK_EXIT"
    },
    {
     "enum_field_value" : 8,
     "name" : "android::hardware::details::HidlInstrumentor::PASSTHROUGH_ENTRY"
    },
    {
     "enum_field_value" : 9,
     "name" : "android::hardware::details::HidlInstrumentor::PASSTHROUGH_EXIT"
    }
   ],
   "linker_set_key" : "_ZTIN7android8hardware7details16HidlInstrumentor20InstrumentationEventE",
   "name" : "android::hardware::details::HidlInstrumentor::InstrumentationEvent",
   "referenced_type" : "_ZTIN7android8hardware7details16HidlInstrumentor20InstrumentationEventE",
   "self_type" : "_ZTIN7android8hardware7details16HidlInstrumentor20InstrumentationEventE",
   "size" : 4,
   "source_file" : "/system/libhidl/base/include/hidl/HidlInternal.h",
   "underlying_type" : "_ZTIj"
  },
  {
   "alignment" : 4,
   "enum_fields" :
   [
    {
     "enum_field_value" : 1,
     "name" : "android::hardware::kSynchronizedReadWrite"
    },
    {
     "enum_field_value" : 2,
     "name" : "android::hardware::kUnsynchronizedWrite"
    }
   ],
   "linker_set_key" : "_ZTIN7android8hardware8MQFlavorE",
   "name" : "android::hardware::MQFlavor",
   "referenced_type" : "_ZTIN7android8hardware8MQFlavorE",
   "self_type" : "_ZTIN7android8hardware8MQFlavorE",
   "size" : 4,
   "source_file" : "/system/libhidl/base/include/hidl/MQDescriptor.h",
   "underlying_type" : "_ZTIj"
  },
  {
   "alignment" : 4,
   "enum_fields" :
   [
    {
     "enum_field_value" : 0,
     "name" : "android::Condition::WAKE_UP_ONE"
    },
    {
     "enum_field_value" : 1,
     "name" : "android::Condition::WAKE_UP_ALL"
    }
   ],
   "linker_set_key" : "_ZTIN7android9Condition10WakeUpTypeE",
   "name" : "android::Condition::WakeUpType",
   "referenced_type" : "_ZTIN7android9Condition10WakeUpTypeE",
   "self_type" : "_ZTIN7android9Condition10WakeUpTypeE",
   "size" : 4,
   "source_file" : "/system/core/libutils/include/utils/Condition.h",
   "underlying_type" : "_ZTIj"
  },
  {
   "alignment" : 4,
   "enum_fields" :
   [
    {
     "enum_field_value" : 0,
     "name" : "android::Condition::PRIVATE"
    },
    {
     "enum_field_value" : 1,
     "name" : "android::Condition::SHARED"
    }
   ],
   "linker_set_key" : "_ZTIN7android9Condition8$PRIVATEE",
   "name" : "android::Condition::(anonymous enum at system/core/libutils/include/utils/Condition.h:54:5)",
   "referenced_type" : "_ZTIN7android9Condition8$PRIVATEE",
   "self_type" : "_ZTIN7android9Condition8$PRIVATEE",
   "size" : 4,
   "source_file" : "/system/core/libutils/include/utils/Condition.h",
   "underlying_type" : "_ZTIj"
  }
 ],
 "function_types" :
 [
  {
   "alignment" : 4,
   "linker_set_key" : "_ZTIFbRKN7android8String16ERKNS_2spINS_8hardware7IBinderEEEPvE",
   "name" : "bool (const android::String16 &, const android::sp<android::hardware::IBinder> &, void *)",
   "parameters" :
   [
    {
     "referenced_type" : "_ZTIRKN7android8String16E"
    },
    {
     "referenced_type" : "_ZTIRKN7android2spINS_8hardware7IBinderEEE"
    },
    {
     "referenced_type" : "_ZTIPv"
    }
   ],
   "referenced_type" : "_ZTIFbRKN7android8String16ERKNS_2spINS_8hardware7IBinderEEEPvE",
   "return_type" : "_ZTIb",
   "self_type" : "_ZTIFbRKN7android8String16ERKNS_2spINS_8hardware7IBinderEEEPvE",
   "source_file" : "/system/libhwbinder/include/hwbinder/ProcessState.h"
  },
  {
   "alignment" : 4,
   "linker_set_key" : "_ZTIFiPvE",
   "name" : "int (void *)",
   "parameters" :
   [
    {
     "referenced_type" : "_ZTIPv"
    }
   ],
   "referenced_type" : "_ZTIFiPvE",
   "return_type" : "_ZTIi",
   "self_type" : "_ZTIFiPvE",
   "source_file" : "/system/core/libutils/include/utils/AndroidThreads.h"
  },
  {
   "alignment" : 4,
   "linker_set_key" : "_ZTIFvPN7android8hardware6ParcelEPKhmPKymPvE",
   "name" : "void (android::hardware::Parcel *, const unsigned char *, unsigned long, const unsigned long long *, unsigned long, void *)",
   "parameters" :
   [
    {
     "referenced_type" : "_ZTIPN7android8hardware6ParcelE"
    },
    {
     "referenced_type" : "_ZTIPKh"
    },
    {
     "referenced_type" : "_ZTIm"
    },
    {
     "referenced_type" : "_ZTIPKy"
    },
    {
     "referenced_type" : "_ZTIm"
    },
    {
     "referenced_type" : "_ZTIPv"
    }
   ],
   "referenced_type" : "_ZTIFvPN7android8hardware6ParcelEPKhmPKymPvE",
   "return_type" : "_ZTIv",
   "self_type" : "_ZTIFvPN7android8hardware6ParcelEPKhmPKymPvE",
   "source_file" : "/system/libhwbinder/include/hwbinder/Parcel.h"
  }
 ],
 "functions" :
 [
  {
   "function_name" : "android::hardware::fromBinder",
   "linker_set_key" : "_ZN7android8hardware10fromBinderINS0_2tv5tuner4V1_011ITimeFilterENS4_14BpHwTimeFilterENS4_14BnHwTimeFilterEEENS_2spIT_EERKNS8_INS0_7IBinderEEE",
   "parameters" :
   [
    {
     "referenced_type" : "_ZTIRKN7android2spINS_8hardware7IBinderEEE"
    }
   ],
   "return_type" : "_ZTIN7android2spINS_8hardware2tv5tuner4V1_011ITimeFilterEEE",
   "source_file" : "/system/libhidl/transport/include/hidl/HidlBinderSupport.h",
   "template_args" :
   [
    "_ZTIN7android8hardware2tv5tuner4V1_011ITimeFilterE",
    "_ZTIN7android8hardware2tv5tuner4V1_014BpHwTimeFilterE",
    "_ZTIN7android8hardware2tv5tuner4V1_014BnHwTimeFilterE"
   ]
  },
  {
   "function_name" : "android::hardware::fromBinder",
   "linker_set_key" : "_ZN7android8hardware10fromBinderINS0_2tv5tuner4V1_012IDescramblerENS4_15BpHwDescramblerENS4_15BnHwDescramblerEEENS_2spIT_EERKNS8_INS0_7IBinderEEE",
   "parameters" :
   [
    {
     "referenced_type" : "_ZTIRKN7android2spINS_8hardware7IBinderEEE"
    }
   ],
   "return_type" : "_ZTIN7android2spINS_8hardware2tv5tuner4V1_012IDescramblerEEE",
   "source_file" : "/system/libhidl/transport/include/hidl/HidlBinderSupport.h",
   "template_args" :
   [
    "_ZTIN7android8hardware2tv5tuner4V1_012IDescramblerE",
    "_ZTIN7android8hardware2tv5tuner4V1_015BpHwDescramblerE",
    "_ZTIN7android8hardware2tv5tuner4V1_015BnHwDescramblerE"
   ]
  },
  {
   "function_name" : "android::hardware::fromBinder",
   "linker_set_key" : "_ZN7android8hardware10fromBinderINS0_2tv5tuner4V1_012IDvrCallbackENS4_15BpHwDvrCallbackENS4_15BnHwDvrCallbackEEENS_2spIT_EERKNS8_INS0_7IBinderEEE",
   "parameters" :
   [
    {
     "referenced_type" : "_ZTIRKN7android2spINS_8hardware7IBinderEEE"
    }
   ],
   "return_type" : "_ZTIN7android2spINS_8hardware2tv5tuner4V1_012IDvrCallbackEEE",
   "source_file" : "/system/libhidl/transport/include/hidl/HidlBinderSupport.h",
   "template_args" :
   [
    "_ZTIN7android8hardware2tv5tuner4V1_012IDvrCallbackE",
    "_ZTIN7android8hardware2tv5tuner4V1_015BpHwDvrCallbackE",
    "_ZTIN7android8hardware2tv5tuner4V1_015BnHwDvrCallbackE"
   ]
  },
  {
   "function_name" : "android::hardware::fromBinder",
   "linker_set_key" : "_ZN7android8hardware10fromBinderINS0_2tv5tuner4V1_012ILnbCallbackENS4_15BpHwLnbCallbackENS4_15BnHwLnbCallbackEEENS_2spIT_EERKNS8_INS0_7IBinderEEE",
   "parameters" :
   [
    {
     "referenced_type" : "_ZTIRKN7android2spINS_8hardware7IBinderEEE"
    }
   ],
   "return_type" : "_ZTIN7android2spINS_8hardware2tv5tuner4V1_012ILnbCallbackEEE",
   "source_file" : "/system/libhidl/transport/include/hidl/HidlBinderSupport.h",
   "template_args" :
   [
    "_ZTIN7android8hardware2tv5tuner4V1_012ILnbCallbackE",
    "_ZTIN7android8hardware2tv5tuner4V1_015BpHwLnbCallbackE",
    "_ZTIN7android8hardware2tv5tuner4V1_015BnHwLnbCallbackE"
   ]
  },
  {
   "function_name" : "android::hardware::fromBinder",
   "linker_set_key" : "_ZN7android8hardware10fromBinderINS0_2tv5tuner4V1_015IFilterCallbackENS4_18BpHwFilterCallbackENS4_18BnHwFilterCallbackEEENS_2spIT_EERKNS8_INS0_7IBinderEEE",
   "parameters" :
   [
    {
     "referenced_type" : "_ZTIRKN7android2spINS_8hardware7IBinderEEE"
    }
   ],
   "return_type" : "_ZTIN7android2spINS_8hardware2tv5tuner4V1_015IFilterCallbackEEE",
   "source_file" : "/system/libhidl/transport/include/hidl/HidlBinderSupport.h",
   "template_args" :
   [
    "_ZTIN7android8hardware2tv5tuner4V1_015IFilterCallbackE",
    "_ZTIN7android8hardware2tv5tuner4V1_018BpHwFilterCallbackE",
    "_ZTIN7android8hardware2tv5tuner4V1_018BnHwFilterCallbackE"
   ]
  },
  {
   "function_name" : "android::hardware::fromBinder",
   "linker_set_key" : "_ZN7android8hardware10fromBinderINS0_2tv5tuner4V1_017IFrontendCallbackENS4_20BpHwFrontendCallbackENS4_20BnHwFrontendCallbackEEENS_2spIT_EERKNS8_INS0_7IBinderEEE",
   "parameters" :
   [
    {
     "referenced_type" : "_ZTIRKN7android2spINS_8hardware7IBinderEEE"
    }
   ],
   "return_type" : "_ZTIN7android2spINS_8hardware2tv5tuner4V1_017IFrontendCallbackEEE",
   "source_file" : "/system/libhidl/transport/include/hidl/HidlBinderSupport.h",
   "template_args" :
   [
    "_ZTIN7android8hardware2tv5tuner4V1_017IFrontendCallbackE",
    "_ZTIN7android8hardware2tv5tuner4V1_020BpHwFrontendCallbackE",
    "_ZTIN7android8hardware2tv5tuner4V1_020BnHwFrontendCallbackE"
   ]
  },
  {
   "function_name" : "android::hardware::fromBinder",
   "linker_set_key" : "_ZN7android8hardware10fromBinderINS0_2tv5tuner4V1_04IDvrENS4_7BpHwDvrENS4_7BnHwDvrEEENS_2spIT_EERKNS8_INS0_7IBinderEEE",
   "parameters" :
   [
    {
     "referenced_type" : "_ZTIRKN7android2spINS_8hardware7IBinderEEE"
    }
   ],
   "return_type" : "_ZTIN7android2spINS_8hardware2tv5tuner4V1_04IDvrEEE",
   "source_file" : "/system/libhidl/transport/include/hidl/HidlBinderSupport.h",
   "template_args" :
   [
    "_ZTIN7android8hardware2tv5tuner4V1_04IDvrE",
    "_ZTIN7android8hardware2tv5tuner4V1_07BpHwDvrE",
    "_ZTIN7android8hardware2tv5tuner4V1_07BnHwDvrE"
   ]
  },
  {
   "function_name" : "android::hardware::fromBinder",
   "linker_set_key" : "_ZN7android8hardware10fromBinderINS0_2tv5tuner4V1_04ILnbENS4_7BpHwLnbENS4_7BnHwLnbEEENS_2spIT_EERKNS8_INS0_7IBinderEEE",
   "parameters" :
   [
    {
     "referenced_type" : "_ZTIRKN7android2spINS_8hardware7IBinderEEE"
    }
   ],
   "return_type" : "_ZTIN7android2spINS_8hardware2tv5tuner4V1_04ILnbEEE",
   "source_file" : "/system/libhidl/transport/include/hidl/HidlBinderSupport.h",
   "template_args" :
   [
    "_ZTIN7android8hardware2tv5tuner4V1_04ILnbE",
    "_ZTIN7android8hardware2tv5tuner4V1_07BpHwLnbE",
    "_ZTIN7android8hardware2tv5tuner4V1_07BnHwLnbE"
   ]
  },
  {
   "function_name" : "android::hardware::fromBinder",
   "linker_set_key" : "_ZN7android8hardware10fromBinderINS0_2tv5tuner4V1_06IDemuxENS4_9BpHwDemuxENS4_9BnHwDemuxEEENS_2spIT_EERKNS8_INS0_7IBinderEEE",
   "parameters" :
   [
    {
     "referenced_type" : "_ZTIRKN7android2spINS_8hardware7IBinderEEE"
    }
   ],
   "return_type" : "_ZTIN7android2spINS_8hardware2tv5tuner4V1_06IDemuxEEE",
   "source_file" : "/system/libhidl/transport/include/hidl/HidlBinderSupport.h",
   "template_args" :
   [
    "_ZTIN7android8hardware2tv5tuner4V1_06IDemuxE",
    "_ZTIN7android8hardware2tv5tuner4V1_09BpHwDemuxE",
    "_ZTIN7android8hardware2tv5tuner4V1_09BnHwDemuxE"
   ]
  },
  {
   "function_name" : "android::hardware::fromBinder",
   "linker_set_key" : "_ZN7android8hardware10fromBinderINS0_2tv5tuner4V1_07IFilterENS4_10BpHwFilterENS4_10BnHwFilterEEENS_2spIT_EERKNS8_INS0_7IBinderEEE",
   "parameters" :
   [
    {
     "referenced_type" : "_ZTIRKN7android2spINS_8hardware7IBinderEEE"
    }
   ],
   "return_type" : "_ZTIN7android2spINS_8hardware2tv5tuner4V1_07IFilterEEE",
   "source_file" : "/system/libhidl/transport/include/hidl/HidlBinderSupport.h",
   "template_args" :
   [
    "_ZTIN7android8hardware2tv5tuner4V1_07IFilterE",
    "_ZTIN7android8hardware2tv5tuner4V1_010BpHwFilterE",
    "_ZTIN7android8hardware2tv5tuner4V1_010BnHwFilterE"
   ]
  },
  {
   "function_name" : "android::hardware::fromBinder",
   "linker_set_key" : "_ZN7android8hardware10fromBinderINS0_2tv5tuner4V1_09IFrontendENS4_12BpHwFrontendENS4_12BnHwFrontendEEENS_2spIT_EERKNS8_INS0_7IBinderEEE",
   "parameters" :
   [
    {
     "referenced_type" : "_ZTIRKN7android2spINS_8hardware7IBinderEEE"
    }
   ],
   "return_type" : "_ZTIN7android2spINS_8hardware2tv5tuner4V1_09IFrontendEEE",
   "source_file" : "/system/libhidl/transport/include/hidl/HidlBinderSupport.h",
   "template_args" :
   [
    "_ZTIN7android8hardware2tv5tuner4V1_09IFrontendE",
    "_ZTIN7android8hardware2tv5tuner4V1_012BpHwFrontendE",
    "_ZTIN7android8hardware2tv5tuner4V1_012BnHwFrontendE"
   ]
  },
  {
   "function_name" : "android::hardware::tv::tuner::V1_0::BnHwFilter::_hidl_stop",
   "linker_set_key" : "_ZN7android8hardware2tv5tuner4V1_010BnHwFilter10_hidl_stopEPNS_4hidl4base4V1_08BnHwBaseERKNS0_6ParcelEPSA_NSt3__18functionIFvRSA_EEE",
   "parameters" :
   [
    {
     "referenced_type" : "_ZTIPN7android4hidl4base4V1_08BnHwBaseE"
    },
    {
     "referenced_type" : "_ZTIRKN7android8hardware6ParcelE"
    },
    {
     "referenced_type" : "_ZTIPN7android8hardware6ParcelE"
    },
    {
     "referenced_type" : "_ZTINSt3__18functionIFvRN7android8hardware6ParcelEEEE"
    }
   ],
   "return_type" : "_ZTIi",
   "source_file" : "/out/soong/.intermediates/hardware/interfaces/tv/tuner/1.0/android.hardware.tv.tuner@1.0_genc++_headers/gen/android/hardware/tv/tuner/1.0/BnHwFilter.h"
  },
  {
   "function_name" : "android::hardware::tv::tuner::V1_0::BnHwFilter::onTransact",
   "linker_set_key" : "_ZN7android8hardware2tv5tuner4V1_010BnHwFilter10onTransactEjRKNS0_6ParcelEPS5_jNSt3__18functionIFvRS5_EEE",
   "parameters" :
   [
    {
     "is_this_ptr" : true,
     "referenced_type" : "_ZTIPN7android8hardware2tv5tuner4V1_010BnHwFilterE"
    },
    {
     "referenced_type" : "_ZTIj"
    },
    {
     "referenced_type" : "_ZTIRKN7android8hardware6ParcelE"
    },
    {
     "referenced_type" : "_ZTIPN7android8hardware6ParcelE"
    },
    {
     "default_arg" : true,
     "referenced_type" : "_ZTIj"
    },
    {
     "default_arg" : true,
     "referenced_type" : "_ZTINSt3__18functionIFvRN7android8hardware6ParcelEEEE"
    }
   ],
   "return_type" : "_ZTIi",
   "source_file" : "/out/soong/.intermediates/hardware/interfaces/tv/tuner/1.0/android.hardware.tv.tuner@1.0_genc++_headers/gen/android/hardware/tv/tuner/1.0/BnHwFilter.h"
  },
  {
   "function_name" : "android::hardware::tv::tuner::V1_0::BnHwFilter::_hidl_close",
   "linker_set_key" : "_ZN7android8hardware2tv5tuner4V1_010BnHwFilter11_hidl_closeEPNS_4hidl4base4V1_08BnHwBaseERKNS0_6ParcelEPSA_NSt3__18functionIFvRSA_EEE",
   "parameters" :
   [
    {
     "referenced_type" : "_ZTIPN7android4hidl4base4V1_08BnHwBaseE"
    },
    {
     "referenced_type" : "_ZTIRKN7android8hardware6ParcelE"
    },
    {
     "referenced_type" : "_ZTIPN7android8hardware6ParcelE"
    },
    {
     "referenced_type" : "_ZTINSt3__18functionIFvRN7android8hardware6ParcelEEEE"
    }
   ],
   "return_type" : "_ZTIi",
   "source_file" : "/out/soong/.intermediates/hardware/interfaces/tv/tuner/1.0/android.hardware.tv.tuner@1.0_genc++_headers/gen/android/hardware/tv/tuner/1.0/BnHwFilter.h"
  },
  {
   "function_name" : "android::hardware::tv::tuner::V1_0::BnHwFilter::_hidl_flush",
   "linker_set_key" : "_ZN7android8hardware2tv5tuner4V1_010BnHwFilter11_hidl_flushEPNS_4hidl4base4V1_08BnHwBaseERKNS0_6ParcelEPSA_NSt3__18functionIFvRSA_EEE",
   "parameters" :
   [
    {
     "referenced_type" : "_ZTIPN7android4hidl4base4V1_08BnHwBaseE"
    },
    {
     "referenced_type" : "_ZTIRKN7android8hardware6ParcelE"
    },
    {
     "referenced_type" : "_ZTIPN7android8hardware6ParcelE"
    },
    {
     "referenced_type" : "_ZTINSt3__18functionIFvRN7android8hardware6ParcelEEEE"
    }
   ],
   "return_type" : "_ZTIi",
   "source_file" : "/out/soong/.intermediates/hardware/interfaces/tv/tuner/1.0/android.hardware.tv.tuner@1.0_genc++_headers/gen/android/hardware/tv/tuner/1.0/BnHwFilter.h"
  },
  {
   "function_name" : "android::hardware::tv::tuner::V1_0::BnHwFilter::_hidl_getId",
   "linker_set_key" : "_ZN7android8hardware2tv5tuner4V1_010BnHwFilter11_hidl_getIdEPNS_4hidl4base4V1_08BnHwBaseERKNS0_6ParcelEPSA_NSt3__18functionIFvRSA_EEE",
   "parameters" :
   [
    {
     "referenced_type" : "_ZTIPN7android4hidl4base4V1_08BnHwBaseE"
    },
    {
     "referenced_type" : "_ZTIRKN7android8hardware6ParcelE"
    },
    {
     "referenced_type" : "_ZTIPN7android8hardware6ParcelE"
    },
    {
     "referenced_type" : "_ZTINSt3__18functionIFvRN7android8hardware6ParcelEEEE"
    }
   ],
   "return_type" : "_ZTIi",
   "source_file" : "/out/soong/.intermediates/hardware/interfaces/tv/tuner/1.0/android.hardware.tv.tuner@1.0_genc++_headers/gen/android/hardware/tv/tuner/1.0/BnHwFilter.h"
  },
  {
   "function_name" : "android::hardware::tv::tuner::V1_0::BnHwFilter::_hidl_start",
   "linker_set_key" : "_ZN7android8hardware2tv5tuner4V1_010BnHwFilter11_hidl_startEPNS_4hidl4base4V1_08BnHwBaseERKNS0_6ParcelEPSA_NSt3__18functionIFvRSA_EEE",
   "parameters" :
   [
    {
     "referenced_type" : "_ZTIPN7android4hidl4base4V1_08BnHwBaseE"
    },
    {
     "referenced_type" : "_ZTIRKN7android8hardware6ParcelE"
    },
    {
     "referenced_type" : "_ZTIPN7android8hardware6ParcelE"
    },
    {
     "referenced_type" : "_ZTINSt3__18functionIFvRN7android8hardware6ParcelEEEE"
    }
   ],
   "return_type" : "_ZTIi",
   "source_file" : "/out/soong/.intermediates/hardware/interfaces/tv/tuner/1.0/android.hardware.tv.tuner@1.0_genc++_headers/gen/android/hardware/tv/tuner/1.0/BnHwFilter.h"
  },
  {
   "access" : "private",
   "function_name" : "android::hardware::tv::tuner::V1_0::BnHwFilter::getDebugInfo",
   "linker_set_key" : "_ZN7android8hardware2tv5tuner4V1_010BnHwFilter12getDebugInfoENSt3__18functionIFvRKNS_4hidl4base4V1_09DebugInfoEEEE",
   "parameters" :
   [
    {
     "is_this_ptr" : true,
     "referenced_type" : "_ZTIPN7android8hardware2tv5tuner4V1_010BnHwFilterE"
    },
    {
     "referenced_type" : "_ZTINSt3__18functionIFvRKN7android4hidl4base4V1_09DebugInfoEEEE"
    }
   ],
   "return_type" : "_ZTIN7android8hardware6ReturnIvEE",
   "source_file" : "/out/soong/.intermediates/hardware/interfaces/tv/tuner/1.0/android.hardware.tv.tuner@1.0_genc++_headers/gen/android/hardware/tv/tuner/1.0/BnHwFilter.h"
  },
  {
   "function_name" : "android::hardware::tv::tuner::V1_0::BnHwFilter::_hidl_configure",
   "linker_set_key" : "_ZN7android8hardware2tv5tuner4V1_010BnHwFilter15_hidl_configureEPNS_4hidl4base4V1_08BnHwBaseERKNS0_6ParcelEPSA_NSt3__18functionIFvRSA_EEE",
   "parameters" :
   [
    {
     "referenced_type" : "_ZTIPN7android4hidl4base4V1_08BnHwBaseE"
    },
    {
     "referenced_type" : "_ZTIRKN7android8hardware6ParcelE"
    },
    {
     "referenced_type" : "_ZTIPN7android8hardware6ParcelE"
    },
    {
     "referenced_type" : "_ZTINSt3__18functionIFvRN7android8hardware6ParcelEEEE"
    }
   ],
   "return_type" : "_ZTIi",
   "source_file" : "/out/soong/.intermediates/hardware/interfaces/tv/tuner/1.0/android.hardware.tv.tuner@1.0_genc++_headers/gen/android/hardware/tv/tuner/1.0/BnHwFilter.h"
  },
  {
   "function_name" : "android::hardware::tv::tuner::V1_0::BnHwFilter::_hidl_getQueueDesc",
   "linker_set_key" : "_ZN7android8hardware2tv5tuner4V1_010BnHwFilter18_hidl_getQueueDescEPNS_4hidl4base4V1_08BnHwBaseERKNS0_6ParcelEPSA_NSt3__18functionIFvRSA_EEE",
   "parameters" :
   [
    {
     "referenced_type" : "_ZTIPN7android4hidl4base4V1_08BnHwBaseE"
    },
    {
     "referenced_type" : "_ZTIRKN7android8hardware6ParcelE"
    },
    {
     "referenced_type" : "_ZTIPN7android8hardware6ParcelE"
    },
    {
     "referenced_type" : "_ZTINSt3__18functionIFvRN7android8hardware6ParcelEEEE"
    }
   ],
   "return_type" : "_ZTIi",
   "source_file" : "/out/soong/.intermediates/hardware/interfaces/tv/tuner/1.0/android.hardware.tv.tuner@1.0_genc++_headers/gen/android/hardware/tv/tuner/1.0/BnHwFilter.h"
  },
  {
   "function_name" : "android::hardware::tv::tuner::V1_0::BnHwFilter::_hidl_setDataSource",
   "linker_set_key" : "_ZN7android8hardware2tv5tuner4V1_010BnHwFilter19_hidl_setDataSourceEPNS_4hidl4base4V1_08BnHwBaseERKNS0_6ParcelEPSA_NSt3__18functionIFvRSA_EEE",
   "parameters" :
   [
    {
     "referenced_type" : "_ZTIPN7android4hidl4base4V1_08BnHwBaseE"
    },
    {
     "referenced_type" : "_ZTIRKN7android8hardware6ParcelE"
    },
    {
     "referenced_type" : "_ZTIPN7android8hardware6ParcelE"
    },
    {
     "referenced_type" : "_ZTINSt3__18functionIFvRN7android8hardware6ParcelEEEE"
    }
   ],
   "return_type" : "_ZTIi",
   "source_file" : "/out/soong/.intermediates/hardware/interfaces/tv/tuner/1.0/android.hardware.tv.tuner@1.0_genc++_headers/gen/android/hardware/tv/tuner/1.0/BnHwFilter.h"
  },
  {
   "function_name" : "android::hardware::tv::tuner::V1_0::BnHwFilter::_hidl_releaseAvHandle",
   "linker_set_key" : "_ZN7android8hardware2tv5tuner4V1_010BnHwFilter21_hidl_releaseAvHandleEPNS_4hidl4base4V1_08BnHwBaseERKNS0_6ParcelEPSA_NSt3__18functionIFvRSA_EEE",
   "parameters" :
   [
    {
     "referenced_type" : "_ZTIPN7android4hidl4base4V1_08BnHwBaseE"
    },
    {
     "referenced_type" : "_ZTIRKN7android8hardware6ParcelE"
    },
    {
     "referenced_type" : "_ZTIPN7android8hardware6ParcelE"
    },
    {
     "referenced_type" : "_ZTINSt3__18functionIFvRN7android8hardware6ParcelEEEE"
    }
   ],
   "return_type" : "_ZTIi",
   "source_file" : "/out/soong/.intermediates/hardware/interfaces/tv/tuner/1.0/android.hardware.tv.tuner@1.0_genc++_headers/gen/android/hardware/tv/tuner/1.0/BnHwFilter.h"
  },
  {
   "access" : "private",
   "function_name" : "android::hardware::tv::tuner::V1_0::BnHwFilter::ping",
   "linker_set_key" : "_ZN7android8hardware2tv5tuner4V1_010BnHwFilter4pingEv",
   "parameters" :
   [
    {
     "is_this_ptr" : true,
     "referenced_type" : "_ZTIPN7android8hardware2tv5tuner4V1_010BnHwFilterE"
    }
   ],
   "return_type" : "_ZTIN7android8hardware6ReturnIvEE",
   "source_file" : "/out/soong/.intermediates/hardware/interfaces/tv/tuner/1.0/android.hardware.tv.tuner@1.0_genc++_headers/gen/android/hardware/tv/tuner/1.0/BnHwFilter.h"
  },
  {
   "function_name" : "android::hardware::tv::tuner::V1_0::BnHwFilter::BnHwFilter",
   "linker_set_key" : "_ZN7android8hardware2tv5tuner4V1_010BnHwFilterC1ERKNS_2spINS3_7IFilterEEE",
   "parameters" :
   [
    {
     "is_this_ptr" : true,
     "referenced_type" : "_ZTIPN7android8hardware2tv5tuner4V1_010BnHwFilterE"
    },
    {
     "referenced_type" : "_ZTIRKN7android2spINS_8hardware2tv5tuner4V1_07IFilterEEE"
    }
   ],
   "return_type" : "_ZTIv",
   "source_file" : "/out/soong/.intermediates/hardware/interfaces/tv/tuner/1.0/android.hardware.tv.tuner@1.0_genc++_headers/gen/android/hardware/tv/tuner/1.0/BnHwFilter.h"
  },
  {
   "function_name" : "android::hardware::tv::tuner::V1_0::BnHwFilter::BnHwFilter",
   "linker_set_key" : "_ZN7android8hardware2tv5tuner4V1_010BnHwFilterC2ERKNS_2spINS3_7IFilterEEE",
   "parameters" :
   [
    {
     "is_this_ptr" : true,
     "referenced_type" : "_ZTIPN7android8hardware2tv5tuner4V1_010BnHwFilterE"
    },
    {
     "referenced_type" : "_ZTIRKN7android2spINS_8hardware2tv5tuner4V1_07IFilterEEE"
    }
   ],
   "return_type" : "_ZTIv",
   "source_file" : "/out/soong/.intermediates/hardware/interfaces/tv/tuner/1.0/android.hardware.tv.tuner@1.0_genc++_headers/gen/android/hardware/tv/tuner/1.0/BnHwFilter.h"
  },
  {
   "function_name" : "android::hardware::tv::tuner::V1_0::BnHwFilter::~BnHwFilter",
   "linker_set_key" : "_ZN7android8hardware2tv5tuner4V1_010BnHwFilterD0Ev",
   "parameters" :
   [
    {
     "is_this_ptr" : true,
     "referenced_type" : "_ZTIPN7android8hardware2tv5tuner4V1_010BnHwFilterE"
    }
   ],
   "return_type" : "_ZTIv",
   "source_file" : "/out/soong/.intermediates/hardware/interfaces/tv/tuner/1.0/android.hardware.tv.tuner@1.0_genc++_headers/gen/android/hardware/tv/tuner/1.0/BnHwFilter.h"
  },
  {
   "function_name" : "android::hardware::tv::tuner::V1_0::BnHwFilter::~BnHwFilter",
   "linker_set_key" : "_ZN7android8hardware2tv5tuner4V1_010BnHwFilterD1Ev",
   "parameters" :
   [
    {
     "is_this_ptr" : true,
     "referenced_type" : "_ZTIPN7android8hardware2tv5tuner4V1_010BnHwFilterE"
    }
   ],
   "return_type" : "_ZTIv",
   "source_file" : "/out/soong/.intermediates/hardware/interfaces/tv/tuner/1.0/android.hardware.tv.tuner@1.0_genc++_headers/gen/android/hardware/tv/tuner/1.0/BnHwFilter.h"
  },
  {
   "function_name" : "android::hardware::tv::tuner::V1_0::BnHwFilter::~BnHwFilter",
   "linker_set_key" : "_ZN7android8hardware2tv5tuner4V1_010BnHwFilterD2Ev",
   "parameters" :
   [
    {
     "is_this_ptr" : true,
     "referenced_type" : "_ZTIPN7android8hardware2tv5tuner4V1_010BnHwFilterE"
    }
   ],
   "return_type" : "_ZTIv",
   "source_file" : "/out/soong/.intermediates/hardware/interfaces/tv/tuner/1.0/android.hardware.tv.tuner@1.0_genc++_headers/gen/android/hardware/tv/tuner/1.0/BnHwFilter.h"
  },
  {
   "function_name" : "android::hardware::tv::tuner::V1_0::BpHwFilter::_hidl_stop",
   "linker_set_key" : "_ZN7android8hardware2tv5tuner4V1_010BpHwFilter10_hidl_stopEPNS0_10IInterfaceEPNS0_7details16HidlInstrumentorE",
   "parameters" :
   [
    {
     "referenced_type" : "_ZTIPN7android8hardware10IInterfaceE"
    },
    {
     "referenced_type" : "_ZTIPN7android8hardware7details16HidlInstrumentorE"
    }
   ],
   "return_type" : "_ZTIN7android8hardware6ReturnINS0_2tv5tuner4V1_06ResultEEE",
   "source_file" : "/out/soong/.intermediates/hardware/interfaces/tv/tuner/1.0/android.hardware.tv.tuner@1.0_genc++_headers/gen/android/hardware/tv/tuner/1.0/BpHwFilter.h"
  },
  {
   "function_name" : "android::hardware::tv::tuner::V1_0::BpHwFilter::_hidl_close",
   "linker_set_key" : "_ZN7android8hardware2tv5tuner4V1_010BpHwFilter11_hidl_closeEPNS0_10IInterfaceEPNS0_7details16HidlInstrumentorE",
   "parameters" :
   [
    {
     "referenced_type" : "_ZTIPN7android8hardware10IInterfaceE"
    },
    {
     "referenced_type" : "_ZTIPN7android8hardware7details16HidlInstrumentorE"
    }
   ],
   "return_type" : "_ZTIN7android8hardware6ReturnINS0_2tv5tuner4V1_06ResultEEE",
   "source_file" : "/out/soong/.intermediates/hardware/interfaces/tv/tuner/1.0/android.hardware.tv.tuner@1.0_genc++_headers/gen/android/hardware/tv/tuner/1.0/BpHwFilter.h"
  },
  {
   "function_name" : "android::hardware::tv::tuner::V1_0::BpHwFilter::_hidl_flush",
   "linker_set_key" : "_ZN7android8hardware2tv5tuner4V1_010BpHwFilter11_hidl_flushEPNS0_10IInterfaceEPNS0_7details16HidlInstrumentorE",
   "parameters" :
   [
    {
     "referenced_type" : "_ZTIPN7android8hardware10IInterfaceE"
    },
    {
     "referenced_type" : "_ZTIPN7android8hardware7details16HidlInstrumentorE"
    }
   ],
   "return_type" : "_ZTIN7android8hardware6ReturnINS0_2tv5tuner4V1_06ResultEEE",
   "source_file" : "/out/soong/.intermediates/hardware/interfaces/tv/tuner/1.0/android.hardware.tv.tuner@1.0_genc++_headers/gen/android/hardware/tv/tuner/1.0/BpHwFilter.h"
  },
  {
   "function_name" : "android::hardware::tv::tuner::V1_0::BpHwFilter::_hidl_getId",
   "linker_set_key" : "_ZN7android8hardware2tv5tuner4V1_010BpHwFilter11_hidl_getIdEPNS0_10IInterfaceEPNS0_7details16HidlInstrumentorENSt3__18functionIFvNS3_6ResultEjEEE",
   "parameters" :
   [
    {
     "referenced_type" : "_ZTIPN7android8hardware10IInterfaceE"
    },
    {
     "referenced_type" : "_ZTIPN7android8hardware7details16HidlInstrumentorE"
    },
    {
     "referenced_type" : "_ZTINSt3__18functionIFvN7android8hardware2tv5tuner4V1_06ResultEjEEE"
    }
   ],
   "return_type" : "_ZTIN7android8hardware6ReturnIvEE",
   "source_file" : "/out/soong/.intermediates/hardware/interfaces/tv/tuner/1.0/android.hardware.tv.tuner@1.0_genc++_headers/gen/android/hardware/tv/tuner/1.0/BpHwFilter.h"
  },
  {
   "function_name" : "android::hardware::tv::tuner::V1_0::BpHwFilter::_hidl_start",
   "linker_set_key" : "_ZN7android8hardware2tv5tuner4V1_010BpHwFilter11_hidl_startEPNS0_10IInterfaceEPNS0_7details16HidlInstrumentorE",
   "parameters" :
   [
    {
     "referenced_type" : "_ZTIPN7android8hardware10IInterfaceE"
    },
    {
     "referenced_type" : "_ZTIPN7android8hardware7details16HidlInstrumentorE"
    }
   ],
   "return_type" : "_ZTIN7android8hardware6ReturnINS0_2tv5tuner4V1_06ResultEEE",
   "source_file" : "/out/soong/.intermediates/hardware/interfaces/tv/tuner/1.0/android.hardware.tv.tuner@1.0_genc++_headers/gen/android/hardware/tv/tuner/1.0/BpHwFilter.h"
  },
  {
   "function_name" : "android::hardware::tv::tuner::V1_0::BpHwFilter::linkToDeath",
   "linker_set_key" : "_ZN7android8hardware2tv5tuner4V1_010BpHwFilter11linkToDeathERKNS_2spINS0_20hidl_death_recipientEEEm",
   "parameters" :
   [
    {
     "is_this_ptr" : true,
     "referenced_type" : "_ZTIPN7android8hardware2tv5tuner4V1_010BpHwFilterE"
    },
    {
     "referenced_type" : "_ZTIRKN7android2spINS_8hardware20hidl_death_recipientEEE"
    },
    {
     "referenced_type" : "_ZTIm"
    }
   ],
   "return_type" : "_ZTIN7android8hardware6ReturnIbEE",
   "source_file" : "/out/soong/.intermediates/hardware/interfaces/tv/tuner/1.0/android.hardware.tv.tuner@1.0_genc++_headers/gen/android/hardware/tv/tuner/1.0/BpHwFilter.h"
  },
  {
   "function_name" : "android::hardware::tv::tuner::V1_0::BpHwFilter::getDebugInfo",
   "linker_set_key" : "_ZN7android8hardware2tv5tuner4V1_010BpHwFilter12getDebugInfoENSt3__18functionIFvRKNS_4hidl4base4V1_09DebugInfoEEEE",
   "parameters" :
   [
    {
     "is_this_ptr" : true,
     "referenced_type" : "_ZTIPN7android8hardware2tv5tuner4V1_010BpHwFilterE"
    },
    {
     "referenced_type" : "_ZTINSt3__18functionIFvRKN7android4hidl4base4V1_09DebugInfoEEEE"
    }
   ],
   "return_type" : "_ZTIN7android8hardware6ReturnIvEE",
   "source_file" : "/out/soong/.intermediates/hardware/interfaces/tv/tuner/1.0/android.hardware.tv.tuner@1.0_genc++_headers/gen/android/hardware/tv/tuner/1.0/BpHwFilter.h"
  },
  {
   "function_name" : "android::hardware::tv::tuner::V1_0::BpHwFilter::getHashChain",
   "linker_set_key" : "_ZN7android8hardware2tv5tuner4V1_010BpHwFilter12getHashChainENSt3__18functionIFvRKNS0_8hidl_vecINS0_10hidl_arrayIhLm32EJEEEEEEEE",
   "parameters" :
   [
    {
     "is_this_ptr" : true,
     "referenced_type" : "_ZTIPN7android8hardware2tv5tuner4V1_010BpHwFilterE"
    },
    {
     "referenced_type" : "_ZTINSt3__18functionIFvRKN7android8hardware8hidl_vecINS2_10hidl_arrayIhLm32EJEEEEEEEE"
    }
   ],
   "return_type" : "_ZTIN7android8hardware6ReturnIvEE",
   "source_file" : "/out/soong/.intermediates/hardware/interfaces/tv/tuner/1.0/android.hardware.tv.tuner@1.0_genc++_headers/gen/android/hardware/tv/tuner/1.0/BpHwFilter.h"
  },
  {
   "function_name" : "android::hardware::tv::tuner::V1_0::BpHwFilter::getQueueDesc",
   "linker_set_key" : "_ZN7android8hardware2tv5tuner4V1_010BpHwFilter12getQueueDescENSt3__18functionIFvNS3_6ResultERKNS0_12MQDescriptorIhLNS0_8MQFlavorE1EEEEEE",
   "parameters" :
   [
    {
     "is_this_ptr" : true,
     "referenced_type" : "_ZTIPN7android8hardware2tv5tuner4V1_010BpHwFilterE"
    },
    {
     "referenced_type" : "_ZTINSt3__18functionIFvN7android8hardware2tv5tuner4V1_06ResultERKNS2_12MQDescriptorIhLNS2_8MQFlavorE1EEEEEE"
    }
   ],
   "return_type" : "_ZTIN7android8hardware6ReturnIvEE",
   "source_file" : "/out/soong/.intermediates/hardware/interfaces/tv/tuner/1.0/android.hardware.tv.tuner@1.0_genc++_headers/gen/android/hardware/tv/tuner/1.0/BpHwFilter.h"
  },
  {
   "function_name" : "android::hardware::tv::tuner::V1_0::BpHwFilter::setDataSource",
   "linker_set_key" : "_ZN7android8hardware2tv5tuner4V1_010BpHwFilter13setDataSourceERKNS_2spINS3_7IFilterEEE",
   "parameters" :
   [
    {
     "is_this_ptr" : true,
     "referenced_type" : "_ZTIPN7android8hardware2tv5tuner4V1_010BpHwFilterE"
    },
    {
     "referenced_type" : "_ZTIRKN7android2spINS_8hardware2tv5tuner4V1_07IFilterEEE"
    }
   ],
   "return_type" : "_ZTIN7android8hardware6ReturnINS0_2tv5tuner4V1_06ResultEEE",
   "source_file" : "/out/soong/.intermediates/hardware/interfaces/tv/tuner/1.0/android.hardware.tv.tuner@1.0_genc++_headers/gen/android/hardware/tv/tuner/1.0/BpHwFilter.h"
  },
  {
   "function_name" : "android::hardware::tv::tuner::V1_0::BpHwFilter::unlinkToDeath",
   "linker_set_key" : "_ZN7android8hardware2tv5tuner4V1_010BpHwFilter13unlinkToDeathERKNS_2spINS0_20hidl_death_recipientEEE",
   "parameters" :
   [
    {
     "is_this_ptr" : true,
     "referenced_type" : "_ZTIPN7android8hardware2tv5tuner4V1_010BpHwFilterE"
    },
    {
     "referenced_type" : "_ZTIRKN7android2spINS_8hardware20hidl_death_recipientEEE"
    }
   ],
   "return_type" : "_ZTIN7android8hardware6ReturnIbEE",
   "source_file" : "/out/soong/.intermediates/hardware/interfaces/tv/tuner/1.0/android.hardware.tv.tuner@1.0_genc++_headers/gen/android/hardware/tv/tuner/1.0/BpHwFilter.h"
  },
  {
   "function_name" : "android::hardware::tv::tuner::V1_0::BpHwFilter::interfaceChain",
   "linker_set_key" : "_ZN7android8hardware2tv5tuner4V1_010BpHwFilter14interfaceChainENSt3__18functionIFvRKNS0_8hidl_vecINS0_11hidl_stringEEEEEE",
   "parameters" :
   [
    {
     "is_this_ptr" : true,
     "referenced_type" : "_ZTIPN7android8hardware2tv5tuner4V1_010BpHwFilterE"
    },
    {
     "referenced_type" : "_ZTINSt3__18functionIFvRKN7android8hardware8hidl_vecINS2_11hidl_stringEEEEEE"
    }
   ],
   "return_type" : "_ZTIN7android8hardware6ReturnIvEE",
   "source_file" : "/out/soong/.intermediates/hardware/interfaces/tv/tuner/1.0/android.hardware.tv.tuner@1.0_genc++_headers/gen/android/hardware/tv/tuner/1.0/BpHwFilter.h"
  },
  {
   "function_name" : "android::hardware::tv::tuner::V1_0::BpHwFilter::_hidl_configure",
   "linker_set_key" : "_ZN7android8hardware2tv5tuner4V1_010BpHwFilter15_hidl_configureEPNS0_10IInterfaceEPNS0_7details16HidlInstrumentorERKNS3_19DemuxFilterSettingsE",
   "parameters" :
   [
    {
     "referenced_type" : "_ZTIPN7android8hardware10IInterfaceE"
    },
    {
     "referenced_type" : "_ZTIPN7android8hardware7details16HidlInstrumentorE"
    },
    {
     "referenced_type" : "_ZTIRKN7android8hardware2tv5tuner4V1_019DemuxFilterSettingsE"
    }
   ],
   "return_type" : "_ZTIN7android8hardware6ReturnINS0_2tv5tuner4V1_06ResultEEE",
   "source_file" : "/out/soong/.intermediates/hardware/interfaces/tv/tuner/1.0/android.hardware.tv.tuner@1.0_genc++_headers/gen/android/hardware/tv/tuner/1.0/BpHwFilter.h"
  },
  {
   "function_name" : "android::hardware::tv::tuner::V1_0::BpHwFilter::onLastStrongRef",
   "linker_set_key" : "_ZN7android8hardware2tv5tuner4V1_010BpHwFilter15onLastStrongRefEPKv",
   "parameters" :
   [
    {
     "is_this_ptr" : true,
     "referenced_type" : "_ZTIPN7android8hardware2tv5tuner4V1_010BpHwFilterE"
    },
    {
     "referenced_type" : "_ZTIPKv"
    }
   ],
   "return_type" : "_ZTIv",
   "source_file" : "/out/soong/.intermediates/hardware/interfaces/tv/tuner/1.0/android.hardware.tv.tuner@1.0_genc++_headers/gen/android/hardware/tv/tuner/1.0/BpHwFilter.h"
  },
  {
   "function_name" : "android::hardware::tv::tuner::V1_0::BpHwFilter::releaseAvHandle",
   "linker_set_key" : "_ZN7android8hardware2tv5tuner4V1_010BpHwFilter15releaseAvHandleERKNS0_11hidl_handleEm",
   "parameters" :
   [
    {
     "is_this_ptr" : true,
     "referenced_type" : "_ZTIPN7android8hardware2tv5tuner4V1_010BpHwFilterE"
    },
    {
     "referenced_type" : "_ZTIRKN7android8hardware11hidl_handleE"
    },
    {
     "referenced_type" : "_ZTIm"
    }
   ],
   "return_type" : "_ZTIN7android8hardware6ReturnINS0_2tv5tuner4V1_06ResultEEE",
   "source_file" : "/out/soong/.intermediates/hardware/interfaces/tv/tuner/1.0/android.hardware.tv.tuner@1.0_genc++_headers/gen/android/hardware/tv/tuner/1.0/BpHwFilter.h"
  },
  {
   "function_name" : "android::hardware::tv::tuner::V1_0::BpHwFilter::_hidl_getQueueDesc",
   "linker_set_key" : "_ZN7android8hardware2tv5tuner4V1_010BpHwFilter18_hidl_getQueueDescEPNS0_10IInterfaceEPNS0_7details16HidlInstrumentorENSt3__18functionIFvNS3_6ResultERKNS0_12MQDescriptorIhLNS0_8MQFlavorE1EEEEEE",
   "parameters" :
   [
    {
     "referenced_type" : "_ZTIPN7android8hardware10IInterfaceE"
    },
    {
     "referenced_type" : "_ZTIPN7android8hardware7details16HidlInstrumentorE"
    },
    {
     "referenced_type" : "_ZTINSt3__18functionIFvN7android8hardware2tv5tuner4V1_06ResultERKNS2_12MQDescriptorIhLNS2_8MQFlavorE1EEEEEE"
    }
   ],
   "return_type" : "_ZTIN7android8hardware6ReturnIvEE",
   "source_file" : "/out/soong/.intermediates/hardware/interfaces/tv/tuner/1.0/android.hardware.tv.tuner@1.0_genc++_headers/gen/android/hardware/tv/tuner/1.0/BpHwFilter.h"
  },
  {
   "function_name" : "android::hardware::tv::tuner::V1_0::BpHwFilter::_hidl_setDataSource",
   "linker_set_key" : "_ZN7android8hardware2tv5tuner4V1_010BpHwFilter19_hidl_setDataSourceEPNS0_10IInterfaceEPNS0_7details16HidlInstrumentorERKNS_2spINS3_7IFilterEEE",
   "parameters" :
   [
    {
     "referenced_type" : "_ZTIPN7android8hardware10IInterfaceE"
    },
    {
     "referenced_type" : "_ZTIPN7android8hardware7details16HidlInstrumentorE"
    },
    {
     "referenced_type" : "_ZTIRKN7android2spINS_8hardware2tv5tuner4V1_07IFilterEEE"
    }
   ],
   "return_type" : "_ZTIN7android8hardware6ReturnINS0_2tv5tuner4V1_06ResultEEE",
   "source_file" : "/out/soong/.intermediates/hardware/interfaces/tv/tuner/1.0/android.hardware.tv.tuner@1.0_genc++_headers/gen/android/hardware/tv/tuner/1.0/BpHwFilter.h"
  },
  {
   "function_name" : "android::hardware::tv::tuner::V1_0::BpHwFilter::interfaceDescriptor",
   "linker_set_key" : "_ZN7android8hardware2tv5tuner4V1_010BpHwFilter19interfaceDescriptorENSt3__18functionIFvRKNS0_11hidl_stringEEEE",
   "parameters" :
   [
    {
     "is_this_ptr" : true,
     "referenced_type" : "_ZTIPN7android8hardware2tv5tuner4V1_010BpHwFilterE"
    },
    {
     "referenced_type" : "_ZTINSt3__18functionIFvRKN7android8hardware11hidl_stringEEEE"
    }
   ],
   "return_type" : "_ZTIN7android8hardware6ReturnIvEE",
   "source_file" : "/out/soong/.intermediates/hardware/interfaces/tv/tuner/1.0/android.hardware.tv.tuner@1.0_genc++_headers/gen/android/hardware/tv/tuner/1.0/BpHwFilter.h"
  },
  {
   "function_name" : "android::hardware::tv::tuner::V1_0::BpHwFilter::_hidl_releaseAvHandle",
   "linker_set_key" : "_ZN7android8hardware2tv5tuner4V1_010BpHwFilter21_hidl_releaseAvHandleEPNS0_10IInterfaceEPNS0_7details16HidlInstrumentorERKNS0_11hidl_handleEm",
   "parameters" :
   [
    {
     "referenced_type" : "_ZTIPN7android8hardware10IInterfaceE"
    },
    {
     "referenced_type" : "_ZTIPN7android8hardware7details16HidlInstrumentorE"
    },
    {
     "referenced_type" : "_ZTIRKN7android8hardware11hidl_handleE"
    },
    {
     "referenced_type" : "_ZTIm"
    }
   ],
   "return_type" : "_ZTIN7android8hardware6ReturnINS0_2tv5tuner4V1_06ResultEEE",
   "source_file" : "/out/soong/.intermediates/hardware/interfaces/tv/tuner/1.0/android.hardware.tv.tuner@1.0_genc++_headers/gen/android/hardware/tv/tuner/1.0/BpHwFilter.h"
  },
  {
   "function_name" : "android::hardware::tv::tuner::V1_0::BpHwFilter::notifySyspropsChanged",
   "linker_set_key" : "_ZN7android8hardware2tv5tuner4V1_010BpHwFilter21notifySyspropsChangedEv",
   "parameters" :
   [
    {
     "is_this_ptr" : true,
     "referenced_type" : "_ZTIPN7android8hardware2tv5tuner4V1_010BpHwFilterE"
    }
   ],
   "return_type" : "_ZTIN7android8hardware6ReturnIvEE",
   "source_file" : "/out/soong/.intermediates/hardware/interfaces/tv/tuner/1.0/android.hardware.tv.tuner@1.0_genc++_headers/gen/android/hardware/tv/tuner/1.0/BpHwFilter.h"
  },
  {
   "function_name" : "android::hardware::tv::tuner::V1_0::BpHwFilter::setHALInstrumentation",
   "linker_set_key" : "_ZN7android8hardware2tv5tuner4V1_010BpHwFilter21setHALInstrumentationEv",
   "parameters" :
   [
    {
     "is_this_ptr" : true,
     "referenced_type" : "_ZTIPN7android8hardware2tv5tuner4V1_010BpHwFilterE"
    }
   ],
   "return_type" : "_ZTIN7android8hardware6ReturnIvEE",
   "source_file" : "/out/soong/.intermediates/hardware/interfaces/tv/tuner/1.0/android.hardware.tv.tuner@1.0_genc++_headers/gen/android/hardware/tv/tuner/1.0/BpHwFilter.h"
  },
  {
   "function_name" : "android::hardware::tv::tuner::V1_0::BpHwFilter::ping",
   "linker_set_key" : "_ZN7android8hardware2tv5tuner4V1_010BpHwFilter4pingEv",
   "parameters" :
   [
    {
     "is_this_ptr" : true,
     "referenced_type" : "_ZTIPN7android8hardware2tv5tuner4V1_010BpHwFilterE"
    }
   ],
   "return_type" : "_ZTIN7android8hardware6ReturnIvEE",
   "source_file" : "/out/soong/.intermediates/hardware/interfaces/tv/tuner/1.0/android.hardware.tv.tuner@1.0_genc++_headers/gen/android/hardware/tv/tuner/1.0/BpHwFilter.h"
  },
  {
   "function_name" : "android::hardware::tv::tuner::V1_0::BpHwFilter::stop",
   "linker_set_key" : "_ZN7android8hardware2tv5tuner4V1_010BpHwFilter4stopEv",
   "parameters" :
   [
    {
     "is_this_ptr" : true,
     "referenced_type" : "_ZTIPN7android8hardware2tv5tuner4V1_010BpHwFilterE"
    }
   ],
   "return_type" : "_ZTIN7android8hardware6ReturnINS0_2tv5tuner4V1_06ResultEEE",
   "source_file" : "/out/soong/.intermediates/hardware/interfaces/tv/tuner/1.0/android.hardware.tv.tuner@1.0_genc++_headers/gen/android/hardware/tv/tuner/1.0/BpHwFilter.h"
  },
  {
   "function_name" : "android::hardware::tv::tuner::V1_0::BpHwFilter::close",
   "linker_set_key" : "_ZN7android8hardware2tv5tuner4V1_010BpHwFilter5closeEv",
   "parameters" :
   [
    {
     "is_this_ptr" : true,
     "referenced_type" : "_ZTIPN7android8hardware2tv5tuner4V1_010BpHwFilterE"
    }
   ],
   "return_type" : "_ZTIN7android8hardware6ReturnINS0_2tv5tuner4V1_06ResultEEE",
   "source_file" : "/out/soong/.intermediates/hardware/interfaces/tv/tuner/1.0/android.hardware.tv.tuner@1.0_genc++_headers/gen/android/hardware/tv/tuner/1.0/BpHwFilter.h"
  },
  {
   "function_name" : "android::hardware::tv::tuner::V1_0::BpHwFilter::debug",
   "linker_set_key" : "_ZN7android8hardware2tv5tuner4V1_010BpHwFilter5debugERKNS0_11hidl_handleERKNS0_8hidl_vecINS0_11hidl_stringEEE",
   "parameters" :
   [
    {
     "is_this_ptr" : true,
     "referenced_type" : "_ZTIPN7android8hardware2tv5tuner4V1_010BpHwFilterE"
    },
    {
     "referenced_type" : "_ZTIRKN7android8hardware11hidl_handleE"
    },
    {
     "referenced_type" : "_ZTIRKN7android8hardware8hidl_vecINS0_11hidl_stringEEE"
    }
   ],
   "return_type" : "_ZTIN7android8hardware6ReturnIvEE",
   "source_file" : "/out/soong/.intermediates/hardware/interfaces/tv/tuner/1.0/android.hardware.tv.tuner@1.0_genc++_headers/gen/android/hardware/tv/tuner/1.0/BpHwFilter.h"
  },
  {
   "function_name" : "android::hardware::tv::tuner::V1_0::BpHwFilter::flush",
   "linker_set_key" : "_ZN7android8hardware2tv5tuner4V1_010BpHwFilter5flushEv",
   "parameters" :
   [
    {
     "is_this_ptr" : true,
     "referenced_type" : "_ZTIPN7android8hardware2tv5tuner4V1_010BpHwFilterE"
    }
   ],
   "return_type" : "_ZTIN7android8hardware6ReturnINS0_2tv5tuner4V1_06ResultEEE",
   "source_file" : "/out/soong/.intermediates/hardware/interfaces/tv/tuner/1.0/android.hardware.tv.tuner@1.0_genc++_headers/gen/android/hardware/tv/tuner/1.0/BpHwFilter.h"
  },
  {
   "function_name" : "android::hardware::tv::tuner::V1_0::BpHwFilter::getId",
   "linker_set_key" : "_ZN7android8hardware2tv5tuner4V1_010BpHwFilter5getIdENSt3__18functionIFvNS3_6ResultEjEEE",
   "parameters" :
   [
    {
     "is_this_ptr" : true,
     "referenced_type" : "_ZTIPN7android8hardware2tv5tuner4V1_010BpHwFilterE"
    },
    {
     "referenced_type" : "_ZTINSt3__18functionIFvN7android8hardware2tv5tuner4V1_06ResultEjEEE"
    }
   ],
   "return_type" : "_ZTIN7android8hardware6ReturnIvEE",
   "source_file" : "/out/soong/.intermediates/hardware/interfaces/tv/tuner/1.0/android.hardware.tv.tuner@1.0_genc++_headers/gen/android/hardware/tv/tuner/1.0/BpHwFilter.h"
  },
  {
   "function_name" : "android::hardware::tv::tuner::V1_0::BpHwFilter::start",
   "linker_set_key" : "_ZN7android8hardware2tv5tuner4V1_010BpHwFilter5startEv",
   "parameters" :
   [
    {
     "is_this_ptr" : true,
     "referenced_type" : "_ZTIPN7android8hardware2tv5tuner4V1_010BpHwFilterE"
    }
   ],
   "return_type" : "_ZTIN7android8hardware6ReturnINS0_2tv5tuner4V1_06ResultEEE",
   "source_file" : "/out/soong/.intermediates/hardware/interfaces/tv/tuner/1.0/android.hardware.tv.tuner@1.0_genc++_headers/gen/android/hardware/tv/tuner/1.0/BpHwFilter.h"
  },
  {
   "function_name" : "android::hardware::tv::tuner::V1_0::BpHwFilter::configure",
   "linker_set_key" : "_ZN7android8hardware2tv5tuner4V1_010BpHwFilter9configureERKNS3_19DemuxFilterSettingsE",
   "parameters" :
   [
    {
     "is_this_ptr" : true,
     "referenced_type" : "_ZTIPN7android8hardware2tv5tuner4V1_010BpHwFilterE"
    },
    {
     "referenced_type" : "_ZTIRKN7android8hardware2tv5tuner4V1_019DemuxFilterSettingsE"
    }
   ],
   "return_type" : "_ZTIN7android8hardware6ReturnINS0_2tv5tuner4V1_06ResultEEE",
   "source_file" : "/out/soong/.intermediates/hardware/interfaces/tv/tuner/1.0/android.hardware.tv.tuner@1.0_genc++_headers/gen/android/hardware/tv/tuner/1.0/BpHwFilter.h"
  },
  {
   "function_name" : "android::hardware::tv::tuner::V1_0::BpHwFilter::BpHwFilter",
   "linker_set_key" : "_ZN7android8hardware2tv5tuner4V1_010BpHwFilterC1ERKNS_2spINS0_7IBinderEEE",
   "parameters" :
   [
    {
     "is_this_ptr" : true,
     "referenced_type" : "_ZTIPN7android8hardware2tv5tuner4V1_010BpHwFilterE"
    },
    {
     "referenced_type" : "_ZTIRKN7android2spINS_8hardware7IBinderEEE"
    }
   ],
   "return_type" : "_ZTIv",
   "source_file" : "/out/soong/.intermediates/hardware/interfaces/tv/tuner/1.0/android.hardware.tv.tuner@1.0_genc++_headers/gen/android/hardware/tv/tuner/1.0/BpHwFilter.h"
  },
  {
   "function_name" : "android::hardware::tv::tuner::V1_0::BpHwFilter::BpHwFilter",
   "linker_set_key" : "_ZN7android8hardware2tv5tuner4V1_010BpHwFilterC2ERKNS_2spINS0_7IBinderEEE",
   "parameters" :
   [
    {
     "is_this_ptr" : true,
     "referenced_type" : "_ZTIPN7android8hardware2tv5tuner4V1_010BpHwFilterE"
    },
    {
     "referenced_type" : "_ZTIRKN7android2spINS_8hardware7IBinderEEE"
    }
   ],
   "return_type" : "_ZTIv",
   "source_file" : "/out/soong/.intermediates/hardware/interfaces/tv/tuner/1.0/android.hardware.tv.tuner@1.0_genc++_headers/gen/android/hardware/tv/tuner/1.0/BpHwFilter.h"
  },
  {
   "access" : "private",
   "function_name" : "android::hardware::tv::tuner::V1_0::BsFrontend::addOnewayTask",
   "linker_set_key" : "_ZN7android8hardware2tv5tuner4V1_010BsFrontend13addOnewayTaskENSt3__18functionIFvvEEE",
   "parameters" :
   [
    {
     "is_this_ptr" : true,
     "referenced_type" : "_ZTIPN7android8hardware2tv5tuner4V1_010BsFrontendE"
    },
    {
     "referenced_type" : "_ZTINSt3__18functionIFvvEEE"
    }
   ],
   "return_type" : "_ZTIN7android8hardware6ReturnIvEE",
   "source_file" : "/out/soong/.intermediates/hardware/interfaces/tv/tuner/1.0/android.hardware.tv.tuner@1.0_genc++_headers/gen/android/hardware/tv/tuner/1.0/BsFrontend.h"
  },
  {
   "function_name" : "android::hardware::tv::tuner::V1_0::BsFrontend::BsFrontend",
   "linker_set_key" : "_ZN7android8hardware2tv5tuner4V1_010BsFrontendC1ENS_2spINS3_9IFrontendEEE",
   "parameters" :
   [
    {
     "is_this_ptr" : true,
     "referenced_type" : "_ZTIPN7android8hardware2tv5tuner4V1_010BsFrontendE"
    },
    {
     "referenced_type" : "_ZTIKN7android2spINS_8hardware2tv5tuner4V1_09IFrontendEEE"
    }
   ],
   "return_type" : "_ZTIv",
   "source_file" : "/out/soong/.intermediates/hardware/interfaces/tv/tuner/1.0/android.hardware.tv.tuner@1.0_genc++_headers/gen/android/hardware/tv/tuner/1.0/BsFrontend.h"
  },
  {
   "function_name" : "android::hardware::tv::tuner::V1_0::BsFrontend::BsFrontend",
   "linker_set_key" : "_ZN7android8hardware2tv5tuner4V1_010BsFrontendC2ENS_2spINS3_9IFrontendEEE",
   "parameters" :
   [
    {
     "is_this_ptr" : true,
     "referenced_type" : "_ZTIPN7android8hardware2tv5tuner4V1_010BsFrontendE"
    },
    {
     "referenced_type" : "_ZTIKN7android2spINS_8hardware2tv5tuner4V1_09IFrontendEEE"
    }
   ],
   "return_type" : "_ZTIv",
   "source_file" : "/out/soong/.intermediates/hardware/interfaces/tv/tuner/1.0/android.hardware.tv.tuner@1.0_genc++_headers/gen/android/hardware/tv/tuner/1.0/BsFrontend.h"
  },
  {
   "function_name" : "android::hardware::tv::tuner::V1_0::DvrSettings::hidl_union::hidl_union",
   "linker_set_key" : "_ZN7android8hardware2tv5tuner4V1_011DvrSettings10hidl_unionC1Ev",
   "parameters" :
   [
    {
     "is_this_ptr" : true,
     "referenced_type" : "_ZTIPN7android8hardware2tv5tuner4V1_011DvrSettings10hidl_unionE"
    }
   ],
   "return_type" : "_ZTIv",
   "source_file" : "/out/soong/.intermediates/hardware/interfaces/tv/tuner/1.0/android.hardware.tv.tuner@1.0_genc++_headers/gen/android/hardware/tv/tuner/1.0/types.h"
  },
  {
   "function_name" : "android::hardware::tv::tuner::V1_0::DvrSettings::hidl_union::hidl_union",
   "linker_set_key" : "_ZN7android8hardware2tv5tuner4V1_011DvrSettings10hidl_unionC2Ev",
   "parameters" :
   [
    {
     "is_this_ptr" : true,
     "referenced_type" : "_ZTIPN7android8hardware2tv5tuner4V1_011DvrSettings10hidl_unionE"
    }
   ],
   "return_type" : "_ZTIv",
   "source_file" : "/out/soong/.intermediates/hardware/interfaces/tv/tuner/1.0/android.hardware.tv.tuner@1.0_genc++_headers/gen/android/hardware/tv/tuner/1.0/types.h"
  },
  {
   "function_name" : "android::hardware::tv::tuner::V1_0::DvrSettings::hidl_union::~hidl_union",
   "linker_set_key" : "_ZN7android8hardware2tv5tuner4V1_011DvrSettings10hidl_unionD1Ev",
   "parameters" :
   [
    {
     "is_this_ptr" : true,
     "referenced_type" : "_ZTIPN7android8hardware2tv5tuner4V1_011DvrSettings10hidl_unionE"
    }
   ],
   "return_type" : "_ZTIv",
   "source_file" : "/out/soong/.intermediates/hardware/interfaces/tv/tuner/1.0/android.hardware.tv.tuner@1.0_genc++_headers/gen/android/hardware/tv/tuner/1.0/types.h"
  },
  {
   "function_name" : "android::hardware::tv::tuner::V1_0::DvrSettings::hidl_union::~hidl_union",
   "linker_set_key" : "_ZN7android8hardware2tv5tuner4V1_011DvrSettings10hidl_unionD2Ev",
   "parameters" :
   [
    {
     "is_this_ptr" : true,
     "referenced_type" : "_ZTIPN7android8hardware2tv5tuner4V1_011DvrSettings10hidl_unionE"
    }
   ],
   "return_type" : "_ZTIv",
   "source_file" : "/out/soong/.intermediates/hardware/interfaces/tv/tuner/1.0/android.hardware.tv.tuner@1.0_genc++_headers/gen/android/hardware/tv/tuner/1.0/types.h"
  },
  {
   "access" : "private",
   "function_name" : "android::hardware::tv::tuner::V1_0::DvrSettings::hidl_destructUnion",
   "linker_set_key" : "_ZN7android8hardware2tv5tuner4V1_011DvrSettings18hidl_destructUnionEv",
   "parameters" :
   [
    {
     "is_this_ptr" : true,
     "referenced_type" : "_ZTIPN7android8hardware2tv5tuner4V1_011DvrSettingsE"
    }
   ],
   "return_type" : "_ZTIv",
   "source_file" : "/out/soong/.intermediates/hardware/interfaces/tv/tuner/1.0/android.hardware.tv.tuner@1.0_genc++_headers/gen/android/hardware/tv/tuner/1.0/types.h"
  },
  {
   "function_name" : "android::hardware::tv::tuner::V1_0::DvrSettings::record",
   "linker_set_key" : "_ZN7android8hardware2tv5tuner4V1_011DvrSettings6recordEONS3_14RecordSettingsE",
   "parameters" :
   [
    {
     "is_this_ptr" : true,
     "referenced_type" : "_ZTIPN7android8hardware2tv5tuner4V1_011DvrSettingsE"
    },
    {
     "referenced_type" : "_ZTION7android8hardware2tv5tuner4V1_014RecordSettingsE"
    }
   ],
   "return_type" : "_ZTIv",
   "source_file" : "/out/soong/.intermediates/hardware/interfaces/tv/tuner/1.0/android.hardware.tv.tuner@1.0_genc++_headers/gen/android/hardware/tv/tuner/1.0/types.h"
  },
  {
   "function_name" : "android::hardware::tv::tuner::V1_0::DvrSettings::record",
   "linker_set_key" : "_ZN7android8hardware2tv5tuner4V1_011DvrSettings6recordERKNS3_14RecordSettingsE",
   "parameters" :
   [
    {
     "is_this_ptr" : true,
     "referenced_type" : "_ZTIPN7android8hardware2tv5tuner4V1_011DvrSettingsE"
    },
    {
     "referenced_type" : "_ZTIRKN7android8hardware2tv5tuner4V1_014RecordSettingsE"
    }
   ],
   "return_type" : "_ZTIv",
   "source_file" : "/out/soong/.intermediates/hardware/interfaces/tv/tuner/1.0/android.hardware.tv.tuner@1.0_genc++_headers/gen/android/hardware/tv/tuner/1.0/types.h"
  },
  {
   "function_name" : "android::hardware::tv::tuner::V1_0::DvrSettings::record",
   "linker_set_key" : "_ZN7android8hardware2tv5tuner4V1_011DvrSettings6recordEv",
   "parameters" :
   [
    {
     "is_this_ptr" : true,
     "referenced_type" : "_ZTIPN7android8hardware2tv5tuner4V1_011DvrSettingsE"
    }
   ],
   "return_type" : "_ZTIRN7android8hardware2tv5tuner4V1_014RecordSettingsE",
   "source_file" : "/out/soong/.intermediates/hardware/interfaces/tv/tuner/1.0/android.hardware.tv.tuner@1.0_genc++_headers/gen/android/hardware/tv/tuner/1.0/types.h"
  },
  {
   "function_name" : "android::hardware::tv::tuner::V1_0::DvrSettings::playback",
   "linker_set_key" : "_ZN7android8hardware2tv5tuner4V1_011DvrSettings8playbackEONS3_16PlaybackSettingsE",
   "parameters" :
   [
    {
     "is_this_ptr" : true,
     "referenced_type" : "_ZTIPN7android8hardware2tv5tuner4V1_011DvrSettingsE"
    },
    {
     "referenced_type" : "_ZTION7android8hardware2tv5tuner4V1_016PlaybackSettingsE"
    }
   ],
   "return_type" : "_ZTIv",
   "source_file" : "/out/soong/.intermediates/hardware/interfaces/tv/tuner/1.0/android.hardware.tv.tuner@1.0_genc++_headers/gen/android/hardware/tv/tuner/1.0/types.h"
  },
  {
   "function_name" : "android::hardware::tv::tuner::V1_0::DvrSettings::playback",
   "linker_set_key" : "_ZN7android8hardware2tv5tuner4V1_011DvrSettings8playbackERKNS3_16PlaybackSettingsE",
   "parameters" :
   [
    {
     "is_this_ptr" : true,
     "referenced_type" : "_ZTIPN7android8hardware2tv5tuner4V1_011DvrSettingsE"
    },
    {
     "referenced_type" : "_ZTIRKN7android8hardware2tv5tuner4V1_016PlaybackSettingsE"
    }
   ],
   "return_type" : "_ZTIv",
   "source_file" : "/out/soong/.intermediates/hardware/interfaces/tv/tuner/1.0/android.hardware.tv.tuner@1.0_genc++_headers/gen/android/hardware/tv/tuner/1.0/types.h"
  },
  {
   "function_name" : "android::hardware::tv::tuner::V1_0::DvrSettings::playback",
   "linker_set_key" : "_ZN7android8hardware2tv5tuner4V1_011DvrSettings8playbackEv",
   "parameters" :
   [
    {
     "is_this_ptr" : true,
     "referenced_type" : "_ZTIPN7android8hardware2tv5tuner4V1_011DvrSettingsE"
    }
   ],
   "return_type" : "_ZTIRN7android8hardware2tv5tuner4V1_016PlaybackSettingsE",
   "source_file" : "/out/soong/.intermediates/hardware/interfaces/tv/tuner/1.0/android.hardware.tv.tuner@1.0_genc++_headers/gen/android/hardware/tv/tuner/1.0/types.h"
  },
  {
   "function_name" : "android::hardware::tv::tuner::V1_0::DvrSettings::DvrSettings",
   "linker_set_key" : "_ZN7android8hardware2tv5tuner4V1_011DvrSettingsC1EOS4_",
   "parameters" :
   [
    {
     "is_this_ptr" : true,
     "referenced_type" : "_ZTIPN7android8hardware2tv5tuner4V1_011DvrSettingsE"
    },
    {
     "referenced_type" : "_ZTION7android8hardware2tv5tuner4V1_011DvrSettingsE"
    }
   ],
   "return_type" : "_ZTIv",
   "source_file" : "/out/soong/.intermediates/hardware/interfaces/tv/tuner/1.0/android.hardware.tv.tuner@1.0_genc++_headers/gen/android/hardware/tv/tuner/1.0/types.h"
  },
  {
   "function_name" : "android::hardware::tv::tuner::V1_0::DvrSettings::DvrSettings",
   "linker_set_key" : "_ZN7android8hardware2tv5tuner4V1_011DvrSettingsC1ERKS4_",
   "parameters" :
   [
    {
     "is_this_ptr" : true,
     "referenced_type" : "_ZTIPN7android8hardware2tv5tuner4V1_011DvrSettingsE"
    },
    {
     "referenced_type" : "_ZTIRKN7android8hardware2tv5tuner4V1_011DvrSettingsE"
    }
   ],
   "return_type" : "_ZTIv",
   "source_file" : "/out/soong/.intermediates/hardware/interfaces/tv/tuner/1.0/android.hardware.tv.tuner@1.0_genc++_headers/gen/android/hardware/tv/tuner/1.0/types.h"
  },
  {
   "function_name" : "android::hardware::tv::tuner::V1_0::DvrSettings::DvrSettings",
   "linker_set_key" : "_ZN7android8hardware2tv5tuner4V1_011DvrSettingsC1Ev",
   "parameters" :
   [
    {
     "is_this_ptr" : true,
     "referenced_type" : "_ZTIPN7android8hardware2tv5tuner4V1_011DvrSettingsE"
    }
   ],
   "return_type" : "_ZTIv",
   "source_file" : "/out/soong/.intermediates/hardware/interfaces/tv/tuner/1.0/android.hardware.tv.tuner@1.0_genc++_headers/gen/android/hardware/tv/tuner/1.0/types.h"
  },
  {
   "function_name" : "android::hardware::tv::tuner::V1_0::DvrSettings::DvrSettings",
   "linker_set_key" : "_ZN7android8hardware2tv5tuner4V1_011DvrSettingsC2EOS4_",
   "parameters" :
   [
    {
     "is_this_ptr" : true,
     "referenced_type" : "_ZTIPN7android8hardware2tv5tuner4V1_011DvrSettingsE"
    },
    {
     "referenced_type" : "_ZTION7android8hardware2tv5tuner4V1_011DvrSettingsE"
    }
   ],
   "return_type" : "_ZTIv",
   "source_file" : "/out/soong/.intermediates/hardware/interfaces/tv/tuner/1.0/android.hardware.tv.tuner@1.0_genc++_headers/gen/android/hardware/tv/tuner/1.0/types.h"
  },
  {
   "function_name" : "android::hardware::tv::tuner::V1_0::DvrSettings::DvrSettings",
   "linker_set_key" : "_ZN7android8hardware2tv5tuner4V1_011DvrSettingsC2ERKS4_",
   "parameters" :
   [
    {
     "is_this_ptr" : true,
     "referenced_type" : "_ZTIPN7android8hardware2tv5tuner4V1_011DvrSettingsE"
    },
    {
     "referenced_type" : "_ZTIRKN7android8hardware2tv5tuner4V1_011DvrSettingsE"
    }
   ],
   "return_type" : "_ZTIv",
   "source_file" : "/out/soong/.intermediates/hardware/interfaces/tv/tuner/1.0/android.hardware.tv.tuner@1.0_genc++_headers/gen/android/hardware/tv/tuner/1.0/types.h"
  },
  {
   "function_name" : "android::hardware::tv::tuner::V1_0::DvrSettings::DvrSettings",
   "linker_set_key" : "_ZN7android8hardware2tv5tuner4V1_011DvrSettingsC2Ev",
   "parameters" :
   [
    {
     "is_this_ptr" : true,
     "referenced_type" : "_ZTIPN7android8hardware2tv5tuner4V1_011DvrSettingsE"
    }
   ],
   "return_type" : "_ZTIv",
   "source_file" : "/out/soong/.intermediates/hardware/interfaces/tv/tuner/1.0/android.hardware.tv.tuner@1.0_genc++_headers/gen/android/hardware/tv/tuner/1.0/types.h"
  },
  {
   "function_name" : "android::hardware::tv::tuner::V1_0::DvrSettings::~DvrSettings",
   "linker_set_key" : "_ZN7android8hardware2tv5tuner4V1_011DvrSettingsD1Ev",
   "parameters" :
   [
    {
     "is_this_ptr" : true,
     "referenced_type" : "_ZTIPN7android8hardware2tv5tuner4V1_011DvrSettingsE"
    }
   ],
   "return_type" : "_ZTIv",
   "source_file" : "/out/soong/.intermediates/hardware/interfaces/tv/tuner/1.0/android.hardware.tv.tuner@1.0_genc++_headers/gen/android/hardware/tv/tuner/1.0/types.h"
  },
  {
   "function_name" : "android::hardware::tv::tuner::V1_0::DvrSettings::~DvrSettings",
   "linker_set_key" : "_ZN7android8hardware2tv5tuner4V1_011DvrSettingsD2Ev",
   "parameters" :
   [
    {
     "is_this_ptr" : true,
     "referenced_type" : "_ZTIPN7android8hardware2tv5tuner4V1_011DvrSettingsE"
    }
   ],
   "return_type" : "_ZTIv",
   "source_file" : "/out/soong/.intermediates/hardware/interfaces/tv/tuner/1.0/android.hardware.tv.tuner@1.0_genc++_headers/gen/android/hardware/tv/tuner/1.0/types.h"
  },
  {
   "function_name" : "android::hardware::tv::tuner::V1_0::DvrSettings::operator=",
   "linker_set_key" : "_ZN7android8hardware2tv5tuner4V1_011DvrSettingsaSEOS4_",
   "parameters" :
   [
    {
     "is_this_ptr" : true,
     "referenced_type" : "_ZTIPN7android8hardware2tv5tuner4V1_011DvrSettingsE"
    },
    {
     "referenced_type" : "_ZTION7android8hardware2tv5tuner4V1_011DvrSettingsE"
    }
   ],
   "return_type" : "_ZTIRN7android8hardware2tv5tuner4V1_011DvrSettingsE",
   "source_file" : "/out/soong/.intermediates/hardware/interfaces/tv/tuner/1.0/android.hardware.tv.tuner@1.0_genc++_headers/gen/android/hardware/tv/tuner/1.0/types.h"
  },
  {
   "function_name" : "android::hardware::tv::tuner::V1_0::DvrSettings::operator=",
   "linker_set_key" : "_ZN7android8hardware2tv5tuner4V1_011DvrSettingsaSERKS4_",
   "parameters" :
   [
    {
     "is_this_ptr" : true,
     "referenced_type" : "_ZTIPN7android8hardware2tv5tuner4V1_011DvrSettingsE"
    },
    {
     "referenced_type" : "_ZTIRKN7android8hardware2tv5tuner4V1_011DvrSettingsE"
    }
   ],
   "return_type" : "_ZTIRN7android8hardware2tv5tuner4V1_011DvrSettingsE",
   "source_file" : "/out/soong/.intermediates/hardware/interfaces/tv/tuner/1.0/android.hardware.tv.tuner@1.0_genc++_headers/gen/android/hardware/tv/tuner/1.0/types.h"
  },
  {
   "function_name" : "android::hardware::tv::tuner::V1_0::ITimeFilter::getService",
   "linker_set_key" : "_ZN7android8hardware2tv5tuner4V1_011ITimeFilter10getServiceERKNSt3__112basic_stringIcNS5_11char_traitsIcEENS5_9allocatorIcEEEEb",
   "parameters" :
   [
    {
     "default_arg" : true,
     "referenced_type" : "_ZTIRKNSt3__112basic_stringIcNS_11char_traitsIcEENS_9allocatorIcEEEE"
    },
    {
     "default_arg" : true,
     "referenced_type" : "_ZTIb"
    }
   ],
   "return_type" : "_ZTIN7android2spINS_8hardware2tv5tuner4V1_011ITimeFilterEEE",
   "source_file" : "/out/soong/.intermediates/hardware/interfaces/tv/tuner/1.0/android.hardware.tv.tuner@1.0_genc++_headers/gen/android/hardware/tv/tuner/1.0/ITimeFilter.h"
  },
  {
   "function_name" : "android::hardware::tv::tuner::V1_0::ITimeFilter::linkToDeath",
   "linker_set_key" : "_ZN7android8hardware2tv5tuner4V1_011ITimeFilter11linkToDeathERKNS_2spINS0_20hidl_death_recipientEEEm",
   "parameters" :
   [
    {
     "is_this_ptr" : true,
     "referenced_type" : "_ZTIPN7android8hardware2tv5tuner4V1_011ITimeFilterE"
    },
    {
     "referenced_type" : "_ZTIRKN7android2spINS_8hardware20hidl_death_recipientEEE"
    },
    {
     "referenced_type" : "_ZTIm"
    }
   ],
   "return_type" : "_ZTIN7android8hardware6ReturnIbEE",
   "source_file" : "/out/soong/.intermediates/hardware/interfaces/tv/tuner/1.0/android.hardware.tv.tuner@1.0_genc++_headers/gen/android/hardware/tv/tuner/1.0/ITimeFilter.h"
  },
  {
   "function_name" : "android::hardware::tv::tuner::V1_0::ITimeFilter::getDebugInfo",
   "linker_set_key" : "_ZN7android8hardware2tv5tuner4V1_011ITimeFilter12getDebugInfoENSt3__18functionIFvRKNS_4hidl4base4V1_09DebugInfoEEEE",
   "parameters" :
   [
    {
     "is_this_ptr" : true,
     "referenced_type" : "_ZTIPN7android8hardware2tv5tuner4V1_011ITimeFilterE"
    },
    {
     "referenced_type" : "_ZTINSt3__18functionIFvRKN7android4hidl4base4V1_09DebugInfoEEEE"
    }
   ],
   "return_type" : "_ZTIN7android8hardware6ReturnIvEE",
   "source_file" : "/out/soong/.intermediates/hardware/interfaces/tv/tuner/1.0/android.hardware.tv.tuner@1.0_genc++_headers/gen/android/hardware/tv/tuner/1.0/ITimeFilter.h"
  },
  {
   "function_name" : "android::hardware::tv::tuner::V1_0::ITimeFilter::getHashChain",
   "linker_set_key" : "_ZN7android8hardware2tv5tuner4V1_011ITimeFilter12getHashChainENSt3__18functionIFvRKNS0_8hidl_vecINS0_10hidl_arrayIhLm32EJEEEEEEEE",
   "parameters" :
   [
    {
     "is_this_ptr" : true,
     "referenced_type" : "_ZTIPN7android8hardware2tv5tuner4V1_011ITimeFilterE"
    },
    {
     "referenced_type" : "_ZTINSt3__18functionIFvRKN7android8hardware8hidl_vecINS2_10hidl_arrayIhLm32EJEEEEEEEE"
    }
   ],
   "return_type" : "_ZTIN7android8hardware6ReturnIvEE",
   "source_file" : "/out/soong/.intermediates/hardware/interfaces/tv/tuner/1.0/android.hardware.tv.tuner@1.0_genc++_headers/gen/android/hardware/tv/tuner/1.0/ITimeFilter.h"
  },
  {
   "function_name" : "android::hardware::tv::tuner::V1_0::ITimeFilter::tryGetService",
   "linker_set_key" : "_ZN7android8hardware2tv5tuner4V1_011ITimeFilter13tryGetServiceERKNSt3__112basic_stringIcNS5_11char_traitsIcEENS5_9allocatorIcEEEEb",
   "parameters" :
   [
    {
     "default_arg" : true,
     "referenced_type" : "_ZTIRKNSt3__112basic_stringIcNS_11char_traitsIcEENS_9allocatorIcEEEE"
    },
    {
     "default_arg" : true,
     "referenced_type" : "_ZTIb"
    }
   ],
   "return_type" : "_ZTIN7android2spINS_8hardware2tv5tuner4V1_011ITimeFilterEEE",
   "source_file" : "/out/soong/.intermediates/hardware/interfaces/tv/tuner/1.0/android.hardware.tv.tuner@1.0_genc++_headers/gen/android/hardware/tv/tuner/1.0/ITimeFilter.h"
  },
  {
   "function_name" : "android::hardware::tv::tuner::V1_0::ITimeFilter::unlinkToDeath",
   "linker_set_key" : "_ZN7android8hardware2tv5tuner4V1_011ITimeFilter13unlinkToDeathERKNS_2spINS0_20hidl_death_recipientEEE",
   "parameters" :
   [
    {
     "is_this_ptr" : true,
     "referenced_type" : "_ZTIPN7android8hardware2tv5tuner4V1_011ITimeFilterE"
    },
    {
     "referenced_type" : "_ZTIRKN7android2spINS_8hardware20hidl_death_recipientEEE"
    }
   ],
   "return_type" : "_ZTIN7android8hardware6ReturnIbEE",
   "source_file" : "/out/soong/.intermediates/hardware/interfaces/tv/tuner/1.0/android.hardware.tv.tuner@1.0_genc++_headers/gen/android/hardware/tv/tuner/1.0/ITimeFilter.h"
  },
  {
   "function_name" : "android::hardware::tv::tuner::V1_0::ITimeFilter::interfaceChain",
   "linker_set_key" : "_ZN7android8hardware2tv5tuner4V1_011ITimeFilter14interfaceChainENSt3__18functionIFvRKNS0_8hidl_vecINS0_11hidl_stringEEEEEE",
   "parameters" :
   [
    {
     "is_this_ptr" : true,
     "referenced_type" : "_ZTIPN7android8hardware2tv5tuner4V1_011ITimeFilterE"
    },
    {
     "referenced_type" : "_ZTINSt3__18functionIFvRKN7android8hardware8hidl_vecINS2_11hidl_stringEEEEEE"
    }
   ],
   "return_type" : "_ZTIN7android8hardware6ReturnIvEE",
   "source_file" : "/out/soong/.intermediates/hardware/interfaces/tv/tuner/1.0/android.hardware.tv.tuner@1.0_genc++_headers/gen/android/hardware/tv/tuner/1.0/ITimeFilter.h"
  },
  {
   "function_name" : "android::hardware::tv::tuner::V1_0::ITimeFilter::registerAsService",
   "linker_set_key" : "_ZN7android8hardware2tv5tuner4V1_011ITimeFilter17registerAsServiceERKNSt3__112basic_stringIcNS5_11char_traitsIcEENS5_9allocatorIcEEEE",
   "parameters" :
   [
    {
     "is_this_ptr" : true,
     "referenced_type" : "_ZTIPN7android8hardware2tv5tuner4V1_011ITimeFilterE"
    },
    {
     "default_arg" : true,
     "referenced_type" : "_ZTIRKNSt3__112basic_stringIcNS_11char_traitsIcEENS_9allocatorIcEEEE"
    }
   ],
   "return_type" : "_ZTIi",
   "source_file" : "/out/soong/.intermediates/hardware/interfaces/tv/tuner/1.0/android.hardware.tv.tuner@1.0_genc++_headers/gen/android/hardware/tv/tuner/1.0/ITimeFilter.h"
  },
  {
   "function_name" : "android::hardware::tv::tuner::V1_0::ITimeFilter::interfaceDescriptor",
   "linker_set_key" : "_ZN7android8hardware2tv5tuner4V1_011ITimeFilter19interfaceDescriptorENSt3__18functionIFvRKNS0_11hidl_stringEEEE",
   "parameters" :
   [
    {
     "is_this_ptr" : true,
     "referenced_type" : "_ZTIPN7android8hardware2tv5tuner4V1_011ITimeFilterE"
    },
    {
     "referenced_type" : "_ZTINSt3__18functionIFvRKN7android8hardware11hidl_stringEEEE"
    }
   ],
   "return_type" : "_ZTIN7android8hardware6ReturnIvEE",
   "source_file" : "/out/soong/.intermediates/hardware/interfaces/tv/tuner/1.0/android.hardware.tv.tuner@1.0_genc++_headers/gen/android/hardware/tv/tuner/1.0/ITimeFilter.h"
  },
  {
   "function_name" : "android::hardware::tv::tuner::V1_0::ITimeFilter::notifySyspropsChanged",
   "linker_set_key" : "_ZN7android8hardware2tv5tuner4V1_011ITimeFilter21notifySyspropsChangedEv",
   "parameters" :
   [
    {
     "is_this_ptr" : true,
     "referenced_type" : "_ZTIPN7android8hardware2tv5tuner4V1_011ITimeFilterE"
    }
   ],
   "return_type" : "_ZTIN7android8hardware6ReturnIvEE",
   "source_file" : "/out/soong/.intermediates/hardware/interfaces/tv/tuner/1.0/android.hardware.tv.tuner@1.0_genc++_headers/gen/android/hardware/tv/tuner/1.0/ITimeFilter.h"
  },
  {
   "function_name" : "android::hardware::tv::tuner::V1_0::ITimeFilter::setHALInstrumentation",
   "linker_set_key" : "_ZN7android8hardware2tv5tuner4V1_011ITimeFilter21setHALInstrumentationEv",
   "parameters" :
   [
    {
     "is_this_ptr" : true,
     "referenced_type" : "_ZTIPN7android8hardware2tv5tuner4V1_011ITimeFilterE"
    }
   ],
   "return_type" : "_ZTIN7android8hardware6ReturnIvEE",
   "source_file" : "/out/soong/.intermediates/hardware/interfaces/tv/tuner/1.0/android.hardware.tv.tuner@1.0_genc++_headers/gen/android/hardware/tv/tuner/1.0/ITimeFilter.h"
  },
  {
   "function_name" : "android::hardware::tv::tuner::V1_0::ITimeFilter::registerForNotifications",
   "linker_set_key" : "_ZN7android8hardware2tv5tuner4V1_011ITimeFilter24registerForNotificationsERKNSt3__112basic_stringIcNS5_11char_traitsIcEENS5_9allocatorIcEEEERKNS_2spINS_4hidl7manager4V1_020IServiceNotificationEEE",
   "parameters" :
   [
    {
     "referenced_type" : "_ZTIRKNSt3__112basic_stringIcNS_11char_traitsIcEENS_9allocatorIcEEEE"
    },
    {
     "referenced_type" : "_ZTIRKN7android2spINS_4hidl7manager4V1_020IServiceNotificationEEE"
    }
   ],
   "return_type" : "_ZTIb",
   "source_file" : "/out/soong/.intermediates/hardware/interfaces/tv/tuner/1.0/android.hardware.tv.tuner@1.0_genc++_headers/gen/android/hardware/tv/tuner/1.0/ITimeFilter.h"
  },
  {
   "function_name" : "android::hardware::tv::tuner::V1_0::ITimeFilter::ping",
   "linker_set_key" : "_ZN7android8hardware2tv5tuner4V1_011ITimeFilter4pingEv",
   "parameters" :
   [
    {
     "is_this_ptr" : true,
     "referenced_type" : "_ZTIPN7android8hardware2tv5tuner4V1_011ITimeFilterE"
    }
   ],
   "return_type" : "_ZTIN7android8hardware6ReturnIvEE",
   "source_file" : "/out/soong/.intermediates/hardware/interfaces/tv/tuner/1.0/android.hardware.tv.tuner@1.0_genc++_headers/gen/android/hardware/tv/tuner/1.0/ITimeFilter.h"
  },
  {
   "function_name" : "android::hardware::tv::tuner::V1_0::ITimeFilter::debug",
   "linker_set_key" : "_ZN7android8hardware2tv5tuner4V1_011ITimeFilter5debugERKNS0_11hidl_handleERKNS0_8hidl_vecINS0_11hidl_stringEEE",
   "parameters" :
   [
    {
     "is_this_ptr" : true,
     "referenced_type" : "_ZTIPN7android8hardware2tv5tuner4V1_011ITimeFilterE"
    },
    {
     "referenced_type" : "_ZTIRKN7android8hardware11hidl_handleE"
    },
    {
     "referenced_type" : "_ZTIRKN7android8hardware8hidl_vecINS0_11hidl_stringEEE"
    }
   ],
   "return_type" : "_ZTIN7android8hardware6ReturnIvEE",
   "source_file" : "/out/soong/.intermediates/hardware/interfaces/tv/tuner/1.0/android.hardware.tv.tuner@1.0_genc++_headers/gen/android/hardware/tv/tuner/1.0/ITimeFilter.h"
  },
  {
   "function_name" : "android::hardware::tv::tuner::V1_0::ITimeFilter::castFrom",
   "linker_set_key" : "_ZN7android8hardware2tv5tuner4V1_011ITimeFilter8castFromERKNS_2spINS_4hidl4base4V1_05IBaseEEEb",
   "parameters" :
   [
    {
     "referenced_type" : "_ZTIRKN7android2spINS_4hidl4base4V1_05IBaseEEE"
    },
    {
     "default_arg" : true,
     "referenced_type" : "_ZTIb"
    }
   ],
   "return_type" : "_ZTIN7android8hardware6ReturnINS_2spINS0_2tv5tuner4V1_011ITimeFilterEEEEE",
   "source_file" : "/out/soong/.intermediates/hardware/interfaces/tv/tuner/1.0/android.hardware.tv.tuner@1.0_genc++_headers/gen/android/hardware/tv/tuner/1.0/ITimeFilter.h"
  },
  {
   "function_name" : "android::hardware::tv::tuner::V1_0::ITimeFilter::castFrom",
   "linker_set_key" : "_ZN7android8hardware2tv5tuner4V1_011ITimeFilter8castFromERKNS_2spIS4_EEb",
   "parameters" :
   [
    {
     "referenced_type" : "_ZTIRKN7android2spINS_8hardware2tv5tuner4V1_011ITimeFilterEEE"
    },
    {
     "default_arg" : true,
     "referenced_type" : "_ZTIb"
    }
   ],
   "return_type" : "_ZTIN7android8hardware6ReturnINS_2spINS0_2tv5tuner4V1_011ITimeFilterEEEEE",
   "source_file" : "/out/soong/.intermediates/hardware/interfaces/tv/tuner/1.0/android.hardware.tv.tuner@1.0_genc++_headers/gen/android/hardware/tv/tuner/1.0/ITimeFilter.h"
  },
  {
   "function_name" : "android::hardware::tv::tuner::V1_0::BnHwFrontend::_hidl_scan",
   "linker_set_key" : "_ZN7android8hardware2tv5tuner4V1_012BnHwFrontend10_hidl_scanEPNS_4hidl4base4V1_08BnHwBaseERKNS0_6ParcelEPSA_NSt3__18functionIFvRSA_EEE",
   "parameters" :
   [
    {
     "referenced_type" : "_ZTIPN7android4hidl4base4V1_08BnHwBaseE"
    },
    {
     "referenced_type" : "_ZTIRKN7android8hardware6ParcelE"
    },
    {
     "referenced_type" : "_ZTIPN7android8hardware6ParcelE"
    },
    {
     "referenced_type" : "_ZTINSt3__18functionIFvRN7android8hardware6ParcelEEEE"
    }
   ],
   "return_type" : "_ZTIi",
   "source_file" : "/out/soong/.intermediates/hardware/interfaces/tv/tuner/1.0/android.hardware.tv.tuner@1.0_genc++_headers/gen/android/hardware/tv/tuner/1.0/BnHwFrontend.h"
  },
  {
   "function_name" : "android::hardware::tv::tuner::V1_0::BnHwFrontend::_hidl_tune",
   "linker_set_key" : "_ZN7android8hardware2tv5tuner4V1_012BnHwFrontend10_hidl_tuneEPNS_4hidl4base4V1_08BnHwBaseERKNS0_6ParcelEPSA_NSt3__18functionIFvRSA_EEE",
   "parameters" :
   [
    {
     "referenced_type" : "_ZTIPN7android4hidl4base4V1_08BnHwBaseE"
    },
    {
     "referenced_type" : "_ZTIRKN7android8hardware6ParcelE"
    },
    {
     "referenced_type" : "_ZTIPN7android8hardware6ParcelE"
    },
    {
     "referenced_type" : "_ZTINSt3__18functionIFvRN7android8hardware6ParcelEEEE"
    }
   ],
   "return_type" : "_ZTIi",
   "source_file" : "/out/soong/.intermediates/hardware/interfaces/tv/tuner/1.0/android.hardware.tv.tuner@1.0_genc++_headers/gen/android/hardware/tv/tuner/1.0/BnHwFrontend.h"
  },
  {
   "function_name" : "android::hardware::tv::tuner::V1_0::BnHwFrontend::onTransact",
   "linker_set_key" : "_ZN7android8hardware2tv5tuner4V1_012BnHwFrontend10onTransactEjRKNS0_6ParcelEPS5_jNSt3__18functionIFvRS5_EEE",
   "parameters" :
   [
    {
     "is_this_ptr" : true,
     "referenced_type" : "_ZTIPN7android8hardware2tv5tuner4V1_012BnHwFrontendE"
    },
    {
     "referenced_type" : "_ZTIj"
    },
    {
     "referenced_type" : "_ZTIRKN7android8hardware6ParcelE"
    },
    {
     "referenced_type" : "_ZTIPN7android8hardware6ParcelE"
    },
    {
     "default_arg" : true,
     "referenced_type" : "_ZTIj"
    },
    {
     "default_arg" : true,
     "referenced_type" : "_ZTINSt3__18functionIFvRN7android8hardware6ParcelEEEE"
    }
   ],
   "return_type" : "_ZTIi",
   "source_file" : "/out/soong/.intermediates/hardware/interfaces/tv/tuner/1.0/android.hardware.tv.tuner@1.0_genc++_headers/gen/android/hardware/tv/tuner/1.0/BnHwFrontend.h"
  },
  {
   "function_name" : "android::hardware::tv::tuner::V1_0::BnHwFrontend::_hidl_close",
   "linker_set_key" : "_ZN7android8hardware2tv5tuner4V1_012BnHwFrontend11_hidl_closeEPNS_4hidl4base4V1_08BnHwBaseERKNS0_6ParcelEPSA_NSt3__18functionIFvRSA_EEE",
   "parameters" :
   [
    {
     "referenced_type" : "_ZTIPN7android4hidl4base4V1_08BnHwBaseE"
    },
    {
     "referenced_type" : "_ZTIRKN7android8hardware6ParcelE"
    },
    {
     "referenced_type" : "_ZTIPN7android8hardware6ParcelE"
    },
    {
     "referenced_type" : "_ZTINSt3__18functionIFvRN7android8hardware6ParcelEEEE"
    }
   ],
   "return_type" : "_ZTIi",
   "source_file" : "/out/soong/.intermediates/hardware/interfaces/tv/tuner/1.0/android.hardware.tv.tuner@1.0_genc++_headers/gen/android/hardware/tv/tuner/1.0/BnHwFrontend.h"
  },
  {
   "function_name" : "android::hardware::tv::tuner::V1_0::BnHwFrontend::_hidl_setLna",
   "linker_set_key" : "_ZN7android8hardware2tv5tuner4V1_012BnHwFrontend12_hidl_setLnaEPNS_4hidl4base4V1_08BnHwBaseERKNS0_6ParcelEPSA_NSt3__18functionIFvRSA_EEE",
   "parameters" :
   [
    {
     "referenced_type" : "_ZTIPN7android4hidl4base4V1_08BnHwBaseE"
    },
    {
     "referenced_type" : "_ZTIRKN7android8hardware6ParcelE"
    },
    {
     "referenced_type" : "_ZTIPN7android8hardware6ParcelE"
    },
    {
     "referenced_type" : "_ZTINSt3__18functionIFvRN7android8hardware6ParcelEEEE"
    }
   ],
   "return_type" : "_ZTIi",
   "source_file" : "/out/soong/.intermediates/hardware/interfaces/tv/tuner/1.0/android.hardware.tv.tuner@1.0_genc++_headers/gen/android/hardware/tv/tuner/1.0/BnHwFrontend.h"
  },
  {
   "function_name" : "android::hardware::tv::tuner::V1_0::BnHwFrontend::_hidl_setLnb",
   "linker_set_key" : "_ZN7android8hardware2tv5tuner4V1_012BnHwFrontend12_hidl_setLnbEPNS_4hidl4base4V1_08BnHwBaseERKNS0_6ParcelEPSA_NSt3__18functionIFvRSA_EEE",
   "parameters" :
   [
    {
     "referenced_type" : "_ZTIPN7android4hidl4base4V1_08BnHwBaseE"
    },
    {
     "referenced_type" : "_ZTIRKN7android8hardware6ParcelE"
    },
    {
     "referenced_type" : "_ZTIPN7android8hardware6ParcelE"
    },
    {
     "referenced_type" : "_ZTINSt3__18functionIFvRN7android8hardware6ParcelEEEE"
    }
   ],
   "return_type" : "_ZTIi",
   "source_file" : "/out/soong/.intermediates/hardware/interfaces/tv/tuner/1.0/android.hardware.tv.tuner@1.0_genc++_headers/gen/android/hardware/tv/tuner/1.0/BnHwFrontend.h"
  },
  {
   "access" : "private",
   "function_name" : "android::hardware::tv::tuner::V1_0::BnHwFrontend::getDebugInfo",
   "linker_set_key" : "_ZN7android8hardware2tv5tuner4V1_012BnHwFrontend12getDebugInfoENSt3__18functionIFvRKNS_4hidl4base4V1_09DebugInfoEEEE",
   "parameters" :
   [
    {
     "is_this_ptr" : true,
     "referenced_type" : "_ZTIPN7android8hardware2tv5tuner4V1_012BnHwFrontendE"
    },
    {
     "referenced_type" : "_ZTINSt3__18functionIFvRKN7android4hidl4base4V1_09DebugInfoEEEE"
    }
   ],
   "return_type" : "_ZTIN7android8hardware6ReturnIvEE",
   "source_file" : "/out/soong/.intermediates/hardware/interfaces/tv/tuner/1.0/android.hardware.tv.tuner@1.0_genc++_headers/gen/android/hardware/tv/tuner/1.0/BnHwFrontend.h"
  },
  {
   "function_name" : "android::hardware::tv::tuner::V1_0::BnHwFrontend::_hidl_stopScan",
   "linker_set_key" : "_ZN7android8hardware2tv5tuner4V1_012BnHwFrontend14_hidl_stopScanEPNS_4hidl4base4V1_08BnHwBaseERKNS0_6ParcelEPSA_NSt3__18functionIFvRSA_EEE",
   "parameters" :
   [
    {
     "referenced_type" : "_ZTIPN7android4hidl4base4V1_08BnHwBaseE"
    },
    {
     "referenced_type" : "_ZTIRKN7android8hardware6ParcelE"
    },
    {
     "referenced_type" : "_ZTIPN7android8hardware6ParcelE"
    },
    {
     "referenced_type" : "_ZTINSt3__18functionIFvRN7android8hardware6ParcelEEEE"
    }
   ],
   "return_type" : "_ZTIi",
   "source_file" : "/out/soong/.intermediates/hardware/interfaces/tv/tuner/1.0/android.hardware.tv.tuner@1.0_genc++_headers/gen/android/hardware/tv/tuner/1.0/BnHwFrontend.h"
  },
  {
   "function_name" : "android::hardware::tv::tuner::V1_0::BnHwFrontend::_hidl_stopTune",
   "linker_set_key" : "_ZN7android8hardware2tv5tuner4V1_012BnHwFrontend14_hidl_stopTuneEPNS_4hidl4base4V1_08BnHwBaseERKNS0_6ParcelEPSA_NSt3__18functionIFvRSA_EEE",
   "parameters" :
   [
    {
     "referenced_type" : "_ZTIPN7android4hidl4base4V1_08BnHwBaseE"
    },
    {
     "referenced_type" : "_ZTIRKN7android8hardware6ParcelE"
    },
    {
     "referenced_type" : "_ZTIPN7android8hardware6ParcelE"
    },
    {
     "referenced_type" : "_ZTINSt3__18functionIFvRN7android8hardware6ParcelEEEE"
    }
   ],
   "return_type" : "_ZTIi",
   "source_file" : "/out/soong/.intermediates/hardware/interfaces/tv/tuner/1.0/android.hardware.tv.tuner@1.0_genc++_headers/gen/android/hardware/tv/tuner/1.0/BnHwFrontend.h"
  },
  {
   "function_name" : "android::hardware::tv::tuner::V1_0::BnHwFrontend::_hidl_getStatus",
   "linker_set_key" : "_ZN7android8hardware2tv5tuner4V1_012BnHwFrontend15_hidl_getStatusEPNS_4hidl4base4V1_08BnHwBaseERKNS0_6ParcelEPSA_NSt3__18functionIFvRSA_EEE",
   "parameters" :
   [
    {
     "referenced_type" : "_ZTIPN7android4hidl4base4V1_08BnHwBaseE"
    },
    {
     "referenced_type" : "_ZTIRKN7android8hardware6ParcelE"
    },
    {
     "referenced_type" : "_ZTIPN7android8hardware6ParcelE"
    },
    {
     "referenced_type" : "_ZTINSt3__18functionIFvRN7android8hardware6ParcelEEEE"
    }
   ],
   "return_type" : "_ZTIi",
   "source_file" : "/out/soong/.intermediates/hardware/interfaces/tv/tuner/1.0/android.hardware.tv.tuner@1.0_genc++_headers/gen/android/hardware/tv/tuner/1.0/BnHwFrontend.h"
  },
  {
   "function_name" : "android::hardware::tv::tuner::V1_0::BnHwFrontend::_hidl_setCallback",
   "linker_set_key" : "_ZN7android8hardware2tv5tuner4V1_012BnHwFrontend17_hidl_setCallbackEPNS_4hidl4base4V1_08BnHwBaseERKNS0_6ParcelEPSA_NSt3__18functionIFvRSA_EEE",
   "parameters" :
   [
    {
     "referenced_type" : "_ZTIPN7android4hidl4base4V1_08BnHwBaseE"
    },
    {
     "referenced_type" : "_ZTIRKN7android8hardware6ParcelE"
    },
    {
     "referenced_type" : "_ZTIPN7android8hardware6ParcelE"
    },
    {
     "referenced_type" : "_ZTINSt3__18functionIFvRN7android8hardware6ParcelEEEE"
    }
   ],
   "return_type" : "_ZTIi",
   "source_file" : "/out/soong/.intermediates/hardware/interfaces/tv/tuner/1.0/android.hardware.tv.tuner@1.0_genc++_headers/gen/android/hardware/tv/tuner/1.0/BnHwFrontend.h"
  },
  {
   "access" : "private",
   "function_name" : "android::hardware::tv::tuner::V1_0::BnHwFrontend::ping",
   "linker_set_key" : "_ZN7android8hardware2tv5tuner4V1_012BnHwFrontend4pingEv",
   "parameters" :
   [
    {
     "is_this_ptr" : true,
     "referenced_type" : "_ZTIPN7android8hardware2tv5tuner4V1_012BnHwFrontendE"
    }
   ],
   "return_type" : "_ZTIN7android8hardware6ReturnIvEE",
   "source_file" : "/out/soong/.intermediates/hardware/interfaces/tv/tuner/1.0/android.hardware.tv.tuner@1.0_genc++_headers/gen/android/hardware/tv/tuner/1.0/BnHwFrontend.h"
  },
  {
   "function_name" : "android::hardware::tv::tuner::V1_0::BnHwFrontend::BnHwFrontend",
   "linker_set_key" : "_ZN7android8hardware2tv5tuner4V1_012BnHwFrontendC1ERKNS_2spINS3_9IFrontendEEE",
   "parameters" :
   [
    {
     "is_this_ptr" : true,
     "referenced_type" : "_ZTIPN7android8hardware2tv5tuner4V1_012BnHwFrontendE"
    },
    {
     "referenced_type" : "_ZTIRKN7android2spINS_8hardware2tv5tuner4V1_09IFrontendEEE"
    }
   ],
   "return_type" : "_ZTIv",
   "source_file" : "/out/soong/.intermediates/hardware/interfaces/tv/tuner/1.0/android.hardware.tv.tuner@1.0_genc++_headers/gen/android/hardware/tv/tuner/1.0/BnHwFrontend.h"
  },
  {
   "function_name" : "android::hardware::tv::tuner::V1_0::BnHwFrontend::BnHwFrontend",
   "linker_set_key" : "_ZN7android8hardware2tv5tuner4V1_012BnHwFrontendC2ERKNS_2spINS3_9IFrontendEEE",
   "parameters" :
   [
    {
     "is_this_ptr" : true,
     "referenced_type" : "_ZTIPN7android8hardware2tv5tuner4V1_012BnHwFrontendE"
    },
    {
     "referenced_type" : "_ZTIRKN7android2spINS_8hardware2tv5tuner4V1_09IFrontendEEE"
    }
   ],
   "return_type" : "_ZTIv",
   "source_file" : "/out/soong/.intermediates/hardware/interfaces/tv/tuner/1.0/android.hardware.tv.tuner@1.0_genc++_headers/gen/android/hardware/tv/tuner/1.0/BnHwFrontend.h"
  },
  {
   "function_name" : "android::hardware::tv::tuner::V1_0::BnHwFrontend::~BnHwFrontend",
   "linker_set_key" : "_ZN7android8hardware2tv5tuner4V1_012BnHwFrontendD0Ev",
   "parameters" :
   [
    {
     "is_this_ptr" : true,
     "referenced_type" : "_ZTIPN7android8hardware2tv5tuner4V1_012BnHwFrontendE"
    }
   ],
   "return_type" : "_ZTIv",
   "source_file" : "/out/soong/.intermediates/hardware/interfaces/tv/tuner/1.0/android.hardware.tv.tuner@1.0_genc++_headers/gen/android/hardware/tv/tuner/1.0/BnHwFrontend.h"
  },
  {
   "function_name" : "android::hardware::tv::tuner::V1_0::BnHwFrontend::~BnHwFrontend",
   "linker_set_key" : "_ZN7android8hardware2tv5tuner4V1_012BnHwFrontendD1Ev",
   "parameters" :
   [
    {
     "is_this_ptr" : true,
     "referenced_type" : "_ZTIPN7android8hardware2tv5tuner4V1_012BnHwFrontendE"
    }
   ],
   "return_type" : "_ZTIv",
   "source_file" : "/out/soong/.intermediates/hardware/interfaces/tv/tuner/1.0/android.hardware.tv.tuner@1.0_genc++_headers/gen/android/hardware/tv/tuner/1.0/BnHwFrontend.h"
  },
  {
   "function_name" : "android::hardware::tv::tuner::V1_0::BnHwFrontend::~BnHwFrontend",
   "linker_set_key" : "_ZN7android8hardware2tv5tuner4V1_012BnHwFrontendD2Ev",
   "parameters" :
   [
    {
     "is_this_ptr" : true,
     "referenced_type" : "_ZTIPN7android8hardware2tv5tuner4V1_012BnHwFrontendE"
    }
   ],
   "return_type" : "_ZTIv",
   "source_file" : "/out/soong/.intermediates/hardware/interfaces/tv/tuner/1.0/android.hardware.tv.tuner@1.0_genc++_headers/gen/android/hardware/tv/tuner/1.0/BnHwFrontend.h"
  },
  {
   "function_name" : "android::hardware::tv::tuner::V1_0::BpHwFrontend::_hidl_scan",
   "linker_set_key" : "_ZN7android8hardware2tv5tuner4V1_012BpHwFrontend10_hidl_scanEPNS0_10IInterfaceEPNS0_7details16HidlInstrumentorERKNS3_16FrontendSettingsENS3_16FrontendScanTypeE",
   "parameters" :
   [
    {
     "referenced_type" : "_ZTIPN7android8hardware10IInterfaceE"
    },
    {
     "referenced_type" : "_ZTIPN7android8hardware7details16HidlInstrumentorE"
    },
    {
     "referenced_type" : "_ZTIRKN7android8hardware2tv5tuner4V1_016FrontendSettingsE"
    },
    {
     "referenced_type" : "_ZTIN7android8hardware2tv5tuner4V1_016FrontendScanTypeE"
    }
   ],
   "return_type" : "_ZTIN7android8hardware6ReturnINS0_2tv5tuner4V1_06ResultEEE",
