{
 "array_types" :
 [
  {
   "alignment" : 4,
   "linker_set_key" : "_ZTIA0_i",
   "name" : "int [0]",
   "referenced_type" : "_ZTIi",
   "self_type" : "_ZTIA0_i",
   "source_file" : "/system/core/libcutils/include/cutils/native_handle.h"
  },
  {
   "alignment" : 2,
   "linker_set_key" : "_ZTIA2_N7android8hardware4wifi4V1_021NanBandSpecificConfigE",
   "name" : "android::hardware::wifi::V1_0::NanBandSpecificConfig [2]",
   "referenced_type" : "_ZTIN7android8hardware4wifi4V1_021NanBandSpecificConfigE",
   "self_type" : "_ZTIA2_N7android8hardware4wifi4V1_021NanBandSpecificConfigE",
   "size" : 16,
   "source_file" : "/system/libhidl/base/include/hidl/HidlSupport.h"
  },
  {
   "alignment" : 1,
   "linker_set_key" : "_ZTIA2_a",
   "name" : "signed char [2]",
   "referenced_type" : "_ZTIa",
   "self_type" : "_ZTIA2_a",
   "size" : 2,
   "source_file" : "/system/libhidl/base/include/hidl/HidlSupport.h"
  },
  {
   "alignment" : 1,
   "linker_set_key" : "_ZTIA2_b",
   "name" : "bool [2]",
   "referenced_type" : "_ZTIb",
   "self_type" : "_ZTIA2_b",
   "size" : 2,
   "source_file" : "/system/libhidl/base/include/hidl/HidlSupport.h"
  },
  {
   "alignment" : 4,
   "linker_set_key" : "_ZTIA2_j",
   "name" : "unsigned int [2]",
   "referenced_type" : "_ZTIj",
   "self_type" : "_ZTIA2_j",
   "size" : 8,
   "source_file" : "/system/libhidl/base/include/hidl/HidlSupport.h"
  },
  {
   "alignment" : 1,
   "linker_set_key" : "_ZTIA32_h",
   "name" : "unsigned char [32]",
   "referenced_type" : "_ZTIh",
   "self_type" : "_ZTIA32_h",
   "size" : 32,
   "source_file" : "/system/libhidl/base/include/hidl/HidlSupport.h"
  },
  {
   "alignment" : 1,
   "linker_set_key" : "_ZTIA3_h",
   "name" : "unsigned char [3]",
   "referenced_type" : "_ZTIh",
   "self_type" : "_ZTIA3_h",
   "size" : 3,
   "source_file" : "/system/libhidl/base/include/hidl/HidlSupport.h"
  },
  {
   "alignment" : 1,
   "linker_set_key" : "_ZTIA5121_h",
   "name" : "unsigned char [5121]",
   "referenced_type" : "_ZTIh",
   "self_type" : "_ZTIA5121_h",
   "size" : 5121,
   "source_file" : "/system/core/liblog/include/log/log_read.h"
  },
  {
   "alignment" : 1,
   "linker_set_key" : "_ZTIA64_c",
   "name" : "char [64]",
   "referenced_type" : "_ZTIc",
   "self_type" : "_ZTIA64_c",
   "size" : 64,
   "source_file" : "/system/libhidl/transport/include/hidl/ConcurrentMap.h"
  },
  {
   "alignment" : 1,
   "linker_set_key" : "_ZTIA6_h",
   "name" : "unsigned char [6]",
   "referenced_type" : "_ZTIh",
   "self_type" : "_ZTIA6_h",
   "size" : 6,
   "source_file" : "/system/libhidl/base/include/hidl/HidlSupport.h"
  },
  {
   "alignment" : 1,
   "linker_set_key" : "_ZTIA7_h",
   "name" : "unsigned char [7]",
   "referenced_type" : "_ZTIh",
   "self_type" : "_ZTIA7_h",
   "size" : 7,
   "source_file" : "/system/libhidl/base/include/hidl/HidlSupport.h"
  },
  {
   "alignment" : 4,
   "linker_set_key" : "_ZTIA8_j",
   "name" : "unsigned int [8]",
   "referenced_type" : "_ZTIj",
   "self_type" : "_ZTIA8_j",
   "size" : 32,
   "source_file" : "/system/core/libsystem/include/system/graphics.h"
  },
  {
   "linker_set_key" : "_ZTIA_f",
   "name" : "float []",
   "referenced_type" : "_ZTIf",
   "self_type" : "_ZTIA_f",
   "source_file" : "/system/core/libsystem/include/system/graphics.h"
  }
 ],
 "builtin_types" :
 [
  {
   "alignment" : 2,
   "is_integral" : true,
   "is_unsigned" : true,
   "linker_set_key" : "_ZTIDs",
   "name" : "char16_t",
   "referenced_type" : "_ZTIDs",
   "self_type" : "_ZTIDs",
   "size" : 2
  },
  {
   "alignment" : 1,
   "is_integral" : true,
   "linker_set_key" : "_ZTIa",
   "name" : "signed char",
   "referenced_type" : "_ZTIa",
   "self_type" : "_ZTIa",
   "size" : 1
  },
  {
   "alignment" : 1,
   "is_integral" : true,
   "is_unsigned" : true,
   "linker_set_key" : "_ZTIb",
   "name" : "bool",
   "referenced_type" : "_ZTIb",
   "self_type" : "_ZTIb",
   "size" : 1
  },
  {
   "alignment" : 1,
   "is_integral" : true,
   "is_unsigned" : true,
   "linker_set_key" : "_ZTIc",
   "name" : "char",
   "referenced_type" : "_ZTIc",
   "self_type" : "_ZTIc",
   "size" : 1
  },
  {
   "alignment" : 8,
   "linker_set_key" : "_ZTId",
   "name" : "double",
   "referenced_type" : "_ZTId",
   "self_type" : "_ZTId",
   "size" : 8
  },
  {
   "alignment" : 4,
   "linker_set_key" : "_ZTIf",
   "name" : "float",
   "referenced_type" : "_ZTIf",
   "self_type" : "_ZTIf",
   "size" : 4
  },
  {
   "alignment" : 1,
   "is_integral" : true,
   "is_unsigned" : true,
   "linker_set_key" : "_ZTIh",
   "name" : "unsigned char",
   "referenced_type" : "_ZTIh",
   "self_type" : "_ZTIh",
   "size" : 1
  },
  {
   "alignment" : 4,
   "is_integral" : true,
   "linker_set_key" : "_ZTIi",
   "name" : "int",
   "referenced_type" : "_ZTIi",
   "self_type" : "_ZTIi",
   "size" : 4
  },
  {
   "alignment" : 4,
   "is_integral" : true,
   "is_unsigned" : true,
   "linker_set_key" : "_ZTIj",
   "name" : "unsigned int",
   "referenced_type" : "_ZTIj",
   "self_type" : "_ZTIj",
   "size" : 4
  },
  {
   "alignment" : 8,
   "is_integral" : true,
   "linker_set_key" : "_ZTIl",
   "name" : "long",
   "referenced_type" : "_ZTIl",
   "self_type" : "_ZTIl",
   "size" : 8
  },
  {
   "alignment" : 8,
   "is_integral" : true,
   "is_unsigned" : true,
   "linker_set_key" : "_ZTIm",
   "name" : "unsigned long",
   "referenced_type" : "_ZTIm",
   "self_type" : "_ZTIm",
   "size" : 8
  },
  {
   "alignment" : 2,
   "is_integral" : true,
   "linker_set_key" : "_ZTIs",
   "name" : "short",
   "referenced_type" : "_ZTIs",
   "self_type" : "_ZTIs",
   "size" : 2
  },
  {
   "alignment" : 2,
   "is_integral" : true,
   "is_unsigned" : true,
   "linker_set_key" : "_ZTIt",
   "name" : "unsigned short",
   "referenced_type" : "_ZTIt",
   "self_type" : "_ZTIt",
   "size" : 2
  },
  {
   "linker_set_key" : "_ZTIv",
   "name" : "void",
   "referenced_type" : "_ZTIv",
   "self_type" : "_ZTIv"
  },
  {
   "alignment" : 8,
   "is_integral" : true,
   "linker_set_key" : "_ZTIx",
   "name" : "long long",
   "referenced_type" : "_ZTIx",
   "self_type" : "_ZTIx",
   "size" : 8
  },
  {
   "alignment" : 8,
   "is_integral" : true,
   "is_unsigned" : true,
   "linker_set_key" : "_ZTIy",
   "name" : "unsigned long long",
   "referenced_type" : "_ZTIy",
   "self_type" : "_ZTIy",
   "size" : 8
  }
 ],
 "elf_functions" :
 [
  {
   "name" : "_ZN7android8hardware4wifi4V1_110BsWifiChip13addOnewayTaskENSt3__18functionIFvvEEE"
  },
  {
   "name" : "_ZN7android8hardware4wifi4V1_110BsWifiChipC1ENS_2spINS2_9IWifiChipEEE"
  },
  {
   "name" : "_ZN7android8hardware4wifi4V1_110BsWifiChipC2ENS_2spINS2_9IWifiChipEEE"
  },
  {
   "name" : "_ZN7android8hardware4wifi4V1_112BnHwWifiChip10onTransactEjRKNS0_6ParcelEPS4_jNSt3__18functionIFvRS4_EEE"
  },
  {
   "name" : "_ZN7android8hardware4wifi4V1_112BnHwWifiChip12getDebugInfoENSt3__18functionIFvRKNS_4hidl4base4V1_09DebugInfoEEEE"
  },
  {
   "name" : "_ZN7android8hardware4wifi4V1_112BnHwWifiChip26_hidl_resetTxPowerScenarioEPNS_4hidl4base4V1_08BnHwBaseERKNS0_6ParcelEPS9_NSt3__18functionIFvRS9_EEE"
  },
  {
   "name" : "_ZN7android8hardware4wifi4V1_112BnHwWifiChip27_hidl_selectTxPowerScenarioEPNS_4hidl4base4V1_08BnHwBaseERKNS0_6ParcelEPS9_NSt3__18functionIFvRS9_EEE"
  },
  {
   "name" : "_ZN7android8hardware4wifi4V1_112BnHwWifiChip4pingEv"
  },
  {
   "name" : "_ZN7android8hardware4wifi4V1_112BnHwWifiChipC1ERKNS_2spINS2_9IWifiChipEEE"
  },
  {
   "name" : "_ZN7android8hardware4wifi4V1_112BnHwWifiChipC2ERKNS_2spINS2_9IWifiChipEEE"
  },
  {
   "name" : "_ZN7android8hardware4wifi4V1_112BnHwWifiChipD0Ev"
  },
  {
   "name" : "_ZN7android8hardware4wifi4V1_112BnHwWifiChipD1Ev"
  },
  {
   "name" : "_ZN7android8hardware4wifi4V1_112BnHwWifiChipD2Ev"
  },
  {
   "name" : "_ZN7android8hardware4wifi4V1_112BpHwWifiChip10getApIfaceERKNS0_11hidl_stringENSt3__18functionIFvRKNS1_4V1_010WifiStatusERKNS_2spINS9_12IWifiApIfaceEEEEEE"
  },
  {
   "name" : "_ZN7android8hardware4wifi4V1_112BpHwWifiChip11getNanIfaceERKNS0_11hidl_stringENSt3__18functionIFvRKNS1_4V1_010WifiStatusERKNS_2spINS9_13IWifiNanIfaceEEEEEE"
  },
  {
   "name" : "_ZN7android8hardware4wifi4V1_112BpHwWifiChip11getP2pIfaceERKNS0_11hidl_stringENSt3__18functionIFvRKNS1_4V1_010WifiStatusERKNS_2spINS9_13IWifiP2pIfaceEEEEEE"
  },
  {
   "name" : "_ZN7android8hardware4wifi4V1_112BpHwWifiChip11getStaIfaceERKNS0_11hidl_stringENSt3__18functionIFvRKNS1_4V1_010WifiStatusERKNS_2spINS9_13IWifiStaIfaceEEEEEE"
  },
  {
   "name" : "_ZN7android8hardware4wifi4V1_112BpHwWifiChip11linkToDeathERKNS_2spINS0_20hidl_death_recipientEEEm"
  },
  {
   "name" : "_ZN7android8hardware4wifi4V1_112BpHwWifiChip12getDebugInfoENSt3__18functionIFvRKNS_4hidl4base4V1_09DebugInfoEEEE"
  },
  {
   "name" : "_ZN7android8hardware4wifi4V1_112BpHwWifiChip12getHashChainENSt3__18functionIFvRKNS0_8hidl_vecINS0_10hidl_arrayIhLm32EJEEEEEEEE"
  },
  {
   "name" : "_ZN7android8hardware4wifi4V1_112BpHwWifiChip13configureChipEjNSt3__18functionIFvRKNS1_4V1_010WifiStatusEEEE"
  },
  {
   "name" : "_ZN7android8hardware4wifi4V1_112BpHwWifiChip13createApIfaceENSt3__18functionIFvRKNS1_4V1_010WifiStatusERKNS_2spINS6_12IWifiApIfaceEEEEEE"
  },
  {
   "name" : "_ZN7android8hardware4wifi4V1_112BpHwWifiChip13removeApIfaceERKNS0_11hidl_stringENSt3__18functionIFvRKNS1_4V1_010WifiStatusEEEE"
  },
  {
   "name" : "_ZN7android8hardware4wifi4V1_112BpHwWifiChip13unlinkToDeathERKNS_2spINS0_20hidl_death_recipientEEE"
  },
  {
   "name" : "_ZN7android8hardware4wifi4V1_112BpHwWifiChip14createNanIfaceENSt3__18functionIFvRKNS1_4V1_010WifiStatusERKNS_2spINS6_13IWifiNanIfaceEEEEEE"
  },
  {
   "name" : "_ZN7android8hardware4wifi4V1_112BpHwWifiChip14createP2pIfaceENSt3__18functionIFvRKNS1_4V1_010WifiStatusERKNS_2spINS6_13IWifiP2pIfaceEEEEEE"
  },
  {
   "name" : "_ZN7android8hardware4wifi4V1_112BpHwWifiChip14createStaIfaceENSt3__18functionIFvRKNS1_4V1_010WifiStatusERKNS_2spINS6_13IWifiStaIfaceEEEEEE"
  },
  {
   "name" : "_ZN7android8hardware4wifi4V1_112BpHwWifiChip14interfaceChainENSt3__18functionIFvRKNS0_8hidl_vecINS0_11hidl_stringEEEEEE"
  },
  {
   "name" : "_ZN7android8hardware4wifi4V1_112BpHwWifiChip14removeNanIfaceERKNS0_11hidl_stringENSt3__18functionIFvRKNS1_4V1_010WifiStatusEEEE"
  },
  {
   "name" : "_ZN7android8hardware4wifi4V1_112BpHwWifiChip14removeP2pIfaceERKNS0_11hidl_stringENSt3__18functionIFvRKNS1_4V1_010WifiStatusEEEE"
  },
  {
   "name" : "_ZN7android8hardware4wifi4V1_112BpHwWifiChip14removeStaIfaceERKNS0_11hidl_stringENSt3__18functionIFvRKNS1_4V1_010WifiStatusEEEE"
  },
  {
   "name" : "_ZN7android8hardware4wifi4V1_112BpHwWifiChip15getApIfaceNamesENSt3__18functionIFvRKNS1_4V1_010WifiStatusERKNS0_8hidl_vecINS0_11hidl_stringEEEEEE"
  },
  {
   "name" : "_ZN7android8hardware4wifi4V1_112BpHwWifiChip15getCapabilitiesENSt3__18functionIFvRKNS1_4V1_010WifiStatusEjEEE"
  },
  {
   "name" : "_ZN7android8hardware4wifi4V1_112BpHwWifiChip15onLastStrongRefEPKv"
  },
  {
   "name" : "_ZN7android8hardware4wifi4V1_112BpHwWifiChip16getNanIfaceNamesENSt3__18functionIFvRKNS1_4V1_010WifiStatusERKNS0_8hidl_vecINS0_11hidl_stringEEEEEE"
  },
  {
   "name" : "_ZN7android8hardware4wifi4V1_112BpHwWifiChip16getP2pIfaceNamesENSt3__18functionIFvRKNS1_4V1_010WifiStatusERKNS0_8hidl_vecINS0_11hidl_stringEEEEEE"
  },
  {
   "name" : "_ZN7android8hardware4wifi4V1_112BpHwWifiChip16getStaIfaceNamesENSt3__18functionIFvRKNS1_4V1_010WifiStatusERKNS0_8hidl_vecINS0_11hidl_stringEEEEEE"
  },
  {
   "name" : "_ZN7android8hardware4wifi4V1_112BpHwWifiChip17getAvailableModesENSt3__18functionIFvRKNS1_4V1_010WifiStatusERKNS0_8hidl_vecINS6_9IWifiChip8ChipModeEEEEEE"
  },
  {
   "name" : "_ZN7android8hardware4wifi4V1_112BpHwWifiChip19createRttControllerERKNS_2spINS1_4V1_010IWifiIfaceEEENSt3__18functionIFvRKNS5_10WifiStatusERKNS4_INS5_18IWifiRttControllerEEEEEE"
  },
  {
   "name" : "_ZN7android8hardware4wifi4V1_112BpHwWifiChip19interfaceDescriptorENSt3__18functionIFvRKNS0_11hidl_stringEEEE"
  },
  {
   "name" : "_ZN7android8hardware4wifi4V1_112BpHwWifiChip20requestChipDebugInfoENSt3__18functionIFvRKNS1_4V1_010WifiStatusERKNS6_9IWifiChip13ChipDebugInfoEEEE"
  },
  {
   "name" : "_ZN7android8hardware4wifi4V1_112BpHwWifiChip20resetTxPowerScenarioENSt3__18functionIFvRKNS1_4V1_010WifiStatusEEEE"
  },
  {
   "name" : "_ZN7android8hardware4wifi4V1_112BpHwWifiChip21notifySyspropsChangedEv"
  },
  {
   "name" : "_ZN7android8hardware4wifi4V1_112BpHwWifiChip21registerEventCallbackERKNS_2spINS1_4V1_022IWifiChipEventCallbackEEENSt3__18functionIFvRKNS5_10WifiStatusEEEE"
  },
  {
   "name" : "_ZN7android8hardware4wifi4V1_112BpHwWifiChip21selectTxPowerScenarioENS2_9IWifiChip15TxPowerScenarioENSt3__18functionIFvRKNS1_4V1_010WifiStatusEEEE"
  },
  {
   "name" : "_ZN7android8hardware4wifi4V1_112BpHwWifiChip21setHALInstrumentationEv"
  },
  {
   "name" : "_ZN7android8hardware4wifi4V1_112BpHwWifiChip22enableDebugErrorAlertsEbNSt3__18functionIFvRKNS1_4V1_010WifiStatusEEEE"
  },
  {
   "name" : "_ZN7android8hardware4wifi4V1_112BpHwWifiChip22requestDriverDebugDumpENSt3__18functionIFvRKNS1_4V1_010WifiStatusERKNS0_8hidl_vecIhEEEEE"
  },
  {
   "name" : "_ZN7android8hardware4wifi4V1_112BpHwWifiChip24requestFirmwareDebugDumpENSt3__18functionIFvRKNS1_4V1_010WifiStatusERKNS0_8hidl_vecIhEEEEE"
  },
  {
   "name" : "_ZN7android8hardware4wifi4V1_112BpHwWifiChip25getDebugRingBuffersStatusENSt3__18functionIFvRKNS1_4V1_010WifiStatusERKNS0_8hidl_vecINS6_25WifiDebugRingBufferStatusEEEEEE"
  },
  {
   "name" : "_ZN7android8hardware4wifi4V1_112BpHwWifiChip26_hidl_resetTxPowerScenarioEPNS0_10IInterfaceEPNS0_7details16HidlInstrumentorENSt3__18functionIFvRKNS1_4V1_010WifiStatusEEEE"
  },
  {
   "name" : "_ZN7android8hardware4wifi4V1_112BpHwWifiChip26forceDumpToDebugRingBufferERKNS0_11hidl_stringENSt3__18functionIFvRKNS1_4V1_010WifiStatusEEEE"
  },
  {
   "name" : "_ZN7android8hardware4wifi4V1_112BpHwWifiChip27_hidl_selectTxPowerScenarioEPNS0_10IInterfaceEPNS0_7details16HidlInstrumentorENS2_9IWifiChip15TxPowerScenarioENSt3__18functionIFvRKNS1_4V1_010WifiStatusEEEE"
  },
  {
   "name" : "_ZN7android8hardware4wifi4V1_112BpHwWifiChip27getDebugHostWakeReasonStatsENSt3__18functionIFvRKNS1_4V1_010WifiStatusERKNS6_28WifiDebugHostWakeReasonStatsEEEE"
  },
  {
   "name" : "_ZN7android8hardware4wifi4V1_112BpHwWifiChip28stopLoggingToDebugRingBufferENSt3__18functionIFvRKNS1_4V1_010WifiStatusEEEE"
  },
  {
   "name" : "_ZN7android8hardware4wifi4V1_112BpHwWifiChip29startLoggingToDebugRingBufferERKNS0_11hidl_stringENS1_4V1_031WifiDebugRingBufferVerboseLevelEjjNSt3__18functionIFvRKNS7_10WifiStatusEEEE"
  },
  {
   "name" : "_ZN7android8hardware4wifi4V1_112BpHwWifiChip4pingEv"
  },
  {
   "name" : "_ZN7android8hardware4wifi4V1_112BpHwWifiChip5debugERKNS0_11hidl_handleERKNS0_8hidl_vecINS0_11hidl_stringEEE"
  },
  {
   "name" : "_ZN7android8hardware4wifi4V1_112BpHwWifiChip5getIdENSt3__18functionIFvRKNS1_4V1_010WifiStatusEjEEE"
  },
  {
   "name" : "_ZN7android8hardware4wifi4V1_112BpHwWifiChip7getModeENSt3__18functionIFvRKNS1_4V1_010WifiStatusEjEEE"
  },
  {
   "name" : "_ZN7android8hardware4wifi4V1_112BpHwWifiChipC1ERKNS_2spINS0_7IBinderEEE"
  },
  {
   "name" : "_ZN7android8hardware4wifi4V1_112BpHwWifiChipC2ERKNS_2spINS0_7IBinderEEE"
  },
  {
   "name" : "_ZN7android8hardware4wifi4V1_15IWifi10getServiceERKNSt3__112basic_stringIcNS4_11char_traitsIcEENS4_9allocatorIcEEEEb"
  },
  {
   "name" : "_ZN7android8hardware4wifi4V1_15IWifi11linkToDeathERKNS_2spINS0_20hidl_death_recipientEEEm"
  },
  {
   "name" : "_ZN7android8hardware4wifi4V1_15IWifi12getDebugInfoENSt3__18functionIFvRKNS_4hidl4base4V1_09DebugInfoEEEE"
  },
  {
   "name" : "_ZN7android8hardware4wifi4V1_15IWifi12getHashChainENSt3__18functionIFvRKNS0_8hidl_vecINS0_10hidl_arrayIhLm32EJEEEEEEEE"
  },
  {
   "name" : "_ZN7android8hardware4wifi4V1_15IWifi13tryGetServiceERKNSt3__112basic_stringIcNS4_11char_traitsIcEENS4_9allocatorIcEEEEb"
  },
  {
   "name" : "_ZN7android8hardware4wifi4V1_15IWifi13unlinkToDeathERKNS_2spINS0_20hidl_death_recipientEEE"
  },
  {
   "name" : "_ZN7android8hardware4wifi4V1_15IWifi14interfaceChainENSt3__18functionIFvRKNS0_8hidl_vecINS0_11hidl_stringEEEEEE"
  },
  {
   "name" : "_ZN7android8hardware4wifi4V1_15IWifi17registerAsServiceERKNSt3__112basic_stringIcNS4_11char_traitsIcEENS4_9allocatorIcEEEE"
  },
  {
   "name" : "_ZN7android8hardware4wifi4V1_15IWifi19interfaceDescriptorENSt3__18functionIFvRKNS0_11hidl_stringEEEE"
  },
  {
   "name" : "_ZN7android8hardware4wifi4V1_15IWifi21notifySyspropsChangedEv"
  },
  {
   "name" : "_ZN7android8hardware4wifi4V1_15IWifi21setHALInstrumentationEv"
  },
  {
   "name" : "_ZN7android8hardware4wifi4V1_15IWifi24registerForNotificationsERKNSt3__112basic_stringIcNS4_11char_traitsIcEENS4_9allocatorIcEEEERKNS_2spINS_4hidl7manager4V1_020IServiceNotificationEEE"
  },
  {
   "name" : "_ZN7android8hardware4wifi4V1_15IWifi4pingEv"
  },
  {
   "name" : "_ZN7android8hardware4wifi4V1_15IWifi5debugERKNS0_11hidl_handleERKNS0_8hidl_vecINS0_11hidl_stringEEE"
  },
  {
   "name" : "_ZN7android8hardware4wifi4V1_15IWifi8castFromERKNS_2spINS1_4V1_05IWifiEEEb"
  },
  {
   "name" : "_ZN7android8hardware4wifi4V1_15IWifi8castFromERKNS_2spINS_4hidl4base4V1_05IBaseEEEb"
  },
  {
   "name" : "_ZN7android8hardware4wifi4V1_15IWifi8castFromERKNS_2spIS3_EEb"
  },
  {
   "name" : "_ZN7android8hardware4wifi4V1_16BsWifi13addOnewayTaskENSt3__18functionIFvvEEE"
  },
  {
   "name" : "_ZN7android8hardware4wifi4V1_16BsWifiC1ENS_2spINS2_5IWifiEEE"
  },
  {
   "name" : "_ZN7android8hardware4wifi4V1_16BsWifiC2ENS_2spINS2_5IWifiEEE"
  },
  {
   "name" : "_ZN7android8hardware4wifi4V1_18BnHwWifi10onTransactEjRKNS0_6ParcelEPS4_jNSt3__18functionIFvRS4_EEE"
  },
  {
   "name" : "_ZN7android8hardware4wifi4V1_18BnHwWifi12getDebugInfoENSt3__18functionIFvRKNS_4hidl4base4V1_09DebugInfoEEEE"
  },
  {
   "name" : "_ZN7android8hardware4wifi4V1_18BnHwWifi4pingEv"
  },
  {
   "name" : "_ZN7android8hardware4wifi4V1_18BnHwWifiC1ERKNS_2spINS2_5IWifiEEE"
  },
  {
   "name" : "_ZN7android8hardware4wifi4V1_18BnHwWifiC2ERKNS_2spINS2_5IWifiEEE"
  },
  {
   "name" : "_ZN7android8hardware4wifi4V1_18BnHwWifiD0Ev"
  },
  {
   "name" : "_ZN7android8hardware4wifi4V1_18BnHwWifiD1Ev"
  },
  {
   "name" : "_ZN7android8hardware4wifi4V1_18BnHwWifiD2Ev"
  },
  {
   "name" : "_ZN7android8hardware4wifi4V1_18BpHwWifi10getChipIdsENSt3__18functionIFvRKNS1_4V1_010WifiStatusERKNS0_8hidl_vecIjEEEEE"
  },
  {
   "name" : "_ZN7android8hardware4wifi4V1_18BpHwWifi11linkToDeathERKNS_2spINS0_20hidl_death_recipientEEEm"
  },
  {
   "name" : "_ZN7android8hardware4wifi4V1_18BpHwWifi12getDebugInfoENSt3__18functionIFvRKNS_4hidl4base4V1_09DebugInfoEEEE"
  },
  {
   "name" : "_ZN7android8hardware4wifi4V1_18BpHwWifi12getHashChainENSt3__18functionIFvRKNS0_8hidl_vecINS0_10hidl_arrayIhLm32EJEEEEEEEE"
  },
  {
   "name" : "_ZN7android8hardware4wifi4V1_18BpHwWifi13unlinkToDeathERKNS_2spINS0_20hidl_death_recipientEEE"
  },
  {
   "name" : "_ZN7android8hardware4wifi4V1_18BpHwWifi14interfaceChainENSt3__18functionIFvRKNS0_8hidl_vecINS0_11hidl_stringEEEEEE"
  },
  {
   "name" : "_ZN7android8hardware4wifi4V1_18BpHwWifi15onLastStrongRefEPKv"
  },
  {
   "name" : "_ZN7android8hardware4wifi4V1_18BpHwWifi19interfaceDescriptorENSt3__18functionIFvRKNS0_11hidl_stringEEEE"
  },
  {
   "name" : "_ZN7android8hardware4wifi4V1_18BpHwWifi21notifySyspropsChangedEv"
  },
  {
   "name" : "_ZN7android8hardware4wifi4V1_18BpHwWifi21registerEventCallbackERKNS_2spINS1_4V1_018IWifiEventCallbackEEENSt3__18functionIFvRKNS5_10WifiStatusEEEE"
  },
  {
   "name" : "_ZN7android8hardware4wifi4V1_18BpHwWifi21setHALInstrumentationEv"
  },
  {
   "name" : "_ZN7android8hardware4wifi4V1_18BpHwWifi4pingEv"
  },
  {
   "name" : "_ZN7android8hardware4wifi4V1_18BpHwWifi4stopENSt3__18functionIFvRKNS1_4V1_010WifiStatusEEEE"
  },
  {
   "name" : "_ZN7android8hardware4wifi4V1_18BpHwWifi5debugERKNS0_11hidl_handleERKNS0_8hidl_vecINS0_11hidl_stringEEE"
  },
  {
   "name" : "_ZN7android8hardware4wifi4V1_18BpHwWifi5startENSt3__18functionIFvRKNS1_4V1_010WifiStatusEEEE"
  },
  {
   "name" : "_ZN7android8hardware4wifi4V1_18BpHwWifi7getChipEjNSt3__18functionIFvRKNS1_4V1_010WifiStatusERKNS_2spINS6_9IWifiChipEEEEEE"
  },
  {
   "name" : "_ZN7android8hardware4wifi4V1_18BpHwWifi9isStartedEv"
  },
  {
   "name" : "_ZN7android8hardware4wifi4V1_18BpHwWifiC1ERKNS_2spINS0_7IBinderEEE"
  },
  {
   "name" : "_ZN7android8hardware4wifi4V1_18BpHwWifiC2ERKNS_2spINS0_7IBinderEEE"
  },
  {
   "name" : "_ZN7android8hardware4wifi4V1_19IWifiChip10getServiceERKNSt3__112basic_stringIcNS4_11char_traitsIcEENS4_9allocatorIcEEEEb"
  },
  {
   "name" : "_ZN7android8hardware4wifi4V1_19IWifiChip11linkToDeathERKNS_2spINS0_20hidl_death_recipientEEEm"
  },
  {
   "name" : "_ZN7android8hardware4wifi4V1_19IWifiChip12getDebugInfoENSt3__18functionIFvRKNS_4hidl4base4V1_09DebugInfoEEEE"
  },
  {
   "name" : "_ZN7android8hardware4wifi4V1_19IWifiChip12getHashChainENSt3__18functionIFvRKNS0_8hidl_vecINS0_10hidl_arrayIhLm32EJEEEEEEEE"
  },
  {
   "name" : "_ZN7android8hardware4wifi4V1_19IWifiChip13tryGetServiceERKNSt3__112basic_stringIcNS4_11char_traitsIcEENS4_9allocatorIcEEEEb"
  },
  {
   "name" : "_ZN7android8hardware4wifi4V1_19IWifiChip13unlinkToDeathERKNS_2spINS0_20hidl_death_recipientEEE"
  },
  {
   "name" : "_ZN7android8hardware4wifi4V1_19IWifiChip14interfaceChainENSt3__18functionIFvRKNS0_8hidl_vecINS0_11hidl_stringEEEEEE"
  },
  {
   "name" : "_ZN7android8hardware4wifi4V1_19IWifiChip17registerAsServiceERKNSt3__112basic_stringIcNS4_11char_traitsIcEENS4_9allocatorIcEEEE"
  },
  {
   "name" : "_ZN7android8hardware4wifi4V1_19IWifiChip19interfaceDescriptorENSt3__18functionIFvRKNS0_11hidl_stringEEEE"
  },
  {
   "name" : "_ZN7android8hardware4wifi4V1_19IWifiChip21notifySyspropsChangedEv"
  },
  {
   "name" : "_ZN7android8hardware4wifi4V1_19IWifiChip21setHALInstrumentationEv"
  },
  {
   "name" : "_ZN7android8hardware4wifi4V1_19IWifiChip24registerForNotificationsERKNSt3__112basic_stringIcNS4_11char_traitsIcEENS4_9allocatorIcEEEERKNS_2spINS_4hidl7manager4V1_020IServiceNotificationEEE"
  },
  {
   "name" : "_ZN7android8hardware4wifi4V1_19IWifiChip4pingEv"
  },
  {
   "name" : "_ZN7android8hardware4wifi4V1_19IWifiChip5debugERKNS0_11hidl_handleERKNS0_8hidl_vecINS0_11hidl_stringEEE"
  },
  {
   "name" : "_ZN7android8hardware4wifi4V1_19IWifiChip8castFromERKNS_2spINS1_4V1_09IWifiChipEEEb"
  },
  {
   "name" : "_ZN7android8hardware4wifi4V1_19IWifiChip8castFromERKNS_2spINS_4hidl4base4V1_05IBaseEEEb"
  },
  {
   "name" : "_ZN7android8hardware4wifi4V1_19IWifiChip8castFromERKNS_2spIS3_EEb"
  },
  {
   "binding" : "weak",
   "name" : "_ZN7android8hardware7details13castInterfaceINS0_4wifi4V1_15IWifiENS3_4V1_05IWifiENS4_8BpHwWifiEEENS0_6ReturnINS_2spIT_EEEENSA_IT0_EEPKcb"
  },
  {
   "binding" : "weak",
   "name" : "_ZN7android8hardware7details13castInterfaceINS0_4wifi4V1_15IWifiENS_4hidl4base4V1_05IBaseENS4_8BpHwWifiEEENS0_6ReturnINS_2spIT_EEEENSC_IT0_EEPKcb"
  },
  {
   "binding" : "weak",
   "name" : "_ZN7android8hardware7details13castInterfaceINS0_4wifi4V1_19IWifiChipENS3_4V1_09IWifiChipENS4_12BpHwWifiChipEEENS0_6ReturnINS_2spIT_EEEENSA_IT0_EEPKcb"
  },
  {
   "binding" : "weak",
   "name" : "_ZN7android8hardware7details13castInterfaceINS0_4wifi4V1_19IWifiChipENS_4hidl4base4V1_05IBaseENS4_12BpHwWifiChipEEENS0_6ReturnINS_2spIT_EEEENSC_IT0_EEPKcb"
  },
  {
   "binding" : "weak",
   "name" : "_ZN7android8hardware7details15wrapPassthroughINS0_4wifi4V1_010IWifiIfaceEvEENS_2spIT_EES8_"
  },
  {
   "binding" : "weak",
   "name" : "_ZN7android8hardware7details15wrapPassthroughINS0_4wifi4V1_012IWifiApIfaceEvEENS_2spIT_EES8_"
  },
  {
   "binding" : "weak",
   "name" : "_ZN7android8hardware7details15wrapPassthroughINS0_4wifi4V1_013IWifiNanIfaceEvEENS_2spIT_EES8_"
  },
  {
   "binding" : "weak",
   "name" : "_ZN7android8hardware7details15wrapPassthroughINS0_4wifi4V1_013IWifiP2pIfaceEvEENS_2spIT_EES8_"
  },
  {
   "binding" : "weak",
   "name" : "_ZN7android8hardware7details15wrapPassthroughINS0_4wifi4V1_013IWifiStaIfaceEvEENS_2spIT_EES8_"
  },
  {
   "binding" : "weak",
   "name" : "_ZN7android8hardware7details15wrapPassthroughINS0_4wifi4V1_018IWifiEventCallbackEvEENS_2spIT_EES8_"
  },
  {
   "binding" : "weak",
   "name" : "_ZN7android8hardware7details15wrapPassthroughINS0_4wifi4V1_018IWifiRttControllerEvEENS_2spIT_EES8_"
  },
  {
   "binding" : "weak",
   "name" : "_ZN7android8hardware7details15wrapPassthroughINS0_4wifi4V1_022IWifiChipEventCallbackEvEENS_2spIT_EES8_"
  },
  {
   "binding" : "weak",
   "name" : "_ZN7android8hardware7details15wrapPassthroughINS0_4wifi4V1_09IWifiChipEvEENS_2spIT_EES8_"
  },
  {
   "binding" : "weak",
   "name" : "_ZN7android8hardware7details18getServiceInternalINS0_4wifi4V1_112BpHwWifiChipENS4_9IWifiChipEvvEENS_2spIT0_EERKNSt3__112basic_stringIcNSA_11char_traitsIcEENSA_9allocatorIcEEEEbb"
  },
  {
   "binding" : "weak",
   "name" : "_ZN7android8hardware7details18getServiceInternalINS0_4wifi4V1_18BpHwWifiENS4_5IWifiEvvEENS_2spIT0_EERKNSt3__112basic_stringIcNSA_11char_traitsIcEENSA_9allocatorIcEEEEbb"
  },
  {
   "binding" : "weak",
   "name" : "_ZNKSt3__18functionIFvN7android8hardware7details16HidlInstrumentor20InstrumentationEventEPKcS7_S7_S7_PNS_6vectorIPvNS_9allocatorIS9_EEEEEEclES5_S7_S7_S7_S7_SD_"
  },
  {
   "binding" : "weak",
   "name" : "_ZNSt3__113__tree_removeIPNS_16__tree_node_baseIPvEEEEvT_S5_"
  },
  {
   "binding" : "weak",
   "name" : "_ZNSt3__127__tree_balance_after_insertIPNS_16__tree_node_baseIPvEEEEvT_S5_"
  },
  {
   "binding" : "weak",
   "name" : "_ZNSt3__16__treeINS_12__value_typeINS_12basic_stringIcNS_11char_traitsIcEENS_9allocatorIcEEEENS_8functionIFN7android2spINS9_4hidl4base4V1_05IBaseEEEPvEEEEENS_19__map_value_compareIS7_SJ_NS_4lessIS7_EELb1EEENS5_ISJ_EEE12__find_equalIS7_EERPNS_16__tree_node_baseISG_EERPNS_15__tree_end_nodeIST_EERKT_"
  },
  {
   "binding" : "weak",
   "name" : "_ZNSt3__16__treeINS_12__value_typeINS_12basic_stringIcNS_11char_traitsIcEENS_9allocatorIcEEEENS_8functionIFN7android2spINS9_4hidl4base4V1_05IBaseEEEPvEEEEENS_19__map_value_compareIS7_SJ_NS_4lessIS7_EELb1EEENS5_ISJ_EEE4findIS7_EENS_15__tree_iteratorISJ_PNS_11__tree_nodeISJ_SG_EElEERKT_"
  },
  {
   "binding" : "weak",
   "name" : "_ZNSt3__16__treeINS_12__value_typeINS_12basic_stringIcNS_11char_traitsIcEENS_9allocatorIcEEEENS_8functionIFN7android2spINS9_4hidl4base4V1_05IBaseEEEPvEEEEENS_19__map_value_compareIS7_SJ_NS_4lessIS7_EELb1EEENS5_ISJ_EEE5eraseENS_21__tree_const_iteratorISJ_PNS_11__tree_nodeISJ_SG_EElEE"
  },
  {
   "binding" : "weak",
   "name" : "_ZNSt3__16__treeINS_12__value_typeINS_12basic_stringIcNS_11char_traitsIcEENS_9allocatorIcEEEENS_8functionIFN7android2spINS9_8hardware7IBinderEEEPvEEEEENS_19__map_value_compareIS7_SH_NS_4lessIS7_EELb1EEENS5_ISH_EEE12__find_equalIS7_EERPNS_16__tree_node_baseISE_EERPNS_15__tree_end_nodeISR_EERKT_"
  },
  {
   "binding" : "weak",
   "name" : "_ZNSt3__16__treeINS_12__value_typeINS_12basic_stringIcNS_11char_traitsIcEENS_9allocatorIcEEEENS_8functionIFN7android2spINS9_8hardware7IBinderEEEPvEEEEENS_19__map_value_compareIS7_SH_NS_4lessIS7_EELb1EEENS5_ISH_EEE4findIS7_EENS_15__tree_iteratorISH_PNS_11__tree_nodeISH_SE_EElEERKT_"
  },
  {
   "binding" : "weak",
   "name" : "_ZNSt3__16__treeINS_12__value_typeINS_12basic_stringIcNS_11char_traitsIcEENS_9allocatorIcEEEENS_8functionIFN7android2spINS9_8hardware7IBinderEEEPvEEEEENS_19__map_value_compareIS7_SH_NS_4lessIS7_EELb1EEENS5_ISH_EEE5eraseENS_21__tree_const_iteratorISH_PNS_11__tree_nodeISH_SE_EElEE"
  },
  {
   "binding" : "weak",
   "name" : "_ZNSt3__16vectorIN7android2spINS1_8hardware27hidl_binder_death_recipientEEENS_9allocatorIS5_EEE21__push_back_slow_pathIS5_EEvOT_"
  },
  {
   "binding" : "weak",
   "name" : "_ZNSt3__16vectorINS_8functionIFvN7android8hardware7details16HidlInstrumentor20InstrumentationEventEPKcS8_S8_S8_PNS0_IPvNS_9allocatorIS9_EEEEEEENSA_ISF_EEEC2ERKSH_"
  },
  {
   "binding" : "weak",
   "name" : "_ZNSt3__16vectorIPvNS_9allocatorIS1_EEE21__push_back_slow_pathIS1_EEvOT_"
  },
  {
   "name" : "_ZThn16_N7android8hardware4wifi4V1_112BpHwWifiChip15onLastStrongRefEPKv"
  },
  {
   "name" : "_ZThn16_N7android8hardware4wifi4V1_18BpHwWifi15onLastStrongRefEPKv"
  },
  {
   "name" : "_ZThn32_N7android8hardware4wifi4V1_112BnHwWifiChipD0Ev"
  },
  {
   "name" : "_ZThn32_N7android8hardware4wifi4V1_112BnHwWifiChipD1Ev"
  },
  {
   "name" : "_ZThn32_N7android8hardware4wifi4V1_18BnHwWifiD0Ev"
  },
  {
   "name" : "_ZThn32_N7android8hardware4wifi4V1_18BnHwWifiD1Ev"
  },
  {
   "name" : "_ZTv0_n24_N7android8hardware4wifi4V1_112BnHwWifiChipD0Ev"
  },
  {
   "name" : "_ZTv0_n24_N7android8hardware4wifi4V1_112BnHwWifiChipD1Ev"
  },
  {
   "name" : "_ZTv0_n24_N7android8hardware4wifi4V1_18BnHwWifiD0Ev"
  },
  {
   "name" : "_ZTv0_n24_N7android8hardware4wifi4V1_18BnHwWifiD1Ev"
  },
  {
   "name" : "_ZTv0_n40_N7android8hardware4wifi4V1_112BpHwWifiChip15onLastStrongRefEPKv"
  },
  {
   "name" : "_ZTv0_n40_N7android8hardware4wifi4V1_18BpHwWifi15onLastStrongRefEPKv"
  }
 ],
 "elf_objects" :
 [
  {
   "name" : "_ZN7android8hardware4wifi4V1_15IWifi10descriptorE"
  },
  {
   "name" : "_ZN7android8hardware4wifi4V1_19IWifiChip10descriptorE"
  },
  {
   "binding" : "weak",
   "name" : "_ZTCN7android8hardware4wifi4V1_110BsWifiChipE0_NS2_9IWifiChipE"
  },
  {
   "name" : "_ZTCN7android8hardware4wifi4V1_112BnHwWifiChipE0_NS0_7IBinderE"
  },
  {
   "name" : "_ZTCN7android8hardware4wifi4V1_112BnHwWifiChipE0_NS0_9BHwBinderE"
  },
  {
   "name" : "_ZTCN7android8hardware4wifi4V1_112BnHwWifiChipE0_NS_4hidl4base4V1_08BnHwBaseE"
  },
  {
   "name" : "_ZTCN7android8hardware4wifi4V1_112BpHwWifiChipE0_NS0_11BpInterfaceINS2_9IWifiChipEEE"
  },
  {
   "name" : "_ZTCN7android8hardware4wifi4V1_112BpHwWifiChipE0_NS1_4V1_09IWifiChipE"
  },
  {
   "name" : "_ZTCN7android8hardware4wifi4V1_112BpHwWifiChipE0_NS2_9IWifiChipE"
  },
  {
   "name" : "_ZTCN7android8hardware4wifi4V1_112BpHwWifiChipE0_NS_4hidl4base4V1_05IBaseE"
  },
  {
   "name" : "_ZTCN7android8hardware4wifi4V1_112BpHwWifiChipE16_NS0_11BpHwRefBaseE"
  },
  {
   "name" : "_ZTCN7android8hardware4wifi4V1_112BpHwWifiChipE8_NS0_10IInterfaceE"
  },
  {
   "name" : "_ZTCN7android8hardware4wifi4V1_15IWifiE0_NS1_4V1_05IWifiE"
  },
  {
   "name" : "_ZTCN7android8hardware4wifi4V1_15IWifiE0_NS_4hidl4base4V1_05IBaseE"
  },
  {
   "binding" : "weak",
   "name" : "_ZTCN7android8hardware4wifi4V1_16BsWifiE0_NS2_5IWifiE"
  },
  {
   "name" : "_ZTCN7android8hardware4wifi4V1_18BnHwWifiE0_NS0_7IBinderE"
  },
  {
   "name" : "_ZTCN7android8hardware4wifi4V1_18BnHwWifiE0_NS0_9BHwBinderE"
  },
  {
   "name" : "_ZTCN7android8hardware4wifi4V1_18BnHwWifiE0_NS_4hidl4base4V1_08BnHwBaseE"
  },
  {
   "name" : "_ZTCN7android8hardware4wifi4V1_18BpHwWifiE0_NS0_11BpInterfaceINS2_5IWifiEEE"
  },
  {
   "name" : "_ZTCN7android8hardware4wifi4V1_18BpHwWifiE0_NS1_4V1_05IWifiE"
  },
  {
   "name" : "_ZTCN7android8hardware4wifi4V1_18BpHwWifiE0_NS2_5IWifiE"
  },
  {
   "name" : "_ZTCN7android8hardware4wifi4V1_18BpHwWifiE0_NS_4hidl4base4V1_05IBaseE"
  },
  {
   "name" : "_ZTCN7android8hardware4wifi4V1_18BpHwWifiE16_NS0_11BpHwRefBaseE"
  },
  {
   "name" : "_ZTCN7android8hardware4wifi4V1_18BpHwWifiE8_NS0_10IInterfaceE"
  },
  {
   "name" : "_ZTCN7android8hardware4wifi4V1_19IWifiChipE0_NS1_4V1_09IWifiChipE"
  },
  {
   "name" : "_ZTCN7android8hardware4wifi4V1_19IWifiChipE0_NS_4hidl4base4V1_05IBaseE"
  },
  {
   "name" : "_ZTTN7android8hardware4wifi4V1_112BnHwWifiChipE"
  },
  {
   "name" : "_ZTTN7android8hardware4wifi4V1_112BpHwWifiChipE"
  },
  {
   "name" : "_ZTTN7android8hardware4wifi4V1_15IWifiE"
  },
  {
   "name" : "_ZTTN7android8hardware4wifi4V1_18BnHwWifiE"
  },
  {
   "name" : "_ZTTN7android8hardware4wifi4V1_18BpHwWifiE"
  },
  {
   "name" : "_ZTTN7android8hardware4wifi4V1_19IWifiChipE"
  },
  {
   "binding" : "weak",
   "name" : "_ZTVN7android8hardware4wifi4V1_110BsWifiChipE"
  },
  {
   "name" : "_ZTVN7android8hardware4wifi4V1_112BnHwWifiChipE"
  },
  {
   "name" : "_ZTVN7android8hardware4wifi4V1_112BpHwWifiChipE"
  },
  {
   "name" : "_ZTVN7android8hardware4wifi4V1_15IWifiE"
  },
  {
   "binding" : "weak",
   "name" : "_ZTVN7android8hardware4wifi4V1_16BsWifiE"
  },
  {
   "name" : "_ZTVN7android8hardware4wifi4V1_18BnHwWifiE"
  },
  {
   "name" : "_ZTVN7android8hardware4wifi4V1_18BpHwWifiE"
  },
  {
   "name" : "_ZTVN7android8hardware4wifi4V1_19IWifiChipE"
  }
 ],
 "enum_types" :
 [
  {
   "alignment" : 4,
   "enum_fields" :
   [
    {
     "enum_field_value" : 1,
     "name" : "HAL_HDR_DOLBY_VISION"
    },
    {
     "enum_field_value" : 2,
     "name" : "HAL_HDR_HDR10"
    },
    {
     "enum_field_value" : 3,
     "name" : "HAL_HDR_HLG"
    }
   ],
   "linker_set_key" : "_ZTI13android_hdr_t",
   "name" : "android_hdr_t",
   "referenced_type" : "_ZTI13android_hdr_t",
   "self_type" : "_ZTI13android_hdr_t",
   "size" : 4,
   "source_file" : "/system/core/libsystem/include/system/graphics-base-v1.0.h",
   "underlying_type" : "_ZTIj"
  },
  {
   "alignment" : 4,
   "enum_fields" :
   [
    {
     "enum_field_value" : 4,
     "name" : "HAL_HDR_HDR10_PLUS"
    }
   ],
   "linker_set_key" : "_ZTI18android_hdr_v1_2_t",
   "name" : "android_hdr_v1_2_t",
   "referenced_type" : "_ZTI18android_hdr_v1_2_t",
   "self_type" : "_ZTI18android_hdr_v1_2_t",
   "size" : 4,
   "source_file" : "/system/core/libsystem/include/system/graphics-base-v1.2.h",
   "underlying_type" : "_ZTIj"
  },
  {
   "alignment" : 4,
   "enum_fields" :
   [
    {
     "enum_field_value" : 0,
     "name" : "ANDROID_LOG_UNKNOWN"
    },
    {
     "enum_field_value" : 1,
     "name" : "ANDROID_LOG_DEFAULT"
    },
    {
     "enum_field_value" : 2,
     "name" : "ANDROID_LOG_VERBOSE"
    },
    {
     "enum_field_value" : 3,
     "name" : "ANDROID_LOG_DEBUG"
    },
    {
     "enum_field_value" : 4,
     "name" : "ANDROID_LOG_INFO"
    },
    {
     "enum_field_value" : 5,
     "name" : "ANDROID_LOG_WARN"
    },
    {
     "enum_field_value" : 6,
     "name" : "ANDROID_LOG_ERROR"
    },
    {
     "enum_field_value" : 7,
     "name" : "ANDROID_LOG_FATAL"
    },
    {
     "enum_field_value" : 8,
     "name" : "ANDROID_LOG_SILENT"
    }
   ],
   "linker_set_key" : "_ZTI19android_LogPriority",
   "name" : "android_LogPriority",
   "referenced_type" : "_ZTI19android_LogPriority",
   "self_type" : "_ZTI19android_LogPriority",
   "size" : 4,
   "source_file" : "/system/core/liblog/include/android/log.h",
   "underlying_type" : "_ZTIj"
  },
  {
   "alignment" : 4,
   "enum_fields" :
   [
    {
     "enum_field_value" : 0,
     "name" : "HAL_DATASPACE_UNKNOWN"
    },
    {
     "enum_field_value" : 1,
     "name" : "HAL_DATASPACE_ARBITRARY"
    },
    {
     "enum_field_value" : 16,
     "name" : "HAL_DATASPACE_STANDARD_SHIFT"
    },
    {
     "enum_field_value" : 4128768,
     "name" : "HAL_DATASPACE_STANDARD_MASK"
    },
    {
     "enum_field_value" : 0,
     "name" : "HAL_DATASPACE_STANDARD_UNSPECIFIED"
    },
    {
     "enum_field_value" : 65536,
     "name" : "HAL_DATASPACE_STANDARD_BT709"
    },
    {
     "enum_field_value" : 131072,
     "name" : "HAL_DATASPACE_STANDARD_BT601_625"
    },
    {
     "enum_field_value" : 196608,
     "name" : "HAL_DATASPACE_STANDARD_BT601_625_UNADJUSTED"
    },
    {
     "enum_field_value" : 262144,
     "name" : "HAL_DATASPACE_STANDARD_BT601_525"
    },
    {
     "enum_field_value" : 327680,
     "name" : "HAL_DATASPACE_STANDARD_BT601_525_UNADJUSTED"
    },
    {
     "enum_field_value" : 393216,
     "name" : "HAL_DATASPACE_STANDARD_BT2020"
    },
    {
     "enum_field_value" : 458752,
     "name" : "HAL_DATASPACE_STANDARD_BT2020_CONSTANT_LUMINANCE"
    },
    {
     "enum_field_value" : 524288,
     "name" : "HAL_DATASPACE_STANDARD_BT470M"
    },
    {
     "enum_field_value" : 589824,
     "name" : "HAL_DATASPACE_STANDARD_FILM"
    },
    {
     "enum_field_value" : 655360,
     "name" : "HAL_DATASPACE_STANDARD_DCI_P3"
    },
    {
     "enum_field_value" : 720896,
     "name" : "HAL_DATASPACE_STANDARD_ADOBE_RGB"
    },
    {
     "enum_field_value" : 22,
     "name" : "HAL_DATASPACE_TRANSFER_SHIFT"
    },
    {
     "enum_field_value" : 130023424,
     "name" : "HAL_DATASPACE_TRANSFER_MASK"
    },
    {
     "enum_field_value" : 0,
     "name" : "HAL_DATASPACE_TRANSFER_UNSPECIFIED"
    },
    {
     "enum_field_value" : 4194304,
     "name" : "HAL_DATASPACE_TRANSFER_LINEAR"
    },
    {
     "enum_field_value" : 8388608,
     "name" : "HAL_DATASPACE_TRANSFER_SRGB"
    },
    {
     "enum_field_value" : 12582912,
     "name" : "HAL_DATASPACE_TRANSFER_SMPTE_170M"
    },
    {
     "enum_field_value" : 16777216,
     "name" : "HAL_DATASPACE_TRANSFER_GAMMA2_2"
    },
    {
     "enum_field_value" : 20971520,
     "name" : "HAL_DATASPACE_TRANSFER_GAMMA2_6"
    },
    {
     "enum_field_value" : 25165824,
     "name" : "HAL_DATASPACE_TRANSFER_GAMMA2_8"
    },
    {
     "enum_field_value" : 29360128,
     "name" : "HAL_DATASPACE_TRANSFER_ST2084"
    },
    {
     "enum_field_value" : 33554432,
     "name" : "HAL_DATASPACE_TRANSFER_HLG"
    },
    {
     "enum_field_value" : 27,
     "name" : "HAL_DATASPACE_RANGE_SHIFT"
    },
    {
     "enum_field_value" : 939524096,
     "name" : "HAL_DATASPACE_RANGE_MASK"
    },
    {
     "enum_field_value" : 0,
     "name" : "HAL_DATASPACE_RANGE_UNSPECIFIED"
    },
    {
     "enum_field_value" : 134217728,
     "name" : "HAL_DATASPACE_RANGE_FULL"
    },
    {
     "enum_field_value" : 268435456,
     "name" : "HAL_DATASPACE_RANGE_LIMITED"
    },
    {
     "enum_field_value" : 402653184,
     "name" : "HAL_DATASPACE_RANGE_EXTENDED"
    },
    {
     "enum_field_value" : 512,
     "name" : "HAL_DATASPACE_SRGB_LINEAR"
    },
    {
     "enum_field_value" : 138477568,
     "name" : "HAL_DATASPACE_V0_SRGB_LINEAR"
    },
    {
     "enum_field_value" : 406913024,
     "name" : "HAL_DATASPACE_V0_SCRGB_LINEAR"
    },
    {
     "enum_field_value" : 513,
     "name" : "HAL_DATASPACE_SRGB"
    },
    {
     "enum_field_value" : 142671872,
     "name" : "HAL_DATASPACE_V0_SRGB"
    },
    {
     "enum_field_value" : 411107328,
     "name" : "HAL_DATASPACE_V0_SCRGB"
    },
    {
     "enum_field_value" : 257,
     "name" : "HAL_DATASPACE_JFIF"
    },
    {
     "enum_field_value" : 146931712,
     "name" : "HAL_DATASPACE_V0_JFIF"
    },
    {
     "enum_field_value" : 258,
     "name" : "HAL_DATASPACE_BT601_625"
    },
    {
     "enum_field_value" : 281149440,
     "name" : "HAL_DATASPACE_V0_BT601_625"
    },
    {
     "enum_field_value" : 259,
     "name" : "HAL_DATASPACE_BT601_525"
    },
    {
     "enum_field_value" : 281280512,
     "name" : "HAL_DATASPACE_V0_BT601_525"
    },
    {
     "enum_field_value" : 260,
     "name" : "HAL_DATASPACE_BT709"
    },
    {
     "enum_field_value" : 281083904,
     "name" : "HAL_DATASPACE_V0_BT709"
    },
    {
     "enum_field_value" : 139067392,
     "name" : "HAL_DATASPACE_DCI_P3_LINEAR"
    },
    {
     "enum_field_value" : 155844608,
     "name" : "HAL_DATASPACE_DCI_P3"
    },
    {
     "enum_field_value" : 139067392,
     "name" : "HAL_DATASPACE_DISPLAY_P3_LINEAR"
    },
    {
     "enum_field_value" : 143261696,
     "name" : "HAL_DATASPACE_DISPLAY_P3"
    },
    {
     "enum_field_value" : 151715840,
     "name" : "HAL_DATASPACE_ADOBE_RGB"
    },
    {
     "enum_field_value" : 138805248,
     "name" : "HAL_DATASPACE_BT2020_LINEAR"
    },
    {
     "enum_field_value" : 147193856,
     "name" : "HAL_DATASPACE_BT2020"
    },
    {
     "enum_field_value" : 163971072,
     "name" : "HAL_DATASPACE_BT2020_PQ"
    },
    {
     "enum_field_value" : 4096,
     "name" : "HAL_DATASPACE_DEPTH"
    },
    {
     "enum_field_value" : 4097,
     "name" : "HAL_DATASPACE_SENSOR"
    }
   ],
   "linker_set_key" : "_ZTI19android_dataspace_t",
   "name" : "android_dataspace_t",
   "referenced_type" : "_ZTI19android_dataspace_t",
   "self_type" : "_ZTI19android_dataspace_t",
   "size" : 4,
   "source_file" : "/system/core/libsystem/include/system/graphics-base-v1.0.h",
   "underlying_type" : "_ZTIj"
  },
  {
   "alignment" : 4,
   "enum_fields" :
   [
    {
     "enum_field_value" : 0,
     "name" : "FLEX_FORMAT_INVALID"
    },
    {
     "enum_field_value" : 1,
     "name" : "FLEX_FORMAT_Y"
    },
    {
     "enum_field_value" : 7,
     "name" : "FLEX_FORMAT_YCbCr"
    },
    {
     "enum_field_value" : 1073741831,
     "name" : "FLEX_FORMAT_YCbCrA"
    },
    {
     "enum_field_value" : 7168,
     "name" : "FLEX_FORMAT_RGB"
    },
    {
     "enum_field_value" : 1073748992,
     "name" : "FLEX_FORMAT_RGBA"
    }
   ],
   "linker_set_key" : "_ZTI19android_flex_format",
   "name" : "android_flex_format",
   "referenced_type" : "_ZTI19android_flex_format",
   "self_type" : "_ZTI19android_flex_format",
   "size" : 4,
   "source_file" : "/system/core/libsystem/include/system/graphics.h",
   "underlying_type" : "_ZTIj"
  },
  {
   "alignment" : 4,
   "enum_fields" :
   [
    {
     "enum_field_value" : 1,
     "name" : "HAL_TRANSFORM_FLIP_H"
    },
    {
     "enum_field_value" : 2,
     "name" : "HAL_TRANSFORM_FLIP_V"
    },
    {
     "enum_field_value" : 4,
     "name" : "HAL_TRANSFORM_ROT_90"
    },
    {
     "enum_field_value" : 3,
     "name" : "HAL_TRANSFORM_ROT_180"
    },
    {
     "enum_field_value" : 7,
     "name" : "HAL_TRANSFORM_ROT_270"
    }
   ],
   "linker_set_key" : "_ZTI19android_transform_t",
   "name" : "android_transform_t",
   "referenced_type" : "_ZTI19android_transform_t",
   "self_type" : "_ZTI19android_transform_t",
   "size" : 4,
   "source_file" : "/system/core/libsystem/include/system/graphics-base-v1.0.h",
   "underlying_type" : "_ZTIj"
  },
  {
   "alignment" : 4,
   "enum_fields" :
   [
    {
     "enum_field_value" : 0,
     "name" : "HAL_COLOR_MODE_NATIVE"
    },
    {
     "enum_field_value" : 1,
     "name" : "HAL_COLOR_MODE_STANDARD_BT601_625"
    },
    {
     "enum_field_value" : 2,
     "name" : "HAL_COLOR_MODE_STANDARD_BT601_625_UNADJUSTED"
    },
    {
     "enum_field_value" : 3,
     "name" : "HAL_COLOR_MODE_STANDARD_BT601_525"
    },
    {
     "enum_field_value" : 4,
     "name" : "HAL_COLOR_MODE_STANDARD_BT601_525_UNADJUSTED"
    },
    {
     "enum_field_value" : 5,
     "name" : "HAL_COLOR_MODE_STANDARD_BT709"
    },
    {
     "enum_field_value" : 6,
     "name" : "HAL_COLOR_MODE_DCI_P3"
    },
    {
     "enum_field_value" : 7,
     "name" : "HAL_COLOR_MODE_SRGB"
    },
    {
     "enum_field_value" : 8,
     "name" : "HAL_COLOR_MODE_ADOBE_RGB"
    },
    {
     "enum_field_value" : 9,
     "name" : "HAL_COLOR_MODE_DISPLAY_P3"
    }
   ],
   "linker_set_key" : "_ZTI20android_color_mode_t",
   "name" : "android_color_mode_t",
   "referenced_type" : "_ZTI20android_color_mode_t",
   "self_type" : "_ZTI20android_color_mode_t",
   "size" : 4,
   "source_file" : "/system/core/libsystem/include/system/graphics-base-v1.0.h",
   "underlying_type" : "_ZTIj"
  },
  {
   "alignment" : 4,
   "enum_fields" :
   [
    {
     "enum_field_value" : 0,
     "name" : "SYSTEM_TIME_REALTIME"
    },
    {
     "enum_field_value" : 1,
     "name" : "SYSTEM_TIME_MONOTONIC"
    },
    {
     "enum_field_value" : 2,
     "name" : "SYSTEM_TIME_PROCESS"
    },
    {
     "enum_field_value" : 3,
     "name" : "SYSTEM_TIME_THREAD"
    },
    {
     "enum_field_value" : 4,
     "name" : "SYSTEM_TIME_BOOTTIME"
    }
   ],
   "linker_set_key" : "_ZTI21$SYSTEM_TIME_BOOTTIME",
   "name" : "(anonymous enum at system/core/libutils/include/utils/Timers.h:79:1)",
   "referenced_type" : "_ZTI21$SYSTEM_TIME_BOOTTIME",
   "self_type" : "_ZTI21$SYSTEM_TIME_BOOTTIME",
   "size" : 4,
   "source_file" : "/system/core/libutils/include/utils/Timers.h",
   "underlying_type" : "_ZTIj"
  },
  {
   "alignment" : 4,
   "enum_fields" :
   [
    {
     "enum_field_value" : 1,
     "name" : "FLEX_COMPONENT_Y"
    },
    {
     "enum_field_value" : 2,
     "name" : "FLEX_COMPONENT_Cb"
    },
    {
     "enum_field_value" : 4,
     "name" : "FLEX_COMPONENT_Cr"
    },
    {
     "enum_field_value" : 1024,
     "name" : "FLEX_COMPONENT_R"
    },
    {
     "enum_field_value" : 2048,
     "name" : "FLEX_COMPONENT_G"
    },
    {
     "enum_field_value" : 4096,
     "name" : "FLEX_COMPONENT_B"
    },
    {
     "enum_field_value" : 1073741824,
     "name" : "FLEX_COMPONENT_A"
    }
   ],
   "linker_set_key" : "_ZTI22android_flex_component",
   "name" : "android_flex_component",
   "referenced_type" : "_ZTI22android_flex_component",
   "self_type" : "_ZTI22android_flex_component",
   "size" : 4,
   "source_file" : "/system/core/libsystem/include/system/graphics.h",
   "underlying_type" : "_ZTIj"
  },
  {
   "alignment" : 4,
   "enum_fields" :
   [
    {
     "enum_field_value" : 1,
     "name" : "HAL_PIXEL_FORMAT_RGBA_8888"
    },
    {
     "enum_field_value" : 2,
     "name" : "HAL_PIXEL_FORMAT_RGBX_8888"
    },
    {
     "enum_field_value" : 3,
     "name" : "HAL_PIXEL_FORMAT_RGB_888"
    },
    {
     "enum_field_value" : 4,
     "name" : "HAL_PIXEL_FORMAT_RGB_565"
    },
    {
     "enum_field_value" : 5,
     "name" : "HAL_PIXEL_FORMAT_BGRA_8888"
    },
    {
     "enum_field_value" : 16,
     "name" : "HAL_PIXEL_FORMAT_YCBCR_422_SP"
    },
    {
     "enum_field_value" : 17,
     "name" : "HAL_PIXEL_FORMAT_YCRCB_420_SP"
    },
    {
     "enum_field_value" : 20,
     "name" : "HAL_PIXEL_FORMAT_YCBCR_422_I"
    },
    {
     "enum_field_value" : 22,
     "name" : "HAL_PIXEL_FORMAT_RGBA_FP16"
    },
    {
     "enum_field_value" : 32,
     "name" : "HAL_PIXEL_FORMAT_RAW16"
    },
    {
     "enum_field_value" : 33,
     "name" : "HAL_PIXEL_FORMAT_BLOB"
    },
    {
     "enum_field_value" : 34,
     "name" : "HAL_PIXEL_FORMAT_IMPLEMENTATION_DEFINED"
    },
    {
     "enum_field_value" : 35,
     "name" : "HAL_PIXEL_FORMAT_YCBCR_420_888"
    },
    {
     "enum_field_value" : 36,
     "name" : "HAL_PIXEL_FORMAT_RAW_OPAQUE"
    },
    {
     "enum_field_value" : 37,
     "name" : "HAL_PIXEL_FORMAT_RAW10"
    },
    {
     "enum_field_value" : 38,
     "name" : "HAL_PIXEL_FORMAT_RAW12"
    },
    {
     "enum_field_value" : 43,
     "name" : "HAL_PIXEL_FORMAT_RGBA_1010102"
    },
    {
     "enum_field_value" : 538982489,
     "name" : "HAL_PIXEL_FORMAT_Y8"
    },
    {
     "enum_field_value" : 540422489,
     "name" : "HAL_PIXEL_FORMAT_Y16"
    },
    {
     "enum_field_value" : 842094169,
     "name" : "HAL_PIXEL_FORMAT_YV12"
    }
   ],
   "linker_set_key" : "_ZTI22android_pixel_format_t",
   "name" : "android_pixel_format_t",
   "referenced_type" : "_ZTI22android_pixel_format_t",
   "self_type" : "_ZTI22android_pixel_format_t",
   "size" : 4,
   "source_file" : "/system/core/libsystem/include/system/graphics-base-v1.0.h",
   "underlying_type" : "_ZTIj"
  },
  {
   "alignment" : 4,
   "enum_fields" :
   [
    {
     "enum_field_value" : 19,
     "name" : "ANDROID_PRIORITY_LOWEST"
    },
    {
     "enum_field_value" : 10,
     "name" : "ANDROID_PRIORITY_BACKGROUND"
    },
    {
     "enum_field_value" : 0,
     "name" : "ANDROID_PRIORITY_NORMAL"
    },
    {
     "enum_field_value" : -2,
     "name" : "ANDROID_PRIORITY_FOREGROUND"
    },
    {
     "enum_field_value" : -4,
     "name" : "ANDROID_PRIORITY_DISPLAY"
    },
    {
     "enum_field_value" : -8,
     "name" : "ANDROID_PRIORITY_URGENT_DISPLAY"
    },
    {
     "enum_field_value" : -10,
     "name" : "ANDROID_PRIORITY_VIDEO"
    },
    {
     "enum_field_value" : -16,
     "name" : "ANDROID_PRIORITY_AUDIO"
    },
    {
     "enum_field_value" : -19,
     "name" : "ANDROID_PRIORITY_URGENT_AUDIO"
    },
    {
     "enum_field_value" : -20,
     "name" : "ANDROID_PRIORITY_HIGHEST"
    },
    {
     "enum_field_value" : 0,
     "name" : "ANDROID_PRIORITY_DEFAULT"
    },
    {
     "enum_field_value" : -1,
     "name" : "ANDROID_PRIORITY_MORE_FAVORABLE"
    },
    {
     "enum_field_value" : 1,
     "name" : "ANDROID_PRIORITY_LESS_FAVORABLE"
    }
   ],
   "linker_set_key" : "_ZTI23$ANDROID_PRIORITY_AUDIO",
   "name" : "(anonymous enum at system/core/libsystem/include/system/thread_defs.h:26:1)",
   "referenced_type" : "_ZTI23$ANDROID_PRIORITY_AUDIO",
   "self_type" : "_ZTI23$ANDROID_PRIORITY_AUDIO",
   "size" : 4,
   "source_file" : "/system/core/libsystem/include/system/thread_defs.h",
   "underlying_type" : "_ZTIi"
  },
  {
   "alignment" : 4,
   "enum_fields" :
   [
    {
     "enum_field_value" : 281411584,
     "name" : "HAL_DATASPACE_BT2020_ITU"
    },
    {
     "enum_field_value" : 298188800,
     "name" : "HAL_DATASPACE_BT2020_ITU_PQ"
    },
    {
     "enum_field_value" : 302383104,
     "name" : "HAL_DATASPACE_BT2020_ITU_HLG"
    },
    {
     "enum_field_value" : 168165376,
     "name" : "HAL_DATASPACE_BT2020_HLG"
    }
   ],
   "linker_set_key" : "_ZTI24android_dataspace_v1_1_t",
   "name" : "android_dataspace_v1_1_t",
   "referenced_type" : "_ZTI24android_dataspace_v1_1_t",
   "self_type" : "_ZTI24android_dataspace_v1_1_t",
   "size" : 4,
   "source_file" : "/system/core/libsystem/include/system/graphics-base-v1.1.h",
   "underlying_type" : "_ZTIj"
  },
  {
   "alignment" : 4,
   "enum_fields" :
   [
    {
     "enum_field_value" : 142999552,
     "name" : "HAL_DATASPACE_DISPLAY_BT2020"
    },
    {
     "enum_field_value" : 4098,
     "name" : "HAL_DATASPACE_DYNAMIC_DEPTH"
    },
    {
     "enum_field_value" : 4099,
     "name" : "HAL_DATASPACE_JPEG_APP_SEGMENTS"
    },
    {
     "enum_field_value" : 4100,
     "name" : "HAL_DATASPACE_HEIF"
    }
   ],
   "linker_set_key" : "_ZTI24android_dataspace_v1_2_t",
   "name" : "android_dataspace_v1_2_t",
   "referenced_type" : "_ZTI24android_dataspace_v1_2_t",
   "self_type" : "_ZTI24android_dataspace_v1_2_t",
   "size" : 4,
   "source_file" : "/system/core/libsystem/include/system/graphics-base-v1.2.h",
   "underlying_type" : "_ZTIj"
  },
  {
   "alignment" : 4,
   "enum_fields" :
   [
    {
     "enum_field_value" : 10,
     "name" : "HAL_COLOR_MODE_BT2020"
    },
    {
     "enum_field_value" : 11,
     "name" : "HAL_COLOR_MODE_BT2100_PQ"
    },
    {
     "enum_field_value" : 12,
     "name" : "HAL_COLOR_MODE_BT2100_HLG"
    }
   ],
   "linker_set_key" : "_ZTI25android_color_mode_v1_1_t",
   "name" : "android_color_mode_v1_1_t",
   "referenced_type" : "_ZTI25android_color_mode_v1_1_t",
   "self_type" : "_ZTI25android_color_mode_v1_1_t",
   "size" : 4,
   "source_file" : "/system/core/libsystem/include/system/graphics-base-v1.1.h",
   "underlying_type" : "_ZTIj"
  },
  {
   "alignment" : 4,
   "enum_fields" :
   [
    {
     "enum_field_value" : 0,
     "name" : "HAL_COLOR_TRANSFORM_IDENTITY"
    },
    {
     "enum_field_value" : 1,
     "name" : "HAL_COLOR_TRANSFORM_ARBITRARY_MATRIX"
    },
    {
     "enum_field_value" : 2,
     "name" : "HAL_COLOR_TRANSFORM_VALUE_INVERSE"
    },
    {
     "enum_field_value" : 3,
     "name" : "HAL_COLOR_TRANSFORM_GRAYSCALE"
    },
    {
     "enum_field_value" : 4,
     "name" : "HAL_COLOR_TRANSFORM_CORRECT_PROTANOPIA"
    },
    {
     "enum_field_value" : 5,
     "name" : "HAL_COLOR_TRANSFORM_CORRECT_DEUTERANOPIA"
    },
    {
     "enum_field_value" : 6,
     "name" : "HAL_COLOR_TRANSFORM_CORRECT_TRITANOPIA"
    }
   ],
   "linker_set_key" : "_ZTI25android_color_transform_t",
   "name" : "android_color_transform_t",
   "referenced_type" : "_ZTI25android_color_transform_t",
   "self_type" : "_ZTI25android_color_transform_t",
   "size" : 4,
   "source_file" : "/system/core/libsystem/include/system/graphics-base-v1.0.h",
   "underlying_type" : "_ZTIj"
  },
  {
   "alignment" : 4,
   "enum_fields" :
   [
    {
     "enum_field_value" : 39,
     "name" : "HAL_PIXEL_FORMAT_YCBCR_422_888"
    },
    {
     "enum_field_value" : 40,
     "name" : "HAL_PIXEL_FORMAT_YCBCR_444_888"
    },
    {
     "enum_field_value" : 41,
     "name" : "HAL_PIXEL_FORMAT_FLEX_RGB_888"
    },
    {
     "enum_field_value" : 42,
     "name" : "HAL_PIXEL_FORMAT_FLEX_RGBA_8888"
    }
   ],
   "linker_set_key" : "_ZTI25android_pixel_format_sw_t",
   "name" : "android_pixel_format_sw_t",
   "referenced_type" : "_ZTI25android_pixel_format_sw_t",
   "self_type" : "_ZTI25android_pixel_format_sw_t",
   "size" : 4,
   "source_file" : "/system/core/libsystem/include/system/graphics-sw.h",
   "underlying_type" : "_ZTIj"
  },
  {
   "alignment" : 4,
   "enum_fields" :
   [
    {
     "enum_field_value" : 48,
     "name" : "HAL_PIXEL_FORMAT_DEPTH_16"
    },
    {
     "enum_field_value" : 49,
     "name" : "HAL_PIXEL_FORMAT_DEPTH_24"
    },
    {
     "enum_field_value" : 50,
     "name" : "HAL_PIXEL_FORMAT_DEPTH_24_STENCIL_8"
    },
    {
     "enum_field_value" : 51,
     "name" : "HAL_PIXEL_FORMAT_DEPTH_32F"
    },
    {
     "enum_field_value" : 52,
     "name" : "HAL_PIXEL_FORMAT_DEPTH_32F_STENCIL_8"
    },
    {
     "enum_field_value" : 53,
     "name" : "HAL_PIXEL_FORMAT_STENCIL_8"
    },
    {
     "enum_field_value" : 54,
     "name" : "HAL_PIXEL_FORMAT_YCBCR_P010"
    }
   ],
   "linker_set_key" : "_ZTI27android_pixel_format_v1_1_t",
   "name" : "android_pixel_format_v1_1_t",
   "referenced_type" : "_ZTI27android_pixel_format_v1_1_t",
   "self_type" : "_ZTI27android_pixel_format_v1_1_t",
   "size" : 4,
   "source_file" : "/system/core/libsystem/include/system/graphics-base-v1.1.h",
   "underlying_type" : "_ZTIj"
  },
  {
   "alignment" : 4,
   "enum_fields" :
   [
    {
     "enum_field_value" : 55,
     "name" : "HAL_PIXEL_FORMAT_HSV_888"
    }
   ],
   "linker_set_key" : "_ZTI27android_pixel_format_v1_2_t",
   "name" : "android_pixel_format_v1_2_t",
   "referenced_type" : "_ZTI27android_pixel_format_v1_2_t",
   "self_type" : "_ZTI27android_pixel_format_v1_2_t",
   "size" : 4,
   "source_file" : "/system/core/libsystem/include/system/graphics-base-v1.2.h",
   "underlying_type" : "_ZTIj"
  },
  {
   "alignment" : 4,
   "enum_fields" :
   [
    {
     "enum_field_value" : 0,
     "name" : "HAL_RENDER_INTENT_COLORIMETRIC"
    },
    {
     "enum_field_value" : 1,
     "name" : "HAL_RENDER_INTENT_ENHANCE"
    },
    {
     "enum_field_value" : 2,
     "name" : "HAL_RENDER_INTENT_TONE_MAP_COLORIMETRIC"
    },
    {
     "enum_field_value" : 3,
     "name" : "HAL_RENDER_INTENT_TONE_MAP_ENHANCE"
    }
   ],
   "linker_set_key" : "_ZTI28android_render_intent_v1_1_t",
   "name" : "android_render_intent_v1_1_t",
   "referenced_type" : "_ZTI28android_render_intent_v1_1_t",
   "self_type" : "_ZTI28android_render_intent_v1_1_t",
   "size" : 4,
   "source_file" : "/system/core/libsystem/include/system/graphics-base-v1.1.h",
   "underlying_type" : "_ZTIj"
  },
  {
   "alignment" : 4,
   "enum_fields" :
   [
    {
     "enum_field_value" : 0,
     "name" : "LOG_ID_MIN"
    },
    {
     "enum_field_value" : 0,
     "name" : "LOG_ID_MAIN"
    },
    {
     "enum_field_value" : 1,
     "name" : "LOG_ID_RADIO"
    },
    {
     "enum_field_value" : 2,
     "name" : "LOG_ID_EVENTS"
    },
    {
     "enum_field_value" : 3,
     "name" : "LOG_ID_SYSTEM"
    },
    {
     "enum_field_value" : 4,
     "name" : "LOG_ID_CRASH"
    },
    {
     "enum_field_value" : 5,
     "name" : "LOG_ID_STATS"
    },
    {
     "enum_field_value" : 6,
     "name" : "LOG_ID_SECURITY"
    },
    {
     "enum_field_value" : 7,
     "name" : "LOG_ID_KERNEL"
    },
    {
     "enum_field_value" : 8,
     "name" : "LOG_ID_MAX"
    },
    {
     "enum_field_value" : 2147483647,
     "name" : "LOG_ID_DEFAULT"
    }
   ],
   "linker_set_key" : "_ZTI6log_id",
   "name" : "log_id",
   "referenced_type" : "_ZTI6log_id",
   "self_type" : "_ZTI6log_id",
   "size" : 4,
   "source_file" : "/system/core/liblog/include/android/log.h",
   "underlying_type" : "_ZTIj"
  },
  {
   "alignment" : 4,
   "enum_fields" :
   [
    {
     "enum_field_value" : 1,
     "name" : "android::VectorImpl::HAS_TRIVIAL_CTOR"
    },
    {
     "enum_field_value" : 2,
     "name" : "android::VectorImpl::HAS_TRIVIAL_DTOR"
    },
    {
     "enum_field_value" : 4,
     "name" : "android::VectorImpl::HAS_TRIVIAL_COPY"
    }
   ],
   "linker_set_key" : "_ZTIN7android10VectorImpl17$HAS_TRIVIAL_COPYE",
   "name" : "android::VectorImpl::(anonymous enum at system/core/libutils/include/utils/VectorImpl.h:43:5)",
   "referenced_type" : "_ZTIN7android10VectorImpl17$HAS_TRIVIAL_COPYE",
   "self_type" : "_ZTIN7android10VectorImpl17$HAS_TRIVIAL_COPYE",
   "size" : 4,
   "source_file" : "/system/core/libutils/include/utils/VectorImpl.h",
   "underlying_type" : "_ZTIj"
  },
  {
   "alignment" : 4,
   "enum_fields" :
   [
    {
     "enum_field_value" : 0,
     "name" : "android::OK"
    },
    {
     "enum_field_value" : 0,
     "name" : "android::NO_ERROR"
    },
    {
     "enum_field_value" : -2147483648,
     "name" : "android::UNKNOWN_ERROR"
    },
    {
     "enum_field_value" : -12,
     "name" : "android::NO_MEMORY"
    },
    {
     "enum_field_value" : -38,
     "name" : "android::INVALID_OPERATION"
    },
    {
     "enum_field_value" : -22,
     "name" : "android::BAD_VALUE"
    },
    {
     "enum_field_value" : -2147483647,
     "name" : "android::BAD_TYPE"
    },
    {
     "enum_field_value" : -2,
     "name" : "android::NAME_NOT_FOUND"
    },
    {
     "enum_field_value" : -1,
     "name" : "android::PERMISSION_DENIED"
    },
    {
     "enum_field_value" : -19,
     "name" : "android::NO_INIT"
    },
    {
     "enum_field_value" : -17,
     "name" : "android::ALREADY_EXISTS"
    },
    {
     "enum_field_value" : -32,
     "name" : "android::DEAD_OBJECT"
    },
    {
     "enum_field_value" : -2147483646,
     "name" : "android::FAILED_TRANSACTION"
    },
    {
     "enum_field_value" : -75,
     "name" : "android::BAD_INDEX"
    },
    {
     "enum_field_value" : -61,
     "name" : "android::NOT_ENOUGH_DATA"
    },
    {
     "enum_field_value" : -11,
     "name" : "android::WOULD_BLOCK"
    },
    {
     "enum_field_value" : -110,
     "name" : "android::TIMED_OUT"
    },
    {
     "enum_field_value" : -74,
     "name" : "android::UNKNOWN_TRANSACTION"
    },
    {
     "enum_field_value" : -2147483641,
     "name" : "android::FDS_NOT_ALLOWED"
    },
    {
     "enum_field_value" : -2147483640,
     "name" : "android::UNEXPECTED_NULL"
    }
   ],
   "linker_set_key" : "_ZTIN7android15$ALREADY_EXISTSE",
   "name" : "android::(anonymous enum at system/core/libutils/include/utils/Errors.h:43:1)",
   "referenced_type" : "_ZTIN7android15$ALREADY_EXISTSE",
   "self_type" : "_ZTIN7android15$ALREADY_EXISTSE",
   "size" : 4,
   "source_file" : "/system/core/libutils/include/utils/Errors.h",
   "underlying_type" : "_ZTIi"
  },
  {
   "alignment" : 4,
   "enum_fields" :
   [
    {
     "enum_field_value" : 19,
     "name" : "android::PRIORITY_LOWEST"
    },
    {
     "enum_field_value" : 10,
     "name" : "android::PRIORITY_BACKGROUND"
    },
    {
     "enum_field_value" : 0,
     "name" : "android::PRIORITY_NORMAL"
    },
    {
     "enum_field_value" : -2,
     "name" : "android::PRIORITY_FOREGROUND"
    },
    {
     "enum_field_value" : -4,
     "name" : "android::PRIORITY_DISPLAY"
    },
    {
     "enum_field_value" : -8,
     "name" : "android::PRIORITY_URGENT_DISPLAY"
    },
    {
     "enum_field_value" : -16,
     "name" : "android::PRIORITY_AUDIO"
    },
    {
     "enum_field_value" : -19,
     "name" : "android::PRIORITY_URGENT_AUDIO"
    },
    {
     "enum_field_value" : -20,
     "name" : "android::PRIORITY_HIGHEST"
    },
    {
     "enum_field_value" : 0,
     "name" : "android::PRIORITY_DEFAULT"
    },
    {
     "enum_field_value" : -1,
     "name" : "android::PRIORITY_MORE_FAVORABLE"
    },
    {
     "enum_field_value" : 1,
     "name" : "android::PRIORITY_LESS_FAVORABLE"
    }
   ],
   "linker_set_key" : "_ZTIN7android15$PRIORITY_AUDIOE",
   "name" : "android::(anonymous enum at system/core/libutils/include/utils/ThreadDefs.h:53:1)",
   "referenced_type" : "_ZTIN7android15$PRIORITY_AUDIOE",
   "self_type" : "_ZTIN7android15$PRIORITY_AUDIOE",
   "size" : 4,
   "source_file" : "/system/core/libutils/include/utils/ThreadDefs.h",
   "underlying_type" : "_ZTIi"
  },
  {
   "alignment" : 4,
   "enum_fields" :
   [
    {
     "enum_field_value" : 1,
     "name" : "android::trait_trivial_copy<bool>::value"
    }
   ],
   "linker_set_key" : "_ZTIN7android18trait_trivial_copyIbE6$valueE",
   "name" : "android::trait_trivial_copy<bool>::(anonymous enum at system/core/libutils/include/utils/TypeHelpers.h:98:1)",
   "referenced_type" : "_ZTIN7android18trait_trivial_copyIbE6$valueE",
   "self_type" : "_ZTIN7android18trait_trivial_copyIbE6$valueE",
   "size" : 4,
   "source_file" : "/system/core/libutils/include/utils/TypeHelpers.h",
   "underlying_type" : "_ZTIj"
  },
  {
   "alignment" : 4,
   "enum_fields" :
   [
    {
     "enum_field_value" : 1,
     "name" : "android::trait_trivial_copy<char>::value"
    }
   ],
   "linker_set_key" : "_ZTIN7android18trait_trivial_copyIcE6$valueE",
   "name" : "android::trait_trivial_copy<char>::(anonymous enum at system/core/libutils/include/utils/TypeHelpers.h:99:1)",
   "referenced_type" : "_ZTIN7android18trait_trivial_copyIcE6$valueE",
   "self_type" : "_ZTIN7android18trait_trivial_copyIcE6$valueE",
   "size" : 4,
   "source_file" : "/system/core/libutils/include/utils/TypeHelpers.h",
   "underlying_type" : "_ZTIj"
  },
  {
   "alignment" : 4,
   "enum_fields" :
   [
    {
     "enum_field_value" : 1,
     "name" : "android::trait_trivial_copy<double>::value"
    }
   ],
   "linker_set_key" : "_ZTIN7android18trait_trivial_copyIdE6$valueE",
   "name" : "android::trait_trivial_copy<double>::(anonymous enum at system/core/libutils/include/utils/TypeHelpers.h:110:1)",
   "referenced_type" : "_ZTIN7android18trait_trivial_copyIdE6$valueE",
   "self_type" : "_ZTIN7android18trait_trivial_copyIdE6$valueE",
   "size" : 4,
   "source_file" : "/system/core/libutils/include/utils/TypeHelpers.h",
   "underlying_type" : "_ZTIj"
  },
  {
   "alignment" : 4,
   "enum_fields" :
   [
    {
     "enum_field_value" : 1,
     "name" : "android::trait_trivial_copy<float>::value"
    }
   ],
   "linker_set_key" : "_ZTIN7android18trait_trivial_copyIfE6$valueE",
   "name" : "android::trait_trivial_copy<float>::(anonymous enum at system/core/libutils/include/utils/TypeHelpers.h:109:1)",
   "referenced_type" : "_ZTIN7android18trait_trivial_copyIfE6$valueE",
   "self_type" : "_ZTIN7android18trait_trivial_copyIfE6$valueE",
   "size" : 4,
   "source_file" : "/system/core/libutils/include/utils/TypeHelpers.h",
   "underlying_type" : "_ZTIj"
  },
  {
   "alignment" : 4,
   "enum_fields" :
   [
    {
     "enum_field_value" : 1,
     "name" : "android::trait_trivial_copy<unsigned char>::value"
    }
   ],
   "linker_set_key" : "_ZTIN7android18trait_trivial_copyIhE6$valueE",
   "name" : "android::trait_trivial_copy<unsigned char>::(anonymous enum at system/core/libutils/include/utils/TypeHelpers.h:100:1)",
   "referenced_type" : "_ZTIN7android18trait_trivial_copyIhE6$valueE",
   "self_type" : "_ZTIN7android18trait_trivial_copyIhE6$valueE",
   "size" : 4,
   "source_file" : "/system/core/libutils/include/utils/TypeHelpers.h",
   "underlying_type" : "_ZTIj"
  },
  {
   "alignment" : 4,
   "enum_fields" :
   [
    {
     "enum_field_value" : 1,
     "name" : "android::trait_trivial_copy<int>::value"
    }
   ],
   "linker_set_key" : "_ZTIN7android18trait_trivial_copyIiE6$valueE",
   "name" : "android::trait_trivial_copy<int>::(anonymous enum at system/core/libutils/include/utils/TypeHelpers.h:103:1)",
   "referenced_type" : "_ZTIN7android18trait_trivial_copyIiE6$valueE",
   "self_type" : "_ZTIN7android18trait_trivial_copyIiE6$valueE",
   "size" : 4,
   "source_file" : "/system/core/libutils/include/utils/TypeHelpers.h",
   "underlying_type" : "_ZTIj"
  },
  {
   "alignment" : 4,
   "enum_fields" :
   [
    {
     "enum_field_value" : 1,
     "name" : "android::trait_trivial_copy<unsigned int>::value"
    }
   ],
   "linker_set_key" : "_ZTIN7android18trait_trivial_copyIjE6$valueE",
   "name" : "android::trait_trivial_copy<unsigned int>::(anonymous enum at system/core/libutils/include/utils/TypeHelpers.h:104:1)",
   "referenced_type" : "_ZTIN7android18trait_trivial_copyIjE6$valueE",
   "self_type" : "_ZTIN7android18trait_trivial_copyIjE6$valueE",
   "size" : 4,
   "source_file" : "/system/core/libutils/include/utils/TypeHelpers.h",
   "underlying_type" : "_ZTIj"
  },
  {
   "alignment" : 4,
   "enum_fields" :
   [
    {
     "enum_field_value" : 1,
     "name" : "android::trait_trivial_copy<long>::value"
    }
   ],
   "linker_set_key" : "_ZTIN7android18trait_trivial_copyIlE6$valueE",
   "name" : "android::trait_trivial_copy<long>::(anonymous enum at system/core/libutils/include/utils/TypeHelpers.h:105:1)",
   "referenced_type" : "_ZTIN7android18trait_trivial_copyIlE6$valueE",
   "self_type" : "_ZTIN7android18trait_trivial_copyIlE6$valueE",
   "size" : 4,
   "source_file" : "/system/core/libutils/include/utils/TypeHelpers.h",
   "underlying_type" : "_ZTIj"
  },
  {
   "alignment" : 4,
   "enum_fields" :
   [
    {
     "enum_field_value" : 1,
     "name" : "android::trait_trivial_copy<unsigned long>::value"
    }
   ],
   "linker_set_key" : "_ZTIN7android18trait_trivial_copyImE6$valueE",
   "name" : "android::trait_trivial_copy<unsigned long>::(anonymous enum at system/core/libutils/include/utils/TypeHelpers.h:106:1)",
   "referenced_type" : "_ZTIN7android18trait_trivial_copyImE6$valueE",
   "self_type" : "_ZTIN7android18trait_trivial_copyImE6$valueE",
   "size" : 4,
   "source_file" : "/system/core/libutils/include/utils/TypeHelpers.h",
   "underlying_type" : "_ZTIj"
  },
  {
   "alignment" : 4,
   "enum_fields" :
   [
    {
     "enum_field_value" : 1,
     "name" : "android::trait_trivial_copy<short>::value"
    }
   ],
   "linker_set_key" : "_ZTIN7android18trait_trivial_copyIsE6$valueE",
   "name" : "android::trait_trivial_copy<short>::(anonymous enum at system/core/libutils/include/utils/TypeHelpers.h:101:1)",
   "referenced_type" : "_ZTIN7android18trait_trivial_copyIsE6$valueE",
   "self_type" : "_ZTIN7android18trait_trivial_copyIsE6$valueE",
   "size" : 4,
   "source_file" : "/system/core/libutils/include/utils/TypeHelpers.h",
   "underlying_type" : "_ZTIj"
  },
  {
   "alignment" : 4,
   "enum_fields" :
   [
    {
     "enum_field_value" : 1,
     "name" : "android::trait_trivial_copy<unsigned short>::value"
    }
   ],
   "linker_set_key" : "_ZTIN7android18trait_trivial_copyItE6$valueE",
   "name" : "android::trait_trivial_copy<unsigned short>::(anonymous enum at system/core/libutils/include/utils/TypeHelpers.h:102:1)",
   "referenced_type" : "_ZTIN7android18trait_trivial_copyItE6$valueE",
   "self_type" : "_ZTIN7android18trait_trivial_copyItE6$valueE",
   "size" : 4,
   "source_file" : "/system/core/libutils/include/utils/TypeHelpers.h",
   "underlying_type" : "_ZTIj"
  },
  {
   "alignment" : 4,
   "enum_fields" :
   [
    {
     "enum_field_value" : 1,
     "name" : "android::trait_trivial_copy<void>::value"
    }
   ],
   "linker_set_key" : "_ZTIN7android18trait_trivial_copyIvE6$valueE",
   "name" : "android::trait_trivial_copy<void>::(anonymous enum at system/core/libutils/include/utils/TypeHelpers.h:97:1)",
   "referenced_type" : "_ZTIN7android18trait_trivial_copyIvE6$valueE",
   "self_type" : "_ZTIN7android18trait_trivial_copyIvE6$valueE",
   "size" : 4,
   "source_file" : "/system/core/libutils/include/utils/TypeHelpers.h",
   "underlying_type" : "_ZTIj"
  },
  {
   "alignment" : 4,
   "enum_fields" :
   [
    {
     "enum_field_value" : 1,
     "name" : "android::trait_trivial_copy<long long>::value"
    }
   ],
   "linker_set_key" : "_ZTIN7android18trait_trivial_copyIxE6$valueE",
   "name" : "android::trait_trivial_copy<long long>::(anonymous enum at system/core/libutils/include/utils/TypeHelpers.h:107:1)",
   "referenced_type" : "_ZTIN7android18trait_trivial_copyIxE6$valueE",
   "self_type" : "_ZTIN7android18trait_trivial_copyIxE6$valueE",
   "size" : 4,
   "source_file" : "/system/core/libutils/include/utils/TypeHelpers.h",
   "underlying_type" : "_ZTIj"
  },
  {
   "alignment" : 4,
   "enum_fields" :
   [
    {
     "enum_field_value" : 1,
     "name" : "android::trait_trivial_copy<unsigned long long>::value"
    }
   ],
   "linker_set_key" : "_ZTIN7android18trait_trivial_copyIyE6$valueE",
   "name" : "android::trait_trivial_copy<unsigned long long>::(anonymous enum at system/core/libutils/include/utils/TypeHelpers.h:108:1)",
   "referenced_type" : "_ZTIN7android18trait_trivial_copyIyE6$valueE",
   "self_type" : "_ZTIN7android18trait_trivial_copyIyE6$valueE",
   "size" : 4,
   "source_file" : "/system/core/libutils/include/utils/TypeHelpers.h",
   "underlying_type" : "_ZTIj"
  },
  {
   "alignment" : 4,
   "enum_fields" :
   [
    {
     "enum_field_value" : 1,
     "name" : "android::trait_trivial_ctor<bool>::value"
    }
   ],
   "linker_set_key" : "_ZTIN7android18trait_trivial_ctorIbE6$valueE",
   "name" : "android::trait_trivial_ctor<bool>::(anonymous enum at system/core/libutils/include/utils/TypeHelpers.h:98:1)",
   "referenced_type" : "_ZTIN7android18trait_trivial_ctorIbE6$valueE",
   "self_type" : "_ZTIN7android18trait_trivial_ctorIbE6$valueE",
   "size" : 4,
   "source_file" : "/system/core/libutils/include/utils/TypeHelpers.h",
   "underlying_type" : "_ZTIj"
  },
  {
   "alignment" : 4,
   "enum_fields" :
   [
    {
     "enum_field_value" : 1,
     "name" : "android::trait_trivial_ctor<char>::value"
    }
   ],
   "linker_set_key" : "_ZTIN7android18trait_trivial_ctorIcE6$valueE",
   "name" : "android::trait_trivial_ctor<char>::(anonymous enum at system/core/libutils/include/utils/TypeHelpers.h:99:1)",
   "referenced_type" : "_ZTIN7android18trait_trivial_ctorIcE6$valueE",
   "self_type" : "_ZTIN7android18trait_trivial_ctorIcE6$valueE",
   "size" : 4,
   "source_file" : "/system/core/libutils/include/utils/TypeHelpers.h",
   "underlying_type" : "_ZTIj"
  },
  {
   "alignment" : 4,
   "enum_fields" :
   [
    {
     "enum_field_value" : 1,
     "name" : "android::trait_trivial_ctor<double>::value"
    }
   ],
   "linker_set_key" : "_ZTIN7android18trait_trivial_ctorIdE6$valueE",
   "name" : "android::trait_trivial_ctor<double>::(anonymous enum at system/core/libutils/include/utils/TypeHelpers.h:110:1)",
   "referenced_type" : "_ZTIN7android18trait_trivial_ctorIdE6$valueE",
   "self_type" : "_ZTIN7android18trait_trivial_ctorIdE6$valueE",
   "size" : 4,
   "source_file" : "/system/core/libutils/include/utils/TypeHelpers.h",
   "underlying_type" : "_ZTIj"
  },
  {
   "alignment" : 4,
   "enum_fields" :
   [
    {
     "enum_field_value" : 1,
     "name" : "android::trait_trivial_ctor<float>::value"
    }
   ],
   "linker_set_key" : "_ZTIN7android18trait_trivial_ctorIfE6$valueE",
   "name" : "android::trait_trivial_ctor<float>::(anonymous enum at system/core/libutils/include/utils/TypeHelpers.h:109:1)",
   "referenced_type" : "_ZTIN7android18trait_trivial_ctorIfE6$valueE",
   "self_type" : "_ZTIN7android18trait_trivial_ctorIfE6$valueE",
   "size" : 4,
   "source_file" : "/system/core/libutils/include/utils/TypeHelpers.h",
   "underlying_type" : "_ZTIj"
  },
  {
   "alignment" : 4,
   "enum_fields" :
   [
    {
     "enum_field_value" : 1,
     "name" : "android::trait_trivial_ctor<unsigned char>::value"
    }
   ],
   "linker_set_key" : "_ZTIN7android18trait_trivial_ctorIhE6$valueE",
   "name" : "android::trait_trivial_ctor<unsigned char>::(anonymous enum at system/core/libutils/include/utils/TypeHelpers.h:100:1)",
   "referenced_type" : "_ZTIN7android18trait_trivial_ctorIhE6$valueE",
   "self_type" : "_ZTIN7android18trait_trivial_ctorIhE6$valueE",
   "size" : 4,
   "source_file" : "/system/core/libutils/include/utils/TypeHelpers.h",
   "underlying_type" : "_ZTIj"
  },
  {
   "alignment" : 4,
   "enum_fields" :
   [
    {
     "enum_field_value" : 1,
     "name" : "android::trait_trivial_ctor<int>::value"
    }
   ],
   "linker_set_key" : "_ZTIN7android18trait_trivial_ctorIiE6$valueE",
   "name" : "android::trait_trivial_ctor<int>::(anonymous enum at system/core/libutils/include/utils/TypeHelpers.h:103:1)",
   "referenced_type" : "_ZTIN7android18trait_trivial_ctorIiE6$valueE",
   "self_type" : "_ZTIN7android18trait_trivial_ctorIiE6$valueE",
   "size" : 4,
   "source_file" : "/system/core/libutils/include/utils/TypeHelpers.h",
   "underlying_type" : "_ZTIj"
  },
  {
   "alignment" : 4,
   "enum_fields" :
   [
    {
     "enum_field_value" : 1,
     "name" : "android::trait_trivial_ctor<unsigned int>::value"
    }
   ],
   "linker_set_key" : "_ZTIN7android18trait_trivial_ctorIjE6$valueE",
   "name" : "android::trait_trivial_ctor<unsigned int>::(anonymous enum at system/core/libutils/include/utils/TypeHelpers.h:104:1)",
   "referenced_type" : "_ZTIN7android18trait_trivial_ctorIjE6$valueE",
   "self_type" : "_ZTIN7android18trait_trivial_ctorIjE6$valueE",
   "size" : 4,
   "source_file" : "/system/core/libutils/include/utils/TypeHelpers.h",
   "underlying_type" : "_ZTIj"
  },
  {
   "alignment" : 4,
   "enum_fields" :
   [
    {
     "enum_field_value" : 1,
     "name" : "android::trait_trivial_ctor<long>::value"
    }
   ],
   "linker_set_key" : "_ZTIN7android18trait_trivial_ctorIlE6$valueE",
   "name" : "android::trait_trivial_ctor<long>::(anonymous enum at system/core/libutils/include/utils/TypeHelpers.h:105:1)",
   "referenced_type" : "_ZTIN7android18trait_trivial_ctorIlE6$valueE",
   "self_type" : "_ZTIN7android18trait_trivial_ctorIlE6$valueE",
   "size" : 4,
   "source_file" : "/system/core/libutils/include/utils/TypeHelpers.h",
   "underlying_type" : "_ZTIj"
  },
  {
   "alignment" : 4,
   "enum_fields" :
   [
    {
     "enum_field_value" : 1,
     "name" : "android::trait_trivial_ctor<unsigned long>::value"
    }
   ],
   "linker_set_key" : "_ZTIN7android18trait_trivial_ctorImE6$valueE",
   "name" : "android::trait_trivial_ctor<unsigned long>::(anonymous enum at system/core/libutils/include/utils/TypeHelpers.h:106:1)",
   "referenced_type" : "_ZTIN7android18trait_trivial_ctorImE6$valueE",
   "self_type" : "_ZTIN7android18trait_trivial_ctorImE6$valueE",
   "size" : 4,
   "source_file" : "/system/core/libutils/include/utils/TypeHelpers.h",
   "underlying_type" : "_ZTIj"
  },
  {
   "alignment" : 4,
   "enum_fields" :
   [
    {
     "enum_field_value" : 1,
     "name" : "android::trait_trivial_ctor<short>::value"
    }
   ],
   "linker_set_key" : "_ZTIN7android18trait_trivial_ctorIsE6$valueE",
   "name" : "android::trait_trivial_ctor<short>::(anonymous enum at system/core/libutils/include/utils/TypeHelpers.h:101:1)",
   "referenced_type" : "_ZTIN7android18trait_trivial_ctorIsE6$valueE",
   "self_type" : "_ZTIN7android18trait_trivial_ctorIsE6$valueE",
   "size" : 4,
   "source_file" : "/system/core/libutils/include/utils/TypeHelpers.h",
   "underlying_type" : "_ZTIj"
  },
  {
   "alignment" : 4,
   "enum_fields" :
   [
    {
     "enum_field_value" : 1,
     "name" : "android::trait_trivial_ctor<unsigned short>::value"
    }
   ],
   "linker_set_key" : "_ZTIN7android18trait_trivial_ctorItE6$valueE",
   "name" : "android::trait_trivial_ctor<unsigned short>::(anonymous enum at system/core/libutils/include/utils/TypeHelpers.h:102:1)",
   "referenced_type" : "_ZTIN7android18trait_trivial_ctorItE6$valueE",
   "self_type" : "_ZTIN7android18trait_trivial_ctorItE6$valueE",
   "size" : 4,
   "source_file" : "/system/core/libutils/include/utils/TypeHelpers.h",
   "underlying_type" : "_ZTIj"
  },
  {
   "alignment" : 4,
   "enum_fields" :
   [
    {
     "enum_field_value" : 1,
     "name" : "android::trait_trivial_ctor<void>::value"
    }
   ],
   "linker_set_key" : "_ZTIN7android18trait_trivial_ctorIvE6$valueE",
   "name" : "android::trait_trivial_ctor<void>::(anonymous enum at system/core/libutils/include/utils/TypeHelpers.h:97:1)",
   "referenced_type" : "_ZTIN7android18trait_trivial_ctorIvE6$valueE",
   "self_type" : "_ZTIN7android18trait_trivial_ctorIvE6$valueE",
   "size" : 4,
   "source_file" : "/system/core/libutils/include/utils/TypeHelpers.h",
   "underlying_type" : "_ZTIj"
  },
  {
   "alignment" : 4,
   "enum_fields" :
   [
    {
     "enum_field_value" : 1,
     "name" : "android::trait_trivial_ctor<long long>::value"
    }
   ],
   "linker_set_key" : "_ZTIN7android18trait_trivial_ctorIxE6$valueE",
   "name" : "android::trait_trivial_ctor<long long>::(anonymous enum at system/core/libutils/include/utils/TypeHelpers.h:107:1)",
   "referenced_type" : "_ZTIN7android18trait_trivial_ctorIxE6$valueE",
   "self_type" : "_ZTIN7android18trait_trivial_ctorIxE6$valueE",
   "size" : 4,
   "source_file" : "/system/core/libutils/include/utils/TypeHelpers.h",
   "underlying_type" : "_ZTIj"
  },
  {
   "alignment" : 4,
   "enum_fields" :
   [
    {
     "enum_field_value" : 1,
     "name" : "android::trait_trivial_ctor<unsigned long long>::value"
    }
   ],
   "linker_set_key" : "_ZTIN7android18trait_trivial_ctorIyE6$valueE",
   "name" : "android::trait_trivial_ctor<unsigned long long>::(anonymous enum at system/core/libutils/include/utils/TypeHelpers.h:108:1)",
   "referenced_type" : "_ZTIN7android18trait_trivial_ctorIyE6$valueE",
   "self_type" : "_ZTIN7android18trait_trivial_ctorIyE6$valueE",
   "size" : 4,
   "source_file" : "/system/core/libutils/include/utils/TypeHelpers.h",
   "underlying_type" : "_ZTIj"
  },
  {
   "alignment" : 4,
   "enum_fields" :
   [
    {
     "enum_field_value" : 1,
     "name" : "android::trait_trivial_dtor<bool>::value"
    }
   ],
   "linker_set_key" : "_ZTIN7android18trait_trivial_dtorIbE6$valueE",
   "name" : "android::trait_trivial_dtor<bool>::(anonymous enum at system/core/libutils/include/utils/TypeHelpers.h:98:1)",
   "referenced_type" : "_ZTIN7android18trait_trivial_dtorIbE6$valueE",
   "self_type" : "_ZTIN7android18trait_trivial_dtorIbE6$valueE",
   "size" : 4,
   "source_file" : "/system/core/libutils/include/utils/TypeHelpers.h",
   "underlying_type" : "_ZTIj"
  },
  {
   "alignment" : 4,
   "enum_fields" :
   [
    {
     "enum_field_value" : 1,
     "name" : "android::trait_trivial_dtor<char>::value"
    }
   ],
   "linker_set_key" : "_ZTIN7android18trait_trivial_dtorIcE6$valueE",
   "name" : "android::trait_trivial_dtor<char>::(anonymous enum at system/core/libutils/include/utils/TypeHelpers.h:99:1)",
   "referenced_type" : "_ZTIN7android18trait_trivial_dtorIcE6$valueE",
   "self_type" : "_ZTIN7android18trait_trivial_dtorIcE6$valueE",
   "size" : 4,
   "source_file" : "/system/core/libutils/include/utils/TypeHelpers.h",
   "underlying_type" : "_ZTIj"
  },
  {
   "alignment" : 4,
   "enum_fields" :
   [
    {
     "enum_field_value" : 1,
     "name" : "android::trait_trivial_dtor<double>::value"
    }
   ],
   "linker_set_key" : "_ZTIN7android18trait_trivial_dtorIdE6$valueE",
   "name" : "android::trait_trivial_dtor<double>::(anonymous enum at system/core/libutils/include/utils/TypeHelpers.h:110:1)",
   "referenced_type" : "_ZTIN7android18trait_trivial_dtorIdE6$valueE",
   "self_type" : "_ZTIN7android18trait_trivial_dtorIdE6$valueE",
   "size" : 4,
   "source_file" : "/system/core/libutils/include/utils/TypeHelpers.h",
   "underlying_type" : "_ZTIj"
  },
  {
   "alignment" : 4,
   "enum_fields" :
   [
    {
     "enum_field_value" : 1,
     "name" : "android::trait_trivial_dtor<float>::value"
    }
   ],
   "linker_set_key" : "_ZTIN7android18trait_trivial_dtorIfE6$valueE",
   "name" : "android::trait_trivial_dtor<float>::(anonymous enum at system/core/libutils/include/utils/TypeHelpers.h:109:1)",
   "referenced_type" : "_ZTIN7android18trait_trivial_dtorIfE6$valueE",
   "self_type" : "_ZTIN7android18trait_trivial_dtorIfE6$valueE",
   "size" : 4,
   "source_file" : "/system/core/libutils/include/utils/TypeHelpers.h",
   "underlying_type" : "_ZTIj"
  },
  {
   "alignment" : 4,
   "enum_fields" :
   [
    {
     "enum_field_value" : 1,
     "name" : "android::trait_trivial_dtor<unsigned char>::value"
    }
   ],
   "linker_set_key" : "_ZTIN7android18trait_trivial_dtorIhE6$valueE",
   "name" : "android::trait_trivial_dtor<unsigned char>::(anonymous enum at system/core/libutils/include/utils/TypeHelpers.h:100:1)",
   "referenced_type" : "_ZTIN7android18trait_trivial_dtorIhE6$valueE",
   "self_type" : "_ZTIN7android18trait_trivial_dtorIhE6$valueE",
   "size" : 4,
   "source_file" : "/system/core/libutils/include/utils/TypeHelpers.h",
   "underlying_type" : "_ZTIj"
  },
  {
   "alignment" : 4,
   "enum_fields" :
   [
    {
     "enum_field_value" : 1,
     "name" : "android::trait_trivial_dtor<int>::value"
    }
   ],
   "linker_set_key" : "_ZTIN7android18trait_trivial_dtorIiE6$valueE",
   "name" : "android::trait_trivial_dtor<int>::(anonymous enum at system/core/libutils/include/utils/TypeHelpers.h:103:1)",
   "referenced_type" : "_ZTIN7android18trait_trivial_dtorIiE6$valueE",
   "self_type" : "_ZTIN7android18trait_trivial_dtorIiE6$valueE",
   "size" : 4,
   "source_file" : "/system/core/libutils/include/utils/TypeHelpers.h",
   "underlying_type" : "_ZTIj"
  },
  {
   "alignment" : 4,
   "enum_fields" :
   [
    {
     "enum_field_value" : 1,
     "name" : "android::trait_trivial_dtor<unsigned int>::value"
    }
   ],
   "linker_set_key" : "_ZTIN7android18trait_trivial_dtorIjE6$valueE",
   "name" : "android::trait_trivial_dtor<unsigned int>::(anonymous enum at system/core/libutils/include/utils/TypeHelpers.h:104:1)",
   "referenced_type" : "_ZTIN7android18trait_trivial_dtorIjE6$valueE",
   "self_type" : "_ZTIN7android18trait_trivial_dtorIjE6$valueE",
   "size" : 4,
   "source_file" : "/system/core/libutils/include/utils/TypeHelpers.h",
   "underlying_type" : "_ZTIj"
  },
  {
   "alignment" : 4,
   "enum_fields" :
   [
    {
     "enum_field_value" : 1,
     "name" : "android::trait_trivial_dtor<long>::value"
    }
   ],
   "linker_set_key" : "_ZTIN7android18trait_trivial_dtorIlE6$valueE",
   "name" : "android::trait_trivial_dtor<long>::(anonymous enum at system/core/libutils/include/utils/TypeHelpers.h:105:1)",
   "referenced_type" : "_ZTIN7android18trait_trivial_dtorIlE6$valueE",
   "self_type" : "_ZTIN7android18trait_trivial_dtorIlE6$valueE",
   "size" : 4,
   "source_file" : "/system/core/libutils/include/utils/TypeHelpers.h",
   "underlying_type" : "_ZTIj"
  },
  {
   "alignment" : 4,
   "enum_fields" :
   [
    {
     "enum_field_value" : 1,
     "name" : "android::trait_trivial_dtor<unsigned long>::value"
    }
   ],
   "linker_set_key" : "_ZTIN7android18trait_trivial_dtorImE6$valueE",
   "name" : "android::trait_trivial_dtor<unsigned long>::(anonymous enum at system/core/libutils/include/utils/TypeHelpers.h:106:1)",
   "referenced_type" : "_ZTIN7android18trait_trivial_dtorImE6$valueE",
   "self_type" : "_ZTIN7android18trait_trivial_dtorImE6$valueE",
   "size" : 4,
   "source_file" : "/system/core/libutils/include/utils/TypeHelpers.h",
   "underlying_type" : "_ZTIj"
  },
  {
   "alignment" : 4,
   "enum_fields" :
   [
    {
     "enum_field_value" : 1,
     "name" : "android::trait_trivial_dtor<short>::value"
    }
   ],
   "linker_set_key" : "_ZTIN7android18trait_trivial_dtorIsE6$valueE",
   "name" : "android::trait_trivial_dtor<short>::(anonymous enum at system/core/libutils/include/utils/TypeHelpers.h:101:1)",
   "referenced_type" : "_ZTIN7android18trait_trivial_dtorIsE6$valueE",
   "self_type" : "_ZTIN7android18trait_trivial_dtorIsE6$valueE",
   "size" : 4,
   "source_file" : "/system/core/libutils/include/utils/TypeHelpers.h",
   "underlying_type" : "_ZTIj"
  },
  {
   "alignment" : 4,
   "enum_fields" :
   [
    {
     "enum_field_value" : 1,
     "name" : "android::trait_trivial_dtor<unsigned short>::value"
    }
   ],
   "linker_set_key" : "_ZTIN7android18trait_trivial_dtorItE6$valueE",
   "name" : "android::trait_trivial_dtor<unsigned short>::(anonymous enum at system/core/libutils/include/utils/TypeHelpers.h:102:1)",
   "referenced_type" : "_ZTIN7android18trait_trivial_dtorItE6$valueE",
   "self_type" : "_ZTIN7android18trait_trivial_dtorItE6$valueE",
   "size" : 4,
   "source_file" : "/system/core/libutils/include/utils/TypeHelpers.h",
   "underlying_type" : "_ZTIj"
  },
  {
   "alignment" : 4,
   "enum_fields" :
   [
    {
     "enum_field_value" : 1,
     "name" : "android::trait_trivial_dtor<void>::value"
    }
   ],
   "linker_set_key" : "_ZTIN7android18trait_trivial_dtorIvE6$valueE",
   "name" : "android::trait_trivial_dtor<void>::(anonymous enum at system/core/libutils/include/utils/TypeHelpers.h:97:1)",
   "referenced_type" : "_ZTIN7android18trait_trivial_dtorIvE6$valueE",
   "self_type" : "_ZTIN7android18trait_trivial_dtorIvE6$valueE",
   "size" : 4,
   "source_file" : "/system/core/libutils/include/utils/TypeHelpers.h",
   "underlying_type" : "_ZTIj"
  },
  {
   "alignment" : 4,
   "enum_fields" :
   [
    {
     "enum_field_value" : 1,
     "name" : "android::trait_trivial_dtor<long long>::value"
    }
   ],
   "linker_set_key" : "_ZTIN7android18trait_trivial_dtorIxE6$valueE",
   "name" : "android::trait_trivial_dtor<long long>::(anonymous enum at system/core/libutils/include/utils/TypeHelpers.h:107:1)",
   "referenced_type" : "_ZTIN7android18trait_trivial_dtorIxE6$valueE",
   "self_type" : "_ZTIN7android18trait_trivial_dtorIxE6$valueE",
   "size" : 4,
   "source_file" : "/system/core/libutils/include/utils/TypeHelpers.h",
   "underlying_type" : "_ZTIj"
  },
  {
   "alignment" : 4,
   "enum_fields" :
   [
    {
     "enum_field_value" : 1,
     "name" : "android::trait_trivial_dtor<unsigned long long>::value"
    }
   ],
   "linker_set_key" : "_ZTIN7android18trait_trivial_dtorIyE6$valueE",
   "name" : "android::trait_trivial_dtor<unsigned long long>::(anonymous enum at system/core/libutils/include/utils/TypeHelpers.h:108:1)",
   "referenced_type" : "_ZTIN7android18trait_trivial_dtorIyE6$valueE",
   "self_type" : "_ZTIN7android18trait_trivial_dtorIyE6$valueE",
   "size" : 4,
   "source_file" : "/system/core/libutils/include/utils/TypeHelpers.h",
   "underlying_type" : "_ZTIj"
  },
  {
   "alignment" : 4,
   "enum_fields" :
   [
    {
     "enum_field_value" : 1,
     "name" : "android::trait_trivial_move<android::String8>::value"
    }
   ],
   "linker_set_key" : "_ZTIN7android18trait_trivial_moveINS_7String8EE6$valueE",
   "name" : "android::trait_trivial_move<String8>::(anonymous enum at system/core/libutils/include/utils/String8.h:242:1)",
   "referenced_type" : "_ZTIN7android18trait_trivial_moveINS_7String8EE6$valueE",
   "self_type" : "_ZTIN7android18trait_trivial_moveINS_7String8EE6$valueE",
   "size" : 4,
   "source_file" : "/system/core/libutils/include/utils/String8.h",
   "underlying_type" : "_ZTIj"
  },
  {
   "alignment" : 4,
   "enum_fields" :
   [
    {
     "enum_field_value" : 1,
     "name" : "android::trait_trivial_move<android::String16>::value"
    }
   ],
   "linker_set_key" : "_ZTIN7android18trait_trivial_moveINS_8String16EE6$valueE",
   "name" : "android::trait_trivial_move<String16>::(anonymous enum at system/core/libutils/include/utils/String16.h:197:1)",
   "referenced_type" : "_ZTIN7android18trait_trivial_moveINS_8String16EE6$valueE",
   "self_type" : "_ZTIN7android18trait_trivial_moveINS_8String16EE6$valueE",
   "size" : 4,
   "source_file" : "/system/core/libutils/include/utils/String16.h",
   "underlying_type" : "_ZTIj"
  },
  {
   "alignment" : 4,
   "enum_fields" :
   [
    {
     "enum_field_value" : 1,
     "name" : "android::trait_trivial_move<bool>::value"
    }
   ],
   "linker_set_key" : "_ZTIN7android18trait_trivial_moveIbE6$valueE",
   "name" : "android::trait_trivial_move<bool>::(anonymous enum at system/core/libutils/include/utils/TypeHelpers.h:98:1)",
   "referenced_type" : "_ZTIN7android18trait_trivial_moveIbE6$valueE",
   "self_type" : "_ZTIN7android18trait_trivial_moveIbE6$valueE",
   "size" : 4,
   "source_file" : "/system/core/libutils/include/utils/TypeHelpers.h",
   "underlying_type" : "_ZTIj"
  },
  {
   "alignment" : 4,
   "enum_fields" :
   [
    {
     "enum_field_value" : 1,
     "name" : "android::trait_trivial_move<char>::value"
    }
   ],
   "linker_set_key" : "_ZTIN7android18trait_trivial_moveIcE6$valueE",
   "name" : "android::trait_trivial_move<char>::(anonymous enum at system/core/libutils/include/utils/TypeHelpers.h:99:1)",
   "referenced_type" : "_ZTIN7android18trait_trivial_moveIcE6$valueE",
   "self_type" : "_ZTIN7android18trait_trivial_moveIcE6$valueE",
   "size" : 4,
   "source_file" : "/system/core/libutils/include/utils/TypeHelpers.h",
   "underlying_type" : "_ZTIj"
  },
  {
   "alignment" : 4,
   "enum_fields" :
   [
    {
     "enum_field_value" : 1,
     "name" : "android::trait_trivial_move<double>::value"
    }
   ],
   "linker_set_key" : "_ZTIN7android18trait_trivial_moveIdE6$valueE",
   "name" : "android::trait_trivial_move<double>::(anonymous enum at system/core/libutils/include/utils/TypeHelpers.h:110:1)",
   "referenced_type" : "_ZTIN7android18trait_trivial_moveIdE6$valueE",
   "self_type" : "_ZTIN7android18trait_trivial_moveIdE6$valueE",
   "size" : 4,
   "source_file" : "/system/core/libutils/include/utils/TypeHelpers.h",
   "underlying_type" : "_ZTIj"
  },
  {
   "alignment" : 4,
   "enum_fields" :
   [
    {
     "enum_field_value" : 1,
     "name" : "android::trait_trivial_move<float>::value"
    }
   ],
   "linker_set_key" : "_ZTIN7android18trait_trivial_moveIfE6$valueE",
   "name" : "android::trait_trivial_move<float>::(anonymous enum at system/core/libutils/include/utils/TypeHelpers.h:109:1)",
   "referenced_type" : "_ZTIN7android18trait_trivial_moveIfE6$valueE",
   "self_type" : "_ZTIN7android18trait_trivial_moveIfE6$valueE",
   "size" : 4,
   "source_file" : "/system/core/libutils/include/utils/TypeHelpers.h",
   "underlying_type" : "_ZTIj"
  },
  {
   "alignment" : 4,
   "enum_fields" :
   [
    {
     "enum_field_value" : 1,
     "name" : "android::trait_trivial_move<unsigned char>::value"
    }
   ],
   "linker_set_key" : "_ZTIN7android18trait_trivial_moveIhE6$valueE",
   "name" : "android::trait_trivial_move<unsigned char>::(anonymous enum at system/core/libutils/include/utils/TypeHelpers.h:100:1)",
   "referenced_type" : "_ZTIN7android18trait_trivial_moveIhE6$valueE",
   "self_type" : "_ZTIN7android18trait_trivial_moveIhE6$valueE",
   "size" : 4,
   "source_file" : "/system/core/libutils/include/utils/TypeHelpers.h",
   "underlying_type" : "_ZTIj"
  },
  {
   "alignment" : 4,
   "enum_fields" :
   [
    {
     "enum_field_value" : 1,
     "name" : "android::trait_trivial_move<int>::value"
    }
   ],
   "linker_set_key" : "_ZTIN7android18trait_trivial_moveIiE6$valueE",
   "name" : "android::trait_trivial_move<int>::(anonymous enum at system/core/libutils/include/utils/TypeHelpers.h:103:1)",
   "referenced_type" : "_ZTIN7android18trait_trivial_moveIiE6$valueE",
   "self_type" : "_ZTIN7android18trait_trivial_moveIiE6$valueE",
   "size" : 4,
   "source_file" : "/system/core/libutils/include/utils/TypeHelpers.h",
   "underlying_type" : "_ZTIj"
  },
  {
   "alignment" : 4,
   "enum_fields" :
   [
    {
     "enum_field_value" : 1,
     "name" : "android::trait_trivial_move<unsigned int>::value"
    }
   ],
   "linker_set_key" : "_ZTIN7android18trait_trivial_moveIjE6$valueE",
   "name" : "android::trait_trivial_move<unsigned int>::(anonymous enum at system/core/libutils/include/utils/TypeHelpers.h:104:1)",
   "referenced_type" : "_ZTIN7android18trait_trivial_moveIjE6$valueE",
   "self_type" : "_ZTIN7android18trait_trivial_moveIjE6$valueE",
   "size" : 4,
   "source_file" : "/system/core/libutils/include/utils/TypeHelpers.h",
   "underlying_type" : "_ZTIj"
  },
  {
   "alignment" : 4,
   "enum_fields" :
   [
    {
     "enum_field_value" : 1,
     "name" : "android::trait_trivial_move<long>::value"
    }
   ],
   "linker_set_key" : "_ZTIN7android18trait_trivial_moveIlE6$valueE",
   "name" : "android::trait_trivial_move<long>::(anonymous enum at system/core/libutils/include/utils/TypeHelpers.h:105:1)",
   "referenced_type" : "_ZTIN7android18trait_trivial_moveIlE6$valueE",
   "self_type" : "_ZTIN7android18trait_trivial_moveIlE6$valueE",
   "size" : 4,
   "source_file" : "/system/core/libutils/include/utils/TypeHelpers.h",
   "underlying_type" : "_ZTIj"
  },
  {
   "alignment" : 4,
   "enum_fields" :
   [
    {
     "enum_field_value" : 1,
     "name" : "android::trait_trivial_move<unsigned long>::value"
    }
   ],
   "linker_set_key" : "_ZTIN7android18trait_trivial_moveImE6$valueE",
   "name" : "android::trait_trivial_move<unsigned long>::(anonymous enum at system/core/libutils/include/utils/TypeHelpers.h:106:1)",
   "referenced_type" : "_ZTIN7android18trait_trivial_moveImE6$valueE",
   "self_type" : "_ZTIN7android18trait_trivial_moveImE6$valueE",
   "size" : 4,
   "source_file" : "/system/core/libutils/include/utils/TypeHelpers.h",
   "underlying_type" : "_ZTIj"
  },
  {
   "alignment" : 4,
   "enum_fields" :
   [
    {
     "enum_field_value" : 1,
     "name" : "android::trait_trivial_move<short>::value"
    }
   ],
   "linker_set_key" : "_ZTIN7android18trait_trivial_moveIsE6$valueE",
   "name" : "android::trait_trivial_move<short>::(anonymous enum at system/core/libutils/include/utils/TypeHelpers.h:101:1)",
   "referenced_type" : "_ZTIN7android18trait_trivial_moveIsE6$valueE",
   "self_type" : "_ZTIN7android18trait_trivial_moveIsE6$valueE",
   "size" : 4,
   "source_file" : "/system/core/libutils/include/utils/TypeHelpers.h",
   "underlying_type" : "_ZTIj"
  },
  {
   "alignment" : 4,
   "enum_fields" :
   [
    {
     "enum_field_value" : 1,
     "name" : "android::trait_trivial_move<unsigned short>::value"
    }
   ],
   "linker_set_key" : "_ZTIN7android18trait_trivial_moveItE6$valueE",
   "name" : "android::trait_trivial_move<unsigned short>::(anonymous enum at system/core/libutils/include/utils/TypeHelpers.h:102:1)",
   "referenced_type" : "_ZTIN7android18trait_trivial_moveItE6$valueE",
   "self_type" : "_ZTIN7android18trait_trivial_moveItE6$valueE",
   "size" : 4,
   "source_file" : "/system/core/libutils/include/utils/TypeHelpers.h",
   "underlying_type" : "_ZTIj"
  },
  {
   "alignment" : 4,
   "enum_fields" :
   [
    {
     "enum_field_value" : 1,
     "name" : "android::trait_trivial_move<void>::value"
    }
   ],
   "linker_set_key" : "_ZTIN7android18trait_trivial_moveIvE6$valueE",
   "name" : "android::trait_trivial_move<void>::(anonymous enum at system/core/libutils/include/utils/TypeHelpers.h:97:1)",
   "referenced_type" : "_ZTIN7android18trait_trivial_moveIvE6$valueE",
   "self_type" : "_ZTIN7android18trait_trivial_moveIvE6$valueE",
   "size" : 4,
   "source_file" : "/system/core/libutils/include/utils/TypeHelpers.h",
   "underlying_type" : "_ZTIj"
  },
  {
   "alignment" : 4,
   "enum_fields" :
   [
    {
     "enum_field_value" : 1,
     "name" : "android::trait_trivial_move<long long>::value"
    }
   ],
   "linker_set_key" : "_ZTIN7android18trait_trivial_moveIxE6$valueE",
   "name" : "android::trait_trivial_move<long long>::(anonymous enum at system/core/libutils/include/utils/TypeHelpers.h:107:1)",
   "referenced_type" : "_ZTIN7android18trait_trivial_moveIxE6$valueE",
   "self_type" : "_ZTIN7android18trait_trivial_moveIxE6$valueE",
   "size" : 4,
   "source_file" : "/system/core/libutils/include/utils/TypeHelpers.h",
   "underlying_type" : "_ZTIj"
  },
  {
   "alignment" : 4,
   "enum_fields" :
   [
    {
     "enum_field_value" : 1,
     "name" : "android::trait_trivial_move<unsigned long long>::value"
    }
   ],
   "linker_set_key" : "_ZTIN7android18trait_trivial_moveIyE6$valueE",
   "name" : "android::trait_trivial_move<unsigned long long>::(anonymous enum at system/core/libutils/include/utils/TypeHelpers.h:108:1)",
   "referenced_type" : "_ZTIN7android18trait_trivial_moveIyE6$valueE",
   "self_type" : "_ZTIN7android18trait_trivial_moveIyE6$valueE",
   "size" : 4,
   "source_file" : "/system/core/libutils/include/utils/TypeHelpers.h",
   "underlying_type" : "_ZTIj"
  },
  {
   "alignment" : 4,
   "enum_fields" :
   [
    {
     "enum_field_value" : 0,
     "name" : "android::hidl::base::V1_0::DebugInfo::Architecture::UNKNOWN"
    },
    {
     "enum_field_value" : 1,
     "name" : "android::hidl::base::V1_0::DebugInfo::Architecture::IS_64BIT"
    },
    {
     "enum_field_value" : 2,
     "name" : "android::hidl::base::V1_0::DebugInfo::Architecture::IS_32BIT"
    }
   ],
   "linker_set_key" : "_ZTIN7android4hidl4base4V1_09DebugInfo12ArchitectureE",
   "name" : "android::hidl::base::V1_0::DebugInfo::Architecture",
   "referenced_type" : "_ZTIN7android4hidl4base4V1_09DebugInfo12ArchitectureE",
   "self_type" : "_ZTIN7android4hidl4base4V1_09DebugInfo12ArchitectureE",
   "size" : 4,
   "source_file" : "/out/soong/.intermediates/system/libhidl/transport/base/1.0/android.hidl.base@1.0_genc++_headers/gen/android/hidl/base/1.0/types.h",
   "underlying_type" : "_ZTIi"
  },
  {
   "alignment" : 4,
   "enum_fields" :
   [
    {
     "enum_field_value" : -1,
     "name" : "android::hidl::manager::V1_0::IServiceManager::PidConstant::NO_PID"
    }
   ],
   "linker_set_key" : "_ZTIN7android4hidl7manager4V1_015IServiceManager11PidConstantE",
   "name" : "android::hidl::manager::V1_0::IServiceManager::PidConstant",
   "referenced_type" : "_ZTIN7android4hidl7manager4V1_015IServiceManager11PidConstantE",
   "self_type" : "_ZTIN7android4hidl7manager4V1_015IServiceManager11PidConstantE",
   "size" : 4,
   "source_file" : "/out/soong/.intermediates/system/libhidl/transport/manager/1.0/android.hidl.manager@1.0_genc++_headers/gen/android/hidl/manager/1.0/IServiceManager.h",
   "underlying_type" : "_ZTIi"
  },
  {
   "alignment" : 1,
   "enum_fields" :
   [
    {
     "enum_field_value" : 0,
     "name" : "android::hidl::manager::V1_0::IServiceManager::Transport::EMPTY"
    },
    {
     "enum_field_value" : 1,
     "name" : "android::hidl::manager::V1_0::IServiceManager::Transport::HWBINDER"
    },
    {
     "enum_field_value" : 2,
     "name" : "android::hidl::manager::V1_0::IServiceManager::Transport::PASSTHROUGH"
    }
   ],
   "linker_set_key" : "_ZTIN7android4hidl7manager4V1_015IServiceManager9TransportE",
   "name" : "android::hidl::manager::V1_0::IServiceManager::Transport",
   "referenced_type" : "_ZTIN7android4hidl7manager4V1_015IServiceManager9TransportE",
   "self_type" : "_ZTIN7android4hidl7manager4V1_015IServiceManager9TransportE",
   "size" : 1,
   "source_file" : "/out/soong/.intermediates/system/libhidl/transport/manager/1.0/android.hidl.manager@1.0_genc++_headers/gen/android/hidl/manager/1.0/IServiceManager.h",
   "underlying_type" : "_ZTIh"
  },
  {
   "alignment" : 4,
   "enum_fields" :
   [
    {
     "enum_field_value" : 0,
     "name" : "android::Mutex::PRIVATE"
    },
    {
     "enum_field_value" : 1,
     "name" : "android::Mutex::SHARED"
    }
   ],
   "linker_set_key" : "_ZTIN7android5Mutex8$PRIVATEE",
   "name" : "android::Mutex::(anonymous enum at system/core/libutils/include/utils/Mutex.h:96:5)",
   "referenced_type" : "_ZTIN7android5Mutex8$PRIVATEE",
   "self_type" : "_ZTIN7android5Mutex8$PRIVATEE",
   "size" : 4,
   "source_file" : "/system/core/libutils/include/utils/Mutex.h",
   "underlying_type" : "_ZTIj"
  },
  {
   "alignment" : 4,
   "enum_fields" :
   [
    {
     "enum_field_value" : 0,
     "name" : "android::RWLock::PRIVATE"
    },
    {
     "enum_field_value" : 1,
     "name" : "android::RWLock::SHARED"
    }
   ],
   "linker_set_key" : "_ZTIN7android6RWLock8$PRIVATEE",
   "name" : "android::RWLock::(anonymous enum at system/core/libutils/include/utils/RWLock.h:44:5)",
   "referenced_type" : "_ZTIN7android6RWLock8$PRIVATEE",
   "self_type" : "_ZTIN7android6RWLock8$PRIVATEE",
   "size" : 4,
   "source_file" : "/system/core/libutils/include/utils/RWLock.h",
   "underlying_type" : "_ZTIj"
  },
  {
   "access" : "protected",
   "alignment" : 4,
   "enum_fields" :
   [
    {
     "enum_field_value" : 1,
     "name" : "android::RefBase::FIRST_INC_STRONG"
    }
   ],
   "linker_set_key" : "_ZTIN7android7RefBase17$FIRST_INC_STRONGE",
   "name" : "android::RefBase::(anonymous enum at system/core/libutils/include/utils/RefBase.h:313:5)",
   "referenced_type" : "_ZTIN7android7RefBase17$FIRST_INC_STRONGE",
   "self_type" : "_ZTIN7android7RefBase17$FIRST_INC_STRONGE",
   "size" : 4,
   "source_file" : "/system/core/libutils/include/utils/RefBase.h",
   "underlying_type" : "_ZTIj"
  },
  {
   "access" : "protected",
   "alignment" : 4,
   "enum_fields" :
   [
    {
     "enum_field_value" : 0,
     "name" : "android::RefBase::OBJECT_LIFETIME_STRONG"
    },
    {
     "enum_field_value" : 1,
     "name" : "android::RefBase::OBJECT_LIFETIME_WEAK"
    },
    {
     "enum_field_value" : 1,
     "name" : "android::RefBase::OBJECT_LIFETIME_MASK"
    }
   ],
   "linker_set_key" : "_ZTIN7android7RefBase21$OBJECT_LIFETIME_MASKE",
   "name" : "android::RefBase::(anonymous enum at system/core/libutils/include/utils/RefBase.h:304:5)",
   "referenced_type" : "_ZTIN7android7RefBase21$OBJECT_LIFETIME_MASKE",
   "self_type" : "_ZTIN7android7RefBase21$OBJECT_LIFETIME_MASKE",
   "size" : 4,
   "source_file" : "/system/core/libutils/include/utils/RefBase.h",
   "underlying_type" : "_ZTIj"
  },
  {
   "alignment" : 4,
   "enum_fields" :
   [
    {
     "enum_field_value" : 0,
     "name" : "android::String8::kEmptyString"
    }
   ],
   "linker_set_key" : "_ZTIN7android7String813StaticLinkageE",
   "name" : "android::String8::StaticLinkage",
   "referenced_type" : "_ZTIN7android7String813StaticLinkageE",
   "self_type" : "_ZTIN7android7String813StaticLinkageE",
   "size" : 4,
   "source_file" : "/system/core/libutils/include/utils/String8.h",
   "underlying_type" : "_ZTIj"
  },
  {
   "alignment" : 4,
   "enum_fields" :
   [
    {
     "enum_field_value" : 0,
     "name" : "android::String16::kEmptyString"
    }
   ],
   "linker_set_key" : "_ZTIN7android8String1613StaticLinkageE",
   "name" : "android::String16::StaticLinkage",
   "referenced_type" : "_ZTIN7android8String1613StaticLinkageE",
   "self_type" : "_ZTIN7android8String1613StaticLinkageE",
   "size" : 4,
   "source_file" : "/system/core/libutils/include/utils/String16.h",
   "underlying_type" : "_ZTIj"
  },
  {
   "alignment" : 4,
   "enum_fields" :
   [
    {
     "enum_field_value" : 0,
     "name" : "android::hardware::MQDescriptor<char, android::hardware::kSynchronizedReadWrite>::READPTRPOS"
    },
    {
     "enum_field_value" : 1,
     "name" : "android::hardware::MQDescriptor<char, android::hardware::kSynchronizedReadWrite>::WRITEPTRPOS"
    },
    {
     "enum_field_value" : 2,
     "name" : "android::hardware::MQDescriptor<char, android::hardware::kSynchronizedReadWrite>::DATAPTRPOS"
    },
    {
     "enum_field_value" : 3,
     "name" : "android::hardware::MQDescriptor<char, android::hardware::kSynchronizedReadWrite>::EVFLAGWORDPOS"
    }
   ],
   "linker_set_key" : "_ZTIN7android8hardware12MQDescriptorIcLNS0_8MQFlavorE1EE11GrantorTypeE",
   "name" : "android::hardware::MQDescriptor<char, android::hardware::kSynchronizedReadWrite>::GrantorType",
   "referenced_type" : "_ZTIN7android8hardware12MQDescriptorIcLNS0_8MQFlavorE1EE11GrantorTypeE",
   "self_type" : "_ZTIN7android8hardware12MQDescriptorIcLNS0_8MQFlavorE1EE11GrantorTypeE",
   "size" : 4,
   "source_file" : "/system/libhidl/base/include/hidl/MQDescriptor.h",
   "underlying_type" : "_ZTIi"
  },
  {
   "alignment" : 4,
   "enum_fields" :
   [
    {
     "enum_field_value" : 0,
     "name" : "android::hardware::ProcessState::CallRestriction::NONE"
    },
    {
     "enum_field_value" : 1,
     "name" : "android::hardware::ProcessState::CallRestriction::ERROR_IF_NOT_ONEWAY"
    },
    {
     "enum_field_value" : 2,
     "name" : "android::hardware::ProcessState::CallRestriction::FATAL_IF_NOT_ONEWAY"
    }
   ],
   "linker_set_key" : "_ZTIN7android8hardware12ProcessState15CallRestrictionE",
   "name" : "android::hardware::ProcessState::CallRestriction",
   "referenced_type" : "_ZTIN7android8hardware12ProcessState15CallRestrictionE",
   "self_type" : "_ZTIN7android8hardware12ProcessState15CallRestrictionE",
   "size" : 4,
   "source_file" : "/system/libhwbinder/include/hwbinder/ProcessState.h",
   "underlying_type" : "_ZTIi"
  },
  {
   "alignment" : 4,
   "enum_fields" :
   [
    {
     "enum_field_value" : 0,
     "name" : "android::hardware::HidlReturnRestriction::NONE"
    },
    {
     "enum_field_value" : 1,
     "name" : "android::hardware::HidlReturnRestriction::ERROR_IF_UNCHECKED"
    },
    {
     "enum_field_value" : 2,
     "name" : "android::hardware::HidlReturnRestriction::FATAL_IF_UNCHECKED"
    }
   ],
   "linker_set_key" : "_ZTIN7android8hardware21HidlReturnRestrictionE",
   "name" : "android::hardware::HidlReturnRestriction",
   "referenced_type" : "_ZTIN7android8hardware21HidlReturnRestrictionE",
   "self_type" : "_ZTIN7android8hardware21HidlReturnRestrictionE",
   "size" : 4,
   "source_file" : "/system/libhidl/base/include/hidl/Status.h",
   "underlying_type" : "_ZTIi"
  },
  {
   "alignment" : 4,
   "enum_fields" :
   [
    {
     "enum_field_value" : 0,
     "name" : "android::hardware::wifi::V1_0::NanSrfType::BLOOM_FILTER"
    },
    {
     "enum_field_value" : 1,
     "name" : "android::hardware::wifi::V1_0::NanSrfType::PARTIAL_MAC_ADDR"
    }
   ],
   "linker_set_key" : "_ZTIN7android8hardware4wifi4V1_010NanSrfTypeE",
   "name" : "android::hardware::wifi::V1_0::NanSrfType",
   "referenced_type" : "_ZTIN7android8hardware4wifi4V1_010NanSrfTypeE",
   "self_type" : "_ZTIN7android8hardware4wifi4V1_010NanSrfTypeE",
   "size" : 4,
   "source_file" : "/out/soong/.intermediates/hardware/interfaces/wifi/1.0/android.hardware.wifi@1.0_genc++_headers/gen/android/hardware/wifi/1.0/types.h",
   "underlying_type" : "_ZTIj"
  },
  {
   "alignment" : 4,
   "enum_fields" :
   [
    {
     "enum_field_value" : 0,
     "name" : "android::hardware::wifi::V1_0::NanMatchAlg::MATCH_ONCE"
    },
    {
     "enum_field_value" : 1,
     "name" : "android::hardware::wifi::V1_0::NanMatchAlg::MATCH_CONTINUOUS"
    },
    {
     "enum_field_value" : 2,
     "name" : "android::hardware::wifi::V1_0::NanMatchAlg::MATCH_NEVER"
    }
   ],
   "linker_set_key" : "_ZTIN7android8hardware4wifi4V1_011NanMatchAlgE",
   "name" : "android::hardware::wifi::V1_0::NanMatchAlg",
   "referenced_type" : "_ZTIN7android8hardware4wifi4V1_011NanMatchAlgE",
   "self_type" : "_ZTIN7android8hardware4wifi4V1_011NanMatchAlgE",
   "size" : 4,
   "source_file" : "/out/soong/.intermediates/hardware/interfaces/wifi/1.0/android.hardware.wifi@1.0_genc++_headers/gen/android/hardware/wifi/1.0/types.h",
   "underlying_type" : "_ZTIj"
  },
  {
   "alignment" : 4,
   "enum_fields" :
   [
    {
     "enum_field_value" : 1,
     "name" : "android::hardware::wifi::V1_0::RttPeerType::AP"
    },
    {
     "enum_field_value" : 2,
     "name" : "android::hardware::wifi::V1_0::RttPeerType::STA"
    },
    {
     "enum_field_value" : 3,
     "name" : "android::hardware::wifi::V1_0::RttPeerType::P2P_GO"
    },
    {
     "enum_field_value" : 4,
     "name" : "android::hardware::wifi::V1_0::RttPeerType::P2P_CLIENT"
    },
    {
     "enum_field_value" : 5,
     "name" : "android::hardware::wifi::V1_0::RttPeerType::NAN"
    }
   ],
   "linker_set_key" : "_ZTIN7android8hardware4wifi4V1_011RttPeerTypeE",
   "name" : "android::hardware::wifi::V1_0::RttPeerType",
   "referenced_type" : "_ZTIN7android8hardware4wifi4V1_011RttPeerTypeE",
   "self_type" : "_ZTIN7android8hardware4wifi4V1_011RttPeerTypeE",
   "size" : 4,
   "source_file" : "/out/soong/.intermediates/hardware/interfaces/wifi/1.0/android.hardware.wifi@1.0_genc++_headers/gen/android/hardware/wifi/1.0/types.h",
   "underlying_type" : "_ZTIj"
  },
  {
   "alignment" : 4,
   "enum_fields" :
   [
    {
     "enum_field_value" : 1,
     "name" : "android::hardware::wifi::V1_0::RttPreamble::LEGACY"
    },
    {
     "enum_field_value" : 2,
     "name" : "android::hardware::wifi::V1_0::RttPreamble::HT"
    },
    {
     "enum_field_value" : 4,
     "name" : "android::hardware::wifi::V1_0::RttPreamble::VHT"
    }
   ],
   "linker_set_key" : "_ZTIN7android8hardware4wifi4V1_011RttPreambleE",
   "name" : "android::hardware::wifi::V1_0::RttPreamble",
   "referenced_type" : "_ZTIN7android8hardware4wifi4V1_011RttPreambleE",
   "self_type" : "_ZTIN7android8hardware4wifi4V1_011RttPreambleE",
   "size" : 4,
   "source_file" : "/out/soong/.intermediates/hardware/interfaces/wifi/1.0/android.hardware.wifi@1.0_genc++_headers/gen/android/hardware/wifi/1.0/types.h",
   "underlying_type" : "_ZTIj"
  },
  {
   "alignment" : 4,
   "enum_fields" :
   [
    {
     "enum_field_value" : 0,
     "name" : "android::hardware::wifi::V1_0::WifiRateNss::NSS_1x1"
    },
    {
     "enum_field_value" : 1,
     "name" : "android::hardware::wifi::V1_0::WifiRateNss::NSS_2x2"
    },
    {
     "enum_field_value" : 2,
     "name" : "android::hardware::wifi::V1_0::WifiRateNss::NSS_3x3"
    },
    {
     "enum_field_value" : 3,
     "name" : "android::hardware::wifi::V1_0::WifiRateNss::NSS_4x4"
    }
   ],
   "linker_set_key" : "_ZTIN7android8hardware4wifi4V1_011WifiRateNssE",
   "name" : "android::hardware::wifi::V1_0::WifiRateNss",
   "referenced_type" : "_ZTIN7android8hardware4wifi4V1_011WifiRateNssE",
   "self_type" : "_ZTIN7android8hardware4wifi4V1_011WifiRateNssE",
   "size" : 4,
   "source_file" : "/out/soong/.intermediates/hardware/interfaces/wifi/1.0/android.hardware.wifi@1.0_genc++_headers/gen/android/hardware/wifi/1.0/types.h",
   "underlying_type" : "_ZTIj"
  },
  {
   "alignment" : 4,
   "enum_fields" :
   [
    {
     "enum_field_value" : 0,
     "name" : "android::hardware::wifi::V1_0::NanBandIndex::NAN_BAND_24GHZ"
    },
    {
     "enum_field_value" : 1,
     "name" : "android::hardware::wifi::V1_0::NanBandIndex::NAN_BAND_5GHZ"
    }
   ],
   "linker_set_key" : "_ZTIN7android8hardware4wifi4V1_012NanBandIndexE",
   "name" : "android::hardware::wifi::V1_0::NanBandIndex",
   "referenced_type" : "_ZTIN7android8hardware4wifi4V1_012NanBandIndexE",
   "self_type" : "_ZTIN7android8hardware4wifi4V1_012NanBandIndexE",
   "size" : 4,
   "source_file" : "/out/soong/.intermediates/hardware/interfaces/wifi/1.0/android.hardware.wifi@1.0_genc++_headers/gen/android/hardware/wifi/1.0/types.h",
   "underlying_type" : "_ZTIj"
  },
  {
   "alignment" : 4,
   "enum_fields" :
   [
    {
     "enum_field_value" : 1,
     "name" : "android::hardware::wifi::V1_0::IWifiStaIface::StaIfaceCapabilityMask::APF"
    },
    {
     "enum_field_value" : 2,
     "name" : "android::hardware::wifi::V1_0::IWifiStaIface::StaIfaceCapabilityMask::BACKGROUND_SCAN"
    },
    {
     "enum_field_value" : 4,
     "name" : "android::hardware::wifi::V1_0::IWifiStaIface::StaIfaceCapabilityMask::LINK_LAYER_STATS"
    },
    {
     "enum_field_value" : 8,
     "name" : "android::hardware::wifi::V1_0::IWifiStaIface::StaIfaceCapabilityMask::RSSI_MONITOR"
    },
    {
     "enum_field_value" : 16,
     "name" : "android::hardware::wifi::V1_0::IWifiStaIface::StaIfaceCapabilityMask::CONTROL_ROAMING"
    },
    {
     "enum_field_value" : 32,
     "name" : "android::hardware::wifi::V1_0::IWifiStaIface::StaIfaceCapabilityMask::PROBE_IE_WHITELIST"
    },
    {
     "enum_field_value" : 64,
     "name" : "android::hardware::wifi::V1_0::IWifiStaIface::StaIfaceCapabilityMask::SCAN_RAND"
    },
    {
     "enum_field_value" : 128,
     "name" : "android::hardware::wifi::V1_0::IWifiStaIface::StaIfaceCapabilityMask::STA_5G"
    },
    {
     "enum_field_value" : 256,
     "name" : "android::hardware::wifi::V1_0::IWifiStaIface::StaIfaceCapabilityMask::HOTSPOT"
    },
    {
     "enum_field_value" : 512,
     "name" : "android::hardware::wifi::V1_0::IWifiStaIface::StaIfaceCapabilityMask::PNO"
    },
    {
     "enum_field_value" : 1024,
     "name" : "android::hardware::wifi::V1_0::IWifiStaIface::StaIfaceCapabilityMask::TDLS"
    },
    {
     "enum_field_value" : 2048,
     "name" : "android::hardware::wifi::V1_0::IWifiStaIface::StaIfaceCapabilityMask::TDLS_OFFCHANNEL"
    },
    {
     "enum_field_value" : 4096,
     "name" : "android::hardware::wifi::V1_0::IWifiStaIface::StaIfaceCapabilityMask::ND_OFFLOAD"
    },
    {
     "enum_field_value" : 8192,
     "name" : "android::hardware::wifi::V1_0::IWifiStaIface::StaIfaceCapabilityMask::KEEP_ALIVE"
    },
    {
     "enum_field_value" : 16384,
     "name" : "android::hardware::wifi::V1_0::IWifiStaIface::StaIfaceCapabilityMask::DEBUG_PACKET_FATE"
    }
   ],
   "linker_set_key" : "_ZTIN7android8hardware4wifi4V1_013IWifiStaIface22StaIfaceCapabilityMaskE",
   "name" : "android::hardware::wifi::V1_0::IWifiStaIface::StaIfaceCapabilityMask",
   "referenced_type" : "_ZTIN7android8hardware4wifi4V1_013IWifiStaIface22StaIfaceCapabilityMaskE",
   "self_type" : "_ZTIN7android8hardware4wifi4V1_013IWifiStaIface22StaIfaceCapabilityMaskE",
   "size" : 4,
   "source_file" : "/out/soong/.intermediates/hardware/interfaces/wifi/1.0/android.hardware.wifi@1.0_genc++_headers/gen/android/hardware/wifi/1.0/IWifiStaIface.h",
   "underlying_type" : "_ZTIj"
  },
  {
   "alignment" : 4,
   "enum_fields" :
   [
    {
     "enum_field_value" : 0,
     "name" : "android::hardware::wifi::V1_0::NanStatusType::SUCCESS"
    },
    {
     "enum_field_value" : 1,
     "name" : "android::hardware::wifi::V1_0::NanStatusType::INTERNAL_FAILURE"
    },
    {
     "enum_field_value" : 2,
     "name" : "android::hardware::wifi::V1_0::NanStatusType::PROTOCOL_FAILURE"
    },
    {
     "enum_field_value" : 3,
     "name" : "android::hardware::wifi::V1_0::NanStatusType::INVALID_SESSION_ID"
    },
    {
     "enum_field_value" : 4,
     "name" : "android::hardware::wifi::V1_0::NanStatusType::NO_RESOURCES_AVAILABLE"
    },
    {
     "enum_field_value" : 5,
     "name" : "android::hardware::wifi::V1_0::NanStatusType::INVALID_ARGS"
    },
    {
     "enum_field_value" : 6,
     "name" : "android::hardware::wifi::V1_0::NanStatusType::INVALID_PEER_ID"
    },
    {
     "enum_field_value" : 7,
     "name" : "android::hardware::wifi::V1_0::NanStatusType::INVALID_NDP_ID"
    },
    {
     "enum_field_value" : 8,
     "name" : "android::hardware::wifi::V1_0::NanStatusType::NAN_NOT_ALLOWED"
    },
    {
     "enum_field_value" : 9,
     "name" : "android::hardware::wifi::V1_0::NanStatusType::NO_OTA_ACK"
    },
    {
     "enum_field_value" : 10,
     "name" : "android::hardware::wifi::V1_0::NanStatusType::ALREADY_ENABLED"
    },
    {
     "enum_field_value" : 11,
     "name" : "android::hardware::wifi::V1_0::NanStatusType::FOLLOWUP_TX_QUEUE_FULL"
    },
    {
     "enum_field_value" : 12,
     "name" : "android::hardware::wifi::V1_0::NanStatusType::UNSUPPORTED_CONCURRENCY_NAN_DISABLED"
    }
   ],
   "linker_set_key" : "_ZTIN7android8hardware4wifi4V1_013NanStatusTypeE",
   "name" : "android::hardware::wifi::V1_0::NanStatusType",
   "referenced_type" : "_ZTIN7android8hardware4wifi4V1_013NanStatusTypeE",
   "self_type" : "_ZTIN7android8hardware4wifi4V1_013NanStatusTypeE",
   "size" : 4,
   "source_file" : "/out/soong/.intermediates/hardware/interfaces/wifi/1.0/android.hardware.wifi@1.0_genc++_headers/gen/android/hardware/wifi/1.0/types.h",
   "underlying_type" : "_ZTIj"
  },
  {
   "alignment" : 4,
   "enum_fields" :
   [
    {
     "enum_field_value" : 16,
     "name" : "android::hardware::wifi::V1_0::StaScanLimits::MAX_CHANNELS"
    },
    {
     "enum_field_value" : 16,
     "name" : "android::hardware::wifi::V1_0::StaScanLimits::MAX_BUCKETS"
    },
    {
     "enum_field_value" : 32,
     "name" : "android::hardware::wifi::V1_0::StaScanLimits::MAX_AP_CACHE_PER_SCAN"
    }
   ],
   "linker_set_key" : "_ZTIN7android8hardware4wifi4V1_013StaScanLimitsE",
   "name" : "android::hardware::wifi::V1_0::StaScanLimits",
   "referenced_type" : "_ZTIN7android8hardware4wifi4V1_013StaScanLimitsE",
   "self_type" : "_ZTIN7android8hardware4wifi4V1_013StaScanLimitsE",
   "size" : 4,
   "source_file" : "/out/soong/.intermediates/hardware/interfaces/wifi/1.0/android.hardware.wifi@1.0_genc++_headers/gen/android/hardware/wifi/1.0/types.h",
   "underlying_type" : "_ZTIj"
  },
  {
   "alignment" : 4,
   "enum_fields" :
   [
    {
     "enum_field_value" : 0,
     "name" : "android::hardware::wifi::V1_0::NanPublishType::UNSOLICITED"
    },
    {
     "enum_field_value" : 1,
     "name" : "android::hardware::wifi::V1_0::NanPublishType::SOLICITED"
    },
    {
     "enum_field_value" : 2,
     "name" : "android::hardware::wifi::V1_0::NanPublishType::UNSOLICITED_SOLICITED"
    }
   ],
   "linker_set_key" : "_ZTIN7android8hardware4wifi4V1_014NanPublishTypeE",
   "name" : "android::hardware::wifi::V1_0::NanPublishType",
   "referenced_type" : "_ZTIN7android8hardware4wifi4V1_014NanPublishTypeE",
   "self_type" : "_ZTIN7android8hardware4wifi4V1_014NanPublishTypeE",
   "size" : 4,
   "source_file" : "/out/soong/.intermediates/hardware/interfaces/wifi/1.0/android.hardware.wifi@1.0_genc++_headers/gen/android/hardware/wifi/1.0/types.h",
   "underlying_type" : "_ZTIj"
  },
  {
   "alignment" : 4,
   "enum_fields" :
   [
    {
     "enum_field_value" : 0,
     "name" : "android::hardware::wifi::V1_0::WifiStatusCode::SUCCESS"
    },
    {
     "enum_field_value" : 1,
     "name" : "android::hardware::wifi::V1_0::WifiStatusCode::ERROR_WIFI_CHIP_INVALID"
    },
    {
     "enum_field_value" : 2,
     "name" : "android::hardware::wifi::V1_0::WifiStatusCode::ERROR_WIFI_IFACE_INVALID"
    },
    {
     "enum_field_value" : 3,
     "name" : "android::hardware::wifi::V1_0::WifiStatusCode::ERROR_WIFI_RTT_CONTROLLER_INVALID"
    },
    {
     "enum_field_value" : 4,
     "name" : "android::hardware::wifi::V1_0::WifiStatusCode::ERROR_NOT_SUPPORTED"
    },
    {
     "enum_field_value" : 5,
     "name" : "android::hardware::wifi::V1_0::WifiStatusCode::ERROR_NOT_AVAILABLE"
    },
    {
     "enum_field_value" : 6,
     "name" : "android::hardware::wifi::V1_0::WifiStatusCode::ERROR_NOT_STARTED"
    },
    {
     "enum_field_value" : 7,
     "name" : "android::hardware::wifi::V1_0::WifiStatusCode::ERROR_INVALID_ARGS"
    },
    {
     "enum_field_value" : 8,
     "name" : "android::hardware::wifi::V1_0::WifiStatusCode::ERROR_BUSY"
    },
    {
     "enum_field_value" : 9,
     "name" : "android::hardware::wifi::V1_0::WifiStatusCode::ERROR_UNKNOWN"
    }
   ],
   "linker_set_key" : "_ZTIN7android8hardware4wifi4V1_014WifiStatusCodeE",
   "name" : "android::hardware::wifi::V1_0::WifiStatusCode",
   "referenced_type" : "_ZTIN7android8hardware4wifi4V1_014WifiStatusCodeE",
   "self_type" : "_ZTIN7android8hardware4wifi4V1_014WifiStatusCodeE",
   "size" : 4,
   "source_file" : "/out/soong/.intermediates/hardware/interfaces/wifi/1.0/android.hardware.wifi@1.0_genc++_headers/gen/android/hardware/wifi/1.0/types.h",
   "underlying_type" : "_ZTIj"
  },
  {
   "alignment" : 1,
   "enum_fields" :
   [
    {
     "enum_field_value" : 0,
     "name" : "android::hardware::wifi::V1_0::StaRoamingState::DISABLED"
    },
    {
     "enum_field_value" : 1,
     "name" : "android::hardware::wifi::V1_0::StaRoamingState::ENABLED"
    }
   ],
   "linker_set_key" : "_ZTIN7android8hardware4wifi4V1_015StaRoamingStateE",
   "name" : "android::hardware::wifi::V1_0::StaRoamingState",
   "referenced_type" : "_ZTIN7android8hardware4wifi4V1_015StaRoamingStateE",
   "self_type" : "_ZTIN7android8hardware4wifi4V1_015StaRoamingStateE",
   "size" : 1,
   "source_file" : "/out/soong/.intermediates/hardware/interfaces/wifi/1.0/android.hardware.wifi@1.0_genc++_headers/gen/android/hardware/wifi/1.0/types.h",
   "underlying_type" : "_ZTIh"
  },
  {
   "alignment" : 4,
   "enum_fields" :
   [
    {
     "enum_field_value" : 0,
     "name" : "android::hardware::wifi::V1_0::NanSubscribeType::PASSIVE"
    },
    {
     "enum_field_value" : 1,
     "name" : "android::hardware::wifi::V1_0::NanSubscribeType::ACTIVE"
    }
   ],
   "linker_set_key" : "_ZTIN7android8hardware4wifi4V1_016NanSubscribeTypeE",
   "name" : "android::hardware::wifi::V1_0::NanSubscribeType",
   "referenced_type" : "_ZTIN7android8hardware4wifi4V1_016NanSubscribeTypeE",
   "self_type" : "_ZTIN7android8hardware4wifi4V1_016NanSubscribeTypeE",
   "size" : 4,
   "source_file" : "/out/soong/.intermediates/hardware/interfaces/wifi/1.0/android.hardware.wifi@1.0_genc++_headers/gen/android/hardware/wifi/1.0/types.h",
   "underlying_type" : "_ZTIj"
  },
  {
   "alignment" : 4,
   "enum_fields" :
   [
    {
     "enum_field_value" : 0,
     "name" : "android::hardware::wifi::V1_0::RttMotionPattern::NOT_EXPECTED"
    },
    {
     "enum_field_value" : 1,
     "name" : "android::hardware::wifi::V1_0::RttMotionPattern::EXPECTED"
    },
    {
     "enum_field_value" : 2,
     "name" : "android::hardware::wifi::V1_0::RttMotionPattern::UNKNOWN"
    }
   ],
   "linker_set_key" : "_ZTIN7android8hardware4wifi4V1_016RttMotionPatternE",
   "name" : "android::hardware::wifi::V1_0::RttMotionPattern",
   "referenced_type" : "_ZTIN7android8hardware4wifi4V1_016RttMotionPatternE",
   "self_type" : "_ZTIN7android8hardware4wifi4V1_016RttMotionPatternE",
   "size" : 4,
   "source_file" : "/out/soong/.intermediates/hardware/interfaces/wifi/1.0/android.hardware.wifi@1.0_genc++_headers/gen/android/hardware/wifi/1.0/types.h",
   "underlying_type" : "_ZTIj"
  },
  {
   "alignment" : 4,
   "enum_fields" :
   [
    {
     "enum_field_value" : 0,
     "name" : "android::hardware::wifi::V1_0::WifiRatePreamble::OFDM"
    },
    {
     "enum_field_value" : 1,
     "name" : "android::hardware::wifi::V1_0::WifiRatePreamble::CCK"
    },
    {
     "enum_field_value" : 2,
     "name" : "android::hardware::wifi::V1_0::WifiRatePreamble::HT"
    },
    {
     "enum_field_value" : 3,
     "name" : "android::hardware::wifi::V1_0::WifiRatePreamble::VHT"
    },
    {
     "enum_field_value" : 4,
     "name" : "android::hardware::wifi::V1_0::WifiRatePreamble::RESERVED"
    }
   ],
   "linker_set_key" : "_ZTIN7android8hardware4wifi4V1_016WifiRatePreambleE",
   "name" : "android::hardware::wifi::V1_0::WifiRatePreamble",
   "referenced_type" : "_ZTIN7android8hardware4wifi4V1_016WifiRatePreambleE",
   "self_type" : "_ZTIN7android8hardware4wifi4V1_016WifiRatePreambleE",
   "size" : 4,
   "source_file" : "/out/soong/.intermediates/hardware/interfaces/wifi/1.0/android.hardware.wifi@1.0_genc++_headers/gen/android/hardware/wifi/1.0/types.h",
   "underlying_type" : "_ZTIj"
  },
  {
   "alignment" : 4,
   "enum_fields" :
   [
    {
     "enum_field_value" : 0,
     "name" : "android::hardware::wifi::V1_0::NanCipherSuiteType::NONE"
    },
    {
     "enum_field_value" : 1,
     "name" : "android::hardware::wifi::V1_0::NanCipherSuiteType::SHARED_KEY_128_MASK"
    },
    {
     "enum_field_value" : 2,
     "name" : "android::hardware::wifi::V1_0::NanCipherSuiteType::SHARED_KEY_256_MASK"
    }
   ],
   "linker_set_key" : "_ZTIN7android8hardware4wifi4V1_018NanCipherSuiteTypeE",
   "name" : "android::hardware::wifi::V1_0::NanCipherSuiteType",
   "referenced_type" : "_ZTIN7android8hardware4wifi4V1_018NanCipherSuiteTypeE",
   "self_type" : "_ZTIN7android8hardware4wifi4V1_018NanCipherSuiteTypeE",
   "size" : 4,
   "source_file" : "/out/soong/.intermediates/hardware/interfaces/wifi/1.0/android.hardware.wifi@1.0_genc++_headers/gen/android/hardware/wifi/1.0/types.h",
   "underlying_type" : "_ZTIj"
  },
  {
   "alignment" : 4,
   "enum_fields" :
   [
    {
     "enum_field_value" : 8,
     "name" : "android::hardware::wifi::V1_0::NanParamSizeLimits::MIN_PASSPHRASE_LENGTH"
    },
    {
     "enum_field_value" : 63,
     "name" : "android::hardware::wifi::V1_0::NanParamSizeLimits::MAX_PASSPHRASE_LENGTH"
    }
   ],
   "linker_set_key" : "_ZTIN7android8hardware4wifi4V1_018NanParamSizeLimitsE",
   "name" : "android::hardware::wifi::V1_0::NanParamSizeLimits",
   "referenced_type" : "_ZTIN7android8hardware4wifi4V1_018NanParamSizeLimitsE",
   "self_type" : "_ZTIN7android8hardware4wifi4V1_018NanParamSizeLimitsE",
   "size" : 4,
   "source_file" : "/out/soong/.intermediates/hardware/interfaces/wifi/1.0/android.hardware.wifi@1.0_genc++_headers/gen/android/hardware/wifi/1.0/types.h",
   "underlying_type" : "_ZTIj"
  },
  {
   "alignment" : 4,
   "enum_fields" :
   [
    {
     "enum_field_value" : 0,
     "name" : "android::hardware::wifi::V1_0::NanClusterEventType::DISCOVERY_MAC_ADDRESS_CHANGED"
    },
    {
     "enum_field_value" : 1,
     "name" : "android::hardware::wifi::V1_0::NanClusterEventType::STARTED_CLUSTER"
    },
    {
     "enum_field_value" : 2,
     "name" : "android::hardware::wifi::V1_0::NanClusterEventType::JOINED_CLUSTER"
    }
   ],
   "linker_set_key" : "_ZTIN7android8hardware4wifi4V1_019NanClusterEventTypeE",
   "name" : "android::hardware::wifi::V1_0::NanClusterEventType",
   "referenced_type" : "_ZTIN7android8hardware4wifi4V1_019NanClusterEventTypeE",
   "self_type" : "_ZTIN7android8hardware4wifi4V1_019NanClusterEventTypeE",
   "size" : 4,
   "source_file" : "/out/soong/.intermediates/hardware/interfaces/wifi/1.0/android.hardware.wifi@1.0_genc++_headers/gen/android/hardware/wifi/1.0/types.h",
   "underlying_type" : "_ZTIj"
  },
  {
   "alignment" : 4,
   "enum_fields" :
   [
    {
     "enum_field_value" : 1,
     "name" : "android::hardware::wifi::V1_0::StaScanDataFlagMask::INTERRUPTED"
    }
   ],
   "linker_set_key" : "_ZTIN7android8hardware4wifi4V1_019StaScanDataFlagMaskE",
   "name" : "android::hardware::wifi::V1_0::StaScanDataFlagMask",
   "referenced_type" : "_ZTIN7android8hardware4wifi4V1_019StaScanDataFlagMaskE",
   "self_type" : "_ZTIN7android8hardware4wifi4V1_019StaScanDataFlagMaskE",
   "size" : 4,
   "source_file" : "/out/soong/.intermediates/hardware/interfaces/wifi/1.0/android.hardware.wifi@1.0_genc++_headers/gen/android/hardware/wifi/1.0/types.h",
   "underlying_type" : "_ZTIi"
  },
  {
   "alignment" : 4,
   "enum_fields" :
   [
    {
     "enum_field_value" : 1,
     "name" : "android::hardware::wifi::V1_0::NanRangingIndication::CONTINUOUS_INDICATION_MASK"
    },
    {
     "enum_field_value" : 2,
     "name" : "android::hardware::wifi::V1_0::NanRangingIndication::INGRESS_MET_MASK"
    },
    {
     "enum_field_value" : 4,
     "name" : "android::hardware::wifi::V1_0::NanRangingIndication::EGRESS_MET_MASK"
    }
   ],
   "linker_set_key" : "_ZTIN7android8hardware4wifi4V1_020NanRangingIndicationE",
   "name" : "android::hardware::wifi::V1_0::NanRangingIndication",
   "referenced_type" : "_ZTIN7android8hardware4wifi4V1_020NanRangingIndicationE",
   "self_type" : "_ZTIN7android8hardware4wifi4V1_020NanRangingIndicationE",
   "size" : 4,
   "source_file" : "/out/soong/.intermediates/hardware/interfaces/wifi/1.0/android.hardware.wifi@1.0_genc++_headers/gen/android/hardware/wifi/1.0/types.h",
   "underlying_type" : "_ZTIj"
  },
  {
   "alignment" : 4,
   "enum_fields" :
   [
    {
     "enum_field_value" : 0,
     "name" : "android::hardware::wifi::V1_0::NanDataPathChannelCfg::CHANNEL_NOT_REQUESTED"
    },
    {
     "enum_field_value" : 1,
     "name" : "android::hardware::wifi::V1_0::NanDataPathChannelCfg::REQUEST_CHANNEL_SETUP"
    },
    {
     "enum_field_value" : 2,
     "name" : "android::hardware::wifi::V1_0::NanDataPathChannelCfg::FORCE_CHANNEL_SETUP"
    }
   ],
   "linker_set_key" : "_ZTIN7android8hardware4wifi4V1_021NanDataPathChannelCfgE",
   "name" : "android::hardware::wifi::V1_0::NanDataPathChannelCfg",
   "referenced_type" : "_ZTIN7android8hardware4wifi4V1_021NanDataPathChannelCfgE",
   "self_type" : "_ZTIN7android8hardware4wifi4V1_021NanDataPathChannelCfgE",
   "size" : 4,
   "source_file" : "/out/soong/.intermediates/hardware/interfaces/wifi/1.0/android.hardware.wifi@1.0_genc++_headers/gen/android/hardware/wifi/1.0/types.h",
   "underlying_type" : "_ZTIj"
  },
  {
   "alignment" : 4,
   "enum_fields" :
   [
    {
     "enum_field_value" : 0,
     "name" : "android::hardware::wifi::V1_0::WifiChannelWidthInMhz::WIDTH_20"
    },
    {
     "enum_field_value" : 1,
     "name" : "android::hardware::wifi::V1_0::WifiChannelWidthInMhz::WIDTH_40"
    },
    {
     "enum_field_value" : 2,
     "name" : "android::hardware::wifi::V1_0::WifiChannelWidthInMhz::WIDTH_80"
    },
    {
     "enum_field_value" : 3,
     "name" : "android::hardware::wifi::V1_0::WifiChannelWidthInMhz::WIDTH_160"
    },
    {
     "enum_field_value" : 4,
     "name" : "android::hardware::wifi::V1_0::WifiChannelWidthInMhz::WIDTH_80P80"
    },
    {
     "enum_field_value" : 5,
     "name" : "android::hardware::wifi::V1_0::WifiChannelWidthInMhz::WIDTH_5"
    },
    {
     "enum_field_value" : 6,
     "name" : "android::hardware::wifi::V1_0::WifiChannelWidthInMhz::WIDTH_10"
    },
    {
     "enum_field_value" : -1,
     "name" : "android::hardware::wifi::V1_0::WifiChannelWidthInMhz::WIDTH_INVALID"
    }
   ],
   "linker_set_key" : "_ZTIN7android8hardware4wifi4V1_021WifiChannelWidthInMhzE",
   "name" : "android::hardware::wifi::V1_0::WifiChannelWidthInMhz",
   "referenced_type" : "_ZTIN7android8hardware4wifi4V1_021WifiChannelWidthInMhzE",
   "self_type" : "_ZTIN7android8hardware4wifi4V1_021WifiChannelWidthInMhzE",
   "size" : 4,
   "source_file" : "/out/soong/.intermediates/hardware/interfaces/wifi/1.0/android.hardware.wifi@1.0_genc++_headers/gen/android/hardware/wifi/1.0/types.h",
   "underlying_type" : "_ZTIj"
  },
  {
   "alignment" : 4,
   "enum_fields" :
   [
    {
     "enum_field_value" : 0,
     "name" : "android::hardware::wifi::V1_0::WifiDebugRxPacketFate::SUCCESS"
    },
    {
     "enum_field_value" : 1,
     "name" : "android::hardware::wifi::V1_0::WifiDebugRxPacketFate::FW_QUEUED"
    },
    {
     "enum_field_value" : 2,
     "name" : "android::hardware::wifi::V1_0::WifiDebugRxPacketFate::FW_DROP_FILTER"
    },
    {
     "enum_field_value" : 3,
     "name" : "android::hardware::wifi::V1_0::WifiDebugRxPacketFate::FW_DROP_INVALID"
    },
    {
     "enum_field_value" : 4,
     "name" : "android::hardware::wifi::V1_0::WifiDebugRxPacketFate::FW_DROP_NOBUFS"
    },
    {
     "enum_field_value" : 5,
     "name" : "android::hardware::wifi::V1_0::WifiDebugRxPacketFate::FW_DROP_OTHER"
    },
    {
     "enum_field_value" : 6,
     "name" : "android::hardware::wifi::V1_0::WifiDebugRxPacketFate::DRV_QUEUED"
    },
    {
     "enum_field_value" : 7,
     "name" : "android::hardware::wifi::V1_0::WifiDebugRxPacketFate::DRV_DROP_FILTER"
    },
    {
     "enum_field_value" : 8,
     "name" : "android::hardware::wifi::V1_0::WifiDebugRxPacketFate::DRV_DROP_INVALID"
    },
    {
     "enum_field_value" : 9,
     "name" : "android::hardware::wifi::V1_0::WifiDebugRxPacketFate::DRV_DROP_NOBUFS"
    },
    {
     "enum_field_value" : 10,
     "name" : "android::hardware::wifi::V1_0::WifiDebugRxPacketFate::DRV_DROP_OTHER"
    }
   ],
   "linker_set_key" : "_ZTIN7android8hardware4wifi4V1_021WifiDebugRxPacketFateE",
   "name" : "android::hardware::wifi::V1_0::WifiDebugRxPacketFate",
   "referenced_type" : "_ZTIN7android8hardware4wifi4V1_021WifiDebugRxPacketFateE",
   "self_type" : "_ZTIN7android8hardware4wifi4V1_021WifiDebugRxPacketFateE",
   "size" : 4,
   "source_file" : "/out/soong/.intermediates/hardware/interfaces/wifi/1.0/android.hardware.wifi@1.0_genc++_headers/gen/android/hardware/wifi/1.0/types.h",
   "underlying_type" : "_ZTIj"
  },
  {
   "alignment" : 4,
   "enum_fields" :
   [
    {
     "enum_field_value" : 0,
     "name" : "android::hardware::wifi::V1_0::WifiDebugTxPacketFate::ACKED"
    },
    {
     "enum_field_value" : 1,
     "name" : "android::hardware::wifi::V1_0::WifiDebugTxPacketFate::SENT"
    },
    {
     "enum_field_value" : 2,
     "name" : "android::hardware::wifi::V1_0::WifiDebugTxPacketFate::FW_QUEUED"
    },
    {
     "enum_field_value" : 3,
     "name" : "android::hardware::wifi::V1_0::WifiDebugTxPacketFate::FW_DROP_INVALID"
    },
    {
     "enum_field_value" : 4,
     "name" : "android::hardware::wifi::V1_0::WifiDebugTxPacketFate::FW_DROP_NOBUFS"
    },
    {
     "enum_field_value" : 5,
     "name" : "android::hardware::wifi::V1_0::WifiDebugTxPacketFate::FW_DROP_OTHER"
    },
    {
     "enum_field_value" : 6,
     "name" : "android::hardware::wifi::V1_0::WifiDebugTxPacketFate::DRV_QUEUED"
    },
    {
     "enum_field_value" : 7,
     "name" : "android::hardware::wifi::V1_0::WifiDebugTxPacketFate::DRV_DROP_INVALID"
    },
    {
     "enum_field_value" : 8,
     "name" : "android::hardware::wifi::V1_0::WifiDebugTxPacketFate::DRV_DROP_NOBUFS"
    },
    {
     "enum_field_value" : 9,
     "name" : "android::hardware::wifi::V1_0::WifiDebugTxPacketFate::DRV_DROP_OTHER"
    }
   ],
   "linker_set_key" : "_ZTIN7android8hardware4wifi4V1_021WifiDebugTxPacketFateE",
   "name" : "android::hardware::wifi::V1_0::WifiDebugTxPacketFate",
   "referenced_type" : "_ZTIN7android8hardware4wifi4V1_021WifiDebugTxPacketFateE",
   "self_type" : "_ZTIN7android8hardware4wifi4V1_021WifiDebugTxPacketFateE",
   "size" : 4,
   "source_file" : "/out/soong/.intermediates/hardware/interfaces/wifi/1.0/android.hardware.wifi@1.0_genc++_headers/gen/android/hardware/wifi/1.0/types.h",
   "underlying_type" : "_ZTIj"
  },
  {
   "alignment" : 4,
   "enum_fields" :
   [
    {
     "enum_field_value" : 0,
     "name" : "android::hardware::wifi::V1_0::NanDataPathSecurityType::OPEN"
    },
    {
     "enum_field_value" : 1,
     "name" : "android::hardware::wifi::V1_0::NanDataPathSecurityType::PMK"
    },
    {
     "enum_field_value" : 2,
     "name" : "android::hardware::wifi::V1_0::NanDataPathSecurityType::PASSPHRASE"
    }
   ],
   "linker_set_key" : "_ZTIN7android8hardware4wifi4V1_023NanDataPathSecurityTypeE",
   "name" : "android::hardware::wifi::V1_0::NanDataPathSecurityType",
   "referenced_type" : "_ZTIN7android8hardware4wifi4V1_023NanDataPathSecurityTypeE",
   "self_type" : "_ZTIN7android8hardware4wifi4V1_023NanDataPathSecurityTypeE",
   "size" : 4,
   "source_file" : "/out/soong/.intermediates/hardware/interfaces/wifi/1.0/android.hardware.wifi@1.0_genc++_headers/gen/android/hardware/wifi/1.0/types.h",
   "underlying_type" : "_ZTIj"
  },
  {
   "alignment" : 4,
   "enum_fields" :
   [
    {
     "enum_field_value" : 1,
     "name" : "android::hardware::wifi::V1_0::WifiDebugRingBufferFlags::HAS_BINARY_ENTRIES"
    },
    {
     "enum_field_value" : 2,
     "name" : "android::hardware::wifi::V1_0::WifiDebugRingBufferFlags::HAS_ASCII_ENTRIES"
    },
    {
     "enum_field_value" : 4,
     "name" : "android::hardware::wifi::V1_0::WifiDebugRingBufferFlags::HAS_PER_PACKET_ENTRIES"
    }
   ],
   "linker_set_key" : "_ZTIN7android8hardware4wifi4V1_024WifiDebugRingBufferFlagsE",
   "name" : "android::hardware::wifi::V1_0::WifiDebugRingBufferFlags",
   "referenced_type" : "_ZTIN7android8hardware4wifi4V1_024WifiDebugRingBufferFlagsE",
   "self_type" : "_ZTIN7android8hardware4wifi4V1_024WifiDebugRingBufferFlagsE",
   "size" : 4,
   "source_file" : "/out/soong/.intermediates/hardware/interfaces/wifi/1.0/android.hardware.wifi@1.0_genc++_headers/gen/android/hardware/wifi/1.0/types.h",
   "underlying_type" : "_ZTIj"
  },
  {
   "alignment" : 4,
   "enum_fields" :
   [
    {
     "enum_field_value" : 0,
     "name" : "android::hardware::wifi::V1_0::WifiDebugPacketFateFrameType::UNKNOWN"
    },
    {
     "enum_field_value" : 1,
     "name" : "android::hardware::wifi::V1_0::WifiDebugPacketFateFrameType::ETHERNET_II"
    },
    {
     "enum_field_value" : 2,
     "name" : "android::hardware::wifi::V1_0::WifiDebugPacketFateFrameType::MGMT_80211"
    }
   ],
   "linker_set_key" : "_ZTIN7android8hardware4wifi4V1_028WifiDebugPacketFateFrameTypeE",
   "name" : "android::hardware::wifi::V1_0::WifiDebugPacketFateFrameType",
   "referenced_type" : "_ZTIN7android8hardware4wifi4V1_028WifiDebugPacketFateFrameTypeE",
   "self_type" : "_ZTIN7android8hardware4wifi4V1_028WifiDebugPacketFateFrameTypeE",
   "size" : 4,
   "source_file" : "/out/soong/.intermediates/hardware/interfaces/wifi/1.0/android.hardware.wifi@1.0_genc++_headers/gen/android/hardware/wifi/1.0/types.h",
   "underlying_type" : "_ZTIj"
  },
  {
   "alignment" : 4,
   "enum_fields" :
   [
    {
     "enum_field_value" : 0,
     "name" : "android::hardware::wifi::V1_0::WifiDebugRingBufferVerboseLevel::NONE"
    },
    {
     "enum_field_value" : 1,
     "name" : "android::hardware::wifi::V1_0::WifiDebugRingBufferVerboseLevel::DEFAULT"
    },
    {
     "enum_field_value" : 2,
     "name" : "android::hardware::wifi::V1_0::WifiDebugRingBufferVerboseLevel::VERBOSE"
    },
    {
     "enum_field_value" : 3,
     "name" : "android::hardware::wifi::V1_0::WifiDebugRingBufferVerboseLevel::EXCESSIVE"
    }
   ],
   "linker_set_key" : "_ZTIN7android8hardware4wifi4V1_031WifiDebugRingBufferVerboseLevelE",
   "name" : "android::hardware::wifi::V1_0::WifiDebugRingBufferVerboseLevel",
   "referenced_type" : "_ZTIN7android8hardware4wifi4V1_031WifiDebugRingBufferVerboseLevelE",
   "self_type" : "_ZTIN7android8hardware4wifi4V1_031WifiDebugRingBufferVerboseLevelE",
   "size" : 4,
   "source_file" : "/out/soong/.intermediates/hardware/interfaces/wifi/1.0/android.hardware.wifi@1.0_genc++_headers/gen/android/hardware/wifi/1.0/types.h",
   "underlying_type" : "_ZTIj"
  },
  {
   "alignment" : 4,
   "enum_fields" :
   [
    {
     "enum_field_value" : 1,
     "name" : "android::hardware::wifi::V1_0::StaBackgroundScanBucketEventReportSchemeMask::EACH_SCAN"
    },
    {
     "enum_field_value" : 2,
     "name" : "android::hardware::wifi::V1_0::StaBackgroundScanBucketEventReportSchemeMask::FULL_RESULTS"
    },
    {
     "enum_field_value" : 4,
     "name" : "android::hardware::wifi::V1_0::StaBackgroundScanBucketEventReportSchemeMask::NO_BATCH"
    }
   ],
   "linker_set_key" : "_ZTIN7android8hardware4wifi4V1_044StaBackgroundScanBucketEventReportSchemeMaskE",
   "name" : "android::hardware::wifi::V1_0::StaBackgroundScanBucketEventReportSchemeMask",
   "referenced_type" : "_ZTIN7android8hardware4wifi4V1_044StaBackgroundScanBucketEventReportSchemeMaskE",
   "self_type" : "_ZTIN7android8hardware4wifi4V1_044StaBackgroundScanBucketEventReportSchemeMaskE",
   "size" : 4,
   "source_file" : "/out/soong/.intermediates/hardware/interfaces/wifi/1.0/android.hardware.wifi@1.0_genc++_headers/gen/android/hardware/wifi/1.0/types.h",
   "underlying_type" : "_ZTIj"
  },
  {
   "alignment" : 4,
   "enum_fields" :
   [
    {
     "enum_field_value" : 1,
     "name" : "android::hardware::wifi::V1_0::RttBw::BW_5MHZ"
    },
    {
     "enum_field_value" : 2,
     "name" : "android::hardware::wifi::V1_0::RttBw::BW_10MHZ"
    },
    {
     "enum_field_value" : 4,
     "name" : "android::hardware::wifi::V1_0::RttBw::BW_20MHZ"
    },
    {
     "enum_field_value" : 8,
     "name" : "android::hardware::wifi::V1_0::RttBw::BW_40MHZ"
    },
    {
     "enum_field_value" : 16,
     "name" : "android::hardware::wifi::V1_0::RttBw::BW_80MHZ"
    },
    {
     "enum_field_value" : 32,
     "name" : "android::hardware::wifi::V1_0::RttBw::BW_160MHZ"
    }
   ],
   "linker_set_key" : "_ZTIN7android8hardware4wifi4V1_05RttBwE",
   "name" : "android::hardware::wifi::V1_0::RttBw",
   "referenced_type" : "_ZTIN7android8hardware4wifi4V1_05RttBwE",
   "self_type" : "_ZTIN7android8hardware4wifi4V1_05RttBwE",
   "size" : 4,
   "source_file" : "/out/soong/.intermediates/hardware/interfaces/wifi/1.0/android.hardware.wifi@1.0_genc++_headers/gen/android/hardware/wifi/1.0/types.h",
   "underlying_type" : "_ZTIj"
  },
  {
   "alignment" : 4,
   "enum_fields" :
   [
    {
     "enum_field_value" : 1,
     "name" : "android::hardware::wifi::V1_0::RttType::ONE_SIDED"
    },
    {
     "enum_field_value" : 2,
     "name" : "android::hardware::wifi::V1_0::RttType::TWO_SIDED"
    }
   ],
   "linker_set_key" : "_ZTIN7android8hardware4wifi4V1_07RttTypeE",
   "name" : "android::hardware::wifi::V1_0::RttType",
   "referenced_type" : "_ZTIN7android8hardware4wifi4V1_07RttTypeE",
   "self_type" : "_ZTIN7android8hardware4wifi4V1_07RttTypeE",
   "size" : 4,
   "source_file" : "/out/soong/.intermediates/hardware/interfaces/wifi/1.0/android.hardware.wifi@1.0_genc++_headers/gen/android/hardware/wifi/1.0/types.h",
   "underlying_type" : "_ZTIj"
  },
  {
   "alignment" : 4,
   "enum_fields" :
   [
    {
     "enum_field_value" : 0,
     "name" : "android::hardware::wifi::V1_0::WifiBand::BAND_UNSPECIFIED"
    },
    {
     "enum_field_value" : 1,
     "name" : "android::hardware::wifi::V1_0::WifiBand::BAND_24GHZ"
    },
    {
     "enum_field_value" : 2,
     "name" : "android::hardware::wifi::V1_0::WifiBand::BAND_5GHZ"
    },
    {
     "enum_field_value" : 4,
     "name" : "android::hardware::wifi::V1_0::WifiBand::BAND_5GHZ_DFS"
    },
    {
     "enum_field_value" : 6,
     "name" : "android::hardware::wifi::V1_0::WifiBand::BAND_5GHZ_WITH_DFS"
    },
    {
     "enum_field_value" : 3,
     "name" : "android::hardware::wifi::V1_0::WifiBand::BAND_24GHZ_5GHZ"
    },
    {
     "enum_field_value" : 7,
     "name" : "android::hardware::wifi::V1_0::WifiBand::BAND_24GHZ_5GHZ_WITH_DFS"
    }
   ],
   "linker_set_key" : "_ZTIN7android8hardware4wifi4V1_08WifiBandE",
   "name" : "android::hardware::wifi::V1_0::WifiBand",
   "referenced_type" : "_ZTIN7android8hardware4wifi4V1_08WifiBandE",
   "self_type" : "_ZTIN7android8hardware4wifi4V1_08WifiBandE",
   "size" : 4,
   "source_file" : "/out/soong/.intermediates/hardware/interfaces/wifi/1.0/android.hardware.wifi@1.0_genc++_headers/gen/android/hardware/wifi/1.0/types.h",
   "underlying_type" : "_ZTIj"
  },
  {
   "alignment" : 4,
   "enum_fields" :
   [
    {
     "enum_field_value" : 1,
     "name" : "android::hardware::wifi::V1_0::IWifiChip::ChipCapabilityMask::DEBUG_MEMORY_FIRMWARE_DUMP"
    },
    {
     "enum_field_value" : 2,
     "name" : "android::hardware::wifi::V1_0::IWifiChip::ChipCapabilityMask::DEBUG_MEMORY_DRIVER_DUMP"
    },
    {
     "enum_field_value" : 4,
     "name" : "android::hardware::wifi::V1_0::IWifiChip::ChipCapabilityMask::DEBUG_RING_BUFFER_CONNECT_EVENT"
    },
    {
     "enum_field_value" : 8,
     "name" : "android::hardware::wifi::V1_0::IWifiChip::ChipCapabilityMask::DEBUG_RING_BUFFER_POWER_EVENT"
    },
    {
     "enum_field_value" : 16,
     "name" : "android::hardware::wifi::V1_0::IWifiChip::ChipCapabilityMask::DEBUG_RING_BUFFER_WAKELOCK_EVENT"
    },
    {
     "enum_field_value" : 32,
     "name" : "android::hardware::wifi::V1_0::IWifiChip::ChipCapabilityMask::DEBUG_RING_BUFFER_VENDOR_DATA"
    },
    {
     "enum_field_value" : 64,
     "name" : "android::hardware::wifi::V1_0::IWifiChip::ChipCapabilityMask::DEBUG_HOST_WAKE_REASON_STATS"
    },
    {
     "enum_field_value" : 128,
     "name" : "android::hardware::wifi::V1_0::IWifiChip::ChipCapabilityMask::DEBUG_ERROR_ALERTS"
    }
   ],
   "linker_set_key" : "_ZTIN7android8hardware4wifi4V1_09IWifiChip18ChipCapabilityMaskE",
   "name" : "android::hardware::wifi::V1_0::IWifiChip::ChipCapabilityMask",
   "referenced_type" : "_ZTIN7android8hardware4wifi4V1_09IWifiChip18ChipCapabilityMaskE",
   "self_type" : "_ZTIN7android8hardware4wifi4V1_09IWifiChip18ChipCapabilityMaskE",
   "size" : 4,
   "source_file" : "/out/soong/.intermediates/hardware/interfaces/wifi/1.0/android.hardware.wifi@1.0_genc++_headers/gen/android/hardware/wifi/1.0/IWifiChip.h",
   "underlying_type" : "_ZTIj"
  },
  {
   "alignment" : 4,
   "enum_fields" :
   [
    {
     "enum_field_value" : 0,
     "name" : "android::hardware::wifi::V1_0::IfaceType::STA"
    },
    {
     "enum_field_value" : 1,
     "name" : "android::hardware::wifi::V1_0::IfaceType::AP"
    },
    {
     "enum_field_value" : 2,
     "name" : "android::hardware::wifi::V1_0::IfaceType::P2P"
    },
    {
     "enum_field_value" : 3,
     "name" : "android::hardware::wifi::V1_0::IfaceType::NAN"
    }
   ],
   "linker_set_key" : "_ZTIN7android8hardware4wifi4V1_09IfaceTypeE",
   "name" : "android::hardware::wifi::V1_0::IfaceType",
   "referenced_type" : "_ZTIN7android8hardware4wifi4V1_09IfaceTypeE",
   "self_type" : "_ZTIN7android8hardware4wifi4V1_09IfaceTypeE",
   "size" : 4,
   "source_file" : "/out/soong/.intermediates/hardware/interfaces/wifi/1.0/android.hardware.wifi@1.0_genc++_headers/gen/android/hardware/wifi/1.0/types.h",
   "underlying_type" : "_ZTIj"
  },
  {
   "alignment" : 4,
   "enum_fields" :
   [
    {
     "enum_field_value" : 0,
     "name" : "android::hardware::wifi::V1_0::NanTxType::BROADCAST"
    },
    {
     "enum_field_value" : 1,
     "name" : "android::hardware::wifi::V1_0::NanTxType::UNICAST"
    }
   ],
   "linker_set_key" : "_ZTIN7android8hardware4wifi4V1_09NanTxTypeE",
   "name" : "android::hardware::wifi::V1_0::NanTxType",
   "referenced_type" : "_ZTIN7android8hardware4wifi4V1_09NanTxTypeE",
   "self_type" : "_ZTIN7android8hardware4wifi4V1_09NanTxTypeE",
   "size" : 4,
   "source_file" : "/out/soong/.intermediates/hardware/interfaces/wifi/1.0/android.hardware.wifi@1.0_genc++_headers/gen/android/hardware/wifi/1.0/types.h",
   "underlying_type" : "_ZTIj"
  },
  {
   "alignment" : 4,
   "enum_fields" :
   [
    {
     "enum_field_value" : 0,
     "name" : "android::hardware::wifi::V1_0::RttStatus::SUCCESS"
    },
    {
     "enum_field_value" : 1,
     "name" : "android::hardware::wifi::V1_0::RttStatus::FAILURE"
    },
    {
     "enum_field_value" : 2,
     "name" : "android::hardware::wifi::V1_0::RttStatus::FAIL_NO_RSP"
    },
    {
     "enum_field_value" : 3,
     "name" : "android::hardware::wifi::V1_0::RttStatus::FAIL_REJECTED"
    },
    {
     "enum_field_value" : 4,
     "name" : "android::hardware::wifi::V1_0::RttStatus::FAIL_NOT_SCHEDULED_YET"
    },
    {
     "enum_field_value" : 5,
     "name" : "android::hardware::wifi::V1_0::RttStatus::FAIL_TM_TIMEOUT"
    },
    {
     "enum_field_value" : 6,
     "name" : "android::hardware::wifi::V1_0::RttStatus::FAIL_AP_ON_DIFF_CHANNEL"
    },
    {
     "enum_field_value" : 7,
     "name" : "android::hardware::wifi::V1_0::RttStatus::FAIL_NO_CAPABILITY"
    },
    {
     "enum_field_value" : 8,
     "name" : "android::hardware::wifi::V1_0::RttStatus::ABORTED"
    },
    {
     "enum_field_value" : 9,
     "name" : "android::hardware::wifi::V1_0::RttStatus::FAIL_INVALID_TS"
    },
    {
     "enum_field_value" : 10,
     "name" : "android::hardware::wifi::V1_0::RttStatus::FAIL_PROTOCOL"
    },
    {
     "enum_field_value" : 11,
     "name" : "android::hardware::wifi::V1_0::RttStatus::FAIL_SCHEDULE"
    },
    {
     "enum_field_value" : 12,
     "name" : "android::hardware::wifi::V1_0::RttStatus::FAIL_BUSY_TRY_LATER"
    },
    {
     "enum_field_value" : 13,
     "name" : "android::hardware::wifi::V1_0::RttStatus::INVALID_REQ"
    },
    {
     "enum_field_value" : 14,
     "name" : "android::hardware::wifi::V1_0::RttStatus::NO_WIFI"
    },
    {
     "enum_field_value" : 15,
     "name" : "android::hardware::wifi::V1_0::RttStatus::FAIL_FTM_PARAM_OVERRIDE"
    }
   ],
   "linker_set_key" : "_ZTIN7android8hardware4wifi4V1_09RttStatusE",
   "name" : "android::hardware::wifi::V1_0::RttStatus",
   "referenced_type" : "_ZTIN7android8hardware4wifi4V1_09RttStatusE",
   "self_type" : "_ZTIN7android8hardware4wifi4V1_09RttStatusE",
   "size" : 4,
   "source_file" : "/out/soong/.intermediates/hardware/interfaces/wifi/1.0/android.hardware.wifi@1.0_genc++_headers/gen/android/hardware/wifi/1.0/types.h",
   "underlying_type" : "_ZTIj"
  },
  {
   "alignment" : 4,
   "enum_fields" :
   [
    {
     "enum_field_value" : 0,
     "name" : "android::hardware::wifi::V1_1::IWifiChip::TxPowerScenario::VOICE_CALL"
    }
   ],
   "linker_set_key" : "_ZTIN7android8hardware4wifi4V1_19IWifiChip15TxPowerScenarioE",
   "name" : "android::hardware::wifi::V1_1::IWifiChip::TxPowerScenario",
   "referenced_type" : "_ZTIN7android8hardware4wifi4V1_19IWifiChip15TxPowerScenarioE",
   "self_type" : "_ZTIN7android8hardware4wifi4V1_19IWifiChip15TxPowerScenarioE",
   "size" : 4,
   "source_file" : "/out/soong/.intermediates/hardware/interfaces/wifi/1.1/android.hardware.wifi@1.1_genc++_headers/gen/android/hardware/wifi/1.1/IWifiChip.h",
   "underlying_type" : "_ZTIj"
  },
  {
   "alignment" : 4,
   "enum_fields" :
   [
    {
     "enum_field_value" : 1,
     "name" : "android::hardware::wifi::V1_1::IWifiChip::ChipCapabilityMask::DEBUG_MEMORY_FIRMWARE_DUMP"
    },
    {
     "enum_field_value" : 2,
     "name" : "android::hardware::wifi::V1_1::IWifiChip::ChipCapabilityMask::DEBUG_MEMORY_DRIVER_DUMP"
    },
    {
     "enum_field_value" : 4,
     "name" : "android::hardware::wifi::V1_1::IWifiChip::ChipCapabilityMask::DEBUG_RING_BUFFER_CONNECT_EVENT"
    },
    {
     "enum_field_value" : 8,
     "name" : "android::hardware::wifi::V1_1::IWifiChip::ChipCapabilityMask::DEBUG_RING_BUFFER_POWER_EVENT"
    },
    {
     "enum_field_value" : 16,
     "name" : "android::hardware::wifi::V1_1::IWifiChip::ChipCapabilityMask::DEBUG_RING_BUFFER_WAKELOCK_EVENT"
    },
    {
     "enum_field_value" : 32,
     "name" : "android::hardware::wifi::V1_1::IWifiChip::ChipCapabilityMask::DEBUG_RING_BUFFER_VENDOR_DATA"
    },
    {
     "enum_field_value" : 64,
     "name" : "android::hardware::wifi::V1_1::IWifiChip::ChipCapabilityMask::DEBUG_HOST_WAKE_REASON_STATS"
    },
    {
     "enum_field_value" : 128,
     "name" : "android::hardware::wifi::V1_1::IWifiChip::ChipCapabilityMask::DEBUG_ERROR_ALERTS"
    },
    {
     "enum_field_value" : 256,
     "name" : "android::hardware::wifi::V1_1::IWifiChip::ChipCapabilityMask::SET_TX_POWER_LIMIT"
    },
    {
     "enum_field_value" : 512,
     "name" : "android::hardware::wifi::V1_1::IWifiChip::ChipCapabilityMask::D2D_RTT"
    },
    {
     "enum_field_value" : 1024,
     "name" : "android::hardware::wifi::V1_1::IWifiChip::ChipCapabilityMask::D2AP_RTT"
    }
   ],
   "linker_set_key" : "_ZTIN7android8hardware4wifi4V1_19IWifiChip18ChipCapabilityMaskE",
   "name" : "android::hardware::wifi::V1_1::IWifiChip::ChipCapabilityMask",
   "referenced_type" : "_ZTIN7android8hardware4wifi4V1_19IWifiChip18ChipCapabilityMaskE",
   "self_type" : "_ZTIN7android8hardware4wifi4V1_19IWifiChip18ChipCapabilityMaskE",
   "size" : 4,
   "source_file" : "/out/soong/.intermediates/hardware/interfaces/wifi/1.1/android.hardware.wifi@1.1_genc++_headers/gen/android/hardware/wifi/1.1/IWifiChip.h",
   "underlying_type" : "_ZTIj"
  },
  {
   "alignment" : 4,
   "enum_fields" :
   [
    {
     "enum_field_value" : 0,
     "name" : "android::hardware::Status::EX_NONE"
    },
    {
     "enum_field_value" : -1,
     "name" : "android::hardware::Status::EX_SECURITY"
    },
    {
     "enum_field_value" : -2,
     "name" : "android::hardware::Status::EX_BAD_PARCELABLE"
    },
    {
     "enum_field_value" : -3,
     "name" : "android::hardware::Status::EX_ILLEGAL_ARGUMENT"
    },
    {
     "enum_field_value" : -4,
     "name" : "android::hardware::Status::EX_NULL_POINTER"
    },
    {
     "enum_field_value" : -5,
     "name" : "android::hardware::Status::EX_ILLEGAL_STATE"
    },
    {
     "enum_field_value" : -6,
     "name" : "android::hardware::Status::EX_NETWORK_MAIN_THREAD"
    },
    {
     "enum_field_value" : -7,
     "name" : "android::hardware::Status::EX_UNSUPPORTED_OPERATION"
    },
    {
     "enum_field_value" : -128,
     "name" : "android::hardware::Status::EX_HAS_REPLY_HEADER"
    },
    {
     "enum_field_value" : -129,
     "name" : "android::hardware::Status::EX_TRANSACTION_FAILED"
    }
   ],
   "linker_set_key" : "_ZTIN7android8hardware6Status9ExceptionE",
   "name" : "android::hardware::Status::Exception",
   "referenced_type" : "_ZTIN7android8hardware6Status9ExceptionE",
   "self_type" : "_ZTIN7android8hardware6Status9ExceptionE",
   "size" : 4,
   "source_file" : "/system/libhidl/base/include/hidl/Status.h",
   "underlying_type" : "_ZTIi"
  },
  {
   "alignment" : 4,
   "enum_fields" :
   [
    {
     "enum_field_value" : 1,
     "name" : "android::hardware::IBinder::FLAG_ONEWAY"
    }
   ],
   "linker_set_key" : "_ZTIN7android8hardware7IBinder12$FLAG_ONEWAYE",
   "name" : "android::hardware::IBinder::(anonymous enum at system/libhwbinder/include/hwbinder/IBinder.h:47:5)",
   "referenced_type" : "_ZTIN7android8hardware7IBinder12$FLAG_ONEWAYE",
   "self_type" : "_ZTIN7android8hardware7IBinder12$FLAG_ONEWAYE",
   "size" : 4,
   "source_file" : "/system/libhwbinder/include/hwbinder/IBinder.h",
   "underlying_type" : "_ZTIj"
  },
  {
   "alignment" : 4,
   "enum_fields" :
   [
    {
     "enum_field_value" : 0,
     "name" : "android::hardware::details::HidlInstrumentor::SERVER_API_ENTRY"
    },
    {
     "enum_field_value" : 1,
     "name" : "android::hardware::details::HidlInstrumentor::SERVER_API_EXIT"
    },
    {
     "enum_field_value" : 2,
     "name" : "android::hardware::details::HidlInstrumentor::CLIENT_API_ENTRY"
    },
    {
     "enum_field_value" : 3,
     "name" : "android::hardware::details::HidlInstrumentor::CLIENT_API_EXIT"
    },
    {
     "enum_field_value" : 4,
     "name" : "android::hardware::details::HidlInstrumentor::SYNC_CALLBACK_ENTRY"
    },
    {
     "enum_field_value" : 5,
     "name" : "android::hardware::details::HidlInstrumentor::SYNC_CALLBACK_EXIT"
    },
    {
     "enum_field_value" : 6,
     "name" : "android::hardware::details::HidlInstrumentor::ASYNC_CALLBACK_ENTRY"
    },
    {
     "enum_field_value" : 7,
     "name" : "android::hardware::details::HidlInstrumentor::ASYNC_CALLBACK_EXIT"
    },
    {
     "enum_field_value" : 8,
     "name" : "android::hardware::details::HidlInstrumentor::PASSTHROUGH_ENTRY"
    },
    {
     "enum_field_value" : 9,
     "name" : "android::hardware::details::HidlInstrumentor::PASSTHROUGH_EXIT"
    }
   ],
   "linker_set_key" : "_ZTIN7android8hardware7details16HidlInstrumentor20InstrumentationEventE",
   "name" : "android::hardware::details::HidlInstrumentor::InstrumentationEvent",
   "referenced_type" : "_ZTIN7android8hardware7details16HidlInstrumentor20InstrumentationEventE",
   "self_type" : "_ZTIN7android8hardware7details16HidlInstrumentor20InstrumentationEventE",
   "size" : 4,
   "source_file" : "/system/libhidl/base/include/hidl/HidlInternal.h",
   "underlying_type" : "_ZTIj"
  },
  {
   "alignment" : 4,
   "enum_fields" :
   [
    {
     "enum_field_value" : 1,
     "name" : "android::hardware::kSynchronizedReadWrite"
    },
    {
     "enum_field_value" : 2,
     "name" : "android::hardware::kUnsynchronizedWrite"
    }
   ],
   "linker_set_key" : "_ZTIN7android8hardware8MQFlavorE",
   "name" : "android::hardware::MQFlavor",
   "referenced_type" : "_ZTIN7android8hardware8MQFlavorE",
   "self_type" : "_ZTIN7android8hardware8MQFlavorE",
   "size" : 4,
   "source_file" : "/system/libhidl/base/include/hidl/MQDescriptor.h",
   "underlying_type" : "_ZTIj"
  },
  {
   "alignment" : 4,
   "enum_fields" :
   [
    {
     "enum_field_value" : 0,
     "name" : "android::Condition::WAKE_UP_ONE"
    },
    {
     "enum_field_value" : 1,
     "name" : "android::Condition::WAKE_UP_ALL"
    }
   ],
   "linker_set_key" : "_ZTIN7android9Condition10WakeUpTypeE",
   "name" : "android::Condition::WakeUpType",
   "referenced_type" : "_ZTIN7android9Condition10WakeUpTypeE",
   "self_type" : "_ZTIN7android9Condition10WakeUpTypeE",
   "size" : 4,
   "source_file" : "/system/core/libutils/include/utils/Condition.h",
   "underlying_type" : "_ZTIj"
  },
  {
   "alignment" : 4,
   "enum_fields" :
   [
    {
     "enum_field_value" : 0,
     "name" : "android::Condition::PRIVATE"
    },
    {
     "enum_field_value" : 1,
     "name" : "android::Condition::SHARED"
    }
   ],
   "linker_set_key" : "_ZTIN7android9Condition8$PRIVATEE",
   "name" : "android::Condition::(anonymous enum at system/core/libutils/include/utils/Condition.h:54:5)",
   "referenced_type" : "_ZTIN7android9Condition8$PRIVATEE",
   "self_type" : "_ZTIN7android9Condition8$PRIVATEE",
   "size" : 4,
   "source_file" : "/system/core/libutils/include/utils/Condition.h",
   "underlying_type" : "_ZTIj"
  }
 ],
 "function_types" :
 [
  {
   "alignment" : 4,
   "linker_set_key" : "_ZTIFbRKN7android8String16ERKNS_2spINS_8hardware7IBinderEEEPvE",
   "name" : "bool (const android::String16 &, const android::sp<android::hardware::IBinder> &, void *)",
   "parameters" :
   [
    {
     "referenced_type" : "_ZTIRKN7android8String16E"
    },
    {
     "referenced_type" : "_ZTIRKN7android2spINS_8hardware7IBinderEEE"
    },
    {
     "referenced_type" : "_ZTIPv"
    }
   ],
   "referenced_type" : "_ZTIFbRKN7android8String16ERKNS_2spINS_8hardware7IBinderEEEPvE",
   "return_type" : "_ZTIb",
   "self_type" : "_ZTIFbRKN7android8String16ERKNS_2spINS_8hardware7IBinderEEEPvE",
   "source_file" : "/system/libhwbinder/include/hwbinder/ProcessState.h"
  },
  {
   "alignment" : 4,
   "linker_set_key" : "_ZTIFiPvE",
   "name" : "int (void *)",
   "parameters" :
   [
    {
     "referenced_type" : "_ZTIPv"
    }
   ],
   "referenced_type" : "_ZTIFiPvE",
   "return_type" : "_ZTIi",
   "self_type" : "_ZTIFiPvE",
   "source_file" : "/system/core/libutils/include/utils/AndroidThreads.h"
  },
  {
   "alignment" : 4,
   "linker_set_key" : "_ZTIFvPN7android8hardware6ParcelEPKhmPKymPvE",
   "name" : "void (android::hardware::Parcel *, const unsigned char *, unsigned long, const unsigned long long *, unsigned long, void *)",
   "parameters" :
   [
    {
     "referenced_type" : "_ZTIPN7android8hardware6ParcelE"
    },
    {
     "referenced_type" : "_ZTIPKh"
    },
    {
     "referenced_type" : "_ZTIm"
    },
    {
     "referenced_type" : "_ZTIPKy"
    },
    {
     "referenced_type" : "_ZTIm"
    },
    {
     "referenced_type" : "_ZTIPv"
    }
   ],
   "referenced_type" : "_ZTIFvPN7android8hardware6ParcelEPKhmPKymPvE",
   "return_type" : "_ZTIv",
   "self_type" : "_ZTIFvPN7android8hardware6ParcelEPKhmPKymPvE",
   "source_file" : "/system/libhwbinder/include/hwbinder/Parcel.h"
  }
 ],
 "functions" :
 [
  {
   "access" : "private",
   "function_name" : "android::hardware::wifi::V1_1::BsWifiChip::addOnewayTask",
   "linker_set_key" : "_ZN7android8hardware4wifi4V1_110BsWifiChip13addOnewayTaskENSt3__18functionIFvvEEE",
   "parameters" :
   [
    {
     "is_this_ptr" : true,
     "referenced_type" : "_ZTIPN7android8hardware4wifi4V1_110BsWifiChipE"
    },
    {
     "referenced_type" : "_ZTINSt3__18functionIFvvEEE"
    }
   ],
   "return_type" : "_ZTIN7android8hardware6ReturnIvEE",
   "source_file" : "/out/soong/.intermediates/hardware/interfaces/wifi/1.1/android.hardware.wifi@1.1_genc++_headers/gen/android/hardware/wifi/1.1/BsWifiChip.h"
  },
  {
   "function_name" : "android::hardware::wifi::V1_1::BsWifiChip::BsWifiChip",
   "linker_set_key" : "_ZN7android8hardware4wifi4V1_110BsWifiChipC1ENS_2spINS2_9IWifiChipEEE",
   "parameters" :
   [
    {
     "is_this_ptr" : true,
     "referenced_type" : "_ZTIPN7android8hardware4wifi4V1_110BsWifiChipE"
    },
    {
     "referenced_type" : "_ZTIKN7android2spINS_8hardware4wifi4V1_19IWifiChipEEE"
    }
   ],
   "return_type" : "_ZTIv",
   "source_file" : "/out/soong/.intermediates/hardware/interfaces/wifi/1.1/android.hardware.wifi@1.1_genc++_headers/gen/android/hardware/wifi/1.1/BsWifiChip.h"
  },
  {
   "function_name" : "android::hardware::wifi::V1_1::BsWifiChip::BsWifiChip",
   "linker_set_key" : "_ZN7android8hardware4wifi4V1_110BsWifiChipC2ENS_2spINS2_9IWifiChipEEE",
   "parameters" :
   [
    {
     "is_this_ptr" : true,
     "referenced_type" : "_ZTIPN7android8hardware4wifi4V1_110BsWifiChipE"
    },
    {
     "referenced_type" : "_ZTIKN7android2spINS_8hardware4wifi4V1_19IWifiChipEEE"
    }
   ],
   "return_type" : "_ZTIv",
   "source_file" : "/out/soong/.intermediates/hardware/interfaces/wifi/1.1/android.hardware.wifi@1.1_genc++_headers/gen/android/hardware/wifi/1.1/BsWifiChip.h"
  },
  {
   "function_name" : "android::hardware::wifi::V1_1::BnHwWifiChip::onTransact",
   "linker_set_key" : "_ZN7android8hardware4wifi4V1_112BnHwWifiChip10onTransactEjRKNS0_6ParcelEPS4_jNSt3__18functionIFvRS4_EEE",
   "parameters" :
   [
    {
     "is_this_ptr" : true,
     "referenced_type" : "_ZTIPN7android8hardware4wifi4V1_112BnHwWifiChipE"
    },
    {
     "referenced_type" : "_ZTIj"
    },
    {
     "referenced_type" : "_ZTIRKN7android8hardware6ParcelE"
    },
    {
     "referenced_type" : "_ZTIPN7android8hardware6ParcelE"
    },
    {
     "default_arg" : true,
     "referenced_type" : "_ZTIj"
    },
    {
     "default_arg" : true,
     "referenced_type" : "_ZTINSt3__18functionIFvRN7android8hardware6ParcelEEEE"
    }
   ],
   "return_type" : "_ZTIi",
   "source_file" : "/out/soong/.intermediates/hardware/interfaces/wifi/1.1/android.hardware.wifi@1.1_genc++_headers/gen/android/hardware/wifi/1.1/BnHwWifiChip.h"
  },
  {
   "access" : "private",
   "function_name" : "android::hardware::wifi::V1_1::BnHwWifiChip::getDebugInfo",
   "linker_set_key" : "_ZN7android8hardware4wifi4V1_112BnHwWifiChip12getDebugInfoENSt3__18functionIFvRKNS_4hidl4base4V1_09DebugInfoEEEE",
   "parameters" :
   [
    {
     "is_this_ptr" : true,
     "referenced_type" : "_ZTIPN7android8hardware4wifi4V1_112BnHwWifiChipE"
    },
    {
     "referenced_type" : "_ZTINSt3__18functionIFvRKN7android4hidl4base4V1_09DebugInfoEEEE"
    }
   ],
   "return_type" : "_ZTIN7android8hardware6ReturnIvEE",
   "source_file" : "/out/soong/.intermediates/hardware/interfaces/wifi/1.1/android.hardware.wifi@1.1_genc++_headers/gen/android/hardware/wifi/1.1/BnHwWifiChip.h"
  },
  {
   "function_name" : "android::hardware::wifi::V1_1::BnHwWifiChip::_hidl_resetTxPowerScenario",
   "linker_set_key" : "_ZN7android8hardware4wifi4V1_112BnHwWifiChip26_hidl_resetTxPowerScenarioEPNS_4hidl4base4V1_08BnHwBaseERKNS0_6ParcelEPS9_NSt3__18functionIFvRS9_EEE",
   "parameters" :
   [
    {
     "referenced_type" : "_ZTIPN7android4hidl4base4V1_08BnHwBaseE"
    },
    {
     "referenced_type" : "_ZTIRKN7android8hardware6ParcelE"
    },
    {
     "referenced_type" : "_ZTIPN7android8hardware6ParcelE"
    },
    {
     "referenced_type" : "_ZTINSt3__18functionIFvRN7android8hardware6ParcelEEEE"
    }
   ],
   "return_type" : "_ZTIi",
   "source_file" : "/out/soong/.intermediates/hardware/interfaces/wifi/1.1/android.hardware.wifi@1.1_genc++_headers/gen/android/hardware/wifi/1.1/BnHwWifiChip.h"
  },
  {
   "function_name" : "android::hardware::wifi::V1_1::BnHwWifiChip::_hidl_selectTxPowerScenario",
   "linker_set_key" : "_ZN7android8hardware4wifi4V1_112BnHwWifiChip27_hidl_selectTxPowerScenarioEPNS_4hidl4base4V1_08BnHwBaseERKNS0_6ParcelEPS9_NSt3__18functionIFvRS9_EEE",
   "parameters" :
   [
    {
     "referenced_type" : "_ZTIPN7android4hidl4base4V1_08BnHwBaseE"
    },
    {
     "referenced_type" : "_ZTIRKN7android8hardware6ParcelE"
    },
    {
     "referenced_type" : "_ZTIPN7android8hardware6ParcelE"
    },
    {
     "referenced_type" : "_ZTINSt3__18functionIFvRN7android8hardware6ParcelEEEE"
    }
   ],
   "return_type" : "_ZTIi",
   "source_file" : "/out/soong/.intermediates/hardware/interfaces/wifi/1.1/android.hardware.wifi@1.1_genc++_headers/gen/android/hardware/wifi/1.1/BnHwWifiChip.h"
  },
  {
   "access" : "private",
   "function_name" : "android::hardware::wifi::V1_1::BnHwWifiChip::ping",
   "linker_set_key" : "_ZN7android8hardware4wifi4V1_112BnHwWifiChip4pingEv",
   "parameters" :
   [
    {
     "is_this_ptr" : true,
     "referenced_type" : "_ZTIPN7android8hardware4wifi4V1_112BnHwWifiChipE"
    }
   ],
   "return_type" : "_ZTIN7android8hardware6ReturnIvEE",
   "source_file" : "/out/soong/.intermediates/hardware/interfaces/wifi/1.1/android.hardware.wifi@1.1_genc++_headers/gen/android/hardware/wifi/1.1/BnHwWifiChip.h"
  },
  {
   "function_name" : "android::hardware::wifi::V1_1::BnHwWifiChip::BnHwWifiChip",
   "linker_set_key" : "_ZN7android8hardware4wifi4V1_112BnHwWifiChipC1ERKNS_2spINS2_9IWifiChipEEE",
   "parameters" :
   [
    {
     "is_this_ptr" : true,
     "referenced_type" : "_ZTIPN7android8hardware4wifi4V1_112BnHwWifiChipE"
    },
    {
     "referenced_type" : "_ZTIRKN7android2spINS_8hardware4wifi4V1_19IWifiChipEEE"
    }
   ],
   "return_type" : "_ZTIv",
   "source_file" : "/out/soong/.intermediates/hardware/interfaces/wifi/1.1/android.hardware.wifi@1.1_genc++_headers/gen/android/hardware/wifi/1.1/BnHwWifiChip.h"
  },
  {
   "function_name" : "android::hardware::wifi::V1_1::BnHwWifiChip::BnHwWifiChip",
   "linker_set_key" : "_ZN7android8hardware4wifi4V1_112BnHwWifiChipC2ERKNS_2spINS2_9IWifiChipEEE",
   "parameters" :
   [
    {
     "is_this_ptr" : true,
     "referenced_type" : "_ZTIPN7android8hardware4wifi4V1_112BnHwWifiChipE"
    },
    {
     "referenced_type" : "_ZTIRKN7android2spINS_8hardware4wifi4V1_19IWifiChipEEE"
    }
   ],
   "return_type" : "_ZTIv",
   "source_file" : "/out/soong/.intermediates/hardware/interfaces/wifi/1.1/android.hardware.wifi@1.1_genc++_headers/gen/android/hardware/wifi/1.1/BnHwWifiChip.h"
  },
  {
   "function_name" : "android::hardware::wifi::V1_1::BnHwWifiChip::~BnHwWifiChip",
   "linker_set_key" : "_ZN7android8hardware4wifi4V1_112BnHwWifiChipD0Ev",
   "parameters" :
   [
    {
     "is_this_ptr" : true,
     "referenced_type" : "_ZTIPN7android8hardware4wifi4V1_112BnHwWifiChipE"
    }
   ],
   "return_type" : "_ZTIv",
   "source_file" : "/out/soong/.intermediates/hardware/interfaces/wifi/1.1/android.hardware.wifi@1.1_genc++_headers/gen/android/hardware/wifi/1.1/BnHwWifiChip.h"
  },
  {
   "function_name" : "android::hardware::wifi::V1_1::BnHwWifiChip::~BnHwWifiChip",
   "linker_set_key" : "_ZN7android8hardware4wifi4V1_112BnHwWifiChipD1Ev",
   "parameters" :
   [
    {
     "is_this_ptr" : true,
     "referenced_type" : "_ZTIPN7android8hardware4wifi4V1_112BnHwWifiChipE"
    }
   ],
   "return_type" : "_ZTIv",
   "source_file" : "/out/soong/.intermediates/hardware/interfaces/wifi/1.1/android.hardware.wifi@1.1_genc++_headers/gen/android/hardware/wifi/1.1/BnHwWifiChip.h"
  },
  {
   "function_name" : "android::hardware::wifi::V1_1::BnHwWifiChip::~BnHwWifiChip",
   "linker_set_key" : "_ZN7android8hardware4wifi4V1_112BnHwWifiChipD2Ev",
   "parameters" :
   [
    {
     "is_this_ptr" : true,
     "referenced_type" : "_ZTIPN7android8hardware4wifi4V1_112BnHwWifiChipE"
    }
   ],
   "return_type" : "_ZTIv",
   "source_file" : "/out/soong/.intermediates/hardware/interfaces/wifi/1.1/android.hardware.wifi@1.1_genc++_headers/gen/android/hardware/wifi/1.1/BnHwWifiChip.h"
  },
  {
   "function_name" : "android::hardware::wifi::V1_1::BpHwWifiChip::getApIface",
   "linker_set_key" : "_ZN7android8hardware4wifi4V1_112BpHwWifiChip10getApIfaceERKNS0_11hidl_stringENSt3__18functionIFvRKNS1_4V1_010WifiStatusERKNS_2spINS9_12IWifiApIfaceEEEEEE",
   "parameters" :
   [
    {
     "is_this_ptr" : true,
     "referenced_type" : "_ZTIPN7android8hardware4wifi4V1_112BpHwWifiChipE"
    },
    {
     "referenced_type" : "_ZTIRKN7android8hardware11hidl_stringE"
    },
    {
     "referenced_type" : "_ZTINSt3__18functionIFvRKN7android8hardware4wifi4V1_010WifiStatusERKNS1_2spINS4_12IWifiApIfaceEEEEEE"
    }
   ],
   "return_type" : "_ZTIN7android8hardware6ReturnIvEE",
   "source_file" : "/out/soong/.intermediates/hardware/interfaces/wifi/1.1/android.hardware.wifi@1.1_genc++_headers/gen/android/hardware/wifi/1.1/BpHwWifiChip.h"
  },
  {
   "function_name" : "android::hardware::wifi::V1_1::BpHwWifiChip::getNanIface",
   "linker_set_key" : "_ZN7android8hardware4wifi4V1_112BpHwWifiChip11getNanIfaceERKNS0_11hidl_stringENSt3__18functionIFvRKNS1_4V1_010WifiStatusERKNS_2spINS9_13IWifiNanIfaceEEEEEE",
   "parameters" :
   [
    {
     "is_this_ptr" : true,
     "referenced_type" : "_ZTIPN7android8hardware4wifi4V1_112BpHwWifiChipE"
    },
    {
     "referenced_type" : "_ZTIRKN7android8hardware11hidl_stringE"
    },
    {
     "referenced_type" : "_ZTINSt3__18functionIFvRKN7android8hardware4wifi4V1_010WifiStatusERKNS1_2spINS4_13IWifiNanIfaceEEEEEE"
    }
   ],
   "return_type" : "_ZTIN7android8hardware6ReturnIvEE",
   "source_file" : "/out/soong/.intermediates/hardware/interfaces/wifi/1.1/android.hardware.wifi@1.1_genc++_headers/gen/android/hardware/wifi/1.1/BpHwWifiChip.h"
  },
  {
   "function_name" : "android::hardware::wifi::V1_1::BpHwWifiChip::getP2pIface",
   "linker_set_key" : "_ZN7android8hardware4wifi4V1_112BpHwWifiChip11getP2pIfaceERKNS0_11hidl_stringENSt3__18functionIFvRKNS1_4V1_010WifiStatusERKNS_2spINS9_13IWifiP2pIfaceEEEEEE",
   "parameters" :
   [
    {
     "is_this_ptr" : true,
     "referenced_type" : "_ZTIPN7android8hardware4wifi4V1_112BpHwWifiChipE"
    },
    {
     "referenced_type" : "_ZTIRKN7android8hardware11hidl_stringE"
    },
    {
     "referenced_type" : "_ZTINSt3__18functionIFvRKN7android8hardware4wifi4V1_010WifiStatusERKNS1_2spINS4_13IWifiP2pIfaceEEEEEE"
    }
   ],
   "return_type" : "_ZTIN7android8hardware6ReturnIvEE",
   "source_file" : "/out/soong/.intermediates/hardware/interfaces/wifi/1.1/android.hardware.wifi@1.1_genc++_headers/gen/android/hardware/wifi/1.1/BpHwWifiChip.h"
  },
  {
   "function_name" : "android::hardware::wifi::V1_1::BpHwWifiChip::getStaIface",
   "linker_set_key" : "_ZN7android8hardware4wifi4V1_112BpHwWifiChip11getStaIfaceERKNS0_11hidl_stringENSt3__18functionIFvRKNS1_4V1_010WifiStatusERKNS_2spINS9_13IWifiStaIfaceEEEEEE",
   "parameters" :
   [
    {
     "is_this_ptr" : true,
     "referenced_type" : "_ZTIPN7android8hardware4wifi4V1_112BpHwWifiChipE"
    },
    {
     "referenced_type" : "_ZTIRKN7android8hardware11hidl_stringE"
    },
    {
     "referenced_type" : "_ZTINSt3__18functionIFvRKN7android8hardware4wifi4V1_010WifiStatusERKNS1_2spINS4_13IWifiStaIfaceEEEEEE"
    }
   ],
   "return_type" : "_ZTIN7android8hardware6ReturnIvEE",
   "source_file" : "/out/soong/.intermediates/hardware/interfaces/wifi/1.1/android.hardware.wifi@1.1_genc++_headers/gen/android/hardware/wifi/1.1/BpHwWifiChip.h"
  },
  {
   "function_name" : "android::hardware::wifi::V1_1::BpHwWifiChip::linkToDeath",
   "linker_set_key" : "_ZN7android8hardware4wifi4V1_112BpHwWifiChip11linkToDeathERKNS_2spINS0_20hidl_death_recipientEEEm",
   "parameters" :
   [
    {
     "is_this_ptr" : true,
     "referenced_type" : "_ZTIPN7android8hardware4wifi4V1_112BpHwWifiChipE"
    },
    {
     "referenced_type" : "_ZTIRKN7android2spINS_8hardware20hidl_death_recipientEEE"
    },
    {
     "referenced_type" : "_ZTIm"
    }
   ],
   "return_type" : "_ZTIN7android8hardware6ReturnIbEE",
   "source_file" : "/out/soong/.intermediates/hardware/interfaces/wifi/1.1/android.hardware.wifi@1.1_genc++_headers/gen/android/hardware/wifi/1.1/BpHwWifiChip.h"
  },
  {
   "function_name" : "android::hardware::wifi::V1_1::BpHwWifiChip::getDebugInfo",
   "linker_set_key" : "_ZN7android8hardware4wifi4V1_112BpHwWifiChip12getDebugInfoENSt3__18functionIFvRKNS_4hidl4base4V1_09DebugInfoEEEE",
   "parameters" :
   [
    {
     "is_this_ptr" : true,
     "referenced_type" : "_ZTIPN7android8hardware4wifi4V1_112BpHwWifiChipE"
    },
    {
     "referenced_type" : "_ZTINSt3__18functionIFvRKN7android4hidl4base4V1_09DebugInfoEEEE"
    }
   ],
   "return_type" : "_ZTIN7android8hardware6ReturnIvEE",
   "source_file" : "/out/soong/.intermediates/hardware/interfaces/wifi/1.1/android.hardware.wifi@1.1_genc++_headers/gen/android/hardware/wifi/1.1/BpHwWifiChip.h"
  },
  {
   "function_name" : "android::hardware::wifi::V1_1::BpHwWifiChip::getHashChain",
   "linker_set_key" : "_ZN7android8hardware4wifi4V1_112BpHwWifiChip12getHashChainENSt3__18functionIFvRKNS0_8hidl_vecINS0_10hidl_arrayIhLm32EJEEEEEEEE",
   "parameters" :
   [
    {
     "is_this_ptr" : true,
     "referenced_type" : "_ZTIPN7android8hardware4wifi4V1_112BpHwWifiChipE"
    },
    {
     "referenced_type" : "_ZTINSt3__18functionIFvRKN7android8hardware8hidl_vecINS2_10hidl_arrayIhLm32EJEEEEEEEE"
    }
   ],
   "return_type" : "_ZTIN7android8hardware6ReturnIvEE",
   "source_file" : "/out/soong/.intermediates/hardware/interfaces/wifi/1.1/android.hardware.wifi@1.1_genc++_headers/gen/android/hardware/wifi/1.1/BpHwWifiChip.h"
  },
  {
   "function_name" : "android::hardware::wifi::V1_1::BpHwWifiChip::configureChip",
   "linker_set_key" : "_ZN7android8hardware4wifi4V1_112BpHwWifiChip13configureChipEjNSt3__18functionIFvRKNS1_4V1_010WifiStatusEEEE",
   "parameters" :
   [
    {
     "is_this_ptr" : true,
     "referenced_type" : "_ZTIPN7android8hardware4wifi4V1_112BpHwWifiChipE"
    },
    {
     "referenced_type" : "_ZTIj"
    },
    {
     "referenced_type" : "_ZTINSt3__18functionIFvRKN7android8hardware4wifi4V1_010WifiStatusEEEE"
    }
   ],
   "return_type" : "_ZTIN7android8hardware6ReturnIvEE",
   "source_file" : "/out/soong/.intermediates/hardware/interfaces/wifi/1.1/android.hardware.wifi@1.1_genc++_headers/gen/android/hardware/wifi/1.1/BpHwWifiChip.h"
  },
  {
   "function_name" : "android::hardware::wifi::V1_1::BpHwWifiChip::createApIface",
   "linker_set_key" : "_ZN7android8hardware4wifi4V1_112BpHwWifiChip13createApIfaceENSt3__18functionIFvRKNS1_4V1_010WifiStatusERKNS_2spINS6_12IWifiApIfaceEEEEEE",
   "parameters" :
   [
    {
     "is_this_ptr" : true,
     "referenced_type" : "_ZTIPN7android8hardware4wifi4V1_112BpHwWifiChipE"
    },
    {
     "referenced_type" : "_ZTINSt3__18functionIFvRKN7android8hardware4wifi4V1_010WifiStatusERKNS1_2spINS4_12IWifiApIfaceEEEEEE"
    }
   ],
   "return_type" : "_ZTIN7android8hardware6ReturnIvEE",
   "source_file" : "/out/soong/.intermediates/hardware/interfaces/wifi/1.1/android.hardware.wifi@1.1_genc++_headers/gen/android/hardware/wifi/1.1/BpHwWifiChip.h"
  },
  {
   "function_name" : "android::hardware::wifi::V1_1::BpHwWifiChip::removeApIface",
   "linker_set_key" : "_ZN7android8hardware4wifi4V1_112BpHwWifiChip13removeApIfaceERKNS0_11hidl_stringENSt3__18functionIFvRKNS1_4V1_010WifiStatusEEEE",
   "parameters" :
   [
    {
     "is_this_ptr" : true,
     "referenced_type" : "_ZTIPN7android8hardware4wifi4V1_112BpHwWifiChipE"
    },
    {
     "referenced_type" : "_ZTIRKN7android8hardware11hidl_stringE"
    },
    {
     "referenced_type" : "_ZTINSt3__18functionIFvRKN7android8hardware4wifi4V1_010WifiStatusEEEE"
    }
   ],
   "return_type" : "_ZTIN7android8hardware6ReturnIvEE",
   "source_file" : "/out/soong/.intermediates/hardware/interfaces/wifi/1.1/android.hardware.wifi@1.1_genc++_headers/gen/android/hardware/wifi/1.1/BpHwWifiChip.h"
  },
  {
   "function_name" : "android::hardware::wifi::V1_1::BpHwWifiChip::unlinkToDeath",
   "linker_set_key" : "_ZN7android8hardware4wifi4V1_112BpHwWifiChip13unlinkToDeathERKNS_2spINS0_20hidl_death_recipientEEE",
   "parameters" :
   [
    {
     "is_this_ptr" : true,
     "referenced_type" : "_ZTIPN7android8hardware4wifi4V1_112BpHwWifiChipE"
    },
    {
     "referenced_type" : "_ZTIRKN7android2spINS_8hardware20hidl_death_recipientEEE"
    }
   ],
   "return_type" : "_ZTIN7android8hardware6ReturnIbEE",
   "source_file" : "/out/soong/.intermediates/hardware/interfaces/wifi/1.1/android.hardware.wifi@1.1_genc++_headers/gen/android/hardware/wifi/1.1/BpHwWifiChip.h"
  },
  {
   "function_name" : "android::hardware::wifi::V1_1::BpHwWifiChip::createNanIface",
   "linker_set_key" : "_ZN7android8hardware4wifi4V1_112BpHwWifiChip14createNanIfaceENSt3__18functionIFvRKNS1_4V1_010WifiStatusERKNS_2spINS6_13IWifiNanIfaceEEEEEE",
   "parameters" :
   [
    {
     "is_this_ptr" : true,
     "referenced_type" : "_ZTIPN7android8hardware4wifi4V1_112BpHwWifiChipE"
    },
    {
     "referenced_type" : "_ZTINSt3__18functionIFvRKN7android8hardware4wifi4V1_010WifiStatusERKNS1_2spINS4_13IWifiNanIfaceEEEEEE"
    }
   ],
   "return_type" : "_ZTIN7android8hardware6ReturnIvEE",
   "source_file" : "/out/soong/.intermediates/hardware/interfaces/wifi/1.1/android.hardware.wifi@1.1_genc++_headers/gen/android/hardware/wifi/1.1/BpHwWifiChip.h"
  },
  {
   "function_name" : "android::hardware::wifi::V1_1::BpHwWifiChip::createP2pIface",
   "linker_set_key" : "_ZN7android8hardware4wifi4V1_112BpHwWifiChip14createP2pIfaceENSt3__18functionIFvRKNS1_4V1_010WifiStatusERKNS_2spINS6_13IWifiP2pIfaceEEEEEE",
   "parameters" :
   [
    {
     "is_this_ptr" : true,
     "referenced_type" : "_ZTIPN7android8hardware4wifi4V1_112BpHwWifiChipE"
    },
    {
     "referenced_type" : "_ZTINSt3__18functionIFvRKN7android8hardware4wifi4V1_010WifiStatusERKNS1_2spINS4_13IWifiP2pIfaceEEEEEE"
    }
   ],
   "return_type" : "_ZTIN7android8hardware6ReturnIvEE",
   "source_file" : "/out/soong/.intermediates/hardware/interfaces/wifi/1.1/android.hardware.wifi@1.1_genc++_headers/gen/android/hardware/wifi/1.1/BpHwWifiChip.h"
  },
  {
   "function_name" : "android::hardware::wifi::V1_1::BpHwWifiChip::createStaIface",
   "linker_set_key" : "_ZN7android8hardware4wifi4V1_112BpHwWifiChip14createStaIfaceENSt3__18functionIFvRKNS1_4V1_010WifiStatusERKNS_2spINS6_13IWifiStaIfaceEEEEEE",
   "parameters" :
   [
    {
     "is_this_ptr" : true,
     "referenced_type" : "_ZTIPN7android8hardware4wifi4V1_112BpHwWifiChipE"
    },
    {
     "referenced_type" : "_ZTINSt3__18functionIFvRKN7android8hardware4wifi4V1_010WifiStatusERKNS1_2spINS4_13IWifiStaIfaceEEEEEE"
    }
   ],
   "return_type" : "_ZTIN7android8hardware6ReturnIvEE",
   "source_file" : "/out/soong/.intermediates/hardware/interfaces/wifi/1.1/android.hardware.wifi@1.1_genc++_headers/gen/android/hardware/wifi/1.1/BpHwWifiChip.h"
  },
  {
   "function_name" : "android::hardware::wifi::V1_1::BpHwWifiChip::interfaceChain",
   "linker_set_key" : "_ZN7android8hardware4wifi4V1_112BpHwWifiChip14interfaceChainENSt3__18functionIFvRKNS0_8hidl_vecINS0_11hidl_stringEEEEEE",
   "parameters" :
   [
    {
     "is_this_ptr" : true,
     "referenced_type" : "_ZTIPN7android8hardware4wifi4V1_112BpHwWifiChipE"
    },
    {
     "referenced_type" : "_ZTINSt3__18functionIFvRKN7android8hardware8hidl_vecINS2_11hidl_stringEEEEEE"
    }
   ],
   "return_type" : "_ZTIN7android8hardware6ReturnIvEE",
   "source_file" : "/out/soong/.intermediates/hardware/interfaces/wifi/1.1/android.hardware.wifi@1.1_genc++_headers/gen/android/hardware/wifi/1.1/BpHwWifiChip.h"
  },
  {
   "function_name" : "android::hardware::wifi::V1_1::BpHwWifiChip::removeNanIface",
   "linker_set_key" : "_ZN7android8hardware4wifi4V1_112BpHwWifiChip14removeNanIfaceERKNS0_11hidl_stringENSt3__18functionIFvRKNS1_4V1_010WifiStatusEEEE",
   "parameters" :
   [
    {
     "is_this_ptr" : true,
     "referenced_type" : "_ZTIPN7android8hardware4wifi4V1_112BpHwWifiChipE"
    },
    {
     "referenced_type" : "_ZTIRKN7android8hardware11hidl_stringE"
    },
    {
     "referenced_type" : "_ZTINSt3__18functionIFvRKN7android8hardware4wifi4V1_010WifiStatusEEEE"
    }
   ],
   "return_type" : "_ZTIN7android8hardware6ReturnIvEE",
   "source_file" : "/out/soong/.intermediates/hardware/interfaces/wifi/1.1/android.hardware.wifi@1.1_genc++_headers/gen/android/hardware/wifi/1.1/BpHwWifiChip.h"
  },
  {
   "function_name" : "android::hardware::wifi::V1_1::BpHwWifiChip::removeP2pIface",
   "linker_set_key" : "_ZN7android8hardware4wifi4V1_112BpHwWifiChip14removeP2pIfaceERKNS0_11hidl_stringENSt3__18functionIFvRKNS1_4V1_010WifiStatusEEEE",
   "parameters" :
   [
    {
     "is_this_ptr" : true,
     "referenced_type" : "_ZTIPN7android8hardware4wifi4V1_112BpHwWifiChipE"
    },
    {
     "referenced_type" : "_ZTIRKN7android8hardware11hidl_stringE"
    },
    {
     "referenced_type" : "_ZTINSt3__18functionIFvRKN7android8hardware4wifi4V1_010WifiStatusEEEE"
    }
   ],
   "return_type" : "_ZTIN7android8hardware6ReturnIvEE",
   "source_file" : "/out/soong/.intermediates/hardware/interfaces/wifi/1.1/android.hardware.wifi@1.1_genc++_headers/gen/android/hardware/wifi/1.1/BpHwWifiChip.h"
  },
  {
   "function_name" : "android::hardware::wifi::V1_1::BpHwWifiChip::removeStaIface",
   "linker_set_key" : "_ZN7android8hardware4wifi4V1_112BpHwWifiChip14removeStaIfaceERKNS0_11hidl_stringENSt3__18functionIFvRKNS1_4V1_010WifiStatusEEEE",
   "parameters" :
   [
    {
     "is_this_ptr" : true,
     "referenced_type" : "_ZTIPN7android8hardware4wifi4V1_112BpHwWifiChipE"
    },
    {
     "referenced_type" : "_ZTIRKN7android8hardware11hidl_stringE"
    },
    {
     "referenced_type" : "_ZTINSt3__18functionIFvRKN7android8hardware4wifi4V1_010WifiStatusEEEE"
    }
   ],
   "return_type" : "_ZTIN7android8hardware6ReturnIvEE",
   "source_file" : "/out/soong/.intermediates/hardware/interfaces/wifi/1.1/android.hardware.wifi@1.1_genc++_headers/gen/android/hardware/wifi/1.1/BpHwWifiChip.h"
  },
  {
   "function_name" : "android::hardware::wifi::V1_1::BpHwWifiChip::getApIfaceNames",
   "linker_set_key" : "_ZN7android8hardware4wifi4V1_112BpHwWifiChip15getApIfaceNamesENSt3__18functionIFvRKNS1_4V1_010WifiStatusERKNS0_8hidl_vecINS0_11hidl_stringEEEEEE",
   "parameters" :
   [
    {
     "is_this_ptr" : true,
     "referenced_type" : "_ZTIPN7android8hardware4wifi4V1_112BpHwWifiChipE"
    },
    {
     "referenced_type" : "_ZTINSt3__18functionIFvRKN7android8hardware4wifi4V1_010WifiStatusERKNS2_8hidl_vecINS2_11hidl_stringEEEEEE"
    }
   ],
   "return_type" : "_ZTIN7android8hardware6ReturnIvEE",
   "source_file" : "/out/soong/.intermediates/hardware/interfaces/wifi/1.1/android.hardware.wifi@1.1_genc++_headers/gen/android/hardware/wifi/1.1/BpHwWifiChip.h"
  },
  {
   "function_name" : "android::hardware::wifi::V1_1::BpHwWifiChip::getCapabilities",
   "linker_set_key" : "_ZN7android8hardware4wifi4V1_112BpHwWifiChip15getCapabilitiesENSt3__18functionIFvRKNS1_4V1_010WifiStatusEjEEE",
   "parameters" :
   [
    {
     "is_this_ptr" : true,
     "referenced_type" : "_ZTIPN7android8hardware4wifi4V1_112BpHwWifiChipE"
    },
    {
     "referenced_type" : "_ZTINSt3__18functionIFvRKN7android8hardware4wifi4V1_010WifiStatusEjEEE"
    }
   ],
   "return_type" : "_ZTIN7android8hardware6ReturnIvEE",
   "source_file" : "/out/soong/.intermediates/hardware/interfaces/wifi/1.1/android.hardware.wifi@1.1_genc++_headers/gen/android/hardware/wifi/1.1/BpHwWifiChip.h"
  },
  {
   "function_name" : "android::hardware::wifi::V1_1::BpHwWifiChip::onLastStrongRef",
   "linker_set_key" : "_ZN7android8hardware4wifi4V1_112BpHwWifiChip15onLastStrongRefEPKv",
   "parameters" :
   [
    {
     "is_this_ptr" : true,
     "referenced_type" : "_ZTIPN7android8hardware4wifi4V1_112BpHwWifiChipE"
    },
    {
     "referenced_type" : "_ZTIPKv"
    }
   ],
   "return_type" : "_ZTIv",
   "source_file" : "/out/soong/.intermediates/hardware/interfaces/wifi/1.1/android.hardware.wifi@1.1_genc++_headers/gen/android/hardware/wifi/1.1/BpHwWifiChip.h"
  },
  {
   "function_name" : "android::hardware::wifi::V1_1::BpHwWifiChip::getNanIfaceNames",
   "linker_set_key" : "_ZN7android8hardware4wifi4V1_112BpHwWifiChip16getNanIfaceNamesENSt3__18functionIFvRKNS1_4V1_010WifiStatusERKNS0_8hidl_vecINS0_11hidl_stringEEEEEE",
   "parameters" :
   [
    {
     "is_this_ptr" : true,
     "referenced_type" : "_ZTIPN7android8hardware4wifi4V1_112BpHwWifiChipE"
    },
    {
     "referenced_type" : "_ZTINSt3__18functionIFvRKN7android8hardware4wifi4V1_010WifiStatusERKNS2_8hidl_vecINS2_11hidl_stringEEEEEE"
    }
   ],
   "return_type" : "_ZTIN7android8hardware6ReturnIvEE",
   "source_file" : "/out/soong/.intermediates/hardware/interfaces/wifi/1.1/android.hardware.wifi@1.1_genc++_headers/gen/android/hardware/wifi/1.1/BpHwWifiChip.h"
  },
  {
   "function_name" : "android::hardware::wifi::V1_1::BpHwWifiChip::getP2pIfaceNames",
   "linker_set_key" : "_ZN7android8hardware4wifi4V1_112BpHwWifiChip16getP2pIfaceNamesENSt3__18functionIFvRKNS1_4V1_010WifiStatusERKNS0_8hidl_vecINS0_11hidl_stringEEEEEE",
   "parameters" :
   [
    {
     "is_this_ptr" : true,
     "referenced_type" : "_ZTIPN7android8hardware4wifi4V1_112BpHwWifiChipE"
    },
    {
     "referenced_type" : "_ZTINSt3__18functionIFvRKN7android8hardware4wifi4V1_010WifiStatusERKNS2_8hidl_vecINS2_11hidl_stringEEEEEE"
    }
   ],
   "return_type" : "_ZTIN7android8hardware6ReturnIvEE",
   "source_file" : "/out/soong/.intermediates/hardware/interfaces/wifi/1.1/android.hardware.wifi@1.1_genc++_headers/gen/android/hardware/wifi/1.1/BpHwWifiChip.h"
  },
  {
   "function_name" : "android::hardware::wifi::V1_1::BpHwWifiChip::getStaIfaceNames",
   "linker_set_key" : "_ZN7android8hardware4wifi4V1_112BpHwWifiChip16getStaIfaceNamesENSt3__18functionIFvRKNS1_4V1_010WifiStatusERKNS0_8hidl_vecINS0_11hidl_stringEEEEEE",
   "parameters" :
   [
    {
     "is_this_ptr" : true,
     "referenced_type" : "_ZTIPN7android8hardware4wifi4V1_112BpHwWifiChipE"
    },
    {
     "referenced_type" : "_ZTINSt3__18functionIFvRKN7android8hardware4wifi4V1_010WifiStatusERKNS2_8hidl_vecINS2_11hidl_stringEEEEEE"
    }
   ],
   "return_type" : "_ZTIN7android8hardware6ReturnIvEE",
   "source_file" : "/out/soong/.intermediates/hardware/interfaces/wifi/1.1/android.hardware.wifi@1.1_genc++_headers/gen/android/hardware/wifi/1.1/BpHwWifiChip.h"
  },
  {
   "function_name" : "android::hardware::wifi::V1_1::BpHwWifiChip::getAvailableModes",
   "linker_set_key" : "_ZN7android8hardware4wifi4V1_112BpHwWifiChip17getAvailableModesENSt3__18functionIFvRKNS1_4V1_010WifiStatusERKNS0_8hidl_vecINS6_9IWifiChip8ChipModeEEEEEE",
   "parameters" :
   [
    {
     "is_this_ptr" : true,
     "referenced_type" : "_ZTIPN7android8hardware4wifi4V1_112BpHwWifiChipE"
    },
    {
     "referenced_type" : "_ZTINSt3__18functionIFvRKN7android8hardware4wifi4V1_010WifiStatusERKNS2_8hidl_vecINS4_9IWifiChip8ChipModeEEEEEE"
    }
   ],
   "return_type" : "_ZTIN7android8hardware6ReturnIvEE",
   "source_file" : "/out/soong/.intermediates/hardware/interfaces/wifi/1.1/android.hardware.wifi@1.1_genc++_headers/gen/android/hardware/wifi/1.1/BpHwWifiChip.h"
  },
  {
   "function_name" : "android::hardware::wifi::V1_1::BpHwWifiChip::createRttController",
   "linker_set_key" : "_ZN7android8hardware4wifi4V1_112BpHwWifiChip19createRttControllerERKNS_2spINS1_4V1_010IWifiIfaceEEENSt3__18functionIFvRKNS5_10WifiStatusERKNS4_INS5_18IWifiRttControllerEEEEEE",
   "parameters" :
   [
    {
     "is_this_ptr" : true,
     "referenced_type" : "_ZTIPN7android8hardware4wifi4V1_112BpHwWifiChipE"
    },
    {
     "referenced_type" : "_ZTIRKN7android2spINS_8hardware4wifi4V1_010IWifiIfaceEEE"
    },
    {
     "referenced_type" : "_ZTINSt3__18functionIFvRKN7android8hardware4wifi4V1_010WifiStatusERKNS1_2spINS4_18IWifiRttControllerEEEEEE"
    }
   ],
   "return_type" : "_ZTIN7android8hardware6ReturnIvEE",
   "source_file" : "/out/soong/.intermediates/hardware/interfaces/wifi/1.1/android.hardware.wifi@1.1_genc++_headers/gen/android/hardware/wifi/1.1/BpHwWifiChip.h"
  },
  {
   "function_name" : "android::hardware::wifi::V1_1::BpHwWifiChip::interfaceDescriptor",
   "linker_set_key" : "_ZN7android8hardware4wifi4V1_112BpHwWifiChip19interfaceDescriptorENSt3__18functionIFvRKNS0_11hidl_stringEEEE",
   "parameters" :
   [
    {
     "is_this_ptr" : true,
     "referenced_type" : "_ZTIPN7android8hardware4wifi4V1_112BpHwWifiChipE"
    },
    {
     "referenced_type" : "_ZTINSt3__18functionIFvRKN7android8hardware11hidl_stringEEEE"
    }
   ],
   "return_type" : "_ZTIN7android8hardware6ReturnIvEE",
   "source_file" : "/out/soong/.intermediates/hardware/interfaces/wifi/1.1/android.hardware.wifi@1.1_genc++_headers/gen/android/hardware/wifi/1.1/BpHwWifiChip.h"
  },
  {
   "function_name" : "android::hardware::wifi::V1_1::BpHwWifiChip::requestChipDebugInfo",
   "linker_set_key" : "_ZN7android8hardware4wifi4V1_112BpHwWifiChip20requestChipDebugInfoENSt3__18functionIFvRKNS1_4V1_010WifiStatusERKNS6_9IWifiChip13ChipDebugInfoEEEE",
   "parameters" :
   [
    {
     "is_this_ptr" : true,
     "referenced_type" : "_ZTIPN7android8hardware4wifi4V1_112BpHwWifiChipE"
    },
    {
     "referenced_type" : "_ZTINSt3__18functionIFvRKN7android8hardware4wifi4V1_010WifiStatusERKNS4_9IWifiChip13ChipDebugInfoEEEE"
    }
   ],
   "return_type" : "_ZTIN7android8hardware6ReturnIvEE",
   "source_file" : "/out/soong/.intermediates/hardware/interfaces/wifi/1.1/android.hardware.wifi@1.1_genc++_headers/gen/android/hardware/wifi/1.1/BpHwWifiChip.h"
  },
  {
   "function_name" : "android::hardware::wifi::V1_1::BpHwWifiChip::resetTxPowerScenario",
   "linker_set_key" : "_ZN7android8hardware4wifi4V1_112BpHwWifiChip20resetTxPowerScenarioENSt3__18functionIFvRKNS1_4V1_010WifiStatusEEEE",
   "parameters" :
   [
    {
     "is_this_ptr" : true,
     "referenced_type" : "_ZTIPN7android8hardware4wifi4V1_112BpHwWifiChipE"
    },
    {
     "referenced_type" : "_ZTINSt3__18functionIFvRKN7android8hardware4wifi4V1_010WifiStatusEEEE"
    }
   ],
   "return_type" : "_ZTIN7android8hardware6ReturnIvEE",
   "source_file" : "/out/soong/.intermediates/hardware/interfaces/wifi/1.1/android.hardware.wifi@1.1_genc++_headers/gen/android/hardware/wifi/1.1/BpHwWifiChip.h"
  },
  {
   "function_name" : "android::hardware::wifi::V1_1::BpHwWifiChip::notifySyspropsChanged",
   "linker_set_key" : "_ZN7android8hardware4wifi4V1_112BpHwWifiChip21notifySyspropsChangedEv",
   "parameters" :
   [
    {
     "is_this_ptr" : true,
     "referenced_type" : "_ZTIPN7android8hardware4wifi4V1_112BpHwWifiChipE"
    }
   ],
   "return_type" : "_ZTIN7android8hardware6ReturnIvEE",
   "source_file" : "/out/soong/.intermediates/hardware/interfaces/wifi/1.1/android.hardware.wifi@1.1_genc++_headers/gen/android/hardware/wifi/1.1/BpHwWifiChip.h"
  },
  {
   "function_name" : "android::hardware::wifi::V1_1::BpHwWifiChip::registerEventCallback",
   "linker_set_key" : "_ZN7android8hardware4wifi4V1_112BpHwWifiChip21registerEventCallbackERKNS_2spINS1_4V1_022IWifiChipEventCallbackEEENSt3__18functionIFvRKNS5_10WifiStatusEEEE",
   "parameters" :
   [
    {
     "is_this_ptr" : true,
     "referenced_type" : "_ZTIPN7android8hardware4wifi4V1_112BpHwWifiChipE"
    },
    {
     "referenced_type" : "_ZTIRKN7android2spINS_8hardware4wifi4V1_022IWifiChipEventCallbackEEE"
    },
    {
     "referenced_type" : "_ZTINSt3__18functionIFvRKN7android8hardware4wifi4V1_010WifiStatusEEEE"
    }
   ],
   "return_type" : "_ZTIN7android8hardware6ReturnIvEE",
   "source_file" : "/out/soong/.intermediates/hardware/interfaces/wifi/1.1/android.hardware.wifi@1.1_genc++_headers/gen/android/hardware/wifi/1.1/BpHwWifiChip.h"
  },
  {
   "function_name" : "android::hardware::wifi::V1_1::BpHwWifiChip::selectTxPowerScenario",
   "linker_set_key" : "_ZN7android8hardware4wifi4V1_112BpHwWifiChip21selectTxPowerScenarioENS2_9IWifiChip15TxPowerScenarioENSt3__18functionIFvRKNS1_4V1_010WifiStatusEEEE",
   "parameters" :
   [
    {
     "is_this_ptr" : true,
     "referenced_type" : "_ZTIPN7android8hardware4wifi4V1_112BpHwWifiChipE"
    },
    {
     "referenced_type" : "_ZTIN7android8hardware4wifi4V1_19IWifiChip15TxPowerScenarioE"
    },
    {
     "referenced_type" : "_ZTINSt3__18functionIFvRKN7android8hardware4wifi4V1_010WifiStatusEEEE"
    }
   ],
   "return_type" : "_ZTIN7android8hardware6ReturnIvEE",
   "source_file" : "/out/soong/.intermediates/hardware/interfaces/wifi/1.1/android.hardware.wifi@1.1_genc++_headers/gen/android/hardware/wifi/1.1/BpHwWifiChip.h"
  },
  {
   "function_name" : "android::hardware::wifi::V1_1::BpHwWifiChip::setHALInstrumentation",
   "linker_set_key" : "_ZN7android8hardware4wifi4V1_112BpHwWifiChip21setHALInstrumentationEv",
   "parameters" :
   [
    {
     "is_this_ptr" : true,
     "referenced_type" : "_ZTIPN7android8hardware4wifi4V1_112BpHwWifiChipE"
    }
   ],
   "return_type" : "_ZTIN7android8hardware6ReturnIvEE",
   "source_file" : "/out/soong/.intermediates/hardware/interfaces/wifi/1.1/android.hardware.wifi@1.1_genc++_headers/gen/android/hardware/wifi/1.1/BpHwWifiChip.h"
  },
  {
   "function_name" : "android::hardware::wifi::V1_1::BpHwWifiChip::enableDebugErrorAlerts",
   "linker_set_key" : "_ZN7android8hardware4wifi4V1_112BpHwWifiChip22enableDebugErrorAlertsEbNSt3__18functionIFvRKNS1_4V1_010WifiStatusEEEE",
   "parameters" :
   [
    {
     "is_this_ptr" : true,
     "referenced_type" : "_ZTIPN7android8hardware4wifi4V1_112BpHwWifiChipE"
    },
    {
     "referenced_type" : "_ZTIb"
    },
    {
     "referenced_type" : "_ZTINSt3__18functionIFvRKN7android8hardware4wifi4V1_010WifiStatusEEEE"
    }
   ],
   "return_type" : "_ZTIN7android8hardware6ReturnIvEE",
   "source_file" : "/out/soong/.intermediates/hardware/interfaces/wifi/1.1/android.hardware.wifi@1.1_genc++_headers/gen/android/hardware/wifi/1.1/BpHwWifiChip.h"
  },
  {
   "function_name" : "android::hardware::wifi::V1_1::BpHwWifiChip::requestDriverDebugDump",
   "linker_set_key" : "_ZN7android8hardware4wifi4V1_112BpHwWifiChip22requestDriverDebugDumpENSt3__18functionIFvRKNS1_4V1_010WifiStatusERKNS0_8hidl_vecIhEEEEE",
   "parameters" :
   [
    {
     "is_this_ptr" : true,
     "referenced_type" : "_ZTIPN7android8hardware4wifi4V1_112BpHwWifiChipE"
    },
    {
     "referenced_type" : "_ZTINSt3__18functionIFvRKN7android8hardware4wifi4V1_010WifiStatusERKNS2_8hidl_vecIhEEEEE"
    }
   ],
   "return_type" : "_ZTIN7android8hardware6ReturnIvEE",
   "source_file" : "/out/soong/.intermediates/hardware/interfaces/wifi/1.1/android.hardware.wifi@1.1_genc++_headers/gen/android/hardware/wifi/1.1/BpHwWifiChip.h"
  },
  {
   "function_name" : "android::hardware::wifi::V1_1::BpHwWifiChip::requestFirmwareDebugDump",
   "linker_set_key" : "_ZN7android8hardware4wifi4V1_112BpHwWifiChip24requestFirmwareDebugDumpENSt3__18functionIFvRKNS1_4V1_010WifiStatusERKNS0_8hidl_vecIhEEEEE",
   "parameters" :
   [
    {
     "is_this_ptr" : true,
     "referenced_type" : "_ZTIPN7android8hardware4wifi4V1_112BpHwWifiChipE"
    },
    {
     "referenced_type" : "_ZTINSt3__18functionIFvRKN7android8hardware4wifi4V1_010WifiStatusERKNS2_8hidl_vecIhEEEEE"
    }
   ],
   "return_type" : "_ZTIN7android8hardware6ReturnIvEE",
   "source_file" : "/out/soong/.intermediates/hardware/interfaces/wifi/1.1/android.hardware.wifi@1.1_genc++_headers/gen/android/hardware/wifi/1.1/BpHwWifiChip.h"
  },
  {
   "function_name" : "android::hardware::wifi::V1_1::BpHwWifiChip::getDebugRingBuffersStatus",
   "linker_set_key" : "_ZN7android8hardware4wifi4V1_112BpHwWifiChip25getDebugRingBuffersStatusENSt3__18functionIFvRKNS1_4V1_010WifiStatusERKNS0_8hidl_vecINS6_25WifiDebugRingBufferStatusEEEEEE",
   "parameters" :
   [
    {
     "is_this_ptr" : true,
     "referenced_type" : "_ZTIPN7android8hardware4wifi4V1_112BpHwWifiChipE"
    },
    {
     "referenced_type" : "_ZTINSt3__18functionIFvRKN7android8hardware4wifi4V1_010WifiStatusERKNS2_8hidl_vecINS4_25WifiDebugRingBufferStatusEEEEEE"
    }
   ],
   "return_type" : "_ZTIN7android8hardware6ReturnIvEE",
   "source_file" : "/out/soong/.intermediates/hardware/interfaces/wifi/1.1/android.hardware.wifi@1.1_genc++_headers/gen/android/hardware/wifi/1.1/BpHwWifiChip.h"
  },
  {
   "function_name" : "android::hardware::wifi::V1_1::BpHwWifiChip::_hidl_resetTxPowerScenario",
   "linker_set_key" : "_ZN7android8hardware4wifi4V1_112BpHwWifiChip26_hidl_resetTxPowerScenarioEPNS0_10IInterfaceEPNS0_7details16HidlInstrumentorENSt3__18functionIFvRKNS1_4V1_010WifiStatusEEEE",
   "parameters" :
   [
    {
     "referenced_type" : "_ZTIPN7android8hardware10IInterfaceE"
    },
    {
     "referenced_type" : "_ZTIPN7android8hardware7details16HidlInstrumentorE"
    },
    {
     "referenced_type" : "_ZTINSt3__18functionIFvRKN7android8hardware4wifi4V1_010WifiStatusEEEE"
    }
   ],
   "return_type" : "_ZTIN7android8hardware6ReturnIvEE",
   "source_file" : "/out/soong/.intermediates/hardware/interfaces/wifi/1.1/android.hardware.wifi@1.1_genc++_headers/gen/android/hardware/wifi/1.1/BpHwWifiChip.h"
  },
  {
   "function_name" : "android::hardware::wifi::V1_1::BpHwWifiChip::forceDumpToDebugRingBuffer",
   "linker_set_key" : "_ZN7android8hardware4wifi4V1_112BpHwWifiChip26forceDumpToDebugRingBufferERKNS0_11hidl_stringENSt3__18functionIFvRKNS1_4V1_010WifiStatusEEEE",
   "parameters" :
   [
    {
     "is_this_ptr" : true,
     "referenced_type" : "_ZTIPN7android8hardware4wifi4V1_112BpHwWifiChipE"
    },
    {
     "referenced_type" : "_ZTIRKN7android8hardware11hidl_stringE"
    },
    {
     "referenced_type" : "_ZTINSt3__18functionIFvRKN7android8hardware4wifi4V1_010WifiStatusEEEE"
    }
   ],
   "return_type" : "_ZTIN7android8hardware6ReturnIvEE",
   "source_file" : "/out/soong/.intermediates/hardware/interfaces/wifi/1.1/android.hardware.wifi@1.1_genc++_headers/gen/android/hardware/wifi/1.1/BpHwWifiChip.h"
  },
  {
   "function_name" : "android::hardware::wifi::V1_1::BpHwWifiChip::_hidl_selectTxPowerScenario",
   "linker_set_key" : "_ZN7android8hardware4wifi4V1_112BpHwWifiChip27_hidl_selectTxPowerScenarioEPNS0_10IInterfaceEPNS0_7details16HidlInstrumentorENS2_9IWifiChip15TxPowerScenarioENSt3__18functionIFvRKNS1_4V1_010WifiStatusEEEE",
   "parameters" :
   [
    {
     "referenced_type" : "_ZTIPN7android8hardware10IInterfaceE"
    },
    {
     "referenced_type" : "_ZTIPN7android8hardware7details16HidlInstrumentorE"
    },
    {
     "referenced_type" : "_ZTIN7android8hardware4wifi4V1_19IWifiChip15TxPowerScenarioE"
    },
    {
     "referenced_type" : "_ZTINSt3__18functionIFvRKN7android8hardware4wifi4V1_010WifiStatusEEEE"
    }
   ],
   "return_type" : "_ZTIN7android8hardware6ReturnIvEE",
   "source_file" : "/out/soong/.intermediates/hardware/interfaces/wifi/1.1/android.hardware.wifi@1.1_genc++_headers/gen/android/hardware/wifi/1.1/BpHwWifiChip.h"
  },
  {
   "function_name" : "android::hardware::wifi::V1_1::BpHwWifiChip::getDebugHostWakeReasonStats",
   "linker_set_key" : "_ZN7android8hardware4wifi4V1_112BpHwWifiChip27getDebugHostWakeReasonStatsENSt3__18functionIFvRKNS1_4V1_010WifiStatusERKNS6_28WifiDebugHostWakeReasonStatsEEEE",
   "parameters" :
   [
    {
     "is_this_ptr" : true,
     "referenced_type" : "_ZTIPN7android8hardware4wifi4V1_112BpHwWifiChipE"
    },
    {
     "referenced_type" : "_ZTINSt3__18functionIFvRKN7android8hardware4wifi4V1_010WifiStatusERKNS4_28WifiDebugHostWakeReasonStatsEEEE"
    }
   ],
   "return_type" : "_ZTIN7android8hardware6ReturnIvEE",
   "source_file" : "/out/soong/.intermediates/hardware/interfaces/wifi/1.1/android.hardware.wifi@1.1_genc++_headers/gen/android/hardware/wifi/1.1/BpHwWifiChip.h"
  },
  {
   "function_name" : "android::hardware::wifi::V1_1::BpHwWifiChip::stopLoggingToDebugRingBuffer",
   "linker_set_key" : "_ZN7android8hardware4wifi4V1_112BpHwWifiChip28stopLoggingToDebugRingBufferENSt3__18functionIFvRKNS1_4V1_010WifiStatusEEEE",
   "parameters" :
   [
    {
     "is_this_ptr" : true,
     "referenced_type" : "_ZTIPN7android8hardware4wifi4V1_112BpHwWifiChipE"
    },
    {
     "referenced_type" : "_ZTINSt3__18functionIFvRKN7android8hardware4wifi4V1_010WifiStatusEEEE"
    }
   ],
   "return_type" : "_ZTIN7android8hardware6ReturnIvEE",
   "source_file" : "/out/soong/.intermediates/hardware/interfaces/wifi/1.1/android.hardware.wifi@1.1_genc++_headers/gen/android/hardware/wifi/1.1/BpHwWifiChip.h"
  },
  {
   "function_name" : "android::hardware::wifi::V1_1::BpHwWifiChip::startLoggingToDebugRingBuffer",
   "linker_set_key" : "_ZN7android8hardware4wifi4V1_112BpHwWifiChip29startLoggingToDebugRingBufferERKNS0_11hidl_stringENS1_4V1_031WifiDebugRingBufferVerboseLevelEjjNSt3__18functionIFvRKNS7_10WifiStatusEEEE",
   "parameters" :
   [
    {
     "is_this_ptr" : true,
     "referenced_type" : "_ZTIPN7android8hardware4wifi4V1_112BpHwWifiChipE"
    },
    {
     "referenced_type" : "_ZTIRKN7android8hardware11hidl_stringE"
    },
    {
     "referenced_type" : "_ZTIN7android8hardware4wifi4V1_031WifiDebugRingBufferVerboseLevelE"
    },
    {
     "referenced_type" : "_ZTIj"
    },
    {
     "referenced_type" : "_ZTIj"
    },
    {
     "referenced_type" : "_ZTINSt3__18functionIFvRKN7android8hardware4wifi4V1_010WifiStatusEEEE"
    }
   ],
   "return_type" : "_ZTIN7android8hardware6ReturnIvEE",
   "source_file" : "/out/soong/.intermediates/hardware/interfaces/wifi/1.1/android.hardware.wifi@1.1_genc++_headers/gen/android/hardware/wifi/1.1/BpHwWifiChip.h"
  },
  {
   "function_name" : "android::hardware::wifi::V1_1::BpHwWifiChip::ping",
   "linker_set_key" : "_ZN7android8hardware4wifi4V1_112BpHwWifiChip4pingEv",
   "parameters" :
   [
    {
     "is_this_ptr" : true,
     "referenced_type" : "_ZTIPN7android8hardware4wifi4V1_112BpHwWifiChipE"
    }
   ],
   "return_type" : "_ZTIN7android8hardware6ReturnIvEE",
   "source_file" : "/out/soong/.intermediates/hardware/interfaces/wifi/1.1/android.hardware.wifi@1.1_genc++_headers/gen/android/hardware/wifi/1.1/BpHwWifiChip.h"
  },
  {
   "function_name" : "android::hardware::wifi::V1_1::BpHwWifiChip::debug",
   "linker_set_key" : "_ZN7android8hardware4wifi4V1_112BpHwWifiChip5debugERKNS0_11hidl_handleERKNS0_8hidl_vecINS0_11hidl_stringEEE",
   "parameters" :
   [
    {
     "is_this_ptr" : true,
     "referenced_type" : "_ZTIPN7android8hardware4wifi4V1_112BpHwWifiChipE"
    },
    {
     "referenced_type" : "_ZTIRKN7android8hardware11hidl_handleE"
    },
    {
     "referenced_type" : "_ZTIRKN7android8hardware8hidl_vecINS0_11hidl_stringEEE"
    }
   ],
   "return_type" : "_ZTIN7android8hardware6ReturnIvEE",
   "source_file" : "/out/soong/.intermediates/hardware/interfaces/wifi/1.1/android.hardware.wifi@1.1_genc++_headers/gen/android/hardware/wifi/1.1/BpHwWifiChip.h"
  },
  {
   "function_name" : "android::hardware::wifi::V1_1::BpHwWifiChip::getId",
   "linker_set_key" : "_ZN7android8hardware4wifi4V1_112BpHwWifiChip5getIdENSt3__18functionIFvRKNS1_4V1_010WifiStatusEjEEE",
   "parameters" :
   [
    {
     "is_this_ptr" : true,
     "referenced_type" : "_ZTIPN7android8hardware4wifi4V1_112BpHwWifiChipE"
    },
    {
     "referenced_type" : "_ZTINSt3__18functionIFvRKN7android8hardware4wifi4V1_010WifiStatusEjEEE"
    }
   ],
   "return_type" : "_ZTIN7android8hardware6ReturnIvEE",
   "source_file" : "/out/soong/.intermediates/hardware/interfaces/wifi/1.1/android.hardware.wifi@1.1_genc++_headers/gen/android/hardware/wifi/1.1/BpHwWifiChip.h"
  },
  {
   "function_name" : "android::hardware::wifi::V1_1::BpHwWifiChip::getMode",
   "linker_set_key" : "_ZN7android8hardware4wifi4V1_112BpHwWifiChip7getModeENSt3__18functionIFvRKNS1_4V1_010WifiStatusEjEEE",
   "parameters" :
   [
    {
     "is_this_ptr" : true,
     "referenced_type" : "_ZTIPN7android8hardware4wifi4V1_112BpHwWifiChipE"
    },
    {
     "referenced_type" : "_ZTINSt3__18functionIFvRKN7android8hardware4wifi4V1_010WifiStatusEjEEE"
    }
   ],
   "return_type" : "_ZTIN7android8hardware6ReturnIvEE",
   "source_file" : "/out/soong/.intermediates/hardware/interfaces/wifi/1.1/android.hardware.wifi@1.1_genc++_headers/gen/android/hardware/wifi/1.1/BpHwWifiChip.h"
  },
  {
   "function_name" : "android::hardware::wifi::V1_1::BpHwWifiChip::BpHwWifiChip",
   "linker_set_key" : "_ZN7android8hardware4wifi4V1_112BpHwWifiChipC1ERKNS_2spINS0_7IBinderEEE",
   "parameters" :
   [
    {
     "is_this_ptr" : true,
     "referenced_type" : "_ZTIPN7android8hardware4wifi4V1_112BpHwWifiChipE"
    },
    {
     "referenced_type" : "_ZTIRKN7android2spINS_8hardware7IBinderEEE"
    }
   ],
   "return_type" : "_ZTIv",
   "source_file" : "/out/soong/.intermediates/hardware/interfaces/wifi/1.1/android.hardware.wifi@1.1_genc++_headers/gen/android/hardware/wifi/1.1/BpHwWifiChip.h"
  },
  {
   "function_name" : "android::hardware::wifi::V1_1::BpHwWifiChip::BpHwWifiChip",
   "linker_set_key" : "_ZN7android8hardware4wifi4V1_112BpHwWifiChipC2ERKNS_2spINS0_7IBinderEEE",
   "parameters" :
   [
    {
     "is_this_ptr" : true,
     "referenced_type" : "_ZTIPN7android8hardware4wifi4V1_112BpHwWifiChipE"
    },
    {
     "referenced_type" : "_ZTIRKN7android2spINS_8hardware7IBinderEEE"
    }
   ],
   "return_type" : "_ZTIv",
   "source_file" : "/out/soong/.intermediates/hardware/interfaces/wifi/1.1/android.hardware.wifi@1.1_genc++_headers/gen/android/hardware/wifi/1.1/BpHwWifiChip.h"
  },
  {
   "function_name" : "android::hardware::wifi::V1_1::IWifi::getService",
   "linker_set_key" : "_ZN7android8hardware4wifi4V1_15IWifi10getServiceERKNSt3__112basic_stringIcNS4_11char_traitsIcEENS4_9allocatorIcEEEEb",
   "parameters" :
   [
    {
     "default_arg" : true,
     "referenced_type" : "_ZTIRKNSt3__112basic_stringIcNS_11char_traitsIcEENS_9allocatorIcEEEE"
    },
    {
     "default_arg" : true,
     "referenced_type" : "_ZTIb"
    }
   ],
   "return_type" : "_ZTIN7android2spINS_8hardware4wifi4V1_15IWifiEEE",
   "source_file" : "/out/soong/.intermediates/hardware/interfaces/wifi/1.1/android.hardware.wifi@1.1_genc++_headers/gen/android/hardware/wifi/1.1/IWifi.h"
  },
  {
   "function_name" : "android::hardware::wifi::V1_1::IWifi::linkToDeath",
   "linker_set_key" : "_ZN7android8hardware4wifi4V1_15IWifi11linkToDeathERKNS_2spINS0_20hidl_death_recipientEEEm",
   "parameters" :
   [
    {
     "is_this_ptr" : true,
     "referenced_type" : "_ZTIPN7android8hardware4wifi4V1_15IWifiE"
    },
    {
     "referenced_type" : "_ZTIRKN7android2spINS_8hardware20hidl_death_recipientEEE"
    },
    {
     "referenced_type" : "_ZTIm"
    }
   ],
   "return_type" : "_ZTIN7android8hardware6ReturnIbEE",
   "source_file" : "/out/soong/.intermediates/hardware/interfaces/wifi/1.1/android.hardware.wifi@1.1_genc++_headers/gen/android/hardware/wifi/1.1/IWifi.h"
  },
  {
   "function_name" : "android::hardware::wifi::V1_1::IWifi::getDebugInfo",
   "linker_set_key" : "_ZN7android8hardware4wifi4V1_15IWifi12getDebugInfoENSt3__18functionIFvRKNS_4hidl4base4V1_09DebugInfoEEEE",
   "parameters" :
   [
    {
     "is_this_ptr" : true,
     "referenced_type" : "_ZTIPN7android8hardware4wifi4V1_15IWifiE"
    },
    {
     "referenced_type" : "_ZTINSt3__18functionIFvRKN7android4hidl4base4V1_09DebugInfoEEEE"
    }
   ],
   "return_type" : "_ZTIN7android8hardware6ReturnIvEE",
   "source_file" : "/out/soong/.intermediates/hardware/interfaces/wifi/1.1/android.hardware.wifi@1.1_genc++_headers/gen/android/hardware/wifi/1.1/IWifi.h"
  },
  {
   "function_name" : "android::hardware::wifi::V1_1::IWifi::getHashChain",
   "linker_set_key" : "_ZN7android8hardware4wifi4V1_15IWifi12getHashChainENSt3__18functionIFvRKNS0_8hidl_vecINS0_10hidl_arrayIhLm32EJEEEEEEEE",
   "parameters" :
   [
    {
     "is_this_ptr" : true,
     "referenced_type" : "_ZTIPN7android8hardware4wifi4V1_15IWifiE"
    },
    {
     "referenced_type" : "_ZTINSt3__18functionIFvRKN7android8hardware8hidl_vecINS2_10hidl_arrayIhLm32EJEEEEEEEE"
    }
   ],
   "return_type" : "_ZTIN7android8hardware6ReturnIvEE",
   "source_file" : "/out/soong/.intermediates/hardware/interfaces/wifi/1.1/android.hardware.wifi@1.1_genc++_headers/gen/android/hardware/wifi/1.1/IWifi.h"
  },
  {
   "function_name" : "android::hardware::wifi::V1_1::IWifi::tryGetService",
   "linker_set_key" : "_ZN7android8hardware4wifi4V1_15IWifi13tryGetServiceERKNSt3__112basic_stringIcNS4_11char_traitsIcEENS4_9allocatorIcEEEEb",
   "parameters" :
   [
    {
     "default_arg" : true,
     "referenced_type" : "_ZTIRKNSt3__112basic_stringIcNS_11char_traitsIcEENS_9allocatorIcEEEE"
    },
    {
     "default_arg" : true,
     "referenced_type" : "_ZTIb"
    }
   ],
   "return_type" : "_ZTIN7android2spINS_8hardware4wifi4V1_15IWifiEEE",
   "source_file" : "/out/soong/.intermediates/hardware/interfaces/wifi/1.1/android.hardware.wifi@1.1_genc++_headers/gen/android/hardware/wifi/1.1/IWifi.h"
  },
  {
   "function_name" : "android::hardware::wifi::V1_1::IWifi::unlinkToDeath",
   "linker_set_key" : "_ZN7android8hardware4wifi4V1_15IWifi13unlinkToDeathERKNS_2spINS0_20hidl_death_recipientEEE",
   "parameters" :
   [
    {
     "is_this_ptr" : true,
     "referenced_type" : "_ZTIPN7android8hardware4wifi4V1_15IWifiE"
    },
    {
     "referenced_type" : "_ZTIRKN7android2spINS_8hardware20hidl_death_recipientEEE"
    }
   ],
   "return_type" : "_ZTIN7android8hardware6ReturnIbEE",
   "source_file" : "/out/soong/.intermediates/hardware/interfaces/wifi/1.1/android.hardware.wifi@1.1_genc++_headers/gen/android/hardware/wifi/1.1/IWifi.h"
  },
  {
   "function_name" : "android::hardware::wifi::V1_1::IWifi::interfaceChain",
   "linker_set_key" : "_ZN7android8hardware4wifi4V1_15IWifi14interfaceChainENSt3__18functionIFvRKNS0_8hidl_vecINS0_11hidl_stringEEEEEE",
   "parameters" :
   [
    {
     "is_this_ptr" : true,
     "referenced_type" : "_ZTIPN7android8hardware4wifi4V1_15IWifiE"
    },
    {
     "referenced_type" : "_ZTINSt3__18functionIFvRKN7android8hardware8hidl_vecINS2_11hidl_stringEEEEEE"
    }
   ],
   "return_type" : "_ZTIN7android8hardware6ReturnIvEE",
   "source_file" : "/out/soong/.intermediates/hardware/interfaces/wifi/1.1/android.hardware.wifi@1.1_genc++_headers/gen/android/hardware/wifi/1.1/IWifi.h"
  },
  {
   "function_name" : "android::hardware::wifi::V1_1::IWifi::registerAsService",
   "linker_set_key" : "_ZN7android8hardware4wifi4V1_15IWifi17registerAsServiceERKNSt3__112basic_stringIcNS4_11char_traitsIcEENS4_9allocatorIcEEEE",
   "parameters" :
   [
    {
     "is_this_ptr" : true,
     "referenced_type" : "_ZTIPN7android8hardware4wifi4V1_15IWifiE"
    },
    {
     "default_arg" : true,
     "referenced_type" : "_ZTIRKNSt3__112basic_stringIcNS_11char_traitsIcEENS_9allocatorIcEEEE"
    }
   ],
   "return_type" : "_ZTIi",
   "source_file" : "/out/soong/.intermediates/hardware/interfaces/wifi/1.1/android.hardware.wifi@1.1_genc++_headers/gen/android/hardware/wifi/1.1/IWifi.h"
  },
  {
   "function_name" : "android::hardware::wifi::V1_1::IWifi::interfaceDescriptor",
   "linker_set_key" : "_ZN7android8hardware4wifi4V1_15IWifi19interfaceDescriptorENSt3__18functionIFvRKNS0_11hidl_stringEEEE",
   "parameters" :
   [
    {
     "is_this_ptr" : true,
     "referenced_type" : "_ZTIPN7android8hardware4wifi4V1_15IWifiE"
    },
    {
     "referenced_type" : "_ZTINSt3__18functionIFvRKN7android8hardware11hidl_stringEEEE"
    }
   ],
   "return_type" : "_ZTIN7android8hardware6ReturnIvEE",
   "source_file" : "/out/soong/.intermediates/hardware/interfaces/wifi/1.1/android.hardware.wifi@1.1_genc++_headers/gen/android/hardware/wifi/1.1/IWifi.h"
  },
  {
   "function_name" : "android::hardware::wifi::V1_1::IWifi::notifySyspropsChanged",
   "linker_set_key" : "_ZN7android8hardware4wifi4V1_15IWifi21notifySyspropsChangedEv",
   "parameters" :
   [
    {
     "is_this_ptr" : true,
     "referenced_type" : "_ZTIPN7android8hardware4wifi4V1_15IWifiE"
    }
   ],
   "return_type" : "_ZTIN7android8hardware6ReturnIvEE",
   "source_file" : "/out/soong/.intermediates/hardware/interfaces/wifi/1.1/android.hardware.wifi@1.1_genc++_headers/gen/android/hardware/wifi/1.1/IWifi.h"
  },
  {
   "function_name" : "android::hardware::wifi::V1_1::IWifi::setHALInstrumentation",
   "linker_set_key" : "_ZN7android8hardware4wifi4V1_15IWifi21setHALInstrumentationEv",
   "parameters" :
   [
    {
     "is_this_ptr" : true,
     "referenced_type" : "_ZTIPN7android8hardware4wifi4V1_15IWifiE"
    }
   ],
   "return_type" : "_ZTIN7android8hardware6ReturnIvEE",
   "source_file" : "/out/soong/.intermediates/hardware/interfaces/wifi/1.1/android.hardware.wifi@1.1_genc++_headers/gen/android/hardware/wifi/1.1/IWifi.h"
  },
  {
   "function_name" : "android::hardware::wifi::V1_1::IWifi::registerForNotifications",
   "linker_set_key" : "_ZN7android8hardware4wifi4V1_15IWifi24registerForNotificationsERKNSt3__112basic_stringIcNS4_11char_traitsIcEENS4_9allocatorIcEEEERKNS_2spINS_4hidl7manager4V1_020IServiceNotificationEEE",
   "parameters" :
   [
    {
     "referenced_type" : "_ZTIRKNSt3__112basic_stringIcNS_11char_traitsIcEENS_9allocatorIcEEEE"
    },
    {
     "referenced_type" : "_ZTIRKN7android2spINS_4hidl7manager4V1_020IServiceNotificationEEE"
    }
   ],
   "return_type" : "_ZTIb",
   "source_file" : "/out/soong/.intermediates/hardware/interfaces/wifi/1.1/android.hardware.wifi@1.1_genc++_headers/gen/android/hardware/wifi/1.1/IWifi.h"
  },
  {
   "function_name" : "android::hardware::wifi::V1_1::IWifi::ping",
   "linker_set_key" : "_ZN7android8hardware4wifi4V1_15IWifi4pingEv",
   "parameters" :
   [
    {
     "is_this_ptr" : true,
     "referenced_type" : "_ZTIPN7android8hardware4wifi4V1_15IWifiE"
    }
   ],
   "return_type" : "_ZTIN7android8hardware6ReturnIvEE",
   "source_file" : "/out/soong/.intermediates/hardware/interfaces/wifi/1.1/android.hardware.wifi@1.1_genc++_headers/gen/android/hardware/wifi/1.1/IWifi.h"
  },
  {
   "function_name" : "android::hardware::wifi::V1_1::IWifi::debug",
   "linker_set_key" : "_ZN7android8hardware4wifi4V1_15IWifi5debugERKNS0_11hidl_handleERKNS0_8hidl_vecINS0_11hidl_stringEEE",
   "parameters" :
   [
    {
     "is_this_ptr" : true,
     "referenced_type" : "_ZTIPN7android8hardware4wifi4V1_15IWifiE"
    },
    {
     "referenced_type" : "_ZTIRKN7android8hardware11hidl_handleE"
    },
    {
     "referenced_type" : "_ZTIRKN7android8hardware8hidl_vecINS0_11hidl_stringEEE"
    }
   ],
   "return_type" : "_ZTIN7android8hardware6ReturnIvEE",
   "source_file" : "/out/soong/.intermediates/hardware/interfaces/wifi/1.1/android.hardware.wifi@1.1_genc++_headers/gen/android/hardware/wifi/1.1/IWifi.h"
  },
  {
   "function_name" : "android::hardware::wifi::V1_1::IWifi::castFrom",
   "linker_set_key" : "_ZN7android8hardware4wifi4V1_15IWifi8castFromERKNS_2spINS1_4V1_05IWifiEEEb",
   "parameters" :
   [
    {
     "referenced_type" : "_ZTIRKN7android2spINS_8hardware4wifi4V1_05IWifiEEE"
    },
    {
     "default_arg" : true,
     "referenced_type" : "_ZTIb"
    }
   ],
   "return_type" : "_ZTIN7android8hardware6ReturnINS_2spINS0_4wifi4V1_15IWifiEEEEE",
   "source_file" : "/out/soong/.intermediates/hardware/interfaces/wifi/1.1/android.hardware.wifi@1.1_genc++_headers/gen/android/hardware/wifi/1.1/IWifi.h"
  },
  {
   "function_name" : "android::hardware::wifi::V1_1::IWifi::castFrom",
   "linker_set_key" : "_ZN7android8hardware4wifi4V1_15IWifi8castFromERKNS_2spINS_4hidl4base4V1_05IBaseEEEb",
   "parameters" :
   [
    {
     "referenced_type" : "_ZTIRKN7android2spINS_4hidl4base4V1_05IBaseEEE"
    },
    {
     "default_arg" : true,
     "referenced_type" : "_ZTIb"
    }
   ],
   "return_type" : "_ZTIN7android8hardware6ReturnINS_2spINS0_4wifi4V1_15IWifiEEEEE",
   "source_file" : "/out/soong/.intermediates/hardware/interfaces/wifi/1.1/android.hardware.wifi@1.1_genc++_headers/gen/android/hardware/wifi/1.1/IWifi.h"
  },
  {
   "function_name" : "android::hardware::wifi::V1_1::IWifi::castFrom",
   "linker_set_key" : "_ZN7android8hardware4wifi4V1_15IWifi8castFromERKNS_2spIS3_EEb",
   "parameters" :
   [
    {
     "referenced_type" : "_ZTIRKN7android2spINS_8hardware4wifi4V1_15IWifiEEE"
    },
    {
     "default_arg" : true,
     "referenced_type" : "_ZTIb"
    }
   ],
   "return_type" : "_ZTIN7android8hardware6ReturnINS_2spINS0_4wifi4V1_15IWifiEEEEE",
   "source_file" : "/out/soong/.intermediates/hardware/interfaces/wifi/1.1/android.hardware.wifi@1.1_genc++_headers/gen/android/hardware/wifi/1.1/IWifi.h"
  },
  {
   "access" : "private",
   "function_name" : "android::hardware::wifi::V1_1::BsWifi::addOnewayTask",
   "linker_set_key" : "_ZN7android8hardware4wifi4V1_16BsWifi13addOnewayTaskENSt3__18functionIFvvEEE",
   "parameters" :
   [
    {
     "is_this_ptr" : true,
     "referenced_type" : "_ZTIPN7android8hardware4wifi4V1_16BsWifiE"
    },
    {
     "referenced_type" : "_ZTINSt3__18functionIFvvEEE"
    }
   ],
   "return_type" : "_ZTIN7android8hardware6ReturnIvEE",
   "source_file" : "/out/soong/.intermediates/hardware/interfaces/wifi/1.1/android.hardware.wifi@1.1_genc++_headers/gen/android/hardware/wifi/1.1/BsWifi.h"
  },
  {
   "function_name" : "android::hardware::wifi::V1_1::BsWifi::BsWifi",
   "linker_set_key" : "_ZN7android8hardware4wifi4V1_16BsWifiC1ENS_2spINS2_5IWifiEEE",
   "parameters" :
   [
    {
     "is_this_ptr" : true,
     "referenced_type" : "_ZTIPN7android8hardware4wifi4V1_16BsWifiE"
    },
    {
     "referenced_type" : "_ZTIKN7android2spINS_8hardware4wifi4V1_15IWifiEEE"
    }
   ],
   "return_type" : "_ZTIv",
   "source_file" : "/out/soong/.intermediates/hardware/interfaces/wifi/1.1/android.hardware.wifi@1.1_genc++_headers/gen/android/hardware/wifi/1.1/BsWifi.h"
  },
  {
   "function_name" : "android::hardware::wifi::V1_1::BsWifi::BsWifi",
   "linker_set_key" : "_ZN7android8hardware4wifi4V1_16BsWifiC2ENS_2spINS2_5IWifiEEE",
   "parameters" :
   [
    {
     "is_this_ptr" : true,
     "referenced_type" : "_ZTIPN7android8hardware4wifi4V1_16BsWifiE"
    },
    {
     "referenced_type" : "_ZTIKN7android2spINS_8hardware4wifi4V1_15IWifiEEE"
    }
   ],
   "return_type" : "_ZTIv",
   "source_file" : "/out/soong/.intermediates/hardware/interfaces/wifi/1.1/android.hardware.wifi@1.1_genc++_headers/gen/android/hardware/wifi/1.1/BsWifi.h"
  },
  {
   "function_name" : "android::hardware::wifi::V1_1::BnHwWifi::onTransact",
   "linker_set_key" : "_ZN7android8hardware4wifi4V1_18BnHwWifi10onTransactEjRKNS0_6ParcelEPS4_jNSt3__18functionIFvRS4_EEE",
   "parameters" :
   [
    {
     "is_this_ptr" : true,
     "referenced_type" : "_ZTIPN7android8hardware4wifi4V1_18BnHwWifiE"
    },
    {
     "referenced_type" : "_ZTIj"
    },
    {
     "referenced_type" : "_ZTIRKN7android8hardware6ParcelE"
    },
    {
     "referenced_type" : "_ZTIPN7android8hardware6ParcelE"
    },
    {
     "default_arg" : true,
     "referenced_type" : "_ZTIj"
    },
    {
     "default_arg" : true,
     "referenced_type" : "_ZTINSt3__18functionIFvRN7android8hardware6ParcelEEEE"
    }
   ],
   "return_type" : "_ZTIi",
   "source_file" : "/out/soong/.intermediates/hardware/interfaces/wifi/1.1/android.hardware.wifi@1.1_genc++_headers/gen/android/hardware/wifi/1.1/BnHwWifi.h"
  },
  {
   "access" : "private",
   "function_name" : "android::hardware::wifi::V1_1::BnHwWifi::getDebugInfo",
   "linker_set_key" : "_ZN7android8hardware4wifi4V1_18BnHwWifi12getDebugInfoENSt3__18functionIFvRKNS_4hidl4base4V1_09DebugInfoEEEE",
   "parameters" :
   [
    {
     "is_this_ptr" : true,
     "referenced_type" : "_ZTIPN7android8hardware4wifi4V1_18BnHwWifiE"
    },
    {
     "referenced_type" : "_ZTINSt3__18functionIFvRKN7android4hidl4base4V1_09DebugInfoEEEE"
    }
   ],
   "return_type" : "_ZTIN7android8hardware6ReturnIvEE",
   "source_file" : "/out/soong/.intermediates/hardware/interfaces/wifi/1.1/android.hardware.wifi@1.1_genc++_headers/gen/android/hardware/wifi/1.1/BnHwWifi.h"
  },
  {
   "access" : "private",
   "function_name" : "android::hardware::wifi::V1_1::BnHwWifi::ping",
   "linker_set_key" : "_ZN7android8hardware4wifi4V1_18BnHwWifi4pingEv",
   "parameters" :
   [
    {
     "is_this_ptr" : true,
     "referenced_type" : "_ZTIPN7android8hardware4wifi4V1_18BnHwWifiE"
    }
   ],
   "return_type" : "_ZTIN7android8hardware6ReturnIvEE",
   "source_file" : "/out/soong/.intermediates/hardware/interfaces/wifi/1.1/android.hardware.wifi@1.1_genc++_headers/gen/android/hardware/wifi/1.1/BnHwWifi.h"
  },
  {
   "function_name" : "android::hardware::wifi::V1_1::BnHwWifi::BnHwWifi",
   "linker_set_key" : "_ZN7android8hardware4wifi4V1_18BnHwWifiC1ERKNS_2spINS2_5IWifiEEE",
   "parameters" :
   [
    {
     "is_this_ptr" : true,
     "referenced_type" : "_ZTIPN7android8hardware4wifi4V1_18BnHwWifiE"
    },
    {
     "referenced_type" : "_ZTIRKN7android2spINS_8hardware4wifi4V1_15IWifiEEE"
    }
   ],
   "return_type" : "_ZTIv",
   "source_file" : "/out/soong/.intermediates/hardware/interfaces/wifi/1.1/android.hardware.wifi@1.1_genc++_headers/gen/android/hardware/wifi/1.1/BnHwWifi.h"
  },
  {
   "function_name" : "android::hardware::wifi::V1_1::BnHwWifi::BnHwWifi",
   "linker_set_key" : "_ZN7android8hardware4wifi4V1_18BnHwWifiC2ERKNS_2spINS2_5IWifiEEE",
   "parameters" :
   [
    {
     "is_this_ptr" : true,
     "referenced_type" : "_ZTIPN7android8hardware4wifi4V1_18BnHwWifiE"
    },
    {
     "referenced_type" : "_ZTIRKN7android2spINS_8hardware4wifi4V1_15IWifiEEE"
    }
   ],
   "return_type" : "_ZTIv",
   "source_file" : "/out/soong/.intermediates/hardware/interfaces/wifi/1.1/android.hardware.wifi@1.1_genc++_headers/gen/android/hardware/wifi/1.1/BnHwWifi.h"
  },
  {
   "function_name" : "android::hardware::wifi::V1_1::BnHwWifi::~BnHwWifi",
   "linker_set_key" : "_ZN7android8hardware4wifi4V1_18BnHwWifiD0Ev",
   "parameters" :
   [
    {
     "is_this_ptr" : true,
     "referenced_type" : "_ZTIPN7android8hardware4wifi4V1_18BnHwWifiE"
    }
   ],
   "return_type" : "_ZTIv",
   "source_file" : "/out/soong/.intermediates/hardware/interfaces/wifi/1.1/android.hardware.wifi@1.1_genc++_headers/gen/android/hardware/wifi/1.1/BnHwWifi.h"
  },
  {
   "function_name" : "android::hardware::wifi::V1_1::BnHwWifi::~BnHwWifi",
   "linker_set_key" : "_ZN7android8hardware4wifi4V1_18BnHwWifiD1Ev",
   "parameters" :
   [
    {
     "is_this_ptr" : true,
     "referenced_type" : "_ZTIPN7android8hardware4wifi4V1_18BnHwWifiE"
    }
   ],
   "return_type" : "_ZTIv",
   "source_file" : "/out/soong/.intermediates/hardware/interfaces/wifi/1.1/android.hardware.wifi@1.1_genc++_headers/gen/android/hardware/wifi/1.1/BnHwWifi.h"
  },
  {
   "function_name" : "android::hardware::wifi::V1_1::BnHwWifi::~BnHwWifi",
   "linker_set_key" : "_ZN7android8hardware4wifi4V1_18BnHwWifiD2Ev",
   "parameters" :
   [
    {
     "is_this_ptr" : true,
     "referenced_type" : "_ZTIPN7android8hardware4wifi4V1_18BnHwWifiE"
    }
   ],
   "return_type" : "_ZTIv",
   "source_file" : "/out/soong/.intermediates/hardware/interfaces/wifi/1.1/android.hardware.wifi@1.1_genc++_headers/gen/android/hardware/wifi/1.1/BnHwWifi.h"
  },
  {
   "function_name" : "android::hardware::wifi::V1_1::BpHwWifi::getChipIds",
   "linker_set_key" : "_ZN7android8hardware4wifi4V1_18BpHwWifi10getChipIdsENSt3__18functionIFvRKNS1_4V1_010WifiStatusERKNS0_8hidl_vecIjEEEEE",
   "parameters" :
   [
    {
     "is_this_ptr" : true,
     "referenced_type" : "_ZTIPN7android8hardware4wifi4V1_18BpHwWifiE"
    },
    {
     "referenced_type" : "_ZTINSt3__18functionIFvRKN7android8hardware4wifi4V1_010WifiStatusERKNS2_8hidl_vecIjEEEEE"
    }
   ],
   "return_type" : "_ZTIN7android8hardware6ReturnIvEE",
   "source_file" : "/out/soong/.intermediates/hardware/interfaces/wifi/1.1/android.hardware.wifi@1.1_genc++_headers/gen/android/hardware/wifi/1.1/BpHwWifi.h"
  },
  {
   "function_name" : "android::hardware::wifi::V1_1::BpHwWifi::linkToDeath",
   "linker_set_key" : "_ZN7android8hardware4wifi4V1_18BpHwWifi11linkToDeathERKNS_2spINS0_20hidl_death_recipientEEEm",
   "parameters" :
   [
    {
     "is_this_ptr" : true,
     "referenced_type" : "_ZTIPN7android8hardware4wifi4V1_18BpHwWifiE"
    },
    {
     "referenced_type" : "_ZTIRKN7android2spINS_8hardware20hidl_death_recipientEEE"
    },
    {
     "referenced_type" : "_ZTIm"
    }
   ],
   "return_type" : "_ZTIN7android8hardware6ReturnIbEE",
   "source_file" : "/out/soong/.intermediates/hardware/interfaces/wifi/1.1/android.hardware.wifi@1.1_genc++_headers/gen/android/hardware/wifi/1.1/BpHwWifi.h"
  },
  {
   "function_name" : "android::hardware::wifi::V1_1::BpHwWifi::getDebugInfo",
   "linker_set_key" : "_ZN7android8hardware4wifi4V1_18BpHwWifi12getDebugInfoENSt3__18functionIFvRKNS_4hidl4base4V1_09DebugInfoEEEE",
   "parameters" :
   [
    {
     "is_this_ptr" : true,
     "referenced_type" : "_ZTIPN7android8hardware4wifi4V1_18BpHwWifiE"
    },
    {
     "referenced_type" : "_ZTINSt3__18functionIFvRKN7android4hidl4base4V1_09DebugInfoEEEE"
    }
   ],
   "return_type" : "_ZTIN7android8hardware6ReturnIvEE",
   "source_file" : "/out/soong/.intermediates/hardware/interfaces/wifi/1.1/android.hardware.wifi@1.1_genc++_headers/gen/android/hardware/wifi/1.1/BpHwWifi.h"
  },
  {
   "function_name" : "android::hardware::wifi::V1_1::BpHwWifi::getHashChain",
   "linker_set_key" : "_ZN7android8hardware4wifi4V1_18BpHwWifi12getHashChainENSt3__18functionIFvRKNS0_8hidl_vecINS0_10hidl_arrayIhLm32EJEEEEEEEE",
   "parameters" :
   [
    {
     "is_this_ptr" : true,
     "referenced_type" : "_ZTIPN7android8hardware4wifi4V1_18BpHwWifiE"
    },
    {
     "referenced_type" : "_ZTINSt3__18functionIFvRKN7android8hardware8hidl_vecINS2_10hidl_arrayIhLm32EJEEEEEEEE"
    }
   ],
   "return_type" : "_ZTIN7android8hardware6ReturnIvEE",
   "source_file" : "/out/soong/.intermediates/hardware/interfaces/wifi/1.1/android.hardware.wifi@1.1_genc++_headers/gen/android/hardware/wifi/1.1/BpHwWifi.h"
  },
  {
   "function_name" : "android::hardware::wifi::V1_1::BpHwWifi::unlinkToDeath",
   "linker_set_key" : "_ZN7android8hardware4wifi4V1_18BpHwWifi13unlinkToDeathERKNS_2spINS0_20hidl_death_recipientEEE",
   "parameters" :
   [
    {
     "is_this_ptr" : true,
     "referenced_type" : "_ZTIPN7android8hardware4wifi4V1_18BpHwWifiE"
    },
    {
     "referenced_type" : "_ZTIRKN7android2spINS_8hardware20hidl_death_recipientEEE"
    }
   ],
   "return_type" : "_ZTIN7android8hardware6ReturnIbEE",
   "source_file" : "/out/soong/.intermediates/hardware/interfaces/wifi/1.1/android.hardware.wifi@1.1_genc++_headers/gen/android/hardware/wifi/1.1/BpHwWifi.h"
  },
  {
   "function_name" : "android::hardware::wifi::V1_1::BpHwWifi::interfaceChain",
   "linker_set_key" : "_ZN7android8hardware4wifi4V1_18BpHwWifi14interfaceChainENSt3__18functionIFvRKNS0_8hidl_vecINS0_11hidl_stringEEEEEE",
   "parameters" :
   [
    {
     "is_this_ptr" : true,
     "referenced_type" : "_ZTIPN7android8hardware4wifi4V1_18BpHwWifiE"
    },
    {
     "referenced_type" : "_ZTINSt3__18functionIFvRKN7android8hardware8hidl_vecINS2_11hidl_stringEEEEEE"
    }
   ],
   "return_type" : "_ZTIN7android8hardware6ReturnIvEE",
   "source_file" : "/out/soong/.intermediates/hardware/interfaces/wifi/1.1/android.hardware.wifi@1.1_genc++_headers/gen/android/hardware/wifi/1.1/BpHwWifi.h"
  },
  {
   "function_name" : "android::hardware::wifi::V1_1::BpHwWifi::onLastStrongRef",
   "linker_set_key" : "_ZN7android8hardware4wifi4V1_18BpHwWifi15onLastStrongRefEPKv",
   "parameters" :
   [
    {
     "is_this_ptr" : true,
     "referenced_type" : "_ZTIPN7android8hardware4wifi4V1_18BpHwWifiE"
    },
    {
     "referenced_type" : "_ZTIPKv"
    }
   ],
   "return_type" : "_ZTIv",
   "source_file" : "/out/soong/.intermediates/hardware/interfaces/wifi/1.1/android.hardware.wifi@1.1_genc++_headers/gen/android/hardware/wifi/1.1/BpHwWifi.h"
  },
  {
   "function_name" : "android::hardware::wifi::V1_1::BpHwWifi::interfaceDescriptor",
   "linker_set_key" : "_ZN7android8hardware4wifi4V1_18BpHwWifi19interfaceDescriptorENSt3__18functionIFvRKNS0_11hidl_stringEEEE",
   "parameters" :
   [
    {
     "is_this_ptr" : true,
     "referenced_type" : "_ZTIPN7android8hardware4wifi4V1_18BpHwWifiE"
    },
    {
     "referenced_type" : "_ZTINSt3__18functionIFvRKN7android8hardware11hidl_stringEEEE"
    }
   ],
   "return_type" : "_ZTIN7android8hardware6ReturnIvEE",
   "source_file" : "/out/soong/.intermediates/hardware/interfaces/wifi/1.1/android.hardware.wifi@1.1_genc++_headers/gen/android/hardware/wifi/1.1/BpHwWifi.h"
  },
  {
   "function_name" : "android::hardware::wifi::V1_1::BpHwWifi::notifySyspropsChanged",
   "linker_set_key" : "_ZN7android8hardware4wifi4V1_18BpHwWifi21notifySyspropsChangedEv",
   "parameters" :
   [
    {
     "is_this_ptr" : true,
     "referenced_type" : "_ZTIPN7android8hardware4wifi4V1_18BpHwWifiE"
    }
   ],
   "return_type" : "_ZTIN7android8hardware6ReturnIvEE",
   "source_file" : "/out/soong/.intermediates/hardware/interfaces/wifi/1.1/android.hardware.wifi@1.1_genc++_headers/gen/android/hardware/wifi/1.1/BpHwWifi.h"
  },
  {
   "function_name" : "android::hardware::wifi::V1_1::BpHwWifi::registerEventCallback",
   "linker_set_key" : "_ZN7android8hardware4wifi4V1_18BpHwWifi21registerEventCallbackERKNS_2spINS1_4V1_018IWifiEventCallbackEEENSt3__18functionIFvRKNS5_10WifiStatusEEEE",
   "parameters" :
   [
    {
     "is_this_ptr" : true,
     "referenced_type" : "_ZTIPN7android8hardware4wifi4V1_18BpHwWifiE"
    },
    {
     "referenced_type" : "_ZTIRKN7android2spINS_8hardware4wifi4V1_018IWifiEventCallbackEEE"
    },
    {
     "referenced_type" : "_ZTINSt3__18functionIFvRKN7android8hardware4wifi4V1_010WifiStatusEEEE"
    }
   ],
   "return_type" : "_ZTIN7android8hardware6ReturnIvEE",
   "source_file" : "/out/soong/.intermediates/hardware/interfaces/wifi/1.1/android.hardware.wifi@1.1_genc++_headers/gen/android/hardware/wifi/1.1/BpHwWifi.h"
  },
  {
   "function_name" : "android::hardware::wifi::V1_1::BpHwWifi::setHALInstrumentation",
   "linker_set_key" : "_ZN7android8hardware4wifi4V1_18BpHwWifi21setHALInstrumentationEv",
   "parameters" :
   [
    {
     "is_this_ptr" : true,
     "referenced_type" : "_ZTIPN7android8hardware4wifi4V1_18BpHwWifiE"
    }
   ],
   "return_type" : "_ZTIN7android8hardware6ReturnIvEE",
   "source_file" : "/out/soong/.intermediates/hardware/interfaces/wifi/1.1/android.hardware.wifi@1.1_genc++_headers/gen/android/hardware/wifi/1.1/BpHwWifi.h"
  },
  {
   "function_name" : "android::hardware::wifi::V1_1::BpHwWifi::ping",
   "linker_set_key" : "_ZN7android8hardware4wifi4V1_18BpHwWifi4pingEv",
   "parameters" :
   [
    {
     "is_this_ptr" : true,
     "referenced_type" : "_ZTIPN7android8hardware4wifi4V1_18BpHwWifiE"
    }
   ],
   "return_type" : "_ZTIN7android8hardware6ReturnIvEE",
   "source_file" : "/out/soong/.intermediates/hardware/interfaces/wifi/1.1/android.hardware.wifi@1.1_genc++_headers/gen/android/hardware/wifi/1.1/BpHwWifi.h"
  },
  {
   "function_name" : "android::hardware::wifi::V1_1::BpHwWifi::stop",
   "linker_set_key" : "_ZN7android8hardware4wifi4V1_18BpHwWifi4stopENSt3__18functionIFvRKNS1_4V1_010WifiStatusEEEE",
   "parameters" :
   [
    {
     "is_this_ptr" : true,
     "referenced_type" : "_ZTIPN7android8hardware4wifi4V1_18BpHwWifiE"
    },
    {
     "referenced_type" : "_ZTINSt3__18functionIFvRKN7android8hardware4wifi4V1_010WifiStatusEEEE"
    }
   ],
   "return_type" : "_ZTIN7android8hardware6ReturnIvEE",
   "source_file" : "/out/soong/.intermediates/hardware/interfaces/wifi/1.1/android.hardware.wifi@1.1_genc++_headers/gen/android/hardware/wifi/1.1/BpHwWifi.h"
  },
  {
   "function_name" : "android::hardware::wifi::V1_1::BpHwWifi::debug",
   "linker_set_key" : "_ZN7android8hardware4wifi4V1_18BpHwWifi5debugERKNS0_11hidl_handleERKNS0_8hidl_vecINS0_11hidl_stringEEE",
   "parameters" :
   [
    {
     "is_this_ptr" : true,
     "referenced_type" : "_ZTIPN7android8hardware4wifi4V1_18BpHwWifiE"
    },
    {
     "referenced_type" : "_ZTIRKN7android8hardware11hidl_handleE"
    },
    {
     "referenced_type" : "_ZTIRKN7android8hardware8hidl_vecINS0_11hidl_stringEEE"
    }
   ],
   "return_type" : "_ZTIN7android8hardware6ReturnIvEE",
   "source_file" : "/out/soong/.intermediates/hardware/interfaces/wifi/1.1/android.hardware.wifi@1.1_genc++_headers/gen/android/hardware/wifi/1.1/BpHwWifi.h"
  },
  {
   "function_name" : "android::hardware::wifi::V1_1::BpHwWifi::start",
   "linker_set_key" : "_ZN7android8hardware4wifi4V1_18BpHwWifi5startENSt3__18functionIFvRKNS1_4V1_010WifiStatusEEEE",
   "parameters" :
   [
    {
     "is_this_ptr" : true,
     "referenced_type" : "_ZTIPN7android8hardware4wifi4V1_18BpHwWifiE"
    },
    {
     "referenced_type" : "_ZTINSt3__18functionIFvRKN7android8hardware4wifi4V1_010WifiStatusEEEE"
    }
   ],
   "return_type" : "_ZTIN7android8hardware6ReturnIvEE",
   "source_file" : "/out/soong/.intermediates/hardware/interfaces/wifi/1.1/android.hardware.wifi@1.1_genc++_headers/gen/android/hardware/wifi/1.1/BpHwWifi.h"
  },
  {
   "function_name" : "android::hardware::wifi::V1_1::BpHwWifi::getChip",
   "linker_set_key" : "_ZN7android8hardware4wifi4V1_18BpHwWifi7getChipEjNSt3__18functionIFvRKNS1_4V1_010WifiStatusERKNS_2spINS6_9IWifiChipEEEEEE",
   "parameters" :
   [
    {
     "is_this_ptr" : true,
     "referenced_type" : "_ZTIPN7android8hardware4wifi4V1_18BpHwWifiE"
    },
    {
     "referenced_type" : "_ZTIj"
    },
    {
     "referenced_type" : "_ZTINSt3__18functionIFvRKN7android8hardware4wifi4V1_010WifiStatusERKNS1_2spINS4_9IWifiChipEEEEEE"
    }
   ],
   "return_type" : "_ZTIN7android8hardware6ReturnIvEE",
   "source_file" : "/out/soong/.intermediates/hardware/interfaces/wifi/1.1/android.hardware.wifi@1.1_genc++_headers/gen/android/hardware/wifi/1.1/BpHwWifi.h"
  },
  {
   "function_name" : "android::hardware::wifi::V1_1::BpHwWifi::isStarted",
   "linker_set_key" : "_ZN7android8hardware4wifi4V1_18BpHwWifi9isStartedEv",
   "parameters" :
   [
    {
     "is_this_ptr" : true,
     "referenced_type" : "_ZTIPN7android8hardware4wifi4V1_18BpHwWifiE"
    }
   ],
   "return_type" : "_ZTIN7android8hardware6ReturnIbEE",
   "source_file" : "/out/soong/.intermediates/hardware/interfaces/wifi/1.1/android.hardware.wifi@1.1_genc++_headers/gen/android/hardware/wifi/1.1/BpHwWifi.h"
  },
  {
   "function_name" : "android::hardware::wifi::V1_1::BpHwWifi::BpHwWifi",
   "linker_set_key" : "_ZN7android8hardware4wifi4V1_18BpHwWifiC1ERKNS_2spINS0_7IBinderEEE",
   "parameters" :
   [
    {
     "is_this_ptr" : true,
     "referenced_type" : "_ZTIPN7android8hardware4wifi4V1_18BpHwWifiE"
    },
    {
     "referenced_type" : "_ZTIRKN7android2spINS_8hardware7IBinderEEE"
    }
   ],
   "return_type" : "_ZTIv",
   "source_file" : "/out/soong/.intermediates/hardware/interfaces/wifi/1.1/android.hardware.wifi@1.1_genc++_headers/gen/android/hardware/wifi/1.1/BpHwWifi.h"
  },
  {
   "function_name" : "android::hardware::wifi::V1_1::BpHwWifi::BpHwWifi",
   "linker_set_key" : "_ZN7android8hardware4wifi4V1_18BpHwWifiC2ERKNS_2spINS0_7IBinderEEE",
   "parameters" :
   [
    {
     "is_this_ptr" : true,
     "referenced_type" : "_ZTIPN7android8hardware4wifi4V1_18BpHwWifiE"
    },
    {
     "referenced_type" : "_ZTIRKN7android2spINS_8hardware7IBinderEEE"
    }
   ],
   "return_type" : "_ZTIv",
   "source_file" : "/out/soong/.intermediates/hardware/interfaces/wifi/1.1/android.hardware.wifi@1.1_genc++_headers/gen/android/hardware/wifi/1.1/BpHwWifi.h"
  },
  {
   "function_name" : "android::hardware::wifi::V1_1::IWifiChip::getService",
   "linker_set_key" : "_ZN7android8hardware4wifi4V1_19IWifiChip10getServiceERKNSt3__112basic_stringIcNS4_11char_traitsIcEENS4_9allocatorIcEEEEb",
   "parameters" :
   [
    {
     "default_arg" : true,
     "referenced_type" : "_ZTIRKNSt3__112basic_stringIcNS_11char_traitsIcEENS_9allocatorIcEEEE"
    },
    {
     "default_arg" : true,
     "referenced_type" : "_ZTIb"
    }
   ],
   "return_type" : "_ZTIN7android2spINS_8hardware4wifi4V1_19IWifiChipEEE",
   "source_file" : "/out/soong/.intermediates/hardware/interfaces/wifi/1.1/android.hardware.wifi@1.1_genc++_headers/gen/android/hardware/wifi/1.1/IWifiChip.h"
  },
  {
   "function_name" : "android::hardware::wifi::V1_1::IWifiChip::linkToDeath",
   "linker_set_key" : "_ZN7android8hardware4wifi4V1_19IWifiChip11linkToDeathERKNS_2spINS0_20hidl_death_recipientEEEm",
   "parameters" :
   [
    {
     "is_this_ptr" : true,
     "referenced_type" : "_ZTIPN7android8hardware4wifi4V1_19IWifiChipE"
    },
    {
     "referenced_type" : "_ZTIRKN7android2spINS_8hardware20hidl_death_recipientEEE"
    },
    {
     "referenced_type" : "_ZTIm"
    }
   ],
   "return_type" : "_ZTIN7android8hardware6ReturnIbEE",
   "source_file" : "/out/soong/.intermediates/hardware/interfaces/wifi/1.1/android.hardware.wifi@1.1_genc++_headers/gen/android/hardware/wifi/1.1/IWifiChip.h"
  },
  {
   "function_name" : "android::hardware::wifi::V1_1::IWifiChip::getDebugInfo",
   "linker_set_key" : "_ZN7android8hardware4wifi4V1_19IWifiChip12getDebugInfoENSt3__18functionIFvRKNS_4hidl4base4V1_09DebugInfoEEEE",
   "parameters" :
   [
    {
     "is_this_ptr" : true,
     "referenced_type" : "_ZTIPN7android8hardware4wifi4V1_19IWifiChipE"
    },
    {
     "referenced_type" : "_ZTINSt3__18functionIFvRKN7android4hidl4base4V1_09DebugInfoEEEE"
    }
   ],
   "return_type" : "_ZTIN7android8hardware6ReturnIvEE",
   "source_file" : "/out/soong/.intermediates/hardware/interfaces/wifi/1.1/android.hardware.wifi@1.1_genc++_headers/gen/android/hardware/wifi/1.1/IWifiChip.h"
  },
  {
   "function_name" : "android::hardware::wifi::V1_1::IWifiChip::getHashChain",
   "linker_set_key" : "_ZN7android8hardware4wifi4V1_19IWifiChip12getHashChainENSt3__18functionIFvRKNS0_8hidl_vecINS0_10hidl_arrayIhLm32EJEEEEEEEE",
   "parameters" :
   [
    {
     "is_this_ptr" : true,
     "referenced_type" : "_ZTIPN7android8hardware4wifi4V1_19IWifiChipE"
    },
    {
     "referenced_type" : "_ZTINSt3__18functionIFvRKN7android8hardware8hidl_vecINS2_10hidl_arrayIhLm32EJEEEEEEEE"
    }
   ],
   "return_type" : "_ZTIN7android8hardware6ReturnIvEE",
   "source_file" : "/out/soong/.intermediates/hardware/interfaces/wifi/1.1/android.hardware.wifi@1.1_genc++_headers/gen/android/hardware/wifi/1.1/IWifiChip.h"
  },
  {
   "function_name" : "android::hardware::wifi::V1_1::IWifiChip::tryGetService",
   "linker_set_key" : "_ZN7android8hardware4wifi4V1_19IWifiChip13tryGetServiceERKNSt3__112basic_stringIcNS4_11char_traitsIcEENS4_9allocatorIcEEEEb",
   "parameters" :
   [
    {
     "default_arg" : true,
     "referenced_type" : "_ZTIRKNSt3__112basic_stringIcNS_11char_traitsIcEENS_9allocatorIcEEEE"
    },
    {
     "default_arg" : true,
     "referenced_type" : "_ZTIb"
    }
   ],
   "return_type" : "_ZTIN7android2spINS_8hardware4wifi4V1_19IWifiChipEEE",
   "source_file" : "/out/soong/.intermediates/hardware/interfaces/wifi/1.1/android.hardware.wifi@1.1_genc++_headers/gen/android/hardware/wifi/1.1/IWifiChip.h"
  },
  {
   "function_name" : "android::hardware::wifi::V1_1::IWifiChip::unlinkToDeath",
   "linker_set_key" : "_ZN7android8hardware4wifi4V1_19IWifiChip13unlinkToDeathERKNS_2spINS0_20hidl_death_recipientEEE",
   "parameters" :
   [
    {
     "is_this_ptr" : true,
     "referenced_type" : "_ZTIPN7android8hardware4wifi4V1_19IWifiChipE"
    },
    {
     "referenced_type" : "_ZTIRKN7android2spINS_8hardware20hidl_death_recipientEEE"
    }
   ],
   "return_type" : "_ZTIN7android8hardware6ReturnIbEE",
   "source_file" : "/out/soong/.intermediates/hardware/interfaces/wifi/1.1/android.hardware.wifi@1.1_genc++_headers/gen/android/hardware/wifi/1.1/IWifiChip.h"
  },
  {
   "function_name" : "android::hardware::wifi::V1_1::IWifiChip::interfaceChain",
   "linker_set_key" : "_ZN7android8hardware4wifi4V1_19IWifiChip14interfaceChainENSt3__18functionIFvRKNS0_8hidl_vecINS0_11hidl_stringEEEEEE",
   "parameters" :
   [
    {
     "is_this_ptr" : true,
     "referenced_type" : "_ZTIPN7android8hardware4wifi4V1_19IWifiChipE"
    },
    {
     "referenced_type" : "_ZTINSt3__18functionIFvRKN7android8hardware8hidl_vecINS2_11hidl_stringEEEEEE"
    }
   ],
   "return_type" : "_ZTIN7android8hardware6ReturnIvEE",
   "source_file" : "/out/soong/.intermediates/hardware/interfaces/wifi/1.1/android.hardware.wifi@1.1_genc++_headers/gen/android/hardware/wifi/1.1/IWifiChip.h"
  },
  {
   "function_name" : "android::hardware::wifi::V1_1::IWifiChip::registerAsService",
   "linker_set_key" : "_ZN7android8hardware4wifi4V1_19IWifiChip17registerAsServiceERKNSt3__112basic_stringIcNS4_11char_traitsIcEENS4_9allocatorIcEEEE",
   "parameters" :
   [
    {
     "is_this_ptr" : true,
     "referenced_type" : "_ZTIPN7android8hardware4wifi4V1_19IWifiChipE"
    },
    {
     "default_arg" : true,
     "referenced_type" : "_ZTIRKNSt3__112basic_stringIcNS_11char_traitsIcEENS_9allocatorIcEEEE"
    }
   ],
   "return_type" : "_ZTIi",
   "source_file" : "/out/soong/.intermediates/hardware/interfaces/wifi/1.1/android.hardware.wifi@1.1_genc++_headers/gen/android/hardware/wifi/1.1/IWifiChip.h"
  },
  {
   "function_name" : "android::hardware::wifi::V1_1::IWifiChip::interfaceDescriptor",
   "linker_set_key" : "_ZN7android8hardware4wifi4V1_19IWifiChip19interfaceDescriptorENSt3__18functionIFvRKNS0_11hidl_stringEEEE",
   "parameters" :
   [
    {
     "is_this_ptr" : true,
     "referenced_type" : "_ZTIPN7android8hardware4wifi4V1_19IWifiChipE"
    },
    {
     "referenced_type" : "_ZTINSt3__18functionIFvRKN7android8hardware11hidl_stringEEEE"
    }
   ],
   "return_type" : "_ZTIN7android8hardware6ReturnIvEE",
   "source_file" : "/out/soong/.intermediates/hardware/interfaces/wifi/1.1/android.hardware.wifi@1.1_genc++_headers/gen/android/hardware/wifi/1.1/IWifiChip.h"
  },
  {
   "function_name" : "android::hardware::wifi::V1_1::IWifiChip::notifySyspropsChanged",
   "linker_set_key" : "_ZN7android8hardware4wifi4V1_19IWifiChip21notifySyspropsChangedEv",
   "parameters" :
   [
    {
     "is_this_ptr" : true,
     "referenced_type" : "_ZTIPN7android8hardware4wifi4V1_19IWifiChipE"
    }
   ],
   "return_type" : "_ZTIN7android8hardware6ReturnIvEE",
   "source_file" : "/out/soong/.intermediates/hardware/interfaces/wifi/1.1/android.hardware.wifi@1.1_genc++_headers/gen/android/hardware/wifi/1.1/IWifiChip.h"
  },
  {
   "function_name" : "android::hardware::wifi::V1_1::IWifiChip::setHALInstrumentation",
   "linker_set_key" : "_ZN7android8hardware4wifi4V1_19IWifiChip21setHALInstrumentationEv",
   "parameters" :
   [
    {
     "is_this_ptr" : true,
     "referenced_type" : "_ZTIPN7android8hardware4wifi4V1_19IWifiChipE"
    }
   ],
   "return_type" : "_ZTIN7android8hardware6ReturnIvEE",
   "source_file" : "/out/soong/.intermediates/hardware/interfaces/wifi/1.1/android.hardware.wifi@1.1_genc++_headers/gen/android/hardware/wifi/1.1/IWifiChip.h"
  },
  {
   "function_name" : "android::hardware::wifi::V1_1::IWifiChip::registerForNotifications",
   "linker_set_key" : "_ZN7android8hardware4wifi4V1_19IWifiChip24registerForNotificationsERKNSt3__112basic_stringIcNS4_11char_traitsIcEENS4_9allocatorIcEEEERKNS_2spINS_4hidl7manager4V1_020IServiceNotificationEEE",
   "parameters" :
   [
    {
     "referenced_type" : "_ZTIRKNSt3__112basic_stringIcNS_11char_traitsIcEENS_9allocatorIcEEEE"
    },
    {
     "referenced_type" : "_ZTIRKN7android2spINS_4hidl7manager4V1_020IServiceNotificationEEE"
    }
   ],
   "return_type" : "_ZTIb",
   "source_file" : "/out/soong/.intermediates/hardware/interfaces/wifi/1.1/android.hardware.wifi@1.1_genc++_headers/gen/android/hardware/wifi/1.1/IWifiChip.h"
  },
  {
   "function_name" : "android::hardware::wifi::V1_1::IWifiChip::ping",
   "linker_set_key" : "_ZN7android8hardware4wifi4V1_19IWifiChip4pingEv",
   "parameters" :
   [
    {
     "is_this_ptr" : true,
     "referenced_type" : "_ZTIPN7android8hardware4wifi4V1_19IWifiChipE"
    }
   ],
   "return_type" : "_ZTIN7android8hardware6ReturnIvEE",
   "source_file" : "/out/soong/.intermediates/hardware/interfaces/wifi/1.1/android.hardware.wifi@1.1_genc++_headers/gen/android/hardware/wifi/1.1/IWifiChip.h"
  },
  {
   "function_name" : "android::hardware::wifi::V1_1::IWifiChip::debug",
   "linker_set_key" : "_ZN7android8hardware4wifi4V1_19IWifiChip5debugERKNS0_11hidl_handleERKNS0_8hidl_vecINS0_11hidl_stringEEE",
   "parameters" :
   [
    {
     "is_this_ptr" : true,
     "referenced_type" : "_ZTIPN7android8hardware4wifi4V1_19IWifiChipE"
    },
    {
     "referenced_type" : "_ZTIRKN7android8hardware11hidl_handleE"
    },
    {
     "referenced_type" : "_ZTIRKN7android8hardware8hidl_vecINS0_11hidl_stringEEE"
    }
   ],
   "return_type" : "_ZTIN7android8hardware6ReturnIvEE",
   "source_file" : "/out/soong/.intermediates/hardware/interfaces/wifi/1.1/android.hardware.wifi@1.1_genc++_headers/gen/android/hardware/wifi/1.1/IWifiChip.h"
  },
  {
   "function_name" : "android::hardware::wifi::V1_1::IWifiChip::castFrom",
   "linker_set_key" : "_ZN7android8hardware4wifi4V1_19IWifiChip8castFromERKNS_2spINS1_4V1_09IWifiChipEEEb",
   "parameters" :
   [
    {
     "referenced_type" : "_ZTIRKN7android2spINS_8hardware4wifi4V1_09IWifiChipEEE"
    },
    {
     "default_arg" : true,
     "referenced_type" : "_ZTIb"
    }
   ],
   "return_type" : "_ZTIN7android8hardware6ReturnINS_2spINS0_4wifi4V1_19IWifiChipEEEEE",
   "source_file" : "/out/soong/.intermediates/hardware/interfaces/wifi/1.1/android.hardware.wifi@1.1_genc++_headers/gen/android/hardware/wifi/1.1/IWifiChip.h"
  },
  {
   "function_name" : "android::hardware::wifi::V1_1::IWifiChip::castFrom",
   "linker_set_key" : "_ZN7android8hardware4wifi4V1_19IWifiChip8castFromERKNS_2spINS_4hidl4base4V1_05IBaseEEEb",
   "parameters" :
   [
    {
     "referenced_type" : "_ZTIRKN7android2spINS_4hidl4base4V1_05IBaseEEE"
    },
    {
     "default_arg" : true,
     "referenced_type" : "_ZTIb"
    }
   ],
   "return_type" : "_ZTIN7android8hardware6ReturnINS_2spINS0_4wifi4V1_19IWifiChipEEEEE",
   "source_file" : "/out/soong/.intermediates/hardware/interfaces/wifi/1.1/android.hardware.wifi@1.1_genc++_headers/gen/android/hardware/wifi/1.1/IWifiChip.h"
  },
  {
   "function_name" : "android::hardware::wifi::V1_1::IWifiChip::castFrom",
   "linker_set_key" : "_ZN7android8hardware4wifi4V1_19IWifiChip8castFromERKNS_2spIS3_EEb",
   "parameters" :
   [
    {
     "referenced_type" : "_ZTIRKN7android2spINS_8hardware4wifi4V1_19IWifiChipEEE"
    },
    {
     "default_arg" : true,
     "referenced_type" : "_ZTIb"
    }
   ],
   "return_type" : "_ZTIN7android8hardware6ReturnINS_2spINS0_4wifi4V1_19IWifiChipEEEEE",
   "source_file" : "/out/soong/.intermediates/hardware/interfaces/wifi/1.1/android.hardware.wifi@1.1_genc++_headers/gen/android/hardware/wifi/1.1/IWifiChip.h"
  },
  {
   "function_name" : "android::hardware::details::castInterface",
   "linker_set_key" : "_ZN7android8hardware7details13castInterfaceINS0_4wifi4V1_15IWifiENS3_4V1_05IWifiENS4_8BpHwWifiEEENS0_6ReturnINS_2spIT_EEEENSA_IT0_EEPKcb",
   "parameters" :
   [
    {
     "referenced_type" : "_ZTIN7android2spINS_8hardware4wifi4V1_05IWifiEEE"
    },
    {
     "referenced_type" : "_ZTIPKc"
    },
    {
     "referenced_type" : "_ZTIb"
    }
   ],
   "return_type" : "_ZTIN7android8hardware6ReturnINS_2spINS0_4wifi4V1_15IWifiEEEEE",
   "source_file" : "/system/libhidl/transport/include/hidl/HidlTransportSupport.h",
   "template_args" :
   [
    "_ZTIN7android8hardware4wifi4V1_15IWifiE",
    "_ZTIN7android8hardware4wifi4V1_05IWifiE",
    "_ZTIN7android8hardware4wifi4V1_18BpHwWifiE"
   ]
  },
  {
   "function_name" : "android::hardware::details::castInterface",
   "linker_set_key" : "_ZN7android8hardware7details13castInterfaceINS0_4wifi4V1_15IWifiENS_4hidl4base4V1_05IBaseENS4_8BpHwWifiEEENS0_6ReturnINS_2spIT_EEEENSC_IT0_EEPKcb",
   "parameters" :
   [
    {
     "referenced_type" : "_ZTIN7android2spINS_4hidl4base4V1_05IBaseEEE"
    },
    {
     "referenced_type" : "_ZTIPKc"
    },
    {
     "referenced_type" : "_ZTIb"
    }
   ],
   "return_type" : "_ZTIN7android8hardware6ReturnINS_2spINS0_4wifi4V1_15IWifiEEEEE",
   "source_file" : "/system/libhidl/transport/include/hidl/HidlTransportSupport.h",
   "template_args" :
   [
    "_ZTIN7android8hardware4wifi4V1_15IWifiE",
    "_ZTIN7android4hidl4base4V1_05IBaseE",
    "_ZTIN7android8hardware4wifi4V1_18BpHwWifiE"
   ]
  },
  {
   "function_name" : "android::hardware::details::castInterface",
   "linker_set_key" : "_ZN7android8hardware7details13castInterfaceINS0_4wifi4V1_19IWifiChipENS3_4V1_09IWifiChipENS4_12BpHwWifiChipEEENS0_6ReturnINS_2spIT_EEEENSA_IT0_EEPKcb",
   "parameters" :
   [
    {
     "referenced_type" : "_ZTIN7android2spINS_8hardware4wifi4V1_09IWifiChipEEE"
    },
    {
     "referenced_type" : "_ZTIPKc"
    },
    {
     "referenced_type" : "_ZTIb"
    }
   ],
   "return_type" : "_ZTIN7android8hardware6ReturnINS_2spINS0_4wifi4V1_19IWifiChipEEEEE",
   "source_file" : "/system/libhidl/transport/include/hidl/HidlTransportSupport.h",
   "template_args" :
   [
    "_ZTIN7android8hardware4wifi4V1_19IWifiChipE",
    "_ZTIN7android8hardware4wifi4V1_09IWifiChipE",
    "_ZTIN7android8hardware4wifi4V1_112BpHwWifiChipE"
   ]
  },
  {
   "function_name" : "android::hardware::details::castInterface",
   "linker_set_key" : "_ZN7android8hardware7details13castInterfaceINS0_4wifi4V1_19IWifiChipENS_4hidl4base4V1_05IBaseENS4_12BpHwWifiChipEEENS0_6ReturnINS_2spIT_EEEENSC_IT0_EEPKcb",
   "parameters" :
   [
    {
     "referenced_type" : "_ZTIN7android2spINS_4hidl4base4V1_05IBaseEEE"
    },
    {
     "referenced_type" : "_ZTIPKc"
    },
    {
     "referenced_type" : "_ZTIb"
    }
   ],
   "return_type" : "_ZTIN7android8hardware6ReturnINS_2spINS0_4wifi4V1_19IWifiChipEEEEE",
   "source_file" : "/system/libhidl/transport/include/hidl/HidlTransportSupport.h",
   "template_args" :
   [
    "_ZTIN7android8hardware4wifi4V1_19IWifiChipE",
    "_ZTIN7android4hidl4base4V1_05IBaseE",
    "_ZTIN7android8hardware4wifi4V1_112BpHwWifiChipE"
   ]
  },
  {
   "function_name" : "android::hardware::details::wrapPassthrough",
   "linker_set_key" : "_ZN7android8hardware7details15wrapPassthroughINS0_4wifi4V1_010IWifiIfaceEvEENS_2spIT_EES8_",
   "parameters" :
   [
    {
     "referenced_type" : "_ZTIN7android2spINS_8hardware4wifi4V1_010IWifiIfaceEEE"
    }
   ],
   "return_type" : "_ZTIN7android2spINS_8hardware4wifi4V1_010IWifiIfaceEEE",
   "source_file" : "/system/libhidl/transport/include/hidl/HidlPassthroughSupport.h",
   "template_args" : [ "_ZTIN7android8hardware4wifi4V1_010IWifiIfaceE", "_ZTIv" ]
  },
  {
   "function_name" : "android::hardware::details::wrapPassthrough",
   "linker_set_key" : "_ZN7android8hardware7details15wrapPassthroughINS0_4wifi4V1_012IWifiApIfaceEvEENS_2spIT_EES8_",
   "parameters" :
   [
    {
     "referenced_type" : "_ZTIN7android2spINS_8hardware4wifi4V1_012IWifiApIfaceEEE"
    }
   ],
   "return_type" : "_ZTIN7android2spINS_8hardware4wifi4V1_012IWifiApIfaceEEE",
   "source_file" : "/system/libhidl/transport/include/hidl/HidlPassthroughSupport.h",
   "template_args" : [ "_ZTIN7android8hardware4wifi4V1_012IWifiApIfaceE", "_ZTIv" ]
  },
  {
   "function_name" : "android::hardware::details::wrapPassthrough",
   "linker_set_key" : "_ZN7android8hardware7details15wrapPassthroughINS0_4wifi4V1_013IWifiNanIfaceEvEENS_2spIT_EES8_",
   "parameters" :
   [
    {
     "referenced_type" : "_ZTIN7android2spINS_8hardware4wifi4V1_013IWifiNanIfaceEEE"
    }
   ],
   "return_type" : "_ZTIN7android2spINS_8hardware4wifi4V1_013IWifiNanIfaceEEE",
   "source_file" : "/system/libhidl/transport/include/hidl/HidlPassthroughSupport.h",
   "template_args" : [ "_ZTIN7android8hardware4wifi4V1_013IWifiNanIfaceE", "_ZTIv" ]
  },
  {
   "function_name" : "android::hardware::details::wrapPassthrough",
   "linker_set_key" : "_ZN7android8hardware7details15wrapPassthroughINS0_4wifi4V1_013IWifiP2pIfaceEvEENS_2spIT_EES8_",
   "parameters" :
   [
    {
     "referenced_type" : "_ZTIN7android2spINS_8hardware4wifi4V1_013IWifiP2pIfaceEEE"
    }
   ],
   "return_type" : "_ZTIN7android2spINS_8hardware4wifi4V1_013IWifiP2pIfaceEEE",
   "source_file" : "/system/libhidl/transport/include/hidl/HidlPassthroughSupport.h",
   "template_args" : [ "_ZTIN7android8hardware4wifi4V1_013IWifiP2pIfaceE", "_ZTIv" ]
  },
  {
   "function_name" : "android::hardware::details::wrapPassthrough",
   "linker_set_key" : "_ZN7android8hardware7details15wrapPassthroughINS0_4wifi4V1_013IWifiStaIfaceEvEENS_2spIT_EES8_",
   "parameters" :
   [
    {
     "referenced_type" : "_ZTIN7android2spINS_8hardware4wifi4V1_013IWifiStaIfaceEEE"
    }
   ],
   "return_type" : "_ZTIN7android2spINS_8hardware4wifi4V1_013IWifiStaIfaceEEE",
   "source_file" : "/system/libhidl/transport/include/hidl/HidlPassthroughSupport.h",
   "template_args" : [ "_ZTIN7android8hardware4wifi4V1_013IWifiStaIfaceE", "_ZTIv" ]
  },
  {
   "function_name" : "android::hardware::details::wrapPassthrough",
   "linker_set_key" : "_ZN7android8hardware7details15wrapPassthroughINS0_4wifi4V1_018IWifiEventCallbackEvEENS_2spIT_EES8_",
   "parameters" :
   [
    {
     "referenced_type" : "_ZTIN7android2spINS_8hardware4wifi4V1_018IWifiEventCallbackEEE"
    }
   ],
   "return_type" : "_ZTIN7android2spINS_8hardware4wifi4V1_018IWifiEventCallbackEEE",
   "source_file" : "/system/libhidl/transport/include/hidl/HidlPassthroughSupport.h",
   "template_args" : [ "_ZTIN7android8hardware4wifi4V1_018IWifiEventCallbackE", "_ZTIv" ]
  },
  {
   "function_name" : "android::hardware::details::wrapPassthrough",
   "linker_set_key" : "_ZN7android8hardware7details15wrapPassthroughINS0_4wifi4V1_018IWifiRttControllerEvEENS_2spIT_EES8_",
   "parameters" :
   [
    {
     "referenced_type" : "_ZTIN7android2spINS_8hardware4wifi4V1_018IWifiRttControllerEEE"
    }
   ],
   "return_type" : "_ZTIN7android2spINS_8hardware4wifi4V1_018IWifiRttControllerEEE",
   "source_file" : "/system/libhidl/transport/include/hidl/HidlPassthroughSupport.h",
   "template_args" : [ "_ZTIN7android8hardware4wifi4V1_018IWifiRttControllerE", "_ZTIv" ]
  },
  {
   "function_name" : "android::hardware::details::wrapPassthrough",
   "linker_set_key" : "_ZN7android8hardware7details15wrapPassthroughINS0_4wifi4V1_022IWifiChipEventCallbackEvEENS_2spIT_EES8_",
   "parameters" :
   [
    {
     "referenced_type" : "_ZTIN7android2spINS_8hardware4wifi4V1_022IWifiChipEventCallbackEEE"
    }
   ],
   "return_type" : "_ZTIN7android2spINS_8hardware4wifi4V1_022IWifiChipEventCallbackEEE",
   "source_file" : "/system/libhidl/transport/include/hidl/HidlPassthroughSupport.h",
   "template_args" : [ "_ZTIN7android8hardware4wifi4V1_022IWifiChipEventCallbackE", "_ZTIv" ]
  },
  {
   "function_name" : "android::hardware::details::wrapPassthrough",
   "linker_set_key" : "_ZN7android8hardware7details15wrapPassthroughINS0_4wifi4V1_09IWifiChipEvEENS_2spIT_EES8_",
   "parameters" :
   [
    {
     "referenced_type" : "_ZTIN7android2spINS_8hardware4wifi4V1_09IWifiChipEEE"
    }
   ],
   "return_type" : "_ZTIN7android2spINS_8hardware4wifi4V1_09IWifiChipEEE",
   "source_file" : "/system/libhidl/transport/include/hidl/HidlPassthroughSupport.h",
   "template_args" : [ "_ZTIN7android8hardware4wifi4V1_09IWifiChipE", "_ZTIv" ]
  },
  {
   "function_name" : "android::hardware::details::getServiceInternal",
   "linker_set_key" : "_ZN7android8hardware7details18getServiceInternalINS0_4wifi4V1_112BpHwWifiChipENS4_9IWifiChipEvvEENS_2spIT0_EERKNSt3__112basic_stringIcNSA_11char_traitsIcEENSA_9allocatorIcEEEEbb",
   "parameters" :
   [
    {
     "referenced_type" : "_ZTIRKNSt3__112basic_stringIcNS_11char_traitsIcEENS_9allocatorIcEEEE"
    },
    {
     "referenced_type" : "_ZTIb"
    },
    {
     "referenced_type" : "_ZTIb"
    }
   ],
   "return_type" : "_ZTIN7android2spINS_8hardware4wifi4V1_19IWifiChipEEE",
   "source_file" : "/system/libhidl/transport/include/hidl/HidlTransportSupport.h",
   "template_args" :
   [
    "_ZTIN7android8hardware4wifi4V1_112BpHwWifiChipE",
    "_ZTIN7android8hardware4wifi4V1_19IWifiChipE",
    "_ZTIv",
    "_ZTIv"
   ]
  },
  {
   "function_name" : "android::hardware::details::getServiceInternal",
   "linker_set_key" : "_ZN7android8hardware7details18getServiceInternalINS0_4wifi4V1_18BpHwWifiENS4_5IWifiEvvEENS_2spIT0_EERKNSt3__112basic_stringIcNSA_11char_traitsIcEENSA_9allocatorIcEEEEbb",
   "parameters" :
   [
    {
     "referenced_type" : "_ZTIRKNSt3__112basic_stringIcNS_11char_traitsIcEENS_9allocatorIcEEEE"
    },
    {
     "referenced_type" : "_ZTIb"
    },
    {
     "referenced_type" : "_ZTIb"
    }
   ],
   "return_type" : "_ZTIN7android2spINS_8hardware4wifi4V1_15IWifiEEE",
   "source_file" : "/system/libhidl/transport/include/hidl/HidlTransportSupport.h",
   "template_args" :
   [
    "_ZTIN7android8hardware4wifi4V1_18BpHwWifiE",
    "_ZTIN7android8hardware4wifi4V1_15IWifiE",
    "_ZTIv",
    "_ZTIv"
   ]
  },
  {
   "function_name" : "android::hardware::wifi::V1_1::BpHwWifiChip::onLastStrongRef",
   "linker_set_key" : "_ZThn16_N7android8hardware4wifi4V1_112BpHwWifiChip15onLastStrongRefEPKv",
   "parameters" :
   [
    {
     "is_this_ptr" : true,
     "referenced_type" : "_ZTIPN7android8hardware4wifi4V1_112BpHwWifiChipE"
    },
    {
     "referenced_type" : "_ZTIPKv"
    }
   ],
   "return_type" : "_ZTIv",
   "source_file" : "/out/soong/.intermediates/hardware/interfaces/wifi/1.1/android.hardware.wifi@1.1_genc++_headers/gen/android/hardware/wifi/1.1/BpHwWifiChip.h"
  },
  {
   "function_name" : "android::hardware::wifi::V1_1::BpHwWifi::onLastStrongRef",
   "linker_set_key" : "_ZThn16_N7android8hardware4wifi4V1_18BpHwWifi15onLastStrongRefEPKv",
   "parameters" :
   [
    {
     "is_this_ptr" : true,
     "referenced_type" : "_ZTIPN7android8hardware4wifi4V1_18BpHwWifiE"
    },
    {
     "referenced_type" : "_ZTIPKv"
    }
   ],
   "return_type" : "_ZTIv",
   "source_file" : "/out/soong/.intermediates/hardware/interfaces/wifi/1.1/android.hardware.wifi@1.1_genc++_headers/gen/android/hardware/wifi/1.1/BpHwWifi.h"
  },
  {
   "function_name" : "android::hardware::wifi::V1_1::BpHwWifiChip::onLastStrongRef",
   "linker_set_key" : "_ZTv0_n40_N7android8hardware4wifi4V1_112BpHwWifiChip15onLastStrongRefEPKv",
   "parameters" :
   [
    {
     "is_this_ptr" : true,
     "referenced_type" : "_ZTIPN7android8hardware4wifi4V1_112BpHwWifiChipE"
    },
    {
     "referenced_type" : "_ZTIPKv"
    }
   ],
   "return_type" : "_ZTIv",
   "source_file" : "/out/soong/.intermediates/hardware/interfaces/wifi/1.1/android.hardware.wifi@1.1_genc++_headers/gen/android/hardware/wifi/1.1/BpHwWifiChip.h"
  },
  {
   "function_name" : "android::hardware::wifi::V1_1::BpHwWifi::onLastStrongRef",
   "linker_set_key" : "_ZTv0_n40_N7android8hardware4wifi4V1_18BpHwWifi15onLastStrongRefEPKv",
   "parameters" :
   [
    {
     "is_this_ptr" : true,
     "referenced_type" : "_ZTIPN7android8hardware4wifi4V1_18BpHwWifiE"
    },
    {
     "referenced_type" : "_ZTIPKv"
    }
   ],
   "return_type" : "_ZTIv",
   "source_file" : "/out/soong/.intermediates/hardware/interfaces/wifi/1.1/android.hardware.wifi@1.1_genc++_headers/gen/android/hardware/wifi/1.1/BpHwWifi.h"
  }
 ],
 "global_vars" :
 [
  {
   "linker_set_key" : "_ZN7android8hardware4wifi4V1_15IWifi10descriptorE",
   "name" : "android::hardware::wifi::V1_1::IWifi::descriptor",
   "referenced_type" : "_ZTIPKc",
   "source_file" : "/out/soong/.intermediates/hardware/interfaces/wifi/1.1/android.hardware.wifi@1.1_genc++_headers/gen/android/hardware/wifi/1.1/IWifi.h"
  },
  {
   "linker_set_key" : "_ZN7android8hardware4wifi4V1_19IWifiChip10descriptorE",
   "name" : "android::hardware::wifi::V1_1::IWifiChip::descriptor",
   "referenced_type" : "_ZTIPKc",
   "source_file" : "/out/soong/.intermediates/hardware/interfaces/wifi/1.1/android.hardware.wifi@1.1_genc++_headers/gen/android/hardware/wifi/1.1/IWifiChip.h"
  }
 ],
 "lvalue_reference_types" :
 [
  {
   "alignment" : 8,
   "linker_set_key" : "_ZTIRK7log_msg",
   "name" : "const log_msg &",
   "referenced_type" : "_ZTIK7log_msg",
   "self_type" : "_ZTIRK7log_msg",
   "size" : 8,
   "source_file" : "/system/core/liblog/include/log/log_read.h"
  },
  {
   "alignment" : 8,
   "linker_set_key" : "_ZTIRKN7android2spINS_4hidl4base4V1_05IBaseEEE",
   "name" : "const android::sp<android::hidl::base::V1_0::IBase> &",
   "referenced_type" : "_ZTIKN7android2spINS_4hidl4base4V1_05IBaseEEE",
   "self_type" : "_ZTIRKN7android2spINS_4hidl4base4V1_05IBaseEEE",
   "size" : 8,
   "source_file" : "/system/core/libutils/include/utils/StrongPointer.h"
  },
  {
   "alignment" : 8,
   "linker_set_key" : "_ZTIRKN7android2spINS_4hidl7manager4V1_020IServiceNotificationEEE",
   "name" : "const android::sp<android::hidl::manager::V1_0::IServiceNotification> &",
   "referenced_type" : "_ZTIKN7android2spINS_4hidl7manager4V1_020IServiceNotificationEEE",
   "self_type" : "_ZTIRKN7android2spINS_4hidl7manager4V1_020IServiceNotificationEEE",
   "size" : 8,
   "source_file" : "/out/soong/.intermediates/hardware/interfaces/wifi/1.1/android.hardware.wifi@1.1_genc++_headers/gen/android/hardware/wifi/1.1/IWifi.h"
  },
  {
   "alignment" : 8,
   "linker_set_key" : "_ZTIRKN7android2spINS_8hardware20hidl_death_recipientEEE",
   "name" : "const android::sp<android::hardware::hidl_death_recipient> &",
   "referenced_type" : "_ZTIKN7android2spINS_8hardware20hidl_death_recipientEEE",
   "self_type" : "_ZTIRKN7android2spINS_8hardware20hidl_death_recipientEEE",
   "size" : 8,
   "source_file" : "/system/core/libutils/include/utils/RefBase.h"
  },
  {
   "alignment" : 8,
   "linker_set_key" : "_ZTIRKN7android2spINS_8hardware27hidl_binder_death_recipientEEE",
   "name" : "const android::sp<android::hardware::hidl_binder_death_recipient> &",
   "referenced_type" : "_ZTIKN7android2spINS_8hardware27hidl_binder_death_recipientEEE",
   "self_type" : "_ZTIRKN7android2spINS_8hardware27hidl_binder_death_recipientEEE",
   "size" : 8,
   "source_file" : "/system/core/libutils/include/utils/RefBase.h"
  },
  {
   "alignment" : 8,
   "linker_set_key" : "_ZTIRKN7android2spINS_8hardware4wifi4V1_010IWifiIfaceEEE",
   "name" : "const android::sp<android::hardware::wifi::V1_0::IWifiIface> &",
   "referenced_type" : "_ZTIKN7android2spINS_8hardware4wifi4V1_010IWifiIfaceEEE",
   "self_type" : "_ZTIRKN7android2spINS_8hardware4wifi4V1_010IWifiIfaceEEE",
   "size" : 8,
   "source_file" : "/system/core/libutils/include/utils/StrongPointer.h"
  },
  {
   "alignment" : 8,
   "linker_set_key" : "_ZTIRKN7android2spINS_8hardware4wifi4V1_012IWifiApIfaceEEE",
   "name" : "const android::sp<android::hardware::wifi::V1_0::IWifiApIface> &",
   "referenced_type" : "_ZTIKN7android2spINS_8hardware4wifi4V1_012IWifiApIfaceEEE",
   "self_type" : "_ZTIRKN7android2spINS_8hardware4wifi4V1_012IWifiApIfaceEEE",
   "size" : 8,
   "source_file" : "/system/core/libutils/include/utils/StrongPointer.h"
  },
  {
   "alignment" : 8,
   "linker_set_key" : "_ZTIRKN7android2spINS_8hardware4wifi4V1_013IWifiNanIfaceEEE",
   "name" : "const android::sp<android::hardware::wifi::V1_0::IWifiNanIface> &",
   "referenced_type" : "_ZTIKN7android2spINS_8hardware4wifi4V1_013IWifiNanIfaceEEE",
   "self_type" : "_ZTIRKN7android2spINS_8hardware4wifi4V1_013IWifiNanIfaceEEE",
   "size" : 8,
   "source_file" : "/system/core/libutils/include/utils/StrongPointer.h"
  },
  {
   "alignment" : 8,
   "linker_set_key" : "_ZTIRKN7android2spINS_8hardware4wifi4V1_013IWifiP2pIfaceEEE",
   "name" : "const android::sp<android::hardware::wifi::V1_0::IWifiP2pIface> &",
   "referenced_type" : "_ZTIKN7android2spINS_8hardware4wifi4V1_013IWifiP2pIfaceEEE",
   "self_type" : "_ZTIRKN7android2spINS_8hardware4wifi4V1_013IWifiP2pIfaceEEE",
   "size" : 8,
   "source_file" : "/system/core/libutils/include/utils/StrongPointer.h"
  },
  {
   "alignment" : 8,
   "linker_set_key" : "_ZTIRKN7android2spINS_8hardware4wifi4V1_013IWifiStaIfaceEEE",
   "name" : "const android::sp<android::hardware::wifi::V1_0::IWifiStaIface> &",
   "referenced_type" : "_ZTIKN7android2spINS_8hardware4wifi4V1_013IWifiStaIfaceEEE",
   "self_type" : "_ZTIRKN7android2spINS_8hardware4wifi4V1_013IWifiStaIfaceEEE",
   "size" : 8,
   "source_file" : "/system/core/libutils/include/utils/StrongPointer.h"
  },
  {
   "alignment" : 8,
   "linker_set_key" : "_ZTIRKN7android2spINS_8hardware4wifi4V1_018IWifiEventCallbackEEE",
   "name" : "const android::sp<android::hardware::wifi::V1_0::IWifiEventCallback> &",
   "referenced_type" : "_ZTIKN7android2spINS_8hardware4wifi4V1_018IWifiEventCallbackEEE",
   "self_type" : "_ZTIRKN7android2spINS_8hardware4wifi4V1_018IWifiEventCallbackEEE",
   "size" : 8,
   "source_file" : "/system/core/libutils/include/utils/StrongPointer.h"
  },
  {
   "alignment" : 8,
   "linker_set_key" : "_ZTIRKN7android2spINS_8hardware4wifi4V1_018IWifiRttControllerEEE",
   "name" : "const android::sp<android::hardware::wifi::V1_0::IWifiRttController> &",
   "referenced_type" : "_ZTIKN7android2spINS_8hardware4wifi4V1_018IWifiRttControllerEEE",
   "self_type" : "_ZTIRKN7android2spINS_8hardware4wifi4V1_018IWifiRttControllerEEE",
   "size" : 8,
   "source_file" : "/system/core/libutils/include/utils/StrongPointer.h"
  },
  {
   "alignment" : 8,
   "linker_set_key" : "_ZTIRKN7android2spINS_8hardware4wifi4V1_022IWifiChipEventCallbackEEE",
   "name" : "const android::sp<android::hardware::wifi::V1_0::IWifiChipEventCallback> &",
   "referenced_type" : "_ZTIKN7android2spINS_8hardware4wifi4V1_022IWifiChipEventCallbackEEE",
   "self_type" : "_ZTIRKN7android2spINS_8hardware4wifi4V1_022IWifiChipEventCallbackEEE",
   "size" : 8,
   "source_file" : "/system/core/libutils/include/utils/StrongPointer.h"
  },
  {
   "alignment" : 8,
   "linker_set_key" : "_ZTIRKN7android2spINS_8hardware4wifi4V1_026IWifiNanIfaceEventCallbackEEE",
   "name" : "const android::sp<android::hardware::wifi::V1_0::IWifiNanIfaceEventCallback> &",
   "referenced_type" : "_ZTIKN7android2spINS_8hardware4wifi4V1_026IWifiNanIfaceEventCallbackEEE",
   "self_type" : "_ZTIRKN7android2spINS_8hardware4wifi4V1_026IWifiNanIfaceEventCallbackEEE",
   "size" : 8,
   "source_file" : "/system/core/libutils/include/utils/StrongPointer.h"
  },
  {
   "alignment" : 8,
   "linker_set_key" : "_ZTIRKN7android2spINS_8hardware4wifi4V1_026IWifiStaIfaceEventCallbackEEE",
   "name" : "const android::sp<android::hardware::wifi::V1_0::IWifiStaIfaceEventCallback> &",
   "referenced_type" : "_ZTIKN7android2spINS_8hardware4wifi4V1_026IWifiStaIfaceEventCallbackEEE",
   "self_type" : "_ZTIRKN7android2spINS_8hardware4wifi4V1_026IWifiStaIfaceEventCallbackEEE",
   "size" : 8,
   "source_file" : "/system/core/libutils/include/utils/StrongPointer.h"
  },
  {
   "alignment" : 8,
   "linker_set_key" : "_ZTIRKN7android2spINS_8hardware4wifi4V1_031IWifiRttControllerEventCallbackEEE",
   "name" : "const android::sp<android::hardware::wifi::V1_0::IWifiRttControllerEventCallback> &",
   "referenced_type" : "_ZTIKN7android2spINS_8hardware4wifi4V1_031IWifiRttControllerEventCallbackEEE",
   "self_type" : "_ZTIRKN7android2spINS_8hardware4wifi4V1_031IWifiRttControllerEventCallbackEEE",
   "size" : 8,
   "source_file" : "/system/core/libutils/include/utils/StrongPointer.h"
  },
  {
   "alignment" : 8,
   "linker_set_key" : "_ZTIRKN7android2spINS_8hardware4wifi4V1_05IWifiEEE",
   "name" : "const android::sp<android::hardware::wifi::V1_0::IWifi> &",
   "referenced_type" : "_ZTIKN7android2spINS_8hardware4wifi4V1_05IWifiEEE",
   "self_type" : "_ZTIRKN7android2spINS_8hardware4wifi4V1_05IWifiEEE",
   "size" : 8,
   "source_file" : "/system/core/libutils/include/utils/StrongPointer.h"
  },
  {
   "alignment" : 8,
   "linker_set_key" : "_ZTIRKN7android2spINS_8hardware4wifi4V1_09IWifiChipEEE",
   "name" : "const android::sp<android::hardware::wifi::V1_0::IWifiChip> &",
   "referenced_type" : "_ZTIKN7android2spINS_8hardware4wifi4V1_09IWifiChipEEE",
   "self_type" : "_ZTIRKN7android2spINS_8hardware4wifi4V1_09IWifiChipEEE",
   "size" : 8,
   "source_file" : "/system/core/libutils/include/utils/StrongPointer.h"
  },
  {
   "alignment" : 8,
   "linker_set_key" : "_ZTIRKN7android2spINS_8hardware4wifi4V1_15IWifiEEE",
   "name" : "const android::sp<android::hardware::wifi::V1_1::IWifi> &",
   "referenced_type" : "_ZTIKN7android2spINS_8hardware4wifi4V1_15IWifiEEE",
   "self_type" : "_ZTIRKN7android2spINS_8hardware4wifi4V1_15IWifiEEE",
   "size" : 8,
   "source_file" : "/system/core/libutils/include/utils/StrongPointer.h"
  },
  {
   "alignment" : 8,
   "linker_set_key" : "_ZTIRKN7android2spINS_8hardware4wifi4V1_19IWifiChipEEE",
   "name" : "const android::sp<android::hardware::wifi::V1_1::IWifiChip> &",
   "referenced_type" : "_ZTIKN7android2spINS_8hardware4wifi4V1_19IWifiChipEEE",
   "self_type" : "_ZTIRKN7android2spINS_8hardware4wifi4V1_19IWifiChipEEE",
   "size" : 8,
   "source_file" : "/system/core/libutils/include/utils/StrongPointer.h"
  },
  {
   "alignment" : 8,
   "linker_set_key" : "_ZTIRKN7android2spINS_8hardware7IBinderEEE",
   "name" : "const android::sp<android::hardware::IBinder> &",
   "referenced_type" : "_ZTIKN7android2spINS_8hardware7IBinderEEE",
   "self_type" : "_ZTIRKN7android2spINS_8hardware7IBinderEEE",
   "size" : 8,
   "source_file" : "/system/libhwbinder/include/hwbinder/IInterface.h"
  },
  {
   "alignment" : 8,
   "linker_set_key" : "_ZTIRKN7android2wpINS_8hardware9BHwBinderEEE",
   "name" : "const android::wp<android::hardware::BHwBinder> &",
   "referenced_type" : "_ZTIKN7android2wpINS_8hardware9BHwBinderEEE",
   "self_type" : "_ZTIRKN7android2wpINS_8hardware9BHwBinderEEE",
   "size" : 8,
   "source_file" : "/system/core/libutils/include/utils/RefBase.h"
  },
  {
   "alignment" : 8,
   "linker_set_key" : "_ZTIRKN7android7String8E",
   "name" : "const android::String8 &",
   "referenced_type" : "_ZTIKN7android7String8E",
   "self_type" : "_ZTIRKN7android7String8E",
   "size" : 8,
   "source_file" : "/system/core/libutils/include/utils/String8.h"
  },
  {
   "alignment" : 8,
   "linker_set_key" : "_ZTIRKN7android8String16E",
   "name" : "const android::String16 &",
   "referenced_type" : "_ZTIKN7android8String16E",
   "self_type" : "_ZTIRKN7android8String16E",
   "size" : 8,
   "source_file" : "/system/core/libutils/include/utils/String16.h"
  },
  {
   "alignment" : 8,
   "linker_set_key" : "_ZTIRKN7android8hardware10hidl_arrayINS0_4wifi4V1_021NanBandSpecificConfigELm2EJEEE",
   "name" : "const android::hardware::hidl_array<android::hardware::wifi::V1_0::NanBandSpecificConfig, 2> &",
   "referenced_type" : "_ZTIKN7android8hardware10hidl_arrayINS0_4wifi4V1_021NanBandSpecificConfigELm2EJEEE",
   "self_type" : "_ZTIRKN7android8hardware10hidl_arrayINS0_4wifi4V1_021NanBandSpecificConfigELm2EJEEE",
   "size" : 8,
   "source_file" : "/system/libhidl/base/include/hidl/HidlSupport.h"
  },
  {
   "alignment" : 8,
   "linker_set_key" : "_ZTIRKN7android8hardware10hidl_arrayIaLm2EJEEE",
   "name" : "const android::hardware::hidl_array<signed char, 2> &",
   "referenced_type" : "_ZTIKN7android8hardware10hidl_arrayIaLm2EJEEE",
   "self_type" : "_ZTIRKN7android8hardware10hidl_arrayIaLm2EJEEE",
   "size" : 8,
   "source_file" : "/system/libhidl/base/include/hidl/HidlSupport.h"
  },
  {
   "alignment" : 8,
   "linker_set_key" : "_ZTIRKN7android8hardware10hidl_arrayIbLm2EJEEE",
   "name" : "const android::hardware::hidl_array<bool, 2> &",
   "referenced_type" : "_ZTIKN7android8hardware10hidl_arrayIbLm2EJEEE",
   "self_type" : "_ZTIRKN7android8hardware10hidl_arrayIbLm2EJEEE",
   "size" : 8,
   "source_file" : "/system/libhidl/base/include/hidl/HidlSupport.h"
  },
  {
   "alignment" : 8,
   "linker_set_key" : "_ZTIRKN7android8hardware10hidl_arrayIhLm32EJEEE",
   "name" : "const android::hardware::hidl_array<unsigned char, 32> &",
   "referenced_type" : "_ZTIKN7android8hardware10hidl_arrayIhLm32EJEEE",
   "self_type" : "_ZTIRKN7android8hardware10hidl_arrayIhLm32EJEEE",
   "size" : 8,
   "source_file" : "/system/libhidl/base/include/hidl/HidlInternal.h"
  },
  {
   "alignment" : 8,
   "linker_set_key" : "_ZTIRKN7android8hardware10hidl_arrayIhLm6EJEEE",
   "name" : "const android::hardware::hidl_array<unsigned char, 6> &",
   "referenced_type" : "_ZTIKN7android8hardware10hidl_arrayIhLm6EJEEE",
   "self_type" : "_ZTIRKN7android8hardware10hidl_arrayIhLm6EJEEE",
   "size" : 8,
   "source_file" : "/system/libhidl/base/include/hidl/HidlInternal.h"
  },
  {
   "alignment" : 8,
   "linker_set_key" : "_ZTIRKN7android8hardware10hidl_arrayIjLm2EJEEE",
   "name" : "const android::hardware::hidl_array<unsigned int, 2> &",
   "referenced_type" : "_ZTIKN7android8hardware10hidl_arrayIjLm2EJEEE",
   "self_type" : "_ZTIRKN7android8hardware10hidl_arrayIjLm2EJEEE",
   "size" : 8,
   "source_file" : "/system/libhidl/base/include/hidl/HidlSupport.h"
  },
  {
   "alignment" : 8,
   "linker_set_key" : "_ZTIRKN7android8hardware11hidl_handleE",
   "name" : "const android::hardware::hidl_handle &",
   "referenced_type" : "_ZTIKN7android8hardware11hidl_handleE",
   "self_type" : "_ZTIRKN7android8hardware11hidl_handleE",
   "size" : 8,
   "source_file" : "/system/libhidl/base/include/hidl/HidlSupport.h"
  },
  {
   "alignment" : 8,
   "linker_set_key" : "_ZTIRKN7android8hardware11hidl_memoryE",
   "name" : "const android::hardware::hidl_memory &",
   "referenced_type" : "_ZTIKN7android8hardware11hidl_memoryE",
   "self_type" : "_ZTIRKN7android8hardware11hidl_memoryE",
   "size" : 8,
   "source_file" : "/system/libhidl/base/include/hidl/HidlSupport.h"
  },
  {
   "alignment" : 8,
   "linker_set_key" : "_ZTIRKN7android8hardware11hidl_stringE",
   "name" : "const android::hardware::hidl_string &",
   "referenced_type" : "_ZTIKN7android8hardware11hidl_stringE",
   "self_type" : "_ZTIRKN7android8hardware11hidl_stringE",
   "size" : 8,
   "source_file" : "/system/libhidl/base/include/hidl/HidlSupport.h"
  },
  {
   "alignment" : 8,
   "linker_set_key" : "_ZTIRKN7android8hardware12hidl_versionE",
   "name" : "const android::hardware::hidl_version &",
   "referenced_type" : "_ZTIKN7android8hardware12hidl_versionE",
   "self_type" : "_ZTIRKN7android8hardware12hidl_versionE",
   "size" : 8,
   "source_file" : "/system/libhidl/base/include/hidl/HidlSupport.h"
  },
  {
   "alignment" : 8,
   "linker_set_key" : "_ZTIRKN7android8hardware4wifi4V1_013StaScanResultE",
   "name" : "const android::hardware::wifi::V1_0::StaScanResult &",
   "referenced_type" : "_ZTIKN7android8hardware4wifi4V1_013StaScanResultE",
   "self_type" : "_ZTIRKN7android8hardware4wifi4V1_013StaScanResultE",
   "size" : 8,
   "source_file" : "/system/libhidl/base/include/hidl/HidlInternal.h"
  },
  {
   "alignment" : 8,
   "linker_set_key" : "_ZTIRKN7android8hardware4wifi4V1_021NanBandSpecificConfigE",
   "name" : "const android::hardware::wifi::V1_0::NanBandSpecificConfig &",
   "referenced_type" : "_ZTIKN7android8hardware4wifi4V1_021NanBandSpecificConfigE",
   "self_type" : "_ZTIRKN7android8hardware4wifi4V1_021NanBandSpecificConfigE",
   "size" : 8,
   "source_file" : "/system/libhidl/base/include/hidl/HidlSupport.h"
  },
  {
   "alignment" : 8,
   "linker_set_key" : "_ZTIRKN7android8hardware4wifi4V1_022StaLinkLayerRadioStatsE",
   "name" : "const android::hardware::wifi::V1_0::StaLinkLayerRadioStats &",
   "referenced_type" : "_ZTIKN7android8hardware4wifi4V1_022StaLinkLayerRadioStatsE",
   "self_type" : "_ZTIRKN7android8hardware4wifi4V1_022StaLinkLayerRadioStatsE",
   "size" : 8,
   "source_file" : "/system/libhidl/base/include/hidl/HidlInternal.h"
  },
  {
   "alignment" : 8,
   "linker_set_key" : "_ZTIRKN7android8hardware4wifi4V1_022WifiInformationElementE",
   "name" : "const android::hardware::wifi::V1_0::WifiInformationElement &",
   "referenced_type" : "_ZTIKN7android8hardware4wifi4V1_022WifiInformationElementE",
   "self_type" : "_ZTIRKN7android8hardware4wifi4V1_022WifiInformationElementE",
   "size" : 8,
   "source_file" : "/system/libhidl/base/include/hidl/HidlInternal.h"
  },
  {
   "alignment" : 8,
   "linker_set_key" : "_ZTIRKN7android8hardware4wifi4V1_033StaBackgroundScanBucketParametersE",
   "name" : "const android::hardware::wifi::V1_0::StaBackgroundScanBucketParameters &",
   "referenced_type" : "_ZTIKN7android8hardware4wifi4V1_033StaBackgroundScanBucketParametersE",
   "self_type" : "_ZTIRKN7android8hardware4wifi4V1_033StaBackgroundScanBucketParametersE",
   "size" : 8,
   "source_file" : "/system/libhidl/base/include/hidl/HidlInternal.h"
  },
  {
   "alignment" : 8,
   "linker_set_key" : "_ZTIRKN7android8hardware4wifi4V1_09IWifiChip20ChipIfaceCombinationE",
   "name" : "const android::hardware::wifi::V1_0::IWifiChip::ChipIfaceCombination &",
   "referenced_type" : "_ZTIKN7android8hardware4wifi4V1_09IWifiChip20ChipIfaceCombinationE",
   "self_type" : "_ZTIRKN7android8hardware4wifi4V1_09IWifiChip20ChipIfaceCombinationE",
   "size" : 8,
   "source_file" : "/system/libhidl/base/include/hidl/HidlInternal.h"
  },
  {
   "alignment" : 8,
   "linker_set_key" : "_ZTIRKN7android8hardware4wifi4V1_09IWifiChip25ChipIfaceCombinationLimitE",
   "name" : "const android::hardware::wifi::V1_0::IWifiChip::ChipIfaceCombinationLimit &",
   "referenced_type" : "_ZTIKN7android8hardware4wifi4V1_09IWifiChip25ChipIfaceCombinationLimitE",
   "self_type" : "_ZTIRKN7android8hardware4wifi4V1_09IWifiChip25ChipIfaceCombinationLimitE",
   "size" : 8,
   "source_file" : "/system/libhidl/base/include/hidl/HidlInternal.h"
  },
  {
   "alignment" : 8,
   "linker_set_key" : "_ZTIRKN7android8hardware4wifi4V1_09IfaceTypeE",
   "name" : "const android::hardware::wifi::V1_0::IfaceType &",
   "referenced_type" : "_ZTIKN7android8hardware4wifi4V1_09IfaceTypeE",
   "self_type" : "_ZTIRKN7android8hardware4wifi4V1_09IfaceTypeE",
   "size" : 8,
   "source_file" : "/system/libhidl/base/include/hidl/HidlInternal.h"
  },
  {
   "alignment" : 8,
   "linker_set_key" : "_ZTIRKN7android8hardware6ParcelE",
   "name" : "const android::hardware::Parcel &",
   "referenced_type" : "_ZTIKN7android8hardware6ParcelE",
   "self_type" : "_ZTIRKN7android8hardware6ParcelE",
   "size" : 8,
   "source_file" : "/system/libhwbinder/include/hwbinder/Parcel.h"
  },
  {
   "alignment" : 8,
   "linker_set_key" : "_ZTIRKN7android8hardware6ReturnIbEE",
   "name" : "const android::hardware::Return<bool> &",
   "referenced_type" : "_ZTIKN7android8hardware6ReturnIbEE",
   "self_type" : "_ZTIRKN7android8hardware6ReturnIbEE",
   "size" : 8,
   "source_file" : "/system/libhidl/base/include/hidl/Status.h"
  },
  {
   "alignment" : 8,
   "linker_set_key" : "_ZTIRKN7android8hardware6StatusE",
   "name" : "const android::hardware::Status &",
   "referenced_type" : "_ZTIKN7android8hardware6StatusE",
   "self_type" : "_ZTIRKN7android8hardware6StatusE",
   "size" : 8,
   "source_file" : "/system/libhidl/base/include/hidl/Status.h"
  },
  {
   "alignment" : 8,
   "linker_set_key" : "_ZTIRKN7android8hardware7details14const_accessorINS0_4wifi4V1_021NanBandSpecificConfigELm2EJEEE",
   "name" : "const android::hardware::details::const_accessor<android::hardware::wifi::V1_0::NanBandSpecificConfig, 2> &",
   "referenced_type" : "_ZTIKN7android8hardware7details14const_accessorINS0_4wifi4V1_021NanBandSpecificConfigELm2EJEEE",
   "self_type" : "_ZTIRKN7android8hardware7details14const_accessorINS0_4wifi4V1_021NanBandSpecificConfigELm2EJEEE",
   "size" : 8,
   "source_file" : "/system/libhidl/base/include/hidl/HidlSupport.h"
  },
  {
   "alignment" : 8,
   "linker_set_key" : "_ZTIRKN7android8hardware7details14const_accessorIaLm2EJEEE",
   "name" : "const android::hardware::details::const_accessor<signed char, 2> &",
   "referenced_type" : "_ZTIKN7android8hardware7details14const_accessorIaLm2EJEEE",
   "self_type" : "_ZTIRKN7android8hardware7details14const_accessorIaLm2EJEEE",
   "size" : 8,
   "source_file" : "/system/libhidl/base/include/hidl/HidlSupport.h"
  },
  {
   "alignment" : 8,
   "linker_set_key" : "_ZTIRKN7android8hardware7details14const_accessorIbLm2EJEEE",
   "name" : "const android::hardware::details::const_accessor<bool, 2> &",
   "referenced_type" : "_ZTIKN7android8hardware7details14const_accessorIbLm2EJEEE",
   "self_type" : "_ZTIRKN7android8hardware7details14const_accessorIbLm2EJEEE",
   "size" : 8,
   "source_file" : "/system/libhidl/base/include/hidl/HidlSupport.h"
  },
  {
   "alignment" : 8,
   "linker_set_key" : "_ZTIRKN7android8hardware7details14const_accessorIhLm32EJEEE",
   "name" : "const android::hardware::details::const_accessor<unsigned char, 32> &",
   "referenced_type" : "_ZTIKN7android8hardware7details14const_accessorIhLm32EJEEE",
   "self_type" : "_ZTIRKN7android8hardware7details14const_accessorIhLm32EJEEE",
   "size" : 8,
   "source_file" : "/system/libhidl/base/include/hidl/HidlSupport.h"
  },
  {
   "alignment" : 8,
   "linker_set_key" : "_ZTIRKN7android8hardware7details14const_accessorIhLm6EJEEE",
   "name" : "const android::hardware::details::const_accessor<unsigned char, 6> &",
   "referenced_type" : "_ZTIKN7android8hardware7details14const_accessorIhLm6EJEEE",
   "self_type" : "_ZTIRKN7android8hardware7details14const_accessorIhLm6EJEEE",
   "size" : 8,
   "source_file" : "/system/libhidl/base/include/hidl/HidlSupport.h"
  },
  {
   "alignment" : 8,
   "linker_set_key" : "_ZTIRKN7android8hardware7details14const_accessorIjLm2EJEEE",
   "name" : "const android::hardware::details::const_accessor<unsigned int, 2> &",
   "referenced_type" : "_ZTIKN7android8hardware7details14const_accessorIjLm2EJEEE",
   "self_type" : "_ZTIRKN7android8hardware7details14const_accessorIjLm2EJEEE",
   "size" : 8,
   "source_file" : "/system/libhidl/base/include/hidl/HidlSupport.h"
  },
  {
   "linker_set_key" : "_ZTIRKN7android8hardware8hidl_vec4iterIXTL0__EEE",
   "name" : "const iter<is_const> &",
   "referenced_type" : "_ZTIKN7android8hardware8hidl_vec4iterIXTL0__EEE",
   "self_type" : "_ZTIRKN7android8hardware8hidl_vec4iterIXTL0__EEE",
   "source_file" : "/system/libhidl/base/include/hidl/HidlSupport.h"
  },
  {
   "alignment" : 8,
   "linker_set_key" : "_ZTIRKN7android8hardware8hidl_vecINS0_10hidl_arrayIhLm32EJEEEEE",
   "name" : "const android::hardware::hidl_vec<android::hardware::hidl_array<unsigned char, 32> > &",
   "referenced_type" : "_ZTIKN7android8hardware8hidl_vecINS0_10hidl_arrayIhLm32EJEEEEE",
   "self_type" : "_ZTIRKN7android8hardware8hidl_vecINS0_10hidl_arrayIhLm32EJEEEEE",
   "size" : 8,
   "source_file" : "/system/libhidl/base/include/hidl/HidlSupport.h"
  },
  {
   "alignment" : 8,
   "linker_set_key" : "_ZTIRKN7android8hardware8hidl_vecINS0_10hidl_arrayIhLm6EJEEEEE",
   "name" : "const android::hardware::hidl_vec<android::hardware::hidl_array<unsigned char, 6> > &",
   "referenced_type" : "_ZTIKN7android8hardware8hidl_vecINS0_10hidl_arrayIhLm6EJEEEEE",
   "self_type" : "_ZTIRKN7android8hardware8hidl_vecINS0_10hidl_arrayIhLm6EJEEEEE",
   "size" : 8,
   "source_file" : "/system/libhidl/base/include/hidl/HidlSupport.h"
  },
  {
   "alignment" : 8,
   "linker_set_key" : "_ZTIRKN7android8hardware8hidl_vecINS0_11hidl_stringEEE",
   "name" : "const android::hardware::hidl_vec<android::hardware::hidl_string> &",
   "referenced_type" : "_ZTIKN7android8hardware8hidl_vecINS0_11hidl_stringEEE",
   "self_type" : "_ZTIRKN7android8hardware8hidl_vecINS0_11hidl_stringEEE",
   "size" : 8,
   "source_file" : "/out/soong/.intermediates/hardware/interfaces/wifi/1.1/android.hardware.wifi@1.1_genc++_headers/gen/android/hardware/wifi/1.1/IWifi.h"
  },
  {
   "alignment" : 8,
   "linker_set_key" : "_ZTIRKN7android8hardware8hidl_vecINS0_4wifi4V1_013StaScanResultEEE",
   "name" : "const android::hardware::hidl_vec<android::hardware::wifi::V1_0::StaScanResult> &",
   "referenced_type" : "_ZTIKN7android8hardware8hidl_vecINS0_4wifi4V1_013StaScanResultEEE",
   "self_type" : "_ZTIRKN7android8hardware8hidl_vecINS0_4wifi4V1_013StaScanResultEEE",
   "size" : 8,
   "source_file" : "/system/libhidl/base/include/hidl/HidlSupport.h"
  },
  {
   "alignment" : 8,
   "linker_set_key" : "_ZTIRKN7android8hardware8hidl_vecINS0_4wifi4V1_022StaLinkLayerRadioStatsEEE",
   "name" : "const android::hardware::hidl_vec<android::hardware::wifi::V1_0::StaLinkLayerRadioStats> &",
   "referenced_type" : "_ZTIKN7android8hardware8hidl_vecINS0_4wifi4V1_022StaLinkLayerRadioStatsEEE",
   "self_type" : "_ZTIRKN7android8hardware8hidl_vecINS0_4wifi4V1_022StaLinkLayerRadioStatsEEE",
   "size" : 8,
   "source_file" : "/system/libhidl/base/include/hidl/HidlSupport.h"
  },
  {
   "alignment" : 8,
   "linker_set_key" : "_ZTIRKN7android8hardware8hidl_vecINS0_4wifi4V1_022WifiInformationElementEEE",
   "name" : "const android::hardware::hidl_vec<android::hardware::wifi::V1_0::WifiInformationElement> &",
   "referenced_type" : "_ZTIKN7android8hardware8hidl_vecINS0_4wifi4V1_022WifiInformationElementEEE",
   "self_type" : "_ZTIRKN7android8hardware8hidl_vecINS0_4wifi4V1_022WifiInformationElementEEE",
   "size" : 8,
   "source_file" : "/system/libhidl/base/include/hidl/HidlSupport.h"
  },
  {
   "alignment" : 8,
   "linker_set_key" : "_ZTIRKN7android8hardware8hidl_vecINS0_4wifi4V1_033StaBackgroundScanBucketParametersEEE",
   "name" : "const android::hardware::hidl_vec<android::hardware::wifi::V1_0::StaBackgroundScanBucketParameters> &",
   "referenced_type" : "_ZTIKN7android8hardware8hidl_vecINS0_4wifi4V1_033StaBackgroundScanBucketParametersEEE",
   "self_type" : "_ZTIRKN7android8hardware8hidl_vecINS0_4wifi4V1_033StaBackgroundScanBucketParametersEEE",
   "size" : 8,
   "source_file" : "/system/libhidl/base/include/hidl/HidlSupport.h"
  },
  {
   "alignment" : 8,
   "linker_set_key" : "_ZTIRKN7android8hardware8hidl_vecINS0_4wifi4V1_09IWifiChip20ChipIfaceCombinationEEE",
   "name" : "const android::hardware::hidl_vec<android::hardware::wifi::V1_0::IWifiChip::ChipIfaceCombination> &",
   "referenced_type" : "_ZTIKN7android8hardware8hidl_vecINS0_4wifi4V1_09IWifiChip20ChipIfaceCombinationEEE",
   "self_type" : "_ZTIRKN7android8hardware8hidl_vecINS0_4wifi4V1_09IWifiChip20ChipIfaceCombinationEEE",
   "size" : 8,
   "source_file" : "/system/libhidl/base/include/hidl/HidlSupport.h"
  },
  {
   "alignment" : 8,
   "linker_set_key" : "_ZTIRKN7android8hardware8hidl_vecINS0_4wifi4V1_09IWifiChip25ChipIfaceCombinationLimitEEE",
   "name" : "const android::hardware::hidl_vec<android::hardware::wifi::V1_0::IWifiChip::ChipIfaceCombinationLimit> &",
   "referenced_type" : "_ZTIKN7android8hardware8hidl_vecINS0_4wifi4V1_09IWifiChip25ChipIfaceCombinationLimitEEE",
   "self_type" : "_ZTIRKN7android8hardware8hidl_vecINS0_4wifi4V1_09IWifiChip25ChipIfaceCombinationLimitEEE",
   "size" : 8,
   "source_file" : "/system/libhidl/base/include/hidl/HidlSupport.h"
  },
  {
   "alignment" : 8,
   "linker_set_key" : "_ZTIRKN7android8hardware8hidl_vecINS0_4wifi4V1_09IfaceTypeEEE",
   "name" : "const android::hardware::hidl_vec<android::hardware::wifi::V1_0::IfaceType> &",
   "referenced_type" : "_ZTIKN7android8hardware8hidl_vecINS0_4wifi4V1_09IfaceTypeEEE",
   "self_type" : "_ZTIRKN7android8hardware8hidl_vecINS0_4wifi4V1_09IfaceTypeEEE",
   "size" : 8,
   "source_file" : "/system/libhidl/base/include/hidl/HidlSupport.h"
  },
  {
   "alignment" : 8,
   "linker_set_key" : "_ZTIRKN7android8hardware8hidl_vecIhEE",
   "name" : "const android::hardware::hidl_vec<unsigned char> &",
   "referenced_type" : "_ZTIKN7android8hardware8hidl_vecIhEE",
   "self_type" : "_ZTIRKN7android8hardware8hidl_vecIhEE",
   "size" : 8,
   "source_file" : "/system/libhidl/base/include/hidl/HidlSupport.h"
  },
  {
   "alignment" : 8,
   "linker_set_key" : "_ZTIRKN7android8hardware8hidl_vecIiEE",
   "name" : "const android::hardware::hidl_vec<int> &",
   "referenced_type" : "_ZTIKN7android8hardware8hidl_vecIiEE",
   "self_type" : "_ZTIRKN7android8hardware8hidl_vecIiEE",
   "size" : 8,
   "source_file" : "/system/libhidl/base/include/hidl/HidlSupport.h"
  },
  {
   "alignment" : 8,
   "linker_set_key" : "_ZTIRKN7android8hardware8hidl_vecIjEE",
   "name" : "const android::hardware::hidl_vec<unsigned int> &",
   "referenced_type" : "_ZTIKN7android8hardware8hidl_vecIjEE",
   "self_type" : "_ZTIRKN7android8hardware8hidl_vecIjEE",
   "size" : 8,
   "source_file" : "/system/libhidl/base/include/hidl/HidlSupport.h"
  },
  {
   "alignment" : 8,
   "linker_set_key" : "_ZTIRKNSt3__112basic_stringIcNS_11char_traitsIcEENS_9allocatorIcEEEE",
   "name" : "const std::basic_string<char, std::char_traits<char>, std::allocator<char> > &",
   "referenced_type" : "_ZTIKNSt3__112basic_stringIcNS_11char_traitsIcEENS_9allocatorIcEEEE",
   "self_type" : "_ZTIRKNSt3__112basic_stringIcNS_11char_traitsIcEENS_9allocatorIcEEEE",
   "size" : 8,
   "source_file" : "/system/libhidl/transport/include/hidl/HidlTransportSupport.h"
  },
  {
   "alignment" : 8,
   "linker_set_key" : "_ZTIRKNSt3__16vectorINS_8functionIFvN7android8hardware7details16HidlInstrumentor20InstrumentationEventEPKcS8_S8_S8_PNS0_IPvNS_9allocatorIS9_EEEEEEENSA_ISF_EEEE",
   "name" : "const std::vector<std::function<void (InstrumentationEvent, const char *, const char *, const char *, const char *, vector<void *, allocator<void *> > *)>, std::allocator<std::function<void (InstrumentationEvent, const char *, const char *, const char *, const char *, vector<void *, allocator<void *> > *)> > > &",
   "referenced_type" : "_ZTIKNSt3__16vectorINS_8functionIFvN7android8hardware7details16HidlInstrumentor20InstrumentationEventEPKcS8_S8_S8_PNS0_IPvNS_9allocatorIS9_EEEEEEENSA_ISF_EEEE",
   "self_type" : "_ZTIRKNSt3__16vectorINS_8functionIFvN7android8hardware7details16HidlInstrumentor20InstrumentationEventEPKcS8_S8_S8_PNS0_IPvNS_9allocatorIS9_EEEEEEENSA_ISF_EEEE",
   "size" : 8,
   "source_file" : "/system/libhidl/base/include/hidl/HidlInternal.h"
  },
  {
   "alignment" : 8,
   "linker_set_key" : "_ZTIRKPKN7android4hidl4base4V1_05IBaseE",
   "name" : "const android::hidl::base::V1_0::IBase *const &",
   "referenced_type" : "_ZTIKPKN7android4hidl4base4V1_05IBaseE",
   "self_type" : "_ZTIRKPKN7android4hidl4base4V1_05IBaseE",
   "size" : 8,
   "source_file" : "/system/libhidl/transport/include/hidl/ConcurrentMap.h"
  },
  {
   "alignment" : 8,
   "linker_set_key" : "_ZTIRKa",
   "name" : "const signed char &",
   "referenced_type" : "_ZTIKa",
   "self_type" : "_ZTIRKa",
   "size" : 8,
   "source_file" : "/system/core/libutils/include/utils/TypeHelpers.h"
  },
  {
   "alignment" : 8,
   "linker_set_key" : "_ZTIRKb",
   "name" : "const bool &",
   "referenced_type" : "_ZTIKb",
   "self_type" : "_ZTIRKb",
   "size" : 8,
   "source_file" : "/system/core/libutils/include/utils/TypeHelpers.h"
  },
  {
   "alignment" : 8,
   "linker_set_key" : "_ZTIRKd",
   "name" : "const double &",
   "referenced_type" : "_ZTIKd",
   "self_type" : "_ZTIRKd",
   "size" : 8,
   "source_file" : "/system/core/libutils/include/utils/TypeHelpers.h"
  },
  {
   "alignment" : 8,
   "linker_set_key" : "_ZTIRKf",
   "name" : "const float &",
   "referenced_type" : "_ZTIKf",
   "self_type" : "_ZTIRKf",
   "size" : 8,
   "source_file" : "/system/core/libutils/include/utils/TypeHelpers.h"
  },
  {
   "alignment" : 8,
   "linker_set_key" : "_ZTIRKh",
   "name" : "const unsigned char &",
   "referenced_type" : "_ZTIKh",
   "self_type" : "_ZTIRKh",
   "size" : 8,
   "source_file" : "/system/libhidl/base/include/hidl/HidlInternal.h"
  },
  {
   "alignment" : 8,
   "linker_set_key" : "_ZTIRKi",
   "name" : "const int &",
   "referenced_type" : "_ZTIKi",
   "self_type" : "_ZTIRKi",
   "size" : 8,
   "source_file" : "/system/libhidl/base/include/hidl/HidlInternal.h"
  },
  {
   "alignment" : 8,
   "linker_set_key" : "_ZTIRKj",
   "name" : "const unsigned int &",
   "referenced_type" : "_ZTIKj",
   "self_type" : "_ZTIRKj",
   "size" : 8,
   "source_file" : "/system/libhidl/base/include/hidl/HidlInternal.h"
  },
  {
   "alignment" : 8,
   "linker_set_key" : "_ZTIRKl",
   "name" : "const long &",
   "referenced_type" : "_ZTIKl",
   "self_type" : "_ZTIRKl",
   "size" : 8,
   "source_file" : "/system/core/libutils/include/utils/TypeHelpers.h"
  },
  {
   "alignment" : 8,
   "linker_set_key" : "_ZTIRKm",
   "name" : "const unsigned long &",
   "referenced_type" : "_ZTIKm",
   "self_type" : "_ZTIRKm",
   "size" : 8,
   "source_file" : "/system/core/libutils/include/utils/TypeHelpers.h"
  },
  {
   "alignment" : 8,
   "linker_set_key" : "_ZTIRKs",
   "name" : "const short &",
   "referenced_type" : "_ZTIKs",
   "self_type" : "_ZTIRKs",
   "size" : 8,
   "source_file" : "/system/core/libutils/include/utils/TypeHelpers.h"
  },
  {
   "alignment" : 8,
   "linker_set_key" : "_ZTIRKt",
   "name" : "const unsigned short &",
   "referenced_type" : "_ZTIKt",
   "self_type" : "_ZTIRKt",
   "size" : 8,
   "source_file" : "/system/core/libutils/include/utils/TypeHelpers.h"
  },
  {
   "alignment" : 8,
   "linker_set_key" : "_ZTIRN7android2spINS_8hardware27hidl_binder_death_recipientEEE",
   "name" : "android::sp<android::hardware::hidl_binder_death_recipient> &",
   "referenced_type" : "_ZTIN7android2spINS_8hardware27hidl_binder_death_recipientEEE",
   "self_type" : "_ZTIRN7android2spINS_8hardware27hidl_binder_death_recipientEEE",
   "size" : 8,
   "source_file" : "/system/core/libutils/include/utils/StrongPointer.h"
  },
  {
   "alignment" : 8,
   "linker_set_key" : "_ZTIRN7android2spINS_8hardware4wifi4V1_010IWifiIfaceEEE",
   "name" : "android::sp<android::hardware::wifi::V1_0::IWifiIface> &",
   "referenced_type" : "_ZTIN7android2spINS_8hardware4wifi4V1_010IWifiIfaceEEE",
   "self_type" : "_ZTIRN7android2spINS_8hardware4wifi4V1_010IWifiIfaceEEE",
   "size" : 8,
   "source_file" : "/system/core/libutils/include/utils/StrongPointer.h"
  },
  {
   "alignment" : 8,
   "linker_set_key" : "_ZTIRN7android2spINS_8hardware4wifi4V1_012IWifiApIfaceEEE",
   "name" : "android::sp<android::hardware::wifi::V1_0::IWifiApIface> &",
   "referenced_type" : "_ZTIN7android2spINS_8hardware4wifi4V1_012IWifiApIfaceEEE",
   "self_type" : "_ZTIRN7android2spINS_8hardware4wifi4V1_012IWifiApIfaceEEE",
   "size" : 8,
   "source_file" : "/system/core/libutils/include/utils/StrongPointer.h"
  },
  {
   "alignment" : 8,
   "linker_set_key" : "_ZTIRN7android2spINS_8hardware4wifi4V1_013IWifiNanIfaceEEE",
   "name" : "android::sp<android::hardware::wifi::V1_0::IWifiNanIface> &",
   "referenced_type" : "_ZTIN7android2spINS_8hardware4wifi4V1_013IWifiNanIfaceEEE",
   "self_type" : "_ZTIRN7android2spINS_8hardware4wifi4V1_013IWifiNanIfaceEEE",
   "size" : 8,
   "source_file" : "/system/core/libutils/include/utils/StrongPointer.h"
  },
  {
   "alignment" : 8,
   "linker_set_key" : "_ZTIRN7android2spINS_8hardware4wifi4V1_013IWifiP2pIfaceEEE",
   "name" : "android::sp<android::hardware::wifi::V1_0::IWifiP2pIface> &",
   "referenced_type" : "_ZTIN7android2spINS_8hardware4wifi4V1_013IWifiP2pIfaceEEE",
   "self_type" : "_ZTIRN7android2spINS_8hardware4wifi4V1_013IWifiP2pIfaceEEE",
   "size" : 8,
   "source_file" : "/system/core/libutils/include/utils/StrongPointer.h"
  },
  {
   "alignment" : 8,
   "linker_set_key" : "_ZTIRN7android2spINS_8hardware4wifi4V1_013IWifiStaIfaceEEE",
   "name" : "android::sp<android::hardware::wifi::V1_0::IWifiStaIface> &",
   "referenced_type" : "_ZTIN7android2spINS_8hardware4wifi4V1_013IWifiStaIfaceEEE",
   "self_type" : "_ZTIRN7android2spINS_8hardware4wifi4V1_013IWifiStaIfaceEEE",
   "size" : 8,
   "source_file" : "/system/core/libutils/include/utils/StrongPointer.h"
  },
  {
   "alignment" : 8,
   "linker_set_key" : "_ZTIRN7android2spINS_8hardware4wifi4V1_018IWifiEventCallbackEEE",
   "name" : "android::sp<android::hardware::wifi::V1_0::IWifiEventCallback> &",
   "referenced_type" : "_ZTIN7android2spINS_8hardware4wifi4V1_018IWifiEventCallbackEEE",
   "self_type" : "_ZTIRN7android2spINS_8hardware4wifi4V1_018IWifiEventCallbackEEE",
   "size" : 8,
   "source_file" : "/system/core/libutils/include/utils/StrongPointer.h"
  },
  {
   "alignment" : 8,
   "linker_set_key" : "_ZTIRN7android2spINS_8hardware4wifi4V1_018IWifiRttControllerEEE",
   "name" : "android::sp<android::hardware::wifi::V1_0::IWifiRttController> &",
   "referenced_type" : "_ZTIN7android2spINS_8hardware4wifi4V1_018IWifiRttControllerEEE",
   "self_type" : "_ZTIRN7android2spINS_8hardware4wifi4V1_018IWifiRttControllerEEE",
   "size" : 8,
   "source_file" : "/system/core/libutils/include/utils/StrongPointer.h"
  },
  {
   "alignment" : 8,
   "linker_set_key" : "_ZTIRN7android2spINS_8hardware4wifi4V1_022IWifiChipEventCallbackEEE",
   "name" : "android::sp<android::hardware::wifi::V1_0::IWifiChipEventCallback> &",
   "referenced_type" : "_ZTIN7android2spINS_8hardware4wifi4V1_022IWifiChipEventCallbackEEE",
   "self_type" : "_ZTIRN7android2spINS_8hardware4wifi4V1_022IWifiChipEventCallbackEEE",
   "size" : 8,
   "source_file" : "/system/core/libutils/include/utils/StrongPointer.h"
  },
  {
   "alignment" : 8,
   "linker_set_key" : "_ZTIRN7android2spINS_8hardware4wifi4V1_09IWifiChipEEE",
   "name" : "android::sp<android::hardware::wifi::V1_0::IWifiChip> &",
   "referenced_type" : "_ZTIN7android2spINS_8hardware4wifi4V1_09IWifiChipEEE",
   "self_type" : "_ZTIRN7android2spINS_8hardware4wifi4V1_09IWifiChipEEE",
   "size" : 8,
   "source_file" : "/system/core/libutils/include/utils/StrongPointer.h"
  },
  {
   "alignment" : 8,
   "linker_set_key" : "_ZTIRN7android2spINS_8hardware4wifi4V1_15IWifiEEE",
   "name" : "android::sp<android::hardware::wifi::V1_1::IWifi> &",
   "referenced_type" : "_ZTIN7android2spINS_8hardware4wifi4V1_15IWifiEEE",
   "self_type" : "_ZTIRN7android2spINS_8hardware4wifi4V1_15IWifiEEE",
   "size" : 8,
   "source_file" : "/system/core/libutils/include/utils/StrongPointer.h"
  },
  {
   "alignment" : 8,
   "linker_set_key" : "_ZTIRN7android2spINS_8hardware4wifi4V1_19IWifiChipEEE",
   "name" : "android::sp<android::hardware::wifi::V1_1::IWifiChip> &",
   "referenced_type" : "_ZTIN7android2spINS_8hardware4wifi4V1_19IWifiChipEEE",
   "self_type" : "_ZTIRN7android2spINS_8hardware4wifi4V1_19IWifiChipEEE",
   "size" : 8,
   "source_file" : "/system/core/libutils/include/utils/StrongPointer.h"
  },
  {
   "alignment" : 8,
   "linker_set_key" : "_ZTIRN7android5MutexE",
   "name" : "android::Mutex &",
   "referenced_type" : "_ZTIN7android5MutexE",
   "self_type" : "_ZTIRN7android5MutexE",
   "size" : 8,
   "source_file" : "/system/core/libutils/include/utils/Mutex.h"
  },
  {
   "alignment" : 8,
   "linker_set_key" : "_ZTIRN7android6RWLockE",
   "name" : "android::RWLock &",
   "referenced_type" : "_ZTIN7android6RWLockE",
   "self_type" : "_ZTIRN7android6RWLockE",
   "size" : 8,
   "source_file" : "/system/core/libutils/include/utils/RWLock.h"
  },
  {
   "alignment" : 8,
   "linker_set_key" : "_ZTIRN7android7String8E",
   "name" : "android::String8 &",
   "referenced_type" : "_ZTIN7android7String8E",
   "self_type" : "_ZTIRN7android7String8E",
   "size" : 8,
   "source_file" : "/system/core/libutils/include/utils/String8.h"
  },
  {
   "alignment" : 8,
   "linker_set_key" : "_ZTIRN7android8String16E",
   "name" : "android::String16 &",
   "referenced_type" : "_ZTIN7android8String16E",
   "self_type" : "_ZTIRN7android8String16E",
   "size" : 8,
   "source_file" : "/system/core/libutils/include/utils/String16.h"
  },
  {
   "alignment" : 8,
   "linker_set_key" : "_ZTIRN7android8hardware10TextOutputE",
   "name" : "android::hardware::TextOutput &",
   "referenced_type" : "_ZTIN7android8hardware10TextOutputE",
   "self_type" : "_ZTIRN7android8hardware10TextOutputE",
   "size" : 8,
   "source_file" : "/system/libhwbinder/include/hwbinder/Parcel.h"
  },
  {
   "alignment" : 8,
   "linker_set_key" : "_ZTIRN7android8hardware10hidl_arrayINS0_4wifi4V1_021NanBandSpecificConfigELm2EJEEE",
   "name" : "android::hardware::hidl_array<android::hardware::wifi::V1_0::NanBandSpecificConfig, 2> &",
   "referenced_type" : "_ZTIN7android8hardware10hidl_arrayINS0_4wifi4V1_021NanBandSpecificConfigELm2EJEEE",
   "self_type" : "_ZTIRN7android8hardware10hidl_arrayINS0_4wifi4V1_021NanBandSpecificConfigELm2EJEEE",
   "size" : 8,
   "source_file" : "/system/libhidl/base/include/hidl/HidlSupport.h"
  },
  {
   "alignment" : 8,
   "linker_set_key" : "_ZTIRN7android8hardware10hidl_arrayIaLm2EJEEE",
   "name" : "android::hardware::hidl_array<signed char, 2> &",
   "referenced_type" : "_ZTIN7android8hardware10hidl_arrayIaLm2EJEEE",
   "self_type" : "_ZTIRN7android8hardware10hidl_arrayIaLm2EJEEE",
   "size" : 8,
   "source_file" : "/system/libhidl/base/include/hidl/HidlSupport.h"
  },
  {
   "alignment" : 8,
   "linker_set_key" : "_ZTIRN7android8hardware10hidl_arrayIbLm2EJEEE",
   "name" : "android::hardware::hidl_array<bool, 2> &",
   "referenced_type" : "_ZTIN7android8hardware10hidl_arrayIbLm2EJEEE",
   "self_type" : "_ZTIRN7android8hardware10hidl_arrayIbLm2EJEEE",
   "size" : 8,
   "source_file" : "/system/libhidl/base/include/hidl/HidlSupport.h"
  },
  {
   "alignment" : 8,
   "linker_set_key" : "_ZTIRN7android8hardware10hidl_arrayIhLm32EJEEE",
   "name" : "android::hardware::hidl_array<unsigned char, 32> &",
   "referenced_type" : "_ZTIN7android8hardware10hidl_arrayIhLm32EJEEE",
   "self_type" : "_ZTIRN7android8hardware10hidl_arrayIhLm32EJEEE",
   "size" : 8,
   "source_file" : "/system/libhidl/base/include/hidl/HidlInternal.h"
  },
  {
   "alignment" : 8,
   "linker_set_key" : "_ZTIRN7android8hardware10hidl_arrayIhLm6EJEEE",
   "name" : "android::hardware::hidl_array<unsigned char, 6> &",
   "referenced_type" : "_ZTIN7android8hardware10hidl_arrayIhLm6EJEEE",
   "self_type" : "_ZTIRN7android8hardware10hidl_arrayIhLm6EJEEE",
   "size" : 8,
   "source_file" : "/system/libhidl/base/include/hidl/HidlSupport.h"
  },
  {
   "alignment" : 8,
   "linker_set_key" : "_ZTIRN7android8hardware10hidl_arrayIjLm2EJEEE",
   "name" : "android::hardware::hidl_array<unsigned int, 2> &",
   "referenced_type" : "_ZTIN7android8hardware10hidl_arrayIjLm2EJEEE",
   "self_type" : "_ZTIRN7android8hardware10hidl_arrayIjLm2EJEEE",
   "size" : 8,
   "source_file" : "/system/libhidl/base/include/hidl/HidlSupport.h"
  },
  {
   "alignment" : 8,
   "linker_set_key" : "_ZTIRN7android8hardware11hidl_memoryE",
   "name" : "android::hardware::hidl_memory &",
   "referenced_type" : "_ZTIN7android8hardware11hidl_memoryE",
   "self_type" : "_ZTIRN7android8hardware11hidl_memoryE",
   "size" : 8,
   "source_file" : "/system/libhidl/base/include/hidl/HidlSupport.h"
  },
  {
   "alignment" : 8,
   "linker_set_key" : "_ZTIRN7android8hardware11hidl_stringE",
   "name" : "android::hardware::hidl_string &",
   "referenced_type" : "_ZTIN7android8hardware11hidl_stringE",
   "self_type" : "_ZTIRN7android8hardware11hidl_stringE",
   "size" : 8,
   "source_file" : "/system/libhidl/base/include/hidl/HidlInternal.h"
  },
  {
   "alignment" : 8,
   "linker_set_key" : "_ZTIRN7android8hardware6ReturnINS_2spINS0_4wifi4V1_15IWifiEEEEE",
   "name" : "android::hardware::Return<android::sp<android::hardware::wifi::V1_1::IWifi> > &",
   "referenced_type" : "_ZTIN7android8hardware6ReturnINS_2spINS0_4wifi4V1_15IWifiEEEEE",
   "self_type" : "_ZTIRN7android8hardware6ReturnINS_2spINS0_4wifi4V1_15IWifiEEEEE",
   "size" : 8,
   "source_file" : "/system/libhidl/base/include/hidl/Status.h"
  },
  {
   "alignment" : 8,
   "linker_set_key" : "_ZTIRN7android8hardware6ReturnINS_2spINS0_4wifi4V1_19IWifiChipEEEEE",
   "name" : "android::hardware::Return<android::sp<android::hardware::wifi::V1_1::IWifiChip> > &",
   "referenced_type" : "_ZTIN7android8hardware6ReturnINS_2spINS0_4wifi4V1_19IWifiChipEEEEE",
   "self_type" : "_ZTIRN7android8hardware6ReturnINS_2spINS0_4wifi4V1_19IWifiChipEEEEE",
   "size" : 8,
   "source_file" : "/system/libhidl/base/include/hidl/Status.h"
  },
  {
   "alignment" : 8,
   "linker_set_key" : "_ZTIRN7android8hardware6ReturnIbEE",
   "name" : "android::hardware::Return<bool> &",
   "referenced_type" : "_ZTIN7android8hardware6ReturnIbEE",
   "self_type" : "_ZTIRN7android8hardware6ReturnIbEE",
   "size" : 8,
   "source_file" : "/system/libhidl/base/include/hidl/Status.h"
  },
  {
   "alignment" : 8,
   "linker_set_key" : "_ZTIRN7android8hardware6ReturnIvEE",
   "name" : "android::hardware::Return<void> &",
   "referenced_type" : "_ZTIN7android8hardware6ReturnIvEE",
   "self_type" : "_ZTIRN7android8hardware6ReturnIvEE",
   "size" : 8,
   "source_file" : "/system/libhidl/base/include/hidl/Status.h"
  },
  {
   "alignment" : 8,
   "linker_set_key" : "_ZTIRN7android8hardware6StatusE",
   "name" : "android::hardware::Status &",
   "referenced_type" : "_ZTIN7android8hardware6StatusE",
   "self_type" : "_ZTIRN7android8hardware6StatusE",
   "size" : 8,
   "source_file" : "/system/libhidl/base/include/hidl/Status.h"
  },
  {
   "alignment" : 8,
   "linker_set_key" : "_ZTIRN7android8hardware7details12hidl_pointerINS0_10hidl_arrayIhLm32EJEEEEE",
   "name" : "android::hardware::details::hidl_pointer<android::hardware::hidl_array<unsigned char, 32> > &",
   "referenced_type" : "_ZTIN7android8hardware7details12hidl_pointerINS0_10hidl_arrayIhLm32EJEEEEE",
   "self_type" : "_ZTIRN7android8hardware7details12hidl_pointerINS0_10hidl_arrayIhLm32EJEEEEE",
   "size" : 8,
   "source_file" : "/system/libhidl/base/include/hidl/HidlInternal.h"
  },
  {
   "alignment" : 8,
   "linker_set_key" : "_ZTIRN7android8hardware7details12hidl_pointerINS0_11hidl_stringEEE",
   "name" : "android::hardware::details::hidl_pointer<android::hardware::hidl_string> &",
   "referenced_type" : "_ZTIN7android8hardware7details12hidl_pointerINS0_11hidl_stringEEE",
   "self_type" : "_ZTIRN7android8hardware7details12hidl_pointerINS0_11hidl_stringEEE",
   "size" : 8,
   "source_file" : "/system/libhidl/base/include/hidl/HidlInternal.h"
  },
  {
   "alignment" : 8,
   "linker_set_key" : "_ZTIRN7android8hardware8hidl_vecINS0_10hidl_arrayIhLm32EJEEEEE",
   "name" : "android::hardware::hidl_vec<android::hardware::hidl_array<unsigned char, 32> > &",
   "referenced_type" : "_ZTIN7android8hardware8hidl_vecINS0_10hidl_arrayIhLm32EJEEEEE",
   "self_type" : "_ZTIRN7android8hardware8hidl_vecINS0_10hidl_arrayIhLm32EJEEEEE",
   "size" : 8,
   "source_file" : "/system/libhidl/base/include/hidl/HidlSupport.h"
  },
  {
   "alignment" : 8,
   "linker_set_key" : "_ZTIRN7android8hardware8hidl_vecINS0_11hidl_stringEEE",
   "name" : "android::hardware::hidl_vec<android::hardware::hidl_string> &",
   "referenced_type" : "_ZTIN7android8hardware8hidl_vecINS0_11hidl_stringEEE",
   "self_type" : "_ZTIRN7android8hardware8hidl_vecINS0_11hidl_stringEEE",
   "size" : 8,
   "source_file" : "/system/libhidl/base/include/hidl/HidlSupport.h"
  },
  {
   "alignment" : 8,
   "linker_set_key" : "_ZTIRh",
   "name" : "unsigned char &",
   "referenced_type" : "_ZTIh",
   "self_type" : "_ZTIRh",
   "size" : 8,
   "source_file" : "/out/soong/.intermediates/system/libhidl/transport/manager/1.0/android.hidl.manager@1.0_genc++_headers/gen/android/hidl/manager/1.0/IServiceManager.h"
  },
  {
   "alignment" : 8,
   "linker_set_key" : "_ZTIRi",
   "name" : "int &",
   "referenced_type" : "_ZTIi",
   "self_type" : "_ZTIRi",
   "size" : 8,
   "source_file" : "/out/soong/.intermediates/system/libhidl/transport/base/1.0/android.hidl.base@1.0_genc++_headers/gen/android/hidl/base/1.0/types.h"
  },
  {
   "alignment" : 8,
   "linker_set_key" : "_ZTIRj",
   "name" : "unsigned int &",
   "referenced_type" : "_ZTIj",
   "self_type" : "_ZTIRj",
   "size" : 8,
   "source_file" : "/out/soong/.intermediates/hardware/interfaces/wifi/1.0/android.hardware.wifi@1.0_genc++_headers/gen/android/hardware/wifi/1.0/types.h"
  }
 ],
 "pointer_types" :
 [
  {
   "alignment" : 8,
   "linker_set_key" : "_ZTIP13native_handle",
   "name" : "native_handle *",
   "referenced_type" : "_ZTI13native_handle",
   "self_type" : "_ZTIP13native_handle",
   "size" : 8,
   "source_file" : "/system/libhidl/base/include/hidl/HidlInternal.h"
  },
  {
   "alignment" : 8,
   "linker_set_key" : "_ZTIP18android_flex_plane",
   "name" : "android_flex_plane *",
   "referenced_type" : "_ZTI18android_flex_plane",
   "self_type" : "_ZTIP18android_flex_plane",
   "size" : 8,
   "source_file" : "/system/core/libsystem/include/system/graphics.h"
  },
  {
   "alignment" : 8,
   "linker_set_key" : "_ZTIP7log_msg",
   "name" : "log_msg *",
   "referenced_type" : "_ZTI7log_msg",
   "self_type" : "_ZTIP7log_msg",
   "size" : 8,
   "source_file" : "/system/core/liblog/include/log/log_read.h"
  },
  {
   "alignment" : 8,
   "linker_set_key" : "_ZTIPFbRKN7android8String16ERKNS_2spINS_8hardware7IBinderEEEPvE",
   "name" : "bool (*)(const android::String16 &, const android::sp<android::hardware::IBinder> &, void *)",
   "referenced_type" : "_ZTIFbRKN7android8String16ERKNS_2spINS_8hardware7IBinderEEEPvE",
   "self_type" : "_ZTIPFbRKN7android8String16ERKNS_2spINS_8hardware7IBinderEEEPvE",
   "size" : 8,
   "source_file" : "/system/libhwbinder/include/hwbinder/ProcessState.h"
  },
  {
   "alignment" : 8,
   "linker_set_key" : "_ZTIPFiPvE",
   "name" : "int (*)(void *)",
   "referenced_type" : "_ZTIFiPvE",
   "self_type" : "_ZTIPFiPvE",
   "size" : 8,
   "source_file" : "/system/core/libutils/include/utils/AndroidThreads.h"
  },
  {
   "alignment" : 8,
   "linker_set_key" : "_ZTIPFvPN7android8hardware6ParcelEPKhmPKymPvE",
   "name" : "void (*)(android::hardware::Parcel *, const unsigned char *, unsigned long, const unsigned long long *, unsigned long, void *)",
   "referenced_type" : "_ZTIFvPN7android8hardware6ParcelEPKhmPKymPvE",
   "self_type" : "_ZTIPFvPN7android8hardware6ParcelEPKhmPKymPvE",
   "size" : 8,
   "source_file" : "/system/libhwbinder/include/hwbinder/Parcel.h"
  },
  {
   "alignment" : 8,
   "linker_set_key" : "_ZTIPK13native_handle",
   "name" : "const native_handle *",
   "referenced_type" : "_ZTIK13native_handle",
   "self_type" : "_ZTIPK13native_handle",
   "size" : 8,
   "source_file" : "/system/libhidl/base/include/hidl/HidlInternal.h"
  },
  {
   "alignment" : 8,
   "linker_set_key" : "_ZTIPK7log_msg",
   "name" : "const log_msg *",
   "referenced_type" : "_ZTIK7log_msg",
   "self_type" : "_ZTIPK7log_msg",
   "size" : 8,
   "source_file" : "/system/core/liblog/include/log/log_read.h"
  },
  {
   "alignment" : 8,
   "linker_set_key" : "_ZTIPKDs",
   "name" : "const char16_t *",
   "referenced_type" : "_ZTIKDs",
   "self_type" : "_ZTIPKDs",
   "size" : 8,
   "source_file" : "/system/core/libutils/include/utils/String16.h"
  },
  {
   "alignment" : 8,
   "linker_set_key" : "_ZTIPKN7android10VectorImplE",
   "name" : "const android::VectorImpl *",
   "referenced_type" : "_ZTIKN7android10VectorImplE",
   "self_type" : "_ZTIPKN7android10VectorImplE",
   "size" : 8,
   "source_file" : "/system/core/libutils/include/utils/VectorImpl.h"
  },
  {
   "alignment" : 8,
   "linker_set_key" : "_ZTIPKN7android12NativeHandleE",
   "name" : "const android::NativeHandle *",
   "referenced_type" : "_ZTIKN7android12NativeHandleE",
   "self_type" : "_ZTIPKN7android12NativeHandleE",
   "size" : 8,
   "source_file" : "/system/core/libutils/include/utils/NativeHandle.h"
  },
  {
   "alignment" : 8,
   "linker_set_key" : "_ZTIPKN7android2spINS_4hidl4base4V1_05IBaseEEE",
   "name" : "const android::sp<android::hidl::base::V1_0::IBase> *",
   "referenced_type" : "_ZTIKN7android2spINS_4hidl4base4V1_05IBaseEEE",
   "self_type" : "_ZTIPKN7android2spINS_4hidl4base4V1_05IBaseEEE",
   "size" : 8,
   "source_file" : "/system/core/libutils/include/utils/StrongPointer.h"
  },
  {
   "alignment" : 8,
   "linker_set_key" : "_ZTIPKN7android2spINS_4hidl7manager4V1_015IServiceManagerEEE",
   "name" : "const android::sp<android::hidl::manager::V1_0::IServiceManager> *",
   "referenced_type" : "_ZTIKN7android2spINS_4hidl7manager4V1_015IServiceManagerEEE",
   "self_type" : "_ZTIPKN7android2spINS_4hidl7manager4V1_015IServiceManagerEEE",
   "size" : 8,
   "source_file" : "/system/core/libutils/include/utils/StrongPointer.h"
  },
  {
   "alignment" : 8,
   "linker_set_key" : "_ZTIPKN7android2spINS_4hidl7manager4V1_020IServiceNotificationEEE",
   "name" : "const android::sp<android::hidl::manager::V1_0::IServiceNotification> *",
   "referenced_type" : "_ZTIKN7android2spINS_4hidl7manager4V1_020IServiceNotificationEEE",
   "self_type" : "_ZTIPKN7android2spINS_4hidl7manager4V1_020IServiceNotificationEEE",
   "size" : 8,
   "source_file" : "/system/core/libutils/include/utils/StrongPointer.h"
  },
  {
   "alignment" : 8,
   "linker_set_key" : "_ZTIPKN7android2spINS_8hardware12ProcessStateEEE",
   "name" : "const android::sp<android::hardware::ProcessState> *",
   "referenced_type" : "_ZTIKN7android2spINS_8hardware12ProcessStateEEE",
   "self_type" : "_ZTIPKN7android2spINS_8hardware12ProcessStateEEE",
   "size" : 8,
   "source_file" : "/system/core/libutils/include/utils/StrongPointer.h"
  },
  {
   "alignment" : 8,
   "linker_set_key" : "_ZTIPKN7android2spINS_8hardware20hidl_death_recipientEEE",
   "name" : "const android::sp<android::hardware::hidl_death_recipient> *",
   "referenced_type" : "_ZTIKN7android2spINS_8hardware20hidl_death_recipientEEE",
   "self_type" : "_ZTIPKN7android2spINS_8hardware20hidl_death_recipientEEE",
   "size" : 8,
   "source_file" : "/system/core/libutils/include/utils/StrongPointer.h"
  },
  {
   "alignment" : 8,
   "linker_set_key" : "_ZTIPKN7android2spINS_8hardware27hidl_binder_death_recipientEEE",
   "name" : "const android::sp<android::hardware::hidl_binder_death_recipient> *",
   "referenced_type" : "_ZTIKN7android2spINS_8hardware27hidl_binder_death_recipientEEE",
   "self_type" : "_ZTIPKN7android2spINS_8hardware27hidl_binder_death_recipientEEE",
   "size" : 8,
   "source_file" : "/system/core/libutils/include/utils/StrongPointer.h"
  },
  {
   "alignment" : 8,
   "linker_set_key" : "_ZTIPKN7android2spINS_8hardware4wifi4V1_010IWifiIfaceEEE",
   "name" : "const android::sp<android::hardware::wifi::V1_0::IWifiIface> *",
   "referenced_type" : "_ZTIKN7android2spINS_8hardware4wifi4V1_010IWifiIfaceEEE",
   "self_type" : "_ZTIPKN7android2spINS_8hardware4wifi4V1_010IWifiIfaceEEE",
   "size" : 8,
   "source_file" : "/system/core/libutils/include/utils/StrongPointer.h"
  },
  {
   "alignment" : 8,
   "linker_set_key" : "_ZTIPKN7android2spINS_8hardware4wifi4V1_012IWifiApIfaceEEE",
   "name" : "const android::sp<android::hardware::wifi::V1_0::IWifiApIface> *",
   "referenced_type" : "_ZTIKN7android2spINS_8hardware4wifi4V1_012IWifiApIfaceEEE",
   "self_type" : "_ZTIPKN7android2spINS_8hardware4wifi4V1_012IWifiApIfaceEEE",
   "size" : 8,
   "source_file" : "/system/core/libutils/include/utils/StrongPointer.h"
  },
  {
   "alignment" : 8,
   "linker_set_key" : "_ZTIPKN7android2spINS_8hardware4wifi4V1_013IWifiNanIfaceEEE",
   "name" : "const android::sp<android::hardware::wifi::V1_0::IWifiNanIface> *",
   "referenced_type" : "_ZTIKN7android2spINS_8hardware4wifi4V1_013IWifiNanIfaceEEE",
   "self_type" : "_ZTIPKN7android2spINS_8hardware4wifi4V1_013IWifiNanIfaceEEE",
   "size" : 8,
   "source_file" : "/system/core/libutils/include/utils/StrongPointer.h"
  },
  {
   "alignment" : 8,
   "linker_set_key" : "_ZTIPKN7android2spINS_8hardware4wifi4V1_013IWifiP2pIfaceEEE",
   "name" : "const android::sp<android::hardware::wifi::V1_0::IWifiP2pIface> *",
   "referenced_type" : "_ZTIKN7android2spINS_8hardware4wifi4V1_013IWifiP2pIfaceEEE",
   "self_type" : "_ZTIPKN7android2spINS_8hardware4wifi4V1_013IWifiP2pIfaceEEE",
   "size" : 8,
   "source_file" : "/system/core/libutils/include/utils/StrongPointer.h"
  },
  {
   "alignment" : 8,
   "linker_set_key" : "_ZTIPKN7android2spINS_8hardware4wifi4V1_013IWifiStaIfaceEEE",
   "name" : "const android::sp<android::hardware::wifi::V1_0::IWifiStaIface> *",
   "referenced_type" : "_ZTIKN7android2spINS_8hardware4wifi4V1_013IWifiStaIfaceEEE",
   "self_type" : "_ZTIPKN7android2spINS_8hardware4wifi4V1_013IWifiStaIfaceEEE",
   "size" : 8,
   "source_file" : "/system/core/libutils/include/utils/StrongPointer.h"
  },
  {
   "alignment" : 8,
   "linker_set_key" : "_ZTIPKN7android2spINS_8hardware4wifi4V1_018IWifiEventCallbackEEE",
   "name" : "const android::sp<android::hardware::wifi::V1_0::IWifiEventCallback> *",
   "referenced_type" : "_ZTIKN7android2spINS_8hardware4wifi4V1_018IWifiEventCallbackEEE",
   "self_type" : "_ZTIPKN7android2spINS_8hardware4wifi4V1_018IWifiEventCallbackEEE",
   "size" : 8,
   "source_file" : "/system/core/libutils/include/utils/StrongPointer.h"
  },
  {
   "alignment" : 8,
   "linker_set_key" : "_ZTIPKN7android2spINS_8hardware4wifi4V1_018IWifiRttControllerEEE",
   "name" : "const android::sp<android::hardware::wifi::V1_0::IWifiRttController> *",
   "referenced_type" : "_ZTIKN7android2spINS_8hardware4wifi4V1_018IWifiRttControllerEEE",
   "self_type" : "_ZTIPKN7android2spINS_8hardware4wifi4V1_018IWifiRttControllerEEE",
   "size" : 8,
   "source_file" : "/system/core/libutils/include/utils/StrongPointer.h"
  },
  {
   "alignment" : 8,
   "linker_set_key" : "_ZTIPKN7android2spINS_8hardware4wifi4V1_022IWifiChipEventCallbackEEE",
   "name" : "const android::sp<android::hardware::wifi::V1_0::IWifiChipEventCallback> *",
   "referenced_type" : "_ZTIKN7android2spINS_8hardware4wifi4V1_022IWifiChipEventCallbackEEE",
   "self_type" : "_ZTIPKN7android2spINS_8hardware4wifi4V1_022IWifiChipEventCallbackEEE",
   "size" : 8,
   "source_file" : "/system/core/libutils/include/utils/StrongPointer.h"
  },
  {
   "alignment" : 8,
   "linker_set_key" : "_ZTIPKN7android2spINS_8hardware4wifi4V1_026IWifiNanIfaceEventCallbackEEE",
   "name" : "const android::sp<android::hardware::wifi::V1_0::IWifiNanIfaceEventCallback> *",
   "referenced_type" : "_ZTIKN7android2spINS_8hardware4wifi4V1_026IWifiNanIfaceEventCallbackEEE",
   "self_type" : "_ZTIPKN7android2spINS_8hardware4wifi4V1_026IWifiNanIfaceEventCallbackEEE",
   "size" : 8,
   "source_file" : "/system/core/libutils/include/utils/StrongPointer.h"
  },
  {
   "alignment" : 8,
   "linker_set_key" : "_ZTIPKN7android2spINS_8hardware4wifi4V1_026IWifiStaIfaceEventCallbackEEE",
   "name" : "const android::sp<android::hardware::wifi::V1_0::IWifiStaIfaceEventCallback> *",
   "referenced_type" : "_ZTIKN7android2spINS_8hardware4wifi4V1_026IWifiStaIfaceEventCallbackEEE",
   "self_type" : "_ZTIPKN7android2spINS_8hardware4wifi4V1_026IWifiStaIfaceEventCallbackEEE",
   "size" : 8,
   "source_file" : "/system/core/libutils/include/utils/StrongPointer.h"
  },
  {
   "alignment" : 8,
   "linker_set_key" : "_ZTIPKN7android2spINS_8hardware4wifi4V1_031IWifiRttControllerEventCallbackEEE",
   "name" : "const android::sp<android::hardware::wifi::V1_0::IWifiRttControllerEventCallback> *",
   "referenced_type" : "_ZTIKN7android2spINS_8hardware4wifi4V1_031IWifiRttControllerEventCallbackEEE",
   "self_type" : "_ZTIPKN7android2spINS_8hardware4wifi4V1_031IWifiRttControllerEventCallbackEEE",
   "size" : 8,
   "source_file" : "/system/core/libutils/include/utils/StrongPointer.h"
  },
  {
   "alignment" : 8,
   "linker_set_key" : "_ZTIPKN7android2spINS_8hardware4wifi4V1_05IWifiEEE",
   "name" : "const android::sp<android::hardware::wifi::V1_0::IWifi> *",
   "referenced_type" : "_ZTIKN7android2spINS_8hardware4wifi4V1_05IWifiEEE",
   "self_type" : "_ZTIPKN7android2spINS_8hardware4wifi4V1_05IWifiEEE",
   "size" : 8,
   "source_file" : "/system/core/libutils/include/utils/StrongPointer.h"
  },
  {
   "alignment" : 8,
   "linker_set_key" : "_ZTIPKN7android2spINS_8hardware4wifi4V1_09IWifiChipEEE",
   "name" : "const android::sp<android::hardware::wifi::V1_0::IWifiChip> *",
   "referenced_type" : "_ZTIKN7android2spINS_8hardware4wifi4V1_09IWifiChipEEE",
   "self_type" : "_ZTIPKN7android2spINS_8hardware4wifi4V1_09IWifiChipEEE",
   "size" : 8,
   "source_file" : "/system/core/libutils/include/utils/StrongPointer.h"
  },
  {
   "alignment" : 8,
   "linker_set_key" : "_ZTIPKN7android2spINS_8hardware4wifi4V1_15IWifiEEE",
   "name" : "const android::sp<android::hardware::wifi::V1_1::IWifi> *",
   "referenced_type" : "_ZTIKN7android2spINS_8hardware4wifi4V1_15IWifiEEE",
   "self_type" : "_ZTIPKN7android2spINS_8hardware4wifi4V1_15IWifiEEE",
   "size" : 8,
   "source_file" : "/system/core/libutils/include/utils/StrongPointer.h"
  },
  {
   "alignment" : 8,
   "linker_set_key" : "_ZTIPKN7android2spINS_8hardware4wifi4V1_19IWifiChipEEE",
   "name" : "const android::sp<android::hardware::wifi::V1_1::IWifiChip> *",
   "referenced_type" : "_ZTIKN7android2spINS_8hardware4wifi4V1_19IWifiChipEEE",
   "self_type" : "_ZTIPKN7android2spINS_8hardware4wifi4V1_19IWifiChipEEE",
   "size" : 8,
   "source_file" : "/system/core/libutils/include/utils/StrongPointer.h"
  },
  {
   "alignment" : 8,
   "linker_set_key" : "_ZTIPKN7android2spINS_8hardware7IBinderEEE",
   "name" : "const android::sp<android::hardware::IBinder> *",
   "referenced_type" : "_ZTIKN7android2spINS_8hardware7IBinderEEE",
   "self_type" : "_ZTIPKN7android2spINS_8hardware7IBinderEEE",
   "size" : 8,
   "source_file" : "/system/core/libutils/include/utils/StrongPointer.h"
  },
  {
   "alignment" : 8,
   "linker_set_key" : "_ZTIPKN7android2wpINS_8hardware20hidl_death_recipientEEE",
   "name" : "const android::wp<android::hardware::hidl_death_recipient> *",
   "referenced_type" : "_ZTIKN7android2wpINS_8hardware20hidl_death_recipientEEE",
   "self_type" : "_ZTIPKN7android2wpINS_8hardware20hidl_death_recipientEEE",
   "size" : 8,
   "source_file" : "/system/core/libutils/include/utils/RefBase.h"
  },
  {
   "alignment" : 8,
   "linker_set_key" : "_ZTIPKN7android2wpINS_8hardware9BHwBinderEEE",
   "name" : "const android::wp<android::hardware::BHwBinder> *",
   "referenced_type" : "_ZTIKN7android2wpINS_8hardware9BHwBinderEEE",
   "self_type" : "_ZTIPKN7android2wpINS_8hardware9BHwBinderEEE",
   "size" : 8,
   "source_file" : "/system/core/libutils/include/utils/RefBase.h"
  },
  {
   "alignment" : 8,
   "linker_set_key" : "_ZTIPKN7android4hidl4base4V1_05IBaseE",
   "name" : "const android::hidl::base::V1_0::IBase *",
   "referenced_type" : "_ZTIKN7android4hidl4base4V1_05IBaseE",
   "self_type" : "_ZTIPKN7android4hidl4base4V1_05IBaseE",
   "size" : 8,
   "source_file" : "/out/soong/.intermediates/system/libhidl/transport/base/1.0/android.hidl.base@1.0_genc++_headers/gen/android/hidl/base/1.0/IBase.h"
  },
  {
   "alignment" : 8,
   "linker_set_key" : "_ZTIPKN7android4hidl4base4V1_08BpHwBaseE",
   "name" : "const android::hidl::base::V1_0::BpHwBase *",
   "referenced_type" : "_ZTIKN7android4hidl4base4V1_08BpHwBaseE",
   "self_type" : "_ZTIPKN7android4hidl4base4V1_08BpHwBaseE",
   "size" : 8,
   "source_file" : "/out/soong/.intermediates/system/libhidl/transport/base/1.0/android.hidl.base@1.0_genc++_headers/gen/android/hidl/base/1.0/BpHwBase.h"
  },
  {
   "alignment" : 8,
   "linker_set_key" : "_ZTIPKN7android4hidl7manager4V1_015IServiceManagerE",
   "name" : "const android::hidl::manager::V1_0::IServiceManager *",
   "referenced_type" : "_ZTIKN7android4hidl7manager4V1_015IServiceManagerE",
   "self_type" : "_ZTIPKN7android4hidl7manager4V1_015IServiceManagerE",
   "size" : 8,
   "source_file" : "/out/soong/.intermediates/system/libhidl/transport/manager/1.0/android.hidl.manager@1.0_genc++_headers/gen/android/hidl/manager/1.0/IServiceManager.h"
  },
  {
   "alignment" : 8,
   "linker_set_key" : "_ZTIPKN7android4hidl7manager4V1_020IServiceNotificationE",
   "name" : "const android::hidl::manager::V1_0::IServiceNotification *",
   "referenced_type" : "_ZTIKN7android4hidl7manager4V1_020IServiceNotificationE",
   "self_type" : "_ZTIPKN7android4hidl7manager4V1_020IServiceNotificationE",
   "size" : 8,
   "source_file" : "/out/soong/.intermediates/system/libhidl/transport/manager/1.0/android.hidl.manager@1.0_genc++_headers/gen/android/hidl/manager/1.0/IServiceNotification.h"
  },
  {
   "alignment" : 8,
   "linker_set_key" : "_ZTIPKN7android7RefBaseE",
   "name" : "const android::RefBase *",
   "referenced_type" : "_ZTIKN7android7RefBaseE",
   "self_type" : "_ZTIPKN7android7RefBaseE",
   "size" : 8,
   "source_file" : "/system/core/libutils/include/utils/RefBase.h"
  },
  {
   "alignment" : 8,
   "linker_set_key" : "_ZTIPKN7android7String8E",
   "name" : "const android::String8 *",
   "referenced_type" : "_ZTIKN7android7String8E",
   "self_type" : "_ZTIPKN7android7String8E",
   "size" : 8,
   "source_file" : "/system/core/libutils/include/utils/String8.h"
  },
  {
   "alignment" : 8,
   "linker_set_key" : "_ZTIPKN7android8String16E",
   "name" : "const android::String16 *",
   "referenced_type" : "_ZTIKN7android8String16E",
   "self_type" : "_ZTIPKN7android8String16E",
   "size" : 8,
   "source_file" : "/system/core/libutils/include/utils/String16.h"
  },
  {
   "alignment" : 8,
   "linker_set_key" : "_ZTIPKN7android8hardware10hidl_arrayINS0_4wifi4V1_021NanBandSpecificConfigELm2EJEEE",
   "name" : "const android::hardware::hidl_array<android::hardware::wifi::V1_0::NanBandSpecificConfig, 2> *",
   "referenced_type" : "_ZTIKN7android8hardware10hidl_arrayINS0_4wifi4V1_021NanBandSpecificConfigELm2EJEEE",
   "self_type" : "_ZTIPKN7android8hardware10hidl_arrayINS0_4wifi4V1_021NanBandSpecificConfigELm2EJEEE",
   "size" : 8,
   "source_file" : "/system/libhidl/base/include/hidl/HidlSupport.h"
  },
  {
   "alignment" : 8,
   "linker_set_key" : "_ZTIPKN7android8hardware10hidl_arrayIaLm2EJEEE",
   "name" : "const android::hardware::hidl_array<signed char, 2> *",
   "referenced_type" : "_ZTIKN7android8hardware10hidl_arrayIaLm2EJEEE",
   "self_type" : "_ZTIPKN7android8hardware10hidl_arrayIaLm2EJEEE",
   "size" : 8,
   "source_file" : "/system/libhidl/base/include/hidl/HidlSupport.h"
  },
  {
   "alignment" : 8,
   "linker_set_key" : "_ZTIPKN7android8hardware10hidl_arrayIbLm2EJEEE",
   "name" : "const android::hardware::hidl_array<bool, 2> *",
   "referenced_type" : "_ZTIKN7android8hardware10hidl_arrayIbLm2EJEEE",
   "self_type" : "_ZTIPKN7android8hardware10hidl_arrayIbLm2EJEEE",
   "size" : 8,
   "source_file" : "/system/libhidl/base/include/hidl/HidlSupport.h"
  },
  {
   "alignment" : 8,
   "linker_set_key" : "_ZTIPKN7android8hardware10hidl_arrayIhLm32EJEEE",
   "name" : "const android::hardware::hidl_array<unsigned char, 32> *",
   "referenced_type" : "_ZTIKN7android8hardware10hidl_arrayIhLm32EJEEE",
   "self_type" : "_ZTIPKN7android8hardware10hidl_arrayIhLm32EJEEE",
   "size" : 8,
   "source_file" : "/system/libhidl/base/include/hidl/HidlSupport.h"
  },
  {
   "alignment" : 8,
   "linker_set_key" : "_ZTIPKN7android8hardware10hidl_arrayIhLm6EJEEE",
   "name" : "const android::hardware::hidl_array<unsigned char, 6> *",
   "referenced_type" : "_ZTIKN7android8hardware10hidl_arrayIhLm6EJEEE",
   "self_type" : "_ZTIPKN7android8hardware10hidl_arrayIhLm6EJEEE",
   "size" : 8,
   "source_file" : "/system/libhidl/base/include/hidl/HidlSupport.h"
  },
  {
   "alignment" : 8,
   "linker_set_key" : "_ZTIPKN7android8hardware10hidl_arrayIjLm2EJEEE",
   "name" : "const android::hardware::hidl_array<unsigned int, 2> *",
   "referenced_type" : "_ZTIKN7android8hardware10hidl_arrayIjLm2EJEEE",
   "self_type" : "_ZTIPKN7android8hardware10hidl_arrayIjLm2EJEEE",
   "size" : 8,
   "source_file" : "/system/libhidl/base/include/hidl/HidlSupport.h"
  },
  {
   "alignment" : 8,
   "linker_set_key" : "_ZTIPKN7android8hardware11BpHwRefBaseE",
   "name" : "const android::hardware::BpHwRefBase *",
   "referenced_type" : "_ZTIKN7android8hardware11BpHwRefBaseE",
   "self_type" : "_ZTIPKN7android8hardware11BpHwRefBaseE",
   "size" : 8,
   "source_file" : "/system/libhwbinder/include/hwbinder/Binder.h"
  },
  {
   "alignment" : 8,
   "linker_set_key" : "_ZTIPKN7android8hardware11hidl_memoryE",
   "name" : "const android::hardware::hidl_memory *",
   "referenced_type" : "_ZTIKN7android8hardware11hidl_memoryE",
   "self_type" : "_ZTIPKN7android8hardware11hidl_memoryE",
   "size" : 8,
   "source_file" : "/system/libhidl/base/include/hidl/HidlSupport.h"
  },
  {
   "alignment" : 8,
   "linker_set_key" : "_ZTIPKN7android8hardware12hidl_versionE",
   "name" : "const android::hardware::hidl_version *",
   "referenced_type" : "_ZTIKN7android8hardware12hidl_versionE",
   "self_type" : "_ZTIPKN7android8hardware12hidl_versionE",
   "size" : 8,
   "source_file" : "/system/libhidl/base/include/hidl/HidlSupport.h"
  },
  {
   "alignment" : 8,
   "linker_set_key" : "_ZTIPKN7android8hardware4wifi4V1_010IWifiIfaceE",
   "name" : "const android::hardware::wifi::V1_0::IWifiIface *",
   "referenced_type" : "_ZTIKN7android8hardware4wifi4V1_010IWifiIfaceE",
   "self_type" : "_ZTIPKN7android8hardware4wifi4V1_010IWifiIfaceE",
   "size" : 8,
   "source_file" : "/out/soong/.intermediates/hardware/interfaces/wifi/1.0/android.hardware.wifi@1.0_genc++_headers/gen/android/hardware/wifi/1.0/IWifiIface.h"
  },
  {
   "alignment" : 8,
   "linker_set_key" : "_ZTIPKN7android8hardware4wifi4V1_012BpHwWifiChipE",
   "name" : "const android::hardware::wifi::V1_0::BpHwWifiChip *",
   "referenced_type" : "_ZTIKN7android8hardware4wifi4V1_012BpHwWifiChipE",
   "self_type" : "_ZTIPKN7android8hardware4wifi4V1_012BpHwWifiChipE",
   "size" : 8,
   "source_file" : "/out/soong/.intermediates/hardware/interfaces/wifi/1.0/android.hardware.wifi@1.0_genc++_headers/gen/android/hardware/wifi/1.0/BpHwWifiChip.h"
  },
  {
   "alignment" : 8,
   "linker_set_key" : "_ZTIPKN7android8hardware4wifi4V1_012IWifiApIfaceE",
   "name" : "const android::hardware::wifi::V1_0::IWifiApIface *",
   "referenced_type" : "_ZTIKN7android8hardware4wifi4V1_012IWifiApIfaceE",
   "self_type" : "_ZTIPKN7android8hardware4wifi4V1_012IWifiApIfaceE",
   "size" : 8,
   "source_file" : "/out/soong/.intermediates/hardware/interfaces/wifi/1.0/android.hardware.wifi@1.0_genc++_headers/gen/android/hardware/wifi/1.0/IWifiApIface.h"
  },
  {
   "alignment" : 8,
   "linker_set_key" : "_ZTIPKN7android8hardware4wifi4V1_013BpHwWifiIfaceE",
   "name" : "const android::hardware::wifi::V1_0::BpHwWifiIface *",
   "referenced_type" : "_ZTIKN7android8hardware4wifi4V1_013BpHwWifiIfaceE",
   "self_type" : "_ZTIPKN7android8hardware4wifi4V1_013BpHwWifiIfaceE",
   "size" : 8,
   "source_file" : "/out/soong/.intermediates/hardware/interfaces/wifi/1.0/android.hardware.wifi@1.0_genc++_headers/gen/android/hardware/wifi/1.0/BpHwWifiIface.h"
  },
  {
   "alignment" : 8,
   "linker_set_key" : "_ZTIPKN7android8hardware4wifi4V1_013IWifiNanIfaceE",
   "name" : "const android::hardware::wifi::V1_0::IWifiNanIface *",
   "referenced_type" : "_ZTIKN7android8hardware4wifi4V1_013IWifiNanIfaceE",
   "self_type" : "_ZTIPKN7android8hardware4wifi4V1_013IWifiNanIfaceE",
   "size" : 8,
   "source_file" : "/out/soong/.intermediates/hardware/interfaces/wifi/1.0/android.hardware.wifi@1.0_genc++_headers/gen/android/hardware/wifi/1.0/IWifiNanIface.h"
  },
  {
   "alignment" : 8,
   "linker_set_key" : "_ZTIPKN7android8hardware4wifi4V1_013IWifiP2pIfaceE",
   "name" : "const android::hardware::wifi::V1_0::IWifiP2pIface *",
   "referenced_type" : "_ZTIKN7android8hardware4wifi4V1_013IWifiP2pIfaceE",
   "self_type" : "_ZTIPKN7android8hardware4wifi4V1_013IWifiP2pIfaceE",
   "size" : 8,
   "source_file" : "/out/soong/.intermediates/hardware/interfaces/wifi/1.0/android.hardware.wifi@1.0_genc++_headers/gen/android/hardware/wifi/1.0/IWifiP2pIface.h"
  },
  {
   "alignment" : 8,
   "linker_set_key" : "_ZTIPKN7android8hardware4wifi4V1_013IWifiStaIfaceE",
   "name" : "const android::hardware::wifi::V1_0::IWifiStaIface *",
   "referenced_type" : "_ZTIKN7android8hardware4wifi4V1_013IWifiStaIfaceE",
   "self_type" : "_ZTIPKN7android8hardware4wifi4V1_013IWifiStaIfaceE",
   "size" : 8,
   "source_file" : "/out/soong/.intermediates/hardware/interfaces/wifi/1.0/android.hardware.wifi@1.0_genc++_headers/gen/android/hardware/wifi/1.0/IWifiStaIface.h"
  },
  {
   "alignment" : 8,
   "linker_set_key" : "_ZTIPKN7android8hardware4wifi4V1_015BpHwWifiApIfaceE",
   "name" : "const android::hardware::wifi::V1_0::BpHwWifiApIface *",
   "referenced_type" : "_ZTIKN7android8hardware4wifi4V1_015BpHwWifiApIfaceE",
   "self_type" : "_ZTIPKN7android8hardware4wifi4V1_015BpHwWifiApIfaceE",
   "size" : 8,
   "source_file" : "/out/soong/.intermediates/hardware/interfaces/wifi/1.0/android.hardware.wifi@1.0_genc++_headers/gen/android/hardware/wifi/1.0/BpHwWifiApIface.h"
  },
  {
   "alignment" : 8,
   "linker_set_key" : "_ZTIPKN7android8hardware4wifi4V1_016BpHwWifiNanIfaceE",
   "name" : "const android::hardware::wifi::V1_0::BpHwWifiNanIface *",
   "referenced_type" : "_ZTIKN7android8hardware4wifi4V1_016BpHwWifiNanIfaceE",
   "self_type" : "_ZTIPKN7android8hardware4wifi4V1_016BpHwWifiNanIfaceE",
   "size" : 8,
   "source_file" : "/out/soong/.intermediates/hardware/interfaces/wifi/1.0/android.hardware.wifi@1.0_genc++_headers/gen/android/hardware/wifi/1.0/BpHwWifiNanIface.h"
  },
  {
   "alignment" : 8,
   "linker_set_key" : "_ZTIPKN7android8hardware4wifi4V1_016BpHwWifiP2pIfaceE",
   "name" : "const android::hardware::wifi::V1_0::BpHwWifiP2pIface *",
   "referenced_type" : "_ZTIKN7android8hardware4wifi4V1_016BpHwWifiP2pIfaceE",
   "self_type" : "_ZTIPKN7android8hardware4wifi4V1_016BpHwWifiP2pIfaceE",
   "size" : 8,
   "source_file" : "/out/soong/.intermediates/hardware/interfaces/wifi/1.0/android.hardware.wifi@1.0_genc++_headers/gen/android/hardware/wifi/1.0/BpHwWifiP2pIface.h"
  },
  {
   "alignment" : 8,
   "linker_set_key" : "_ZTIPKN7android8hardware4wifi4V1_016BpHwWifiStaIfaceE",
   "name" : "const android::hardware::wifi::V1_0::BpHwWifiStaIface *",
   "referenced_type" : "_ZTIKN7android8hardware4wifi4V1_016BpHwWifiStaIfaceE",
   "self_type" : "_ZTIPKN7android8hardware4wifi4V1_016BpHwWifiStaIfaceE",
   "size" : 8,
   "source_file" : "/out/soong/.intermediates/hardware/interfaces/wifi/1.0/android.hardware.wifi@1.0_genc++_headers/gen/android/hardware/wifi/1.0/BpHwWifiStaIface.h"
  },
  {
   "alignment" : 8,
   "linker_set_key" : "_ZTIPKN7android8hardware4wifi4V1_018IWifiEventCallbackE",
   "name" : "const android::hardware::wifi::V1_0::IWifiEventCallback *",
   "referenced_type" : "_ZTIKN7android8hardware4wifi4V1_018IWifiEventCallbackE",
   "self_type" : "_ZTIPKN7android8hardware4wifi4V1_018IWifiEventCallbackE",
   "size" : 8,
   "source_file" : "/out/soong/.intermediates/hardware/interfaces/wifi/1.0/android.hardware.wifi@1.0_genc++_headers/gen/android/hardware/wifi/1.0/IWifiEventCallback.h"
  },
  {
   "alignment" : 8,
   "linker_set_key" : "_ZTIPKN7android8hardware4wifi4V1_018IWifiRttControllerE",
   "name" : "const android::hardware::wifi::V1_0::IWifiRttController *",
   "referenced_type" : "_ZTIKN7android8hardware4wifi4V1_018IWifiRttControllerE",
   "self_type" : "_ZTIPKN7android8hardware4wifi4V1_018IWifiRttControllerE",
   "size" : 8,
   "source_file" : "/out/soong/.intermediates/hardware/interfaces/wifi/1.0/android.hardware.wifi@1.0_genc++_headers/gen/android/hardware/wifi/1.0/IWifiRttController.h"
  },
  {
   "alignment" : 8,
   "linker_set_key" : "_ZTIPKN7android8hardware4wifi4V1_021BpHwWifiEventCallbackE",
   "name" : "const android::hardware::wifi::V1_0::BpHwWifiEventCallback *",
   "referenced_type" : "_ZTIKN7android8hardware4wifi4V1_021BpHwWifiEventCallbackE",
   "self_type" : "_ZTIPKN7android8hardware4wifi4V1_021BpHwWifiEventCallbackE",
   "size" : 8,
   "source_file" : "/out/soong/.intermediates/hardware/interfaces/wifi/1.0/android.hardware.wifi@1.0_genc++_headers/gen/android/hardware/wifi/1.0/BpHwWifiEventCallback.h"
  },
  {
   "alignment" : 8,
   "linker_set_key" : "_ZTIPKN7android8hardware4wifi4V1_021BpHwWifiRttControllerE",
   "name" : "const android::hardware::wifi::V1_0::BpHwWifiRttController *",
   "referenced_type" : "_ZTIKN7android8hardware4wifi4V1_021BpHwWifiRttControllerE",
   "self_type" : "_ZTIPKN7android8hardware4wifi4V1_021BpHwWifiRttControllerE",
   "size" : 8,
   "source_file" : "/out/soong/.intermediates/hardware/interfaces/wifi/1.0/android.hardware.wifi@1.0_genc++_headers/gen/android/hardware/wifi/1.0/BpHwWifiRttController.h"
  },
  {
   "alignment" : 8,
   "linker_set_key" : "_ZTIPKN7android8hardware4wifi4V1_021NanBandSpecificConfigE",
   "name" : "const android::hardware::wifi::V1_0::NanBandSpecificConfig *",
   "referenced_type" : "_ZTIKN7android8hardware4wifi4V1_021NanBandSpecificConfigE",
   "self_type" : "_ZTIPKN7android8hardware4wifi4V1_021NanBandSpecificConfigE",
   "size" : 8,
   "source_file" : "/system/libhidl/base/include/hidl/HidlSupport.h"
  },
  {
   "alignment" : 8,
   "linker_set_key" : "_ZTIPKN7android8hardware4wifi4V1_022IWifiChipEventCallbackE",
   "name" : "const android::hardware::wifi::V1_0::IWifiChipEventCallback *",
   "referenced_type" : "_ZTIKN7android8hardware4wifi4V1_022IWifiChipEventCallbackE",
   "self_type" : "_ZTIPKN7android8hardware4wifi4V1_022IWifiChipEventCallbackE",
   "size" : 8,
   "source_file" : "/out/soong/.intermediates/hardware/interfaces/wifi/1.0/android.hardware.wifi@1.0_genc++_headers/gen/android/hardware/wifi/1.0/IWifiChipEventCallback.h"
  },
  {
   "alignment" : 8,
   "linker_set_key" : "_ZTIPKN7android8hardware4wifi4V1_025BpHwWifiChipEventCallbackE",
   "name" : "const android::hardware::wifi::V1_0::BpHwWifiChipEventCallback *",
   "referenced_type" : "_ZTIKN7android8hardware4wifi4V1_025BpHwWifiChipEventCallbackE",
   "self_type" : "_ZTIPKN7android8hardware4wifi4V1_025BpHwWifiChipEventCallbackE",
   "size" : 8,
   "source_file" : "/out/soong/.intermediates/hardware/interfaces/wifi/1.0/android.hardware.wifi@1.0_genc++_headers/gen/android/hardware/wifi/1.0/BpHwWifiChipEventCallback.h"
  },
  {
   "alignment" : 8,
   "linker_set_key" : "_ZTIPKN7android8hardware4wifi4V1_026IWifiNanIfaceEventCallbackE",
   "name" : "const android::hardware::wifi::V1_0::IWifiNanIfaceEventCallback *",
   "referenced_type" : "_ZTIKN7android8hardware4wifi4V1_026IWifiNanIfaceEventCallbackE",
   "self_type" : "_ZTIPKN7android8hardware4wifi4V1_026IWifiNanIfaceEventCallbackE",
   "size" : 8,
   "source_file" : "/out/soong/.intermediates/hardware/interfaces/wifi/1.0/android.hardware.wifi@1.0_genc++_headers/gen/android/hardware/wifi/1.0/IWifiNanIfaceEventCallback.h"
  },
  {
   "alignment" : 8,
   "linker_set_key" : "_ZTIPKN7android8hardware4wifi4V1_026IWifiStaIfaceEventCallbackE",
   "name" : "const android::hardware::wifi::V1_0::IWifiStaIfaceEventCallback *",
   "referenced_type" : "_ZTIKN7android8hardware4wifi4V1_026IWifiStaIfaceEventCallbackE",
   "self_type" : "_ZTIPKN7android8hardware4wifi4V1_026IWifiStaIfaceEventCallbackE",
   "size" : 8,
   "source_file" : "/out/soong/.intermediates/hardware/interfaces/wifi/1.0/android.hardware.wifi@1.0_genc++_headers/gen/android/hardware/wifi/1.0/IWifiStaIfaceEventCallback.h"
  },
  {
   "alignment" : 8,
   "linker_set_key" : "_ZTIPKN7android8hardware4wifi4V1_029BpHwWifiNanIfaceEventCallbackE",
   "name" : "const android::hardware::wifi::V1_0::BpHwWifiNanIfaceEventCallback *",
   "referenced_type" : "_ZTIKN7android8hardware4wifi4V1_029BpHwWifiNanIfaceEventCallbackE",
   "self_type" : "_ZTIPKN7android8hardware4wifi4V1_029BpHwWifiNanIfaceEventCallbackE",
   "size" : 8,
   "source_file" : "/out/soong/.intermediates/hardware/interfaces/wifi/1.0/android.hardware.wifi@1.0_genc++_headers/gen/android/hardware/wifi/1.0/BpHwWifiNanIfaceEventCallback.h"
  },
  {
   "alignment" : 8,
   "linker_set_key" : "_ZTIPKN7android8hardware4wifi4V1_029BpHwWifiStaIfaceEventCallbackE",
   "name" : "const android::hardware::wifi::V1_0::BpHwWifiStaIfaceEventCallback *",
   "referenced_type" : "_ZTIKN7android8hardware4wifi4V1_029BpHwWifiStaIfaceEventCallbackE",
   "self_type" : "_ZTIPKN7android8hardware4wifi4V1_029BpHwWifiStaIfaceEventCallbackE",
   "size" : 8,
   "source_file" : "/out/soong/.intermediates/hardware/interfaces/wifi/1.0/android.hardware.wifi@1.0_genc++_headers/gen/android/hardware/wifi/1.0/BpHwWifiStaIfaceEventCallback.h"
  },
  {
   "alignment" : 8,
   "linker_set_key" : "_ZTIPKN7android8hardware4wifi4V1_031IWifiRttControllerEventCallbackE",
   "name" : "const android::hardware::wifi::V1_0::IWifiRttControllerEventCallback *",
   "referenced_type" : "_ZTIKN7android8hardware4wifi4V1_031IWifiRttControllerEventCallbackE",
   "self_type" : "_ZTIPKN7android8hardware4wifi4V1_031IWifiRttControllerEventCallbackE",
   "size" : 8,
   "source_file" : "/out/soong/.intermediates/hardware/interfaces/wifi/1.0/android.hardware.wifi@1.0_genc++_headers/gen/android/hardware/wifi/1.0/IWifiRttControllerEventCallback.h"
  },
  {
   "alignment" : 8,
   "linker_set_key" : "_ZTIPKN7android8hardware4wifi4V1_034BpHwWifiRttControllerEventCallbackE",
   "name" : "const android::hardware::wifi::V1_0::BpHwWifiRttControllerEventCallback *",
   "referenced_type" : "_ZTIKN7android8hardware4wifi4V1_034BpHwWifiRttControllerEventCallbackE",
   "self_type" : "_ZTIPKN7android8hardware4wifi4V1_034BpHwWifiRttControllerEventCallbackE",
   "size" : 8,
   "source_file" : "/out/soong/.intermediates/hardware/interfaces/wifi/1.0/android.hardware.wifi@1.0_genc++_headers/gen/android/hardware/wifi/1.0/BpHwWifiRttControllerEventCallback.h"
  },
  {
   "alignment" : 8,
   "linker_set_key" : "_ZTIPKN7android8hardware4wifi4V1_05IWifiE",
   "name" : "const android::hardware::wifi::V1_0::IWifi *",
   "referenced_type" : "_ZTIKN7android8hardware4wifi4V1_05IWifiE",
   "self_type" : "_ZTIPKN7android8hardware4wifi4V1_05IWifiE",
   "size" : 8,
   "source_file" : "/out/soong/.intermediates/hardware/interfaces/wifi/1.0/android.hardware.wifi@1.0_genc++_headers/gen/android/hardware/wifi/1.0/IWifi.h"
  },
  {
   "alignment" : 8,
   "linker_set_key" : "_ZTIPKN7android8hardware4wifi4V1_08BpHwWifiE",
   "name" : "const android::hardware::wifi::V1_0::BpHwWifi *",
   "referenced_type" : "_ZTIKN7android8hardware4wifi4V1_08BpHwWifiE",
   "self_type" : "_ZTIPKN7android8hardware4wifi4V1_08BpHwWifiE",
   "size" : 8,
   "source_file" : "/out/soong/.intermediates/hardware/interfaces/wifi/1.0/android.hardware.wifi@1.0_genc++_headers/gen/android/hardware/wifi/1.0/BpHwWifi.h"
  },
  {
   "alignment" : 8,
   "linker_set_key" : "_ZTIPKN7android8hardware4wifi4V1_09IWifiChipE",
   "name" : "const android::hardware::wifi::V1_0::IWifiChip *",
   "referenced_type" : "_ZTIKN7android8hardware4wifi4V1_09IWifiChipE",
   "self_type" : "_ZTIPKN7android8hardware4wifi4V1_09IWifiChipE",
   "size" : 8,
   "source_file" : "/out/soong/.intermediates/hardware/interfaces/wifi/1.0/android.hardware.wifi@1.0_genc++_headers/gen/android/hardware/wifi/1.0/IWifiChip.h"
  },
  {
   "alignment" : 8,
   "linker_set_key" : "_ZTIPKN7android8hardware4wifi4V1_112BpHwWifiChipE",
   "name" : "const android::hardware::wifi::V1_1::BpHwWifiChip *",
   "referenced_type" : "_ZTIKN7android8hardware4wifi4V1_112BpHwWifiChipE",
   "self_type" : "_ZTIPKN7android8hardware4wifi4V1_112BpHwWifiChipE",
   "size" : 8,
   "source_file" : "/out/soong/.intermediates/hardware/interfaces/wifi/1.1/android.hardware.wifi@1.1_genc++_headers/gen/android/hardware/wifi/1.1/BpHwWifiChip.h"
  },
  {
   "alignment" : 8,
   "linker_set_key" : "_ZTIPKN7android8hardware4wifi4V1_15IWifiE",
   "name" : "const android::hardware::wifi::V1_1::IWifi *",
   "referenced_type" : "_ZTIKN7android8hardware4wifi4V1_15IWifiE",
   "self_type" : "_ZTIPKN7android8hardware4wifi4V1_15IWifiE",
   "size" : 8,
   "source_file" : "/out/soong/.intermediates/hardware/interfaces/wifi/1.1/android.hardware.wifi@1.1_genc++_headers/gen/android/hardware/wifi/1.1/IWifi.h"
  },
  {
   "alignment" : 8,
   "linker_set_key" : "_ZTIPKN7android8hardware4wifi4V1_18BpHwWifiE",
   "name" : "const android::hardware::wifi::V1_1::BpHwWifi *",
   "referenced_type" : "_ZTIKN7android8hardware4wifi4V1_18BpHwWifiE",
   "self_type" : "_ZTIPKN7android8hardware4wifi4V1_18BpHwWifiE",
   "size" : 8,
   "source_file" : "/out/soong/.intermediates/hardware/interfaces/wifi/1.1/android.hardware.wifi@1.1_genc++_headers/gen/android/hardware/wifi/1.1/BpHwWifi.h"
  },
  {
   "alignment" : 8,
   "linker_set_key" : "_ZTIPKN7android8hardware4wifi4V1_19IWifiChipE",
   "name" : "const android::hardware::wifi::V1_1::IWifiChip *",
   "referenced_type" : "_ZTIKN7android8hardware4wifi4V1_19IWifiChipE",
   "self_type" : "_ZTIPKN7android8hardware4wifi4V1_19IWifiChipE",
   "size" : 8,
   "source_file" : "/out/soong/.intermediates/hardware/interfaces/wifi/1.1/android.hardware.wifi@1.1_genc++_headers/gen/android/hardware/wifi/1.1/IWifiChip.h"
  },
  {
   "alignment" : 8,
   "linker_set_key" : "_ZTIPKN7android8hardware6ReturnINS_2spINS0_4wifi4V1_15IWifiEEEEE",
   "name" : "const android::hardware::Return<android::sp<android::hardware::wifi::V1_1::IWifi> > *",
   "referenced_type" : "_ZTIKN7android8hardware6ReturnINS_2spINS0_4wifi4V1_15IWifiEEEEE",
   "self_type" : "_ZTIPKN7android8hardware6ReturnINS_2spINS0_4wifi4V1_15IWifiEEEEE",
   "size" : 8,
   "source_file" : "/system/libhidl/base/include/hidl/Status.h"
  },
  {
   "alignment" : 8,
   "linker_set_key" : "_ZTIPKN7android8hardware6ReturnINS_2spINS0_4wifi4V1_19IWifiChipEEEEE",
   "name" : "const android::hardware::Return<android::sp<android::hardware::wifi::V1_1::IWifiChip> > *",
   "referenced_type" : "_ZTIKN7android8hardware6ReturnINS_2spINS0_4wifi4V1_19IWifiChipEEEEE",
   "self_type" : "_ZTIPKN7android8hardware6ReturnINS_2spINS0_4wifi4V1_19IWifiChipEEEEE",
   "size" : 8,
   "source_file" : "/system/libhidl/base/include/hidl/Status.h"
  },
  {
   "alignment" : 8,
   "linker_set_key" : "_ZTIPKN7android8hardware6ReturnIbEE",
   "name" : "const android::hardware::Return<bool> *",
   "referenced_type" : "_ZTIKN7android8hardware6ReturnIbEE",
   "self_type" : "_ZTIPKN7android8hardware6ReturnIbEE",
   "size" : 8,
   "source_file" : "/system/libhidl/base/include/hidl/Status.h"
  },
  {
   "alignment" : 8,
   "linker_set_key" : "_ZTIPKN7android8hardware6StatusE",
   "name" : "const android::hardware::Status *",
   "referenced_type" : "_ZTIKN7android8hardware6StatusE",
   "self_type" : "_ZTIPKN7android8hardware6StatusE",
   "size" : 8,
   "source_file" : "/system/libhidl/base/include/hidl/Status.h"
  },
  {
   "alignment" : 8,
   "linker_set_key" : "_ZTIPKN7android8hardware7details12hidl_pointerINS0_10hidl_arrayIhLm32EJEEEEE",
   "name" : "const android::hardware::details::hidl_pointer<android::hardware::hidl_array<unsigned char, 32> > *",
   "referenced_type" : "_ZTIKN7android8hardware7details12hidl_pointerINS0_10hidl_arrayIhLm32EJEEEEE",
   "self_type" : "_ZTIPKN7android8hardware7details12hidl_pointerINS0_10hidl_arrayIhLm32EJEEEEE",
   "size" : 8,
   "source_file" : "/system/libhidl/base/include/hidl/HidlInternal.h"
  },
  {
   "alignment" : 8,
   "linker_set_key" : "_ZTIPKN7android8hardware7details12hidl_pointerINS0_10hidl_arrayIhLm6EJEEEEE",
   "name" : "const android::hardware::details::hidl_pointer<android::hardware::hidl_array<unsigned char, 6> > *",
   "referenced_type" : "_ZTIKN7android8hardware7details12hidl_pointerINS0_10hidl_arrayIhLm6EJEEEEE",
   "self_type" : "_ZTIPKN7android8hardware7details12hidl_pointerINS0_10hidl_arrayIhLm6EJEEEEE",
   "size" : 8,
   "source_file" : "/system/libhidl/base/include/hidl/HidlInternal.h"
  },
  {
   "alignment" : 8,
   "linker_set_key" : "_ZTIPKN7android8hardware7details12hidl_pointerINS0_11hidl_stringEEE",
   "name" : "const android::hardware::details::hidl_pointer<android::hardware::hidl_string> *",
   "referenced_type" : "_ZTIKN7android8hardware7details12hidl_pointerINS0_11hidl_stringEEE",
   "self_type" : "_ZTIPKN7android8hardware7details12hidl_pointerINS0_11hidl_stringEEE",
   "size" : 8,
   "source_file" : "/system/libhidl/base/include/hidl/HidlInternal.h"
  },
  {
   "alignment" : 8,
   "linker_set_key" : "_ZTIPKN7android8hardware7details12hidl_pointerINS0_4wifi4V1_013StaScanResultEEE",
   "name" : "const android::hardware::details::hidl_pointer<android::hardware::wifi::V1_0::StaScanResult> *",
   "referenced_type" : "_ZTIKN7android8hardware7details12hidl_pointerINS0_4wifi4V1_013StaScanResultEEE",
   "self_type" : "_ZTIPKN7android8hardware7details12hidl_pointerINS0_4wifi4V1_013StaScanResultEEE",
   "size" : 8,
   "source_file" : "/system/libhidl/base/include/hidl/HidlInternal.h"
  },
  {
   "alignment" : 8,
   "linker_set_key" : "_ZTIPKN7android8hardware7details12hidl_pointerINS0_4wifi4V1_022StaLinkLayerRadioStatsEEE",
   "name" : "const android::hardware::details::hidl_pointer<android::hardware::wifi::V1_0::StaLinkLayerRadioStats> *",
   "referenced_type" : "_ZTIKN7android8hardware7details12hidl_pointerINS0_4wifi4V1_022StaLinkLayerRadioStatsEEE",
   "self_type" : "_ZTIPKN7android8hardware7details12hidl_pointerINS0_4wifi4V1_022StaLinkLayerRadioStatsEEE",
   "size" : 8,
   "source_file" : "/system/libhidl/base/include/hidl/HidlInternal.h"
  },
  {
   "alignment" : 8,
   "linker_set_key" : "_ZTIPKN7android8hardware7details12hidl_pointerINS0_4wifi4V1_022WifiInformationElementEEE",
   "name" : "const android::hardware::details::hidl_pointer<android::hardware::wifi::V1_0::WifiInformationElement> *",
   "referenced_type" : "_ZTIKN7android8hardware7details12hidl_pointerINS0_4wifi4V1_022WifiInformationElementEEE",
   "self_type" : "_ZTIPKN7android8hardware7details12hidl_pointerINS0_4wifi4V1_022WifiInformationElementEEE",
   "size" : 8,
   "source_file" : "/system/libhidl/base/include/hidl/HidlInternal.h"
  },
  {
   "alignment" : 8,
   "linker_set_key" : "_ZTIPKN7android8hardware7details12hidl_pointerINS0_4wifi4V1_033StaBackgroundScanBucketParametersEEE",
   "name" : "const android::hardware::details::hidl_pointer<android::hardware::wifi::V1_0::StaBackgroundScanBucketParameters> *",
   "referenced_type" : "_ZTIKN7android8hardware7details12hidl_pointerINS0_4wifi4V1_033StaBackgroundScanBucketParametersEEE",
   "self_type" : "_ZTIPKN7android8hardware7details12hidl_pointerINS0_4wifi4V1_033StaBackgroundScanBucketParametersEEE",
   "size" : 8,
   "source_file" : "/system/libhidl/base/include/hidl/HidlInternal.h"
  },
  {
   "alignment" : 8,
   "linker_set_key" : "_ZTIPKN7android8hardware7details12hidl_pointerINS0_4wifi4V1_09IWifiChip20ChipIfaceCombinationEEE",
   "name" : "const android::hardware::details::hidl_pointer<android::hardware::wifi::V1_0::IWifiChip::ChipIfaceCombination> *",
   "referenced_type" : "_ZTIKN7android8hardware7details12hidl_pointerINS0_4wifi4V1_09IWifiChip20ChipIfaceCombinationEEE",
   "self_type" : "_ZTIPKN7android8hardware7details12hidl_pointerINS0_4wifi4V1_09IWifiChip20ChipIfaceCombinationEEE",
   "size" : 8,
   "source_file" : "/system/libhidl/base/include/hidl/HidlInternal.h"
  },
  {
   "alignment" : 8,
   "linker_set_key" : "_ZTIPKN7android8hardware7details12hidl_pointerINS0_4wifi4V1_09IWifiChip25ChipIfaceCombinationLimitEEE",
   "name" : "const android::hardware::details::hidl_pointer<android::hardware::wifi::V1_0::IWifiChip::ChipIfaceCombinationLimit> *",
   "referenced_type" : "_ZTIKN7android8hardware7details12hidl_pointerINS0_4wifi4V1_09IWifiChip25ChipIfaceCombinationLimitEEE",
   "self_type" : "_ZTIPKN7android8hardware7details12hidl_pointerINS0_4wifi4V1_09IWifiChip25ChipIfaceCombinationLimitEEE",
   "size" : 8,
   "source_file" : "/system/libhidl/base/include/hidl/HidlInternal.h"
  },
  {
   "alignment" : 8,
   "linker_set_key" : "_ZTIPKN7android8hardware7details12hidl_pointerINS0_4wifi4V1_09IfaceTypeEEE",
   "name" : "const android::hardware::details::hidl_pointer<android::hardware::wifi::V1_0::IfaceType> *",
   "referenced_type" : "_ZTIKN7android8hardware7details12hidl_pointerINS0_4wifi4V1_09IfaceTypeEEE",
   "self_type" : "_ZTIPKN7android8hardware7details12hidl_pointerINS0_4wifi4V1_09IfaceTypeEEE",
   "size" : 8,
   "source_file" : "/system/libhidl/base/include/hidl/HidlInternal.h"
  },
  {
   "alignment" : 8,
   "linker_set_key" : "_ZTIPKN7android8hardware7details12hidl_pointerIhEE",
   "name" : "const android::hardware::details::hidl_pointer<unsigned char> *",
   "referenced_type" : "_ZTIKN7android8hardware7details12hidl_pointerIhEE",
   "self_type" : "_ZTIPKN7android8hardware7details12hidl_pointerIhEE",
   "size" : 8,
   "source_file" : "/system/libhidl/base/include/hidl/HidlInternal.h"
  },
  {
   "alignment" : 8,
   "linker_set_key" : "_ZTIPKN7android8hardware7details12hidl_pointerIiEE",
   "name" : "const android::hardware::details::hidl_pointer<int> *",
   "referenced_type" : "_ZTIKN7android8hardware7details12hidl_pointerIiEE",
   "self_type" : "_ZTIPKN7android8hardware7details12hidl_pointerIiEE",
   "size" : 8,
   "source_file" : "/system/libhidl/base/include/hidl/HidlInternal.h"
  },
  {
   "alignment" : 8,
   "linker_set_key" : "_ZTIPKN7android8hardware7details12hidl_pointerIjEE",
   "name" : "const android::hardware::details::hidl_pointer<unsigned int> *",
   "referenced_type" : "_ZTIKN7android8hardware7details12hidl_pointerIjEE",
   "self_type" : "_ZTIPKN7android8hardware7details12hidl_pointerIjEE",
   "size" : 8,
   "source_file" : "/system/libhidl/base/include/hidl/HidlInternal.h"
  },
  {
   "alignment" : 8,
   "linker_set_key" : "_ZTIPKN7android8hardware7details13return_statusE",
   "name" : "const android::hardware::details::return_status *",
   "referenced_type" : "_ZTIKN7android8hardware7details13return_statusE",
   "self_type" : "_ZTIPKN7android8hardware7details13return_statusE",
   "size" : 8,
   "source_file" : "/system/libhidl/base/include/hidl/Status.h"
  },
  {
   "alignment" : 8,
   "linker_set_key" : "_ZTIPKN7android8hardware7details14const_accessorINS0_4wifi4V1_021NanBandSpecificConfigELm2EJEEE",
   "name" : "const android::hardware::details::const_accessor<android::hardware::wifi::V1_0::NanBandSpecificConfig, 2> *",
   "referenced_type" : "_ZTIKN7android8hardware7details14const_accessorINS0_4wifi4V1_021NanBandSpecificConfigELm2EJEEE",
   "self_type" : "_ZTIPKN7android8hardware7details14const_accessorINS0_4wifi4V1_021NanBandSpecificConfigELm2EJEEE",
   "size" : 8,
   "source_file" : "/system/libhidl/base/include/hidl/HidlSupport.h"
  },
  {
   "alignment" : 8,
   "linker_set_key" : "_ZTIPKN7android8hardware7details14const_accessorIaLm2EJEEE",
   "name" : "const android::hardware::details::const_accessor<signed char, 2> *",
   "referenced_type" : "_ZTIKN7android8hardware7details14const_accessorIaLm2EJEEE",
   "self_type" : "_ZTIPKN7android8hardware7details14const_accessorIaLm2EJEEE",
   "size" : 8,
   "source_file" : "/system/libhidl/base/include/hidl/HidlSupport.h"
  },
  {
   "alignment" : 8,
   "linker_set_key" : "_ZTIPKN7android8hardware7details14const_accessorIbLm2EJEEE",
   "name" : "const android::hardware::details::const_accessor<bool, 2> *",
   "referenced_type" : "_ZTIKN7android8hardware7details14const_accessorIbLm2EJEEE",
   "self_type" : "_ZTIPKN7android8hardware7details14const_accessorIbLm2EJEEE",
   "size" : 8,
   "source_file" : "/system/libhidl/base/include/hidl/HidlSupport.h"
  },
  {
   "alignment" : 8,
   "linker_set_key" : "_ZTIPKN7android8hardware7details14const_accessorIhLm32EJEEE",
   "name" : "const android::hardware::details::const_accessor<unsigned char, 32> *",
   "referenced_type" : "_ZTIKN7android8hardware7details14const_accessorIhLm32EJEEE",
   "self_type" : "_ZTIPKN7android8hardware7details14const_accessorIhLm32EJEEE",
   "size" : 8,
   "source_file" : "/system/libhidl/base/include/hidl/HidlSupport.h"
  },
  {
   "alignment" : 8,
   "linker_set_key" : "_ZTIPKN7android8hardware7details14const_accessorIhLm6EJEEE",
   "name" : "const android::hardware::details::const_accessor<unsigned char, 6> *",
   "referenced_type" : "_ZTIKN7android8hardware7details14const_accessorIhLm6EJEEE",
   "self_type" : "_ZTIPKN7android8hardware7details14const_accessorIhLm6EJEEE",
   "size" : 8,
   "source_file" : "/system/libhidl/base/include/hidl/HidlSupport.h"
  },
  {
   "alignment" : 8,
   "linker_set_key" : "_ZTIPKN7android8hardware7details14const_accessorIjLm2EJEEE",
   "name" : "const android::hardware::details::const_accessor<unsigned int, 2> *",
   "referenced_type" : "_ZTIKN7android8hardware7details14const_accessorIjLm2EJEEE",
   "self_type" : "_ZTIPKN7android8hardware7details14const_accessorIjLm2EJEEE",
   "size" : 8,
   "source_file" : "/system/libhidl/base/include/hidl/HidlSupport.h"
  },
  {
   "alignment" : 8,
   "linker_set_key" : "_ZTIPKN7android8hardware8hidl_vecINS0_10hidl_arrayIhLm32EJEEEEE",
   "name" : "const android::hardware::hidl_vec<android::hardware::hidl_array<unsigned char, 32> > *",
   "referenced_type" : "_ZTIKN7android8hardware8hidl_vecINS0_10hidl_arrayIhLm32EJEEEEE",
   "self_type" : "_ZTIPKN7android8hardware8hidl_vecINS0_10hidl_arrayIhLm32EJEEEEE",
   "size" : 8,
   "source_file" : "/system/libhidl/base/include/hidl/HidlSupport.h"
  },
  {
   "alignment" : 8,
   "linker_set_key" : "_ZTIPKN7android8hardware8hidl_vecINS0_10hidl_arrayIhLm6EJEEEEE",
   "name" : "const android::hardware::hidl_vec<android::hardware::hidl_array<unsigned char, 6> > *",
   "referenced_type" : "_ZTIKN7android8hardware8hidl_vecINS0_10hidl_arrayIhLm6EJEEEEE",
   "self_type" : "_ZTIPKN7android8hardware8hidl_vecINS0_10hidl_arrayIhLm6EJEEEEE",
   "size" : 8,
   "source_file" : "/system/libhidl/base/include/hidl/HidlSupport.h"
  },
  {
   "alignment" : 8,
   "linker_set_key" : "_ZTIPKN7android8hardware8hidl_vecINS0_4wifi4V1_013StaScanResultEEE",
   "name" : "const android::hardware::hidl_vec<android::hardware::wifi::V1_0::StaScanResult> *",
   "referenced_type" : "_ZTIKN7android8hardware8hidl_vecINS0_4wifi4V1_013StaScanResultEEE",
   "self_type" : "_ZTIPKN7android8hardware8hidl_vecINS0_4wifi4V1_013StaScanResultEEE",
   "size" : 8,
   "source_file" : "/system/libhidl/base/include/hidl/HidlSupport.h"
  },
  {
   "alignment" : 8,
   "linker_set_key" : "_ZTIPKN7android8hardware8hidl_vecINS0_4wifi4V1_022StaLinkLayerRadioStatsEEE",
   "name" : "const android::hardware::hidl_vec<android::hardware::wifi::V1_0::StaLinkLayerRadioStats> *",
   "referenced_type" : "_ZTIKN7android8hardware8hidl_vecINS0_4wifi4V1_022StaLinkLayerRadioStatsEEE",
   "self_type" : "_ZTIPKN7android8hardware8hidl_vecINS0_4wifi4V1_022StaLinkLayerRadioStatsEEE",
   "size" : 8,
   "source_file" : "/system/libhidl/base/include/hidl/HidlSupport.h"
  },
  {
   "alignment" : 8,
   "linker_set_key" : "_ZTIPKN7android8hardware8hidl_vecINS0_4wifi4V1_022WifiInformationElementEEE",
   "name" : "const android::hardware::hidl_vec<android::hardware::wifi::V1_0::WifiInformationElement> *",
   "referenced_type" : "_ZTIKN7android8hardware8hidl_vecINS0_4wifi4V1_022WifiInformationElementEEE",
   "self_type" : "_ZTIPKN7android8hardware8hidl_vecINS0_4wifi4V1_022WifiInformationElementEEE",
   "size" : 8,
   "source_file" : "/system/libhidl/base/include/hidl/HidlSupport.h"
  },
  {
   "alignment" : 8,
   "linker_set_key" : "_ZTIPKN7android8hardware8hidl_vecINS0_4wifi4V1_033StaBackgroundScanBucketParametersEEE",
   "name" : "const android::hardware::hidl_vec<android::hardware::wifi::V1_0::StaBackgroundScanBucketParameters> *",
   "referenced_type" : "_ZTIKN7android8hardware8hidl_vecINS0_4wifi4V1_033StaBackgroundScanBucketParametersEEE",
   "self_type" : "_ZTIPKN7android8hardware8hidl_vecINS0_4wifi4V1_033StaBackgroundScanBucketParametersEEE",
   "size" : 8,
   "source_file" : "/system/libhidl/base/include/hidl/HidlSupport.h"
  },
  {
   "alignment" : 8,
   "linker_set_key" : "_ZTIPKN7android8hardware8hidl_vecINS0_4wifi4V1_09IWifiChip20ChipIfaceCombinationEEE",
   "name" : "const android::hardware::hidl_vec<android::hardware::wifi::V1_0::IWifiChip::ChipIfaceCombination> *",
   "referenced_type" : "_ZTIKN7android8hardware8hidl_vecINS0_4wifi4V1_09IWifiChip20ChipIfaceCombinationEEE",
   "self_type" : "_ZTIPKN7android8hardware8hidl_vecINS0_4wifi4V1_09IWifiChip20ChipIfaceCombinationEEE",
   "size" : 8,
   "source_file" : "/system/libhidl/base/include/hidl/HidlSupport.h"
  },
  {
   "alignment" : 8,
   "linker_set_key" : "_ZTIPKN7android8hardware8hidl_vecINS0_4wifi4V1_09IWifiChip25ChipIfaceCombinationLimitEEE",
   "name" : "const android::hardware::hidl_vec<android::hardware::wifi::V1_0::IWifiChip::ChipIfaceCombinationLimit> *",
   "referenced_type" : "_ZTIKN7android8hardware8hidl_vecINS0_4wifi4V1_09IWifiChip25ChipIfaceCombinationLimitEEE",
   "self_type" : "_ZTIPKN7android8hardware8hidl_vecINS0_4wifi4V1_09IWifiChip25ChipIfaceCombinationLimitEEE",
   "size" : 8,
   "source_file" : "/system/libhidl/base/include/hidl/HidlSupport.h"
  },
  {
   "alignment" : 8,
   "linker_set_key" : "_ZTIPKN7android8hardware8hidl_vecINS0_4wifi4V1_09IfaceTypeEEE",
   "name" : "const android::hardware::hidl_vec<android::hardware::wifi::V1_0::IfaceType> *",
   "referenced_type" : "_ZTIKN7android8hardware8hidl_vecINS0_4wifi4V1_09IfaceTypeEEE",
   "self_type" : "_ZTIPKN7android8hardware8hidl_vecINS0_4wifi4V1_09IfaceTypeEEE",
   "size" : 8,
   "source_file" : "/system/libhidl/base/include/hidl/HidlSupport.h"
  },
  {
   "alignment" : 8,
   "linker_set_key" : "_ZTIPKN7android8hardware8hidl_vecIhEE",
   "name" : "const android::hardware::hidl_vec<unsigned char> *",
   "referenced_type" : "_ZTIKN7android8hardware8hidl_vecIhEE",
   "self_type" : "_ZTIPKN7android8hardware8hidl_vecIhEE",
   "size" : 8,
   "source_file" : "/system/libhidl/base/include/hidl/HidlSupport.h"
  },
  {
   "alignment" : 8,
   "linker_set_key" : "_ZTIPKN7android8hardware8hidl_vecIiEE",
   "name" : "const android::hardware::hidl_vec<int> *",
   "referenced_type" : "_ZTIKN7android8hardware8hidl_vecIiEE",
   "self_type" : "_ZTIPKN7android8hardware8hidl_vecIiEE",
   "size" : 8,
   "source_file" : "/system/libhidl/base/include/hidl/HidlSupport.h"
  },
  {
   "alignment" : 8,
   "linker_set_key" : "_ZTIPKN7android8hardware8hidl_vecIjEE",
   "name" : "const android::hardware::hidl_vec<unsigned int> *",
   "referenced_type" : "_ZTIKN7android8hardware8hidl_vecIjEE",
   "self_type" : "_ZTIPKN7android8hardware8hidl_vecIjEE",
   "size" : 8,
   "source_file" : "/system/libhidl/base/include/hidl/HidlSupport.h"
  },
  {
   "alignment" : 8,
   "linker_set_key" : "_ZTIPKa",
   "name" : "const signed char *",
   "referenced_type" : "_ZTIKa",
   "self_type" : "_ZTIPKa",
   "size" : 8,
   "source_file" : "/system/libhidl/base/include/hidl/HidlSupport.h"
  },
  {
   "alignment" : 8,
   "linker_set_key" : "_ZTIPKb",
   "name" : "const bool *",
   "referenced_type" : "_ZTIKb",
   "self_type" : "_ZTIPKb",
   "size" : 8,
   "source_file" : "/system/libhidl/base/include/hidl/HidlSupport.h"
  },
  {
   "alignment" : 8,
   "linker_set_key" : "_ZTIPKc",
   "name" : "const char *",
   "referenced_type" : "_ZTIKc",
   "self_type" : "_ZTIPKc",
   "size" : 8,
   "source_file" : "/system/core/liblog/include/android/log.h"
  },
  {
   "alignment" : 8,
   "linker_set_key" : "_ZTIPKh",
   "name" : "const unsigned char *",
   "referenced_type" : "_ZTIKh",
   "self_type" : "_ZTIPKh",
   "size" : 8,
   "source_file" : "/system/libhidl/base/include/hidl/HidlSupport.h"
  },
  {
   "alignment" : 8,
   "linker_set_key" : "_ZTIPKj",
   "name" : "const unsigned int *",
   "referenced_type" : "_ZTIKj",
   "self_type" : "_ZTIPKj",
   "size" : 8,
   "source_file" : "/system/libhidl/base/include/hidl/HidlSupport.h"
  },
  {
   "alignment" : 8,
   "linker_set_key" : "_ZTIPKv",
   "name" : "const void *",
   "referenced_type" : "_ZTIKv",
   "self_type" : "_ZTIPKv",
   "size" : 8,
   "source_file" : "/system/core/libutils/include/utils/StrongPointer.h"
  },
  {
   "alignment" : 8,
   "linker_set_key" : "_ZTIPKy",
   "name" : "const unsigned long long *",
   "referenced_type" : "_ZTIKy",
   "self_type" : "_ZTIPKy",
   "size" : 8,
   "source_file" : "/system/libhwbinder/include/hwbinder/Parcel.h"
  },
  {
   "alignment" : 8,
   "linker_set_key" : "_ZTIPN7android11ScopedTraceE",
   "name" : "android::ScopedTrace *",
   "referenced_type" : "_ZTIN7android11ScopedTraceE",
   "self_type" : "_ZTIPN7android11ScopedTraceE",
   "size" : 8,
   "source_file" : "/system/core/libutils/include/utils/Trace.h"
  },
  {
   "alignment" : 8,
   "linker_set_key" : "_ZTIPN7android16ReferenceRenamerE",
   "name" : "android::ReferenceRenamer *",
   "referenced_type" : "_ZTIN7android16ReferenceRenamerE",
   "self_type" : "_ZTIPN7android16ReferenceRenamerE",
   "size" : 8,
   "source_file" : "/system/core/libutils/include/utils/RefBase.h"
  },
  {
   "alignment" : 8,
   "linker_set_key" : "_ZTIPN7android19VirtualLightRefBaseE",
   "name" : "android::VirtualLightRefBase *",
   "referenced_type" : "_ZTIN7android19VirtualLightRefBaseE",
   "self_type" : "_ZTIPN7android19VirtualLightRefBaseE",
   "size" : 8,
   "source_file" : "/system/core/libutils/include/utils/LightRefBase.h"
  },
  {
   "alignment" : 8,
   "linker_set_key" : "_ZTIPN7android2spINS_4hidl4base4V1_05IBaseEEE",
   "name" : "android::sp<android::hidl::base::V1_0::IBase> *",
   "referenced_type" : "_ZTIN7android2spINS_4hidl4base4V1_05IBaseEEE",
   "self_type" : "_ZTIPN7android2spINS_4hidl4base4V1_05IBaseEEE",
   "size" : 8,
   "source_file" : "/system/core/libutils/include/utils/StrongPointer.h"
  },
  {
   "alignment" : 8,
   "linker_set_key" : "_ZTIPN7android2spINS_4hidl7manager4V1_015IServiceManagerEEE",
   "name" : "android::sp<android::hidl::manager::V1_0::IServiceManager> *",
   "referenced_type" : "_ZTIN7android2spINS_4hidl7manager4V1_015IServiceManagerEEE",
   "self_type" : "_ZTIPN7android2spINS_4hidl7manager4V1_015IServiceManagerEEE",
   "size" : 8,
   "source_file" : "/system/core/libutils/include/utils/StrongPointer.h"
  },
  {
   "alignment" : 8,
   "linker_set_key" : "_ZTIPN7android2spINS_4hidl7manager4V1_020IServiceNotificationEEE",
   "name" : "android::sp<android::hidl::manager::V1_0::IServiceNotification> *",
   "referenced_type" : "_ZTIN7android2spINS_4hidl7manager4V1_020IServiceNotificationEEE",
   "self_type" : "_ZTIPN7android2spINS_4hidl7manager4V1_020IServiceNotificationEEE",
   "size" : 8,
   "source_file" : "/system/core/libutils/include/utils/StrongPointer.h"
  },
  {
   "alignment" : 8,
   "linker_set_key" : "_ZTIPN7android2spINS_8hardware12ProcessStateEEE",
   "name" : "android::sp<android::hardware::ProcessState> *",
   "referenced_type" : "_ZTIN7android2spINS_8hardware12ProcessStateEEE",
   "self_type" : "_ZTIPN7android2spINS_8hardware12ProcessStateEEE",
   "size" : 8,
   "source_file" : "/system/core/libutils/include/utils/StrongPointer.h"
  },
  {
   "alignment" : 8,
   "linker_set_key" : "_ZTIPN7android2spINS_8hardware27hidl_binder_death_recipientEEE",
   "name" : "android::sp<android::hardware::hidl_binder_death_recipient> *",
   "referenced_type" : "_ZTIN7android2spINS_8hardware27hidl_binder_death_recipientEEE",
   "self_type" : "_ZTIPN7android2spINS_8hardware27hidl_binder_death_recipientEEE",
   "size" : 8,
   "source_file" : "/system/core/libutils/include/utils/StrongPointer.h"
  },
  {
   "alignment" : 8,
   "linker_set_key" : "_ZTIPN7android2spINS_8hardware4wifi4V1_010IWifiIfaceEEE",
   "name" : "android::sp<android::hardware::wifi::V1_0::IWifiIface> *",
   "referenced_type" : "_ZTIN7android2spINS_8hardware4wifi4V1_010IWifiIfaceEEE",
   "self_type" : "_ZTIPN7android2spINS_8hardware4wifi4V1_010IWifiIfaceEEE",
   "size" : 8,
   "source_file" : "/system/core/libutils/include/utils/StrongPointer.h"
  },
  {
   "alignment" : 8,
   "linker_set_key" : "_ZTIPN7android2spINS_8hardware4wifi4V1_012IWifiApIfaceEEE",
   "name" : "android::sp<android::hardware::wifi::V1_0::IWifiApIface> *",
   "referenced_type" : "_ZTIN7android2spINS_8hardware4wifi4V1_012IWifiApIfaceEEE",
   "self_type" : "_ZTIPN7android2spINS_8hardware4wifi4V1_012IWifiApIfaceEEE",
   "size" : 8,
   "source_file" : "/system/core/libutils/include/utils/StrongPointer.h"
  },
  {
   "alignment" : 8,
   "linker_set_key" : "_ZTIPN7android2spINS_8hardware4wifi4V1_013IWifiNanIfaceEEE",
   "name" : "android::sp<android::hardware::wifi::V1_0::IWifiNanIface> *",
   "referenced_type" : "_ZTIN7android2spINS_8hardware4wifi4V1_013IWifiNanIfaceEEE",
   "self_type" : "_ZTIPN7android2spINS_8hardware4wifi4V1_013IWifiNanIfaceEEE",
   "size" : 8,
   "source_file" : "/system/core/libutils/include/utils/StrongPointer.h"
  },
  {
   "alignment" : 8,
   "linker_set_key" : "_ZTIPN7android2spINS_8hardware4wifi4V1_013IWifiP2pIfaceEEE",
   "name" : "android::sp<android::hardware::wifi::V1_0::IWifiP2pIface> *",
   "referenced_type" : "_ZTIN7android2spINS_8hardware4wifi4V1_013IWifiP2pIfaceEEE",
   "self_type" : "_ZTIPN7android2spINS_8hardware4wifi4V1_013IWifiP2pIfaceEEE",
   "size" : 8,
   "source_file" : "/system/core/libutils/include/utils/StrongPointer.h"
  },
  {
   "alignment" : 8,
   "linker_set_key" : "_ZTIPN7android2spINS_8hardware4wifi4V1_013IWifiStaIfaceEEE",
   "name" : "android::sp<android::hardware::wifi::V1_0::IWifiStaIface> *",
   "referenced_type" : "_ZTIN7android2spINS_8hardware4wifi4V1_013IWifiStaIfaceEEE",
   "self_type" : "_ZTIPN7android2spINS_8hardware4wifi4V1_013IWifiStaIfaceEEE",
   "size" : 8,
   "source_file" : "/system/core/libutils/include/utils/StrongPointer.h"
  },
  {
   "alignment" : 8,
   "linker_set_key" : "_ZTIPN7android2spINS_8hardware4wifi4V1_018IWifiEventCallbackEEE",
   "name" : "android::sp<android::hardware::wifi::V1_0::IWifiEventCallback> *",
   "referenced_type" : "_ZTIN7android2spINS_8hardware4wifi4V1_018IWifiEventCallbackEEE",
   "self_type" : "_ZTIPN7android2spINS_8hardware4wifi4V1_018IWifiEventCallbackEEE",
   "size" : 8,
   "source_file" : "/system/core/libutils/include/utils/StrongPointer.h"
  },
  {
   "alignment" : 8,
   "linker_set_key" : "_ZTIPN7android2spINS_8hardware4wifi4V1_018IWifiRttControllerEEE",
   "name" : "android::sp<android::hardware::wifi::V1_0::IWifiRttController> *",
   "referenced_type" : "_ZTIN7android2spINS_8hardware4wifi4V1_018IWifiRttControllerEEE",
   "self_type" : "_ZTIPN7android2spINS_8hardware4wifi4V1_018IWifiRttControllerEEE",
   "size" : 8,
   "source_file" : "/system/core/libutils/include/utils/StrongPointer.h"
  },
  {
   "alignment" : 8,
   "linker_set_key" : "_ZTIPN7android2spINS_8hardware4wifi4V1_022IWifiChipEventCallbackEEE",
   "name" : "android::sp<android::hardware::wifi::V1_0::IWifiChipEventCallback> *",
   "referenced_type" : "_ZTIN7android2spINS_8hardware4wifi4V1_022IWifiChipEventCallbackEEE",
   "self_type" : "_ZTIPN7android2spINS_8hardware4wifi4V1_022IWifiChipEventCallbackEEE",
   "size" : 8,
   "source_file" : "/system/core/libutils/include/utils/StrongPointer.h"
  },
  {
   "alignment" : 8,
   "linker_set_key" : "_ZTIPN7android2spINS_8hardware4wifi4V1_026IWifiNanIfaceEventCallbackEEE",
   "name" : "android::sp<android::hardware::wifi::V1_0::IWifiNanIfaceEventCallback> *",
   "referenced_type" : "_ZTIN7android2spINS_8hardware4wifi4V1_026IWifiNanIfaceEventCallbackEEE",
   "self_type" : "_ZTIPN7android2spINS_8hardware4wifi4V1_026IWifiNanIfaceEventCallbackEEE",
   "size" : 8,
   "source_file" : "/system/core/libutils/include/utils/StrongPointer.h"
  },
  {
   "alignment" : 8,
   "linker_set_key" : "_ZTIPN7android2spINS_8hardware4wifi4V1_026IWifiStaIfaceEventCallbackEEE",
   "name" : "android::sp<android::hardware::wifi::V1_0::IWifiStaIfaceEventCallback> *",
   "referenced_type" : "_ZTIN7android2spINS_8hardware4wifi4V1_026IWifiStaIfaceEventCallbackEEE",
   "self_type" : "_ZTIPN7android2spINS_8hardware4wifi4V1_026IWifiStaIfaceEventCallbackEEE",
   "size" : 8,
   "source_file" : "/system/core/libutils/include/utils/StrongPointer.h"
  },
  {
   "alignment" : 8,
   "linker_set_key" : "_ZTIPN7android2spINS_8hardware4wifi4V1_031IWifiRttControllerEventCallbackEEE",
   "name" : "android::sp<android::hardware::wifi::V1_0::IWifiRttControllerEventCallback> *",
   "referenced_type" : "_ZTIN7android2spINS_8hardware4wifi4V1_031IWifiRttControllerEventCallbackEEE",
   "self_type" : "_ZTIPN7android2spINS_8hardware4wifi4V1_031IWifiRttControllerEventCallbackEEE",
   "size" : 8,
   "source_file" : "/system/core/libutils/include/utils/StrongPointer.h"
  },
  {
   "alignment" : 8,
   "linker_set_key" : "_ZTIPN7android2spINS_8hardware4wifi4V1_05IWifiEEE",
   "name" : "android::sp<android::hardware::wifi::V1_0::IWifi> *",
   "referenced_type" : "_ZTIN7android2spINS_8hardware4wifi4V1_05IWifiEEE",
   "self_type" : "_ZTIPN7android2spINS_8hardware4wifi4V1_05IWifiEEE",
   "size" : 8,
   "source_file" : "/system/core/libutils/include/utils/StrongPointer.h"
  },
  {
   "alignment" : 8,
   "linker_set_key" : "_ZTIPN7android2spINS_8hardware4wifi4V1_09IWifiChipEEE",
   "name" : "android::sp<android::hardware::wifi::V1_0::IWifiChip> *",
   "referenced_type" : "_ZTIN7android2spINS_8hardware4wifi4V1_09IWifiChipEEE",
   "self_type" : "_ZTIPN7android2spINS_8hardware4wifi4V1_09IWifiChipEEE",
   "size" : 8,
   "source_file" : "/system/core/libutils/include/utils/StrongPointer.h"
  },
  {
   "alignment" : 8,
   "linker_set_key" : "_ZTIPN7android2spINS_8hardware4wifi4V1_15IWifiEEE",
   "name" : "android::sp<android::hardware::wifi::V1_1::IWifi> *",
   "referenced_type" : "_ZTIN7android2spINS_8hardware4wifi4V1_15IWifiEEE",
   "self_type" : "_ZTIPN7android2spINS_8hardware4wifi4V1_15IWifiEEE",
   "size" : 8,
   "source_file" : "/system/core/libutils/include/utils/StrongPointer.h"
  },
  {
   "alignment" : 8,
   "linker_set_key" : "_ZTIPN7android2spINS_8hardware4wifi4V1_19IWifiChipEEE",
   "name" : "android::sp<android::hardware::wifi::V1_1::IWifiChip> *",
   "referenced_type" : "_ZTIN7android2spINS_8hardware4wifi4V1_19IWifiChipEEE",
   "self_type" : "_ZTIPN7android2spINS_8hardware4wifi4V1_19IWifiChipEEE",
   "size" : 8,
   "source_file" : "/system/core/libutils/include/utils/StrongPointer.h"
  },
  {
   "alignment" : 8,
   "linker_set_key" : "_ZTIPN7android2spINS_8hardware7IBinder14DeathRecipientEEE",
   "name" : "android::sp<android::hardware::IBinder::DeathRecipient> *",
   "referenced_type" : "_ZTIN7android2spINS_8hardware7IBinder14DeathRecipientEEE",
   "self_type" : "_ZTIPN7android2spINS_8hardware7IBinder14DeathRecipientEEE",
   "size" : 8,
   "source_file" : "/system/core/libutils/include/utils/StrongPointer.h"
  },
  {
   "alignment" : 8,
   "linker_set_key" : "_ZTIPN7android2spINS_8hardware7IBinderEEE",
   "name" : "android::sp<android::hardware::IBinder> *",
   "referenced_type" : "_ZTIN7android2spINS_8hardware7IBinderEEE",
   "self_type" : "_ZTIPN7android2spINS_8hardware7IBinderEEE",
   "size" : 8,
   "source_file" : "/system/core/libutils/include/utils/StrongPointer.h"
  },
  {
   "alignment" : 8,
   "linker_set_key" : "_ZTIPN7android2wpINS_8hardware20hidl_death_recipientEEE",
   "name" : "android::wp<android::hardware::hidl_death_recipient> *",
   "referenced_type" : "_ZTIN7android2wpINS_8hardware20hidl_death_recipientEEE",
   "self_type" : "_ZTIPN7android2wpINS_8hardware20hidl_death_recipientEEE",
   "size" : 8,
   "source_file" : "/system/core/libutils/include/utils/RefBase.h"
  },
  {
   "alignment" : 8,
   "linker_set_key" : "_ZTIPN7android2wpINS_8hardware7IBinder14DeathRecipientEEE",
   "name" : "android::wp<android::hardware::IBinder::DeathRecipient> *",
   "referenced_type" : "_ZTIN7android2wpINS_8hardware7IBinder14DeathRecipientEEE",
   "self_type" : "_ZTIPN7android2wpINS_8hardware7IBinder14DeathRecipientEEE",
   "size" : 8,
   "source_file" : "/system/core/libutils/include/utils/RefBase.h"
  },
  {
   "alignment" : 8,
   "linker_set_key" : "_ZTIPN7android2wpINS_8hardware9BHwBinderEEE",
   "name" : "android::wp<android::hardware::BHwBinder> *",
   "referenced_type" : "_ZTIN7android2wpINS_8hardware9BHwBinderEEE",
   "self_type" : "_ZTIPN7android2wpINS_8hardware9BHwBinderEEE",
   "size" : 8,
   "source_file" : "/system/core/libutils/include/utils/RefBase.h"
  },
  {
   "alignment" : 8,
   "linker_set_key" : "_ZTIPN7android4hidl4base4V1_05IBaseE",
   "name" : "android::hidl::base::V1_0::IBase *",
   "referenced_type" : "_ZTIN7android4hidl4base4V1_05IBaseE",
   "self_type" : "_ZTIPN7android4hidl4base4V1_05IBaseE",
   "size" : 8,
   "source_file" : "/system/core/libutils/include/utils/RefBase.h"
  },
  {
   "alignment" : 8,
   "linker_set_key" : "_ZTIPN7android4hidl4base4V1_08BnHwBaseE",
   "name" : "android::hidl::base::V1_0::BnHwBase *",
   "referenced_type" : "_ZTIN7android4hidl4base4V1_08BnHwBaseE",
   "self_type" : "_ZTIPN7android4hidl4base4V1_08BnHwBaseE",
   "size" : 8,
   "source_file" : "/out/soong/.intermediates/system/libhidl/transport/base/1.0/android.hidl.base@1.0_genc++_headers/gen/android/hidl/base/1.0/BnHwBase.h"
  },
  {
   "alignment" : 8,
   "linker_set_key" : "_ZTIPN7android4hidl7manager4V1_015IServiceManagerE",
   "name" : "android::hidl::manager::V1_0::IServiceManager *",
   "referenced_type" : "_ZTIN7android4hidl7manager4V1_015IServiceManagerE",
   "self_type" : "_ZTIPN7android4hidl7manager4V1_015IServiceManagerE",
   "size" : 8,
   "source_file" : "/system/core/libutils/include/utils/StrongPointer.h"
  },
  {
   "alignment" : 8,
   "linker_set_key" : "_ZTIPN7android4hidl7manager4V1_020IServiceNotificationE",
   "name" : "android::hidl::manager::V1_0::IServiceNotification *",
   "referenced_type" : "_ZTIN7android4hidl7manager4V1_020IServiceNotificationE",
   "self_type" : "_ZTIPN7android4hidl7manager4V1_020IServiceNotificationE",
   "size" : 8,
   "source_file" : "/system/core/libutils/include/utils/StrongPointer.h"
  },
  {
   "alignment" : 8,
   "linker_set_key" : "_ZTIPN7android5Mutex8AutolockE",
   "name" : "android::Mutex::Autolock *",
   "referenced_type" : "_ZTIN7android5Mutex8AutolockE",
   "self_type" : "_ZTIPN7android5Mutex8AutolockE",
   "size" : 8,
   "source_file" : "/system/core/libutils/include/utils/Mutex.h"
  },
  {
   "alignment" : 8,
   "linker_set_key" : "_ZTIPN7android5MutexE",
   "name" : "android::Mutex *",
   "referenced_type" : "_ZTIN7android5MutexE",
   "self_type" : "_ZTIPN7android5MutexE",
   "size" : 8,
   "source_file" : "/system/core/libutils/include/utils/Mutex.h"
  },
  {
   "alignment" : 8,
   "linker_set_key" : "_ZTIPN7android6RWLock9AutoRLockE",
   "name" : "android::RWLock::AutoRLock *",
   "referenced_type" : "_ZTIN7android6RWLock9AutoRLockE",
   "self_type" : "_ZTIPN7android6RWLock9AutoRLockE",
   "size" : 8,
   "source_file" : "/system/core/libutils/include/utils/RWLock.h"
  },
  {
   "alignment" : 8,
   "linker_set_key" : "_ZTIPN7android6RWLock9AutoWLockE",
   "name" : "android::RWLock::AutoWLock *",
   "referenced_type" : "_ZTIN7android6RWLock9AutoWLockE",
   "self_type" : "_ZTIPN7android6RWLock9AutoWLockE",
   "size" : 8,
   "source_file" : "/system/core/libutils/include/utils/RWLock.h"
  },
  {
   "alignment" : 8,
   "linker_set_key" : "_ZTIPN7android6RWLockE",
   "name" : "android::RWLock *",
   "referenced_type" : "_ZTIN7android6RWLockE",
   "self_type" : "_ZTIPN7android6RWLockE",
   "size" : 8,
   "source_file" : "/system/core/libutils/include/utils/RWLock.h"
  },
  {
   "alignment" : 8,
   "linker_set_key" : "_ZTIPN7android6ThreadE",
   "name" : "android::Thread *",
   "referenced_type" : "_ZTIN7android6ThreadE",
   "self_type" : "_ZTIPN7android6ThreadE",
   "size" : 8,
   "source_file" : "/system/core/libutils/include/utils/StrongPointer.h"
  },
  {
   "alignment" : 8,
   "linker_set_key" : "_ZTIPN7android7RefBase12weakref_implE",
   "name" : "android::RefBase::weakref_impl *",
   "referenced_type" : "_ZTIN7android7RefBase12weakref_implE",
   "self_type" : "_ZTIPN7android7RefBase12weakref_implE",
   "size" : 8,
   "source_file" : "/system/core/libutils/include/utils/RefBase.h"
  },
  {
   "alignment" : 8,
   "linker_set_key" : "_ZTIPN7android7RefBase12weakref_typeE",
   "name" : "android::RefBase::weakref_type *",
   "referenced_type" : "_ZTIN7android7RefBase12weakref_typeE",
   "self_type" : "_ZTIPN7android7RefBase12weakref_typeE",
   "size" : 8,
   "source_file" : "/system/core/libutils/include/utils/RefBase.h"
  },
  {
   "alignment" : 8,
   "linker_set_key" : "_ZTIPN7android7RefBaseE",
   "name" : "android::RefBase *",
   "referenced_type" : "_ZTIN7android7RefBaseE",
   "self_type" : "_ZTIPN7android7RefBaseE",
   "size" : 8,
   "source_file" : "/system/core/libutils/include/utils/RefBase.h"
  },
  {
   "alignment" : 8,
   "linker_set_key" : "_ZTIPN7android7String8E",
   "name" : "android::String8 *",
   "referenced_type" : "_ZTIN7android7String8E",
   "self_type" : "_ZTIPN7android7String8E",
   "size" : 8,
   "source_file" : "/system/core/libutils/include/utils/String8.h"
  },
  {
   "alignment" : 8,
   "linker_set_key" : "_ZTIPN7android8String16E",
   "name" : "android::String16 *",
   "referenced_type" : "_ZTIN7android8String16E",
   "self_type" : "_ZTIPN7android8String16E",
   "size" : 8,
   "source_file" : "/system/core/libutils/include/utils/String16.h"
  },
  {
   "alignment" : 8,
   "linker_set_key" : "_ZTIPN7android8hardware10IInterfaceE",
   "name" : "android::hardware::IInterface *",
   "referenced_type" : "_ZTIN7android8hardware10IInterfaceE",
   "self_type" : "_ZTIPN7android8hardware10IInterfaceE",
   "size" : 8,
   "source_file" : "/system/core/libutils/include/utils/StrongPointer.h"
  },
  {
   "alignment" : 8,
   "linker_set_key" : "_ZTIPN7android8hardware10hidl_arrayINS0_4wifi4V1_021NanBandSpecificConfigELm2EJEEE",
   "name" : "android::hardware::hidl_array<android::hardware::wifi::V1_0::NanBandSpecificConfig, 2> *",
   "referenced_type" : "_ZTIN7android8hardware10hidl_arrayINS0_4wifi4V1_021NanBandSpecificConfigELm2EJEEE",
   "self_type" : "_ZTIPN7android8hardware10hidl_arrayINS0_4wifi4V1_021NanBandSpecificConfigELm2EJEEE",
   "size" : 8,
   "source_file" : "/system/libhidl/base/include/hidl/HidlSupport.h"
  },
  {
   "alignment" : 8,
   "linker_set_key" : "_ZTIPN7android8hardware10hidl_arrayIaLm2EJEEE",
   "name" : "android::hardware::hidl_array<signed char, 2> *",
   "referenced_type" : "_ZTIN7android8hardware10hidl_arrayIaLm2EJEEE",
   "self_type" : "_ZTIPN7android8hardware10hidl_arrayIaLm2EJEEE",
   "size" : 8,
   "source_file" : "/system/libhidl/base/include/hidl/HidlSupport.h"
  },
  {
   "alignment" : 8,
   "linker_set_key" : "_ZTIPN7android8hardware10hidl_arrayIbLm2EJEEE",
   "name" : "android::hardware::hidl_array<bool, 2> *",
   "referenced_type" : "_ZTIN7android8hardware10hidl_arrayIbLm2EJEEE",
   "self_type" : "_ZTIPN7android8hardware10hidl_arrayIbLm2EJEEE",
   "size" : 8,
   "source_file" : "/system/libhidl/base/include/hidl/HidlSupport.h"
  },
  {
   "alignment" : 8,
   "linker_set_key" : "_ZTIPN7android8hardware10hidl_arrayIhLm32EJEEE",
   "name" : "android::hardware::hidl_array<unsigned char, 32> *",
   "referenced_type" : "_ZTIN7android8hardware10hidl_arrayIhLm32EJEEE",
   "self_type" : "_ZTIPN7android8hardware10hidl_arrayIhLm32EJEEE",
   "size" : 8,
   "source_file" : "/system/libhidl/base/include/hidl/HidlInternal.h"
  },
  {
   "alignment" : 8,
   "linker_set_key" : "_ZTIPN7android8hardware10hidl_arrayIhLm6EJEEE",
   "name" : "android::hardware::hidl_array<unsigned char, 6> *",
   "referenced_type" : "_ZTIN7android8hardware10hidl_arrayIhLm6EJEEE",
   "self_type" : "_ZTIPN7android8hardware10hidl_arrayIhLm6EJEEE",
   "size" : 8,
   "source_file" : "/system/libhidl/base/include/hidl/HidlInternal.h"
  },
  {
   "alignment" : 8,
   "linker_set_key" : "_ZTIPN7android8hardware10hidl_arrayIjLm2EJEEE",
   "name" : "android::hardware::hidl_array<unsigned int, 2> *",
   "referenced_type" : "_ZTIN7android8hardware10hidl_arrayIjLm2EJEEE",
   "self_type" : "_ZTIPN7android8hardware10hidl_arrayIjLm2EJEEE",
   "size" : 8,
   "source_file" : "/system/libhidl/base/include/hidl/HidlSupport.h"
  },
  {
   "alignment" : 8,
   "linker_set_key" : "_ZTIPN7android8hardware11BpInterfaceINS0_4wifi4V1_15IWifiEEE",
   "name" : "android::hardware::BpInterface<android::hardware::wifi::V1_1::IWifi> *",
   "referenced_type" : "_ZTIN7android8hardware11BpInterfaceINS0_4wifi4V1_15IWifiEEE",
   "self_type" : "_ZTIPN7android8hardware11BpInterfaceINS0_4wifi4V1_15IWifiEEE",
   "size" : 8,
   "source_file" : "/system/libhwbinder/include/hwbinder/IInterface.h"
  },
  {
   "alignment" : 8,
   "linker_set_key" : "_ZTIPN7android8hardware11BpInterfaceINS0_4wifi4V1_19IWifiChipEEE",
   "name" : "android::hardware::BpInterface<android::hardware::wifi::V1_1::IWifiChip> *",
   "referenced_type" : "_ZTIN7android8hardware11BpInterfaceINS0_4wifi4V1_19IWifiChipEEE",
   "self_type" : "_ZTIPN7android8hardware11BpInterfaceINS0_4wifi4V1_19IWifiChipEEE",
   "size" : 8,
   "source_file" : "/system/libhwbinder/include/hwbinder/IInterface.h"
  },
  {
   "alignment" : 8,
   "linker_set_key" : "_ZTIPN7android8hardware11hidl_memoryE",
   "name" : "android::hardware::hidl_memory *",
   "referenced_type" : "_ZTIN7android8hardware11hidl_memoryE",
   "self_type" : "_ZTIPN7android8hardware11hidl_memoryE",
   "size" : 8,
   "source_file" : "/system/libhidl/base/include/hidl/HidlSupport.h"
  },
  {
   "alignment" : 8,
   "linker_set_key" : "_ZTIPN7android8hardware11hidl_stringE",
   "name" : "android::hardware::hidl_string *",
   "referenced_type" : "_ZTIN7android8hardware11hidl_stringE",
   "self_type" : "_ZTIPN7android8hardware11hidl_stringE",
   "size" : 8,
   "source_file" : "/system/libhidl/base/include/hidl/HidlInternal.h"
  },
  {
   "alignment" : 8,
   "linker_set_key" : "_ZTIPN7android8hardware12ProcessStateE",
   "name" : "android::hardware::ProcessState *",
   "referenced_type" : "_ZTIN7android8hardware12ProcessStateE",
   "self_type" : "_ZTIPN7android8hardware12ProcessStateE",
   "size" : 8,
   "source_file" : "/system/core/libutils/include/utils/StrongPointer.h"
  },
  {
   "alignment" : 8,
   "linker_set_key" : "_ZTIPN7android8hardware12hidl_versionE",
   "name" : "android::hardware::hidl_version *",
   "referenced_type" : "_ZTIN7android8hardware12hidl_versionE",
   "self_type" : "_ZTIPN7android8hardware12hidl_versionE",
   "size" : 8,
   "source_file" : "/system/libhidl/base/include/hidl/HidlSupport.h"
  },
  {
   "alignment" : 8,
   "linker_set_key" : "_ZTIPN7android8hardware13ConcurrentMapINSt3__112basic_stringIcNS2_11char_traitsIcEENS2_9allocatorIcEEEENS2_8functionIFNS_2spINS0_7IBinderEEEPvEEEEE",
   "name" : "android::hardware::ConcurrentMap<std::basic_string<char, std::char_traits<char>, std::allocator<char> >, std::function<sp<IBinder> (void *)> > *",
   "referenced_type" : "_ZTIN7android8hardware13ConcurrentMapINSt3__112basic_stringIcNS2_11char_traitsIcEENS2_9allocatorIcEEEENS2_8functionIFNS_2spINS0_7IBinderEEEPvEEEEE",
   "self_type" : "_ZTIPN7android8hardware13ConcurrentMapINSt3__112basic_stringIcNS2_11char_traitsIcEENS2_9allocatorIcEEEENS2_8functionIFNS_2spINS0_7IBinderEEEPvEEEEE",
   "size" : 8,
   "source_file" : "/system/libhidl/transport/include/hidl/ConcurrentMap.h"
  },
  {
   "alignment" : 8,
   "linker_set_key" : "_ZTIPN7android8hardware13ConcurrentMapINSt3__112basic_stringIcNS2_11char_traitsIcEENS2_9allocatorIcEEEENS2_8functionIFNS_2spINS_4hidl4base4V1_05IBaseEEEPvEEEEE",
   "name" : "android::hardware::ConcurrentMap<std::basic_string<char, std::char_traits<char>, std::allocator<char> >, std::function<sp<IBase> (void *)> > *",
   "referenced_type" : "_ZTIN7android8hardware13ConcurrentMapINSt3__112basic_stringIcNS2_11char_traitsIcEENS2_9allocatorIcEEEENS2_8functionIFNS_2spINS_4hidl4base4V1_05IBaseEEEPvEEEEE",
   "self_type" : "_ZTIPN7android8hardware13ConcurrentMapINSt3__112basic_stringIcNS2_11char_traitsIcEENS2_9allocatorIcEEEENS2_8functionIFNS_2spINS_4hidl4base4V1_05IBaseEEEPvEEEEE",
   "size" : 8,
   "source_file" : "/system/libhidl/transport/include/hidl/ConcurrentMap.h"
  },
  {
   "alignment" : 8,
   "linker_set_key" : "_ZTIPN7android8hardware13ConcurrentMapIPKNS_4hidl4base4V1_05IBaseENS_2wpINS0_9BHwBinderEEEEE",
   "name" : "android::hardware::ConcurrentMap<const android::hidl::base::V1_0::IBase *, android::wp<android::hardware::BHwBinder> > *",
   "referenced_type" : "_ZTIN7android8hardware13ConcurrentMapIPKNS_4hidl4base4V1_05IBaseENS_2wpINS0_9BHwBinderEEEEE",
   "self_type" : "_ZTIPN7android8hardware13ConcurrentMapIPKNS_4hidl4base4V1_05IBaseENS_2wpINS0_9BHwBinderEEEEE",
   "size" : 8,
   "source_file" : "/system/libhidl/transport/include/hidl/ConcurrentMap.h"
  },
  {
   "alignment" : 8,
   "linker_set_key" : "_ZTIPN7android8hardware17GrantorDescriptorE",
   "name" : "android::hardware::GrantorDescriptor *",
   "referenced_type" : "_ZTIN7android8hardware17GrantorDescriptorE",
   "self_type" : "_ZTIPN7android8hardware17GrantorDescriptorE",
   "size" : 8,
   "source_file" : "/system/libhidl/base/include/hidl/HidlInternal.h"
  },
  {
   "alignment" : 8,
   "linker_set_key" : "_ZTIPN7android8hardware20hidl_death_recipientE",
   "name" : "android::hardware::hidl_death_recipient *",
   "referenced_type" : "_ZTIN7android8hardware20hidl_death_recipientE",
   "self_type" : "_ZTIPN7android8hardware20hidl_death_recipientE",
   "size" : 8,
   "source_file" : "/system/core/libutils/include/utils/RefBase.h"
  },
  {
   "alignment" : 8,
   "linker_set_key" : "_ZTIPN7android8hardware27hidl_binder_death_recipientE",
   "name" : "android::hardware::hidl_binder_death_recipient *",
   "referenced_type" : "_ZTIN7android8hardware27hidl_binder_death_recipientE",
   "self_type" : "_ZTIPN7android8hardware27hidl_binder_death_recipientE",
   "size" : 8,
   "source_file" : "/system/core/libutils/include/utils/StrongPointer.h"
  },
  {
   "alignment" : 8,
   "linker_set_key" : "_ZTIPN7android8hardware4wifi4V1_010IWifiIfaceE",
   "name" : "android::hardware::wifi::V1_0::IWifiIface *",
   "referenced_type" : "_ZTIN7android8hardware4wifi4V1_010IWifiIfaceE",
   "self_type" : "_ZTIPN7android8hardware4wifi4V1_010IWifiIfaceE",
   "size" : 8,
   "source_file" : "/system/core/libutils/include/utils/StrongPointer.h"
  },
  {
   "alignment" : 8,
   "linker_set_key" : "_ZTIPN7android8hardware4wifi4V1_012BnHwWifiChipE",
   "name" : "android::hardware::wifi::V1_0::BnHwWifiChip *",
   "referenced_type" : "_ZTIN7android8hardware4wifi4V1_012BnHwWifiChipE",
   "self_type" : "_ZTIPN7android8hardware4wifi4V1_012BnHwWifiChipE",
   "size" : 8,
   "source_file" : "/out/soong/.intermediates/hardware/interfaces/wifi/1.0/android.hardware.wifi@1.0_genc++_headers/gen/android/hardware/wifi/1.0/BnHwWifiChip.h"
  },
  {
   "alignment" : 8,
   "linker_set_key" : "_ZTIPN7android8hardware4wifi4V1_012IWifiApIfaceE",
   "name" : "android::hardware::wifi::V1_0::IWifiApIface *",
   "referenced_type" : "_ZTIN7android8hardware4wifi4V1_012IWifiApIfaceE",
   "self_type" : "_ZTIPN7android8hardware4wifi4V1_012IWifiApIfaceE",
   "size" : 8,
   "source_file" : "/system/core/libutils/include/utils/StrongPointer.h"
  },
  {
   "alignment" : 8,
   "linker_set_key" : "_ZTIPN7android8hardware4wifi4V1_013BnHwWifiIfaceE",
   "name" : "android::hardware::wifi::V1_0::BnHwWifiIface *",
   "referenced_type" : "_ZTIN7android8hardware4wifi4V1_013BnHwWifiIfaceE",
   "self_type" : "_ZTIPN7android8hardware4wifi4V1_013BnHwWifiIfaceE",
   "size" : 8,
   "source_file" : "/out/soong/.intermediates/hardware/interfaces/wifi/1.0/android.hardware.wifi@1.0_genc++_headers/gen/android/hardware/wifi/1.0/BnHwWifiIface.h"
  },
  {
   "alignment" : 8,
   "linker_set_key" : "_ZTIPN7android8hardware4wifi4V1_013IWifiNanIfaceE",
   "name" : "android::hardware::wifi::V1_0::IWifiNanIface *",
   "referenced_type" : "_ZTIN7android8hardware4wifi4V1_013IWifiNanIfaceE",
   "self_type" : "_ZTIPN7android8hardware4wifi4V1_013IWifiNanIfaceE",
   "size" : 8,
   "source_file" : "/system/core/libutils/include/utils/StrongPointer.h"
  },
  {
   "alignment" : 8,
   "linker_set_key" : "_ZTIPN7android8hardware4wifi4V1_013IWifiP2pIfaceE",
   "name" : "android::hardware::wifi::V1_0::IWifiP2pIface *",
   "referenced_type" : "_ZTIN7android8hardware4wifi4V1_013IWifiP2pIfaceE",
   "self_type" : "_ZTIPN7android8hardware4wifi4V1_013IWifiP2pIfaceE",
   "size" : 8,
   "source_file" : "/system/core/libutils/include/utils/StrongPointer.h"
  },
  {
   "alignment" : 8,
   "linker_set_key" : "_ZTIPN7android8hardware4wifi4V1_013IWifiStaIfaceE",
   "name" : "android::hardware::wifi::V1_0::IWifiStaIface *",
   "referenced_type" : "_ZTIN7android8hardware4wifi4V1_013IWifiStaIfaceE",
   "self_type" : "_ZTIPN7android8hardware4wifi4V1_013IWifiStaIfaceE",
   "size" : 8,
   "source_file" : "/system/core/libutils/include/utils/StrongPointer.h"
  },
  {
   "alignment" : 8,
   "linker_set_key" : "_ZTIPN7android8hardware4wifi4V1_013StaScanResultE",
   "name" : "android::hardware::wifi::V1_0::StaScanResult *",
   "referenced_type" : "_ZTIN7android8hardware4wifi4V1_013StaScanResultE",
   "self_type" : "_ZTIPN7android8hardware4wifi4V1_013StaScanResultE",
   "size" : 8,
   "source_file" : "/system/libhidl/base/include/hidl/HidlInternal.h"
  },
  {
   "alignment" : 8,
   "linker_set_key" : "_ZTIPN7android8hardware4wifi4V1_015BnHwWifiApIfaceE",
   "name" : "android::hardware::wifi::V1_0::BnHwWifiApIface *",
   "referenced_type" : "_ZTIN7android8hardware4wifi4V1_015BnHwWifiApIfaceE",
   "self_type" : "_ZTIPN7android8hardware4wifi4V1_015BnHwWifiApIfaceE",
   "size" : 8,
   "source_file" : "/out/soong/.intermediates/hardware/interfaces/wifi/1.0/android.hardware.wifi@1.0_genc++_headers/gen/android/hardware/wifi/1.0/BnHwWifiApIface.h"
  },
  {
   "alignment" : 8,
   "linker_set_key" : "_ZTIPN7android8hardware4wifi4V1_016BnHwWifiNanIfaceE",
   "name" : "android::hardware::wifi::V1_0::BnHwWifiNanIface *",
   "referenced_type" : "_ZTIN7android8hardware4wifi4V1_016BnHwWifiNanIfaceE",
   "self_type" : "_ZTIPN7android8hardware4wifi4V1_016BnHwWifiNanIfaceE",
   "size" : 8,
   "source_file" : "/out/soong/.intermediates/hardware/interfaces/wifi/1.0/android.hardware.wifi@1.0_genc++_headers/gen/android/hardware/wifi/1.0/BnHwWifiNanIface.h"
  },
  {
   "alignment" : 8,
   "linker_set_key" : "_ZTIPN7android8hardware4wifi4V1_016BnHwWifiP2pIfaceE",
   "name" : "android::hardware::wifi::V1_0::BnHwWifiP2pIface *",
   "referenced_type" : "_ZTIN7android8hardware4wifi4V1_016BnHwWifiP2pIfaceE",
   "self_type" : "_ZTIPN7android8hardware4wifi4V1_016BnHwWifiP2pIfaceE",
   "size" : 8,
   "source_file" : "/out/soong/.intermediates/hardware/interfaces/wifi/1.0/android.hardware.wifi@1.0_genc++_headers/gen/android/hardware/wifi/1.0/BnHwWifiP2pIface.h"
  },
  {
   "alignment" : 8,
   "linker_set_key" : "_ZTIPN7android8hardware4wifi4V1_016BnHwWifiStaIfaceE",
   "name" : "android::hardware::wifi::V1_0::BnHwWifiStaIface *",
   "referenced_type" : "_ZTIN7android8hardware4wifi4V1_016BnHwWifiStaIfaceE",
   "self_type" : "_ZTIPN7android8hardware4wifi4V1_016BnHwWifiStaIfaceE",
   "size" : 8,
   "source_file" : "/out/soong/.intermediates/hardware/interfaces/wifi/1.0/android.hardware.wifi@1.0_genc++_headers/gen/android/hardware/wifi/1.0/BnHwWifiStaIface.h"
  },
  {
   "alignment" : 8,
   "linker_set_key" : "_ZTIPN7android8hardware4wifi4V1_018IWifiEventCallbackE",
   "name" : "android::hardware::wifi::V1_0::IWifiEventCallback *",
   "referenced_type" : "_ZTIN7android8hardware4wifi4V1_018IWifiEventCallbackE",
   "self_type" : "_ZTIPN7android8hardware4wifi4V1_018IWifiEventCallbackE",
   "size" : 8,
   "source_file" : "/system/core/libutils/include/utils/StrongPointer.h"
  },
  {
   "alignment" : 8,
   "linker_set_key" : "_ZTIPN7android8hardware4wifi4V1_018IWifiRttControllerE",
   "name" : "android::hardware::wifi::V1_0::IWifiRttController *",
   "referenced_type" : "_ZTIN7android8hardware4wifi4V1_018IWifiRttControllerE",
   "self_type" : "_ZTIPN7android8hardware4wifi4V1_018IWifiRttControllerE",
   "size" : 8,
   "source_file" : "/system/core/libutils/include/utils/StrongPointer.h"
  },
  {
   "alignment" : 8,
   "linker_set_key" : "_ZTIPN7android8hardware4wifi4V1_021BnHwWifiEventCallbackE",
   "name" : "android::hardware::wifi::V1_0::BnHwWifiEventCallback *",
   "referenced_type" : "_ZTIN7android8hardware4wifi4V1_021BnHwWifiEventCallbackE",
   "self_type" : "_ZTIPN7android8hardware4wifi4V1_021BnHwWifiEventCallbackE",
   "size" : 8,
   "source_file" : "/out/soong/.intermediates/hardware/interfaces/wifi/1.0/android.hardware.wifi@1.0_genc++_headers/gen/android/hardware/wifi/1.0/BnHwWifiEventCallback.h"
  },
  {
   "alignment" : 8,
   "linker_set_key" : "_ZTIPN7android8hardware4wifi4V1_021BnHwWifiRttControllerE",
   "name" : "android::hardware::wifi::V1_0::BnHwWifiRttController *",
   "referenced_type" : "_ZTIN7android8hardware4wifi4V1_021BnHwWifiRttControllerE",
   "self_type" : "_ZTIPN7android8hardware4wifi4V1_021BnHwWifiRttControllerE",
   "size" : 8,
   "source_file" : "/out/soong/.intermediates/hardware/interfaces/wifi/1.0/android.hardware.wifi@1.0_genc++_headers/gen/android/hardware/wifi/1.0/BnHwWifiRttController.h"
  },
  {
   "alignment" : 8,
   "linker_set_key" : "_ZTIPN7android8hardware4wifi4V1_022IWifiChipEventCallbackE",
   "name" : "android::hardware::wifi::V1_0::IWifiChipEventCallback *",
   "referenced_type" : "_ZTIN7android8hardware4wifi4V1_022IWifiChipEventCallbackE",
   "self_type" : "_ZTIPN7android8hardware4wifi4V1_022IWifiChipEventCallbackE",
   "size" : 8,
   "source_file" : "/system/core/libutils/include/utils/StrongPointer.h"
  },
  {
   "alignment" : 8,
   "linker_set_key" : "_ZTIPN7android8hardware4wifi4V1_022StaLinkLayerRadioStatsE",
   "name" : "android::hardware::wifi::V1_0::StaLinkLayerRadioStats *",
   "referenced_type" : "_ZTIN7android8hardware4wifi4V1_022StaLinkLayerRadioStatsE",
   "self_type" : "_ZTIPN7android8hardware4wifi4V1_022StaLinkLayerRadioStatsE",
   "size" : 8,
   "source_file" : "/system/libhidl/base/include/hidl/HidlInternal.h"
  },
  {
   "alignment" : 8,
   "linker_set_key" : "_ZTIPN7android8hardware4wifi4V1_022WifiInformationElementE",
   "name" : "android::hardware::wifi::V1_0::WifiInformationElement *",
   "referenced_type" : "_ZTIN7android8hardware4wifi4V1_022WifiInformationElementE",
   "self_type" : "_ZTIPN7android8hardware4wifi4V1_022WifiInformationElementE",
   "size" : 8,
   "source_file" : "/system/libhidl/base/include/hidl/HidlInternal.h"
  },
  {
   "alignment" : 8,
   "linker_set_key" : "_ZTIPN7android8hardware4wifi4V1_025BnHwWifiChipEventCallbackE",
   "name" : "android::hardware::wifi::V1_0::BnHwWifiChipEventCallback *",
   "referenced_type" : "_ZTIN7android8hardware4wifi4V1_025BnHwWifiChipEventCallbackE",
   "self_type" : "_ZTIPN7android8hardware4wifi4V1_025BnHwWifiChipEventCallbackE",
   "size" : 8,
   "source_file" : "/out/soong/.intermediates/hardware/interfaces/wifi/1.0/android.hardware.wifi@1.0_genc++_headers/gen/android/hardware/wifi/1.0/BnHwWifiChipEventCallback.h"
  },
  {
   "alignment" : 8,
   "linker_set_key" : "_ZTIPN7android8hardware4wifi4V1_025WifiDebugRingBufferStatusE",
   "name" : "android::hardware::wifi::V1_0::WifiDebugRingBufferStatus *",
   "referenced_type" : "_ZTIN7android8hardware4wifi4V1_025WifiDebugRingBufferStatusE",
   "self_type" : "_ZTIPN7android8hardware4wifi4V1_025WifiDebugRingBufferStatusE",
   "size" : 8,
   "source_file" : "/system/libhidl/base/include/hidl/HidlInternal.h"
  },
  {
   "alignment" : 8,
   "linker_set_key" : "_ZTIPN7android8hardware4wifi4V1_026IWifiNanIfaceEventCallbackE",
   "name" : "android::hardware::wifi::V1_0::IWifiNanIfaceEventCallback *",
   "referenced_type" : "_ZTIN7android8hardware4wifi4V1_026IWifiNanIfaceEventCallbackE",
   "self_type" : "_ZTIPN7android8hardware4wifi4V1_026IWifiNanIfaceEventCallbackE",
   "size" : 8,
   "source_file" : "/system/core/libutils/include/utils/StrongPointer.h"
  },
  {
   "alignment" : 8,
   "linker_set_key" : "_ZTIPN7android8hardware4wifi4V1_026IWifiStaIfaceEventCallbackE",
   "name" : "android::hardware::wifi::V1_0::IWifiStaIfaceEventCallback *",
   "referenced_type" : "_ZTIN7android8hardware4wifi4V1_026IWifiStaIfaceEventCallbackE",
   "self_type" : "_ZTIPN7android8hardware4wifi4V1_026IWifiStaIfaceEventCallbackE",
   "size" : 8,
   "source_file" : "/system/core/libutils/include/utils/StrongPointer.h"
  },
  {
   "alignment" : 8,
   "linker_set_key" : "_ZTIPN7android8hardware4wifi4V1_029BnHwWifiNanIfaceEventCallbackE",
   "name" : "android::hardware::wifi::V1_0::BnHwWifiNanIfaceEventCallback *",
   "referenced_type" : "_ZTIN7android8hardware4wifi4V1_029BnHwWifiNanIfaceEventCallbackE",
   "self_type" : "_ZTIPN7android8hardware4wifi4V1_029BnHwWifiNanIfaceEventCallbackE",
   "size" : 8,
   "source_file" : "/out/soong/.intermediates/hardware/interfaces/wifi/1.0/android.hardware.wifi@1.0_genc++_headers/gen/android/hardware/wifi/1.0/BnHwWifiNanIfaceEventCallback.h"
  },
  {
   "alignment" : 8,
   "linker_set_key" : "_ZTIPN7android8hardware4wifi4V1_029BnHwWifiStaIfaceEventCallbackE",
   "name" : "android::hardware::wifi::V1_0::BnHwWifiStaIfaceEventCallback *",
   "referenced_type" : "_ZTIN7android8hardware4wifi4V1_029BnHwWifiStaIfaceEventCallbackE",
   "self_type" : "_ZTIPN7android8hardware4wifi4V1_029BnHwWifiStaIfaceEventCallbackE",
   "size" : 8,
   "source_file" : "/out/soong/.intermediates/hardware/interfaces/wifi/1.0/android.hardware.wifi@1.0_genc++_headers/gen/android/hardware/wifi/1.0/BnHwWifiStaIfaceEventCallback.h"
  },
  {
   "alignment" : 8,
   "linker_set_key" : "_ZTIPN7android8hardware4wifi4V1_031IWifiRttControllerEventCallbackE",
   "name" : "android::hardware::wifi::V1_0::IWifiRttControllerEventCallback *",
   "referenced_type" : "_ZTIN7android8hardware4wifi4V1_031IWifiRttControllerEventCallbackE",
   "self_type" : "_ZTIPN7android8hardware4wifi4V1_031IWifiRttControllerEventCallbackE",
   "size" : 8,
   "source_file" : "/system/core/libutils/include/utils/StrongPointer.h"
  },
  {
   "alignment" : 8,
   "linker_set_key" : "_ZTIPN7android8hardware4wifi4V1_033StaBackgroundScanBucketParametersE",
   "name" : "android::hardware::wifi::V1_0::StaBackgroundScanBucketParameters *",
   "referenced_type" : "_ZTIN7android8hardware4wifi4V1_033StaBackgroundScanBucketParametersE",
   "self_type" : "_ZTIPN7android8hardware4wifi4V1_033StaBackgroundScanBucketParametersE",
   "size" : 8,
   "source_file" : "/system/libhidl/base/include/hidl/HidlInternal.h"
  },
  {
   "alignment" : 8,
   "linker_set_key" : "_ZTIPN7android8hardware4wifi4V1_034BnHwWifiRttControllerEventCallbackE",
   "name" : "android::hardware::wifi::V1_0::BnHwWifiRttControllerEventCallback *",
   "referenced_type" : "_ZTIN7android8hardware4wifi4V1_034BnHwWifiRttControllerEventCallbackE",
   "self_type" : "_ZTIPN7android8hardware4wifi4V1_034BnHwWifiRttControllerEventCallbackE",
   "size" : 8,
   "source_file" : "/out/soong/.intermediates/hardware/interfaces/wifi/1.0/android.hardware.wifi@1.0_genc++_headers/gen/android/hardware/wifi/1.0/BnHwWifiRttControllerEventCallback.h"
  },
  {
   "alignment" : 8,
   "linker_set_key" : "_ZTIPN7android8hardware4wifi4V1_05IWifiE",
   "name" : "android::hardware::wifi::V1_0::IWifi *",
   "referenced_type" : "_ZTIN7android8hardware4wifi4V1_05IWifiE",
   "self_type" : "_ZTIPN7android8hardware4wifi4V1_05IWifiE",
   "size" : 8,
   "source_file" : "/system/core/libutils/include/utils/StrongPointer.h"
  },
  {
   "alignment" : 8,
   "linker_set_key" : "_ZTIPN7android8hardware4wifi4V1_08BnHwWifiE",
   "name" : "android::hardware::wifi::V1_0::BnHwWifi *",
   "referenced_type" : "_ZTIN7android8hardware4wifi4V1_08BnHwWifiE",
   "self_type" : "_ZTIPN7android8hardware4wifi4V1_08BnHwWifiE",
   "size" : 8,
   "source_file" : "/out/soong/.intermediates/hardware/interfaces/wifi/1.0/android.hardware.wifi@1.0_genc++_headers/gen/android/hardware/wifi/1.0/BnHwWifi.h"
  },
  {
   "alignment" : 8,
   "linker_set_key" : "_ZTIPN7android8hardware4wifi4V1_09IWifiChip20ChipIfaceCombinationE",
   "name" : "android::hardware::wifi::V1_0::IWifiChip::ChipIfaceCombination *",
   "referenced_type" : "_ZTIN7android8hardware4wifi4V1_09IWifiChip20ChipIfaceCombinationE",
   "self_type" : "_ZTIPN7android8hardware4wifi4V1_09IWifiChip20ChipIfaceCombinationE",
   "size" : 8,
   "source_file" : "/system/libhidl/base/include/hidl/HidlInternal.h"
  },
  {
   "alignment" : 8,
   "linker_set_key" : "_ZTIPN7android8hardware4wifi4V1_09IWifiChip25ChipIfaceCombinationLimitE",
   "name" : "android::hardware::wifi::V1_0::IWifiChip::ChipIfaceCombinationLimit *",
   "referenced_type" : "_ZTIN7android8hardware4wifi4V1_09IWifiChip25ChipIfaceCombinationLimitE",
   "self_type" : "_ZTIPN7android8hardware4wifi4V1_09IWifiChip25ChipIfaceCombinationLimitE",
   "size" : 8,
   "source_file" : "/system/libhidl/base/include/hidl/HidlInternal.h"
  },
  {
   "alignment" : 8,
   "linker_set_key" : "_ZTIPN7android8hardware4wifi4V1_09IWifiChip8ChipModeE",
   "name" : "android::hardware::wifi::V1_0::IWifiChip::ChipMode *",
   "referenced_type" : "_ZTIN7android8hardware4wifi4V1_09IWifiChip8ChipModeE",
   "self_type" : "_ZTIPN7android8hardware4wifi4V1_09IWifiChip8ChipModeE",
   "size" : 8,
   "source_file" : "/system/libhidl/base/include/hidl/HidlInternal.h"
  },
  {
   "alignment" : 8,
   "linker_set_key" : "_ZTIPN7android8hardware4wifi4V1_09IWifiChipE",
   "name" : "android::hardware::wifi::V1_0::IWifiChip *",
   "referenced_type" : "_ZTIN7android8hardware4wifi4V1_09IWifiChipE",
   "self_type" : "_ZTIPN7android8hardware4wifi4V1_09IWifiChipE",
   "size" : 8,
   "source_file" : "/system/core/libutils/include/utils/StrongPointer.h"
  },
  {
   "alignment" : 8,
   "linker_set_key" : "_ZTIPN7android8hardware4wifi4V1_09IfaceTypeE",
   "name" : "android::hardware::wifi::V1_0::IfaceType *",
   "referenced_type" : "_ZTIN7android8hardware4wifi4V1_09IfaceTypeE",
   "self_type" : "_ZTIPN7android8hardware4wifi4V1_09IfaceTypeE",
   "size" : 8,
   "source_file" : "/system/libhidl/base/include/hidl/HidlInternal.h"
  },
  {
   "alignment" : 8,
   "linker_set_key" : "_ZTIPN7android8hardware4wifi4V1_110BsWifiChipE",
   "name" : "android::hardware::wifi::V1_1::BsWifiChip *",
   "referenced_type" : "_ZTIN7android8hardware4wifi4V1_110BsWifiChipE",
   "self_type" : "_ZTIPN7android8hardware4wifi4V1_110BsWifiChipE",
   "size" : 8,
   "source_file" : "/system/core/libutils/include/utils/StrongPointer.h"
  },
  {
   "alignment" : 8,
   "linker_set_key" : "_ZTIPN7android8hardware4wifi4V1_112BnHwWifiChipE",
   "name" : "android::hardware::wifi::V1_1::BnHwWifiChip *",
   "referenced_type" : "_ZTIN7android8hardware4wifi4V1_112BnHwWifiChipE",
   "self_type" : "_ZTIPN7android8hardware4wifi4V1_112BnHwWifiChipE",
   "size" : 8,
   "source_file" : "/system/core/libutils/include/utils/RefBase.h"
  },
  {
   "alignment" : 8,
   "linker_set_key" : "_ZTIPN7android8hardware4wifi4V1_112BpHwWifiChipE",
   "name" : "android::hardware::wifi::V1_1::BpHwWifiChip *",
   "referenced_type" : "_ZTIN7android8hardware4wifi4V1_112BpHwWifiChipE",
   "self_type" : "_ZTIPN7android8hardware4wifi4V1_112BpHwWifiChipE",
   "size" : 8,
   "source_file" : "/system/core/libutils/include/utils/StrongPointer.h"
  },
  {
   "alignment" : 8,
   "linker_set_key" : "_ZTIPN7android8hardware4wifi4V1_15IWifiE",
   "name" : "android::hardware::wifi::V1_1::IWifi *",
   "referenced_type" : "_ZTIN7android8hardware4wifi4V1_15IWifiE",
   "self_type" : "_ZTIPN7android8hardware4wifi4V1_15IWifiE",
   "size" : 8,
   "source_file" : "/system/core/libutils/include/utils/StrongPointer.h"
  },
  {
   "alignment" : 8,
   "linker_set_key" : "_ZTIPN7android8hardware4wifi4V1_16BsWifiE",
   "name" : "android::hardware::wifi::V1_1::BsWifi *",
   "referenced_type" : "_ZTIN7android8hardware4wifi4V1_16BsWifiE",
   "self_type" : "_ZTIPN7android8hardware4wifi4V1_16BsWifiE",
   "size" : 8,
   "source_file" : "/system/core/libutils/include/utils/StrongPointer.h"
  },
  {
   "alignment" : 8,
   "linker_set_key" : "_ZTIPN7android8hardware4wifi4V1_18BnHwWifiE",
   "name" : "android::hardware::wifi::V1_1::BnHwWifi *",
   "referenced_type" : "_ZTIN7android8hardware4wifi4V1_18BnHwWifiE",
   "self_type" : "_ZTIPN7android8hardware4wifi4V1_18BnHwWifiE",
   "size" : 8,
   "source_file" : "/system/core/libutils/include/utils/RefBase.h"
  },
  {
   "alignment" : 8,
   "linker_set_key" : "_ZTIPN7android8hardware4wifi4V1_18BpHwWifiE",
   "name" : "android::hardware::wifi::V1_1::BpHwWifi *",
   "referenced_type" : "_ZTIN7android8hardware4wifi4V1_18BpHwWifiE",
   "self_type" : "_ZTIPN7android8hardware4wifi4V1_18BpHwWifiE",
   "size" : 8,
   "source_file" : "/system/core/libutils/include/utils/StrongPointer.h"
  },
  {
   "alignment" : 8,
   "linker_set_key" : "_ZTIPN7android8hardware4wifi4V1_19IWifiChipE",
   "name" : "android::hardware::wifi::V1_1::IWifiChip *",
   "referenced_type" : "_ZTIN7android8hardware4wifi4V1_19IWifiChipE",
   "self_type" : "_ZTIPN7android8hardware4wifi4V1_19IWifiChipE",
   "size" : 8,
   "source_file" : "/system/core/libutils/include/utils/StrongPointer.h"
  },
  {
   "alignment" : 8,
   "linker_set_key" : "_ZTIPN7android8hardware6ParcelE",
   "name" : "android::hardware::Parcel *",
   "referenced_type" : "_ZTIN7android8hardware6ParcelE",
   "self_type" : "_ZTIPN7android8hardware6ParcelE",
   "size" : 8,
   "source_file" : "/system/libhwbinder/include/hwbinder/Parcel.h"
  },
  {
   "alignment" : 8,
   "linker_set_key" : "_ZTIPN7android8hardware6ReturnINS_2spINS0_4wifi4V1_15IWifiEEEEE",
   "name" : "android::hardware::Return<android::sp<android::hardware::wifi::V1_1::IWifi> > *",
   "referenced_type" : "_ZTIN7android8hardware6ReturnINS_2spINS0_4wifi4V1_15IWifiEEEEE",
   "self_type" : "_ZTIPN7android8hardware6ReturnINS_2spINS0_4wifi4V1_15IWifiEEEEE",
   "size" : 8,
   "source_file" : "/system/libhidl/base/include/hidl/Status.h"
  },
  {
   "alignment" : 8,
   "linker_set_key" : "_ZTIPN7android8hardware6ReturnINS_2spINS0_4wifi4V1_19IWifiChipEEEEE",
   "name" : "android::hardware::Return<android::sp<android::hardware::wifi::V1_1::IWifiChip> > *",
   "referenced_type" : "_ZTIN7android8hardware6ReturnINS_2spINS0_4wifi4V1_19IWifiChipEEEEE",
   "self_type" : "_ZTIPN7android8hardware6ReturnINS_2spINS0_4wifi4V1_19IWifiChipEEEEE",
   "size" : 8,
   "source_file" : "/system/libhidl/base/include/hidl/Status.h"
  },
  {
   "alignment" : 8,
   "linker_set_key" : "_ZTIPN7android8hardware6ReturnIbEE",
   "name" : "android::hardware::Return<bool> *",
   "referenced_type" : "_ZTIN7android8hardware6ReturnIbEE",
   "self_type" : "_ZTIPN7android8hardware6ReturnIbEE",
   "size" : 8,
   "source_file" : "/system/libhidl/base/include/hidl/Status.h"
  },
  {
   "alignment" : 8,
   "linker_set_key" : "_ZTIPN7android8hardware6ReturnIvEE",
   "name" : "android::hardware::Return<void> *",
   "referenced_type" : "_ZTIN7android8hardware6ReturnIvEE",
   "self_type" : "_ZTIPN7android8hardware6ReturnIvEE",
   "size" : 8,
   "source_file" : "/system/libhidl/base/include/hidl/Status.h"
  },
  {
   "alignment" : 8,
   "linker_set_key" : "_ZTIPN7android8hardware6StatusE",
   "name" : "android::hardware::Status *",
   "referenced_type" : "_ZTIN7android8hardware6StatusE",
   "self_type" : "_ZTIPN7android8hardware6StatusE",
   "size" : 8,
   "source_file" : "/system/libhidl/base/include/hidl/Status.h"
  },
  {
   "alignment" : 8,
   "linker_set_key" : "_ZTIPN7android8hardware7IBinder14DeathRecipientE",
   "name" : "android::hardware::IBinder::DeathRecipient *",
   "referenced_type" : "_ZTIN7android8hardware7IBinder14DeathRecipientE",
   "self_type" : "_ZTIPN7android8hardware7IBinder14DeathRecipientE",
   "size" : 8,
   "source_file" : "/system/core/libutils/include/utils/RefBase.h"
  },
  {
   "alignment" : 8,
   "linker_set_key" : "_ZTIPN7android8hardware7IBinderE",
   "name" : "android::hardware::IBinder *",
   "referenced_type" : "_ZTIN7android8hardware7IBinderE",
   "self_type" : "_ZTIPN7android8hardware7IBinderE",
   "size" : 8,
   "source_file" : "/system/core/libutils/include/utils/StrongPointer.h"
  },
  {
   "alignment" : 8,
   "linker_set_key" : "_ZTIPN7android8hardware7details12hidl_pointerINS0_10hidl_arrayIhLm32EJEEEEE",
   "name" : "android::hardware::details::hidl_pointer<android::hardware::hidl_array<unsigned char, 32> > *",
   "referenced_type" : "_ZTIN7android8hardware7details12hidl_pointerINS0_10hidl_arrayIhLm32EJEEEEE",
   "self_type" : "_ZTIPN7android8hardware7details12hidl_pointerINS0_10hidl_arrayIhLm32EJEEEEE",
   "size" : 8,
   "source_file" : "/system/libhidl/base/include/hidl/HidlInternal.h"
  },
  {
   "alignment" : 8,
   "linker_set_key" : "_ZTIPN7android8hardware7details12hidl_pointerINS0_11hidl_stringEEE",
   "name" : "android::hardware::details::hidl_pointer<android::hardware::hidl_string> *",
   "referenced_type" : "_ZTIN7android8hardware7details12hidl_pointerINS0_11hidl_stringEEE",
   "self_type" : "_ZTIPN7android8hardware7details12hidl_pointerINS0_11hidl_stringEEE",
   "size" : 8,
   "source_file" : "/system/libhidl/base/include/hidl/HidlInternal.h"
  },
  {
   "alignment" : 8,
   "linker_set_key" : "_ZTIPN7android8hardware7details13DoNotDestructINS0_13ConcurrentMapIPKNS_4hidl4base4V1_05IBaseENS_2wpINS0_9BHwBinderEEEEEEE",
   "name" : "android::hardware::details::DoNotDestruct<android::hardware::ConcurrentMap<const android::hidl::base::V1_0::IBase *, android::wp<android::hardware::BHwBinder> > > *",
   "referenced_type" : "_ZTIN7android8hardware7details13DoNotDestructINS0_13ConcurrentMapIPKNS_4hidl4base4V1_05IBaseENS_2wpINS0_9BHwBinderEEEEEEE",
   "self_type" : "_ZTIPN7android8hardware7details13DoNotDestructINS0_13ConcurrentMapIPKNS_4hidl4base4V1_05IBaseENS_2wpINS0_9BHwBinderEEEEEEE",
   "size" : 8,
   "source_file" : "/system/libhidl/transport/include/hidl/ConcurrentMap.h"
  },
  {
   "alignment" : 8,
   "linker_set_key" : "_ZTIPN7android8hardware7details13return_statusE",
   "name" : "android::hardware::details::return_status *",
   "referenced_type" : "_ZTIN7android8hardware7details13return_statusE",
   "self_type" : "_ZTIPN7android8hardware7details13return_statusE",
   "size" : 8,
   "source_file" : "/system/libhidl/base/include/hidl/Status.h"
  },
  {
   "alignment" : 8,
   "linker_set_key" : "_ZTIPN7android8hardware7details14const_accessorINS0_4wifi4V1_021NanBandSpecificConfigELm2EJEEE",
   "name" : "android::hardware::details::const_accessor<android::hardware::wifi::V1_0::NanBandSpecificConfig, 2> *",
   "referenced_type" : "_ZTIN7android8hardware7details14const_accessorINS0_4wifi4V1_021NanBandSpecificConfigELm2EJEEE",
   "self_type" : "_ZTIPN7android8hardware7details14const_accessorINS0_4wifi4V1_021NanBandSpecificConfigELm2EJEEE",
   "size" : 8,
   "source_file" : "/system/libhidl/base/include/hidl/HidlSupport.h"
  },
  {
   "alignment" : 8,
   "linker_set_key" : "_ZTIPN7android8hardware7details14const_accessorIaLm2EJEEE",
   "name" : "android::hardware::details::const_accessor<signed char, 2> *",
   "referenced_type" : "_ZTIN7android8hardware7details14const_accessorIaLm2EJEEE",
   "self_type" : "_ZTIPN7android8hardware7details14const_accessorIaLm2EJEEE",
   "size" : 8,
   "source_file" : "/system/libhidl/base/include/hidl/HidlSupport.h"
  },
  {
   "alignment" : 8,
   "linker_set_key" : "_ZTIPN7android8hardware7details14const_accessorIbLm2EJEEE",
   "name" : "android::hardware::details::const_accessor<bool, 2> *",
   "referenced_type" : "_ZTIN7android8hardware7details14const_accessorIbLm2EJEEE",
   "self_type" : "_ZTIPN7android8hardware7details14const_accessorIbLm2EJEEE",
   "size" : 8,
   "source_file" : "/system/libhidl/base/include/hidl/HidlSupport.h"
  },
  {
   "alignment" : 8,
   "linker_set_key" : "_ZTIPN7android8hardware7details14const_accessorIhLm32EJEEE",
   "name" : "android::hardware::details::const_accessor<unsigned char, 32> *",
   "referenced_type" : "_ZTIN7android8hardware7details14const_accessorIhLm32EJEEE",
   "self_type" : "_ZTIPN7android8hardware7details14const_accessorIhLm32EJEEE",
   "size" : 8,
   "source_file" : "/system/libhidl/base/include/hidl/HidlSupport.h"
  },
  {
   "alignment" : 8,
   "linker_set_key" : "_ZTIPN7android8hardware7details14const_accessorIhLm6EJEEE",
   "name" : "android::hardware::details::const_accessor<unsigned char, 6> *",
   "referenced_type" : "_ZTIN7android8hardware7details14const_accessorIhLm6EJEEE",
   "self_type" : "_ZTIPN7android8hardware7details14const_accessorIhLm6EJEEE",
   "size" : 8,
   "source_file" : "/system/libhidl/base/include/hidl/HidlSupport.h"
  },
  {
   "alignment" : 8,
   "linker_set_key" : "_ZTIPN7android8hardware7details14const_accessorIjLm2EJEEE",
   "name" : "android::hardware::details::const_accessor<unsigned int, 2> *",
   "referenced_type" : "_ZTIN7android8hardware7details14const_accessorIjLm2EJEEE",
   "self_type" : "_ZTIPN7android8hardware7details14const_accessorIjLm2EJEEE",
   "size" : 8,
   "source_file" : "/system/libhidl/base/include/hidl/HidlSupport.h"
  },
  {
   "alignment" : 8,
   "linker_set_key" : "_ZTIPN7android8hardware7details16HidlInstrumentorE",
   "name" : "android::hardware::details::HidlInstrumentor *",
   "referenced_type" : "_ZTIN7android8hardware7details16HidlInstrumentorE",
   "self_type" : "_ZTIPN7android8hardware7details16HidlInstrumentorE",
   "size" : 8,
   "source_file" : "/system/libhidl/base/include/hidl/HidlInternal.h"
  },
  {
   "alignment" : 8,
   "linker_set_key" : "_ZTIPN7android8hardware8hidl_vecINS0_10hidl_arrayIhLm32EJEEEEE",
   "name" : "android::hardware::hidl_vec<android::hardware::hidl_array<unsigned char, 32> > *",
   "referenced_type" : "_ZTIN7android8hardware8hidl_vecINS0_10hidl_arrayIhLm32EJEEEEE",
   "self_type" : "_ZTIPN7android8hardware8hidl_vecINS0_10hidl_arrayIhLm32EJEEEEE",
   "size" : 8,
   "source_file" : "/system/libhidl/base/include/hidl/HidlSupport.h"
  },
  {
   "alignment" : 8,
   "linker_set_key" : "_ZTIPN7android8hardware8hidl_vecINS0_11hidl_stringEEE",
   "name" : "android::hardware::hidl_vec<android::hardware::hidl_string> *",
   "referenced_type" : "_ZTIN7android8hardware8hidl_vecINS0_11hidl_stringEEE",
   "self_type" : "_ZTIPN7android8hardware8hidl_vecINS0_11hidl_stringEEE",
   "size" : 8,
   "source_file" : "/system/libhidl/base/include/hidl/HidlSupport.h"
  },
  {
   "alignment" : 8,
   "linker_set_key" : "_ZTIPN7android8hardware9BHwBinderE",
   "name" : "android::hardware::BHwBinder *",
   "referenced_type" : "_ZTIN7android8hardware9BHwBinderE",
   "self_type" : "_ZTIPN7android8hardware9BHwBinderE",
   "size" : 8,
   "source_file" : "/system/core/libutils/include/utils/RefBase.h"
  },
  {
   "alignment" : 8,
   "linker_set_key" : "_ZTIPN7android9ConditionE",
   "name" : "android::Condition *",
   "referenced_type" : "_ZTIN7android9ConditionE",
   "self_type" : "_ZTIPN7android9ConditionE",
   "size" : 8,
   "source_file" : "/system/core/libutils/include/utils/Condition.h"
  },
  {
   "alignment" : 8,
   "linker_set_key" : "_ZTIPPv",
   "name" : "void **",
   "referenced_type" : "_ZTIPv",
   "self_type" : "_ZTIPPv",
   "size" : 8,
   "source_file" : "/system/core/libutils/include/utils/AndroidThreads.h"
  },
  {
   "alignment" : 8,
   "linker_set_key" : "_ZTIPc",
   "name" : "char *",
   "referenced_type" : "_ZTIc",
   "self_type" : "_ZTIPc",
   "size" : 8,
   "source_file" : "/system/core/liblog/include/log/log_read.h"
  },
  {
   "alignment" : 8,
   "linker_set_key" : "_ZTIPh",
   "name" : "unsigned char *",
   "referenced_type" : "_ZTIh",
   "self_type" : "_ZTIPh",
   "size" : 8,
   "source_file" : "/system/libhidl/base/include/hidl/HidlInternal.h"
  },
  {
   "alignment" : 8,
   "linker_set_key" : "_ZTIPi",
   "name" : "int *",
   "referenced_type" : "_ZTIi",
   "self_type" : "_ZTIPi",
   "size" : 8,
   "source_file" : "/system/libhidl/base/include/hidl/HidlInternal.h"
  },
  {
   "alignment" : 8,
   "linker_set_key" : "_ZTIPj",
   "name" : "unsigned int *",
   "referenced_type" : "_ZTIj",
   "self_type" : "_ZTIPj",
   "size" : 8,
   "source_file" : "/system/libhidl/base/include/hidl/HidlInternal.h"
  },
  {
   "alignment" : 8,
   "linker_set_key" : "_ZTIPv",
   "name" : "void *",
   "referenced_type" : "_ZTIv",
   "self_type" : "_ZTIPv",
   "size" : 8,
   "source_file" : "/system/libhwbinder/include/hwbinder/Binder.h"
  },
  {
   "alignment" : 8,
   "linker_set_key" : "_ZTIPy",
   "name" : "unsigned long long *",
   "referenced_type" : "_ZTIy",
   "self_type" : "_ZTIPy",
   "size" : 8,
   "source_file" : "/system/libhwbinder/include/hwbinder/Parcel.h"
  }
 ],
 "qualified_types" :
 [
  {
   "alignment" : 4,
   "is_const" : true,
   "linker_set_key" : "_ZTIK13native_handle",
   "name" : "const native_handle",
   "referenced_type" : "_ZTI13native_handle",
   "self_type" : "_ZTIK13native_handle",
   "size" : 12,
   "source_file" : "/system/libhidl/base/include/hidl/HidlInternal.h"
  },
  {
   "alignment" : 4,
   "is_const" : true,
   "linker_set_key" : "_ZTIK7log_msg",
   "name" : "const log_msg",
   "referenced_type" : "_ZTI7log_msg",
   "self_type" : "_ZTIK7log_msg",
   "size" : 5124,
   "source_file" : "/system/core/liblog/include/log/log_read.h"
  },
  {
   "alignment" : 2,
   "is_const" : true,
   "linker_set_key" : "_ZTIKDs",
   "name" : "const char16_t",
   "referenced_type" : "_ZTIDs",
   "self_type" : "_ZTIKDs",
   "size" : 2,
   "source_file" : "/system/core/libutils/include/utils/String16.h"
  },
  {
   "alignment" : 8,
   "is_const" : true,
   "linker_set_key" : "_ZTIKN7android10VectorImplE",
   "name" : "const android::VectorImpl",
   "referenced_type" : "_ZTIN7android10VectorImplE",
   "self_type" : "_ZTIKN7android10VectorImplE",
   "size" : 40,
   "source_file" : "/system/core/libutils/include/utils/VectorImpl.h"
  },
  {
   "alignment" : 8,
   "is_const" : true,
   "linker_set_key" : "_ZTIKN7android12NativeHandleE",
   "name" : "const android::NativeHandle",
   "referenced_type" : "_ZTIN7android12NativeHandleE",
   "self_type" : "_ZTIKN7android12NativeHandleE",
   "size" : 24,
   "source_file" : "/system/core/libutils/include/utils/NativeHandle.h"
  },
  {
   "alignment" : 8,
   "is_const" : true,
   "linker_set_key" : "_ZTIKN7android2spINS_4hidl4base4V1_05IBaseEEE",
   "name" : "const android::sp<android::hidl::base::V1_0::IBase>",
   "referenced_type" : "_ZTIN7android2spINS_4hidl4base4V1_05IBaseEEE",
   "self_type" : "_ZTIKN7android2spINS_4hidl4base4V1_05IBaseEEE",
   "size" : 8,
   "source_file" : "/system/core/libutils/include/utils/StrongPointer.h"
  },
  {
   "alignment" : 8,
   "is_const" : true,
   "linker_set_key" : "_ZTIKN7android2spINS_4hidl7manager4V1_015IServiceManagerEEE",
   "name" : "const android::sp<android::hidl::manager::V1_0::IServiceManager>",
   "referenced_type" : "_ZTIN7android2spINS_4hidl7manager4V1_015IServiceManagerEEE",
   "self_type" : "_ZTIKN7android2spINS_4hidl7manager4V1_015IServiceManagerEEE",
   "size" : 8,
   "source_file" : "/system/core/libutils/include/utils/StrongPointer.h"
  },
  {
   "alignment" : 8,
   "is_const" : true,
   "linker_set_key" : "_ZTIKN7android2spINS_4hidl7manager4V1_020IServiceNotificationEEE",
   "name" : "const android::sp<android::hidl::manager::V1_0::IServiceNotification>",
   "referenced_type" : "_ZTIN7android2spINS_4hidl7manager4V1_020IServiceNotificationEEE",
   "self_type" : "_ZTIKN7android2spINS_4hidl7manager4V1_020IServiceNotificationEEE",
   "size" : 8,
   "source_file" : "/system/core/libutils/include/utils/StrongPointer.h"
  },
  {
   "alignment" : 8,
   "is_const" : true,
   "linker_set_key" : "_ZTIKN7android2spINS_8hardware12ProcessStateEEE",
   "name" : "const android::sp<android::hardware::ProcessState>",
   "referenced_type" : "_ZTIN7android2spINS_8hardware12ProcessStateEEE",
   "self_type" : "_ZTIKN7android2spINS_8hardware12ProcessStateEEE",
   "size" : 8,
   "source_file" : "/system/core/libutils/include/utils/StrongPointer.h"
  },
  {
   "alignment" : 8,
   "is_const" : true,
   "linker_set_key" : "_ZTIKN7android2spINS_8hardware20hidl_death_recipientEEE",
   "name" : "const android::sp<android::hardware::hidl_death_recipient>",
   "referenced_type" : "_ZTIN7android2spINS_8hardware20hidl_death_recipientEEE",
   "self_type" : "_ZTIKN7android2spINS_8hardware20hidl_death_recipientEEE",
   "size" : 8,
   "source_file" : "/system/core/libutils/include/utils/RefBase.h"
  },
  {
   "alignment" : 8,
   "is_const" : true,
   "linker_set_key" : "_ZTIKN7android2spINS_8hardware27hidl_binder_death_recipientEEE",
   "name" : "const android::sp<android::hardware::hidl_binder_death_recipient>",
   "referenced_type" : "_ZTIN7android2spINS_8hardware27hidl_binder_death_recipientEEE",
   "self_type" : "_ZTIKN7android2spINS_8hardware27hidl_binder_death_recipientEEE",
   "size" : 8,
   "source_file" : "/system/core/libutils/include/utils/RefBase.h"
  },
  {
   "alignment" : 8,
   "is_const" : true,
   "linker_set_key" : "_ZTIKN7android2spINS_8hardware4wifi4V1_010IWifiIfaceEEE",
   "name" : "const android::sp<android::hardware::wifi::V1_0::IWifiIface>",
   "referenced_type" : "_ZTIN7android2spINS_8hardware4wifi4V1_010IWifiIfaceEEE",
   "self_type" : "_ZTIKN7android2spINS_8hardware4wifi4V1_010IWifiIfaceEEE",
   "size" : 8,
   "source_file" : "/system/core/libutils/include/utils/StrongPointer.h"
  },
  {
   "alignment" : 8,
   "is_const" : true,
   "linker_set_key" : "_ZTIKN7android2spINS_8hardware4wifi4V1_012IWifiApIfaceEEE",
   "name" : "const android::sp<android::hardware::wifi::V1_0::IWifiApIface>",
   "referenced_type" : "_ZTIN7android2spINS_8hardware4wifi4V1_012IWifiApIfaceEEE",
   "self_type" : "_ZTIKN7android2spINS_8hardware4wifi4V1_012IWifiApIfaceEEE",
   "size" : 8,
   "source_file" : "/system/core/libutils/include/utils/StrongPointer.h"
  },
  {
   "alignment" : 8,
   "is_const" : true,
   "linker_set_key" : "_ZTIKN7android2spINS_8hardware4wifi4V1_013IWifiNanIfaceEEE",
   "name" : "const android::sp<android::hardware::wifi::V1_0::IWifiNanIface>",
   "referenced_type" : "_ZTIN7android2spINS_8hardware4wifi4V1_013IWifiNanIfaceEEE",
   "self_type" : "_ZTIKN7android2spINS_8hardware4wifi4V1_013IWifiNanIfaceEEE",
   "size" : 8,
   "source_file" : "/system/core/libutils/include/utils/StrongPointer.h"
  },
  {
   "alignment" : 8,
   "is_const" : true,
   "linker_set_key" : "_ZTIKN7android2spINS_8hardware4wifi4V1_013IWifiP2pIfaceEEE",
   "name" : "const android::sp<android::hardware::wifi::V1_0::IWifiP2pIface>",
   "referenced_type" : "_ZTIN7android2spINS_8hardware4wifi4V1_013IWifiP2pIfaceEEE",
   "self_type" : "_ZTIKN7android2spINS_8hardware4wifi4V1_013IWifiP2pIfaceEEE",
   "size" : 8,
   "source_file" : "/system/core/libutils/include/utils/StrongPointer.h"
  },
  {
   "alignment" : 8,
   "is_const" : true,
   "linker_set_key" : "_ZTIKN7android2spINS_8hardware4wifi4V1_013IWifiStaIfaceEEE",
   "name" : "const android::sp<android::hardware::wifi::V1_0::IWifiStaIface>",
   "referenced_type" : "_ZTIN7android2spINS_8hardware4wifi4V1_013IWifiStaIfaceEEE",
   "self_type" : "_ZTIKN7android2spINS_8hardware4wifi4V1_013IWifiStaIfaceEEE",
   "size" : 8,
   "source_file" : "/system/core/libutils/include/utils/StrongPointer.h"
  },
  {
   "alignment" : 8,
   "is_const" : true,
   "linker_set_key" : "_ZTIKN7android2spINS_8hardware4wifi4V1_018IWifiEventCallbackEEE",
   "name" : "const android::sp<android::hardware::wifi::V1_0::IWifiEventCallback>",
   "referenced_type" : "_ZTIN7android2spINS_8hardware4wifi4V1_018IWifiEventCallbackEEE",
   "self_type" : "_ZTIKN7android2spINS_8hardware4wifi4V1_018IWifiEventCallbackEEE",
   "size" : 8,
   "source_file" : "/system/core/libutils/include/utils/StrongPointer.h"
  },
  {
   "alignment" : 8,
   "is_const" : true,
   "linker_set_key" : "_ZTIKN7android2spINS_8hardware4wifi4V1_018IWifiRttControllerEEE",
   "name" : "const android::sp<android::hardware::wifi::V1_0::IWifiRttController>",
   "referenced_type" : "_ZTIN7android2spINS_8hardware4wifi4V1_018IWifiRttControllerEEE",
   "self_type" : "_ZTIKN7android2spINS_8hardware4wifi4V1_018IWifiRttControllerEEE",
   "size" : 8,
   "source_file" : "/system/core/libutils/include/utils/StrongPointer.h"
  },
  {
   "alignment" : 8,
   "is_const" : true,
   "linker_set_key" : "_ZTIKN7android2spINS_8hardware4wifi4V1_022IWifiChipEventCallbackEEE",
   "name" : "const android::sp<android::hardware::wifi::V1_0::IWifiChipEventCallback>",
   "referenced_type" : "_ZTIN7android2spINS_8hardware4wifi4V1_022IWifiChipEventCallbackEEE",
   "self_type" : "_ZTIKN7android2spINS_8hardware4wifi4V1_022IWifiChipEventCallbackEEE",
   "size" : 8,
   "source_file" : "/system/core/libutils/include/utils/StrongPointer.h"
  },
  {
   "alignment" : 8,
   "is_const" : true,
   "linker_set_key" : "_ZTIKN7android2spINS_8hardware4wifi4V1_026IWifiNanIfaceEventCallbackEEE",
   "name" : "const android::sp<android::hardware::wifi::V1_0::IWifiNanIfaceEventCallback>",
   "referenced_type" : "_ZTIN7android2spINS_8hardware4wifi4V1_026IWifiNanIfaceEventCallbackEEE",
   "self_type" : "_ZTIKN7android2spINS_8hardware4wifi4V1_026IWifiNanIfaceEventCallbackEEE",
   "size" : 8,
   "source_file" : "/system/core/libutils/include/utils/StrongPointer.h"
  },
  {
   "alignment" : 8,
   "is_const" : true,
   "linker_set_key" : "_ZTIKN7android2spINS_8hardware4wifi4V1_026IWifiStaIfaceEventCallbackEEE",
   "name" : "const android::sp<android::hardware::wifi::V1_0::IWifiStaIfaceEventCallback>",
   "referenced_type" : "_ZTIN7android2spINS_8hardware4wifi4V1_026IWifiStaIfaceEventCallbackEEE",
   "self_type" : "_ZTIKN7android2spINS_8hardware4wifi4V1_026IWifiStaIfaceEventCallbackEEE",
   "size" : 8,
   "source_file" : "/system/core/libutils/include/utils/StrongPointer.h"
  },
  {
   "alignment" : 8,
   "is_const" : true,
   "linker_set_key" : "_ZTIKN7android2spINS_8hardware4wifi4V1_031IWifiRttControllerEventCallbackEEE",
   "name" : "const android::sp<android::hardware::wifi::V1_0::IWifiRttControllerEventCallback>",
   "referenced_type" : "_ZTIN7android2spINS_8hardware4wifi4V1_031IWifiRttControllerEventCallbackEEE",
   "self_type" : "_ZTIKN7android2spINS_8hardware4wifi4V1_031IWifiRttControllerEventCallbackEEE",
   "size" : 8,
   "source_file" : "/system/core/libutils/include/utils/StrongPointer.h"
  },
  {
   "alignment" : 8,
   "is_const" : true,
   "linker_set_key" : "_ZTIKN7android2spINS_8hardware4wifi4V1_05IWifiEEE",
   "name" : "const android::sp<android::hardware::wifi::V1_0::IWifi>",
   "referenced_type" : "_ZTIN7android2spINS_8hardware4wifi4V1_05IWifiEEE",
   "self_type" : "_ZTIKN7android2spINS_8hardware4wifi4V1_05IWifiEEE",
   "size" : 8,
   "source_file" : "/system/core/libutils/include/utils/StrongPointer.h"
  },
  {
   "alignment" : 8,
   "is_const" : true,
   "linker_set_key" : "_ZTIKN7android2spINS_8hardware4wifi4V1_09IWifiChipEEE",
   "name" : "const android::sp<android::hardware::wifi::V1_0::IWifiChip>",
   "referenced_type" : "_ZTIN7android2spINS_8hardware4wifi4V1_09IWifiChipEEE",
   "self_type" : "_ZTIKN7android2spINS_8hardware4wifi4V1_09IWifiChipEEE",
   "size" : 8,
   "source_file" : "/system/core/libutils/include/utils/StrongPointer.h"
  },
  {
   "alignment" : 8,
   "is_const" : true,
   "linker_set_key" : "_ZTIKN7android2spINS_8hardware4wifi4V1_15IWifiEEE",
   "name" : "const android::sp<android::hardware::wifi::V1_1::IWifi>",
   "referenced_type" : "_ZTIN7android2spINS_8hardware4wifi4V1_15IWifiEEE",
   "self_type" : "_ZTIKN7android2spINS_8hardware4wifi4V1_15IWifiEEE",
   "size" : 8,
   "source_file" : "/system/core/libutils/include/utils/StrongPointer.h"
  },
  {
   "alignment" : 8,
   "is_const" : true,
   "linker_set_key" : "_ZTIKN7android2spINS_8hardware4wifi4V1_19IWifiChipEEE",
   "name" : "const android::sp<android::hardware::wifi::V1_1::IWifiChip>",
   "referenced_type" : "_ZTIN7android2spINS_8hardware4wifi4V1_19IWifiChipEEE",
   "self_type" : "_ZTIKN7android2spINS_8hardware4wifi4V1_19IWifiChipEEE",
   "size" : 8,
   "source_file" : "/system/core/libutils/include/utils/StrongPointer.h"
  },
  {
   "alignment" : 8,
   "is_const" : true,
   "linker_set_key" : "_ZTIKN7android2spINS_8hardware7IBinderEEE",
   "name" : "const android::sp<android::hardware::IBinder>",
   "referenced_type" : "_ZTIN7android2spINS_8hardware7IBinderEEE",
   "self_type" : "_ZTIKN7android2spINS_8hardware7IBinderEEE",
   "size" : 8,
   "source_file" : "/system/libhwbinder/include/hwbinder/IInterface.h"
  },
  {
   "alignment" : 8,
   "is_const" : true,
   "linker_set_key" : "_ZTIKN7android2wpINS_8hardware20hidl_death_recipientEEE",
   "name" : "const android::wp<android::hardware::hidl_death_recipient>",
   "referenced_type" : "_ZTIN7android2wpINS_8hardware20hidl_death_recipientEEE",
   "self_type" : "_ZTIKN7android2wpINS_8hardware20hidl_death_recipientEEE",
   "size" : 16,
   "source_file" : "/system/core/libutils/include/utils/RefBase.h"
  },
  {
   "alignment" : 8,
   "is_const" : true,
   "linker_set_key" : "_ZTIKN7android2wpINS_8hardware9BHwBinderEEE",
   "name" : "const android::wp<android::hardware::BHwBinder>",
   "referenced_type" : "_ZTIN7android2wpINS_8hardware9BHwBinderEEE",
   "self_type" : "_ZTIKN7android2wpINS_8hardware9BHwBinderEEE",
   "size" : 16,
   "source_file" : "/system/core/libutils/include/utils/RefBase.h"
  },
  {
   "alignment" : 8,
   "is_const" : true,
   "linker_set_key" : "_ZTIKN7android4hidl4base4V1_05IBaseE",
   "name" : "const android::hidl::base::V1_0::IBase",
   "referenced_type" : "_ZTIN7android4hidl4base4V1_05IBaseE",
   "self_type" : "_ZTIKN7android4hidl4base4V1_05IBaseE",
   "size" : 24,
   "source_file" : "/out/soong/.intermediates/system/libhidl/transport/base/1.0/android.hidl.base@1.0_genc++_headers/gen/android/hidl/base/1.0/IBase.h"
  },
  {
   "alignment" : 8,
   "is_const" : true,
   "linker_set_key" : "_ZTIKN7android4hidl4base4V1_08BpHwBaseE",
   "name" : "const android::hidl::base::V1_0::BpHwBase",
   "referenced_type" : "_ZTIN7android4hidl4base4V1_08BpHwBaseE",
   "self_type" : "_ZTIKN7android4hidl4base4V1_08BpHwBaseE",
   "size" : 216,
   "source_file" : "/out/soong/.intermediates/system/libhidl/transport/base/1.0/android.hidl.base@1.0_genc++_headers/gen/android/hidl/base/1.0/BpHwBase.h"
  },
  {
   "alignment" : 4,
   "is_const" : true,
   "linker_set_key" : "_ZTIKN7android4hidl4base4V1_09DebugInfo12ArchitectureE",
   "name" : "const android::hidl::base::V1_0::DebugInfo::Architecture",
   "referenced_type" : "_ZTIN7android4hidl4base4V1_09DebugInfo12ArchitectureE",
   "self_type" : "_ZTIKN7android4hidl4base4V1_09DebugInfo12ArchitectureE",
   "size" : 4,
   "source_file" : "/out/soong/.intermediates/system/libhidl/transport/base/1.0/android.hidl.base@1.0_genc++_headers/gen/android/hidl/base/1.0/types.h"
  },
  {
   "alignment" : 4,
   "is_const" : true,
   "linker_set_key" : "_ZTIKN7android4hidl7manager4V1_015IServiceManager11PidConstantE",
   "name" : "const android::hidl::manager::V1_0::IServiceManager::PidConstant",
   "referenced_type" : "_ZTIN7android4hidl7manager4V1_015IServiceManager11PidConstantE",
   "self_type" : "_ZTIKN7android4hidl7manager4V1_015IServiceManager11PidConstantE",
   "size" : 4,
   "source_file" : "/out/soong/.intermediates/system/libhidl/transport/manager/1.0/android.hidl.manager@1.0_genc++_headers/gen/android/hidl/manager/1.0/IServiceManager.h"
  },
  {
   "alignment" : 1,
   "is_const" : true,
   "linker_set_key" : "_ZTIKN7android4hidl7manager4V1_015IServiceManager9TransportE",
   "name" : "const android::hidl::manager::V1_0::IServiceManager::Transport",
   "referenced_type" : "_ZTIN7android4hidl7manager4V1_015IServiceManager9TransportE",
   "self_type" : "_ZTIKN7android4hidl7manager4V1_015IServiceManager9TransportE",
   "size" : 1,
   "source_file" : "/out/soong/.intermediates/system/libhidl/transport/manager/1.0/android.hidl.manager@1.0_genc++_headers/gen/android/hidl/manager/1.0/IServiceManager.h"
  },
  {
   "alignment" : 8,
   "is_const" : true,
   "linker_set_key" : "_ZTIKN7android4hidl7manager4V1_015IServiceManagerE",
   "name" : "const android::hidl::manager::V1_0::IServiceManager",
   "referenced_type" : "_ZTIN7android4hidl7manager4V1_015IServiceManagerE",
   "self_type" : "_ZTIKN7android4hidl7manager4V1_015IServiceManagerE",
   "size" : 24,
   "source_file" : "/out/soong/.intermediates/system/libhidl/transport/manager/1.0/android.hidl.manager@1.0_genc++_headers/gen/android/hidl/manager/1.0/IServiceManager.h"
  },
  {
   "alignment" : 8,
   "is_const" : true,
   "linker_set_key" : "_ZTIKN7android4hidl7manager4V1_020IServiceNotificationE",
   "name" : "const android::hidl::manager::V1_0::IServiceNotification",
   "referenced_type" : "_ZTIN7android4hidl7manager4V1_020IServiceNotificationE",
   "self_type" : "_ZTIKN7android4hidl7manager4V1_020IServiceNotificationE",
   "size" : 24,
   "source_file" : "/out/soong/.intermediates/system/libhidl/transport/manager/1.0/android.hidl.manager@1.0_genc++_headers/gen/android/hidl/manager/1.0/IServiceNotification.h"
  },
  {
   "alignment" : 8,
   "is_const" : true,
   "linker_set_key" : "_ZTIKN7android7RefBaseE",
   "name" : "const android::RefBase",
   "referenced_type" : "_ZTIN7android7RefBaseE",
   "self_type" : "_ZTIKN7android7RefBaseE",
   "size" : 16,
   "source_file" : "/system/core/libutils/include/utils/RefBase.h"
  },
  {
   "alignment" : 8,
   "is_const" : true,
   "linker_set_key" : "_ZTIKN7android7String8E",
   "name" : "const android::String8",
   "referenced_type" : "_ZTIN7android7String8E",
   "self_type" : "_ZTIKN7android7String8E",
   "size" : 8,
   "source_file" : "/system/core/libutils/include/utils/String8.h"
  },
  {
   "alignment" : 8,
   "is_const" : true,
   "linker_set_key" : "_ZTIKN7android8String16E",
   "name" : "const android::String16",
   "referenced_type" : "_ZTIN7android8String16E",
   "self_type" : "_ZTIKN7android8String16E",
   "size" : 8,
   "source_file" : "/system/core/libutils/include/utils/String16.h"
  },
  {
   "alignment" : 2,
   "is_const" : true,
   "linker_set_key" : "_ZTIKN7android8hardware10hidl_arrayINS0_4wifi4V1_021NanBandSpecificConfigELm2EJEEE",
   "name" : "const android::hardware::hidl_array<android::hardware::wifi::V1_0::NanBandSpecificConfig, 2>",
   "referenced_type" : "_ZTIN7android8hardware10hidl_arrayINS0_4wifi4V1_021NanBandSpecificConfigELm2EJEEE",
   "self_type" : "_ZTIKN7android8hardware10hidl_arrayINS0_4wifi4V1_021NanBandSpecificConfigELm2EJEEE",
   "size" : 16,
   "source_file" : "/system/libhidl/base/include/hidl/HidlSupport.h"
  },
  {
   "alignment" : 1,
   "is_const" : true,
   "linker_set_key" : "_ZTIKN7android8hardware10hidl_arrayIaLm2EJEEE",
   "name" : "const android::hardware::hidl_array<signed char, 2>",
   "referenced_type" : "_ZTIN7android8hardware10hidl_arrayIaLm2EJEEE",
   "self_type" : "_ZTIKN7android8hardware10hidl_arrayIaLm2EJEEE",
   "size" : 2,
   "source_file" : "/system/libhidl/base/include/hidl/HidlSupport.h"
  },
  {
   "alignment" : 1,
   "is_const" : true,
   "linker_set_key" : "_ZTIKN7android8hardware10hidl_arrayIbLm2EJEEE",
   "name" : "const android::hardware::hidl_array<bool, 2>",
   "referenced_type" : "_ZTIN7android8hardware10hidl_arrayIbLm2EJEEE",
   "self_type" : "_ZTIKN7android8hardware10hidl_arrayIbLm2EJEEE",
   "size" : 2,
   "source_file" : "/system/libhidl/base/include/hidl/HidlSupport.h"
  },
  {
   "alignment" : 1,
   "is_const" : true,
   "linker_set_key" : "_ZTIKN7android8hardware10hidl_arrayIhLm32EJEEE",
   "name" : "const android::hardware::hidl_array<unsigned char, 32>",
   "referenced_type" : "_ZTIN7android8hardware10hidl_arrayIhLm32EJEEE",
   "self_type" : "_ZTIKN7android8hardware10hidl_arrayIhLm32EJEEE",
   "size" : 32,
   "source_file" : "/system/libhidl/base/include/hidl/HidlInternal.h"
  },
  {
   "alignment" : 1,
   "is_const" : true,
   "linker_set_key" : "_ZTIKN7android8hardware10hidl_arrayIhLm6EJEEE",
   "name" : "const android::hardware::hidl_array<unsigned char, 6>",
   "referenced_type" : "_ZTIN7android8hardware10hidl_arrayIhLm6EJEEE",
   "self_type" : "_ZTIKN7android8hardware10hidl_arrayIhLm6EJEEE",
   "size" : 6,
   "source_file" : "/system/libhidl/base/include/hidl/HidlInternal.h"
  },
  {
   "alignment" : 4,
   "is_const" : true,
   "linker_set_key" : "_ZTIKN7android8hardware10hidl_arrayIjLm2EJEEE",
   "name" : "const android::hardware::hidl_array<unsigned int, 2>",
   "referenced_type" : "_ZTIN7android8hardware10hidl_arrayIjLm2EJEEE",
   "self_type" : "_ZTIKN7android8hardware10hidl_arrayIjLm2EJEEE",
   "size" : 8,
   "source_file" : "/system/libhidl/base/include/hidl/HidlSupport.h"
  },
  {
   "alignment" : 8,
   "is_const" : true,
   "linker_set_key" : "_ZTIKN7android8hardware11BpHwRefBaseE",
   "name" : "const android::hardware::BpHwRefBase",
   "referenced_type" : "_ZTIN7android8hardware11BpHwRefBaseE",
   "self_type" : "_ZTIKN7android8hardware11BpHwRefBaseE",
   "size" : 48,
   "source_file" : "/system/libhwbinder/include/hwbinder/Binder.h"
  },
  {
   "alignment" : 8,
   "is_const" : true,
   "linker_set_key" : "_ZTIKN7android8hardware11hidl_handleE",
   "name" : "const android::hardware::hidl_handle",
   "referenced_type" : "_ZTIN7android8hardware11hidl_handleE",
   "self_type" : "_ZTIKN7android8hardware11hidl_handleE",
   "size" : 16,
   "source_file" : "/system/libhidl/base/include/hidl/HidlSupport.h"
  },
  {
   "alignment" : 8,
   "is_const" : true,
   "linker_set_key" : "_ZTIKN7android8hardware11hidl_memoryE",
   "name" : "const android::hardware::hidl_memory",
   "referenced_type" : "_ZTIN7android8hardware11hidl_memoryE",
   "self_type" : "_ZTIKN7android8hardware11hidl_memoryE",
   "size" : 40,
   "source_file" : "/system/libhidl/base/include/hidl/HidlSupport.h"
  },
  {
   "alignment" : 8,
   "is_const" : true,
   "linker_set_key" : "_ZTIKN7android8hardware11hidl_stringE",
   "name" : "const android::hardware::hidl_string",
   "referenced_type" : "_ZTIN7android8hardware11hidl_stringE",
   "self_type" : "_ZTIKN7android8hardware11hidl_stringE",
   "size" : 16,
   "source_file" : "/system/libhidl/base/include/hidl/HidlSupport.h"
  },
  {
   "alignment" : 2,
   "is_const" : true,
   "linker_set_key" : "_ZTIKN7android8hardware12hidl_versionE",
   "name" : "const android::hardware::hidl_version",
   "referenced_type" : "_ZTIN7android8hardware12hidl_versionE",
   "self_type" : "_ZTIKN7android8hardware12hidl_versionE",
   "size" : 4,
   "source_file" : "/system/libhidl/base/include/hidl/HidlSupport.h"
  },
  {
   "alignment" : 8,
   "is_const" : true,
   "linker_set_key" : "_ZTIKN7android8hardware4wifi4V1_010IWifiIfaceE",
   "name" : "const android::hardware::wifi::V1_0::IWifiIface",
   "referenced_type" : "_ZTIN7android8hardware4wifi4V1_010IWifiIfaceE",
   "self_type" : "_ZTIKN7android8hardware4wifi4V1_010IWifiIfaceE",
   "size" : 24,
   "source_file" : "/out/soong/.intermediates/hardware/interfaces/wifi/1.0/android.hardware.wifi@1.0_genc++_headers/gen/android/hardware/wifi/1.0/IWifiIface.h"
  },
  {
   "alignment" : 4,
   "is_const" : true,
   "linker_set_key" : "_ZTIKN7android8hardware4wifi4V1_010NanSrfTypeE",
   "name" : "const android::hardware::wifi::V1_0::NanSrfType",
   "referenced_type" : "_ZTIN7android8hardware4wifi4V1_010NanSrfTypeE",
   "self_type" : "_ZTIKN7android8hardware4wifi4V1_010NanSrfTypeE",
   "size" : 4,
   "source_file" : "/out/soong/.intermediates/hardware/interfaces/wifi/1.0/android.hardware.wifi@1.0_genc++_headers/gen/android/hardware/wifi/1.0/types.h"
  },
  {
   "alignment" : 4,
   "is_const" : true,
   "linker_set_key" : "_ZTIKN7android8hardware4wifi4V1_011NanMatchAlgE",
   "name" : "const android::hardware::wifi::V1_0::NanMatchAlg",
   "referenced_type" : "_ZTIN7android8hardware4wifi4V1_011NanMatchAlgE",
   "self_type" : "_ZTIKN7android8hardware4wifi4V1_011NanMatchAlgE",
   "size" : 4,
   "source_file" : "/out/soong/.intermediates/hardware/interfaces/wifi/1.0/android.hardware.wifi@1.0_genc++_headers/gen/android/hardware/wifi/1.0/types.h"
  },
  {
   "alignment" : 4,
   "is_const" : true,
   "linker_set_key" : "_ZTIKN7android8hardware4wifi4V1_011RttPeerTypeE",
   "name" : "const android::hardware::wifi::V1_0::RttPeerType",
   "referenced_type" : "_ZTIN7android8hardware4wifi4V1_011RttPeerTypeE",
   "self_type" : "_ZTIKN7android8hardware4wifi4V1_011RttPeerTypeE",
   "size" : 4,
   "source_file" : "/out/soong/.intermediates/hardware/interfaces/wifi/1.0/android.hardware.wifi@1.0_genc++_headers/gen/android/hardware/wifi/1.0/types.h"
  },
  {
   "alignment" : 4,
   "is_const" : true,
   "linker_set_key" : "_ZTIKN7android8hardware4wifi4V1_011RttPreambleE",
   "name" : "const android::hardware::wifi::V1_0::RttPreamble",
   "referenced_type" : "_ZTIN7android8hardware4wifi4V1_011RttPreambleE",
   "self_type" : "_ZTIKN7android8hardware4wifi4V1_011RttPreambleE",
   "size" : 4,
   "source_file" : "/out/soong/.intermediates/hardware/interfaces/wifi/1.0/android.hardware.wifi@1.0_genc++_headers/gen/android/hardware/wifi/1.0/types.h"
  },
  {
   "alignment" : 4,
   "is_const" : true,
   "linker_set_key" : "_ZTIKN7android8hardware4wifi4V1_011WifiRateNssE",
   "name" : "const android::hardware::wifi::V1_0::WifiRateNss",
   "referenced_type" : "_ZTIN7android8hardware4wifi4V1_011WifiRateNssE",
   "self_type" : "_ZTIKN7android8hardware4wifi4V1_011WifiRateNssE",
   "size" : 4,
   "source_file" : "/out/soong/.intermediates/hardware/interfaces/wifi/1.0/android.hardware.wifi@1.0_genc++_headers/gen/android/hardware/wifi/1.0/types.h"
  },
  {
   "alignment" : 8,
   "is_const" : true,
   "linker_set_key" : "_ZTIKN7android8hardware4wifi4V1_012BpHwWifiChipE",
   "name" : "const android::hardware::wifi::V1_0::BpHwWifiChip",
   "referenced_type" : "_ZTIN7android8hardware4wifi4V1_012BpHwWifiChipE",
   "self_type" : "_ZTIKN7android8hardware4wifi4V1_012BpHwWifiChipE",
   "size" : 216,
   "source_file" : "/out/soong/.intermediates/hardware/interfaces/wifi/1.0/android.hardware.wifi@1.0_genc++_headers/gen/android/hardware/wifi/1.0/BpHwWifiChip.h"
  },
  {
   "alignment" : 8,
   "is_const" : true,
   "linker_set_key" : "_ZTIKN7android8hardware4wifi4V1_012IWifiApIfaceE",
   "name" : "const android::hardware::wifi::V1_0::IWifiApIface",
   "referenced_type" : "_ZTIN7android8hardware4wifi4V1_012IWifiApIfaceE",
   "self_type" : "_ZTIKN7android8hardware4wifi4V1_012IWifiApIfaceE",
   "size" : 24,
   "source_file" : "/out/soong/.intermediates/hardware/interfaces/wifi/1.0/android.hardware.wifi@1.0_genc++_headers/gen/android/hardware/wifi/1.0/IWifiApIface.h"
  },
  {
   "alignment" : 4,
   "is_const" : true,
   "linker_set_key" : "_ZTIKN7android8hardware4wifi4V1_012NanBandIndexE",
   "name" : "const android::hardware::wifi::V1_0::NanBandIndex",
   "referenced_type" : "_ZTIN7android8hardware4wifi4V1_012NanBandIndexE",
   "self_type" : "_ZTIKN7android8hardware4wifi4V1_012NanBandIndexE",
   "size" : 4,
   "source_file" : "/out/soong/.intermediates/hardware/interfaces/wifi/1.0/android.hardware.wifi@1.0_genc++_headers/gen/android/hardware/wifi/1.0/types.h"
  },
  {
   "alignment" : 8,
   "is_const" : true,
   "linker_set_key" : "_ZTIKN7android8hardware4wifi4V1_013BpHwWifiIfaceE",
   "name" : "const android::hardware::wifi::V1_0::BpHwWifiIface",
   "referenced_type" : "_ZTIN7android8hardware4wifi4V1_013BpHwWifiIfaceE",
   "self_type" : "_ZTIKN7android8hardware4wifi4V1_013BpHwWifiIfaceE",
   "size" : 216,
   "source_file" : "/out/soong/.intermediates/hardware/interfaces/wifi/1.0/android.hardware.wifi@1.0_genc++_headers/gen/android/hardware/wifi/1.0/BpHwWifiIface.h"
  },
  {
   "alignment" : 8,
   "is_const" : true,
   "linker_set_key" : "_ZTIKN7android8hardware4wifi4V1_013IWifiNanIfaceE",
   "name" : "const android::hardware::wifi::V1_0::IWifiNanIface",
   "referenced_type" : "_ZTIN7android8hardware4wifi4V1_013IWifiNanIfaceE",
   "self_type" : "_ZTIKN7android8hardware4wifi4V1_013IWifiNanIfaceE",
   "size" : 24,
   "source_file" : "/out/soong/.intermediates/hardware/interfaces/wifi/1.0/android.hardware.wifi@1.0_genc++_headers/gen/android/hardware/wifi/1.0/IWifiNanIface.h"
  },
  {
   "alignment" : 8,
   "is_const" : true,
   "linker_set_key" : "_ZTIKN7android8hardware4wifi4V1_013IWifiP2pIfaceE",
   "name" : "const android::hardware::wifi::V1_0::IWifiP2pIface",
   "referenced_type" : "_ZTIN7android8hardware4wifi4V1_013IWifiP2pIfaceE",
   "self_type" : "_ZTIKN7android8hardware4wifi4V1_013IWifiP2pIfaceE",
   "size" : 24,
   "source_file" : "/out/soong/.intermediates/hardware/interfaces/wifi/1.0/android.hardware.wifi@1.0_genc++_headers/gen/android/hardware/wifi/1.0/IWifiP2pIface.h"
  },
  {
   "alignment" : 4,
   "is_const" : true,
   "linker_set_key" : "_ZTIKN7android8hardware4wifi4V1_013IWifiStaIface22StaIfaceCapabilityMaskE",
   "name" : "const android::hardware::wifi::V1_0::IWifiStaIface::StaIfaceCapabilityMask",
   "referenced_type" : "_ZTIN7android8hardware4wifi4V1_013IWifiStaIface22StaIfaceCapabilityMaskE",
   "self_type" : "_ZTIKN7android8hardware4wifi4V1_013IWifiStaIface22StaIfaceCapabilityMaskE",
   "size" : 4,
   "source_file" : "/out/soong/.intermediates/hardware/interfaces/wifi/1.0/android.hardware.wifi@1.0_genc++_headers/gen/android/hardware/wifi/1.0/IWifiStaIface.h"
  },
  {
   "alignment" : 8,
   "is_const" : true,
   "linker_set_key" : "_ZTIKN7android8hardware4wifi4V1_013IWifiStaIfaceE",
   "name" : "const android::hardware::wifi::V1_0::IWifiStaIface",
   "referenced_type" : "_ZTIN7android8hardware4wifi4V1_013IWifiStaIfaceE",
   "self_type" : "_ZTIKN7android8hardware4wifi4V1_013IWifiStaIfaceE",
   "size" : 24,
   "source_file" : "/out/soong/.intermediates/hardware/interfaces/wifi/1.0/android.hardware.wifi@1.0_genc++_headers/gen/android/hardware/wifi/1.0/IWifiStaIface.h"
  },
  {
   "alignment" : 4,
   "is_const" : true,
   "linker_set_key" : "_ZTIKN7android8hardware4wifi4V1_013NanStatusTypeE",
   "name" : "const android::hardware::wifi::V1_0::NanStatusType",
   "referenced_type" : "_ZTIN7android8hardware4wifi4V1_013NanStatusTypeE",
   "self_type" : "_ZTIKN7android8hardware4wifi4V1_013NanStatusTypeE",
   "size" : 4,
   "source_file" : "/out/soong/.intermediates/hardware/interfaces/wifi/1.0/android.hardware.wifi@1.0_genc++_headers/gen/android/hardware/wifi/1.0/types.h"
  },
  {
   "alignment" : 4,
   "is_const" : true,
   "linker_set_key" : "_ZTIKN7android8hardware4wifi4V1_013StaScanLimitsE",
   "name" : "const android::hardware::wifi::V1_0::StaScanLimits",
   "referenced_type" : "_ZTIN7android8hardware4wifi4V1_013StaScanLimitsE",
   "self_type" : "_ZTIKN7android8hardware4wifi4V1_013StaScanLimitsE",
   "size" : 4,
   "source_file" : "/out/soong/.intermediates/hardware/interfaces/wifi/1.0/android.hardware.wifi@1.0_genc++_headers/gen/android/hardware/wifi/1.0/types.h"
  },
  {
   "alignment" : 8,
   "is_const" : true,
   "linker_set_key" : "_ZTIKN7android8hardware4wifi4V1_013StaScanResultE",
   "name" : "const android::hardware::wifi::V1_0::StaScanResult",
   "referenced_type" : "_ZTIN7android8hardware4wifi4V1_013StaScanResultE",
   "self_type" : "_ZTIKN7android8hardware4wifi4V1_013StaScanResultE",
   "size" : 64,
   "source_file" : "/system/libhidl/base/include/hidl/HidlInternal.h"
  },
  {
   "alignment" : 4,
   "is_const" : true,
   "linker_set_key" : "_ZTIKN7android8hardware4wifi4V1_014NanPublishTypeE",
   "name" : "const android::hardware::wifi::V1_0::NanPublishType",
   "referenced_type" : "_ZTIN7android8hardware4wifi4V1_014NanPublishTypeE",
   "self_type" : "_ZTIKN7android8hardware4wifi4V1_014NanPublishTypeE",
   "size" : 4,
   "source_file" : "/out/soong/.intermediates/hardware/interfaces/wifi/1.0/android.hardware.wifi@1.0_genc++_headers/gen/android/hardware/wifi/1.0/types.h"
  },
  {
   "alignment" : 4,
   "is_const" : true,
   "linker_set_key" : "_ZTIKN7android8hardware4wifi4V1_014WifiStatusCodeE",
   "name" : "const android::hardware::wifi::V1_0::WifiStatusCode",
   "referenced_type" : "_ZTIN7android8hardware4wifi4V1_014WifiStatusCodeE",
   "self_type" : "_ZTIKN7android8hardware4wifi4V1_014WifiStatusCodeE",
   "size" : 4,
   "source_file" : "/out/soong/.intermediates/hardware/interfaces/wifi/1.0/android.hardware.wifi@1.0_genc++_headers/gen/android/hardware/wifi/1.0/types.h"
  },
  {
   "alignment" : 8,
   "is_const" : true,
   "linker_set_key" : "_ZTIKN7android8hardware4wifi4V1_015BpHwWifiApIfaceE",
   "name" : "const android::hardware::wifi::V1_0::BpHwWifiApIface",
   "referenced_type" : "_ZTIN7android8hardware4wifi4V1_015BpHwWifiApIfaceE",
   "self_type" : "_ZTIKN7android8hardware4wifi4V1_015BpHwWifiApIfaceE",
   "size" : 216,
   "source_file" : "/out/soong/.intermediates/hardware/interfaces/wifi/1.0/android.hardware.wifi@1.0_genc++_headers/gen/android/hardware/wifi/1.0/BpHwWifiApIface.h"
  },
  {
   "alignment" : 1,
   "is_const" : true,
   "linker_set_key" : "_ZTIKN7android8hardware4wifi4V1_015StaRoamingStateE",
   "name" : "const android::hardware::wifi::V1_0::StaRoamingState",
   "referenced_type" : "_ZTIN7android8hardware4wifi4V1_015StaRoamingStateE",
   "self_type" : "_ZTIKN7android8hardware4wifi4V1_015StaRoamingStateE",
   "size" : 1,
   "source_file" : "/out/soong/.intermediates/hardware/interfaces/wifi/1.0/android.hardware.wifi@1.0_genc++_headers/gen/android/hardware/wifi/1.0/types.h"
  },
  {
   "alignment" : 8,
   "is_const" : true,
   "linker_set_key" : "_ZTIKN7android8hardware4wifi4V1_016BpHwWifiNanIfaceE",
   "name" : "const android::hardware::wifi::V1_0::BpHwWifiNanIface",
   "referenced_type" : "_ZTIN7android8hardware4wifi4V1_016BpHwWifiNanIfaceE",
   "self_type" : "_ZTIKN7android8hardware4wifi4V1_016BpHwWifiNanIfaceE",
   "size" : 216,
   "source_file" : "/out/soong/.intermediates/hardware/interfaces/wifi/1.0/android.hardware.wifi@1.0_genc++_headers/gen/android/hardware/wifi/1.0/BpHwWifiNanIface.h"
  },
  {
   "alignment" : 8,
   "is_const" : true,
   "linker_set_key" : "_ZTIKN7android8hardware4wifi4V1_016BpHwWifiP2pIfaceE",
   "name" : "const android::hardware::wifi::V1_0::BpHwWifiP2pIface",
   "referenced_type" : "_ZTIN7android8hardware4wifi4V1_016BpHwWifiP2pIfaceE",
   "self_type" : "_ZTIKN7android8hardware4wifi4V1_016BpHwWifiP2pIfaceE",
   "size" : 216,
   "source_file" : "/out/soong/.intermediates/hardware/interfaces/wifi/1.0/android.hardware.wifi@1.0_genc++_headers/gen/android/hardware/wifi/1.0/BpHwWifiP2pIface.h"
  },
  {
   "alignment" : 8,
   "is_const" : true,
   "linker_set_key" : "_ZTIKN7android8hardware4wifi4V1_016BpHwWifiStaIfaceE",
   "name" : "const android::hardware::wifi::V1_0::BpHwWifiStaIface",
   "referenced_type" : "_ZTIN7android8hardware4wifi4V1_016BpHwWifiStaIfaceE",
   "self_type" : "_ZTIKN7android8hardware4wifi4V1_016BpHwWifiStaIfaceE",
   "size" : 216,
   "source_file" : "/out/soong/.intermediates/hardware/interfaces/wifi/1.0/android.hardware.wifi@1.0_genc++_headers/gen/android/hardware/wifi/1.0/BpHwWifiStaIface.h"
  },
  {
   "alignment" : 4,
   "is_const" : true,
   "linker_set_key" : "_ZTIKN7android8hardware4wifi4V1_016NanSubscribeTypeE",
   "name" : "const android::hardware::wifi::V1_0::NanSubscribeType",
   "referenced_type" : "_ZTIN7android8hardware4wifi4V1_016NanSubscribeTypeE",
   "self_type" : "_ZTIKN7android8hardware4wifi4V1_016NanSubscribeTypeE",
   "size" : 4,
   "source_file" : "/out/soong/.intermediates/hardware/interfaces/wifi/1.0/android.hardware.wifi@1.0_genc++_headers/gen/android/hardware/wifi/1.0/types.h"
  },
  {
   "alignment" : 4,
   "is_const" : true,
   "linker_set_key" : "_ZTIKN7android8hardware4wifi4V1_016RttMotionPatternE",
   "name" : "const android::hardware::wifi::V1_0::RttMotionPattern",
   "referenced_type" : "_ZTIN7android8hardware4wifi4V1_016RttMotionPatternE",
   "self_type" : "_ZTIKN7android8hardware4wifi4V1_016RttMotionPatternE",
   "size" : 4,
   "source_file" : "/out/soong/.intermediates/hardware/interfaces/wifi/1.0/android.hardware.wifi@1.0_genc++_headers/gen/android/hardware/wifi/1.0/types.h"
  },
  {
   "alignment" : 4,
   "is_const" : true,
   "linker_set_key" : "_ZTIKN7android8hardware4wifi4V1_016WifiRatePreambleE",
   "name" : "const android::hardware::wifi::V1_0::WifiRatePreamble",
   "referenced_type" : "_ZTIN7android8hardware4wifi4V1_016WifiRatePreambleE",
   "self_type" : "_ZTIKN7android8hardware4wifi4V1_016WifiRatePreambleE",
   "size" : 4,
   "source_file" : "/out/soong/.intermediates/hardware/interfaces/wifi/1.0/android.hardware.wifi@1.0_genc++_headers/gen/android/hardware/wifi/1.0/types.h"
  },
  {
   "alignment" : 8,
   "is_const" : true,
   "linker_set_key" : "_ZTIKN7android8hardware4wifi4V1_018IWifiEventCallbackE",
   "name" : "const android::hardware::wifi::V1_0::IWifiEventCallback",
   "referenced_type" : "_ZTIN7android8hardware4wifi4V1_018IWifiEventCallbackE",
   "self_type" : "_ZTIKN7android8hardware4wifi4V1_018IWifiEventCallbackE",
   "size" : 24,
   "source_file" : "/out/soong/.intermediates/hardware/interfaces/wifi/1.0/android.hardware.wifi@1.0_genc++_headers/gen/android/hardware/wifi/1.0/IWifiEventCallback.h"
  },
  {
   "alignment" : 8,
   "is_const" : true,
   "linker_set_key" : "_ZTIKN7android8hardware4wifi4V1_018IWifiRttControllerE",
   "name" : "const android::hardware::wifi::V1_0::IWifiRttController",
   "referenced_type" : "_ZTIN7android8hardware4wifi4V1_018IWifiRttControllerE",
   "self_type" : "_ZTIKN7android8hardware4wifi4V1_018IWifiRttControllerE",
   "size" : 24,
   "source_file" : "/out/soong/.intermediates/hardware/interfaces/wifi/1.0/android.hardware.wifi@1.0_genc++_headers/gen/android/hardware/wifi/1.0/IWifiRttController.h"
  },
  {
   "alignment" : 4,
   "is_const" : true,
   "linker_set_key" : "_ZTIKN7android8hardware4wifi4V1_018NanCipherSuiteTypeE",
   "name" : "const android::hardware::wifi::V1_0::NanCipherSuiteType",
   "referenced_type" : "_ZTIN7android8hardware4wifi4V1_018NanCipherSuiteTypeE",
   "self_type" : "_ZTIKN7android8hardware4wifi4V1_018NanCipherSuiteTypeE",
   "size" : 4,
   "source_file" : "/out/soong/.intermediates/hardware/interfaces/wifi/1.0/android.hardware.wifi@1.0_genc++_headers/gen/android/hardware/wifi/1.0/types.h"
  },
  {
   "alignment" : 4,
   "is_const" : true,
   "linker_set_key" : "_ZTIKN7android8hardware4wifi4V1_018NanParamSizeLimitsE",
   "name" : "const android::hardware::wifi::V1_0::NanParamSizeLimits",
   "referenced_type" : "_ZTIN7android8hardware4wifi4V1_018NanParamSizeLimitsE",
   "self_type" : "_ZTIKN7android8hardware4wifi4V1_018NanParamSizeLimitsE",
   "size" : 4,
   "source_file" : "/out/soong/.intermediates/hardware/interfaces/wifi/1.0/android.hardware.wifi@1.0_genc++_headers/gen/android/hardware/wifi/1.0/types.h"
  },
  {
   "alignment" : 4,
   "is_const" : true,
   "linker_set_key" : "_ZTIKN7android8hardware4wifi4V1_019NanClusterEventTypeE",
   "name" : "const android::hardware::wifi::V1_0::NanClusterEventType",
   "referenced_type" : "_ZTIN7android8hardware4wifi4V1_019NanClusterEventTypeE",
   "self_type" : "_ZTIKN7android8hardware4wifi4V1_019NanClusterEventTypeE",
   "size" : 4,
   "source_file" : "/out/soong/.intermediates/hardware/interfaces/wifi/1.0/android.hardware.wifi@1.0_genc++_headers/gen/android/hardware/wifi/1.0/types.h"
  },
  {
   "alignment" : 4,
   "is_const" : true,
   "linker_set_key" : "_ZTIKN7android8hardware4wifi4V1_019StaScanDataFlagMaskE",
   "name" : "const android::hardware::wifi::V1_0::StaScanDataFlagMask",
   "referenced_type" : "_ZTIN7android8hardware4wifi4V1_019StaScanDataFlagMaskE",
   "self_type" : "_ZTIKN7android8hardware4wifi4V1_019StaScanDataFlagMaskE",
   "size" : 4,
   "source_file" : "/out/soong/.intermediates/hardware/interfaces/wifi/1.0/android.hardware.wifi@1.0_genc++_headers/gen/android/hardware/wifi/1.0/types.h"
  },
  {
   "alignment" : 4,
   "is_const" : true,
   "linker_set_key" : "_ZTIKN7android8hardware4wifi4V1_020NanRangingIndicationE",
   "name" : "const android::hardware::wifi::V1_0::NanRangingIndication",
   "referenced_type" : "_ZTIN7android8hardware4wifi4V1_020NanRangingIndicationE",
   "self_type" : "_ZTIKN7android8hardware4wifi4V1_020NanRangingIndicationE",
   "size" : 4,
   "source_file" : "/out/soong/.intermediates/hardware/interfaces/wifi/1.0/android.hardware.wifi@1.0_genc++_headers/gen/android/hardware/wifi/1.0/types.h"
  },
  {
   "alignment" : 8,
   "is_const" : true,
   "linker_set_key" : "_ZTIKN7android8hardware4wifi4V1_021BpHwWifiEventCallbackE",
   "name" : "const android::hardware::wifi::V1_0::BpHwWifiEventCallback",
   "referenced_type" : "_ZTIN7android8hardware4wifi4V1_021BpHwWifiEventCallbackE",
   "self_type" : "_ZTIKN7android8hardware4wifi4V1_021BpHwWifiEventCallbackE",
   "size" : 216,
   "source_file" : "/out/soong/.intermediates/hardware/interfaces/wifi/1.0/android.hardware.wifi@1.0_genc++_headers/gen/android/hardware/wifi/1.0/BpHwWifiEventCallback.h"
  },
  {
   "alignment" : 8,
   "is_const" : true,
   "linker_set_key" : "_ZTIKN7android8hardware4wifi4V1_021BpHwWifiRttControllerE",
   "name" : "const android::hardware::wifi::V1_0::BpHwWifiRttController",
   "referenced_type" : "_ZTIN7android8hardware4wifi4V1_021BpHwWifiRttControllerE",
   "self_type" : "_ZTIKN7android8hardware4wifi4V1_021BpHwWifiRttControllerE",
   "size" : 216,
   "source_file" : "/out/soong/.intermediates/hardware/interfaces/wifi/1.0/android.hardware.wifi@1.0_genc++_headers/gen/android/hardware/wifi/1.0/BpHwWifiRttController.h"
  },
  {
   "alignment" : 2,
   "is_const" : true,
   "linker_set_key" : "_ZTIKN7android8hardware4wifi4V1_021NanBandSpecificConfigE",
   "name" : "const android::hardware::wifi::V1_0::NanBandSpecificConfig",
   "referenced_type" : "_ZTIN7android8hardware4wifi4V1_021NanBandSpecificConfigE",
   "self_type" : "_ZTIKN7android8hardware4wifi4V1_021NanBandSpecificConfigE",
   "size" : 8,
   "source_file" : "/system/libhidl/base/include/hidl/HidlSupport.h"
  },
  {
   "alignment" : 4,
   "is_const" : true,
   "linker_set_key" : "_ZTIKN7android8hardware4wifi4V1_021NanDataPathChannelCfgE",
   "name" : "const android::hardware::wifi::V1_0::NanDataPathChannelCfg",
   "referenced_type" : "_ZTIN7android8hardware4wifi4V1_021NanDataPathChannelCfgE",
   "self_type" : "_ZTIKN7android8hardware4wifi4V1_021NanDataPathChannelCfgE",
   "size" : 4,
   "source_file" : "/out/soong/.intermediates/hardware/interfaces/wifi/1.0/android.hardware.wifi@1.0_genc++_headers/gen/android/hardware/wifi/1.0/types.h"
  },
  {
   "alignment" : 4,
   "is_const" : true,
   "linker_set_key" : "_ZTIKN7android8hardware4wifi4V1_021WifiChannelWidthInMhzE",
   "name" : "const android::hardware::wifi::V1_0::WifiChannelWidthInMhz",
   "referenced_type" : "_ZTIN7android8hardware4wifi4V1_021WifiChannelWidthInMhzE",
   "self_type" : "_ZTIKN7android8hardware4wifi4V1_021WifiChannelWidthInMhzE",
   "size" : 4,
   "source_file" : "/out/soong/.intermediates/hardware/interfaces/wifi/1.0/android.hardware.wifi@1.0_genc++_headers/gen/android/hardware/wifi/1.0/types.h"
  },
  {
   "alignment" : 4,
   "is_const" : true,
   "linker_set_key" : "_ZTIKN7android8hardware4wifi4V1_021WifiDebugRxPacketFateE",
   "name" : "const android::hardware::wifi::V1_0::WifiDebugRxPacketFate",
   "referenced_type" : "_ZTIN7android8hardware4wifi4V1_021WifiDebugRxPacketFateE",
   "self_type" : "_ZTIKN7android8hardware4wifi4V1_021WifiDebugRxPacketFateE",
   "size" : 4,
   "source_file" : "/out/soong/.intermediates/hardware/interfaces/wifi/1.0/android.hardware.wifi@1.0_genc++_headers/gen/android/hardware/wifi/1.0/types.h"
  },
  {
   "alignment" : 4,
   "is_const" : true,
   "linker_set_key" : "_ZTIKN7android8hardware4wifi4V1_021WifiDebugTxPacketFateE",
   "name" : "const android::hardware::wifi::V1_0::WifiDebugTxPacketFate",
   "referenced_type" : "_ZTIN7android8hardware4wifi4V1_021WifiDebugTxPacketFateE",
   "self_type" : "_ZTIKN7android8hardware4wifi4V1_021WifiDebugTxPacketFateE",
   "size" : 4,
   "source_file" : "/out/soong/.intermediates/hardware/interfaces/wifi/1.0/android.hardware.wifi@1.0_genc++_headers/gen/android/hardware/wifi/1.0/types.h"
  },
  {
   "alignment" : 8,
   "is_const" : true,
   "linker_set_key" : "_ZTIKN7android8hardware4wifi4V1_022IWifiChipEventCallbackE",
   "name" : "const android::hardware::wifi::V1_0::IWifiChipEventCallback",
   "referenced_type" : "_ZTIN7android8hardware4wifi4V1_022IWifiChipEventCallbackE",
   "self_type" : "_ZTIKN7android8hardware4wifi4V1_022IWifiChipEventCallbackE",
   "size" : 24,
   "source_file" : "/out/soong/.intermediates/hardware/interfaces/wifi/1.0/android.hardware.wifi@1.0_genc++_headers/gen/android/hardware/wifi/1.0/IWifiChipEventCallback.h"
  },
  {
   "alignment" : 8,
   "is_const" : true,
   "linker_set_key" : "_ZTIKN7android8hardware4wifi4V1_022StaLinkLayerRadioStatsE",
   "name" : "const android::hardware::wifi::V1_0::StaLinkLayerRadioStats",
   "referenced_type" : "_ZTIN7android8hardware4wifi4V1_022StaLinkLayerRadioStatsE",
   "self_type" : "_ZTIKN7android8hardware4wifi4V1_022StaLinkLayerRadioStatsE",
   "size" : 32,
   "source_file" : "/system/libhidl/base/include/hidl/HidlInternal.h"
  },
  {
   "alignment" : 8,
   "is_const" : true,
   "linker_set_key" : "_ZTIKN7android8hardware4wifi4V1_022WifiInformationElementE",
   "name" : "const android::hardware::wifi::V1_0::WifiInformationElement",
   "referenced_type" : "_ZTIN7android8hardware4wifi4V1_022WifiInformationElementE",
   "self_type" : "_ZTIKN7android8hardware4wifi4V1_022WifiInformationElementE",
   "size" : 24,
   "source_file" : "/system/libhidl/base/include/hidl/HidlInternal.h"
  },
  {
   "alignment" : 4,
   "is_const" : true,
   "linker_set_key" : "_ZTIKN7android8hardware4wifi4V1_023NanDataPathSecurityTypeE",
   "name" : "const android::hardware::wifi::V1_0::NanDataPathSecurityType",
   "referenced_type" : "_ZTIN7android8hardware4wifi4V1_023NanDataPathSecurityTypeE",
   "self_type" : "_ZTIKN7android8hardware4wifi4V1_023NanDataPathSecurityTypeE",
   "size" : 4,
   "source_file" : "/out/soong/.intermediates/hardware/interfaces/wifi/1.0/android.hardware.wifi@1.0_genc++_headers/gen/android/hardware/wifi/1.0/types.h"
  },
  {
   "alignment" : 4,
   "is_const" : true,
   "linker_set_key" : "_ZTIKN7android8hardware4wifi4V1_024WifiDebugRingBufferFlagsE",
   "name" : "const android::hardware::wifi::V1_0::WifiDebugRingBufferFlags",
   "referenced_type" : "_ZTIN7android8hardware4wifi4V1_024WifiDebugRingBufferFlagsE",
   "self_type" : "_ZTIKN7android8hardware4wifi4V1_024WifiDebugRingBufferFlagsE",
   "size" : 4,
   "source_file" : "/out/soong/.intermediates/hardware/interfaces/wifi/1.0/android.hardware.wifi@1.0_genc++_headers/gen/android/hardware/wifi/1.0/types.h"
  },
  {
   "alignment" : 8,
   "is_const" : true,
   "linker_set_key" : "_ZTIKN7android8hardware4wifi4V1_025BpHwWifiChipEventCallbackE",
   "name" : "const android::hardware::wifi::V1_0::BpHwWifiChipEventCallback",
   "referenced_type" : "_ZTIN7android8hardware4wifi4V1_025BpHwWifiChipEventCallbackE",
   "self_type" : "_ZTIKN7android8hardware4wifi4V1_025BpHwWifiChipEventCallbackE",
   "size" : 216,
   "source_file" : "/out/soong/.intermediates/hardware/interfaces/wifi/1.0/android.hardware.wifi@1.0_genc++_headers/gen/android/hardware/wifi/1.0/BpHwWifiChipEventCallback.h"
  },
  {
   "alignment" : 8,
   "is_const" : true,
   "linker_set_key" : "_ZTIKN7android8hardware4wifi4V1_026IWifiNanIfaceEventCallbackE",
   "name" : "const android::hardware::wifi::V1_0::IWifiNanIfaceEventCallback",
   "referenced_type" : "_ZTIN7android8hardware4wifi4V1_026IWifiNanIfaceEventCallbackE",
   "self_type" : "_ZTIKN7android8hardware4wifi4V1_026IWifiNanIfaceEventCallbackE",
   "size" : 24,
   "source_file" : "/out/soong/.intermediates/hardware/interfaces/wifi/1.0/android.hardware.wifi@1.0_genc++_headers/gen/android/hardware/wifi/1.0/IWifiNanIfaceEventCallback.h"
  },
  {
   "alignment" : 8,
   "is_const" : true,
   "linker_set_key" : "_ZTIKN7android8hardware4wifi4V1_026IWifiStaIfaceEventCallbackE",
   "name" : "const android::hardware::wifi::V1_0::IWifiStaIfaceEventCallback",
   "referenced_type" : "_ZTIN7android8hardware4wifi4V1_026IWifiStaIfaceEventCallbackE",
   "self_type" : "_ZTIKN7android8hardware4wifi4V1_026IWifiStaIfaceEventCallbackE",
   "size" : 24,
   "source_file" : "/out/soong/.intermediates/hardware/interfaces/wifi/1.0/android.hardware.wifi@1.0_genc++_headers/gen/android/hardware/wifi/1.0/IWifiStaIfaceEventCallback.h"
  },
  {
   "alignment" : 4,
   "is_const" : true,
   "linker_set_key" : "_ZTIKN7android8hardware4wifi4V1_028WifiDebugPacketFateFrameTypeE",
   "name" : "const android::hardware::wifi::V1_0::WifiDebugPacketFateFrameType",
   "referenced_type" : "_ZTIN7android8hardware4wifi4V1_028WifiDebugPacketFateFrameTypeE",
   "self_type" : "_ZTIKN7android8hardware4wifi4V1_028WifiDebugPacketFateFrameTypeE",
   "size" : 4,
   "source_file" : "/out/soong/.intermediates/hardware/interfaces/wifi/1.0/android.hardware.wifi@1.0_genc++_headers/gen/android/hardware/wifi/1.0/types.h"
  },
  {
   "alignment" : 8,
   "is_const" : true,
   "linker_set_key" : "_ZTIKN7android8hardware4wifi4V1_029BpHwWifiNanIfaceEventCallbackE",
   "name" : "const android::hardware::wifi::V1_0::BpHwWifiNanIfaceEventCallback",
   "referenced_type" : "_ZTIN7android8hardware4wifi4V1_029BpHwWifiNanIfaceEventCallbackE",
   "self_type" : "_ZTIKN7android8hardware4wifi4V1_029BpHwWifiNanIfaceEventCallbackE",
   "size" : 216,
   "source_file" : "/out/soong/.intermediates/hardware/interfaces/wifi/1.0/android.hardware.wifi@1.0_genc++_headers/gen/android/hardware/wifi/1.0/BpHwWifiNanIfaceEventCallback.h"
  },
  {
   "alignment" : 8,
   "is_const" : true,
   "linker_set_key" : "_ZTIKN7android8hardware4wifi4V1_029BpHwWifiStaIfaceEventCallbackE",
   "name" : "const android::hardware::wifi::V1_0::BpHwWifiStaIfaceEventCallback",
   "referenced_type" : "_ZTIN7android8hardware4wifi4V1_029BpHwWifiStaIfaceEventCallbackE",
   "self_type" : "_ZTIKN7android8hardware4wifi4V1_029BpHwWifiStaIfaceEventCallbackE",
   "size" : 216,
   "source_file" : "/out/soong/.intermediates/hardware/interfaces/wifi/1.0/android.hardware.wifi@1.0_genc++_headers/gen/android/hardware/wifi/1.0/BpHwWifiStaIfaceEventCallback.h"
  },
  {
   "alignment" : 8,
   "is_const" : true,
   "linker_set_key" : "_ZTIKN7android8hardware4wifi4V1_031IWifiRttControllerEventCallbackE",
   "name" : "const android::hardware::wifi::V1_0::IWifiRttControllerEventCallback",
   "referenced_type" : "_ZTIN7android8hardware4wifi4V1_031IWifiRttControllerEventCallbackE",
   "self_type" : "_ZTIKN7android8hardware4wifi4V1_031IWifiRttControllerEventCallbackE",
   "size" : 24,
   "source_file" : "/out/soong/.intermediates/hardware/interfaces/wifi/1.0/android.hardware.wifi@1.0_genc++_headers/gen/android/hardware/wifi/1.0/IWifiRttControllerEventCallback.h"
  },
  {
   "alignment" : 4,
   "is_const" : true,
   "linker_set_key" : "_ZTIKN7android8hardware4wifi4V1_031WifiDebugRingBufferVerboseLevelE",
   "name" : "const android::hardware::wifi::V1_0::WifiDebugRingBufferVerboseLevel",
   "referenced_type" : "_ZTIN7android8hardware4wifi4V1_031WifiDebugRingBufferVerboseLevelE",
   "self_type" : "_ZTIKN7android8hardware4wifi4V1_031WifiDebugRingBufferVerboseLevelE",
   "size" : 4,
   "source_file" : "/out/soong/.intermediates/hardware/interfaces/wifi/1.0/android.hardware.wifi@1.0_genc++_headers/gen/android/hardware/wifi/1.0/types.h"
  },
  {
   "alignment" : 8,
   "is_const" : true,
   "linker_set_key" : "_ZTIKN7android8hardware4wifi4V1_033StaBackgroundScanBucketParametersE",
   "name" : "const android::hardware::wifi::V1_0::StaBackgroundScanBucketParameters",
   "referenced_type" : "_ZTIN7android8hardware4wifi4V1_033StaBackgroundScanBucketParametersE",
   "self_type" : "_ZTIKN7android8hardware4wifi4V1_033StaBackgroundScanBucketParametersE",
   "size" : 48,
   "source_file" : "/system/libhidl/base/include/hidl/HidlInternal.h"
  },
  {
   "alignment" : 8,
   "is_const" : true,
   "linker_set_key" : "_ZTIKN7android8hardware4wifi4V1_034BpHwWifiRttControllerEventCallbackE",
   "name" : "const android::hardware::wifi::V1_0::BpHwWifiRttControllerEventCallback",
   "referenced_type" : "_ZTIN7android8hardware4wifi4V1_034BpHwWifiRttControllerEventCallbackE",
   "self_type" : "_ZTIKN7android8hardware4wifi4V1_034BpHwWifiRttControllerEventCallbackE",
   "size" : 216,
   "source_file" : "/out/soong/.intermediates/hardware/interfaces/wifi/1.0/android.hardware.wifi@1.0_genc++_headers/gen/android/hardware/wifi/1.0/BpHwWifiRttControllerEventCallback.h"
  },
  {
   "alignment" : 4,
   "is_const" : true,
   "linker_set_key" : "_ZTIKN7android8hardware4wifi4V1_044StaBackgroundScanBucketEventReportSchemeMaskE",
   "name" : "const android::hardware::wifi::V1_0::StaBackgroundScanBucketEventReportSchemeMask",
   "referenced_type" : "_ZTIN7android8hardware4wifi4V1_044StaBackgroundScanBucketEventReportSchemeMaskE",
   "self_type" : "_ZTIKN7android8hardware4wifi4V1_044StaBackgroundScanBucketEventReportSchemeMaskE",
   "size" : 4,
   "source_file" : "/out/soong/.intermediates/hardware/interfaces/wifi/1.0/android.hardware.wifi@1.0_genc++_headers/gen/android/hardware/wifi/1.0/types.h"
  },
  {
   "alignment" : 8,
   "is_const" : true,
   "linker_set_key" : "_ZTIKN7android8hardware4wifi4V1_05IWifiE",
   "name" : "const android::hardware::wifi::V1_0::IWifi",
   "referenced_type" : "_ZTIN7android8hardware4wifi4V1_05IWifiE",
   "self_type" : "_ZTIKN7android8hardware4wifi4V1_05IWifiE",
   "size" : 24,
   "source_file" : "/out/soong/.intermediates/hardware/interfaces/wifi/1.0/android.hardware.wifi@1.0_genc++_headers/gen/android/hardware/wifi/1.0/IWifi.h"
  },
  {
   "alignment" : 4,
   "is_const" : true,
   "linker_set_key" : "_ZTIKN7android8hardware4wifi4V1_05RttBwE",
   "name" : "const android::hardware::wifi::V1_0::RttBw",
   "referenced_type" : "_ZTIN7android8hardware4wifi4V1_05RttBwE",
   "self_type" : "_ZTIKN7android8hardware4wifi4V1_05RttBwE",
   "size" : 4,
   "source_file" : "/out/soong/.intermediates/hardware/interfaces/wifi/1.0/android.hardware.wifi@1.0_genc++_headers/gen/android/hardware/wifi/1.0/types.h"
  },
  {
   "alignment" : 4,
   "is_const" : true,
   "linker_set_key" : "_ZTIKN7android8hardware4wifi4V1_07RttTypeE",
   "name" : "const android::hardware::wifi::V1_0::RttType",
   "referenced_type" : "_ZTIN7android8hardware4wifi4V1_07RttTypeE",
   "self_type" : "_ZTIKN7android8hardware4wifi4V1_07RttTypeE",
   "size" : 4,
   "source_file" : "/out/soong/.intermediates/hardware/interfaces/wifi/1.0/android.hardware.wifi@1.0_genc++_headers/gen/android/hardware/wifi/1.0/types.h"
  },
  {
   "alignment" : 8,
   "is_const" : true,
   "linker_set_key" : "_ZTIKN7android8hardware4wifi4V1_08BpHwWifiE",
   "name" : "const android::hardware::wifi::V1_0::BpHwWifi",
   "referenced_type" : "_ZTIN7android8hardware4wifi4V1_08BpHwWifiE",
   "self_type" : "_ZTIKN7android8hardware4wifi4V1_08BpHwWifiE",
   "size" : 216,
   "source_file" : "/out/soong/.intermediates/hardware/interfaces/wifi/1.0/android.hardware.wifi@1.0_genc++_headers/gen/android/hardware/wifi/1.0/BpHwWifi.h"
  },
  {
   "alignment" : 4,
   "is_const" : true,
   "linker_set_key" : "_ZTIKN7android8hardware4wifi4V1_08WifiBandE",
   "name" : "const android::hardware::wifi::V1_0::WifiBand",
   "referenced_type" : "_ZTIN7android8hardware4wifi4V1_08WifiBandE",
   "self_type" : "_ZTIKN7android8hardware4wifi4V1_08WifiBandE",
   "size" : 4,
   "source_file" : "/out/soong/.intermediates/hardware/interfaces/wifi/1.0/android.hardware.wifi@1.0_genc++_headers/gen/android/hardware/wifi/1.0/types.h"
  },
  {
   "alignment" : 4,
   "is_const" : true,
   "linker_set_key" : "_ZTIKN7android8hardware4wifi4V1_09IWifiChip18ChipCapabilityMaskE",
   "name" : "const android::hardware::wifi::V1_0::IWifiChip::ChipCapabilityMask",
   "referenced_type" : "_ZTIN7android8hardware4wifi4V1_09IWifiChip18ChipCapabilityMaskE",
   "self_type" : "_ZTIKN7android8hardware4wifi4V1_09IWifiChip18ChipCapabilityMaskE",
   "size" : 4,
   "source_file" : "/out/soong/.intermediates/hardware/interfaces/wifi/1.0/android.hardware.wifi@1.0_genc++_headers/gen/android/hardware/wifi/1.0/IWifiChip.h"
  },
  {
   "alignment" : 8,
   "is_const" : true,
   "linker_set_key" : "_ZTIKN7android8hardware4wifi4V1_09IWifiChip20ChipIfaceCombinationE",
   "name" : "const android::hardware::wifi::V1_0::IWifiChip::ChipIfaceCombination",
   "referenced_type" : "_ZTIN7android8hardware4wifi4V1_09IWifiChip20ChipIfaceCombinationE",
   "self_type" : "_ZTIKN7android8hardware4wifi4V1_09IWifiChip20ChipIfaceCombinationE",
   "size" : 16,
   "source_file" : "/system/libhidl/base/include/hidl/HidlInternal.h"
  },
  {
   "alignment" : 8,
   "is_const" : true,
   "linker_set_key" : "_ZTIKN7android8hardware4wifi4V1_09IWifiChip25ChipIfaceCombinationLimitE",
   "name" : "const android::hardware::wifi::V1_0::IWifiChip::ChipIfaceCombinationLimit",
   "referenced_type" : "_ZTIN7android8hardware4wifi4V1_09IWifiChip25ChipIfaceCombinationLimitE",
   "self_type" : "_ZTIKN7android8hardware4wifi4V1_09IWifiChip25ChipIfaceCombinationLimitE",
   "size" : 24,
   "source_file" : "/system/libhidl/base/include/hidl/HidlInternal.h"
  },
  {
   "alignment" : 8,
   "is_const" : true,
   "linker_set_key" : "_ZTIKN7android8hardware4wifi4V1_09IWifiChipE",
   "name" : "const android::hardware::wifi::V1_0::IWifiChip",
   "referenced_type" : "_ZTIN7android8hardware4wifi4V1_09IWifiChipE",
   "self_type" : "_ZTIKN7android8hardware4wifi4V1_09IWifiChipE",
   "size" : 24,
   "source_file" : "/out/soong/.intermediates/hardware/interfaces/wifi/1.0/android.hardware.wifi@1.0_genc++_headers/gen/android/hardware/wifi/1.0/IWifiChip.h"
  },
  {
   "alignment" : 4,
   "is_const" : true,
   "linker_set_key" : "_ZTIKN7android8hardware4wifi4V1_09IfaceTypeE",
   "name" : "const android::hardware::wifi::V1_0::IfaceType",
   "referenced_type" : "_ZTIN7android8hardware4wifi4V1_09IfaceTypeE",
   "self_type" : "_ZTIKN7android8hardware4wifi4V1_09IfaceTypeE",
   "size" : 4,
   "source_file" : "/system/libhidl/base/include/hidl/HidlInternal.h"
  },
  {
   "alignment" : 4,
   "is_const" : true,
   "linker_set_key" : "_ZTIKN7android8hardware4wifi4V1_09NanTxTypeE",
   "name" : "const android::hardware::wifi::V1_0::NanTxType",
   "referenced_type" : "_ZTIN7android8hardware4wifi4V1_09NanTxTypeE",
   "self_type" : "_ZTIKN7android8hardware4wifi4V1_09NanTxTypeE",
   "size" : 4,
   "source_file" : "/out/soong/.intermediates/hardware/interfaces/wifi/1.0/android.hardware.wifi@1.0_genc++_headers/gen/android/hardware/wifi/1.0/types.h"
  },
  {
   "alignment" : 4,
   "is_const" : true,
   "linker_set_key" : "_ZTIKN7android8hardware4wifi4V1_09RttStatusE",
   "name" : "const android::hardware::wifi::V1_0::RttStatus",
   "referenced_type" : "_ZTIN7android8hardware4wifi4V1_09RttStatusE",
   "self_type" : "_ZTIKN7android8hardware4wifi4V1_09RttStatusE",
   "size" : 4,
   "source_file" : "/out/soong/.intermediates/hardware/interfaces/wifi/1.0/android.hardware.wifi@1.0_genc++_headers/gen/android/hardware/wifi/1.0/types.h"
  },
  {
   "alignment" : 8,
   "is_const" : true,
   "linker_set_key" : "_ZTIKN7android8hardware4wifi4V1_112BpHwWifiChipE",
   "name" : "const android::hardware::wifi::V1_1::BpHwWifiChip",
   "referenced_type" : "_ZTIN7android8hardware4wifi4V1_112BpHwWifiChipE",
   "self_type" : "_ZTIKN7android8hardware4wifi4V1_112BpHwWifiChipE",
   "size" : 216,
   "source_file" : "/out/soong/.intermediates/hardware/interfaces/wifi/1.1/android.hardware.wifi@1.1_genc++_headers/gen/android/hardware/wifi/1.1/BpHwWifiChip.h"
  },
  {
   "alignment" : 8,
   "is_const" : true,
   "linker_set_key" : "_ZTIKN7android8hardware4wifi4V1_15IWifiE",
   "name" : "const android::hardware::wifi::V1_1::IWifi",
   "referenced_type" : "_ZTIN7android8hardware4wifi4V1_15IWifiE",
   "self_type" : "_ZTIKN7android8hardware4wifi4V1_15IWifiE",
   "size" : 24,
   "source_file" : "/out/soong/.intermediates/hardware/interfaces/wifi/1.1/android.hardware.wifi@1.1_genc++_headers/gen/android/hardware/wifi/1.1/IWifi.h"
  },
  {
   "alignment" : 8,
   "is_const" : true,
   "linker_set_key" : "_ZTIKN7android8hardware4wifi4V1_18BpHwWifiE",
   "name" : "const android::hardware::wifi::V1_1::BpHwWifi",
   "referenced_type" : "_ZTIN7android8hardware4wifi4V1_18BpHwWifiE",
   "self_type" : "_ZTIKN7android8hardware4wifi4V1_18BpHwWifiE",
   "size" : 216,
   "source_file" : "/out/soong/.intermediates/hardware/interfaces/wifi/1.1/android.hardware.wifi@1.1_genc++_headers/gen/android/hardware/wifi/1.1/BpHwWifi.h"
  },
  {
   "alignment" : 4,
   "is_const" : true,
   "linker_set_key" : "_ZTIKN7android8hardware4wifi4V1_19IWifiChip15TxPowerScenarioE",
   "name" : "const android::hardware::wifi::V1_1::IWifiChip::TxPowerScenario",
   "referenced_type" : "_ZTIN7android8hardware4wifi4V1_19IWifiChip15TxPowerScenarioE",
   "self_type" : "_ZTIKN7android8hardware4wifi4V1_19IWifiChip15TxPowerScenarioE",
   "size" : 4,
   "source_file" : "/out/soong/.intermediates/hardware/interfaces/wifi/1.1/android.hardware.wifi@1.1_genc++_headers/gen/android/hardware/wifi/1.1/IWifiChip.h"
  },
  {
   "alignment" : 4,
   "is_const" : true,
   "linker_set_key" : "_ZTIKN7android8hardware4wifi4V1_19IWifiChip18ChipCapabilityMaskE",
   "name" : "const android::hardware::wifi::V1_1::IWifiChip::ChipCapabilityMask",
   "referenced_type" : "_ZTIN7android8hardware4wifi4V1_19IWifiChip18ChipCapabilityMaskE",
   "self_type" : "_ZTIKN7android8hardware4wifi4V1_19IWifiChip18ChipCapabilityMaskE",
   "size" : 4,
   "source_file" : "/out/soong/.intermediates/hardware/interfaces/wifi/1.1/android.hardware.wifi@1.1_genc++_headers/gen/android/hardware/wifi/1.1/IWifiChip.h"
  },
  {
   "alignment" : 8,
   "is_const" : true,
   "linker_set_key" : "_ZTIKN7android8hardware4wifi4V1_19IWifiChipE",
   "name" : "const android::hardware::wifi::V1_1::IWifiChip",
   "referenced_type" : "_ZTIN7android8hardware4wifi4V1_19IWifiChipE",
   "self_type" : "_ZTIKN7android8hardware4wifi4V1_19IWifiChipE",
   "size" : 24,
   "source_file" : "/out/soong/.intermediates/hardware/interfaces/wifi/1.1/android.hardware.wifi@1.1_genc++_headers/gen/android/hardware/wifi/1.1/IWifiChip.h"
  },
  {
   "alignment" : 8,
   "is_const" : true,
   "linker_set_key" : "_ZTIKN7android8hardware6ParcelE",
   "name" : "const android::hardware::Parcel",
   "referenced_type" : "_ZTIN7android8hardware6ParcelE",
   "self_type" : "_ZTIKN7android8hardware6ParcelE",
   "size" : 136,
   "source_file" : "/system/libhwbinder/include/hwbinder/Parcel.h"
  },
  {
   "alignment" : 8,
   "is_const" : true,
   "linker_set_key" : "_ZTIKN7android8hardware6ReturnINS_2spINS0_4wifi4V1_15IWifiEEEEE",
   "name" : "const android::hardware::Return<android::sp<android::hardware::wifi::V1_1::IWifi> >",
   "referenced_type" : "_ZTIN7android8hardware6ReturnINS_2spINS0_4wifi4V1_15IWifiEEEEE",
   "self_type" : "_ZTIKN7android8hardware6ReturnINS_2spINS0_4wifi4V1_15IWifiEEEEE",
   "size" : 48,
   "source_file" : "/system/libhidl/base/include/hidl/Status.h"
  },
  {
   "alignment" : 8,
   "is_const" : true,
   "linker_set_key" : "_ZTIKN7android8hardware6ReturnINS_2spINS0_4wifi4V1_19IWifiChipEEEEE",
   "name" : "const android::hardware::Return<android::sp<android::hardware::wifi::V1_1::IWifiChip> >",
   "referenced_type" : "_ZTIN7android8hardware6ReturnINS_2spINS0_4wifi4V1_19IWifiChipEEEEE",
   "self_type" : "_ZTIKN7android8hardware6ReturnINS_2spINS0_4wifi4V1_19IWifiChipEEEEE",
   "size" : 48,
   "source_file" : "/system/libhidl/base/include/hidl/Status.h"
  },
  {
   "alignment" : 8,
   "is_const" : true,
   "linker_set_key" : "_ZTIKN7android8hardware6ReturnIbEE",
   "name" : "const android::hardware::Return<bool>",
   "referenced_type" : "_ZTIN7android8hardware6ReturnIbEE",
   "self_type" : "_ZTIKN7android8hardware6ReturnIbEE",
   "size" : 40,
   "source_file" : "/system/libhidl/base/include/hidl/Status.h"
  },
  {
   "alignment" : 8,
   "is_const" : true,
   "linker_set_key" : "_ZTIKN7android8hardware6StatusE",
   "name" : "const android::hardware::Status",
   "referenced_type" : "_ZTIN7android8hardware6StatusE",
   "self_type" : "_ZTIKN7android8hardware6StatusE",
   "size" : 32,
   "source_file" : "/system/libhidl/base/include/hidl/Status.h"
  },
  {
   "alignment" : 8,
   "is_const" : true,
   "linker_set_key" : "_ZTIKN7android8hardware7details12hidl_pointerINS0_10hidl_arrayIhLm32EJEEEEE",
   "name" : "const android::hardware::details::hidl_pointer<android::hardware::hidl_array<unsigned char, 32> >",
   "referenced_type" : "_ZTIN7android8hardware7details12hidl_pointerINS0_10hidl_arrayIhLm32EJEEEEE",
   "self_type" : "_ZTIKN7android8hardware7details12hidl_pointerINS0_10hidl_arrayIhLm32EJEEEEE",
   "size" : 8,
   "source_file" : "/system/libhidl/base/include/hidl/HidlInternal.h"
  },
  {
   "alignment" : 8,
   "is_const" : true,
   "linker_set_key" : "_ZTIKN7android8hardware7details12hidl_pointerINS0_10hidl_arrayIhLm6EJEEEEE",
   "name" : "const android::hardware::details::hidl_pointer<android::hardware::hidl_array<unsigned char, 6> >",
   "referenced_type" : "_ZTIN7android8hardware7details12hidl_pointerINS0_10hidl_arrayIhLm6EJEEEEE",
   "self_type" : "_ZTIKN7android8hardware7details12hidl_pointerINS0_10hidl_arrayIhLm6EJEEEEE",
   "size" : 8,
   "source_file" : "/system/libhidl/base/include/hidl/HidlInternal.h"
  },
  {
   "alignment" : 8,
   "is_const" : true,
   "linker_set_key" : "_ZTIKN7android8hardware7details12hidl_pointerINS0_11hidl_stringEEE",
   "name" : "const android::hardware::details::hidl_pointer<android::hardware::hidl_string>",
   "referenced_type" : "_ZTIN7android8hardware7details12hidl_pointerINS0_11hidl_stringEEE",
   "self_type" : "_ZTIKN7android8hardware7details12hidl_pointerINS0_11hidl_stringEEE",
   "size" : 8,
   "source_file" : "/system/libhidl/base/include/hidl/HidlInternal.h"
  },
  {
   "alignment" : 8,
   "is_const" : true,
   "linker_set_key" : "_ZTIKN7android8hardware7details12hidl_pointerINS0_4wifi4V1_013StaScanResultEEE",
   "name" : "const android::hardware::details::hidl_pointer<android::hardware::wifi::V1_0::StaScanResult>",
   "referenced_type" : "_ZTIN7android8hardware7details12hidl_pointerINS0_4wifi4V1_013StaScanResultEEE",
   "self_type" : "_ZTIKN7android8hardware7details12hidl_pointerINS0_4wifi4V1_013StaScanResultEEE",
   "size" : 8,
   "source_file" : "/system/libhidl/base/include/hidl/HidlInternal.h"
  },
  {
   "alignment" : 8,
   "is_const" : true,
   "linker_set_key" : "_ZTIKN7android8hardware7details12hidl_pointerINS0_4wifi4V1_022StaLinkLayerRadioStatsEEE",
   "name" : "const android::hardware::details::hidl_pointer<android::hardware::wifi::V1_0::StaLinkLayerRadioStats>",
   "referenced_type" : "_ZTIN7android8hardware7details12hidl_pointerINS0_4wifi4V1_022StaLinkLayerRadioStatsEEE",
   "self_type" : "_ZTIKN7android8hardware7details12hidl_pointerINS0_4wifi4V1_022StaLinkLayerRadioStatsEEE",
   "size" : 8,
   "source_file" : "/system/libhidl/base/include/hidl/HidlInternal.h"
  },
  {
   "alignment" : 8,
   "is_const" : true,
   "linker_set_key" : "_ZTIKN7android8hardware7details12hidl_pointerINS0_4wifi4V1_022WifiInformationElementEEE",
   "name" : "const android::hardware::details::hidl_pointer<android::hardware::wifi::V1_0::WifiInformationElement>",
   "referenced_type" : "_ZTIN7android8hardware7details12hidl_pointerINS0_4wifi4V1_022WifiInformationElementEEE",
   "self_type" : "_ZTIKN7android8hardware7details12hidl_pointerINS0_4wifi4V1_022WifiInformationElementEEE",
   "size" : 8,
   "source_file" : "/system/libhidl/base/include/hidl/HidlInternal.h"
  },
  {
   "alignment" : 8,
   "is_const" : true,
   "linker_set_key" : "_ZTIKN7android8hardware7details12hidl_pointerINS0_4wifi4V1_033StaBackgroundScanBucketParametersEEE",
   "name" : "const android::hardware::details::hidl_pointer<android::hardware::wifi::V1_0::StaBackgroundScanBucketParameters>",
   "referenced_type" : "_ZTIN7android8hardware7details12hidl_pointerINS0_4wifi4V1_033StaBackgroundScanBucketParametersEEE",
   "self_type" : "_ZTIKN7android8hardware7details12hidl_pointerINS0_4wifi4V1_033StaBackgroundScanBucketParametersEEE",
   "size" : 8,
   "source_file" : "/system/libhidl/base/include/hidl/HidlInternal.h"
  },
  {
   "alignment" : 8,
   "is_const" : true,
   "linker_set_key" : "_ZTIKN7android8hardware7details12hidl_pointerINS0_4wifi4V1_09IWifiChip20ChipIfaceCombinationEEE",
   "name" : "const android::hardware::details::hidl_pointer<android::hardware::wifi::V1_0::IWifiChip::ChipIfaceCombination>",
   "referenced_type" : "_ZTIN7android8hardware7details12hidl_pointerINS0_4wifi4V1_09IWifiChip20ChipIfaceCombinationEEE",
   "self_type" : "_ZTIKN7android8hardware7details12hidl_pointerINS0_4wifi4V1_09IWifiChip20ChipIfaceCombinationEEE",
   "size" : 8,
   "source_file" : "/system/libhidl/base/include/hidl/HidlInternal.h"
  },
  {
   "alignment" : 8,
   "is_const" : true,
   "linker_set_key" : "_ZTIKN7android8hardware7details12hidl_pointerINS0_4wifi4V1_09IWifiChip25ChipIfaceCombinationLimitEEE",
   "name" : "const android::hardware::details::hidl_pointer<android::hardware::wifi::V1_0::IWifiChip::ChipIfaceCombinationLimit>",
   "referenced_type" : "_ZTIN7android8hardware7details12hidl_pointerINS0_4wifi4V1_09IWifiChip25ChipIfaceCombinationLimitEEE",
   "self_type" : "_ZTIKN7android8hardware7details12hidl_pointerINS0_4wifi4V1_09IWifiChip25ChipIfaceCombinationLimitEEE",
   "size" : 8,
   "source_file" : "/system/libhidl/base/include/hidl/HidlInternal.h"
  },
  {
   "alignment" : 8,
   "is_const" : true,
   "linker_set_key" : "_ZTIKN7android8hardware7details12hidl_pointerINS0_4wifi4V1_09IfaceTypeEEE",
   "name" : "const android::hardware::details::hidl_pointer<android::hardware::wifi::V1_0::IfaceType>",
   "referenced_type" : "_ZTIN7android8hardware7details12hidl_pointerINS0_4wifi4V1_09IfaceTypeEEE",
   "self_type" : "_ZTIKN7android8hardware7details12hidl_pointerINS0_4wifi4V1_09IfaceTypeEEE",
   "size" : 8,
   "source_file" : "/system/libhidl/base/include/hidl/HidlInternal.h"
  },
  {
   "alignment" : 8,
   "is_const" : true,
   "linker_set_key" : "_ZTIKN7android8hardware7details12hidl_pointerIhEE",
   "name" : "const android::hardware::details::hidl_pointer<unsigned char>",
   "referenced_type" : "_ZTIN7android8hardware7details12hidl_pointerIhEE",
   "self_type" : "_ZTIKN7android8hardware7details12hidl_pointerIhEE",
   "size" : 8,
   "source_file" : "/system/libhidl/base/include/hidl/HidlInternal.h"
  },
  {
   "alignment" : 8,
   "is_const" : true,
   "linker_set_key" : "_ZTIKN7android8hardware7details12hidl_pointerIiEE",
   "name" : "const android::hardware::details::hidl_pointer<int>",
   "referenced_type" : "_ZTIN7android8hardware7details12hidl_pointerIiEE",
   "self_type" : "_ZTIKN7android8hardware7details12hidl_pointerIiEE",
   "size" : 8,
   "source_file" : "/system/libhidl/base/include/hidl/HidlInternal.h"
  },
  {
   "alignment" : 8,
   "is_const" : true,
   "linker_set_key" : "_ZTIKN7android8hardware7details12hidl_pointerIjEE",
   "name" : "const android::hardware::details::hidl_pointer<unsigned int>",
   "referenced_type" : "_ZTIN7android8hardware7details12hidl_pointerIjEE",
   "self_type" : "_ZTIKN7android8hardware7details12hidl_pointerIjEE",
   "size" : 8,
   "source_file" : "/system/libhidl/base/include/hidl/HidlInternal.h"
  },
  {
   "alignment" : 8,
   "is_const" : true,
   "linker_set_key" : "_ZTIKN7android8hardware7details13return_statusE",
   "name" : "const android::hardware::details::return_status",
   "referenced_type" : "_ZTIN7android8hardware7details13return_statusE",
   "self_type" : "_ZTIKN7android8hardware7details13return_statusE",
   "size" : 40,
   "source_file" : "/system/libhidl/base/include/hidl/Status.h"
  },
  {
   "alignment" : 8,
   "is_const" : true,
   "linker_set_key" : "_ZTIKN7android8hardware7details14const_accessorINS0_4wifi4V1_021NanBandSpecificConfigELm2EJEEE",
   "name" : "const android::hardware::details::const_accessor<android::hardware::wifi::V1_0::NanBandSpecificConfig, 2>",
   "referenced_type" : "_ZTIN7android8hardware7details14const_accessorINS0_4wifi4V1_021NanBandSpecificConfigELm2EJEEE",
   "self_type" : "_ZTIKN7android8hardware7details14const_accessorINS0_4wifi4V1_021NanBandSpecificConfigELm2EJEEE",
   "size" : 8,
   "source_file" : "/system/libhidl/base/include/hidl/HidlSupport.h"
  },
  {
   "alignment" : 8,
   "is_const" : true,
   "linker_set_key" : "_ZTIKN7android8hardware7details14const_accessorIaLm2EJEEE",
   "name" : "const android::hardware::details::const_accessor<signed char, 2>",
   "referenced_type" : "_ZTIN7android8hardware7details14const_accessorIaLm2EJEEE",
   "self_type" : "_ZTIKN7android8hardware7details14const_accessorIaLm2EJEEE",
   "size" : 8,
   "source_file" : "/system/libhidl/base/include/hidl/HidlSupport.h"
  },
  {
   "alignment" : 8,
   "is_const" : true,
   "linker_set_key" : "_ZTIKN7android8hardware7details14const_accessorIbLm2EJEEE",
   "name" : "const android::hardware::details::const_accessor<bool, 2>",
   "referenced_type" : "_ZTIN7android8hardware7details14const_accessorIbLm2EJEEE",
   "self_type" : "_ZTIKN7android8hardware7details14const_accessorIbLm2EJEEE",
   "size" : 8,
   "source_file" : "/system/libhidl/base/include/hidl/HidlSupport.h"
  },
  {
   "alignment" : 8,
   "is_const" : true,
   "linker_set_key" : "_ZTIKN7android8hardware7details14const_accessorIhLm32EJEEE",
   "name" : "const android::hardware::details::const_accessor<unsigned char, 32>",
   "referenced_type" : "_ZTIN7android8hardware7details14const_accessorIhLm32EJEEE",
   "self_type" : "_ZTIKN7android8hardware7details14const_accessorIhLm32EJEEE",
   "size" : 8,
   "source_file" : "/system/libhidl/base/include/hidl/HidlSupport.h"
  },
  {
   "alignment" : 8,
   "is_const" : true,
   "linker_set_key" : "_ZTIKN7android8hardware7details14const_accessorIhLm6EJEEE",
   "name" : "const android::hardware::details::const_accessor<unsigned char, 6>",
   "referenced_type" : "_ZTIN7android8hardware7details14const_accessorIhLm6EJEEE",
   "self_type" : "_ZTIKN7android8hardware7details14const_accessorIhLm6EJEEE",
   "size" : 8,
   "source_file" : "/system/libhidl/base/include/hidl/HidlSupport.h"
  },
  {
   "alignment" : 8,
   "is_const" : true,
   "linker_set_key" : "_ZTIKN7android8hardware7details14const_accessorIjLm2EJEEE",
   "name" : "const android::hardware::details::const_accessor<unsigned int, 2>",
   "referenced_type" : "_ZTIN7android8hardware7details14const_accessorIjLm2EJEEE",
   "self_type" : "_ZTIKN7android8hardware7details14const_accessorIjLm2EJEEE",
   "size" : 8,
   "source_file" : "/system/libhidl/base/include/hidl/HidlSupport.h"
  },
  {
   "is_const" : true,
   "linker_set_key" : "_ZTIKN7android8hardware8hidl_vec4iterIXTL0__EEE",
   "name" : "const iter<is_const>",
   "referenced_type" : "_ZTIN7android8hardware8hidl_vec4iterIXTL0__EEE",
   "self_type" : "_ZTIKN7android8hardware8hidl_vec4iterIXTL0__EEE",
   "source_file" : "/system/libhidl/base/include/hidl/HidlSupport.h"
  },
  {
   "alignment" : 8,
   "is_const" : true,
   "linker_set_key" : "_ZTIKN7android8hardware8hidl_vecINS0_10hidl_arrayIhLm32EJEEEEE",
   "name" : "const android::hardware::hidl_vec<android::hardware::hidl_array<unsigned char, 32> >",
   "referenced_type" : "_ZTIN7android8hardware8hidl_vecINS0_10hidl_arrayIhLm32EJEEEEE",
   "self_type" : "_ZTIKN7android8hardware8hidl_vecINS0_10hidl_arrayIhLm32EJEEEEE",
   "size" : 16,
   "source_file" : "/system/libhidl/base/include/hidl/HidlSupport.h"
  },
  {
   "alignment" : 8,
   "is_const" : true,
   "linker_set_key" : "_ZTIKN7android8hardware8hidl_vecINS0_10hidl_arrayIhLm6EJEEEEE",
   "name" : "const android::hardware::hidl_vec<android::hardware::hidl_array<unsigned char, 6> >",
   "referenced_type" : "_ZTIN7android8hardware8hidl_vecINS0_10hidl_arrayIhLm6EJEEEEE",
   "self_type" : "_ZTIKN7android8hardware8hidl_vecINS0_10hidl_arrayIhLm6EJEEEEE",
   "size" : 16,
   "source_file" : "/system/libhidl/base/include/hidl/HidlSupport.h"
  },
  {
   "alignment" : 8,
   "is_const" : true,
   "linker_set_key" : "_ZTIKN7android8hardware8hidl_vecINS0_11hidl_stringEEE",
   "name" : "const android::hardware::hidl_vec<android::hardware::hidl_string>",
   "referenced_type" : "_ZTIN7android8hardware8hidl_vecINS0_11hidl_stringEEE",
   "self_type" : "_ZTIKN7android8hardware8hidl_vecINS0_11hidl_stringEEE",
   "size" : 16,
   "source_file" : "/out/soong/.intermediates/hardware/interfaces/wifi/1.1/android.hardware.wifi@1.1_genc++_headers/gen/android/hardware/wifi/1.1/IWifi.h"
  },
  {
   "alignment" : 8,
   "is_const" : true,
   "linker_set_key" : "_ZTIKN7android8hardware8hidl_vecINS0_4wifi4V1_013StaScanResultEEE",
   "name" : "const android::hardware::hidl_vec<android::hardware::wifi::V1_0::StaScanResult>",
   "referenced_type" : "_ZTIN7android8hardware8hidl_vecINS0_4wifi4V1_013StaScanResultEEE",
   "self_type" : "_ZTIKN7android8hardware8hidl_vecINS0_4wifi4V1_013StaScanResultEEE",
   "size" : 16,
   "source_file" : "/system/libhidl/base/include/hidl/HidlSupport.h"
  },
  {
   "alignment" : 8,
   "is_const" : true,
   "linker_set_key" : "_ZTIKN7android8hardware8hidl_vecINS0_4wifi4V1_022StaLinkLayerRadioStatsEEE",
   "name" : "const android::hardware::hidl_vec<android::hardware::wifi::V1_0::StaLinkLayerRadioStats>",
   "referenced_type" : "_ZTIN7android8hardware8hidl_vecINS0_4wifi4V1_022StaLinkLayerRadioStatsEEE",
   "self_type" : "_ZTIKN7android8hardware8hidl_vecINS0_4wifi4V1_022StaLinkLayerRadioStatsEEE",
   "size" : 16,
   "source_file" : "/system/libhidl/base/include/hidl/HidlSupport.h"
  },
  {
   "alignment" : 8,
   "is_const" : true,
   "linker_set_key" : "_ZTIKN7android8hardware8hidl_vecINS0_4wifi4V1_022WifiInformationElementEEE",
   "name" : "const android::hardware::hidl_vec<android::hardware::wifi::V1_0::WifiInformationElement>",
   "referenced_type" : "_ZTIN7android8hardware8hidl_vecINS0_4wifi4V1_022WifiInformationElementEEE",
   "self_type" : "_ZTIKN7android8hardware8hidl_vecINS0_4wifi4V1_022WifiInformationElementEEE",
   "size" : 16,
   "source_file" : "/system/libhidl/base/include/hidl/HidlSupport.h"
  },
  {
   "alignment" : 8,
   "is_const" : true,
   "linker_set_key" : "_ZTIKN7android8hardware8hidl_vecINS0_4wifi4V1_033StaBackgroundScanBucketParametersEEE",
   "name" : "const android::hardware::hidl_vec<android::hardware::wifi::V1_0::StaBackgroundScanBucketParameters>",
   "referenced_type" : "_ZTIN7android8hardware8hidl_vecINS0_4wifi4V1_033StaBackgroundScanBucketParametersEEE",
   "self_type" : "_ZTIKN7android8hardware8hidl_vecINS0_4wifi4V1_033StaBackgroundScanBucketParametersEEE",
   "size" : 16,
   "source_file" : "/system/libhidl/base/include/hidl/HidlSupport.h"
  },
  {
   "alignment" : 8,
   "is_const" : true,
   "linker_set_key" : "_ZTIKN7android8hardware8hidl_vecINS0_4wifi4V1_09IWifiChip20ChipIfaceCombinationEEE",
   "name" : "const android::hardware::hidl_vec<android::hardware::wifi::V1_0::IWifiChip::ChipIfaceCombination>",
   "referenced_type" : "_ZTIN7android8hardware8hidl_vecINS0_4wifi4V1_09IWifiChip20ChipIfaceCombinationEEE",
   "self_type" : "_ZTIKN7android8hardware8hidl_vecINS0_4wifi4V1_09IWifiChip20ChipIfaceCombinationEEE",
   "size" : 16,
   "source_file" : "/system/libhidl/base/include/hidl/HidlSupport.h"
  },
  {
   "alignment" : 8,
   "is_const" : true,
   "linker_set_key" : "_ZTIKN7android8hardware8hidl_vecINS0_4wifi4V1_09IWifiChip25ChipIfaceCombinationLimitEEE",
   "name" : "const android::hardware::hidl_vec<android::hardware::wifi::V1_0::IWifiChip::ChipIfaceCombinationLimit>",
   "referenced_type" : "_ZTIN7android8hardware8hidl_vecINS0_4wifi4V1_09IWifiChip25ChipIfaceCombinationLimitEEE",
   "self_type" : "_ZTIKN7android8hardware8hidl_vecINS0_4wifi4V1_09IWifiChip25ChipIfaceCombinationLimitEEE",
   "size" : 16,
   "source_file" : "/system/libhidl/base/include/hidl/HidlSupport.h"
  },
  {
   "alignment" : 8,
   "is_const" : true,
   "linker_set_key" : "_ZTIKN7android8hardware8hidl_vecINS0_4wifi4V1_09IfaceTypeEEE",
   "name" : "const android::hardware::hidl_vec<android::hardware::wifi::V1_0::IfaceType>",
   "referenced_type" : "_ZTIN7android8hardware8hidl_vecINS0_4wifi4V1_09IfaceTypeEEE",
   "self_type" : "_ZTIKN7android8hardware8hidl_vecINS0_4wifi4V1_09IfaceTypeEEE",
   "size" : 16,
   "source_file" : "/system/libhidl/base/include/hidl/HidlSupport.h"
  },
  {
   "alignment" : 8,
   "is_const" : true,
   "linker_set_key" : "_ZTIKN7android8hardware8hidl_vecIhEE",
   "name" : "const android::hardware::hidl_vec<unsigned char>",
   "referenced_type" : "_ZTIN7android8hardware8hidl_vecIhEE",
   "self_type" : "_ZTIKN7android8hardware8hidl_vecIhEE",
   "size" : 16,
   "source_file" : "/system/libhidl/base/include/hidl/HidlSupport.h"
  },
  {
   "alignment" : 8,
   "is_const" : true,
   "linker_set_key" : "_ZTIKN7android8hardware8hidl_vecIiEE",
   "name" : "const android::hardware::hidl_vec<int>",
   "referenced_type" : "_ZTIN7android8hardware8hidl_vecIiEE",
   "self_type" : "_ZTIKN7android8hardware8hidl_vecIiEE",
   "size" : 16,
   "source_file" : "/system/libhidl/base/include/hidl/HidlSupport.h"
  },
  {
   "alignment" : 8,
   "is_const" : true,
   "linker_set_key" : "_ZTIKN7android8hardware8hidl_vecIjEE",
   "name" : "const android::hardware::hidl_vec<unsigned int>",
   "referenced_type" : "_ZTIN7android8hardware8hidl_vecIjEE",
   "self_type" : "_ZTIKN7android8hardware8hidl_vecIjEE",
   "size" : 16,
   "source_file" : "/system/libhidl/base/include/hidl/HidlSupport.h"
  },
  {
   "alignment" : 8,
   "is_const" : true,
   "linker_set_key" : "_ZTIKNSt3__112basic_stringIcNS_11char_traitsIcEENS_9allocatorIcEEEE",
   "name" : "const std::basic_string<char, std::char_traits<char>, std::allocator<char> >",
   "referenced_type" : "_ZTINSt3__112basic_stringIcNS_11char_traitsIcEENS_9allocatorIcEEEE",
   "self_type" : "_ZTIKNSt3__112basic_stringIcNS_11char_traitsIcEENS_9allocatorIcEEEE",
   "size" : 24,
   "source_file" : "/system/libhidl/transport/include/hidl/HidlTransportSupport.h"
  },
  {
   "alignment" : 4,
   "is_const" : true,
   "linker_set_key" : "_ZTIKNSt3__15arrayIN7android4hidl4base4V1_09DebugInfo12ArchitectureELm3EEE",
   "name" : "const std::array<android::hidl::base::V1_0::DebugInfo::Architecture, 3>",
   "referenced_type" : "_ZTINSt3__15arrayIN7android4hidl4base4V1_09DebugInfo12ArchitectureELm3EEE",
   "self_type" : "_ZTIKNSt3__15arrayIN7android4hidl4base4V1_09DebugInfo12ArchitectureELm3EEE",
   "size" : 12,
   "source_file" : "/out/soong/.intermediates/system/libhidl/transport/base/1.0/android.hidl.base@1.0_genc++_headers/gen/android/hidl/base/1.0/types.h"
  },
  {
   "alignment" : 4,
   "is_const" : true,
   "linker_set_key" : "_ZTIKNSt3__15arrayIN7android4hidl7manager4V1_015IServiceManager11PidConstantELm1EEE",
   "name" : "const std::array<android::hidl::manager::V1_0::IServiceManager::PidConstant, 1>",
   "referenced_type" : "_ZTINSt3__15arrayIN7android4hidl7manager4V1_015IServiceManager11PidConstantELm1EEE",
   "self_type" : "_ZTIKNSt3__15arrayIN7android4hidl7manager4V1_015IServiceManager11PidConstantELm1EEE",
   "size" : 4,
   "source_file" : "/out/soong/.intermediates/system/libhidl/transport/manager/1.0/android.hidl.manager@1.0_genc++_headers/gen/android/hidl/manager/1.0/IServiceManager.h"
  },
  {
   "alignment" : 1,
   "is_const" : true,
   "linker_set_key" : "_ZTIKNSt3__15arrayIN7android4hidl7manager4V1_015IServiceManager9TransportELm3EEE",
   "name" : "const std::array<android::hidl::manager::V1_0::IServiceManager::Transport, 3>",
   "referenced_type" : "_ZTINSt3__15arrayIN7android4hidl7manager4V1_015IServiceManager9TransportELm3EEE",
   "self_type" : "_ZTIKNSt3__15arrayIN7android4hidl7manager4V1_015IServiceManager9TransportELm3EEE",
   "size" : 3,
   "source_file" : "/out/soong/.intermediates/system/libhidl/transport/manager/1.0/android.hidl.manager@1.0_genc++_headers/gen/android/hidl/manager/1.0/IServiceManager.h"
  },
  {
   "alignment" : 4,
   "is_const" : true,
   "linker_set_key" : "_ZTIKNSt3__15arrayIN7android8hardware4wifi4V1_010NanSrfTypeELm2EEE",
   "name" : "const std::array<android::hardware::wifi::V1_0::NanSrfType, 2>",
   "referenced_type" : "_ZTINSt3__15arrayIN7android8hardware4wifi4V1_010NanSrfTypeELm2EEE",
   "self_type" : "_ZTIKNSt3__15arrayIN7android8hardware4wifi4V1_010NanSrfTypeELm2EEE",
   "size" : 8,
   "source_file" : "/out/soong/.intermediates/hardware/interfaces/wifi/1.0/android.hardware.wifi@1.0_genc++_headers/gen/android/hardware/wifi/1.0/types.h"
  },
  {
   "alignment" : 4,
   "is_const" : true,
   "linker_set_key" : "_ZTIKNSt3__15arrayIN7android8hardware4wifi4V1_011NanMatchAlgELm3EEE",
   "name" : "const std::array<android::hardware::wifi::V1_0::NanMatchAlg, 3>",
   "referenced_type" : "_ZTINSt3__15arrayIN7android8hardware4wifi4V1_011NanMatchAlgELm3EEE",
   "self_type" : "_ZTIKNSt3__15arrayIN7android8hardware4wifi4V1_011NanMatchAlgELm3EEE",
   "size" : 12,
   "source_file" : "/out/soong/.intermediates/hardware/interfaces/wifi/1.0/android.hardware.wifi@1.0_genc++_headers/gen/android/hardware/wifi/1.0/types.h"
  },
  {
   "alignment" : 4,
   "is_const" : true,
   "linker_set_key" : "_ZTIKNSt3__15arrayIN7android8hardware4wifi4V1_011RttPeerTypeELm5EEE",
   "name" : "const std::array<android::hardware::wifi::V1_0::RttPeerType, 5>",
   "referenced_type" : "_ZTINSt3__15arrayIN7android8hardware4wifi4V1_011RttPeerTypeELm5EEE",
   "self_type" : "_ZTIKNSt3__15arrayIN7android8hardware4wifi4V1_011RttPeerTypeELm5EEE",
   "size" : 20,
   "source_file" : "/out/soong/.intermediates/hardware/interfaces/wifi/1.0/android.hardware.wifi@1.0_genc++_headers/gen/android/hardware/wifi/1.0/types.h"
  },
  {
   "alignment" : 4,
   "is_const" : true,
   "linker_set_key" : "_ZTIKNSt3__15arrayIN7android8hardware4wifi4V1_011RttPreambleELm3EEE",
   "name" : "const std::array<android::hardware::wifi::V1_0::RttPreamble, 3>",
   "referenced_type" : "_ZTINSt3__15arrayIN7android8hardware4wifi4V1_011RttPreambleELm3EEE",
   "self_type" : "_ZTIKNSt3__15arrayIN7android8hardware4wifi4V1_011RttPreambleELm3EEE",
   "size" : 12,
