{
 "array_types" : [],
 "builtin_types" :
 [
  {
   "alignment" : 8,
   "linker_set_key" : "_ZTIDn",
   "name" : "nullptr_t",
   "referenced_type" : "_ZTIDn",
   "self_type" : "_ZTIDn",
   "size" : 8
  },
  {
   "alignment" : 1,
   "is_integral" : true,
   "is_unsigned" : true,
   "linker_set_key" : "_ZTIb",
   "name" : "bool",
   "referenced_type" : "_ZTIb",
   "self_type" : "_ZTIb",
   "size" : 1
  },
  {
   "alignment" : 1,
   "is_integral" : true,
   "is_unsigned" : true,
   "linker_set_key" : "_ZTIc",
   "name" : "char",
   "referenced_type" : "_ZTIc",
   "self_type" : "_ZTIc",
   "size" : 1
  },
  {
   "alignment" : 4,
   "is_integral" : true,
   "linker_set_key" : "_ZTIi",
   "name" : "int",
   "referenced_type" : "_ZTIi",
   "self_type" : "_ZTIi",
   "size" : 4
  },
  {
   "alignment" : 4,
   "is_integral" : true,
   "is_unsigned" : true,
   "linker_set_key" : "_ZTIj",
   "name" : "unsigned int",
   "referenced_type" : "_ZTIj",
   "self_type" : "_ZTIj",
   "size" : 4
  },
  {
   "alignment" : 8,
   "is_integral" : true,
   "linker_set_key" : "_ZTIl",
   "name" : "long",
   "referenced_type" : "_ZTIl",
   "self_type" : "_ZTIl",
   "size" : 8
  },
  {
   "alignment" : 8,
   "is_integral" : true,
   "is_unsigned" : true,
   "linker_set_key" : "_ZTIm",
   "name" : "unsigned long",
   "referenced_type" : "_ZTIm",
   "self_type" : "_ZTIm",
   "size" : 8
  },
  {
   "linker_set_key" : "_ZTIv",
   "name" : "void",
   "referenced_type" : "_ZTIv",
   "self_type" : "_ZTIv"
  }
 ],
 "elf_functions" :
 [
  {
   "binding" : "weak",
   "name" : "_ZN3ndk12BnCInterfaceIN4aidl7android8hardware8identity19IIdentityCredentialEE8asBinderEv"
  },
  {
   "binding" : "weak",
   "name" : "_ZN3ndk12BnCInterfaceIN4aidl7android8hardware8identity24IIdentityCredentialStoreEE8asBinderEv"
  },
  {
   "binding" : "weak",
   "name" : "_ZN3ndk12BnCInterfaceIN4aidl7android8hardware8identity27IWritableIdentityCredentialEE8asBinderEv"
  },
  {
   "binding" : "weak",
   "name" : "_ZN3ndk12BpCInterfaceIN4aidl7android8hardware8identity19IIdentityCredentialEE8asBinderEv"
  },
  {
   "binding" : "weak",
   "name" : "_ZN3ndk12BpCInterfaceIN4aidl7android8hardware8identity24IIdentityCredentialStoreEE8asBinderEv"
  },
  {
   "binding" : "weak",
   "name" : "_ZN3ndk12BpCInterfaceIN4aidl7android8hardware8identity27IWritableIdentityCredentialEE8asBinderEv"
  },
  {
   "binding" : "weak",
   "name" : "_ZN3ndk38AParcel_readStdVectorParcelableElementIN4aidl7android8hardware8identity11CertificateEEEiPK7AParcelPvm"
  },
  {
   "binding" : "weak",
   "name" : "_ZN3ndk38AParcel_readStdVectorParcelableElementIN4aidl7android8hardware8identity15RequestDataItemEEEiPK7AParcelPvm"
  },
  {
   "binding" : "weak",
   "name" : "_ZN3ndk38AParcel_readStdVectorParcelableElementIN4aidl7android8hardware8identity16RequestNamespaceEEEiPK7AParcelPvm"
  },
  {
   "binding" : "weak",
   "name" : "_ZN3ndk38AParcel_readStdVectorParcelableElementIN4aidl7android8hardware8identity26SecureAccessControlProfileEEEiPK7AParcelPvm"
  },
  {
   "binding" : "weak",
   "name" : "_ZN3ndk39AParcel_writeStdVectorParcelableElementIN4aidl7android8hardware8identity11CertificateEEEiP7AParcelPKvm"
  },
  {
   "binding" : "weak",
   "name" : "_ZN3ndk39AParcel_writeStdVectorParcelableElementIN4aidl7android8hardware8identity15RequestDataItemEEEiP7AParcelPKvm"
  },
  {
   "binding" : "weak",
   "name" : "_ZN3ndk39AParcel_writeStdVectorParcelableElementIN4aidl7android8hardware8identity16RequestNamespaceEEEiP7AParcelPKvm"
  },
  {
   "binding" : "weak",
   "name" : "_ZN3ndk39AParcel_writeStdVectorParcelableElementIN4aidl7android8hardware8identity26SecureAccessControlProfileEEEiP7AParcelPKvm"
  },
  {
   "name" : "_ZN4aidl7android8hardware8identity11Certificate14readFromParcelEPK7AParcel"
  },
  {
   "name" : "_ZN4aidl7android8hardware8identity15RequestDataItem14readFromParcelEPK7AParcel"
  },
  {
   "name" : "_ZN4aidl7android8hardware8identity16RequestNamespace14readFromParcelEPK7AParcel"
  },
  {
   "name" : "_ZN4aidl7android8hardware8identity19HardwareInformation14readFromParcelEPK7AParcel"
  },
  {
   "name" : "_ZN4aidl7android8hardware8identity19IIdentityCredential10fromBinderERKN3ndk10SpAIBinderE"
  },
  {
   "name" : "_ZN4aidl7android8hardware8identity19IIdentityCredential13writeToParcelEP7AParcelRKNSt3__110shared_ptrIS3_EE"
  },
  {
   "name" : "_ZN4aidl7android8hardware8identity19IIdentityCredential14getDefaultImplEv"
  },
  {
   "name" : "_ZN4aidl7android8hardware8identity19IIdentityCredential14readFromParcelEPK7AParcelPNSt3__110shared_ptrIS3_EE"
  },
  {
   "name" : "_ZN4aidl7android8hardware8identity19IIdentityCredential14setDefaultImplENSt3__110shared_ptrIS3_EE"
  },
  {
   "name" : "_ZN4aidl7android8hardware8identity19IIdentityCredentialC2Ev"
  },
  {
   "name" : "_ZN4aidl7android8hardware8identity19IIdentityCredentialD0Ev"
  },
  {
   "name" : "_ZN4aidl7android8hardware8identity19IIdentityCredentialD1Ev"
  },
  {
   "name" : "_ZN4aidl7android8hardware8identity19IIdentityCredentialD2Ev"
  },
  {
   "name" : "_ZN4aidl7android8hardware8identity20BnIdentityCredential12createBinderEv"
  },
  {
   "name" : "_ZN4aidl7android8hardware8identity20BnIdentityCredential16getInterfaceHashEPNSt3__112basic_stringIcNS4_11char_traitsIcEENS4_9allocatorIcEEEE"
  },
  {
   "name" : "_ZN4aidl7android8hardware8identity20BnIdentityCredential19getInterfaceVersionEPi"
  },
  {
   "name" : "_ZN4aidl7android8hardware8identity20BnIdentityCredentialC2Ev"
  },
  {
   "name" : "_ZN4aidl7android8hardware8identity20BnIdentityCredentialD0Ev"
  },
  {
   "name" : "_ZN4aidl7android8hardware8identity20BnIdentityCredentialD1Ev"
  },
  {
   "name" : "_ZN4aidl7android8hardware8identity20BnIdentityCredentialD2Ev"
  },
  {
   "name" : "_ZN4aidl7android8hardware8identity20BpIdentityCredential14startRetrievalERKNSt3__16vectorINS2_26SecureAccessControlProfileENS4_9allocatorIS6_EEEERKNS1_9keymaster17HardwareAuthTokenERKNS5_IaNS7_IaEEEESJ_SJ_SJ_RKNS5_IiNS7_IiEEEE"
  },
  {
   "name" : "_ZN4aidl7android8hardware8identity20BpIdentityCredential15finishRetrievalEPNSt3__16vectorIaNS4_9allocatorIaEEEES9_"
  },
  {
   "name" : "_ZN4aidl7android8hardware8identity20BpIdentityCredential16deleteCredentialEPNSt3__16vectorIaNS4_9allocatorIaEEEE"
  },
  {
   "name" : "_ZN4aidl7android8hardware8identity20BpIdentityCredential16getInterfaceHashEPNSt3__112basic_stringIcNS4_11char_traitsIcEENS4_9allocatorIcEEEE"
  },
  {
   "name" : "_ZN4aidl7android8hardware8identity20BpIdentityCredential18retrieveEntryValueERKNSt3__16vectorIaNS4_9allocatorIaEEEEPS8_"
  },
  {
   "name" : "_ZN4aidl7android8hardware8identity20BpIdentityCredential19createAuthChallengeEPl"
  },
  {
   "name" : "_ZN4aidl7android8hardware8identity20BpIdentityCredential19getInterfaceVersionEPi"
  },
  {
   "name" : "_ZN4aidl7android8hardware8identity20BpIdentityCredential20setVerificationTokenERKNS1_9keymaster17VerificationTokenE"
  },
  {
   "name" : "_ZN4aidl7android8hardware8identity20BpIdentityCredential22createEphemeralKeyPairEPNSt3__16vectorIaNS4_9allocatorIaEEEE"
  },
  {
   "name" : "_ZN4aidl7android8hardware8identity20BpIdentityCredential22generateSigningKeyPairEPNSt3__16vectorIaNS4_9allocatorIaEEEEPNS2_11CertificateE"
  },
  {
   "name" : "_ZN4aidl7android8hardware8identity20BpIdentityCredential22setRequestedNamespacesERKNSt3__16vectorINS2_16RequestNamespaceENS4_9allocatorIS6_EEEE"
  },
  {
   "name" : "_ZN4aidl7android8hardware8identity20BpIdentityCredential23startRetrieveEntryValueERKNSt3__112basic_stringIcNS4_11char_traitsIcEENS4_9allocatorIcEEEESC_iRKNS4_6vectorIiNS8_IiEEEE"
  },
  {
   "name" : "_ZN4aidl7android8hardware8identity20BpIdentityCredential27setReaderEphemeralPublicKeyERKNSt3__16vectorIaNS4_9allocatorIaEEEE"
  },
  {
   "name" : "_ZN4aidl7android8hardware8identity20BpIdentityCredentialC1ERKN3ndk10SpAIBinderE"
  },
  {
   "name" : "_ZN4aidl7android8hardware8identity20BpIdentityCredentialC2ERKN3ndk10SpAIBinderE"
  },
  {
   "name" : "_ZN4aidl7android8hardware8identity20BpIdentityCredentialD0Ev"
  },
  {
   "name" : "_ZN4aidl7android8hardware8identity20BpIdentityCredentialD1Ev"
  },
  {
   "name" : "_ZN4aidl7android8hardware8identity20BpIdentityCredentialD2Ev"
  },
  {
   "name" : "_ZN4aidl7android8hardware8identity24IIdentityCredentialStore10fromBinderERKN3ndk10SpAIBinderE"
  },
  {
   "name" : "_ZN4aidl7android8hardware8identity24IIdentityCredentialStore13writeToParcelEP7AParcelRKNSt3__110shared_ptrIS3_EE"
  },
  {
   "name" : "_ZN4aidl7android8hardware8identity24IIdentityCredentialStore14getDefaultImplEv"
  },
  {
   "name" : "_ZN4aidl7android8hardware8identity24IIdentityCredentialStore14readFromParcelEPK7AParcelPNSt3__110shared_ptrIS3_EE"
  },
  {
   "name" : "_ZN4aidl7android8hardware8identity24IIdentityCredentialStore14setDefaultImplENSt3__110shared_ptrIS3_EE"
  },
  {
   "name" : "_ZN4aidl7android8hardware8identity24IIdentityCredentialStoreC2Ev"
  },
  {
   "name" : "_ZN4aidl7android8hardware8identity24IIdentityCredentialStoreD0Ev"
  },
  {
   "name" : "_ZN4aidl7android8hardware8identity24IIdentityCredentialStoreD1Ev"
  },
  {
   "name" : "_ZN4aidl7android8hardware8identity24IIdentityCredentialStoreD2Ev"
  },
  {
   "name" : "_ZN4aidl7android8hardware8identity25BnIdentityCredentialStore12createBinderEv"
  },
  {
   "name" : "_ZN4aidl7android8hardware8identity25BnIdentityCredentialStore16getInterfaceHashEPNSt3__112basic_stringIcNS4_11char_traitsIcEENS4_9allocatorIcEEEE"
  },
  {
   "name" : "_ZN4aidl7android8hardware8identity25BnIdentityCredentialStore19getInterfaceVersionEPi"
  },
  {
   "name" : "_ZN4aidl7android8hardware8identity25BnIdentityCredentialStoreC2Ev"
  },
  {
   "name" : "_ZN4aidl7android8hardware8identity25BnIdentityCredentialStoreD0Ev"
  },
  {
   "name" : "_ZN4aidl7android8hardware8identity25BnIdentityCredentialStoreD1Ev"
  },
  {
   "name" : "_ZN4aidl7android8hardware8identity25BnIdentityCredentialStoreD2Ev"
  },
  {
   "name" : "_ZN4aidl7android8hardware8identity25BpIdentityCredentialStore13getCredentialENS2_11CipherSuiteERKNSt3__16vectorIaNS5_9allocatorIaEEEEPNS5_10shared_ptrINS2_19IIdentityCredentialEEE"
  },
  {
   "name" : "_ZN4aidl7android8hardware8identity25BpIdentityCredentialStore16createCredentialERKNSt3__112basic_stringIcNS4_11char_traitsIcEENS4_9allocatorIcEEEEbPNS4_10shared_ptrINS2_27IWritableIdentityCredentialEEE"
  },
  {
   "name" : "_ZN4aidl7android8hardware8identity25BpIdentityCredentialStore16getInterfaceHashEPNSt3__112basic_stringIcNS4_11char_traitsIcEENS4_9allocatorIcEEEE"
  },
  {
   "name" : "_ZN4aidl7android8hardware8identity25BpIdentityCredentialStore19getInterfaceVersionEPi"
  },
  {
   "name" : "_ZN4aidl7android8hardware8identity25BpIdentityCredentialStore22getHardwareInformationEPNS2_19HardwareInformationE"
  },
  {
   "name" : "_ZN4aidl7android8hardware8identity25BpIdentityCredentialStoreC1ERKN3ndk10SpAIBinderE"
  },
  {
   "name" : "_ZN4aidl7android8hardware8identity25BpIdentityCredentialStoreC2ERKN3ndk10SpAIBinderE"
  },
  {
   "name" : "_ZN4aidl7android8hardware8identity25BpIdentityCredentialStoreD0Ev"
  },
  {
   "name" : "_ZN4aidl7android8hardware8identity25BpIdentityCredentialStoreD1Ev"
  },
  {
   "name" : "_ZN4aidl7android8hardware8identity25BpIdentityCredentialStoreD2Ev"
  },
  {
   "name" : "_ZN4aidl7android8hardware8identity26IIdentityCredentialDefault14startRetrievalERKNSt3__16vectorINS2_26SecureAccessControlProfileENS4_9allocatorIS6_EEEERKNS1_9keymaster17HardwareAuthTokenERKNS5_IaNS7_IaEEEESJ_SJ_SJ_RKNS5_IiNS7_IiEEEE"
  },
  {
   "name" : "_ZN4aidl7android8hardware8identity26IIdentityCredentialDefault15finishRetrievalEPNSt3__16vectorIaNS4_9allocatorIaEEEES9_"
  },
  {
   "name" : "_ZN4aidl7android8hardware8identity26IIdentityCredentialDefault16deleteCredentialEPNSt3__16vectorIaNS4_9allocatorIaEEEE"
  },
  {
   "name" : "_ZN4aidl7android8hardware8identity26IIdentityCredentialDefault16getInterfaceHashEPNSt3__112basic_stringIcNS4_11char_traitsIcEENS4_9allocatorIcEEEE"
  },
  {
   "name" : "_ZN4aidl7android8hardware8identity26IIdentityCredentialDefault18retrieveEntryValueERKNSt3__16vectorIaNS4_9allocatorIaEEEEPS8_"
  },
  {
   "name" : "_ZN4aidl7android8hardware8identity26IIdentityCredentialDefault19createAuthChallengeEPl"
  },
  {
   "name" : "_ZN4aidl7android8hardware8identity26IIdentityCredentialDefault19getInterfaceVersionEPi"
  },
  {
   "name" : "_ZN4aidl7android8hardware8identity26IIdentityCredentialDefault20setVerificationTokenERKNS1_9keymaster17VerificationTokenE"
  },
  {
   "name" : "_ZN4aidl7android8hardware8identity26IIdentityCredentialDefault22createEphemeralKeyPairEPNSt3__16vectorIaNS4_9allocatorIaEEEE"
  },
  {
   "name" : "_ZN4aidl7android8hardware8identity26IIdentityCredentialDefault22generateSigningKeyPairEPNSt3__16vectorIaNS4_9allocatorIaEEEEPNS2_11CertificateE"
  },
  {
   "name" : "_ZN4aidl7android8hardware8identity26IIdentityCredentialDefault22setRequestedNamespacesERKNSt3__16vectorINS2_16RequestNamespaceENS4_9allocatorIS6_EEEE"
  },
  {
   "name" : "_ZN4aidl7android8hardware8identity26IIdentityCredentialDefault23startRetrieveEntryValueERKNSt3__112basic_stringIcNS4_11char_traitsIcEENS4_9allocatorIcEEEESC_iRKNS4_6vectorIiNS8_IiEEEE"
  },
  {
   "name" : "_ZN4aidl7android8hardware8identity26IIdentityCredentialDefault27setReaderEphemeralPublicKeyERKNSt3__16vectorIaNS4_9allocatorIaEEEE"
  },
  {
   "name" : "_ZN4aidl7android8hardware8identity26IIdentityCredentialDefault8asBinderEv"
  },
  {
   "name" : "_ZN4aidl7android8hardware8identity26IIdentityCredentialDefault8isRemoteEv"
  },
  {
   "name" : "_ZN4aidl7android8hardware8identity26SecureAccessControlProfile14readFromParcelEPK7AParcel"
  },
  {
   "name" : "_ZN4aidl7android8hardware8identity27IWritableIdentityCredential10fromBinderERKN3ndk10SpAIBinderE"
  },
  {
   "name" : "_ZN4aidl7android8hardware8identity27IWritableIdentityCredential13writeToParcelEP7AParcelRKNSt3__110shared_ptrIS3_EE"
  },
  {
   "name" : "_ZN4aidl7android8hardware8identity27IWritableIdentityCredential14getDefaultImplEv"
  },
  {
   "name" : "_ZN4aidl7android8hardware8identity27IWritableIdentityCredential14readFromParcelEPK7AParcelPNSt3__110shared_ptrIS3_EE"
  },
  {
   "name" : "_ZN4aidl7android8hardware8identity27IWritableIdentityCredential14setDefaultImplENSt3__110shared_ptrIS3_EE"
  },
  {
   "name" : "_ZN4aidl7android8hardware8identity27IWritableIdentityCredentialC2Ev"
  },
  {
   "name" : "_ZN4aidl7android8hardware8identity27IWritableIdentityCredentialD0Ev"
  },
  {
   "name" : "_ZN4aidl7android8hardware8identity27IWritableIdentityCredentialD1Ev"
  },
  {
   "name" : "_ZN4aidl7android8hardware8identity27IWritableIdentityCredentialD2Ev"
  },
  {
   "name" : "_ZN4aidl7android8hardware8identity28BnWritableIdentityCredential12createBinderEv"
  },
  {
   "name" : "_ZN4aidl7android8hardware8identity28BnWritableIdentityCredential16getInterfaceHashEPNSt3__112basic_stringIcNS4_11char_traitsIcEENS4_9allocatorIcEEEE"
  },
  {
   "name" : "_ZN4aidl7android8hardware8identity28BnWritableIdentityCredential19getInterfaceVersionEPi"
  },
  {
   "name" : "_ZN4aidl7android8hardware8identity28BnWritableIdentityCredentialC2Ev"
  },
  {
   "name" : "_ZN4aidl7android8hardware8identity28BnWritableIdentityCredentialD0Ev"
  },
  {
   "name" : "_ZN4aidl7android8hardware8identity28BnWritableIdentityCredentialD1Ev"
  },
  {
   "name" : "_ZN4aidl7android8hardware8identity28BnWritableIdentityCredentialD2Ev"
  },
  {
   "name" : "_ZN4aidl7android8hardware8identity28BpWritableIdentityCredential13addEntryValueERKNSt3__16vectorIaNS4_9allocatorIaEEEEPS8_"
  },
  {
   "name" : "_ZN4aidl7android8hardware8identity28BpWritableIdentityCredential13beginAddEntryERKNSt3__16vectorIiNS4_9allocatorIiEEEERKNS4_12basic_stringIcNS4_11char_traitsIcEENS6_IcEEEESH_i"
  },
  {
   "name" : "_ZN4aidl7android8hardware8identity28BpWritableIdentityCredential16getInterfaceHashEPNSt3__112basic_stringIcNS4_11char_traitsIcEENS4_9allocatorIcEEEE"
  },
  {
   "name" : "_ZN4aidl7android8hardware8identity28BpWritableIdentityCredential19finishAddingEntriesEPNSt3__16vectorIaNS4_9allocatorIaEEEES9_"
  },
  {
   "name" : "_ZN4aidl7android8hardware8identity28BpWritableIdentityCredential19getInterfaceVersionEPi"
  },
  {
   "name" : "_ZN4aidl7android8hardware8identity28BpWritableIdentityCredential20startPersonalizationEiRKNSt3__16vectorIiNS4_9allocatorIiEEEE"
  },
  {
   "name" : "_ZN4aidl7android8hardware8identity28BpWritableIdentityCredential23addAccessControlProfileEiRKNS2_11CertificateEbllPNS2_26SecureAccessControlProfileE"
  },
  {
   "name" : "_ZN4aidl7android8hardware8identity28BpWritableIdentityCredential25getAttestationCertificateERKNSt3__16vectorIaNS4_9allocatorIaEEEESA_PNS5_INS2_11CertificateENS6_ISB_EEEE"
  },
  {
   "name" : "_ZN4aidl7android8hardware8identity28BpWritableIdentityCredential34setExpectedProofOfProvisioningSizeEi"
  },
  {
   "name" : "_ZN4aidl7android8hardware8identity28BpWritableIdentityCredentialC1ERKN3ndk10SpAIBinderE"
  },
  {
   "name" : "_ZN4aidl7android8hardware8identity28BpWritableIdentityCredentialC2ERKN3ndk10SpAIBinderE"
  },
  {
   "name" : "_ZN4aidl7android8hardware8identity28BpWritableIdentityCredentialD0Ev"
  },
  {
   "name" : "_ZN4aidl7android8hardware8identity28BpWritableIdentityCredentialD1Ev"
  },
  {
   "name" : "_ZN4aidl7android8hardware8identity28BpWritableIdentityCredentialD2Ev"
  },
  {
   "name" : "_ZN4aidl7android8hardware8identity31IIdentityCredentialStoreDefault13getCredentialENS2_11CipherSuiteERKNSt3__16vectorIaNS5_9allocatorIaEEEEPNS5_10shared_ptrINS2_19IIdentityCredentialEEE"
  },
  {
   "name" : "_ZN4aidl7android8hardware8identity31IIdentityCredentialStoreDefault16createCredentialERKNSt3__112basic_stringIcNS4_11char_traitsIcEENS4_9allocatorIcEEEEbPNS4_10shared_ptrINS2_27IWritableIdentityCredentialEEE"
  },
  {
   "name" : "_ZN4aidl7android8hardware8identity31IIdentityCredentialStoreDefault16getInterfaceHashEPNSt3__112basic_stringIcNS4_11char_traitsIcEENS4_9allocatorIcEEEE"
  },
  {
   "name" : "_ZN4aidl7android8hardware8identity31IIdentityCredentialStoreDefault19getInterfaceVersionEPi"
  },
  {
   "name" : "_ZN4aidl7android8hardware8identity31IIdentityCredentialStoreDefault22getHardwareInformationEPNS2_19HardwareInformationE"
  },
  {
   "name" : "_ZN4aidl7android8hardware8identity31IIdentityCredentialStoreDefault8asBinderEv"
  },
  {
   "name" : "_ZN4aidl7android8hardware8identity31IIdentityCredentialStoreDefault8isRemoteEv"
  },
  {
   "name" : "_ZN4aidl7android8hardware8identity34IWritableIdentityCredentialDefault13addEntryValueERKNSt3__16vectorIaNS4_9allocatorIaEEEEPS8_"
  },
  {
   "name" : "_ZN4aidl7android8hardware8identity34IWritableIdentityCredentialDefault13beginAddEntryERKNSt3__16vectorIiNS4_9allocatorIiEEEERKNS4_12basic_stringIcNS4_11char_traitsIcEENS6_IcEEEESH_i"
  },
  {
   "name" : "_ZN4aidl7android8hardware8identity34IWritableIdentityCredentialDefault16getInterfaceHashEPNSt3__112basic_stringIcNS4_11char_traitsIcEENS4_9allocatorIcEEEE"
  },
  {
   "name" : "_ZN4aidl7android8hardware8identity34IWritableIdentityCredentialDefault19finishAddingEntriesEPNSt3__16vectorIaNS4_9allocatorIaEEEES9_"
  },
  {
   "name" : "_ZN4aidl7android8hardware8identity34IWritableIdentityCredentialDefault19getInterfaceVersionEPi"
  },
  {
   "name" : "_ZN4aidl7android8hardware8identity34IWritableIdentityCredentialDefault20startPersonalizationEiRKNSt3__16vectorIiNS4_9allocatorIiEEEE"
  },
  {
   "name" : "_ZN4aidl7android8hardware8identity34IWritableIdentityCredentialDefault23addAccessControlProfileEiRKNS2_11CertificateEbllPNS2_26SecureAccessControlProfileE"
  },
  {
   "name" : "_ZN4aidl7android8hardware8identity34IWritableIdentityCredentialDefault25getAttestationCertificateERKNSt3__16vectorIaNS4_9allocatorIaEEEESA_PNS5_INS2_11CertificateENS6_ISB_EEEE"
  },
  {
   "name" : "_ZN4aidl7android8hardware8identity34IWritableIdentityCredentialDefault34setExpectedProofOfProvisioningSizeEi"
  },
  {
   "name" : "_ZN4aidl7android8hardware8identity34IWritableIdentityCredentialDefault8asBinderEv"
  },
  {
   "name" : "_ZN4aidl7android8hardware8identity34IWritableIdentityCredentialDefault8isRemoteEv"
  },
  {
   "name" : "_ZNK4aidl7android8hardware8identity11Certificate13writeToParcelEP7AParcel"
  },
  {
   "name" : "_ZNK4aidl7android8hardware8identity15RequestDataItem13writeToParcelEP7AParcel"
  },
  {
   "name" : "_ZNK4aidl7android8hardware8identity16RequestNamespace13writeToParcelEP7AParcel"
  },
  {
   "name" : "_ZNK4aidl7android8hardware8identity19HardwareInformation13writeToParcelEP7AParcel"
  },
  {
   "name" : "_ZNK4aidl7android8hardware8identity26SecureAccessControlProfile13writeToParcelEP7AParcel"
  },
  {
   "binding" : "weak",
   "name" : "_ZNSt3__110shared_ptrIN4aidl7android8hardware8identity19IIdentityCredentialEED2Ev"
  },
  {
   "binding" : "weak",
   "name" : "_ZNSt3__110shared_ptrIN4aidl7android8hardware8identity24IIdentityCredentialStoreEED2Ev"
  },
  {
   "binding" : "weak",
   "name" : "_ZNSt3__110shared_ptrIN4aidl7android8hardware8identity27IWritableIdentityCredentialEED2Ev"
  },
  {
   "binding" : "weak",
   "name" : "_ZNSt3__120__shared_ptr_pointerIPN3ndk13SharedRefBaseENS_14default_deleteIS2_EENS_9allocatorIS2_EEE16__on_zero_sharedEv"
  },
  {
   "binding" : "weak",
   "name" : "_ZNSt3__120__shared_ptr_pointerIPN3ndk13SharedRefBaseENS_14default_deleteIS2_EENS_9allocatorIS2_EEE21__on_zero_shared_weakEv"
  },
  {
   "binding" : "weak",
   "name" : "_ZNSt3__16vectorIN4aidl7android8hardware8identity11CertificateENS_9allocatorIS5_EEE8__appendEm"
  },
  {
   "binding" : "weak",
   "name" : "_ZNSt3__16vectorIN4aidl7android8hardware8identity15RequestDataItemENS_9allocatorIS5_EEE8__appendEm"
  },
  {
   "binding" : "weak",
   "name" : "_ZNSt3__16vectorIN4aidl7android8hardware8identity16RequestNamespaceENS_9allocatorIS5_EEE8__appendEm"
  },
  {
   "binding" : "weak",
   "name" : "_ZNSt3__16vectorIN4aidl7android8hardware8identity26SecureAccessControlProfileENS_9allocatorIS5_EEE8__appendEm"
  },
  {
   "binding" : "weak",
   "name" : "_ZNSt3__16vectorINS_12basic_stringIcNS_11char_traitsIcEENS_9allocatorIcEEEENS4_IS6_EEE8__appendEm"
  },
  {
   "binding" : "weak",
   "name" : "_ZNSt3__16vectorIaNS_9allocatorIaEEE8__appendEm"
  },
  {
   "binding" : "weak",
   "name" : "_ZNSt3__16vectorIiNS_9allocatorIiEEE8__appendEm"
  }
 ],
 "elf_objects" :
 [
  {
   "binding" : "weak",
   "name" : "_ZGVN4aidl7android8hardware8identity19IIdentityCredential4hashE"
  },
  {
   "binding" : "weak",
   "name" : "_ZGVN4aidl7android8hardware8identity24IIdentityCredentialStore4hashE"
  },
  {
   "binding" : "weak",
   "name" : "_ZGVN4aidl7android8hardware8identity27IWritableIdentityCredential4hashE"
  },
  {
   "name" : "_ZN4aidl7android8hardware8identity11Certificate10descriptorE"
  },
  {
   "name" : "_ZN4aidl7android8hardware8identity15RequestDataItem10descriptorE"
  },
  {
   "name" : "_ZN4aidl7android8hardware8identity16RequestNamespace10descriptorE"
  },
  {
   "name" : "_ZN4aidl7android8hardware8identity19HardwareInformation10descriptorE"
  },
  {
   "name" : "_ZN4aidl7android8hardware8identity19IIdentityCredential10descriptorE"
  },
  {
   "name" : "_ZN4aidl7android8hardware8identity19IIdentityCredential12default_implE"
  },
  {
   "binding" : "weak",
   "name" : "_ZN4aidl7android8hardware8identity19IIdentityCredential4hashE"
  },
  {
   "name" : "_ZN4aidl7android8hardware8identity24IIdentityCredentialStore10descriptorE"
  },
  {
   "name" : "_ZN4aidl7android8hardware8identity24IIdentityCredentialStore12default_implE"
  },
  {
   "binding" : "weak",
   "name" : "_ZN4aidl7android8hardware8identity24IIdentityCredentialStore4hashE"
  },
  {
   "name" : "_ZN4aidl7android8hardware8identity26SecureAccessControlProfile10descriptorE"
  },
  {
   "name" : "_ZN4aidl7android8hardware8identity27IWritableIdentityCredential10descriptorE"
  },
  {
   "name" : "_ZN4aidl7android8hardware8identity27IWritableIdentityCredential12default_implE"
  },
  {
   "binding" : "weak",
   "name" : "_ZN4aidl7android8hardware8identity27IWritableIdentityCredential4hashE"
  },
  {
   "binding" : "weak",
   "name" : "_ZTVN3ndk12BnCInterfaceIN4aidl7android8hardware8identity19IIdentityCredentialEEE"
  },
  {
   "binding" : "weak",
   "name" : "_ZTVN3ndk12BnCInterfaceIN4aidl7android8hardware8identity24IIdentityCredentialStoreEEE"
  },
  {
   "binding" : "weak",
   "name" : "_ZTVN3ndk12BnCInterfaceIN4aidl7android8hardware8identity27IWritableIdentityCredentialEEE"
  },
  {
   "binding" : "weak",
   "name" : "_ZTVN3ndk12BpCInterfaceIN4aidl7android8hardware8identity19IIdentityCredentialEEE"
  },
  {
   "binding" : "weak",
   "name" : "_ZTVN3ndk12BpCInterfaceIN4aidl7android8hardware8identity24IIdentityCredentialStoreEEE"
  },
  {
   "binding" : "weak",
   "name" : "_ZTVN3ndk12BpCInterfaceIN4aidl7android8hardware8identity27IWritableIdentityCredentialEEE"
  },
  {
   "binding" : "weak",
   "name" : "_ZTVN3ndk13SharedRefBaseE"
  },
  {
   "name" : "_ZTVN4aidl7android8hardware8identity19IIdentityCredentialE"
  },
  {
   "name" : "_ZTVN4aidl7android8hardware8identity20BnIdentityCredentialE"
  },
  {
   "name" : "_ZTVN4aidl7android8hardware8identity20BpIdentityCredentialE"
  },
  {
   "name" : "_ZTVN4aidl7android8hardware8identity24IIdentityCredentialStoreE"
  },
  {
   "name" : "_ZTVN4aidl7android8hardware8identity25BnIdentityCredentialStoreE"
  },
  {
   "name" : "_ZTVN4aidl7android8hardware8identity25BpIdentityCredentialStoreE"
  },
  {
   "name" : "_ZTVN4aidl7android8hardware8identity26IIdentityCredentialDefaultE"
  },
  {
   "name" : "_ZTVN4aidl7android8hardware8identity27IWritableIdentityCredentialE"
  },
  {
   "name" : "_ZTVN4aidl7android8hardware8identity28BnWritableIdentityCredentialE"
  },
  {
   "name" : "_ZTVN4aidl7android8hardware8identity28BpWritableIdentityCredentialE"
  },
  {
   "name" : "_ZTVN4aidl7android8hardware8identity31IIdentityCredentialStoreDefaultE"
  },
  {
   "name" : "_ZTVN4aidl7android8hardware8identity34IWritableIdentityCredentialDefaultE"
  },
  {
   "binding" : "weak",
   "name" : "_ZTVNSt3__120__shared_ptr_pointerIPN3ndk13SharedRefBaseENS_14default_deleteIS2_EENS_9allocatorIS2_EEEE"
  }
 ],
 "enum_types" :
 [
  {
   "alignment" : 4,
   "enum_fields" :
   [
    {
     "enum_field_value" : 1,
     "name" : "FLAG_ONEWAY"
    }
   ],
   "linker_set_key" : "_ZTI12$FLAG_ONEWAY",
   "name" : "(anonymous enum at frameworks/native/libs/binder/ndk/include_ndk/android/binder_ibinder.h:47:1)",
   "referenced_type" : "_ZTI12$FLAG_ONEWAY",
   "self_type" : "_ZTI12$FLAG_ONEWAY",
   "size" : 4,
   "source_file" : "/frameworks/native/libs/binder/ndk/include_ndk/android/binder_ibinder.h",
   "underlying_type" : "_ZTIj"
  },
  {
   "alignment" : 4,
   "enum_fields" :
   [
    {
     "enum_field_value" : 0,
     "name" : "EX_NONE"
    },
    {
     "enum_field_value" : -1,
     "name" : "EX_SECURITY"
    },
    {
     "enum_field_value" : -2,
     "name" : "EX_BAD_PARCELABLE"
    },
    {
     "enum_field_value" : -3,
     "name" : "EX_ILLEGAL_ARGUMENT"
    },
    {
     "enum_field_value" : -4,
     "name" : "EX_NULL_POINTER"
    },
    {
     "enum_field_value" : -5,
     "name" : "EX_ILLEGAL_STATE"
    },
    {
     "enum_field_value" : -6,
     "name" : "EX_NETWORK_MAIN_THREAD"
    },
    {
     "enum_field_value" : -7,
     "name" : "EX_UNSUPPORTED_OPERATION"
    },
    {
     "enum_field_value" : -8,
     "name" : "EX_SERVICE_SPECIFIC"
    },
    {
     "enum_field_value" : -9,
     "name" : "EX_PARCELABLE"
    },
    {
     "enum_field_value" : -129,
     "name" : "EX_TRANSACTION_FAILED"
    }
   ],
   "linker_set_key" : "_ZTI18$EX_BAD_PARCELABLE",
   "name" : "(anonymous enum at frameworks/native/libs/binder/ndk/include_ndk/android/binder_status.h:65:1)",
   "referenced_type" : "_ZTI18$EX_BAD_PARCELABLE",
   "self_type" : "_ZTI18$EX_BAD_PARCELABLE",
   "size" : 4,
   "source_file" : "/frameworks/native/libs/binder/ndk/include_ndk/android/binder_status.h",
   "underlying_type" : "_ZTIi"
  },
  {
   "alignment" : 4,
   "enum_fields" :
   [
    {
     "enum_field_value" : 268435456,
     "name" : "FLAG_PRIVATE_LOCAL"
    }
   ],
   "linker_set_key" : "_ZTI19$FLAG_PRIVATE_LOCAL",
   "name" : "(anonymous enum at frameworks/native/libs/binder/ndk/include_platform/android/binder_stability.h:35:1)",
   "referenced_type" : "_ZTI19$FLAG_PRIVATE_LOCAL",
   "self_type" : "_ZTI19$FLAG_PRIVATE_LOCAL",
   "size" : 4,
   "source_file" : "/frameworks/native/libs/binder/ndk/include_platform/android/binder_stability.h",
   "underlying_type" : "_ZTIj"
  },
  {
   "alignment" : 4,
   "enum_fields" :
   [
    {
     "enum_field_value" : 268435456,
     "name" : "FLAG_PRIVATE_VENDOR"
    }
   ],
   "linker_set_key" : "_ZTI20$FLAG_PRIVATE_VENDOR",
   "name" : "(anonymous enum at frameworks/native/libs/binder/ndk/include_platform/android/binder_stability.h:26:1)",
   "referenced_type" : "_ZTI20$FLAG_PRIVATE_VENDOR",
   "self_type" : "_ZTI20$FLAG_PRIVATE_VENDOR",
   "size" : 4,
   "source_file" : "/frameworks/native/libs/binder/ndk/include_platform/android/binder_stability.h",
   "underlying_type" : "_ZTIj"
  },
  {
   "alignment" : 4,
   "enum_fields" :
   [
    {
     "enum_field_value" : 0,
     "name" : "STATUS_OK"
    },
    {
     "enum_field_value" : -2147483648,
     "name" : "STATUS_UNKNOWN_ERROR"
    },
    {
     "enum_field_value" : -12,
     "name" : "STATUS_NO_MEMORY"
    },
    {
     "enum_field_value" : -38,
     "name" : "STATUS_INVALID_OPERATION"
    },
    {
     "enum_field_value" : -22,
     "name" : "STATUS_BAD_VALUE"
    },
    {
     "enum_field_value" : -2147483647,
     "name" : "STATUS_BAD_TYPE"
    },
    {
     "enum_field_value" : -2,
     "name" : "STATUS_NAME_NOT_FOUND"
    },
    {
     "enum_field_value" : -1,
     "name" : "STATUS_PERMISSION_DENIED"
    },
    {
     "enum_field_value" : -19,
     "name" : "STATUS_NO_INIT"
    },
    {
     "enum_field_value" : -17,
     "name" : "STATUS_ALREADY_EXISTS"
    },
    {
     "enum_field_value" : -32,
     "name" : "STATUS_DEAD_OBJECT"
    },
    {
     "enum_field_value" : -2147483646,
     "name" : "STATUS_FAILED_TRANSACTION"
    },
    {
     "enum_field_value" : -75,
     "name" : "STATUS_BAD_INDEX"
    },
    {
     "enum_field_value" : -61,
     "name" : "STATUS_NOT_ENOUGH_DATA"
    },
    {
     "enum_field_value" : -11,
     "name" : "STATUS_WOULD_BLOCK"
    },
    {
     "enum_field_value" : -110,
     "name" : "STATUS_TIMED_OUT"
    },
    {
     "enum_field_value" : -74,
     "name" : "STATUS_UNKNOWN_TRANSACTION"
    },
    {
     "enum_field_value" : -2147483641,
     "name" : "STATUS_FDS_NOT_ALLOWED"
    },
    {
     "enum_field_value" : -2147483640,
     "name" : "STATUS_UNEXPECTED_NULL"
    }
   ],
   "linker_set_key" : "_ZTI22$STATUS_ALREADY_EXISTS",
   "name" : "(anonymous enum at frameworks/native/libs/binder/ndk/include_ndk/android/binder_status.h:35:1)",
   "referenced_type" : "_ZTI22$STATUS_ALREADY_EXISTS",
   "self_type" : "_ZTI22$STATUS_ALREADY_EXISTS",
   "size" : 4,
   "source_file" : "/frameworks/native/libs/binder/ndk/include_ndk/android/binder_status.h",
   "underlying_type" : "_ZTIi"
  },
  {
   "alignment" : 4,
   "enum_fields" :
   [
    {
     "enum_field_value" : 1,
     "name" : "FIRST_CALL_TRANSACTION"
    },
    {
     "enum_field_value" : 16777215,
     "name" : "LAST_CALL_TRANSACTION"
    }
   ],
   "linker_set_key" : "_ZTI23$FIRST_CALL_TRANSACTION",
   "name" : "(anonymous enum at frameworks/native/libs/binder/ndk/include_ndk/android/binder_ibinder.h:59:1)",
   "referenced_type" : "_ZTI23$FIRST_CALL_TRANSACTION",
   "self_type" : "_ZTI23$FIRST_CALL_TRANSACTION",
   "size" : 4,
   "source_file" : "/frameworks/native/libs/binder/ndk/include_ndk/android/binder_ibinder.h",
   "underlying_type" : "_ZTIj"
  },
  {
   "alignment" : 4,
   "enum_fields" :
   [
    {
     "enum_field_value" : 1,
     "name" : "aidl::android::hardware::identity::CipherSuite::CIPHERSUITE_ECDHE_HKDF_ECDSA_WITH_AES_256_GCM_SHA256"
    }
   ],
   "linker_set_key" : "_ZTIN4aidl7android8hardware8identity11CipherSuiteE",
   "name" : "aidl::android::hardware::identity::CipherSuite",
   "referenced_type" : "_ZTIN4aidl7android8hardware8identity11CipherSuiteE",
   "self_type" : "_ZTIN4aidl7android8hardware8identity11CipherSuiteE",
   "size" : 4,
   "source_file" : "/out/soong/.intermediates/hardware/interfaces/identity/aidl/android.hardware.identity-ndk_platform-source/gen/include/aidl/android/hardware/identity/CipherSuite.h",
   "underlying_type" : "_ZTIi"
  },
  {
   "alignment" : 4,
   "enum_fields" :
   [
    {
     "enum_field_value" : 0,
     "name" : "aidl::android::hardware::identity::IIdentityCredentialStore::STATUS_OK"
    },
    {
     "enum_field_value" : 1,
     "name" : "aidl::android::hardware::identity::IIdentityCredentialStore::STATUS_FAILED"
    },
    {
     "enum_field_value" : 2,
     "name" : "aidl::android::hardware::identity::IIdentityCredentialStore::STATUS_CIPHER_SUITE_NOT_SUPPORTED"
    },
    {
     "enum_field_value" : 3,
     "name" : "aidl::android::hardware::identity::IIdentityCredentialStore::STATUS_INVALID_DATA"
    },
    {
     "enum_field_value" : 4,
     "name" : "aidl::android::hardware::identity::IIdentityCredentialStore::STATUS_INVALID_AUTH_TOKEN"
    },
    {
     "enum_field_value" : 5,
     "name" : "aidl::android::hardware::identity::IIdentityCredentialStore::STATUS_INVALID_ITEMS_REQUEST_MESSAGE"
    },
    {
     "enum_field_value" : 6,
     "name" : "aidl::android::hardware::identity::IIdentityCredentialStore::STATUS_READER_SIGNATURE_CHECK_FAILED"
    },
    {
     "enum_field_value" : 7,
     "name" : "aidl::android::hardware::identity::IIdentityCredentialStore::STATUS_EPHEMERAL_PUBLIC_KEY_NOT_FOUND"
    },
    {
     "enum_field_value" : 8,
     "name" : "aidl::android::hardware::identity::IIdentityCredentialStore::STATUS_USER_AUTHENTICATION_FAILED"
    },
    {
     "enum_field_value" : 9,
     "name" : "aidl::android::hardware::identity::IIdentityCredentialStore::STATUS_READER_AUTHENTICATION_FAILED"
    },
    {
     "enum_field_value" : 10,
     "name" : "aidl::android::hardware::identity::IIdentityCredentialStore::STATUS_NO_ACCESS_CONTROL_PROFILES"
    },
    {
     "enum_field_value" : 11,
     "name" : "aidl::android::hardware::identity::IIdentityCredentialStore::STATUS_NOT_IN_REQUEST_MESSAGE"
    },
    {
     "enum_field_value" : 12,
     "name" : "aidl::android::hardware::identity::IIdentityCredentialStore::STATUS_SESSION_TRANSCRIPT_MISMATCH"
    }
   ],
   "linker_set_key" : "_ZTIN4aidl7android8hardware8identity24IIdentityCredentialStore34$STATUS_CIPHER_SUITE_NOT_SUPPORTEDE",
   "name" : "aidl::android::hardware::identity::IIdentityCredentialStore::(anonymous enum at out/soong/.intermediates/hardware/interfaces/identity/aidl/android.hardware.identity-ndk_platform-source/gen/include/aidl/android/hardware/identity/IIdentityCredentialStore.h:29:3)",
   "referenced_type" : "_ZTIN4aidl7android8hardware8identity24IIdentityCredentialStore34$STATUS_CIPHER_SUITE_NOT_SUPPORTEDE",
   "self_type" : "_ZTIN4aidl7android8hardware8identity24IIdentityCredentialStore34$STATUS_CIPHER_SUITE_NOT_SUPPORTEDE",
   "size" : 4,
   "source_file" : "/out/soong/.intermediates/hardware/interfaces/identity/aidl/android.hardware.identity-ndk_platform-source/gen/include/aidl/android/hardware/identity/IIdentityCredentialStore.h",
   "underlying_type" : "_ZTIi"
  },
  {
   "alignment" : 4,
   "enum_fields" :
   [
    {
     "enum_field_value" : 0,
     "name" : "aidl::android::hardware::keymaster::SecurityLevel::SOFTWARE"
    },
    {
     "enum_field_value" : 1,
     "name" : "aidl::android::hardware::keymaster::SecurityLevel::TRUSTED_ENVIRONMENT"
    },
    {
     "enum_field_value" : 2,
     "name" : "aidl::android::hardware::keymaster::SecurityLevel::STRONGBOX"
    }
   ],
   "linker_set_key" : "_ZTIN4aidl7android8hardware9keymaster13SecurityLevelE",
   "name" : "aidl::android::hardware::keymaster::SecurityLevel",
   "referenced_type" : "_ZTIN4aidl7android8hardware9keymaster13SecurityLevelE",
   "self_type" : "_ZTIN4aidl7android8hardware9keymaster13SecurityLevelE",
   "size" : 4,
   "source_file" : "/out/soong/.intermediates/hardware/interfaces/keymaster/aidl/android.hardware.keymaster-ndk_platform-source/gen/include/aidl/android/hardware/keymaster/SecurityLevel.h",
   "underlying_type" : "_ZTIi"
  },
  {
   "alignment" : 4,
   "enum_fields" :
   [
    {
     "enum_field_value" : 0,
     "name" : "aidl::android::hardware::keymaster::HardwareAuthenticatorType::NONE"
    },
    {
     "enum_field_value" : 1,
     "name" : "aidl::android::hardware::keymaster::HardwareAuthenticatorType::PASSWORD"
    },
    {
     "enum_field_value" : 2,
     "name" : "aidl::android::hardware::keymaster::HardwareAuthenticatorType::FINGERPRINT"
    },
    {
     "enum_field_value" : -1,
     "name" : "aidl::android::hardware::keymaster::HardwareAuthenticatorType::ANY"
    }
   ],
   "linker_set_key" : "_ZTIN4aidl7android8hardware9keymaster25HardwareAuthenticatorTypeE",
   "name" : "aidl::android::hardware::keymaster::HardwareAuthenticatorType",
   "referenced_type" : "_ZTIN4aidl7android8hardware9keymaster25HardwareAuthenticatorTypeE",
   "self_type" : "_ZTIN4aidl7android8hardware9keymaster25HardwareAuthenticatorTypeE",
   "size" : 4,
   "source_file" : "/out/soong/.intermediates/hardware/interfaces/keymaster/aidl/android.hardware.keymaster-ndk_platform-source/gen/include/aidl/android/hardware/keymaster/HardwareAuthenticatorType.h",
   "underlying_type" : "_ZTIi"
  }
 ],
 "function_types" :
 [
  {
   "alignment" : 4,
   "linker_set_key" : "_ZTIFiP8AIBinderjPK7AParcelPS1_E",
   "name" : "int (AIBinder *, unsigned int, const AParcel *, AParcel *)",
   "parameters" :
   [
    {
     "referenced_type" : "_ZTIP8AIBinder"
    },
    {
     "referenced_type" : "_ZTIj"
    },
    {
     "referenced_type" : "_ZTIPK7AParcel"
    },
    {
     "referenced_type" : "_ZTIP7AParcel"
    }
   ],
   "referenced_type" : "_ZTIFiP8AIBinderjPK7AParcelPS1_E",
   "return_type" : "_ZTIi",
   "self_type" : "_ZTIFiP8AIBinderjPK7AParcelPS1_E",
   "source_file" : "/frameworks/native/libs/binder/ndk/include_ndk/android/binder_interface_utils.h"
  }
 ],
 "functions" :
 [
  {
   "function_name" : "ndk::BnCInterface<aidl::android::hardware::identity::IIdentityCredential>::asBinder",
   "linker_set_key" : "_ZN3ndk12BnCInterfaceIN4aidl7android8hardware8identity19IIdentityCredentialEE8asBinderEv",
   "parameters" :
   [
    {
     "is_this_ptr" : true,
     "referenced_type" : "_ZTIPN3ndk12BnCInterfaceIN4aidl7android8hardware8identity19IIdentityCredentialEEE"
    }
   ],
   "return_type" : "_ZTIN3ndk10SpAIBinderE",
   "source_file" : "/frameworks/native/libs/binder/ndk/include_ndk/android/binder_interface_utils.h"
  },
  {
   "function_name" : "ndk::BnCInterface<aidl::android::hardware::identity::IIdentityCredentialStore>::asBinder",
   "linker_set_key" : "_ZN3ndk12BnCInterfaceIN4aidl7android8hardware8identity24IIdentityCredentialStoreEE8asBinderEv",
   "parameters" :
   [
    {
     "is_this_ptr" : true,
     "referenced_type" : "_ZTIPN3ndk12BnCInterfaceIN4aidl7android8hardware8identity24IIdentityCredentialStoreEEE"
    }
   ],
   "return_type" : "_ZTIN3ndk10SpAIBinderE",
   "source_file" : "/frameworks/native/libs/binder/ndk/include_ndk/android/binder_interface_utils.h"
  },
  {
   "function_name" : "ndk::BnCInterface<aidl::android::hardware::identity::IWritableIdentityCredential>::asBinder",
   "linker_set_key" : "_ZN3ndk12BnCInterfaceIN4aidl7android8hardware8identity27IWritableIdentityCredentialEE8asBinderEv",
   "parameters" :
   [
    {
     "is_this_ptr" : true,
     "referenced_type" : "_ZTIPN3ndk12BnCInterfaceIN4aidl7android8hardware8identity27IWritableIdentityCredentialEEE"
    }
   ],
   "return_type" : "_ZTIN3ndk10SpAIBinderE",
   "source_file" : "/frameworks/native/libs/binder/ndk/include_ndk/android/binder_interface_utils.h"
  },
  {
   "function_name" : "ndk::BpCInterface<aidl::android::hardware::identity::IIdentityCredential>::asBinder",
   "linker_set_key" : "_ZN3ndk12BpCInterfaceIN4aidl7android8hardware8identity19IIdentityCredentialEE8asBinderEv",
   "parameters" :
   [
    {
     "is_this_ptr" : true,
     "referenced_type" : "_ZTIPN3ndk12BpCInterfaceIN4aidl7android8hardware8identity19IIdentityCredentialEEE"
    }
   ],
   "return_type" : "_ZTIN3ndk10SpAIBinderE",
   "source_file" : "/frameworks/native/libs/binder/ndk/include_ndk/android/binder_interface_utils.h"
  },
  {
   "function_name" : "ndk::BpCInterface<aidl::android::hardware::identity::IIdentityCredentialStore>::asBinder",
   "linker_set_key" : "_ZN3ndk12BpCInterfaceIN4aidl7android8hardware8identity24IIdentityCredentialStoreEE8asBinderEv",
   "parameters" :
   [
    {
     "is_this_ptr" : true,
     "referenced_type" : "_ZTIPN3ndk12BpCInterfaceIN4aidl7android8hardware8identity24IIdentityCredentialStoreEEE"
    }
   ],
   "return_type" : "_ZTIN3ndk10SpAIBinderE",
   "source_file" : "/frameworks/native/libs/binder/ndk/include_ndk/android/binder_interface_utils.h"
  },
  {
   "function_name" : "ndk::BpCInterface<aidl::android::hardware::identity::IWritableIdentityCredential>::asBinder",
   "linker_set_key" : "_ZN3ndk12BpCInterfaceIN4aidl7android8hardware8identity27IWritableIdentityCredentialEE8asBinderEv",
   "parameters" :
   [
    {
     "is_this_ptr" : true,
     "referenced_type" : "_ZTIPN3ndk12BpCInterfaceIN4aidl7android8hardware8identity27IWritableIdentityCredentialEEE"
    }
   ],
   "return_type" : "_ZTIN3ndk10SpAIBinderE",
   "source_file" : "/frameworks/native/libs/binder/ndk/include_ndk/android/binder_interface_utils.h"
  },
  {
   "function_name" : "ndk::AParcel_readStdVectorParcelableElement",
   "linker_set_key" : "_ZN3ndk38AParcel_readStdVectorParcelableElementIN4aidl7android8hardware8identity11CertificateEEEiPK7AParcelPvm",
   "parameters" :
   [
    {
     "referenced_type" : "_ZTIPK7AParcel"
    },
    {
     "referenced_type" : "_ZTIPv"
    },
    {
     "referenced_type" : "_ZTIm"
    }
   ],
   "return_type" : "_ZTIi",
   "source_file" : "/frameworks/native/libs/binder/ndk/include_ndk/android/binder_parcel_utils.h",
   "template_args" : [ "_ZTIN4aidl7android8hardware8identity11CertificateE" ]
  },
  {
   "function_name" : "ndk::AParcel_readStdVectorParcelableElement",
   "linker_set_key" : "_ZN3ndk38AParcel_readStdVectorParcelableElementIN4aidl7android8hardware8identity15RequestDataItemEEEiPK7AParcelPvm",
   "parameters" :
   [
    {
     "referenced_type" : "_ZTIPK7AParcel"
    },
    {
     "referenced_type" : "_ZTIPv"
    },
    {
     "referenced_type" : "_ZTIm"
    }
   ],
   "return_type" : "_ZTIi",
   "source_file" : "/frameworks/native/libs/binder/ndk/include_ndk/android/binder_parcel_utils.h",
   "template_args" : [ "_ZTIN4aidl7android8hardware8identity15RequestDataItemE" ]
  },
  {
   "function_name" : "ndk::AParcel_readStdVectorParcelableElement",
   "linker_set_key" : "_ZN3ndk38AParcel_readStdVectorParcelableElementIN4aidl7android8hardware8identity16RequestNamespaceEEEiPK7AParcelPvm",
   "parameters" :
   [
    {
     "referenced_type" : "_ZTIPK7AParcel"
    },
    {
     "referenced_type" : "_ZTIPv"
    },
    {
     "referenced_type" : "_ZTIm"
    }
   ],
   "return_type" : "_ZTIi",
   "source_file" : "/frameworks/native/libs/binder/ndk/include_ndk/android/binder_parcel_utils.h",
   "template_args" : [ "_ZTIN4aidl7android8hardware8identity16RequestNamespaceE" ]
  },
  {
   "function_name" : "ndk::AParcel_readStdVectorParcelableElement",
   "linker_set_key" : "_ZN3ndk38AParcel_readStdVectorParcelableElementIN4aidl7android8hardware8identity26SecureAccessControlProfileEEEiPK7AParcelPvm",
   "parameters" :
   [
    {
     "referenced_type" : "_ZTIPK7AParcel"
    },
    {
     "referenced_type" : "_ZTIPv"
    },
    {
     "referenced_type" : "_ZTIm"
    }
   ],
   "return_type" : "_ZTIi",
   "source_file" : "/frameworks/native/libs/binder/ndk/include_ndk/android/binder_parcel_utils.h",
   "template_args" : [ "_ZTIN4aidl7android8hardware8identity26SecureAccessControlProfileE" ]
  },
  {
   "function_name" : "ndk::AParcel_writeStdVectorParcelableElement",
   "linker_set_key" : "_ZN3ndk39AParcel_writeStdVectorParcelableElementIN4aidl7android8hardware8identity11CertificateEEEiP7AParcelPKvm",
   "parameters" :
   [
    {
     "referenced_type" : "_ZTIP7AParcel"
    },
    {
     "referenced_type" : "_ZTIPKv"
    },
    {
     "referenced_type" : "_ZTIm"
    }
   ],
   "return_type" : "_ZTIi",
   "source_file" : "/frameworks/native/libs/binder/ndk/include_ndk/android/binder_parcel_utils.h",
   "template_args" : [ "_ZTIN4aidl7android8hardware8identity11CertificateE" ]
  },
  {
   "function_name" : "ndk::AParcel_writeStdVectorParcelableElement",
   "linker_set_key" : "_ZN3ndk39AParcel_writeStdVectorParcelableElementIN4aidl7android8hardware8identity15RequestDataItemEEEiP7AParcelPKvm",
   "parameters" :
   [
    {
     "referenced_type" : "_ZTIP7AParcel"
    },
    {
     "referenced_type" : "_ZTIPKv"
    },
    {
     "referenced_type" : "_ZTIm"
    }
   ],
   "return_type" : "_ZTIi",
   "source_file" : "/frameworks/native/libs/binder/ndk/include_ndk/android/binder_parcel_utils.h",
   "template_args" : [ "_ZTIN4aidl7android8hardware8identity15RequestDataItemE" ]
  },
  {
   "function_name" : "ndk::AParcel_writeStdVectorParcelableElement",
   "linker_set_key" : "_ZN3ndk39AParcel_writeStdVectorParcelableElementIN4aidl7android8hardware8identity16RequestNamespaceEEEiP7AParcelPKvm",
   "parameters" :
   [
    {
     "referenced_type" : "_ZTIP7AParcel"
    },
    {
     "referenced_type" : "_ZTIPKv"
    },
    {
     "referenced_type" : "_ZTIm"
    }
   ],
   "return_type" : "_ZTIi",
   "source_file" : "/frameworks/native/libs/binder/ndk/include_ndk/android/binder_parcel_utils.h",
   "template_args" : [ "_ZTIN4aidl7android8hardware8identity16RequestNamespaceE" ]
  },
  {
   "function_name" : "ndk::AParcel_writeStdVectorParcelableElement",
   "linker_set_key" : "_ZN3ndk39AParcel_writeStdVectorParcelableElementIN4aidl7android8hardware8identity26SecureAccessControlProfileEEEiP7AParcelPKvm",
   "parameters" :
   [
    {
     "referenced_type" : "_ZTIP7AParcel"
    },
    {
     "referenced_type" : "_ZTIPKv"
    },
    {
     "referenced_type" : "_ZTIm"
    }
   ],
   "return_type" : "_ZTIi",
   "source_file" : "/frameworks/native/libs/binder/ndk/include_ndk/android/binder_parcel_utils.h",
   "template_args" : [ "_ZTIN4aidl7android8hardware8identity26SecureAccessControlProfileE" ]
  },
  {
   "function_name" : "aidl::android::hardware::identity::Certificate::readFromParcel",
   "linker_set_key" : "_ZN4aidl7android8hardware8identity11Certificate14readFromParcelEPK7AParcel",
   "parameters" :
   [
    {
     "is_this_ptr" : true,
     "referenced_type" : "_ZTIPN4aidl7android8hardware8identity11CertificateE"
    },
    {
     "referenced_type" : "_ZTIPK7AParcel"
    }
   ],
   "return_type" : "_ZTIi",
   "source_file" : "/out/soong/.intermediates/hardware/interfaces/identity/aidl/android.hardware.identity-ndk_platform-source/gen/include/aidl/android/hardware/identity/Certificate.h"
  },
  {
   "function_name" : "aidl::android::hardware::identity::RequestDataItem::readFromParcel",
   "linker_set_key" : "_ZN4aidl7android8hardware8identity15RequestDataItem14readFromParcelEPK7AParcel",
   "parameters" :
   [
    {
     "is_this_ptr" : true,
     "referenced_type" : "_ZTIPN4aidl7android8hardware8identity15RequestDataItemE"
    },
    {
     "referenced_type" : "_ZTIPK7AParcel"
    }
   ],
   "return_type" : "_ZTIi",
   "source_file" : "/out/soong/.intermediates/hardware/interfaces/identity/aidl/android.hardware.identity-ndk_platform-source/gen/include/aidl/android/hardware/identity/RequestDataItem.h"
  },
  {
   "function_name" : "aidl::android::hardware::identity::RequestNamespace::readFromParcel",
   "linker_set_key" : "_ZN4aidl7android8hardware8identity16RequestNamespace14readFromParcelEPK7AParcel",
   "parameters" :
   [
    {
     "is_this_ptr" : true,
     "referenced_type" : "_ZTIPN4aidl7android8hardware8identity16RequestNamespaceE"
    },
    {
     "referenced_type" : "_ZTIPK7AParcel"
    }
   ],
   "return_type" : "_ZTIi",
   "source_file" : "/out/soong/.intermediates/hardware/interfaces/identity/aidl/android.hardware.identity-ndk_platform-source/gen/include/aidl/android/hardware/identity/RequestNamespace.h"
  },
  {
   "function_name" : "aidl::android::hardware::identity::HardwareInformation::readFromParcel",
   "linker_set_key" : "_ZN4aidl7android8hardware8identity19HardwareInformation14readFromParcelEPK7AParcel",
   "parameters" :
   [
    {
     "is_this_ptr" : true,
     "referenced_type" : "_ZTIPN4aidl7android8hardware8identity19HardwareInformationE"
    },
    {
     "referenced_type" : "_ZTIPK7AParcel"
    }
   ],
   "return_type" : "_ZTIi",
   "source_file" : "/out/soong/.intermediates/hardware/interfaces/identity/aidl/android.hardware.identity-ndk_platform-source/gen/include/aidl/android/hardware/identity/HardwareInformation.h"
  },
  {
   "function_name" : "aidl::android::hardware::identity::IIdentityCredential::fromBinder",
   "linker_set_key" : "_ZN4aidl7android8hardware8identity19IIdentityCredential10fromBinderERKN3ndk10SpAIBinderE",
   "parameters" :
   [
    {
     "referenced_type" : "_ZTIRKN3ndk10SpAIBinderE"
    }
   ],
   "return_type" : "_ZTINSt3__110shared_ptrIN4aidl7android8hardware8identity19IIdentityCredentialEEE",
   "source_file" : "/out/soong/.intermediates/hardware/interfaces/identity/aidl/android.hardware.identity-ndk_platform-source/gen/include/aidl/android/hardware/identity/IIdentityCredential.h"
  },
  {
   "function_name" : "aidl::android::hardware::identity::IIdentityCredential::writeToParcel",
   "linker_set_key" : "_ZN4aidl7android8hardware8identity19IIdentityCredential13writeToParcelEP7AParcelRKNSt3__110shared_ptrIS3_EE",
   "parameters" :
   [
    {
     "referenced_type" : "_ZTIP7AParcel"
    },
    {
     "referenced_type" : "_ZTIRKNSt3__110shared_ptrIN4aidl7android8hardware8identity19IIdentityCredentialEEE"
    }
   ],
   "return_type" : "_ZTIi",
   "source_file" : "/out/soong/.intermediates/hardware/interfaces/identity/aidl/android.hardware.identity-ndk_platform-source/gen/include/aidl/android/hardware/identity/IIdentityCredential.h"
  },
  {
   "function_name" : "aidl::android::hardware::identity::IIdentityCredential::getDefaultImpl",
   "linker_set_key" : "_ZN4aidl7android8hardware8identity19IIdentityCredential14getDefaultImplEv",
   "return_type" : "_ZTIRKNSt3__110shared_ptrIN4aidl7android8hardware8identity19IIdentityCredentialEEE",
   "source_file" : "/out/soong/.intermediates/hardware/interfaces/identity/aidl/android.hardware.identity-ndk_platform-source/gen/include/aidl/android/hardware/identity/IIdentityCredential.h"
  },
  {
   "function_name" : "aidl::android::hardware::identity::IIdentityCredential::readFromParcel",
   "linker_set_key" : "_ZN4aidl7android8hardware8identity19IIdentityCredential14readFromParcelEPK7AParcelPNSt3__110shared_ptrIS3_EE",
   "parameters" :
   [
    {
     "referenced_type" : "_ZTIPK7AParcel"
    },
    {
     "referenced_type" : "_ZTIPNSt3__110shared_ptrIN4aidl7android8hardware8identity19IIdentityCredentialEEE"
    }
   ],
   "return_type" : "_ZTIi",
   "source_file" : "/out/soong/.intermediates/hardware/interfaces/identity/aidl/android.hardware.identity-ndk_platform-source/gen/include/aidl/android/hardware/identity/IIdentityCredential.h"
  },
  {
   "function_name" : "aidl::android::hardware::identity::IIdentityCredential::setDefaultImpl",
   "linker_set_key" : "_ZN4aidl7android8hardware8identity19IIdentityCredential14setDefaultImplENSt3__110shared_ptrIS3_EE",
   "parameters" :
   [
    {
     "referenced_type" : "_ZTINSt3__110shared_ptrIN4aidl7android8hardware8identity19IIdentityCredentialEEE"
    }
   ],
   "return_type" : "_ZTIb",
   "source_file" : "/out/soong/.intermediates/hardware/interfaces/identity/aidl/android.hardware.identity-ndk_platform-source/gen/include/aidl/android/hardware/identity/IIdentityCredential.h"
  },
  {
   "function_name" : "aidl::android::hardware::identity::IIdentityCredential::IIdentityCredential",
   "linker_set_key" : "_ZN4aidl7android8hardware8identity19IIdentityCredentialC2Ev",
   "parameters" :
   [
    {
     "is_this_ptr" : true,
     "referenced_type" : "_ZTIPN4aidl7android8hardware8identity19IIdentityCredentialE"
    }
   ],
   "return_type" : "_ZTIv",
   "source_file" : "/out/soong/.intermediates/hardware/interfaces/identity/aidl/android.hardware.identity-ndk_platform-source/gen/include/aidl/android/hardware/identity/IIdentityCredential.h"
  },
  {
   "function_name" : "aidl::android::hardware::identity::IIdentityCredential::~IIdentityCredential",
   "linker_set_key" : "_ZN4aidl7android8hardware8identity19IIdentityCredentialD0Ev",
   "parameters" :
   [
    {
     "is_this_ptr" : true,
     "referenced_type" : "_ZTIPN4aidl7android8hardware8identity19IIdentityCredentialE"
    }
   ],
   "return_type" : "_ZTIv",
   "source_file" : "/out/soong/.intermediates/hardware/interfaces/identity/aidl/android.hardware.identity-ndk_platform-source/gen/include/aidl/android/hardware/identity/IIdentityCredential.h"
  },
  {
   "function_name" : "aidl::android::hardware::identity::IIdentityCredential::~IIdentityCredential",
   "linker_set_key" : "_ZN4aidl7android8hardware8identity19IIdentityCredentialD1Ev",
   "parameters" :
   [
    {
     "is_this_ptr" : true,
     "referenced_type" : "_ZTIPN4aidl7android8hardware8identity19IIdentityCredentialE"
    }
   ],
   "return_type" : "_ZTIv",
   "source_file" : "/out/soong/.intermediates/hardware/interfaces/identity/aidl/android.hardware.identity-ndk_platform-source/gen/include/aidl/android/hardware/identity/IIdentityCredential.h"
  },
  {
   "function_name" : "aidl::android::hardware::identity::IIdentityCredential::~IIdentityCredential",
   "linker_set_key" : "_ZN4aidl7android8hardware8identity19IIdentityCredentialD2Ev",
   "parameters" :
   [
    {
     "is_this_ptr" : true,
     "referenced_type" : "_ZTIPN4aidl7android8hardware8identity19IIdentityCredentialE"
    }
   ],
   "return_type" : "_ZTIv",
   "source_file" : "/out/soong/.intermediates/hardware/interfaces/identity/aidl/android.hardware.identity-ndk_platform-source/gen/include/aidl/android/hardware/identity/IIdentityCredential.h"
  },
  {
   "access" : "protected",
   "function_name" : "aidl::android::hardware::identity::BnIdentityCredential::createBinder",
   "linker_set_key" : "_ZN4aidl7android8hardware8identity20BnIdentityCredential12createBinderEv",
   "parameters" :
   [
    {
     "is_this_ptr" : true,
     "referenced_type" : "_ZTIPN4aidl7android8hardware8identity20BnIdentityCredentialE"
    }
   ],
   "return_type" : "_ZTIN3ndk10SpAIBinderE",
   "source_file" : "/out/soong/.intermediates/hardware/interfaces/identity/aidl/android.hardware.identity-ndk_platform-source/gen/include/aidl/android/hardware/identity/BnIdentityCredential.h"
  },
  {
   "function_name" : "aidl::android::hardware::identity::BnIdentityCredential::getInterfaceHash",
   "linker_set_key" : "_ZN4aidl7android8hardware8identity20BnIdentityCredential16getInterfaceHashEPNSt3__112basic_stringIcNS4_11char_traitsIcEENS4_9allocatorIcEEEE",
   "parameters" :
   [
    {
     "is_this_ptr" : true,
     "referenced_type" : "_ZTIPN4aidl7android8hardware8identity20BnIdentityCredentialE"
    },
    {
     "referenced_type" : "_ZTIPNSt3__112basic_stringIcNS_11char_traitsIcEENS_9allocatorIcEEEE"
    }
   ],
   "return_type" : "_ZTIN3ndk13ScopedAStatusE",
   "source_file" : "/out/soong/.intermediates/hardware/interfaces/identity/aidl/android.hardware.identity-ndk_platform-source/gen/include/aidl/android/hardware/identity/BnIdentityCredential.h"
  },
  {
   "function_name" : "aidl::android::hardware::identity::BnIdentityCredential::getInterfaceVersion",
   "linker_set_key" : "_ZN4aidl7android8hardware8identity20BnIdentityCredential19getInterfaceVersionEPi",
   "parameters" :
   [
    {
     "is_this_ptr" : true,
     "referenced_type" : "_ZTIPN4aidl7android8hardware8identity20BnIdentityCredentialE"
    },
    {
     "referenced_type" : "_ZTIPi"
    }
   ],
   "return_type" : "_ZTIN3ndk13ScopedAStatusE",
   "source_file" : "/out/soong/.intermediates/hardware/interfaces/identity/aidl/android.hardware.identity-ndk_platform-source/gen/include/aidl/android/hardware/identity/BnIdentityCredential.h"
  },
  {
   "function_name" : "aidl::android::hardware::identity::BnIdentityCredential::BnIdentityCredential",
   "linker_set_key" : "_ZN4aidl7android8hardware8identity20BnIdentityCredentialC2Ev",
   "parameters" :
   [
    {
     "is_this_ptr" : true,
     "referenced_type" : "_ZTIPN4aidl7android8hardware8identity20BnIdentityCredentialE"
    }
   ],
   "return_type" : "_ZTIv",
   "source_file" : "/out/soong/.intermediates/hardware/interfaces/identity/aidl/android.hardware.identity-ndk_platform-source/gen/include/aidl/android/hardware/identity/BnIdentityCredential.h"
  },
  {
   "function_name" : "aidl::android::hardware::identity::BnIdentityCredential::~BnIdentityCredential",
   "linker_set_key" : "_ZN4aidl7android8hardware8identity20BnIdentityCredentialD0Ev",
   "parameters" :
   [
    {
     "is_this_ptr" : true,
     "referenced_type" : "_ZTIPN4aidl7android8hardware8identity20BnIdentityCredentialE"
    }
   ],
   "return_type" : "_ZTIv",
   "source_file" : "/out/soong/.intermediates/hardware/interfaces/identity/aidl/android.hardware.identity-ndk_platform-source/gen/include/aidl/android/hardware/identity/BnIdentityCredential.h"
  },
  {
   "function_name" : "aidl::android::hardware::identity::BnIdentityCredential::~BnIdentityCredential",
   "linker_set_key" : "_ZN4aidl7android8hardware8identity20BnIdentityCredentialD1Ev",
   "parameters" :
   [
    {
     "is_this_ptr" : true,
     "referenced_type" : "_ZTIPN4aidl7android8hardware8identity20BnIdentityCredentialE"
    }
   ],
   "return_type" : "_ZTIv",
   "source_file" : "/out/soong/.intermediates/hardware/interfaces/identity/aidl/android.hardware.identity-ndk_platform-source/gen/include/aidl/android/hardware/identity/BnIdentityCredential.h"
  },
  {
   "function_name" : "aidl::android::hardware::identity::BnIdentityCredential::~BnIdentityCredential",
   "linker_set_key" : "_ZN4aidl7android8hardware8identity20BnIdentityCredentialD2Ev",
   "parameters" :
   [
    {
     "is_this_ptr" : true,
     "referenced_type" : "_ZTIPN4aidl7android8hardware8identity20BnIdentityCredentialE"
    }
   ],
   "return_type" : "_ZTIv",
   "source_file" : "/out/soong/.intermediates/hardware/interfaces/identity/aidl/android.hardware.identity-ndk_platform-source/gen/include/aidl/android/hardware/identity/BnIdentityCredential.h"
  },
  {
   "function_name" : "aidl::android::hardware::identity::BpIdentityCredential::startRetrieval",
   "linker_set_key" : "_ZN4aidl7android8hardware8identity20BpIdentityCredential14startRetrievalERKNSt3__16vectorINS2_26SecureAccessControlProfileENS4_9allocatorIS6_EEEERKNS1_9keymaster17HardwareAuthTokenERKNS5_IaNS7_IaEEEESJ_SJ_SJ_RKNS5_IiNS7_IiEEEE",
   "parameters" :
   [
    {
     "is_this_ptr" : true,
     "referenced_type" : "_ZTIPN4aidl7android8hardware8identity20BpIdentityCredentialE"
    },
    {
     "referenced_type" : "_ZTIRKNSt3__16vectorIN4aidl7android8hardware8identity26SecureAccessControlProfileENS_9allocatorIS5_EEEE"
    },
    {
     "referenced_type" : "_ZTIRKN4aidl7android8hardware9keymaster17HardwareAuthTokenE"
    },
    {
     "referenced_type" : "_ZTIRKNSt3__16vectorIaNS_9allocatorIaEEEE"
    },
    {
     "referenced_type" : "_ZTIRKNSt3__16vectorIaNS_9allocatorIaEEEE"
    },
    {
     "referenced_type" : "_ZTIRKNSt3__16vectorIaNS_9allocatorIaEEEE"
    },
    {
     "referenced_type" : "_ZTIRKNSt3__16vectorIaNS_9allocatorIaEEEE"
    },
    {
     "referenced_type" : "_ZTIRKNSt3__16vectorIiNS_9allocatorIiEEEE"
    }
   ],
   "return_type" : "_ZTIN3ndk13ScopedAStatusE",
   "source_file" : "/out/soong/.intermediates/hardware/interfaces/identity/aidl/android.hardware.identity-ndk_platform-source/gen/include/aidl/android/hardware/identity/BpIdentityCredential.h"
  },
  {
   "function_name" : "aidl::android::hardware::identity::BpIdentityCredential::finishRetrieval",
   "linker_set_key" : "_ZN4aidl7android8hardware8identity20BpIdentityCredential15finishRetrievalEPNSt3__16vectorIaNS4_9allocatorIaEEEES9_",
   "parameters" :
   [
    {
     "is_this_ptr" : true,
     "referenced_type" : "_ZTIPN4aidl7android8hardware8identity20BpIdentityCredentialE"
    },
    {
     "referenced_type" : "_ZTIPNSt3__16vectorIaNS_9allocatorIaEEEE"
    },
    {
     "referenced_type" : "_ZTIPNSt3__16vectorIaNS_9allocatorIaEEEE"
    }
   ],
   "return_type" : "_ZTIN3ndk13ScopedAStatusE",
   "source_file" : "/out/soong/.intermediates/hardware/interfaces/identity/aidl/android.hardware.identity-ndk_platform-source/gen/include/aidl/android/hardware/identity/BpIdentityCredential.h"
  },
  {
   "function_name" : "aidl::android::hardware::identity::BpIdentityCredential::deleteCredential",
   "linker_set_key" : "_ZN4aidl7android8hardware8identity20BpIdentityCredential16deleteCredentialEPNSt3__16vectorIaNS4_9allocatorIaEEEE",
   "parameters" :
   [
    {
     "is_this_ptr" : true,
     "referenced_type" : "_ZTIPN4aidl7android8hardware8identity20BpIdentityCredentialE"
    },
    {
     "referenced_type" : "_ZTIPNSt3__16vectorIaNS_9allocatorIaEEEE"
    }
   ],
   "return_type" : "_ZTIN3ndk13ScopedAStatusE",
   "source_file" : "/out/soong/.intermediates/hardware/interfaces/identity/aidl/android.hardware.identity-ndk_platform-source/gen/include/aidl/android/hardware/identity/BpIdentityCredential.h"
  },
  {
   "function_name" : "aidl::android::hardware::identity::BpIdentityCredential::getInterfaceHash",
   "linker_set_key" : "_ZN4aidl7android8hardware8identity20BpIdentityCredential16getInterfaceHashEPNSt3__112basic_stringIcNS4_11char_traitsIcEENS4_9allocatorIcEEEE",
   "parameters" :
   [
    {
     "is_this_ptr" : true,
     "referenced_type" : "_ZTIPN4aidl7android8hardware8identity20BpIdentityCredentialE"
    },
    {
     "referenced_type" : "_ZTIPNSt3__112basic_stringIcNS_11char_traitsIcEENS_9allocatorIcEEEE"
    }
   ],
   "return_type" : "_ZTIN3ndk13ScopedAStatusE",
   "source_file" : "/out/soong/.intermediates/hardware/interfaces/identity/aidl/android.hardware.identity-ndk_platform-source/gen/include/aidl/android/hardware/identity/BpIdentityCredential.h"
  },
  {
   "function_name" : "aidl::android::hardware::identity::BpIdentityCredential::retrieveEntryValue",
   "linker_set_key" : "_ZN4aidl7android8hardware8identity20BpIdentityCredential18retrieveEntryValueERKNSt3__16vectorIaNS4_9allocatorIaEEEEPS8_",
   "parameters" :
   [
    {
     "is_this_ptr" : true,
     "referenced_type" : "_ZTIPN4aidl7android8hardware8identity20BpIdentityCredentialE"
    },
    {
     "referenced_type" : "_ZTIRKNSt3__16vectorIaNS_9allocatorIaEEEE"
    },
    {
     "referenced_type" : "_ZTIPNSt3__16vectorIaNS_9allocatorIaEEEE"
    }
   ],
   "return_type" : "_ZTIN3ndk13ScopedAStatusE",
   "source_file" : "/out/soong/.intermediates/hardware/interfaces/identity/aidl/android.hardware.identity-ndk_platform-source/gen/include/aidl/android/hardware/identity/BpIdentityCredential.h"
  },
  {
   "function_name" : "aidl::android::hardware::identity::BpIdentityCredential::createAuthChallenge",
   "linker_set_key" : "_ZN4aidl7android8hardware8identity20BpIdentityCredential19createAuthChallengeEPl",
   "parameters" :
   [
    {
     "is_this_ptr" : true,
     "referenced_type" : "_ZTIPN4aidl7android8hardware8identity20BpIdentityCredentialE"
    },
    {
     "referenced_type" : "_ZTIPl"
    }
   ],
   "return_type" : "_ZTIN3ndk13ScopedAStatusE",
   "source_file" : "/out/soong/.intermediates/hardware/interfaces/identity/aidl/android.hardware.identity-ndk_platform-source/gen/include/aidl/android/hardware/identity/BpIdentityCredential.h"
  },
  {
   "function_name" : "aidl::android::hardware::identity::BpIdentityCredential::getInterfaceVersion",
   "linker_set_key" : "_ZN4aidl7android8hardware8identity20BpIdentityCredential19getInterfaceVersionEPi",
   "parameters" :
   [
    {
     "is_this_ptr" : true,
     "referenced_type" : "_ZTIPN4aidl7android8hardware8identity20BpIdentityCredentialE"
    },
    {
     "referenced_type" : "_ZTIPi"
    }
   ],
   "return_type" : "_ZTIN3ndk13ScopedAStatusE",
   "source_file" : "/out/soong/.intermediates/hardware/interfaces/identity/aidl/android.hardware.identity-ndk_platform-source/gen/include/aidl/android/hardware/identity/BpIdentityCredential.h"
  },
  {
   "function_name" : "aidl::android::hardware::identity::BpIdentityCredential::setVerificationToken",
   "linker_set_key" : "_ZN4aidl7android8hardware8identity20BpIdentityCredential20setVerificationTokenERKNS1_9keymaster17VerificationTokenE",
   "parameters" :
   [
    {
     "is_this_ptr" : true,
     "referenced_type" : "_ZTIPN4aidl7android8hardware8identity20BpIdentityCredentialE"
    },
    {
     "referenced_type" : "_ZTIRKN4aidl7android8hardware9keymaster17VerificationTokenE"
    }
   ],
   "return_type" : "_ZTIN3ndk13ScopedAStatusE",
   "source_file" : "/out/soong/.intermediates/hardware/interfaces/identity/aidl/android.hardware.identity-ndk_platform-source/gen/include/aidl/android/hardware/identity/BpIdentityCredential.h"
  },
  {
   "function_name" : "aidl::android::hardware::identity::BpIdentityCredential::createEphemeralKeyPair",
   "linker_set_key" : "_ZN4aidl7android8hardware8identity20BpIdentityCredential22createEphemeralKeyPairEPNSt3__16vectorIaNS4_9allocatorIaEEEE",
   "parameters" :
   [
    {
     "is_this_ptr" : true,
     "referenced_type" : "_ZTIPN4aidl7android8hardware8identity20BpIdentityCredentialE"
    },
    {
     "referenced_type" : "_ZTIPNSt3__16vectorIaNS_9allocatorIaEEEE"
    }
   ],
   "return_type" : "_ZTIN3ndk13ScopedAStatusE",
   "source_file" : "/out/soong/.intermediates/hardware/interfaces/identity/aidl/android.hardware.identity-ndk_platform-source/gen/include/aidl/android/hardware/identity/BpIdentityCredential.h"
  },
  {
   "function_name" : "aidl::android::hardware::identity::BpIdentityCredential::generateSigningKeyPair",
   "linker_set_key" : "_ZN4aidl7android8hardware8identity20BpIdentityCredential22generateSigningKeyPairEPNSt3__16vectorIaNS4_9allocatorIaEEEEPNS2_11CertificateE",
   "parameters" :
   [
    {
     "is_this_ptr" : true,
     "referenced_type" : "_ZTIPN4aidl7android8hardware8identity20BpIdentityCredentialE"
    },
    {
     "referenced_type" : "_ZTIPNSt3__16vectorIaNS_9allocatorIaEEEE"
    },
    {
     "referenced_type" : "_ZTIPN4aidl7android8hardware8identity11CertificateE"
    }
   ],
   "return_type" : "_ZTIN3ndk13ScopedAStatusE",
   "source_file" : "/out/soong/.intermediates/hardware/interfaces/identity/aidl/android.hardware.identity-ndk_platform-source/gen/include/aidl/android/hardware/identity/BpIdentityCredential.h"
  },
  {
   "function_name" : "aidl::android::hardware::identity::BpIdentityCredential::setRequestedNamespaces",
   "linker_set_key" : "_ZN4aidl7android8hardware8identity20BpIdentityCredential22setRequestedNamespacesERKNSt3__16vectorINS2_16RequestNamespaceENS4_9allocatorIS6_EEEE",
   "parameters" :
   [
    {
     "is_this_ptr" : true,
     "referenced_type" : "_ZTIPN4aidl7android8hardware8identity20BpIdentityCredentialE"
    },
    {
     "referenced_type" : "_ZTIRKNSt3__16vectorIN4aidl7android8hardware8identity16RequestNamespaceENS_9allocatorIS5_EEEE"
    }
   ],
   "return_type" : "_ZTIN3ndk13ScopedAStatusE",
   "source_file" : "/out/soong/.intermediates/hardware/interfaces/identity/aidl/android.hardware.identity-ndk_platform-source/gen/include/aidl/android/hardware/identity/BpIdentityCredential.h"
  },
  {
   "function_name" : "aidl::android::hardware::identity::BpIdentityCredential::startRetrieveEntryValue",
   "linker_set_key" : "_ZN4aidl7android8hardware8identity20BpIdentityCredential23startRetrieveEntryValueERKNSt3__112basic_stringIcNS4_11char_traitsIcEENS4_9allocatorIcEEEESC_iRKNS4_6vectorIiNS8_IiEEEE",
   "parameters" :
   [
    {
     "is_this_ptr" : true,
     "referenced_type" : "_ZTIPN4aidl7android8hardware8identity20BpIdentityCredentialE"
    },
    {
     "referenced_type" : "_ZTIRKNSt3__112basic_stringIcNS_11char_traitsIcEENS_9allocatorIcEEEE"
    },
    {
     "referenced_type" : "_ZTIRKNSt3__112basic_stringIcNS_11char_traitsIcEENS_9allocatorIcEEEE"
    },
    {
     "referenced_type" : "_ZTIi"
    },
    {
     "referenced_type" : "_ZTIRKNSt3__16vectorIiNS_9allocatorIiEEEE"
    }
   ],
   "return_type" : "_ZTIN3ndk13ScopedAStatusE",
   "source_file" : "/out/soong/.intermediates/hardware/interfaces/identity/aidl/android.hardware.identity-ndk_platform-source/gen/include/aidl/android/hardware/identity/BpIdentityCredential.h"
  },
  {
   "function_name" : "aidl::android::hardware::identity::BpIdentityCredential::setReaderEphemeralPublicKey",
   "linker_set_key" : "_ZN4aidl7android8hardware8identity20BpIdentityCredential27setReaderEphemeralPublicKeyERKNSt3__16vectorIaNS4_9allocatorIaEEEE",
   "parameters" :
   [
    {
     "is_this_ptr" : true,
     "referenced_type" : "_ZTIPN4aidl7android8hardware8identity20BpIdentityCredentialE"
    },
    {
     "referenced_type" : "_ZTIRKNSt3__16vectorIaNS_9allocatorIaEEEE"
    }
   ],
   "return_type" : "_ZTIN3ndk13ScopedAStatusE",
   "source_file" : "/out/soong/.intermediates/hardware/interfaces/identity/aidl/android.hardware.identity-ndk_platform-source/gen/include/aidl/android/hardware/identity/BpIdentityCredential.h"
  },
  {
   "function_name" : "aidl::android::hardware::identity::BpIdentityCredential::BpIdentityCredential",
   "linker_set_key" : "_ZN4aidl7android8hardware8identity20BpIdentityCredentialC1ERKN3ndk10SpAIBinderE",
   "parameters" :
   [
    {
     "is_this_ptr" : true,
     "referenced_type" : "_ZTIPN4aidl7android8hardware8identity20BpIdentityCredentialE"
    },
    {
     "referenced_type" : "_ZTIRKN3ndk10SpAIBinderE"
    }
   ],
   "return_type" : "_ZTIv",
   "source_file" : "/out/soong/.intermediates/hardware/interfaces/identity/aidl/android.hardware.identity-ndk_platform-source/gen/include/aidl/android/hardware/identity/BpIdentityCredential.h"
  },
  {
   "function_name" : "aidl::android::hardware::identity::BpIdentityCredential::BpIdentityCredential",
   "linker_set_key" : "_ZN4aidl7android8hardware8identity20BpIdentityCredentialC2ERKN3ndk10SpAIBinderE",
   "parameters" :
   [
    {
     "is_this_ptr" : true,
     "referenced_type" : "_ZTIPN4aidl7android8hardware8identity20BpIdentityCredentialE"
    },
    {
     "referenced_type" : "_ZTIRKN3ndk10SpAIBinderE"
    }
   ],
   "return_type" : "_ZTIv",
   "source_file" : "/out/soong/.intermediates/hardware/interfaces/identity/aidl/android.hardware.identity-ndk_platform-source/gen/include/aidl/android/hardware/identity/BpIdentityCredential.h"
  },
  {
   "function_name" : "aidl::android::hardware::identity::BpIdentityCredential::~BpIdentityCredential",
   "linker_set_key" : "_ZN4aidl7android8hardware8identity20BpIdentityCredentialD0Ev",
   "parameters" :
   [
    {
     "is_this_ptr" : true,
     "referenced_type" : "_ZTIPN4aidl7android8hardware8identity20BpIdentityCredentialE"
    }
   ],
   "return_type" : "_ZTIv",
   "source_file" : "/out/soong/.intermediates/hardware/interfaces/identity/aidl/android.hardware.identity-ndk_platform-source/gen/include/aidl/android/hardware/identity/BpIdentityCredential.h"
  },
  {
   "function_name" : "aidl::android::hardware::identity::BpIdentityCredential::~BpIdentityCredential",
   "linker_set_key" : "_ZN4aidl7android8hardware8identity20BpIdentityCredentialD1Ev",
   "parameters" :
   [
    {
     "is_this_ptr" : true,
     "referenced_type" : "_ZTIPN4aidl7android8hardware8identity20BpIdentityCredentialE"
    }
   ],
   "return_type" : "_ZTIv",
   "source_file" : "/out/soong/.intermediates/hardware/interfaces/identity/aidl/android.hardware.identity-ndk_platform-source/gen/include/aidl/android/hardware/identity/BpIdentityCredential.h"
  },
  {
   "function_name" : "aidl::android::hardware::identity::BpIdentityCredential::~BpIdentityCredential",
   "linker_set_key" : "_ZN4aidl7android8hardware8identity20BpIdentityCredentialD2Ev",
   "parameters" :
   [
    {
     "is_this_ptr" : true,
     "referenced_type" : "_ZTIPN4aidl7android8hardware8identity20BpIdentityCredentialE"
    }
   ],
   "return_type" : "_ZTIv",
   "source_file" : "/out/soong/.intermediates/hardware/interfaces/identity/aidl/android.hardware.identity-ndk_platform-source/gen/include/aidl/android/hardware/identity/BpIdentityCredential.h"
  },
  {
   "function_name" : "aidl::android::hardware::identity::IIdentityCredentialStore::fromBinder",
   "linker_set_key" : "_ZN4aidl7android8hardware8identity24IIdentityCredentialStore10fromBinderERKN3ndk10SpAIBinderE",
   "parameters" :
   [
    {
     "referenced_type" : "_ZTIRKN3ndk10SpAIBinderE"
    }
   ],
   "return_type" : "_ZTINSt3__110shared_ptrIN4aidl7android8hardware8identity24IIdentityCredentialStoreEEE",
   "source_file" : "/out/soong/.intermediates/hardware/interfaces/identity/aidl/android.hardware.identity-ndk_platform-source/gen/include/aidl/android/hardware/identity/IIdentityCredentialStore.h"
  },
  {
   "function_name" : "aidl::android::hardware::identity::IIdentityCredentialStore::writeToParcel",
   "linker_set_key" : "_ZN4aidl7android8hardware8identity24IIdentityCredentialStore13writeToParcelEP7AParcelRKNSt3__110shared_ptrIS3_EE",
   "parameters" :
   [
    {
     "referenced_type" : "_ZTIP7AParcel"
    },
    {
     "referenced_type" : "_ZTIRKNSt3__110shared_ptrIN4aidl7android8hardware8identity24IIdentityCredentialStoreEEE"
    }
   ],
   "return_type" : "_ZTIi",
   "source_file" : "/out/soong/.intermediates/hardware/interfaces/identity/aidl/android.hardware.identity-ndk_platform-source/gen/include/aidl/android/hardware/identity/IIdentityCredentialStore.h"
  },
  {
   "function_name" : "aidl::android::hardware::identity::IIdentityCredentialStore::getDefaultImpl",
   "linker_set_key" : "_ZN4aidl7android8hardware8identity24IIdentityCredentialStore14getDefaultImplEv",
   "return_type" : "_ZTIRKNSt3__110shared_ptrIN4aidl7android8hardware8identity24IIdentityCredentialStoreEEE",
   "source_file" : "/out/soong/.intermediates/hardware/interfaces/identity/aidl/android.hardware.identity-ndk_platform-source/gen/include/aidl/android/hardware/identity/IIdentityCredentialStore.h"
  },
  {
   "function_name" : "aidl::android::hardware::identity::IIdentityCredentialStore::readFromParcel",
   "linker_set_key" : "_ZN4aidl7android8hardware8identity24IIdentityCredentialStore14readFromParcelEPK7AParcelPNSt3__110shared_ptrIS3_EE",
   "parameters" :
   [
    {
     "referenced_type" : "_ZTIPK7AParcel"
    },
    {
     "referenced_type" : "_ZTIPNSt3__110shared_ptrIN4aidl7android8hardware8identity24IIdentityCredentialStoreEEE"
    }
   ],
   "return_type" : "_ZTIi",
   "source_file" : "/out/soong/.intermediates/hardware/interfaces/identity/aidl/android.hardware.identity-ndk_platform-source/gen/include/aidl/android/hardware/identity/IIdentityCredentialStore.h"
  },
  {
   "function_name" : "aidl::android::hardware::identity::IIdentityCredentialStore::setDefaultImpl",
   "linker_set_key" : "_ZN4aidl7android8hardware8identity24IIdentityCredentialStore14setDefaultImplENSt3__110shared_ptrIS3_EE",
   "parameters" :
   [
    {
     "referenced_type" : "_ZTINSt3__110shared_ptrIN4aidl7android8hardware8identity24IIdentityCredentialStoreEEE"
    }
   ],
   "return_type" : "_ZTIb",
   "source_file" : "/out/soong/.intermediates/hardware/interfaces/identity/aidl/android.hardware.identity-ndk_platform-source/gen/include/aidl/android/hardware/identity/IIdentityCredentialStore.h"
  },
  {
   "function_name" : "aidl::android::hardware::identity::IIdentityCredentialStore::IIdentityCredentialStore",
   "linker_set_key" : "_ZN4aidl7android8hardware8identity24IIdentityCredentialStoreC2Ev",
   "parameters" :
   [
    {
     "is_this_ptr" : true,
     "referenced_type" : "_ZTIPN4aidl7android8hardware8identity24IIdentityCredentialStoreE"
    }
   ],
   "return_type" : "_ZTIv",
   "source_file" : "/out/soong/.intermediates/hardware/interfaces/identity/aidl/android.hardware.identity-ndk_platform-source/gen/include/aidl/android/hardware/identity/IIdentityCredentialStore.h"
  },
  {
   "function_name" : "aidl::android::hardware::identity::IIdentityCredentialStore::~IIdentityCredentialStore",
   "linker_set_key" : "_ZN4aidl7android8hardware8identity24IIdentityCredentialStoreD0Ev",
   "parameters" :
   [
    {
     "is_this_ptr" : true,
     "referenced_type" : "_ZTIPN4aidl7android8hardware8identity24IIdentityCredentialStoreE"
    }
   ],
   "return_type" : "_ZTIv",
   "source_file" : "/out/soong/.intermediates/hardware/interfaces/identity/aidl/android.hardware.identity-ndk_platform-source/gen/include/aidl/android/hardware/identity/IIdentityCredentialStore.h"
  },
  {
   "function_name" : "aidl::android::hardware::identity::IIdentityCredentialStore::~IIdentityCredentialStore",
   "linker_set_key" : "_ZN4aidl7android8hardware8identity24IIdentityCredentialStoreD1Ev",
   "parameters" :
   [
    {
     "is_this_ptr" : true,
     "referenced_type" : "_ZTIPN4aidl7android8hardware8identity24IIdentityCredentialStoreE"
    }
   ],
   "return_type" : "_ZTIv",
   "source_file" : "/out/soong/.intermediates/hardware/interfaces/identity/aidl/android.hardware.identity-ndk_platform-source/gen/include/aidl/android/hardware/identity/IIdentityCredentialStore.h"
  },
  {
   "function_name" : "aidl::android::hardware::identity::IIdentityCredentialStore::~IIdentityCredentialStore",
   "linker_set_key" : "_ZN4aidl7android8hardware8identity24IIdentityCredentialStoreD2Ev",
   "parameters" :
   [
    {
     "is_this_ptr" : true,
     "referenced_type" : "_ZTIPN4aidl7android8hardware8identity24IIdentityCredentialStoreE"
    }
   ],
   "return_type" : "_ZTIv",
   "source_file" : "/out/soong/.intermediates/hardware/interfaces/identity/aidl/android.hardware.identity-ndk_platform-source/gen/include/aidl/android/hardware/identity/IIdentityCredentialStore.h"
  },
  {
   "access" : "protected",
   "function_name" : "aidl::android::hardware::identity::BnIdentityCredentialStore::createBinder",
   "linker_set_key" : "_ZN4aidl7android8hardware8identity25BnIdentityCredentialStore12createBinderEv",
   "parameters" :
   [
    {
     "is_this_ptr" : true,
     "referenced_type" : "_ZTIPN4aidl7android8hardware8identity25BnIdentityCredentialStoreE"
    }
   ],
   "return_type" : "_ZTIN3ndk10SpAIBinderE",
   "source_file" : "/out/soong/.intermediates/hardware/interfaces/identity/aidl/android.hardware.identity-ndk_platform-source/gen/include/aidl/android/hardware/identity/BnIdentityCredentialStore.h"
  },
  {
   "function_name" : "aidl::android::hardware::identity::BnIdentityCredentialStore::getInterfaceHash",
   "linker_set_key" : "_ZN4aidl7android8hardware8identity25BnIdentityCredentialStore16getInterfaceHashEPNSt3__112basic_stringIcNS4_11char_traitsIcEENS4_9allocatorIcEEEE",
   "parameters" :
   [
    {
     "is_this_ptr" : true,
     "referenced_type" : "_ZTIPN4aidl7android8hardware8identity25BnIdentityCredentialStoreE"
    },
    {
     "referenced_type" : "_ZTIPNSt3__112basic_stringIcNS_11char_traitsIcEENS_9allocatorIcEEEE"
    }
   ],
   "return_type" : "_ZTIN3ndk13ScopedAStatusE",
   "source_file" : "/out/soong/.intermediates/hardware/interfaces/identity/aidl/android.hardware.identity-ndk_platform-source/gen/include/aidl/android/hardware/identity/BnIdentityCredentialStore.h"
  },
  {
   "function_name" : "aidl::android::hardware::identity::BnIdentityCredentialStore::getInterfaceVersion",
   "linker_set_key" : "_ZN4aidl7android8hardware8identity25BnIdentityCredentialStore19getInterfaceVersionEPi",
   "parameters" :
   [
    {
     "is_this_ptr" : true,
     "referenced_type" : "_ZTIPN4aidl7android8hardware8identity25BnIdentityCredentialStoreE"
    },
    {
     "referenced_type" : "_ZTIPi"
    }
   ],
   "return_type" : "_ZTIN3ndk13ScopedAStatusE",
   "source_file" : "/out/soong/.intermediates/hardware/interfaces/identity/aidl/android.hardware.identity-ndk_platform-source/gen/include/aidl/android/hardware/identity/BnIdentityCredentialStore.h"
  },
  {
   "function_name" : "aidl::android::hardware::identity::BnIdentityCredentialStore::BnIdentityCredentialStore",
   "linker_set_key" : "_ZN4aidl7android8hardware8identity25BnIdentityCredentialStoreC2Ev",
   "parameters" :
   [
    {
     "is_this_ptr" : true,
     "referenced_type" : "_ZTIPN4aidl7android8hardware8identity25BnIdentityCredentialStoreE"
    }
   ],
   "return_type" : "_ZTIv",
   "source_file" : "/out/soong/.intermediates/hardware/interfaces/identity/aidl/android.hardware.identity-ndk_platform-source/gen/include/aidl/android/hardware/identity/BnIdentityCredentialStore.h"
  },
  {
   "function_name" : "aidl::android::hardware::identity::BnIdentityCredentialStore::~BnIdentityCredentialStore",
   "linker_set_key" : "_ZN4aidl7android8hardware8identity25BnIdentityCredentialStoreD0Ev",
   "parameters" :
   [
    {
     "is_this_ptr" : true,
     "referenced_type" : "_ZTIPN4aidl7android8hardware8identity25BnIdentityCredentialStoreE"
    }
   ],
   "return_type" : "_ZTIv",
   "source_file" : "/out/soong/.intermediates/hardware/interfaces/identity/aidl/android.hardware.identity-ndk_platform-source/gen/include/aidl/android/hardware/identity/BnIdentityCredentialStore.h"
  },
  {
   "function_name" : "aidl::android::hardware::identity::BnIdentityCredentialStore::~BnIdentityCredentialStore",
   "linker_set_key" : "_ZN4aidl7android8hardware8identity25BnIdentityCredentialStoreD1Ev",
   "parameters" :
   [
    {
     "is_this_ptr" : true,
     "referenced_type" : "_ZTIPN4aidl7android8hardware8identity25BnIdentityCredentialStoreE"
    }
   ],
   "return_type" : "_ZTIv",
   "source_file" : "/out/soong/.intermediates/hardware/interfaces/identity/aidl/android.hardware.identity-ndk_platform-source/gen/include/aidl/android/hardware/identity/BnIdentityCredentialStore.h"
  },
  {
   "function_name" : "aidl::android::hardware::identity::BnIdentityCredentialStore::~BnIdentityCredentialStore",
   "linker_set_key" : "_ZN4aidl7android8hardware8identity25BnIdentityCredentialStoreD2Ev",
   "parameters" :
   [
    {
     "is_this_ptr" : true,
     "referenced_type" : "_ZTIPN4aidl7android8hardware8identity25BnIdentityCredentialStoreE"
    }
   ],
   "return_type" : "_ZTIv",
   "source_file" : "/out/soong/.intermediates/hardware/interfaces/identity/aidl/android.hardware.identity-ndk_platform-source/gen/include/aidl/android/hardware/identity/BnIdentityCredentialStore.h"
  },
  {
   "function_name" : "aidl::android::hardware::identity::BpIdentityCredentialStore::getCredential",
   "linker_set_key" : "_ZN4aidl7android8hardware8identity25BpIdentityCredentialStore13getCredentialENS2_11CipherSuiteERKNSt3__16vectorIaNS5_9allocatorIaEEEEPNS5_10shared_ptrINS2_19IIdentityCredentialEEE",
   "parameters" :
   [
    {
     "is_this_ptr" : true,
     "referenced_type" : "_ZTIPN4aidl7android8hardware8identity25BpIdentityCredentialStoreE"
    },
    {
     "referenced_type" : "_ZTIN4aidl7android8hardware8identity11CipherSuiteE"
    },
    {
     "referenced_type" : "_ZTIRKNSt3__16vectorIaNS_9allocatorIaEEEE"
    },
    {
     "referenced_type" : "_ZTIPNSt3__110shared_ptrIN4aidl7android8hardware8identity19IIdentityCredentialEEE"
    }
   ],
   "return_type" : "_ZTIN3ndk13ScopedAStatusE",
   "source_file" : "/out/soong/.intermediates/hardware/interfaces/identity/aidl/android.hardware.identity-ndk_platform-source/gen/include/aidl/android/hardware/identity/BpIdentityCredentialStore.h"
  },
  {
   "function_name" : "aidl::android::hardware::identity::BpIdentityCredentialStore::createCredential",
   "linker_set_key" : "_ZN4aidl7android8hardware8identity25BpIdentityCredentialStore16createCredentialERKNSt3__112basic_stringIcNS4_11char_traitsIcEENS4_9allocatorIcEEEEbPNS4_10shared_ptrINS2_27IWritableIdentityCredentialEEE",
   "parameters" :
   [
    {
     "is_this_ptr" : true,
     "referenced_type" : "_ZTIPN4aidl7android8hardware8identity25BpIdentityCredentialStoreE"
    },
    {
     "referenced_type" : "_ZTIRKNSt3__112basic_stringIcNS_11char_traitsIcEENS_9allocatorIcEEEE"
    },
    {
     "referenced_type" : "_ZTIb"
    },
    {
     "referenced_type" : "_ZTIPNSt3__110shared_ptrIN4aidl7android8hardware8identity27IWritableIdentityCredentialEEE"
    }
   ],
   "return_type" : "_ZTIN3ndk13ScopedAStatusE",
   "source_file" : "/out/soong/.intermediates/hardware/interfaces/identity/aidl/android.hardware.identity-ndk_platform-source/gen/include/aidl/android/hardware/identity/BpIdentityCredentialStore.h"
  },
  {
   "function_name" : "aidl::android::hardware::identity::BpIdentityCredentialStore::getInterfaceHash",
   "linker_set_key" : "_ZN4aidl7android8hardware8identity25BpIdentityCredentialStore16getInterfaceHashEPNSt3__112basic_stringIcNS4_11char_traitsIcEENS4_9allocatorIcEEEE",
   "parameters" :
   [
    {
     "is_this_ptr" : true,
     "referenced_type" : "_ZTIPN4aidl7android8hardware8identity25BpIdentityCredentialStoreE"
    },
    {
     "referenced_type" : "_ZTIPNSt3__112basic_stringIcNS_11char_traitsIcEENS_9allocatorIcEEEE"
    }
   ],
   "return_type" : "_ZTIN3ndk13ScopedAStatusE",
   "source_file" : "/out/soong/.intermediates/hardware/interfaces/identity/aidl/android.hardware.identity-ndk_platform-source/gen/include/aidl/android/hardware/identity/BpIdentityCredentialStore.h"
  },
  {
   "function_name" : "aidl::android::hardware::identity::BpIdentityCredentialStore::getInterfaceVersion",
   "linker_set_key" : "_ZN4aidl7android8hardware8identity25BpIdentityCredentialStore19getInterfaceVersionEPi",
   "parameters" :
   [
    {
     "is_this_ptr" : true,
     "referenced_type" : "_ZTIPN4aidl7android8hardware8identity25BpIdentityCredentialStoreE"
    },
    {
     "referenced_type" : "_ZTIPi"
    }
   ],
   "return_type" : "_ZTIN3ndk13ScopedAStatusE",
   "source_file" : "/out/soong/.intermediates/hardware/interfaces/identity/aidl/android.hardware.identity-ndk_platform-source/gen/include/aidl/android/hardware/identity/BpIdentityCredentialStore.h"
  },
  {
   "function_name" : "aidl::android::hardware::identity::BpIdentityCredentialStore::getHardwareInformation",
   "linker_set_key" : "_ZN4aidl7android8hardware8identity25BpIdentityCredentialStore22getHardwareInformationEPNS2_19HardwareInformationE",
   "parameters" :
   [
    {
     "is_this_ptr" : true,
     "referenced_type" : "_ZTIPN4aidl7android8hardware8identity25BpIdentityCredentialStoreE"
    },
    {
     "referenced_type" : "_ZTIPN4aidl7android8hardware8identity19HardwareInformationE"
    }
   ],
   "return_type" : "_ZTIN3ndk13ScopedAStatusE",
   "source_file" : "/out/soong/.intermediates/hardware/interfaces/identity/aidl/android.hardware.identity-ndk_platform-source/gen/include/aidl/android/hardware/identity/BpIdentityCredentialStore.h"
  },
  {
   "function_name" : "aidl::android::hardware::identity::BpIdentityCredentialStore::BpIdentityCredentialStore",
   "linker_set_key" : "_ZN4aidl7android8hardware8identity25BpIdentityCredentialStoreC1ERKN3ndk10SpAIBinderE",
   "parameters" :
   [
    {
     "is_this_ptr" : true,
     "referenced_type" : "_ZTIPN4aidl7android8hardware8identity25BpIdentityCredentialStoreE"
    },
    {
     "referenced_type" : "_ZTIRKN3ndk10SpAIBinderE"
    }
   ],
   "return_type" : "_ZTIv",
   "source_file" : "/out/soong/.intermediates/hardware/interfaces/identity/aidl/android.hardware.identity-ndk_platform-source/gen/include/aidl/android/hardware/identity/BpIdentityCredentialStore.h"
  },
  {
   "function_name" : "aidl::android::hardware::identity::BpIdentityCredentialStore::BpIdentityCredentialStore",
   "linker_set_key" : "_ZN4aidl7android8hardware8identity25BpIdentityCredentialStoreC2ERKN3ndk10SpAIBinderE",
   "parameters" :
   [
    {
     "is_this_ptr" : true,
     "referenced_type" : "_ZTIPN4aidl7android8hardware8identity25BpIdentityCredentialStoreE"
    },
    {
     "referenced_type" : "_ZTIRKN3ndk10SpAIBinderE"
    }
   ],
   "return_type" : "_ZTIv",
   "source_file" : "/out/soong/.intermediates/hardware/interfaces/identity/aidl/android.hardware.identity-ndk_platform-source/gen/include/aidl/android/hardware/identity/BpIdentityCredentialStore.h"
  },
  {
   "function_name" : "aidl::android::hardware::identity::BpIdentityCredentialStore::~BpIdentityCredentialStore",
   "linker_set_key" : "_ZN4aidl7android8hardware8identity25BpIdentityCredentialStoreD0Ev",
   "parameters" :
   [
    {
     "is_this_ptr" : true,
     "referenced_type" : "_ZTIPN4aidl7android8hardware8identity25BpIdentityCredentialStoreE"
    }
   ],
   "return_type" : "_ZTIv",
   "source_file" : "/out/soong/.intermediates/hardware/interfaces/identity/aidl/android.hardware.identity-ndk_platform-source/gen/include/aidl/android/hardware/identity/BpIdentityCredentialStore.h"
  },
  {
   "function_name" : "aidl::android::hardware::identity::BpIdentityCredentialStore::~BpIdentityCredentialStore",
   "linker_set_key" : "_ZN4aidl7android8hardware8identity25BpIdentityCredentialStoreD1Ev",
   "parameters" :
   [
    {
     "is_this_ptr" : true,
     "referenced_type" : "_ZTIPN4aidl7android8hardware8identity25BpIdentityCredentialStoreE"
    }
   ],
   "return_type" : "_ZTIv",
   "source_file" : "/out/soong/.intermediates/hardware/interfaces/identity/aidl/android.hardware.identity-ndk_platform-source/gen/include/aidl/android/hardware/identity/BpIdentityCredentialStore.h"
  },
  {
   "function_name" : "aidl::android::hardware::identity::BpIdentityCredentialStore::~BpIdentityCredentialStore",
   "linker_set_key" : "_ZN4aidl7android8hardware8identity25BpIdentityCredentialStoreD2Ev",
   "parameters" :
   [
    {
     "is_this_ptr" : true,
     "referenced_type" : "_ZTIPN4aidl7android8hardware8identity25BpIdentityCredentialStoreE"
    }
   ],
   "return_type" : "_ZTIv",
   "source_file" : "/out/soong/.intermediates/hardware/interfaces/identity/aidl/android.hardware.identity-ndk_platform-source/gen/include/aidl/android/hardware/identity/BpIdentityCredentialStore.h"
  },
  {
   "function_name" : "aidl::android::hardware::identity::IIdentityCredentialDefault::startRetrieval",
   "linker_set_key" : "_ZN4aidl7android8hardware8identity26IIdentityCredentialDefault14startRetrievalERKNSt3__16vectorINS2_26SecureAccessControlProfileENS4_9allocatorIS6_EEEERKNS1_9keymaster17HardwareAuthTokenERKNS5_IaNS7_IaEEEESJ_SJ_SJ_RKNS5_IiNS7_IiEEEE",
   "parameters" :
   [
    {
     "is_this_ptr" : true,
     "referenced_type" : "_ZTIPN4aidl7android8hardware8identity26IIdentityCredentialDefaultE"
    },
    {
     "referenced_type" : "_ZTIRKNSt3__16vectorIN4aidl7android8hardware8identity26SecureAccessControlProfileENS_9allocatorIS5_EEEE"
    },
    {
     "referenced_type" : "_ZTIRKN4aidl7android8hardware9keymaster17HardwareAuthTokenE"
    },
    {
     "referenced_type" : "_ZTIRKNSt3__16vectorIaNS_9allocatorIaEEEE"
    },
    {
     "referenced_type" : "_ZTIRKNSt3__16vectorIaNS_9allocatorIaEEEE"
    },
    {
     "referenced_type" : "_ZTIRKNSt3__16vectorIaNS_9allocatorIaEEEE"
    },
    {
     "referenced_type" : "_ZTIRKNSt3__16vectorIaNS_9allocatorIaEEEE"
    },
    {
     "referenced_type" : "_ZTIRKNSt3__16vectorIiNS_9allocatorIiEEEE"
    }
   ],
   "return_type" : "_ZTIN3ndk13ScopedAStatusE",
   "source_file" : "/out/soong/.intermediates/hardware/interfaces/identity/aidl/android.hardware.identity-ndk_platform-source/gen/include/aidl/android/hardware/identity/IIdentityCredential.h"
  },
  {
   "function_name" : "aidl::android::hardware::identity::IIdentityCredentialDefault::finishRetrieval",
   "linker_set_key" : "_ZN4aidl7android8hardware8identity26IIdentityCredentialDefault15finishRetrievalEPNSt3__16vectorIaNS4_9allocatorIaEEEES9_",
   "parameters" :
   [
    {
     "is_this_ptr" : true,
     "referenced_type" : "_ZTIPN4aidl7android8hardware8identity26IIdentityCredentialDefaultE"
    },
    {
     "referenced_type" : "_ZTIPNSt3__16vectorIaNS_9allocatorIaEEEE"
    },
    {
     "referenced_type" : "_ZTIPNSt3__16vectorIaNS_9allocatorIaEEEE"
    }
   ],
   "return_type" : "_ZTIN3ndk13ScopedAStatusE",
   "source_file" : "/out/soong/.intermediates/hardware/interfaces/identity/aidl/android.hardware.identity-ndk_platform-source/gen/include/aidl/android/hardware/identity/IIdentityCredential.h"
  },
  {
   "function_name" : "aidl::android::hardware::identity::IIdentityCredentialDefault::deleteCredential",
   "linker_set_key" : "_ZN4aidl7android8hardware8identity26IIdentityCredentialDefault16deleteCredentialEPNSt3__16vectorIaNS4_9allocatorIaEEEE",
   "parameters" :
   [
    {
     "is_this_ptr" : true,
     "referenced_type" : "_ZTIPN4aidl7android8hardware8identity26IIdentityCredentialDefaultE"
    },
    {
     "referenced_type" : "_ZTIPNSt3__16vectorIaNS_9allocatorIaEEEE"
    }
   ],
   "return_type" : "_ZTIN3ndk13ScopedAStatusE",
   "source_file" : "/out/soong/.intermediates/hardware/interfaces/identity/aidl/android.hardware.identity-ndk_platform-source/gen/include/aidl/android/hardware/identity/IIdentityCredential.h"
  },
  {
   "function_name" : "aidl::android::hardware::identity::IIdentityCredentialDefault::getInterfaceHash",
   "linker_set_key" : "_ZN4aidl7android8hardware8identity26IIdentityCredentialDefault16getInterfaceHashEPNSt3__112basic_stringIcNS4_11char_traitsIcEENS4_9allocatorIcEEEE",
   "parameters" :
   [
    {
     "is_this_ptr" : true,
     "referenced_type" : "_ZTIPN4aidl7android8hardware8identity26IIdentityCredentialDefaultE"
    },
    {
     "referenced_type" : "_ZTIPNSt3__112basic_stringIcNS_11char_traitsIcEENS_9allocatorIcEEEE"
    }
   ],
   "return_type" : "_ZTIN3ndk13ScopedAStatusE",
   "source_file" : "/out/soong/.intermediates/hardware/interfaces/identity/aidl/android.hardware.identity-ndk_platform-source/gen/include/aidl/android/hardware/identity/IIdentityCredential.h"
  },
  {
   "function_name" : "aidl::android::hardware::identity::IIdentityCredentialDefault::retrieveEntryValue",
   "linker_set_key" : "_ZN4aidl7android8hardware8identity26IIdentityCredentialDefault18retrieveEntryValueERKNSt3__16vectorIaNS4_9allocatorIaEEEEPS8_",
   "parameters" :
   [
    {
     "is_this_ptr" : true,
     "referenced_type" : "_ZTIPN4aidl7android8hardware8identity26IIdentityCredentialDefaultE"
    },
    {
     "referenced_type" : "_ZTIRKNSt3__16vectorIaNS_9allocatorIaEEEE"
    },
    {
     "referenced_type" : "_ZTIPNSt3__16vectorIaNS_9allocatorIaEEEE"
    }
   ],
   "return_type" : "_ZTIN3ndk13ScopedAStatusE",
   "source_file" : "/out/soong/.intermediates/hardware/interfaces/identity/aidl/android.hardware.identity-ndk_platform-source/gen/include/aidl/android/hardware/identity/IIdentityCredential.h"
  },
  {
   "function_name" : "aidl::android::hardware::identity::IIdentityCredentialDefault::createAuthChallenge",
   "linker_set_key" : "_ZN4aidl7android8hardware8identity26IIdentityCredentialDefault19createAuthChallengeEPl",
   "parameters" :
   [
    {
     "is_this_ptr" : true,
     "referenced_type" : "_ZTIPN4aidl7android8hardware8identity26IIdentityCredentialDefaultE"
    },
    {
     "referenced_type" : "_ZTIPl"
    }
   ],
   "return_type" : "_ZTIN3ndk13ScopedAStatusE",
   "source_file" : "/out/soong/.intermediates/hardware/interfaces/identity/aidl/android.hardware.identity-ndk_platform-source/gen/include/aidl/android/hardware/identity/IIdentityCredential.h"
  },
  {
   "function_name" : "aidl::android::hardware::identity::IIdentityCredentialDefault::getInterfaceVersion",
   "linker_set_key" : "_ZN4aidl7android8hardware8identity26IIdentityCredentialDefault19getInterfaceVersionEPi",
   "parameters" :
   [
    {
     "is_this_ptr" : true,
     "referenced_type" : "_ZTIPN4aidl7android8hardware8identity26IIdentityCredentialDefaultE"
    },
    {
     "referenced_type" : "_ZTIPi"
    }
   ],
   "return_type" : "_ZTIN3ndk13ScopedAStatusE",
   "source_file" : "/out/soong/.intermediates/hardware/interfaces/identity/aidl/android.hardware.identity-ndk_platform-source/gen/include/aidl/android/hardware/identity/IIdentityCredential.h"
  },
  {
   "function_name" : "aidl::android::hardware::identity::IIdentityCredentialDefault::setVerificationToken",
   "linker_set_key" : "_ZN4aidl7android8hardware8identity26IIdentityCredentialDefault20setVerificationTokenERKNS1_9keymaster17VerificationTokenE",
   "parameters" :
   [
    {
     "is_this_ptr" : true,
     "referenced_type" : "_ZTIPN4aidl7android8hardware8identity26IIdentityCredentialDefaultE"
    },
    {
     "referenced_type" : "_ZTIRKN4aidl7android8hardware9keymaster17VerificationTokenE"
    }
   ],
   "return_type" : "_ZTIN3ndk13ScopedAStatusE",
   "source_file" : "/out/soong/.intermediates/hardware/interfaces/identity/aidl/android.hardware.identity-ndk_platform-source/gen/include/aidl/android/hardware/identity/IIdentityCredential.h"
  },
  {
   "function_name" : "aidl::android::hardware::identity::IIdentityCredentialDefault::createEphemeralKeyPair",
   "linker_set_key" : "_ZN4aidl7android8hardware8identity26IIdentityCredentialDefault22createEphemeralKeyPairEPNSt3__16vectorIaNS4_9allocatorIaEEEE",
   "parameters" :
   [
    {
     "is_this_ptr" : true,
     "referenced_type" : "_ZTIPN4aidl7android8hardware8identity26IIdentityCredentialDefaultE"
    },
    {
     "referenced_type" : "_ZTIPNSt3__16vectorIaNS_9allocatorIaEEEE"
    }
   ],
   "return_type" : "_ZTIN3ndk13ScopedAStatusE",
   "source_file" : "/out/soong/.intermediates/hardware/interfaces/identity/aidl/android.hardware.identity-ndk_platform-source/gen/include/aidl/android/hardware/identity/IIdentityCredential.h"
  },
  {
   "function_name" : "aidl::android::hardware::identity::IIdentityCredentialDefault::generateSigningKeyPair",
   "linker_set_key" : "_ZN4aidl7android8hardware8identity26IIdentityCredentialDefault22generateSigningKeyPairEPNSt3__16vectorIaNS4_9allocatorIaEEEEPNS2_11CertificateE",
   "parameters" :
   [
    {
     "is_this_ptr" : true,
     "referenced_type" : "_ZTIPN4aidl7android8hardware8identity26IIdentityCredentialDefaultE"
    },
    {
     "referenced_type" : "_ZTIPNSt3__16vectorIaNS_9allocatorIaEEEE"
    },
    {
     "referenced_type" : "_ZTIPN4aidl7android8hardware8identity11CertificateE"
    }
   ],
   "return_type" : "_ZTIN3ndk13ScopedAStatusE",
   "source_file" : "/out/soong/.intermediates/hardware/interfaces/identity/aidl/android.hardware.identity-ndk_platform-source/gen/include/aidl/android/hardware/identity/IIdentityCredential.h"
  },
  {
   "function_name" : "aidl::android::hardware::identity::IIdentityCredentialDefault::setRequestedNamespaces",
   "linker_set_key" : "_ZN4aidl7android8hardware8identity26IIdentityCredentialDefault22setRequestedNamespacesERKNSt3__16vectorINS2_16RequestNamespaceENS4_9allocatorIS6_EEEE",
   "parameters" :
   [
    {
     "is_this_ptr" : true,
     "referenced_type" : "_ZTIPN4aidl7android8hardware8identity26IIdentityCredentialDefaultE"
    },
    {
     "referenced_type" : "_ZTIRKNSt3__16vectorIN4aidl7android8hardware8identity16RequestNamespaceENS_9allocatorIS5_EEEE"
    }
   ],
   "return_type" : "_ZTIN3ndk13ScopedAStatusE",
   "source_file" : "/out/soong/.intermediates/hardware/interfaces/identity/aidl/android.hardware.identity-ndk_platform-source/gen/include/aidl/android/hardware/identity/IIdentityCredential.h"
  },
  {
   "function_name" : "aidl::android::hardware::identity::IIdentityCredentialDefault::startRetrieveEntryValue",
   "linker_set_key" : "_ZN4aidl7android8hardware8identity26IIdentityCredentialDefault23startRetrieveEntryValueERKNSt3__112basic_stringIcNS4_11char_traitsIcEENS4_9allocatorIcEEEESC_iRKNS4_6vectorIiNS8_IiEEEE",
   "parameters" :
   [
    {
     "is_this_ptr" : true,
     "referenced_type" : "_ZTIPN4aidl7android8hardware8identity26IIdentityCredentialDefaultE"
    },
    {
     "referenced_type" : "_ZTIRKNSt3__112basic_stringIcNS_11char_traitsIcEENS_9allocatorIcEEEE"
    },
    {
     "referenced_type" : "_ZTIRKNSt3__112basic_stringIcNS_11char_traitsIcEENS_9allocatorIcEEEE"
    },
    {
     "referenced_type" : "_ZTIi"
    },
    {
     "referenced_type" : "_ZTIRKNSt3__16vectorIiNS_9allocatorIiEEEE"
    }
   ],
   "return_type" : "_ZTIN3ndk13ScopedAStatusE",
   "source_file" : "/out/soong/.intermediates/hardware/interfaces/identity/aidl/android.hardware.identity-ndk_platform-source/gen/include/aidl/android/hardware/identity/IIdentityCredential.h"
  },
  {
   "function_name" : "aidl::android::hardware::identity::IIdentityCredentialDefault::setReaderEphemeralPublicKey",
   "linker_set_key" : "_ZN4aidl7android8hardware8identity26IIdentityCredentialDefault27setReaderEphemeralPublicKeyERKNSt3__16vectorIaNS4_9allocatorIaEEEE",
   "parameters" :
   [
    {
     "is_this_ptr" : true,
     "referenced_type" : "_ZTIPN4aidl7android8hardware8identity26IIdentityCredentialDefaultE"
    },
    {
     "referenced_type" : "_ZTIRKNSt3__16vectorIaNS_9allocatorIaEEEE"
    }
   ],
   "return_type" : "_ZTIN3ndk13ScopedAStatusE",
   "source_file" : "/out/soong/.intermediates/hardware/interfaces/identity/aidl/android.hardware.identity-ndk_platform-source/gen/include/aidl/android/hardware/identity/IIdentityCredential.h"
  },
  {
   "function_name" : "aidl::android::hardware::identity::IIdentityCredentialDefault::asBinder",
   "linker_set_key" : "_ZN4aidl7android8hardware8identity26IIdentityCredentialDefault8asBinderEv",
   "parameters" :
   [
    {
     "is_this_ptr" : true,
     "referenced_type" : "_ZTIPN4aidl7android8hardware8identity26IIdentityCredentialDefaultE"
    }
   ],
   "return_type" : "_ZTIN3ndk10SpAIBinderE",
   "source_file" : "/out/soong/.intermediates/hardware/interfaces/identity/aidl/android.hardware.identity-ndk_platform-source/gen/include/aidl/android/hardware/identity/IIdentityCredential.h"
  },
  {
   "function_name" : "aidl::android::hardware::identity::IIdentityCredentialDefault::isRemote",
   "linker_set_key" : "_ZN4aidl7android8hardware8identity26IIdentityCredentialDefault8isRemoteEv",
   "parameters" :
   [
    {
     "is_this_ptr" : true,
     "referenced_type" : "_ZTIPN4aidl7android8hardware8identity26IIdentityCredentialDefaultE"
    }
   ],
   "return_type" : "_ZTIb",
   "source_file" : "/out/soong/.intermediates/hardware/interfaces/identity/aidl/android.hardware.identity-ndk_platform-source/gen/include/aidl/android/hardware/identity/IIdentityCredential.h"
  },
  {
   "function_name" : "aidl::android::hardware::identity::SecureAccessControlProfile::readFromParcel",
   "linker_set_key" : "_ZN4aidl7android8hardware8identity26SecureAccessControlProfile14readFromParcelEPK7AParcel",
   "parameters" :
   [
    {
     "is_this_ptr" : true,
     "referenced_type" : "_ZTIPN4aidl7android8hardware8identity26SecureAccessControlProfileE"
    },
    {
     "referenced_type" : "_ZTIPK7AParcel"
    }
   ],
   "return_type" : "_ZTIi",
   "source_file" : "/out/soong/.intermediates/hardware/interfaces/identity/aidl/android.hardware.identity-ndk_platform-source/gen/include/aidl/android/hardware/identity/SecureAccessControlProfile.h"
  },
  {
   "function_name" : "aidl::android::hardware::identity::IWritableIdentityCredential::fromBinder",
   "linker_set_key" : "_ZN4aidl7android8hardware8identity27IWritableIdentityCredential10fromBinderERKN3ndk10SpAIBinderE",
   "parameters" :
   [
    {
     "referenced_type" : "_ZTIRKN3ndk10SpAIBinderE"
    }
   ],
   "return_type" : "_ZTINSt3__110shared_ptrIN4aidl7android8hardware8identity27IWritableIdentityCredentialEEE",
   "source_file" : "/out/soong/.intermediates/hardware/interfaces/identity/aidl/android.hardware.identity-ndk_platform-source/gen/include/aidl/android/hardware/identity/IWritableIdentityCredential.h"
  },
  {
   "function_name" : "aidl::android::hardware::identity::IWritableIdentityCredential::writeToParcel",
   "linker_set_key" : "_ZN4aidl7android8hardware8identity27IWritableIdentityCredential13writeToParcelEP7AParcelRKNSt3__110shared_ptrIS3_EE",
   "parameters" :
   [
    {
     "referenced_type" : "_ZTIP7AParcel"
    },
    {
     "referenced_type" : "_ZTIRKNSt3__110shared_ptrIN4aidl7android8hardware8identity27IWritableIdentityCredentialEEE"
    }
   ],
   "return_type" : "_ZTIi",
   "source_file" : "/out/soong/.intermediates/hardware/interfaces/identity/aidl/android.hardware.identity-ndk_platform-source/gen/include/aidl/android/hardware/identity/IWritableIdentityCredential.h"
  },
  {
   "function_name" : "aidl::android::hardware::identity::IWritableIdentityCredential::getDefaultImpl",
   "linker_set_key" : "_ZN4aidl7android8hardware8identity27IWritableIdentityCredential14getDefaultImplEv",
   "return_type" : "_ZTIRKNSt3__110shared_ptrIN4aidl7android8hardware8identity27IWritableIdentityCredentialEEE",
   "source_file" : "/out/soong/.intermediates/hardware/interfaces/identity/aidl/android.hardware.identity-ndk_platform-source/gen/include/aidl/android/hardware/identity/IWritableIdentityCredential.h"
  },
  {
   "function_name" : "aidl::android::hardware::identity::IWritableIdentityCredential::readFromParcel",
   "linker_set_key" : "_ZN4aidl7android8hardware8identity27IWritableIdentityCredential14readFromParcelEPK7AParcelPNSt3__110shared_ptrIS3_EE",
   "parameters" :
   [
    {
     "referenced_type" : "_ZTIPK7AParcel"
    },
    {
     "referenced_type" : "_ZTIPNSt3__110shared_ptrIN4aidl7android8hardware8identity27IWritableIdentityCredentialEEE"
    }
   ],
   "return_type" : "_ZTIi",
   "source_file" : "/out/soong/.intermediates/hardware/interfaces/identity/aidl/android.hardware.identity-ndk_platform-source/gen/include/aidl/android/hardware/identity/IWritableIdentityCredential.h"
  },
  {
   "function_name" : "aidl::android::hardware::identity::IWritableIdentityCredential::setDefaultImpl",
   "linker_set_key" : "_ZN4aidl7android8hardware8identity27IWritableIdentityCredential14setDefaultImplENSt3__110shared_ptrIS3_EE",
   "parameters" :
   [
    {
     "referenced_type" : "_ZTINSt3__110shared_ptrIN4aidl7android8hardware8identity27IWritableIdentityCredentialEEE"
    }
   ],
   "return_type" : "_ZTIb",
   "source_file" : "/out/soong/.intermediates/hardware/interfaces/identity/aidl/android.hardware.identity-ndk_platform-source/gen/include/aidl/android/hardware/identity/IWritableIdentityCredential.h"
  },
  {
   "function_name" : "aidl::android::hardware::identity::IWritableIdentityCredential::IWritableIdentityCredential",
   "linker_set_key" : "_ZN4aidl7android8hardware8identity27IWritableIdentityCredentialC2Ev",
   "parameters" :
   [
    {
     "is_this_ptr" : true,
     "referenced_type" : "_ZTIPN4aidl7android8hardware8identity27IWritableIdentityCredentialE"
    }
   ],
   "return_type" : "_ZTIv",
   "source_file" : "/out/soong/.intermediates/hardware/interfaces/identity/aidl/android.hardware.identity-ndk_platform-source/gen/include/aidl/android/hardware/identity/IWritableIdentityCredential.h"
  },
  {
   "function_name" : "aidl::android::hardware::identity::IWritableIdentityCredential::~IWritableIdentityCredential",
   "linker_set_key" : "_ZN4aidl7android8hardware8identity27IWritableIdentityCredentialD0Ev",
   "parameters" :
   [
    {
     "is_this_ptr" : true,
     "referenced_type" : "_ZTIPN4aidl7android8hardware8identity27IWritableIdentityCredentialE"
    }
   ],
   "return_type" : "_ZTIv",
   "source_file" : "/out/soong/.intermediates/hardware/interfaces/identity/aidl/android.hardware.identity-ndk_platform-source/gen/include/aidl/android/hardware/identity/IWritableIdentityCredential.h"
  },
  {
   "function_name" : "aidl::android::hardware::identity::IWritableIdentityCredential::~IWritableIdentityCredential",
   "linker_set_key" : "_ZN4aidl7android8hardware8identity27IWritableIdentityCredentialD1Ev",
   "parameters" :
   [
    {
     "is_this_ptr" : true,
     "referenced_type" : "_ZTIPN4aidl7android8hardware8identity27IWritableIdentityCredentialE"
    }
   ],
   "return_type" : "_ZTIv",
   "source_file" : "/out/soong/.intermediates/hardware/interfaces/identity/aidl/android.hardware.identity-ndk_platform-source/gen/include/aidl/android/hardware/identity/IWritableIdentityCredential.h"
  },
  {
   "function_name" : "aidl::android::hardware::identity::IWritableIdentityCredential::~IWritableIdentityCredential",
   "linker_set_key" : "_ZN4aidl7android8hardware8identity27IWritableIdentityCredentialD2Ev",
   "parameters" :
   [
    {
     "is_this_ptr" : true,
     "referenced_type" : "_ZTIPN4aidl7android8hardware8identity27IWritableIdentityCredentialE"
    }
   ],
   "return_type" : "_ZTIv",
   "source_file" : "/out/soong/.intermediates/hardware/interfaces/identity/aidl/android.hardware.identity-ndk_platform-source/gen/include/aidl/android/hardware/identity/IWritableIdentityCredential.h"
  },
  {
   "access" : "protected",
   "function_name" : "aidl::android::hardware::identity::BnWritableIdentityCredential::createBinder",
   "linker_set_key" : "_ZN4aidl7android8hardware8identity28BnWritableIdentityCredential12createBinderEv",
   "parameters" :
   [
    {
     "is_this_ptr" : true,
     "referenced_type" : "_ZTIPN4aidl7android8hardware8identity28BnWritableIdentityCredentialE"
    }
   ],
   "return_type" : "_ZTIN3ndk10SpAIBinderE",
   "source_file" : "/out/soong/.intermediates/hardware/interfaces/identity/aidl/android.hardware.identity-ndk_platform-source/gen/include/aidl/android/hardware/identity/BnWritableIdentityCredential.h"
  },
  {
   "function_name" : "aidl::android::hardware::identity::BnWritableIdentityCredential::getInterfaceHash",
   "linker_set_key" : "_ZN4aidl7android8hardware8identity28BnWritableIdentityCredential16getInterfaceHashEPNSt3__112basic_stringIcNS4_11char_traitsIcEENS4_9allocatorIcEEEE",
   "parameters" :
   [
    {
     "is_this_ptr" : true,
     "referenced_type" : "_ZTIPN4aidl7android8hardware8identity28BnWritableIdentityCredentialE"
    },
    {
     "referenced_type" : "_ZTIPNSt3__112basic_stringIcNS_11char_traitsIcEENS_9allocatorIcEEEE"
    }
   ],
   "return_type" : "_ZTIN3ndk13ScopedAStatusE",
   "source_file" : "/out/soong/.intermediates/hardware/interfaces/identity/aidl/android.hardware.identity-ndk_platform-source/gen/include/aidl/android/hardware/identity/BnWritableIdentityCredential.h"
  },
  {
   "function_name" : "aidl::android::hardware::identity::BnWritableIdentityCredential::getInterfaceVersion",
   "linker_set_key" : "_ZN4aidl7android8hardware8identity28BnWritableIdentityCredential19getInterfaceVersionEPi",
   "parameters" :
   [
    {
     "is_this_ptr" : true,
     "referenced_type" : "_ZTIPN4aidl7android8hardware8identity28BnWritableIdentityCredentialE"
    },
    {
     "referenced_type" : "_ZTIPi"
    }
   ],
   "return_type" : "_ZTIN3ndk13ScopedAStatusE",
   "source_file" : "/out/soong/.intermediates/hardware/interfaces/identity/aidl/android.hardware.identity-ndk_platform-source/gen/include/aidl/android/hardware/identity/BnWritableIdentityCredential.h"
  },
  {
   "function_name" : "aidl::android::hardware::identity::BnWritableIdentityCredential::BnWritableIdentityCredential",
   "linker_set_key" : "_ZN4aidl7android8hardware8identity28BnWritableIdentityCredentialC2Ev",
   "parameters" :
   [
    {
     "is_this_ptr" : true,
     "referenced_type" : "_ZTIPN4aidl7android8hardware8identity28BnWritableIdentityCredentialE"
    }
   ],
   "return_type" : "_ZTIv",
   "source_file" : "/out/soong/.intermediates/hardware/interfaces/identity/aidl/android.hardware.identity-ndk_platform-source/gen/include/aidl/android/hardware/identity/BnWritableIdentityCredential.h"
  },
  {
   "function_name" : "aidl::android::hardware::identity::BnWritableIdentityCredential::~BnWritableIdentityCredential",
   "linker_set_key" : "_ZN4aidl7android8hardware8identity28BnWritableIdentityCredentialD0Ev",
   "parameters" :
   [
    {
     "is_this_ptr" : true,
     "referenced_type" : "_ZTIPN4aidl7android8hardware8identity28BnWritableIdentityCredentialE"
    }
   ],
   "return_type" : "_ZTIv",
   "source_file" : "/out/soong/.intermediates/hardware/interfaces/identity/aidl/android.hardware.identity-ndk_platform-source/gen/include/aidl/android/hardware/identity/BnWritableIdentityCredential.h"
  },
  {
   "function_name" : "aidl::android::hardware::identity::BnWritableIdentityCredential::~BnWritableIdentityCredential",
   "linker_set_key" : "_ZN4aidl7android8hardware8identity28BnWritableIdentityCredentialD1Ev",
   "parameters" :
   [
    {
     "is_this_ptr" : true,
     "referenced_type" : "_ZTIPN4aidl7android8hardware8identity28BnWritableIdentityCredentialE"
    }
   ],
   "return_type" : "_ZTIv",
   "source_file" : "/out/soong/.intermediates/hardware/interfaces/identity/aidl/android.hardware.identity-ndk_platform-source/gen/include/aidl/android/hardware/identity/BnWritableIdentityCredential.h"
  },
  {
   "function_name" : "aidl::android::hardware::identity::BnWritableIdentityCredential::~BnWritableIdentityCredential",
   "linker_set_key" : "_ZN4aidl7android8hardware8identity28BnWritableIdentityCredentialD2Ev",
   "parameters" :
   [
    {
     "is_this_ptr" : true,
     "referenced_type" : "_ZTIPN4aidl7android8hardware8identity28BnWritableIdentityCredentialE"
    }
   ],
   "return_type" : "_ZTIv",
   "source_file" : "/out/soong/.intermediates/hardware/interfaces/identity/aidl/android.hardware.identity-ndk_platform-source/gen/include/aidl/android/hardware/identity/BnWritableIdentityCredential.h"
  },
  {
   "function_name" : "aidl::android::hardware::identity::BpWritableIdentityCredential::addEntryValue",
   "linker_set_key" : "_ZN4aidl7android8hardware8identity28BpWritableIdentityCredential13addEntryValueERKNSt3__16vectorIaNS4_9allocatorIaEEEEPS8_",
   "parameters" :
   [
    {
     "is_this_ptr" : true,
     "referenced_type" : "_ZTIPN4aidl7android8hardware8identity28BpWritableIdentityCredentialE"
    },
    {
     "referenced_type" : "_ZTIRKNSt3__16vectorIaNS_9allocatorIaEEEE"
    },
    {
     "referenced_type" : "_ZTIPNSt3__16vectorIaNS_9allocatorIaEEEE"
    }
   ],
   "return_type" : "_ZTIN3ndk13ScopedAStatusE",
   "source_file" : "/out/soong/.intermediates/hardware/interfaces/identity/aidl/android.hardware.identity-ndk_platform-source/gen/include/aidl/android/hardware/identity/BpWritableIdentityCredential.h"
  },
  {
   "function_name" : "aidl::android::hardware::identity::BpWritableIdentityCredential::beginAddEntry",
   "linker_set_key" : "_ZN4aidl7android8hardware8identity28BpWritableIdentityCredential13beginAddEntryERKNSt3__16vectorIiNS4_9allocatorIiEEEERKNS4_12basic_stringIcNS4_11char_traitsIcEENS6_IcEEEESH_i",
   "parameters" :
   [
    {
     "is_this_ptr" : true,
     "referenced_type" : "_ZTIPN4aidl7android8hardware8identity28BpWritableIdentityCredentialE"
    },
    {
     "referenced_type" : "_ZTIRKNSt3__16vectorIiNS_9allocatorIiEEEE"
    },
    {
     "referenced_type" : "_ZTIRKNSt3__112basic_stringIcNS_11char_traitsIcEENS_9allocatorIcEEEE"
    },
    {
     "referenced_type" : "_ZTIRKNSt3__112basic_stringIcNS_11char_traitsIcEENS_9allocatorIcEEEE"
    },
    {
     "referenced_type" : "_ZTIi"
    }
   ],
   "return_type" : "_ZTIN3ndk13ScopedAStatusE",
   "source_file" : "/out/soong/.intermediates/hardware/interfaces/identity/aidl/android.hardware.identity-ndk_platform-source/gen/include/aidl/android/hardware/identity/BpWritableIdentityCredential.h"
  },
  {
   "function_name" : "aidl::android::hardware::identity::BpWritableIdentityCredential::getInterfaceHash",
   "linker_set_key" : "_ZN4aidl7android8hardware8identity28BpWritableIdentityCredential16getInterfaceHashEPNSt3__112basic_stringIcNS4_11char_traitsIcEENS4_9allocatorIcEEEE",
   "parameters" :
   [
    {
     "is_this_ptr" : true,
     "referenced_type" : "_ZTIPN4aidl7android8hardware8identity28BpWritableIdentityCredentialE"
    },
    {
     "referenced_type" : "_ZTIPNSt3__112basic_stringIcNS_11char_traitsIcEENS_9allocatorIcEEEE"
    }
   ],
   "return_type" : "_ZTIN3ndk13ScopedAStatusE",
   "source_file" : "/out/soong/.intermediates/hardware/interfaces/identity/aidl/android.hardware.identity-ndk_platform-source/gen/include/aidl/android/hardware/identity/BpWritableIdentityCredential.h"
  },
  {
   "function_name" : "aidl::android::hardware::identity::BpWritableIdentityCredential::finishAddingEntries",
   "linker_set_key" : "_ZN4aidl7android8hardware8identity28BpWritableIdentityCredential19finishAddingEntriesEPNSt3__16vectorIaNS4_9allocatorIaEEEES9_",
   "parameters" :
   [
    {
     "is_this_ptr" : true,
     "referenced_type" : "_ZTIPN4aidl7android8hardware8identity28BpWritableIdentityCredentialE"
    },
    {
     "referenced_type" : "_ZTIPNSt3__16vectorIaNS_9allocatorIaEEEE"
    },
    {
     "referenced_type" : "_ZTIPNSt3__16vectorIaNS_9allocatorIaEEEE"
    }
   ],
   "return_type" : "_ZTIN3ndk13ScopedAStatusE",
   "source_file" : "/out/soong/.intermediates/hardware/interfaces/identity/aidl/android.hardware.identity-ndk_platform-source/gen/include/aidl/android/hardware/identity/BpWritableIdentityCredential.h"
  },
  {
   "function_name" : "aidl::android::hardware::identity::BpWritableIdentityCredential::getInterfaceVersion",
   "linker_set_key" : "_ZN4aidl7android8hardware8identity28BpWritableIdentityCredential19getInterfaceVersionEPi",
   "parameters" :
   [
    {
     "is_this_ptr" : true,
     "referenced_type" : "_ZTIPN4aidl7android8hardware8identity28BpWritableIdentityCredentialE"
    },
    {
     "referenced_type" : "_ZTIPi"
    }
   ],
   "return_type" : "_ZTIN3ndk13ScopedAStatusE",
   "source_file" : "/out/soong/.intermediates/hardware/interfaces/identity/aidl/android.hardware.identity-ndk_platform-source/gen/include/aidl/android/hardware/identity/BpWritableIdentityCredential.h"
  },
  {
   "function_name" : "aidl::android::hardware::identity::BpWritableIdentityCredential::startPersonalization",
   "linker_set_key" : "_ZN4aidl7android8hardware8identity28BpWritableIdentityCredential20startPersonalizationEiRKNSt3__16vectorIiNS4_9allocatorIiEEEE",
   "parameters" :
   [
    {
     "is_this_ptr" : true,
     "referenced_type" : "_ZTIPN4aidl7android8hardware8identity28BpWritableIdentityCredentialE"
    },
    {
     "referenced_type" : "_ZTIi"
    },
    {
     "referenced_type" : "_ZTIRKNSt3__16vectorIiNS_9allocatorIiEEEE"
    }
   ],
   "return_type" : "_ZTIN3ndk13ScopedAStatusE",
   "source_file" : "/out/soong/.intermediates/hardware/interfaces/identity/aidl/android.hardware.identity-ndk_platform-source/gen/include/aidl/android/hardware/identity/BpWritableIdentityCredential.h"
  },
  {
   "function_name" : "aidl::android::hardware::identity::BpWritableIdentityCredential::addAccessControlProfile",
   "linker_set_key" : "_ZN4aidl7android8hardware8identity28BpWritableIdentityCredential23addAccessControlProfileEiRKNS2_11CertificateEbllPNS2_26SecureAccessControlProfileE",
   "parameters" :
   [
    {
     "is_this_ptr" : true,
     "referenced_type" : "_ZTIPN4aidl7android8hardware8identity28BpWritableIdentityCredentialE"
    },
    {
     "referenced_type" : "_ZTIi"
    },
    {
     "referenced_type" : "_ZTIRKN4aidl7android8hardware8identity11CertificateE"
    },
    {
     "referenced_type" : "_ZTIb"
    },
    {
     "referenced_type" : "_ZTIl"
    },
    {
     "referenced_type" : "_ZTIl"
    },
    {
     "referenced_type" : "_ZTIPN4aidl7android8hardware8identity26SecureAccessControlProfileE"
    }
   ],
   "return_type" : "_ZTIN3ndk13ScopedAStatusE",
   "source_file" : "/out/soong/.intermediates/hardware/interfaces/identity/aidl/android.hardware.identity-ndk_platform-source/gen/include/aidl/android/hardware/identity/BpWritableIdentityCredential.h"
  },
  {
   "function_name" : "aidl::android::hardware::identity::BpWritableIdentityCredential::getAttestationCertificate",
   "linker_set_key" : "_ZN4aidl7android8hardware8identity28BpWritableIdentityCredential25getAttestationCertificateERKNSt3__16vectorIaNS4_9allocatorIaEEEESA_PNS5_INS2_11CertificateENS6_ISB_EEEE",
   "parameters" :
   [
    {
     "is_this_ptr" : true,
     "referenced_type" : "_ZTIPN4aidl7android8hardware8identity28BpWritableIdentityCredentialE"
    },
    {
     "referenced_type" : "_ZTIRKNSt3__16vectorIaNS_9allocatorIaEEEE"
    },
    {
     "referenced_type" : "_ZTIRKNSt3__16vectorIaNS_9allocatorIaEEEE"
    },
    {
     "referenced_type" : "_ZTIPNSt3__16vectorIN4aidl7android8hardware8identity11CertificateENS_9allocatorIS5_EEEE"
    }
   ],
   "return_type" : "_ZTIN3ndk13ScopedAStatusE",
   "source_file" : "/out/soong/.intermediates/hardware/interfaces/identity/aidl/android.hardware.identity-ndk_platform-source/gen/include/aidl/android/hardware/identity/BpWritableIdentityCredential.h"
  },
  {
   "function_name" : "aidl::android::hardware::identity::BpWritableIdentityCredential::setExpectedProofOfProvisioningSize",
   "linker_set_key" : "_ZN4aidl7android8hardware8identity28BpWritableIdentityCredential34setExpectedProofOfProvisioningSizeEi",
   "parameters" :
   [
    {
     "is_this_ptr" : true,
     "referenced_type" : "_ZTIPN4aidl7android8hardware8identity28BpWritableIdentityCredentialE"
    },
    {
     "referenced_type" : "_ZTIi"
    }
   ],
   "return_type" : "_ZTIN3ndk13ScopedAStatusE",
   "source_file" : "/out/soong/.intermediates/hardware/interfaces/identity/aidl/android.hardware.identity-ndk_platform-source/gen/include/aidl/android/hardware/identity/BpWritableIdentityCredential.h"
  },
  {
   "function_name" : "aidl::android::hardware::identity::BpWritableIdentityCredential::BpWritableIdentityCredential",
   "linker_set_key" : "_ZN4aidl7android8hardware8identity28BpWritableIdentityCredentialC1ERKN3ndk10SpAIBinderE",
   "parameters" :
   [
    {
     "is_this_ptr" : true,
     "referenced_type" : "_ZTIPN4aidl7android8hardware8identity28BpWritableIdentityCredentialE"
    },
    {
     "referenced_type" : "_ZTIRKN3ndk10SpAIBinderE"
    }
   ],
   "return_type" : "_ZTIv",
   "source_file" : "/out/soong/.intermediates/hardware/interfaces/identity/aidl/android.hardware.identity-ndk_platform-source/gen/include/aidl/android/hardware/identity/BpWritableIdentityCredential.h"
  },
  {
   "function_name" : "aidl::android::hardware::identity::BpWritableIdentityCredential::BpWritableIdentityCredential",
   "linker_set_key" : "_ZN4aidl7android8hardware8identity28BpWritableIdentityCredentialC2ERKN3ndk10SpAIBinderE",
   "parameters" :
   [
    {
     "is_this_ptr" : true,
     "referenced_type" : "_ZTIPN4aidl7android8hardware8identity28BpWritableIdentityCredentialE"
    },
    {
     "referenced_type" : "_ZTIRKN3ndk10SpAIBinderE"
    }
   ],
   "return_type" : "_ZTIv",
   "source_file" : "/out/soong/.intermediates/hardware/interfaces/identity/aidl/android.hardware.identity-ndk_platform-source/gen/include/aidl/android/hardware/identity/BpWritableIdentityCredential.h"
  },
  {
   "function_name" : "aidl::android::hardware::identity::BpWritableIdentityCredential::~BpWritableIdentityCredential",
   "linker_set_key" : "_ZN4aidl7android8hardware8identity28BpWritableIdentityCredentialD0Ev",
   "parameters" :
   [
    {
     "is_this_ptr" : true,
     "referenced_type" : "_ZTIPN4aidl7android8hardware8identity28BpWritableIdentityCredentialE"
    }
   ],
   "return_type" : "_ZTIv",
   "source_file" : "/out/soong/.intermediates/hardware/interfaces/identity/aidl/android.hardware.identity-ndk_platform-source/gen/include/aidl/android/hardware/identity/BpWritableIdentityCredential.h"
  },
  {
   "function_name" : "aidl::android::hardware::identity::BpWritableIdentityCredential::~BpWritableIdentityCredential",
   "linker_set_key" : "_ZN4aidl7android8hardware8identity28BpWritableIdentityCredentialD1Ev",
   "parameters" :
   [
    {
     "is_this_ptr" : true,
     "referenced_type" : "_ZTIPN4aidl7android8hardware8identity28BpWritableIdentityCredentialE"
    }
   ],
   "return_type" : "_ZTIv",
   "source_file" : "/out/soong/.intermediates/hardware/interfaces/identity/aidl/android.hardware.identity-ndk_platform-source/gen/include/aidl/android/hardware/identity/BpWritableIdentityCredential.h"
  },
  {
   "function_name" : "aidl::android::hardware::identity::BpWritableIdentityCredential::~BpWritableIdentityCredential",
   "linker_set_key" : "_ZN4aidl7android8hardware8identity28BpWritableIdentityCredentialD2Ev",
   "parameters" :
   [
    {
     "is_this_ptr" : true,
     "referenced_type" : "_ZTIPN4aidl7android8hardware8identity28BpWritableIdentityCredentialE"
    }
   ],
   "return_type" : "_ZTIv",
   "source_file" : "/out/soong/.intermediates/hardware/interfaces/identity/aidl/android.hardware.identity-ndk_platform-source/gen/include/aidl/android/hardware/identity/BpWritableIdentityCredential.h"
  },
  {
   "function_name" : "aidl::android::hardware::identity::IIdentityCredentialStoreDefault::getCredential",
   "linker_set_key" : "_ZN4aidl7android8hardware8identity31IIdentityCredentialStoreDefault13getCredentialENS2_11CipherSuiteERKNSt3__16vectorIaNS5_9allocatorIaEEEEPNS5_10shared_ptrINS2_19IIdentityCredentialEEE",
   "parameters" :
   [
    {
     "is_this_ptr" : true,
     "referenced_type" : "_ZTIPN4aidl7android8hardware8identity31IIdentityCredentialStoreDefaultE"
    },
    {
     "referenced_type" : "_ZTIN4aidl7android8hardware8identity11CipherSuiteE"
    },
    {
     "referenced_type" : "_ZTIRKNSt3__16vectorIaNS_9allocatorIaEEEE"
    },
    {
     "referenced_type" : "_ZTIPNSt3__110shared_ptrIN4aidl7android8hardware8identity19IIdentityCredentialEEE"
    }
   ],
   "return_type" : "_ZTIN3ndk13ScopedAStatusE",
   "source_file" : "/out/soong/.intermediates/hardware/interfaces/identity/aidl/android.hardware.identity-ndk_platform-source/gen/include/aidl/android/hardware/identity/IIdentityCredentialStore.h"
  },
  {
   "function_name" : "aidl::android::hardware::identity::IIdentityCredentialStoreDefault::createCredential",
   "linker_set_key" : "_ZN4aidl7android8hardware8identity31IIdentityCredentialStoreDefault16createCredentialERKNSt3__112basic_stringIcNS4_11char_traitsIcEENS4_9allocatorIcEEEEbPNS4_10shared_ptrINS2_27IWritableIdentityCredentialEEE",
   "parameters" :
   [
    {
     "is_this_ptr" : true,
     "referenced_type" : "_ZTIPN4aidl7android8hardware8identity31IIdentityCredentialStoreDefaultE"
    },
    {
     "referenced_type" : "_ZTIRKNSt3__112basic_stringIcNS_11char_traitsIcEENS_9allocatorIcEEEE"
    },
    {
     "referenced_type" : "_ZTIb"
    },
    {
     "referenced_type" : "_ZTIPNSt3__110shared_ptrIN4aidl7android8hardware8identity27IWritableIdentityCredentialEEE"
    }
   ],
   "return_type" : "_ZTIN3ndk13ScopedAStatusE",
   "source_file" : "/out/soong/.intermediates/hardware/interfaces/identity/aidl/android.hardware.identity-ndk_platform-source/gen/include/aidl/android/hardware/identity/IIdentityCredentialStore.h"
  },
  {
   "function_name" : "aidl::android::hardware::identity::IIdentityCredentialStoreDefault::getInterfaceHash",
   "linker_set_key" : "_ZN4aidl7android8hardware8identity31IIdentityCredentialStoreDefault16getInterfaceHashEPNSt3__112basic_stringIcNS4_11char_traitsIcEENS4_9allocatorIcEEEE",
   "parameters" :
   [
    {
     "is_this_ptr" : true,
     "referenced_type" : "_ZTIPN4aidl7android8hardware8identity31IIdentityCredentialStoreDefaultE"
    },
    {
     "referenced_type" : "_ZTIPNSt3__112basic_stringIcNS_11char_traitsIcEENS_9allocatorIcEEEE"
    }
   ],
   "return_type" : "_ZTIN3ndk13ScopedAStatusE",
   "source_file" : "/out/soong/.intermediates/hardware/interfaces/identity/aidl/android.hardware.identity-ndk_platform-source/gen/include/aidl/android/hardware/identity/IIdentityCredentialStore.h"
  },
  {
   "function_name" : "aidl::android::hardware::identity::IIdentityCredentialStoreDefault::getInterfaceVersion",
   "linker_set_key" : "_ZN4aidl7android8hardware8identity31IIdentityCredentialStoreDefault19getInterfaceVersionEPi",
   "parameters" :
   [
    {
     "is_this_ptr" : true,
     "referenced_type" : "_ZTIPN4aidl7android8hardware8identity31IIdentityCredentialStoreDefaultE"
    },
    {
     "referenced_type" : "_ZTIPi"
    }
   ],
   "return_type" : "_ZTIN3ndk13ScopedAStatusE",
   "source_file" : "/out/soong/.intermediates/hardware/interfaces/identity/aidl/android.hardware.identity-ndk_platform-source/gen/include/aidl/android/hardware/identity/IIdentityCredentialStore.h"
  },
  {
   "function_name" : "aidl::android::hardware::identity::IIdentityCredentialStoreDefault::getHardwareInformation",
   "linker_set_key" : "_ZN4aidl7android8hardware8identity31IIdentityCredentialStoreDefault22getHardwareInformationEPNS2_19HardwareInformationE",
   "parameters" :
   [
    {
     "is_this_ptr" : true,
     "referenced_type" : "_ZTIPN4aidl7android8hardware8identity31IIdentityCredentialStoreDefaultE"
    },
    {
     "referenced_type" : "_ZTIPN4aidl7android8hardware8identity19HardwareInformationE"
    }
   ],
   "return_type" : "_ZTIN3ndk13ScopedAStatusE",
   "source_file" : "/out/soong/.intermediates/hardware/interfaces/identity/aidl/android.hardware.identity-ndk_platform-source/gen/include/aidl/android/hardware/identity/IIdentityCredentialStore.h"
  },
  {
   "function_name" : "aidl::android::hardware::identity::IIdentityCredentialStoreDefault::asBinder",
   "linker_set_key" : "_ZN4aidl7android8hardware8identity31IIdentityCredentialStoreDefault8asBinderEv",
   "parameters" :
   [
    {
     "is_this_ptr" : true,
     "referenced_type" : "_ZTIPN4aidl7android8hardware8identity31IIdentityCredentialStoreDefaultE"
    }
   ],
   "return_type" : "_ZTIN3ndk10SpAIBinderE",
   "source_file" : "/out/soong/.intermediates/hardware/interfaces/identity/aidl/android.hardware.identity-ndk_platform-source/gen/include/aidl/android/hardware/identity/IIdentityCredentialStore.h"
  },
  {
   "function_name" : "aidl::android::hardware::identity::IIdentityCredentialStoreDefault::isRemote",
   "linker_set_key" : "_ZN4aidl7android8hardware8identity31IIdentityCredentialStoreDefault8isRemoteEv",
   "parameters" :
   [
    {
     "is_this_ptr" : true,
     "referenced_type" : "_ZTIPN4aidl7android8hardware8identity31IIdentityCredentialStoreDefaultE"
    }
   ],
   "return_type" : "_ZTIb",
   "source_file" : "/out/soong/.intermediates/hardware/interfaces/identity/aidl/android.hardware.identity-ndk_platform-source/gen/include/aidl/android/hardware/identity/IIdentityCredentialStore.h"
  },
  {
   "function_name" : "aidl::android::hardware::identity::IWritableIdentityCredentialDefault::addEntryValue",
   "linker_set_key" : "_ZN4aidl7android8hardware8identity34IWritableIdentityCredentialDefault13addEntryValueERKNSt3__16vectorIaNS4_9allocatorIaEEEEPS8_",
   "parameters" :
   [
    {
     "is_this_ptr" : true,
     "referenced_type" : "_ZTIPN4aidl7android8hardware8identity34IWritableIdentityCredentialDefaultE"
    },
    {
     "referenced_type" : "_ZTIRKNSt3__16vectorIaNS_9allocatorIaEEEE"
    },
    {
     "referenced_type" : "_ZTIPNSt3__16vectorIaNS_9allocatorIaEEEE"
    }
   ],
   "return_type" : "_ZTIN3ndk13ScopedAStatusE",
   "source_file" : "/out/soong/.intermediates/hardware/interfaces/identity/aidl/android.hardware.identity-ndk_platform-source/gen/include/aidl/android/hardware/identity/IWritableIdentityCredential.h"
  },
  {
   "function_name" : "aidl::android::hardware::identity::IWritableIdentityCredentialDefault::beginAddEntry",
   "linker_set_key" : "_ZN4aidl7android8hardware8identity34IWritableIdentityCredentialDefault13beginAddEntryERKNSt3__16vectorIiNS4_9allocatorIiEEEERKNS4_12basic_stringIcNS4_11char_traitsIcEENS6_IcEEEESH_i",
   "parameters" :
   [
    {
     "is_this_ptr" : true,
     "referenced_type" : "_ZTIPN4aidl7android8hardware8identity34IWritableIdentityCredentialDefaultE"
    },
    {
     "referenced_type" : "_ZTIRKNSt3__16vectorIiNS_9allocatorIiEEEE"
    },
    {
     "referenced_type" : "_ZTIRKNSt3__112basic_stringIcNS_11char_traitsIcEENS_9allocatorIcEEEE"
    },
    {
     "referenced_type" : "_ZTIRKNSt3__112basic_stringIcNS_11char_traitsIcEENS_9allocatorIcEEEE"
    },
    {
     "referenced_type" : "_ZTIi"
    }
   ],
   "return_type" : "_ZTIN3ndk13ScopedAStatusE",
   "source_file" : "/out/soong/.intermediates/hardware/interfaces/identity/aidl/android.hardware.identity-ndk_platform-source/gen/include/aidl/android/hardware/identity/IWritableIdentityCredential.h"
  },
  {
   "function_name" : "aidl::android::hardware::identity::IWritableIdentityCredentialDefault::getInterfaceHash",
   "linker_set_key" : "_ZN4aidl7android8hardware8identity34IWritableIdentityCredentialDefault16getInterfaceHashEPNSt3__112basic_stringIcNS4_11char_traitsIcEENS4_9allocatorIcEEEE",
   "parameters" :
   [
    {
     "is_this_ptr" : true,
     "referenced_type" : "_ZTIPN4aidl7android8hardware8identity34IWritableIdentityCredentialDefaultE"
    },
    {
     "referenced_type" : "_ZTIPNSt3__112basic_stringIcNS_11char_traitsIcEENS_9allocatorIcEEEE"
    }
   ],
   "return_type" : "_ZTIN3ndk13ScopedAStatusE",
   "source_file" : "/out/soong/.intermediates/hardware/interfaces/identity/aidl/android.hardware.identity-ndk_platform-source/gen/include/aidl/android/hardware/identity/IWritableIdentityCredential.h"
  },
  {
   "function_name" : "aidl::android::hardware::identity::IWritableIdentityCredentialDefault::finishAddingEntries",
   "linker_set_key" : "_ZN4aidl7android8hardware8identity34IWritableIdentityCredentialDefault19finishAddingEntriesEPNSt3__16vectorIaNS4_9allocatorIaEEEES9_",
   "parameters" :
   [
    {
     "is_this_ptr" : true,
     "referenced_type" : "_ZTIPN4aidl7android8hardware8identity34IWritableIdentityCredentialDefaultE"
    },
    {
     "referenced_type" : "_ZTIPNSt3__16vectorIaNS_9allocatorIaEEEE"
    },
    {
     "referenced_type" : "_ZTIPNSt3__16vectorIaNS_9allocatorIaEEEE"
    }
   ],
   "return_type" : "_ZTIN3ndk13ScopedAStatusE",
   "source_file" : "/out/soong/.intermediates/hardware/interfaces/identity/aidl/android.hardware.identity-ndk_platform-source/gen/include/aidl/android/hardware/identity/IWritableIdentityCredential.h"
  },
  {
   "function_name" : "aidl::android::hardware::identity::IWritableIdentityCredentialDefault::getInterfaceVersion",
   "linker_set_key" : "_ZN4aidl7android8hardware8identity34IWritableIdentityCredentialDefault19getInterfaceVersionEPi",
   "parameters" :
   [
    {
     "is_this_ptr" : true,
     "referenced_type" : "_ZTIPN4aidl7android8hardware8identity34IWritableIdentityCredentialDefaultE"
    },
    {
     "referenced_type" : "_ZTIPi"
    }
   ],
   "return_type" : "_ZTIN3ndk13ScopedAStatusE",
   "source_file" : "/out/soong/.intermediates/hardware/interfaces/identity/aidl/android.hardware.identity-ndk_platform-source/gen/include/aidl/android/hardware/identity/IWritableIdentityCredential.h"
  },
  {
   "function_name" : "aidl::android::hardware::identity::IWritableIdentityCredentialDefault::startPersonalization",
   "linker_set_key" : "_ZN4aidl7android8hardware8identity34IWritableIdentityCredentialDefault20startPersonalizationEiRKNSt3__16vectorIiNS4_9allocatorIiEEEE",
   "parameters" :
   [
    {
     "is_this_ptr" : true,
     "referenced_type" : "_ZTIPN4aidl7android8hardware8identity34IWritableIdentityCredentialDefaultE"
    },
    {
     "referenced_type" : "_ZTIi"
    },
    {
     "referenced_type" : "_ZTIRKNSt3__16vectorIiNS_9allocatorIiEEEE"
    }
   ],
   "return_type" : "_ZTIN3ndk13ScopedAStatusE",
   "source_file" : "/out/soong/.intermediates/hardware/interfaces/identity/aidl/android.hardware.identity-ndk_platform-source/gen/include/aidl/android/hardware/identity/IWritableIdentityCredential.h"
  },
  {
   "function_name" : "aidl::android::hardware::identity::IWritableIdentityCredentialDefault::addAccessControlProfile",
   "linker_set_key" : "_ZN4aidl7android8hardware8identity34IWritableIdentityCredentialDefault23addAccessControlProfileEiRKNS2_11CertificateEbllPNS2_26SecureAccessControlProfileE",
   "parameters" :
   [
    {
     "is_this_ptr" : true,
     "referenced_type" : "_ZTIPN4aidl7android8hardware8identity34IWritableIdentityCredentialDefaultE"
    },
    {
     "referenced_type" : "_ZTIi"
    },
    {
     "referenced_type" : "_ZTIRKN4aidl7android8hardware8identity11CertificateE"
    },
    {
     "referenced_type" : "_ZTIb"
    },
    {
     "referenced_type" : "_ZTIl"
    },
    {
     "referenced_type" : "_ZTIl"
    },
    {
     "referenced_type" : "_ZTIPN4aidl7android8hardware8identity26SecureAccessControlProfileE"
    }
   ],
   "return_type" : "_ZTIN3ndk13ScopedAStatusE",
   "source_file" : "/out/soong/.intermediates/hardware/interfaces/identity/aidl/android.hardware.identity-ndk_platform-source/gen/include/aidl/android/hardware/identity/IWritableIdentityCredential.h"
  },
  {
   "function_name" : "aidl::android::hardware::identity::IWritableIdentityCredentialDefault::getAttestationCertificate",
   "linker_set_key" : "_ZN4aidl7android8hardware8identity34IWritableIdentityCredentialDefault25getAttestationCertificateERKNSt3__16vectorIaNS4_9allocatorIaEEEESA_PNS5_INS2_11CertificateENS6_ISB_EEEE",
   "parameters" :
   [
    {
     "is_this_ptr" : true,
     "referenced_type" : "_ZTIPN4aidl7android8hardware8identity34IWritableIdentityCredentialDefaultE"
    },
    {
     "referenced_type" : "_ZTIRKNSt3__16vectorIaNS_9allocatorIaEEEE"
    },
    {
     "referenced_type" : "_ZTIRKNSt3__16vectorIaNS_9allocatorIaEEEE"
    },
    {
     "referenced_type" : "_ZTIPNSt3__16vectorIN4aidl7android8hardware8identity11CertificateENS_9allocatorIS5_EEEE"
    }
   ],
   "return_type" : "_ZTIN3ndk13ScopedAStatusE",
   "source_file" : "/out/soong/.intermediates/hardware/interfaces/identity/aidl/android.hardware.identity-ndk_platform-source/gen/include/aidl/android/hardware/identity/IWritableIdentityCredential.h"
  },
  {
   "function_name" : "aidl::android::hardware::identity::IWritableIdentityCredentialDefault::setExpectedProofOfProvisioningSize",
   "linker_set_key" : "_ZN4aidl7android8hardware8identity34IWritableIdentityCredentialDefault34setExpectedProofOfProvisioningSizeEi",
   "parameters" :
   [
    {
     "is_this_ptr" : true,
     "referenced_type" : "_ZTIPN4aidl7android8hardware8identity34IWritableIdentityCredentialDefaultE"
    },
    {
     "referenced_type" : "_ZTIi"
    }
   ],
   "return_type" : "_ZTIN3ndk13ScopedAStatusE",
   "source_file" : "/out/soong/.intermediates/hardware/interfaces/identity/aidl/android.hardware.identity-ndk_platform-source/gen/include/aidl/android/hardware/identity/IWritableIdentityCredential.h"
  },
  {
   "function_name" : "aidl::android::hardware::identity::IWritableIdentityCredentialDefault::asBinder",
   "linker_set_key" : "_ZN4aidl7android8hardware8identity34IWritableIdentityCredentialDefault8asBinderEv",
   "parameters" :
   [
    {
     "is_this_ptr" : true,
     "referenced_type" : "_ZTIPN4aidl7android8hardware8identity34IWritableIdentityCredentialDefaultE"
    }
   ],
   "return_type" : "_ZTIN3ndk10SpAIBinderE",
   "source_file" : "/out/soong/.intermediates/hardware/interfaces/identity/aidl/android.hardware.identity-ndk_platform-source/gen/include/aidl/android/hardware/identity/IWritableIdentityCredential.h"
  },
  {
   "function_name" : "aidl::android::hardware::identity::IWritableIdentityCredentialDefault::isRemote",
   "linker_set_key" : "_ZN4aidl7android8hardware8identity34IWritableIdentityCredentialDefault8isRemoteEv",
   "parameters" :
   [
    {
     "is_this_ptr" : true,
     "referenced_type" : "_ZTIPN4aidl7android8hardware8identity34IWritableIdentityCredentialDefaultE"
    }
   ],
   "return_type" : "_ZTIb",
   "source_file" : "/out/soong/.intermediates/hardware/interfaces/identity/aidl/android.hardware.identity-ndk_platform-source/gen/include/aidl/android/hardware/identity/IWritableIdentityCredential.h"
  },
  {
   "function_name" : "aidl::android::hardware::identity::Certificate::writeToParcel",
   "linker_set_key" : "_ZNK4aidl7android8hardware8identity11Certificate13writeToParcelEP7AParcel",
   "parameters" :
   [
    {
     "is_this_ptr" : true,
     "referenced_type" : "_ZTIPKN4aidl7android8hardware8identity11CertificateE"
    },
    {
     "referenced_type" : "_ZTIP7AParcel"
    }
   ],
   "return_type" : "_ZTIi",
   "source_file" : "/out/soong/.intermediates/hardware/interfaces/identity/aidl/android.hardware.identity-ndk_platform-source/gen/include/aidl/android/hardware/identity/Certificate.h"
  },
  {
   "function_name" : "aidl::android::hardware::identity::RequestDataItem::writeToParcel",
   "linker_set_key" : "_ZNK4aidl7android8hardware8identity15RequestDataItem13writeToParcelEP7AParcel",
   "parameters" :
   [
    {
     "is_this_ptr" : true,
     "referenced_type" : "_ZTIPKN4aidl7android8hardware8identity15RequestDataItemE"
    },
    {
     "referenced_type" : "_ZTIP7AParcel"
    }
   ],
   "return_type" : "_ZTIi",
   "source_file" : "/out/soong/.intermediates/hardware/interfaces/identity/aidl/android.hardware.identity-ndk_platform-source/gen/include/aidl/android/hardware/identity/RequestDataItem.h"
  },
  {
   "function_name" : "aidl::android::hardware::identity::RequestNamespace::writeToParcel",
   "linker_set_key" : "_ZNK4aidl7android8hardware8identity16RequestNamespace13writeToParcelEP7AParcel",
   "parameters" :
   [
    {
     "is_this_ptr" : true,
     "referenced_type" : "_ZTIPKN4aidl7android8hardware8identity16RequestNamespaceE"
    },
    {
     "referenced_type" : "_ZTIP7AParcel"
    }
   ],
   "return_type" : "_ZTIi",
   "source_file" : "/out/soong/.intermediates/hardware/interfaces/identity/aidl/android.hardware.identity-ndk_platform-source/gen/include/aidl/android/hardware/identity/RequestNamespace.h"
  },
  {
   "function_name" : "aidl::android::hardware::identity::HardwareInformation::writeToParcel",
   "linker_set_key" : "_ZNK4aidl7android8hardware8identity19HardwareInformation13writeToParcelEP7AParcel",
   "parameters" :
   [
    {
     "is_this_ptr" : true,
     "referenced_type" : "_ZTIPKN4aidl7android8hardware8identity19HardwareInformationE"
    },
    {
     "referenced_type" : "_ZTIP7AParcel"
    }
   ],
   "return_type" : "_ZTIi",
   "source_file" : "/out/soong/.intermediates/hardware/interfaces/identity/aidl/android.hardware.identity-ndk_platform-source/gen/include/aidl/android/hardware/identity/HardwareInformation.h"
  },
  {
   "function_name" : "aidl::android::hardware::identity::SecureAccessControlProfile::writeToParcel",
   "linker_set_key" : "_ZNK4aidl7android8hardware8identity26SecureAccessControlProfile13writeToParcelEP7AParcel",
   "parameters" :
   [
    {
     "is_this_ptr" : true,
     "referenced_type" : "_ZTIPKN4aidl7android8hardware8identity26SecureAccessControlProfileE"
    },
    {
     "referenced_type" : "_ZTIP7AParcel"
    }
   ],
   "return_type" : "_ZTIi",
   "source_file" : "/out/soong/.intermediates/hardware/interfaces/identity/aidl/android.hardware.identity-ndk_platform-source/gen/include/aidl/android/hardware/identity/SecureAccessControlProfile.h"
  }
 ],
 "global_vars" :
 [
  {
   "linker_set_key" : "_ZN4aidl7android8hardware8identity11Certificate10descriptorE",
   "name" : "aidl::android::hardware::identity::Certificate::descriptor",
   "referenced_type" : "_ZTIPKc",
   "source_file" : "/out/soong/.intermediates/hardware/interfaces/identity/aidl/android.hardware.identity-ndk_platform-source/gen/include/aidl/android/hardware/identity/Certificate.h"
  },
  {
   "linker_set_key" : "_ZN4aidl7android8hardware8identity15RequestDataItem10descriptorE",
   "name" : "aidl::android::hardware::identity::RequestDataItem::descriptor",
   "referenced_type" : "_ZTIPKc",
   "source_file" : "/out/soong/.intermediates/hardware/interfaces/identity/aidl/android.hardware.identity-ndk_platform-source/gen/include/aidl/android/hardware/identity/RequestDataItem.h"
  },
  {
   "linker_set_key" : "_ZN4aidl7android8hardware8identity16RequestNamespace10descriptorE",
   "name" : "aidl::android::hardware::identity::RequestNamespace::descriptor",
   "referenced_type" : "_ZTIPKc",
   "source_file" : "/out/soong/.intermediates/hardware/interfaces/identity/aidl/android.hardware.identity-ndk_platform-source/gen/include/aidl/android/hardware/identity/RequestNamespace.h"
  },
  {
   "linker_set_key" : "_ZN4aidl7android8hardware8identity19HardwareInformation10descriptorE",
   "name" : "aidl::android::hardware::identity::HardwareInformation::descriptor",
   "referenced_type" : "_ZTIPKc",
   "source_file" : "/out/soong/.intermediates/hardware/interfaces/identity/aidl/android.hardware.identity-ndk_platform-source/gen/include/aidl/android/hardware/identity/HardwareInformation.h"
  },
  {
   "linker_set_key" : "_ZN4aidl7android8hardware8identity19IIdentityCredential10descriptorE",
   "name" : "aidl::android::hardware::identity::IIdentityCredential::descriptor",
   "referenced_type" : "_ZTIPKc",
   "source_file" : "/out/soong/.intermediates/hardware/interfaces/identity/aidl/android.hardware.identity-ndk_platform-source/gen/include/aidl/android/hardware/identity/IIdentityCredential.h"
  },
  {
   "access" : "private",
   "linker_set_key" : "_ZN4aidl7android8hardware8identity19IIdentityCredential12default_implE",
   "name" : "aidl::android::hardware::identity::IIdentityCredential::default_impl",
   "referenced_type" : "_ZTINSt3__110shared_ptrIN4aidl7android8hardware8identity19IIdentityCredentialEEE",
   "source_file" : "/out/soong/.intermediates/hardware/interfaces/identity/aidl/android.hardware.identity-ndk_platform-source/gen/include/aidl/android/hardware/identity/IIdentityCredential.h"
  },
  {
   "linker_set_key" : "_ZN4aidl7android8hardware8identity19IIdentityCredential4hashE",
   "name" : "aidl::android::hardware::identity::IIdentityCredential::hash",
   "referenced_type" : "_ZTIKNSt3__112basic_stringIcNS_11char_traitsIcEENS_9allocatorIcEEEE",
   "source_file" : "/out/soong/.intermediates/hardware/interfaces/identity/aidl/android.hardware.identity-ndk_platform-source/gen/include/aidl/android/hardware/identity/IIdentityCredential.h"
  },
  {
   "linker_set_key" : "_ZN4aidl7android8hardware8identity24IIdentityCredentialStore10descriptorE",
   "name" : "aidl::android::hardware::identity::IIdentityCredentialStore::descriptor",
   "referenced_type" : "_ZTIPKc",
   "source_file" : "/out/soong/.intermediates/hardware/interfaces/identity/aidl/android.hardware.identity-ndk_platform-source/gen/include/aidl/android/hardware/identity/IIdentityCredentialStore.h"
  },
  {
   "access" : "private",
   "linker_set_key" : "_ZN4aidl7android8hardware8identity24IIdentityCredentialStore12default_implE",
   "name" : "aidl::android::hardware::identity::IIdentityCredentialStore::default_impl",
   "referenced_type" : "_ZTINSt3__110shared_ptrIN4aidl7android8hardware8identity24IIdentityCredentialStoreEEE",
   "source_file" : "/out/soong/.intermediates/hardware/interfaces/identity/aidl/android.hardware.identity-ndk_platform-source/gen/include/aidl/android/hardware/identity/IIdentityCredentialStore.h"
  },
  {
   "linker_set_key" : "_ZN4aidl7android8hardware8identity24IIdentityCredentialStore4hashE",
   "name" : "aidl::android::hardware::identity::IIdentityCredentialStore::hash",
   "referenced_type" : "_ZTIKNSt3__112basic_stringIcNS_11char_traitsIcEENS_9allocatorIcEEEE",
   "source_file" : "/out/soong/.intermediates/hardware/interfaces/identity/aidl/android.hardware.identity-ndk_platform-source/gen/include/aidl/android/hardware/identity/IIdentityCredentialStore.h"
  },
  {
   "linker_set_key" : "_ZN4aidl7android8hardware8identity26SecureAccessControlProfile10descriptorE",
   "name" : "aidl::android::hardware::identity::SecureAccessControlProfile::descriptor",
   "referenced_type" : "_ZTIPKc",
   "source_file" : "/out/soong/.intermediates/hardware/interfaces/identity/aidl/android.hardware.identity-ndk_platform-source/gen/include/aidl/android/hardware/identity/SecureAccessControlProfile.h"
  },
  {
   "linker_set_key" : "_ZN4aidl7android8hardware8identity27IWritableIdentityCredential10descriptorE",
   "name" : "aidl::android::hardware::identity::IWritableIdentityCredential::descriptor",
   "referenced_type" : "_ZTIPKc",
   "source_file" : "/out/soong/.intermediates/hardware/interfaces/identity/aidl/android.hardware.identity-ndk_platform-source/gen/include/aidl/android/hardware/identity/IWritableIdentityCredential.h"
  },
  {
   "access" : "private",
   "linker_set_key" : "_ZN4aidl7android8hardware8identity27IWritableIdentityCredential12default_implE",
   "name" : "aidl::android::hardware::identity::IWritableIdentityCredential::default_impl",
   "referenced_type" : "_ZTINSt3__110shared_ptrIN4aidl7android8hardware8identity27IWritableIdentityCredentialEEE",
   "source_file" : "/out/soong/.intermediates/hardware/interfaces/identity/aidl/android.hardware.identity-ndk_platform-source/gen/include/aidl/android/hardware/identity/IWritableIdentityCredential.h"
  },
  {
   "linker_set_key" : "_ZN4aidl7android8hardware8identity27IWritableIdentityCredential4hashE",
   "name" : "aidl::android::hardware::identity::IWritableIdentityCredential::hash",
   "referenced_type" : "_ZTIKNSt3__112basic_stringIcNS_11char_traitsIcEENS_9allocatorIcEEEE",
   "source_file" : "/out/soong/.intermediates/hardware/interfaces/identity/aidl/android.hardware.identity-ndk_platform-source/gen/include/aidl/android/hardware/identity/IWritableIdentityCredential.h"
  }
 ],
 "lvalue_reference_types" :
 [
  {
   "alignment" : 8,
   "linker_set_key" : "_ZTIRKN3ndk10SpAIBinderE",
   "name" : "const ndk::SpAIBinder &",
   "referenced_type" : "_ZTIKN3ndk10SpAIBinderE",
   "self_type" : "_ZTIRKN3ndk10SpAIBinderE",
   "size" : 8,
   "source_file" : "/frameworks/native/libs/binder/ndk/include_ndk/android/binder_auto_utils.h"
  },
  {
   "alignment" : 8,
   "linker_set_key" : "_ZTIRKN4aidl7android8hardware8identity11CertificateE",
   "name" : "const aidl::android::hardware::identity::Certificate &",
   "referenced_type" : "_ZTIKN4aidl7android8hardware8identity11CertificateE",
   "self_type" : "_ZTIRKN4aidl7android8hardware8identity11CertificateE",
   "size" : 8,
   "source_file" : "/out/soong/.intermediates/hardware/interfaces/identity/aidl/android.hardware.identity-ndk_platform-source/gen/include/aidl/android/hardware/identity/IWritableIdentityCredential.h"
  },
  {
   "alignment" : 8,
   "linker_set_key" : "_ZTIRKN4aidl7android8hardware9keymaster17HardwareAuthTokenE",
   "name" : "const aidl::android::hardware::keymaster::HardwareAuthToken &",
   "referenced_type" : "_ZTIKN4aidl7android8hardware9keymaster17HardwareAuthTokenE",
   "self_type" : "_ZTIRKN4aidl7android8hardware9keymaster17HardwareAuthTokenE",
   "size" : 8,
   "source_file" : "/out/soong/.intermediates/hardware/interfaces/identity/aidl/android.hardware.identity-ndk_platform-source/gen/include/aidl/android/hardware/identity/IIdentityCredential.h"
  },
  {
   "alignment" : 8,
   "linker_set_key" : "_ZTIRKN4aidl7android8hardware9keymaster17VerificationTokenE",
   "name" : "const aidl::android::hardware::keymaster::VerificationToken &",
   "referenced_type" : "_ZTIKN4aidl7android8hardware9keymaster17VerificationTokenE",
   "self_type" : "_ZTIRKN4aidl7android8hardware9keymaster17VerificationTokenE",
   "size" : 8,
   "source_file" : "/out/soong/.intermediates/hardware/interfaces/identity/aidl/android.hardware.identity-ndk_platform-source/gen/include/aidl/android/hardware/identity/IIdentityCredential.h"
  },
  {
   "alignment" : 8,
   "linker_set_key" : "_ZTIRKNSt3__110shared_ptrIN4aidl7android8hardware8identity19IIdentityCredentialEEE",
   "name" : "const std::shared_ptr<aidl::android::hardware::identity::IIdentityCredential> &",
   "referenced_type" : "_ZTIKNSt3__110shared_ptrIN4aidl7android8hardware8identity19IIdentityCredentialEEE",
   "self_type" : "_ZTIRKNSt3__110shared_ptrIN4aidl7android8hardware8identity19IIdentityCredentialEEE",
   "size" : 8,
   "source_file" : "/out/soong/.intermediates/hardware/interfaces/identity/aidl/android.hardware.identity-ndk_platform-source/gen/include/aidl/android/hardware/identity/IIdentityCredential.h"
  },
  {
   "alignment" : 8,
   "linker_set_key" : "_ZTIRKNSt3__110shared_ptrIN4aidl7android8hardware8identity24IIdentityCredentialStoreEEE",
   "name" : "const std::shared_ptr<aidl::android::hardware::identity::IIdentityCredentialStore> &",
   "referenced_type" : "_ZTIKNSt3__110shared_ptrIN4aidl7android8hardware8identity24IIdentityCredentialStoreEEE",
   "self_type" : "_ZTIRKNSt3__110shared_ptrIN4aidl7android8hardware8identity24IIdentityCredentialStoreEEE",
   "size" : 8,
   "source_file" : "/out/soong/.intermediates/hardware/interfaces/identity/aidl/android.hardware.identity-ndk_platform-source/gen/include/aidl/android/hardware/identity/IIdentityCredentialStore.h"
  },
  {
   "alignment" : 8,
   "linker_set_key" : "_ZTIRKNSt3__110shared_ptrIN4aidl7android8hardware8identity27IWritableIdentityCredentialEEE",
   "name" : "const std::shared_ptr<aidl::android::hardware::identity::IWritableIdentityCredential> &",
   "referenced_type" : "_ZTIKNSt3__110shared_ptrIN4aidl7android8hardware8identity27IWritableIdentityCredentialEEE",
   "self_type" : "_ZTIRKNSt3__110shared_ptrIN4aidl7android8hardware8identity27IWritableIdentityCredentialEEE",
   "size" : 8,
   "source_file" : "/out/soong/.intermediates/hardware/interfaces/identity/aidl/android.hardware.identity-ndk_platform-source/gen/include/aidl/android/hardware/identity/IWritableIdentityCredential.h"
  },
  {
   "alignment" : 8,
   "linker_set_key" : "_ZTIRKNSt3__112basic_stringIcNS_11char_traitsIcEENS_9allocatorIcEEEE",
   "name" : "const std::basic_string<char, std::char_traits<char>, std::allocator<char> > &",
   "referenced_type" : "_ZTIKNSt3__112basic_stringIcNS_11char_traitsIcEENS_9allocatorIcEEEE",
   "self_type" : "_ZTIRKNSt3__112basic_stringIcNS_11char_traitsIcEENS_9allocatorIcEEEE",
   "size" : 8,
   "source_file" : "/out/soong/.intermediates/hardware/interfaces/identity/aidl/android.hardware.identity-ndk_platform-source/gen/include/aidl/android/hardware/identity/IIdentityCredential.h"
  },
  {
   "alignment" : 8,
   "linker_set_key" : "_ZTIRKNSt3__16vectorIDsNS_9allocatorIDsEEEE",
   "name" : "const std::vector<char16_t, std::allocator<char16_t> > &",
   "referenced_type" : "_ZTIKNSt3__16vectorIDsNS_9allocatorIDsEEEE",
   "self_type" : "_ZTIRKNSt3__16vectorIDsNS_9allocatorIDsEEEE",
   "size" : 8,
   "source_file" : "/frameworks/native/libs/binder/ndk/include_ndk/android/binder_parcel_utils.h"
  },
  {
   "alignment" : 8,
   "linker_set_key" : "_ZTIRKNSt3__16vectorIN4aidl7android8hardware8identity16RequestNamespaceENS_9allocatorIS5_EEEE",
   "name" : "const std::vector<aidl::android::hardware::identity::RequestNamespace, std::allocator<aidl::android::hardware::identity::RequestNamespace> > &",
   "referenced_type" : "_ZTIKNSt3__16vectorIN4aidl7android8hardware8identity16RequestNamespaceENS_9allocatorIS5_EEEE",
   "self_type" : "_ZTIRKNSt3__16vectorIN4aidl7android8hardware8identity16RequestNamespaceENS_9allocatorIS5_EEEE",
   "size" : 8,
   "source_file" : "/out/soong/.intermediates/hardware/interfaces/identity/aidl/android.hardware.identity-ndk_platform-source/gen/include/aidl/android/hardware/identity/IIdentityCredential.h"
  },
  {
   "alignment" : 8,
   "linker_set_key" : "_ZTIRKNSt3__16vectorIN4aidl7android8hardware8identity26SecureAccessControlProfileENS_9allocatorIS5_EEEE",
   "name" : "const std::vector<aidl::android::hardware::identity::SecureAccessControlProfile, std::allocator<aidl::android::hardware::identity::SecureAccessControlProfile> > &",
   "referenced_type" : "_ZTIKNSt3__16vectorIN4aidl7android8hardware8identity26SecureAccessControlProfileENS_9allocatorIS5_EEEE",
   "self_type" : "_ZTIRKNSt3__16vectorIN4aidl7android8hardware8identity26SecureAccessControlProfileENS_9allocatorIS5_EEEE",
   "size" : 8,
   "source_file" : "/out/soong/.intermediates/hardware/interfaces/identity/aidl/android.hardware.identity-ndk_platform-source/gen/include/aidl/android/hardware/identity/IIdentityCredential.h"
  },
  {
   "alignment" : 8,
   "linker_set_key" : "_ZTIRKNSt3__16vectorIaNS_9allocatorIaEEEE",
   "name" : "const std::vector<signed char, std::allocator<signed char> > &",
   "referenced_type" : "_ZTIKNSt3__16vectorIaNS_9allocatorIaEEEE",
   "self_type" : "_ZTIRKNSt3__16vectorIaNS_9allocatorIaEEEE",
   "size" : 8,
   "source_file" : "/frameworks/native/libs/binder/ndk/include_ndk/android/binder_parcel_utils.h"
  },
  {
   "alignment" : 8,
   "linker_set_key" : "_ZTIRKNSt3__16vectorIbNS_9allocatorIbEEEE",
   "name" : "const std::vector<bool, std::allocator<bool> > &",
   "referenced_type" : "_ZTIKNSt3__16vectorIbNS_9allocatorIbEEEE",
   "self_type" : "_ZTIRKNSt3__16vectorIbNS_9allocatorIbEEEE",
   "size" : 8,
   "source_file" : "/frameworks/native/libs/binder/ndk/include_ndk/android/binder_parcel_utils.h"
  },
  {
   "alignment" : 8,
   "linker_set_key" : "_ZTIRKNSt3__16vectorIdNS_9allocatorIdEEEE",
   "name" : "const std::vector<double, std::allocator<double> > &",
   "referenced_type" : "_ZTIKNSt3__16vectorIdNS_9allocatorIdEEEE",
   "self_type" : "_ZTIRKNSt3__16vectorIdNS_9allocatorIdEEEE",
   "size" : 8,
   "source_file" : "/frameworks/native/libs/binder/ndk/include_ndk/android/binder_parcel_utils.h"
  },
  {
   "alignment" : 8,
   "linker_set_key" : "_ZTIRKNSt3__16vectorIfNS_9allocatorIfEEEE",
   "name" : "const std::vector<float, std::allocator<float> > &",
   "referenced_type" : "_ZTIKNSt3__16vectorIfNS_9allocatorIfEEEE",
   "self_type" : "_ZTIRKNSt3__16vectorIfNS_9allocatorIfEEEE",
   "size" : 8,
   "source_file" : "/frameworks/native/libs/binder/ndk/include_ndk/android/binder_parcel_utils.h"
  },
  {
   "alignment" : 8,
   "linker_set_key" : "_ZTIRKNSt3__16vectorIiNS_9allocatorIiEEEE",
   "name" : "const std::vector<int, std::allocator<int> > &",
   "referenced_type" : "_ZTIKNSt3__16vectorIiNS_9allocatorIiEEEE",
   "self_type" : "_ZTIRKNSt3__16vectorIiNS_9allocatorIiEEEE",
   "size" : 8,
   "source_file" : "/frameworks/native/libs/binder/ndk/include_ndk/android/binder_parcel_utils.h"
  },
  {
   "alignment" : 8,
   "linker_set_key" : "_ZTIRKNSt3__16vectorIjNS_9allocatorIjEEEE",
   "name" : "const std::vector<unsigned int, std::allocator<unsigned int> > &",
   "referenced_type" : "_ZTIKNSt3__16vectorIjNS_9allocatorIjEEEE",
   "self_type" : "_ZTIRKNSt3__16vectorIjNS_9allocatorIjEEEE",
   "size" : 8,
   "source_file" : "/frameworks/native/libs/binder/ndk/include_ndk/android/binder_parcel_utils.h"
  },
  {
   "alignment" : 8,
   "linker_set_key" : "_ZTIRKNSt3__16vectorIlNS_9allocatorIlEEEE",
   "name" : "const std::vector<long, std::allocator<long> > &",
   "referenced_type" : "_ZTIKNSt3__16vectorIlNS_9allocatorIlEEEE",
   "self_type" : "_ZTIRKNSt3__16vectorIlNS_9allocatorIlEEEE",
   "size" : 8,
   "source_file" : "/frameworks/native/libs/binder/ndk/include_ndk/android/binder_parcel_utils.h"
  },
  {
   "alignment" : 8,
   "linker_set_key" : "_ZTIRKNSt3__16vectorImNS_9allocatorImEEEE",
   "name" : "const std::vector<unsigned long, std::allocator<unsigned long> > &",
   "referenced_type" : "_ZTIKNSt3__16vectorImNS_9allocatorImEEEE",
   "self_type" : "_ZTIRKNSt3__16vectorImNS_9allocatorImEEEE",
   "size" : 8,
   "source_file" : "/frameworks/native/libs/binder/ndk/include_ndk/android/binder_parcel_utils.h"
  },
  {
   "alignment" : 8,
   "linker_set_key" : "_ZTIRKNSt3__18optionalINS_6vectorIDsNS_9allocatorIDsEEEEEE",
   "name" : "const std::optional<std::vector<char16_t, std::allocator<char16_t> > > &",
   "referenced_type" : "_ZTIKNSt3__18optionalINS_6vectorIDsNS_9allocatorIDsEEEEEE",
   "self_type" : "_ZTIRKNSt3__18optionalINS_6vectorIDsNS_9allocatorIDsEEEEEE",
   "size" : 8,
   "source_file" : "/frameworks/native/libs/binder/ndk/include_ndk/android/binder_parcel_utils.h"
  },
  {
   "alignment" : 8,
   "linker_set_key" : "_ZTIRKNSt3__18optionalINS_6vectorIaNS_9allocatorIaEEEEEE",
   "name" : "const std::optional<std::vector<signed char, std::allocator<signed char> > > &",
   "referenced_type" : "_ZTIKNSt3__18optionalINS_6vectorIaNS_9allocatorIaEEEEEE",
   "self_type" : "_ZTIRKNSt3__18optionalINS_6vectorIaNS_9allocatorIaEEEEEE",
   "size" : 8,
   "source_file" : "/frameworks/native/libs/binder/ndk/include_ndk/android/binder_parcel_utils.h"
  },
  {
   "alignment" : 8,
   "linker_set_key" : "_ZTIRKNSt3__18optionalINS_6vectorIbNS_9allocatorIbEEEEEE",
   "name" : "const std::optional<std::vector<bool, std::allocator<bool> > > &",
   "referenced_type" : "_ZTIKNSt3__18optionalINS_6vectorIbNS_9allocatorIbEEEEEE",
   "self_type" : "_ZTIRKNSt3__18optionalINS_6vectorIbNS_9allocatorIbEEEEEE",
   "size" : 8,
   "source_file" : "/frameworks/native/libs/binder/ndk/include_ndk/android/binder_parcel_utils.h"
  },
  {
   "alignment" : 8,
   "linker_set_key" : "_ZTIRKNSt3__18optionalINS_6vectorIdNS_9allocatorIdEEEEEE",
   "name" : "const std::optional<std::vector<double, std::allocator<double> > > &",
   "referenced_type" : "_ZTIKNSt3__18optionalINS_6vectorIdNS_9allocatorIdEEEEEE",
   "self_type" : "_ZTIRKNSt3__18optionalINS_6vectorIdNS_9allocatorIdEEEEEE",
   "size" : 8,
   "source_file" : "/frameworks/native/libs/binder/ndk/include_ndk/android/binder_parcel_utils.h"
  },
  {
   "alignment" : 8,
   "linker_set_key" : "_ZTIRKNSt3__18optionalINS_6vectorIfNS_9allocatorIfEEEEEE",
   "name" : "const std::optional<std::vector<float, std::allocator<float> > > &",
   "referenced_type" : "_ZTIKNSt3__18optionalINS_6vectorIfNS_9allocatorIfEEEEEE",
   "self_type" : "_ZTIRKNSt3__18optionalINS_6vectorIfNS_9allocatorIfEEEEEE",
   "size" : 8,
   "source_file" : "/frameworks/native/libs/binder/ndk/include_ndk/android/binder_parcel_utils.h"
  },
  {
   "alignment" : 8,
   "linker_set_key" : "_ZTIRKNSt3__18optionalINS_6vectorIiNS_9allocatorIiEEEEEE",
   "name" : "const std::optional<std::vector<int, std::allocator<int> > > &",
   "referenced_type" : "_ZTIKNSt3__18optionalINS_6vectorIiNS_9allocatorIiEEEEEE",
   "self_type" : "_ZTIRKNSt3__18optionalINS_6vectorIiNS_9allocatorIiEEEEEE",
   "size" : 8,
   "source_file" : "/frameworks/native/libs/binder/ndk/include_ndk/android/binder_parcel_utils.h"
  },
  {
   "alignment" : 8,
   "linker_set_key" : "_ZTIRKNSt3__18optionalINS_6vectorIjNS_9allocatorIjEEEEEE",
   "name" : "const std::optional<std::vector<unsigned int, std::allocator<unsigned int> > > &",
   "referenced_type" : "_ZTIKNSt3__18optionalINS_6vectorIjNS_9allocatorIjEEEEEE",
   "self_type" : "_ZTIRKNSt3__18optionalINS_6vectorIjNS_9allocatorIjEEEEEE",
   "size" : 8,
   "source_file" : "/frameworks/native/libs/binder/ndk/include_ndk/android/binder_parcel_utils.h"
  },
  {
   "alignment" : 8,
   "linker_set_key" : "_ZTIRKNSt3__18optionalINS_6vectorIlNS_9allocatorIlEEEEEE",
   "name" : "const std::optional<std::vector<long, std::allocator<long> > > &",
   "referenced_type" : "_ZTIKNSt3__18optionalINS_6vectorIlNS_9allocatorIlEEEEEE",
   "self_type" : "_ZTIRKNSt3__18optionalINS_6vectorIlNS_9allocatorIlEEEEEE",
   "size" : 8,
   "source_file" : "/frameworks/native/libs/binder/ndk/include_ndk/android/binder_parcel_utils.h"
  },
  {
   "alignment" : 8,
   "linker_set_key" : "_ZTIRKNSt3__18optionalINS_6vectorImNS_9allocatorImEEEEEE",
   "name" : "const std::optional<std::vector<unsigned long, std::allocator<unsigned long> > > &",
   "referenced_type" : "_ZTIKNSt3__18optionalINS_6vectorImNS_9allocatorImEEEEEE",
   "self_type" : "_ZTIRKNSt3__18optionalINS_6vectorImNS_9allocatorImEEEEEE",
   "size" : 8,
   "source_file" : "/frameworks/native/libs/binder/ndk/include_ndk/android/binder_parcel_utils.h"
  },
  {
   "alignment" : 8,
   "linker_set_key" : "_ZTIRN3ndk10SpAIBinderE",
   "name" : "ndk::SpAIBinder &",
   "referenced_type" : "_ZTIN3ndk10SpAIBinderE",
   "self_type" : "_ZTIRN3ndk10SpAIBinderE",
   "size" : 8,
   "source_file" : "/frameworks/native/libs/binder/ndk/include_ndk/android/binder_auto_utils.h"
  },
  {
   "alignment" : 8,
   "linker_set_key" : "_ZTIRN3ndk13ScopedAStatusE",
   "name" : "ndk::ScopedAStatus &",
   "referenced_type" : "_ZTIN3ndk13ScopedAStatusE",
   "self_type" : "_ZTIRN3ndk13ScopedAStatusE",
   "size" : 8,
   "source_file" : "/frameworks/native/libs/binder/ndk/include_ndk/android/binder_auto_utils.h"
  }
 ],
 "pointer_types" :
 [
  {
   "alignment" : 8,
   "linker_set_key" : "_ZTIP13AIBinder_Weak",
   "name" : "AIBinder_Weak *",
   "referenced_type" : "_ZTI13AIBinder_Weak",
   "self_type" : "_ZTIP13AIBinder_Weak",
   "size" : 8,
   "source_file" : "/frameworks/native/libs/binder/ndk/include_ndk/android/binder_auto_utils.h"
  },
  {
   "alignment" : 8,
   "linker_set_key" : "_ZTIP14AIBinder_Class",
   "name" : "AIBinder_Class *",
   "referenced_type" : "_ZTI14AIBinder_Class",
   "self_type" : "_ZTIP14AIBinder_Class",
   "size" : 8,
   "source_file" : "/frameworks/native/libs/binder/ndk/include_ndk/android/binder_interface_utils.h"
  },
  {
   "alignment" : 8,
   "linker_set_key" : "_ZTIP23AIBinder_DeathRecipient",
   "name" : "AIBinder_DeathRecipient *",
   "referenced_type" : "_ZTI23AIBinder_DeathRecipient",
   "self_type" : "_ZTIP23AIBinder_DeathRecipient",
   "size" : 8,
   "source_file" : "/frameworks/native/libs/binder/ndk/include_ndk/android/binder_auto_utils.h"
  },
  {
   "alignment" : 8,
   "linker_set_key" : "_ZTIP7AParcel",
   "name" : "AParcel *",
   "referenced_type" : "_ZTI7AParcel",
   "self_type" : "_ZTIP7AParcel",
   "size" : 8,
   "source_file" : "/frameworks/native/libs/binder/ndk/include_ndk/android/binder_auto_utils.h"
  },
  {
   "alignment" : 8,
   "linker_set_key" : "_ZTIP7AStatus",
   "name" : "AStatus *",
   "referenced_type" : "_ZTI7AStatus",
   "self_type" : "_ZTIP7AStatus",
   "size" : 8,
   "source_file" : "/frameworks/native/libs/binder/ndk/include_ndk/android/binder_auto_utils.h"
  },
  {
   "alignment" : 8,
   "linker_set_key" : "_ZTIP8AIBinder",
   "name" : "AIBinder *",
   "referenced_type" : "_ZTI8AIBinder",
   "self_type" : "_ZTIP8AIBinder",
   "size" : 8,
   "source_file" : "/frameworks/native/libs/binder/ndk/include_ndk/android/binder_auto_utils.h"
  },
  {
   "alignment" : 8,
   "linker_set_key" : "_ZTIPFiP8AIBinderjPK7AParcelPS1_E",
   "name" : "int (*)(AIBinder *, unsigned int, const AParcel *, AParcel *)",
   "referenced_type" : "_ZTIFiP8AIBinderjPK7AParcelPS1_E",
   "self_type" : "_ZTIPFiP8AIBinderjPK7AParcelPS1_E",
   "size" : 8,
   "source_file" : "/frameworks/native/libs/binder/ndk/include_ndk/android/binder_interface_utils.h"
  },
  {
   "alignment" : 8,
   "linker_set_key" : "_ZTIPK7AParcel",
   "name" : "const AParcel *",
   "referenced_type" : "_ZTIK7AParcel",
   "self_type" : "_ZTIPK7AParcel",
   "size" : 8,
   "source_file" : "/frameworks/native/libs/binder/ndk/include_ndk/android/binder_interface_utils.h"
  },
  {
   "alignment" : 8,
   "linker_set_key" : "_ZTIPKN3ndk10SpAIBinderE",
   "name" : "const ndk::SpAIBinder *",
   "referenced_type" : "_ZTIKN3ndk10SpAIBinderE",
   "self_type" : "_ZTIPKN3ndk10SpAIBinderE",
   "size" : 8,
   "source_file" : "/frameworks/native/libs/binder/ndk/include_ndk/android/binder_auto_utils.h"
  },
  {
   "alignment" : 8,
   "linker_set_key" : "_ZTIPKN3ndk13ScopedAStatusE",
   "name" : "const ndk::ScopedAStatus *",
   "referenced_type" : "_ZTIKN3ndk13ScopedAStatusE",
   "self_type" : "_ZTIPKN3ndk13ScopedAStatusE",
   "size" : 8,
   "source_file" : "/frameworks/native/libs/binder/ndk/include_ndk/android/binder_auto_utils.h"
  },
  {
   "alignment" : 8,
   "linker_set_key" : "_ZTIPKN3ndk4impl15ScopedAResourceIP7AStatusvXadL_Z14AStatus_deleteEELS3_0EEE",
   "name" : "const ndk::impl::ScopedAResource<AStatus *, void, &AStatus_delete, nullptr> *",
   "referenced_type" : "_ZTIKN3ndk4impl15ScopedAResourceIP7AStatusvXadL_Z14AStatus_deleteEELS3_0EEE",
   "self_type" : "_ZTIPKN3ndk4impl15ScopedAResourceIP7AStatusvXadL_Z14AStatus_deleteEELS3_0EEE",
   "size" : 8,
   "source_file" : "/frameworks/native/libs/binder/ndk/include_ndk/android/binder_auto_utils.h"
  },
  {
   "alignment" : 8,
   "linker_set_key" : "_ZTIPKN3ndk4impl15ScopedAResourceIiiXadL_Z5closeEELin1EEE",
   "name" : "const ndk::impl::ScopedAResource<int, int, &close, -1> *",
   "referenced_type" : "_ZTIKN3ndk4impl15ScopedAResourceIiiXadL_Z5closeEELin1EEE",
   "self_type" : "_ZTIPKN3ndk4impl15ScopedAResourceIiiXadL_Z5closeEELin1EEE",
   "size" : 8,
   "source_file" : "/frameworks/native/libs/binder/ndk/include_ndk/android/binder_auto_utils.h"
  },
  {
   "alignment" : 8,
   "linker_set_key" : "_ZTIPKN4aidl7android8hardware8identity11CertificateE",
   "name" : "const aidl::android::hardware::identity::Certificate *",
   "referenced_type" : "_ZTIKN4aidl7android8hardware8identity11CertificateE",
   "self_type" : "_ZTIPKN4aidl7android8hardware8identity11CertificateE",
   "size" : 8,
   "source_file" : "/out/soong/.intermediates/hardware/interfaces/identity/aidl/android.hardware.identity-ndk_platform-source/gen/include/aidl/android/hardware/identity/Certificate.h"
  },
  {
   "alignment" : 8,
   "linker_set_key" : "_ZTIPKN4aidl7android8hardware8identity15RequestDataItemE",
   "name" : "const aidl::android::hardware::identity::RequestDataItem *",
   "referenced_type" : "_ZTIKN4aidl7android8hardware8identity15RequestDataItemE",
   "self_type" : "_ZTIPKN4aidl7android8hardware8identity15RequestDataItemE",
   "size" : 8,
   "source_file" : "/out/soong/.intermediates/hardware/interfaces/identity/aidl/android.hardware.identity-ndk_platform-source/gen/include/aidl/android/hardware/identity/RequestDataItem.h"
  },
  {
   "alignment" : 8,
   "linker_set_key" : "_ZTIPKN4aidl7android8hardware8identity16RequestNamespaceE",
   "name" : "const aidl::android::hardware::identity::RequestNamespace *",
   "referenced_type" : "_ZTIKN4aidl7android8hardware8identity16RequestNamespaceE",
   "self_type" : "_ZTIPKN4aidl7android8hardware8identity16RequestNamespaceE",
   "size" : 8,
   "source_file" : "/out/soong/.intermediates/hardware/interfaces/identity/aidl/android.hardware.identity-ndk_platform-source/gen/include/aidl/android/hardware/identity/RequestNamespace.h"
  },
  {
   "alignment" : 8,
   "linker_set_key" : "_ZTIPKN4aidl7android8hardware8identity19HardwareInformationE",
   "name" : "const aidl::android::hardware::identity::HardwareInformation *",
   "referenced_type" : "_ZTIKN4aidl7android8hardware8identity19HardwareInformationE",
   "self_type" : "_ZTIPKN4aidl7android8hardware8identity19HardwareInformationE",
   "size" : 8,
   "source_file" : "/out/soong/.intermediates/hardware/interfaces/identity/aidl/android.hardware.identity-ndk_platform-source/gen/include/aidl/android/hardware/identity/HardwareInformation.h"
  },
  {
   "alignment" : 8,
   "linker_set_key" : "_ZTIPKN4aidl7android8hardware8identity26SecureAccessControlProfileE",
   "name" : "const aidl::android::hardware::identity::SecureAccessControlProfile *",
   "referenced_type" : "_ZTIKN4aidl7android8hardware8identity26SecureAccessControlProfileE",
   "self_type" : "_ZTIPKN4aidl7android8hardware8identity26SecureAccessControlProfileE",
   "size" : 8,
   "source_file" : "/out/soong/.intermediates/hardware/interfaces/identity/aidl/android.hardware.identity-ndk_platform-source/gen/include/aidl/android/hardware/identity/SecureAccessControlProfile.h"
  },
  {
   "alignment" : 8,
   "linker_set_key" : "_ZTIPKc",
   "name" : "const char *",
   "referenced_type" : "_ZTIKc",
   "self_type" : "_ZTIPKc",
   "size" : 8,
   "source_file" : "/frameworks/native/libs/binder/ndk/include_ndk/android/binder_auto_utils.h"
  },
  {
   "alignment" : 8,
   "linker_set_key" : "_ZTIPKv",
   "name" : "const void *",
   "referenced_type" : "_ZTIKv",
   "self_type" : "_ZTIPKv",
   "size" : 8,
   "source_file" : "/frameworks/native/libs/binder/ndk/include_ndk/android/binder_parcel_utils.h"
  },
  {
   "alignment" : 8,
   "linker_set_key" : "_ZTIPN3ndk10SpAIBinderE",
   "name" : "ndk::SpAIBinder *",
   "referenced_type" : "_ZTIN3ndk10SpAIBinderE",
   "self_type" : "_ZTIPN3ndk10SpAIBinderE",
   "size" : 8,
   "source_file" : "/frameworks/native/libs/binder/ndk/include_ndk/android/binder_auto_utils.h"
  },
  {
   "alignment" : 8,
   "linker_set_key" : "_ZTIPN3ndk11ICInterfaceE",
   "name" : "ndk::ICInterface *",
   "referenced_type" : "_ZTIN3ndk11ICInterfaceE",
   "self_type" : "_ZTIPN3ndk11ICInterfaceE",
   "size" : 8,
   "source_file" : "/frameworks/native/libs/binder/ndk/include_ndk/android/binder_interface_utils.h"
  },
  {
   "alignment" : 8,
   "linker_set_key" : "_ZTIPN3ndk12BnCInterfaceIN4aidl7android8hardware8identity19IIdentityCredentialEEE",
   "name" : "ndk::BnCInterface<aidl::android::hardware::identity::IIdentityCredential> *",
   "referenced_type" : "_ZTIN3ndk12BnCInterfaceIN4aidl7android8hardware8identity19IIdentityCredentialEEE",
   "self_type" : "_ZTIPN3ndk12BnCInterfaceIN4aidl7android8hardware8identity19IIdentityCredentialEEE",
   "size" : 8,
   "source_file" : "/frameworks/native/libs/binder/ndk/include_ndk/android/binder_interface_utils.h"
  },
  {
   "alignment" : 8,
   "linker_set_key" : "_ZTIPN3ndk12BnCInterfaceIN4aidl7android8hardware8identity24IIdentityCredentialStoreEEE",
   "name" : "ndk::BnCInterface<aidl::android::hardware::identity::IIdentityCredentialStore> *",
   "referenced_type" : "_ZTIN3ndk12BnCInterfaceIN4aidl7android8hardware8identity24IIdentityCredentialStoreEEE",
   "self_type" : "_ZTIPN3ndk12BnCInterfaceIN4aidl7android8hardware8identity24IIdentityCredentialStoreEEE",
   "size" : 8,
   "source_file" : "/frameworks/native/libs/binder/ndk/include_ndk/android/binder_interface_utils.h"
  },
  {
   "alignment" : 8,
   "linker_set_key" : "_ZTIPN3ndk12BnCInterfaceIN4aidl7android8hardware8identity27IWritableIdentityCredentialEEE",
   "name" : "ndk::BnCInterface<aidl::android::hardware::identity::IWritableIdentityCredential> *",
   "referenced_type" : "_ZTIN3ndk12BnCInterfaceIN4aidl7android8hardware8identity27IWritableIdentityCredentialEEE",
   "self_type" : "_ZTIPN3ndk12BnCInterfaceIN4aidl7android8hardware8identity27IWritableIdentityCredentialEEE",
   "size" : 8,
   "source_file" : "/frameworks/native/libs/binder/ndk/include_ndk/android/binder_interface_utils.h"
  },
  {
   "alignment" : 8,
   "linker_set_key" : "_ZTIPN3ndk12BpCInterfaceIN4aidl7android8hardware8identity19IIdentityCredentialEEE",
   "name" : "ndk::BpCInterface<aidl::android::hardware::identity::IIdentityCredential> *",
   "referenced_type" : "_ZTIN3ndk12BpCInterfaceIN4aidl7android8hardware8identity19IIdentityCredentialEEE",
   "self_type" : "_ZTIPN3ndk12BpCInterfaceIN4aidl7android8hardware8identity19IIdentityCredentialEEE",
   "size" : 8,
   "source_file" : "/frameworks/native/libs/binder/ndk/include_ndk/android/binder_interface_utils.h"
  },
  {
   "alignment" : 8,
   "linker_set_key" : "_ZTIPN3ndk12BpCInterfaceIN4aidl7android8hardware8identity24IIdentityCredentialStoreEEE",
   "name" : "ndk::BpCInterface<aidl::android::hardware::identity::IIdentityCredentialStore> *",
   "referenced_type" : "_ZTIN3ndk12BpCInterfaceIN4aidl7android8hardware8identity24IIdentityCredentialStoreEEE",
   "self_type" : "_ZTIPN3ndk12BpCInterfaceIN4aidl7android8hardware8identity24IIdentityCredentialStoreEEE",
   "size" : 8,
   "source_file" : "/frameworks/native/libs/binder/ndk/include_ndk/android/binder_interface_utils.h"
  },
  {
   "alignment" : 8,
   "linker_set_key" : "_ZTIPN3ndk12BpCInterfaceIN4aidl7android8hardware8identity27IWritableIdentityCredentialEEE",
   "name" : "ndk::BpCInterface<aidl::android::hardware::identity::IWritableIdentityCredential> *",
   "referenced_type" : "_ZTIN3ndk12BpCInterfaceIN4aidl7android8hardware8identity27IWritableIdentityCredentialEEE",
   "self_type" : "_ZTIPN3ndk12BpCInterfaceIN4aidl7android8hardware8identity27IWritableIdentityCredentialEEE",
   "size" : 8,
   "source_file" : "/frameworks/native/libs/binder/ndk/include_ndk/android/binder_interface_utils.h"
  },
  {
   "alignment" : 8,
   "linker_set_key" : "_ZTIPN3ndk13ScopedAParcelE",
   "name" : "ndk::ScopedAParcel *",
   "referenced_type" : "_ZTIN3ndk13ScopedAParcelE",
   "self_type" : "_ZTIPN3ndk13ScopedAParcelE",
   "size" : 8,
   "source_file" : "/frameworks/native/libs/binder/ndk/include_ndk/android/binder_auto_utils.h"
  },
  {
   "alignment" : 8,
   "linker_set_key" : "_ZTIPN3ndk13ScopedAStatusE",
   "name" : "ndk::ScopedAStatus *",
   "referenced_type" : "_ZTIN3ndk13ScopedAStatusE",
   "self_type" : "_ZTIPN3ndk13ScopedAStatusE",
   "size" : 8,
   "source_file" : "/frameworks/native/libs/binder/ndk/include_ndk/android/binder_auto_utils.h"
  },
  {
   "alignment" : 8,
   "linker_set_key" : "_ZTIPN3ndk13SharedRefBaseE",
   "name" : "ndk::SharedRefBase *",
   "referenced_type" : "_ZTIN3ndk13SharedRefBaseE",
   "self_type" : "_ZTIPN3ndk13SharedRefBaseE",
   "size" : 8,
   "source_file" : "/frameworks/native/libs/binder/ndk/include_ndk/android/binder_interface_utils.h"
  },
  {
   "alignment" : 8,
   "linker_set_key" : "_ZTIPN3ndk19ScopedAIBinder_WeakE",
   "name" : "ndk::ScopedAIBinder_Weak *",
   "referenced_type" : "_ZTIN3ndk19ScopedAIBinder_WeakE",
   "self_type" : "_ZTIPN3ndk19ScopedAIBinder_WeakE",
   "size" : 8,
   "source_file" : "/frameworks/native/libs/binder/ndk/include_ndk/android/binder_auto_utils.h"
  },
  {
   "alignment" : 8,
   "linker_set_key" : "_ZTIPN3ndk20ScopedFileDescriptorE",
   "name" : "ndk::ScopedFileDescriptor *",
   "referenced_type" : "_ZTIN3ndk20ScopedFileDescriptorE",
   "self_type" : "_ZTIPN3ndk20ScopedFileDescriptorE",
   "size" : 8,
   "source_file" : "/frameworks/native/libs/binder/ndk/include_ndk/android/binder_auto_utils.h"
  },
  {
   "alignment" : 8,
   "linker_set_key" : "_ZTIPN3ndk29ScopedAIBinder_DeathRecipientE",
   "name" : "ndk::ScopedAIBinder_DeathRecipient *",
   "referenced_type" : "_ZTIN3ndk29ScopedAIBinder_DeathRecipientE",
   "self_type" : "_ZTIPN3ndk29ScopedAIBinder_DeathRecipientE",
   "size" : 8,
   "source_file" : "/frameworks/native/libs/binder/ndk/include_ndk/android/binder_auto_utils.h"
  },
  {
   "alignment" : 8,
   "linker_set_key" : "_ZTIPN3ndk4impl15ScopedAResourceIP13AIBinder_WeakvXadL_Z20AIBinder_Weak_deleteEELS3_0EEE",
   "name" : "ndk::impl::ScopedAResource<AIBinder_Weak *, void, &AIBinder_Weak_delete, nullptr> *",
   "referenced_type" : "_ZTIN3ndk4impl15ScopedAResourceIP13AIBinder_WeakvXadL_Z20AIBinder_Weak_deleteEELS3_0EEE",
   "self_type" : "_ZTIPN3ndk4impl15ScopedAResourceIP13AIBinder_WeakvXadL_Z20AIBinder_Weak_deleteEELS3_0EEE",
   "size" : 8,
   "source_file" : "/frameworks/native/libs/binder/ndk/include_ndk/android/binder_auto_utils.h"
  },
  {
   "alignment" : 8,
   "linker_set_key" : "_ZTIPN3ndk4impl15ScopedAResourceIP23AIBinder_DeathRecipientvXadL_Z30AIBinder_DeathRecipient_deleteEELS3_0EEE",
   "name" : "ndk::impl::ScopedAResource<AIBinder_DeathRecipient *, void, &AIBinder_DeathRecipient_delete, nullptr> *",
   "referenced_type" : "_ZTIN3ndk4impl15ScopedAResourceIP23AIBinder_DeathRecipientvXadL_Z30AIBinder_DeathRecipient_deleteEELS3_0EEE",
   "self_type" : "_ZTIPN3ndk4impl15ScopedAResourceIP23AIBinder_DeathRecipientvXadL_Z30AIBinder_DeathRecipient_deleteEELS3_0EEE",
   "size" : 8,
   "source_file" : "/frameworks/native/libs/binder/ndk/include_ndk/android/binder_auto_utils.h"
  },
  {
   "alignment" : 8,
   "linker_set_key" : "_ZTIPN3ndk4impl15ScopedAResourceIP7AParcelvXadL_Z14AParcel_deleteEELS3_0EEE",
   "name" : "ndk::impl::ScopedAResource<AParcel *, void, &AParcel_delete, nullptr> *",
   "referenced_type" : "_ZTIN3ndk4impl15ScopedAResourceIP7AParcelvXadL_Z14AParcel_deleteEELS3_0EEE",
   "self_type" : "_ZTIPN3ndk4impl15ScopedAResourceIP7AParcelvXadL_Z14AParcel_deleteEELS3_0EEE",
   "size" : 8,
   "source_file" : "/frameworks/native/libs/binder/ndk/include_ndk/android/binder_auto_utils.h"
  },
  {
   "alignment" : 8,
   "linker_set_key" : "_ZTIPN3ndk4impl15ScopedAResourceIP7AStatusvXadL_Z14AStatus_deleteEELS3_0EEE",
   "name" : "ndk::impl::ScopedAResource<AStatus *, void, &AStatus_delete, nullptr> *",
   "referenced_type" : "_ZTIN3ndk4impl15ScopedAResourceIP7AStatusvXadL_Z14AStatus_deleteEELS3_0EEE",
   "self_type" : "_ZTIPN3ndk4impl15ScopedAResourceIP7AStatusvXadL_Z14AStatus_deleteEELS3_0EEE",
   "size" : 8,
   "source_file" : "/frameworks/native/libs/binder/ndk/include_ndk/android/binder_auto_utils.h"
  },
  {
   "alignment" : 8,
   "linker_set_key" : "_ZTIPN3ndk4impl15ScopedAResourceIiiXadL_Z5closeEELin1EEE",
   "name" : "ndk::impl::ScopedAResource<int, int, &close, -1> *",
   "referenced_type" : "_ZTIN3ndk4impl15ScopedAResourceIiiXadL_Z5closeEELin1EEE",
   "self_type" : "_ZTIPN3ndk4impl15ScopedAResourceIiiXadL_Z5closeEELin1EEE",
   "size" : 8,
   "source_file" : "/frameworks/native/libs/binder/ndk/include_ndk/android/binder_auto_utils.h"
  },
  {
   "alignment" : 8,
   "linker_set_key" : "_ZTIPN4aidl7android8hardware8identity11CertificateE",
   "name" : "aidl::android::hardware::identity::Certificate *",
   "referenced_type" : "_ZTIN4aidl7android8hardware8identity11CertificateE",
   "self_type" : "_ZTIPN4aidl7android8hardware8identity11CertificateE",
   "size" : 8,
   "source_file" : "/out/soong/.intermediates/hardware/interfaces/identity/aidl/android.hardware.identity-ndk_platform-source/gen/include/aidl/android/hardware/identity/Certificate.h"
  },
  {
   "alignment" : 8,
   "linker_set_key" : "_ZTIPN4aidl7android8hardware8identity15RequestDataItemE",
   "name" : "aidl::android::hardware::identity::RequestDataItem *",
   "referenced_type" : "_ZTIN4aidl7android8hardware8identity15RequestDataItemE",
   "self_type" : "_ZTIPN4aidl7android8hardware8identity15RequestDataItemE",
   "size" : 8,
   "source_file" : "/out/soong/.intermediates/hardware/interfaces/identity/aidl/android.hardware.identity-ndk_platform-source/gen/include/aidl/android/hardware/identity/RequestDataItem.h"
  },
  {
   "alignment" : 8,
   "linker_set_key" : "_ZTIPN4aidl7android8hardware8identity16RequestNamespaceE",
   "name" : "aidl::android::hardware::identity::RequestNamespace *",
   "referenced_type" : "_ZTIN4aidl7android8hardware8identity16RequestNamespaceE",
   "self_type" : "_ZTIPN4aidl7android8hardware8identity16RequestNamespaceE",
   "size" : 8,
   "source_file" : "/out/soong/.intermediates/hardware/interfaces/identity/aidl/android.hardware.identity-ndk_platform-source/gen/include/aidl/android/hardware/identity/RequestNamespace.h"
  },
  {
   "alignment" : 8,
   "linker_set_key" : "_ZTIPN4aidl7android8hardware8identity19HardwareInformationE",
   "name" : "aidl::android::hardware::identity::HardwareInformation *",
   "referenced_type" : "_ZTIN4aidl7android8hardware8identity19HardwareInformationE",
   "self_type" : "_ZTIPN4aidl7android8hardware8identity19HardwareInformationE",
   "size" : 8,
   "source_file" : "/out/soong/.intermediates/hardware/interfaces/identity/aidl/android.hardware.identity-ndk_platform-source/gen/include/aidl/android/hardware/identity/HardwareInformation.h"
  },
  {
   "alignment" : 8,
   "linker_set_key" : "_ZTIPN4aidl7android8hardware8identity19IIdentityCredentialE",
   "name" : "aidl::android::hardware::identity::IIdentityCredential *",
   "referenced_type" : "_ZTIN4aidl7android8hardware8identity19IIdentityCredentialE",
   "self_type" : "_ZTIPN4aidl7android8hardware8identity19IIdentityCredentialE",
   "size" : 8,
   "source_file" : "/out/soong/.intermediates/hardware/interfaces/identity/aidl/android.hardware.identity-ndk_platform-source/gen/include/aidl/android/hardware/identity/IIdentityCredential.h"
  },
  {
   "alignment" : 8,
   "linker_set_key" : "_ZTIPN4aidl7android8hardware8identity20BnIdentityCredentialE",
   "name" : "aidl::android::hardware::identity::BnIdentityCredential *",
   "referenced_type" : "_ZTIN4aidl7android8hardware8identity20BnIdentityCredentialE",
   "self_type" : "_ZTIPN4aidl7android8hardware8identity20BnIdentityCredentialE",
   "size" : 8,
   "source_file" : "/out/soong/.intermediates/hardware/interfaces/identity/aidl/android.hardware.identity-ndk_platform-source/gen/include/aidl/android/hardware/identity/BnIdentityCredential.h"
  },
  {
   "alignment" : 8,
   "linker_set_key" : "_ZTIPN4aidl7android8hardware8identity20BpIdentityCredentialE",
   "name" : "aidl::android::hardware::identity::BpIdentityCredential *",
   "referenced_type" : "_ZTIN4aidl7android8hardware8identity20BpIdentityCredentialE",
   "self_type" : "_ZTIPN4aidl7android8hardware8identity20BpIdentityCredentialE",
   "size" : 8,
   "source_file" : "/out/soong/.intermediates/hardware/interfaces/identity/aidl/android.hardware.identity-ndk_platform-source/gen/include/aidl/android/hardware/identity/BpIdentityCredential.h"
  },
  {
   "alignment" : 8,
   "linker_set_key" : "_ZTIPN4aidl7android8hardware8identity24IIdentityCredentialStoreE",
   "name" : "aidl::android::hardware::identity::IIdentityCredentialStore *",
   "referenced_type" : "_ZTIN4aidl7android8hardware8identity24IIdentityCredentialStoreE",
   "self_type" : "_ZTIPN4aidl7android8hardware8identity24IIdentityCredentialStoreE",
   "size" : 8,
   "source_file" : "/out/soong/.intermediates/hardware/interfaces/identity/aidl/android.hardware.identity-ndk_platform-source/gen/include/aidl/android/hardware/identity/IIdentityCredentialStore.h"
  },
  {
   "alignment" : 8,
   "linker_set_key" : "_ZTIPN4aidl7android8hardware8identity25BnIdentityCredentialStoreE",
   "name" : "aidl::android::hardware::identity::BnIdentityCredentialStore *",
   "referenced_type" : "_ZTIN4aidl7android8hardware8identity25BnIdentityCredentialStoreE",
   "self_type" : "_ZTIPN4aidl7android8hardware8identity25BnIdentityCredentialStoreE",
   "size" : 8,
   "source_file" : "/out/soong/.intermediates/hardware/interfaces/identity/aidl/android.hardware.identity-ndk_platform-source/gen/include/aidl/android/hardware/identity/BnIdentityCredentialStore.h"
  },
  {
   "alignment" : 8,
   "linker_set_key" : "_ZTIPN4aidl7android8hardware8identity25BpIdentityCredentialStoreE",
   "name" : "aidl::android::hardware::identity::BpIdentityCredentialStore *",
   "referenced_type" : "_ZTIN4aidl7android8hardware8identity25BpIdentityCredentialStoreE",
   "self_type" : "_ZTIPN4aidl7android8hardware8identity25BpIdentityCredentialStoreE",
   "size" : 8,
   "source_file" : "/out/soong/.intermediates/hardware/interfaces/identity/aidl/android.hardware.identity-ndk_platform-source/gen/include/aidl/android/hardware/identity/BpIdentityCredentialStore.h"
  },
  {
   "alignment" : 8,
   "linker_set_key" : "_ZTIPN4aidl7android8hardware8identity26IIdentityCredentialDefaultE",
   "name" : "aidl::android::hardware::identity::IIdentityCredentialDefault *",
   "referenced_type" : "_ZTIN4aidl7android8hardware8identity26IIdentityCredentialDefaultE",
   "self_type" : "_ZTIPN4aidl7android8hardware8identity26IIdentityCredentialDefaultE",
   "size" : 8,
   "source_file" : "/out/soong/.intermediates/hardware/interfaces/identity/aidl/android.hardware.identity-ndk_platform-source/gen/include/aidl/android/hardware/identity/IIdentityCredential.h"
  },
  {
   "alignment" : 8,
   "linker_set_key" : "_ZTIPN4aidl7android8hardware8identity26SecureAccessControlProfileE",
   "name" : "aidl::android::hardware::identity::SecureAccessControlProfile *",
   "referenced_type" : "_ZTIN4aidl7android8hardware8identity26SecureAccessControlProfileE",
   "self_type" : "_ZTIPN4aidl7android8hardware8identity26SecureAccessControlProfileE",
   "size" : 8,
   "source_file" : "/out/soong/.intermediates/hardware/interfaces/identity/aidl/android.hardware.identity-ndk_platform-source/gen/include/aidl/android/hardware/identity/IWritableIdentityCredential.h"
  },
  {
   "alignment" : 8,
   "linker_set_key" : "_ZTIPN4aidl7android8hardware8identity27IWritableIdentityCredentialE",
   "name" : "aidl::android::hardware::identity::IWritableIdentityCredential *",
   "referenced_type" : "_ZTIN4aidl7android8hardware8identity27IWritableIdentityCredentialE",
   "self_type" : "_ZTIPN4aidl7android8hardware8identity27IWritableIdentityCredentialE",
   "size" : 8,
   "source_file" : "/out/soong/.intermediates/hardware/interfaces/identity/aidl/android.hardware.identity-ndk_platform-source/gen/include/aidl/android/hardware/identity/IWritableIdentityCredential.h"
  },
  {
   "alignment" : 8,
   "linker_set_key" : "_ZTIPN4aidl7android8hardware8identity28BnWritableIdentityCredentialE",
   "name" : "aidl::android::hardware::identity::BnWritableIdentityCredential *",
   "referenced_type" : "_ZTIN4aidl7android8hardware8identity28BnWritableIdentityCredentialE",
   "self_type" : "_ZTIPN4aidl7android8hardware8identity28BnWritableIdentityCredentialE",
   "size" : 8,
   "source_file" : "/out/soong/.intermediates/hardware/interfaces/identity/aidl/android.hardware.identity-ndk_platform-source/gen/include/aidl/android/hardware/identity/BnWritableIdentityCredential.h"
  },
  {
   "alignment" : 8,
   "linker_set_key" : "_ZTIPN4aidl7android8hardware8identity28BpWritableIdentityCredentialE",
   "name" : "aidl::android::hardware::identity::BpWritableIdentityCredential *",
   "referenced_type" : "_ZTIN4aidl7android8hardware8identity28BpWritableIdentityCredentialE",
   "self_type" : "_ZTIPN4aidl7android8hardware8identity28BpWritableIdentityCredentialE",
   "size" : 8,
   "source_file" : "/out/soong/.intermediates/hardware/interfaces/identity/aidl/android.hardware.identity-ndk_platform-source/gen/include/aidl/android/hardware/identity/BpWritableIdentityCredential.h"
  },
  {
   "alignment" : 8,
   "linker_set_key" : "_ZTIPN4aidl7android8hardware8identity31IIdentityCredentialStoreDefaultE",
   "name" : "aidl::android::hardware::identity::IIdentityCredentialStoreDefault *",
   "referenced_type" : "_ZTIN4aidl7android8hardware8identity31IIdentityCredentialStoreDefaultE",
   "self_type" : "_ZTIPN4aidl7android8hardware8identity31IIdentityCredentialStoreDefaultE",
   "size" : 8,
   "source_file" : "/out/soong/.intermediates/hardware/interfaces/identity/aidl/android.hardware.identity-ndk_platform-source/gen/include/aidl/android/hardware/identity/IIdentityCredentialStore.h"
  },
  {
   "alignment" : 8,
   "linker_set_key" : "_ZTIPN4aidl7android8hardware8identity34IWritableIdentityCredentialDefaultE",
   "name" : "aidl::android::hardware::identity::IWritableIdentityCredentialDefault *",
   "referenced_type" : "_ZTIN4aidl7android8hardware8identity34IWritableIdentityCredentialDefaultE",
   "self_type" : "_ZTIPN4aidl7android8hardware8identity34IWritableIdentityCredentialDefaultE",
   "size" : 8,
   "source_file" : "/out/soong/.intermediates/hardware/interfaces/identity/aidl/android.hardware.identity-ndk_platform-source/gen/include/aidl/android/hardware/identity/IWritableIdentityCredential.h"
  },
  {
   "alignment" : 8,
   "linker_set_key" : "_ZTIPNSt3__110shared_ptrIN4aidl7android8hardware8identity19IIdentityCredentialEEE",
   "name" : "std::shared_ptr<aidl::android::hardware::identity::IIdentityCredential> *",
   "referenced_type" : "_ZTINSt3__110shared_ptrIN4aidl7android8hardware8identity19IIdentityCredentialEEE",
   "self_type" : "_ZTIPNSt3__110shared_ptrIN4aidl7android8hardware8identity19IIdentityCredentialEEE",
   "size" : 8,
   "source_file" : "/out/soong/.intermediates/hardware/interfaces/identity/aidl/android.hardware.identity-ndk_platform-source/gen/include/aidl/android/hardware/identity/IIdentityCredential.h"
  },
  {
   "alignment" : 8,
   "linker_set_key" : "_ZTIPNSt3__110shared_ptrIN4aidl7android8hardware8identity24IIdentityCredentialStoreEEE",
   "name" : "std::shared_ptr<aidl::android::hardware::identity::IIdentityCredentialStore> *",
   "referenced_type" : "_ZTINSt3__110shared_ptrIN4aidl7android8hardware8identity24IIdentityCredentialStoreEEE",
   "self_type" : "_ZTIPNSt3__110shared_ptrIN4aidl7android8hardware8identity24IIdentityCredentialStoreEEE",
   "size" : 8,
   "source_file" : "/out/soong/.intermediates/hardware/interfaces/identity/aidl/android.hardware.identity-ndk_platform-source/gen/include/aidl/android/hardware/identity/IIdentityCredentialStore.h"
  },
  {
   "alignment" : 8,
   "linker_set_key" : "_ZTIPNSt3__110shared_ptrIN4aidl7android8hardware8identity27IWritableIdentityCredentialEEE",
   "name" : "std::shared_ptr<aidl::android::hardware::identity::IWritableIdentityCredential> *",
   "referenced_type" : "_ZTINSt3__110shared_ptrIN4aidl7android8hardware8identity27IWritableIdentityCredentialEEE",
   "self_type" : "_ZTIPNSt3__110shared_ptrIN4aidl7android8hardware8identity27IWritableIdentityCredentialEEE",
   "size" : 8,
   "source_file" : "/out/soong/.intermediates/hardware/interfaces/identity/aidl/android.hardware.identity-ndk_platform-source/gen/include/aidl/android/hardware/identity/IIdentityCredentialStore.h"
  },
  {
   "alignment" : 8,
   "linker_set_key" : "_ZTIPNSt3__112basic_stringIcNS_11char_traitsIcEENS_9allocatorIcEEEE",
   "name" : "std::basic_string<char, std::char_traits<char>, std::allocator<char> > *",
   "referenced_type" : "_ZTINSt3__112basic_stringIcNS_11char_traitsIcEENS_9allocatorIcEEEE",
   "self_type" : "_ZTIPNSt3__112basic_stringIcNS_11char_traitsIcEENS_9allocatorIcEEEE",
   "size" : 8,
   "source_file" : "/out/soong/.intermediates/hardware/interfaces/identity/aidl/android.hardware.identity-ndk_platform-source/gen/include/aidl/android/hardware/identity/IIdentityCredential.h"
  },
  {
   "alignment" : 8,
   "linker_set_key" : "_ZTIPNSt3__16vectorIDsNS_9allocatorIDsEEEE",
   "name" : "std::vector<char16_t, std::allocator<char16_t> > *",
   "referenced_type" : "_ZTINSt3__16vectorIDsNS_9allocatorIDsEEEE",
   "self_type" : "_ZTIPNSt3__16vectorIDsNS_9allocatorIDsEEEE",
   "size" : 8,
   "source_file" : "/frameworks/native/libs/binder/ndk/include_ndk/android/binder_parcel_utils.h"
  },
  {
   "alignment" : 8,
   "linker_set_key" : "_ZTIPNSt3__16vectorIN4aidl7android8hardware8identity11CertificateENS_9allocatorIS5_EEEE",
   "name" : "std::vector<aidl::android::hardware::identity::Certificate, std::allocator<aidl::android::hardware::identity::Certificate> > *",
   "referenced_type" : "_ZTINSt3__16vectorIN4aidl7android8hardware8identity11CertificateENS_9allocatorIS5_EEEE",
   "self_type" : "_ZTIPNSt3__16vectorIN4aidl7android8hardware8identity11CertificateENS_9allocatorIS5_EEEE",
   "size" : 8,
   "source_file" : "/out/soong/.intermediates/hardware/interfaces/identity/aidl/android.hardware.identity-ndk_platform-source/gen/include/aidl/android/hardware/identity/IWritableIdentityCredential.h"
  },
  {
   "alignment" : 8,
   "linker_set_key" : "_ZTIPNSt3__16vectorIaNS_9allocatorIaEEEE",
   "name" : "std::vector<signed char, std::allocator<signed char> > *",
   "referenced_type" : "_ZTINSt3__16vectorIaNS_9allocatorIaEEEE",
   "self_type" : "_ZTIPNSt3__16vectorIaNS_9allocatorIaEEEE",
   "size" : 8,
   "source_file" : "/frameworks/native/libs/binder/ndk/include_ndk/android/binder_parcel_utils.h"
  },
  {
   "alignment" : 8,
   "linker_set_key" : "_ZTIPNSt3__16vectorIbNS_9allocatorIbEEEE",
   "name" : "std::vector<bool, std::allocator<bool> > *",
   "referenced_type" : "_ZTINSt3__16vectorIbNS_9allocatorIbEEEE",
   "self_type" : "_ZTIPNSt3__16vectorIbNS_9allocatorIbEEEE",
   "size" : 8,
   "source_file" : "/frameworks/native/libs/binder/ndk/include_ndk/android/binder_parcel_utils.h"
  },
  {
   "alignment" : 8,
   "linker_set_key" : "_ZTIPNSt3__16vectorIdNS_9allocatorIdEEEE",
   "name" : "std::vector<double, std::allocator<double> > *",
   "referenced_type" : "_ZTINSt3__16vectorIdNS_9allocatorIdEEEE",
   "self_type" : "_ZTIPNSt3__16vectorIdNS_9allocatorIdEEEE",
   "size" : 8,
   "source_file" : "/frameworks/native/libs/binder/ndk/include_ndk/android/binder_parcel_utils.h"
  },
  {
   "alignment" : 8,
   "linker_set_key" : "_ZTIPNSt3__16vectorIfNS_9allocatorIfEEEE",
   "name" : "std::vector<float, std::allocator<float> > *",
   "referenced_type" : "_ZTINSt3__16vectorIfNS_9allocatorIfEEEE",
   "self_type" : "_ZTIPNSt3__16vectorIfNS_9allocatorIfEEEE",
   "size" : 8,
   "source_file" : "/frameworks/native/libs/binder/ndk/include_ndk/android/binder_parcel_utils.h"
  },
  {
   "alignment" : 8,
   "linker_set_key" : "_ZTIPNSt3__16vectorIiNS_9allocatorIiEEEE",
   "name" : "std::vector<int, std::allocator<int> > *",
   "referenced_type" : "_ZTINSt3__16vectorIiNS_9allocatorIiEEEE",
   "self_type" : "_ZTIPNSt3__16vectorIiNS_9allocatorIiEEEE",
   "size" : 8,
   "source_file" : "/frameworks/native/libs/binder/ndk/include_ndk/android/binder_parcel_utils.h"
  },
  {
   "alignment" : 8,
   "linker_set_key" : "_ZTIPNSt3__16vectorIjNS_9allocatorIjEEEE",
   "name" : "std::vector<unsigned int, std::allocator<unsigned int> > *",
   "referenced_type" : "_ZTINSt3__16vectorIjNS_9allocatorIjEEEE",
   "self_type" : "_ZTIPNSt3__16vectorIjNS_9allocatorIjEEEE",
   "size" : 8,
   "source_file" : "/frameworks/native/libs/binder/ndk/include_ndk/android/binder_parcel_utils.h"
  },
  {
   "alignment" : 8,
   "linker_set_key" : "_ZTIPNSt3__16vectorIlNS_9allocatorIlEEEE",
   "name" : "std::vector<long, std::allocator<long> > *",
   "referenced_type" : "_ZTINSt3__16vectorIlNS_9allocatorIlEEEE",
   "self_type" : "_ZTIPNSt3__16vectorIlNS_9allocatorIlEEEE",
   "size" : 8,
   "source_file" : "/frameworks/native/libs/binder/ndk/include_ndk/android/binder_parcel_utils.h"
  },
  {
   "alignment" : 8,
   "linker_set_key" : "_ZTIPNSt3__16vectorImNS_9allocatorImEEEE",
   "name" : "std::vector<unsigned long, std::allocator<unsigned long> > *",
   "referenced_type" : "_ZTINSt3__16vectorImNS_9allocatorImEEEE",
   "self_type" : "_ZTIPNSt3__16vectorImNS_9allocatorImEEEE",
   "size" : 8,
   "source_file" : "/frameworks/native/libs/binder/ndk/include_ndk/android/binder_parcel_utils.h"
  },
  {
   "alignment" : 8,
   "linker_set_key" : "_ZTIPNSt3__18optionalINS_6vectorIDsNS_9allocatorIDsEEEEEE",
   "name" : "std::optional<std::vector<char16_t, std::allocator<char16_t> > > *",
   "referenced_type" : "_ZTINSt3__18optionalINS_6vectorIDsNS_9allocatorIDsEEEEEE",
   "self_type" : "_ZTIPNSt3__18optionalINS_6vectorIDsNS_9allocatorIDsEEEEEE",
   "size" : 8,
   "source_file" : "/frameworks/native/libs/binder/ndk/include_ndk/android/binder_parcel_utils.h"
  },
  {
   "alignment" : 8,
   "linker_set_key" : "_ZTIPNSt3__18optionalINS_6vectorIaNS_9allocatorIaEEEEEE",
   "name" : "std::optional<std::vector<signed char, std::allocator<signed char> > > *",
   "referenced_type" : "_ZTINSt3__18optionalINS_6vectorIaNS_9allocatorIaEEEEEE",
   "self_type" : "_ZTIPNSt3__18optionalINS_6vectorIaNS_9allocatorIaEEEEEE",
   "size" : 8,
   "source_file" : "/frameworks/native/libs/binder/ndk/include_ndk/android/binder_parcel_utils.h"
  },
  {
   "alignment" : 8,
   "linker_set_key" : "_ZTIPNSt3__18optionalINS_6vectorIbNS_9allocatorIbEEEEEE",
   "name" : "std::optional<std::vector<bool, std::allocator<bool> > > *",
   "referenced_type" : "_ZTINSt3__18optionalINS_6vectorIbNS_9allocatorIbEEEEEE",
   "self_type" : "_ZTIPNSt3__18optionalINS_6vectorIbNS_9allocatorIbEEEEEE",
   "size" : 8,
   "source_file" : "/frameworks/native/libs/binder/ndk/include_ndk/android/binder_parcel_utils.h"
  },
  {
   "alignment" : 8,
   "linker_set_key" : "_ZTIPNSt3__18optionalINS_6vectorIdNS_9allocatorIdEEEEEE",
   "name" : "std::optional<std::vector<double, std::allocator<double> > > *",
   "referenced_type" : "_ZTINSt3__18optionalINS_6vectorIdNS_9allocatorIdEEEEEE",
   "self_type" : "_ZTIPNSt3__18optionalINS_6vectorIdNS_9allocatorIdEEEEEE",
   "size" : 8,
   "source_file" : "/frameworks/native/libs/binder/ndk/include_ndk/android/binder_parcel_utils.h"
  },
  {
   "alignment" : 8,
   "linker_set_key" : "_ZTIPNSt3__18optionalINS_6vectorIfNS_9allocatorIfEEEEEE",
   "name" : "std::optional<std::vector<float, std::allocator<float> > > *",
   "referenced_type" : "_ZTINSt3__18optionalINS_6vectorIfNS_9allocatorIfEEEEEE",
   "self_type" : "_ZTIPNSt3__18optionalINS_6vectorIfNS_9allocatorIfEEEEEE",
   "size" : 8,
   "source_file" : "/frameworks/native/libs/binder/ndk/include_ndk/android/binder_parcel_utils.h"
  },
  {
   "alignment" : 8,
   "linker_set_key" : "_ZTIPNSt3__18optionalINS_6vectorIiNS_9allocatorIiEEEEEE",
   "name" : "std::optional<std::vector<int, std::allocator<int> > > *",
   "referenced_type" : "_ZTINSt3__18optionalINS_6vectorIiNS_9allocatorIiEEEEEE",
   "self_type" : "_ZTIPNSt3__18optionalINS_6vectorIiNS_9allocatorIiEEEEEE",
   "size" : 8,
   "source_file" : "/frameworks/native/libs/binder/ndk/include_ndk/android/binder_parcel_utils.h"
  },
  {
   "alignment" : 8,
   "linker_set_key" : "_ZTIPNSt3__18optionalINS_6vectorIjNS_9allocatorIjEEEEEE",
   "name" : "std::optional<std::vector<unsigned int, std::allocator<unsigned int> > > *",
   "referenced_type" : "_ZTINSt3__18optionalINS_6vectorIjNS_9allocatorIjEEEEEE",
   "self_type" : "_ZTIPNSt3__18optionalINS_6vectorIjNS_9allocatorIjEEEEEE",
   "size" : 8,
   "source_file" : "/frameworks/native/libs/binder/ndk/include_ndk/android/binder_parcel_utils.h"
  },
  {
   "alignment" : 8,
   "linker_set_key" : "_ZTIPNSt3__18optionalINS_6vectorIlNS_9allocatorIlEEEEEE",
   "name" : "std::optional<std::vector<long, std::allocator<long> > > *",
   "referenced_type" : "_ZTINSt3__18optionalINS_6vectorIlNS_9allocatorIlEEEEEE",
   "self_type" : "_ZTIPNSt3__18optionalINS_6vectorIlNS_9allocatorIlEEEEEE",
   "size" : 8,
   "source_file" : "/frameworks/native/libs/binder/ndk/include_ndk/android/binder_parcel_utils.h"
  },
  {
   "alignment" : 8,
   "linker_set_key" : "_ZTIPNSt3__18optionalINS_6vectorImNS_9allocatorImEEEEEE",
   "name" : "std::optional<std::vector<unsigned long, std::allocator<unsigned long> > > *",
   "referenced_type" : "_ZTINSt3__18optionalINS_6vectorImNS_9allocatorImEEEEEE",
   "self_type" : "_ZTIPNSt3__18optionalINS_6vectorImNS_9allocatorImEEEEEE",
   "size" : 8,
   "source_file" : "/frameworks/native/libs/binder/ndk/include_ndk/android/binder_parcel_utils.h"
  },
  {
   "alignment" : 8,
   "linker_set_key" : "_ZTIPP7AParcel",
   "name" : "AParcel **",
   "referenced_type" : "_ZTIP7AParcel",
   "self_type" : "_ZTIPP7AParcel",
   "size" : 8,
   "source_file" : "/frameworks/native/libs/binder/ndk/include_ndk/android/binder_auto_utils.h"
  },
  {
   "alignment" : 8,
   "linker_set_key" : "_ZTIPP7AStatus",
   "name" : "AStatus **",
   "referenced_type" : "_ZTIP7AStatus",
   "self_type" : "_ZTIPP7AStatus",
   "size" : 8,
   "source_file" : "/frameworks/native/libs/binder/ndk/include_ndk/android/binder_auto_utils.h"
  },
  {
   "alignment" : 8,
   "linker_set_key" : "_ZTIPP8AIBinder",
   "name" : "AIBinder **",
   "referenced_type" : "_ZTIP8AIBinder",
   "self_type" : "_ZTIPP8AIBinder",
   "size" : 8,
   "source_file" : "/frameworks/native/libs/binder/ndk/include_ndk/android/binder_auto_utils.h"
  },
  {
   "alignment" : 8,
   "linker_set_key" : "_ZTIPPKc",
   "name" : "const char **",
   "referenced_type" : "_ZTIPKc",
   "self_type" : "_ZTIPPKc",
   "size" : 8,
   "source_file" : "/frameworks/native/libs/binder/ndk/include_ndk/android/binder_interface_utils.h"
  },
  {
   "alignment" : 8,
   "linker_set_key" : "_ZTIPi",
   "name" : "int *",
   "referenced_type" : "_ZTIi",
   "self_type" : "_ZTIPi",
   "size" : 8,
   "source_file" : "/out/soong/.intermediates/hardware/interfaces/identity/aidl/android.hardware.identity-ndk_platform-source/gen/include/aidl/android/hardware/identity/IIdentityCredential.h"
  },
  {
   "alignment" : 8,
   "linker_set_key" : "_ZTIPl",
   "name" : "long *",
   "referenced_type" : "_ZTIl",
   "self_type" : "_ZTIPl",
   "size" : 8,
   "source_file" : "/out/soong/.intermediates/hardware/interfaces/identity/aidl/android.hardware.identity-ndk_platform-source/gen/include/aidl/android/hardware/identity/IIdentityCredential.h"
  },
  {
   "alignment" : 8,
   "linker_set_key" : "_ZTIPv",
   "name" : "void *",
   "referenced_type" : "_ZTIv",
   "self_type" : "_ZTIPv",
   "size" : 8,
   "source_file" : "/frameworks/native/libs/binder/ndk/include_ndk/android/binder_interface_utils.h"
  }
 ],
 "qualified_types" :
 [
  {
   "is_const" : true,
   "linker_set_key" : "_ZTIK7AParcel",
   "name" : "const AParcel",
   "referenced_type" : "_ZTI7AParcel",
   "self_type" : "_ZTIK7AParcel",
   "source_file" : "/frameworks/native/libs/binder/ndk/include_ndk/android/binder_interface_utils.h"
  },
  {
   "alignment" : 8,
   "is_const" : true,
   "linker_set_key" : "_ZTIKN3ndk10SpAIBinderE",
   "name" : "const ndk::SpAIBinder",
   "referenced_type" : "_ZTIN3ndk10SpAIBinderE",
   "self_type" : "_ZTIKN3ndk10SpAIBinderE",
   "size" : 8,
   "source_file" : "/frameworks/native/libs/binder/ndk/include_ndk/android/binder_auto_utils.h"
  },
  {
   "alignment" : 8,
   "is_const" : true,
   "linker_set_key" : "_ZTIKN3ndk13ScopedAStatusE",
   "name" : "const ndk::ScopedAStatus",
   "referenced_type" : "_ZTIN3ndk13ScopedAStatusE",
   "self_type" : "_ZTIKN3ndk13ScopedAStatusE",
   "size" : 8,
   "source_file" : "/frameworks/native/libs/binder/ndk/include_ndk/android/binder_auto_utils.h"
  },
  {
   "alignment" : 8,
   "is_const" : true,
   "linker_set_key" : "_ZTIKN3ndk4impl15ScopedAResourceIP7AStatusvXadL_Z14AStatus_deleteEELS3_0EEE",
   "name" : "const ndk::impl::ScopedAResource<AStatus *, void, &AStatus_delete, nullptr>",
   "referenced_type" : "_ZTIN3ndk4impl15ScopedAResourceIP7AStatusvXadL_Z14AStatus_deleteEELS3_0EEE",
   "self_type" : "_ZTIKN3ndk4impl15ScopedAResourceIP7AStatusvXadL_Z14AStatus_deleteEELS3_0EEE",
   "size" : 8,
   "source_file" : "/frameworks/native/libs/binder/ndk/include_ndk/android/binder_auto_utils.h"
  },
  {
   "alignment" : 4,
   "is_const" : true,
   "linker_set_key" : "_ZTIKN3ndk4impl15ScopedAResourceIiiXadL_Z5closeEELin1EEE",
   "name" : "const ndk::impl::ScopedAResource<int, int, &close, -1>",
   "referenced_type" : "_ZTIN3ndk4impl15ScopedAResourceIiiXadL_Z5closeEELin1EEE",
   "self_type" : "_ZTIKN3ndk4impl15ScopedAResourceIiiXadL_Z5closeEELin1EEE",
   "size" : 4,
   "source_file" : "/frameworks/native/libs/binder/ndk/include_ndk/android/binder_auto_utils.h"
  },
  {
   "alignment" : 8,
   "is_const" : true,
   "linker_set_key" : "_ZTIKN4aidl7android8hardware8identity11CertificateE",
   "name" : "const aidl::android::hardware::identity::Certificate",
   "referenced_type" : "_ZTIN4aidl7android8hardware8identity11CertificateE",
   "self_type" : "_ZTIKN4aidl7android8hardware8identity11CertificateE",
   "size" : 24,
   "source_file" : "/out/soong/.intermediates/hardware/interfaces/identity/aidl/android.hardware.identity-ndk_platform-source/gen/include/aidl/android/hardware/identity/Certificate.h"
  },
  {
   "alignment" : 8,
   "is_const" : true,
   "linker_set_key" : "_ZTIKN4aidl7android8hardware8identity15RequestDataItemE",
   "name" : "const aidl::android::hardware::identity::RequestDataItem",
   "referenced_type" : "_ZTIN4aidl7android8hardware8identity15RequestDataItemE",
   "self_type" : "_ZTIKN4aidl7android8hardware8identity15RequestDataItemE",
   "size" : 56,
   "source_file" : "/out/soong/.intermediates/hardware/interfaces/identity/aidl/android.hardware.identity-ndk_platform-source/gen/include/aidl/android/hardware/identity/RequestDataItem.h"
  },
  {
   "alignment" : 8,
   "is_const" : true,
   "linker_set_key" : "_ZTIKN4aidl7android8hardware8identity16RequestNamespaceE",
   "name" : "const aidl::android::hardware::identity::RequestNamespace",
   "referenced_type" : "_ZTIN4aidl7android8hardware8identity16RequestNamespaceE",
   "self_type" : "_ZTIKN4aidl7android8hardware8identity16RequestNamespaceE",
   "size" : 48,
   "source_file" : "/out/soong/.intermediates/hardware/interfaces/identity/aidl/android.hardware.identity-ndk_platform-source/gen/include/aidl/android/hardware/identity/RequestNamespace.h"
  },
  {
   "alignment" : 8,
   "is_const" : true,
   "linker_set_key" : "_ZTIKN4aidl7android8hardware8identity19HardwareInformationE",
   "name" : "const aidl::android::hardware::identity::HardwareInformation",
   "referenced_type" : "_ZTIN4aidl7android8hardware8identity19HardwareInformationE",
   "self_type" : "_ZTIKN4aidl7android8hardware8identity19HardwareInformationE",
   "size" : 80,
   "source_file" : "/out/soong/.intermediates/hardware/interfaces/identity/aidl/android.hardware.identity-ndk_platform-source/gen/include/aidl/android/hardware/identity/HardwareInformation.h"
  },
  {
   "alignment" : 8,
   "is_const" : true,
   "linker_set_key" : "_ZTIKN4aidl7android8hardware8identity26SecureAccessControlProfileE",
   "name" : "const aidl::android::hardware::identity::SecureAccessControlProfile",
   "referenced_type" : "_ZTIN4aidl7android8hardware8identity26SecureAccessControlProfileE",
   "self_type" : "_ZTIKN4aidl7android8hardware8identity26SecureAccessControlProfileE",
   "size" : 80,
   "source_file" : "/out/soong/.intermediates/hardware/interfaces/identity/aidl/android.hardware.identity-ndk_platform-source/gen/include/aidl/android/hardware/identity/SecureAccessControlProfile.h"
  },
  {
   "alignment" : 8,
   "is_const" : true,
   "linker_set_key" : "_ZTIKN4aidl7android8hardware9keymaster17HardwareAuthTokenE",
   "name" : "const aidl::android::hardware::keymaster::HardwareAuthToken",
   "referenced_type" : "_ZTIN4aidl7android8hardware9keymaster17HardwareAuthTokenE",
   "self_type" : "_ZTIKN4aidl7android8hardware9keymaster17HardwareAuthTokenE",
   "size" : 64,
   "source_file" : "/out/soong/.intermediates/hardware/interfaces/identity/aidl/android.hardware.identity-ndk_platform-source/gen/include/aidl/android/hardware/identity/IIdentityCredential.h"
  },
  {
   "alignment" : 8,
   "is_const" : true,
   "linker_set_key" : "_ZTIKN4aidl7android8hardware9keymaster17VerificationTokenE",
   "name" : "const aidl::android::hardware::keymaster::VerificationToken",
   "referenced_type" : "_ZTIN4aidl7android8hardware9keymaster17VerificationTokenE",
   "self_type" : "_ZTIKN4aidl7android8hardware9keymaster17VerificationTokenE",
   "size" : 48,
   "source_file" : "/out/soong/.intermediates/hardware/interfaces/identity/aidl/android.hardware.identity-ndk_platform-source/gen/include/aidl/android/hardware/identity/IIdentityCredential.h"
  },
  {
   "alignment" : 8,
   "is_const" : true,
   "linker_set_key" : "_ZTIKNSt3__110shared_ptrIN4aidl7android8hardware8identity19IIdentityCredentialEEE",
   "name" : "const std::shared_ptr<aidl::android::hardware::identity::IIdentityCredential>",
   "referenced_type" : "_ZTINSt3__110shared_ptrIN4aidl7android8hardware8identity19IIdentityCredentialEEE",
   "self_type" : "_ZTIKNSt3__110shared_ptrIN4aidl7android8hardware8identity19IIdentityCredentialEEE",
   "size" : 16,
   "source_file" : "/out/soong/.intermediates/hardware/interfaces/identity/aidl/android.hardware.identity-ndk_platform-source/gen/include/aidl/android/hardware/identity/IIdentityCredential.h"
  },
  {
   "alignment" : 8,
   "is_const" : true,
   "linker_set_key" : "_ZTIKNSt3__110shared_ptrIN4aidl7android8hardware8identity24IIdentityCredentialStoreEEE",
   "name" : "const std::shared_ptr<aidl::android::hardware::identity::IIdentityCredentialStore>",
   "referenced_type" : "_ZTINSt3__110shared_ptrIN4aidl7android8hardware8identity24IIdentityCredentialStoreEEE",
   "self_type" : "_ZTIKNSt3__110shared_ptrIN4aidl7android8hardware8identity24IIdentityCredentialStoreEEE",
   "size" : 16,
   "source_file" : "/out/soong/.intermediates/hardware/interfaces/identity/aidl/android.hardware.identity-ndk_platform-source/gen/include/aidl/android/hardware/identity/IIdentityCredentialStore.h"
  },
  {
   "alignment" : 8,
   "is_const" : true,
   "linker_set_key" : "_ZTIKNSt3__110shared_ptrIN4aidl7android8hardware8identity27IWritableIdentityCredentialEEE",
   "name" : "const std::shared_ptr<aidl::android::hardware::identity::IWritableIdentityCredential>",
   "referenced_type" : "_ZTINSt3__110shared_ptrIN4aidl7android8hardware8identity27IWritableIdentityCredentialEEE",
   "self_type" : "_ZTIKNSt3__110shared_ptrIN4aidl7android8hardware8identity27IWritableIdentityCredentialEEE",
   "size" : 16,
   "source_file" : "/out/soong/.intermediates/hardware/interfaces/identity/aidl/android.hardware.identity-ndk_platform-source/gen/include/aidl/android/hardware/identity/IWritableIdentityCredential.h"
  },
  {
   "alignment" : 8,
   "is_const" : true,
   "linker_set_key" : "_ZTIKNSt3__112basic_stringIcNS_11char_traitsIcEENS_9allocatorIcEEEE",
   "name" : "const std::basic_string<char, std::char_traits<char>, std::allocator<char> >",
   "referenced_type" : "_ZTINSt3__112basic_stringIcNS_11char_traitsIcEENS_9allocatorIcEEEE",
   "self_type" : "_ZTIKNSt3__112basic_stringIcNS_11char_traitsIcEENS_9allocatorIcEEEE",
   "size" : 24,
   "source_file" : "/out/soong/.intermediates/hardware/interfaces/identity/aidl/android.hardware.identity-ndk_platform-source/gen/include/aidl/android/hardware/identity/IIdentityCredential.h"
  },
  {
   "alignment" : 4,
   "is_const" : true,
   "linker_set_key" : "_ZTIKNSt3__15arrayIN4aidl7android8hardware8identity11CipherSuiteELm1EEE",
   "name" : "const std::array<aidl::android::hardware::identity::CipherSuite, 1>",
   "referenced_type" : "_ZTINSt3__15arrayIN4aidl7android8hardware8identity11CipherSuiteELm1EEE",
   "self_type" : "_ZTIKNSt3__15arrayIN4aidl7android8hardware8identity11CipherSuiteELm1EEE",
   "size" : 4,
   "source_file" : "/out/soong/.intermediates/hardware/interfaces/identity/aidl/android.hardware.identity-ndk_platform-source/gen/include/aidl/android/hardware/identity/CipherSuite.h"
  },
  {
   "alignment" : 4,
   "is_const" : true,
   "linker_set_key" : "_ZTIKNSt3__15arrayIN4aidl7android8hardware9keymaster13SecurityLevelELm3EEE",
   "name" : "const std::array<aidl::android::hardware::keymaster::SecurityLevel, 3>",
   "referenced_type" : "_ZTINSt3__15arrayIN4aidl7android8hardware9keymaster13SecurityLevelELm3EEE",
   "self_type" : "_ZTIKNSt3__15arrayIN4aidl7android8hardware9keymaster13SecurityLevelELm3EEE",
   "size" : 12,
   "source_file" : "/out/soong/.intermediates/hardware/interfaces/keymaster/aidl/android.hardware.keymaster-ndk_platform-source/gen/include/aidl/android/hardware/keymaster/SecurityLevel.h"
  },
  {
   "alignment" : 4,
   "is_const" : true,
   "linker_set_key" : "_ZTIKNSt3__15arrayIN4aidl7android8hardware9keymaster25HardwareAuthenticatorTypeELm4EEE",
   "name" : "const std::array<aidl::android::hardware::keymaster::HardwareAuthenticatorType, 4>",
   "referenced_type" : "_ZTINSt3__15arrayIN4aidl7android8hardware9keymaster25HardwareAuthenticatorTypeELm4EEE",
   "self_type" : "_ZTIKNSt3__15arrayIN4aidl7android8hardware9keymaster25HardwareAuthenticatorTypeELm4EEE",
   "size" : 16,
   "source_file" : "/out/soong/.intermediates/hardware/interfaces/keymaster/aidl/android.hardware.keymaster-ndk_platform-source/gen/include/aidl/android/hardware/keymaster/HardwareAuthenticatorType.h"
  },
  {
   "alignment" : 8,
   "is_const" : true,
   "linker_set_key" : "_ZTIKNSt3__16vectorIDsNS_9allocatorIDsEEEE",
   "name" : "const std::vector<char16_t, std::allocator<char16_t> >",
   "referenced_type" : "_ZTINSt3__16vectorIDsNS_9allocatorIDsEEEE",
   "self_type" : "_ZTIKNSt3__16vectorIDsNS_9allocatorIDsEEEE",
   "size" : 24,
   "source_file" : "/frameworks/native/libs/binder/ndk/include_ndk/android/binder_parcel_utils.h"
  },
  {
   "alignment" : 8,
   "is_const" : true,
   "linker_set_key" : "_ZTIKNSt3__16vectorIN4aidl7android8hardware8identity16RequestNamespaceENS_9allocatorIS5_EEEE",
   "name" : "const std::vector<aidl::android::hardware::identity::RequestNamespace, std::allocator<aidl::android::hardware::identity::RequestNamespace> >",
   "referenced_type" : "_ZTINSt3__16vectorIN4aidl7android8hardware8identity16RequestNamespaceENS_9allocatorIS5_EEEE",
   "self_type" : "_ZTIKNSt3__16vectorIN4aidl7android8hardware8identity16RequestNamespaceENS_9allocatorIS5_EEEE",
   "size" : 24,
   "source_file" : "/out/soong/.intermediates/hardware/interfaces/identity/aidl/android.hardware.identity-ndk_platform-source/gen/include/aidl/android/hardware/identity/IIdentityCredential.h"
  },
  {
   "alignment" : 8,
   "is_const" : true,
   "linker_set_key" : "_ZTIKNSt3__16vectorIN4aidl7android8hardware8identity26SecureAccessControlProfileENS_9allocatorIS5_EEEE",
   "name" : "const std::vector<aidl::android::hardware::identity::SecureAccessControlProfile, std::allocator<aidl::android::hardware::identity::SecureAccessControlProfile> >",
   "referenced_type" : "_ZTINSt3__16vectorIN4aidl7android8hardware8identity26SecureAccessControlProfileENS_9allocatorIS5_EEEE",
   "self_type" : "_ZTIKNSt3__16vectorIN4aidl7android8hardware8identity26SecureAccessControlProfileENS_9allocatorIS5_EEEE",
   "size" : 24,
   "source_file" : "/out/soong/.intermediates/hardware/interfaces/identity/aidl/android.hardware.identity-ndk_platform-source/gen/include/aidl/android/hardware/identity/IIdentityCredential.h"
  },
  {
   "alignment" : 8,
   "is_const" : true,
   "linker_set_key" : "_ZTIKNSt3__16vectorIaNS_9allocatorIaEEEE",
   "name" : "const std::vector<signed char, std::allocator<signed char> >",
   "referenced_type" : "_ZTINSt3__16vectorIaNS_9allocatorIaEEEE",
   "self_type" : "_ZTIKNSt3__16vectorIaNS_9allocatorIaEEEE",
   "size" : 24,
   "source_file" : "/frameworks/native/libs/binder/ndk/include_ndk/android/binder_parcel_utils.h"
  },
  {
   "alignment" : 8,
   "is_const" : true,
   "linker_set_key" : "_ZTIKNSt3__16vectorIbNS_9allocatorIbEEEE",
   "name" : "const std::vector<bool, std::allocator<bool> >",
   "referenced_type" : "_ZTINSt3__16vectorIbNS_9allocatorIbEEEE",
   "self_type" : "_ZTIKNSt3__16vectorIbNS_9allocatorIbEEEE",
   "size" : 24,
   "source_file" : "/frameworks/native/libs/binder/ndk/include_ndk/android/binder_parcel_utils.h"
  },
  {
   "alignment" : 8,
   "is_const" : true,
   "linker_set_key" : "_ZTIKNSt3__16vectorIdNS_9allocatorIdEEEE",
   "name" : "const std::vector<double, std::allocator<double> >",
   "referenced_type" : "_ZTINSt3__16vectorIdNS_9allocatorIdEEEE",
   "self_type" : "_ZTIKNSt3__16vectorIdNS_9allocatorIdEEEE",
   "size" : 24,
   "source_file" : "/frameworks/native/libs/binder/ndk/include_ndk/android/binder_parcel_utils.h"
  },
  {
   "alignment" : 8,
   "is_const" : true,
   "linker_set_key" : "_ZTIKNSt3__16vectorIfNS_9allocatorIfEEEE",
   "name" : "const std::vector<float, std::allocator<float> >",
   "referenced_type" : "_ZTINSt3__16vectorIfNS_9allocatorIfEEEE",
   "self_type" : "_ZTIKNSt3__16vectorIfNS_9allocatorIfEEEE",
   "size" : 24,
   "source_file" : "/frameworks/native/libs/binder/ndk/include_ndk/android/binder_parcel_utils.h"
  },
  {
   "alignment" : 8,
   "is_const" : true,
   "linker_set_key" : "_ZTIKNSt3__16vectorIiNS_9allocatorIiEEEE",
   "name" : "const std::vector<int, std::allocator<int> >",
   "referenced_type" : "_ZTINSt3__16vectorIiNS_9allocatorIiEEEE",
   "self_type" : "_ZTIKNSt3__16vectorIiNS_9allocatorIiEEEE",
   "size" : 24,
   "source_file" : "/frameworks/native/libs/binder/ndk/include_ndk/android/binder_parcel_utils.h"
  },
  {
   "alignment" : 8,
   "is_const" : true,
   "linker_set_key" : "_ZTIKNSt3__16vectorIjNS_9allocatorIjEEEE",
   "name" : "const std::vector<unsigned int, std::allocator<unsigned int> >",
   "referenced_type" : "_ZTINSt3__16vectorIjNS_9allocatorIjEEEE",
   "self_type" : "_ZTIKNSt3__16vectorIjNS_9allocatorIjEEEE",
   "size" : 24,
   "source_file" : "/frameworks/native/libs/binder/ndk/include_ndk/android/binder_parcel_utils.h"
  },
  {
   "alignment" : 8,
   "is_const" : true,
   "linker_set_key" : "_ZTIKNSt3__16vectorIlNS_9allocatorIlEEEE",
   "name" : "const std::vector<long, std::allocator<long> >",
   "referenced_type" : "_ZTINSt3__16vectorIlNS_9allocatorIlEEEE",
   "self_type" : "_ZTIKNSt3__16vectorIlNS_9allocatorIlEEEE",
   "size" : 24,
   "source_file" : "/frameworks/native/libs/binder/ndk/include_ndk/android/binder_parcel_utils.h"
  },
  {
   "alignment" : 8,
   "is_const" : true,
   "linker_set_key" : "_ZTIKNSt3__16vectorImNS_9allocatorImEEEE",
   "name" : "const std::vector<unsigned long, std::allocator<unsigned long> >",
   "referenced_type" : "_ZTINSt3__16vectorImNS_9allocatorImEEEE",
   "self_type" : "_ZTIKNSt3__16vectorImNS_9allocatorImEEEE",
   "size" : 24,
   "source_file" : "/frameworks/native/libs/binder/ndk/include_ndk/android/binder_parcel_utils.h"
  },
  {
   "alignment" : 8,
   "is_const" : true,
   "linker_set_key" : "_ZTIKNSt3__18optionalINS_6vectorIDsNS_9allocatorIDsEEEEEE",
   "name" : "const std::optional<std::vector<char16_t, std::allocator<char16_t> > >",
   "referenced_type" : "_ZTINSt3__18optionalINS_6vectorIDsNS_9allocatorIDsEEEEEE",
   "self_type" : "_ZTIKNSt3__18optionalINS_6vectorIDsNS_9allocatorIDsEEEEEE",
   "size" : 32,
   "source_file" : "/frameworks/native/libs/binder/ndk/include_ndk/android/binder_parcel_utils.h"
  },
  {
   "alignment" : 8,
   "is_const" : true,
   "linker_set_key" : "_ZTIKNSt3__18optionalINS_6vectorIaNS_9allocatorIaEEEEEE",
   "name" : "const std::optional<std::vector<signed char, std::allocator<signed char> > >",
   "referenced_type" : "_ZTINSt3__18optionalINS_6vectorIaNS_9allocatorIaEEEEEE",
   "self_type" : "_ZTIKNSt3__18optionalINS_6vectorIaNS_9allocatorIaEEEEEE",
   "size" : 32,
   "source_file" : "/frameworks/native/libs/binder/ndk/include_ndk/android/binder_parcel_utils.h"
  },
  {
   "alignment" : 8,
   "is_const" : true,
   "linker_set_key" : "_ZTIKNSt3__18optionalINS_6vectorIbNS_9allocatorIbEEEEEE",
   "name" : "const std::optional<std::vector<bool, std::allocator<bool> > >",
   "referenced_type" : "_ZTINSt3__18optionalINS_6vectorIbNS_9allocatorIbEEEEEE",
   "self_type" : "_ZTIKNSt3__18optionalINS_6vectorIbNS_9allocatorIbEEEEEE",
   "size" : 32,
   "source_file" : "/frameworks/native/libs/binder/ndk/include_ndk/android/binder_parcel_utils.h"
  },
  {
   "alignment" : 8,
   "is_const" : true,
   "linker_set_key" : "_ZTIKNSt3__18optionalINS_6vectorIdNS_9allocatorIdEEEEEE",
   "name" : "const std::optional<std::vector<double, std::allocator<double> > >",
   "referenced_type" : "_ZTINSt3__18optionalINS_6vectorIdNS_9allocatorIdEEEEEE",
   "self_type" : "_ZTIKNSt3__18optionalINS_6vectorIdNS_9allocatorIdEEEEEE",
   "size" : 32,
   "source_file" : "/frameworks/native/libs/binder/ndk/include_ndk/android/binder_parcel_utils.h"
  },
  {
   "alignment" : 8,
   "is_const" : true,
   "linker_set_key" : "_ZTIKNSt3__18optionalINS_6vectorIfNS_9allocatorIfEEEEEE",
   "name" : "const std::optional<std::vector<float, std::allocator<float> > >",
   "referenced_type" : "_ZTINSt3__18optionalINS_6vectorIfNS_9allocatorIfEEEEEE",
   "self_type" : "_ZTIKNSt3__18optionalINS_6vectorIfNS_9allocatorIfEEEEEE",
   "size" : 32,
   "source_file" : "/frameworks/native/libs/binder/ndk/include_ndk/android/binder_parcel_utils.h"
  },
  {
   "alignment" : 8,
   "is_const" : true,
   "linker_set_key" : "_ZTIKNSt3__18optionalINS_6vectorIiNS_9allocatorIiEEEEEE",
   "name" : "const std::optional<std::vector<int, std::allocator<int> > >",
   "referenced_type" : "_ZTINSt3__18optionalINS_6vectorIiNS_9allocatorIiEEEEEE",
   "self_type" : "_ZTIKNSt3__18optionalINS_6vectorIiNS_9allocatorIiEEEEEE",
   "size" : 32,
   "source_file" : "/frameworks/native/libs/binder/ndk/include_ndk/android/binder_parcel_utils.h"
  },
  {
   "alignment" : 8,
   "is_const" : true,
   "linker_set_key" : "_ZTIKNSt3__18optionalINS_6vectorIjNS_9allocatorIjEEEEEE",
   "name" : "const std::optional<std::vector<unsigned int, std::allocator<unsigned int> > >",
   "referenced_type" : "_ZTINSt3__18optionalINS_6vectorIjNS_9allocatorIjEEEEEE",
   "self_type" : "_ZTIKNSt3__18optionalINS_6vectorIjNS_9allocatorIjEEEEEE",
   "size" : 32,
   "source_file" : "/frameworks/native/libs/binder/ndk/include_ndk/android/binder_parcel_utils.h"
  },
  {
   "alignment" : 8,
   "is_const" : true,
   "linker_set_key" : "_ZTIKNSt3__18optionalINS_6vectorIlNS_9allocatorIlEEEEEE",
   "name" : "const std::optional<std::vector<long, std::allocator<long> > >",
   "referenced_type" : "_ZTINSt3__18optionalINS_6vectorIlNS_9allocatorIlEEEEEE",
   "self_type" : "_ZTIKNSt3__18optionalINS_6vectorIlNS_9allocatorIlEEEEEE",
   "size" : 32,
   "source_file" : "/frameworks/native/libs/binder/ndk/include_ndk/android/binder_parcel_utils.h"
  },
  {
   "alignment" : 8,
   "is_const" : true,
   "linker_set_key" : "_ZTIKNSt3__18optionalINS_6vectorImNS_9allocatorImEEEEEE",
   "name" : "const std::optional<std::vector<unsigned long, std::allocator<unsigned long> > >",
   "referenced_type" : "_ZTINSt3__18optionalINS_6vectorImNS_9allocatorImEEEEEE",
   "self_type" : "_ZTIKNSt3__18optionalINS_6vectorImNS_9allocatorImEEEEEE",
   "size" : 32,
   "source_file" : "/frameworks/native/libs/binder/ndk/include_ndk/android/binder_parcel_utils.h"
  },
  {
   "alignment" : 8,
   "is_const" : true,
   "linker_set_key" : "_ZTIKP7AStatus",
   "name" : "AStatus *const",
   "referenced_type" : "_ZTIP7AStatus",
   "self_type" : "_ZTIKP7AStatus",
   "size" : 8,
   "source_file" : "/frameworks/native/libs/binder/ndk/include_ndk/android/binder_auto_utils.h"
  },
  {
   "alignment" : 1,
   "is_const" : true,
   "linker_set_key" : "_ZTIKc",
   "name" : "const char",
   "referenced_type" : "_ZTIc",
   "self_type" : "_ZTIKc",
   "size" : 1,
   "source_file" : "/frameworks/native/libs/binder/ndk/include_ndk/android/binder_auto_utils.h"
  },
  {
   "alignment" : 4,
   "is_const" : true,
   "linker_set_key" : "_ZTIKi",
   "name" : "const int",
   "referenced_type" : "_ZTIi",
   "self_type" : "_ZTIKi",
   "size" : 4,
   "source_file" : "/frameworks/native/libs/binder/ndk/include_ndk/android/binder_auto_utils.h"
  },
  {
   "is_const" : true,
   "linker_set_key" : "_ZTIKv",
   "name" : "const void",
   "referenced_type" : "_ZTIv",
   "self_type" : "_ZTIKv",
   "source_file" : "/frameworks/native/libs/binder/ndk/include_ndk/android/binder_parcel_utils.h"
  }
 ],
 "record_types" :
 [
  {
   "alignment" : 8,
   "fields" :
   [
    {
     "access" : "private",
     "field_name" : "mBinder",
     "referenced_type" : "_ZTIP8AIBinder"
    }
   ],
   "linker_set_key" : "_ZTIN3ndk10SpAIBinderE",
   "name" : "ndk::SpAIBinder",
   "record_kind" : "class",
   "referenced_type" : "_ZTIN3ndk10SpAIBinderE",
   "self_type" : "_ZTIN3ndk10SpAIBinderE",
   "size" : 8,
   "source_file" : "/frameworks/native/libs/binder/ndk/include_ndk/android/binder_auto_utils.h"
  },
  {
   "access" : "private",
   "alignment" : 8,
   "fields" :
   [
    {
     "field_name" : "interface",
     "referenced_type" : "_ZTINSt3__110shared_ptrIN3ndk11ICInterfaceEEE"
    }
   ],
   "linker_set_key" : "_ZTIN3ndk11ICInterface15ICInterfaceDataE",
   "name" : "ndk::ICInterface::ICInterfaceData",
   "record_kind" : "class",
   "referenced_type" : "_ZTIN3ndk11ICInterface15ICInterfaceDataE",
   "self_type" : "_ZTIN3ndk11ICInterface15ICInterfaceDataE",
   "size" : 16,
   "source_file" : "/frameworks/native/libs/binder/ndk/include_ndk/android/binder_interface_utils.h"
  },
  {
   "alignment" : 8,
   "base_specifiers" :
   [
    {
     "referenced_type" : "_ZTIN3ndk13SharedRefBaseE"
    }
   ],
   "linker_set_key" : "_ZTIN3ndk11ICInterfaceE",
   "name" : "ndk::ICInterface",
   "record_kind" : "class",
   "referenced_type" : "_ZTIN3ndk11ICInterfaceE",
   "self_type" : "_ZTIN3ndk11ICInterfaceE",
   "size" : 32,
   "source_file" : "/frameworks/native/libs/binder/ndk/include_ndk/android/binder_interface_utils.h",
   "vtable_components" :
   [
    {
     "kind" : "offset_to_top"
    },
    {
     "kind" : "rtti",
     "mangled_component_name" : "_ZTIN3ndk11ICInterfaceE"
    },
    {
     "kind" : "complete_dtor_pointer",
     "mangled_component_name" : "_ZN3ndk11ICInterfaceD1Ev"
    },
    {
     "kind" : "deleting_dtor_pointer",
     "mangled_component_name" : "_ZN3ndk11ICInterfaceD0Ev"
    },
    {
     "is_pure" : true,
     "mangled_component_name" : "_ZN3ndk11ICInterface8asBinderEv"
    },
    {
     "is_pure" : true,
     "mangled_component_name" : "_ZN3ndk11ICInterface8isRemoteEv"
    },
    {
     "mangled_component_name" : "_ZN3ndk11ICInterface4dumpEiPPKcj"
    },
    {
     "mangled_component_name" : "_ZN3ndk11ICInterface18handleShellCommandEiiiPPKcj"
    }
   ]
  },
  {
   "alignment" : 8,
   "base_specifiers" :
   [
    {
     "referenced_type" : "_ZTIN4aidl7android8hardware8identity19IIdentityCredentialE"
    }
   ],
   "fields" :
   [
    {
     "access" : "private",
     "field_name" : "mMutex",
     "field_offset" : 256,
     "referenced_type" : "_ZTINSt3__15mutexE"
    },
    {
     "access" : "private",
     "field_name" : "mWeakBinder",
     "field_offset" : 576,
     "referenced_type" : "_ZTIN3ndk19ScopedAIBinder_WeakE"
    }
   ],
   "linker_set_key" : "_ZTIN3ndk12BnCInterfaceIN4aidl7android8hardware8identity19IIdentityCredentialEEE",
   "name" : "ndk::BnCInterface<aidl::android::hardware::identity::IIdentityCredential>",
   "record_kind" : "class",
   "referenced_type" : "_ZTIN3ndk12BnCInterfaceIN4aidl7android8hardware8identity19IIdentityCredentialEEE",
   "self_type" : "_ZTIN3ndk12BnCInterfaceIN4aidl7android8hardware8identity19IIdentityCredentialEEE",
   "size" : 80,
   "source_file" : "/frameworks/native/libs/binder/ndk/include_ndk/android/binder_interface_utils.h",
   "template_args" : [ "_ZTIN4aidl7android8hardware8identity19IIdentityCredentialE" ],
   "vtable_components" :
   [
    {
     "kind" : "offset_to_top"
    },
    {
     "kind" : "rtti",
     "mangled_component_name" : "_ZTIN3ndk12BnCInterfaceIN4aidl7android8hardware8identity19IIdentityCredentialEEE"
    },
    {
     "kind" : "complete_dtor_pointer",
     "mangled_component_name" : "_ZN3ndk12BnCInterfaceIN4aidl7android8hardware8identity19IIdentityCredentialEED1Ev"
    },
    {
     "kind" : "deleting_dtor_pointer",
     "mangled_component_name" : "_ZN3ndk12BnCInterfaceIN4aidl7android8hardware8identity19IIdentityCredentialEED0Ev"
    },
    {
     "mangled_component_name" : "_ZN3ndk12BnCInterfaceIN4aidl7android8hardware8identity19IIdentityCredentialEE8asBinderEv"
    },
    {
     "mangled_component_name" : "_ZN3ndk12BnCInterfaceIN4aidl7android8hardware8identity19IIdentityCredentialEE8isRemoteEv"
    },
    {
     "mangled_component_name" : "_ZN3ndk11ICInterface4dumpEiPPKcj"
    },
    {
     "mangled_component_name" : "_ZN3ndk11ICInterface18handleShellCommandEiiiPPKcj"
    },
    {
     "is_pure" : true,
     "mangled_component_name" : "_ZN4aidl7android8hardware8identity19IIdentityCredential16deleteCredentialEPNSt3__16vectorIaNS4_9allocatorIaEEEE"
    },
    {
     "is_pure" : true,
     "mangled_component_name" : "_ZN4aidl7android8hardware8identity19IIdentityCredential22createEphemeralKeyPairEPNSt3__16vectorIaNS4_9allocatorIaEEEE"
    },
    {
     "is_pure" : true,
     "mangled_component_name" : "_ZN4aidl7android8hardware8identity19IIdentityCredential27setReaderEphemeralPublicKeyERKNSt3__16vectorIaNS4_9allocatorIaEEEE"
    },
    {
     "is_pure" : true,
     "mangled_component_name" : "_ZN4aidl7android8hardware8identity19IIdentityCredential19createAuthChallengeEPl"
    },
    {
     "is_pure" : true,
     "mangled_component_name" : "_ZN4aidl7android8hardware8identity19IIdentityCredential14startRetrievalERKNSt3__16vectorINS2_26SecureAccessControlProfileENS4_9allocatorIS6_EEEERKNS1_9keymaster17HardwareAuthTokenERKNS5_IaNS7_IaEEEESJ_SJ_SJ_RKNS5_IiNS7_IiEEEE"
    },
    {
     "is_pure" : true,
     "mangled_component_name" : "_ZN4aidl7android8hardware8identity19IIdentityCredential23startRetrieveEntryValueERKNSt3__112basic_stringIcNS4_11char_traitsIcEENS4_9allocatorIcEEEESC_iRKNS4_6vectorIiNS8_IiEEEE"
    },
    {
     "is_pure" : true,
     "mangled_component_name" : "_ZN4aidl7android8hardware8identity19IIdentityCredential18retrieveEntryValueERKNSt3__16vectorIaNS4_9allocatorIaEEEEPS8_"
    },
    {
     "is_pure" : true,
     "mangled_component_name" : "_ZN4aidl7android8hardware8identity19IIdentityCredential15finishRetrievalEPNSt3__16vectorIaNS4_9allocatorIaEEEES9_"
    },
    {
     "is_pure" : true,
     "mangled_component_name" : "_ZN4aidl7android8hardware8identity19IIdentityCredential22generateSigningKeyPairEPNSt3__16vectorIaNS4_9allocatorIaEEEEPNS2_11CertificateE"
    },
    {
     "is_pure" : true,
     "mangled_component_name" : "_ZN4aidl7android8hardware8identity19IIdentityCredential22setRequestedNamespacesERKNSt3__16vectorINS2_16RequestNamespaceENS4_9allocatorIS6_EEEE"
    },
    {
     "is_pure" : true,
     "mangled_component_name" : "_ZN4aidl7android8hardware8identity19IIdentityCredential20setVerificationTokenERKNS1_9keymaster17VerificationTokenE"
    },
    {
     "is_pure" : true,
     "mangled_component_name" : "_ZN4aidl7android8hardware8identity19IIdentityCredential19getInterfaceVersionEPi"
    },
    {
     "is_pure" : true,
     "mangled_component_name" : "_ZN4aidl7android8hardware8identity19IIdentityCredential16getInterfaceHashEPNSt3__112basic_stringIcNS4_11char_traitsIcEENS4_9allocatorIcEEEE"
    },
    {
     "is_pure" : true,
     "mangled_component_name" : "_ZN3ndk12BnCInterfaceIN4aidl7android8hardware8identity19IIdentityCredentialEE12createBinderEv"
    }
   ]
  },
  {
   "alignment" : 8,
   "base_specifiers" :
   [
    {
     "referenced_type" : "_ZTIN4aidl7android8hardware8identity24IIdentityCredentialStoreE"
    }
   ],
   "fields" :
   [
    {
     "access" : "private",
     "field_name" : "mMutex",
     "field_offset" : 256,
     "referenced_type" : "_ZTINSt3__15mutexE"
    },
    {
     "access" : "private",
     "field_name" : "mWeakBinder",
     "field_offset" : 576,
     "referenced_type" : "_ZTIN3ndk19ScopedAIBinder_WeakE"
    }
   ],
   "linker_set_key" : "_ZTIN3ndk12BnCInterfaceIN4aidl7android8hardware8identity24IIdentityCredentialStoreEEE",
   "name" : "ndk::BnCInterface<aidl::android::hardware::identity::IIdentityCredentialStore>",
   "record_kind" : "class",
   "referenced_type" : "_ZTIN3ndk12BnCInterfaceIN4aidl7android8hardware8identity24IIdentityCredentialStoreEEE",
   "self_type" : "_ZTIN3ndk12BnCInterfaceIN4aidl7android8hardware8identity24IIdentityCredentialStoreEEE",
   "size" : 80,
   "source_file" : "/frameworks/native/libs/binder/ndk/include_ndk/android/binder_interface_utils.h",
   "template_args" : [ "_ZTIN4aidl7android8hardware8identity24IIdentityCredentialStoreE" ],
   "vtable_components" :
   [
    {
     "kind" : "offset_to_top"
    },
    {
     "kind" : "rtti",
     "mangled_component_name" : "_ZTIN3ndk12BnCInterfaceIN4aidl7android8hardware8identity24IIdentityCredentialStoreEEE"
    },
    {
     "kind" : "complete_dtor_pointer",
     "mangled_component_name" : "_ZN3ndk12BnCInterfaceIN4aidl7android8hardware8identity24IIdentityCredentialStoreEED1Ev"
    },
    {
     "kind" : "deleting_dtor_pointer",
     "mangled_component_name" : "_ZN3ndk12BnCInterfaceIN4aidl7android8hardware8identity24IIdentityCredentialStoreEED0Ev"
    },
    {
     "mangled_component_name" : "_ZN3ndk12BnCInterfaceIN4aidl7android8hardware8identity24IIdentityCredentialStoreEE8asBinderEv"
    },
    {
     "mangled_component_name" : "_ZN3ndk12BnCInterfaceIN4aidl7android8hardware8identity24IIdentityCredentialStoreEE8isRemoteEv"
    },
    {
     "mangled_component_name" : "_ZN3ndk11ICInterface4dumpEiPPKcj"
    },
    {
     "mangled_component_name" : "_ZN3ndk11ICInterface18handleShellCommandEiiiPPKcj"
    },
    {
     "is_pure" : true,
     "mangled_component_name" : "_ZN4aidl7android8hardware8identity24IIdentityCredentialStore22getHardwareInformationEPNS2_19HardwareInformationE"
    },
    {
     "is_pure" : true,
     "mangled_component_name" : "_ZN4aidl7android8hardware8identity24IIdentityCredentialStore16createCredentialERKNSt3__112basic_stringIcNS4_11char_traitsIcEENS4_9allocatorIcEEEEbPNS4_10shared_ptrINS2_27IWritableIdentityCredentialEEE"
    },
    {
     "is_pure" : true,
     "mangled_component_name" : "_ZN4aidl7android8hardware8identity24IIdentityCredentialStore13getCredentialENS2_11CipherSuiteERKNSt3__16vectorIaNS5_9allocatorIaEEEEPNS5_10shared_ptrINS2_19IIdentityCredentialEEE"
    },
    {
     "is_pure" : true,
     "mangled_component_name" : "_ZN4aidl7android8hardware8identity24IIdentityCredentialStore19getInterfaceVersionEPi"
    },
    {
     "is_pure" : true,
     "mangled_component_name" : "_ZN4aidl7android8hardware8identity24IIdentityCredentialStore16getInterfaceHashEPNSt3__112basic_stringIcNS4_11char_traitsIcEENS4_9allocatorIcEEEE"
    },
    {
     "is_pure" : true,
     "mangled_component_name" : "_ZN3ndk12BnCInterfaceIN4aidl7android8hardware8identity24IIdentityCredentialStoreEE12createBinderEv"
    }
   ]
  },
  {
   "alignment" : 8,
   "base_specifiers" :
   [
    {
     "referenced_type" : "_ZTIN4aidl7android8hardware8identity27IWritableIdentityCredentialE"
    }
   ],
   "fields" :
   [
    {
     "access" : "private",
     "field_name" : "mMutex",
     "field_offset" : 256,
     "referenced_type" : "_ZTINSt3__15mutexE"
    },
    {
     "access" : "private",
     "field_name" : "mWeakBinder",
     "field_offset" : 576,
     "referenced_type" : "_ZTIN3ndk19ScopedAIBinder_WeakE"
    }
   ],
   "linker_set_key" : "_ZTIN3ndk12BnCInterfaceIN4aidl7android8hardware8identity27IWritableIdentityCredentialEEE",
   "name" : "ndk::BnCInterface<aidl::android::hardware::identity::IWritableIdentityCredential>",
   "record_kind" : "class",
   "referenced_type" : "_ZTIN3ndk12BnCInterfaceIN4aidl7android8hardware8identity27IWritableIdentityCredentialEEE",
   "self_type" : "_ZTIN3ndk12BnCInterfaceIN4aidl7android8hardware8identity27IWritableIdentityCredentialEEE",
   "size" : 80,
   "source_file" : "/frameworks/native/libs/binder/ndk/include_ndk/android/binder_interface_utils.h",
   "template_args" : [ "_ZTIN4aidl7android8hardware8identity27IWritableIdentityCredentialE" ],
   "vtable_components" :
   [
    {
     "kind" : "offset_to_top"
    },
    {
     "kind" : "rtti",
     "mangled_component_name" : "_ZTIN3ndk12BnCInterfaceIN4aidl7android8hardware8identity27IWritableIdentityCredentialEEE"
    },
    {
     "kind" : "complete_dtor_pointer",
     "mangled_component_name" : "_ZN3ndk12BnCInterfaceIN4aidl7android8hardware8identity27IWritableIdentityCredentialEED1Ev"
    },
    {
     "kind" : "deleting_dtor_pointer",
     "mangled_component_name" : "_ZN3ndk12BnCInterfaceIN4aidl7android8hardware8identity27IWritableIdentityCredentialEED0Ev"
    },
    {
     "mangled_component_name" : "_ZN3ndk12BnCInterfaceIN4aidl7android8hardware8identity27IWritableIdentityCredentialEE8asBinderEv"
    },
    {
     "mangled_component_name" : "_ZN3ndk12BnCInterfaceIN4aidl7android8hardware8identity27IWritableIdentityCredentialEE8isRemoteEv"
    },
    {
     "mangled_component_name" : "_ZN3ndk11ICInterface4dumpEiPPKcj"
    },
    {
     "mangled_component_name" : "_ZN3ndk11ICInterface18handleShellCommandEiiiPPKcj"
    },
    {
     "is_pure" : true,
     "mangled_component_name" : "_ZN4aidl7android8hardware8identity27IWritableIdentityCredential25getAttestationCertificateERKNSt3__16vectorIaNS4_9allocatorIaEEEESA_PNS5_INS2_11CertificateENS6_ISB_EEEE"
    },
    {
     "is_pure" : true,
     "mangled_component_name" : "_ZN4aidl7android8hardware8identity27IWritableIdentityCredential20startPersonalizationEiRKNSt3__16vectorIiNS4_9allocatorIiEEEE"
    },
    {
     "is_pure" : true,
     "mangled_component_name" : "_ZN4aidl7android8hardware8identity27IWritableIdentityCredential23addAccessControlProfileEiRKNS2_11CertificateEbllPNS2_26SecureAccessControlProfileE"
    },
    {
     "is_pure" : true,
     "mangled_component_name" : "_ZN4aidl7android8hardware8identity27IWritableIdentityCredential13beginAddEntryERKNSt3__16vectorIiNS4_9allocatorIiEEEERKNS4_12basic_stringIcNS4_11char_traitsIcEENS6_IcEEEESH_i"
    },
    {
     "is_pure" : true,
     "mangled_component_name" : "_ZN4aidl7android8hardware8identity27IWritableIdentityCredential13addEntryValueERKNSt3__16vectorIaNS4_9allocatorIaEEEEPS8_"
    },
    {
     "is_pure" : true,
     "mangled_component_name" : "_ZN4aidl7android8hardware8identity27IWritableIdentityCredential19finishAddingEntriesEPNSt3__16vectorIaNS4_9allocatorIaEEEES9_"
    },
    {
     "is_pure" : true,
     "mangled_component_name" : "_ZN4aidl7android8hardware8identity27IWritableIdentityCredential34setExpectedProofOfProvisioningSizeEi"
    },
    {
     "is_pure" : true,
     "mangled_component_name" : "_ZN4aidl7android8hardware8identity27IWritableIdentityCredential19getInterfaceVersionEPi"
    },
    {
     "is_pure" : true,
     "mangled_component_name" : "_ZN4aidl7android8hardware8identity27IWritableIdentityCredential16getInterfaceHashEPNSt3__112basic_stringIcNS4_11char_traitsIcEENS4_9allocatorIcEEEE"
    },
    {
     "is_pure" : true,
     "mangled_component_name" : "_ZN3ndk12BnCInterfaceIN4aidl7android8hardware8identity27IWritableIdentityCredentialEE12createBinderEv"
    }
   ]
  },
  {
   "alignment" : 8,
   "base_specifiers" :
   [
    {
     "referenced_type" : "_ZTIN4aidl7android8hardware8identity19IIdentityCredentialE"
    }
   ],
   "fields" :
   [
    {
     "access" : "private",
     "field_name" : "mBinder",
     "field_offset" : 256,
     "referenced_type" : "_ZTIN3ndk10SpAIBinderE"
    }
   ],
   "linker_set_key" : "_ZTIN3ndk12BpCInterfaceIN4aidl7android8hardware8identity19IIdentityCredentialEEE",
   "name" : "ndk::BpCInterface<aidl::android::hardware::identity::IIdentityCredential>",
   "record_kind" : "class",
   "referenced_type" : "_ZTIN3ndk12BpCInterfaceIN4aidl7android8hardware8identity19IIdentityCredentialEEE",
   "self_type" : "_ZTIN3ndk12BpCInterfaceIN4aidl7android8hardware8identity19IIdentityCredentialEEE",
   "size" : 40,
   "source_file" : "/frameworks/native/libs/binder/ndk/include_ndk/android/binder_interface_utils.h",
   "template_args" : [ "_ZTIN4aidl7android8hardware8identity19IIdentityCredentialE" ],
   "vtable_components" :
   [
    {
     "kind" : "offset_to_top"
    },
    {
     "kind" : "rtti",
     "mangled_component_name" : "_ZTIN3ndk12BpCInterfaceIN4aidl7android8hardware8identity19IIdentityCredentialEEE"
    },
    {
     "kind" : "complete_dtor_pointer",
     "mangled_component_name" : "_ZN3ndk12BpCInterfaceIN4aidl7android8hardware8identity19IIdentityCredentialEED1Ev"
    },
    {
     "kind" : "deleting_dtor_pointer",
     "mangled_component_name" : "_ZN3ndk12BpCInterfaceIN4aidl7android8hardware8identity19IIdentityCredentialEED0Ev"
    },
    {
     "mangled_component_name" : "_ZN3ndk12BpCInterfaceIN4aidl7android8hardware8identity19IIdentityCredentialEE8asBinderEv"
    },
    {
     "mangled_component_name" : "_ZN3ndk12BpCInterfaceIN4aidl7android8hardware8identity19IIdentityCredentialEE8isRemoteEv"
    },
    {
     "mangled_component_name" : "_ZN3ndk12BpCInterfaceIN4aidl7android8hardware8identity19IIdentityCredentialEE4dumpEiPPKcj"
    },
    {
     "mangled_component_name" : "_ZN3ndk11ICInterface18handleShellCommandEiiiPPKcj"
    },
    {
     "is_pure" : true,
     "mangled_component_name" : "_ZN4aidl7android8hardware8identity19IIdentityCredential16deleteCredentialEPNSt3__16vectorIaNS4_9allocatorIaEEEE"
    },
    {
     "is_pure" : true,
     "mangled_component_name" : "_ZN4aidl7android8hardware8identity19IIdentityCredential22createEphemeralKeyPairEPNSt3__16vectorIaNS4_9allocatorIaEEEE"
    },
    {
     "is_pure" : true,
     "mangled_component_name" : "_ZN4aidl7android8hardware8identity19IIdentityCredential27setReaderEphemeralPublicKeyERKNSt3__16vectorIaNS4_9allocatorIaEEEE"
    },
    {
     "is_pure" : true,
     "mangled_component_name" : "_ZN4aidl7android8hardware8identity19IIdentityCredential19createAuthChallengeEPl"
    },
    {
     "is_pure" : true,
     "mangled_component_name" : "_ZN4aidl7android8hardware8identity19IIdentityCredential14startRetrievalERKNSt3__16vectorINS2_26SecureAccessControlProfileENS4_9allocatorIS6_EEEERKNS1_9keymaster17HardwareAuthTokenERKNS5_IaNS7_IaEEEESJ_SJ_SJ_RKNS5_IiNS7_IiEEEE"
    },
    {
     "is_pure" : true,
     "mangled_component_name" : "_ZN4aidl7android8hardware8identity19IIdentityCredential23startRetrieveEntryValueERKNSt3__112basic_stringIcNS4_11char_traitsIcEENS4_9allocatorIcEEEESC_iRKNS4_6vectorIiNS8_IiEEEE"
    },
    {
     "is_pure" : true,
     "mangled_component_name" : "_ZN4aidl7android8hardware8identity19IIdentityCredential18retrieveEntryValueERKNSt3__16vectorIaNS4_9allocatorIaEEEEPS8_"
    },
    {
     "is_pure" : true,
     "mangled_component_name" : "_ZN4aidl7android8hardware8identity19IIdentityCredential15finishRetrievalEPNSt3__16vectorIaNS4_9allocatorIaEEEES9_"
    },
    {
     "is_pure" : true,
     "mangled_component_name" : "_ZN4aidl7android8hardware8identity19IIdentityCredential22generateSigningKeyPairEPNSt3__16vectorIaNS4_9allocatorIaEEEEPNS2_11CertificateE"
    },
    {
     "is_pure" : true,
     "mangled_component_name" : "_ZN4aidl7android8hardware8identity19IIdentityCredential22setRequestedNamespacesERKNSt3__16vectorINS2_16RequestNamespaceENS4_9allocatorIS6_EEEE"
    },
    {
     "is_pure" : true,
     "mangled_component_name" : "_ZN4aidl7android8hardware8identity19IIdentityCredential20setVerificationTokenERKNS1_9keymaster17VerificationTokenE"
    },
    {
     "is_pure" : true,
     "mangled_component_name" : "_ZN4aidl7android8hardware8identity19IIdentityCredential19getInterfaceVersionEPi"
    },
    {
     "is_pure" : true,
     "mangled_component_name" : "_ZN4aidl7android8hardware8identity19IIdentityCredential16getInterfaceHashEPNSt3__112basic_stringIcNS4_11char_traitsIcEENS4_9allocatorIcEEEE"
    }
   ]
  },
  {
   "alignment" : 8,
   "base_specifiers" :
   [
    {
     "referenced_type" : "_ZTIN4aidl7android8hardware8identity24IIdentityCredentialStoreE"
    }
   ],
   "fields" :
   [
    {
     "access" : "private",
     "field_name" : "mBinder",
     "field_offset" : 256,
     "referenced_type" : "_ZTIN3ndk10SpAIBinderE"
    }
   ],
   "linker_set_key" : "_ZTIN3ndk12BpCInterfaceIN4aidl7android8hardware8identity24IIdentityCredentialStoreEEE",
   "name" : "ndk::BpCInterface<aidl::android::hardware::identity::IIdentityCredentialStore>",
   "record_kind" : "class",
   "referenced_type" : "_ZTIN3ndk12BpCInterfaceIN4aidl7android8hardware8identity24IIdentityCredentialStoreEEE",
   "self_type" : "_ZTIN3ndk12BpCInterfaceIN4aidl7android8hardware8identity24IIdentityCredentialStoreEEE",
   "size" : 40,
   "source_file" : "/frameworks/native/libs/binder/ndk/include_ndk/android/binder_interface_utils.h",
   "template_args" : [ "_ZTIN4aidl7android8hardware8identity24IIdentityCredentialStoreE" ],
   "vtable_components" :
   [
    {
     "kind" : "offset_to_top"
    },
    {
     "kind" : "rtti",
     "mangled_component_name" : "_ZTIN3ndk12BpCInterfaceIN4aidl7android8hardware8identity24IIdentityCredentialStoreEEE"
    },
    {
     "kind" : "complete_dtor_pointer",
     "mangled_component_name" : "_ZN3ndk12BpCInterfaceIN4aidl7android8hardware8identity24IIdentityCredentialStoreEED1Ev"
    },
    {
     "kind" : "deleting_dtor_pointer",
     "mangled_component_name" : "_ZN3ndk12BpCInterfaceIN4aidl7android8hardware8identity24IIdentityCredentialStoreEED0Ev"
    },
    {
     "mangled_component_name" : "_ZN3ndk12BpCInterfaceIN4aidl7android8hardware8identity24IIdentityCredentialStoreEE8asBinderEv"
    },
    {
     "mangled_component_name" : "_ZN3ndk12BpCInterfaceIN4aidl7android8hardware8identity24IIdentityCredentialStoreEE8isRemoteEv"
    },
    {
     "mangled_component_name" : "_ZN3ndk12BpCInterfaceIN4aidl7android8hardware8identity24IIdentityCredentialStoreEE4dumpEiPPKcj"
    },
    {
     "mangled_component_name" : "_ZN3ndk11ICInterface18handleShellCommandEiiiPPKcj"
    },
    {
     "is_pure" : true,
     "mangled_component_name" : "_ZN4aidl7android8hardware8identity24IIdentityCredentialStore22getHardwareInformationEPNS2_19HardwareInformationE"
    },
    {
     "is_pure" : true,
     "mangled_component_name" : "_ZN4aidl7android8hardware8identity24IIdentityCredentialStore16createCredentialERKNSt3__112basic_stringIcNS4_11char_traitsIcEENS4_9allocatorIcEEEEbPNS4_10shared_ptrINS2_27IWritableIdentityCredentialEEE"
    },
    {
     "is_pure" : true,
     "mangled_component_name" : "_ZN4aidl7android8hardware8identity24IIdentityCredentialStore13getCredentialENS2_11CipherSuiteERKNSt3__16vectorIaNS5_9allocatorIaEEEEPNS5_10shared_ptrINS2_19IIdentityCredentialEEE"
    },
    {
     "is_pure" : true,
     "mangled_component_name" : "_ZN4aidl7android8hardware8identity24IIdentityCredentialStore19getInterfaceVersionEPi"
    },
    {
     "is_pure" : true,
     "mangled_component_name" : "_ZN4aidl7android8hardware8identity24IIdentityCredentialStore16getInterfaceHashEPNSt3__112basic_stringIcNS4_11char_traitsIcEENS4_9allocatorIcEEEE"
    }
   ]
  },
  {
   "alignment" : 8,
   "base_specifiers" :
   [
    {
     "referenced_type" : "_ZTIN4aidl7android8hardware8identity27IWritableIdentityCredentialE"
    }
   ],
   "fields" :
   [
    {
     "access" : "private",
     "field_name" : "mBinder",
     "field_offset" : 256,
     "referenced_type" : "_ZTIN3ndk10SpAIBinderE"
    }
   ],
   "linker_set_key" : "_ZTIN3ndk12BpCInterfaceIN4aidl7android8hardware8identity27IWritableIdentityCredentialEEE",
   "name" : "ndk::BpCInterface<aidl::android::hardware::identity::IWritableIdentityCredential>",
   "record_kind" : "class",
   "referenced_type" : "_ZTIN3ndk12BpCInterfaceIN4aidl7android8hardware8identity27IWritableIdentityCredentialEEE",
   "self_type" : "_ZTIN3ndk12BpCInterfaceIN4aidl7android8hardware8identity27IWritableIdentityCredentialEEE",
   "size" : 40,
   "source_file" : "/frameworks/native/libs/binder/ndk/include_ndk/android/binder_interface_utils.h",
   "template_args" : [ "_ZTIN4aidl7android8hardware8identity27IWritableIdentityCredentialE" ],
   "vtable_components" :
   [
    {
     "kind" : "offset_to_top"
    },
    {
     "kind" : "rtti",
     "mangled_component_name" : "_ZTIN3ndk12BpCInterfaceIN4aidl7android8hardware8identity27IWritableIdentityCredentialEEE"
    },
    {
     "kind" : "complete_dtor_pointer",
     "mangled_component_name" : "_ZN3ndk12BpCInterfaceIN4aidl7android8hardware8identity27IWritableIdentityCredentialEED1Ev"
    },
    {
     "kind" : "deleting_dtor_pointer",
     "mangled_component_name" : "_ZN3ndk12BpCInterfaceIN4aidl7android8hardware8identity27IWritableIdentityCredentialEED0Ev"
    },
    {
     "mangled_component_name" : "_ZN3ndk12BpCInterfaceIN4aidl7android8hardware8identity27IWritableIdentityCredentialEE8asBinderEv"
    },
    {
     "mangled_component_name" : "_ZN3ndk12BpCInterfaceIN4aidl7android8hardware8identity27IWritableIdentityCredentialEE8isRemoteEv"
    },
    {
     "mangled_component_name" : "_ZN3ndk12BpCInterfaceIN4aidl7android8hardware8identity27IWritableIdentityCredentialEE4dumpEiPPKcj"
    },
    {
     "mangled_component_name" : "_ZN3ndk11ICInterface18handleShellCommandEiiiPPKcj"
    },
    {
     "is_pure" : true,
     "mangled_component_name" : "_ZN4aidl7android8hardware8identity27IWritableIdentityCredential25getAttestationCertificateERKNSt3__16vectorIaNS4_9allocatorIaEEEESA_PNS5_INS2_11CertificateENS6_ISB_EEEE"
    },
    {
     "is_pure" : true,
     "mangled_component_name" : "_ZN4aidl7android8hardware8identity27IWritableIdentityCredential20startPersonalizationEiRKNSt3__16vectorIiNS4_9allocatorIiEEEE"
    },
    {
     "is_pure" : true,
     "mangled_component_name" : "_ZN4aidl7android8hardware8identity27IWritableIdentityCredential23addAccessControlProfileEiRKNS2_11CertificateEbllPNS2_26SecureAccessControlProfileE"
    },
    {
     "is_pure" : true,
     "mangled_component_name" : "_ZN4aidl7android8hardware8identity27IWritableIdentityCredential13beginAddEntryERKNSt3__16vectorIiNS4_9allocatorIiEEEERKNS4_12basic_stringIcNS4_11char_traitsIcEENS6_IcEEEESH_i"
    },
    {
     "is_pure" : true,
     "mangled_component_name" : "_ZN4aidl7android8hardware8identity27IWritableIdentityCredential13addEntryValueERKNSt3__16vectorIaNS4_9allocatorIaEEEEPS8_"
    },
    {
     "is_pure" : true,
     "mangled_component_name" : "_ZN4aidl7android8hardware8identity27IWritableIdentityCredential19finishAddingEntriesEPNSt3__16vectorIaNS4_9allocatorIaEEEES9_"
    },
    {
     "is_pure" : true,
     "mangled_component_name" : "_ZN4aidl7android8hardware8identity27IWritableIdentityCredential34setExpectedProofOfProvisioningSizeEi"
    },
    {
     "is_pure" : true,
     "mangled_component_name" : "_ZN4aidl7android8hardware8identity27IWritableIdentityCredential19getInterfaceVersionEPi"
    },
    {
     "is_pure" : true,
     "mangled_component_name" : "_ZN4aidl7android8hardware8identity27IWritableIdentityCredential16getInterfaceHashEPNSt3__112basic_stringIcNS4_11char_traitsIcEENS4_9allocatorIcEEEE"
    }
   ]
  },
  {
   "alignment" : 8,
   "base_specifiers" :
   [
    {
     "referenced_type" : "_ZTIN3ndk4impl15ScopedAResourceIP7AParcelvXadL_Z14AParcel_deleteEELS3_0EEE"
    }
   ],
   "linker_set_key" : "_ZTIN3ndk13ScopedAParcelE",
   "name" : "ndk::ScopedAParcel",
   "record_kind" : "class",
   "referenced_type" : "_ZTIN3ndk13ScopedAParcelE",
   "self_type" : "_ZTIN3ndk13ScopedAParcelE",
   "size" : 8,
   "source_file" : "/frameworks/native/libs/binder/ndk/include_ndk/android/binder_auto_utils.h"
  },
  {
   "alignment" : 8,
   "base_specifiers" :
   [
    {
     "referenced_type" : "_ZTIN3ndk4impl15ScopedAResourceIP7AStatusvXadL_Z14AStatus_deleteEELS3_0EEE"
    }
   ],
   "linker_set_key" : "_ZTIN3ndk13ScopedAStatusE",
   "name" : "ndk::ScopedAStatus",
   "record_kind" : "class",
   "referenced_type" : "_ZTIN3ndk13ScopedAStatusE",
   "self_type" : "_ZTIN3ndk13ScopedAStatusE",
   "size" : 8,
   "source_file" : "/frameworks/native/libs/binder/ndk/include_ndk/android/binder_auto_utils.h"
  },
  {
   "alignment" : 8,
   "fields" :
   [
    {
     "access" : "private",
     "field_name" : "mFlagThis",
     "field_offset" : 64,
     "referenced_type" : "_ZTINSt3__19once_flagE"
    },
    {
     "access" : "private",
     "field_name" : "mThis",
     "field_offset" : 128,
     "referenced_type" : "_ZTINSt3__18weak_ptrIN3ndk13SharedRefBaseEEE"
    }
   ],
   "linker_set_key" : "_ZTIN3ndk13SharedRefBaseE",
   "name" : "ndk::SharedRefBase",
   "record_kind" : "class",
   "referenced_type" : "_ZTIN3ndk13SharedRefBaseE",
   "self_type" : "_ZTIN3ndk13SharedRefBaseE",
   "size" : 32,
   "source_file" : "/frameworks/native/libs/binder/ndk/include_ndk/android/binder_interface_utils.h",
   "vtable_components" :
   [
    {
     "kind" : "offset_to_top"
    },
    {
     "kind" : "rtti",
     "mangled_component_name" : "_ZTIN3ndk13SharedRefBaseE"
    },
    {
     "kind" : "complete_dtor_pointer",
     "mangled_component_name" : "_ZN3ndk13SharedRefBaseD1Ev"
    },
    {
     "kind" : "deleting_dtor_pointer",
     "mangled_component_name" : "_ZN3ndk13SharedRefBaseD0Ev"
    }
   ]
  },
  {
   "alignment" : 8,
   "base_specifiers" :
   [
    {
     "referenced_type" : "_ZTIN3ndk4impl15ScopedAResourceIP13AIBinder_WeakvXadL_Z20AIBinder_Weak_deleteEELS3_0EEE"
    }
   ],
   "linker_set_key" : "_ZTIN3ndk19ScopedAIBinder_WeakE",
   "name" : "ndk::ScopedAIBinder_Weak",
   "record_kind" : "class",
   "referenced_type" : "_ZTIN3ndk19ScopedAIBinder_WeakE",
   "self_type" : "_ZTIN3ndk19ScopedAIBinder_WeakE",
   "size" : 8,
   "source_file" : "/frameworks/native/libs/binder/ndk/include_ndk/android/binder_auto_utils.h"
  },
  {
   "alignment" : 4,
   "base_specifiers" :
   [
    {
     "referenced_type" : "_ZTIN3ndk4impl15ScopedAResourceIiiXadL_Z5closeEELin1EEE"
    }
   ],
   "linker_set_key" : "_ZTIN3ndk20ScopedFileDescriptorE",
   "name" : "ndk::ScopedFileDescriptor",
   "record_kind" : "class",
   "referenced_type" : "_ZTIN3ndk20ScopedFileDescriptorE",
   "self_type" : "_ZTIN3ndk20ScopedFileDescriptorE",
   "size" : 4,
   "source_file" : "/frameworks/native/libs/binder/ndk/include_ndk/android/binder_auto_utils.h"
  },
  {
   "alignment" : 8,
   "base_specifiers" :
   [
    {
     "referenced_type" : "_ZTIN3ndk4impl15ScopedAResourceIP23AIBinder_DeathRecipientvXadL_Z30AIBinder_DeathRecipient_deleteEELS3_0EEE"
    }
   ],
   "linker_set_key" : "_ZTIN3ndk29ScopedAIBinder_DeathRecipientE",
   "name" : "ndk::ScopedAIBinder_DeathRecipient",
   "record_kind" : "class",
   "referenced_type" : "_ZTIN3ndk29ScopedAIBinder_DeathRecipientE",
   "self_type" : "_ZTIN3ndk29ScopedAIBinder_DeathRecipientE",
   "size" : 8,
   "source_file" : "/frameworks/native/libs/binder/ndk/include_ndk/android/binder_auto_utils.h"
  },
  {
   "alignment" : 8,
   "fields" :
   [
    {
     "access" : "private",
     "field_name" : "mT",
     "referenced_type" : "_ZTIP13AIBinder_Weak"
    }
   ],
   "linker_set_key" : "_ZTIN3ndk4impl15ScopedAResourceIP13AIBinder_WeakvXadL_Z20AIBinder_Weak_deleteEELS3_0EEE",
   "name" : "ndk::impl::ScopedAResource<AIBinder_Weak *, void, &AIBinder_Weak_delete, nullptr>",
   "record_kind" : "class",
   "referenced_type" : "_ZTIN3ndk4impl15ScopedAResourceIP13AIBinder_WeakvXadL_Z20AIBinder_Weak_deleteEELS3_0EEE",
   "self_type" : "_ZTIN3ndk4impl15ScopedAResourceIP13AIBinder_WeakvXadL_Z20AIBinder_Weak_deleteEELS3_0EEE",
   "size" : 8,
   "source_file" : "/frameworks/native/libs/binder/ndk/include_ndk/android/binder_auto_utils.h",
   "template_args" : [ "_ZTIP13AIBinder_Weak", "_ZTIv" ]
  },
  {
   "alignment" : 8,
   "fields" :
   [
    {
     "access" : "private",
     "field_name" : "mT",
     "referenced_type" : "_ZTIP23AIBinder_DeathRecipient"
    }
   ],
   "linker_set_key" : "_ZTIN3ndk4impl15ScopedAResourceIP23AIBinder_DeathRecipientvXadL_Z30AIBinder_DeathRecipient_deleteEELS3_0EEE",
   "name" : "ndk::impl::ScopedAResource<AIBinder_DeathRecipient *, void, &AIBinder_DeathRecipient_delete, nullptr>",
   "record_kind" : "class",
   "referenced_type" : "_ZTIN3ndk4impl15ScopedAResourceIP23AIBinder_DeathRecipientvXadL_Z30AIBinder_DeathRecipient_deleteEELS3_0EEE",
   "self_type" : "_ZTIN3ndk4impl15ScopedAResourceIP23AIBinder_DeathRecipientvXadL_Z30AIBinder_DeathRecipient_deleteEELS3_0EEE",
   "size" : 8,
   "source_file" : "/frameworks/native/libs/binder/ndk/include_ndk/android/binder_auto_utils.h",
   "template_args" : [ "_ZTIP23AIBinder_DeathRecipient", "_ZTIv" ]
  },
  {
   "alignment" : 8,
   "fields" :
   [
    {
     "access" : "private",
     "field_name" : "mT",
     "referenced_type" : "_ZTIP7AParcel"
    }
   ],
   "linker_set_key" : "_ZTIN3ndk4impl15ScopedAResourceIP7AParcelvXadL_Z14AParcel_deleteEELS3_0EEE",
   "name" : "ndk::impl::ScopedAResource<AParcel *, void, &AParcel_delete, nullptr>",
   "record_kind" : "class",
   "referenced_type" : "_ZTIN3ndk4impl15ScopedAResourceIP7AParcelvXadL_Z14AParcel_deleteEELS3_0EEE",
   "self_type" : "_ZTIN3ndk4impl15ScopedAResourceIP7AParcelvXadL_Z14AParcel_deleteEELS3_0EEE",
   "size" : 8,
   "source_file" : "/frameworks/native/libs/binder/ndk/include_ndk/android/binder_auto_utils.h",
   "template_args" : [ "_ZTIP7AParcel", "_ZTIv" ]
  },
  {
   "alignment" : 8,
   "fields" :
   [
    {
     "access" : "private",
     "field_name" : "mT",
     "referenced_type" : "_ZTIP7AStatus"
    }
   ],
   "linker_set_key" : "_ZTIN3ndk4impl15ScopedAResourceIP7AStatusvXadL_Z14AStatus_deleteEELS3_0EEE",
   "name" : "ndk::impl::ScopedAResource<AStatus *, void, &AStatus_delete, nullptr>",
   "record_kind" : "class",
   "referenced_type" : "_ZTIN3ndk4impl15ScopedAResourceIP7AStatusvXadL_Z14AStatus_deleteEELS3_0EEE",
   "self_type" : "_ZTIN3ndk4impl15ScopedAResourceIP7AStatusvXadL_Z14AStatus_deleteEELS3_0EEE",
   "size" : 8,
   "source_file" : "/frameworks/native/libs/binder/ndk/include_ndk/android/binder_auto_utils.h",
   "template_args" : [ "_ZTIP7AStatus", "_ZTIv" ]
  },
  {
   "alignment" : 4,
   "fields" :
   [
    {
     "access" : "private",
     "field_name" : "mT",
     "referenced_type" : "_ZTIi"
    }
   ],
   "linker_set_key" : "_ZTIN3ndk4impl15ScopedAResourceIiiXadL_Z5closeEELin1EEE",
   "name" : "ndk::impl::ScopedAResource<int, int, &close, -1>",
   "record_kind" : "class",
   "referenced_type" : "_ZTIN3ndk4impl15ScopedAResourceIiiXadL_Z5closeEELin1EEE",
   "self_type" : "_ZTIN3ndk4impl15ScopedAResourceIiiXadL_Z5closeEELin1EEE",
   "size" : 4,
   "source_file" : "/frameworks/native/libs/binder/ndk/include_ndk/android/binder_auto_utils.h",
   "template_args" : [ "_ZTIi", "_ZTIi" ]
  },
  {
   "alignment" : 8,
   "fields" :
   [
    {
     "field_name" : "encodedCertificate",
     "referenced_type" : "_ZTINSt3__16vectorIaNS_9allocatorIaEEEE"
    }
   ],
   "linker_set_key" : "_ZTIN4aidl7android8hardware8identity11CertificateE",
   "name" : "aidl::android::hardware::identity::Certificate",
   "record_kind" : "class",
   "referenced_type" : "_ZTIN4aidl7android8hardware8identity11CertificateE",
   "self_type" : "_ZTIN4aidl7android8hardware8identity11CertificateE",
   "size" : 24,
   "source_file" : "/out/soong/.intermediates/hardware/interfaces/identity/aidl/android.hardware.identity-ndk_platform-source/gen/include/aidl/android/hardware/identity/Certificate.h"
  },
  {
   "alignment" : 8,
   "fields" :
   [
    {
     "field_name" : "name",
     "referenced_type" : "_ZTINSt3__112basic_stringIcNS_11char_traitsIcEENS_9allocatorIcEEEE"
    },
    {
     "field_name" : "size",
     "field_offset" : 192,
     "referenced_type" : "_ZTIl"
    },
    {
     "field_name" : "accessControlProfileIds",
     "field_offset" : 256,
     "referenced_type" : "_ZTINSt3__16vectorIiNS_9allocatorIiEEEE"
    }
   ],
   "linker_set_key" : "_ZTIN4aidl7android8hardware8identity15RequestDataItemE",
   "name" : "aidl::android::hardware::identity::RequestDataItem",
   "record_kind" : "class",
   "referenced_type" : "_ZTIN4aidl7android8hardware8identity15RequestDataItemE",
   "self_type" : "_ZTIN4aidl7android8hardware8identity15RequestDataItemE",
   "size" : 56,
   "source_file" : "/out/soong/.intermediates/hardware/interfaces/identity/aidl/android.hardware.identity-ndk_platform-source/gen/include/aidl/android/hardware/identity/RequestDataItem.h"
  },
  {
   "alignment" : 8,
   "fields" :
   [
    {
     "field_name" : "namespaceName",
     "referenced_type" : "_ZTINSt3__112basic_stringIcNS_11char_traitsIcEENS_9allocatorIcEEEE"
    },
    {
     "field_name" : "items",
     "field_offset" : 192,
     "referenced_type" : "_ZTINSt3__16vectorIN4aidl7android8hardware8identity15RequestDataItemENS_9allocatorIS5_EEEE"
    }
   ],
   "linker_set_key" : "_ZTIN4aidl7android8hardware8identity16RequestNamespaceE",
   "name" : "aidl::android::hardware::identity::RequestNamespace",
   "record_kind" : "class",
   "referenced_type" : "_ZTIN4aidl7android8hardware8identity16RequestNamespaceE",
   "self_type" : "_ZTIN4aidl7android8hardware8identity16RequestNamespaceE",
   "size" : 48,
   "source_file" : "/out/soong/.intermediates/hardware/interfaces/identity/aidl/android.hardware.identity-ndk_platform-source/gen/include/aidl/android/hardware/identity/RequestNamespace.h"
  },
  {
   "alignment" : 8,
   "fields" :
   [
    {
     "field_name" : "credentialStoreName",
     "referenced_type" : "_ZTINSt3__112basic_stringIcNS_11char_traitsIcEENS_9allocatorIcEEEE"
    },
    {
     "field_name" : "credentialStoreAuthorName",
     "field_offset" : 192,
     "referenced_type" : "_ZTINSt3__112basic_stringIcNS_11char_traitsIcEENS_9allocatorIcEEEE"
    },
    {
     "field_name" : "dataChunkSize",
     "field_offset" : 384,
     "referenced_type" : "_ZTIi"
    },
    {
     "field_name" : "isDirectAccess",
     "field_offset" : 416,
     "referenced_type" : "_ZTIb"
    },
    {
     "field_name" : "supportedDocTypes",
     "field_offset" : 448,
     "referenced_type" : "_ZTINSt3__16vectorINS_12basic_stringIcNS_11char_traitsIcEENS_9allocatorIcEEEENS4_IS6_EEEE"
    }
   ],
   "linker_set_key" : "_ZTIN4aidl7android8hardware8identity19HardwareInformationE",
   "name" : "aidl::android::hardware::identity::HardwareInformation",
   "record_kind" : "class",
   "referenced_type" : "_ZTIN4aidl7android8hardware8identity19HardwareInformationE",
   "self_type" : "_ZTIN4aidl7android8hardware8identity19HardwareInformationE",
   "size" : 80,
   "source_file" : "/out/soong/.intermediates/hardware/interfaces/identity/aidl/android.hardware.identity-ndk_platform-source/gen/include/aidl/android/hardware/identity/HardwareInformation.h"
  },
  {
   "alignment" : 8,
   "base_specifiers" :
   [
    {
     "referenced_type" : "_ZTIN3ndk11ICInterfaceE"
    }
   ],
   "linker_set_key" : "_ZTIN4aidl7android8hardware8identity19IIdentityCredentialE",
   "name" : "aidl::android::hardware::identity::IIdentityCredential",
   "record_kind" : "class",
   "referenced_type" : "_ZTIN4aidl7android8hardware8identity19IIdentityCredentialE",
   "self_type" : "_ZTIN4aidl7android8hardware8identity19IIdentityCredentialE",
   "size" : 32,
   "source_file" : "/out/soong/.intermediates/hardware/interfaces/identity/aidl/android.hardware.identity-ndk_platform-source/gen/include/aidl/android/hardware/identity/IIdentityCredential.h",
   "vtable_components" :
   [
    {
     "kind" : "offset_to_top"
    },
    {
     "kind" : "rtti",
     "mangled_component_name" : "_ZTIN4aidl7android8hardware8identity19IIdentityCredentialE"
    },
    {
     "kind" : "complete_dtor_pointer",
     "mangled_component_name" : "_ZN4aidl7android8hardware8identity19IIdentityCredentialD1Ev"
    },
    {
     "kind" : "deleting_dtor_pointer",
     "mangled_component_name" : "_ZN4aidl7android8hardware8identity19IIdentityCredentialD0Ev"
    },
    {
     "is_pure" : true,
     "mangled_component_name" : "_ZN3ndk11ICInterface8asBinderEv"
    },
    {
     "is_pure" : true,
     "mangled_component_name" : "_ZN3ndk11ICInterface8isRemoteEv"
    },
    {
     "mangled_component_name" : "_ZN3ndk11ICInterface4dumpEiPPKcj"
    },
    {
     "mangled_component_name" : "_ZN3ndk11ICInterface18handleShellCommandEiiiPPKcj"
    },
    {
     "is_pure" : true,
     "mangled_component_name" : "_ZN4aidl7android8hardware8identity19IIdentityCredential16deleteCredentialEPNSt3__16vectorIaNS4_9allocatorIaEEEE"
    },
    {
     "is_pure" : true,
     "mangled_component_name" : "_ZN4aidl7android8hardware8identity19IIdentityCredential22createEphemeralKeyPairEPNSt3__16vectorIaNS4_9allocatorIaEEEE"
    },
    {
     "is_pure" : true,
     "mangled_component_name" : "_ZN4aidl7android8hardware8identity19IIdentityCredential27setReaderEphemeralPublicKeyERKNSt3__16vectorIaNS4_9allocatorIaEEEE"
    },
    {
     "is_pure" : true,
     "mangled_component_name" : "_ZN4aidl7android8hardware8identity19IIdentityCredential19createAuthChallengeEPl"
    },
    {
     "is_pure" : true,
     "mangled_component_name" : "_ZN4aidl7android8hardware8identity19IIdentityCredential14startRetrievalERKNSt3__16vectorINS2_26SecureAccessControlProfileENS4_9allocatorIS6_EEEERKNS1_9keymaster17HardwareAuthTokenERKNS5_IaNS7_IaEEEESJ_SJ_SJ_RKNS5_IiNS7_IiEEEE"
    },
    {
     "is_pure" : true,
     "mangled_component_name" : "_ZN4aidl7android8hardware8identity19IIdentityCredential23startRetrieveEntryValueERKNSt3__112basic_stringIcNS4_11char_traitsIcEENS4_9allocatorIcEEEESC_iRKNS4_6vectorIiNS8_IiEEEE"
    },
    {
     "is_pure" : true,
     "mangled_component_name" : "_ZN4aidl7android8hardware8identity19IIdentityCredential18retrieveEntryValueERKNSt3__16vectorIaNS4_9allocatorIaEEEEPS8_"
    },
    {
     "is_pure" : true,
     "mangled_component_name" : "_ZN4aidl7android8hardware8identity19IIdentityCredential15finishRetrievalEPNSt3__16vectorIaNS4_9allocatorIaEEEES9_"
    },
    {
     "is_pure" : true,
     "mangled_component_name" : "_ZN4aidl7android8hardware8identity19IIdentityCredential22generateSigningKeyPairEPNSt3__16vectorIaNS4_9allocatorIaEEEEPNS2_11CertificateE"
    },
    {
     "is_pure" : true,
     "mangled_component_name" : "_ZN4aidl7android8hardware8identity19IIdentityCredential22setRequestedNamespacesERKNSt3__16vectorINS2_16RequestNamespaceENS4_9allocatorIS6_EEEE"
    },
    {
     "is_pure" : true,
     "mangled_component_name" : "_ZN4aidl7android8hardware8identity19IIdentityCredential20setVerificationTokenERKNS1_9keymaster17VerificationTokenE"
    },
    {
     "is_pure" : true,
     "mangled_component_name" : "_ZN4aidl7android8hardware8identity19IIdentityCredential19getInterfaceVersionEPi"
    },
    {
     "is_pure" : true,
     "mangled_component_name" : "_ZN4aidl7android8hardware8identity19IIdentityCredential16getInterfaceHashEPNSt3__112basic_stringIcNS4_11char_traitsIcEENS4_9allocatorIcEEEE"
    }
   ]
  },
  {
   "alignment" : 8,
   "base_specifiers" :
   [
    {
     "referenced_type" : "_ZTIN3ndk12BnCInterfaceIN4aidl7android8hardware8identity19IIdentityCredentialEEE"
    }
   ],
   "linker_set_key" : "_ZTIN4aidl7android8hardware8identity20BnIdentityCredentialE",
   "name" : "aidl::android::hardware::identity::BnIdentityCredential",
   "record_kind" : "class",
   "referenced_type" : "_ZTIN4aidl7android8hardware8identity20BnIdentityCredentialE",
   "self_type" : "_ZTIN4aidl7android8hardware8identity20BnIdentityCredentialE",
   "size" : 80,
   "source_file" : "/out/soong/.intermediates/hardware/interfaces/identity/aidl/android.hardware.identity-ndk_platform-source/gen/include/aidl/android/hardware/identity/BnIdentityCredential.h",
   "vtable_components" :
   [
    {
     "kind" : "offset_to_top"
    },
    {
     "kind" : "rtti",
     "mangled_component_name" : "_ZTIN4aidl7android8hardware8identity20BnIdentityCredentialE"
    },
    {
     "kind" : "complete_dtor_pointer",
     "mangled_component_name" : "_ZN4aidl7android8hardware8identity20BnIdentityCredentialD1Ev"
    },
    {
     "kind" : "deleting_dtor_pointer",
     "mangled_component_name" : "_ZN4aidl7android8hardware8identity20BnIdentityCredentialD0Ev"
    },
    {
     "mangled_component_name" : "_ZN3ndk12BnCInterfaceIN4aidl7android8hardware8identity19IIdentityCredentialEE8asBinderEv"
    },
    {
     "mangled_component_name" : "_ZN3ndk12BnCInterfaceIN4aidl7android8hardware8identity19IIdentityCredentialEE8isRemoteEv"
    },
    {
     "mangled_component_name" : "_ZN3ndk11ICInterface4dumpEiPPKcj"
    },
    {
     "mangled_component_name" : "_ZN3ndk11ICInterface18handleShellCommandEiiiPPKcj"
    },
    {
     "is_pure" : true,
     "mangled_component_name" : "_ZN4aidl7android8hardware8identity19IIdentityCredential16deleteCredentialEPNSt3__16vectorIaNS4_9allocatorIaEEEE"
    },
    {
     "is_pure" : true,
     "mangled_component_name" : "_ZN4aidl7android8hardware8identity19IIdentityCredential22createEphemeralKeyPairEPNSt3__16vectorIaNS4_9allocatorIaEEEE"
    },
    {
     "is_pure" : true,
     "mangled_component_name" : "_ZN4aidl7android8hardware8identity19IIdentityCredential27setReaderEphemeralPublicKeyERKNSt3__16vectorIaNS4_9allocatorIaEEEE"
    },
    {
     "is_pure" : true,
     "mangled_component_name" : "_ZN4aidl7android8hardware8identity19IIdentityCredential19createAuthChallengeEPl"
    },
    {
     "is_pure" : true,
     "mangled_component_name" : "_ZN4aidl7android8hardware8identity19IIdentityCredential14startRetrievalERKNSt3__16vectorINS2_26SecureAccessControlProfileENS4_9allocatorIS6_EEEERKNS1_9keymaster17HardwareAuthTokenERKNS5_IaNS7_IaEEEESJ_SJ_SJ_RKNS5_IiNS7_IiEEEE"
    },
    {
     "is_pure" : true,
     "mangled_component_name" : "_ZN4aidl7android8hardware8identity19IIdentityCredential23startRetrieveEntryValueERKNSt3__112basic_stringIcNS4_11char_traitsIcEENS4_9allocatorIcEEEESC_iRKNS4_6vectorIiNS8_IiEEEE"
    },
    {
     "is_pure" : true,
     "mangled_component_name" : "_ZN4aidl7android8hardware8identity19IIdentityCredential18retrieveEntryValueERKNSt3__16vectorIaNS4_9allocatorIaEEEEPS8_"
    },
    {
     "is_pure" : true,
     "mangled_component_name" : "_ZN4aidl7android8hardware8identity19IIdentityCredential15finishRetrievalEPNSt3__16vectorIaNS4_9allocatorIaEEEES9_"
    },
    {
     "is_pure" : true,
     "mangled_component_name" : "_ZN4aidl7android8hardware8identity19IIdentityCredential22generateSigningKeyPairEPNSt3__16vectorIaNS4_9allocatorIaEEEEPNS2_11CertificateE"
    },
    {
     "is_pure" : true,
     "mangled_component_name" : "_ZN4aidl7android8hardware8identity19IIdentityCredential22setRequestedNamespacesERKNSt3__16vectorINS2_16RequestNamespaceENS4_9allocatorIS6_EEEE"
    },
    {
     "is_pure" : true,
     "mangled_component_name" : "_ZN4aidl7android8hardware8identity19IIdentityCredential20setVerificationTokenERKNS1_9keymaster17VerificationTokenE"
    },
    {
     "mangled_component_name" : "_ZN4aidl7android8hardware8identity20BnIdentityCredential19getInterfaceVersionEPi"
    },
    {
     "mangled_component_name" : "_ZN4aidl7android8hardware8identity20BnIdentityCredential16getInterfaceHashEPNSt3__112basic_stringIcNS4_11char_traitsIcEENS4_9allocatorIcEEEE"
    },
    {
     "mangled_component_name" : "_ZN4aidl7android8hardware8identity20BnIdentityCredential12createBinderEv"
    }
   ]
  },
  {
   "alignment" : 8,
   "base_specifiers" :
   [
    {
     "referenced_type" : "_ZTIN3ndk12BpCInterfaceIN4aidl7android8hardware8identity19IIdentityCredentialEEE"
    }
   ],
   "fields" :
   [
    {
     "field_name" : "_aidl_cached_version",
     "field_offset" : 320,
     "referenced_type" : "_ZTIi"
    },
    {
     "field_name" : "_aidl_cached_hash",
     "field_offset" : 384,
     "referenced_type" : "_ZTINSt3__112basic_stringIcNS_11char_traitsIcEENS_9allocatorIcEEEE"
    },
    {
     "field_name" : "_aidl_cached_hash_mutex",
     "field_offset" : 576,
     "referenced_type" : "_ZTINSt3__15mutexE"
    }
   ],
   "linker_set_key" : "_ZTIN4aidl7android8hardware8identity20BpIdentityCredentialE",
   "name" : "aidl::android::hardware::identity::BpIdentityCredential",
   "record_kind" : "class",
   "referenced_type" : "_ZTIN4aidl7android8hardware8identity20BpIdentityCredentialE",
   "self_type" : "_ZTIN4aidl7android8hardware8identity20BpIdentityCredentialE",
   "size" : 112,
   "source_file" : "/out/soong/.intermediates/hardware/interfaces/identity/aidl/android.hardware.identity-ndk_platform-source/gen/include/aidl/android/hardware/identity/BpIdentityCredential.h",
   "vtable_components" :
   [
    {
     "kind" : "offset_to_top"
    },
    {
     "kind" : "rtti",
     "mangled_component_name" : "_ZTIN4aidl7android8hardware8identity20BpIdentityCredentialE"
    },
    {
     "kind" : "complete_dtor_pointer",
     "mangled_component_name" : "_ZN4aidl7android8hardware8identity20BpIdentityCredentialD1Ev"
    },
    {
     "kind" : "deleting_dtor_pointer",
     "mangled_component_name" : "_ZN4aidl7android8hardware8identity20BpIdentityCredentialD0Ev"
    },
    {
     "mangled_component_name" : "_ZN3ndk12BpCInterfaceIN4aidl7android8hardware8identity19IIdentityCredentialEE8asBinderEv"
    },
    {
     "mangled_component_name" : "_ZN3ndk12BpCInterfaceIN4aidl7android8hardware8identity19IIdentityCredentialEE8isRemoteEv"
    },
    {
     "mangled_component_name" : "_ZN3ndk12BpCInterfaceIN4aidl7android8hardware8identity19IIdentityCredentialEE4dumpEiPPKcj"
    },
    {
     "mangled_component_name" : "_ZN3ndk11ICInterface18handleShellCommandEiiiPPKcj"
    },
    {
     "mangled_component_name" : "_ZN4aidl7android8hardware8identity20BpIdentityCredential16deleteCredentialEPNSt3__16vectorIaNS4_9allocatorIaEEEE"
    },
    {
     "mangled_component_name" : "_ZN4aidl7android8hardware8identity20BpIdentityCredential22createEphemeralKeyPairEPNSt3__16vectorIaNS4_9allocatorIaEEEE"
    },
    {
     "mangled_component_name" : "_ZN4aidl7android8hardware8identity20BpIdentityCredential27setReaderEphemeralPublicKeyERKNSt3__16vectorIaNS4_9allocatorIaEEEE"
    },
    {
     "mangled_component_name" : "_ZN4aidl7android8hardware8identity20BpIdentityCredential19createAuthChallengeEPl"
    },
    {
     "mangled_component_name" : "_ZN4aidl7android8hardware8identity20BpIdentityCredential14startRetrievalERKNSt3__16vectorINS2_26SecureAccessControlProfileENS4_9allocatorIS6_EEEERKNS1_9keymaster17HardwareAuthTokenERKNS5_IaNS7_IaEEEESJ_SJ_SJ_RKNS5_IiNS7_IiEEEE"
    },
    {
     "mangled_component_name" : "_ZN4aidl7android8hardware8identity20BpIdentityCredential23startRetrieveEntryValueERKNSt3__112basic_stringIcNS4_11char_traitsIcEENS4_9allocatorIcEEEESC_iRKNS4_6vectorIiNS8_IiEEEE"
    },
    {
     "mangled_component_name" : "_ZN4aidl7android8hardware8identity20BpIdentityCredential18retrieveEntryValueERKNSt3__16vectorIaNS4_9allocatorIaEEEEPS8_"
    },
    {
     "mangled_component_name" : "_ZN4aidl7android8hardware8identity20BpIdentityCredential15finishRetrievalEPNSt3__16vectorIaNS4_9allocatorIaEEEES9_"
    },
    {
     "mangled_component_name" : "_ZN4aidl7android8hardware8identity20BpIdentityCredential22generateSigningKeyPairEPNSt3__16vectorIaNS4_9allocatorIaEEEEPNS2_11CertificateE"
    },
    {
     "mangled_component_name" : "_ZN4aidl7android8hardware8identity20BpIdentityCredential22setRequestedNamespacesERKNSt3__16vectorINS2_16RequestNamespaceENS4_9allocatorIS6_EEEE"
    },
    {
     "mangled_component_name" : "_ZN4aidl7android8hardware8identity20BpIdentityCredential20setVerificationTokenERKNS1_9keymaster17VerificationTokenE"
    },
    {
     "mangled_component_name" : "_ZN4aidl7android8hardware8identity20BpIdentityCredential19getInterfaceVersionEPi"
    },
    {
     "mangled_component_name" : "_ZN4aidl7android8hardware8identity20BpIdentityCredential16getInterfaceHashEPNSt3__112basic_stringIcNS4_11char_traitsIcEENS4_9allocatorIcEEEE"
    }
   ]
  },
  {
   "alignment" : 8,
   "base_specifiers" :
   [
    {
     "referenced_type" : "_ZTIN3ndk11ICInterfaceE"
    }
   ],
   "linker_set_key" : "_ZTIN4aidl7android8hardware8identity24IIdentityCredentialStoreE",
   "name" : "aidl::android::hardware::identity::IIdentityCredentialStore",
   "record_kind" : "class",
   "referenced_type" : "_ZTIN4aidl7android8hardware8identity24IIdentityCredentialStoreE",
   "self_type" : "_ZTIN4aidl7android8hardware8identity24IIdentityCredentialStoreE",
   "size" : 32,
   "source_file" : "/out/soong/.intermediates/hardware/interfaces/identity/aidl/android.hardware.identity-ndk_platform-source/gen/include/aidl/android/hardware/identity/IIdentityCredentialStore.h",
   "vtable_components" :
   [
    {
     "kind" : "offset_to_top"
    },
    {
     "kind" : "rtti",
     "mangled_component_name" : "_ZTIN4aidl7android8hardware8identity24IIdentityCredentialStoreE"
    },
    {
     "kind" : "complete_dtor_pointer",
     "mangled_component_name" : "_ZN4aidl7android8hardware8identity24IIdentityCredentialStoreD1Ev"
    },
    {
     "kind" : "deleting_dtor_pointer",
     "mangled_component_name" : "_ZN4aidl7android8hardware8identity24IIdentityCredentialStoreD0Ev"
    },
    {
     "is_pure" : true,
     "mangled_component_name" : "_ZN3ndk11ICInterface8asBinderEv"
    },
    {
     "is_pure" : true,
     "mangled_component_name" : "_ZN3ndk11ICInterface8isRemoteEv"
    },
    {
     "mangled_component_name" : "_ZN3ndk11ICInterface4dumpEiPPKcj"
    },
    {
     "mangled_component_name" : "_ZN3ndk11ICInterface18handleShellCommandEiiiPPKcj"
    },
    {
     "is_pure" : true,
     "mangled_component_name" : "_ZN4aidl7android8hardware8identity24IIdentityCredentialStore22getHardwareInformationEPNS2_19HardwareInformationE"
    },
    {
     "is_pure" : true,
     "mangled_component_name" : "_ZN4aidl7android8hardware8identity24IIdentityCredentialStore16createCredentialERKNSt3__112basic_stringIcNS4_11char_traitsIcEENS4_9allocatorIcEEEEbPNS4_10shared_ptrINS2_27IWritableIdentityCredentialEEE"
    },
    {
     "is_pure" : true,
     "mangled_component_name" : "_ZN4aidl7android8hardware8identity24IIdentityCredentialStore13getCredentialENS2_11CipherSuiteERKNSt3__16vectorIaNS5_9allocatorIaEEEEPNS5_10shared_ptrINS2_19IIdentityCredentialEEE"
    },
    {
     "is_pure" : true,
     "mangled_component_name" : "_ZN4aidl7android8hardware8identity24IIdentityCredentialStore19getInterfaceVersionEPi"
    },
    {
     "is_pure" : true,
     "mangled_component_name" : "_ZN4aidl7android8hardware8identity24IIdentityCredentialStore16getInterfaceHashEPNSt3__112basic_stringIcNS4_11char_traitsIcEENS4_9allocatorIcEEEE"
    }
   ]
  },
  {
   "alignment" : 8,
   "base_specifiers" :
   [
    {
     "referenced_type" : "_ZTIN3ndk12BnCInterfaceIN4aidl7android8hardware8identity24IIdentityCredentialStoreEEE"
    }
   ],
   "linker_set_key" : "_ZTIN4aidl7android8hardware8identity25BnIdentityCredentialStoreE",
   "name" : "aidl::android::hardware::identity::BnIdentityCredentialStore",
   "record_kind" : "class",
   "referenced_type" : "_ZTIN4aidl7android8hardware8identity25BnIdentityCredentialStoreE",
   "self_type" : "_ZTIN4aidl7android8hardware8identity25BnIdentityCredentialStoreE",
   "size" : 80,
   "source_file" : "/out/soong/.intermediates/hardware/interfaces/identity/aidl/android.hardware.identity-ndk_platform-source/gen/include/aidl/android/hardware/identity/BnIdentityCredentialStore.h",
   "vtable_components" :
   [
    {
     "kind" : "offset_to_top"
    },
    {
     "kind" : "rtti",
     "mangled_component_name" : "_ZTIN4aidl7android8hardware8identity25BnIdentityCredentialStoreE"
    },
    {
     "kind" : "complete_dtor_pointer",
     "mangled_component_name" : "_ZN4aidl7android8hardware8identity25BnIdentityCredentialStoreD1Ev"
    },
    {
     "kind" : "deleting_dtor_pointer",
     "mangled_component_name" : "_ZN4aidl7android8hardware8identity25BnIdentityCredentialStoreD0Ev"
    },
    {
     "mangled_component_name" : "_ZN3ndk12BnCInterfaceIN4aidl7android8hardware8identity24IIdentityCredentialStoreEE8asBinderEv"
    },
    {
     "mangled_component_name" : "_ZN3ndk12BnCInterfaceIN4aidl7android8hardware8identity24IIdentityCredentialStoreEE8isRemoteEv"
    },
    {
     "mangled_component_name" : "_ZN3ndk11ICInterface4dumpEiPPKcj"
    },
    {
     "mangled_component_name" : "_ZN3ndk11ICInterface18handleShellCommandEiiiPPKcj"
    },
    {
     "is_pure" : true,
     "mangled_component_name" : "_ZN4aidl7android8hardware8identity24IIdentityCredentialStore22getHardwareInformationEPNS2_19HardwareInformationE"
    },
    {
     "is_pure" : true,
     "mangled_component_name" : "_ZN4aidl7android8hardware8identity24IIdentityCredentialStore16createCredentialERKNSt3__112basic_stringIcNS4_11char_traitsIcEENS4_9allocatorIcEEEEbPNS4_10shared_ptrINS2_27IWritableIdentityCredentialEEE"
    },
    {
     "is_pure" : true,
     "mangled_component_name" : "_ZN4aidl7android8hardware8identity24IIdentityCredentialStore13getCredentialENS2_11CipherSuiteERKNSt3__16vectorIaNS5_9allocatorIaEEEEPNS5_10shared_ptrINS2_19IIdentityCredentialEEE"
    },
    {
     "mangled_component_name" : "_ZN4aidl7android8hardware8identity25BnIdentityCredentialStore19getInterfaceVersionEPi"
    },
    {
     "mangled_component_name" : "_ZN4aidl7android8hardware8identity25BnIdentityCredentialStore16getInterfaceHashEPNSt3__112basic_stringIcNS4_11char_traitsIcEENS4_9allocatorIcEEEE"
    },
    {
     "mangled_component_name" : "_ZN4aidl7android8hardware8identity25BnIdentityCredentialStore12createBinderEv"
    }
   ]
  },
  {
   "alignment" : 8,
   "base_specifiers" :
   [
    {
     "referenced_type" : "_ZTIN3ndk12BpCInterfaceIN4aidl7android8hardware8identity24IIdentityCredentialStoreEEE"
    }
   ],
   "fields" :
   [
    {
     "field_name" : "_aidl_cached_version",
     "field_offset" : 320,
     "referenced_type" : "_ZTIi"
    },
    {
     "field_name" : "_aidl_cached_hash",
     "field_offset" : 384,
     "referenced_type" : "_ZTINSt3__112basic_stringIcNS_11char_traitsIcEENS_9allocatorIcEEEE"
    },
    {
     "field_name" : "_aidl_cached_hash_mutex",
     "field_offset" : 576,
     "referenced_type" : "_ZTINSt3__15mutexE"
    }
   ],
   "linker_set_key" : "_ZTIN4aidl7android8hardware8identity25BpIdentityCredentialStoreE",
   "name" : "aidl::android::hardware::identity::BpIdentityCredentialStore",
   "record_kind" : "class",
   "referenced_type" : "_ZTIN4aidl7android8hardware8identity25BpIdentityCredentialStoreE",
   "self_type" : "_ZTIN4aidl7android8hardware8identity25BpIdentityCredentialStoreE",
   "size" : 112,
   "source_file" : "/out/soong/.intermediates/hardware/interfaces/identity/aidl/android.hardware.identity-ndk_platform-source/gen/include/aidl/android/hardware/identity/BpIdentityCredentialStore.h",
   "vtable_components" :
   [
    {
     "kind" : "offset_to_top"
    },
    {
     "kind" : "rtti",
     "mangled_component_name" : "_ZTIN4aidl7android8hardware8identity25BpIdentityCredentialStoreE"
    },
    {
     "kind" : "complete_dtor_pointer",
     "mangled_component_name" : "_ZN4aidl7android8hardware8identity25BpIdentityCredentialStoreD1Ev"
    },
    {
     "kind" : "deleting_dtor_pointer",
     "mangled_component_name" : "_ZN4aidl7android8hardware8identity25BpIdentityCredentialStoreD0Ev"
    },
    {
     "mangled_component_name" : "_ZN3ndk12BpCInterfaceIN4aidl7android8hardware8identity24IIdentityCredentialStoreEE8asBinderEv"
    },
    {
     "mangled_component_name" : "_ZN3ndk12BpCInterfaceIN4aidl7android8hardware8identity24IIdentityCredentialStoreEE8isRemoteEv"
    },
    {
     "mangled_component_name" : "_ZN3ndk12BpCInterfaceIN4aidl7android8hardware8identity24IIdentityCredentialStoreEE4dumpEiPPKcj"
    },
    {
     "mangled_component_name" : "_ZN3ndk11ICInterface18handleShellCommandEiiiPPKcj"
    },
    {
     "mangled_component_name" : "_ZN4aidl7android8hardware8identity25BpIdentityCredentialStore22getHardwareInformationEPNS2_19HardwareInformationE"
    },
    {
     "mangled_component_name" : "_ZN4aidl7android8hardware8identity25BpIdentityCredentialStore16createCredentialERKNSt3__112basic_stringIcNS4_11char_traitsIcEENS4_9allocatorIcEEEEbPNS4_10shared_ptrINS2_27IWritableIdentityCredentialEEE"
    },
    {
     "mangled_component_name" : "_ZN4aidl7android8hardware8identity25BpIdentityCredentialStore13getCredentialENS2_11CipherSuiteERKNSt3__16vectorIaNS5_9allocatorIaEEEEPNS5_10shared_ptrINS2_19IIdentityCredentialEEE"
    },
    {
     "mangled_component_name" : "_ZN4aidl7android8hardware8identity25BpIdentityCredentialStore19getInterfaceVersionEPi"
    },
    {
     "mangled_component_name" : "_ZN4aidl7android8hardware8identity25BpIdentityCredentialStore16getInterfaceHashEPNSt3__112basic_stringIcNS4_11char_traitsIcEENS4_9allocatorIcEEEE"
    }
   ]
  },
  {
   "alignment" : 8,
   "base_specifiers" :
   [
    {
     "referenced_type" : "_ZTIN4aidl7android8hardware8identity19IIdentityCredentialE"
    }
   ],
   "linker_set_key" : "_ZTIN4aidl7android8hardware8identity26IIdentityCredentialDefaultE",
   "name" : "aidl::android::hardware::identity::IIdentityCredentialDefault",
   "record_kind" : "class",
   "referenced_type" : "_ZTIN4aidl7android8hardware8identity26IIdentityCredentialDefaultE",
   "self_type" : "_ZTIN4aidl7android8hardware8identity26IIdentityCredentialDefaultE",
   "size" : 32,
   "source_file" : "/out/soong/.intermediates/hardware/interfaces/identity/aidl/android.hardware.identity-ndk_platform-source/gen/include/aidl/android/hardware/identity/IIdentityCredential.h",
   "vtable_components" :
   [
    {
     "kind" : "offset_to_top"
    },
    {
     "kind" : "rtti",
     "mangled_component_name" : "_ZTIN4aidl7android8hardware8identity26IIdentityCredentialDefaultE"
    },
    {
     "kind" : "complete_dtor_pointer",
     "mangled_component_name" : "_ZN4aidl7android8hardware8identity26IIdentityCredentialDefaultD1Ev"
    },
    {
     "kind" : "deleting_dtor_pointer",
     "mangled_component_name" : "_ZN4aidl7android8hardware8identity26IIdentityCredentialDefaultD0Ev"
    },
    {
     "mangled_component_name" : "_ZN4aidl7android8hardware8identity26IIdentityCredentialDefault8asBinderEv"
    },
    {
     "mangled_component_name" : "_ZN4aidl7android8hardware8identity26IIdentityCredentialDefault8isRemoteEv"
    },
    {
     "mangled_component_name" : "_ZN3ndk11ICInterface4dumpEiPPKcj"
    },
    {
     "mangled_component_name" : "_ZN3ndk11ICInterface18handleShellCommandEiiiPPKcj"
    },
    {
     "mangled_component_name" : "_ZN4aidl7android8hardware8identity26IIdentityCredentialDefault16deleteCredentialEPNSt3__16vectorIaNS4_9allocatorIaEEEE"
    },
    {
     "mangled_component_name" : "_ZN4aidl7android8hardware8identity26IIdentityCredentialDefault22createEphemeralKeyPairEPNSt3__16vectorIaNS4_9allocatorIaEEEE"
    },
    {
     "mangled_component_name" : "_ZN4aidl7android8hardware8identity26IIdentityCredentialDefault27setReaderEphemeralPublicKeyERKNSt3__16vectorIaNS4_9allocatorIaEEEE"
    },
    {
     "mangled_component_name" : "_ZN4aidl7android8hardware8identity26IIdentityCredentialDefault19createAuthChallengeEPl"
    },
    {
     "mangled_component_name" : "_ZN4aidl7android8hardware8identity26IIdentityCredentialDefault14startRetrievalERKNSt3__16vectorINS2_26SecureAccessControlProfileENS4_9allocatorIS6_EEEERKNS1_9keymaster17HardwareAuthTokenERKNS5_IaNS7_IaEEEESJ_SJ_SJ_RKNS5_IiNS7_IiEEEE"
    },
    {
     "mangled_component_name" : "_ZN4aidl7android8hardware8identity26IIdentityCredentialDefault23startRetrieveEntryValueERKNSt3__112basic_stringIcNS4_11char_traitsIcEENS4_9allocatorIcEEEESC_iRKNS4_6vectorIiNS8_IiEEEE"
    },
    {
     "mangled_component_name" : "_ZN4aidl7android8hardware8identity26IIdentityCredentialDefault18retrieveEntryValueERKNSt3__16vectorIaNS4_9allocatorIaEEEEPS8_"
    },
    {
     "mangled_component_name" : "_ZN4aidl7android8hardware8identity26IIdentityCredentialDefault15finishRetrievalEPNSt3__16vectorIaNS4_9allocatorIaEEEES9_"
    },
    {
     "mangled_component_name" : "_ZN4aidl7android8hardware8identity26IIdentityCredentialDefault22generateSigningKeyPairEPNSt3__16vectorIaNS4_9allocatorIaEEEEPNS2_11CertificateE"
    },
    {
     "mangled_component_name" : "_ZN4aidl7android8hardware8identity26IIdentityCredentialDefault22setRequestedNamespacesERKNSt3__16vectorINS2_16RequestNamespaceENS4_9allocatorIS6_EEEE"
    },
    {
     "mangled_component_name" : "_ZN4aidl7android8hardware8identity26IIdentityCredentialDefault20setVerificationTokenERKNS1_9keymaster17VerificationTokenE"
    },
    {
     "mangled_component_name" : "_ZN4aidl7android8hardware8identity26IIdentityCredentialDefault19getInterfaceVersionEPi"
    },
    {
     "mangled_component_name" : "_ZN4aidl7android8hardware8identity26IIdentityCredentialDefault16getInterfaceHashEPNSt3__112basic_stringIcNS4_11char_traitsIcEENS4_9allocatorIcEEEE"
    }
   ]
  },
  {
   "alignment" : 8,
   "fields" :
   [
    {
     "field_name" : "id",
     "referenced_type" : "_ZTIi"
    },
    {
     "field_name" : "readerCertificate",
     "field_offset" : 64,
     "referenced_type" : "_ZTIN4aidl7android8hardware8identity11CertificateE"
    },
    {
     "field_name" : "userAuthenticationRequired",
     "field_offset" : 256,
     "referenced_type" : "_ZTIb"
    },
    {
     "field_name" : "timeoutMillis",
     "field_offset" : 320,
     "referenced_type" : "_ZTIl"
    },
    {
     "field_name" : "secureUserId",
     "field_offset" : 384,
     "referenced_type" : "_ZTIl"
    },
    {
     "field_name" : "mac",
     "field_offset" : 448,
     "referenced_type" : "_ZTINSt3__16vectorIaNS_9allocatorIaEEEE"
    }
   ],
   "linker_set_key" : "_ZTIN4aidl7android8hardware8identity26SecureAccessControlProfileE",
   "name" : "aidl::android::hardware::identity::SecureAccessControlProfile",
   "record_kind" : "class",
   "referenced_type" : "_ZTIN4aidl7android8hardware8identity26SecureAccessControlProfileE",
   "self_type" : "_ZTIN4aidl7android8hardware8identity26SecureAccessControlProfileE",
   "size" : 80,
   "source_file" : "/out/soong/.intermediates/hardware/interfaces/identity/aidl/android.hardware.identity-ndk_platform-source/gen/include/aidl/android/hardware/identity/SecureAccessControlProfile.h"
  },
  {
   "alignment" : 8,
   "base_specifiers" :
   [
    {
     "referenced_type" : "_ZTIN3ndk11ICInterfaceE"
    }
   ],
   "linker_set_key" : "_ZTIN4aidl7android8hardware8identity27IWritableIdentityCredentialE",
   "name" : "aidl::android::hardware::identity::IWritableIdentityCredential",
   "record_kind" : "class",
   "referenced_type" : "_ZTIN4aidl7android8hardware8identity27IWritableIdentityCredentialE",
   "self_type" : "_ZTIN4aidl7android8hardware8identity27IWritableIdentityCredentialE",
   "size" : 32,
   "source_file" : "/out/soong/.intermediates/hardware/interfaces/identity/aidl/android.hardware.identity-ndk_platform-source/gen/include/aidl/android/hardware/identity/IWritableIdentityCredential.h",
   "vtable_components" :
   [
    {
     "kind" : "offset_to_top"
    },
    {
     "kind" : "rtti",
     "mangled_component_name" : "_ZTIN4aidl7android8hardware8identity27IWritableIdentityCredentialE"
    },
    {
     "kind" : "complete_dtor_pointer",
     "mangled_component_name" : "_ZN4aidl7android8hardware8identity27IWritableIdentityCredentialD1Ev"
    },
    {
     "kind" : "deleting_dtor_pointer",
     "mangled_component_name" : "_ZN4aidl7android8hardware8identity27IWritableIdentityCredentialD0Ev"
    },
    {
     "is_pure" : true,
     "mangled_component_name" : "_ZN3ndk11ICInterface8asBinderEv"
    },
    {
     "is_pure" : true,
     "mangled_component_name" : "_ZN3ndk11ICInterface8isRemoteEv"
    },
    {
     "mangled_component_name" : "_ZN3ndk11ICInterface4dumpEiPPKcj"
    },
    {
     "mangled_component_name" : "_ZN3ndk11ICInterface18handleShellCommandEiiiPPKcj"
    },
    {
     "is_pure" : true,
     "mangled_component_name" : "_ZN4aidl7android8hardware8identity27IWritableIdentityCredential25getAttestationCertificateERKNSt3__16vectorIaNS4_9allocatorIaEEEESA_PNS5_INS2_11CertificateENS6_ISB_EEEE"
    },
    {
     "is_pure" : true,
     "mangled_component_name" : "_ZN4aidl7android8hardware8identity27IWritableIdentityCredential20startPersonalizationEiRKNSt3__16vectorIiNS4_9allocatorIiEEEE"
    },
    {
     "is_pure" : true,
     "mangled_component_name" : "_ZN4aidl7android8hardware8identity27IWritableIdentityCredential23addAccessControlProfileEiRKNS2_11CertificateEbllPNS2_26SecureAccessControlProfileE"
    },
    {
     "is_pure" : true,
     "mangled_component_name" : "_ZN4aidl7android8hardware8identity27IWritableIdentityCredential13beginAddEntryERKNSt3__16vectorIiNS4_9allocatorIiEEEERKNS4_12basic_stringIcNS4_11char_traitsIcEENS6_IcEEEESH_i"
    },
    {
     "is_pure" : true,
     "mangled_component_name" : "_ZN4aidl7android8hardware8identity27IWritableIdentityCredential13addEntryValueERKNSt3__16vectorIaNS4_9allocatorIaEEEEPS8_"
    },
    {
     "is_pure" : true,
     "mangled_component_name" : "_ZN4aidl7android8hardware8identity27IWritableIdentityCredential19finishAddingEntriesEPNSt3__16vectorIaNS4_9allocatorIaEEEES9_"
    },
    {
     "is_pure" : true,
     "mangled_component_name" : "_ZN4aidl7android8hardware8identity27IWritableIdentityCredential34setExpectedProofOfProvisioningSizeEi"
    },
    {
     "is_pure" : true,
     "mangled_component_name" : "_ZN4aidl7android8hardware8identity27IWritableIdentityCredential19getInterfaceVersionEPi"
    },
    {
     "is_pure" : true,
     "mangled_component_name" : "_ZN4aidl7android8hardware8identity27IWritableIdentityCredential16getInterfaceHashEPNSt3__112basic_stringIcNS4_11char_traitsIcEENS4_9allocatorIcEEEE"
    }
   ]
  },
  {
   "alignment" : 8,
   "base_specifiers" :
   [
    {
     "referenced_type" : "_ZTIN3ndk12BnCInterfaceIN4aidl7android8hardware8identity27IWritableIdentityCredentialEEE"
    }
   ],
   "linker_set_key" : "_ZTIN4aidl7android8hardware8identity28BnWritableIdentityCredentialE",
   "name" : "aidl::android::hardware::identity::BnWritableIdentityCredential",
   "record_kind" : "class",
   "referenced_type" : "_ZTIN4aidl7android8hardware8identity28BnWritableIdentityCredentialE",
   "self_type" : "_ZTIN4aidl7android8hardware8identity28BnWritableIdentityCredentialE",
   "size" : 80,
   "source_file" : "/out/soong/.intermediates/hardware/interfaces/identity/aidl/android.hardware.identity-ndk_platform-source/gen/include/aidl/android/hardware/identity/BnWritableIdentityCredential.h",
   "vtable_components" :
   [
    {
     "kind" : "offset_to_top"
    },
    {
     "kind" : "rtti",
     "mangled_component_name" : "_ZTIN4aidl7android8hardware8identity28BnWritableIdentityCredentialE"
    },
    {
     "kind" : "complete_dtor_pointer",
     "mangled_component_name" : "_ZN4aidl7android8hardware8identity28BnWritableIdentityCredentialD1Ev"
    },
    {
     "kind" : "deleting_dtor_pointer",
     "mangled_component_name" : "_ZN4aidl7android8hardware8identity28BnWritableIdentityCredentialD0Ev"
    },
    {
     "mangled_component_name" : "_ZN3ndk12BnCInterfaceIN4aidl7android8hardware8identity27IWritableIdentityCredentialEE8asBinderEv"
    },
    {
     "mangled_component_name" : "_ZN3ndk12BnCInterfaceIN4aidl7android8hardware8identity27IWritableIdentityCredentialEE8isRemoteEv"
    },
    {
     "mangled_component_name" : "_ZN3ndk11ICInterface4dumpEiPPKcj"
    },
    {
     "mangled_component_name" : "_ZN3ndk11ICInterface18handleShellCommandEiiiPPKcj"
    },
    {
     "is_pure" : true,
     "mangled_component_name" : "_ZN4aidl7android8hardware8identity27IWritableIdentityCredential25getAttestationCertificateERKNSt3__16vectorIaNS4_9allocatorIaEEEESA_PNS5_INS2_11CertificateENS6_ISB_EEEE"
    },
    {
     "is_pure" : true,
     "mangled_component_name" : "_ZN4aidl7android8hardware8identity27IWritableIdentityCredential20startPersonalizationEiRKNSt3__16vectorIiNS4_9allocatorIiEEEE"
    },
    {
     "is_pure" : true,
     "mangled_component_name" : "_ZN4aidl7android8hardware8identity27IWritableIdentityCredential23addAccessControlProfileEiRKNS2_11CertificateEbllPNS2_26SecureAccessControlProfileE"
    },
    {
     "is_pure" : true,
     "mangled_component_name" : "_ZN4aidl7android8hardware8identity27IWritableIdentityCredential13beginAddEntryERKNSt3__16vectorIiNS4_9allocatorIiEEEERKNS4_12basic_stringIcNS4_11char_traitsIcEENS6_IcEEEESH_i"
    },
    {
     "is_pure" : true,
     "mangled_component_name" : "_ZN4aidl7android8hardware8identity27IWritableIdentityCredential13addEntryValueERKNSt3__16vectorIaNS4_9allocatorIaEEEEPS8_"
    },
    {
     "is_pure" : true,
     "mangled_component_name" : "_ZN4aidl7android8hardware8identity27IWritableIdentityCredential19finishAddingEntriesEPNSt3__16vectorIaNS4_9allocatorIaEEEES9_"
    },
    {
     "is_pure" : true,
     "mangled_component_name" : "_ZN4aidl7android8hardware8identity27IWritableIdentityCredential34setExpectedProofOfProvisioningSizeEi"
    },
    {
     "mangled_component_name" : "_ZN4aidl7android8hardware8identity28BnWritableIdentityCredential19getInterfaceVersionEPi"
    },
    {
     "mangled_component_name" : "_ZN4aidl7android8hardware8identity28BnWritableIdentityCredential16getInterfaceHashEPNSt3__112basic_stringIcNS4_11char_traitsIcEENS4_9allocatorIcEEEE"
    },
    {
     "mangled_component_name" : "_ZN4aidl7android8hardware8identity28BnWritableIdentityCredential12createBinderEv"
    }
   ]
  },
  {
   "alignment" : 8,
   "base_specifiers" :
   [
    {
     "referenced_type" : "_ZTIN3ndk12BpCInterfaceIN4aidl7android8hardware8identity27IWritableIdentityCredentialEEE"
    }
   ],
   "fields" :
   [
    {
     "field_name" : "_aidl_cached_version",
     "field_offset" : 320,
     "referenced_type" : "_ZTIi"
    },
    {
     "field_name" : "_aidl_cached_hash",
     "field_offset" : 384,
     "referenced_type" : "_ZTINSt3__112basic_stringIcNS_11char_traitsIcEENS_9allocatorIcEEEE"
    },
    {
     "field_name" : "_aidl_cached_hash_mutex",
     "field_offset" : 576,
     "referenced_type" : "_ZTINSt3__15mutexE"
    }
   ],
   "linker_set_key" : "_ZTIN4aidl7android8hardware8identity28BpWritableIdentityCredentialE",
   "name" : "aidl::android::hardware::identity::BpWritableIdentityCredential",
   "record_kind" : "class",
   "referenced_type" : "_ZTIN4aidl7android8hardware8identity28BpWritableIdentityCredentialE",
   "self_type" : "_ZTIN4aidl7android8hardware8identity28BpWritableIdentityCredentialE",
   "size" : 112,
   "source_file" : "/out/soong/.intermediates/hardware/interfaces/identity/aidl/android.hardware.identity-ndk_platform-source/gen/include/aidl/android/hardware/identity/BpWritableIdentityCredential.h",
   "vtable_components" :
   [
    {
     "kind" : "offset_to_top"
    },
    {
     "kind" : "rtti",
     "mangled_component_name" : "_ZTIN4aidl7android8hardware8identity28BpWritableIdentityCredentialE"
    },
    {
     "kind" : "complete_dtor_pointer",
     "mangled_component_name" : "_ZN4aidl7android8hardware8identity28BpWritableIdentityCredentialD1Ev"
    },
    {
     "kind" : "deleting_dtor_pointer",
     "mangled_component_name" : "_ZN4aidl7android8hardware8identity28BpWritableIdentityCredentialD0Ev"
    },
    {
     "mangled_component_name" : "_ZN3ndk12BpCInterfaceIN4aidl7android8hardware8identity27IWritableIdentityCredentialEE8asBinderEv"
    },
    {
     "mangled_component_name" : "_ZN3ndk12BpCInterfaceIN4aidl7android8hardware8identity27IWritableIdentityCredentialEE8isRemoteEv"
    },
    {
     "mangled_component_name" : "_ZN3ndk12BpCInterfaceIN4aidl7android8hardware8identity27IWritableIdentityCredentialEE4dumpEiPPKcj"
    },
    {
     "mangled_component_name" : "_ZN3ndk11ICInterface18handleShellCommandEiiiPPKcj"
    },
    {
     "mangled_component_name" : "_ZN4aidl7android8hardware8identity28BpWritableIdentityCredential25getAttestationCertificateERKNSt3__16vectorIaNS4_9allocatorIaEEEESA_PNS5_INS2_11CertificateENS6_ISB_EEEE"
    },
    {
     "mangled_component_name" : "_ZN4aidl7android8hardware8identity28BpWritableIdentityCredential20startPersonalizationEiRKNSt3__16vectorIiNS4_9allocatorIiEEEE"
    },
    {
     "mangled_component_name" : "_ZN4aidl7android8hardware8identity28BpWritableIdentityCredential23addAccessControlProfileEiRKNS2_11CertificateEbllPNS2_26SecureAccessControlProfileE"
    },
    {
     "mangled_component_name" : "_ZN4aidl7android8hardware8identity28BpWritableIdentityCredential13beginAddEntryERKNSt3__16vectorIiNS4_9allocatorIiEEEERKNS4_12basic_stringIcNS4_11char_traitsIcEENS6_IcEEEESH_i"
    },
    {
     "mangled_component_name" : "_ZN4aidl7android8hardware8identity28BpWritableIdentityCredential13addEntryValueERKNSt3__16vectorIaNS4_9allocatorIaEEEEPS8_"
    },
    {
     "mangled_component_name" : "_ZN4aidl7android8hardware8identity28BpWritableIdentityCredential19finishAddingEntriesEPNSt3__16vectorIaNS4_9allocatorIaEEEES9_"
    },
    {
     "mangled_component_name" : "_ZN4aidl7android8hardware8identity28BpWritableIdentityCredential34setExpectedProofOfProvisioningSizeEi"
    },
    {
     "mangled_component_name" : "_ZN4aidl7android8hardware8identity28BpWritableIdentityCredential19getInterfaceVersionEPi"
    },
    {
     "mangled_component_name" : "_ZN4aidl7android8hardware8identity28BpWritableIdentityCredential16getInterfaceHashEPNSt3__112basic_stringIcNS4_11char_traitsIcEENS4_9allocatorIcEEEE"
    }
   ]
  },
  {
   "alignment" : 8,
   "base_specifiers" :
   [
    {
     "referenced_type" : "_ZTIN4aidl7android8hardware8identity24IIdentityCredentialStoreE"
    }
   ],
   "linker_set_key" : "_ZTIN4aidl7android8hardware8identity31IIdentityCredentialStoreDefaultE",
   "name" : "aidl::android::hardware::identity::IIdentityCredentialStoreDefault",
   "record_kind" : "class",
   "referenced_type" : "_ZTIN4aidl7android8hardware8identity31IIdentityCredentialStoreDefaultE",
   "self_type" : "_ZTIN4aidl7android8hardware8identity31IIdentityCredentialStoreDefaultE",
   "size" : 32,
   "source_file" : "/out/soong/.intermediates/hardware/interfaces/identity/aidl/android.hardware.identity-ndk_platform-source/gen/include/aidl/android/hardware/identity/IIdentityCredentialStore.h",
   "vtable_components" :
   [
    {
     "kind" : "offset_to_top"
    },
    {
     "kind" : "rtti",
     "mangled_component_name" : "_ZTIN4aidl7android8hardware8identity31IIdentityCredentialStoreDefaultE"
    },
    {
     "kind" : "complete_dtor_pointer",
     "mangled_component_name" : "_ZN4aidl7android8hardware8identity31IIdentityCredentialStoreDefaultD1Ev"
    },
    {
     "kind" : "deleting_dtor_pointer",
     "mangled_component_name" : "_ZN4aidl7android8hardware8identity31IIdentityCredentialStoreDefaultD0Ev"
    },
    {
     "mangled_component_name" : "_ZN4aidl7android8hardware8identity31IIdentityCredentialStoreDefault8asBinderEv"
    },
    {
     "mangled_component_name" : "_ZN4aidl7android8hardware8identity31IIdentityCredentialStoreDefault8isRemoteEv"
    },
    {
     "mangled_component_name" : "_ZN3ndk11ICInterface4dumpEiPPKcj"
    },
    {
     "mangled_component_name" : "_ZN3ndk11ICInterface18handleShellCommandEiiiPPKcj"
    },
    {
     "mangled_component_name" : "_ZN4aidl7android8hardware8identity31IIdentityCredentialStoreDefault22getHardwareInformationEPNS2_19HardwareInformationE"
    },
    {
     "mangled_component_name" : "_ZN4aidl7android8hardware8identity31IIdentityCredentialStoreDefault16createCredentialERKNSt3__112basic_stringIcNS4_11char_traitsIcEENS4_9allocatorIcEEEEbPNS4_10shared_ptrINS2_27IWritableIdentityCredentialEEE"
    },
    {
     "mangled_component_name" : "_ZN4aidl7android8hardware8identity31IIdentityCredentialStoreDefault13getCredentialENS2_11CipherSuiteERKNSt3__16vectorIaNS5_9allocatorIaEEEEPNS5_10shared_ptrINS2_19IIdentityCredentialEEE"
    },
    {
     "mangled_component_name" : "_ZN4aidl7android8hardware8identity31IIdentityCredentialStoreDefault19getInterfaceVersionEPi"
    },
    {
     "mangled_component_name" : "_ZN4aidl7android8hardware8identity31IIdentityCredentialStoreDefault16getInterfaceHashEPNSt3__112basic_stringIcNS4_11char_traitsIcEENS4_9allocatorIcEEEE"
    }
   ]
  },
  {
   "alignment" : 8,
   "base_specifiers" :
   [
    {
     "referenced_type" : "_ZTIN4aidl7android8hardware8identity27IWritableIdentityCredentialE"
    }
   ],
   "linker_set_key" : "_ZTIN4aidl7android8hardware8identity34IWritableIdentityCredentialDefaultE",
   "name" : "aidl::android::hardware::identity::IWritableIdentityCredentialDefault",
   "record_kind" : "class",
   "referenced_type" : "_ZTIN4aidl7android8hardware8identity34IWritableIdentityCredentialDefaultE",
   "self_type" : "_ZTIN4aidl7android8hardware8identity34IWritableIdentityCredentialDefaultE",
   "size" : 32,
   "source_file" : "/out/soong/.intermediates/hardware/interfaces/identity/aidl/android.hardware.identity-ndk_platform-source/gen/include/aidl/android/hardware/identity/IWritableIdentityCredential.h",
   "vtable_components" :
   [
    {
     "kind" : "offset_to_top"
    },
    {
     "kind" : "rtti",
     "mangled_component_name" : "_ZTIN4aidl7android8hardware8identity34IWritableIdentityCredentialDefaultE"
    },
    {
     "kind" : "complete_dtor_pointer",
     "mangled_component_name" : "_ZN4aidl7android8hardware8identity34IWritableIdentityCredentialDefaultD1Ev"
    },
    {
     "kind" : "deleting_dtor_pointer",
     "mangled_component_name" : "_ZN4aidl7android8hardware8identity34IWritableIdentityCredentialDefaultD0Ev"
    },
    {
     "mangled_component_name" : "_ZN4aidl7android8hardware8identity34IWritableIdentityCredentialDefault8asBinderEv"
    },
    {
     "mangled_component_name" : "_ZN4aidl7android8hardware8identity34IWritableIdentityCredentialDefault8isRemoteEv"
    },
    {
     "mangled_component_name" : "_ZN3ndk11ICInterface4dumpEiPPKcj"
    },
    {
     "mangled_component_name" : "_ZN3ndk11ICInterface18handleShellCommandEiiiPPKcj"
    },
    {
     "mangled_component_name" : "_ZN4aidl7android8hardware8identity34IWritableIdentityCredentialDefault25getAttestationCertificateERKNSt3__16vectorIaNS4_9allocatorIaEEEESA_PNS5_INS2_11CertificateENS6_ISB_EEEE"
    },
    {
     "mangled_component_name" : "_ZN4aidl7android8hardware8identity34IWritableIdentityCredentialDefault20startPersonalizationEiRKNSt3__16vectorIiNS4_9allocatorIiEEEE"
    },
    {
     "mangled_component_name" : "_ZN4aidl7android8hardware8identity34IWritableIdentityCredentialDefault23addAccessControlProfileEiRKNS2_11CertificateEbllPNS2_26SecureAccessControlProfileE"
    },
    {
     "mangled_component_name" : "_ZN4aidl7android8hardware8identity34IWritableIdentityCredentialDefault13beginAddEntryERKNSt3__16vectorIiNS4_9allocatorIiEEEERKNS4_12basic_stringIcNS4_11char_traitsIcEENS6_IcEEEESH_i"
    },
    {
     "mangled_component_name" : "_ZN4aidl7android8hardware8identity34IWritableIdentityCredentialDefault13addEntryValueERKNSt3__16vectorIaNS4_9allocatorIaEEEEPS8_"
    },
    {
     "mangled_component_name" : "_ZN4aidl7android8hardware8identity34IWritableIdentityCredentialDefault19finishAddingEntriesEPNSt3__16vectorIaNS4_9allocatorIaEEEES9_"
    },
    {
     "mangled_component_name" : "_ZN4aidl7android8hardware8identity34IWritableIdentityCredentialDefault34setExpectedProofOfProvisioningSizeEi"
    },
    {
     "mangled_component_name" : "_ZN4aidl7android8hardware8identity34IWritableIdentityCredentialDefault19getInterfaceVersionEPi"
    },
    {
     "mangled_component_name" : "_ZN4aidl7android8hardware8identity34IWritableIdentityCredentialDefault16getInterfaceHashEPNSt3__112basic_stringIcNS4_11char_traitsIcEENS4_9allocatorIcEEEE"
    }
   ]
  },
  {
   "alignment" : 8,
   "fields" :
   [
    {
     "field_name" : "challenge",
     "referenced_type" : "_ZTIl"
    },
    {
     "field_name" : "userId",
     "field_offset" : 64,
     "referenced_type" : "_ZTIl"
    },
    {
     "field_name" : "authenticatorId",
     "field_offset" : 128,
     "referenced_type" : "_ZTIl"
    },
    {
     "field_name" : "authenticatorType",
     "field_offset" : 192,
     "referenced_type" : "_ZTIN4aidl7android8hardware9keymaster25HardwareAuthenticatorTypeE"
    },
    {
     "field_name" : "timestamp",
     "field_offset" : 256,
     "referenced_type" : "_ZTIN4aidl7android8hardware9keymaster9TimestampE"
    },
    {
     "field_name" : "mac",
     "field_offset" : 320,
     "referenced_type" : "_ZTINSt3__16vectorIaNS_9allocatorIaEEEE"
    }
   ],
   "linker_set_key" : "_ZTIN4aidl7android8hardware9keymaster17HardwareAuthTokenE",
   "name" : "aidl::android::hardware::keymaster::HardwareAuthToken",
   "record_kind" : "class",
   "referenced_type" : "_ZTIN4aidl7android8hardware9keymaster17HardwareAuthTokenE",
   "self_type" : "_ZTIN4aidl7android8hardware9keymaster17HardwareAuthTokenE",
   "size" : 64,
   "source_file" : "/out/soong/.intermediates/hardware/interfaces/keymaster/aidl/android.hardware.keymaster-ndk_platform-source/gen/include/aidl/android/hardware/keymaster/HardwareAuthToken.h"
  },
  {
   "alignment" : 8,
   "fields" :
   [
    {
     "field_name" : "challenge",
     "referenced_type" : "_ZTIl"
    },
    {
     "field_name" : "timestamp",
     "field_offset" : 64,
     "referenced_type" : "_ZTIN4aidl7android8hardware9keymaster9TimestampE"
    },
    {
     "field_name" : "securityLevel",
     "field_offset" : 128,
     "referenced_type" : "_ZTIN4aidl7android8hardware9keymaster13SecurityLevelE"
    },
    {
     "field_name" : "mac",
     "field_offset" : 192,
     "referenced_type" : "_ZTINSt3__16vectorIaNS_9allocatorIaEEEE"
    }
   ],
   "linker_set_key" : "_ZTIN4aidl7android8hardware9keymaster17VerificationTokenE",
   "name" : "aidl::android::hardware::keymaster::VerificationToken",
   "record_kind" : "class",
   "referenced_type" : "_ZTIN4aidl7android8hardware9keymaster17VerificationTokenE",
   "self_type" : "_ZTIN4aidl7android8hardware9keymaster17VerificationTokenE",
   "size" : 48,
   "source_file" : "/out/soong/.intermediates/hardware/interfaces/keymaster/aidl/android.hardware.keymaster-ndk_platform-source/gen/include/aidl/android/hardware/keymaster/VerificationToken.h"
  },
  {
   "alignment" : 8,
   "fields" :
   [
    {
     "field_name" : "milliSeconds",
     "referenced_type" : "_ZTIl"
    }
   ],
   "linker_set_key" : "_ZTIN4aidl7android8hardware9keymaster9TimestampE",
   "name" : "aidl::android::hardware::keymaster::Timestamp",
   "record_kind" : "class",
   "referenced_type" : "_ZTIN4aidl7android8hardware9keymaster9TimestampE",
   "self_type" : "_ZTIN4aidl7android8hardware9keymaster9TimestampE",
   "size" : 8,
   "source_file" : "/out/soong/.intermediates/hardware/interfaces/keymaster/aidl/android.hardware.keymaster-ndk_platform-source/gen/include/aidl/android/hardware/keymaster/Timestamp.h"
  }
 ],
 "rvalue_reference_types" :
 [
  {
   "alignment" : 8,
   "linker_set_key" : "_ZTION3ndk13ScopedAParcelE",
   "name" : "ndk::ScopedAParcel &&",
   "referenced_type" : "_ZTIN3ndk13ScopedAParcelE",
   "self_type" : "_ZTION3ndk13ScopedAParcelE",
   "size" : 8,
   "source_file" : "/frameworks/native/libs/binder/ndk/include_ndk/android/binder_auto_utils.h"
  },
  {
   "alignment" : 8,
   "linker_set_key" : "_ZTION3ndk13ScopedAStatusE",
   "name" : "ndk::ScopedAStatus &&",
   "referenced_type" : "_ZTIN3ndk13ScopedAStatusE",
   "self_type" : "_ZTION3ndk13ScopedAStatusE",
   "size" : 8,
   "source_file" : "/frameworks/native/libs/binder/ndk/include_ndk/android/binder_auto_utils.h"
  },
  {
   "alignment" : 8,
   "linker_set_key" : "_ZTION3ndk19ScopedAIBinder_WeakE",
   "name" : "ndk::ScopedAIBinder_Weak &&",
   "referenced_type" : "_ZTIN3ndk19ScopedAIBinder_WeakE",
   "self_type" : "_ZTION3ndk19ScopedAIBinder_WeakE",
   "size" : 8,
   "source_file" : "/frameworks/native/libs/binder/ndk/include_ndk/android/binder_auto_utils.h"
  },
  {
   "alignment" : 8,
   "linker_set_key" : "_ZTION3ndk20ScopedFileDescriptorE",
   "name" : "ndk::ScopedFileDescriptor &&",
   "referenced_type" : "_ZTIN3ndk20ScopedFileDescriptorE",
   "self_type" : "_ZTION3ndk20ScopedFileDescriptorE",
   "size" : 8,
   "source_file" : "/frameworks/native/libs/binder/ndk/include_ndk/android/binder_auto_utils.h"
  },
  {
   "alignment" : 8,
   "linker_set_key" : "_ZTION3ndk29ScopedAIBinder_DeathRecipientE",
   "name" : "ndk::ScopedAIBinder_DeathRecipient &&",
   "referenced_type" : "_ZTIN3ndk29ScopedAIBinder_DeathRecipientE",
   "self_type" : "_ZTION3ndk29ScopedAIBinder_DeathRecipientE",
   "size" : 8,
   "source_file" : "/frameworks/native/libs/binder/ndk/include_ndk/android/binder_auto_utils.h"
  },
  {
   "alignment" : 8,
   "linker_set_key" : "_ZTION3ndk4impl15ScopedAResourceIP7AStatusvXadL_Z14AStatus_deleteEELS3_0EEE",
   "name" : "ndk::impl::ScopedAResource<AStatus *, void, &AStatus_delete, nullptr> &&",
   "referenced_type" : "_ZTIN3ndk4impl15ScopedAResourceIP7AStatusvXadL_Z14AStatus_deleteEELS3_0EEE",
   "self_type" : "_ZTION3ndk4impl15ScopedAResourceIP7AStatusvXadL_Z14AStatus_deleteEELS3_0EEE",
   "size" : 8,
   "source_file" : "/frameworks/native/libs/binder/ndk/include_ndk/android/binder_auto_utils.h"
  }
 ]
}
