{
 "array_types" :
 [
  {
   "alignment" : 4,
   "linker_set_key" : "_ZTIA0_i",
   "name" : "int [0]",
   "referenced_type" : "_ZTIi",
   "self_type" : "_ZTIA0_i",
   "source_file" : "/system/core/libcutils/include/cutils/native_handle.h"
  },
  {
   "alignment" : 1,
   "linker_set_key" : "_ZTIA10_c",
   "name" : "char [10]",
   "referenced_type" : "_ZTIc",
   "self_type" : "_ZTIA10_c",
   "size" : 10,
   "source_file" : "/frameworks/native/libs/binder/include/binder/TextOutput.h"
  },
  {
   "alignment" : 1,
   "linker_set_key" : "_ZTIA11_c",
   "name" : "char [11]",
   "referenced_type" : "_ZTIc",
   "self_type" : "_ZTIA11_c",
   "size" : 11,
   "source_file" : "/frameworks/native/libs/binder/include/binder/TextOutput.h"
  },
  {
   "alignment" : 1,
   "linker_set_key" : "_ZTIA12_c",
   "name" : "char [12]",
   "referenced_type" : "_ZTIc",
   "self_type" : "_ZTIA12_c",
   "size" : 12,
   "source_file" : "/frameworks/native/libs/binder/include/binder/TextOutput.h"
  },
  {
   "alignment" : 1,
   "linker_set_key" : "_ZTIA13_c",
   "name" : "char [13]",
   "referenced_type" : "_ZTIc",
   "self_type" : "_ZTIA13_c",
   "size" : 13,
   "source_file" : "/frameworks/native/libs/binder/include/binder/TextOutput.h"
  },
  {
   "alignment" : 1,
   "linker_set_key" : "_ZTIA14_c",
   "name" : "char [14]",
   "referenced_type" : "_ZTIc",
   "self_type" : "_ZTIA14_c",
   "size" : 14,
   "source_file" : "/frameworks/native/libs/binder/include/binder/TextOutput.h"
  },
  {
   "alignment" : 1,
   "linker_set_key" : "_ZTIA16_c",
   "name" : "char [16]",
   "referenced_type" : "_ZTIc",
   "self_type" : "_ZTIA16_c",
   "size" : 16,
   "source_file" : "/frameworks/native/libs/binder/include/binder/TextOutput.h"
  },
  {
   "alignment" : 1,
   "linker_set_key" : "_ZTIA17_c",
   "name" : "char [17]",
   "referenced_type" : "_ZTIc",
   "self_type" : "_ZTIA17_c",
   "size" : 17,
   "source_file" : "/frameworks/native/libs/binder/include/binder/TextOutput.h"
  },
  {
   "alignment" : 1,
   "linker_set_key" : "_ZTIA18_c",
   "name" : "char [18]",
   "referenced_type" : "_ZTIc",
   "self_type" : "_ZTIA18_c",
   "size" : 18,
   "source_file" : "/frameworks/native/libs/binder/include/binder/TextOutput.h"
  },
  {
   "alignment" : 1,
   "linker_set_key" : "_ZTIA19_c",
   "name" : "char [19]",
   "referenced_type" : "_ZTIc",
   "self_type" : "_ZTIA19_c",
   "size" : 19,
   "source_file" : "/frameworks/native/libs/binder/include/binder/TextOutput.h"
  },
  {
   "alignment" : 8,
   "linker_set_key" : "_ZTIA1_PKc",
   "name" : "const char *[1]",
   "referenced_type" : "_ZTIPKc",
   "self_type" : "_ZTIA1_PKc",
   "size" : 8,
   "source_file" : "/frameworks/native/libs/binder/include/binder/IInterface.h"
  },
  {
   "alignment" : 1,
   "linker_set_key" : "_ZTIA20_c",
   "name" : "char [20]",
   "referenced_type" : "_ZTIc",
   "self_type" : "_ZTIA20_c",
   "size" : 20,
   "source_file" : "/frameworks/native/libs/binder/include/binder/TextOutput.h"
  },
  {
   "alignment" : 2,
   "linker_set_key" : "_ZTIA22_Ds",
   "name" : "char16_t [22]",
   "referenced_type" : "_ZTIDs",
   "self_type" : "_ZTIA22_Ds",
   "size" : 44,
   "source_file" : "/system/core/libutils/include/utils/String16.h"
  },
  {
   "alignment" : 1,
   "linker_set_key" : "_ZTIA22_c",
   "name" : "char [22]",
   "referenced_type" : "_ZTIc",
   "self_type" : "_ZTIA22_c",
   "size" : 22,
   "source_file" : "/frameworks/native/libs/binder/include/binder/TextOutput.h"
  },
  {
   "alignment" : 1,
   "linker_set_key" : "_ZTIA25_c",
   "name" : "char [25]",
   "referenced_type" : "_ZTIc",
   "self_type" : "_ZTIA25_c",
   "size" : 25,
   "source_file" : "/frameworks/native/libs/binder/include/binder/TextOutput.h"
  },
  {
   "alignment" : 2,
   "linker_set_key" : "_ZTIA26_Ds",
   "name" : "char16_t [26]",
   "referenced_type" : "_ZTIDs",
   "self_type" : "_ZTIA26_Ds",
   "size" : 52,
   "source_file" : "/system/core/libutils/include/utils/String16.h"
  },
  {
   "alignment" : 2,
   "linker_set_key" : "_ZTIA27_Ds",
   "name" : "char16_t [27]",
   "referenced_type" : "_ZTIDs",
   "self_type" : "_ZTIA27_Ds",
   "size" : 54,
   "source_file" : "/system/core/libutils/include/utils/String16.h"
  },
  {
   "alignment" : 2,
   "linker_set_key" : "_ZTIA28_Ds",
   "name" : "char16_t [28]",
   "referenced_type" : "_ZTIDs",
   "self_type" : "_ZTIA28_Ds",
   "size" : 56,
   "source_file" : "/system/core/libutils/include/utils/String16.h"
  },
  {
   "alignment" : 1,
   "linker_set_key" : "_ZTIA28_c",
   "name" : "char [28]",
   "referenced_type" : "_ZTIc",
   "self_type" : "_ZTIA28_c",
   "size" : 28,
   "source_file" : "/frameworks/native/libs/binder/include/binder/TextOutput.h"
  },
  {
   "alignment" : 1,
   "linker_set_key" : "_ZTIA29_c",
   "name" : "char [29]",
   "referenced_type" : "_ZTIc",
   "self_type" : "_ZTIA29_c",
   "size" : 29,
   "source_file" : "/frameworks/native/libs/binder/include/binder/TextOutput.h"
  },
  {
   "alignment" : 1,
   "linker_set_key" : "_ZTIA2_c",
   "name" : "char [2]",
   "referenced_type" : "_ZTIc",
   "self_type" : "_ZTIA2_c",
   "size" : 2,
   "source_file" : "/frameworks/native/libs/binder/include/binder/TextOutput.h"
  },
  {
   "alignment" : 1,
   "linker_set_key" : "_ZTIA31_c",
   "name" : "char [31]",
   "referenced_type" : "_ZTIc",
   "self_type" : "_ZTIA31_c",
   "size" : 31,
   "source_file" : "/frameworks/native/libs/binder/include/binder/TextOutput.h"
  },
  {
   "alignment" : 1,
   "linker_set_key" : "_ZTIA32_c",
   "name" : "char [32]",
   "referenced_type" : "_ZTIc",
   "self_type" : "_ZTIA32_c",
   "size" : 32,
   "source_file" : "/frameworks/native/libs/binder/include/binder/TextOutput.h"
  },
  {
   "alignment" : 1,
   "linker_set_key" : "_ZTIA35_c",
   "name" : "char [35]",
   "referenced_type" : "_ZTIc",
   "self_type" : "_ZTIA35_c",
   "size" : 35,
   "source_file" : "/frameworks/native/libs/binder/include/binder/TextOutput.h"
  },
  {
   "alignment" : 1,
   "linker_set_key" : "_ZTIA37_c",
   "name" : "char [37]",
   "referenced_type" : "_ZTIc",
   "self_type" : "_ZTIA37_c",
   "size" : 37,
   "source_file" : "/frameworks/native/libs/binder/include/binder/TextOutput.h"
  },
  {
   "alignment" : 2,
   "linker_set_key" : "_ZTIA39_Ds",
   "name" : "char16_t [39]",
   "referenced_type" : "_ZTIDs",
   "self_type" : "_ZTIA39_Ds",
   "size" : 78,
   "source_file" : "/system/core/libutils/include/utils/String16.h"
  },
  {
   "alignment" : 1,
   "linker_set_key" : "_ZTIA3_c",
   "name" : "char [3]",
   "referenced_type" : "_ZTIc",
   "self_type" : "_ZTIA3_c",
   "size" : 3,
   "source_file" : "/frameworks/native/libs/binder/include/binder/TextOutput.h"
  },
  {
   "alignment" : 2,
   "linker_set_key" : "_ZTIA40_Ds",
   "name" : "char16_t [40]",
   "referenced_type" : "_ZTIDs",
   "self_type" : "_ZTIA40_Ds",
   "size" : 80,
   "source_file" : "/system/core/libutils/include/utils/String16.h"
  },
  {
   "alignment" : 2,
   "linker_set_key" : "_ZTIA41_Ds",
   "name" : "char16_t [41]",
   "referenced_type" : "_ZTIDs",
   "self_type" : "_ZTIA41_Ds",
   "size" : 82,
   "source_file" : "/system/core/libutils/include/utils/String16.h"
  },
  {
   "alignment" : 2,
   "linker_set_key" : "_ZTIA42_Ds",
   "name" : "char16_t [42]",
   "referenced_type" : "_ZTIDs",
   "self_type" : "_ZTIA42_Ds",
   "size" : 84,
   "source_file" : "/system/core/libutils/include/utils/String16.h"
  },
  {
   "alignment" : 1,
   "linker_set_key" : "_ZTIA4_c",
   "name" : "char [4]",
   "referenced_type" : "_ZTIc",
   "self_type" : "_ZTIA4_c",
   "size" : 4,
   "source_file" : "/frameworks/native/libs/binder/include/binder/TextOutput.h"
  },
  {
   "alignment" : 1,
   "linker_set_key" : "_ZTIA5121_h",
   "name" : "unsigned char [5121]",
   "referenced_type" : "_ZTIh",
   "self_type" : "_ZTIA5121_h",
   "size" : 5121,
   "source_file" : "/system/core/liblog/include/log/log_read.h"
  },
  {
   "alignment" : 1,
   "linker_set_key" : "_ZTIA5_c",
   "name" : "char [5]",
   "referenced_type" : "_ZTIc",
   "self_type" : "_ZTIA5_c",
   "size" : 5,
   "source_file" : "/frameworks/native/libs/binder/include/binder/TextOutput.h"
  },
  {
   "alignment" : 1,
   "linker_set_key" : "_ZTIA66_c",
   "name" : "char [66]",
   "referenced_type" : "_ZTIc",
   "self_type" : "_ZTIA66_c",
   "size" : 66,
   "source_file" : "/frameworks/native/libs/binder/include/binder/TextOutput.h"
  },
  {
   "alignment" : 1,
   "linker_set_key" : "_ZTIA6_c",
   "name" : "char [6]",
   "referenced_type" : "_ZTIc",
   "self_type" : "_ZTIA6_c",
   "size" : 6,
   "source_file" : "/frameworks/native/libs/binder/include/binder/TextOutput.h"
  },
  {
   "alignment" : 1,
   "linker_set_key" : "_ZTIA7_c",
   "name" : "char [7]",
   "referenced_type" : "_ZTIc",
   "self_type" : "_ZTIA7_c",
   "size" : 7,
   "source_file" : "/frameworks/native/libs/binder/include/binder/TextOutput.h"
  },
  {
   "alignment" : 8,
   "linker_set_key" : "_ZTIA89_PKc",
   "name" : "const char *[89]",
   "referenced_type" : "_ZTIPKc",
   "self_type" : "_ZTIA89_PKc",
   "size" : 712,
   "source_file" : "/frameworks/native/libs/binder/include/binder/IInterface.h"
  },
  {
   "alignment" : 1,
   "linker_set_key" : "_ZTIA8_c",
   "name" : "char [8]",
   "referenced_type" : "_ZTIc",
   "self_type" : "_ZTIA8_c",
   "size" : 8,
   "source_file" : "/frameworks/native/libs/binder/include/binder/TextOutput.h"
  },
  {
   "alignment" : 4,
   "linker_set_key" : "_ZTIA8_j",
   "name" : "unsigned int [8]",
   "referenced_type" : "_ZTIj",
   "self_type" : "_ZTIA8_j",
   "size" : 32,
   "source_file" : "/system/core/libsystem/include/system/graphics.h"
  },
  {
   "alignment" : 1,
   "linker_set_key" : "_ZTIA9_c",
   "name" : "char [9]",
   "referenced_type" : "_ZTIc",
   "self_type" : "_ZTIA9_c",
   "size" : 9,
   "source_file" : "/frameworks/native/libs/binder/include/binder/TextOutput.h"
  },
  {
   "linker_set_key" : "_ZTIA_f",
   "name" : "float []",
   "referenced_type" : "_ZTIf",
   "self_type" : "_ZTIA_f",
   "source_file" : "/system/core/libsystem/include/system/graphics.h"
  }
 ],
 "builtin_types" :
 [
  {
   "alignment" : 2,
   "is_integral" : true,
   "is_unsigned" : true,
   "linker_set_key" : "_ZTIDs",
   "name" : "char16_t",
   "referenced_type" : "_ZTIDs",
   "self_type" : "_ZTIDs",
   "size" : 2
  },
  {
   "alignment" : 1,
   "is_integral" : true,
   "linker_set_key" : "_ZTIa",
   "name" : "signed char",
   "referenced_type" : "_ZTIa",
   "self_type" : "_ZTIa",
   "size" : 1
  },
  {
   "alignment" : 1,
   "is_integral" : true,
   "is_unsigned" : true,
   "linker_set_key" : "_ZTIb",
   "name" : "bool",
   "referenced_type" : "_ZTIb",
   "self_type" : "_ZTIb",
   "size" : 1
  },
  {
   "alignment" : 1,
   "is_integral" : true,
   "is_unsigned" : true,
   "linker_set_key" : "_ZTIc",
   "name" : "char",
   "referenced_type" : "_ZTIc",
   "self_type" : "_ZTIc",
   "size" : 1
  },
  {
   "alignment" : 8,
   "linker_set_key" : "_ZTId",
   "name" : "double",
   "referenced_type" : "_ZTId",
   "self_type" : "_ZTId",
   "size" : 8
  },
  {
   "alignment" : 4,
   "linker_set_key" : "_ZTIf",
   "name" : "float",
   "referenced_type" : "_ZTIf",
   "self_type" : "_ZTIf",
   "size" : 4
  },
  {
   "alignment" : 1,
   "is_integral" : true,
   "is_unsigned" : true,
   "linker_set_key" : "_ZTIh",
   "name" : "unsigned char",
   "referenced_type" : "_ZTIh",
   "self_type" : "_ZTIh",
   "size" : 1
  },
  {
   "alignment" : 4,
   "is_integral" : true,
   "linker_set_key" : "_ZTIi",
   "name" : "int",
   "referenced_type" : "_ZTIi",
   "self_type" : "_ZTIi",
   "size" : 4
  },
  {
   "alignment" : 4,
   "is_integral" : true,
   "is_unsigned" : true,
   "linker_set_key" : "_ZTIj",
   "name" : "unsigned int",
   "referenced_type" : "_ZTIj",
   "self_type" : "_ZTIj",
   "size" : 4
  },
  {
   "alignment" : 8,
   "is_integral" : true,
   "linker_set_key" : "_ZTIl",
   "name" : "long",
   "referenced_type" : "_ZTIl",
   "self_type" : "_ZTIl",
   "size" : 8
  },
  {
   "alignment" : 8,
   "is_integral" : true,
   "is_unsigned" : true,
   "linker_set_key" : "_ZTIm",
   "name" : "unsigned long",
   "referenced_type" : "_ZTIm",
   "self_type" : "_ZTIm",
   "size" : 8
  },
  {
   "alignment" : 2,
   "is_integral" : true,
   "linker_set_key" : "_ZTIs",
   "name" : "short",
   "referenced_type" : "_ZTIs",
   "self_type" : "_ZTIs",
   "size" : 2
  },
  {
   "alignment" : 2,
   "is_integral" : true,
   "is_unsigned" : true,
   "linker_set_key" : "_ZTIt",
   "name" : "unsigned short",
   "referenced_type" : "_ZTIt",
   "self_type" : "_ZTIt",
   "size" : 2
  },
  {
   "linker_set_key" : "_ZTIv",
   "name" : "void",
   "referenced_type" : "_ZTIv",
   "self_type" : "_ZTIv"
  },
  {
   "alignment" : 8,
   "is_integral" : true,
   "linker_set_key" : "_ZTIx",
   "name" : "long long",
   "referenced_type" : "_ZTIx",
   "self_type" : "_ZTIx",
   "size" : 8
  },
  {
   "alignment" : 8,
   "is_integral" : true,
   "is_unsigned" : true,
   "linker_set_key" : "_ZTIy",
   "name" : "unsigned long long",
   "referenced_type" : "_ZTIy",
   "self_type" : "_ZTIy",
   "size" : 8
  }
 ],
 "elf_functions" :
 [
  {
   "name" : "_ZN7android10AllocationC1ERKNS_2spINS_12MemoryDealerEEERKNS1_INS_11IMemoryHeapEEElm"
  },
  {
   "name" : "_ZN7android10AllocationC2ERKNS_2spINS_12MemoryDealerEEERKNS1_INS_11IMemoryHeapEEElm"
  },
  {
   "name" : "_ZN7android10AllocationD0Ev"
  },
  {
   "name" : "_ZN7android10AllocationD1Ev"
  },
  {
   "name" : "_ZN7android10AllocationD2Ev"
  },
  {
   "name" : "_ZN7android10IInterface8asBinderEPKS0_"
  },
  {
   "name" : "_ZN7android10IInterface8asBinderERKNS_2spIS0_EE"
  },
  {
   "name" : "_ZN7android10IInterfaceC2Ev"
  },
  {
   "name" : "_ZN7android10IInterfaceD0Ev"
  },
  {
   "name" : "_ZN7android10IInterfaceD1Ev"
  },
  {
   "name" : "_ZN7android10IInterfaceD2Ev"
  },
  {
   "name" : "_ZN7android10MemoryBaseC1ERKNS_2spINS_11IMemoryHeapEEElm"
  },
  {
   "name" : "_ZN7android10MemoryBaseC2ERKNS_2spINS_11IMemoryHeapEEElm"
  },
  {
   "name" : "_ZN7android10MemoryBaseD0Ev"
  },
  {
   "name" : "_ZN7android10MemoryBaseD1Ev"
  },
  {
   "name" : "_ZN7android10MemoryBaseD2Ev"
  },
  {
   "name" : "_ZN7android10TextOutputC2Ev"
  },
  {
   "name" : "_ZN7android10TextOutputD0Ev"
  },
  {
   "name" : "_ZN7android10TextOutputD1Ev"
  },
  {
   "name" : "_ZN7android10TextOutputD2Ev"
  },
  {
   "binding" : "weak",
   "name" : "_ZN7android11BnInterfaceINS_11IMemoryHeapEE10onAsBinderEv"
  },
  {
   "binding" : "weak",
   "name" : "_ZN7android11BnInterfaceINS_14IShellCallbackEE10onAsBinderEv"
  },
  {
   "binding" : "weak",
   "name" : "_ZN7android11BnInterfaceINS_15IResultReceiverEE10onAsBinderEv"
  },
  {
   "binding" : "weak",
   "name" : "_ZN7android11BnInterfaceINS_2os15IClientCallbackEE10onAsBinderEv"
  },
  {
   "binding" : "weak",
   "name" : "_ZN7android11BnInterfaceINS_2os15IServiceManagerEE10onAsBinderEv"
  },
  {
   "binding" : "weak",
   "name" : "_ZN7android11BnInterfaceINS_2os16IServiceCallbackEE10onAsBinderEv"
  },
  {
   "binding" : "weak",
   "name" : "_ZN7android11BnInterfaceINS_7IMemoryEE10onAsBinderEv"
  },
  {
   "binding" : "weak",
   "name" : "_ZN7android11BnInterfaceINS_7content2pm21IPackageManagerNativeEE10onAsBinderEv"
  },
  {
   "binding" : "weak",
   "name" : "_ZN7android11BnInterfaceINS_7content2pm22IPackageChangeObserverEE10onAsBinderEv"
  },
  {
   "name" : "_ZN7android11IMemoryHeap11asInterfaceERKNS_2spINS_7IBinderEEE"
  },
  {
   "name" : "_ZN7android11IMemoryHeap14getDefaultImplEv"
  },
  {
   "name" : "_ZN7android11IMemoryHeap14setDefaultImplENSt3__110unique_ptrIS0_NS1_14default_deleteIS0_EEEE"
  },
  {
   "name" : "_ZN7android11IMemoryHeapC2Ev"
  },
  {
   "name" : "_ZN7android11IMemoryHeapD0Ev"
  },
  {
   "name" : "_ZN7android11IMemoryHeapD1Ev"
  },
  {
   "name" : "_ZN7android11IMemoryHeapD2Ev"
  },
  {
   "name" : "_ZN7android12BnMemoryHeap10onTransactEjRKNS_6ParcelEPS1_j"
  },
  {
   "name" : "_ZN7android12BnMemoryHeapC2Ev"
  },
  {
   "name" : "_ZN7android12BnMemoryHeapD0Ev"
  },
  {
   "name" : "_ZN7android12BnMemoryHeapD1Ev"
  },
  {
   "name" : "_ZN7android12BnMemoryHeapD2Ev"
  },
  {
   "name" : "_ZN7android12BpMemoryHeapC1ERKNS_2spINS_7IBinderEEE"
  },
  {
   "name" : "_ZN7android12BpMemoryHeapC2ERKNS_2spINS_7IBinderEEE"
  },
  {
   "name" : "_ZN7android12BpMemoryHeapD0Ev"
  },
  {
   "name" : "_ZN7android12BpMemoryHeapD1Ev"
  },
  {
   "name" : "_ZN7android12BpMemoryHeapD2Ev"
  },
  {
   "name" : "_ZN7android12MemoryDealer10deallocateEm"
  },
  {
   "name" : "_ZN7android12MemoryDealer22getAllocationAlignmentEv"
  },
  {
   "name" : "_ZN7android12MemoryDealer8allocateEm"
  },
  {
   "name" : "_ZN7android12MemoryDealerC1EmPKcj"
  },
  {
   "name" : "_ZN7android12MemoryDealerC2EmPKcj"
  },
  {
   "name" : "_ZN7android12MemoryDealerD0Ev"
  },
  {
   "name" : "_ZN7android12MemoryDealerD1Ev"
  },
  {
   "name" : "_ZN7android12MemoryDealerD2Ev"
  },
  {
   "name" : "_ZN7android12ProcessState10selfOrNullEv"
  },
  {
   "name" : "_ZN7android12ProcessState13expungeHandleEiPNS_7IBinderE"
  },
  {
   "name" : "_ZN7android12ProcessState13getDriverNameEv"
  },
  {
   "name" : "_ZN7android12ProcessState14initWithDriverEPKc"
  },
  {
   "name" : "_ZN7android12ProcessState15startThreadPoolEv"
  },
  {
   "name" : "_ZN7android12ProcessState16getContextObjectERKNS_2spINS_7IBinderEEE"
  },
  {
   "name" : "_ZN7android12ProcessState17spawnPooledThreadEb"
  },
  {
   "name" : "_ZN7android12ProcessState18giveThreadPoolNameEv"
  },
  {
   "name" : "_ZN7android12ProcessState18lookupHandleLockedEi"
  },
  {
   "name" : "_ZN7android12ProcessState18setCallRestrictionENS0_15CallRestrictionE"
  },
  {
   "name" : "_ZN7android12ProcessState19getKernelReferencesEmPm"
  },
  {
   "name" : "_ZN7android12ProcessState20becomeContextManagerEPFbRKNS_8String16ERKNS_2spINS_7IBinderEEEPvES9_"
  },
  {
   "name" : "_ZN7android12ProcessState20makeBinderThreadNameEv"
  },
  {
   "name" : "_ZN7android12ProcessState23getStrongProxyForHandleEi"
  },
  {
   "name" : "_ZN7android12ProcessState27setThreadPoolMaxThreadCountEm"
  },
  {
   "name" : "_ZN7android12ProcessState32getStrongRefCountForNodeByHandleEi"
  },
  {
   "name" : "_ZN7android12ProcessState4selfEv"
  },
  {
   "name" : "_ZN7android12ProcessStateC1EPKc"
  },
  {
   "name" : "_ZN7android12ProcessStateC2EPKc"
  },
  {
   "name" : "_ZN7android12ProcessStateD0Ev"
  },
  {
   "name" : "_ZN7android12ProcessStateD1Ev"
  },
  {
   "name" : "_ZN7android12ProcessStateD2Ev"
  },
  {
   "name" : "_ZN7android14IPCThreadState10freeBufferEPNS_6ParcelEPKhmPKymPv"
  },
  {
   "name" : "_ZN7android14IPCThreadState10selfOrNullEv"
  },
  {
   "name" : "_ZN7android14IPCThreadState11clearCallerEv"
  },
  {
   "name" : "_ZN7android14IPCThreadState11stopProcessEb"
  },
  {
   "name" : "_ZN7android14IPCThreadState12setupPollingEPi"
  },
  {
   "name" : "_ZN7android14IPCThreadState13decWeakHandleEi"
  },
  {
   "name" : "_ZN7android14IPCThreadState13expungeHandleEiPNS_7IBinderE"
  },
  {
   "name" : "_ZN7android14IPCThreadState13flushCommandsEv"
  },
  {
   "name" : "_ZN7android14IPCThreadState13incWeakHandleEiPNS_8BpBinderE"
  },
  {
   "name" : "_ZN7android14IPCThreadState14clearLastErrorEv"
  },
  {
   "name" : "_ZN7android14IPCThreadState14executeCommandEi"
  },
  {
   "name" : "_ZN7android14IPCThreadState14joinThreadPoolEb"
  },
  {
   "name" : "_ZN7android14IPCThreadState14talkWithDriverEb"
  },
  {
   "name" : "_ZN7android14IPCThreadState15decStrongHandleEi"
  },
  {
   "name" : "_ZN7android14IPCThreadState15incStrongHandleEiPNS_8BpBinderE"
  },
  {
   "name" : "_ZN7android14IPCThreadState15waitForResponseEPNS_6ParcelEPi"
  },
  {
   "name" : "_ZN7android14IPCThreadState16threadDestructorEPv"
  },
  {
   "name" : "_ZN7android14IPCThreadState19setStrictModePolicyEi"
  },
  {
   "name" : "_ZN7android14IPCThreadState19setTheContextObjectENS_2spINS_7BBinderEEE"
  },
  {
   "name" : "_ZN7android14IPCThreadState20clearCallingIdentityEv"
  },
  {
   "name" : "_ZN7android14IPCThreadState20getAndExecuteCommandEv"
  },
  {
   "binding" : "weak",
   "name" : "_ZN7android14IPCThreadState20getProcessFreezeInfoEiPbS1_"
  },
  {
   "name" : "_ZN7android14IPCThreadState20handlePolledCommandsEv"
  },
  {
   "name" : "_ZN7android14IPCThreadState20processPendingDerefsEv"
  },
  {
   "name" : "_ZN7android14IPCThreadState20writeTransactionDataEijijRKNS_6ParcelEPi"
  },
  {
   "name" : "_ZN7android14IPCThreadState22attemptIncStrongHandleEi"
  },
  {
   "name" : "_ZN7android14IPCThreadState22clearCallingWorkSourceEv"
  },
  {
   "name" : "_ZN7android14IPCThreadState22clearDeathNotificationEiPNS_8BpBinderE"
  },
  {
   "name" : "_ZN7android14IPCThreadState22processPostWriteDerefsEv"
  },
  {
   "name" : "_ZN7android14IPCThreadState22restoreCallingIdentityEl"
  },
  {
   "name" : "_ZN7android14IPCThreadState23setCallingWorkSourceUidEj"
  },
  {
   "name" : "_ZN7android14IPCThreadState24clearPropagateWorkSourceEv"
  },
  {
   "name" : "_ZN7android14IPCThreadState24requestDeathNotificationEiPNS_8BpBinderE"
  },
  {
   "name" : "_ZN7android14IPCThreadState24restoreCallingWorkSourceEl"
  },
  {
   "name" : "_ZN7android14IPCThreadState25blockUntilThreadAvailableEv"
  },
  {
   "name" : "_ZN7android14IPCThreadState27disableBackgroundSchedulingEb"
  },
  {
   "name" : "_ZN7android14IPCThreadState28backgroundSchedulingDisabledEv"
  },
  {
   "name" : "_ZN7android14IPCThreadState29setLastTransactionBinderFlagsEi"
  },
  {
   "name" : "_ZN7android14IPCThreadState41setCallingWorkSourceUidWithoutPropagationEj"
  },
  {
   "name" : "_ZN7android14IPCThreadState4selfEv"
  },
  {
   "binding" : "weak",
   "name" : "_ZN7android14IPCThreadState6freezeEibj"
  },
  {
   "name" : "_ZN7android14IPCThreadState7processEv"
  },
  {
   "name" : "_ZN7android14IPCThreadState8shutdownEv"
  },
  {
   "name" : "_ZN7android14IPCThreadState8transactEijRKNS_6ParcelEPS1_j"
  },
  {
   "name" : "_ZN7android14IPCThreadState9sendReplyERKNS_6ParcelEj"
  },
  {
   "name" : "_ZN7android14IPCThreadStateC1Ev"
  },
  {
   "name" : "_ZN7android14IPCThreadStateC2Ev"
  },
  {
   "name" : "_ZN7android14IPCThreadStateD1Ev"
  },
  {
   "name" : "_ZN7android14IPCThreadStateD2Ev"
  },
  {
   "name" : "_ZN7android14IShellCallback11asInterfaceERKNS_2spINS_7IBinderEEE"
  },
  {
   "name" : "_ZN7android14IShellCallback14getDefaultImplEv"
  },
  {
   "name" : "_ZN7android14IShellCallback14setDefaultImplENSt3__110unique_ptrIS0_NS1_14default_deleteIS0_EEEE"
  },
  {
   "name" : "_ZN7android14IShellCallbackC2Ev"
  },
  {
   "name" : "_ZN7android14IShellCallbackD0Ev"
  },
  {
   "name" : "_ZN7android14IShellCallbackD1Ev"
  },
  {
   "name" : "_ZN7android14IShellCallbackD2Ev"
  },
  {
   "name" : "_ZN7android14MemoryHeapBase4initEiPvmiPKc"
  },
  {
   "name" : "_ZN7android14MemoryHeapBase5mapfdEiml"
  },
  {
   "name" : "_ZN7android14MemoryHeapBase7disposeEv"
  },
  {
   "name" : "_ZN7android14MemoryHeapBaseC1EPKcmj"
  },
  {
   "name" : "_ZN7android14MemoryHeapBaseC1Eimjl"
  },
  {
   "name" : "_ZN7android14MemoryHeapBaseC1EmjPKc"
  },
  {
   "name" : "_ZN7android14MemoryHeapBaseC1Ev"
  },
  {
   "name" : "_ZN7android14MemoryHeapBaseC2EPKcmj"
  },
  {
   "name" : "_ZN7android14MemoryHeapBaseC2Eimjl"
  },
  {
   "name" : "_ZN7android14MemoryHeapBaseC2EmjPKc"
  },
  {
   "name" : "_ZN7android14MemoryHeapBaseC2Ev"
  },
  {
   "name" : "_ZN7android14MemoryHeapBaseD0Ev"
  },
  {
   "name" : "_ZN7android14MemoryHeapBaseD1Ev"
  },
  {
   "name" : "_ZN7android14MemoryHeapBaseD2Ev"
  },
  {
   "name" : "_ZN7android15BnShellCallback10onTransactEjRKNS_6ParcelEPS1_j"
  },
  {
   "name" : "_ZN7android15IResultReceiver11asInterfaceERKNS_2spINS_7IBinderEEE"
  },
  {
   "name" : "_ZN7android15IResultReceiver14getDefaultImplEv"
  },
  {
   "name" : "_ZN7android15IResultReceiver14setDefaultImplENSt3__110unique_ptrIS0_NS1_14default_deleteIS0_EEEE"
  },
  {
   "name" : "_ZN7android15IResultReceiverC2Ev"
  },
  {
   "name" : "_ZN7android15IResultReceiverD0Ev"
  },
  {
   "name" : "_ZN7android15IResultReceiverD1Ev"
  },
  {
   "name" : "_ZN7android15IResultReceiverD2Ev"
  },
  {
   "name" : "_ZN7android15IServiceManagerC2Ev"
  },
  {
   "name" : "_ZN7android15IServiceManagerD0Ev"
  },
  {
   "name" : "_ZN7android15IServiceManagerD1Ev"
  },
  {
   "name" : "_ZN7android15IServiceManagerD2Ev"
  },
  {
   "name" : "_ZN7android16BnResultReceiver10onTransactEjRKNS_6ParcelEPS1_j"
  },
  {
   "name" : "_ZN7android18BufferedTextOutput10moveIndentEi"
  },
  {
   "name" : "_ZN7android18BufferedTextOutput10pushBundleEv"
  },
  {
   "name" : "_ZN7android18BufferedTextOutput14getThreadStateEv"
  },
  {
   "name" : "_ZN7android18BufferedTextOutput16threadDestructorEPv"
  },
  {
   "name" : "_ZN7android18BufferedTextOutput5printEPKcm"
  },
  {
   "name" : "_ZN7android18BufferedTextOutput9popBundleEv"
  },
  {
   "name" : "_ZN7android18BufferedTextOutputC2Ej"
  },
  {
   "name" : "_ZN7android18BufferedTextOutputD0Ev"
  },
  {
   "name" : "_ZN7android18BufferedTextOutputD1Ev"
  },
  {
   "name" : "_ZN7android18BufferedTextOutputD2Ev"
  },
  {
   "name" : "_ZN7android18ServiceManagerShim10addServiceERKNS_8String16ERKNS_2spINS_7IBinderEEEbi"
  },
  {
   "name" : "_ZN7android18ServiceManagerShim10isDeclaredERKNS_8String16E"
  },
  {
   "name" : "_ZN7android18ServiceManagerShim12listServicesEi"
  },
  {
   "name" : "_ZN7android18ServiceManagerShim14waitForServiceERKNS_8String16E"
  },
  {
   "name" : "_ZN7android18ServiceManagerShimC1ERKNS_2spINS_2os15IServiceManagerEEE"
  },
  {
   "name" : "_ZN7android18ServiceManagerShimC2ERKNS_2spINS_2os15IServiceManagerEEE"
  },
  {
   "name" : "_ZN7android21defaultServiceManagerEv"
  },
  {
   "name" : "_ZN7android22SimpleBestFitAllocator10deallocateEm"
  },
  {
   "name" : "_ZN7android22SimpleBestFitAllocator5allocEmj"
  },
  {
   "name" : "_ZN7android22SimpleBestFitAllocator7deallocEm"
  },
  {
   "name" : "_ZN7android22SimpleBestFitAllocator8allocateEmj"
  },
  {
   "name" : "_ZN7android22SimpleBestFitAllocatorC1Em"
  },
  {
   "name" : "_ZN7android22SimpleBestFitAllocatorC2Em"
  },
  {
   "name" : "_ZN7android22SimpleBestFitAllocatorD1Ev"
  },
  {
   "name" : "_ZN7android22SimpleBestFitAllocatorD2Ev"
  },
  {
   "name" : "_ZN7android24setDefaultServiceManagerERKNS_2spINS_15IServiceManagerEEE"
  },
  {
   "name" : "_ZN7android2os15IClientCallback11asInterfaceERKNS_2spINS_7IBinderEEE"
  },
  {
   "name" : "_ZN7android2os15IClientCallback14getDefaultImplEv"
  },
  {
   "name" : "_ZN7android2os15IClientCallback14setDefaultImplENSt3__110unique_ptrIS1_NS2_14default_deleteIS1_EEEE"
  },
  {
   "name" : "_ZN7android2os15IClientCallbackC2Ev"
  },
  {
   "name" : "_ZN7android2os15IClientCallbackD0Ev"
  },
  {
   "name" : "_ZN7android2os15IClientCallbackD1Ev"
  },
  {
   "name" : "_ZN7android2os15IClientCallbackD2Ev"
  },
  {
   "name" : "_ZN7android2os15IServiceManager11asInterfaceERKNS_2spINS_7IBinderEEE"
  },
  {
   "name" : "_ZN7android2os15IServiceManager14getDefaultImplEv"
  },
  {
   "name" : "_ZN7android2os15IServiceManager14setDefaultImplENSt3__110unique_ptrIS1_NS2_14default_deleteIS1_EEEE"
  },
  {
   "name" : "_ZN7android2os15IServiceManagerC2Ev"
  },
  {
   "name" : "_ZN7android2os15IServiceManagerD0Ev"
  },
  {
   "name" : "_ZN7android2os15IServiceManagerD1Ev"
  },
  {
   "name" : "_ZN7android2os15IServiceManagerD2Ev"
  },
  {
   "name" : "_ZN7android2os16BnClientCallback10onTransactEjRKNS_6ParcelEPS2_j"
  },
  {
   "name" : "_ZN7android2os16BnClientCallbackC2Ev"
  },
  {
   "name" : "_ZN7android2os16BnServiceManager10onTransactEjRKNS_6ParcelEPS2_j"
  },
  {
   "name" : "_ZN7android2os16BnServiceManagerC2Ev"
  },
  {
   "name" : "_ZN7android2os16BpClientCallback9onClientsERKNS_2spINS_7IBinderEEEb"
  },
  {
   "name" : "_ZN7android2os16BpClientCallbackC1ERKNS_2spINS_7IBinderEEE"
  },
  {
   "name" : "_ZN7android2os16BpClientCallbackC2ERKNS_2spINS_7IBinderEEE"
  },
  {
   "name" : "_ZN7android2os16BpServiceManager10addServiceERKNSt3__112basic_stringIcNS2_11char_traitsIcEENS2_9allocatorIcEEEERKNS_2spINS_7IBinderEEEbi"
  },
  {
   "name" : "_ZN7android2os16BpServiceManager10getServiceERKNSt3__112basic_stringIcNS2_11char_traitsIcEENS2_9allocatorIcEEEEPNS_2spINS_7IBinderEEE"
  },
  {
   "name" : "_ZN7android2os16BpServiceManager10isDeclaredERKNSt3__112basic_stringIcNS2_11char_traitsIcEENS2_9allocatorIcEEEEPb"
  },
  {
   "name" : "_ZN7android2os16BpServiceManager12checkServiceERKNSt3__112basic_stringIcNS2_11char_traitsIcEENS2_9allocatorIcEEEEPNS_2spINS_7IBinderEEE"
  },
  {
   "name" : "_ZN7android2os16BpServiceManager12listServicesEiPNSt3__16vectorINS2_12basic_stringIcNS2_11char_traitsIcEENS2_9allocatorIcEEEENS7_IS9_EEEE"
  },
  {
   "name" : "_ZN7android2os16BpServiceManager20tryUnregisterServiceERKNSt3__112basic_stringIcNS2_11char_traitsIcEENS2_9allocatorIcEEEERKNS_2spINS_7IBinderEEE"
  },
  {
   "name" : "_ZN7android2os16BpServiceManager22registerClientCallbackERKNSt3__112basic_stringIcNS2_11char_traitsIcEENS2_9allocatorIcEEEERKNS_2spINS_7IBinderEEERKNSB_INS0_15IClientCallbackEEE"
  },
  {
   "name" : "_ZN7android2os16BpServiceManager24registerForNotificationsERKNSt3__112basic_stringIcNS2_11char_traitsIcEENS2_9allocatorIcEEEERKNS_2spINS0_16IServiceCallbackEEE"
  },
  {
   "name" : "_ZN7android2os16BpServiceManager26unregisterForNotificationsERKNSt3__112basic_stringIcNS2_11char_traitsIcEENS2_9allocatorIcEEEERKNS_2spINS0_16IServiceCallbackEEE"
  },
  {
   "name" : "_ZN7android2os16BpServiceManagerC1ERKNS_2spINS_7IBinderEEE"
  },
  {
   "name" : "_ZN7android2os16BpServiceManagerC2ERKNS_2spINS_7IBinderEEE"
  },
  {
   "name" : "_ZN7android2os16IServiceCallback11asInterfaceERKNS_2spINS_7IBinderEEE"
  },
  {
   "name" : "_ZN7android2os16IServiceCallback14getDefaultImplEv"
  },
  {
   "name" : "_ZN7android2os16IServiceCallback14setDefaultImplENSt3__110unique_ptrIS1_NS2_14default_deleteIS1_EEEE"
  },
  {
   "name" : "_ZN7android2os16IServiceCallbackC2Ev"
  },
  {
   "name" : "_ZN7android2os16IServiceCallbackD0Ev"
  },
  {
   "name" : "_ZN7android2os16IServiceCallbackD1Ev"
  },
  {
   "name" : "_ZN7android2os16IServiceCallbackD2Ev"
  },
  {
   "name" : "_ZN7android2os17BnServiceCallback10onTransactEjRKNS_6ParcelEPS2_j"
  },
  {
   "name" : "_ZN7android2os17BnServiceCallbackC2Ev"
  },
  {
   "name" : "_ZN7android2os17BpServiceCallback14onRegistrationERKNSt3__112basic_stringIcNS2_11char_traitsIcEENS2_9allocatorIcEEEERKNS_2spINS_7IBinderEEE"
  },
  {
   "name" : "_ZN7android2os17BpServiceCallbackC1ERKNS_2spINS_7IBinderEEE"
  },
  {
   "name" : "_ZN7android2os17BpServiceCallbackC2ERKNS_2spINS_7IBinderEEE"
  },
  {
   "name" : "_ZN7android2os17PersistableBundle10putBooleanERKNS_8String16Eb"
  },
  {
   "name" : "_ZN7android2os17PersistableBundle12putIntVectorERKNS_8String16ERKNSt3__16vectorIiNS5_9allocatorIiEEEE"
  },
  {
   "name" : "_ZN7android2os17PersistableBundle13putLongVectorERKNS_8String16ERKNSt3__16vectorIlNS5_9allocatorIlEEEE"
  },
  {
   "name" : "_ZN7android2os17PersistableBundle14readFromParcelEPKNS_6ParcelE"
  },
  {
   "name" : "_ZN7android2os17PersistableBundle15putDoubleVectorERKNS_8String16ERKNSt3__16vectorIdNS5_9allocatorIdEEEE"
  },
  {
   "name" : "_ZN7android2os17PersistableBundle15putStringVectorERKNS_8String16ERKNSt3__16vectorIS2_NS5_9allocatorIS2_EEEE"
  },
  {
   "name" : "_ZN7android2os17PersistableBundle16putBooleanVectorERKNS_8String16ERKNSt3__16vectorIbNS5_9allocatorIbEEEE"
  },
  {
   "name" : "_ZN7android2os17PersistableBundle19readFromParcelInnerEPKNS_6ParcelEm"
  },
  {
   "name" : "_ZN7android2os17PersistableBundle20putPersistableBundleERKNS_8String16ERKS1_"
  },
  {
   "name" : "_ZN7android2os17PersistableBundle5eraseERKNS_8String16E"
  },
  {
   "name" : "_ZN7android2os17PersistableBundle6putIntERKNS_8String16Ei"
  },
  {
   "name" : "_ZN7android2os17PersistableBundle7putLongERKNS_8String16El"
  },
  {
   "name" : "_ZN7android2os17PersistableBundle9putDoubleERKNS_8String16Ed"
  },
  {
   "name" : "_ZN7android2os17PersistableBundle9putStringERKNS_8String16ES4_"
  },
  {
   "name" : "_ZN7android2os20ParcelFileDescriptor14readFromParcelEPKNS_6ParcelE"
  },
  {
   "name" : "_ZN7android2os20ParcelFileDescriptorC1ENS_4base14unique_fd_implINS2_13DefaultCloserEEE"
  },
  {
   "name" : "_ZN7android2os20ParcelFileDescriptorC1Ev"
  },
  {
   "name" : "_ZN7android2os20ParcelFileDescriptorC2ENS_4base14unique_fd_implINS2_13DefaultCloserEEE"
  },
  {
   "name" : "_ZN7android2os20ParcelFileDescriptorC2Ev"
  },
  {
   "name" : "_ZN7android2os20ParcelFileDescriptorD0Ev"
  },
  {
   "name" : "_ZN7android2os20ParcelFileDescriptorD1Ev"
  },
  {
   "name" : "_ZN7android2os20ParcelFileDescriptorD2Ev"
  },
  {
   "binding" : "weak",
   "name" : "_ZN7android2spINS_12ProcessStateEED2Ev"
  },
  {
   "binding" : "weak",
   "name" : "_ZN7android2spINS_7BBinderEED2Ev"
  },
  {
   "binding" : "weak",
   "name" : "_ZN7android2spINS_9HeapCacheEED2Ev"
  },
  {
   "name" : "_ZN7android6Parcel10appendFromEPKS0_mm"
  },
  {
   "name" : "_ZN7android6Parcel10writeFloatEf"
  },
  {
   "name" : "_ZN7android6Parcel10writeInt32Ei"
  },
  {
   "name" : "_ZN7android6Parcel10writeInt64El"
  },
  {
   "name" : "_ZN7android6Parcel11compareDataERKS0_"
  },
  {
   "name" : "_ZN7android6Parcel11finishWriteEm"
  },
  {
   "name" : "_ZN7android6Parcel11setDataSizeEm"
  },
  {
   "name" : "_ZN7android6Parcel11writeDoubleEd"
  },
  {
   "name" : "_ZN7android6Parcel11writeObjectERKNS_18flat_binder_objectEb"
  },
  {
   "name" : "_ZN7android6Parcel11writeUint32Ej"
  },
  {
   "name" : "_ZN7android6Parcel11writeUint64Em"
  },
  {
   "name" : "_ZN7android6Parcel12pushAllowFdsEb"
  },
  {
   "name" : "_ZN7android6Parcel12restartWriteEm"
  },
  {
   "name" : "_ZN7android6Parcel12writeCStringEPKc"
  },
  {
   "name" : "_ZN7android6Parcel12writeInplaceEm"
  },
  {
   "name" : "_ZN7android6Parcel12writePointerEm"
  },
  {
   "name" : "_ZN7android6Parcel12writeString8EPKcm"
  },
  {
   "name" : "_ZN7android6Parcel12writeString8ERKNS_7String8E"
  },
  {
   "name" : "_ZN7android6Parcel13continueWriteEm"
  },
  {
   "name" : "_ZN7android6Parcel13flattenBinderERKNS_2spINS_7IBinderEEE"
  },
  {
   "name" : "_ZN7android6Parcel13writeString16EPKDsm"
  },
  {
   "name" : "_ZN7android6Parcel13writeString16ERKNS_8String16E"
  },
  {
   "name" : "_ZN7android6Parcel13writeString16ERKNSt3__110unique_ptrINS_8String16ENS1_14default_deleteIS3_EEEE"
  },
  {
   "name" : "_ZN7android6Parcel13writeUnpaddedEPKvm"
  },
  {
   "name" : "_ZN7android6Parcel14acquireObjectsEv"
  },
  {
   "name" : "_ZN7android6Parcel14freeDataNoInitEv"
  },
  {
   "name" : "_ZN7android6Parcel14releaseObjectsEv"
  },
  {
   "name" : "_ZN7android6Parcel14writeByteArrayEmPKh"
  },
  {
   "name" : "_ZN7android6Parcel15restoreAllowFdsEb"
  },
  {
   "name" : "_ZN7android6Parcel15setDataCapacityEm"
  },
  {
   "name" : "_ZN7android6Parcel15writeBoolVectorERKNSt3__110unique_ptrINS1_6vectorIbNS1_9allocatorIbEEEENS1_14default_deleteIS6_EEEE"
  },
  {
   "name" : "_ZN7android6Parcel15writeBoolVectorERKNSt3__16vectorIbNS1_9allocatorIbEEEE"
  },
  {
   "name" : "_ZN7android6Parcel15writeByteVectorERKNSt3__110unique_ptrINS1_6vectorIaNS1_9allocatorIaEEEENS1_14default_deleteIS6_EEEE"
  },
  {
   "name" : "_ZN7android6Parcel15writeByteVectorERKNSt3__110unique_ptrINS1_6vectorIhNS1_9allocatorIhEEEENS1_14default_deleteIS6_EEEE"
  },
  {
   "name" : "_ZN7android6Parcel15writeByteVectorERKNSt3__16vectorIaNS1_9allocatorIaEEEE"
  },
  {
   "name" : "_ZN7android6Parcel15writeByteVectorERKNSt3__16vectorIhNS1_9allocatorIhEEEE"
  },
  {
   "name" : "_ZN7android6Parcel15writeCharVectorERKNSt3__110unique_ptrINS1_6vectorIDsNS1_9allocatorIDsEEEENS1_14default_deleteIS6_EEEE"
  },
  {
   "name" : "_ZN7android6Parcel15writeCharVectorERKNSt3__16vectorIDsNS1_9allocatorIDsEEEE"
  },
  {
   "name" : "_ZN7android6Parcel15writeInt32ArrayEmPKi"
  },
  {
   "name" : "_ZN7android6Parcel15writeParcelableERKNS_10ParcelableE"
  },
  {
   "name" : "_ZN7android6Parcel16writeFloatVectorERKNSt3__110unique_ptrINS1_6vectorIfNS1_9allocatorIfEEEENS1_14default_deleteIS6_EEEE"
  },
  {
   "name" : "_ZN7android6Parcel16writeFloatVectorERKNSt3__16vectorIfNS1_9allocatorIfEEEE"
  },
  {
   "name" : "_ZN7android6Parcel16writeInt32VectorERKNSt3__110unique_ptrINS1_6vectorIiNS1_9allocatorIiEEEENS1_14default_deleteIS6_EEEE"
  },
  {
   "name" : "_ZN7android6Parcel16writeInt32VectorERKNSt3__16vectorIiNS1_9allocatorIiEEEE"
  },
  {
   "name" : "_ZN7android6Parcel16writeInt64VectorERKNSt3__110unique_ptrINS1_6vectorIlNS1_9allocatorIlEEEENS1_14default_deleteIS6_EEEE"
  },
  {
   "name" : "_ZN7android6Parcel16writeInt64VectorERKNSt3__16vectorIlNS1_9allocatorIlEEEE"
  },
  {
   "name" : "_ZN7android6Parcel16writeNoExceptionEv"
  },
  {
   "name" : "_ZN7android6Parcel16writeUtf8AsUtf16ERKNSt3__110unique_ptrINS1_12basic_stringIcNS1_11char_traitsIcEENS1_9allocatorIcEEEENS1_14default_deleteIS8_EEEE"
  },
  {
   "name" : "_ZN7android6Parcel16writeUtf8AsUtf16ERKNSt3__112basic_stringIcNS1_11char_traitsIcEENS1_9allocatorIcEEEE"
  },
  {
   "name" : "_ZN7android6Parcel17writeDoubleVectorERKNSt3__110unique_ptrINS1_6vectorIdNS1_9allocatorIdEEEENS1_14default_deleteIS6_EEEE"
  },
  {
   "name" : "_ZN7android6Parcel17writeDoubleVectorERKNSt3__16vectorIdNS1_9allocatorIdEEEE"
  },
  {
   "name" : "_ZN7android6Parcel17writeNativeHandleEPK13native_handle"
  },
  {
   "name" : "_ZN7android6Parcel17writeStrongBinderERKNS_2spINS_7IBinderEEE"
  },
  {
   "name" : "_ZN7android6Parcel17writeUint64VectorERKNSt3__110unique_ptrINS1_6vectorImNS1_9allocatorImEEEENS1_14default_deleteIS6_EEEE"
  },
  {
   "name" : "_ZN7android6Parcel17writeUint64VectorERKNSt3__16vectorImNS1_9allocatorImEEEE"
  },
  {
   "name" : "_ZN7android6Parcel18getGlobalAllocSizeEv"
  },
  {
   "name" : "_ZN7android6Parcel19finishFlattenBinderERKNS_2spINS_7IBinderEEERKNS_18flat_binder_objectE"
  },
  {
   "name" : "_ZN7android6Parcel19getGlobalAllocCountEv"
  },
  {
   "name" : "_ZN7android6Parcel19ipcSetDataReferenceEPKhmPKymPFvPS0_S2_mS4_mPvES6_"
  },
  {
   "name" : "_ZN7android6Parcel19writeFileDescriptorEib"
  },
  {
   "name" : "_ZN7android6Parcel19writeInterfaceTokenERKNS_8String16E"
  },
  {
   "name" : "_ZN7android6Parcel19writeString16VectorERKNSt3__110unique_ptrINS1_6vectorINS2_INS_8String16ENS1_14default_deleteIS4_EEEENS1_9allocatorIS7_EEEENS5_ISA_EEEE"
  },
  {
   "name" : "_ZN7android6Parcel19writeString16VectorERKNSt3__16vectorINS_8String16ENS1_9allocatorIS3_EEEE"
  },
  {
   "name" : "_ZN7android6Parcel20closeFileDescriptorsEv"
  },
  {
   "binding" : "weak",
   "name" : "_ZN7android6Parcel22unsafeWriteTypedVectorIDsDsEEiRKNSt3__16vectorIT_NS2_9allocatorIS4_EEEEMS0_FiT0_E"
  },
  {
   "binding" : "weak",
   "name" : "_ZN7android6Parcel22unsafeWriteTypedVectorINS_4base14unique_fd_implINS2_13DefaultCloserEEERKS5_EEiRKNSt3__16vectorIT_NS8_9allocatorISA_EEEEMS0_FiT0_E"
  },
  {
   "binding" : "weak",
   "name" : "_ZN7android6Parcel22unsafeWriteTypedVectorINSt3__110unique_ptrINS2_12basic_stringIcNS2_11char_traitsIcEENS2_9allocatorIcEEEENS2_14default_deleteIS9_EEEERKSC_EEiRKNS2_6vectorIT_NS7_ISG_EEEEMS0_FiT0_E"
  },
  {
   "binding" : "weak",
   "name" : "_ZN7android6Parcel22unsafeWriteTypedVectorINSt3__110unique_ptrINS_8String16ENS2_14default_deleteIS4_EEEERKS7_EEiRKNS2_6vectorIT_NS2_9allocatorISB_EEEEMS0_FiT0_E"
  },
  {
   "binding" : "weak",
   "name" : "_ZN7android6Parcel22unsafeWriteTypedVectorINSt3__112basic_stringIcNS2_11char_traitsIcEENS2_9allocatorIcEEEERKS8_EEiRKNS2_6vectorIT_NS6_ISC_EEEEMS0_FiT0_E"
  },
  {
   "binding" : "weak",
   "name" : "_ZN7android6Parcel22unsafeWriteTypedVectorIbbEEiRKNSt3__16vectorIT_NS2_9allocatorIS4_EEEEMS0_FiT0_E"
  },
  {
   "binding" : "weak",
   "name" : "_ZN7android6Parcel22unsafeWriteTypedVectorIddEEiRKNSt3__16vectorIT_NS2_9allocatorIS4_EEEEMS0_FiT0_E"
  },
  {
   "binding" : "weak",
   "name" : "_ZN7android6Parcel22unsafeWriteTypedVectorIffEEiRKNSt3__16vectorIT_NS2_9allocatorIS4_EEEEMS0_FiT0_E"
  },
  {
   "binding" : "weak",
   "name" : "_ZN7android6Parcel22unsafeWriteTypedVectorIiiEEiRKNSt3__16vectorIT_NS2_9allocatorIS4_EEEEMS0_FiT0_E"
  },
  {
   "binding" : "weak",
   "name" : "_ZN7android6Parcel22unsafeWriteTypedVectorIllEEiRKNSt3__16vectorIT_NS2_9allocatorIS4_EEEEMS0_FiT0_E"
  },
  {
   "binding" : "weak",
   "name" : "_ZN7android6Parcel22unsafeWriteTypedVectorImmEEiRKNSt3__16vectorIT_NS2_9allocatorIS4_EEEEMS0_FiT0_E"
  },
  {
   "name" : "_ZN7android6Parcel22writeDupFileDescriptorEi"
  },
  {
   "name" : "_ZN7android6Parcel23writeByteVectorInternalEPKam"
  },
  {
   "name" : "_ZN7android6Parcel23writeStrongBinderVectorERKNSt3__110unique_ptrINS1_6vectorINS_2spINS_7IBinderEEENS1_9allocatorIS6_EEEENS1_14default_deleteIS9_EEEE"
  },
  {
   "name" : "_ZN7android6Parcel23writeStrongBinderVectorERKNSt3__16vectorINS_2spINS_7IBinderEEENS1_9allocatorIS5_EEEE"
  },
  {
   "name" : "_ZN7android6Parcel25writeParcelFileDescriptorEib"
  },
  {
   "name" : "_ZN7android6Parcel25writeUniqueFileDescriptorERKNS_4base14unique_fd_implINS1_13DefaultCloserEEE"
  },
  {
   "name" : "_ZN7android6Parcel26writeRawNullableParcelableEPKNS_10ParcelableE"
  },
  {
   "name" : "_ZN7android6Parcel27replaceCallingWorkSourceUidEj"
  },
  {
   "name" : "_ZN7android6Parcel28writeDupParcelFileDescriptorEi"
  },
  {
   "name" : "_ZN7android6Parcel28writeUtf8VectorAsUtf16VectorERKNSt3__110unique_ptrINS1_6vectorINS2_INS1_12basic_stringIcNS1_11char_traitsIcEENS1_9allocatorIcEEEENS1_14default_deleteIS9_EEEENS7_ISC_EEEENSA_ISE_EEEE"
  },
  {
   "name" : "_ZN7android6Parcel28writeUtf8VectorAsUtf16VectorERKNSt3__16vectorINS1_12basic_stringIcNS1_11char_traitsIcEENS1_9allocatorIcEEEENS6_IS8_EEEE"
  },
  {
   "name" : "_ZN7android6Parcel31writeUniqueFileDescriptorVectorERKNSt3__110unique_ptrINS1_6vectorINS_4base14unique_fd_implINS4_13DefaultCloserEEENS1_9allocatorIS7_EEEENS1_14default_deleteISA_EEEE"
  },
  {
   "name" : "_ZN7android6Parcel31writeUniqueFileDescriptorVectorERKNSt3__16vectorINS_4base14unique_fd_implINS3_13DefaultCloserEEENS1_9allocatorIS6_EEEE"
  },
  {
   "name" : "_ZN7android6Parcel35writeDupImmutableBlobFileDescriptorEi"
  },
  {
   "name" : "_ZN7android6Parcel4Blob4initEiPvmb"
  },
  {
   "name" : "_ZN7android6Parcel4Blob5clearEv"
  },
  {
   "name" : "_ZN7android6Parcel4Blob7releaseEv"
  },
  {
   "name" : "_ZN7android6Parcel4BlobC1Ev"
  },
  {
   "name" : "_ZN7android6Parcel4BlobC2Ev"
  },
  {
   "name" : "_ZN7android6Parcel4BlobD1Ev"
  },
  {
   "name" : "_ZN7android6Parcel4BlobD2Ev"
  },
  {
   "name" : "_ZN7android6Parcel5writeEPKvm"
  },
  {
   "name" : "_ZN7android6Parcel5writeERKNS0_26FlattenableHelperInterfaceE"
  },
  {
   "name" : "_ZN7android6Parcel7setDataEPKhm"
  },
  {
   "name" : "_ZN7android6Parcel8freeDataEv"
  },
  {
   "name" : "_ZN7android6Parcel8growDataEm"
  },
  {
   "name" : "_ZN7android6Parcel8setErrorEi"
  },
  {
   "name" : "_ZN7android6Parcel9initStateEv"
  },
  {
   "name" : "_ZN7android6Parcel9writeBlobEmbPNS0_12WritableBlobE"
  },
  {
   "name" : "_ZN7android6Parcel9writeBoolEb"
  },
  {
   "name" : "_ZN7android6Parcel9writeByteEa"
  },
  {
   "name" : "_ZN7android6Parcel9writeCharEDs"
  },
  {
   "name" : "_ZN7android6ParcelC1Ev"
  },
  {
   "name" : "_ZN7android6ParcelC2Ev"
  },
  {
   "name" : "_ZN7android6ParcelD1Ev"
  },
  {
   "name" : "_ZN7android6ParcelD2Ev"
  },
  {
   "name" : "_ZN7android6binder20LazyServiceRegistrar11getInstanceEv"
  },
  {
   "name" : "_ZN7android6binder20LazyServiceRegistrar12forcePersistEb"
  },
  {
   "name" : "_ZN7android6binder20LazyServiceRegistrar15registerServiceERKNS_2spINS_7IBinderEEERKNSt3__112basic_stringIcNS7_11char_traitsIcEENS7_9allocatorIcEEEEbi"
  },
  {
   "name" : "_ZN7android6binder20LazyServiceRegistrarC1Ev"
  },
  {
   "name" : "_ZN7android6binder20LazyServiceRegistrarC2Ev"
  },
  {
   "name" : "_ZN7android6binder6Status11fromStatusTEi"
  },
  {
   "name" : "_ZN7android6binder6Status12setExceptionEiRKNS_7String8E"
  },
  {
   "name" : "_ZN7android6binder6Status14readFromParcelERKNS_6ParcelE"
  },
  {
   "name" : "_ZN7android6binder6Status14setFromStatusTEi"
  },
  {
   "name" : "_ZN7android6binder6Status17exceptionToStringEi"
  },
  {
   "name" : "_ZN7android6binder6Status17fromExceptionCodeEi"
  },
  {
   "name" : "_ZN7android6binder6Status17fromExceptionCodeEiPKc"
  },
  {
   "name" : "_ZN7android6binder6Status17fromExceptionCodeEiRKNS_7String8E"
  },
  {
   "name" : "_ZN7android6binder6Status23setServiceSpecificErrorEiRKNS_7String8E"
  },
  {
   "name" : "_ZN7android6binder6Status24fromServiceSpecificErrorEi"
  },
  {
   "name" : "_ZN7android6binder6Status24fromServiceSpecificErrorEiPKc"
  },
  {
   "name" : "_ZN7android6binder6Status24fromServiceSpecificErrorEiRKNS_7String8E"
  },
  {
   "name" : "_ZN7android6binder6Status2okEv"
  },
  {
   "name" : "_ZN7android6binder6StatusC1Eii"
  },
  {
   "name" : "_ZN7android6binder6StatusC1EiiRKNS_7String8E"
  },
  {
   "name" : "_ZN7android6binder6StatusC2Eii"
  },
  {
   "name" : "_ZN7android6binder6StatusC2EiiRKNS_7String8E"
  },
  {
   "name" : "_ZN7android6binder8internal21ClientCounterCallback11tryShutdownEv"
  },
  {
   "name" : "_ZN7android6binder8internal21ClientCounterCallback12forcePersistEb"
  },
  {
   "name" : "_ZN7android6binder8internal21ClientCounterCallback15registerServiceERKNS_2spINS_7IBinderEEERKNSt3__112basic_stringIcNS8_11char_traitsIcEENS8_9allocatorIcEEEEbi"
  },
  {
   "name" : "_ZN7android6binder8internal21ClientCounterCallback9onClientsERKNS_2spINS_7IBinderEEEb"
  },
  {
   "name" : "_ZN7android6binderlsERNSt3__118basic_stringstreamIcNS1_11char_traitsIcEENS1_9allocatorIcEEEERKNS0_6StatusE"
  },
  {
   "name" : "_ZN7android7BBinder10onTransactEjRKNS_6ParcelEPS1_j"
  },
  {
   "name" : "_ZN7android7BBinder10pingBinderEv"
  },
  {
   "name" : "_ZN7android7BBinder11getDebugPidEv"
  },
  {
   "name" : "_ZN7android7BBinder11linkToDeathERKNS_2spINS_7IBinder14DeathRecipientEEEPvj"
  },
  {
   "name" : "_ZN7android7BBinder11localBinderEv"
  },
  {
   "name" : "_ZN7android7BBinder12attachObjectEPKvPvS3_PFvS2_S3_S3_E"
  },
  {
   "name" : "_ZN7android7BBinder12detachObjectEPKv"
  },
  {
   "name" : "_ZN7android7BBinder12getExtensionEv"
  },
  {
   "name" : "_ZN7android7BBinder12setExtensionERKNS_2spINS_7IBinderEEE"
  },
  {
   "name" : "_ZN7android7BBinder13unlinkToDeathERKNS_2wpINS_7IBinder14DeathRecipientEEEPvjPS4_"
  },
  {
   "name" : "_ZN7android7BBinder15isRequestingSidEv"
  },
  {
   "name" : "_ZN7android7BBinder16setRequestingSidEb"
  },
  {
   "name" : "_ZN7android7BBinder17getOrCreateExtrasEv"
  },
  {
   "binding" : "weak",
   "name" : "_ZN7android7BBinder21getMinSchedulerPolicyEv"
  },
  {
   "binding" : "weak",
   "name" : "_ZN7android7BBinder21setMinSchedulerPolicyEii"
  },
  {
   "binding" : "weak",
   "name" : "_ZN7android7BBinder23getMinSchedulerPriorityEv"
  },
  {
   "name" : "_ZN7android7BBinder4dumpEiRKNS_6VectorINS_8String16EEE"
  },
  {
   "name" : "_ZN7android7BBinder8transactEjRKNS_6ParcelEPS1_j"
  },
  {
   "name" : "_ZN7android7BBinderC1Ev"
  },
  {
   "name" : "_ZN7android7BBinderC2Ev"
  },
  {
   "name" : "_ZN7android7BBinderD0Ev"
  },
  {
   "name" : "_ZN7android7BBinderD1Ev"
  },
  {
   "name" : "_ZN7android7BBinderD2Ev"
  },
  {
   "name" : "_ZN7android7HexDumpC1EPKvmm"
  },
  {
   "name" : "_ZN7android7HexDumpC2EPKvmm"
  },
  {
   "name" : "_ZN7android7IBinder11getDebugPidEPi"
  },
  {
   "name" : "_ZN7android7IBinder11localBinderEv"
  },
  {
   "name" : "_ZN7android7IBinder12getExtensionEPNS_2spIS0_EE"
  },
  {
   "name" : "_ZN7android7IBinder12remoteBinderEv"
  },
  {
   "name" : "_ZN7android7IBinder12shellCommandERKNS_2spIS0_EEiiiRNS_6VectorINS_8String16EEERKNS1_INS_14IShellCallbackEEERKNS1_INS_15IResultReceiverEEE"
  },
  {
   "name" : "_ZN7android7IBinder19queryLocalInterfaceERKNS_8String16E"
  },
  {
   "name" : "_ZN7android7IBinderC2Ev"
  },
  {
   "name" : "_ZN7android7IBinderD0Ev"
  },
  {
   "name" : "_ZN7android7IBinderD1Ev"
  },
  {
   "name" : "_ZN7android7IBinderD2Ev"
  },
  {
   "name" : "_ZN7android7IMemory11asInterfaceERKNS_2spINS_7IBinderEEE"
  },
  {
   "name" : "_ZN7android7IMemory14getDefaultImplEv"
  },
  {
   "name" : "_ZN7android7IMemory14setDefaultImplENSt3__110unique_ptrIS0_NS1_14default_deleteIS0_EEEE"
  },
  {
   "name" : "_ZN7android7IMemoryC2Ev"
  },
  {
   "name" : "_ZN7android7IMemoryD0Ev"
  },
  {
   "name" : "_ZN7android7IMemoryD1Ev"
  },
  {
   "name" : "_ZN7android7IMemoryD2Ev"
  },
  {
   "name" : "_ZN7android7content2pm18PackageChangeEvent14readFromParcelEPKNS_6ParcelE"
  },
  {
   "name" : "_ZN7android7content2pm21IPackageManagerNative11asInterfaceERKNS_2spINS_7IBinderEEE"
  },
  {
   "name" : "_ZN7android7content2pm21IPackageManagerNative14getDefaultImplEv"
  },
  {
   "name" : "_ZN7android7content2pm21IPackageManagerNative14setDefaultImplENSt3__110unique_ptrIS2_NS3_14default_deleteIS2_EEEE"
  },
  {
   "name" : "_ZN7android7content2pm21IPackageManagerNativeC2Ev"
  },
  {
   "name" : "_ZN7android7content2pm21IPackageManagerNativeD0Ev"
  },
  {
   "name" : "_ZN7android7content2pm21IPackageManagerNativeD1Ev"
  },
  {
   "name" : "_ZN7android7content2pm21IPackageManagerNativeD2Ev"
  },
  {
   "name" : "_ZN7android7content2pm22BnPackageManagerNative10onTransactEjRKNS_6ParcelEPS3_j"
  },
  {
   "name" : "_ZN7android7content2pm22BnPackageManagerNativeC2Ev"
  },
  {
   "name" : "_ZN7android7content2pm22BpPackageManagerNative14getAllPackagesEPNSt3__16vectorINS3_12basic_stringIcNS3_11char_traitsIcEENS3_9allocatorIcEEEENS8_ISA_EEEE"
  },
  {
   "name" : "_ZN7android7content2pm22BpPackageManagerNative15getNamesForUidsERKNSt3__16vectorIiNS3_9allocatorIiEEEEPNS4_INS3_12basic_stringIcNS3_11char_traitsIcEENS5_IcEEEENS5_ISE_EEEE"
  },
  {
   "name" : "_ZN7android7content2pm22BpPackageManagerNative16getLocationFlagsERKNSt3__112basic_stringIcNS3_11char_traitsIcEENS3_9allocatorIcEEEEPi"
  },
  {
   "name" : "_ZN7android7content2pm22BpPackageManagerNative22getInstallerForPackageERKNS_8String16EPNSt3__112basic_stringIcNS6_11char_traitsIcEENS6_9allocatorIcEEEE"
  },
  {
   "name" : "_ZN7android7content2pm22BpPackageManagerNative24getVersionCodeForPackageERKNS_8String16EPl"
  },
  {
   "name" : "_ZN7android7content2pm22BpPackageManagerNative28getModuleMetadataPackageNameEPNSt3__112basic_stringIcNS3_11char_traitsIcEENS3_9allocatorIcEEEE"
  },
  {
   "name" : "_ZN7android7content2pm22BpPackageManagerNative29getTargetSdkVersionForPackageERKNS_8String16EPi"
  },
  {
   "name" : "_ZN7android7content2pm22BpPackageManagerNative29isAudioPlaybackCaptureAllowedERKNSt3__16vectorINS3_12basic_stringIcNS3_11char_traitsIcEENS3_9allocatorIcEEEENS8_ISA_EEEEPNS4_IbNS8_IbEEEE"
  },
  {
   "name" : "_ZN7android7content2pm22BpPackageManagerNative29registerPackageChangeObserverERKNS_2spINS1_22IPackageChangeObserverEEE"
  },
  {
   "name" : "_ZN7android7content2pm22BpPackageManagerNative31unregisterPackageChangeObserverERKNS_2spINS1_22IPackageChangeObserverEEE"
  },
  {
   "name" : "_ZN7android7content2pm22BpPackageManagerNativeC1ERKNS_2spINS_7IBinderEEE"
  },
  {
   "name" : "_ZN7android7content2pm22BpPackageManagerNativeC2ERKNS_2spINS_7IBinderEEE"
  },
  {
   "name" : "_ZN7android7content2pm22IPackageChangeObserver11asInterfaceERKNS_2spINS_7IBinderEEE"
  },
  {
   "name" : "_ZN7android7content2pm22IPackageChangeObserver14getDefaultImplEv"
  },
  {
   "name" : "_ZN7android7content2pm22IPackageChangeObserver14setDefaultImplENSt3__110unique_ptrIS2_NS3_14default_deleteIS2_EEEE"
  },
  {
   "name" : "_ZN7android7content2pm22IPackageChangeObserverC2Ev"
  },
  {
   "name" : "_ZN7android7content2pm22IPackageChangeObserverD0Ev"
  },
  {
   "name" : "_ZN7android7content2pm22IPackageChangeObserverD1Ev"
  },
  {
   "name" : "_ZN7android7content2pm22IPackageChangeObserverD2Ev"
  },
  {
   "name" : "_ZN7android7content2pm23BnPackageChangeObserver10onTransactEjRKNS_6ParcelEPS3_j"
  },
  {
   "name" : "_ZN7android7content2pm23BnPackageChangeObserverC2Ev"
  },
  {
   "name" : "_ZN7android7content2pm23BpPackageChangeObserver16onPackageChangedERKNS1_18PackageChangeEventE"
  },
  {
   "name" : "_ZN7android7content2pm23BpPackageChangeObserverC1ERKNS_2spINS_7IBinderEEE"
  },
  {
   "name" : "_ZN7android7content2pm23BpPackageChangeObserverC2ERKNS_2spINS_7IBinderEEE"
  },
  {
   "name" : "_ZN7android8BnMemory10onTransactEjRKNS_6ParcelEPS1_j"
  },
  {
   "name" : "_ZN7android8BnMemoryC2Ev"
  },
  {
   "name" : "_ZN7android8BnMemoryD0Ev"
  },
  {
   "name" : "_ZN7android8BnMemoryD1Ev"
  },
  {
   "name" : "_ZN7android8BnMemoryD2Ev"
  },
  {
   "name" : "_ZN7android8BpBinder10onFirstRefEv"
  },
  {
   "name" : "_ZN7android8BpBinder10pingBinderEv"
  },
  {
   "name" : "_ZN7android8BpBinder11linkToDeathERKNS_2spINS_7IBinder14DeathRecipientEEEPvj"
  },
  {
   "name" : "_ZN7android8BpBinder12attachObjectEPKvPvS3_PFvS2_S3_S3_E"
  },
  {
   "name" : "_ZN7android8BpBinder12detachObjectEPKv"
  },
  {
   "name" : "_ZN7android8BpBinder12remoteBinderEv"
  },
  {
   "name" : "_ZN7android8BpBinder12sendObituaryEv"
  },
  {
   "name" : "_ZN7android8BpBinder13ObjectManager4killEv"
  },
  {
   "name" : "_ZN7android8BpBinder13ObjectManager6attachEPKvPvS4_PFvS3_S4_S4_E"
  },
  {
   "name" : "_ZN7android8BpBinder13ObjectManager6detachEPKv"
  },
  {
   "name" : "_ZN7android8BpBinder13ObjectManagerC1Ev"
  },
  {
   "name" : "_ZN7android8BpBinder13ObjectManagerC2Ev"
  },
  {
   "name" : "_ZN7android8BpBinder13ObjectManagerD1Ev"
  },
  {
   "name" : "_ZN7android8BpBinder13ObjectManagerD2Ev"
  },
  {
   "name" : "_ZN7android8BpBinder13getCountByUidERNS_6VectorIjEES3_"
  },
  {
   "name" : "_ZN7android8BpBinder13unlinkToDeathERKNS_2wpINS_7IBinder14DeathRecipientEEEPvjPS4_"
  },
  {
   "name" : "_ZN7android8BpBinder14reportOneDeathERKNS0_8ObituaryE"
  },
  {
   "name" : "_ZN7android8BpBinder15onLastStrongRefEPKv"
  },
  {
   "name" : "_ZN7android8BpBinder16enableCountByUidEv"
  },
  {
   "name" : "_ZN7android8BpBinder16setLimitCallbackEPFviE"
  },
  {
   "name" : "_ZN7android8BpBinder17disableCountByUidEv"
  },
  {
   "name" : "_ZN7android8BpBinder19getBinderProxyCountEj"
  },
  {
   "name" : "_ZN7android8BpBinder20onIncStrongAttemptedEjPKv"
  },
  {
   "name" : "_ZN7android8BpBinder20setCountByUidEnabledEb"
  },
  {
   "name" : "_ZN7android8BpBinder29setBinderProxyCountWatermarksEii"
  },
  {
   "name" : "_ZN7android8BpBinder4dumpEiRKNS_6VectorINS_8String16EEE"
  },
  {
   "name" : "_ZN7android8BpBinder6createEi"
  },
  {
   "name" : "_ZN7android8BpBinder8transactEjRKNS_6ParcelEPS1_j"
  },
  {
   "name" : "_ZN7android8BpBinderC1Eii"
  },
  {
   "name" : "_ZN7android8BpBinderC2Eii"
  },
  {
   "name" : "_ZN7android8BpBinderD0Ev"
  },
  {
   "name" : "_ZN7android8BpBinderD1Ev"
  },
  {
   "name" : "_ZN7android8BpBinderD2Ev"
  },
  {
   "name" : "_ZN7android8BpMemoryC1ERKNS_2spINS_7IBinderEEE"
  },
  {
   "name" : "_ZN7android8BpMemoryC2ERKNS_2spINS_7IBinderEEE"
  },
  {
   "name" : "_ZN7android8BpMemoryD0Ev"
  },
  {
   "name" : "_ZN7android8BpMemoryD1Ev"
  },
  {
   "name" : "_ZN7android8BpMemoryD2Ev"
  },
  {
   "name" : "_ZN7android8internal9Stability15stabilityStringEi"
  },
  {
   "name" : "_ZN7android8internal9Stability17debugLogStabilityERKNSt3__112basic_stringIcNS2_11char_traitsIcEENS2_9allocatorIcEEEERKNS_2spINS_7IBinderEEE"
  },
  {
   "name" : "_ZN7android8internal9Stability19isDeclaredStabilityEi"
  },
  {
   "name" : "_ZN7android8internal9Stability19markCompilationUnitEPNS_7IBinderE"
  },
  {
   "name" : "_ZN7android8internal9Stability22tryMarkCompilationUnitEPNS_7IBinderE"
  },
  {
   "name" : "_ZN7android8internal9Stability24requiresVintfDeclarationERKNS_2spINS_7IBinderEEE"
  },
  {
   "name" : "_ZN7android8internal9Stability3getEPNS_7IBinderE"
  },
  {
   "name" : "_ZN7android8internal9Stability3setEPNS_7IBinderEib"
  },
  {
   "name" : "_ZN7android8internal9Stability5checkEiNS1_5LevelE"
  },
  {
   "name" : "_ZN7android8internal9Stability8markVndkEPNS_7IBinderE"
  },
  {
   "name" : "_ZN7android8internal9Stability9markVintfEPNS_7IBinderE"
  },
  {
   "name" : "_ZN7android9BpRefBase10onFirstRefEv"
  },
  {
   "name" : "_ZN7android9BpRefBase15onLastStrongRefEPKv"
  },
  {
   "name" : "_ZN7android9BpRefBase20onIncStrongAttemptedEjPKv"
  },
  {
   "name" : "_ZN7android9BpRefBaseC1ERKNS_2spINS_7IBinderEEE"
  },
  {
   "name" : "_ZN7android9BpRefBaseC2ERKNS_2spINS_7IBinderEEE"
  },
  {
   "name" : "_ZN7android9BpRefBaseD0Ev"
  },
  {
   "name" : "_ZN7android9BpRefBaseD1Ev"
  },
  {
   "name" : "_ZN7android9BpRefBaseD2Ev"
  },
  {
   "name" : "_ZN7android9HeapCache10binderDiedERKNS_2wpINS_7IBinderEEE"
  },
  {
   "name" : "_ZN7android9HeapCache10dump_heapsEv"
  },
  {
   "name" : "_ZN7android9HeapCache8get_heapERKNS_2spINS_7IBinderEEE"
  },
  {
   "name" : "_ZN7android9HeapCache9find_heapERKNS_2spINS_7IBinderEEE"
  },
  {
   "name" : "_ZN7android9HeapCache9free_heapERKNS_2spINS_7IBinderEEE"
  },
  {
   "name" : "_ZN7android9HeapCache9free_heapERKNS_2wpINS_7IBinderEEE"
  },
  {
   "name" : "_ZN7android9HeapCacheC1Ev"
  },
  {
   "name" : "_ZN7android9HeapCacheC2Ev"
  },
  {
   "name" : "_ZN7android9HeapCacheD0Ev"
  },
  {
   "name" : "_ZN7android9HeapCacheD1Ev"
  },
  {
   "name" : "_ZN7android9HeapCacheD2Ev"
  },
  {
   "name" : "_ZN7androidlsERNS_10TextOutputERKNS_7HexDumpE"
  },
  {
   "name" : "_ZN7androidlsERNS_10TextOutputERKNS_8TypeCodeE"
  },
  {
   "binding" : "weak",
   "name" : "_ZN7androidlsIA18_cEERNS_10TextOutputES3_RKT_"
  },
  {
   "binding" : "weak",
   "name" : "_ZN7androidlsIA2_cEERNS_10TextOutputES3_RKT_"
  },
  {
   "binding" : "weak",
   "name" : "_ZN7androidlsIA3_cEERNS_10TextOutputES3_RKT_"
  },
  {
   "binding" : "weak",
   "name" : "_ZN7androidlsIA4_cEERNS_10TextOutputES3_RKT_"
  },
  {
   "binding" : "weak",
   "name" : "_ZN7androidlsIA5_cEERNS_10TextOutputES3_RKT_"
  },
  {
   "binding" : "weak",
   "name" : "_ZN7androidlsIA66_cEERNS_10TextOutputES3_RKT_"
  },
  {
   "binding" : "weak",
   "name" : "_ZN7androidlsIA8_cEERNS_10TextOutputES3_RKT_"
  },
  {
   "binding" : "weak",
   "name" : "_ZN7androidlsIA9_cEERNS_10TextOutputES3_RKT_"
  },
  {
   "binding" : "weak",
   "name" : "_ZN7androidlsINSt3__112basic_stringIcNS1_11char_traitsIcEENS1_9allocatorIcEEEEEERNS_10TextOutputES9_RKT_"
  },
  {
   "binding" : "weak",
   "name" : "_ZN7androidlsIPcEERNS_10TextOutputES3_RKT_"
  },
  {
   "binding" : "weak",
   "name" : "_ZN7androidlsIPvEERNS_10TextOutputES3_RKT_"
  },
  {
   "binding" : "weak",
   "name" : "_ZN7androidlsImEERNS_10TextOutputES2_RKT_"
  },
  {
   "binding" : "weak",
   "name" : "_ZN7androidlsIyEERNS_10TextOutputES2_RKT_"
  },
  {
   "name" : "_ZNK7android10MemoryBase9getMemoryEPlPm"
  },
  {
   "name" : "_ZNK7android11IMemoryHeap22getInterfaceDescriptorEv"
  },
  {
   "name" : "_ZNK7android12BpMemoryHeap12assertMappedEv"
  },
  {
   "name" : "_ZNK7android12BpMemoryHeap18assertReallyMappedEv"
  },
  {
   "name" : "_ZNK7android12BpMemoryHeap7getBaseEv"
  },
  {
   "name" : "_ZNK7android12BpMemoryHeap7getSizeEv"
  },
  {
   "name" : "_ZNK7android12BpMemoryHeap8getFlagsEv"
  },
  {
   "name" : "_ZNK7android12BpMemoryHeap9getHeapIDEv"
  },
  {
   "name" : "_ZNK7android12BpMemoryHeap9getOffsetEv"
  },
  {
   "name" : "_ZNK7android12MemoryDealer4dumpEPKc"
  },
  {
   "name" : "_ZNK7android12MemoryDealer4heapEv"
  },
  {
   "name" : "_ZNK7android12MemoryDealer9allocatorEv"
  },
  {
   "binding" : "weak",
   "name" : "_ZNK7android12SortedVectorINS_16key_value_pair_tINS_2wpINS_7IBinderEEENS_9HeapCache11heap_info_tEEEE10do_compareEPKvSA_"
  },
  {
   "binding" : "weak",
   "name" : "_ZNK7android12SortedVectorINS_16key_value_pair_tINS_2wpINS_7IBinderEEENS_9HeapCache11heap_info_tEEEE10do_destroyEPvm"
  },
  {
   "binding" : "weak",
   "name" : "_ZNK7android12SortedVectorINS_16key_value_pair_tINS_2wpINS_7IBinderEEENS_9HeapCache11heap_info_tEEEE12do_constructEPvm"
  },
  {
   "binding" : "weak",
   "name" : "_ZNK7android12SortedVectorINS_16key_value_pair_tINS_2wpINS_7IBinderEEENS_9HeapCache11heap_info_tEEEE15do_move_forwardEPvPKvm"
  },
  {
   "binding" : "weak",
   "name" : "_ZNK7android12SortedVectorINS_16key_value_pair_tINS_2wpINS_7IBinderEEENS_9HeapCache11heap_info_tEEEE16do_move_backwardEPvPKvm"
  },
  {
   "binding" : "weak",
   "name" : "_ZNK7android12SortedVectorINS_16key_value_pair_tINS_2wpINS_7IBinderEEENS_9HeapCache11heap_info_tEEEE7do_copyEPvPKvm"
  },
  {
   "binding" : "weak",
   "name" : "_ZNK7android12SortedVectorINS_16key_value_pair_tINS_2wpINS_7IBinderEEENS_9HeapCache11heap_info_tEEEE8do_splatEPvPKvm"
  },
  {
   "binding" : "weak",
   "name" : "_ZNK7android12SortedVectorINS_16key_value_pair_tIPKvNS_8BpBinder13ObjectManager7entry_tEEEE10do_compareES3_S3_"
  },
  {
   "binding" : "weak",
   "name" : "_ZNK7android12SortedVectorINS_16key_value_pair_tIPKvNS_8BpBinder13ObjectManager7entry_tEEEE10do_destroyEPvm"
  },
  {
   "binding" : "weak",
   "name" : "_ZNK7android12SortedVectorINS_16key_value_pair_tIPKvNS_8BpBinder13ObjectManager7entry_tEEEE12do_constructEPvm"
  },
  {
   "binding" : "weak",
   "name" : "_ZNK7android12SortedVectorINS_16key_value_pair_tIPKvNS_8BpBinder13ObjectManager7entry_tEEEE15do_move_forwardEPvS3_m"
  },
  {
   "binding" : "weak",
   "name" : "_ZNK7android12SortedVectorINS_16key_value_pair_tIPKvNS_8BpBinder13ObjectManager7entry_tEEEE16do_move_backwardEPvS3_m"
  },
  {
   "binding" : "weak",
   "name" : "_ZNK7android12SortedVectorINS_16key_value_pair_tIPKvNS_8BpBinder13ObjectManager7entry_tEEEE7do_copyEPvS3_m"
  },
  {
   "binding" : "weak",
   "name" : "_ZNK7android12SortedVectorINS_16key_value_pair_tIPKvNS_8BpBinder13ObjectManager7entry_tEEEE8do_splatEPvS3_m"
  },
  {
   "name" : "_ZNK7android14IPCThreadState13getCallingPidEv"
  },
  {
   "name" : "_ZNK7android14IPCThreadState13getCallingSidEv"
  },
  {
   "name" : "_ZNK7android14IPCThreadState13getCallingUidEv"
  },
  {
   "name" : "_ZNK7android14IPCThreadState19getStrictModePolicyEv"
  },
  {
   "name" : "_ZNK7android14IPCThreadState22getServingStackPointerEv"
  },
  {
   "name" : "_ZNK7android14IPCThreadState23getCallingWorkSourceUidEv"
  },
  {
   "name" : "_ZNK7android14IPCThreadState25shouldPropagateWorkSourceEv"
  },
  {
   "name" : "_ZNK7android14IPCThreadState29getLastTransactionBinderFlagsEv"
  },
  {
   "name" : "_ZNK7android14IShellCallback22getInterfaceDescriptorEv"
  },
  {
   "name" : "_ZNK7android14MemoryHeapBase7getBaseEv"
  },
  {
   "name" : "_ZNK7android14MemoryHeapBase7getSizeEv"
  },
  {
   "name" : "_ZNK7android14MemoryHeapBase8getFlagsEv"
  },
  {
   "name" : "_ZNK7android14MemoryHeapBase9getDeviceEv"
  },
  {
   "name" : "_ZNK7android14MemoryHeapBase9getHeapIDEv"
  },
  {
   "name" : "_ZNK7android14MemoryHeapBase9getOffsetEv"
  },
  {
   "name" : "_ZNK7android15IResultReceiver22getInterfaceDescriptorEv"
  },
  {
   "name" : "_ZNK7android15IServiceManager22getInterfaceDescriptorEv"
  },
  {
   "name" : "_ZNK7android18BufferedTextOutput9getBufferEv"
  },
  {
   "name" : "_ZNK7android18ServiceManagerShim10getServiceERKNS_8String16E"
  },
  {
   "name" : "_ZNK7android18ServiceManagerShim12checkServiceERKNS_8String16E"
  },
  {
   "name" : "_ZNK7android22SimpleBestFitAllocator4dumpEPKc"
  },
  {
   "name" : "_ZNK7android22SimpleBestFitAllocator4dumpERNS_7String8EPKc"
  },
  {
   "name" : "_ZNK7android22SimpleBestFitAllocator4sizeEv"
  },
  {
   "name" : "_ZNK7android22SimpleBestFitAllocator6dump_lEPKc"
  },
  {
   "name" : "_ZNK7android22SimpleBestFitAllocator6dump_lERNS_7String8EPKc"
  },
  {
   "name" : "_ZNK7android2os15IClientCallback22getInterfaceDescriptorEv"
  },
  {
   "name" : "_ZNK7android2os15IServiceManager22getInterfaceDescriptorEv"
  },
  {
   "name" : "_ZNK7android2os16IServiceCallback22getInterfaceDescriptorEv"
  },
  {
   "name" : "_ZNK7android2os17PersistableBundle10getBooleanERKNS_8String16EPb"
  },
  {
   "name" : "_ZNK7android2os17PersistableBundle10getIntKeysEv"
  },
  {
   "name" : "_ZNK7android2os17PersistableBundle11getLongKeysEv"
  },
  {
   "name" : "_ZNK7android2os17PersistableBundle12getIntVectorERKNS_8String16EPNSt3__16vectorIiNS5_9allocatorIiEEEE"
  },
  {
   "name" : "_ZNK7android2os17PersistableBundle13getDoubleKeysEv"
  },
  {
   "name" : "_ZNK7android2os17PersistableBundle13getLongVectorERKNS_8String16EPNSt3__16vectorIlNS5_9allocatorIlEEEE"
  },
  {
   "name" : "_ZNK7android2os17PersistableBundle13getStringKeysEv"
  },
  {
   "name" : "_ZNK7android2os17PersistableBundle13writeToParcelEPNS_6ParcelE"
  },
  {
   "name" : "_ZNK7android2os17PersistableBundle14getBooleanKeysEv"
  },
  {
   "name" : "_ZNK7android2os17PersistableBundle15getDoubleVectorERKNS_8String16EPNSt3__16vectorIdNS5_9allocatorIdEEEE"
  },
  {
   "name" : "_ZNK7android2os17PersistableBundle15getStringVectorERKNS_8String16EPNSt3__16vectorIS2_NS5_9allocatorIS2_EEEE"
  },
  {
   "name" : "_ZNK7android2os17PersistableBundle16getBooleanVectorERKNS_8String16EPNSt3__16vectorIbNS5_9allocatorIbEEEE"
  },
  {
   "name" : "_ZNK7android2os17PersistableBundle16getIntVectorKeysEv"
  },
  {
   "name" : "_ZNK7android2os17PersistableBundle17getLongVectorKeysEv"
  },
  {
   "name" : "_ZNK7android2os17PersistableBundle18writeToParcelInnerEPNS_6ParcelE"
  },
  {
   "name" : "_ZNK7android2os17PersistableBundle19getDoubleVectorKeysEv"
  },
  {
   "name" : "_ZNK7android2os17PersistableBundle19getStringVectorKeysEv"
  },
  {
   "name" : "_ZNK7android2os17PersistableBundle20getBooleanVectorKeysEv"
  },
  {
   "name" : "_ZNK7android2os17PersistableBundle20getPersistableBundleERKNS_8String16EPS1_"
  },
  {
   "name" : "_ZNK7android2os17PersistableBundle24getPersistableBundleKeysEv"
  },
  {
   "name" : "_ZNK7android2os17PersistableBundle4sizeEv"
  },
  {
   "name" : "_ZNK7android2os17PersistableBundle5emptyEv"
  },
  {
   "name" : "_ZNK7android2os17PersistableBundle6getIntERKNS_8String16EPi"
  },
  {
   "name" : "_ZNK7android2os17PersistableBundle7getLongERKNS_8String16EPl"
  },
  {
   "name" : "_ZNK7android2os17PersistableBundle9getDoubleERKNS_8String16EPd"
  },
  {
   "name" : "_ZNK7android2os17PersistableBundle9getStringERKNS_8String16EPS2_"
  },
  {
   "name" : "_ZNK7android2os20ParcelFileDescriptor13writeToParcelEPNS_6ParcelE"
  },
  {
   "name" : "_ZNK7android6Parcel10errorCheckEv"
  },
  {
   "name" : "_ZNK7android6Parcel10ipcObjectsEv"
  },
  {
   "name" : "_ZNK7android6Parcel10readDoubleEPd"
  },
  {
   "name" : "_ZNK7android6Parcel10readDoubleEv"
  },
  {
   "name" : "_ZNK7android6Parcel10readIntPtrEPl"
  },
  {
   "name" : "_ZNK7android6Parcel10readIntPtrEv"
  },
  {
   "name" : "_ZNK7android6Parcel10readObjectEb"
  },
  {
   "name" : "_ZNK7android6Parcel10readUint32EPj"
  },
  {
   "name" : "_ZNK7android6Parcel10readUint32Ev"
  },
  {
   "name" : "_ZNK7android6Parcel10readUint64EPm"
  },
  {
   "name" : "_ZNK7android6Parcel10readUint64Ev"
  },
  {
   "name" : "_ZNK7android6Parcel10scanForFdsEv"
  },
  {
   "name" : "_ZNK7android6Parcel11ipcDataSizeEv"
  },
  {
   "name" : "_ZNK7android6Parcel11readCStringEv"
  },
  {
   "name" : "_ZNK7android6Parcel11readInplaceEm"
  },
  {
   "name" : "_ZNK7android6Parcel11readPointerEPm"
  },
  {
   "name" : "_ZNK7android6Parcel11readPointerEv"
  },
  {
   "name" : "_ZNK7android6Parcel11readString8EPNS_7String8E"
  },
  {
   "name" : "_ZNK7android6Parcel11readString8Ev"
  },
  {
   "name" : "_ZNK7android6Parcel12dataCapacityEv"
  },
  {
   "name" : "_ZNK7android6Parcel12dataPositionEv"
  },
  {
   "name" : "_ZNK7android6Parcel12objectsCountEv"
  },
  {
   "name" : "_ZNK7android6Parcel12readString16EPNS_8String16E"
  },
  {
   "name" : "_ZNK7android6Parcel12readString16EPNSt3__110unique_ptrINS_8String16ENS1_14default_deleteIS3_EEEE"
  },
  {
   "name" : "_ZNK7android6Parcel12readString16Ev"
  },
  {
   "name" : "_ZNK7android6Parcel14checkInterfaceEPNS_7IBinderE"
  },
  {
   "name" : "_ZNK7android6Parcel14readBoolVectorEPNSt3__110unique_ptrINS1_6vectorIbNS1_9allocatorIbEEEENS1_14default_deleteIS6_EEEE"
  },
  {
   "name" : "_ZNK7android6Parcel14readBoolVectorEPNSt3__16vectorIbNS1_9allocatorIbEEEE"
  },
  {
   "name" : "_ZNK7android6Parcel14readByteVectorEPNSt3__110unique_ptrINS1_6vectorIaNS1_9allocatorIaEEEENS1_14default_deleteIS6_EEEE"
  },
  {
   "name" : "_ZNK7android6Parcel14readByteVectorEPNSt3__110unique_ptrINS1_6vectorIhNS1_9allocatorIhEEEENS1_14default_deleteIS6_EEEE"
  },
  {
   "name" : "_ZNK7android6Parcel14readByteVectorEPNSt3__16vectorIaNS1_9allocatorIaEEEE"
  },
  {
   "name" : "_ZNK7android6Parcel14readByteVectorEPNSt3__16vectorIhNS1_9allocatorIhEEEE"
  },
  {
   "name" : "_ZNK7android6Parcel14readCharVectorEPNSt3__110unique_ptrINS1_6vectorIDsNS1_9allocatorIDsEEEENS1_14default_deleteIS6_EEEE"
  },
  {
   "name" : "_ZNK7android6Parcel14readCharVectorEPNSt3__16vectorIDsNS1_9allocatorIDsEEEE"
  },
  {
   "name" : "_ZNK7android6Parcel14readParcelableEPNS_10ParcelableE"
  },
  {
   "name" : "_ZNK7android6Parcel15ipcObjectsCountEv"
  },
  {
   "name" : "_ZNK7android6Parcel15readFloatVectorEPNSt3__110unique_ptrINS1_6vectorIfNS1_9allocatorIfEEEENS1_14default_deleteIS6_EEEE"
  },
  {
   "name" : "_ZNK7android6Parcel15readFloatVectorEPNSt3__16vectorIfNS1_9allocatorIfEEEE"
  },
  {
   "name" : "_ZNK7android6Parcel15readInt32VectorEPNSt3__110unique_ptrINS1_6vectorIiNS1_9allocatorIiEEEENS1_14default_deleteIS6_EEEE"
  },
  {
   "name" : "_ZNK7android6Parcel15readInt32VectorEPNSt3__16vectorIiNS1_9allocatorIiEEEE"
  },
  {
   "name" : "_ZNK7android6Parcel15readInt64VectorEPNSt3__110unique_ptrINS1_6vectorIlNS1_9allocatorIlEEEENS1_14default_deleteIS6_EEEE"
  },
  {
   "name" : "_ZNK7android6Parcel15readInt64VectorEPNSt3__16vectorIlNS1_9allocatorIlEEEE"
  },
  {
   "name" : "_ZNK7android6Parcel15setDataPositionEm"
  },
  {
   "name" : "_ZNK7android6Parcel15unflattenBinderEPNS_2spINS_7IBinderEEE"
  },
  {
   "name" : "_ZNK7android6Parcel16enforceInterfaceEPKDsmPNS_14IPCThreadStateE"
  },
  {
   "name" : "_ZNK7android6Parcel16enforceInterfaceERKNS_8String16EPNS_14IPCThreadStateE"
  },
  {
   "name" : "_ZNK7android6Parcel16readDoubleVectorEPNSt3__110unique_ptrINS1_6vectorIdNS1_9allocatorIdEEEENS1_14default_deleteIS6_EEEE"
  },
  {
   "name" : "_ZNK7android6Parcel16readDoubleVectorEPNSt3__16vectorIdNS1_9allocatorIdEEEE"
  },
  {
   "name" : "_ZNK7android6Parcel16readNativeHandleEv"
  },
  {
   "name" : "_ZNK7android6Parcel16readStrongBinderEPNS_2spINS_7IBinderEEE"
  },
  {
   "name" : "_ZNK7android6Parcel16readStrongBinderEv"
  },
  {
   "binding" : "weak",
   "name" : "_ZNK7android6Parcel16readStrongBinderINS_2os15IClientCallbackEEEiPNS_2spIT_EE"
  },
  {
   "binding" : "weak",
   "name" : "_ZNK7android6Parcel16readStrongBinderINS_2os16IServiceCallbackEEEiPNS_2spIT_EE"
  },
  {
   "binding" : "weak",
   "name" : "_ZNK7android6Parcel16readStrongBinderINS_7content2pm22IPackageChangeObserverEEEiPNS_2spIT_EE"
  },
  {
   "name" : "_ZNK7android6Parcel16readUint64VectorEPNSt3__110unique_ptrINS1_6vectorImNS1_9allocatorImEEEENS1_14default_deleteIS6_EEEE"
  },
  {
   "name" : "_ZNK7android6Parcel16readUint64VectorEPNSt3__16vectorImNS1_9allocatorImEEEE"
  },
  {
   "binding" : "weak",
   "name" : "_ZNK7android6Parcel16reserveOutVectorIaEEiPNSt3__110unique_ptrINS2_6vectorIT_NS2_9allocatorIS5_EEEENS2_14default_deleteIS8_EEEEPm"
  },
  {
   "binding" : "weak",
   "name" : "_ZNK7android6Parcel16reserveOutVectorIaEEiPNSt3__16vectorIT_NS2_9allocatorIS4_EEEEPm"
  },
  {
   "binding" : "weak",
   "name" : "_ZNK7android6Parcel16reserveOutVectorIhEEiPNSt3__110unique_ptrINS2_6vectorIT_NS2_9allocatorIS5_EEEENS2_14default_deleteIS8_EEEEPm"
  },
  {
   "binding" : "weak",
   "name" : "_ZNK7android6Parcel16reserveOutVectorIhEEiPNSt3__16vectorIT_NS2_9allocatorIS4_EEEEPm"
  },
  {
   "name" : "_ZNK7android6Parcel16validateReadDataEm"
  },
  {
   "name" : "_ZNK7android6Parcel17getBlobAshmemSizeEv"
  },
  {
   "name" : "_ZNK7android6Parcel17getOpenAshmemSizeEv"
  },
  {
   "name" : "_ZNK7android6Parcel17readExceptionCodeEv"
  },
  {
   "name" : "_ZNK7android6Parcel17readUtf8FromUtf16EPNSt3__110unique_ptrINS1_12basic_stringIcNS1_11char_traitsIcEENS1_9allocatorIcEEEENS1_14default_deleteIS8_EEEE"
  },
  {
   "name" : "_ZNK7android6Parcel17readUtf8FromUtf16EPNSt3__112basic_stringIcNS1_11char_traitsIcEENS1_9allocatorIcEEEE"
  },
  {
   "name" : "_ZNK7android6Parcel18hasFileDescriptorsEv"
  },
  {
   "name" : "_ZNK7android6Parcel18readFileDescriptorEv"
  },
  {
   "name" : "_ZNK7android6Parcel18readString16VectorEPNSt3__110unique_ptrINS1_6vectorINS2_INS_8String16ENS1_14default_deleteIS4_EEEENS1_9allocatorIS7_EEEENS5_ISA_EEEE"
  },
  {
   "name" : "_ZNK7android6Parcel18readString16VectorEPNSt3__16vectorINS_8String16ENS1_9allocatorIS3_EEEE"
  },
  {
   "name" : "_ZNK7android6Parcel18readString8InplaceEPm"
  },
  {
   "name" : "_ZNK7android6Parcel19readString16InplaceEPm"
  },
  {
   "name" : "_ZNK7android6Parcel21finishUnflattenBinderERKNS_2spINS_7IBinderEEEPS3_"
  },
  {
   "binding" : "weak",
   "name" : "_ZNK7android6Parcel21unsafeReadTypedVectorIDsDsEEiPNSt3__16vectorIT_NS2_9allocatorIS4_EEEEMS0_KFiPT0_E"
  },
  {
   "binding" : "weak",
   "name" : "_ZNK7android6Parcel21unsafeReadTypedVectorINS_2spINS_7IBinderEEES4_EEiPNSt3__16vectorIT_NS5_9allocatorIS7_EEEEMS0_KFiPT0_E"
  },
  {
   "binding" : "weak",
   "name" : "_ZNK7android6Parcel21unsafeReadTypedVectorINS_4base14unique_fd_implINS2_13DefaultCloserEEES5_EEiPNSt3__16vectorIT_NS6_9allocatorIS8_EEEEMS0_KFiPT0_E"
  },
  {
   "binding" : "weak",
   "name" : "_ZNK7android6Parcel21unsafeReadTypedVectorINS_8String16ES2_EEiPNSt3__16vectorIT_NS3_9allocatorIS5_EEEEMS0_KFiPT0_E"
  },
  {
   "binding" : "weak",
   "name" : "_ZNK7android6Parcel21unsafeReadTypedVectorINSt3__110unique_ptrINS2_12basic_stringIcNS2_11char_traitsIcEENS2_9allocatorIcEEEENS2_14default_deleteIS9_EEEESC_EEiPNS2_6vectorIT_NS7_ISE_EEEEMS0_KFiPT0_E"
  },
  {
   "binding" : "weak",
   "name" : "_ZNK7android6Parcel21unsafeReadTypedVectorINSt3__110unique_ptrINS_8String16ENS2_14default_deleteIS4_EEEES7_EEiPNS2_6vectorIT_NS2_9allocatorIS9_EEEEMS0_KFiPT0_E"
  },
  {
   "binding" : "weak",
   "name" : "_ZNK7android6Parcel21unsafeReadTypedVectorINSt3__112basic_stringIcNS2_11char_traitsIcEENS2_9allocatorIcEEEES8_EEiPNS2_6vectorIT_NS6_ISA_EEEEMS0_KFiPT0_E"
  },
  {
   "binding" : "weak",
   "name" : "_ZNK7android6Parcel21unsafeReadTypedVectorIddEEiPNSt3__16vectorIT_NS2_9allocatorIS4_EEEEMS0_KFiPT0_E"
  },
  {
   "binding" : "weak",
   "name" : "_ZNK7android6Parcel21unsafeReadTypedVectorIffEEiPNSt3__16vectorIT_NS2_9allocatorIS4_EEEEMS0_KFiPT0_E"
  },
  {
   "binding" : "weak",
   "name" : "_ZNK7android6Parcel21unsafeReadTypedVectorIiiEEiPNSt3__16vectorIT_NS2_9allocatorIS4_EEEEMS0_KFiPT0_E"
  },
  {
   "binding" : "weak",
   "name" : "_ZNK7android6Parcel21unsafeReadTypedVectorIllEEiPNSt3__16vectorIT_NS2_9allocatorIS4_EEEEMS0_KFiPT0_E"
  },
  {
   "binding" : "weak",
   "name" : "_ZNK7android6Parcel21unsafeReadTypedVectorImmEEiPNSt3__16vectorIT_NS2_9allocatorIS4_EEEEMS0_KFiPT0_E"
  },
  {
   "name" : "_ZNK7android6Parcel22readStrongBinderVectorEPNSt3__110unique_ptrINS1_6vectorINS_2spINS_7IBinderEEENS1_9allocatorIS6_EEEENS1_14default_deleteIS9_EEEE"
  },
  {
   "name" : "_ZNK7android6Parcel22readStrongBinderVectorEPNSt3__16vectorINS_2spINS_7IBinderEEENS1_9allocatorIS5_EEEE"
  },
  {
   "binding" : "weak",
   "name" : "_ZNK7android6Parcel23readNullableTypedVectorIDsEEiPNSt3__110unique_ptrINS2_6vectorIT_NS2_9allocatorIS5_EEEENS2_14default_deleteIS8_EEEEMS0_KFiPS5_E"
  },
  {
   "binding" : "weak",
   "name" : "_ZNK7android6Parcel23readNullableTypedVectorINS_2spINS_7IBinderEEEEEiPNSt3__110unique_ptrINS5_6vectorIT_NS5_9allocatorIS8_EEEENS5_14default_deleteISB_EEEEMS0_KFiPS8_E"
  },
  {
   "binding" : "weak",
   "name" : "_ZNK7android6Parcel23readNullableTypedVectorINS_4base14unique_fd_implINS2_13DefaultCloserEEEEEiPNSt3__110unique_ptrINS6_6vectorIT_NS6_9allocatorIS9_EEEENS6_14default_deleteISC_EEEEMS0_KFiPS9_E"
  },
  {
   "binding" : "weak",
   "name" : "_ZNK7android6Parcel23readNullableTypedVectorINSt3__110unique_ptrINS2_12basic_stringIcNS2_11char_traitsIcEENS2_9allocatorIcEEEENS2_14default_deleteIS9_EEEEEEiPNS3_INS2_6vectorIT_NS7_ISE_EEEENSA_ISG_EEEEMS0_KFiPSE_E"
  },
  {
   "binding" : "weak",
   "name" : "_ZNK7android6Parcel23readNullableTypedVectorINSt3__110unique_ptrINS_8String16ENS2_14default_deleteIS4_EEEEEEiPNS3_INS2_6vectorIT_NS2_9allocatorIS9_EEEENS5_ISC_EEEEMS0_KFiPS9_E"
  },
  {
   "binding" : "weak",
   "name" : "_ZNK7android6Parcel23readNullableTypedVectorIdEEiPNSt3__110unique_ptrINS2_6vectorIT_NS2_9allocatorIS5_EEEENS2_14default_deleteIS8_EEEEMS0_KFiPS5_E"
  },
  {
   "binding" : "weak",
   "name" : "_ZNK7android6Parcel23readNullableTypedVectorIfEEiPNSt3__110unique_ptrINS2_6vectorIT_NS2_9allocatorIS5_EEEENS2_14default_deleteIS8_EEEEMS0_KFiPS5_E"
  },
  {
   "binding" : "weak",
   "name" : "_ZNK7android6Parcel23readNullableTypedVectorIiEEiPNSt3__110unique_ptrINS2_6vectorIT_NS2_9allocatorIS5_EEEENS2_14default_deleteIS8_EEEEMS0_KFiPS5_E"
  },
  {
   "binding" : "weak",
   "name" : "_ZNK7android6Parcel23readNullableTypedVectorIlEEiPNSt3__110unique_ptrINS2_6vectorIT_NS2_9allocatorIS5_EEEENS2_14default_deleteIS8_EEEEMS0_KFiPS5_E"
  },
  {
   "binding" : "weak",
   "name" : "_ZNK7android6Parcel23readNullableTypedVectorImEEiPNSt3__110unique_ptrINS2_6vectorIT_NS2_9allocatorIS5_EEEENS2_14default_deleteIS8_EEEEMS0_KFiPS5_E"
  },
  {
   "name" : "_ZNK7android6Parcel24readCallingWorkSourceUidEv"
  },
  {
   "name" : "_ZNK7android6Parcel24readNullableStrongBinderEPNS_2spINS_7IBinderEEE"
  },
  {
   "name" : "_ZNK7android6Parcel24readParcelFileDescriptorEv"
  },
  {
   "name" : "_ZNK7android6Parcel24readUniqueFileDescriptorEPNS_4base14unique_fd_implINS1_13DefaultCloserEEE"
  },
  {
   "name" : "_ZNK7android6Parcel29readUtf8VectorFromUtf16VectorEPNSt3__110unique_ptrINS1_6vectorINS2_INS1_12basic_stringIcNS1_11char_traitsIcEENS1_9allocatorIcEEEENS1_14default_deleteIS9_EEEENS7_ISC_EEEENSA_ISE_EEEE"
  },
  {
   "name" : "_ZNK7android6Parcel29readUtf8VectorFromUtf16VectorEPNSt3__16vectorINS1_12basic_stringIcNS1_11char_traitsIcEENS1_9allocatorIcEEEENS6_IS8_EEEE"
  },
  {
   "name" : "_ZNK7android6Parcel30readUniqueFileDescriptorVectorEPNSt3__110unique_ptrINS1_6vectorINS_4base14unique_fd_implINS4_13DefaultCloserEEENS1_9allocatorIS7_EEEENS1_14default_deleteISA_EEEE"
  },
  {
   "name" : "_ZNK7android6Parcel30readUniqueFileDescriptorVectorEPNSt3__16vectorINS_4base14unique_fd_implINS3_13DefaultCloserEEENS1_9allocatorIS6_EEEE"
  },
  {
   "name" : "_ZNK7android6Parcel30readUniqueParcelFileDescriptorEPNS_4base14unique_fd_implINS1_13DefaultCloserEEE"
  },
  {
   "name" : "_ZNK7android6Parcel37updateWorkSourceRequestHeaderPositionEv"
  },
  {
   "name" : "_ZNK7android6Parcel4dataEv"
  },
  {
   "name" : "_ZNK7android6Parcel4readEPvm"
  },
  {
   "name" : "_ZNK7android6Parcel4readERNS0_26FlattenableHelperInterfaceE"
  },
  {
   "name" : "_ZNK7android6Parcel5printERNS_10TextOutputEj"
  },
  {
   "name" : "_ZNK7android6Parcel7ipcDataEv"
  },
  {
   "name" : "_ZNK7android6Parcel8allowFdsEv"
  },
  {
   "name" : "_ZNK7android6Parcel8dataSizeEv"
  },
  {
   "name" : "_ZNK7android6Parcel8readBlobEmPNS0_12ReadableBlobE"
  },
  {
   "name" : "_ZNK7android6Parcel8readBoolEPb"
  },
  {
   "name" : "_ZNK7android6Parcel8readBoolEv"
  },
  {
   "name" : "_ZNK7android6Parcel8readByteEPa"
  },
  {
   "name" : "_ZNK7android6Parcel8readByteEv"
  },
  {
   "name" : "_ZNK7android6Parcel8readCharEPDs"
  },
  {
   "name" : "_ZNK7android6Parcel8readCharEv"
  },
  {
   "name" : "_ZNK7android6Parcel9dataAvailEv"
  },
  {
   "name" : "_ZNK7android6Parcel9readFloatEPf"
  },
  {
   "name" : "_ZNK7android6Parcel9readFloatEv"
  },
  {
   "name" : "_ZNK7android6Parcel9readInt32EPi"
  },
  {
   "name" : "_ZNK7android6Parcel9readInt32Ev"
  },
  {
   "name" : "_ZNK7android6Parcel9readInt64EPl"
  },
  {
   "name" : "_ZNK7android6Parcel9readInt64Ev"
  },
  {
   "binding" : "weak",
   "name" : "_ZNK7android6VectorINS_12ProcessState12handle_entryEE10do_destroyEPvm"
  },
  {
   "binding" : "weak",
   "name" : "_ZNK7android6VectorINS_12ProcessState12handle_entryEE12do_constructEPvm"
  },
  {
   "binding" : "weak",
   "name" : "_ZNK7android6VectorINS_12ProcessState12handle_entryEE15do_move_forwardEPvPKvm"
  },
  {
   "binding" : "weak",
   "name" : "_ZNK7android6VectorINS_12ProcessState12handle_entryEE16do_move_backwardEPvPKvm"
  },
  {
   "binding" : "weak",
   "name" : "_ZNK7android6VectorINS_12ProcessState12handle_entryEE7do_copyEPvPKvm"
  },
  {
   "binding" : "weak",
   "name" : "_ZNK7android6VectorINS_12ProcessState12handle_entryEE8do_splatEPvPKvm"
  },
  {
   "binding" : "weak",
   "name" : "_ZNK7android6VectorINS_2spINS_18BufferedTextOutput11BufferStateEEEE10do_destroyEPvm"
  },
  {
   "binding" : "weak",
   "name" : "_ZNK7android6VectorINS_2spINS_18BufferedTextOutput11BufferStateEEEE12do_constructEPvm"
  },
  {
   "binding" : "weak",
   "name" : "_ZNK7android6VectorINS_2spINS_18BufferedTextOutput11BufferStateEEEE15do_move_forwardEPvPKvm"
  },
  {
   "binding" : "weak",
   "name" : "_ZNK7android6VectorINS_2spINS_18BufferedTextOutput11BufferStateEEEE16do_move_backwardEPvPKvm"
  },
  {
   "binding" : "weak",
   "name" : "_ZNK7android6VectorINS_2spINS_18BufferedTextOutput11BufferStateEEEE7do_copyEPvPKvm"
  },
  {
   "binding" : "weak",
   "name" : "_ZNK7android6VectorINS_2spINS_18BufferedTextOutput11BufferStateEEEE8do_splatEPvPKvm"
  },
  {
   "binding" : "weak",
   "name" : "_ZNK7android6VectorINS_8BpBinder8ObituaryEE10do_destroyEPvm"
  },
  {
   "binding" : "weak",
   "name" : "_ZNK7android6VectorINS_8BpBinder8ObituaryEE12do_constructEPvm"
  },
  {
   "binding" : "weak",
   "name" : "_ZNK7android6VectorINS_8BpBinder8ObituaryEE15do_move_forwardEPvPKvm"
  },
  {
   "binding" : "weak",
   "name" : "_ZNK7android6VectorINS_8BpBinder8ObituaryEE16do_move_backwardEPvPKvm"
  },
  {
   "binding" : "weak",
   "name" : "_ZNK7android6VectorINS_8BpBinder8ObituaryEE7do_copyEPvPKvm"
  },
  {
   "binding" : "weak",
   "name" : "_ZNK7android6VectorINS_8BpBinder8ObituaryEE8do_splatEPvPKvm"
  },
  {
   "binding" : "weak",
   "name" : "_ZNK7android6VectorINS_8String16EE10do_destroyEPvm"
  },
  {
   "binding" : "weak",
   "name" : "_ZNK7android6VectorINS_8String16EE12do_constructEPvm"
  },
  {
   "binding" : "weak",
   "name" : "_ZNK7android6VectorINS_8String16EE15do_move_forwardEPvPKvm"
  },
  {
   "binding" : "weak",
   "name" : "_ZNK7android6VectorINS_8String16EE16do_move_backwardEPvPKvm"
  },
  {
   "binding" : "weak",
   "name" : "_ZNK7android6VectorINS_8String16EE7do_copyEPvPKvm"
  },
  {
   "binding" : "weak",
   "name" : "_ZNK7android6VectorINS_8String16EE8do_splatEPvPKvm"
  },
  {
   "binding" : "weak",
   "name" : "_ZNK7android6VectorIPNS_7BBinderEE10do_destroyEPvm"
  },
  {
   "binding" : "weak",
   "name" : "_ZNK7android6VectorIPNS_7BBinderEE12do_constructEPvm"
  },
  {
   "binding" : "weak",
   "name" : "_ZNK7android6VectorIPNS_7BBinderEE15do_move_forwardEPvPKvm"
  },
  {
   "binding" : "weak",
   "name" : "_ZNK7android6VectorIPNS_7BBinderEE16do_move_backwardEPvPKvm"
  },
  {
   "binding" : "weak",
   "name" : "_ZNK7android6VectorIPNS_7BBinderEE7do_copyEPvPKvm"
  },
  {
   "binding" : "weak",
   "name" : "_ZNK7android6VectorIPNS_7BBinderEE8do_splatEPvPKvm"
  },
  {
   "binding" : "weak",
   "name" : "_ZNK7android6VectorIPNS_7RefBase12weakref_typeEE10do_destroyEPvm"
  },
  {
   "binding" : "weak",
   "name" : "_ZNK7android6VectorIPNS_7RefBase12weakref_typeEE12do_constructEPvm"
  },
  {
   "binding" : "weak",
   "name" : "_ZNK7android6VectorIPNS_7RefBase12weakref_typeEE15do_move_forwardEPvPKvm"
  },
  {
   "binding" : "weak",
   "name" : "_ZNK7android6VectorIPNS_7RefBase12weakref_typeEE16do_move_backwardEPvPKvm"
  },
  {
   "binding" : "weak",
   "name" : "_ZNK7android6VectorIPNS_7RefBase12weakref_typeEE7do_copyEPvPKvm"
  },
  {
   "binding" : "weak",
   "name" : "_ZNK7android6VectorIPNS_7RefBase12weakref_typeEE8do_splatEPvPKvm"
  },
  {
   "binding" : "weak",
   "name" : "_ZNK7android6VectorIPNS_7RefBaseEE10do_destroyEPvm"
  },
  {
   "binding" : "weak",
   "name" : "_ZNK7android6VectorIPNS_7RefBaseEE12do_constructEPvm"
  },
  {
   "binding" : "weak",
   "name" : "_ZNK7android6VectorIPNS_7RefBaseEE15do_move_forwardEPvPKvm"
  },
  {
   "binding" : "weak",
   "name" : "_ZNK7android6VectorIPNS_7RefBaseEE16do_move_backwardEPvPKvm"
  },
  {
   "binding" : "weak",
   "name" : "_ZNK7android6VectorIPNS_7RefBaseEE7do_copyEPvPKvm"
  },
  {
   "binding" : "weak",
   "name" : "_ZNK7android6VectorIPNS_7RefBaseEE8do_splatEPvPKvm"
  },
  {
   "binding" : "weak",
   "name" : "_ZNK7android6VectorIiE10do_destroyEPvm"
  },
  {
   "binding" : "weak",
   "name" : "_ZNK7android6VectorIiE12do_constructEPvm"
  },
  {
   "binding" : "weak",
   "name" : "_ZNK7android6VectorIiE15do_move_forwardEPvPKvm"
  },
  {
   "binding" : "weak",
   "name" : "_ZNK7android6VectorIiE16do_move_backwardEPvPKvm"
  },
  {
   "binding" : "weak",
   "name" : "_ZNK7android6VectorIiE7do_copyEPvPKvm"
  },
  {
   "binding" : "weak",
   "name" : "_ZNK7android6VectorIiE8do_splatEPvPKvm"
  },
  {
   "name" : "_ZNK7android6binder6Status13writeToParcelEPNS_6ParcelE"
  },
  {
   "name" : "_ZNK7android6binder6Status9toString8Ev"
  },
  {
   "name" : "_ZNK7android7BBinder10findObjectEPKv"
  },
  {
   "name" : "_ZNK7android7BBinder13isBinderAliveEv"
  },
  {
   "name" : "_ZNK7android7BBinder22getInterfaceDescriptorEv"
  },
  {
   "name" : "_ZNK7android7IBinder13checkSubclassEPKv"
  },
  {
   "name" : "_ZNK7android7IMemory11fastPointerERKNS_2spINS_7IBinderEEEl"
  },
  {
   "name" : "_ZNK7android7IMemory15unsecurePointerEv"
  },
  {
   "name" : "_ZNK7android7IMemory22getInterfaceDescriptorEv"
  },
  {
   "name" : "_ZNK7android7IMemory4sizeEv"
  },
  {
   "name" : "_ZNK7android7IMemory6offsetEv"
  },
  {
   "name" : "_ZNK7android7IMemory7pointerEv"
  },
  {
   "name" : "_ZNK7android7content2pm18PackageChangeEvent13writeToParcelEPNS_6ParcelE"
  },
  {
   "name" : "_ZNK7android7content2pm21IPackageManagerNative22getInterfaceDescriptorEv"
  },
  {
   "name" : "_ZNK7android7content2pm22IPackageChangeObserver22getInterfaceDescriptorEv"
  },
  {
   "name" : "_ZNK7android8BpBinder10findObjectEPKv"
  },
  {
   "name" : "_ZNK7android8BpBinder13ObjectManager4findEPKv"
  },
  {
   "name" : "_ZNK7android8BpBinder13isBinderAliveEv"
  },
  {
   "name" : "_ZNK7android8BpBinder18isDescriptorCachedEv"
  },
  {
   "name" : "_ZNK7android8BpBinder22getInterfaceDescriptorEv"
  },
  {
   "name" : "_ZNK7android8BpBinder6handleEv"
  },
  {
   "name" : "_ZNK7android8BpMemory9getMemoryEPlPm"
  },
  {
   "binding" : "weak",
   "name" : "_ZNKSt3__115basic_stringbufIcNS_11char_traitsIcEENS_9allocatorIcEEE3strEv"
  },
  {
   "binding" : "weak",
   "name" : "_ZNKSt3__16__treeINS_12__value_typeIN7android8String16ENS2_2os17PersistableBundleEEENS_19__map_value_compareIS3_S6_NS_4lessIS3_EELb1EEENS_9allocatorIS6_EEE4findIS3_EENS_21__tree_const_iteratorIS6_PNS_11__tree_nodeIS6_PvEElEERKT_"
  },
  {
   "binding" : "weak",
   "name" : "_ZNKSt3__16__treeINS_12__value_typeIN7android8String16ENS_6vectorIS3_NS_9allocatorIS3_EEEEEENS_19__map_value_compareIS3_S8_NS_4lessIS3_EELb1EEENS5_IS8_EEE4findIS3_EENS_21__tree_const_iteratorIS8_PNS_11__tree_nodeIS8_PvEElEERKT_"
  },
  {
   "binding" : "weak",
   "name" : "_ZNKSt3__16__treeINS_12__value_typeIN7android8String16ENS_6vectorIbNS_9allocatorIbEEEEEENS_19__map_value_compareIS3_S8_NS_4lessIS3_EELb1EEENS5_IS8_EEE4findIS3_EENS_21__tree_const_iteratorIS8_PNS_11__tree_nodeIS8_PvEElEERKT_"
  },
  {
   "binding" : "weak",
   "name" : "_ZNKSt3__16__treeINS_12__value_typeIN7android8String16ENS_6vectorIdNS_9allocatorIdEEEEEENS_19__map_value_compareIS3_S8_NS_4lessIS3_EELb1EEENS5_IS8_EEE4findIS3_EENS_21__tree_const_iteratorIS8_PNS_11__tree_nodeIS8_PvEElEERKT_"
  },
  {
   "binding" : "weak",
   "name" : "_ZNKSt3__16__treeINS_12__value_typeIN7android8String16ENS_6vectorIiNS_9allocatorIiEEEEEENS_19__map_value_compareIS3_S8_NS_4lessIS3_EELb1EEENS5_IS8_EEE4findIS3_EENS_21__tree_const_iteratorIS8_PNS_11__tree_nodeIS8_PvEElEERKT_"
  },
  {
   "binding" : "weak",
   "name" : "_ZNKSt3__16__treeINS_12__value_typeIN7android8String16ENS_6vectorIlNS_9allocatorIlEEEEEENS_19__map_value_compareIS3_S8_NS_4lessIS3_EELb1EEENS5_IS8_EEE4findIS3_EENS_21__tree_const_iteratorIS8_PNS_11__tree_nodeIS8_PvEElEERKT_"
  },
  {
   "binding" : "weak",
   "name" : "_ZNKSt3__16__treeINS_12__value_typeIN7android8String16ES3_EENS_19__map_value_compareIS3_S4_NS_4lessIS3_EELb1EEENS_9allocatorIS4_EEE4findIS3_EENS_21__tree_const_iteratorIS4_PNS_11__tree_nodeIS4_PvEElEERKT_"
  },
  {
   "binding" : "weak",
   "name" : "_ZNKSt3__16__treeINS_12__value_typeIN7android8String16EbEENS_19__map_value_compareIS3_S4_NS_4lessIS3_EELb1EEENS_9allocatorIS4_EEE4findIS3_EENS_21__tree_const_iteratorIS4_PNS_11__tree_nodeIS4_PvEElEERKT_"
  },
  {
   "binding" : "weak",
   "name" : "_ZNKSt3__16__treeINS_12__value_typeIN7android8String16EdEENS_19__map_value_compareIS3_S4_NS_4lessIS3_EELb1EEENS_9allocatorIS4_EEE4findIS3_EENS_21__tree_const_iteratorIS4_PNS_11__tree_nodeIS4_PvEElEERKT_"
  },
  {
   "binding" : "weak",
   "name" : "_ZNKSt3__16__treeINS_12__value_typeIN7android8String16EiEENS_19__map_value_compareIS3_S4_NS_4lessIS3_EELb1EEENS_9allocatorIS4_EEE4findIS3_EENS_21__tree_const_iteratorIS4_PNS_11__tree_nodeIS4_PvEElEERKT_"
  },
  {
   "binding" : "weak",
   "name" : "_ZNKSt3__16__treeINS_12__value_typeIN7android8String16ElEENS_19__map_value_compareIS3_S4_NS_4lessIS3_EELb1EEENS_9allocatorIS4_EEE4findIS3_EENS_21__tree_const_iteratorIS4_PNS_11__tree_nodeIS4_PvEElEERKT_"
  },
  {
   "binding" : "weak",
   "name" : "_ZNKSt3__16__treeINS_12__value_typeINS_12basic_stringIcNS_11char_traitsIcEENS_9allocatorIcEEEEN7android6binder8internal21ClientCounterCallback7ServiceEEENS_19__map_value_compareIS7_SD_NS_4lessIS7_EELb1EEENS5_ISD_EEE14__count_uniqueIS7_EEmRKT_"
  },
  {
   "binding" : "weak",
   "name" : "_ZNSt3__112__hash_tableINS_17__hash_value_typeIijEENS_22__unordered_map_hasherIiS2_NS_4hashIiEELb1EEENS_21__unordered_map_equalIiS2_NS_8equal_toIiEELb1EEENS_9allocatorIS2_EEE14__erase_uniqueIiEEmRKT_"
  },
  {
   "binding" : "weak",
   "name" : "_ZNSt3__112__hash_tableINS_17__hash_value_typeIijEENS_22__unordered_map_hasherIiS2_NS_4hashIiEELb1EEENS_21__unordered_map_equalIiS2_NS_8equal_toIiEELb1EEENS_9allocatorIS2_EEE25__emplace_unique_key_argsIiJRKNS_21piecewise_construct_tENS_5tupleIJRKiEEENSI_IJEEEEEENS_4pairINS_15__hash_iteratorIPNS_11__hash_nodeIS2_PvEEEEbEERKT_DpOT0_"
  },
  {
   "binding" : "weak",
   "name" : "_ZNSt3__112__hash_tableINS_17__hash_value_typeIijEENS_22__unordered_map_hasherIiS2_NS_4hashIiEELb1EEENS_21__unordered_map_equalIiS2_NS_8equal_toIiEELb1EEENS_9allocatorIS2_EEE6rehashEm"
  },
  {
   "binding" : "weak",
   "name" : "_ZNSt3__112__hash_tableINS_17__hash_value_typeIijEENS_22__unordered_map_hasherIiS2_NS_4hashIiEELb1EEENS_21__unordered_map_equalIiS2_NS_8equal_toIiEELb1EEENS_9allocatorIS2_EEE6removeENS_21__hash_const_iteratorIPNS_11__hash_nodeIS2_PvEEEE"
  },
  {
   "binding" : "weak",
   "name" : "_ZNSt3__112__hash_tableINS_17__hash_value_typeIijEENS_22__unordered_map_hasherIiS2_NS_4hashIiEELb1EEENS_21__unordered_map_equalIiS2_NS_8equal_toIiEELb1EEENS_9allocatorIS2_EEE8__rehashEm"
  },
  {
   "binding" : "weak",
   "name" : "_ZNSt3__113__fill_n_trueINS_6vectorIbNS_9allocatorIbEEEEEEvNS_14__bit_iteratorIT_Lb0EXLi0EEEENS6_9size_typeE"
  },
  {
   "binding" : "weak",
   "name" : "_ZNSt3__113__tree_removeIPNS_16__tree_node_baseIPvEEEEvT_S5_"
  },
  {
   "binding" : "weak",
   "name" : "_ZNSt3__114__copy_alignedINS_6vectorIbNS_9allocatorIbEEEELb0EEENS_14__bit_iteratorIT_Lb0EXLi0EEEENS5_IS6_XT0_EXLi0EEEES8_S7_"
  },
  {
   "binding" : "weak",
   "name" : "_ZNSt3__114__copy_alignedINS_6vectorIbNS_9allocatorIbEEEELb1EEENS_14__bit_iteratorIT_Lb0EXLi0EEEENS5_IS6_XT0_EXLi0EEEES8_S7_"
  },
  {
   "binding" : "weak",
   "name" : "_ZNSt3__114__fill_n_falseINS_6vectorIbNS_9allocatorIbEEEEEEvNS_14__bit_iteratorIT_Lb0EXLi0EEEENS6_9size_typeE"
  },
  {
   "binding" : "weak",
   "name" : "_ZNSt3__115basic_stringbufIcNS_11char_traitsIcEENS_9allocatorIcEEE7seekoffExNS_8ios_base7seekdirEj"
  },
  {
   "binding" : "weak",
   "name" : "_ZNSt3__115basic_stringbufIcNS_11char_traitsIcEENS_9allocatorIcEEE8overflowEi"
  },
  {
   "binding" : "weak",
   "name" : "_ZNSt3__115basic_stringbufIcNS_11char_traitsIcEENS_9allocatorIcEEE9pbackfailEi"
  },
  {
   "binding" : "weak",
   "name" : "_ZNSt3__115basic_stringbufIcNS_11char_traitsIcEENS_9allocatorIcEEE9underflowEv"
  },
  {
   "binding" : "weak",
   "name" : "_ZNSt3__116__copy_unalignedINS_6vectorIbNS_9allocatorIbEEEELb0EEENS_14__bit_iteratorIT_Lb0EXLi0EEEENS5_IS6_XT0_EXLi0EEEES8_S7_"
  },
  {
   "binding" : "weak",
   "name" : "_ZNSt3__116__copy_unalignedINS_6vectorIbNS_9allocatorIbEEEELb1EEENS_14__bit_iteratorIT_Lb0EXLi0EEEENS5_IS6_XT0_EXLi0EEEES8_S7_"
  },
  {
   "binding" : "weak",
   "name" : "_ZNSt3__120__shared_ptr_emplaceIN7android6binder8internal21ClientCounterCallbackENS_9allocatorIS4_EEE16__on_zero_sharedEv"
  },
  {
   "binding" : "weak",
   "name" : "_ZNSt3__120__shared_ptr_emplaceIN7android6binder8internal21ClientCounterCallbackENS_9allocatorIS4_EEE21__on_zero_shared_weakEv"
  },
  {
   "binding" : "weak",
   "name" : "_ZNSt3__124__put_character_sequenceIcNS_11char_traitsIcEEEERNS_13basic_ostreamIT_T0_EES7_PKS4_m"
  },
  {
   "binding" : "weak",
   "name" : "_ZNSt3__127__tree_balance_after_insertIPNS_16__tree_node_baseIPvEEEEvT_S5_"
  },
  {
   "binding" : "weak",
   "name" : "_ZNSt3__16__treeIN7android8String16ENS_4lessIS2_EENS_9allocatorIS2_EEE12__find_equalIS2_EERPNS_16__tree_node_baseIPvEERPNS_15__tree_end_nodeISC_EERKT_"
  },
  {
   "binding" : "weak",
   "name" : "_ZNSt3__16__treeIN7android8String16ENS_4lessIS2_EENS_9allocatorIS2_EEE25__emplace_unique_key_argsIS2_JRKS2_EEENS_4pairINS_15__tree_iteratorIS2_PNS_11__tree_nodeIS2_PvEElEEbEERKT_DpOT0_"
  },
  {
   "binding" : "weak",
   "name" : "_ZNSt3__16__treeIN7android8String16ENS_4lessIS2_EENS_9allocatorIS2_EEE7destroyEPNS_11__tree_nodeIS2_PvEE"
  },
  {
   "binding" : "weak",
   "name" : "_ZNSt3__16__treeINS_12__value_typeIN7android8String16ENS2_2os17PersistableBundleEEENS_19__map_value_compareIS3_S6_NS_4lessIS3_EELb1EEENS_9allocatorIS6_EEE12__find_equalIS3_EERPNS_16__tree_node_baseIPvEENS_21__tree_const_iteratorIS6_PNS_11__tree_nodeIS6_SG_EElEERPNS_15__tree_end_nodeISI_EESJ_RKT_"
  },
  {
   "binding" : "weak",
   "name" : "_ZNSt3__16__treeINS_12__value_typeIN7android8String16ENS2_2os17PersistableBundleEEENS_19__map_value_compareIS3_S6_NS_4lessIS3_EELb1EEENS_9allocatorIS6_EEE12__find_equalIS3_EERPNS_16__tree_node_baseIPvEERPNS_15__tree_end_nodeISI_EERKT_"
  },
  {
   "binding" : "weak",
   "name" : "_ZNSt3__16__treeINS_12__value_typeIN7android8String16ENS2_2os17PersistableBundleEEENS_19__map_value_compareIS3_S6_NS_4lessIS3_EELb1EEENS_9allocatorIS6_EEE14__assign_multiINS_21__tree_const_iteratorIS6_PNS_11__tree_nodeIS6_PvEElEEEEvT_SL_"
  },
  {
   "binding" : "weak",
   "name" : "_ZNSt3__16__treeINS_12__value_typeIN7android8String16ENS2_2os17PersistableBundleEEENS_19__map_value_compareIS3_S6_NS_4lessIS3_EELb1EEENS_9allocatorIS6_EEE14__erase_uniqueIS3_EEmRKT_"
  },
  {
   "binding" : "weak",
   "name" : "_ZNSt3__16__treeINS_12__value_typeIN7android8String16ENS2_2os17PersistableBundleEEENS_19__map_value_compareIS3_S6_NS_4lessIS3_EELb1EEENS_9allocatorIS6_EEE15__emplace_multiIJRKNS_4pairIKS3_S5_EEEEENS_15__tree_iteratorIS6_PNS_11__tree_nodeIS6_PvEElEEDpOT_"
  },
  {
   "binding" : "weak",
   "name" : "_ZNSt3__16__treeINS_12__value_typeIN7android8String16ENS2_2os17PersistableBundleEEENS_19__map_value_compareIS3_S6_NS_4lessIS3_EELb1EEENS_9allocatorIS6_EEE25__emplace_unique_key_argsIS3_JRKNS_21piecewise_construct_tENS_5tupleIJRKS3_EEENSI_IJEEEEEENS_4pairINS_15__tree_iteratorIS6_PNS_11__tree_nodeIS6_PvEElEEbEERKT_DpOT0_"
  },
  {
   "binding" : "weak",
   "name" : "_ZNSt3__16__treeINS_12__value_typeIN7android8String16ENS2_2os17PersistableBundleEEENS_19__map_value_compareIS3_S6_NS_4lessIS3_EELb1EEENS_9allocatorIS6_EEE30__emplace_hint_unique_key_argsIS3_JRKNS_4pairIKS3_S5_EEEEENS_15__tree_iteratorIS6_PNS_11__tree_nodeIS6_PvEElEENS_21__tree_const_iteratorIS6_SO_lEERKT_DpOT0_"
  },
  {
   "binding" : "weak",
   "name" : "_ZNSt3__16__treeINS_12__value_typeIN7android8String16ENS2_2os17PersistableBundleEEENS_19__map_value_compareIS3_S6_NS_4lessIS3_EELb1EEENS_9allocatorIS6_EEE4findIS3_EENS_15__tree_iteratorIS6_PNS_11__tree_nodeIS6_PvEElEERKT_"
  },
  {
   "binding" : "weak",
   "name" : "_ZNSt3__16__treeINS_12__value_typeIN7android8String16ENS2_2os17PersistableBundleEEENS_19__map_value_compareIS3_S6_NS_4lessIS3_EELb1EEENS_9allocatorIS6_EEE5eraseENS_21__tree_const_iteratorIS6_PNS_11__tree_nodeIS6_PvEElEE"
  },
  {
   "binding" : "weak",
   "name" : "_ZNSt3__16__treeINS_12__value_typeIN7android8String16ENS2_2os17PersistableBundleEEENS_19__map_value_compareIS3_S6_NS_4lessIS3_EELb1EEENS_9allocatorIS6_EEE7destroyEPNS_11__tree_nodeIS6_PvEE"
  },
  {
   "binding" : "weak",
   "name" : "_ZNSt3__16__treeINS_12__value_typeIN7android8String16ENS_6vectorIS3_NS_9allocatorIS3_EEEEEENS_19__map_value_compareIS3_S8_NS_4lessIS3_EELb1EEENS5_IS8_EEE12__find_equalIS3_EERPNS_16__tree_node_baseIPvEENS_21__tree_const_iteratorIS8_PNS_11__tree_nodeIS8_SH_EElEERPNS_15__tree_end_nodeISJ_EESK_RKT_"
  },
  {
   "binding" : "weak",
   "name" : "_ZNSt3__16__treeINS_12__value_typeIN7android8String16ENS_6vectorIS3_NS_9allocatorIS3_EEEEEENS_19__map_value_compareIS3_S8_NS_4lessIS3_EELb1EEENS5_IS8_EEE12__find_equalIS3_EERPNS_16__tree_node_baseIPvEERPNS_15__tree_end_nodeISJ_EERKT_"
  },
  {
   "binding" : "weak",
   "name" : "_ZNSt3__16__treeINS_12__value_typeIN7android8String16ENS_6vectorIS3_NS_9allocatorIS3_EEEEEENS_19__map_value_compareIS3_S8_NS_4lessIS3_EELb1EEENS5_IS8_EEE14__assign_multiINS_21__tree_const_iteratorIS8_PNS_11__tree_nodeIS8_PvEElEEEEvT_SM_"
  },
  {
   "binding" : "weak",
   "name" : "_ZNSt3__16__treeINS_12__value_typeIN7android8String16ENS_6vectorIS3_NS_9allocatorIS3_EEEEEENS_19__map_value_compareIS3_S8_NS_4lessIS3_EELb1EEENS5_IS8_EEE14__erase_uniqueIS3_EEmRKT_"
  },
  {
   "binding" : "weak",
   "name" : "_ZNSt3__16__treeINS_12__value_typeIN7android8String16ENS_6vectorIS3_NS_9allocatorIS3_EEEEEENS_19__map_value_compareIS3_S8_NS_4lessIS3_EELb1EEENS5_IS8_EEE15__emplace_multiIJRKNS_4pairIKS3_S7_EEEEENS_15__tree_iteratorIS8_PNS_11__tree_nodeIS8_PvEElEEDpOT_"
  },
  {
   "binding" : "weak",
   "name" : "_ZNSt3__16__treeINS_12__value_typeIN7android8String16ENS_6vectorIS3_NS_9allocatorIS3_EEEEEENS_19__map_value_compareIS3_S8_NS_4lessIS3_EELb1EEENS5_IS8_EEE16__construct_nodeIJRKNS_4pairIKS3_S7_EEEEENS_10unique_ptrINS_11__tree_nodeIS8_PvEENS_22__tree_node_destructorINS5_ISO_EEEEEEDpOT_"
  },
  {
   "binding" : "weak",
   "name" : "_ZNSt3__16__treeINS_12__value_typeIN7android8String16ENS_6vectorIS3_NS_9allocatorIS3_EEEEEENS_19__map_value_compareIS3_S8_NS_4lessIS3_EELb1EEENS5_IS8_EEE25__emplace_unique_key_argsIS3_JRKNS_21piecewise_construct_tENS_5tupleIJRKS3_EEENSJ_IJEEEEEENS_4pairINS_15__tree_iteratorIS8_PNS_11__tree_nodeIS8_PvEElEEbEERKT_DpOT0_"
  },
  {
   "binding" : "weak",
   "name" : "_ZNSt3__16__treeINS_12__value_typeIN7android8String16ENS_6vectorIS3_NS_9allocatorIS3_EEEEEENS_19__map_value_compareIS3_S8_NS_4lessIS3_EELb1EEENS5_IS8_EEE30__emplace_hint_unique_key_argsIS3_JRKNS_4pairIKS3_S7_EEEEENS_15__tree_iteratorIS8_PNS_11__tree_nodeIS8_PvEElEENS_21__tree_const_iteratorIS8_SP_lEERKT_DpOT0_"
  },
  {
   "binding" : "weak",
   "name" : "_ZNSt3__16__treeINS_12__value_typeIN7android8String16ENS_6vectorIS3_NS_9allocatorIS3_EEEEEENS_19__map_value_compareIS3_S8_NS_4lessIS3_EELb1EEENS5_IS8_EEE4findIS3_EENS_15__tree_iteratorIS8_PNS_11__tree_nodeIS8_PvEElEERKT_"
  },
  {
   "binding" : "weak",
   "name" : "_ZNSt3__16__treeINS_12__value_typeIN7android8String16ENS_6vectorIS3_NS_9allocatorIS3_EEEEEENS_19__map_value_compareIS3_S8_NS_4lessIS3_EELb1EEENS5_IS8_EEE5eraseENS_21__tree_const_iteratorIS8_PNS_11__tree_nodeIS8_PvEElEE"
  },
  {
   "binding" : "weak",
   "name" : "_ZNSt3__16__treeINS_12__value_typeIN7android8String16ENS_6vectorIS3_NS_9allocatorIS3_EEEEEENS_19__map_value_compareIS3_S8_NS_4lessIS3_EELb1EEENS5_IS8_EEE7destroyEPNS_11__tree_nodeIS8_PvEE"
  },
  {
   "binding" : "weak",
   "name" : "_ZNSt3__16__treeINS_12__value_typeIN7android8String16ENS_6vectorIbNS_9allocatorIbEEEEEENS_19__map_value_compareIS3_S8_NS_4lessIS3_EELb1EEENS5_IS8_EEE12__find_equalIS3_EERPNS_16__tree_node_baseIPvEENS_21__tree_const_iteratorIS8_PNS_11__tree_nodeIS8_SH_EElEERPNS_15__tree_end_nodeISJ_EESK_RKT_"
  },
  {
   "binding" : "weak",
   "name" : "_ZNSt3__16__treeINS_12__value_typeIN7android8String16ENS_6vectorIbNS_9allocatorIbEEEEEENS_19__map_value_compareIS3_S8_NS_4lessIS3_EELb1EEENS5_IS8_EEE12__find_equalIS3_EERPNS_16__tree_node_baseIPvEERPNS_15__tree_end_nodeISJ_EERKT_"
  },
  {
   "binding" : "weak",
   "name" : "_ZNSt3__16__treeINS_12__value_typeIN7android8String16ENS_6vectorIbNS_9allocatorIbEEEEEENS_19__map_value_compareIS3_S8_NS_4lessIS3_EELb1EEENS5_IS8_EEE14__assign_multiINS_21__tree_const_iteratorIS8_PNS_11__tree_nodeIS8_PvEElEEEEvT_SM_"
  },
  {
   "binding" : "weak",
   "name" : "_ZNSt3__16__treeINS_12__value_typeIN7android8String16ENS_6vectorIbNS_9allocatorIbEEEEEENS_19__map_value_compareIS3_S8_NS_4lessIS3_EELb1EEENS5_IS8_EEE15__emplace_multiIJRKNS_4pairIKS3_S7_EEEEENS_15__tree_iteratorIS8_PNS_11__tree_nodeIS8_PvEElEEDpOT_"
  },
  {
   "binding" : "weak",
   "name" : "_ZNSt3__16__treeINS_12__value_typeIN7android8String16ENS_6vectorIbNS_9allocatorIbEEEEEENS_19__map_value_compareIS3_S8_NS_4lessIS3_EELb1EEENS5_IS8_EEE16__construct_nodeIJRKNS_4pairIKS3_S7_EEEEENS_10unique_ptrINS_11__tree_nodeIS8_PvEENS_22__tree_node_destructorINS5_ISO_EEEEEEDpOT_"
  },
  {
   "binding" : "weak",
   "name" : "_ZNSt3__16__treeINS_12__value_typeIN7android8String16ENS_6vectorIbNS_9allocatorIbEEEEEENS_19__map_value_compareIS3_S8_NS_4lessIS3_EELb1EEENS5_IS8_EEE25__emplace_unique_key_argsIS3_JRKNS_21piecewise_construct_tENS_5tupleIJRKS3_EEENSJ_IJEEEEEENS_4pairINS_15__tree_iteratorIS8_PNS_11__tree_nodeIS8_PvEElEEbEERKT_DpOT0_"
  },
  {
   "binding" : "weak",
   "name" : "_ZNSt3__16__treeINS_12__value_typeIN7android8String16ENS_6vectorIbNS_9allocatorIbEEEEEENS_19__map_value_compareIS3_S8_NS_4lessIS3_EELb1EEENS5_IS8_EEE30__emplace_hint_unique_key_argsIS3_JRKNS_4pairIKS3_S7_EEEEENS_15__tree_iteratorIS8_PNS_11__tree_nodeIS8_PvEElEENS_21__tree_const_iteratorIS8_SP_lEERKT_DpOT0_"
  },
  {
   "binding" : "weak",
   "name" : "_ZNSt3__16__treeINS_12__value_typeIN7android8String16ENS_6vectorIbNS_9allocatorIbEEEEEENS_19__map_value_compareIS3_S8_NS_4lessIS3_EELb1EEENS5_IS8_EEE4findIS3_EENS_15__tree_iteratorIS8_PNS_11__tree_nodeIS8_PvEElEERKT_"
  },
  {
   "binding" : "weak",
   "name" : "_ZNSt3__16__treeINS_12__value_typeIN7android8String16ENS_6vectorIbNS_9allocatorIbEEEEEENS_19__map_value_compareIS3_S8_NS_4lessIS3_EELb1EEENS5_IS8_EEE5eraseENS_21__tree_const_iteratorIS8_PNS_11__tree_nodeIS8_PvEElEE"
  },
  {
   "binding" : "weak",
   "name" : "_ZNSt3__16__treeINS_12__value_typeIN7android8String16ENS_6vectorIbNS_9allocatorIbEEEEEENS_19__map_value_compareIS3_S8_NS_4lessIS3_EELb1EEENS5_IS8_EEE7destroyEPNS_11__tree_nodeIS8_PvEE"
  },
  {
   "binding" : "weak",
   "name" : "_ZNSt3__16__treeINS_12__value_typeIN7android8String16ENS_6vectorIdNS_9allocatorIdEEEEEENS_19__map_value_compareIS3_S8_NS_4lessIS3_EELb1EEENS5_IS8_EEE12__find_equalIS3_EERPNS_16__tree_node_baseIPvEENS_21__tree_const_iteratorIS8_PNS_11__tree_nodeIS8_SH_EElEERPNS_15__tree_end_nodeISJ_EESK_RKT_"
  },
  {
   "binding" : "weak",
   "name" : "_ZNSt3__16__treeINS_12__value_typeIN7android8String16ENS_6vectorIdNS_9allocatorIdEEEEEENS_19__map_value_compareIS3_S8_NS_4lessIS3_EELb1EEENS5_IS8_EEE12__find_equalIS3_EERPNS_16__tree_node_baseIPvEERPNS_15__tree_end_nodeISJ_EERKT_"
  },
  {
   "binding" : "weak",
   "name" : "_ZNSt3__16__treeINS_12__value_typeIN7android8String16ENS_6vectorIdNS_9allocatorIdEEEEEENS_19__map_value_compareIS3_S8_NS_4lessIS3_EELb1EEENS5_IS8_EEE14__assign_multiINS_21__tree_const_iteratorIS8_PNS_11__tree_nodeIS8_PvEElEEEEvT_SM_"
  },
  {
   "binding" : "weak",
   "name" : "_ZNSt3__16__treeINS_12__value_typeIN7android8String16ENS_6vectorIdNS_9allocatorIdEEEEEENS_19__map_value_compareIS3_S8_NS_4lessIS3_EELb1EEENS5_IS8_EEE14__erase_uniqueIS3_EEmRKT_"
  },
  {
   "binding" : "weak",
   "name" : "_ZNSt3__16__treeINS_12__value_typeIN7android8String16ENS_6vectorIdNS_9allocatorIdEEEEEENS_19__map_value_compareIS3_S8_NS_4lessIS3_EELb1EEENS5_IS8_EEE15__emplace_multiIJRKNS_4pairIKS3_S7_EEEEENS_15__tree_iteratorIS8_PNS_11__tree_nodeIS8_PvEElEEDpOT_"
  },
  {
   "binding" : "weak",
   "name" : "_ZNSt3__16__treeINS_12__value_typeIN7android8String16ENS_6vectorIdNS_9allocatorIdEEEEEENS_19__map_value_compareIS3_S8_NS_4lessIS3_EELb1EEENS5_IS8_EEE25__emplace_unique_key_argsIS3_JRKNS_21piecewise_construct_tENS_5tupleIJRKS3_EEENSJ_IJEEEEEENS_4pairINS_15__tree_iteratorIS8_PNS_11__tree_nodeIS8_PvEElEEbEERKT_DpOT0_"
  },
  {
   "binding" : "weak",
   "name" : "_ZNSt3__16__treeINS_12__value_typeIN7android8String16ENS_6vectorIdNS_9allocatorIdEEEEEENS_19__map_value_compareIS3_S8_NS_4lessIS3_EELb1EEENS5_IS8_EEE30__emplace_hint_unique_key_argsIS3_JRKNS_4pairIKS3_S7_EEEEENS_15__tree_iteratorIS8_PNS_11__tree_nodeIS8_PvEElEENS_21__tree_const_iteratorIS8_SP_lEERKT_DpOT0_"
  },
  {
   "binding" : "weak",
   "name" : "_ZNSt3__16__treeINS_12__value_typeIN7android8String16ENS_6vectorIdNS_9allocatorIdEEEEEENS_19__map_value_compareIS3_S8_NS_4lessIS3_EELb1EEENS5_IS8_EEE4findIS3_EENS_15__tree_iteratorIS8_PNS_11__tree_nodeIS8_PvEElEERKT_"
  },
  {
   "binding" : "weak",
   "name" : "_ZNSt3__16__treeINS_12__value_typeIN7android8String16ENS_6vectorIdNS_9allocatorIdEEEEEENS_19__map_value_compareIS3_S8_NS_4lessIS3_EELb1EEENS5_IS8_EEE5eraseENS_21__tree_const_iteratorIS8_PNS_11__tree_nodeIS8_PvEElEE"
  },
  {
   "binding" : "weak",
   "name" : "_ZNSt3__16__treeINS_12__value_typeIN7android8String16ENS_6vectorIdNS_9allocatorIdEEEEEENS_19__map_value_compareIS3_S8_NS_4lessIS3_EELb1EEENS5_IS8_EEE7destroyEPNS_11__tree_nodeIS8_PvEE"
  },
  {
   "binding" : "weak",
   "name" : "_ZNSt3__16__treeINS_12__value_typeIN7android8String16ENS_6vectorIiNS_9allocatorIiEEEEEENS_19__map_value_compareIS3_S8_NS_4lessIS3_EELb1EEENS5_IS8_EEE12__find_equalIS3_EERPNS_16__tree_node_baseIPvEENS_21__tree_const_iteratorIS8_PNS_11__tree_nodeIS8_SH_EElEERPNS_15__tree_end_nodeISJ_EESK_RKT_"
  },
  {
   "binding" : "weak",
   "name" : "_ZNSt3__16__treeINS_12__value_typeIN7android8String16ENS_6vectorIiNS_9allocatorIiEEEEEENS_19__map_value_compareIS3_S8_NS_4lessIS3_EELb1EEENS5_IS8_EEE12__find_equalIS3_EERPNS_16__tree_node_baseIPvEERPNS_15__tree_end_nodeISJ_EERKT_"
  },
  {
   "binding" : "weak",
   "name" : "_ZNSt3__16__treeINS_12__value_typeIN7android8String16ENS_6vectorIiNS_9allocatorIiEEEEEENS_19__map_value_compareIS3_S8_NS_4lessIS3_EELb1EEENS5_IS8_EEE14__assign_multiINS_21__tree_const_iteratorIS8_PNS_11__tree_nodeIS8_PvEElEEEEvT_SM_"
  },
  {
   "binding" : "weak",
   "name" : "_ZNSt3__16__treeINS_12__value_typeIN7android8String16ENS_6vectorIiNS_9allocatorIiEEEEEENS_19__map_value_compareIS3_S8_NS_4lessIS3_EELb1EEENS5_IS8_EEE14__erase_uniqueIS3_EEmRKT_"
  },
  {
   "binding" : "weak",
   "name" : "_ZNSt3__16__treeINS_12__value_typeIN7android8String16ENS_6vectorIiNS_9allocatorIiEEEEEENS_19__map_value_compareIS3_S8_NS_4lessIS3_EELb1EEENS5_IS8_EEE15__emplace_multiIJRKNS_4pairIKS3_S7_EEEEENS_15__tree_iteratorIS8_PNS_11__tree_nodeIS8_PvEElEEDpOT_"
  },
  {
   "binding" : "weak",
   "name" : "_ZNSt3__16__treeINS_12__value_typeIN7android8String16ENS_6vectorIiNS_9allocatorIiEEEEEENS_19__map_value_compareIS3_S8_NS_4lessIS3_EELb1EEENS5_IS8_EEE25__emplace_unique_key_argsIS3_JRKNS_21piecewise_construct_tENS_5tupleIJRKS3_EEENSJ_IJEEEEEENS_4pairINS_15__tree_iteratorIS8_PNS_11__tree_nodeIS8_PvEElEEbEERKT_DpOT0_"
  },
  {
   "binding" : "weak",
   "name" : "_ZNSt3__16__treeINS_12__value_typeIN7android8String16ENS_6vectorIiNS_9allocatorIiEEEEEENS_19__map_value_compareIS3_S8_NS_4lessIS3_EELb1EEENS5_IS8_EEE30__emplace_hint_unique_key_argsIS3_JRKNS_4pairIKS3_S7_EEEEENS_15__tree_iteratorIS8_PNS_11__tree_nodeIS8_PvEElEENS_21__tree_const_iteratorIS8_SP_lEERKT_DpOT0_"
  },
  {
   "binding" : "weak",
   "name" : "_ZNSt3__16__treeINS_12__value_typeIN7android8String16ENS_6vectorIiNS_9allocatorIiEEEEEENS_19__map_value_compareIS3_S8_NS_4lessIS3_EELb1EEENS5_IS8_EEE4findIS3_EENS_15__tree_iteratorIS8_PNS_11__tree_nodeIS8_PvEElEERKT_"
  },
  {
   "binding" : "weak",
   "name" : "_ZNSt3__16__treeINS_12__value_typeIN7android8String16ENS_6vectorIiNS_9allocatorIiEEEEEENS_19__map_value_compareIS3_S8_NS_4lessIS3_EELb1EEENS5_IS8_EEE5eraseENS_21__tree_const_iteratorIS8_PNS_11__tree_nodeIS8_PvEElEE"
  },
  {
   "binding" : "weak",
   "name" : "_ZNSt3__16__treeINS_12__value_typeIN7android8String16ENS_6vectorIiNS_9allocatorIiEEEEEENS_19__map_value_compareIS3_S8_NS_4lessIS3_EELb1EEENS5_IS8_EEE7destroyEPNS_11__tree_nodeIS8_PvEE"
  },
  {
   "binding" : "weak",
   "name" : "_ZNSt3__16__treeINS_12__value_typeIN7android8String16ENS_6vectorIlNS_9allocatorIlEEEEEENS_19__map_value_compareIS3_S8_NS_4lessIS3_EELb1EEENS5_IS8_EEE12__find_equalIS3_EERPNS_16__tree_node_baseIPvEENS_21__tree_const_iteratorIS8_PNS_11__tree_nodeIS8_SH_EElEERPNS_15__tree_end_nodeISJ_EESK_RKT_"
  },
  {
   "binding" : "weak",
   "name" : "_ZNSt3__16__treeINS_12__value_typeIN7android8String16ENS_6vectorIlNS_9allocatorIlEEEEEENS_19__map_value_compareIS3_S8_NS_4lessIS3_EELb1EEENS5_IS8_EEE12__find_equalIS3_EERPNS_16__tree_node_baseIPvEERPNS_15__tree_end_nodeISJ_EERKT_"
  },
  {
   "binding" : "weak",
   "name" : "_ZNSt3__16__treeINS_12__value_typeIN7android8String16ENS_6vectorIlNS_9allocatorIlEEEEEENS_19__map_value_compareIS3_S8_NS_4lessIS3_EELb1EEENS5_IS8_EEE14__assign_multiINS_21__tree_const_iteratorIS8_PNS_11__tree_nodeIS8_PvEElEEEEvT_SM_"
  },
  {
   "binding" : "weak",
   "name" : "_ZNSt3__16__treeINS_12__value_typeIN7android8String16ENS_6vectorIlNS_9allocatorIlEEEEEENS_19__map_value_compareIS3_S8_NS_4lessIS3_EELb1EEENS5_IS8_EEE14__erase_uniqueIS3_EEmRKT_"
  },
  {
   "binding" : "weak",
   "name" : "_ZNSt3__16__treeINS_12__value_typeIN7android8String16ENS_6vectorIlNS_9allocatorIlEEEEEENS_19__map_value_compareIS3_S8_NS_4lessIS3_EELb1EEENS5_IS8_EEE15__emplace_multiIJRKNS_4pairIKS3_S7_EEEEENS_15__tree_iteratorIS8_PNS_11__tree_nodeIS8_PvEElEEDpOT_"
  },
  {
   "binding" : "weak",
   "name" : "_ZNSt3__16__treeINS_12__value_typeIN7android8String16ENS_6vectorIlNS_9allocatorIlEEEEEENS_19__map_value_compareIS3_S8_NS_4lessIS3_EELb1EEENS5_IS8_EEE25__emplace_unique_key_argsIS3_JRKNS_21piecewise_construct_tENS_5tupleIJRKS3_EEENSJ_IJEEEEEENS_4pairINS_15__tree_iteratorIS8_PNS_11__tree_nodeIS8_PvEElEEbEERKT_DpOT0_"
  },
  {
   "binding" : "weak",
   "name" : "_ZNSt3__16__treeINS_12__value_typeIN7android8String16ENS_6vectorIlNS_9allocatorIlEEEEEENS_19__map_value_compareIS3_S8_NS_4lessIS3_EELb1EEENS5_IS8_EEE30__emplace_hint_unique_key_argsIS3_JRKNS_4pairIKS3_S7_EEEEENS_15__tree_iteratorIS8_PNS_11__tree_nodeIS8_PvEElEENS_21__tree_const_iteratorIS8_SP_lEERKT_DpOT0_"
  },
  {
   "binding" : "weak",
   "name" : "_ZNSt3__16__treeINS_12__value_typeIN7android8String16ENS_6vectorIlNS_9allocatorIlEEEEEENS_19__map_value_compareIS3_S8_NS_4lessIS3_EELb1EEENS5_IS8_EEE4findIS3_EENS_15__tree_iteratorIS8_PNS_11__tree_nodeIS8_PvEElEERKT_"
  },
  {
   "binding" : "weak",
   "name" : "_ZNSt3__16__treeINS_12__value_typeIN7android8String16ENS_6vectorIlNS_9allocatorIlEEEEEENS_19__map_value_compareIS3_S8_NS_4lessIS3_EELb1EEENS5_IS8_EEE5eraseENS_21__tree_const_iteratorIS8_PNS_11__tree_nodeIS8_PvEElEE"
  },
  {
   "binding" : "weak",
   "name" : "_ZNSt3__16__treeINS_12__value_typeIN7android8String16ENS_6vectorIlNS_9allocatorIlEEEEEENS_19__map_value_compareIS3_S8_NS_4lessIS3_EELb1EEENS5_IS8_EEE7destroyEPNS_11__tree_nodeIS8_PvEE"
  },
  {
   "binding" : "weak",
   "name" : "_ZNSt3__16__treeINS_12__value_typeIN7android8String16ES3_EENS_19__map_value_compareIS3_S4_NS_4lessIS3_EELb1EEENS_9allocatorIS4_EEE12__find_equalIS3_EERPNS_16__tree_node_baseIPvEENS_21__tree_const_iteratorIS4_PNS_11__tree_nodeIS4_SE_EElEERPNS_15__tree_end_nodeISG_EESH_RKT_"
  },
  {
   "binding" : "weak",
   "name" : "_ZNSt3__16__treeINS_12__value_typeIN7android8String16ES3_EENS_19__map_value_compareIS3_S4_NS_4lessIS3_EELb1EEENS_9allocatorIS4_EEE12__find_equalIS3_EERPNS_16__tree_node_baseIPvEERPNS_15__tree_end_nodeISG_EERKT_"
  },
  {
   "binding" : "weak",
   "name" : "_ZNSt3__16__treeINS_12__value_typeIN7android8String16ES3_EENS_19__map_value_compareIS3_S4_NS_4lessIS3_EELb1EEENS_9allocatorIS4_EEE14__assign_multiINS_21__tree_const_iteratorIS4_PNS_11__tree_nodeIS4_PvEElEEEEvT_SJ_"
  },
  {
   "binding" : "weak",
   "name" : "_ZNSt3__16__treeINS_12__value_typeIN7android8String16ES3_EENS_19__map_value_compareIS3_S4_NS_4lessIS3_EELb1EEENS_9allocatorIS4_EEE15__emplace_multiIJRKNS_4pairIKS3_S3_EEEEENS_15__tree_iteratorIS4_PNS_11__tree_nodeIS4_PvEElEEDpOT_"
  },
  {
   "binding" : "weak",
   "name" : "_ZNSt3__16__treeINS_12__value_typeIN7android8String16ES3_EENS_19__map_value_compareIS3_S4_NS_4lessIS3_EELb1EEENS_9allocatorIS4_EEE25__emplace_unique_key_argsIS3_JRKNS_21piecewise_construct_tENS_5tupleIJRKS3_EEENSG_IJEEEEEENS_4pairINS_15__tree_iteratorIS4_PNS_11__tree_nodeIS4_PvEElEEbEERKT_DpOT0_"
  },
  {
   "binding" : "weak",
   "name" : "_ZNSt3__16__treeINS_12__value_typeIN7android8String16ES3_EENS_19__map_value_compareIS3_S4_NS_4lessIS3_EELb1EEENS_9allocatorIS4_EEE30__emplace_hint_unique_key_argsIS3_JRKNS_4pairIKS3_S3_EEEEENS_15__tree_iteratorIS4_PNS_11__tree_nodeIS4_PvEElEENS_21__tree_const_iteratorIS4_SM_lEERKT_DpOT0_"
  },
  {
   "binding" : "weak",
   "name" : "_ZNSt3__16__treeINS_12__value_typeIN7android8String16ES3_EENS_19__map_value_compareIS3_S4_NS_4lessIS3_EELb1EEENS_9allocatorIS4_EEE4findIS3_EENS_15__tree_iteratorIS4_PNS_11__tree_nodeIS4_PvEElEERKT_"
  },
  {
   "binding" : "weak",
   "name" : "_ZNSt3__16__treeINS_12__value_typeIN7android8String16ES3_EENS_19__map_value_compareIS3_S4_NS_4lessIS3_EELb1EEENS_9allocatorIS4_EEE5eraseENS_21__tree_const_iteratorIS4_PNS_11__tree_nodeIS4_PvEElEE"
  },
  {
   "binding" : "weak",
   "name" : "_ZNSt3__16__treeINS_12__value_typeIN7android8String16ES3_EENS_19__map_value_compareIS3_S4_NS_4lessIS3_EELb1EEENS_9allocatorIS4_EEE7destroyEPNS_11__tree_nodeIS4_PvEE"
  },
  {
   "binding" : "weak",
   "name" : "_ZNSt3__16__treeINS_12__value_typeIN7android8String16EbEENS_19__map_value_compareIS3_S4_NS_4lessIS3_EELb1EEENS_9allocatorIS4_EEE12__find_equalIS3_EERPNS_16__tree_node_baseIPvEENS_21__tree_const_iteratorIS4_PNS_11__tree_nodeIS4_SE_EElEERPNS_15__tree_end_nodeISG_EESH_RKT_"
  },
  {
   "binding" : "weak",
   "name" : "_ZNSt3__16__treeINS_12__value_typeIN7android8String16EbEENS_19__map_value_compareIS3_S4_NS_4lessIS3_EELb1EEENS_9allocatorIS4_EEE12__find_equalIS3_EERPNS_16__tree_node_baseIPvEERPNS_15__tree_end_nodeISG_EERKT_"
  },
  {
   "binding" : "weak",
   "name" : "_ZNSt3__16__treeINS_12__value_typeIN7android8String16EbEENS_19__map_value_compareIS3_S4_NS_4lessIS3_EELb1EEENS_9allocatorIS4_EEE14__assign_multiINS_21__tree_const_iteratorIS4_PNS_11__tree_nodeIS4_PvEElEEEEvT_SJ_"
  },
  {
   "binding" : "weak",
   "name" : "_ZNSt3__16__treeINS_12__value_typeIN7android8String16EbEENS_19__map_value_compareIS3_S4_NS_4lessIS3_EELb1EEENS_9allocatorIS4_EEE15__emplace_multiIJRKNS_4pairIKS3_bEEEEENS_15__tree_iteratorIS4_PNS_11__tree_nodeIS4_PvEElEEDpOT_"
  },
  {
   "binding" : "weak",
   "name" : "_ZNSt3__16__treeINS_12__value_typeIN7android8String16EbEENS_19__map_value_compareIS3_S4_NS_4lessIS3_EELb1EEENS_9allocatorIS4_EEE25__emplace_unique_key_argsIS3_JRKNS_21piecewise_construct_tENS_5tupleIJRKS3_EEENSG_IJEEEEEENS_4pairINS_15__tree_iteratorIS4_PNS_11__tree_nodeIS4_PvEElEEbEERKT_DpOT0_"
  },
  {
   "binding" : "weak",
   "name" : "_ZNSt3__16__treeINS_12__value_typeIN7android8String16EbEENS_19__map_value_compareIS3_S4_NS_4lessIS3_EELb1EEENS_9allocatorIS4_EEE30__emplace_hint_unique_key_argsIS3_JRKNS_4pairIKS3_bEEEEENS_15__tree_iteratorIS4_PNS_11__tree_nodeIS4_PvEElEENS_21__tree_const_iteratorIS4_SM_lEERKT_DpOT0_"
  },
  {
   "binding" : "weak",
   "name" : "_ZNSt3__16__treeINS_12__value_typeIN7android8String16EbEENS_19__map_value_compareIS3_S4_NS_4lessIS3_EELb1EEENS_9allocatorIS4_EEE4findIS3_EENS_15__tree_iteratorIS4_PNS_11__tree_nodeIS4_PvEElEERKT_"
  },
  {
   "binding" : "weak",
   "name" : "_ZNSt3__16__treeINS_12__value_typeIN7android8String16EbEENS_19__map_value_compareIS3_S4_NS_4lessIS3_EELb1EEENS_9allocatorIS4_EEE7destroyEPNS_11__tree_nodeIS4_PvEE"
  },
  {
   "binding" : "weak",
   "name" : "_ZNSt3__16__treeINS_12__value_typeIN7android8String16EdEENS_19__map_value_compareIS3_S4_NS_4lessIS3_EELb1EEENS_9allocatorIS4_EEE12__find_equalIS3_EERPNS_16__tree_node_baseIPvEENS_21__tree_const_iteratorIS4_PNS_11__tree_nodeIS4_SE_EElEERPNS_15__tree_end_nodeISG_EESH_RKT_"
  },
  {
   "binding" : "weak",
   "name" : "_ZNSt3__16__treeINS_12__value_typeIN7android8String16EdEENS_19__map_value_compareIS3_S4_NS_4lessIS3_EELb1EEENS_9allocatorIS4_EEE12__find_equalIS3_EERPNS_16__tree_node_baseIPvEERPNS_15__tree_end_nodeISG_EERKT_"
  },
  {
   "binding" : "weak",
   "name" : "_ZNSt3__16__treeINS_12__value_typeIN7android8String16EdEENS_19__map_value_compareIS3_S4_NS_4lessIS3_EELb1EEENS_9allocatorIS4_EEE14__assign_multiINS_21__tree_const_iteratorIS4_PNS_11__tree_nodeIS4_PvEElEEEEvT_SJ_"
  },
  {
   "binding" : "weak",
   "name" : "_ZNSt3__16__treeINS_12__value_typeIN7android8String16EdEENS_19__map_value_compareIS3_S4_NS_4lessIS3_EELb1EEENS_9allocatorIS4_EEE15__emplace_multiIJRKNS_4pairIKS3_dEEEEENS_15__tree_iteratorIS4_PNS_11__tree_nodeIS4_PvEElEEDpOT_"
  },
  {
   "binding" : "weak",
   "name" : "_ZNSt3__16__treeINS_12__value_typeIN7android8String16EdEENS_19__map_value_compareIS3_S4_NS_4lessIS3_EELb1EEENS_9allocatorIS4_EEE25__emplace_unique_key_argsIS3_JRKNS_21piecewise_construct_tENS_5tupleIJRKS3_EEENSG_IJEEEEEENS_4pairINS_15__tree_iteratorIS4_PNS_11__tree_nodeIS4_PvEElEEbEERKT_DpOT0_"
  },
  {
   "binding" : "weak",
   "name" : "_ZNSt3__16__treeINS_12__value_typeIN7android8String16EdEENS_19__map_value_compareIS3_S4_NS_4lessIS3_EELb1EEENS_9allocatorIS4_EEE30__emplace_hint_unique_key_argsIS3_JRKNS_4pairIKS3_dEEEEENS_15__tree_iteratorIS4_PNS_11__tree_nodeIS4_PvEElEENS_21__tree_const_iteratorIS4_SM_lEERKT_DpOT0_"
  },
  {
   "binding" : "weak",
   "name" : "_ZNSt3__16__treeINS_12__value_typeIN7android8String16EdEENS_19__map_value_compareIS3_S4_NS_4lessIS3_EELb1EEENS_9allocatorIS4_EEE4findIS3_EENS_15__tree_iteratorIS4_PNS_11__tree_nodeIS4_PvEElEERKT_"
  },
  {
   "binding" : "weak",
   "name" : "_ZNSt3__16__treeINS_12__value_typeIN7android8String16EdEENS_19__map_value_compareIS3_S4_NS_4lessIS3_EELb1EEENS_9allocatorIS4_EEE7destroyEPNS_11__tree_nodeIS4_PvEE"
  },
  {
   "binding" : "weak",
   "name" : "_ZNSt3__16__treeINS_12__value_typeIN7android8String16EiEENS_19__map_value_compareIS3_S4_NS_4lessIS3_EELb1EEENS_9allocatorIS4_EEE12__find_equalIS3_EERPNS_16__tree_node_baseIPvEENS_21__tree_const_iteratorIS4_PNS_11__tree_nodeIS4_SE_EElEERPNS_15__tree_end_nodeISG_EESH_RKT_"
  },
  {
   "binding" : "weak",
   "name" : "_ZNSt3__16__treeINS_12__value_typeIN7android8String16EiEENS_19__map_value_compareIS3_S4_NS_4lessIS3_EELb1EEENS_9allocatorIS4_EEE12__find_equalIS3_EERPNS_16__tree_node_baseIPvEERPNS_15__tree_end_nodeISG_EERKT_"
  },
  {
   "binding" : "weak",
   "name" : "_ZNSt3__16__treeINS_12__value_typeIN7android8String16EiEENS_19__map_value_compareIS3_S4_NS_4lessIS3_EELb1EEENS_9allocatorIS4_EEE14__assign_multiINS_21__tree_const_iteratorIS4_PNS_11__tree_nodeIS4_PvEElEEEEvT_SJ_"
  },
  {
   "binding" : "weak",
   "name" : "_ZNSt3__16__treeINS_12__value_typeIN7android8String16EiEENS_19__map_value_compareIS3_S4_NS_4lessIS3_EELb1EEENS_9allocatorIS4_EEE15__emplace_multiIJRKNS_4pairIKS3_iEEEEENS_15__tree_iteratorIS4_PNS_11__tree_nodeIS4_PvEElEEDpOT_"
  },
  {
   "binding" : "weak",
   "name" : "_ZNSt3__16__treeINS_12__value_typeIN7android8String16EiEENS_19__map_value_compareIS3_S4_NS_4lessIS3_EELb1EEENS_9allocatorIS4_EEE25__emplace_unique_key_argsIS3_JRKNS_21piecewise_construct_tENS_5tupleIJRKS3_EEENSG_IJEEEEEENS_4pairINS_15__tree_iteratorIS4_PNS_11__tree_nodeIS4_PvEElEEbEERKT_DpOT0_"
  },
  {
   "binding" : "weak",
   "name" : "_ZNSt3__16__treeINS_12__value_typeIN7android8String16EiEENS_19__map_value_compareIS3_S4_NS_4lessIS3_EELb1EEENS_9allocatorIS4_EEE30__emplace_hint_unique_key_argsIS3_JRKNS_4pairIKS3_iEEEEENS_15__tree_iteratorIS4_PNS_11__tree_nodeIS4_PvEElEENS_21__tree_const_iteratorIS4_SM_lEERKT_DpOT0_"
  },
  {
   "binding" : "weak",
   "name" : "_ZNSt3__16__treeINS_12__value_typeIN7android8String16EiEENS_19__map_value_compareIS3_S4_NS_4lessIS3_EELb1EEENS_9allocatorIS4_EEE4findIS3_EENS_15__tree_iteratorIS4_PNS_11__tree_nodeIS4_PvEElEERKT_"
  },
  {
   "binding" : "weak",
   "name" : "_ZNSt3__16__treeINS_12__value_typeIN7android8String16EiEENS_19__map_value_compareIS3_S4_NS_4lessIS3_EELb1EEENS_9allocatorIS4_EEE7destroyEPNS_11__tree_nodeIS4_PvEE"
  },
  {
   "binding" : "weak",
   "name" : "_ZNSt3__16__treeINS_12__value_typeIN7android8String16ElEENS_19__map_value_compareIS3_S4_NS_4lessIS3_EELb1EEENS_9allocatorIS4_EEE12__find_equalIS3_EERPNS_16__tree_node_baseIPvEENS_21__tree_const_iteratorIS4_PNS_11__tree_nodeIS4_SE_EElEERPNS_15__tree_end_nodeISG_EESH_RKT_"
  },
  {
   "binding" : "weak",
   "name" : "_ZNSt3__16__treeINS_12__value_typeIN7android8String16ElEENS_19__map_value_compareIS3_S4_NS_4lessIS3_EELb1EEENS_9allocatorIS4_EEE12__find_equalIS3_EERPNS_16__tree_node_baseIPvEERPNS_15__tree_end_nodeISG_EERKT_"
  },
  {
   "binding" : "weak",
   "name" : "_ZNSt3__16__treeINS_12__value_typeIN7android8String16ElEENS_19__map_value_compareIS3_S4_NS_4lessIS3_EELb1EEENS_9allocatorIS4_EEE14__assign_multiINS_21__tree_const_iteratorIS4_PNS_11__tree_nodeIS4_PvEElEEEEvT_SJ_"
  },
  {
   "binding" : "weak",
   "name" : "_ZNSt3__16__treeINS_12__value_typeIN7android8String16ElEENS_19__map_value_compareIS3_S4_NS_4lessIS3_EELb1EEENS_9allocatorIS4_EEE15__emplace_multiIJRKNS_4pairIKS3_lEEEEENS_15__tree_iteratorIS4_PNS_11__tree_nodeIS4_PvEElEEDpOT_"
  },
  {
   "binding" : "weak",
   "name" : "_ZNSt3__16__treeINS_12__value_typeIN7android8String16ElEENS_19__map_value_compareIS3_S4_NS_4lessIS3_EELb1EEENS_9allocatorIS4_EEE25__emplace_unique_key_argsIS3_JRKNS_21piecewise_construct_tENS_5tupleIJRKS3_EEENSG_IJEEEEEENS_4pairINS_15__tree_iteratorIS4_PNS_11__tree_nodeIS4_PvEElEEbEERKT_DpOT0_"
  },
  {
   "binding" : "weak",
   "name" : "_ZNSt3__16__treeINS_12__value_typeIN7android8String16ElEENS_19__map_value_compareIS3_S4_NS_4lessIS3_EELb1EEENS_9allocatorIS4_EEE30__emplace_hint_unique_key_argsIS3_JRKNS_4pairIKS3_lEEEEENS_15__tree_iteratorIS4_PNS_11__tree_nodeIS4_PvEElEENS_21__tree_const_iteratorIS4_SM_lEERKT_DpOT0_"
  },
  {
   "binding" : "weak",
   "name" : "_ZNSt3__16__treeINS_12__value_typeIN7android8String16ElEENS_19__map_value_compareIS3_S4_NS_4lessIS3_EELb1EEENS_9allocatorIS4_EEE4findIS3_EENS_15__tree_iteratorIS4_PNS_11__tree_nodeIS4_PvEElEERKT_"
  },
  {
   "binding" : "weak",
   "name" : "_ZNSt3__16__treeINS_12__value_typeIN7android8String16ElEENS_19__map_value_compareIS3_S4_NS_4lessIS3_EELb1EEENS_9allocatorIS4_EEE7destroyEPNS_11__tree_nodeIS4_PvEE"
  },
  {
   "binding" : "weak",
   "name" : "_ZNSt3__16__treeINS_12__value_typeINS_12basic_stringIcNS_11char_traitsIcEENS_9allocatorIcEEEEN7android6binder8internal21ClientCounterCallback7ServiceEEENS_19__map_value_compareIS7_SD_NS_4lessIS7_EELb1EEENS5_ISD_EEE12__find_equalIS7_EERPNS_16__tree_node_baseIPvEERPNS_15__tree_end_nodeISO_EERKT_"
  },
  {
   "binding" : "weak",
   "name" : "_ZNSt3__16__treeINS_12__value_typeINS_12basic_stringIcNS_11char_traitsIcEENS_9allocatorIcEEEEN7android6binder8internal21ClientCounterCallback7ServiceEEENS_19__map_value_compareIS7_SD_NS_4lessIS7_EELb1EEENS5_ISD_EEE25__emplace_unique_key_argsIS7_JRKNS_21piecewise_construct_tENS_5tupleIJRKS7_EEENSO_IJEEEEEENS_4pairINS_15__tree_iteratorISD_PNS_11__tree_nodeISD_PvEElEEbEERKT_DpOT0_"
  },
  {
   "binding" : "weak",
   "name" : "_ZNSt3__16__treeINS_12__value_typeINS_12basic_stringIcNS_11char_traitsIcEENS_9allocatorIcEEEEN7android6binder8internal21ClientCounterCallback7ServiceEEENS_19__map_value_compareIS7_SD_NS_4lessIS7_EELb1EEENS5_ISD_EEE7destroyEPNS_11__tree_nodeISD_PvEE"
  },
  {
   "binding" : "weak",
   "name" : "_ZNSt3__16vectorIDsNS_9allocatorIDsEEE8__appendEm"
  },
  {
   "binding" : "weak",
   "name" : "_ZNSt3__16vectorIN7android2spINS1_7IBinderEEENS_9allocatorIS4_EEE8__appendEm"
  },
  {
   "binding" : "weak",
   "name" : "_ZNSt3__16vectorIN7android4base14unique_fd_implINS2_13DefaultCloserEEENS_9allocatorIS5_EEE26__swap_out_circular_bufferERNS_14__split_bufferIS5_RS7_EE"
  },
  {
   "binding" : "weak",
   "name" : "_ZNSt3__16vectorIN7android4base14unique_fd_implINS2_13DefaultCloserEEENS_9allocatorIS5_EEE8__appendEm"
  },
  {
   "binding" : "weak",
   "name" : "_ZNSt3__16vectorIN7android8String16ENS_9allocatorIS2_EEE6assignIPS2_EENS_9enable_ifIXaasr21__is_forward_iteratorIT_EE5valuesr16is_constructibleIS2_NS_15iterator_traitsIS9_E9referenceEEE5valueEvE4typeES9_S9_"
  },
  {
   "binding" : "weak",
   "name" : "_ZNSt3__16vectorIN7android8String16ENS_9allocatorIS2_EEE8__appendEm"
  },
  {
   "binding" : "weak",
   "name" : "_ZNSt3__16vectorINS_10unique_ptrIN7android8String16ENS_14default_deleteIS3_EEEENS_9allocatorIS6_EEE8__appendEm"
  },
  {
   "binding" : "weak",
   "name" : "_ZNSt3__16vectorINS_10unique_ptrINS_12basic_stringIcNS_11char_traitsIcEENS_9allocatorIcEEEENS_14default_deleteIS7_EEEENS5_ISA_EEE8__appendEm"
  },
  {
   "binding" : "weak",
   "name" : "_ZNSt3__16vectorINS_12basic_stringIcNS_11char_traitsIcEENS_9allocatorIcEEEENS4_IS6_EEE8__appendEm"
  },
  {
   "binding" : "weak",
   "name" : "_ZNSt3__16vectorIaNS_9allocatorIaEEE6insertIPKaEENS_9enable_ifIXaasr21__is_forward_iteratorIT_EE5valuesr16is_constructibleIaNS_15iterator_traitsIS8_E9referenceEEE5valueENS_11__wrap_iterIPaEEE4typeENSC_IS6_EES8_S8_"
  },
  {
   "binding" : "weak",
   "name" : "_ZNSt3__16vectorIbNS_9allocatorIbEEE18__construct_at_endINS_14__bit_iteratorIS3_Lb0ELm0EEEEENS_9enable_ifIXsr21__is_forward_iteratorIT_EE5valueEvE4typeES8_S8_"
  },
  {
   "binding" : "weak",
   "name" : "_ZNSt3__16vectorIbNS_9allocatorIbEEE18__construct_at_endINS_14__bit_iteratorIS3_Lb1ELm0EEEEENS_9enable_ifIXsr21__is_forward_iteratorIT_EE5valueEvE4typeES8_S8_"
  },
  {
   "binding" : "weak",
   "name" : "_ZNSt3__16vectorIbNS_9allocatorIbEEE6resizeEmb"
  },
  {
   "binding" : "weak",
   "name" : "_ZNSt3__16vectorIbNS_9allocatorIbEEE7reserveEm"
  },
  {
   "binding" : "weak",
   "name" : "_ZNSt3__16vectorIbNS_9allocatorIbEEEaSERKS3_"
  },
  {
   "binding" : "weak",
   "name" : "_ZNSt3__16vectorIdNS_9allocatorIdEEE6assignIPdEENS_9enable_ifIXaasr21__is_forward_iteratorIT_EE5valuesr16is_constructibleIdNS_15iterator_traitsIS7_E9referenceEEE5valueEvE4typeES7_S7_"
  },
  {
   "binding" : "weak",
   "name" : "_ZNSt3__16vectorIdNS_9allocatorIdEEE8__appendEm"
  },
  {
   "binding" : "weak",
   "name" : "_ZNSt3__16vectorIfNS_9allocatorIfEEE8__appendEm"
  },
  {
   "binding" : "weak",
   "name" : "_ZNSt3__16vectorIhNS_9allocatorIhEEE6insertIPKhEENS_9enable_ifIXaasr21__is_forward_iteratorIT_EE5valuesr16is_constructibleIhNS_15iterator_traitsIS8_E9referenceEEE5valueENS_11__wrap_iterIPhEEE4typeENSC_IS6_EES8_S8_"
  },
  {
   "binding" : "weak",
   "name" : "_ZNSt3__16vectorIiNS_9allocatorIiEEE6assignIPiEENS_9enable_ifIXaasr21__is_forward_iteratorIT_EE5valuesr16is_constructibleIiNS_15iterator_traitsIS7_E9referenceEEE5valueEvE4typeES7_S7_"
  },
  {
   "binding" : "weak",
   "name" : "_ZNSt3__16vectorIiNS_9allocatorIiEEE8__appendEm"
  },
  {
   "binding" : "weak",
   "name" : "_ZNSt3__16vectorIlNS_9allocatorIlEEE6assignIPlEENS_9enable_ifIXaasr21__is_forward_iteratorIT_EE5valuesr16is_constructibleIlNS_15iterator_traitsIS7_E9referenceEEE5valueEvE4typeES7_S7_"
  },
  {
   "binding" : "weak",
   "name" : "_ZNSt3__16vectorIlNS_9allocatorIlEEE8__appendEm"
  },
  {
   "binding" : "weak",
   "name" : "_ZNSt3__16vectorImNS_9allocatorImEEE8__appendEm"
  },
  {
   "name" : "_ZThn8_N7android10AllocationD0Ev"
  },
  {
   "name" : "_ZThn8_N7android10AllocationD1Ev"
  },
  {
   "name" : "_ZThn8_N7android10MemoryBaseD0Ev"
  },
  {
   "name" : "_ZThn8_N7android10MemoryBaseD1Ev"
  },
  {
   "name" : "_ZThn8_N7android12BnMemoryHeap10onTransactEjRKNS_6ParcelEPS1_j"
  },
  {
   "name" : "_ZThn8_N7android12BnMemoryHeapD0Ev"
  },
  {
   "name" : "_ZThn8_N7android12BnMemoryHeapD1Ev"
  },
  {
   "name" : "_ZThn8_N7android12BpMemoryHeapD0Ev"
  },
  {
   "name" : "_ZThn8_N7android12BpMemoryHeapD1Ev"
  },
  {
   "name" : "_ZThn8_N7android15BnShellCallback10onTransactEjRKNS_6ParcelEPS1_j"
  },
  {
   "name" : "_ZThn8_N7android16BnResultReceiver10onTransactEjRKNS_6ParcelEPS1_j"
  },
  {
   "name" : "_ZThn8_N7android2os16BnClientCallback10onTransactEjRKNS_6ParcelEPS2_j"
  },
  {
   "name" : "_ZThn8_N7android2os16BnServiceManager10onTransactEjRKNS_6ParcelEPS2_j"
  },
  {
   "name" : "_ZThn8_N7android2os17BnServiceCallback10onTransactEjRKNS_6ParcelEPS2_j"
  },
  {
   "name" : "_ZThn8_N7android7content2pm22BnPackageManagerNative10onTransactEjRKNS_6ParcelEPS3_j"
  },
  {
   "name" : "_ZThn8_N7android7content2pm23BnPackageChangeObserver10onTransactEjRKNS_6ParcelEPS3_j"
  },
  {
   "name" : "_ZThn8_N7android8BnMemory10onTransactEjRKNS_6ParcelEPS1_j"
  },
  {
   "name" : "_ZThn8_N7android8BnMemoryD0Ev"
  },
  {
   "name" : "_ZThn8_N7android8BnMemoryD1Ev"
  },
  {
   "name" : "_ZThn8_N7android8BpMemoryD0Ev"
  },
  {
   "name" : "_ZThn8_N7android8BpMemoryD1Ev"
  },
  {
   "name" : "_ZTv0_n24_N7android10AllocationD0Ev"
  },
  {
   "name" : "_ZTv0_n24_N7android10AllocationD1Ev"
  },
  {
   "name" : "_ZTv0_n24_N7android10IInterfaceD0Ev"
  },
  {
   "name" : "_ZTv0_n24_N7android10IInterfaceD1Ev"
  },
  {
   "name" : "_ZTv0_n24_N7android10MemoryBaseD0Ev"
  },
  {
   "name" : "_ZTv0_n24_N7android10MemoryBaseD1Ev"
  },
  {
   "name" : "_ZTv0_n24_N7android11IMemoryHeapD0Ev"
  },
  {
   "name" : "_ZTv0_n24_N7android11IMemoryHeapD1Ev"
  },
  {
   "name" : "_ZTv0_n24_N7android12BnMemoryHeapD0Ev"
  },
  {
   "name" : "_ZTv0_n24_N7android12BnMemoryHeapD1Ev"
  },
  {
   "name" : "_ZTv0_n24_N7android12BpMemoryHeapD0Ev"
  },
  {
   "name" : "_ZTv0_n24_N7android12BpMemoryHeapD1Ev"
  },
  {
   "name" : "_ZTv0_n24_N7android12ProcessStateD0Ev"
  },
  {
   "name" : "_ZTv0_n24_N7android12ProcessStateD1Ev"
  },
  {
   "name" : "_ZTv0_n24_N7android14IShellCallbackD0Ev"
  },
  {
   "name" : "_ZTv0_n24_N7android14IShellCallbackD1Ev"
  },
  {
   "name" : "_ZTv0_n24_N7android14MemoryHeapBaseD0Ev"
  },
  {
   "name" : "_ZTv0_n24_N7android14MemoryHeapBaseD1Ev"
  },
  {
   "name" : "_ZTv0_n24_N7android15IResultReceiverD0Ev"
  },
  {
   "name" : "_ZTv0_n24_N7android15IResultReceiverD1Ev"
  },
  {
   "name" : "_ZTv0_n24_N7android15IServiceManagerD0Ev"
  },
  {
   "name" : "_ZTv0_n24_N7android15IServiceManagerD1Ev"
  },
  {
   "name" : "_ZTv0_n24_N7android2os15IClientCallbackD0Ev"
  },
  {
   "name" : "_ZTv0_n24_N7android2os15IClientCallbackD1Ev"
  },
  {
   "name" : "_ZTv0_n24_N7android2os15IServiceManagerD0Ev"
  },
  {
   "name" : "_ZTv0_n24_N7android2os15IServiceManagerD1Ev"
  },
  {
   "name" : "_ZTv0_n24_N7android2os16IServiceCallbackD0Ev"
  },
  {
   "name" : "_ZTv0_n24_N7android2os16IServiceCallbackD1Ev"
  },
  {
   "name" : "_ZTv0_n24_N7android7BBinderD0Ev"
  },
  {
   "name" : "_ZTv0_n24_N7android7BBinderD1Ev"
  },
  {
   "name" : "_ZTv0_n24_N7android7IBinderD0Ev"
  },
  {
   "name" : "_ZTv0_n24_N7android7IBinderD1Ev"
  },
  {
   "name" : "_ZTv0_n24_N7android7IMemoryD0Ev"
  },
  {
   "name" : "_ZTv0_n24_N7android7IMemoryD1Ev"
  },
  {
   "name" : "_ZTv0_n24_N7android7content2pm21IPackageManagerNativeD0Ev"
  },
  {
   "name" : "_ZTv0_n24_N7android7content2pm21IPackageManagerNativeD1Ev"
  },
  {
   "name" : "_ZTv0_n24_N7android7content2pm22IPackageChangeObserverD0Ev"
  },
  {
   "name" : "_ZTv0_n24_N7android7content2pm22IPackageChangeObserverD1Ev"
  },
  {
   "name" : "_ZTv0_n24_N7android8BnMemoryD0Ev"
  },
  {
   "name" : "_ZTv0_n24_N7android8BnMemoryD1Ev"
  },
  {
   "name" : "_ZTv0_n24_N7android8BpBinderD0Ev"
  },
  {
   "name" : "_ZTv0_n24_N7android8BpBinderD1Ev"
  },
  {
   "name" : "_ZTv0_n24_N7android8BpMemoryD0Ev"
  },
  {
   "name" : "_ZTv0_n24_N7android8BpMemoryD1Ev"
  },
  {
   "name" : "_ZTv0_n24_N7android9BpRefBaseD0Ev"
  },
  {
   "name" : "_ZTv0_n24_N7android9BpRefBaseD1Ev"
  },
  {
   "name" : "_ZTv0_n24_N7android9HeapCacheD0Ev"
  },
  {
   "name" : "_ZTv0_n24_N7android9HeapCacheD1Ev"
  },
  {
   "name" : "_ZTv0_n32_N7android14MemoryHeapBaseD0Ev"
  },
  {
   "name" : "_ZTv0_n32_N7android14MemoryHeapBaseD1Ev"
  },
  {
   "name" : "_ZTv0_n32_N7android8BpBinder10onFirstRefEv"
  },
  {
   "name" : "_ZTv0_n32_N7android9BpRefBase10onFirstRefEv"
  },
  {
   "name" : "_ZTv0_n40_N7android8BpBinder15onLastStrongRefEPKv"
  },
  {
   "name" : "_ZTv0_n40_N7android9BpRefBase15onLastStrongRefEPKv"
  },
  {
   "name" : "_ZTv0_n48_N7android8BpBinder20onIncStrongAttemptedEjPKv"
  },
  {
   "name" : "_ZTv0_n48_N7android9BpRefBase20onIncStrongAttemptedEjPKv"
  },
  {
   "name" : "_ZTv0_n56_NK7android14MemoryHeapBase9getHeapIDEv"
  },
  {
   "name" : "_ZTv0_n64_NK7android14MemoryHeapBase7getBaseEv"
  },
  {
   "name" : "_ZTv0_n72_NK7android14MemoryHeapBase7getSizeEv"
  },
  {
   "name" : "_ZTv0_n80_NK7android14MemoryHeapBase8getFlagsEv"
  },
  {
   "name" : "_ZTv0_n88_NK7android14MemoryHeapBase9getOffsetEv"
  },
  {
   "name" : "_ZTvn8_n32_N7android14MemoryHeapBaseD0Ev"
  },
  {
   "name" : "_ZTvn8_n32_N7android14MemoryHeapBaseD1Ev"
  },
  {
   "name" : "getBinderKernelReferences"
  },
  {
   "name" : "printHexData"
  },
  {
   "name" : "printTypeCode"
  },
  {
   "name" : "stringForIndent"
  }
 ],
 "elf_objects" :
 [
  {
   "name" : "_ZN7android11IMemoryHeap10descriptorE"
  },
  {
   "name" : "_ZN7android11IMemoryHeap12default_implE"
  },
  {
   "name" : "_ZN7android12gTextBuffersE"
  },
  {
   "name" : "_ZN7android13gProcessMutexE"
  },
  {
   "name" : "_ZN7android14IShellCallback10descriptorE"
  },
  {
   "name" : "_ZN7android14IShellCallback12default_implE"
  },
  {
   "name" : "_ZN7android15IResultReceiver10descriptorE"
  },
  {
   "name" : "_ZN7android15IResultReceiver12default_implE"
  },
  {
   "name" : "_ZN7android18the_context_objectE"
  },
  {
   "name" : "_ZN7android22SimpleBestFitAllocator12kMemoryAlignE"
  },
  {
   "name" : "_ZN7android2os15IClientCallback10descriptorE"
  },
  {
   "name" : "_ZN7android2os15IClientCallback12default_implE"
  },
  {
   "name" : "_ZN7android2os15IServiceManager10descriptorE"
  },
  {
   "name" : "_ZN7android2os15IServiceManager12default_implE"
  },
  {
   "name" : "_ZN7android2os16IServiceCallback10descriptorE"
  },
  {
   "name" : "_ZN7android2os16IServiceCallback12default_implE"
  },
  {
   "name" : "_ZN7android4aerrE"
  },
  {
   "name" : "_ZN7android4alogE"
  },
  {
   "name" : "_ZN7android4aoutE"
  },
  {
   "name" : "_ZN7android7IMemory10descriptorE"
  },
  {
   "name" : "_ZN7android7IMemory12default_implE"
  },
  {
   "name" : "_ZN7android7content2pm21IPackageManagerNative10descriptorE"
  },
  {
   "name" : "_ZN7android7content2pm21IPackageManagerNative12default_implE"
  },
  {
   "name" : "_ZN7android7content2pm22IPackageChangeObserver10descriptorE"
  },
  {
   "name" : "_ZN7android7content2pm22IPackageChangeObserver12default_implE"
  },
  {
   "name" : "_ZN7android8BpBinder12sTrackingMapE"
  },
  {
   "name" : "_ZN7android8BpBinder13sTrackingLockE"
  },
  {
   "name" : "_ZN7android8BpBinder14sLimitCallbackE"
  },
  {
   "name" : "_ZN7android8BpBinder15sNumTrackedUidsE"
  },
  {
   "name" : "_ZN7android8BpBinder18sCountByUidEnabledE"
  },
  {
   "name" : "_ZN7android8BpBinder26sBinderProxyThrottleCreateE"
  },
  {
   "name" : "_ZN7android8BpBinder29sBinderProxyCountLowWatermarkE"
  },
  {
   "name" : "_ZN7android8BpBinder30sBinderProxyCountHighWatermarkE"
  },
  {
   "name" : "_ZN7android8gProcessE"
  },
  {
   "name" : "_ZTCN7android10AllocationE0_NS_10IInterfaceE"
  },
  {
   "name" : "_ZTCN7android10AllocationE0_NS_10MemoryBaseE"
  },
  {
   "name" : "_ZTCN7android10AllocationE0_NS_11BnInterfaceINS_7IMemoryEEE"
  },
  {
   "name" : "_ZTCN7android10AllocationE0_NS_7IMemoryE"
  },
  {
   "name" : "_ZTCN7android10AllocationE0_NS_8BnMemoryE"
  },
  {
   "name" : "_ZTCN7android10AllocationE8_NS_7BBinderE"
  },
  {
   "name" : "_ZTCN7android10AllocationE8_NS_7IBinderE"
  },
  {
   "name" : "_ZTCN7android10MemoryBaseE0_NS_10IInterfaceE"
  },
  {
   "name" : "_ZTCN7android10MemoryBaseE0_NS_11BnInterfaceINS_7IMemoryEEE"
  },
  {
   "name" : "_ZTCN7android10MemoryBaseE0_NS_7IMemoryE"
  },
  {
   "name" : "_ZTCN7android10MemoryBaseE0_NS_8BnMemoryE"
  },
  {
   "name" : "_ZTCN7android10MemoryBaseE8_NS_7BBinderE"
  },
  {
   "name" : "_ZTCN7android10MemoryBaseE8_NS_7IBinderE"
  },
  {
   "binding" : "weak",
   "name" : "_ZTCN7android10PoolThreadE0_NS_6ThreadE"
  },
  {
   "name" : "_ZTCN7android11IMemoryHeapE0_NS_10IInterfaceE"
  },
  {
   "name" : "_ZTCN7android12BnMemoryHeapE0_NS_10IInterfaceE"
  },
  {
   "name" : "_ZTCN7android12BnMemoryHeapE0_NS_11BnInterfaceINS_11IMemoryHeapEEE"
  },
  {
   "name" : "_ZTCN7android12BnMemoryHeapE0_NS_11IMemoryHeapE"
  },
  {
   "name" : "_ZTCN7android12BnMemoryHeapE8_NS_7BBinderE"
  },
  {
   "name" : "_ZTCN7android12BnMemoryHeapE8_NS_7IBinderE"
  },
  {
   "name" : "_ZTCN7android12BpMemoryHeapE0_NS_10IInterfaceE"
  },
  {
   "name" : "_ZTCN7android12BpMemoryHeapE0_NS_11BpInterfaceINS_11IMemoryHeapEEE"
  },
  {
   "name" : "_ZTCN7android12BpMemoryHeapE0_NS_11IMemoryHeapE"
  },
  {
   "name" : "_ZTCN7android12BpMemoryHeapE8_NS_9BpRefBaseE"
  },
  {
   "name" : "_ZTCN7android14IShellCallbackE0_NS_10IInterfaceE"
  },
  {
   "name" : "_ZTCN7android14MemoryHeapBaseE64_NS_10IInterfaceE"
  },
  {
   "name" : "_ZTCN7android14MemoryHeapBaseE64_NS_11BnInterfaceINS_11IMemoryHeapEEE"
  },
  {
   "name" : "_ZTCN7android14MemoryHeapBaseE64_NS_11IMemoryHeapE"
  },
  {
   "name" : "_ZTCN7android14MemoryHeapBaseE64_NS_12BnMemoryHeapE"
  },
  {
   "name" : "_ZTCN7android14MemoryHeapBaseE72_NS_7BBinderE"
  },
  {
   "name" : "_ZTCN7android14MemoryHeapBaseE72_NS_7IBinderE"
  },
  {
   "name" : "_ZTCN7android15BnShellCallbackE0_NS_10IInterfaceE"
  },
  {
   "name" : "_ZTCN7android15BnShellCallbackE0_NS_11BnInterfaceINS_14IShellCallbackEEE"
  },
  {
   "name" : "_ZTCN7android15BnShellCallbackE0_NS_14IShellCallbackE"
  },
  {
   "name" : "_ZTCN7android15BnShellCallbackE8_NS_7BBinderE"
  },
  {
   "name" : "_ZTCN7android15BnShellCallbackE8_NS_7IBinderE"
  },
  {
   "binding" : "weak",
   "name" : "_ZTCN7android15BpShellCallbackE0_NS_10IInterfaceE"
  },
  {
   "binding" : "weak",
   "name" : "_ZTCN7android15BpShellCallbackE0_NS_11BpInterfaceINS_14IShellCallbackEEE"
  },
  {
   "binding" : "weak",
   "name" : "_ZTCN7android15BpShellCallbackE0_NS_14IShellCallbackE"
  },
  {
   "binding" : "weak",
   "name" : "_ZTCN7android15BpShellCallbackE8_NS_9BpRefBaseE"
  },
  {
   "name" : "_ZTCN7android15IResultReceiverE0_NS_10IInterfaceE"
  },
  {
   "name" : "_ZTCN7android15IServiceManagerE0_NS_10IInterfaceE"
  },
  {
   "name" : "_ZTCN7android16BnResultReceiverE0_NS_10IInterfaceE"
  },
  {
   "name" : "_ZTCN7android16BnResultReceiverE0_NS_11BnInterfaceINS_15IResultReceiverEEE"
  },
  {
   "name" : "_ZTCN7android16BnResultReceiverE0_NS_15IResultReceiverE"
  },
  {
   "name" : "_ZTCN7android16BnResultReceiverE8_NS_7BBinderE"
  },
  {
   "name" : "_ZTCN7android16BnResultReceiverE8_NS_7IBinderE"
  },
  {
   "binding" : "weak",
   "name" : "_ZTCN7android16BpResultReceiverE0_NS_10IInterfaceE"
  },
  {
   "binding" : "weak",
   "name" : "_ZTCN7android16BpResultReceiverE0_NS_11BpInterfaceINS_15IResultReceiverEEE"
  },
  {
   "binding" : "weak",
   "name" : "_ZTCN7android16BpResultReceiverE0_NS_15IResultReceiverE"
  },
  {
   "binding" : "weak",
   "name" : "_ZTCN7android16BpResultReceiverE8_NS_9BpRefBaseE"
  },
  {
   "name" : "_ZTCN7android18ServiceManagerShimE0_NS_10IInterfaceE"
  },
  {
   "name" : "_ZTCN7android18ServiceManagerShimE0_NS_15IServiceManagerE"
  },
  {
   "name" : "_ZTCN7android2os15IClientCallbackE0_NS_10IInterfaceE"
  },
  {
   "name" : "_ZTCN7android2os15IServiceManagerE0_NS_10IInterfaceE"
  },
  {
   "name" : "_ZTCN7android2os16BnClientCallbackE0_NS0_15IClientCallbackE"
  },
  {
   "name" : "_ZTCN7android2os16BnClientCallbackE0_NS_10IInterfaceE"
  },
  {
   "name" : "_ZTCN7android2os16BnClientCallbackE0_NS_11BnInterfaceINS0_15IClientCallbackEEE"
  },
  {
   "name" : "_ZTCN7android2os16BnClientCallbackE8_NS_7BBinderE"
  },
  {
   "name" : "_ZTCN7android2os16BnClientCallbackE8_NS_7IBinderE"
  },
  {
   "name" : "_ZTCN7android2os16BnServiceManagerE0_NS0_15IServiceManagerE"
  },
  {
   "name" : "_ZTCN7android2os16BnServiceManagerE0_NS_10IInterfaceE"
  },
  {
   "name" : "_ZTCN7android2os16BnServiceManagerE0_NS_11BnInterfaceINS0_15IServiceManagerEEE"
  },
  {
   "name" : "_ZTCN7android2os16BnServiceManagerE8_NS_7BBinderE"
  },
  {
   "name" : "_ZTCN7android2os16BnServiceManagerE8_NS_7IBinderE"
  },
  {
   "name" : "_ZTCN7android2os16BpClientCallbackE0_NS0_15IClientCallbackE"
  },
  {
   "name" : "_ZTCN7android2os16BpClientCallbackE0_NS_10IInterfaceE"
  },
  {
   "name" : "_ZTCN7android2os16BpClientCallbackE0_NS_11BpInterfaceINS0_15IClientCallbackEEE"
  },
  {
   "name" : "_ZTCN7android2os16BpClientCallbackE8_NS_9BpRefBaseE"
  },
  {
   "name" : "_ZTCN7android2os16BpServiceManagerE0_NS0_15IServiceManagerE"
  },
  {
   "name" : "_ZTCN7android2os16BpServiceManagerE0_NS_10IInterfaceE"
  },
  {
   "name" : "_ZTCN7android2os16BpServiceManagerE0_NS_11BpInterfaceINS0_15IServiceManagerEEE"
  },
  {
   "name" : "_ZTCN7android2os16BpServiceManagerE8_NS_9BpRefBaseE"
  },
  {
   "name" : "_ZTCN7android2os16IServiceCallbackE0_NS_10IInterfaceE"
  },
  {
   "name" : "_ZTCN7android2os17BnServiceCallbackE0_NS0_16IServiceCallbackE"
  },
  {
   "name" : "_ZTCN7android2os17BnServiceCallbackE0_NS_10IInterfaceE"
  },
  {
   "name" : "_ZTCN7android2os17BnServiceCallbackE0_NS_11BnInterfaceINS0_16IServiceCallbackEEE"
  },
  {
   "name" : "_ZTCN7android2os17BnServiceCallbackE8_NS_7BBinderE"
  },
  {
   "name" : "_ZTCN7android2os17BnServiceCallbackE8_NS_7IBinderE"
  },
  {
   "name" : "_ZTCN7android2os17BpServiceCallbackE0_NS0_16IServiceCallbackE"
  },
  {
   "name" : "_ZTCN7android2os17BpServiceCallbackE0_NS_10IInterfaceE"
  },
  {
   "name" : "_ZTCN7android2os17BpServiceCallbackE0_NS_11BpInterfaceINS0_16IServiceCallbackEEE"
  },
  {
   "name" : "_ZTCN7android2os17BpServiceCallbackE8_NS_9BpRefBaseE"
  },
  {
   "name" : "_ZTCN7android6binder8internal21ClientCounterCallbackE0_NS_10IInterfaceE"
  },
  {
   "name" : "_ZTCN7android6binder8internal21ClientCounterCallbackE0_NS_11BnInterfaceINS_2os15IClientCallbackEEE"
  },
  {
   "name" : "_ZTCN7android6binder8internal21ClientCounterCallbackE0_NS_2os15IClientCallbackE"
  },
  {
   "name" : "_ZTCN7android6binder8internal21ClientCounterCallbackE0_NS_2os16BnClientCallbackE"
  },
  {
   "name" : "_ZTCN7android6binder8internal21ClientCounterCallbackE8_NS_7BBinderE"
  },
  {
   "name" : "_ZTCN7android6binder8internal21ClientCounterCallbackE8_NS_7IBinderE"
  },
  {
   "name" : "_ZTCN7android7BBinderE0_NS_7IBinderE"
  },
  {
   "name" : "_ZTCN7android7IMemoryE0_NS_10IInterfaceE"
  },
  {
   "name" : "_ZTCN7android7content2pm21IPackageManagerNativeE0_NS_10IInterfaceE"
  },
  {
   "name" : "_ZTCN7android7content2pm22BnPackageManagerNativeE0_NS1_21IPackageManagerNativeE"
  },
  {
   "name" : "_ZTCN7android7content2pm22BnPackageManagerNativeE0_NS_10IInterfaceE"
  },
  {
   "name" : "_ZTCN7android7content2pm22BnPackageManagerNativeE0_NS_11BnInterfaceINS1_21IPackageManagerNativeEEE"
  },
  {
   "name" : "_ZTCN7android7content2pm22BnPackageManagerNativeE8_NS_7BBinderE"
  },
  {
   "name" : "_ZTCN7android7content2pm22BnPackageManagerNativeE8_NS_7IBinderE"
  },
  {
   "name" : "_ZTCN7android7content2pm22BpPackageManagerNativeE0_NS1_21IPackageManagerNativeE"
  },
  {
   "name" : "_ZTCN7android7content2pm22BpPackageManagerNativeE0_NS_10IInterfaceE"
  },
  {
   "name" : "_ZTCN7android7content2pm22BpPackageManagerNativeE0_NS_11BpInterfaceINS1_21IPackageManagerNativeEEE"
  },
  {
   "name" : "_ZTCN7android7content2pm22BpPackageManagerNativeE8_NS_9BpRefBaseE"
  },
  {
   "name" : "_ZTCN7android7content2pm22IPackageChangeObserverE0_NS_10IInterfaceE"
  },
  {
   "name" : "_ZTCN7android7content2pm23BnPackageChangeObserverE0_NS1_22IPackageChangeObserverE"
  },
  {
   "name" : "_ZTCN7android7content2pm23BnPackageChangeObserverE0_NS_10IInterfaceE"
  },
  {
   "name" : "_ZTCN7android7content2pm23BnPackageChangeObserverE0_NS_11BnInterfaceINS1_22IPackageChangeObserverEEE"
  },
  {
   "name" : "_ZTCN7android7content2pm23BnPackageChangeObserverE8_NS_7BBinderE"
  },
  {
   "name" : "_ZTCN7android7content2pm23BnPackageChangeObserverE8_NS_7IBinderE"
  },
  {
   "name" : "_ZTCN7android7content2pm23BpPackageChangeObserverE0_NS1_22IPackageChangeObserverE"
  },
  {
   "name" : "_ZTCN7android7content2pm23BpPackageChangeObserverE0_NS_10IInterfaceE"
  },
  {
   "name" : "_ZTCN7android7content2pm23BpPackageChangeObserverE0_NS_11BpInterfaceINS1_22IPackageChangeObserverEEE"
  },
  {
   "name" : "_ZTCN7android7content2pm23BpPackageChangeObserverE8_NS_9BpRefBaseE"
  },
  {
   "name" : "_ZTCN7android8BnMemoryE0_NS_10IInterfaceE"
  },
  {
   "name" : "_ZTCN7android8BnMemoryE0_NS_11BnInterfaceINS_7IMemoryEEE"
  },
  {
   "name" : "_ZTCN7android8BnMemoryE0_NS_7IMemoryE"
  },
  {
   "name" : "_ZTCN7android8BnMemoryE8_NS_7BBinderE"
  },
  {
   "name" : "_ZTCN7android8BnMemoryE8_NS_7IBinderE"
  },
  {
   "name" : "_ZTCN7android8BpBinderE0_NS_7IBinderE"
  },
  {
   "name" : "_ZTCN7android8BpMemoryE0_NS_10IInterfaceE"
  },
  {
   "name" : "_ZTCN7android8BpMemoryE0_NS_11BpInterfaceINS_7IMemoryEEE"
  },
  {
   "name" : "_ZTCN7android8BpMemoryE0_NS_7IMemoryE"
  },
  {
   "name" : "_ZTCN7android8BpMemoryE8_NS_9BpRefBaseE"
  },
  {
   "name" : "_ZTCN7android9HeapCacheE0_NS_7IBinder14DeathRecipientE"
  },
  {
   "binding" : "weak",
   "name" : "_ZTCNSt3__118basic_stringstreamIcNS_11char_traitsIcEENS_9allocatorIcEEEE0_NS_13basic_istreamIcS2_EE"
  },
  {
   "binding" : "weak",
   "name" : "_ZTCNSt3__118basic_stringstreamIcNS_11char_traitsIcEENS_9allocatorIcEEEE0_NS_14basic_iostreamIcS2_EE"
  },
  {
   "binding" : "weak",
   "name" : "_ZTCNSt3__118basic_stringstreamIcNS_11char_traitsIcEENS_9allocatorIcEEEE16_NS_13basic_ostreamIcS2_EE"
  },
  {
   "name" : "_ZTTN7android10AllocationE"
  },
  {
   "name" : "_ZTTN7android10IInterfaceE"
  },
  {
   "name" : "_ZTTN7android10MemoryBaseE"
  },
  {
   "binding" : "weak",
   "name" : "_ZTTN7android10PoolThreadE"
  },
  {
   "name" : "_ZTTN7android11IMemoryHeapE"
  },
  {
   "name" : "_ZTTN7android12BnMemoryHeapE"
  },
  {
   "name" : "_ZTTN7android12BpMemoryHeapE"
  },
  {
   "name" : "_ZTTN7android12ProcessStateE"
  },
  {
   "name" : "_ZTTN7android14IShellCallbackE"
  },
  {
   "name" : "_ZTTN7android14MemoryHeapBaseE"
  },
  {
   "name" : "_ZTTN7android15BnShellCallbackE"
  },
  {
   "binding" : "weak",
   "name" : "_ZTTN7android15BpShellCallbackE"
  },
  {
   "name" : "_ZTTN7android15IResultReceiverE"
  },
  {
   "name" : "_ZTTN7android15IServiceManagerE"
  },
  {
   "name" : "_ZTTN7android16BnResultReceiverE"
  },
  {
   "binding" : "weak",
   "name" : "_ZTTN7android16BpResultReceiverE"
  },
  {
   "name" : "_ZTTN7android18ServiceManagerShimE"
  },
  {
   "name" : "_ZTTN7android2os15IClientCallbackE"
  },
  {
   "name" : "_ZTTN7android2os15IServiceManagerE"
  },
  {
   "name" : "_ZTTN7android2os16BnClientCallbackE"
  },
  {
   "name" : "_ZTTN7android2os16BnServiceManagerE"
  },
  {
   "name" : "_ZTTN7android2os16BpClientCallbackE"
  },
  {
   "name" : "_ZTTN7android2os16BpServiceManagerE"
  },
  {
   "name" : "_ZTTN7android2os16IServiceCallbackE"
  },
  {
   "name" : "_ZTTN7android2os17BnServiceCallbackE"
  },
  {
   "name" : "_ZTTN7android2os17BpServiceCallbackE"
  },
  {
   "name" : "_ZTTN7android6binder8internal21ClientCounterCallbackE"
  },
  {
   "name" : "_ZTTN7android7BBinderE"
  },
  {
   "name" : "_ZTTN7android7IBinderE"
  },
  {
   "name" : "_ZTTN7android7IMemoryE"
  },
  {
   "name" : "_ZTTN7android7content2pm21IPackageManagerNativeE"
  },
  {
   "name" : "_ZTTN7android7content2pm22BnPackageManagerNativeE"
  },
  {
   "name" : "_ZTTN7android7content2pm22BpPackageManagerNativeE"
  },
  {
   "name" : "_ZTTN7android7content2pm22IPackageChangeObserverE"
  },
  {
   "name" : "_ZTTN7android7content2pm23BnPackageChangeObserverE"
  },
  {
   "name" : "_ZTTN7android7content2pm23BpPackageChangeObserverE"
  },
  {
   "name" : "_ZTTN7android8BnMemoryE"
  },
  {
   "name" : "_ZTTN7android8BpBinderE"
  },
  {
   "name" : "_ZTTN7android8BpMemoryE"
  },
  {
   "name" : "_ZTTN7android9BpRefBaseE"
  },
  {
   "name" : "_ZTTN7android9HeapCacheE"
  },
  {
   "binding" : "weak",
   "name" : "_ZTTNSt3__118basic_stringstreamIcNS_11char_traitsIcEENS_9allocatorIcEEEE"
  },
  {
   "name" : "_ZTVN7android10AllocationE"
  },
  {
   "name" : "_ZTVN7android10IInterfaceE"
  },
  {
   "name" : "_ZTVN7android10MemoryBaseE"
  },
  {
   "binding" : "weak",
   "name" : "_ZTVN7android10PoolThreadE"
  },
  {
   "name" : "_ZTVN7android10TextOutputE"
  },
  {
   "name" : "_ZTVN7android11IMemoryHeapE"
  },
  {
   "name" : "_ZTVN7android12BnMemoryHeapE"
  },
  {
   "name" : "_ZTVN7android12BpMemoryHeapE"
  },
  {
   "binding" : "weak",
   "name" : "_ZTVN7android12FdTextOutputE"
  },
  {
   "name" : "_ZTVN7android12MemoryDealerE"
  },
  {
   "name" : "_ZTVN7android12ProcessStateE"
  },
  {
   "binding" : "weak",
   "name" : "_ZTVN7android12SortedVectorINS_16key_value_pair_tINS_2wpINS_7IBinderEEENS_9HeapCache11heap_info_tEEEEE"
  },
  {
   "binding" : "weak",
   "name" : "_ZTVN7android12SortedVectorINS_16key_value_pair_tIPKvNS_8BpBinder13ObjectManager7entry_tEEEEE"
  },
  {
   "binding" : "weak",
   "name" : "_ZTVN7android13LogTextOutputE"
  },
  {
   "name" : "_ZTVN7android14IShellCallbackE"
  },
  {
   "name" : "_ZTVN7android14MemoryHeapBaseE"
  },
  {
   "name" : "_ZTVN7android15BnShellCallbackE"
  },
  {
   "binding" : "weak",
   "name" : "_ZTVN7android15BpShellCallbackE"
  },
  {
   "name" : "_ZTVN7android15IResultReceiverE"
  },
  {
   "name" : "_ZTVN7android15IServiceManagerE"
  },
  {
   "name" : "_ZTVN7android16BnResultReceiverE"
  },
  {
   "binding" : "weak",
   "name" : "_ZTVN7android16BpResultReceiverE"
  },
  {
   "binding" : "weak",
   "name" : "_ZTVN7android18BufferedTextOutput11BufferStateE"
  },
  {
   "name" : "_ZTVN7android18BufferedTextOutputE"
  },
  {
   "name" : "_ZTVN7android18ServiceManagerShimE"
  },
  {
   "name" : "_ZTVN7android2os15IClientCallbackE"
  },
  {
   "name" : "_ZTVN7android2os15IServiceManagerE"
  },
  {
   "name" : "_ZTVN7android2os16BnClientCallbackE"
  },
  {
   "name" : "_ZTVN7android2os16BnServiceManagerE"
  },
  {
   "name" : "_ZTVN7android2os16BpClientCallbackE"
  },
  {
   "name" : "_ZTVN7android2os16BpServiceManagerE"
  },
  {
   "name" : "_ZTVN7android2os16IServiceCallbackE"
  },
  {
   "name" : "_ZTVN7android2os17BnServiceCallbackE"
  },
  {
   "name" : "_ZTVN7android2os17BpServiceCallbackE"
  },
  {
   "name" : "_ZTVN7android2os17PersistableBundleE"
  },
  {
   "name" : "_ZTVN7android2os20ParcelFileDescriptorE"
  },
  {
   "binding" : "weak",
   "name" : "_ZTVN7android6VectorINS_12ProcessState12handle_entryEEE"
  },
  {
   "binding" : "weak",
   "name" : "_ZTVN7android6VectorINS_2spINS_18BufferedTextOutput11BufferStateEEEEE"
  },
  {
   "binding" : "weak",
   "name" : "_ZTVN7android6VectorINS_8BpBinder8ObituaryEEE"
  },
  {
   "binding" : "weak",
   "name" : "_ZTVN7android6VectorINS_8String16EEE"
  },
  {
   "binding" : "weak",
   "name" : "_ZTVN7android6VectorIPNS_7BBinderEEE"
  },
  {
   "binding" : "weak",
   "name" : "_ZTVN7android6VectorIPNS_7RefBase12weakref_typeEEE"
  },
  {
   "binding" : "weak",
   "name" : "_ZTVN7android6VectorIPNS_7RefBaseEEE"
  },
  {
   "binding" : "weak",
   "name" : "_ZTVN7android6VectorIiEE"
  },
  {
   "name" : "_ZTVN7android6binder8internal21ClientCounterCallbackE"
  },
  {
   "name" : "_ZTVN7android7BBinderE"
  },
  {
   "name" : "_ZTVN7android7IBinderE"
  },
  {
   "name" : "_ZTVN7android7IMemoryE"
  },
  {
   "name" : "_ZTVN7android7content2pm18PackageChangeEventE"
  },
  {
   "name" : "_ZTVN7android7content2pm21IPackageManagerNativeE"
  },
  {
   "name" : "_ZTVN7android7content2pm22BnPackageManagerNativeE"
  },
  {
   "name" : "_ZTVN7android7content2pm22BpPackageManagerNativeE"
  },
  {
   "name" : "_ZTVN7android7content2pm22IPackageChangeObserverE"
  },
  {
   "name" : "_ZTVN7android7content2pm23BnPackageChangeObserverE"
  },
  {
   "name" : "_ZTVN7android7content2pm23BpPackageChangeObserverE"
  },
  {
   "name" : "_ZTVN7android8BnMemoryE"
  },
  {
   "name" : "_ZTVN7android8BpBinderE"
  },
  {
   "name" : "_ZTVN7android8BpMemoryE"
  },
  {
   "name" : "_ZTVN7android9BpRefBaseE"
  },
  {
   "name" : "_ZTVN7android9HeapCacheE"
  },
  {
   "binding" : "weak",
   "name" : "_ZTVNSt3__115basic_stringbufIcNS_11char_traitsIcEENS_9allocatorIcEEEE"
  },
  {
   "binding" : "weak",
   "name" : "_ZTVNSt3__118basic_stringstreamIcNS_11char_traitsIcEENS_9allocatorIcEEEE"
  },
  {
   "binding" : "weak",
   "name" : "_ZTVNSt3__120__shared_ptr_emplaceIN7android6binder8internal21ClientCounterCallbackENS_9allocatorIS4_EEEE"
  },
  {
   "name" : "kDefaultDriver"
  }
 ],
 "enum_types" :
 [
  {
   "alignment" : 4,
   "enum_fields" :
   [
    {
     "enum_field_value" : -1,
     "name" : "SP_DEFAULT"
    },
    {
     "enum_field_value" : 0,
     "name" : "SP_BACKGROUND"
    },
    {
     "enum_field_value" : 1,
     "name" : "SP_FOREGROUND"
    },
    {
     "enum_field_value" : 2,
     "name" : "SP_SYSTEM"
    },
    {
     "enum_field_value" : 3,
     "name" : "SP_AUDIO_APP"
    },
    {
     "enum_field_value" : 4,
     "name" : "SP_AUDIO_SYS"
    },
    {
     "enum_field_value" : 5,
     "name" : "SP_TOP_APP"
    },
    {
     "enum_field_value" : 6,
     "name" : "SP_RT_APP"
    },
    {
     "enum_field_value" : 7,
     "name" : "SP_RESTRICTED"
    },
    {
     "enum_field_value" : 8,
     "name" : "SP_CNT"
    },
    {
     "enum_field_value" : 7,
     "name" : "SP_MAX"
    },
    {
     "enum_field_value" : 1,
     "name" : "SP_SYSTEM_DEFAULT"
    }
   ],
   "linker_set_key" : "_ZTI11SchedPolicy",
   "name" : "SchedPolicy",
   "referenced_type" : "_ZTI11SchedPolicy",
   "self_type" : "_ZTI11SchedPolicy",
   "size" : 4,
   "source_file" : "/system/core/libprocessgroup/include/processgroup/sched_policy.h",
   "underlying_type" : "_ZTIi"
  },
  {
   "alignment" : 4,
   "enum_fields" :
   [
    {
     "enum_field_value" : 1,
     "name" : "HAL_HDR_DOLBY_VISION"
    },
    {
     "enum_field_value" : 2,
     "name" : "HAL_HDR_HDR10"
    },
    {
     "enum_field_value" : 3,
     "name" : "HAL_HDR_HLG"
    }
   ],
   "linker_set_key" : "_ZTI13android_hdr_t",
   "name" : "android_hdr_t",
   "referenced_type" : "_ZTI13android_hdr_t",
   "self_type" : "_ZTI13android_hdr_t",
   "size" : 4,
   "source_file" : "/system/core/libsystem/include/system/graphics-base-v1.0.h",
   "underlying_type" : "_ZTIj"
  },
  {
   "alignment" : 4,
   "enum_fields" :
   [
    {
     "enum_field_value" : 4,
     "name" : "HAL_HDR_HDR10_PLUS"
    }
   ],
   "linker_set_key" : "_ZTI18android_hdr_v1_2_t",
   "name" : "android_hdr_v1_2_t",
   "referenced_type" : "_ZTI18android_hdr_v1_2_t",
   "self_type" : "_ZTI18android_hdr_v1_2_t",
   "size" : 4,
   "source_file" : "/system/core/libsystem/include/system/graphics-base-v1.2.h",
   "underlying_type" : "_ZTIj"
  },
  {
   "alignment" : 4,
   "enum_fields" :
   [
    {
     "enum_field_value" : 0,
     "name" : "ANDROID_LOG_UNKNOWN"
    },
    {
     "enum_field_value" : 1,
     "name" : "ANDROID_LOG_DEFAULT"
    },
    {
     "enum_field_value" : 2,
     "name" : "ANDROID_LOG_VERBOSE"
    },
    {
     "enum_field_value" : 3,
     "name" : "ANDROID_LOG_DEBUG"
    },
    {
     "enum_field_value" : 4,
     "name" : "ANDROID_LOG_INFO"
    },
    {
     "enum_field_value" : 5,
     "name" : "ANDROID_LOG_WARN"
    },
    {
     "enum_field_value" : 6,
     "name" : "ANDROID_LOG_ERROR"
    },
    {
     "enum_field_value" : 7,
     "name" : "ANDROID_LOG_FATAL"
    },
    {
     "enum_field_value" : 8,
     "name" : "ANDROID_LOG_SILENT"
    }
   ],
   "linker_set_key" : "_ZTI19android_LogPriority",
   "name" : "android_LogPriority",
   "referenced_type" : "_ZTI19android_LogPriority",
   "self_type" : "_ZTI19android_LogPriority",
   "size" : 4,
   "source_file" : "/system/core/liblog/include/android/log.h",
   "underlying_type" : "_ZTIj"
  },
  {
   "alignment" : 4,
   "enum_fields" :
   [
    {
     "enum_field_value" : 0,
     "name" : "HAL_DATASPACE_UNKNOWN"
    },
    {
     "enum_field_value" : 1,
     "name" : "HAL_DATASPACE_ARBITRARY"
    },
    {
     "enum_field_value" : 16,
     "name" : "HAL_DATASPACE_STANDARD_SHIFT"
    },
    {
     "enum_field_value" : 4128768,
     "name" : "HAL_DATASPACE_STANDARD_MASK"
    },
    {
     "enum_field_value" : 0,
     "name" : "HAL_DATASPACE_STANDARD_UNSPECIFIED"
    },
    {
     "enum_field_value" : 65536,
     "name" : "HAL_DATASPACE_STANDARD_BT709"
    },
    {
     "enum_field_value" : 131072,
     "name" : "HAL_DATASPACE_STANDARD_BT601_625"
    },
    {
     "enum_field_value" : 196608,
     "name" : "HAL_DATASPACE_STANDARD_BT601_625_UNADJUSTED"
    },
    {
     "enum_field_value" : 262144,
     "name" : "HAL_DATASPACE_STANDARD_BT601_525"
    },
    {
     "enum_field_value" : 327680,
     "name" : "HAL_DATASPACE_STANDARD_BT601_525_UNADJUSTED"
    },
    {
     "enum_field_value" : 393216,
     "name" : "HAL_DATASPACE_STANDARD_BT2020"
    },
    {
     "enum_field_value" : 458752,
     "name" : "HAL_DATASPACE_STANDARD_BT2020_CONSTANT_LUMINANCE"
    },
    {
     "enum_field_value" : 524288,
     "name" : "HAL_DATASPACE_STANDARD_BT470M"
    },
    {
     "enum_field_value" : 589824,
     "name" : "HAL_DATASPACE_STANDARD_FILM"
    },
    {
     "enum_field_value" : 655360,
     "name" : "HAL_DATASPACE_STANDARD_DCI_P3"
    },
    {
     "enum_field_value" : 720896,
     "name" : "HAL_DATASPACE_STANDARD_ADOBE_RGB"
    },
    {
     "enum_field_value" : 22,
     "name" : "HAL_DATASPACE_TRANSFER_SHIFT"
    },
    {
     "enum_field_value" : 130023424,
     "name" : "HAL_DATASPACE_TRANSFER_MASK"
    },
    {
     "enum_field_value" : 0,
     "name" : "HAL_DATASPACE_TRANSFER_UNSPECIFIED"
    },
    {
     "enum_field_value" : 4194304,
     "name" : "HAL_DATASPACE_TRANSFER_LINEAR"
    },
    {
     "enum_field_value" : 8388608,
     "name" : "HAL_DATASPACE_TRANSFER_SRGB"
    },
    {
     "enum_field_value" : 12582912,
     "name" : "HAL_DATASPACE_TRANSFER_SMPTE_170M"
    },
    {
     "enum_field_value" : 16777216,
     "name" : "HAL_DATASPACE_TRANSFER_GAMMA2_2"
    },
    {
     "enum_field_value" : 20971520,
     "name" : "HAL_DATASPACE_TRANSFER_GAMMA2_6"
    },
    {
     "enum_field_value" : 25165824,
     "name" : "HAL_DATASPACE_TRANSFER_GAMMA2_8"
    },
    {
     "enum_field_value" : 29360128,
     "name" : "HAL_DATASPACE_TRANSFER_ST2084"
    },
    {
     "enum_field_value" : 33554432,
     "name" : "HAL_DATASPACE_TRANSFER_HLG"
    },
    {
     "enum_field_value" : 27,
     "name" : "HAL_DATASPACE_RANGE_SHIFT"
    },
    {
     "enum_field_value" : 939524096,
     "name" : "HAL_DATASPACE_RANGE_MASK"
    },
    {
     "enum_field_value" : 0,
     "name" : "HAL_DATASPACE_RANGE_UNSPECIFIED"
    },
    {
     "enum_field_value" : 134217728,
     "name" : "HAL_DATASPACE_RANGE_FULL"
    },
    {
     "enum_field_value" : 268435456,
     "name" : "HAL_DATASPACE_RANGE_LIMITED"
    },
    {
     "enum_field_value" : 402653184,
     "name" : "HAL_DATASPACE_RANGE_EXTENDED"
    },
    {
     "enum_field_value" : 512,
     "name" : "HAL_DATASPACE_SRGB_LINEAR"
    },
    {
     "enum_field_value" : 138477568,
     "name" : "HAL_DATASPACE_V0_SRGB_LINEAR"
    },
    {
     "enum_field_value" : 406913024,
     "name" : "HAL_DATASPACE_V0_SCRGB_LINEAR"
    },
    {
     "enum_field_value" : 513,
     "name" : "HAL_DATASPACE_SRGB"
    },
    {
     "enum_field_value" : 142671872,
     "name" : "HAL_DATASPACE_V0_SRGB"
    },
    {
     "enum_field_value" : 411107328,
     "name" : "HAL_DATASPACE_V0_SCRGB"
    },
    {
     "enum_field_value" : 257,
     "name" : "HAL_DATASPACE_JFIF"
    },
    {
     "enum_field_value" : 146931712,
     "name" : "HAL_DATASPACE_V0_JFIF"
    },
    {
     "enum_field_value" : 258,
     "name" : "HAL_DATASPACE_BT601_625"
    },
    {
     "enum_field_value" : 281149440,
     "name" : "HAL_DATASPACE_V0_BT601_625"
    },
    {
     "enum_field_value" : 259,
     "name" : "HAL_DATASPACE_BT601_525"
    },
    {
     "enum_field_value" : 281280512,
     "name" : "HAL_DATASPACE_V0_BT601_525"
    },
    {
     "enum_field_value" : 260,
     "name" : "HAL_DATASPACE_BT709"
    },
    {
     "enum_field_value" : 281083904,
     "name" : "HAL_DATASPACE_V0_BT709"
    },
    {
     "enum_field_value" : 139067392,
     "name" : "HAL_DATASPACE_DCI_P3_LINEAR"
    },
    {
     "enum_field_value" : 155844608,
     "name" : "HAL_DATASPACE_DCI_P3"
    },
    {
     "enum_field_value" : 139067392,
     "name" : "HAL_DATASPACE_DISPLAY_P3_LINEAR"
    },
    {
     "enum_field_value" : 143261696,
     "name" : "HAL_DATASPACE_DISPLAY_P3"
    },
    {
     "enum_field_value" : 151715840,
     "name" : "HAL_DATASPACE_ADOBE_RGB"
    },
    {
     "enum_field_value" : 138805248,
     "name" : "HAL_DATASPACE_BT2020_LINEAR"
    },
    {
     "enum_field_value" : 147193856,
     "name" : "HAL_DATASPACE_BT2020"
    },
    {
     "enum_field_value" : 163971072,
     "name" : "HAL_DATASPACE_BT2020_PQ"
    },
    {
     "enum_field_value" : 4096,
     "name" : "HAL_DATASPACE_DEPTH"
    },
    {
     "enum_field_value" : 4097,
     "name" : "HAL_DATASPACE_SENSOR"
    }
   ],
   "linker_set_key" : "_ZTI19android_dataspace_t",
   "name" : "android_dataspace_t",
   "referenced_type" : "_ZTI19android_dataspace_t",
   "self_type" : "_ZTI19android_dataspace_t",
   "size" : 4,
   "source_file" : "/system/core/libsystem/include/system/graphics-base-v1.0.h",
   "underlying_type" : "_ZTIj"
  },
  {
   "alignment" : 4,
   "enum_fields" :
   [
    {
     "enum_field_value" : 0,
     "name" : "FLEX_FORMAT_INVALID"
    },
    {
     "enum_field_value" : 1,
     "name" : "FLEX_FORMAT_Y"
    },
    {
     "enum_field_value" : 7,
     "name" : "FLEX_FORMAT_YCbCr"
    },
    {
     "enum_field_value" : 1073741831,
     "name" : "FLEX_FORMAT_YCbCrA"
    },
    {
     "enum_field_value" : 7168,
     "name" : "FLEX_FORMAT_RGB"
    },
    {
     "enum_field_value" : 1073748992,
     "name" : "FLEX_FORMAT_RGBA"
    }
   ],
   "linker_set_key" : "_ZTI19android_flex_format",
   "name" : "android_flex_format",
   "referenced_type" : "_ZTI19android_flex_format",
   "self_type" : "_ZTI19android_flex_format",
   "size" : 4,
   "source_file" : "/system/core/libsystem/include/system/graphics.h",
   "underlying_type" : "_ZTIj"
  },
  {
   "alignment" : 4,
   "enum_fields" :
   [
    {
     "enum_field_value" : 1,
     "name" : "HAL_TRANSFORM_FLIP_H"
    },
    {
     "enum_field_value" : 2,
     "name" : "HAL_TRANSFORM_FLIP_V"
    },
    {
     "enum_field_value" : 4,
     "name" : "HAL_TRANSFORM_ROT_90"
    },
    {
     "enum_field_value" : 3,
     "name" : "HAL_TRANSFORM_ROT_180"
    },
    {
     "enum_field_value" : 7,
     "name" : "HAL_TRANSFORM_ROT_270"
    }
   ],
   "linker_set_key" : "_ZTI19android_transform_t",
   "name" : "android_transform_t",
   "referenced_type" : "_ZTI19android_transform_t",
   "self_type" : "_ZTI19android_transform_t",
   "size" : 4,
   "source_file" : "/system/core/libsystem/include/system/graphics-base-v1.0.h",
   "underlying_type" : "_ZTIj"
  },
  {
   "alignment" : 4,
   "enum_fields" :
   [
    {
     "enum_field_value" : 0,
     "name" : "HAL_COLOR_MODE_NATIVE"
    },
    {
     "enum_field_value" : 1,
     "name" : "HAL_COLOR_MODE_STANDARD_BT601_625"
    },
    {
     "enum_field_value" : 2,
     "name" : "HAL_COLOR_MODE_STANDARD_BT601_625_UNADJUSTED"
    },
    {
     "enum_field_value" : 3,
     "name" : "HAL_COLOR_MODE_STANDARD_BT601_525"
    },
    {
     "enum_field_value" : 4,
     "name" : "HAL_COLOR_MODE_STANDARD_BT601_525_UNADJUSTED"
    },
    {
     "enum_field_value" : 5,
     "name" : "HAL_COLOR_MODE_STANDARD_BT709"
    },
    {
     "enum_field_value" : 6,
     "name" : "HAL_COLOR_MODE_DCI_P3"
    },
    {
     "enum_field_value" : 7,
     "name" : "HAL_COLOR_MODE_SRGB"
    },
    {
     "enum_field_value" : 8,
     "name" : "HAL_COLOR_MODE_ADOBE_RGB"
    },
    {
     "enum_field_value" : 9,
     "name" : "HAL_COLOR_MODE_DISPLAY_P3"
    }
   ],
   "linker_set_key" : "_ZTI20android_color_mode_t",
   "name" : "android_color_mode_t",
   "referenced_type" : "_ZTI20android_color_mode_t",
   "self_type" : "_ZTI20android_color_mode_t",
   "size" : 4,
   "source_file" : "/system/core/libsystem/include/system/graphics-base-v1.0.h",
   "underlying_type" : "_ZTIj"
  },
  {
   "alignment" : 4,
   "enum_fields" :
   [
    {
     "enum_field_value" : 0,
     "name" : "SYSTEM_TIME_REALTIME"
    },
    {
     "enum_field_value" : 1,
     "name" : "SYSTEM_TIME_MONOTONIC"
    },
    {
     "enum_field_value" : 2,
     "name" : "SYSTEM_TIME_PROCESS"
    },
    {
     "enum_field_value" : 3,
     "name" : "SYSTEM_TIME_THREAD"
    },
    {
     "enum_field_value" : 4,
     "name" : "SYSTEM_TIME_BOOTTIME"
    }
   ],
   "linker_set_key" : "_ZTI21$SYSTEM_TIME_BOOTTIME",
   "name" : "(anonymous enum at system/core/libutils/include/utils/Timers.h:79:1)",
   "referenced_type" : "_ZTI21$SYSTEM_TIME_BOOTTIME",
   "self_type" : "_ZTI21$SYSTEM_TIME_BOOTTIME",
   "size" : 4,
   "source_file" : "/system/core/libutils/include/utils/Timers.h",
   "underlying_type" : "_ZTIj"
  },
  {
   "alignment" : 4,
   "enum_fields" :
   [
    {
     "enum_field_value" : 1,
     "name" : "FLEX_COMPONENT_Y"
    },
    {
     "enum_field_value" : 2,
     "name" : "FLEX_COMPONENT_Cb"
    },
    {
     "enum_field_value" : 4,
     "name" : "FLEX_COMPONENT_Cr"
    },
    {
     "enum_field_value" : 1024,
     "name" : "FLEX_COMPONENT_R"
    },
    {
     "enum_field_value" : 2048,
     "name" : "FLEX_COMPONENT_G"
    },
    {
     "enum_field_value" : 4096,
     "name" : "FLEX_COMPONENT_B"
    },
    {
     "enum_field_value" : 1073741824,
     "name" : "FLEX_COMPONENT_A"
    }
   ],
   "linker_set_key" : "_ZTI22android_flex_component",
   "name" : "android_flex_component",
   "referenced_type" : "_ZTI22android_flex_component",
   "self_type" : "_ZTI22android_flex_component",
   "size" : 4,
   "source_file" : "/system/core/libsystem/include/system/graphics.h",
   "underlying_type" : "_ZTIj"
  },
  {
   "alignment" : 4,
   "enum_fields" :
   [
    {
     "enum_field_value" : 1,
     "name" : "HAL_PIXEL_FORMAT_RGBA_8888"
    },
    {
     "enum_field_value" : 2,
     "name" : "HAL_PIXEL_FORMAT_RGBX_8888"
    },
    {
     "enum_field_value" : 3,
     "name" : "HAL_PIXEL_FORMAT_RGB_888"
    },
    {
     "enum_field_value" : 4,
     "name" : "HAL_PIXEL_FORMAT_RGB_565"
    },
    {
     "enum_field_value" : 5,
     "name" : "HAL_PIXEL_FORMAT_BGRA_8888"
    },
    {
     "enum_field_value" : 16,
     "name" : "HAL_PIXEL_FORMAT_YCBCR_422_SP"
    },
    {
     "enum_field_value" : 17,
     "name" : "HAL_PIXEL_FORMAT_YCRCB_420_SP"
    },
    {
     "enum_field_value" : 20,
     "name" : "HAL_PIXEL_FORMAT_YCBCR_422_I"
    },
    {
     "enum_field_value" : 22,
     "name" : "HAL_PIXEL_FORMAT_RGBA_FP16"
    },
    {
     "enum_field_value" : 32,
     "name" : "HAL_PIXEL_FORMAT_RAW16"
    },
    {
     "enum_field_value" : 33,
     "name" : "HAL_PIXEL_FORMAT_BLOB"
    },
    {
     "enum_field_value" : 34,
     "name" : "HAL_PIXEL_FORMAT_IMPLEMENTATION_DEFINED"
    },
    {
     "enum_field_value" : 35,
     "name" : "HAL_PIXEL_FORMAT_YCBCR_420_888"
    },
    {
     "enum_field_value" : 36,
     "name" : "HAL_PIXEL_FORMAT_RAW_OPAQUE"
    },
    {
     "enum_field_value" : 37,
     "name" : "HAL_PIXEL_FORMAT_RAW10"
    },
    {
     "enum_field_value" : 38,
     "name" : "HAL_PIXEL_FORMAT_RAW12"
    },
    {
     "enum_field_value" : 43,
     "name" : "HAL_PIXEL_FORMAT_RGBA_1010102"
    },
    {
     "enum_field_value" : 538982489,
     "name" : "HAL_PIXEL_FORMAT_Y8"
    },
    {
     "enum_field_value" : 540422489,
     "name" : "HAL_PIXEL_FORMAT_Y16"
    },
    {
     "enum_field_value" : 842094169,
     "name" : "HAL_PIXEL_FORMAT_YV12"
    }
   ],
   "linker_set_key" : "_ZTI22android_pixel_format_t",
   "name" : "android_pixel_format_t",
   "referenced_type" : "_ZTI22android_pixel_format_t",
   "self_type" : "_ZTI22android_pixel_format_t",
   "size" : 4,
   "source_file" : "/system/core/libsystem/include/system/graphics-base-v1.0.h",
   "underlying_type" : "_ZTIj"
  },
  {
   "alignment" : 4,
   "enum_fields" :
   [
    {
     "enum_field_value" : 19,
     "name" : "ANDROID_PRIORITY_LOWEST"
    },
    {
     "enum_field_value" : 10,
     "name" : "ANDROID_PRIORITY_BACKGROUND"
    },
    {
     "enum_field_value" : 0,
     "name" : "ANDROID_PRIORITY_NORMAL"
    },
    {
     "enum_field_value" : -2,
     "name" : "ANDROID_PRIORITY_FOREGROUND"
    },
    {
     "enum_field_value" : -4,
     "name" : "ANDROID_PRIORITY_DISPLAY"
    },
    {
     "enum_field_value" : -8,
     "name" : "ANDROID_PRIORITY_URGENT_DISPLAY"
    },
    {
     "enum_field_value" : -10,
     "name" : "ANDROID_PRIORITY_VIDEO"
    },
    {
     "enum_field_value" : -16,
     "name" : "ANDROID_PRIORITY_AUDIO"
    },
    {
     "enum_field_value" : -19,
     "name" : "ANDROID_PRIORITY_URGENT_AUDIO"
    },
    {
     "enum_field_value" : -20,
     "name" : "ANDROID_PRIORITY_HIGHEST"
    },
    {
     "enum_field_value" : 0,
     "name" : "ANDROID_PRIORITY_DEFAULT"
    },
    {
     "enum_field_value" : -1,
     "name" : "ANDROID_PRIORITY_MORE_FAVORABLE"
    },
    {
     "enum_field_value" : 1,
     "name" : "ANDROID_PRIORITY_LESS_FAVORABLE"
    }
   ],
   "linker_set_key" : "_ZTI23$ANDROID_PRIORITY_AUDIO",
   "name" : "(anonymous enum at system/core/libsystem/include/system/thread_defs.h:26:1)",
   "referenced_type" : "_ZTI23$ANDROID_PRIORITY_AUDIO",
   "self_type" : "_ZTI23$ANDROID_PRIORITY_AUDIO",
   "size" : 4,
   "source_file" : "/system/core/libsystem/include/system/thread_defs.h",
   "underlying_type" : "_ZTIi"
  },
  {
   "alignment" : 4,
   "enum_fields" :
   [
    {
     "enum_field_value" : 281411584,
     "name" : "HAL_DATASPACE_BT2020_ITU"
    },
    {
     "enum_field_value" : 298188800,
     "name" : "HAL_DATASPACE_BT2020_ITU_PQ"
    },
    {
     "enum_field_value" : 302383104,
     "name" : "HAL_DATASPACE_BT2020_ITU_HLG"
    },
    {
     "enum_field_value" : 168165376,
     "name" : "HAL_DATASPACE_BT2020_HLG"
    }
   ],
   "linker_set_key" : "_ZTI24android_dataspace_v1_1_t",
   "name" : "android_dataspace_v1_1_t",
   "referenced_type" : "_ZTI24android_dataspace_v1_1_t",
   "self_type" : "_ZTI24android_dataspace_v1_1_t",
   "size" : 4,
   "source_file" : "/system/core/libsystem/include/system/graphics-base-v1.1.h",
   "underlying_type" : "_ZTIj"
  },
  {
   "alignment" : 4,
   "enum_fields" :
   [
    {
     "enum_field_value" : 142999552,
     "name" : "HAL_DATASPACE_DISPLAY_BT2020"
    },
    {
     "enum_field_value" : 4098,
     "name" : "HAL_DATASPACE_DYNAMIC_DEPTH"
    },
    {
     "enum_field_value" : 4099,
     "name" : "HAL_DATASPACE_JPEG_APP_SEGMENTS"
    },
    {
     "enum_field_value" : 4100,
     "name" : "HAL_DATASPACE_HEIF"
    }
   ],
   "linker_set_key" : "_ZTI24android_dataspace_v1_2_t",
   "name" : "android_dataspace_v1_2_t",
   "referenced_type" : "_ZTI24android_dataspace_v1_2_t",
   "self_type" : "_ZTI24android_dataspace_v1_2_t",
   "size" : 4,
   "source_file" : "/system/core/libsystem/include/system/graphics-base-v1.2.h",
   "underlying_type" : "_ZTIj"
  },
  {
   "alignment" : 4,
   "enum_fields" :
   [
    {
     "enum_field_value" : 10,
     "name" : "HAL_COLOR_MODE_BT2020"
    },
    {
     "enum_field_value" : 11,
     "name" : "HAL_COLOR_MODE_BT2100_PQ"
    },
    {
     "enum_field_value" : 12,
     "name" : "HAL_COLOR_MODE_BT2100_HLG"
    }
   ],
   "linker_set_key" : "_ZTI25android_color_mode_v1_1_t",
   "name" : "android_color_mode_v1_1_t",
   "referenced_type" : "_ZTI25android_color_mode_v1_1_t",
   "self_type" : "_ZTI25android_color_mode_v1_1_t",
   "size" : 4,
   "source_file" : "/system/core/libsystem/include/system/graphics-base-v1.1.h",
   "underlying_type" : "_ZTIj"
  },
  {
   "alignment" : 4,
   "enum_fields" :
   [
    {
     "enum_field_value" : 0,
     "name" : "HAL_COLOR_TRANSFORM_IDENTITY"
    },
    {
     "enum_field_value" : 1,
     "name" : "HAL_COLOR_TRANSFORM_ARBITRARY_MATRIX"
    },
    {
     "enum_field_value" : 2,
     "name" : "HAL_COLOR_TRANSFORM_VALUE_INVERSE"
    },
    {
     "enum_field_value" : 3,
     "name" : "HAL_COLOR_TRANSFORM_GRAYSCALE"
    },
    {
     "enum_field_value" : 4,
     "name" : "HAL_COLOR_TRANSFORM_CORRECT_PROTANOPIA"
    },
    {
     "enum_field_value" : 5,
     "name" : "HAL_COLOR_TRANSFORM_CORRECT_DEUTERANOPIA"
    },
    {
     "enum_field_value" : 6,
     "name" : "HAL_COLOR_TRANSFORM_CORRECT_TRITANOPIA"
    }
   ],
   "linker_set_key" : "_ZTI25android_color_transform_t",
   "name" : "android_color_transform_t",
   "referenced_type" : "_ZTI25android_color_transform_t",
   "self_type" : "_ZTI25android_color_transform_t",
   "size" : 4,
   "source_file" : "/system/core/libsystem/include/system/graphics-base-v1.0.h",
   "underlying_type" : "_ZTIj"
  },
  {
   "alignment" : 4,
   "enum_fields" :
   [
    {
     "enum_field_value" : 39,
     "name" : "HAL_PIXEL_FORMAT_YCBCR_422_888"
    },
    {
     "enum_field_value" : 40,
     "name" : "HAL_PIXEL_FORMAT_YCBCR_444_888"
    },
    {
     "enum_field_value" : 41,
     "name" : "HAL_PIXEL_FORMAT_FLEX_RGB_888"
    },
    {
     "enum_field_value" : 42,
     "name" : "HAL_PIXEL_FORMAT_FLEX_RGBA_8888"
    }
   ],
   "linker_set_key" : "_ZTI25android_pixel_format_sw_t",
   "name" : "android_pixel_format_sw_t",
   "referenced_type" : "_ZTI25android_pixel_format_sw_t",
   "self_type" : "_ZTI25android_pixel_format_sw_t",
   "size" : 4,
   "source_file" : "/system/core/libsystem/include/system/graphics-sw.h",
   "underlying_type" : "_ZTIj"
  },
  {
   "alignment" : 4,
   "enum_fields" :
   [
    {
     "enum_field_value" : 48,
     "name" : "HAL_PIXEL_FORMAT_DEPTH_16"
    },
    {
     "enum_field_value" : 49,
     "name" : "HAL_PIXEL_FORMAT_DEPTH_24"
    },
    {
     "enum_field_value" : 50,
     "name" : "HAL_PIXEL_FORMAT_DEPTH_24_STENCIL_8"
    },
    {
     "enum_field_value" : 51,
     "name" : "HAL_PIXEL_FORMAT_DEPTH_32F"
    },
    {
     "enum_field_value" : 52,
     "name" : "HAL_PIXEL_FORMAT_DEPTH_32F_STENCIL_8"
    },
    {
     "enum_field_value" : 53,
     "name" : "HAL_PIXEL_FORMAT_STENCIL_8"
    },
    {
     "enum_field_value" : 54,
     "name" : "HAL_PIXEL_FORMAT_YCBCR_P010"
    }
   ],
   "linker_set_key" : "_ZTI27android_pixel_format_v1_1_t",
   "name" : "android_pixel_format_v1_1_t",
   "referenced_type" : "_ZTI27android_pixel_format_v1_1_t",
   "self_type" : "_ZTI27android_pixel_format_v1_1_t",
   "size" : 4,
   "source_file" : "/system/core/libsystem/include/system/graphics-base-v1.1.h",
   "underlying_type" : "_ZTIj"
  },
  {
   "alignment" : 4,
   "enum_fields" :
   [
    {
     "enum_field_value" : 55,
     "name" : "HAL_PIXEL_FORMAT_HSV_888"
    }
   ],
   "linker_set_key" : "_ZTI27android_pixel_format_v1_2_t",
   "name" : "android_pixel_format_v1_2_t",
   "referenced_type" : "_ZTI27android_pixel_format_v1_2_t",
   "self_type" : "_ZTI27android_pixel_format_v1_2_t",
   "size" : 4,
   "source_file" : "/system/core/libsystem/include/system/graphics-base-v1.2.h",
   "underlying_type" : "_ZTIj"
  },
  {
   "alignment" : 4,
   "enum_fields" :
   [
    {
     "enum_field_value" : 0,
     "name" : "HAL_RENDER_INTENT_COLORIMETRIC"
    },
    {
     "enum_field_value" : 1,
     "name" : "HAL_RENDER_INTENT_ENHANCE"
    },
    {
     "enum_field_value" : 2,
     "name" : "HAL_RENDER_INTENT_TONE_MAP_COLORIMETRIC"
    },
    {
     "enum_field_value" : 3,
     "name" : "HAL_RENDER_INTENT_TONE_MAP_ENHANCE"
    }
   ],
   "linker_set_key" : "_ZTI28android_render_intent_v1_1_t",
   "name" : "android_render_intent_v1_1_t",
   "referenced_type" : "_ZTI28android_render_intent_v1_1_t",
   "self_type" : "_ZTI28android_render_intent_v1_1_t",
   "size" : 4,
   "source_file" : "/system/core/libsystem/include/system/graphics-base-v1.1.h",
   "underlying_type" : "_ZTIj"
  },
  {
   "alignment" : 4,
   "enum_fields" :
   [
    {
     "enum_field_value" : 0,
     "name" : "LOG_ID_MIN"
    },
    {
     "enum_field_value" : 0,
     "name" : "LOG_ID_MAIN"
    },
    {
     "enum_field_value" : 1,
     "name" : "LOG_ID_RADIO"
    },
    {
     "enum_field_value" : 2,
     "name" : "LOG_ID_EVENTS"
    },
    {
     "enum_field_value" : 3,
     "name" : "LOG_ID_SYSTEM"
    },
    {
     "enum_field_value" : 4,
     "name" : "LOG_ID_CRASH"
    },
    {
     "enum_field_value" : 5,
     "name" : "LOG_ID_STATS"
    },
    {
     "enum_field_value" : 6,
     "name" : "LOG_ID_SECURITY"
    },
    {
     "enum_field_value" : 7,
     "name" : "LOG_ID_KERNEL"
    },
    {
     "enum_field_value" : 8,
     "name" : "LOG_ID_MAX"
    },
    {
     "enum_field_value" : 2147483647,
     "name" : "LOG_ID_DEFAULT"
    }
   ],
   "linker_set_key" : "_ZTI6log_id",
   "name" : "log_id",
   "referenced_type" : "_ZTI6log_id",
   "self_type" : "_ZTI6log_id",
   "size" : 4,
   "source_file" : "/system/core/liblog/include/android/log.h",
   "underlying_type" : "_ZTIj"
  },
  {
   "alignment" : 4,
   "enum_fields" :
   [
    {
     "enum_field_value" : 1,
     "name" : "android::VectorImpl::HAS_TRIVIAL_CTOR"
    },
    {
     "enum_field_value" : 2,
     "name" : "android::VectorImpl::HAS_TRIVIAL_DTOR"
    },
    {
     "enum_field_value" : 4,
     "name" : "android::VectorImpl::HAS_TRIVIAL_COPY"
    }
   ],
   "linker_set_key" : "_ZTIN7android10VectorImpl17$HAS_TRIVIAL_COPYE",
   "name" : "android::VectorImpl::(anonymous enum at system/core/libutils/include/utils/VectorImpl.h:43:5)",
   "referenced_type" : "_ZTIN7android10VectorImpl17$HAS_TRIVIAL_COPYE",
   "self_type" : "_ZTIN7android10VectorImpl17$HAS_TRIVIAL_COPYE",
   "size" : 4,
   "source_file" : "/system/core/libutils/include/utils/VectorImpl.h",
   "underlying_type" : "_ZTIj"
  },
  {
   "alignment" : 4,
   "enum_fields" :
   [
    {
     "enum_field_value" : 1,
     "name" : "android::IMemoryHeap::READ_ONLY"
    }
   ],
   "linker_set_key" : "_ZTIN7android11IMemoryHeap10$READ_ONLYE",
   "name" : "android::IMemoryHeap::(anonymous enum at frameworks/native/libs/binder/include/binder/IMemory.h:38:5)",
   "referenced_type" : "_ZTIN7android11IMemoryHeap10$READ_ONLYE",
   "self_type" : "_ZTIN7android11IMemoryHeap10$READ_ONLYE",
   "size" : 4,
   "source_file" : "/frameworks/native/libs/binder/include/binder/IMemory.h",
   "underlying_type" : "_ZTIj"
  },
  {
   "alignment" : 4,
   "enum_fields" :
   [
    {
     "enum_field_value" : 0,
     "name" : "android::ProcessState::CallRestriction::NONE"
    },
    {
     "enum_field_value" : 1,
     "name" : "android::ProcessState::CallRestriction::ERROR_IF_NOT_ONEWAY"
    },
    {
     "enum_field_value" : 2,
     "name" : "android::ProcessState::CallRestriction::FATAL_IF_NOT_ONEWAY"
    }
   ],
   "linker_set_key" : "_ZTIN7android12ProcessState15CallRestrictionE",
   "name" : "android::ProcessState::CallRestriction",
   "referenced_type" : "_ZTIN7android12ProcessState15CallRestrictionE",
   "self_type" : "_ZTIN7android12ProcessState15CallRestrictionE",
   "size" : 4,
   "source_file" : "/frameworks/native/libs/binder/include/binder/ProcessState.h",
   "underlying_type" : "_ZTIi"
  },
  {
   "alignment" : 4,
   "enum_fields" :
   [
    {
     "enum_field_value" : 0,
     "name" : "android::trait_pointer<android::ProcessState::handle_entry>::value"
    }
   ],
   "linker_set_key" : "_ZTIN7android13trait_pointerINS_12ProcessState12handle_entryEE6$valueE",
   "name" : "android::trait_pointer<handle_entry>::(anonymous enum at system/core/libutils/include/utils/TypeHelpers.h:39:51)",
   "referenced_type" : "_ZTIN7android13trait_pointerINS_12ProcessState12handle_entryEE6$valueE",
   "self_type" : "_ZTIN7android13trait_pointerINS_12ProcessState12handle_entryEE6$valueE",
   "size" : 4,
   "source_file" : "/system/core/libutils/include/utils/TypeHelpers.h",
   "underlying_type" : "_ZTIj"
  },
  {
   "alignment" : 4,
   "enum_fields" :
   [
    {
     "enum_field_value" : 0,
     "name" : "android::trait_pointer<android::key_value_pair_t<android::wp<android::IBinder>, android::HeapCache::heap_info_t> >::value"
    }
   ],
   "linker_set_key" : "_ZTIN7android13trait_pointerINS_16key_value_pair_tINS_2wpINS_7IBinderEEENS_9HeapCache11heap_info_tEEEE6$valueE",
   "name" : "android::trait_pointer<key_value_pair_t<wp<IBinder>, heap_info_t> >::(anonymous enum at system/core/libutils/include/utils/TypeHelpers.h:39:51)",
   "referenced_type" : "_ZTIN7android13trait_pointerINS_16key_value_pair_tINS_2wpINS_7IBinderEEENS_9HeapCache11heap_info_tEEEE6$valueE",
   "self_type" : "_ZTIN7android13trait_pointerINS_16key_value_pair_tINS_2wpINS_7IBinderEEENS_9HeapCache11heap_info_tEEEE6$valueE",
   "size" : 4,
   "source_file" : "/system/core/libutils/include/utils/TypeHelpers.h",
   "underlying_type" : "_ZTIj"
  },
  {
   "alignment" : 4,
   "enum_fields" :
   [
    {
     "enum_field_value" : 0,
     "name" : "android::trait_pointer<android::key_value_pair_t<const void *, android::BpBinder::ObjectManager::entry_t> >::value"
    }
   ],
   "linker_set_key" : "_ZTIN7android13trait_pointerINS_16key_value_pair_tIPKvNS_8BpBinder13ObjectManager7entry_tEEEE6$valueE",
   "name" : "android::trait_pointer<key_value_pair_t<const void *, entry_t> >::(anonymous enum at system/core/libutils/include/utils/TypeHelpers.h:39:51)",
   "referenced_type" : "_ZTIN7android13trait_pointerINS_16key_value_pair_tIPKvNS_8BpBinder13ObjectManager7entry_tEEEE6$valueE",
   "self_type" : "_ZTIN7android13trait_pointerINS_16key_value_pair_tIPKvNS_8BpBinder13ObjectManager7entry_tEEEE6$valueE",
   "size" : 4,
   "source_file" : "/system/core/libutils/include/utils/TypeHelpers.h",
   "underlying_type" : "_ZTIj"
  },
  {
   "alignment" : 4,
   "enum_fields" :
   [
    {
     "enum_field_value" : 0,
     "name" : "android::trait_pointer<android::sp<android::BufferedTextOutput::BufferState> >::value"
    }
   ],
   "linker_set_key" : "_ZTIN7android13trait_pointerINS_2spINS_18BufferedTextOutput11BufferStateEEEE6$valueE",
   "name" : "android::trait_pointer<sp<BufferState> >::(anonymous enum at system/core/libutils/include/utils/TypeHelpers.h:39:51)",
   "referenced_type" : "_ZTIN7android13trait_pointerINS_2spINS_18BufferedTextOutput11BufferStateEEEE6$valueE",
   "self_type" : "_ZTIN7android13trait_pointerINS_2spINS_18BufferedTextOutput11BufferStateEEEE6$valueE",
   "size" : 4,
   "source_file" : "/system/core/libutils/include/utils/TypeHelpers.h",
   "underlying_type" : "_ZTIj"
  },
  {
   "alignment" : 4,
   "enum_fields" :
   [
    {
     "enum_field_value" : 0,
     "name" : "android::trait_pointer<android::wp<android::IBinder> >::value"
    }
   ],
   "linker_set_key" : "_ZTIN7android13trait_pointerINS_2wpINS_7IBinderEEEE6$valueE",
   "name" : "android::trait_pointer<wp<IBinder> >::(anonymous enum at system/core/libutils/include/utils/TypeHelpers.h:39:51)",
   "referenced_type" : "_ZTIN7android13trait_pointerINS_2wpINS_7IBinderEEEE6$valueE",
   "self_type" : "_ZTIN7android13trait_pointerINS_2wpINS_7IBinderEEEE6$valueE",
   "size" : 4,
   "source_file" : "/system/core/libutils/include/utils/TypeHelpers.h",
   "underlying_type" : "_ZTIj"
  },
  {
   "alignment" : 4,
   "enum_fields" :
   [
    {
     "enum_field_value" : 0,
     "name" : "android::trait_pointer<android::BpBinder::ObjectManager::entry_t>::value"
    }
   ],
   "linker_set_key" : "_ZTIN7android13trait_pointerINS_8BpBinder13ObjectManager7entry_tEE6$valueE",
   "name" : "android::trait_pointer<entry_t>::(anonymous enum at system/core/libutils/include/utils/TypeHelpers.h:39:51)",
   "referenced_type" : "_ZTIN7android13trait_pointerINS_8BpBinder13ObjectManager7entry_tEE6$valueE",
   "self_type" : "_ZTIN7android13trait_pointerINS_8BpBinder13ObjectManager7entry_tEE6$valueE",
   "size" : 4,
   "source_file" : "/system/core/libutils/include/utils/TypeHelpers.h",
   "underlying_type" : "_ZTIj"
  },
  {
   "alignment" : 4,
   "enum_fields" :
   [
    {
     "enum_field_value" : 0,
     "name" : "android::trait_pointer<android::BpBinder::Obituary>::value"
    }
   ],
   "linker_set_key" : "_ZTIN7android13trait_pointerINS_8BpBinder8ObituaryEE6$valueE",
   "name" : "android::trait_pointer<Obituary>::(anonymous enum at system/core/libutils/include/utils/TypeHelpers.h:39:51)",
   "referenced_type" : "_ZTIN7android13trait_pointerINS_8BpBinder8ObituaryEE6$valueE",
   "self_type" : "_ZTIN7android13trait_pointerINS_8BpBinder8ObituaryEE6$valueE",
   "size" : 4,
   "source_file" : "/system/core/libutils/include/utils/TypeHelpers.h",
   "underlying_type" : "_ZTIj"
  },
  {
   "alignment" : 4,
   "enum_fields" :
   [
    {
     "enum_field_value" : 0,
     "name" : "android::trait_pointer<android::String16>::value"
    }
   ],
   "linker_set_key" : "_ZTIN7android13trait_pointerINS_8String16EE6$valueE",
   "name" : "android::trait_pointer<String16>::(anonymous enum at system/core/libutils/include/utils/TypeHelpers.h:39:51)",
   "referenced_type" : "_ZTIN7android13trait_pointerINS_8String16EE6$valueE",
   "self_type" : "_ZTIN7android13trait_pointerINS_8String16EE6$valueE",
   "size" : 4,
   "source_file" : "/system/core/libutils/include/utils/TypeHelpers.h",
   "underlying_type" : "_ZTIj"
  },
  {
   "alignment" : 4,
   "enum_fields" :
   [
    {
     "enum_field_value" : 0,
     "name" : "android::trait_pointer<android::HeapCache::heap_info_t>::value"
    }
   ],
   "linker_set_key" : "_ZTIN7android13trait_pointerINS_9HeapCache11heap_info_tEE6$valueE",
   "name" : "android::trait_pointer<heap_info_t>::(anonymous enum at system/core/libutils/include/utils/TypeHelpers.h:39:51)",
   "referenced_type" : "_ZTIN7android13trait_pointerINS_9HeapCache11heap_info_tEE6$valueE",
   "self_type" : "_ZTIN7android13trait_pointerINS_9HeapCache11heap_info_tEE6$valueE",
   "size" : 4,
   "source_file" : "/system/core/libutils/include/utils/TypeHelpers.h",
   "underlying_type" : "_ZTIj"
  },
  {
   "alignment" : 4,
   "enum_fields" :
   [
    {
     "enum_field_value" : 1,
     "name" : "android::trait_pointer<const void *>::value"
    }
   ],
   "linker_set_key" : "_ZTIN7android13trait_pointerIPKvE6$valueE",
   "name" : "android::trait_pointer<const void *>::(anonymous enum at system/core/libutils/include/utils/TypeHelpers.h:40:51)",
   "referenced_type" : "_ZTIN7android13trait_pointerIPKvE6$valueE",
   "self_type" : "_ZTIN7android13trait_pointerIPKvE6$valueE",
   "size" : 4,
   "source_file" : "/system/core/libutils/include/utils/TypeHelpers.h",
   "underlying_type" : "_ZTIj"
  },
  {
   "alignment" : 4,
   "enum_fields" :
   [
    {
     "enum_field_value" : 1,
     "name" : "android::trait_pointer<android::BBinder *>::value"
    }
   ],
   "linker_set_key" : "_ZTIN7android13trait_pointerIPNS_7BBinderEE6$valueE",
   "name" : "android::trait_pointer<BBinder *>::(anonymous enum at system/core/libutils/include/utils/TypeHelpers.h:40:51)",
   "referenced_type" : "_ZTIN7android13trait_pointerIPNS_7BBinderEE6$valueE",
   "self_type" : "_ZTIN7android13trait_pointerIPNS_7BBinderEE6$valueE",
   "size" : 4,
   "source_file" : "/system/core/libutils/include/utils/TypeHelpers.h",
   "underlying_type" : "_ZTIj"
  },
  {
   "alignment" : 4,
   "enum_fields" :
   [
    {
     "enum_field_value" : 1,
     "name" : "android::trait_pointer<android::RefBase::weakref_type *>::value"
    }
   ],
   "linker_set_key" : "_ZTIN7android13trait_pointerIPNS_7RefBase12weakref_typeEE6$valueE",
   "name" : "android::trait_pointer<weakref_type *>::(anonymous enum at system/core/libutils/include/utils/TypeHelpers.h:40:51)",
   "referenced_type" : "_ZTIN7android13trait_pointerIPNS_7RefBase12weakref_typeEE6$valueE",
   "self_type" : "_ZTIN7android13trait_pointerIPNS_7RefBase12weakref_typeEE6$valueE",
   "size" : 4,
   "source_file" : "/system/core/libutils/include/utils/TypeHelpers.h",
   "underlying_type" : "_ZTIj"
  },
  {
   "alignment" : 4,
   "enum_fields" :
   [
    {
     "enum_field_value" : 1,
     "name" : "android::trait_pointer<android::RefBase *>::value"
    }
   ],
   "linker_set_key" : "_ZTIN7android13trait_pointerIPNS_7RefBaseEE6$valueE",
   "name" : "android::trait_pointer<RefBase *>::(anonymous enum at system/core/libutils/include/utils/TypeHelpers.h:40:51)",
   "referenced_type" : "_ZTIN7android13trait_pointerIPNS_7RefBaseEE6$valueE",
   "self_type" : "_ZTIN7android13trait_pointerIPNS_7RefBaseEE6$valueE",
   "size" : 4,
   "source_file" : "/system/core/libutils/include/utils/TypeHelpers.h",
   "underlying_type" : "_ZTIj"
  },
  {
   "alignment" : 4,
   "enum_fields" :
   [
    {
     "enum_field_value" : 0,
     "name" : "android::trait_pointer<int>::value"
    }
   ],
   "linker_set_key" : "_ZTIN7android13trait_pointerIiE6$valueE",
   "name" : "android::trait_pointer<int>::(anonymous enum at system/core/libutils/include/utils/TypeHelpers.h:39:51)",
   "referenced_type" : "_ZTIN7android13trait_pointerIiE6$valueE",
   "self_type" : "_ZTIN7android13trait_pointerIiE6$valueE",
   "size" : 4,
   "source_file" : "/system/core/libutils/include/utils/TypeHelpers.h",
   "underlying_type" : "_ZTIj"
  },
  {
   "alignment" : 4,
   "enum_fields" :
   [
    {
     "enum_field_value" : 1,
     "name" : "android::IShellCallback::OP_OPEN_OUTPUT_FILE"
    }
   ],
   "linker_set_key" : "_ZTIN7android14IShellCallback20$OP_OPEN_OUTPUT_FILEE",
   "name" : "android::IShellCallback::(anonymous enum at frameworks/native/libs/binder/include/binder/IShellCallback.h:35:5)",
   "referenced_type" : "_ZTIN7android14IShellCallback20$OP_OPEN_OUTPUT_FILEE",
   "self_type" : "_ZTIN7android14IShellCallback20$OP_OPEN_OUTPUT_FILEE",
   "size" : 4,
   "source_file" : "/frameworks/native/libs/binder/include/binder/IShellCallback.h",
   "underlying_type" : "_ZTIj"
  },
  {
   "alignment" : 4,
   "enum_fields" :
   [
    {
     "enum_field_value" : 1,
     "name" : "android::MemoryHeapBase::READ_ONLY"
    },
    {
     "enum_field_value" : 256,
     "name" : "android::MemoryHeapBase::DONT_MAP_LOCALLY"
    },
    {
     "enum_field_value" : 512,
     "name" : "android::MemoryHeapBase::NO_CACHING"
    }
   ],
   "linker_set_key" : "_ZTIN7android14MemoryHeapBase17$DONT_MAP_LOCALLYE",
   "name" : "android::MemoryHeapBase::(anonymous enum at frameworks/native/libs/binder/include/binder/MemoryHeapBase.h:33:5)",
   "referenced_type" : "_ZTIN7android14MemoryHeapBase17$DONT_MAP_LOCALLYE",
   "self_type" : "_ZTIN7android14MemoryHeapBase17$DONT_MAP_LOCALLYE",
   "size" : 4,
   "source_file" : "/frameworks/native/libs/binder/include/binder/MemoryHeapBase.h",
   "underlying_type" : "_ZTIj"
  },
  {
   "alignment" : 4,
   "enum_fields" :
   [
    {
     "enum_field_value" : 0,
     "name" : "android::OK"
    },
    {
     "enum_field_value" : 0,
     "name" : "android::NO_ERROR"
    },
    {
     "enum_field_value" : -2147483648,
     "name" : "android::UNKNOWN_ERROR"
    },
    {
     "enum_field_value" : -12,
     "name" : "android::NO_MEMORY"
    },
    {
     "enum_field_value" : -38,
     "name" : "android::INVALID_OPERATION"
    },
    {
     "enum_field_value" : -22,
     "name" : "android::BAD_VALUE"
    },
    {
     "enum_field_value" : -2147483647,
     "name" : "android::BAD_TYPE"
    },
    {
     "enum_field_value" : -2,
     "name" : "android::NAME_NOT_FOUND"
    },
    {
     "enum_field_value" : -1,
     "name" : "android::PERMISSION_DENIED"
    },
    {
     "enum_field_value" : -19,
     "name" : "android::NO_INIT"
    },
    {
     "enum_field_value" : -17,
     "name" : "android::ALREADY_EXISTS"
    },
    {
     "enum_field_value" : -32,
     "name" : "android::DEAD_OBJECT"
    },
    {
     "enum_field_value" : -2147483646,
     "name" : "android::FAILED_TRANSACTION"
    },
    {
     "enum_field_value" : -75,
     "name" : "android::BAD_INDEX"
    },
    {
     "enum_field_value" : -61,
     "name" : "android::NOT_ENOUGH_DATA"
    },
    {
     "enum_field_value" : -11,
     "name" : "android::WOULD_BLOCK"
    },
    {
     "enum_field_value" : -110,
     "name" : "android::TIMED_OUT"
    },
    {
     "enum_field_value" : -74,
     "name" : "android::UNKNOWN_TRANSACTION"
    },
    {
     "enum_field_value" : -2147483641,
     "name" : "android::FDS_NOT_ALLOWED"
    },
    {
     "enum_field_value" : -2147483640,
     "name" : "android::UNEXPECTED_NULL"
    }
   ],
   "linker_set_key" : "_ZTIN7android15$ALREADY_EXISTSE",
   "name" : "android::(anonymous enum at system/core/libutils/include/utils/Errors.h:43:1)",
   "referenced_type" : "_ZTIN7android15$ALREADY_EXISTSE",
   "self_type" : "_ZTIN7android15$ALREADY_EXISTSE",
   "size" : 4,
   "source_file" : "/system/core/libutils/include/utils/Errors.h",
   "underlying_type" : "_ZTIi"
  },
  {
   "alignment" : 4,
   "enum_fields" :
   [
    {
     "enum_field_value" : 19,
     "name" : "android::PRIORITY_LOWEST"
    },
    {
     "enum_field_value" : 10,
     "name" : "android::PRIORITY_BACKGROUND"
    },
    {
     "enum_field_value" : 0,
     "name" : "android::PRIORITY_NORMAL"
    },
    {
     "enum_field_value" : -2,
     "name" : "android::PRIORITY_FOREGROUND"
    },
    {
     "enum_field_value" : -4,
     "name" : "android::PRIORITY_DISPLAY"
    },
    {
     "enum_field_value" : -8,
     "name" : "android::PRIORITY_URGENT_DISPLAY"
    },
    {
     "enum_field_value" : -16,
     "name" : "android::PRIORITY_AUDIO"
    },
    {
     "enum_field_value" : -19,
     "name" : "android::PRIORITY_URGENT_AUDIO"
    },
    {
     "enum_field_value" : -20,
     "name" : "android::PRIORITY_HIGHEST"
    },
    {
     "enum_field_value" : 0,
     "name" : "android::PRIORITY_DEFAULT"
    },
    {
     "enum_field_value" : -1,
     "name" : "android::PRIORITY_MORE_FAVORABLE"
    },
    {
     "enum_field_value" : 1,
     "name" : "android::PRIORITY_LESS_FAVORABLE"
    }
   ],
   "linker_set_key" : "_ZTIN7android15$PRIORITY_AUDIOE",
   "name" : "android::(anonymous enum at system/core/libutils/include/utils/ThreadDefs.h:53:1)",
   "referenced_type" : "_ZTIN7android15$PRIORITY_AUDIOE",
   "self_type" : "_ZTIN7android15$PRIORITY_AUDIOE",
   "size" : 4,
   "source_file" : "/system/core/libutils/include/utils/ThreadDefs.h",
   "underlying_type" : "_ZTIi"
  },
  {
   "alignment" : 4,
   "enum_fields" :
   [
    {
     "enum_field_value" : 1,
     "name" : "android::IResultReceiver::OP_SEND"
    }
   ],
   "linker_set_key" : "_ZTIN7android15IResultReceiver8$OP_SENDE",
   "name" : "android::IResultReceiver::(anonymous enum at frameworks/native/libs/binder/include/binder/IResultReceiver.h:34:5)",
   "referenced_type" : "_ZTIN7android15IResultReceiver8$OP_SENDE",
   "self_type" : "_ZTIN7android15IResultReceiver8$OP_SENDE",
   "size" : 4,
   "source_file" : "/frameworks/native/libs/binder/include/binder/IResultReceiver.h",
   "underlying_type" : "_ZTIj"
  },
  {
   "alignment" : 4,
   "enum_fields" :
   [
    {
     "enum_field_value" : 0,
     "name" : "android::aggregate_traits<android::wp<android::IBinder>, android::HeapCache::heap_info_t>::is_pointer"
    },
    {
     "enum_field_value" : 0,
     "name" : "android::aggregate_traits<android::wp<android::IBinder>, android::HeapCache::heap_info_t>::has_trivial_ctor"
    },
    {
     "enum_field_value" : 0,
     "name" : "android::aggregate_traits<android::wp<android::IBinder>, android::HeapCache::heap_info_t>::has_trivial_dtor"
    },
    {
     "enum_field_value" : 0,
     "name" : "android::aggregate_traits<android::wp<android::IBinder>, android::HeapCache::heap_info_t>::has_trivial_copy"
    },
    {
     "enum_field_value" : 0,
     "name" : "android::aggregate_traits<android::wp<android::IBinder>, android::HeapCache::heap_info_t>::has_trivial_move"
    }
   ],
   "linker_set_key" : "_ZTIN7android16aggregate_traitsINS_2wpINS_7IBinderEEENS_9HeapCache11heap_info_tEE17$has_trivial_copyE",
   "name" : "android::aggregate_traits<wp<IBinder>, heap_info_t>::(anonymous enum at system/core/libutils/include/utils/TypeHelpers.h:60:5)",
   "referenced_type" : "_ZTIN7android16aggregate_traitsINS_2wpINS_7IBinderEEENS_9HeapCache11heap_info_tEE17$has_trivial_copyE",
   "self_type" : "_ZTIN7android16aggregate_traitsINS_2wpINS_7IBinderEEENS_9HeapCache11heap_info_tEE17$has_trivial_copyE",
   "size" : 4,
   "source_file" : "/system/core/libutils/include/utils/TypeHelpers.h",
   "underlying_type" : "_ZTIj"
  },
  {
   "alignment" : 4,
   "enum_fields" :
   [
    {
     "enum_field_value" : 0,
     "name" : "android::aggregate_traits<const void *, android::BpBinder::ObjectManager::entry_t>::is_pointer"
    },
    {
     "enum_field_value" : 0,
     "name" : "android::aggregate_traits<const void *, android::BpBinder::ObjectManager::entry_t>::has_trivial_ctor"
    },
    {
     "enum_field_value" : 0,
     "name" : "android::aggregate_traits<const void *, android::BpBinder::ObjectManager::entry_t>::has_trivial_dtor"
    },
    {
     "enum_field_value" : 0,
     "name" : "android::aggregate_traits<const void *, android::BpBinder::ObjectManager::entry_t>::has_trivial_copy"
    },
    {
     "enum_field_value" : 0,
     "name" : "android::aggregate_traits<const void *, android::BpBinder::ObjectManager::entry_t>::has_trivial_move"
    }
   ],
   "linker_set_key" : "_ZTIN7android16aggregate_traitsIPKvNS_8BpBinder13ObjectManager7entry_tEE17$has_trivial_copyE",
   "name" : "android::aggregate_traits<const void *, entry_t>::(anonymous enum at system/core/libutils/include/utils/TypeHelpers.h:60:5)",
   "referenced_type" : "_ZTIN7android16aggregate_traitsIPKvNS_8BpBinder13ObjectManager7entry_tEE17$has_trivial_copyE",
   "self_type" : "_ZTIN7android16aggregate_traitsIPKvNS_8BpBinder13ObjectManager7entry_tEE17$has_trivial_copyE",
   "size" : 4,
   "source_file" : "/system/core/libutils/include/utils/TypeHelpers.h",
   "underlying_type" : "_ZTIj"
  },
  {
   "alignment" : 4,
   "enum_fields" :
   [
    {
     "enum_field_value" : 0,
     "name" : "android::trait_trivial_copy<android::ProcessState::handle_entry>::value"
    }
   ],
   "linker_set_key" : "_ZTIN7android18trait_trivial_copyINS_12ProcessState12handle_entryEE6$valueE",
   "name" : "android::trait_trivial_copy<handle_entry>::(anonymous enum at system/core/libutils/include/utils/TypeHelpers.h:37:51)",
   "referenced_type" : "_ZTIN7android18trait_trivial_copyINS_12ProcessState12handle_entryEE6$valueE",
   "self_type" : "_ZTIN7android18trait_trivial_copyINS_12ProcessState12handle_entryEE6$valueE",
   "size" : 4,
   "source_file" : "/system/core/libutils/include/utils/TypeHelpers.h",
   "underlying_type" : "_ZTIj"
  },
  {
   "alignment" : 4,
   "enum_fields" :
   [
    {
     "enum_field_value" : 0,
     "name" : "android::trait_trivial_copy<android::key_value_pair_t<android::wp<android::IBinder>, android::HeapCache::heap_info_t> >::value"
    }
   ],
   "linker_set_key" : "_ZTIN7android18trait_trivial_copyINS_16key_value_pair_tINS_2wpINS_7IBinderEEENS_9HeapCache11heap_info_tEEEE6$valueE",
   "name" : "android::trait_trivial_copy<key_value_pair_t<wp<IBinder>, heap_info_t> >::(anonymous enum at system/core/libutils/include/utils/TypeHelpers.h:287:3)",
   "referenced_type" : "_ZTIN7android18trait_trivial_copyINS_16key_value_pair_tINS_2wpINS_7IBinderEEENS_9HeapCache11heap_info_tEEEE6$valueE",
   "self_type" : "_ZTIN7android18trait_trivial_copyINS_16key_value_pair_tINS_2wpINS_7IBinderEEENS_9HeapCache11heap_info_tEEEE6$valueE",
   "size" : 4,
   "source_file" : "/system/core/libutils/include/utils/TypeHelpers.h",
   "underlying_type" : "_ZTIj"
  },
  {
   "alignment" : 4,
   "enum_fields" :
   [
    {
     "enum_field_value" : 0,
     "name" : "android::trait_trivial_copy<android::key_value_pair_t<const void *, android::BpBinder::ObjectManager::entry_t> >::value"
    }
   ],
   "linker_set_key" : "_ZTIN7android18trait_trivial_copyINS_16key_value_pair_tIPKvNS_8BpBinder13ObjectManager7entry_tEEEE6$valueE",
   "name" : "android::trait_trivial_copy<key_value_pair_t<const void *, entry_t> >::(anonymous enum at system/core/libutils/include/utils/TypeHelpers.h:287:3)",
   "referenced_type" : "_ZTIN7android18trait_trivial_copyINS_16key_value_pair_tIPKvNS_8BpBinder13ObjectManager7entry_tEEEE6$valueE",
   "self_type" : "_ZTIN7android18trait_trivial_copyINS_16key_value_pair_tIPKvNS_8BpBinder13ObjectManager7entry_tEEEE6$valueE",
   "size" : 4,
   "source_file" : "/system/core/libutils/include/utils/TypeHelpers.h",
   "underlying_type" : "_ZTIj"
  },
  {
   "alignment" : 4,
   "enum_fields" :
   [
    {
     "enum_field_value" : 0,
     "name" : "android::trait_trivial_copy<android::sp<android::BufferedTextOutput::BufferState> >::value"
    }
   ],
   "linker_set_key" : "_ZTIN7android18trait_trivial_copyINS_2spINS_18BufferedTextOutput11BufferStateEEEE6$valueE",
   "name" : "android::trait_trivial_copy<sp<BufferState> >::(anonymous enum at system/core/libutils/include/utils/TypeHelpers.h:37:51)",
   "referenced_type" : "_ZTIN7android18trait_trivial_copyINS_2spINS_18BufferedTextOutput11BufferStateEEEE6$valueE",
   "self_type" : "_ZTIN7android18trait_trivial_copyINS_2spINS_18BufferedTextOutput11BufferStateEEEE6$valueE",
   "size" : 4,
   "source_file" : "/system/core/libutils/include/utils/TypeHelpers.h",
   "underlying_type" : "_ZTIj"
  },
  {
   "alignment" : 4,
   "enum_fields" :
   [
    {
     "enum_field_value" : 0,
     "name" : "android::trait_trivial_copy<android::wp<android::IBinder> >::value"
    }
   ],
   "linker_set_key" : "_ZTIN7android18trait_trivial_copyINS_2wpINS_7IBinderEEEE6$valueE",
   "name" : "android::trait_trivial_copy<wp<IBinder> >::(anonymous enum at system/core/libutils/include/utils/TypeHelpers.h:37:51)",
   "referenced_type" : "_ZTIN7android18trait_trivial_copyINS_2wpINS_7IBinderEEEE6$valueE",
   "self_type" : "_ZTIN7android18trait_trivial_copyINS_2wpINS_7IBinderEEEE6$valueE",
   "size" : 4,
   "source_file" : "/system/core/libutils/include/utils/TypeHelpers.h",
   "underlying_type" : "_ZTIj"
  },
  {
   "alignment" : 4,
   "enum_fields" :
   [
    {
     "enum_field_value" : 0,
     "name" : "android::trait_trivial_copy<android::BpBinder::ObjectManager::entry_t>::value"
    }
   ],
   "linker_set_key" : "_ZTIN7android18trait_trivial_copyINS_8BpBinder13ObjectManager7entry_tEE6$valueE",
   "name" : "android::trait_trivial_copy<entry_t>::(anonymous enum at system/core/libutils/include/utils/TypeHelpers.h:37:51)",
   "referenced_type" : "_ZTIN7android18trait_trivial_copyINS_8BpBinder13ObjectManager7entry_tEE6$valueE",
   "self_type" : "_ZTIN7android18trait_trivial_copyINS_8BpBinder13ObjectManager7entry_tEE6$valueE",
   "size" : 4,
   "source_file" : "/system/core/libutils/include/utils/TypeHelpers.h",
   "underlying_type" : "_ZTIj"
  },
  {
   "alignment" : 4,
   "enum_fields" :
   [
    {
     "enum_field_value" : 0,
     "name" : "android::trait_trivial_copy<android::BpBinder::Obituary>::value"
    }
   ],
   "linker_set_key" : "_ZTIN7android18trait_trivial_copyINS_8BpBinder8ObituaryEE6$valueE",
   "name" : "android::trait_trivial_copy<Obituary>::(anonymous enum at system/core/libutils/include/utils/TypeHelpers.h:37:51)",
   "referenced_type" : "_ZTIN7android18trait_trivial_copyINS_8BpBinder8ObituaryEE6$valueE",
   "self_type" : "_ZTIN7android18trait_trivial_copyINS_8BpBinder8ObituaryEE6$valueE",
   "size" : 4,
   "source_file" : "/system/core/libutils/include/utils/TypeHelpers.h",
   "underlying_type" : "_ZTIj"
  },
  {
   "alignment" : 4,
   "enum_fields" :
   [
    {
     "enum_field_value" : 0,
     "name" : "android::trait_trivial_copy<android::String16>::value"
    }
   ],
   "linker_set_key" : "_ZTIN7android18trait_trivial_copyINS_8String16EE6$valueE",
   "name" : "android::trait_trivial_copy<String16>::(anonymous enum at system/core/libutils/include/utils/TypeHelpers.h:37:51)",
   "referenced_type" : "_ZTIN7android18trait_trivial_copyINS_8String16EE6$valueE",
   "self_type" : "_ZTIN7android18trait_trivial_copyINS_8String16EE6$valueE",
   "size" : 4,
   "source_file" : "/system/core/libutils/include/utils/TypeHelpers.h",
   "underlying_type" : "_ZTIj"
  },
  {
   "alignment" : 4,
   "enum_fields" :
   [
    {
     "enum_field_value" : 0,
     "name" : "android::trait_trivial_copy<android::HeapCache::heap_info_t>::value"
    }
   ],
   "linker_set_key" : "_ZTIN7android18trait_trivial_copyINS_9HeapCache11heap_info_tEE6$valueE",
   "name" : "android::trait_trivial_copy<heap_info_t>::(anonymous enum at system/core/libutils/include/utils/TypeHelpers.h:37:51)",
   "referenced_type" : "_ZTIN7android18trait_trivial_copyINS_9HeapCache11heap_info_tEE6$valueE",
   "self_type" : "_ZTIN7android18trait_trivial_copyINS_9HeapCache11heap_info_tEE6$valueE",
   "size" : 4,
   "source_file" : "/system/core/libutils/include/utils/TypeHelpers.h",
   "underlying_type" : "_ZTIj"
  },
  {
   "alignment" : 4,
   "enum_fields" :
   [
    {
     "enum_field_value" : 0,
     "name" : "android::trait_trivial_copy<const void *>::value"
    }
   ],
   "linker_set_key" : "_ZTIN7android18trait_trivial_copyIPKvE6$valueE",
   "name" : "android::trait_trivial_copy<const void *>::(anonymous enum at system/core/libutils/include/utils/TypeHelpers.h:37:51)",
   "referenced_type" : "_ZTIN7android18trait_trivial_copyIPKvE6$valueE",
   "self_type" : "_ZTIN7android18trait_trivial_copyIPKvE6$valueE",
   "size" : 4,
   "source_file" : "/system/core/libutils/include/utils/TypeHelpers.h",
   "underlying_type" : "_ZTIj"
  },
  {
   "alignment" : 4,
   "enum_fields" :
   [
    {
     "enum_field_value" : 0,
     "name" : "android::trait_trivial_copy<android::BBinder *>::value"
    }
   ],
   "linker_set_key" : "_ZTIN7android18trait_trivial_copyIPNS_7BBinderEE6$valueE",
   "name" : "android::trait_trivial_copy<BBinder *>::(anonymous enum at system/core/libutils/include/utils/TypeHelpers.h:37:51)",
   "referenced_type" : "_ZTIN7android18trait_trivial_copyIPNS_7BBinderEE6$valueE",
   "self_type" : "_ZTIN7android18trait_trivial_copyIPNS_7BBinderEE6$valueE",
   "size" : 4,
   "source_file" : "/system/core/libutils/include/utils/TypeHelpers.h",
   "underlying_type" : "_ZTIj"
  },
  {
   "alignment" : 4,
   "enum_fields" :
   [
    {
     "enum_field_value" : 0,
     "name" : "android::trait_trivial_copy<android::RefBase::weakref_type *>::value"
    }
   ],
   "linker_set_key" : "_ZTIN7android18trait_trivial_copyIPNS_7RefBase12weakref_typeEE6$valueE",
   "name" : "android::trait_trivial_copy<weakref_type *>::(anonymous enum at system/core/libutils/include/utils/TypeHelpers.h:37:51)",
   "referenced_type" : "_ZTIN7android18trait_trivial_copyIPNS_7RefBase12weakref_typeEE6$valueE",
   "self_type" : "_ZTIN7android18trait_trivial_copyIPNS_7RefBase12weakref_typeEE6$valueE",
   "size" : 4,
   "source_file" : "/system/core/libutils/include/utils/TypeHelpers.h",
   "underlying_type" : "_ZTIj"
  },
  {
   "alignment" : 4,
   "enum_fields" :
   [
    {
     "enum_field_value" : 0,
     "name" : "android::trait_trivial_copy<android::RefBase *>::value"
    }
   ],
   "linker_set_key" : "_ZTIN7android18trait_trivial_copyIPNS_7RefBaseEE6$valueE",
   "name" : "android::trait_trivial_copy<RefBase *>::(anonymous enum at system/core/libutils/include/utils/TypeHelpers.h:37:51)",
   "referenced_type" : "_ZTIN7android18trait_trivial_copyIPNS_7RefBaseEE6$valueE",
   "self_type" : "_ZTIN7android18trait_trivial_copyIPNS_7RefBaseEE6$valueE",
   "size" : 4,
   "source_file" : "/system/core/libutils/include/utils/TypeHelpers.h",
   "underlying_type" : "_ZTIj"
  },
  {
   "alignment" : 4,
   "enum_fields" :
   [
    {
     "enum_field_value" : 1,
     "name" : "android::trait_trivial_copy<bool>::value"
    }
   ],
   "linker_set_key" : "_ZTIN7android18trait_trivial_copyIbE6$valueE",
   "name" : "android::trait_trivial_copy<bool>::(anonymous enum at system/core/libutils/include/utils/TypeHelpers.h:98:1)",
   "referenced_type" : "_ZTIN7android18trait_trivial_copyIbE6$valueE",
   "self_type" : "_ZTIN7android18trait_trivial_copyIbE6$valueE",
   "size" : 4,
   "source_file" : "/system/core/libutils/include/utils/TypeHelpers.h",
   "underlying_type" : "_ZTIj"
  },
  {
   "alignment" : 4,
   "enum_fields" :
   [
    {
     "enum_field_value" : 1,
     "name" : "android::trait_trivial_copy<char>::value"
    }
   ],
   "linker_set_key" : "_ZTIN7android18trait_trivial_copyIcE6$valueE",
   "name" : "android::trait_trivial_copy<char>::(anonymous enum at system/core/libutils/include/utils/TypeHelpers.h:99:1)",
   "referenced_type" : "_ZTIN7android18trait_trivial_copyIcE6$valueE",
   "self_type" : "_ZTIN7android18trait_trivial_copyIcE6$valueE",
   "size" : 4,
   "source_file" : "/system/core/libutils/include/utils/TypeHelpers.h",
   "underlying_type" : "_ZTIj"
  },
  {
   "alignment" : 4,
   "enum_fields" :
   [
    {
     "enum_field_value" : 1,
     "name" : "android::trait_trivial_copy<double>::value"
    }
   ],
   "linker_set_key" : "_ZTIN7android18trait_trivial_copyIdE6$valueE",
   "name" : "android::trait_trivial_copy<double>::(anonymous enum at system/core/libutils/include/utils/TypeHelpers.h:110:1)",
   "referenced_type" : "_ZTIN7android18trait_trivial_copyIdE6$valueE",
   "self_type" : "_ZTIN7android18trait_trivial_copyIdE6$valueE",
   "size" : 4,
   "source_file" : "/system/core/libutils/include/utils/TypeHelpers.h",
   "underlying_type" : "_ZTIj"
  },
  {
   "alignment" : 4,
   "enum_fields" :
   [
    {
     "enum_field_value" : 1,
     "name" : "android::trait_trivial_copy<float>::value"
    }
   ],
   "linker_set_key" : "_ZTIN7android18trait_trivial_copyIfE6$valueE",
   "name" : "android::trait_trivial_copy<float>::(anonymous enum at system/core/libutils/include/utils/TypeHelpers.h:109:1)",
   "referenced_type" : "_ZTIN7android18trait_trivial_copyIfE6$valueE",
   "self_type" : "_ZTIN7android18trait_trivial_copyIfE6$valueE",
   "size" : 4,
   "source_file" : "/system/core/libutils/include/utils/TypeHelpers.h",
   "underlying_type" : "_ZTIj"
  },
  {
   "alignment" : 4,
   "enum_fields" :
   [
    {
     "enum_field_value" : 1,
     "name" : "android::trait_trivial_copy<unsigned char>::value"
    }
   ],
   "linker_set_key" : "_ZTIN7android18trait_trivial_copyIhE6$valueE",
   "name" : "android::trait_trivial_copy<unsigned char>::(anonymous enum at system/core/libutils/include/utils/TypeHelpers.h:100:1)",
   "referenced_type" : "_ZTIN7android18trait_trivial_copyIhE6$valueE",
   "self_type" : "_ZTIN7android18trait_trivial_copyIhE6$valueE",
   "size" : 4,
   "source_file" : "/system/core/libutils/include/utils/TypeHelpers.h",
   "underlying_type" : "_ZTIj"
  },
  {
   "alignment" : 4,
   "enum_fields" :
   [
    {
     "enum_field_value" : 1,
     "name" : "android::trait_trivial_copy<int>::value"
    }
   ],
   "linker_set_key" : "_ZTIN7android18trait_trivial_copyIiE6$valueE",
   "name" : "android::trait_trivial_copy<int>::(anonymous enum at system/core/libutils/include/utils/TypeHelpers.h:103:1)",
   "referenced_type" : "_ZTIN7android18trait_trivial_copyIiE6$valueE",
   "self_type" : "_ZTIN7android18trait_trivial_copyIiE6$valueE",
   "size" : 4,
   "source_file" : "/system/core/libutils/include/utils/TypeHelpers.h",
   "underlying_type" : "_ZTIj"
  },
  {
   "alignment" : 4,
   "enum_fields" :
   [
    {
     "enum_field_value" : 1,
     "name" : "android::trait_trivial_copy<unsigned int>::value"
    }
   ],
   "linker_set_key" : "_ZTIN7android18trait_trivial_copyIjE6$valueE",
   "name" : "android::trait_trivial_copy<unsigned int>::(anonymous enum at system/core/libutils/include/utils/TypeHelpers.h:104:1)",
   "referenced_type" : "_ZTIN7android18trait_trivial_copyIjE6$valueE",
   "self_type" : "_ZTIN7android18trait_trivial_copyIjE6$valueE",
   "size" : 4,
   "source_file" : "/system/core/libutils/include/utils/TypeHelpers.h",
   "underlying_type" : "_ZTIj"
  },
  {
   "alignment" : 4,
   "enum_fields" :
   [
    {
     "enum_field_value" : 1,
     "name" : "android::trait_trivial_copy<long>::value"
    }
   ],
   "linker_set_key" : "_ZTIN7android18trait_trivial_copyIlE6$valueE",
   "name" : "android::trait_trivial_copy<long>::(anonymous enum at system/core/libutils/include/utils/TypeHelpers.h:105:1)",
   "referenced_type" : "_ZTIN7android18trait_trivial_copyIlE6$valueE",
   "self_type" : "_ZTIN7android18trait_trivial_copyIlE6$valueE",
   "size" : 4,
   "source_file" : "/system/core/libutils/include/utils/TypeHelpers.h",
   "underlying_type" : "_ZTIj"
  },
  {
   "alignment" : 4,
   "enum_fields" :
   [
    {
     "enum_field_value" : 1,
     "name" : "android::trait_trivial_copy<unsigned long>::value"
    }
   ],
   "linker_set_key" : "_ZTIN7android18trait_trivial_copyImE6$valueE",
   "name" : "android::trait_trivial_copy<unsigned long>::(anonymous enum at system/core/libutils/include/utils/TypeHelpers.h:106:1)",
   "referenced_type" : "_ZTIN7android18trait_trivial_copyImE6$valueE",
   "self_type" : "_ZTIN7android18trait_trivial_copyImE6$valueE",
   "size" : 4,
   "source_file" : "/system/core/libutils/include/utils/TypeHelpers.h",
   "underlying_type" : "_ZTIj"
  },
  {
   "alignment" : 4,
   "enum_fields" :
   [
    {
     "enum_field_value" : 1,
     "name" : "android::trait_trivial_copy<short>::value"
    }
   ],
   "linker_set_key" : "_ZTIN7android18trait_trivial_copyIsE6$valueE",
   "name" : "android::trait_trivial_copy<short>::(anonymous enum at system/core/libutils/include/utils/TypeHelpers.h:101:1)",
   "referenced_type" : "_ZTIN7android18trait_trivial_copyIsE6$valueE",
   "self_type" : "_ZTIN7android18trait_trivial_copyIsE6$valueE",
   "size" : 4,
   "source_file" : "/system/core/libutils/include/utils/TypeHelpers.h",
   "underlying_type" : "_ZTIj"
  },
  {
   "alignment" : 4,
   "enum_fields" :
   [
    {
     "enum_field_value" : 1,
     "name" : "android::trait_trivial_copy<unsigned short>::value"
    }
   ],
   "linker_set_key" : "_ZTIN7android18trait_trivial_copyItE6$valueE",
   "name" : "android::trait_trivial_copy<unsigned short>::(anonymous enum at system/core/libutils/include/utils/TypeHelpers.h:102:1)",
   "referenced_type" : "_ZTIN7android18trait_trivial_copyItE6$valueE",
   "self_type" : "_ZTIN7android18trait_trivial_copyItE6$valueE",
   "size" : 4,
   "source_file" : "/system/core/libutils/include/utils/TypeHelpers.h",
   "underlying_type" : "_ZTIj"
  },
  {
   "alignment" : 4,
   "enum_fields" :
   [
    {
     "enum_field_value" : 1,
     "name" : "android::trait_trivial_copy<void>::value"
    }
   ],
   "linker_set_key" : "_ZTIN7android18trait_trivial_copyIvE6$valueE",
   "name" : "android::trait_trivial_copy<void>::(anonymous enum at system/core/libutils/include/utils/TypeHelpers.h:97:1)",
   "referenced_type" : "_ZTIN7android18trait_trivial_copyIvE6$valueE",
   "self_type" : "_ZTIN7android18trait_trivial_copyIvE6$valueE",
   "size" : 4,
   "source_file" : "/system/core/libutils/include/utils/TypeHelpers.h",
   "underlying_type" : "_ZTIj"
  },
  {
   "alignment" : 4,
   "enum_fields" :
   [
    {
     "enum_field_value" : 1,
     "name" : "android::trait_trivial_copy<long long>::value"
    }
   ],
   "linker_set_key" : "_ZTIN7android18trait_trivial_copyIxE6$valueE",
   "name" : "android::trait_trivial_copy<long long>::(anonymous enum at system/core/libutils/include/utils/TypeHelpers.h:107:1)",
   "referenced_type" : "_ZTIN7android18trait_trivial_copyIxE6$valueE",
   "self_type" : "_ZTIN7android18trait_trivial_copyIxE6$valueE",
   "size" : 4,
   "source_file" : "/system/core/libutils/include/utils/TypeHelpers.h",
   "underlying_type" : "_ZTIj"
  },
  {
   "alignment" : 4,
   "enum_fields" :
   [
    {
     "enum_field_value" : 1,
     "name" : "android::trait_trivial_copy<unsigned long long>::value"
    }
   ],
   "linker_set_key" : "_ZTIN7android18trait_trivial_copyIyE6$valueE",
   "name" : "android::trait_trivial_copy<unsigned long long>::(anonymous enum at system/core/libutils/include/utils/TypeHelpers.h:108:1)",
   "referenced_type" : "_ZTIN7android18trait_trivial_copyIyE6$valueE",
   "self_type" : "_ZTIN7android18trait_trivial_copyIyE6$valueE",
   "size" : 4,
   "source_file" : "/system/core/libutils/include/utils/TypeHelpers.h",
   "underlying_type" : "_ZTIj"
  },
  {
   "alignment" : 4,
   "enum_fields" :
   [
    {
     "enum_field_value" : 0,
     "name" : "android::trait_trivial_ctor<android::ProcessState::handle_entry>::value"
    }
   ],
   "linker_set_key" : "_ZTIN7android18trait_trivial_ctorINS_12ProcessState12handle_entryEE6$valueE",
   "name" : "android::trait_trivial_ctor<handle_entry>::(anonymous enum at system/core/libutils/include/utils/TypeHelpers.h:35:51)",
   "referenced_type" : "_ZTIN7android18trait_trivial_ctorINS_12ProcessState12handle_entryEE6$valueE",
   "self_type" : "_ZTIN7android18trait_trivial_ctorINS_12ProcessState12handle_entryEE6$valueE",
   "size" : 4,
   "source_file" : "/system/core/libutils/include/utils/TypeHelpers.h",
   "underlying_type" : "_ZTIj"
  },
  {
   "alignment" : 4,
   "enum_fields" :
   [
    {
     "enum_field_value" : 0,
     "name" : "android::trait_trivial_ctor<android::key_value_pair_t<android::wp<android::IBinder>, android::HeapCache::heap_info_t> >::value"
    }
   ],
   "linker_set_key" : "_ZTIN7android18trait_trivial_ctorINS_16key_value_pair_tINS_2wpINS_7IBinderEEENS_9HeapCache11heap_info_tEEEE6$valueE",
   "name" : "android::trait_trivial_ctor<key_value_pair_t<wp<IBinder>, heap_info_t> >::(anonymous enum at system/core/libutils/include/utils/TypeHelpers.h:281:3)",
   "referenced_type" : "_ZTIN7android18trait_trivial_ctorINS_16key_value_pair_tINS_2wpINS_7IBinderEEENS_9HeapCache11heap_info_tEEEE6$valueE",
   "self_type" : "_ZTIN7android18trait_trivial_ctorINS_16key_value_pair_tINS_2wpINS_7IBinderEEENS_9HeapCache11heap_info_tEEEE6$valueE",
   "size" : 4,
   "source_file" : "/system/core/libutils/include/utils/TypeHelpers.h",
   "underlying_type" : "_ZTIj"
  },
  {
   "alignment" : 4,
   "enum_fields" :
   [
    {
     "enum_field_value" : 0,
     "name" : "android::trait_trivial_ctor<android::key_value_pair_t<const void *, android::BpBinder::ObjectManager::entry_t> >::value"
    }
   ],
   "linker_set_key" : "_ZTIN7android18trait_trivial_ctorINS_16key_value_pair_tIPKvNS_8BpBinder13ObjectManager7entry_tEEEE6$valueE",
   "name" : "android::trait_trivial_ctor<key_value_pair_t<const void *, entry_t> >::(anonymous enum at system/core/libutils/include/utils/TypeHelpers.h:281:3)",
   "referenced_type" : "_ZTIN7android18trait_trivial_ctorINS_16key_value_pair_tIPKvNS_8BpBinder13ObjectManager7entry_tEEEE6$valueE",
   "self_type" : "_ZTIN7android18trait_trivial_ctorINS_16key_value_pair_tIPKvNS_8BpBinder13ObjectManager7entry_tEEEE6$valueE",
   "size" : 4,
   "source_file" : "/system/core/libutils/include/utils/TypeHelpers.h",
   "underlying_type" : "_ZTIj"
  },
  {
   "alignment" : 4,
   "enum_fields" :
   [
    {
     "enum_field_value" : 0,
     "name" : "android::trait_trivial_ctor<android::sp<android::BufferedTextOutput::BufferState> >::value"
    }
   ],
   "linker_set_key" : "_ZTIN7android18trait_trivial_ctorINS_2spINS_18BufferedTextOutput11BufferStateEEEE6$valueE",
   "name" : "android::trait_trivial_ctor<sp<BufferState> >::(anonymous enum at system/core/libutils/include/utils/TypeHelpers.h:35:51)",
   "referenced_type" : "_ZTIN7android18trait_trivial_ctorINS_2spINS_18BufferedTextOutput11BufferStateEEEE6$valueE",
   "self_type" : "_ZTIN7android18trait_trivial_ctorINS_2spINS_18BufferedTextOutput11BufferStateEEEE6$valueE",
   "size" : 4,
   "source_file" : "/system/core/libutils/include/utils/TypeHelpers.h",
   "underlying_type" : "_ZTIj"
  },
  {
   "alignment" : 4,
   "enum_fields" :
   [
    {
     "enum_field_value" : 0,
     "name" : "android::trait_trivial_ctor<android::wp<android::IBinder> >::value"
    }
   ],
   "linker_set_key" : "_ZTIN7android18trait_trivial_ctorINS_2wpINS_7IBinderEEEE6$valueE",
   "name" : "android::trait_trivial_ctor<wp<IBinder> >::(anonymous enum at system/core/libutils/include/utils/TypeHelpers.h:35:51)",
   "referenced_type" : "_ZTIN7android18trait_trivial_ctorINS_2wpINS_7IBinderEEEE6$valueE",
   "self_type" : "_ZTIN7android18trait_trivial_ctorINS_2wpINS_7IBinderEEEE6$valueE",
   "size" : 4,
   "source_file" : "/system/core/libutils/include/utils/TypeHelpers.h",
   "underlying_type" : "_ZTIj"
  },
  {
   "alignment" : 4,
   "enum_fields" :
   [
    {
     "enum_field_value" : 0,
     "name" : "android::trait_trivial_ctor<android::BpBinder::ObjectManager::entry_t>::value"
    }
   ],
   "linker_set_key" : "_ZTIN7android18trait_trivial_ctorINS_8BpBinder13ObjectManager7entry_tEE6$valueE",
   "name" : "android::trait_trivial_ctor<entry_t>::(anonymous enum at system/core/libutils/include/utils/TypeHelpers.h:35:51)",
   "referenced_type" : "_ZTIN7android18trait_trivial_ctorINS_8BpBinder13ObjectManager7entry_tEE6$valueE",
   "self_type" : "_ZTIN7android18trait_trivial_ctorINS_8BpBinder13ObjectManager7entry_tEE6$valueE",
   "size" : 4,
   "source_file" : "/system/core/libutils/include/utils/TypeHelpers.h",
   "underlying_type" : "_ZTIj"
  },
  {
   "alignment" : 4,
   "enum_fields" :
   [
    {
     "enum_field_value" : 0,
     "name" : "android::trait_trivial_ctor<android::BpBinder::Obituary>::value"
    }
   ],
   "linker_set_key" : "_ZTIN7android18trait_trivial_ctorINS_8BpBinder8ObituaryEE6$valueE",
   "name" : "android::trait_trivial_ctor<Obituary>::(anonymous enum at system/core/libutils/include/utils/TypeHelpers.h:35:51)",
   "referenced_type" : "_ZTIN7android18trait_trivial_ctorINS_8BpBinder8ObituaryEE6$valueE",
   "self_type" : "_ZTIN7android18trait_trivial_ctorINS_8BpBinder8ObituaryEE6$valueE",
   "size" : 4,
   "source_file" : "/system/core/libutils/include/utils/TypeHelpers.h",
   "underlying_type" : "_ZTIj"
  },
  {
   "alignment" : 4,
   "enum_fields" :
   [
    {
     "enum_field_value" : 0,
     "name" : "android::trait_trivial_ctor<android::String16>::value"
    }
   ],
   "linker_set_key" : "_ZTIN7android18trait_trivial_ctorINS_8String16EE6$valueE",
   "name" : "android::trait_trivial_ctor<String16>::(anonymous enum at system/core/libutils/include/utils/TypeHelpers.h:35:51)",
   "referenced_type" : "_ZTIN7android18trait_trivial_ctorINS_8String16EE6$valueE",
   "self_type" : "_ZTIN7android18trait_trivial_ctorINS_8String16EE6$valueE",
   "size" : 4,
   "source_file" : "/system/core/libutils/include/utils/TypeHelpers.h",
   "underlying_type" : "_ZTIj"
  },
  {
   "alignment" : 4,
   "enum_fields" :
   [
    {
     "enum_field_value" : 0,
     "name" : "android::trait_trivial_ctor<android::HeapCache::heap_info_t>::value"
    }
   ],
   "linker_set_key" : "_ZTIN7android18trait_trivial_ctorINS_9HeapCache11heap_info_tEE6$valueE",
   "name" : "android::trait_trivial_ctor<heap_info_t>::(anonymous enum at system/core/libutils/include/utils/TypeHelpers.h:35:51)",
   "referenced_type" : "_ZTIN7android18trait_trivial_ctorINS_9HeapCache11heap_info_tEE6$valueE",
   "self_type" : "_ZTIN7android18trait_trivial_ctorINS_9HeapCache11heap_info_tEE6$valueE",
   "size" : 4,
   "source_file" : "/system/core/libutils/include/utils/TypeHelpers.h",
   "underlying_type" : "_ZTIj"
  },
  {
   "alignment" : 4,
   "enum_fields" :
   [
    {
     "enum_field_value" : 0,
     "name" : "android::trait_trivial_ctor<const void *>::value"
    }
   ],
   "linker_set_key" : "_ZTIN7android18trait_trivial_ctorIPKvE6$valueE",
   "name" : "android::trait_trivial_ctor<const void *>::(anonymous enum at system/core/libutils/include/utils/TypeHelpers.h:35:51)",
   "referenced_type" : "_ZTIN7android18trait_trivial_ctorIPKvE6$valueE",
   "self_type" : "_ZTIN7android18trait_trivial_ctorIPKvE6$valueE",
   "size" : 4,
   "source_file" : "/system/core/libutils/include/utils/TypeHelpers.h",
   "underlying_type" : "_ZTIj"
  },
  {
   "alignment" : 4,
   "enum_fields" :
   [
    {
     "enum_field_value" : 0,
     "name" : "android::trait_trivial_ctor<android::BBinder *>::value"
    }
   ],
   "linker_set_key" : "_ZTIN7android18trait_trivial_ctorIPNS_7BBinderEE6$valueE",
   "name" : "android::trait_trivial_ctor<BBinder *>::(anonymous enum at system/core/libutils/include/utils/TypeHelpers.h:35:51)",
   "referenced_type" : "_ZTIN7android18trait_trivial_ctorIPNS_7BBinderEE6$valueE",
   "self_type" : "_ZTIN7android18trait_trivial_ctorIPNS_7BBinderEE6$valueE",
   "size" : 4,
   "source_file" : "/system/core/libutils/include/utils/TypeHelpers.h",
   "underlying_type" : "_ZTIj"
  },
  {
   "alignment" : 4,
   "enum_fields" :
   [
    {
     "enum_field_value" : 0,
     "name" : "android::trait_trivial_ctor<android::RefBase::weakref_type *>::value"
    }
   ],
   "linker_set_key" : "_ZTIN7android18trait_trivial_ctorIPNS_7RefBase12weakref_typeEE6$valueE",
   "name" : "android::trait_trivial_ctor<weakref_type *>::(anonymous enum at system/core/libutils/include/utils/TypeHelpers.h:35:51)",
   "referenced_type" : "_ZTIN7android18trait_trivial_ctorIPNS_7RefBase12weakref_typeEE6$valueE",
   "self_type" : "_ZTIN7android18trait_trivial_ctorIPNS_7RefBase12weakref_typeEE6$valueE",
   "size" : 4,
   "source_file" : "/system/core/libutils/include/utils/TypeHelpers.h",
   "underlying_type" : "_ZTIj"
  },
  {
   "alignment" : 4,
   "enum_fields" :
   [
    {
     "enum_field_value" : 0,
     "name" : "android::trait_trivial_ctor<android::RefBase *>::value"
    }
   ],
   "linker_set_key" : "_ZTIN7android18trait_trivial_ctorIPNS_7RefBaseEE6$valueE",
   "name" : "android::trait_trivial_ctor<RefBase *>::(anonymous enum at system/core/libutils/include/utils/TypeHelpers.h:35:51)",
   "referenced_type" : "_ZTIN7android18trait_trivial_ctorIPNS_7RefBaseEE6$valueE",
   "self_type" : "_ZTIN7android18trait_trivial_ctorIPNS_7RefBaseEE6$valueE",
   "size" : 4,
   "source_file" : "/system/core/libutils/include/utils/TypeHelpers.h",
   "underlying_type" : "_ZTIj"
  },
  {
   "alignment" : 4,
   "enum_fields" :
   [
    {
     "enum_field_value" : 1,
     "name" : "android::trait_trivial_ctor<bool>::value"
    }
   ],
   "linker_set_key" : "_ZTIN7android18trait_trivial_ctorIbE6$valueE",
   "name" : "android::trait_trivial_ctor<bool>::(anonymous enum at system/core/libutils/include/utils/TypeHelpers.h:98:1)",
   "referenced_type" : "_ZTIN7android18trait_trivial_ctorIbE6$valueE",
   "self_type" : "_ZTIN7android18trait_trivial_ctorIbE6$valueE",
   "size" : 4,
   "source_file" : "/system/core/libutils/include/utils/TypeHelpers.h",
   "underlying_type" : "_ZTIj"
  },
  {
   "alignment" : 4,
   "enum_fields" :
   [
    {
     "enum_field_value" : 1,
     "name" : "android::trait_trivial_ctor<char>::value"
    }
   ],
   "linker_set_key" : "_ZTIN7android18trait_trivial_ctorIcE6$valueE",
   "name" : "android::trait_trivial_ctor<char>::(anonymous enum at system/core/libutils/include/utils/TypeHelpers.h:99:1)",
   "referenced_type" : "_ZTIN7android18trait_trivial_ctorIcE6$valueE",
   "self_type" : "_ZTIN7android18trait_trivial_ctorIcE6$valueE",
   "size" : 4,
   "source_file" : "/system/core/libutils/include/utils/TypeHelpers.h",
   "underlying_type" : "_ZTIj"
  },
  {
   "alignment" : 4,
   "enum_fields" :
   [
    {
     "enum_field_value" : 1,
     "name" : "android::trait_trivial_ctor<double>::value"
    }
   ],
   "linker_set_key" : "_ZTIN7android18trait_trivial_ctorIdE6$valueE",
   "name" : "android::trait_trivial_ctor<double>::(anonymous enum at system/core/libutils/include/utils/TypeHelpers.h:110:1)",
   "referenced_type" : "_ZTIN7android18trait_trivial_ctorIdE6$valueE",
   "self_type" : "_ZTIN7android18trait_trivial_ctorIdE6$valueE",
   "size" : 4,
   "source_file" : "/system/core/libutils/include/utils/TypeHelpers.h",
   "underlying_type" : "_ZTIj"
  },
  {
   "alignment" : 4,
   "enum_fields" :
   [
    {
     "enum_field_value" : 1,
     "name" : "android::trait_trivial_ctor<float>::value"
    }
   ],
   "linker_set_key" : "_ZTIN7android18trait_trivial_ctorIfE6$valueE",
   "name" : "android::trait_trivial_ctor<float>::(anonymous enum at system/core/libutils/include/utils/TypeHelpers.h:109:1)",
   "referenced_type" : "_ZTIN7android18trait_trivial_ctorIfE6$valueE",
   "self_type" : "_ZTIN7android18trait_trivial_ctorIfE6$valueE",
   "size" : 4,
   "source_file" : "/system/core/libutils/include/utils/TypeHelpers.h",
   "underlying_type" : "_ZTIj"
  },
  {
   "alignment" : 4,
   "enum_fields" :
   [
    {
     "enum_field_value" : 1,
     "name" : "android::trait_trivial_ctor<unsigned char>::value"
    }
   ],
   "linker_set_key" : "_ZTIN7android18trait_trivial_ctorIhE6$valueE",
   "name" : "android::trait_trivial_ctor<unsigned char>::(anonymous enum at system/core/libutils/include/utils/TypeHelpers.h:100:1)",
   "referenced_type" : "_ZTIN7android18trait_trivial_ctorIhE6$valueE",
   "self_type" : "_ZTIN7android18trait_trivial_ctorIhE6$valueE",
   "size" : 4,
   "source_file" : "/system/core/libutils/include/utils/TypeHelpers.h",
   "underlying_type" : "_ZTIj"
  },
  {
   "alignment" : 4,
   "enum_fields" :
   [
    {
     "enum_field_value" : 1,
     "name" : "android::trait_trivial_ctor<int>::value"
    }
   ],
   "linker_set_key" : "_ZTIN7android18trait_trivial_ctorIiE6$valueE",
   "name" : "android::trait_trivial_ctor<int>::(anonymous enum at system/core/libutils/include/utils/TypeHelpers.h:103:1)",
   "referenced_type" : "_ZTIN7android18trait_trivial_ctorIiE6$valueE",
   "self_type" : "_ZTIN7android18trait_trivial_ctorIiE6$valueE",
   "size" : 4,
   "source_file" : "/system/core/libutils/include/utils/TypeHelpers.h",
   "underlying_type" : "_ZTIj"
  },
  {
   "alignment" : 4,
   "enum_fields" :
   [
    {
     "enum_field_value" : 1,
     "name" : "android::trait_trivial_ctor<unsigned int>::value"
    }
   ],
   "linker_set_key" : "_ZTIN7android18trait_trivial_ctorIjE6$valueE",
   "name" : "android::trait_trivial_ctor<unsigned int>::(anonymous enum at system/core/libutils/include/utils/TypeHelpers.h:104:1)",
   "referenced_type" : "_ZTIN7android18trait_trivial_ctorIjE6$valueE",
   "self_type" : "_ZTIN7android18trait_trivial_ctorIjE6$valueE",
   "size" : 4,
   "source_file" : "/system/core/libutils/include/utils/TypeHelpers.h",
   "underlying_type" : "_ZTIj"
  },
  {
   "alignment" : 4,
   "enum_fields" :
   [
    {
     "enum_field_value" : 1,
     "name" : "android::trait_trivial_ctor<long>::value"
    }
   ],
   "linker_set_key" : "_ZTIN7android18trait_trivial_ctorIlE6$valueE",
   "name" : "android::trait_trivial_ctor<long>::(anonymous enum at system/core/libutils/include/utils/TypeHelpers.h:105:1)",
   "referenced_type" : "_ZTIN7android18trait_trivial_ctorIlE6$valueE",
   "self_type" : "_ZTIN7android18trait_trivial_ctorIlE6$valueE",
   "size" : 4,
   "source_file" : "/system/core/libutils/include/utils/TypeHelpers.h",
   "underlying_type" : "_ZTIj"
  },
  {
   "alignment" : 4,
   "enum_fields" :
   [
    {
     "enum_field_value" : 1,
     "name" : "android::trait_trivial_ctor<unsigned long>::value"
    }
   ],
   "linker_set_key" : "_ZTIN7android18trait_trivial_ctorImE6$valueE",
   "name" : "android::trait_trivial_ctor<unsigned long>::(anonymous enum at system/core/libutils/include/utils/TypeHelpers.h:106:1)",
   "referenced_type" : "_ZTIN7android18trait_trivial_ctorImE6$valueE",
   "self_type" : "_ZTIN7android18trait_trivial_ctorImE6$valueE",
   "size" : 4,
   "source_file" : "/system/core/libutils/include/utils/TypeHelpers.h",
   "underlying_type" : "_ZTIj"
  },
  {
   "alignment" : 4,
   "enum_fields" :
   [
    {
     "enum_field_value" : 1,
     "name" : "android::trait_trivial_ctor<short>::value"
    }
   ],
   "linker_set_key" : "_ZTIN7android18trait_trivial_ctorIsE6$valueE",
   "name" : "android::trait_trivial_ctor<short>::(anonymous enum at system/core/libutils/include/utils/TypeHelpers.h:101:1)",
   "referenced_type" : "_ZTIN7android18trait_trivial_ctorIsE6$valueE",
   "self_type" : "_ZTIN7android18trait_trivial_ctorIsE6$valueE",
   "size" : 4,
   "source_file" : "/system/core/libutils/include/utils/TypeHelpers.h",
   "underlying_type" : "_ZTIj"
  },
  {
   "alignment" : 4,
   "enum_fields" :
   [
    {
     "enum_field_value" : 1,
     "name" : "android::trait_trivial_ctor<unsigned short>::value"
    }
   ],
   "linker_set_key" : "_ZTIN7android18trait_trivial_ctorItE6$valueE",
   "name" : "android::trait_trivial_ctor<unsigned short>::(anonymous enum at system/core/libutils/include/utils/TypeHelpers.h:102:1)",
   "referenced_type" : "_ZTIN7android18trait_trivial_ctorItE6$valueE",
   "self_type" : "_ZTIN7android18trait_trivial_ctorItE6$valueE",
   "size" : 4,
   "source_file" : "/system/core/libutils/include/utils/TypeHelpers.h",
   "underlying_type" : "_ZTIj"
  },
  {
   "alignment" : 4,
   "enum_fields" :
   [
    {
     "enum_field_value" : 1,
     "name" : "android::trait_trivial_ctor<void>::value"
    }
   ],
   "linker_set_key" : "_ZTIN7android18trait_trivial_ctorIvE6$valueE",
   "name" : "android::trait_trivial_ctor<void>::(anonymous enum at system/core/libutils/include/utils/TypeHelpers.h:97:1)",
   "referenced_type" : "_ZTIN7android18trait_trivial_ctorIvE6$valueE",
   "self_type" : "_ZTIN7android18trait_trivial_ctorIvE6$valueE",
   "size" : 4,
   "source_file" : "/system/core/libutils/include/utils/TypeHelpers.h",
   "underlying_type" : "_ZTIj"
  },
  {
   "alignment" : 4,
   "enum_fields" :
   [
    {
     "enum_field_value" : 1,
     "name" : "android::trait_trivial_ctor<long long>::value"
    }
   ],
   "linker_set_key" : "_ZTIN7android18trait_trivial_ctorIxE6$valueE",
   "name" : "android::trait_trivial_ctor<long long>::(anonymous enum at system/core/libutils/include/utils/TypeHelpers.h:107:1)",
   "referenced_type" : "_ZTIN7android18trait_trivial_ctorIxE6$valueE",
   "self_type" : "_ZTIN7android18trait_trivial_ctorIxE6$valueE",
   "size" : 4,
   "source_file" : "/system/core/libutils/include/utils/TypeHelpers.h",
   "underlying_type" : "_ZTIj"
  },
  {
   "alignment" : 4,
   "enum_fields" :
   [
    {
     "enum_field_value" : 1,
     "name" : "android::trait_trivial_ctor<unsigned long long>::value"
    }
   ],
   "linker_set_key" : "_ZTIN7android18trait_trivial_ctorIyE6$valueE",
   "name" : "android::trait_trivial_ctor<unsigned long long>::(anonymous enum at system/core/libutils/include/utils/TypeHelpers.h:108:1)",
   "referenced_type" : "_ZTIN7android18trait_trivial_ctorIyE6$valueE",
   "self_type" : "_ZTIN7android18trait_trivial_ctorIyE6$valueE",
   "size" : 4,
   "source_file" : "/system/core/libutils/include/utils/TypeHelpers.h",
   "underlying_type" : "_ZTIj"
  },
  {
   "alignment" : 4,
   "enum_fields" :
   [
    {
     "enum_field_value" : 0,
     "name" : "android::trait_trivial_dtor<android::ProcessState::handle_entry>::value"
    }
   ],
   "linker_set_key" : "_ZTIN7android18trait_trivial_dtorINS_12ProcessState12handle_entryEE6$valueE",
   "name" : "android::trait_trivial_dtor<handle_entry>::(anonymous enum at system/core/libutils/include/utils/TypeHelpers.h:36:51)",
   "referenced_type" : "_ZTIN7android18trait_trivial_dtorINS_12ProcessState12handle_entryEE6$valueE",
   "self_type" : "_ZTIN7android18trait_trivial_dtorINS_12ProcessState12handle_entryEE6$valueE",
   "size" : 4,
   "source_file" : "/system/core/libutils/include/utils/TypeHelpers.h",
   "underlying_type" : "_ZTIj"
  },
  {
   "alignment" : 4,
   "enum_fields" :
   [
    {
     "enum_field_value" : 0,
     "name" : "android::trait_trivial_dtor<android::key_value_pair_t<android::wp<android::IBinder>, android::HeapCache::heap_info_t> >::value"
    }
   ],
   "linker_set_key" : "_ZTIN7android18trait_trivial_dtorINS_16key_value_pair_tINS_2wpINS_7IBinderEEENS_9HeapCache11heap_info_tEEEE6$valueE",
   "name" : "android::trait_trivial_dtor<key_value_pair_t<wp<IBinder>, heap_info_t> >::(anonymous enum at system/core/libutils/include/utils/TypeHelpers.h:284:3)",
   "referenced_type" : "_ZTIN7android18trait_trivial_dtorINS_16key_value_pair_tINS_2wpINS_7IBinderEEENS_9HeapCache11heap_info_tEEEE6$valueE",
   "self_type" : "_ZTIN7android18trait_trivial_dtorINS_16key_value_pair_tINS_2wpINS_7IBinderEEENS_9HeapCache11heap_info_tEEEE6$valueE",
   "size" : 4,
   "source_file" : "/system/core/libutils/include/utils/TypeHelpers.h",
   "underlying_type" : "_ZTIj"
  },
  {
   "alignment" : 4,
   "enum_fields" :
   [
    {
     "enum_field_value" : 0,
     "name" : "android::trait_trivial_dtor<android::key_value_pair_t<const void *, android::BpBinder::ObjectManager::entry_t> >::value"
    }
   ],
   "linker_set_key" : "_ZTIN7android18trait_trivial_dtorINS_16key_value_pair_tIPKvNS_8BpBinder13ObjectManager7entry_tEEEE6$valueE",
   "name" : "android::trait_trivial_dtor<key_value_pair_t<const void *, entry_t> >::(anonymous enum at system/core/libutils/include/utils/TypeHelpers.h:284:3)",
   "referenced_type" : "_ZTIN7android18trait_trivial_dtorINS_16key_value_pair_tIPKvNS_8BpBinder13ObjectManager7entry_tEEEE6$valueE",
   "self_type" : "_ZTIN7android18trait_trivial_dtorINS_16key_value_pair_tIPKvNS_8BpBinder13ObjectManager7entry_tEEEE6$valueE",
   "size" : 4,
   "source_file" : "/system/core/libutils/include/utils/TypeHelpers.h",
   "underlying_type" : "_ZTIj"
  },
  {
   "alignment" : 4,
   "enum_fields" :
   [
    {
     "enum_field_value" : 0,
     "name" : "android::trait_trivial_dtor<android::sp<android::BufferedTextOutput::BufferState> >::value"
    }
   ],
   "linker_set_key" : "_ZTIN7android18trait_trivial_dtorINS_2spINS_18BufferedTextOutput11BufferStateEEEE6$valueE",
   "name" : "android::trait_trivial_dtor<sp<BufferState> >::(anonymous enum at system/core/libutils/include/utils/TypeHelpers.h:36:51)",
   "referenced_type" : "_ZTIN7android18trait_trivial_dtorINS_2spINS_18BufferedTextOutput11BufferStateEEEE6$valueE",
   "self_type" : "_ZTIN7android18trait_trivial_dtorINS_2spINS_18BufferedTextOutput11BufferStateEEEE6$valueE",
   "size" : 4,
   "source_file" : "/system/core/libutils/include/utils/TypeHelpers.h",
   "underlying_type" : "_ZTIj"
  },
  {
   "alignment" : 4,
   "enum_fields" :
   [
    {
     "enum_field_value" : 0,
     "name" : "android::trait_trivial_dtor<android::wp<android::IBinder> >::value"
    }
   ],
   "linker_set_key" : "_ZTIN7android18trait_trivial_dtorINS_2wpINS_7IBinderEEEE6$valueE",
   "name" : "android::trait_trivial_dtor<wp<IBinder> >::(anonymous enum at system/core/libutils/include/utils/TypeHelpers.h:36:51)",
   "referenced_type" : "_ZTIN7android18trait_trivial_dtorINS_2wpINS_7IBinderEEEE6$valueE",
   "self_type" : "_ZTIN7android18trait_trivial_dtorINS_2wpINS_7IBinderEEEE6$valueE",
   "size" : 4,
   "source_file" : "/system/core/libutils/include/utils/TypeHelpers.h",
   "underlying_type" : "_ZTIj"
  },
  {
   "alignment" : 4,
   "enum_fields" :
   [
    {
     "enum_field_value" : 0,
     "name" : "android::trait_trivial_dtor<android::BpBinder::ObjectManager::entry_t>::value"
    }
   ],
   "linker_set_key" : "_ZTIN7android18trait_trivial_dtorINS_8BpBinder13ObjectManager7entry_tEE6$valueE",
   "name" : "android::trait_trivial_dtor<entry_t>::(anonymous enum at system/core/libutils/include/utils/TypeHelpers.h:36:51)",
   "referenced_type" : "_ZTIN7android18trait_trivial_dtorINS_8BpBinder13ObjectManager7entry_tEE6$valueE",
   "self_type" : "_ZTIN7android18trait_trivial_dtorINS_8BpBinder13ObjectManager7entry_tEE6$valueE",
   "size" : 4,
   "source_file" : "/system/core/libutils/include/utils/TypeHelpers.h",
   "underlying_type" : "_ZTIj"
  },
  {
   "alignment" : 4,
   "enum_fields" :
   [
    {
     "enum_field_value" : 0,
     "name" : "android::trait_trivial_dtor<android::BpBinder::Obituary>::value"
    }
   ],
   "linker_set_key" : "_ZTIN7android18trait_trivial_dtorINS_8BpBinder8ObituaryEE6$valueE",
   "name" : "android::trait_trivial_dtor<Obituary>::(anonymous enum at system/core/libutils/include/utils/TypeHelpers.h:36:51)",
   "referenced_type" : "_ZTIN7android18trait_trivial_dtorINS_8BpBinder8ObituaryEE6$valueE",
   "self_type" : "_ZTIN7android18trait_trivial_dtorINS_8BpBinder8ObituaryEE6$valueE",
   "size" : 4,
   "source_file" : "/system/core/libutils/include/utils/TypeHelpers.h",
   "underlying_type" : "_ZTIj"
  },
  {
   "alignment" : 4,
   "enum_fields" :
   [
    {
     "enum_field_value" : 0,
     "name" : "android::trait_trivial_dtor<android::String16>::value"
    }
   ],
   "linker_set_key" : "_ZTIN7android18trait_trivial_dtorINS_8String16EE6$valueE",
   "name" : "android::trait_trivial_dtor<String16>::(anonymous enum at system/core/libutils/include/utils/TypeHelpers.h:36:51)",
   "referenced_type" : "_ZTIN7android18trait_trivial_dtorINS_8String16EE6$valueE",
   "self_type" : "_ZTIN7android18trait_trivial_dtorINS_8String16EE6$valueE",
   "size" : 4,
   "source_file" : "/system/core/libutils/include/utils/TypeHelpers.h",
   "underlying_type" : "_ZTIj"
  },
  {
   "alignment" : 4,
   "enum_fields" :
   [
    {
     "enum_field_value" : 0,
     "name" : "android::trait_trivial_dtor<android::HeapCache::heap_info_t>::value"
    }
   ],
   "linker_set_key" : "_ZTIN7android18trait_trivial_dtorINS_9HeapCache11heap_info_tEE6$valueE",
   "name" : "android::trait_trivial_dtor<heap_info_t>::(anonymous enum at system/core/libutils/include/utils/TypeHelpers.h:36:51)",
   "referenced_type" : "_ZTIN7android18trait_trivial_dtorINS_9HeapCache11heap_info_tEE6$valueE",
   "self_type" : "_ZTIN7android18trait_trivial_dtorINS_9HeapCache11heap_info_tEE6$valueE",
   "size" : 4,
   "source_file" : "/system/core/libutils/include/utils/TypeHelpers.h",
   "underlying_type" : "_ZTIj"
  },
  {
   "alignment" : 4,
   "enum_fields" :
   [
    {
     "enum_field_value" : 0,
     "name" : "android::trait_trivial_dtor<const void *>::value"
    }
   ],
   "linker_set_key" : "_ZTIN7android18trait_trivial_dtorIPKvE6$valueE",
   "name" : "android::trait_trivial_dtor<const void *>::(anonymous enum at system/core/libutils/include/utils/TypeHelpers.h:36:51)",
   "referenced_type" : "_ZTIN7android18trait_trivial_dtorIPKvE6$valueE",
   "self_type" : "_ZTIN7android18trait_trivial_dtorIPKvE6$valueE",
   "size" : 4,
   "source_file" : "/system/core/libutils/include/utils/TypeHelpers.h",
   "underlying_type" : "_ZTIj"
  },
  {
   "alignment" : 4,
   "enum_fields" :
   [
    {
     "enum_field_value" : 0,
     "name" : "android::trait_trivial_dtor<android::BBinder *>::value"
    }
   ],
   "linker_set_key" : "_ZTIN7android18trait_trivial_dtorIPNS_7BBinderEE6$valueE",
   "name" : "android::trait_trivial_dtor<BBinder *>::(anonymous enum at system/core/libutils/include/utils/TypeHelpers.h:36:51)",
   "referenced_type" : "_ZTIN7android18trait_trivial_dtorIPNS_7BBinderEE6$valueE",
   "self_type" : "_ZTIN7android18trait_trivial_dtorIPNS_7BBinderEE6$valueE",
   "size" : 4,
   "source_file" : "/system/core/libutils/include/utils/TypeHelpers.h",
   "underlying_type" : "_ZTIj"
  },
  {
   "alignment" : 4,
   "enum_fields" :
   [
    {
     "enum_field_value" : 0,
     "name" : "android::trait_trivial_dtor<android::RefBase::weakref_type *>::value"
    }
   ],
   "linker_set_key" : "_ZTIN7android18trait_trivial_dtorIPNS_7RefBase12weakref_typeEE6$valueE",
   "name" : "android::trait_trivial_dtor<weakref_type *>::(anonymous enum at system/core/libutils/include/utils/TypeHelpers.h:36:51)",
   "referenced_type" : "_ZTIN7android18trait_trivial_dtorIPNS_7RefBase12weakref_typeEE6$valueE",
   "self_type" : "_ZTIN7android18trait_trivial_dtorIPNS_7RefBase12weakref_typeEE6$valueE",
   "size" : 4,
   "source_file" : "/system/core/libutils/include/utils/TypeHelpers.h",
   "underlying_type" : "_ZTIj"
  },
  {
   "alignment" : 4,
   "enum_fields" :
   [
    {
     "enum_field_value" : 0,
     "name" : "android::trait_trivial_dtor<android::RefBase *>::value"
    }
   ],
   "linker_set_key" : "_ZTIN7android18trait_trivial_dtorIPNS_7RefBaseEE6$valueE",
   "name" : "android::trait_trivial_dtor<RefBase *>::(anonymous enum at system/core/libutils/include/utils/TypeHelpers.h:36:51)",
   "referenced_type" : "_ZTIN7android18trait_trivial_dtorIPNS_7RefBaseEE6$valueE",
   "self_type" : "_ZTIN7android18trait_trivial_dtorIPNS_7RefBaseEE6$valueE",
   "size" : 4,
   "source_file" : "/system/core/libutils/include/utils/TypeHelpers.h",
   "underlying_type" : "_ZTIj"
  },
  {
   "alignment" : 4,
   "enum_fields" :
   [
    {
     "enum_field_value" : 1,
     "name" : "android::trait_trivial_dtor<bool>::value"
    }
   ],
   "linker_set_key" : "_ZTIN7android18trait_trivial_dtorIbE6$valueE",
   "name" : "android::trait_trivial_dtor<bool>::(anonymous enum at system/core/libutils/include/utils/TypeHelpers.h:98:1)",
   "referenced_type" : "_ZTIN7android18trait_trivial_dtorIbE6$valueE",
   "self_type" : "_ZTIN7android18trait_trivial_dtorIbE6$valueE",
   "size" : 4,
   "source_file" : "/system/core/libutils/include/utils/TypeHelpers.h",
   "underlying_type" : "_ZTIj"
  },
  {
   "alignment" : 4,
   "enum_fields" :
   [
    {
     "enum_field_value" : 1,
     "name" : "android::trait_trivial_dtor<char>::value"
    }
   ],
   "linker_set_key" : "_ZTIN7android18trait_trivial_dtorIcE6$valueE",
   "name" : "android::trait_trivial_dtor<char>::(anonymous enum at system/core/libutils/include/utils/TypeHelpers.h:99:1)",
   "referenced_type" : "_ZTIN7android18trait_trivial_dtorIcE6$valueE",
   "self_type" : "_ZTIN7android18trait_trivial_dtorIcE6$valueE",
   "size" : 4,
   "source_file" : "/system/core/libutils/include/utils/TypeHelpers.h",
   "underlying_type" : "_ZTIj"
  },
  {
   "alignment" : 4,
   "enum_fields" :
   [
    {
     "enum_field_value" : 1,
     "name" : "android::trait_trivial_dtor<double>::value"
    }
   ],
   "linker_set_key" : "_ZTIN7android18trait_trivial_dtorIdE6$valueE",
   "name" : "android::trait_trivial_dtor<double>::(anonymous enum at system/core/libutils/include/utils/TypeHelpers.h:110:1)",
   "referenced_type" : "_ZTIN7android18trait_trivial_dtorIdE6$valueE",
   "self_type" : "_ZTIN7android18trait_trivial_dtorIdE6$valueE",
   "size" : 4,
   "source_file" : "/system/core/libutils/include/utils/TypeHelpers.h",
   "underlying_type" : "_ZTIj"
  },
  {
   "alignment" : 4,
   "enum_fields" :
   [
    {
     "enum_field_value" : 1,
     "name" : "android::trait_trivial_dtor<float>::value"
    }
   ],
   "linker_set_key" : "_ZTIN7android18trait_trivial_dtorIfE6$valueE",
   "name" : "android::trait_trivial_dtor<float>::(anonymous enum at system/core/libutils/include/utils/TypeHelpers.h:109:1)",
   "referenced_type" : "_ZTIN7android18trait_trivial_dtorIfE6$valueE",
   "self_type" : "_ZTIN7android18trait_trivial_dtorIfE6$valueE",
   "size" : 4,
   "source_file" : "/system/core/libutils/include/utils/TypeHelpers.h",
   "underlying_type" : "_ZTIj"
  },
  {
   "alignment" : 4,
   "enum_fields" :
   [
    {
     "enum_field_value" : 1,
     "name" : "android::trait_trivial_dtor<unsigned char>::value"
    }
   ],
   "linker_set_key" : "_ZTIN7android18trait_trivial_dtorIhE6$valueE",
   "name" : "android::trait_trivial_dtor<unsigned char>::(anonymous enum at system/core/libutils/include/utils/TypeHelpers.h:100:1)",
   "referenced_type" : "_ZTIN7android18trait_trivial_dtorIhE6$valueE",
   "self_type" : "_ZTIN7android18trait_trivial_dtorIhE6$valueE",
   "size" : 4,
   "source_file" : "/system/core/libutils/include/utils/TypeHelpers.h",
   "underlying_type" : "_ZTIj"
  },
  {
   "alignment" : 4,
   "enum_fields" :
   [
    {
     "enum_field_value" : 1,
     "name" : "android::trait_trivial_dtor<int>::value"
    }
   ],
   "linker_set_key" : "_ZTIN7android18trait_trivial_dtorIiE6$valueE",
   "name" : "android::trait_trivial_dtor<int>::(anonymous enum at system/core/libutils/include/utils/TypeHelpers.h:103:1)",
   "referenced_type" : "_ZTIN7android18trait_trivial_dtorIiE6$valueE",
   "self_type" : "_ZTIN7android18trait_trivial_dtorIiE6$valueE",
   "size" : 4,
   "source_file" : "/system/core/libutils/include/utils/TypeHelpers.h",
   "underlying_type" : "_ZTIj"
  },
  {
   "alignment" : 4,
   "enum_fields" :
   [
    {
     "enum_field_value" : 1,
     "name" : "android::trait_trivial_dtor<unsigned int>::value"
    }
   ],
   "linker_set_key" : "_ZTIN7android18trait_trivial_dtorIjE6$valueE",
   "name" : "android::trait_trivial_dtor<unsigned int>::(anonymous enum at system/core/libutils/include/utils/TypeHelpers.h:104:1)",
   "referenced_type" : "_ZTIN7android18trait_trivial_dtorIjE6$valueE",
   "self_type" : "_ZTIN7android18trait_trivial_dtorIjE6$valueE",
   "size" : 4,
   "source_file" : "/system/core/libutils/include/utils/TypeHelpers.h",
   "underlying_type" : "_ZTIj"
  },
  {
   "alignment" : 4,
   "enum_fields" :
   [
    {
     "enum_field_value" : 1,
     "name" : "android::trait_trivial_dtor<long>::value"
    }
   ],
   "linker_set_key" : "_ZTIN7android18trait_trivial_dtorIlE6$valueE",
   "name" : "android::trait_trivial_dtor<long>::(anonymous enum at system/core/libutils/include/utils/TypeHelpers.h:105:1)",
   "referenced_type" : "_ZTIN7android18trait_trivial_dtorIlE6$valueE",
   "self_type" : "_ZTIN7android18trait_trivial_dtorIlE6$valueE",
   "size" : 4,
   "source_file" : "/system/core/libutils/include/utils/TypeHelpers.h",
   "underlying_type" : "_ZTIj"
  },
  {
   "alignment" : 4,
   "enum_fields" :
   [
    {
     "enum_field_value" : 1,
     "name" : "android::trait_trivial_dtor<unsigned long>::value"
    }
   ],
   "linker_set_key" : "_ZTIN7android18trait_trivial_dtorImE6$valueE",
   "name" : "android::trait_trivial_dtor<unsigned long>::(anonymous enum at system/core/libutils/include/utils/TypeHelpers.h:106:1)",
   "referenced_type" : "_ZTIN7android18trait_trivial_dtorImE6$valueE",
   "self_type" : "_ZTIN7android18trait_trivial_dtorImE6$valueE",
   "size" : 4,
   "source_file" : "/system/core/libutils/include/utils/TypeHelpers.h",
   "underlying_type" : "_ZTIj"
  },
  {
   "alignment" : 4,
   "enum_fields" :
   [
    {
     "enum_field_value" : 1,
     "name" : "android::trait_trivial_dtor<short>::value"
    }
   ],
   "linker_set_key" : "_ZTIN7android18trait_trivial_dtorIsE6$valueE",
   "name" : "android::trait_trivial_dtor<short>::(anonymous enum at system/core/libutils/include/utils/TypeHelpers.h:101:1)",
   "referenced_type" : "_ZTIN7android18trait_trivial_dtorIsE6$valueE",
   "self_type" : "_ZTIN7android18trait_trivial_dtorIsE6$valueE",
   "size" : 4,
   "source_file" : "/system/core/libutils/include/utils/TypeHelpers.h",
   "underlying_type" : "_ZTIj"
  },
  {
   "alignment" : 4,
   "enum_fields" :
   [
    {
     "enum_field_value" : 1,
     "name" : "android::trait_trivial_dtor<unsigned short>::value"
    }
   ],
   "linker_set_key" : "_ZTIN7android18trait_trivial_dtorItE6$valueE",
   "name" : "android::trait_trivial_dtor<unsigned short>::(anonymous enum at system/core/libutils/include/utils/TypeHelpers.h:102:1)",
   "referenced_type" : "_ZTIN7android18trait_trivial_dtorItE6$valueE",
   "self_type" : "_ZTIN7android18trait_trivial_dtorItE6$valueE",
   "size" : 4,
   "source_file" : "/system/core/libutils/include/utils/TypeHelpers.h",
   "underlying_type" : "_ZTIj"
  },
  {
   "alignment" : 4,
   "enum_fields" :
   [
    {
     "enum_field_value" : 1,
     "name" : "android::trait_trivial_dtor<void>::value"
    }
   ],
   "linker_set_key" : "_ZTIN7android18trait_trivial_dtorIvE6$valueE",
   "name" : "android::trait_trivial_dtor<void>::(anonymous enum at system/core/libutils/include/utils/TypeHelpers.h:97:1)",
   "referenced_type" : "_ZTIN7android18trait_trivial_dtorIvE6$valueE",
   "self_type" : "_ZTIN7android18trait_trivial_dtorIvE6$valueE",
   "size" : 4,
   "source_file" : "/system/core/libutils/include/utils/TypeHelpers.h",
   "underlying_type" : "_ZTIj"
  },
  {
   "alignment" : 4,
   "enum_fields" :
   [
    {
     "enum_field_value" : 1,
     "name" : "android::trait_trivial_dtor<long long>::value"
    }
   ],
   "linker_set_key" : "_ZTIN7android18trait_trivial_dtorIxE6$valueE",
   "name" : "android::trait_trivial_dtor<long long>::(anonymous enum at system/core/libutils/include/utils/TypeHelpers.h:107:1)",
   "referenced_type" : "_ZTIN7android18trait_trivial_dtorIxE6$valueE",
   "self_type" : "_ZTIN7android18trait_trivial_dtorIxE6$valueE",
   "size" : 4,
   "source_file" : "/system/core/libutils/include/utils/TypeHelpers.h",
   "underlying_type" : "_ZTIj"
  },
  {
   "alignment" : 4,
   "enum_fields" :
   [
    {
     "enum_field_value" : 1,
     "name" : "android::trait_trivial_dtor<unsigned long long>::value"
    }
   ],
   "linker_set_key" : "_ZTIN7android18trait_trivial_dtorIyE6$valueE",
   "name" : "android::trait_trivial_dtor<unsigned long long>::(anonymous enum at system/core/libutils/include/utils/TypeHelpers.h:108:1)",
   "referenced_type" : "_ZTIN7android18trait_trivial_dtorIyE6$valueE",
   "self_type" : "_ZTIN7android18trait_trivial_dtorIyE6$valueE",
   "size" : 4,
   "source_file" : "/system/core/libutils/include/utils/TypeHelpers.h",
   "underlying_type" : "_ZTIj"
  },
  {
   "alignment" : 4,
   "enum_fields" :
   [
    {
     "enum_field_value" : 0,
     "name" : "android::trait_trivial_move<android::ProcessState::handle_entry>::value"
    }
   ],
   "linker_set_key" : "_ZTIN7android18trait_trivial_moveINS_12ProcessState12handle_entryEE6$valueE",
   "name" : "android::trait_trivial_move<handle_entry>::(anonymous enum at system/core/libutils/include/utils/TypeHelpers.h:38:51)",
   "referenced_type" : "_ZTIN7android18trait_trivial_moveINS_12ProcessState12handle_entryEE6$valueE",
   "self_type" : "_ZTIN7android18trait_trivial_moveINS_12ProcessState12handle_entryEE6$valueE",
   "size" : 4,
   "source_file" : "/system/core/libutils/include/utils/TypeHelpers.h",
   "underlying_type" : "_ZTIj"
  },
  {
   "alignment" : 4,
   "enum_fields" :
   [
    {
     "enum_field_value" : 0,
     "name" : "android::trait_trivial_move<android::key_value_pair_t<android::wp<android::IBinder>, android::HeapCache::heap_info_t> >::value"
    }
   ],
   "linker_set_key" : "_ZTIN7android18trait_trivial_moveINS_16key_value_pair_tINS_2wpINS_7IBinderEEENS_9HeapCache11heap_info_tEEEE6$valueE",
   "name" : "android::trait_trivial_move<key_value_pair_t<wp<IBinder>, heap_info_t> >::(anonymous enum at system/core/libutils/include/utils/TypeHelpers.h:290:3)",
   "referenced_type" : "_ZTIN7android18trait_trivial_moveINS_16key_value_pair_tINS_2wpINS_7IBinderEEENS_9HeapCache11heap_info_tEEEE6$valueE",
   "self_type" : "_ZTIN7android18trait_trivial_moveINS_16key_value_pair_tINS_2wpINS_7IBinderEEENS_9HeapCache11heap_info_tEEEE6$valueE",
   "size" : 4,
   "source_file" : "/system/core/libutils/include/utils/TypeHelpers.h",
   "underlying_type" : "_ZTIj"
  },
  {
   "alignment" : 4,
   "enum_fields" :
   [
    {
     "enum_field_value" : 0,
     "name" : "android::trait_trivial_move<android::key_value_pair_t<const void *, android::BpBinder::ObjectManager::entry_t> >::value"
    }
   ],
   "linker_set_key" : "_ZTIN7android18trait_trivial_moveINS_16key_value_pair_tIPKvNS_8BpBinder13ObjectManager7entry_tEEEE6$valueE",
   "name" : "android::trait_trivial_move<key_value_pair_t<const void *, entry_t> >::(anonymous enum at system/core/libutils/include/utils/TypeHelpers.h:290:3)",
   "referenced_type" : "_ZTIN7android18trait_trivial_moveINS_16key_value_pair_tIPKvNS_8BpBinder13ObjectManager7entry_tEEEE6$valueE",
   "self_type" : "_ZTIN7android18trait_trivial_moveINS_16key_value_pair_tIPKvNS_8BpBinder13ObjectManager7entry_tEEEE6$valueE",
   "size" : 4,
   "source_file" : "/system/core/libutils/include/utils/TypeHelpers.h",
   "underlying_type" : "_ZTIj"
  },
  {
   "alignment" : 4,
   "enum_fields" :
   [
    {
     "enum_field_value" : 0,
     "name" : "android::trait_trivial_move<android::sp<android::BufferedTextOutput::BufferState> >::value"
    }
   ],
   "linker_set_key" : "_ZTIN7android18trait_trivial_moveINS_2spINS_18BufferedTextOutput11BufferStateEEEE6$valueE",
   "name" : "android::trait_trivial_move<sp<BufferState> >::(anonymous enum at system/core/libutils/include/utils/TypeHelpers.h:38:51)",
   "referenced_type" : "_ZTIN7android18trait_trivial_moveINS_2spINS_18BufferedTextOutput11BufferStateEEEE6$valueE",
   "self_type" : "_ZTIN7android18trait_trivial_moveINS_2spINS_18BufferedTextOutput11BufferStateEEEE6$valueE",
   "size" : 4,
   "source_file" : "/system/core/libutils/include/utils/TypeHelpers.h",
   "underlying_type" : "_ZTIj"
  },
  {
   "alignment" : 4,
   "enum_fields" :
   [
    {
     "enum_field_value" : 0,
     "name" : "android::trait_trivial_move<android::wp<android::IBinder> >::value"
    }
   ],
   "linker_set_key" : "_ZTIN7android18trait_trivial_moveINS_2wpINS_7IBinderEEEE6$valueE",
   "name" : "android::trait_trivial_move<wp<IBinder> >::(anonymous enum at system/core/libutils/include/utils/TypeHelpers.h:38:51)",
   "referenced_type" : "_ZTIN7android18trait_trivial_moveINS_2wpINS_7IBinderEEEE6$valueE",
   "self_type" : "_ZTIN7android18trait_trivial_moveINS_2wpINS_7IBinderEEEE6$valueE",
   "size" : 4,
   "source_file" : "/system/core/libutils/include/utils/TypeHelpers.h",
   "underlying_type" : "_ZTIj"
  },
  {
   "alignment" : 4,
   "enum_fields" :
   [
    {
     "enum_field_value" : 1,
     "name" : "android::trait_trivial_move<android::String8>::value"
    }
   ],
   "linker_set_key" : "_ZTIN7android18trait_trivial_moveINS_7String8EE6$valueE",
   "name" : "android::trait_trivial_move<String8>::(anonymous enum at system/core/libutils/include/utils/String8.h:242:1)",
   "referenced_type" : "_ZTIN7android18trait_trivial_moveINS_7String8EE6$valueE",
   "self_type" : "_ZTIN7android18trait_trivial_moveINS_7String8EE6$valueE",
   "size" : 4,
   "source_file" : "/system/core/libutils/include/utils/String8.h",
   "underlying_type" : "_ZTIj"
  },
  {
   "alignment" : 4,
   "enum_fields" :
   [
    {
     "enum_field_value" : 0,
     "name" : "android::trait_trivial_move<android::BpBinder::ObjectManager::entry_t>::value"
    }
   ],
   "linker_set_key" : "_ZTIN7android18trait_trivial_moveINS_8BpBinder13ObjectManager7entry_tEE6$valueE",
   "name" : "android::trait_trivial_move<entry_t>::(anonymous enum at system/core/libutils/include/utils/TypeHelpers.h:38:51)",
   "referenced_type" : "_ZTIN7android18trait_trivial_moveINS_8BpBinder13ObjectManager7entry_tEE6$valueE",
   "self_type" : "_ZTIN7android18trait_trivial_moveINS_8BpBinder13ObjectManager7entry_tEE6$valueE",
   "size" : 4,
   "source_file" : "/system/core/libutils/include/utils/TypeHelpers.h",
   "underlying_type" : "_ZTIj"
  },
  {
   "alignment" : 4,
   "enum_fields" :
   [
    {
     "enum_field_value" : 0,
     "name" : "android::trait_trivial_move<android::BpBinder::Obituary>::value"
    }
   ],
   "linker_set_key" : "_ZTIN7android18trait_trivial_moveINS_8BpBinder8ObituaryEE6$valueE",
   "name" : "android::trait_trivial_move<Obituary>::(anonymous enum at system/core/libutils/include/utils/TypeHelpers.h:38:51)",
   "referenced_type" : "_ZTIN7android18trait_trivial_moveINS_8BpBinder8ObituaryEE6$valueE",
   "self_type" : "_ZTIN7android18trait_trivial_moveINS_8BpBinder8ObituaryEE6$valueE",
   "size" : 4,
   "source_file" : "/system/core/libutils/include/utils/TypeHelpers.h",
   "underlying_type" : "_ZTIj"
  },
  {
   "alignment" : 4,
   "enum_fields" :
   [
    {
     "enum_field_value" : 1,
     "name" : "android::trait_trivial_move<android::String16>::value"
    }
   ],
   "linker_set_key" : "_ZTIN7android18trait_trivial_moveINS_8String16EE6$valueE",
   "name" : "android::trait_trivial_move<String16>::(anonymous enum at system/core/libutils/include/utils/String16.h:197:1)",
   "referenced_type" : "_ZTIN7android18trait_trivial_moveINS_8String16EE6$valueE",
   "self_type" : "_ZTIN7android18trait_trivial_moveINS_8String16EE6$valueE",
   "size" : 4,
   "source_file" : "/system/core/libutils/include/utils/String16.h",
   "underlying_type" : "_ZTIj"
  },
  {
   "alignment" : 4,
   "enum_fields" :
   [
    {
     "enum_field_value" : 0,
     "name" : "android::trait_trivial_move<android::HeapCache::heap_info_t>::value"
    }
   ],
   "linker_set_key" : "_ZTIN7android18trait_trivial_moveINS_9HeapCache11heap_info_tEE6$valueE",
   "name" : "android::trait_trivial_move<heap_info_t>::(anonymous enum at system/core/libutils/include/utils/TypeHelpers.h:38:51)",
   "referenced_type" : "_ZTIN7android18trait_trivial_moveINS_9HeapCache11heap_info_tEE6$valueE",
   "self_type" : "_ZTIN7android18trait_trivial_moveINS_9HeapCache11heap_info_tEE6$valueE",
   "size" : 4,
   "source_file" : "/system/core/libutils/include/utils/TypeHelpers.h",
   "underlying_type" : "_ZTIj"
  },
  {
   "alignment" : 4,
   "enum_fields" :
   [
    {
     "enum_field_value" : 0,
     "name" : "android::trait_trivial_move<const void *>::value"
    }
   ],
   "linker_set_key" : "_ZTIN7android18trait_trivial_moveIPKvE6$valueE",
   "name" : "android::trait_trivial_move<const void *>::(anonymous enum at system/core/libutils/include/utils/TypeHelpers.h:38:51)",
   "referenced_type" : "_ZTIN7android18trait_trivial_moveIPKvE6$valueE",
   "self_type" : "_ZTIN7android18trait_trivial_moveIPKvE6$valueE",
   "size" : 4,
   "source_file" : "/system/core/libutils/include/utils/TypeHelpers.h",
   "underlying_type" : "_ZTIj"
  },
  {
   "alignment" : 4,
   "enum_fields" :
   [
    {
     "enum_field_value" : 0,
     "name" : "android::trait_trivial_move<android::BBinder *>::value"
    }
   ],
   "linker_set_key" : "_ZTIN7android18trait_trivial_moveIPNS_7BBinderEE6$valueE",
   "name" : "android::trait_trivial_move<BBinder *>::(anonymous enum at system/core/libutils/include/utils/TypeHelpers.h:38:51)",
   "referenced_type" : "_ZTIN7android18trait_trivial_moveIPNS_7BBinderEE6$valueE",
   "self_type" : "_ZTIN7android18trait_trivial_moveIPNS_7BBinderEE6$valueE",
   "size" : 4,
   "source_file" : "/system/core/libutils/include/utils/TypeHelpers.h",
   "underlying_type" : "_ZTIj"
  },
  {
   "alignment" : 4,
   "enum_fields" :
   [
    {
     "enum_field_value" : 0,
     "name" : "android::trait_trivial_move<android::RefBase::weakref_type *>::value"
    }
   ],
   "linker_set_key" : "_ZTIN7android18trait_trivial_moveIPNS_7RefBase12weakref_typeEE6$valueE",
   "name" : "android::trait_trivial_move<weakref_type *>::(anonymous enum at system/core/libutils/include/utils/TypeHelpers.h:38:51)",
   "referenced_type" : "_ZTIN7android18trait_trivial_moveIPNS_7RefBase12weakref_typeEE6$valueE",
   "self_type" : "_ZTIN7android18trait_trivial_moveIPNS_7RefBase12weakref_typeEE6$valueE",
   "size" : 4,
   "source_file" : "/system/core/libutils/include/utils/TypeHelpers.h",
   "underlying_type" : "_ZTIj"
  },
  {
   "alignment" : 4,
   "enum_fields" :
   [
    {
     "enum_field_value" : 0,
     "name" : "android::trait_trivial_move<android::RefBase *>::value"
    }
   ],
   "linker_set_key" : "_ZTIN7android18trait_trivial_moveIPNS_7RefBaseEE6$valueE",
   "name" : "android::trait_trivial_move<RefBase *>::(anonymous enum at system/core/libutils/include/utils/TypeHelpers.h:38:51)",
   "referenced_type" : "_ZTIN7android18trait_trivial_moveIPNS_7RefBaseEE6$valueE",
   "self_type" : "_ZTIN7android18trait_trivial_moveIPNS_7RefBaseEE6$valueE",
   "size" : 4,
   "source_file" : "/system/core/libutils/include/utils/TypeHelpers.h",
   "underlying_type" : "_ZTIj"
  },
  {
   "alignment" : 4,
   "enum_fields" :
   [
    {
     "enum_field_value" : 1,
     "name" : "android::trait_trivial_move<bool>::value"
    }
   ],
   "linker_set_key" : "_ZTIN7android18trait_trivial_moveIbE6$valueE",
   "name" : "android::trait_trivial_move<bool>::(anonymous enum at system/core/libutils/include/utils/TypeHelpers.h:98:1)",
   "referenced_type" : "_ZTIN7android18trait_trivial_moveIbE6$valueE",
   "self_type" : "_ZTIN7android18trait_trivial_moveIbE6$valueE",
   "size" : 4,
   "source_file" : "/system/core/libutils/include/utils/TypeHelpers.h",
   "underlying_type" : "_ZTIj"
  },
  {
   "alignment" : 4,
   "enum_fields" :
   [
    {
     "enum_field_value" : 1,
     "name" : "android::trait_trivial_move<char>::value"
    }
   ],
   "linker_set_key" : "_ZTIN7android18trait_trivial_moveIcE6$valueE",
   "name" : "android::trait_trivial_move<char>::(anonymous enum at system/core/libutils/include/utils/TypeHelpers.h:99:1)",
   "referenced_type" : "_ZTIN7android18trait_trivial_moveIcE6$valueE",
   "self_type" : "_ZTIN7android18trait_trivial_moveIcE6$valueE",
   "size" : 4,
   "source_file" : "/system/core/libutils/include/utils/TypeHelpers.h",
   "underlying_type" : "_ZTIj"
  },
  {
   "alignment" : 4,
   "enum_fields" :
   [
    {
     "enum_field_value" : 1,
     "name" : "android::trait_trivial_move<double>::value"
    }
   ],
   "linker_set_key" : "_ZTIN7android18trait_trivial_moveIdE6$valueE",
   "name" : "android::trait_trivial_move<double>::(anonymous enum at system/core/libutils/include/utils/TypeHelpers.h:110:1)",
   "referenced_type" : "_ZTIN7android18trait_trivial_moveIdE6$valueE",
   "self_type" : "_ZTIN7android18trait_trivial_moveIdE6$valueE",
   "size" : 4,
   "source_file" : "/system/core/libutils/include/utils/TypeHelpers.h",
   "underlying_type" : "_ZTIj"
  },
  {
   "alignment" : 4,
   "enum_fields" :
   [
    {
     "enum_field_value" : 1,
     "name" : "android::trait_trivial_move<float>::value"
    }
   ],
   "linker_set_key" : "_ZTIN7android18trait_trivial_moveIfE6$valueE",
   "name" : "android::trait_trivial_move<float>::(anonymous enum at system/core/libutils/include/utils/TypeHelpers.h:109:1)",
   "referenced_type" : "_ZTIN7android18trait_trivial_moveIfE6$valueE",
   "self_type" : "_ZTIN7android18trait_trivial_moveIfE6$valueE",
   "size" : 4,
   "source_file" : "/system/core/libutils/include/utils/TypeHelpers.h",
   "underlying_type" : "_ZTIj"
  },
  {
   "alignment" : 4,
   "enum_fields" :
   [
    {
     "enum_field_value" : 1,
     "name" : "android::trait_trivial_move<unsigned char>::value"
    }
   ],
   "linker_set_key" : "_ZTIN7android18trait_trivial_moveIhE6$valueE",
   "name" : "android::trait_trivial_move<unsigned char>::(anonymous enum at system/core/libutils/include/utils/TypeHelpers.h:100:1)",
   "referenced_type" : "_ZTIN7android18trait_trivial_moveIhE6$valueE",
   "self_type" : "_ZTIN7android18trait_trivial_moveIhE6$valueE",
   "size" : 4,
   "source_file" : "/system/core/libutils/include/utils/TypeHelpers.h",
   "underlying_type" : "_ZTIj"
  },
  {
   "alignment" : 4,
   "enum_fields" :
   [
    {
     "enum_field_value" : 1,
     "name" : "android::trait_trivial_move<int>::value"
    }
   ],
   "linker_set_key" : "_ZTIN7android18trait_trivial_moveIiE6$valueE",
   "name" : "android::trait_trivial_move<int>::(anonymous enum at system/core/libutils/include/utils/TypeHelpers.h:103:1)",
   "referenced_type" : "_ZTIN7android18trait_trivial_moveIiE6$valueE",
   "self_type" : "_ZTIN7android18trait_trivial_moveIiE6$valueE",
   "size" : 4,
   "source_file" : "/system/core/libutils/include/utils/TypeHelpers.h",
   "underlying_type" : "_ZTIj"
  },
  {
   "alignment" : 4,
   "enum_fields" :
   [
    {
     "enum_field_value" : 1,
     "name" : "android::trait_trivial_move<unsigned int>::value"
    }
   ],
   "linker_set_key" : "_ZTIN7android18trait_trivial_moveIjE6$valueE",
   "name" : "android::trait_trivial_move<unsigned int>::(anonymous enum at system/core/libutils/include/utils/TypeHelpers.h:104:1)",
   "referenced_type" : "_ZTIN7android18trait_trivial_moveIjE6$valueE",
   "self_type" : "_ZTIN7android18trait_trivial_moveIjE6$valueE",
   "size" : 4,
   "source_file" : "/system/core/libutils/include/utils/TypeHelpers.h",
   "underlying_type" : "_ZTIj"
  },
  {
   "alignment" : 4,
   "enum_fields" :
   [
    {
     "enum_field_value" : 1,
     "name" : "android::trait_trivial_move<long>::value"
    }
   ],
   "linker_set_key" : "_ZTIN7android18trait_trivial_moveIlE6$valueE",
   "name" : "android::trait_trivial_move<long>::(anonymous enum at system/core/libutils/include/utils/TypeHelpers.h:105:1)",
   "referenced_type" : "_ZTIN7android18trait_trivial_moveIlE6$valueE",
   "self_type" : "_ZTIN7android18trait_trivial_moveIlE6$valueE",
   "size" : 4,
   "source_file" : "/system/core/libutils/include/utils/TypeHelpers.h",
   "underlying_type" : "_ZTIj"
  },
  {
   "alignment" : 4,
   "enum_fields" :
   [
    {
     "enum_field_value" : 1,
     "name" : "android::trait_trivial_move<unsigned long>::value"
    }
   ],
   "linker_set_key" : "_ZTIN7android18trait_trivial_moveImE6$valueE",
   "name" : "android::trait_trivial_move<unsigned long>::(anonymous enum at system/core/libutils/include/utils/TypeHelpers.h:106:1)",
   "referenced_type" : "_ZTIN7android18trait_trivial_moveImE6$valueE",
   "self_type" : "_ZTIN7android18trait_trivial_moveImE6$valueE",
   "size" : 4,
   "source_file" : "/system/core/libutils/include/utils/TypeHelpers.h",
   "underlying_type" : "_ZTIj"
  },
  {
   "alignment" : 4,
   "enum_fields" :
   [
    {
     "enum_field_value" : 1,
     "name" : "android::trait_trivial_move<short>::value"
    }
   ],
   "linker_set_key" : "_ZTIN7android18trait_trivial_moveIsE6$valueE",
   "name" : "android::trait_trivial_move<short>::(anonymous enum at system/core/libutils/include/utils/TypeHelpers.h:101:1)",
   "referenced_type" : "_ZTIN7android18trait_trivial_moveIsE6$valueE",
   "self_type" : "_ZTIN7android18trait_trivial_moveIsE6$valueE",
   "size" : 4,
   "source_file" : "/system/core/libutils/include/utils/TypeHelpers.h",
   "underlying_type" : "_ZTIj"
  },
  {
   "alignment" : 4,
   "enum_fields" :
   [
    {
     "enum_field_value" : 1,
     "name" : "android::trait_trivial_move<unsigned short>::value"
    }
   ],
   "linker_set_key" : "_ZTIN7android18trait_trivial_moveItE6$valueE",
   "name" : "android::trait_trivial_move<unsigned short>::(anonymous enum at system/core/libutils/include/utils/TypeHelpers.h:102:1)",
   "referenced_type" : "_ZTIN7android18trait_trivial_moveItE6$valueE",
   "self_type" : "_ZTIN7android18trait_trivial_moveItE6$valueE",
   "size" : 4,
   "source_file" : "/system/core/libutils/include/utils/TypeHelpers.h",
   "underlying_type" : "_ZTIj"
  },
  {
   "alignment" : 4,
   "enum_fields" :
   [
    {
     "enum_field_value" : 1,
     "name" : "android::trait_trivial_move<void>::value"
    }
   ],
   "linker_set_key" : "_ZTIN7android18trait_trivial_moveIvE6$valueE",
   "name" : "android::trait_trivial_move<void>::(anonymous enum at system/core/libutils/include/utils/TypeHelpers.h:97:1)",
   "referenced_type" : "_ZTIN7android18trait_trivial_moveIvE6$valueE",
   "self_type" : "_ZTIN7android18trait_trivial_moveIvE6$valueE",
   "size" : 4,
   "source_file" : "/system/core/libutils/include/utils/TypeHelpers.h",
   "underlying_type" : "_ZTIj"
  },
  {
   "alignment" : 4,
   "enum_fields" :
   [
    {
     "enum_field_value" : 1,
     "name" : "android::trait_trivial_move<long long>::value"
    }
   ],
   "linker_set_key" : "_ZTIN7android18trait_trivial_moveIxE6$valueE",
   "name" : "android::trait_trivial_move<long long>::(anonymous enum at system/core/libutils/include/utils/TypeHelpers.h:107:1)",
   "referenced_type" : "_ZTIN7android18trait_trivial_moveIxE6$valueE",
   "self_type" : "_ZTIN7android18trait_trivial_moveIxE6$valueE",
   "size" : 4,
   "source_file" : "/system/core/libutils/include/utils/TypeHelpers.h",
   "underlying_type" : "_ZTIj"
  },
  {
   "alignment" : 4,
   "enum_fields" :
   [
    {
     "enum_field_value" : 1,
     "name" : "android::trait_trivial_move<unsigned long long>::value"
    }
   ],
   "linker_set_key" : "_ZTIN7android18trait_trivial_moveIyE6$valueE",
   "name" : "android::trait_trivial_move<unsigned long long>::(anonymous enum at system/core/libutils/include/utils/TypeHelpers.h:108:1)",
   "referenced_type" : "_ZTIN7android18trait_trivial_moveIyE6$valueE",
   "self_type" : "_ZTIN7android18trait_trivial_moveIyE6$valueE",
   "size" : 4,
   "source_file" : "/system/core/libutils/include/utils/TypeHelpers.h",
   "underlying_type" : "_ZTIj"
  },
  {
   "alignment" : 4,
   "enum_fields" :
   [
    {
     "enum_field_value" : 0,
     "name" : "android::Mutex::PRIVATE"
    },
    {
     "enum_field_value" : 1,
     "name" : "android::Mutex::SHARED"
    }
   ],
   "linker_set_key" : "_ZTIN7android5Mutex8$PRIVATEE",
   "name" : "android::Mutex::(anonymous enum at system/core/libutils/include/utils/Mutex.h:96:5)",
   "referenced_type" : "_ZTIN7android5Mutex8$PRIVATEE",
   "self_type" : "_ZTIN7android5Mutex8$PRIVATEE",
   "size" : 4,
   "source_file" : "/system/core/libutils/include/utils/Mutex.h",
   "underlying_type" : "_ZTIj"
  },
  {
   "alignment" : 4,
   "enum_fields" :
   [
    {
     "enum_field_value" : 0,
     "name" : "android::RWLock::PRIVATE"
    },
    {
     "enum_field_value" : 1,
     "name" : "android::RWLock::SHARED"
    }
   ],
   "linker_set_key" : "_ZTIN7android6RWLock8$PRIVATEE",
   "name" : "android::RWLock::(anonymous enum at system/core/libutils/include/utils/RWLock.h:44:5)",
   "referenced_type" : "_ZTIN7android6RWLock8$PRIVATEE",
   "self_type" : "_ZTIN7android6RWLock8$PRIVATEE",
   "size" : 4,
   "source_file" : "/system/core/libutils/include/utils/RWLock.h",
   "underlying_type" : "_ZTIj"
  },
  {
   "alignment" : 4,
   "enum_fields" :
   [
    {
     "enum_field_value" : 0,
     "name" : "android::binder::Status::EX_NONE"
    },
    {
     "enum_field_value" : -1,
     "name" : "android::binder::Status::EX_SECURITY"
    },
    {
     "enum_field_value" : -2,
     "name" : "android::binder::Status::EX_BAD_PARCELABLE"
    },
    {
     "enum_field_value" : -3,
     "name" : "android::binder::Status::EX_ILLEGAL_ARGUMENT"
    },
    {
     "enum_field_value" : -4,
     "name" : "android::binder::Status::EX_NULL_POINTER"
    },
    {
     "enum_field_value" : -5,
     "name" : "android::binder::Status::EX_ILLEGAL_STATE"
    },
    {
     "enum_field_value" : -6,
     "name" : "android::binder::Status::EX_NETWORK_MAIN_THREAD"
    },
    {
     "enum_field_value" : -7,
     "name" : "android::binder::Status::EX_UNSUPPORTED_OPERATION"
    },
    {
     "enum_field_value" : -8,
     "name" : "android::binder::Status::EX_SERVICE_SPECIFIC"
    },
    {
     "enum_field_value" : -9,
     "name" : "android::binder::Status::EX_PARCELABLE"
    },
    {
     "enum_field_value" : -128,
     "name" : "android::binder::Status::EX_HAS_REPLY_HEADER"
    },
    {
     "enum_field_value" : -129,
     "name" : "android::binder::Status::EX_TRANSACTION_FAILED"
    }
   ],
   "linker_set_key" : "_ZTIN7android6binder6Status9ExceptionE",
   "name" : "android::binder::Status::Exception",
   "referenced_type" : "_ZTIN7android6binder6Status9ExceptionE",
   "self_type" : "_ZTIN7android6binder6Status9ExceptionE",
   "size" : 4,
   "source_file" : "/frameworks/native/libs/binder/include/binder/Status.h",
   "underlying_type" : "_ZTIi"
  },
  {
   "alignment" : 4,
   "enum_fields" :
   [
    {
     "enum_field_value" : 0,
     "name" : "android::traits<android::ProcessState::handle_entry>::is_pointer"
    },
    {
     "enum_field_value" : 0,
     "name" : "android::traits<android::ProcessState::handle_entry>::has_trivial_ctor"
    },
    {
     "enum_field_value" : 0,
     "name" : "android::traits<android::ProcessState::handle_entry>::has_trivial_dtor"
    },
    {
     "enum_field_value" : 0,
     "name" : "android::traits<android::ProcessState::handle_entry>::has_trivial_copy"
    },
    {
     "enum_field_value" : 0,
     "name" : "android::traits<android::ProcessState::handle_entry>::has_trivial_move"
    }
   ],
   "linker_set_key" : "_ZTIN7android6traitsINS_12ProcessState12handle_entryEE17$has_trivial_copyE",
   "name" : "android::traits<handle_entry>::(anonymous enum at system/core/libutils/include/utils/TypeHelpers.h:44:5)",
   "referenced_type" : "_ZTIN7android6traitsINS_12ProcessState12handle_entryEE17$has_trivial_copyE",
   "self_type" : "_ZTIN7android6traitsINS_12ProcessState12handle_entryEE17$has_trivial_copyE",
   "size" : 4,
   "source_file" : "/system/core/libutils/include/utils/TypeHelpers.h",
   "underlying_type" : "_ZTIj"
  },
  {
   "alignment" : 4,
   "enum_fields" :
   [
    {
     "enum_field_value" : 0,
     "name" : "android::traits<android::key_value_pair_t<android::wp<android::IBinder>, android::HeapCache::heap_info_t> >::is_pointer"
    },
    {
     "enum_field_value" : 0,
     "name" : "android::traits<android::key_value_pair_t<android::wp<android::IBinder>, android::HeapCache::heap_info_t> >::has_trivial_ctor"
    },
    {
     "enum_field_value" : 0,
     "name" : "android::traits<android::key_value_pair_t<android::wp<android::IBinder>, android::HeapCache::heap_info_t> >::has_trivial_dtor"
    },
    {
     "enum_field_value" : 0,
     "name" : "android::traits<android::key_value_pair_t<android::wp<android::IBinder>, android::HeapCache::heap_info_t> >::has_trivial_copy"
    },
    {
     "enum_field_value" : 0,
     "name" : "android::traits<android::key_value_pair_t<android::wp<android::IBinder>, android::HeapCache::heap_info_t> >::has_trivial_move"
    }
   ],
   "linker_set_key" : "_ZTIN7android6traitsINS_16key_value_pair_tINS_2wpINS_7IBinderEEENS_9HeapCache11heap_info_tEEEE17$has_trivial_copyE",
   "name" : "android::traits<key_value_pair_t<wp<IBinder>, heap_info_t> >::(anonymous enum at system/core/libutils/include/utils/TypeHelpers.h:44:5)",
   "referenced_type" : "_ZTIN7android6traitsINS_16key_value_pair_tINS_2wpINS_7IBinderEEENS_9HeapCache11heap_info_tEEEE17$has_trivial_copyE",
   "self_type" : "_ZTIN7android6traitsINS_16key_value_pair_tINS_2wpINS_7IBinderEEENS_9HeapCache11heap_info_tEEEE17$has_trivial_copyE",
   "size" : 4,
   "source_file" : "/system/core/libutils/include/utils/TypeHelpers.h",
   "underlying_type" : "_ZTIj"
  },
  {
   "alignment" : 4,
   "enum_fields" :
   [
    {
     "enum_field_value" : 0,
     "name" : "android::traits<android::key_value_pair_t<const void *, android::BpBinder::ObjectManager::entry_t> >::is_pointer"
    },
    {
     "enum_field_value" : 0,
     "name" : "android::traits<android::key_value_pair_t<const void *, android::BpBinder::ObjectManager::entry_t> >::has_trivial_ctor"
    },
    {
     "enum_field_value" : 0,
     "name" : "android::traits<android::key_value_pair_t<const void *, android::BpBinder::ObjectManager::entry_t> >::has_trivial_dtor"
    },
    {
     "enum_field_value" : 0,
     "name" : "android::traits<android::key_value_pair_t<const void *, android::BpBinder::ObjectManager::entry_t> >::has_trivial_copy"
    },
    {
     "enum_field_value" : 0,
     "name" : "android::traits<android::key_value_pair_t<const void *, android::BpBinder::ObjectManager::entry_t> >::has_trivial_move"
    }
   ],
   "linker_set_key" : "_ZTIN7android6traitsINS_16key_value_pair_tIPKvNS_8BpBinder13ObjectManager7entry_tEEEE17$has_trivial_copyE",
   "name" : "android::traits<key_value_pair_t<const void *, entry_t> >::(anonymous enum at system/core/libutils/include/utils/TypeHelpers.h:44:5)",
   "referenced_type" : "_ZTIN7android6traitsINS_16key_value_pair_tIPKvNS_8BpBinder13ObjectManager7entry_tEEEE17$has_trivial_copyE",
   "self_type" : "_ZTIN7android6traitsINS_16key_value_pair_tIPKvNS_8BpBinder13ObjectManager7entry_tEEEE17$has_trivial_copyE",
   "size" : 4,
   "source_file" : "/system/core/libutils/include/utils/TypeHelpers.h",
   "underlying_type" : "_ZTIj"
  },
  {
   "alignment" : 4,
   "enum_fields" :
   [
    {
     "enum_field_value" : 0,
     "name" : "android::traits<android::sp<android::BufferedTextOutput::BufferState> >::is_pointer"
    },
    {
     "enum_field_value" : 0,
     "name" : "android::traits<android::sp<android::BufferedTextOutput::BufferState> >::has_trivial_ctor"
    },
    {
     "enum_field_value" : 0,
     "name" : "android::traits<android::sp<android::BufferedTextOutput::BufferState> >::has_trivial_dtor"
    },
    {
     "enum_field_value" : 0,
     "name" : "android::traits<android::sp<android::BufferedTextOutput::BufferState> >::has_trivial_copy"
    },
    {
     "enum_field_value" : 0,
     "name" : "android::traits<android::sp<android::BufferedTextOutput::BufferState> >::has_trivial_move"
    }
   ],
   "linker_set_key" : "_ZTIN7android6traitsINS_2spINS_18BufferedTextOutput11BufferStateEEEE17$has_trivial_copyE",
   "name" : "android::traits<sp<BufferState> >::(anonymous enum at system/core/libutils/include/utils/TypeHelpers.h:44:5)",
   "referenced_type" : "_ZTIN7android6traitsINS_2spINS_18BufferedTextOutput11BufferStateEEEE17$has_trivial_copyE",
   "self_type" : "_ZTIN7android6traitsINS_2spINS_18BufferedTextOutput11BufferStateEEEE17$has_trivial_copyE",
   "size" : 4,
   "source_file" : "/system/core/libutils/include/utils/TypeHelpers.h",
   "underlying_type" : "_ZTIj"
  },
  {
   "alignment" : 4,
   "enum_fields" :
   [
    {
     "enum_field_value" : 0,
     "name" : "android::traits<android::wp<android::IBinder> >::is_pointer"
    },
    {
     "enum_field_value" : 0,
     "name" : "android::traits<android::wp<android::IBinder> >::has_trivial_ctor"
    },
    {
     "enum_field_value" : 0,
     "name" : "android::traits<android::wp<android::IBinder> >::has_trivial_dtor"
    },
    {
     "enum_field_value" : 0,
     "name" : "android::traits<android::wp<android::IBinder> >::has_trivial_copy"
    },
    {
     "enum_field_value" : 0,
     "name" : "android::traits<android::wp<android::IBinder> >::has_trivial_move"
    }
   ],
   "linker_set_key" : "_ZTIN7android6traitsINS_2wpINS_7IBinderEEEE17$has_trivial_copyE",
   "name" : "android::traits<wp<IBinder> >::(anonymous enum at system/core/libutils/include/utils/TypeHelpers.h:44:5)",
   "referenced_type" : "_ZTIN7android6traitsINS_2wpINS_7IBinderEEEE17$has_trivial_copyE",
   "self_type" : "_ZTIN7android6traitsINS_2wpINS_7IBinderEEEE17$has_trivial_copyE",
   "size" : 4,
   "source_file" : "/system/core/libutils/include/utils/TypeHelpers.h",
   "underlying_type" : "_ZTIj"
  },
  {
   "alignment" : 4,
   "enum_fields" :
   [
    {
     "enum_field_value" : 0,
     "name" : "android::traits<android::BpBinder::ObjectManager::entry_t>::is_pointer"
    },
    {
     "enum_field_value" : 0,
     "name" : "android::traits<android::BpBinder::ObjectManager::entry_t>::has_trivial_ctor"
    },
    {
     "enum_field_value" : 0,
     "name" : "android::traits<android::BpBinder::ObjectManager::entry_t>::has_trivial_dtor"
    },
    {
     "enum_field_value" : 0,
     "name" : "android::traits<android::BpBinder::ObjectManager::entry_t>::has_trivial_copy"
    },
    {
     "enum_field_value" : 0,
     "name" : "android::traits<android::BpBinder::ObjectManager::entry_t>::has_trivial_move"
    }
   ],
   "linker_set_key" : "_ZTIN7android6traitsINS_8BpBinder13ObjectManager7entry_tEE17$has_trivial_copyE",
   "name" : "android::traits<entry_t>::(anonymous enum at system/core/libutils/include/utils/TypeHelpers.h:44:5)",
   "referenced_type" : "_ZTIN7android6traitsINS_8BpBinder13ObjectManager7entry_tEE17$has_trivial_copyE",
   "self_type" : "_ZTIN7android6traitsINS_8BpBinder13ObjectManager7entry_tEE17$has_trivial_copyE",
   "size" : 4,
   "source_file" : "/system/core/libutils/include/utils/TypeHelpers.h",
   "underlying_type" : "_ZTIj"
  },
  {
   "alignment" : 4,
   "enum_fields" :
   [
    {
     "enum_field_value" : 0,
     "name" : "android::traits<android::BpBinder::Obituary>::is_pointer"
    },
    {
     "enum_field_value" : 0,
     "name" : "android::traits<android::BpBinder::Obituary>::has_trivial_ctor"
    },
    {
     "enum_field_value" : 0,
     "name" : "android::traits<android::BpBinder::Obituary>::has_trivial_dtor"
    },
    {
     "enum_field_value" : 0,
     "name" : "android::traits<android::BpBinder::Obituary>::has_trivial_copy"
    },
    {
     "enum_field_value" : 0,
     "name" : "android::traits<android::BpBinder::Obituary>::has_trivial_move"
    }
   ],
   "linker_set_key" : "_ZTIN7android6traitsINS_8BpBinder8ObituaryEE17$has_trivial_copyE",
   "name" : "android::traits<Obituary>::(anonymous enum at system/core/libutils/include/utils/TypeHelpers.h:44:5)",
   "referenced_type" : "_ZTIN7android6traitsINS_8BpBinder8ObituaryEE17$has_trivial_copyE",
   "self_type" : "_ZTIN7android6traitsINS_8BpBinder8ObituaryEE17$has_trivial_copyE",
   "size" : 4,
   "source_file" : "/system/core/libutils/include/utils/TypeHelpers.h",
   "underlying_type" : "_ZTIj"
  },
  {
   "alignment" : 4,
   "enum_fields" :
   [
    {
     "enum_field_value" : 0,
     "name" : "android::traits<android::String16>::is_pointer"
    },
    {
     "enum_field_value" : 0,
     "name" : "android::traits<android::String16>::has_trivial_ctor"
    },
    {
     "enum_field_value" : 0,
     "name" : "android::traits<android::String16>::has_trivial_dtor"
    },
    {
     "enum_field_value" : 0,
     "name" : "android::traits<android::String16>::has_trivial_copy"
    },
    {
     "enum_field_value" : 1,
     "name" : "android::traits<android::String16>::has_trivial_move"
    }
   ],
   "linker_set_key" : "_ZTIN7android6traitsINS_8String16EE17$has_trivial_copyE",
   "name" : "android::traits<String16>::(anonymous enum at system/core/libutils/include/utils/TypeHelpers.h:44:5)",
   "referenced_type" : "_ZTIN7android6traitsINS_8String16EE17$has_trivial_copyE",
   "self_type" : "_ZTIN7android6traitsINS_8String16EE17$has_trivial_copyE",
   "size" : 4,
   "source_file" : "/system/core/libutils/include/utils/TypeHelpers.h",
   "underlying_type" : "_ZTIj"
  },
  {
   "alignment" : 4,
   "enum_fields" :
   [
    {
     "enum_field_value" : 0,
     "name" : "android::traits<android::HeapCache::heap_info_t>::is_pointer"
    },
    {
     "enum_field_value" : 0,
     "name" : "android::traits<android::HeapCache::heap_info_t>::has_trivial_ctor"
    },
    {
     "enum_field_value" : 0,
     "name" : "android::traits<android::HeapCache::heap_info_t>::has_trivial_dtor"
    },
    {
     "enum_field_value" : 0,
     "name" : "android::traits<android::HeapCache::heap_info_t>::has_trivial_copy"
    },
    {
     "enum_field_value" : 0,
     "name" : "android::traits<android::HeapCache::heap_info_t>::has_trivial_move"
    }
   ],
   "linker_set_key" : "_ZTIN7android6traitsINS_9HeapCache11heap_info_tEE17$has_trivial_copyE",
   "name" : "android::traits<heap_info_t>::(anonymous enum at system/core/libutils/include/utils/TypeHelpers.h:44:5)",
   "referenced_type" : "_ZTIN7android6traitsINS_9HeapCache11heap_info_tEE17$has_trivial_copyE",
   "self_type" : "_ZTIN7android6traitsINS_9HeapCache11heap_info_tEE17$has_trivial_copyE",
   "size" : 4,
   "source_file" : "/system/core/libutils/include/utils/TypeHelpers.h",
   "underlying_type" : "_ZTIj"
  },
  {
   "alignment" : 4,
   "enum_fields" :
   [
    {
     "enum_field_value" : 1,
     "name" : "android::traits<const void *>::is_pointer"
    },
    {
     "enum_field_value" : 1,
     "name" : "android::traits<const void *>::has_trivial_ctor"
    },
    {
     "enum_field_value" : 1,
     "name" : "android::traits<const void *>::has_trivial_dtor"
    },
    {
     "enum_field_value" : 1,
     "name" : "android::traits<const void *>::has_trivial_copy"
    },
    {
     "enum_field_value" : 1,
     "name" : "android::traits<const void *>::has_trivial_move"
    }
   ],
   "linker_set_key" : "_ZTIN7android6traitsIPKvE17$has_trivial_copyE",
   "name" : "android::traits<const void *>::(anonymous enum at system/core/libutils/include/utils/TypeHelpers.h:44:5)",
   "referenced_type" : "_ZTIN7android6traitsIPKvE17$has_trivial_copyE",
   "self_type" : "_ZTIN7android6traitsIPKvE17$has_trivial_copyE",
   "size" : 4,
   "source_file" : "/system/core/libutils/include/utils/TypeHelpers.h",
   "underlying_type" : "_ZTIj"
  },
  {
   "alignment" : 4,
   "enum_fields" :
   [
    {
     "enum_field_value" : 1,
     "name" : "android::traits<android::BBinder *>::is_pointer"
    },
    {
     "enum_field_value" : 1,
     "name" : "android::traits<android::BBinder *>::has_trivial_ctor"
    },
    {
     "enum_field_value" : 1,
     "name" : "android::traits<android::BBinder *>::has_trivial_dtor"
    },
    {
     "enum_field_value" : 1,
     "name" : "android::traits<android::BBinder *>::has_trivial_copy"
    },
    {
     "enum_field_value" : 1,
     "name" : "android::traits<android::BBinder *>::has_trivial_move"
    }
   ],
   "linker_set_key" : "_ZTIN7android6traitsIPNS_7BBinderEE17$has_trivial_copyE",
   "name" : "android::traits<BBinder *>::(anonymous enum at system/core/libutils/include/utils/TypeHelpers.h:44:5)",
   "referenced_type" : "_ZTIN7android6traitsIPNS_7BBinderEE17$has_trivial_copyE",
   "self_type" : "_ZTIN7android6traitsIPNS_7BBinderEE17$has_trivial_copyE",
   "size" : 4,
   "source_file" : "/system/core/libutils/include/utils/TypeHelpers.h",
   "underlying_type" : "_ZTIj"
  },
  {
   "alignment" : 4,
   "enum_fields" :
   [
    {
     "enum_field_value" : 1,
     "name" : "android::traits<android::RefBase::weakref_type *>::is_pointer"
    },
    {
     "enum_field_value" : 1,
     "name" : "android::traits<android::RefBase::weakref_type *>::has_trivial_ctor"
    },
    {
     "enum_field_value" : 1,
     "name" : "android::traits<android::RefBase::weakref_type *>::has_trivial_dtor"
    },
    {
     "enum_field_value" : 1,
     "name" : "android::traits<android::RefBase::weakref_type *>::has_trivial_copy"
    },
    {
     "enum_field_value" : 1,
     "name" : "android::traits<android::RefBase::weakref_type *>::has_trivial_move"
    }
   ],
   "linker_set_key" : "_ZTIN7android6traitsIPNS_7RefBase12weakref_typeEE17$has_trivial_copyE",
   "name" : "android::traits<weakref_type *>::(anonymous enum at system/core/libutils/include/utils/TypeHelpers.h:44:5)",
   "referenced_type" : "_ZTIN7android6traitsIPNS_7RefBase12weakref_typeEE17$has_trivial_copyE",
   "self_type" : "_ZTIN7android6traitsIPNS_7RefBase12weakref_typeEE17$has_trivial_copyE",
   "size" : 4,
   "source_file" : "/system/core/libutils/include/utils/TypeHelpers.h",
   "underlying_type" : "_ZTIj"
  },
  {
   "alignment" : 4,
   "enum_fields" :
   [
    {
     "enum_field_value" : 1,
     "name" : "android::traits<android::RefBase *>::is_pointer"
    },
    {
     "enum_field_value" : 1,
     "name" : "android::traits<android::RefBase *>::has_trivial_ctor"
    },
    {
     "enum_field_value" : 1,
     "name" : "android::traits<android::RefBase *>::has_trivial_dtor"
    },
    {
     "enum_field_value" : 1,
     "name" : "android::traits<android::RefBase *>::has_trivial_copy"
    },
    {
     "enum_field_value" : 1,
     "name" : "android::traits<android::RefBase *>::has_trivial_move"
    }
   ],
   "linker_set_key" : "_ZTIN7android6traitsIPNS_7RefBaseEE17$has_trivial_copyE",
   "name" : "android::traits<RefBase *>::(anonymous enum at system/core/libutils/include/utils/TypeHelpers.h:44:5)",
   "referenced_type" : "_ZTIN7android6traitsIPNS_7RefBaseEE17$has_trivial_copyE",
   "self_type" : "_ZTIN7android6traitsIPNS_7RefBaseEE17$has_trivial_copyE",
   "size" : 4,
   "source_file" : "/system/core/libutils/include/utils/TypeHelpers.h",
   "underlying_type" : "_ZTIj"
  },
  {
   "alignment" : 4,
   "enum_fields" :
   [
    {
     "enum_field_value" : 0,
     "name" : "android::traits<int>::is_pointer"
    },
    {
     "enum_field_value" : 1,
     "name" : "android::traits<int>::has_trivial_ctor"
    },
    {
     "enum_field_value" : 1,
     "name" : "android::traits<int>::has_trivial_dtor"
    },
    {
     "enum_field_value" : 1,
     "name" : "android::traits<int>::has_trivial_copy"
    },
    {
     "enum_field_value" : 1,
     "name" : "android::traits<int>::has_trivial_move"
    }
   ],
   "linker_set_key" : "_ZTIN7android6traitsIiE17$has_trivial_copyE",
   "name" : "android::traits<int>::(anonymous enum at system/core/libutils/include/utils/TypeHelpers.h:44:5)",
   "referenced_type" : "_ZTIN7android6traitsIiE17$has_trivial_copyE",
   "self_type" : "_ZTIN7android6traitsIiE17$has_trivial_copyE",
   "size" : 4,
   "source_file" : "/system/core/libutils/include/utils/TypeHelpers.h",
   "underlying_type" : "_ZTIj"
  },
  {
   "alignment" : 4,
   "enum_fields" :
   [
    {
     "enum_field_value" : 1,
     "name" : "android::IBinder::FIRST_CALL_TRANSACTION"
    },
    {
     "enum_field_value" : 16777215,
     "name" : "android::IBinder::LAST_CALL_TRANSACTION"
    },
    {
     "enum_field_value" : 1599098439,
     "name" : "android::IBinder::PING_TRANSACTION"
    },
    {
     "enum_field_value" : 1598311760,
     "name" : "android::IBinder::DUMP_TRANSACTION"
    },
    {
     "enum_field_value" : 1598246212,
     "name" : "android::IBinder::SHELL_COMMAND_TRANSACTION"
    },
    {
     "enum_field_value" : 1598968902,
     "name" : "android::IBinder::INTERFACE_TRANSACTION"
    },
    {
     "enum_field_value" : 1599295570,
     "name" : "android::IBinder::SYSPROPS_TRANSACTION"
    },
    {
     "enum_field_value" : 1598380116,
     "name" : "android::IBinder::EXTENSION_TRANSACTION"
    },
    {
     "enum_field_value" : 1599097156,
     "name" : "android::IBinder::DEBUG_PID_TRANSACTION"
    },
    {
     "enum_field_value" : 1,
     "name" : "android::IBinder::FLAG_ONEWAY"
    },
    {
     "enum_field_value" : 268435456,
     "name" : "android::IBinder::FLAG_PRIVATE_VENDOR"
    }
   ],
   "linker_set_key" : "_ZTIN7android7IBinder22$DEBUG_PID_TRANSACTIONE",
   "name" : "android::IBinder::(anonymous enum at frameworks/native/libs/binder/include/binder/IBinder.h:52:5)",
   "referenced_type" : "_ZTIN7android7IBinder22$DEBUG_PID_TRANSACTIONE",
   "self_type" : "_ZTIN7android7IBinder22$DEBUG_PID_TRANSACTIONE",
   "size" : 4,
   "source_file" : "/frameworks/native/libs/binder/include/binder/IBinder.h",
   "underlying_type" : "_ZTIj"
  },
  {
   "access" : "protected",
   "alignment" : 4,
   "enum_fields" :
   [
    {
     "enum_field_value" : 1,
     "name" : "android::RefBase::FIRST_INC_STRONG"
    }
   ],
   "linker_set_key" : "_ZTIN7android7RefBase17$FIRST_INC_STRONGE",
   "name" : "android::RefBase::(anonymous enum at system/core/libutils/include/utils/RefBase.h:313:5)",
   "referenced_type" : "_ZTIN7android7RefBase17$FIRST_INC_STRONGE",
   "self_type" : "_ZTIN7android7RefBase17$FIRST_INC_STRONGE",
   "size" : 4,
   "source_file" : "/system/core/libutils/include/utils/RefBase.h",
   "underlying_type" : "_ZTIj"
  },
  {
   "access" : "protected",
   "alignment" : 4,
   "enum_fields" :
   [
    {
     "enum_field_value" : 0,
     "name" : "android::RefBase::OBJECT_LIFETIME_STRONG"
    },
    {
     "enum_field_value" : 1,
     "name" : "android::RefBase::OBJECT_LIFETIME_WEAK"
    },
    {
     "enum_field_value" : 1,
     "name" : "android::RefBase::OBJECT_LIFETIME_MASK"
    }
   ],
   "linker_set_key" : "_ZTIN7android7RefBase21$OBJECT_LIFETIME_MASKE",
   "name" : "android::RefBase::(anonymous enum at system/core/libutils/include/utils/RefBase.h:304:5)",
   "referenced_type" : "_ZTIN7android7RefBase21$OBJECT_LIFETIME_MASKE",
   "self_type" : "_ZTIN7android7RefBase21$OBJECT_LIFETIME_MASKE",
   "size" : 4,
   "source_file" : "/system/core/libutils/include/utils/RefBase.h",
   "underlying_type" : "_ZTIj"
  },
  {
   "alignment" : 4,
   "enum_fields" :
   [
    {
     "enum_field_value" : 0,
     "name" : "android::String8::kEmptyString"
    }
   ],
   "linker_set_key" : "_ZTIN7android7String813StaticLinkageE",
   "name" : "android::String8::StaticLinkage",
   "referenced_type" : "_ZTIN7android7String813StaticLinkageE",
   "self_type" : "_ZTIN7android7String813StaticLinkageE",
   "size" : 4,
   "source_file" : "/system/core/libutils/include/utils/String8.h",
   "underlying_type" : "_ZTIj"
  },
  {
   "alignment" : 4,
   "enum_fields" :
   [
    {
     "enum_field_value" : 0,
     "name" : "android::String16::kEmptyString"
    }
   ],
   "linker_set_key" : "_ZTIN7android8String1613StaticLinkageE",
   "name" : "android::String16::StaticLinkage",
   "referenced_type" : "_ZTIN7android8String1613StaticLinkageE",
   "self_type" : "_ZTIN7android8String1613StaticLinkageE",
   "size" : 4,
   "source_file" : "/system/core/libutils/include/utils/String16.h",
   "underlying_type" : "_ZTIj"
  },
  {
   "access" : "private",
   "alignment" : 4,
   "enum_fields" :
   [
    {
     "enum_field_value" : 0,
     "name" : "android::internal::Stability::UNDECLARED"
    },
    {
     "enum_field_value" : 3,
     "name" : "android::internal::Stability::VENDOR"
    },
    {
     "enum_field_value" : 12,
     "name" : "android::internal::Stability::SYSTEM"
    },
    {
     "enum_field_value" : 63,
     "name" : "android::internal::Stability::VINTF"
    }
   ],
   "linker_set_key" : "_ZTIN7android8internal9Stability5LevelE",
   "name" : "android::internal::Stability::Level",
   "referenced_type" : "_ZTIN7android8internal9Stability5LevelE",
   "self_type" : "_ZTIN7android8internal9Stability5LevelE",
   "size" : 4,
   "source_file" : "/frameworks/native/libs/binder/include/binder/Stability.h",
   "underlying_type" : "_ZTIi"
  },
  {
   "alignment" : 4,
   "enum_fields" :
   [
    {
     "enum_field_value" : 0,
     "name" : "android::Condition::WAKE_UP_ONE"
    },
    {
     "enum_field_value" : 1,
     "name" : "android::Condition::WAKE_UP_ALL"
    }
   ],
   "linker_set_key" : "_ZTIN7android9Condition10WakeUpTypeE",
   "name" : "android::Condition::WakeUpType",
   "referenced_type" : "_ZTIN7android9Condition10WakeUpTypeE",
   "self_type" : "_ZTIN7android9Condition10WakeUpTypeE",
   "size" : 4,
   "source_file" : "/system/core/libutils/include/utils/Condition.h",
   "underlying_type" : "_ZTIj"
  },
  {
   "alignment" : 4,
   "enum_fields" :
   [
    {
     "enum_field_value" : 0,
     "name" : "android::Condition::PRIVATE"
    },
    {
     "enum_field_value" : 1,
     "name" : "android::Condition::SHARED"
    }
   ],
   "linker_set_key" : "_ZTIN7android9Condition8$PRIVATEE",
   "name" : "android::Condition::(anonymous enum at system/core/libutils/include/utils/Condition.h:54:5)",
   "referenced_type" : "_ZTIN7android9Condition8$PRIVATEE",
   "self_type" : "_ZTIN7android9Condition8$PRIVATEE",
   "size" : 4,
   "source_file" : "/system/core/libutils/include/utils/Condition.h",
   "underlying_type" : "_ZTIj"
  }
 ],
 "function_types" :
 [
  {
   "alignment" : 4,
   "linker_set_key" : "_ZTIFRN7android10TextOutputES1_E",
   "name" : "android::TextOutput &(android::TextOutput &)",
   "parameters" :
   [
    {
     "referenced_type" : "_ZTIRN7android10TextOutputE"
    }
   ],
   "referenced_type" : "_ZTIFRN7android10TextOutputES1_E",
   "return_type" : "_ZTIRN7android10TextOutputE",
   "self_type" : "_ZTIFRN7android10TextOutputES1_E",
   "source_file" : "/frameworks/native/libs/binder/include/binder/TextOutput.h"
  },
  {
   "alignment" : 4,
   "linker_set_key" : "_ZTIFRNSt3__113basic_ostreamIcNS_11char_traitsIcEEEES4_E",
   "name" : "std::__1::basic_ostream<char> &(std::__1::basic_ostream<char> &)",
   "parameters" :
   [
    {
     "referenced_type" : "_ZTIRNSt3__113basic_ostreamIcNS_11char_traitsIcEEEE"
    }
   ],
   "referenced_type" : "_ZTIFRNSt3__113basic_ostreamIcNS_11char_traitsIcEEEES4_E",
   "return_type" : "_ZTIRNSt3__113basic_ostreamIcNS_11char_traitsIcEEEE",
   "self_type" : "_ZTIFRNSt3__113basic_ostreamIcNS_11char_traitsIcEEEES4_E",
   "source_file" : "/frameworks/native/libs/binder/include/binder/TextOutput.h"
  },
  {
   "alignment" : 4,
   "linker_set_key" : "_ZTIFbRKN7android8String16ERKNS_2spINS_7IBinderEEEPvE",
   "name" : "bool (const android::String16 &, const android::sp<android::IBinder> &, void *)",
   "parameters" :
   [
    {
     "referenced_type" : "_ZTIRKN7android8String16E"
    },
    {
     "referenced_type" : "_ZTIRKN7android2spINS_7IBinderEEE"
    },
    {
     "referenced_type" : "_ZTIPv"
    }
   ],
   "referenced_type" : "_ZTIFbRKN7android8String16ERKNS_2spINS_7IBinderEEEPvE",
   "return_type" : "_ZTIb",
   "self_type" : "_ZTIFbRKN7android8String16ERKNS_2spINS_7IBinderEEEPvE",
   "source_file" : "/frameworks/native/libs/binder/include/binder/ProcessState.h"
  },
  {
   "alignment" : 4,
   "linker_set_key" : "_ZTIFiPvE",
   "name" : "int (void *)",
   "parameters" :
   [
    {
     "referenced_type" : "_ZTIPv"
    }
   ],
   "referenced_type" : "_ZTIFiPvE",
   "return_type" : "_ZTIi",
   "self_type" : "_ZTIFiPvE",
   "source_file" : "/system/core/libutils/include/utils/AndroidThreads.h"
  },
  {
   "alignment" : 4,
   "linker_set_key" : "_ZTIFvPKvPvS1_E",
   "name" : "void (const void *, void *, void *)",
   "parameters" :
   [
    {
     "referenced_type" : "_ZTIPKv"
    },
    {
     "referenced_type" : "_ZTIPv"
    },
    {
     "referenced_type" : "_ZTIPv"
    }
   ],
   "referenced_type" : "_ZTIFvPKvPvS1_E",
   "return_type" : "_ZTIv",
   "self_type" : "_ZTIFvPKvPvS1_E",
   "source_file" : "/frameworks/native/libs/binder/include/binder/BpBinder.h"
  },
  {
   "alignment" : 4,
   "linker_set_key" : "_ZTIFvPN7android6ParcelEPKhmPKymPvE",
   "name" : "void (android::Parcel *, const unsigned char *, unsigned long, const unsigned long long *, unsigned long, void *)",
   "parameters" :
   [
    {
     "referenced_type" : "_ZTIPN7android6ParcelE"
    },
    {
     "referenced_type" : "_ZTIPKh"
    },
    {
     "referenced_type" : "_ZTIm"
    },
    {
     "referenced_type" : "_ZTIPKy"
    },
    {
     "referenced_type" : "_ZTIm"
    },
    {
     "referenced_type" : "_ZTIPv"
    }
   ],
   "referenced_type" : "_ZTIFvPN7android6ParcelEPKhmPKymPvE",
   "return_type" : "_ZTIv",
   "self_type" : "_ZTIFvPN7android6ParcelEPKhmPKymPvE",
   "source_file" : "/frameworks/native/libs/binder/include/binder/Parcel.h"
  },
  {
   "alignment" : 4,
   "linker_set_key" : "_ZTIFvPvPKcE",
   "name" : "void (void *, const char *)",
   "parameters" :
   [
    {
     "referenced_type" : "_ZTIPv"
    },
    {
     "referenced_type" : "_ZTIPKc"
    }
   ],
   "referenced_type" : "_ZTIFvPvPKcE",
   "return_type" : "_ZTIv",
   "self_type" : "_ZTIFvPvPKcE",
   "source_file" : "/frameworks/native/libs/binder/include/binder/Debug.h"
  },
  {
   "alignment" : 4,
   "linker_set_key" : "_ZTIFviE",
   "name" : "void (int)",
   "parameters" :
   [
    {
     "referenced_type" : "_ZTIi"
    }
   ],
   "referenced_type" : "_ZTIFviE",
   "return_type" : "_ZTIv",
   "self_type" : "_ZTIFviE",
   "source_file" : "/frameworks/native/libs/binder/include/binder/BpBinder.h"
  }
 ],
 "functions" :
 [
  {
   "function_name" : "android::IInterface::asBinder",
   "linker_set_key" : "_ZN7android10IInterface8asBinderEPKS0_",
   "parameters" :
   [
    {
     "referenced_type" : "_ZTIPKN7android10IInterfaceE"
    }
   ],
   "return_type" : "_ZTIN7android2spINS_7IBinderEEE",
   "source_file" : "/frameworks/native/libs/binder/include/binder/IInterface.h"
  },
  {
   "function_name" : "android::IInterface::asBinder",
   "linker_set_key" : "_ZN7android10IInterface8asBinderERKNS_2spIS0_EE",
   "parameters" :
   [
    {
     "referenced_type" : "_ZTIRKN7android2spINS_10IInterfaceEEE"
    }
   ],
   "return_type" : "_ZTIN7android2spINS_7IBinderEEE",
   "source_file" : "/frameworks/native/libs/binder/include/binder/IInterface.h"
  },
  {
   "function_name" : "android::IInterface::IInterface",
   "linker_set_key" : "_ZN7android10IInterfaceC2Ev",
   "parameters" :
   [
    {
     "is_this_ptr" : true,
     "referenced_type" : "_ZTIPN7android10IInterfaceE"
    }
   ],
   "return_type" : "_ZTIv",
   "source_file" : "/frameworks/native/libs/binder/include/binder/IInterface.h"
  },
  {
   "access" : "protected",
   "function_name" : "android::IInterface::~IInterface",
   "linker_set_key" : "_ZN7android10IInterfaceD0Ev",
   "parameters" :
   [
    {
     "is_this_ptr" : true,
     "referenced_type" : "_ZTIPN7android10IInterfaceE"
    }
   ],
   "return_type" : "_ZTIv",
   "source_file" : "/frameworks/native/libs/binder/include/binder/IInterface.h"
  },
  {
   "access" : "protected",
   "function_name" : "android::IInterface::~IInterface",
   "linker_set_key" : "_ZN7android10IInterfaceD1Ev",
   "parameters" :
   [
    {
     "is_this_ptr" : true,
     "referenced_type" : "_ZTIPN7android10IInterfaceE"
    }
   ],
   "return_type" : "_ZTIv",
   "source_file" : "/frameworks/native/libs/binder/include/binder/IInterface.h"
  },
  {
   "access" : "protected",
   "function_name" : "android::IInterface::~IInterface",
   "linker_set_key" : "_ZN7android10IInterfaceD2Ev",
   "parameters" :
   [
    {
     "is_this_ptr" : true,
     "referenced_type" : "_ZTIPN7android10IInterfaceE"
    }
   ],
   "return_type" : "_ZTIv",
   "source_file" : "/frameworks/native/libs/binder/include/binder/IInterface.h"
  },
  {
   "function_name" : "android::MemoryBase::MemoryBase",
   "linker_set_key" : "_ZN7android10MemoryBaseC1ERKNS_2spINS_11IMemoryHeapEEElm",
   "parameters" :
   [
    {
     "is_this_ptr" : true,
     "referenced_type" : "_ZTIPN7android10MemoryBaseE"
    },
    {
     "referenced_type" : "_ZTIRKN7android2spINS_11IMemoryHeapEEE"
    },
    {
     "referenced_type" : "_ZTIl"
    },
    {
     "referenced_type" : "_ZTIm"
    }
   ],
   "return_type" : "_ZTIv",
   "source_file" : "/frameworks/native/libs/binder/include/binder/MemoryBase.h"
  },
  {
   "function_name" : "android::MemoryBase::MemoryBase",
   "linker_set_key" : "_ZN7android10MemoryBaseC2ERKNS_2spINS_11IMemoryHeapEEElm",
   "parameters" :
   [
    {
     "is_this_ptr" : true,
     "referenced_type" : "_ZTIPN7android10MemoryBaseE"
    },
    {
     "referenced_type" : "_ZTIRKN7android2spINS_11IMemoryHeapEEE"
    },
    {
     "referenced_type" : "_ZTIl"
    },
    {
     "referenced_type" : "_ZTIm"
    }
   ],
   "return_type" : "_ZTIv",
   "source_file" : "/frameworks/native/libs/binder/include/binder/MemoryBase.h"
  },
  {
   "function_name" : "android::MemoryBase::~MemoryBase",
   "linker_set_key" : "_ZN7android10MemoryBaseD0Ev",
   "parameters" :
   [
    {
     "is_this_ptr" : true,
     "referenced_type" : "_ZTIPN7android10MemoryBaseE"
    }
   ],
   "return_type" : "_ZTIv",
   "source_file" : "/frameworks/native/libs/binder/include/binder/MemoryBase.h"
  },
  {
   "function_name" : "android::MemoryBase::~MemoryBase",
   "linker_set_key" : "_ZN7android10MemoryBaseD1Ev",
   "parameters" :
   [
    {
     "is_this_ptr" : true,
     "referenced_type" : "_ZTIPN7android10MemoryBaseE"
    }
   ],
   "return_type" : "_ZTIv",
   "source_file" : "/frameworks/native/libs/binder/include/binder/MemoryBase.h"
  },
  {
   "function_name" : "android::MemoryBase::~MemoryBase",
   "linker_set_key" : "_ZN7android10MemoryBaseD2Ev",
   "parameters" :
   [
    {
     "is_this_ptr" : true,
     "referenced_type" : "_ZTIPN7android10MemoryBaseE"
    }
   ],
   "return_type" : "_ZTIv",
   "source_file" : "/frameworks/native/libs/binder/include/binder/MemoryBase.h"
  },
  {
   "function_name" : "android::TextOutput::TextOutput",
   "linker_set_key" : "_ZN7android10TextOutputC2Ev",
   "parameters" :
   [
    {
     "is_this_ptr" : true,
     "referenced_type" : "_ZTIPN7android10TextOutputE"
    }
   ],
   "return_type" : "_ZTIv",
   "source_file" : "/frameworks/native/libs/binder/include/binder/TextOutput.h"
  },
  {
   "function_name" : "android::TextOutput::~TextOutput",
   "linker_set_key" : "_ZN7android10TextOutputD0Ev",
   "parameters" :
   [
    {
     "is_this_ptr" : true,
     "referenced_type" : "_ZTIPN7android10TextOutputE"
    }
   ],
   "return_type" : "_ZTIv",
   "source_file" : "/frameworks/native/libs/binder/include/binder/TextOutput.h"
  },
  {
   "function_name" : "android::TextOutput::~TextOutput",
   "linker_set_key" : "_ZN7android10TextOutputD1Ev",
   "parameters" :
   [
    {
     "is_this_ptr" : true,
     "referenced_type" : "_ZTIPN7android10TextOutputE"
    }
   ],
   "return_type" : "_ZTIv",
   "source_file" : "/frameworks/native/libs/binder/include/binder/TextOutput.h"
  },
  {
   "function_name" : "android::TextOutput::~TextOutput",
   "linker_set_key" : "_ZN7android10TextOutputD2Ev",
   "parameters" :
   [
    {
     "is_this_ptr" : true,
     "referenced_type" : "_ZTIPN7android10TextOutputE"
    }
   ],
   "return_type" : "_ZTIv",
   "source_file" : "/frameworks/native/libs/binder/include/binder/TextOutput.h"
  },
  {
   "access" : "protected",
   "function_name" : "android::BnInterface<android::IMemoryHeap>::onAsBinder",
   "linker_set_key" : "_ZN7android11BnInterfaceINS_11IMemoryHeapEE10onAsBinderEv",
   "parameters" :
   [
    {
     "is_this_ptr" : true,
     "referenced_type" : "_ZTIPN7android11BnInterfaceINS_11IMemoryHeapEEE"
    }
   ],
   "return_type" : "_ZTIPN7android7IBinderE",
   "source_file" : "/frameworks/native/libs/binder/include/binder/IInterface.h"
  },
  {
   "access" : "protected",
   "function_name" : "android::BnInterface<android::IShellCallback>::onAsBinder",
   "linker_set_key" : "_ZN7android11BnInterfaceINS_14IShellCallbackEE10onAsBinderEv",
   "parameters" :
   [
    {
     "is_this_ptr" : true,
     "referenced_type" : "_ZTIPN7android11BnInterfaceINS_14IShellCallbackEEE"
    }
   ],
   "return_type" : "_ZTIPN7android7IBinderE",
   "source_file" : "/frameworks/native/libs/binder/include/binder/IInterface.h"
  },
  {
   "access" : "protected",
   "function_name" : "android::BnInterface<android::IResultReceiver>::onAsBinder",
   "linker_set_key" : "_ZN7android11BnInterfaceINS_15IResultReceiverEE10onAsBinderEv",
   "parameters" :
   [
    {
     "is_this_ptr" : true,
     "referenced_type" : "_ZTIPN7android11BnInterfaceINS_15IResultReceiverEEE"
    }
   ],
   "return_type" : "_ZTIPN7android7IBinderE",
   "source_file" : "/frameworks/native/libs/binder/include/binder/IInterface.h"
  },
  {
   "access" : "protected",
   "function_name" : "android::BnInterface<android::os::IClientCallback>::onAsBinder",
   "linker_set_key" : "_ZN7android11BnInterfaceINS_2os15IClientCallbackEE10onAsBinderEv",
   "parameters" :
   [
    {
     "is_this_ptr" : true,
     "referenced_type" : "_ZTIPN7android11BnInterfaceINS_2os15IClientCallbackEEE"
    }
   ],
   "return_type" : "_ZTIPN7android7IBinderE",
   "source_file" : "/frameworks/native/libs/binder/include/binder/IInterface.h"
  },
  {
   "access" : "protected",
   "function_name" : "android::BnInterface<android::os::IServiceManager>::onAsBinder",
   "linker_set_key" : "_ZN7android11BnInterfaceINS_2os15IServiceManagerEE10onAsBinderEv",
   "parameters" :
   [
    {
     "is_this_ptr" : true,
     "referenced_type" : "_ZTIPN7android11BnInterfaceINS_2os15IServiceManagerEEE"
    }
   ],
   "return_type" : "_ZTIPN7android7IBinderE",
   "source_file" : "/frameworks/native/libs/binder/include/binder/IInterface.h"
  },
  {
   "access" : "protected",
   "function_name" : "android::BnInterface<android::os::IServiceCallback>::onAsBinder",
   "linker_set_key" : "_ZN7android11BnInterfaceINS_2os16IServiceCallbackEE10onAsBinderEv",
   "parameters" :
   [
    {
     "is_this_ptr" : true,
     "referenced_type" : "_ZTIPN7android11BnInterfaceINS_2os16IServiceCallbackEEE"
    }
   ],
   "return_type" : "_ZTIPN7android7IBinderE",
   "source_file" : "/frameworks/native/libs/binder/include/binder/IInterface.h"
  },
  {
   "access" : "protected",
   "function_name" : "android::BnInterface<android::IMemory>::onAsBinder",
   "linker_set_key" : "_ZN7android11BnInterfaceINS_7IMemoryEE10onAsBinderEv",
   "parameters" :
   [
    {
     "is_this_ptr" : true,
     "referenced_type" : "_ZTIPN7android11BnInterfaceINS_7IMemoryEEE"
    }
   ],
   "return_type" : "_ZTIPN7android7IBinderE",
   "source_file" : "/frameworks/native/libs/binder/include/binder/IInterface.h"
  },
  {
   "access" : "protected",
   "function_name" : "android::BnInterface<android::content::pm::IPackageManagerNative>::onAsBinder",
   "linker_set_key" : "_ZN7android11BnInterfaceINS_7content2pm21IPackageManagerNativeEE10onAsBinderEv",
   "parameters" :
   [
    {
     "is_this_ptr" : true,
     "referenced_type" : "_ZTIPN7android11BnInterfaceINS_7content2pm21IPackageManagerNativeEEE"
    }
   ],
   "return_type" : "_ZTIPN7android7IBinderE",
   "source_file" : "/frameworks/native/libs/binder/include/binder/IInterface.h"
  },
  {
   "access" : "protected",
   "function_name" : "android::BnInterface<android::content::pm::IPackageChangeObserver>::onAsBinder",
   "linker_set_key" : "_ZN7android11BnInterfaceINS_7content2pm22IPackageChangeObserverEE10onAsBinderEv",
   "parameters" :
   [
    {
     "is_this_ptr" : true,
     "referenced_type" : "_ZTIPN7android11BnInterfaceINS_7content2pm22IPackageChangeObserverEEE"
    }
   ],
   "return_type" : "_ZTIPN7android7IBinderE",
   "source_file" : "/frameworks/native/libs/binder/include/binder/IInterface.h"
  },
  {
   "function_name" : "android::IMemoryHeap::asInterface",
   "linker_set_key" : "_ZN7android11IMemoryHeap11asInterfaceERKNS_2spINS_7IBinderEEE",
   "parameters" :
   [
    {
     "referenced_type" : "_ZTIRKN7android2spINS_7IBinderEEE"
    }
   ],
   "return_type" : "_ZTIN7android2spINS_11IMemoryHeapEEE",
   "source_file" : "/frameworks/native/libs/binder/include/binder/IMemory.h"
  },
  {
   "function_name" : "android::IMemoryHeap::getDefaultImpl",
   "linker_set_key" : "_ZN7android11IMemoryHeap14getDefaultImplEv",
   "return_type" : "_ZTIRKNSt3__110unique_ptrIN7android11IMemoryHeapENS_14default_deleteIS2_EEEE",
   "source_file" : "/frameworks/native/libs/binder/include/binder/IMemory.h"
  },
  {
   "function_name" : "android::IMemoryHeap::setDefaultImpl",
   "linker_set_key" : "_ZN7android11IMemoryHeap14setDefaultImplENSt3__110unique_ptrIS0_NS1_14default_deleteIS0_EEEE",
   "parameters" :
   [
    {
     "referenced_type" : "_ZTINSt3__110unique_ptrIN7android11IMemoryHeapENS_14default_deleteIS2_EEEE"
    }
   ],
   "return_type" : "_ZTIb",
   "source_file" : "/frameworks/native/libs/binder/include/binder/IMemory.h"
  },
  {
   "function_name" : "android::IMemoryHeap::IMemoryHeap",
   "linker_set_key" : "_ZN7android11IMemoryHeapC2Ev",
   "parameters" :
   [
    {
     "is_this_ptr" : true,
     "referenced_type" : "_ZTIPN7android11IMemoryHeapE"
    }
   ],
   "return_type" : "_ZTIv",
   "source_file" : "/frameworks/native/libs/binder/include/binder/IMemory.h"
  },
  {
   "function_name" : "android::IMemoryHeap::~IMemoryHeap",
   "linker_set_key" : "_ZN7android11IMemoryHeapD0Ev",
   "parameters" :
   [
    {
     "is_this_ptr" : true,
     "referenced_type" : "_ZTIPN7android11IMemoryHeapE"
    }
   ],
   "return_type" : "_ZTIv",
   "source_file" : "/frameworks/native/libs/binder/include/binder/IMemory.h"
  },
  {
   "function_name" : "android::IMemoryHeap::~IMemoryHeap",
   "linker_set_key" : "_ZN7android11IMemoryHeapD1Ev",
   "parameters" :
   [
    {
     "is_this_ptr" : true,
     "referenced_type" : "_ZTIPN7android11IMemoryHeapE"
    }
   ],
   "return_type" : "_ZTIv",
   "source_file" : "/frameworks/native/libs/binder/include/binder/IMemory.h"
  },
  {
   "function_name" : "android::IMemoryHeap::~IMemoryHeap",
   "linker_set_key" : "_ZN7android11IMemoryHeapD2Ev",
   "parameters" :
   [
    {
     "is_this_ptr" : true,
     "referenced_type" : "_ZTIPN7android11IMemoryHeapE"
    }
   ],
   "return_type" : "_ZTIv",
   "source_file" : "/frameworks/native/libs/binder/include/binder/IMemory.h"
  },
  {
   "function_name" : "android::BnMemoryHeap::onTransact",
   "linker_set_key" : "_ZN7android12BnMemoryHeap10onTransactEjRKNS_6ParcelEPS1_j",
   "parameters" :
   [
    {
     "is_this_ptr" : true,
     "referenced_type" : "_ZTIPN7android12BnMemoryHeapE"
    },
    {
     "referenced_type" : "_ZTIj"
    },
    {
     "referenced_type" : "_ZTIRKN7android6ParcelE"
    },
    {
     "referenced_type" : "_ZTIPN7android6ParcelE"
    },
    {
     "default_arg" : true,
     "referenced_type" : "_ZTIj"
    }
   ],
   "return_type" : "_ZTIi",
   "source_file" : "/frameworks/native/libs/binder/include/binder/IMemory.h"
  },
  {
   "function_name" : "android::BnMemoryHeap::BnMemoryHeap",
   "linker_set_key" : "_ZN7android12BnMemoryHeapC2Ev",
   "parameters" :
   [
    {
     "is_this_ptr" : true,
     "referenced_type" : "_ZTIPN7android12BnMemoryHeapE"
    }
   ],
   "return_type" : "_ZTIv",
   "source_file" : "/frameworks/native/libs/binder/include/binder/IMemory.h"
  },
  {
   "access" : "protected",
   "function_name" : "android::BnMemoryHeap::~BnMemoryHeap",
   "linker_set_key" : "_ZN7android12BnMemoryHeapD0Ev",
   "parameters" :
   [
    {
     "is_this_ptr" : true,
     "referenced_type" : "_ZTIPN7android12BnMemoryHeapE"
    }
   ],
   "return_type" : "_ZTIv",
   "source_file" : "/frameworks/native/libs/binder/include/binder/IMemory.h"
  },
  {
   "access" : "protected",
   "function_name" : "android::BnMemoryHeap::~BnMemoryHeap",
   "linker_set_key" : "_ZN7android12BnMemoryHeapD1Ev",
   "parameters" :
   [
    {
     "is_this_ptr" : true,
     "referenced_type" : "_ZTIPN7android12BnMemoryHeapE"
    }
   ],
   "return_type" : "_ZTIv",
   "source_file" : "/frameworks/native/libs/binder/include/binder/IMemory.h"
  },
  {
   "access" : "protected",
   "function_name" : "android::BnMemoryHeap::~BnMemoryHeap",
   "linker_set_key" : "_ZN7android12BnMemoryHeapD2Ev",
   "parameters" :
   [
    {
     "is_this_ptr" : true,
     "referenced_type" : "_ZTIPN7android12BnMemoryHeapE"
    }
   ],
   "return_type" : "_ZTIv",
   "source_file" : "/frameworks/native/libs/binder/include/binder/IMemory.h"
  },
  {
   "function_name" : "android::MemoryDealer::deallocate",
   "linker_set_key" : "_ZN7android12MemoryDealer10deallocateEm",
   "parameters" :
   [
    {
     "is_this_ptr" : true,
     "referenced_type" : "_ZTIPN7android12MemoryDealerE"
    },
    {
     "referenced_type" : "_ZTIm"
    }
   ],
   "return_type" : "_ZTIv",
   "source_file" : "/frameworks/native/libs/binder/include/binder/MemoryDealer.h"
  },
  {
   "function_name" : "android::MemoryDealer::getAllocationAlignment",
   "linker_set_key" : "_ZN7android12MemoryDealer22getAllocationAlignmentEv",
   "return_type" : "_ZTIm",
   "source_file" : "/frameworks/native/libs/binder/include/binder/MemoryDealer.h"
  },
  {
   "function_name" : "android::MemoryDealer::allocate",
   "linker_set_key" : "_ZN7android12MemoryDealer8allocateEm",
   "parameters" :
   [
    {
     "is_this_ptr" : true,
     "referenced_type" : "_ZTIPN7android12MemoryDealerE"
    },
    {
     "referenced_type" : "_ZTIm"
    }
   ],
   "return_type" : "_ZTIN7android2spINS_7IMemoryEEE",
   "source_file" : "/frameworks/native/libs/binder/include/binder/MemoryDealer.h"
  },
  {
   "function_name" : "android::MemoryDealer::MemoryDealer",
   "linker_set_key" : "_ZN7android12MemoryDealerC1EmPKcj",
   "parameters" :
   [
    {
     "is_this_ptr" : true,
     "referenced_type" : "_ZTIPN7android12MemoryDealerE"
    },
    {
     "referenced_type" : "_ZTIm"
    },
    {
     "default_arg" : true,
     "referenced_type" : "_ZTIPKc"
    },
    {
     "default_arg" : true,
     "referenced_type" : "_ZTIj"
    }
   ],
   "return_type" : "_ZTIv",
   "source_file" : "/frameworks/native/libs/binder/include/binder/MemoryDealer.h"
  },
  {
   "function_name" : "android::MemoryDealer::MemoryDealer",
   "linker_set_key" : "_ZN7android12MemoryDealerC2EmPKcj",
   "parameters" :
   [
    {
     "is_this_ptr" : true,
     "referenced_type" : "_ZTIPN7android12MemoryDealerE"
    },
    {
     "referenced_type" : "_ZTIm"
    },
    {
     "default_arg" : true,
     "referenced_type" : "_ZTIPKc"
    },
    {
     "default_arg" : true,
     "referenced_type" : "_ZTIj"
    }
   ],
   "return_type" : "_ZTIv",
   "source_file" : "/frameworks/native/libs/binder/include/binder/MemoryDealer.h"
  },
  {
   "access" : "protected",
   "function_name" : "android::MemoryDealer::~MemoryDealer",
   "linker_set_key" : "_ZN7android12MemoryDealerD0Ev",
   "parameters" :
   [
    {
     "is_this_ptr" : true,
     "referenced_type" : "_ZTIPN7android12MemoryDealerE"
    }
   ],
   "return_type" : "_ZTIv",
   "source_file" : "/frameworks/native/libs/binder/include/binder/MemoryDealer.h"
  },
  {
   "access" : "protected",
   "function_name" : "android::MemoryDealer::~MemoryDealer",
   "linker_set_key" : "_ZN7android12MemoryDealerD1Ev",
   "parameters" :
   [
    {
     "is_this_ptr" : true,
     "referenced_type" : "_ZTIPN7android12MemoryDealerE"
    }
   ],
   "return_type" : "_ZTIv",
   "source_file" : "/frameworks/native/libs/binder/include/binder/MemoryDealer.h"
  },
  {
   "access" : "protected",
   "function_name" : "android::MemoryDealer::~MemoryDealer",
   "linker_set_key" : "_ZN7android12MemoryDealerD2Ev",
   "parameters" :
   [
    {
     "is_this_ptr" : true,
     "referenced_type" : "_ZTIPN7android12MemoryDealerE"
    }
   ],
   "return_type" : "_ZTIv",
   "source_file" : "/frameworks/native/libs/binder/include/binder/MemoryDealer.h"
  },
  {
   "function_name" : "android::ProcessState::selfOrNull",
   "linker_set_key" : "_ZN7android12ProcessState10selfOrNullEv",
   "return_type" : "_ZTIN7android2spINS_12ProcessStateEEE",
   "source_file" : "/frameworks/native/libs/binder/include/binder/ProcessState.h"
  },
  {
   "function_name" : "android::ProcessState::expungeHandle",
   "linker_set_key" : "_ZN7android12ProcessState13expungeHandleEiPNS_7IBinderE",
   "parameters" :
   [
    {
     "is_this_ptr" : true,
     "referenced_type" : "_ZTIPN7android12ProcessStateE"
    },
    {
     "referenced_type" : "_ZTIi"
    },
    {
     "referenced_type" : "_ZTIPN7android7IBinderE"
    }
   ],
   "return_type" : "_ZTIv",
   "source_file" : "/frameworks/native/libs/binder/include/binder/ProcessState.h"
  },
  {
   "function_name" : "android::ProcessState::getDriverName",
   "linker_set_key" : "_ZN7android12ProcessState13getDriverNameEv",
   "parameters" :
   [
    {
     "is_this_ptr" : true,
     "referenced_type" : "_ZTIPN7android12ProcessStateE"
    }
   ],
   "return_type" : "_ZTIN7android7String8E",
   "source_file" : "/frameworks/native/libs/binder/include/binder/ProcessState.h"
  },
  {
   "function_name" : "android::ProcessState::initWithDriver",
   "linker_set_key" : "_ZN7android12ProcessState14initWithDriverEPKc",
   "parameters" :
   [
    {
     "referenced_type" : "_ZTIPKc"
    }
   ],
   "return_type" : "_ZTIN7android2spINS_12ProcessStateEEE",
   "source_file" : "/frameworks/native/libs/binder/include/binder/ProcessState.h"
  },
  {
   "function_name" : "android::ProcessState::startThreadPool",
   "linker_set_key" : "_ZN7android12ProcessState15startThreadPoolEv",
   "parameters" :
   [
    {
     "is_this_ptr" : true,
     "referenced_type" : "_ZTIPN7android12ProcessStateE"
    }
   ],
   "return_type" : "_ZTIv",
   "source_file" : "/frameworks/native/libs/binder/include/binder/ProcessState.h"
  },
  {
   "function_name" : "android::ProcessState::getContextObject",
   "linker_set_key" : "_ZN7android12ProcessState16getContextObjectERKNS_2spINS_7IBinderEEE",
   "parameters" :
   [
    {
     "is_this_ptr" : true,
     "referenced_type" : "_ZTIPN7android12ProcessStateE"
    },
    {
     "referenced_type" : "_ZTIRKN7android2spINS_7IBinderEEE"
    }
   ],
   "return_type" : "_ZTIN7android2spINS_7IBinderEEE",
   "source_file" : "/frameworks/native/libs/binder/include/binder/ProcessState.h"
  },
  {
   "function_name" : "android::ProcessState::spawnPooledThread",
   "linker_set_key" : "_ZN7android12ProcessState17spawnPooledThreadEb",
   "parameters" :
   [
    {
     "is_this_ptr" : true,
     "referenced_type" : "_ZTIPN7android12ProcessStateE"
    },
    {
     "referenced_type" : "_ZTIb"
    }
   ],
   "return_type" : "_ZTIv",
   "source_file" : "/frameworks/native/libs/binder/include/binder/ProcessState.h"
  },
  {
   "function_name" : "android::ProcessState::giveThreadPoolName",
   "linker_set_key" : "_ZN7android12ProcessState18giveThreadPoolNameEv",
   "parameters" :
   [
    {
     "is_this_ptr" : true,
     "referenced_type" : "_ZTIPN7android12ProcessStateE"
    }
   ],
   "return_type" : "_ZTIv",
   "source_file" : "/frameworks/native/libs/binder/include/binder/ProcessState.h"
  },
  {
   "access" : "private",
   "function_name" : "android::ProcessState::lookupHandleLocked",
   "linker_set_key" : "_ZN7android12ProcessState18lookupHandleLockedEi",
   "parameters" :
   [
    {
     "is_this_ptr" : true,
     "referenced_type" : "_ZTIPN7android12ProcessStateE"
    },
    {
     "referenced_type" : "_ZTIi"
    }
   ],
   "return_type" : "_ZTIPN7android12ProcessState12handle_entryE",
   "source_file" : "/frameworks/native/libs/binder/include/binder/ProcessState.h"
  },
  {
   "function_name" : "android::ProcessState::setCallRestriction",
   "linker_set_key" : "_ZN7android12ProcessState18setCallRestrictionENS0_15CallRestrictionE",
   "parameters" :
   [
    {
     "is_this_ptr" : true,
     "referenced_type" : "_ZTIPN7android12ProcessStateE"
    },
    {
     "referenced_type" : "_ZTIN7android12ProcessState15CallRestrictionE"
    }
   ],
   "return_type" : "_ZTIv",
   "source_file" : "/frameworks/native/libs/binder/include/binder/ProcessState.h"
  },
  {
   "function_name" : "android::ProcessState::getKernelReferences",
   "linker_set_key" : "_ZN7android12ProcessState19getKernelReferencesEmPm",
   "parameters" :
   [
    {
     "is_this_ptr" : true,
     "referenced_type" : "_ZTIPN7android12ProcessStateE"
    },
    {
     "referenced_type" : "_ZTIm"
    },
    {
     "referenced_type" : "_ZTIPm"
    }
   ],
   "return_type" : "_ZTIl",
   "source_file" : "/frameworks/native/libs/binder/include/binder/ProcessState.h"
  },
  {
   "function_name" : "android::ProcessState::becomeContextManager",
   "linker_set_key" : "_ZN7android12ProcessState20becomeContextManagerEPFbRKNS_8String16ERKNS_2spINS_7IBinderEEEPvES9_",
   "parameters" :
   [
    {
     "is_this_ptr" : true,
     "referenced_type" : "_ZTIPN7android12ProcessStateE"
    },
    {
     "referenced_type" : "_ZTIPFbRKN7android8String16ERKNS_2spINS_7IBinderEEEPvE"
    },
    {
     "referenced_type" : "_ZTIPv"
    }
   ],
   "return_type" : "_ZTIb",
   "source_file" : "/frameworks/native/libs/binder/include/binder/ProcessState.h"
  },
  {
   "access" : "private",
   "function_name" : "android::ProcessState::makeBinderThreadName",
   "linker_set_key" : "_ZN7android12ProcessState20makeBinderThreadNameEv",
   "parameters" :
   [
    {
     "is_this_ptr" : true,
     "referenced_type" : "_ZTIPN7android12ProcessStateE"
    }
   ],
   "return_type" : "_ZTIN7android7String8E",
   "source_file" : "/frameworks/native/libs/binder/include/binder/ProcessState.h"
  },
  {
   "function_name" : "android::ProcessState::getStrongProxyForHandle",
   "linker_set_key" : "_ZN7android12ProcessState23getStrongProxyForHandleEi",
   "parameters" :
   [
    {
     "is_this_ptr" : true,
     "referenced_type" : "_ZTIPN7android12ProcessStateE"
    },
    {
     "referenced_type" : "_ZTIi"
    }
   ],
   "return_type" : "_ZTIN7android2spINS_7IBinderEEE",
   "source_file" : "/frameworks/native/libs/binder/include/binder/ProcessState.h"
  },
  {
   "function_name" : "android::ProcessState::setThreadPoolMaxThreadCount",
   "linker_set_key" : "_ZN7android12ProcessState27setThreadPoolMaxThreadCountEm",
   "parameters" :
   [
    {
     "is_this_ptr" : true,
     "referenced_type" : "_ZTIPN7android12ProcessStateE"
    },
    {
     "referenced_type" : "_ZTIm"
    }
   ],
   "return_type" : "_ZTIi",
   "source_file" : "/frameworks/native/libs/binder/include/binder/ProcessState.h"
  },
  {
   "function_name" : "android::ProcessState::getStrongRefCountForNodeByHandle",
   "linker_set_key" : "_ZN7android12ProcessState32getStrongRefCountForNodeByHandleEi",
   "parameters" :
   [
    {
     "is_this_ptr" : true,
     "referenced_type" : "_ZTIPN7android12ProcessStateE"
    },
    {
     "referenced_type" : "_ZTIi"
    }
   ],
   "return_type" : "_ZTIl",
   "source_file" : "/frameworks/native/libs/binder/include/binder/ProcessState.h"
  },
  {
   "function_name" : "android::ProcessState::self",
   "linker_set_key" : "_ZN7android12ProcessState4selfEv",
   "return_type" : "_ZTIN7android2spINS_12ProcessStateEEE",
   "source_file" : "/frameworks/native/libs/binder/include/binder/ProcessState.h"
  },
  {
   "access" : "private",
   "function_name" : "android::ProcessState::ProcessState",
   "linker_set_key" : "_ZN7android12ProcessStateC1EPKc",
   "parameters" :
   [
    {
     "is_this_ptr" : true,
     "referenced_type" : "_ZTIPN7android12ProcessStateE"
    },
    {
     "referenced_type" : "_ZTIPKc"
    }
   ],
   "return_type" : "_ZTIv",
   "source_file" : "/frameworks/native/libs/binder/include/binder/ProcessState.h"
  },
  {
   "access" : "private",
   "function_name" : "android::ProcessState::ProcessState",
   "linker_set_key" : "_ZN7android12ProcessStateC2EPKc",
   "parameters" :
   [
    {
     "is_this_ptr" : true,
     "referenced_type" : "_ZTIPN7android12ProcessStateE"
    },
    {
     "referenced_type" : "_ZTIPKc"
    }
   ],
   "return_type" : "_ZTIv",
   "source_file" : "/frameworks/native/libs/binder/include/binder/ProcessState.h"
  },
  {
   "access" : "private",
   "function_name" : "android::ProcessState::~ProcessState",
   "linker_set_key" : "_ZN7android12ProcessStateD0Ev",
   "parameters" :
   [
    {
     "is_this_ptr" : true,
     "referenced_type" : "_ZTIPN7android12ProcessStateE"
    }
   ],
   "return_type" : "_ZTIv",
   "source_file" : "/frameworks/native/libs/binder/include/binder/ProcessState.h"
  },
  {
   "access" : "private",
   "function_name" : "android::ProcessState::~ProcessState",
   "linker_set_key" : "_ZN7android12ProcessStateD1Ev",
   "parameters" :
   [
    {
     "is_this_ptr" : true,
     "referenced_type" : "_ZTIPN7android12ProcessStateE"
    }
   ],
   "return_type" : "_ZTIv",
   "source_file" : "/frameworks/native/libs/binder/include/binder/ProcessState.h"
  },
  {
   "access" : "private",
   "function_name" : "android::ProcessState::~ProcessState",
   "linker_set_key" : "_ZN7android12ProcessStateD2Ev",
   "parameters" :
   [
    {
     "is_this_ptr" : true,
     "referenced_type" : "_ZTIPN7android12ProcessStateE"
    }
   ],
   "return_type" : "_ZTIv",
   "source_file" : "/frameworks/native/libs/binder/include/binder/ProcessState.h"
  },
  {
   "access" : "private",
   "function_name" : "android::IPCThreadState::freeBuffer",
   "linker_set_key" : "_ZN7android14IPCThreadState10freeBufferEPNS_6ParcelEPKhmPKymPv",
   "parameters" :
   [
    {
     "referenced_type" : "_ZTIPN7android6ParcelE"
    },
    {
     "referenced_type" : "_ZTIPKh"
    },
    {
     "referenced_type" : "_ZTIm"
    },
    {
     "referenced_type" : "_ZTIPKy"
    },
    {
     "referenced_type" : "_ZTIm"
    },
    {
     "referenced_type" : "_ZTIPv"
    }
   ],
   "return_type" : "_ZTIv",
   "source_file" : "/frameworks/native/libs/binder/include/binder/IPCThreadState.h"
  },
  {
   "function_name" : "android::IPCThreadState::selfOrNull",
   "linker_set_key" : "_ZN7android14IPCThreadState10selfOrNullEv",
   "return_type" : "_ZTIPN7android14IPCThreadStateE",
   "source_file" : "/frameworks/native/libs/binder/include/binder/IPCThreadState.h"
  },
  {
   "access" : "private",
   "function_name" : "android::IPCThreadState::clearCaller",
   "linker_set_key" : "_ZN7android14IPCThreadState11clearCallerEv",
   "parameters" :
   [
    {
     "is_this_ptr" : true,
     "referenced_type" : "_ZTIPN7android14IPCThreadStateE"
    }
   ],
   "return_type" : "_ZTIv",
   "source_file" : "/frameworks/native/libs/binder/include/binder/IPCThreadState.h"
  },
  {
   "function_name" : "android::IPCThreadState::stopProcess",
   "linker_set_key" : "_ZN7android14IPCThreadState11stopProcessEb",
   "parameters" :
   [
    {
     "is_this_ptr" : true,
     "referenced_type" : "_ZTIPN7android14IPCThreadStateE"
    },
    {
     "default_arg" : true,
     "referenced_type" : "_ZTIb"
    }
   ],
   "return_type" : "_ZTIv",
   "source_file" : "/frameworks/native/libs/binder/include/binder/IPCThreadState.h"
  },
  {
   "function_name" : "android::IPCThreadState::setupPolling",
   "linker_set_key" : "_ZN7android14IPCThreadState12setupPollingEPi",
   "parameters" :
   [
    {
     "is_this_ptr" : true,
     "referenced_type" : "_ZTIPN7android14IPCThreadStateE"
    },
    {
     "referenced_type" : "_ZTIPi"
    }
   ],
   "return_type" : "_ZTIi",
   "source_file" : "/frameworks/native/libs/binder/include/binder/IPCThreadState.h"
  },
  {
   "function_name" : "android::IPCThreadState::decWeakHandle",
   "linker_set_key" : "_ZN7android14IPCThreadState13decWeakHandleEi",
   "parameters" :
   [
    {
     "is_this_ptr" : true,
     "referenced_type" : "_ZTIPN7android14IPCThreadStateE"
    },
    {
     "referenced_type" : "_ZTIi"
    }
   ],
   "return_type" : "_ZTIv",
   "source_file" : "/frameworks/native/libs/binder/include/binder/IPCThreadState.h"
  },
  {
   "function_name" : "android::IPCThreadState::expungeHandle",
   "linker_set_key" : "_ZN7android14IPCThreadState13expungeHandleEiPNS_7IBinderE",
   "parameters" :
   [
    {
     "referenced_type" : "_ZTIi"
    },
    {
     "referenced_type" : "_ZTIPN7android7IBinderE"
    }
   ],
   "return_type" : "_ZTIv",
   "source_file" : "/frameworks/native/libs/binder/include/binder/IPCThreadState.h"
  },
  {
   "function_name" : "android::IPCThreadState::flushCommands",
   "linker_set_key" : "_ZN7android14IPCThreadState13flushCommandsEv",
   "parameters" :
   [
    {
     "is_this_ptr" : true,
     "referenced_type" : "_ZTIPN7android14IPCThreadStateE"
    }
   ],
   "return_type" : "_ZTIv",
   "source_file" : "/frameworks/native/libs/binder/include/binder/IPCThreadState.h"
  },
  {
   "function_name" : "android::IPCThreadState::incWeakHandle",
   "linker_set_key" : "_ZN7android14IPCThreadState13incWeakHandleEiPNS_8BpBinderE",
   "parameters" :
   [
    {
     "is_this_ptr" : true,
     "referenced_type" : "_ZTIPN7android14IPCThreadStateE"
    },
    {
     "referenced_type" : "_ZTIi"
    },
    {
     "referenced_type" : "_ZTIPN7android8BpBinderE"
    }
   ],
   "return_type" : "_ZTIv",
   "source_file" : "/frameworks/native/libs/binder/include/binder/IPCThreadState.h"
  },
  {
   "function_name" : "android::IPCThreadState::clearLastError",
   "linker_set_key" : "_ZN7android14IPCThreadState14clearLastErrorEv",
   "parameters" :
   [
    {
     "is_this_ptr" : true,
     "referenced_type" : "_ZTIPN7android14IPCThreadStateE"
    }
   ],
   "return_type" : "_ZTIi",
   "source_file" : "/frameworks/native/libs/binder/include/binder/IPCThreadState.h"
  },
  {
   "access" : "private",
   "function_name" : "android::IPCThreadState::executeCommand",
   "linker_set_key" : "_ZN7android14IPCThreadState14executeCommandEi",
   "parameters" :
   [
    {
     "is_this_ptr" : true,
     "referenced_type" : "_ZTIPN7android14IPCThreadStateE"
    },
    {
     "referenced_type" : "_ZTIi"
    }
   ],
   "return_type" : "_ZTIi",
   "source_file" : "/frameworks/native/libs/binder/include/binder/IPCThreadState.h"
  },
  {
   "function_name" : "android::IPCThreadState::joinThreadPool",
   "linker_set_key" : "_ZN7android14IPCThreadState14joinThreadPoolEb",
   "parameters" :
   [
    {
     "is_this_ptr" : true,
     "referenced_type" : "_ZTIPN7android14IPCThreadStateE"
    },
    {
     "default_arg" : true,
     "referenced_type" : "_ZTIb"
    }
   ],
   "return_type" : "_ZTIv",
   "source_file" : "/frameworks/native/libs/binder/include/binder/IPCThreadState.h"
  },
  {
   "access" : "private",
   "function_name" : "android::IPCThreadState::talkWithDriver",
   "linker_set_key" : "_ZN7android14IPCThreadState14talkWithDriverEb",
   "parameters" :
   [
    {
     "is_this_ptr" : true,
     "referenced_type" : "_ZTIPN7android14IPCThreadStateE"
    },
    {
     "default_arg" : true,
     "referenced_type" : "_ZTIb"
    }
   ],
   "return_type" : "_ZTIi",
   "source_file" : "/frameworks/native/libs/binder/include/binder/IPCThreadState.h"
  },
  {
   "function_name" : "android::IPCThreadState::decStrongHandle",
   "linker_set_key" : "_ZN7android14IPCThreadState15decStrongHandleEi",
   "parameters" :
   [
    {
     "is_this_ptr" : true,
     "referenced_type" : "_ZTIPN7android14IPCThreadStateE"
    },
    {
     "referenced_type" : "_ZTIi"
    }
   ],
   "return_type" : "_ZTIv",
   "source_file" : "/frameworks/native/libs/binder/include/binder/IPCThreadState.h"
  },
  {
   "function_name" : "android::IPCThreadState::incStrongHandle",
   "linker_set_key" : "_ZN7android14IPCThreadState15incStrongHandleEiPNS_8BpBinderE",
   "parameters" :
   [
    {
     "is_this_ptr" : true,
     "referenced_type" : "_ZTIPN7android14IPCThreadStateE"
    },
    {
     "referenced_type" : "_ZTIi"
    },
    {
     "referenced_type" : "_ZTIPN7android8BpBinderE"
    }
   ],
   "return_type" : "_ZTIv",
   "source_file" : "/frameworks/native/libs/binder/include/binder/IPCThreadState.h"
  },
  {
   "access" : "private",
   "function_name" : "android::IPCThreadState::waitForResponse",
   "linker_set_key" : "_ZN7android14IPCThreadState15waitForResponseEPNS_6ParcelEPi",
   "parameters" :
   [
    {
     "is_this_ptr" : true,
     "referenced_type" : "_ZTIPN7android14IPCThreadStateE"
    },
    {
     "referenced_type" : "_ZTIPN7android6ParcelE"
    },
    {
     "default_arg" : true,
     "referenced_type" : "_ZTIPi"
    }
   ],
   "return_type" : "_ZTIi",
   "source_file" : "/frameworks/native/libs/binder/include/binder/IPCThreadState.h"
  },
  {
   "access" : "private",
   "function_name" : "android::IPCThreadState::threadDestructor",
   "linker_set_key" : "_ZN7android14IPCThreadState16threadDestructorEPv",
   "parameters" :
   [
    {
     "referenced_type" : "_ZTIPv"
    }
   ],
   "return_type" : "_ZTIv",
   "source_file" : "/frameworks/native/libs/binder/include/binder/IPCThreadState.h"
  },
  {
   "function_name" : "android::IPCThreadState::setStrictModePolicy",
   "linker_set_key" : "_ZN7android14IPCThreadState19setStrictModePolicyEi",
   "parameters" :
   [
    {
     "is_this_ptr" : true,
     "referenced_type" : "_ZTIPN7android14IPCThreadStateE"
    },
    {
     "referenced_type" : "_ZTIi"
    }
   ],
   "return_type" : "_ZTIv",
   "source_file" : "/frameworks/native/libs/binder/include/binder/IPCThreadState.h"
  },
  {
   "function_name" : "android::IPCThreadState::setTheContextObject",
   "linker_set_key" : "_ZN7android14IPCThreadState19setTheContextObjectENS_2spINS_7BBinderEEE",
   "parameters" :
   [
    {
     "is_this_ptr" : true,
     "referenced_type" : "_ZTIPN7android14IPCThreadStateE"
    },
    {
     "referenced_type" : "_ZTIN7android2spINS_7BBinderEEE"
    }
   ],
   "return_type" : "_ZTIv",
   "source_file" : "/frameworks/native/libs/binder/include/binder/IPCThreadState.h"
  },
  {
   "function_name" : "android::IPCThreadState::clearCallingIdentity",
   "linker_set_key" : "_ZN7android14IPCThreadState20clearCallingIdentityEv",
   "parameters" :
   [
    {
     "is_this_ptr" : true,
     "referenced_type" : "_ZTIPN7android14IPCThreadStateE"
    }
   ],
   "return_type" : "_ZTIl",
   "source_file" : "/frameworks/native/libs/binder/include/binder/IPCThreadState.h"
  },
  {
   "access" : "private",
   "function_name" : "android::IPCThreadState::getAndExecuteCommand",
   "linker_set_key" : "_ZN7android14IPCThreadState20getAndExecuteCommandEv",
   "parameters" :
   [
    {
     "is_this_ptr" : true,
     "referenced_type" : "_ZTIPN7android14IPCThreadStateE"
    }
   ],
   "return_type" : "_ZTIi",
   "source_file" : "/frameworks/native/libs/binder/include/binder/IPCThreadState.h"
  },
  {
   "function_name" : "android::IPCThreadState::getProcessFreezeInfo",
   "linker_set_key" : "_ZN7android14IPCThreadState20getProcessFreezeInfoEiPbS1_",
   "parameters" :
   [
    {
     "referenced_type" : "_ZTIi"
    },
    {
     "referenced_type" : "_ZTIPb"
    },
    {
     "referenced_type" : "_ZTIPb"
    }
   ],
   "return_type" : "_ZTIi",
   "source_file" : "/frameworks/native/libs/binder/include/binder/IPCThreadState.h"
  },
  {
   "function_name" : "android::IPCThreadState::handlePolledCommands",
   "linker_set_key" : "_ZN7android14IPCThreadState20handlePolledCommandsEv",
   "parameters" :
   [
    {
     "is_this_ptr" : true,
     "referenced_type" : "_ZTIPN7android14IPCThreadStateE"
    }
   ],
   "return_type" : "_ZTIi",
   "source_file" : "/frameworks/native/libs/binder/include/binder/IPCThreadState.h"
  },
  {
   "access" : "private",
   "function_name" : "android::IPCThreadState::processPendingDerefs",
   "linker_set_key" : "_ZN7android14IPCThreadState20processPendingDerefsEv",
   "parameters" :
   [
    {
     "is_this_ptr" : true,
     "referenced_type" : "_ZTIPN7android14IPCThreadStateE"
    }
   ],
   "return_type" : "_ZTIv",
   "source_file" : "/frameworks/native/libs/binder/include/binder/IPCThreadState.h"
  },
  {
   "access" : "private",
   "function_name" : "android::IPCThreadState::writeTransactionData",
   "linker_set_key" : "_ZN7android14IPCThreadState20writeTransactionDataEijijRKNS_6ParcelEPi",
   "parameters" :
   [
    {
     "is_this_ptr" : true,
     "referenced_type" : "_ZTIPN7android14IPCThreadStateE"
    },
    {
     "referenced_type" : "_ZTIi"
    },
    {
     "referenced_type" : "_ZTIj"
    },
    {
     "referenced_type" : "_ZTIi"
    },
    {
     "referenced_type" : "_ZTIj"
    },
    {
     "referenced_type" : "_ZTIRKN7android6ParcelE"
    },
    {
     "referenced_type" : "_ZTIPi"
    }
   ],
   "return_type" : "_ZTIi",
   "source_file" : "/frameworks/native/libs/binder/include/binder/IPCThreadState.h"
  },
  {
   "function_name" : "android::IPCThreadState::attemptIncStrongHandle",
   "linker_set_key" : "_ZN7android14IPCThreadState22attemptIncStrongHandleEi",
   "parameters" :
   [
    {
     "is_this_ptr" : true,
     "referenced_type" : "_ZTIPN7android14IPCThreadStateE"
    },
    {
     "referenced_type" : "_ZTIi"
    }
   ],
   "return_type" : "_ZTIi",
   "source_file" : "/frameworks/native/libs/binder/include/binder/IPCThreadState.h"
  },
  {
   "function_name" : "android::IPCThreadState::clearCallingWorkSource",
   "linker_set_key" : "_ZN7android14IPCThreadState22clearCallingWorkSourceEv",
   "parameters" :
   [
    {
     "is_this_ptr" : true,
     "referenced_type" : "_ZTIPN7android14IPCThreadStateE"
    }
   ],
   "return_type" : "_ZTIl",
   "source_file" : "/frameworks/native/libs/binder/include/binder/IPCThreadState.h"
  },
  {
   "function_name" : "android::IPCThreadState::clearDeathNotification",
   "linker_set_key" : "_ZN7android14IPCThreadState22clearDeathNotificationEiPNS_8BpBinderE",
   "parameters" :
   [
    {
     "is_this_ptr" : true,
     "referenced_type" : "_ZTIPN7android14IPCThreadStateE"
    },
    {
     "referenced_type" : "_ZTIi"
    },
    {
     "referenced_type" : "_ZTIPN7android8BpBinderE"
    }
   ],
   "return_type" : "_ZTIi",
   "source_file" : "/frameworks/native/libs/binder/include/binder/IPCThreadState.h"
  },
  {
   "access" : "private",
   "function_name" : "android::IPCThreadState::processPostWriteDerefs",
   "linker_set_key" : "_ZN7android14IPCThreadState22processPostWriteDerefsEv",
   "parameters" :
   [
    {
     "is_this_ptr" : true,
     "referenced_type" : "_ZTIPN7android14IPCThreadStateE"
    }
   ],
   "return_type" : "_ZTIv",
   "source_file" : "/frameworks/native/libs/binder/include/binder/IPCThreadState.h"
  },
  {
   "function_name" : "android::IPCThreadState::restoreCallingIdentity",
   "linker_set_key" : "_ZN7android14IPCThreadState22restoreCallingIdentityEl",
   "parameters" :
   [
    {
     "is_this_ptr" : true,
     "referenced_type" : "_ZTIPN7android14IPCThreadStateE"
    },
    {
     "referenced_type" : "_ZTIl"
    }
   ],
   "return_type" : "_ZTIv",
   "source_file" : "/frameworks/native/libs/binder/include/binder/IPCThreadState.h"
  },
  {
   "function_name" : "android::IPCThreadState::setCallingWorkSourceUid",
   "linker_set_key" : "_ZN7android14IPCThreadState23setCallingWorkSourceUidEj",
   "parameters" :
   [
    {
     "is_this_ptr" : true,
     "referenced_type" : "_ZTIPN7android14IPCThreadStateE"
    },
    {
     "referenced_type" : "_ZTIj"
    }
   ],
   "return_type" : "_ZTIl",
   "source_file" : "/frameworks/native/libs/binder/include/binder/IPCThreadState.h"
  },
  {
   "function_name" : "android::IPCThreadState::clearPropagateWorkSource",
   "linker_set_key" : "_ZN7android14IPCThreadState24clearPropagateWorkSourceEv",
   "parameters" :
   [
    {
     "is_this_ptr" : true,
     "referenced_type" : "_ZTIPN7android14IPCThreadStateE"
    }
   ],
   "return_type" : "_ZTIv",
   "source_file" : "/frameworks/native/libs/binder/include/binder/IPCThreadState.h"
  },
  {
   "function_name" : "android::IPCThreadState::requestDeathNotification",
   "linker_set_key" : "_ZN7android14IPCThreadState24requestDeathNotificationEiPNS_8BpBinderE",
   "parameters" :
   [
    {
     "is_this_ptr" : true,
     "referenced_type" : "_ZTIPN7android14IPCThreadStateE"
    },
    {
     "referenced_type" : "_ZTIi"
    },
    {
     "referenced_type" : "_ZTIPN7android8BpBinderE"
    }
   ],
   "return_type" : "_ZTIi",
   "source_file" : "/frameworks/native/libs/binder/include/binder/IPCThreadState.h"
  },
  {
   "function_name" : "android::IPCThreadState::restoreCallingWorkSource",
   "linker_set_key" : "_ZN7android14IPCThreadState24restoreCallingWorkSourceEl",
   "parameters" :
   [
    {
     "is_this_ptr" : true,
     "referenced_type" : "_ZTIPN7android14IPCThreadStateE"
    },
    {
     "referenced_type" : "_ZTIl"
    }
   ],
   "return_type" : "_ZTIv",
   "source_file" : "/frameworks/native/libs/binder/include/binder/IPCThreadState.h"
  },
  {
   "function_name" : "android::IPCThreadState::blockUntilThreadAvailable",
   "linker_set_key" : "_ZN7android14IPCThreadState25blockUntilThreadAvailableEv",
   "parameters" :
   [
    {
     "is_this_ptr" : true,
     "referenced_type" : "_ZTIPN7android14IPCThreadStateE"
    }
   ],
   "return_type" : "_ZTIv",
   "source_file" : "/frameworks/native/libs/binder/include/binder/IPCThreadState.h"
  },
  {
   "function_name" : "android::IPCThreadState::disableBackgroundScheduling",
   "linker_set_key" : "_ZN7android14IPCThreadState27disableBackgroundSchedulingEb",
   "parameters" :
   [
    {
     "referenced_type" : "_ZTIb"
    }
   ],
   "return_type" : "_ZTIv",
   "source_file" : "/frameworks/native/libs/binder/include/binder/IPCThreadState.h"
  },
  {
   "function_name" : "android::IPCThreadState::backgroundSchedulingDisabled",
   "linker_set_key" : "_ZN7android14IPCThreadState28backgroundSchedulingDisabledEv",
   "parameters" :
   [
    {
     "is_this_ptr" : true,
     "referenced_type" : "_ZTIPN7android14IPCThreadStateE"
    }
   ],
   "return_type" : "_ZTIb",
   "source_file" : "/frameworks/native/libs/binder/include/binder/IPCThreadState.h"
  },
  {
   "function_name" : "android::IPCThreadState::setLastTransactionBinderFlags",
   "linker_set_key" : "_ZN7android14IPCThreadState29setLastTransactionBinderFlagsEi",
   "parameters" :
   [
    {
     "is_this_ptr" : true,
     "referenced_type" : "_ZTIPN7android14IPCThreadStateE"
    },
    {
     "referenced_type" : "_ZTIi"
    }
   ],
   "return_type" : "_ZTIv",
   "source_file" : "/frameworks/native/libs/binder/include/binder/IPCThreadState.h"
  },
  {
   "function_name" : "android::IPCThreadState::setCallingWorkSourceUidWithoutPropagation",
   "linker_set_key" : "_ZN7android14IPCThreadState41setCallingWorkSourceUidWithoutPropagationEj",
   "parameters" :
   [
    {
     "is_this_ptr" : true,
     "referenced_type" : "_ZTIPN7android14IPCThreadStateE"
    },
    {
     "referenced_type" : "_ZTIj"
    }
   ],
   "return_type" : "_ZTIl",
   "source_file" : "/frameworks/native/libs/binder/include/binder/IPCThreadState.h"
  },
  {
   "function_name" : "android::IPCThreadState::self",
   "linker_set_key" : "_ZN7android14IPCThreadState4selfEv",
   "return_type" : "_ZTIPN7android14IPCThreadStateE",
   "source_file" : "/frameworks/native/libs/binder/include/binder/IPCThreadState.h"
  },
  {
   "function_name" : "android::IPCThreadState::freeze",
   "linker_set_key" : "_ZN7android14IPCThreadState6freezeEibj",
   "parameters" :
   [
    {
     "referenced_type" : "_ZTIi"
    },
    {
     "referenced_type" : "_ZTIb"
    },
    {
     "referenced_type" : "_ZTIj"
    }
   ],
   "return_type" : "_ZTIi",
   "source_file" : "/frameworks/native/libs/binder/include/binder/IPCThreadState.h"
  },
  {
   "function_name" : "android::IPCThreadState::process",
   "linker_set_key" : "_ZN7android14IPCThreadState7processEv",
   "parameters" :
   [
    {
     "is_this_ptr" : true,
     "referenced_type" : "_ZTIPN7android14IPCThreadStateE"
    }
   ],
   "return_type" : "_ZTIN7android2spINS_12ProcessStateEEE",
   "source_file" : "/frameworks/native/libs/binder/include/binder/IPCThreadState.h"
  },
  {
   "function_name" : "android::IPCThreadState::shutdown",
   "linker_set_key" : "_ZN7android14IPCThreadState8shutdownEv",
   "return_type" : "_ZTIv",
   "source_file" : "/frameworks/native/libs/binder/include/binder/IPCThreadState.h"
  },
  {
   "function_name" : "android::IPCThreadState::transact",
   "linker_set_key" : "_ZN7android14IPCThreadState8transactEijRKNS_6ParcelEPS1_j",
   "parameters" :
   [
    {
     "is_this_ptr" : true,
     "referenced_type" : "_ZTIPN7android14IPCThreadStateE"
    },
    {
     "referenced_type" : "_ZTIi"
    },
    {
     "referenced_type" : "_ZTIj"
    },
    {
     "referenced_type" : "_ZTIRKN7android6ParcelE"
    },
    {
     "referenced_type" : "_ZTIPN7android6ParcelE"
    },
    {
     "referenced_type" : "_ZTIj"
    }
   ],
   "return_type" : "_ZTIi",
   "source_file" : "/frameworks/native/libs/binder/include/binder/IPCThreadState.h"
  },
  {
   "access" : "private",
   "function_name" : "android::IPCThreadState::sendReply",
   "linker_set_key" : "_ZN7android14IPCThreadState9sendReplyERKNS_6ParcelEj",
   "parameters" :
   [
    {
     "is_this_ptr" : true,
     "referenced_type" : "_ZTIPN7android14IPCThreadStateE"
    },
    {
     "referenced_type" : "_ZTIRKN7android6ParcelE"
    },
    {
     "referenced_type" : "_ZTIj"
    }
   ],
   "return_type" : "_ZTIi",
   "source_file" : "/frameworks/native/libs/binder/include/binder/IPCThreadState.h"
  },
  {
   "access" : "private",
   "function_name" : "android::IPCThreadState::IPCThreadState",
   "linker_set_key" : "_ZN7android14IPCThreadStateC1Ev",
   "parameters" :
   [
    {
     "is_this_ptr" : true,
     "referenced_type" : "_ZTIPN7android14IPCThreadStateE"
    }
   ],
   "return_type" : "_ZTIv",
   "source_file" : "/frameworks/native/libs/binder/include/binder/IPCThreadState.h"
  },
  {
   "access" : "private",
   "function_name" : "android::IPCThreadState::IPCThreadState",
   "linker_set_key" : "_ZN7android14IPCThreadStateC2Ev",
   "parameters" :
   [
    {
     "is_this_ptr" : true,
     "referenced_type" : "_ZTIPN7android14IPCThreadStateE"
    }
   ],
   "return_type" : "_ZTIv",
   "source_file" : "/frameworks/native/libs/binder/include/binder/IPCThreadState.h"
  },
  {
   "access" : "private",
   "function_name" : "android::IPCThreadState::~IPCThreadState",
   "linker_set_key" : "_ZN7android14IPCThreadStateD1Ev",
   "parameters" :
   [
    {
     "is_this_ptr" : true,
     "referenced_type" : "_ZTIPN7android14IPCThreadStateE"
    }
   ],
   "return_type" : "_ZTIv",
   "source_file" : "/frameworks/native/libs/binder/include/binder/IPCThreadState.h"
  },
  {
   "access" : "private",
   "function_name" : "android::IPCThreadState::~IPCThreadState",
   "linker_set_key" : "_ZN7android14IPCThreadStateD2Ev",
   "parameters" :
   [
    {
     "is_this_ptr" : true,
     "referenced_type" : "_ZTIPN7android14IPCThreadStateE"
    }
   ],
   "return_type" : "_ZTIv",
   "source_file" : "/frameworks/native/libs/binder/include/binder/IPCThreadState.h"
  },
  {
   "function_name" : "android::IShellCallback::asInterface",
   "linker_set_key" : "_ZN7android14IShellCallback11asInterfaceERKNS_2spINS_7IBinderEEE",
   "parameters" :
   [
    {
     "referenced_type" : "_ZTIRKN7android2spINS_7IBinderEEE"
    }
   ],
   "return_type" : "_ZTIN7android2spINS_14IShellCallbackEEE",
   "source_file" : "/frameworks/native/libs/binder/include/binder/IShellCallback.h"
  },
  {
   "function_name" : "android::IShellCallback::getDefaultImpl",
   "linker_set_key" : "_ZN7android14IShellCallback14getDefaultImplEv",
   "return_type" : "_ZTIRKNSt3__110unique_ptrIN7android14IShellCallbackENS_14default_deleteIS2_EEEE",
   "source_file" : "/frameworks/native/libs/binder/include/binder/IShellCallback.h"
  },
  {
   "function_name" : "android::IShellCallback::setDefaultImpl",
   "linker_set_key" : "_ZN7android14IShellCallback14setDefaultImplENSt3__110unique_ptrIS0_NS1_14default_deleteIS0_EEEE",
   "parameters" :
   [
    {
     "referenced_type" : "_ZTINSt3__110unique_ptrIN7android14IShellCallbackENS_14default_deleteIS2_EEEE"
    }
   ],
   "return_type" : "_ZTIb",
   "source_file" : "/frameworks/native/libs/binder/include/binder/IShellCallback.h"
  },
  {
   "function_name" : "android::IShellCallback::IShellCallback",
   "linker_set_key" : "_ZN7android14IShellCallbackC2Ev",
   "parameters" :
   [
    {
     "is_this_ptr" : true,
     "referenced_type" : "_ZTIPN7android14IShellCallbackE"
    }
   ],
   "return_type" : "_ZTIv",
   "source_file" : "/frameworks/native/libs/binder/include/binder/IShellCallback.h"
  },
  {
   "function_name" : "android::IShellCallback::~IShellCallback",
   "linker_set_key" : "_ZN7android14IShellCallbackD0Ev",
   "parameters" :
   [
    {
     "is_this_ptr" : true,
     "referenced_type" : "_ZTIPN7android14IShellCallbackE"
    }
   ],
   "return_type" : "_ZTIv",
   "source_file" : "/frameworks/native/libs/binder/include/binder/IShellCallback.h"
  },
  {
   "function_name" : "android::IShellCallback::~IShellCallback",
   "linker_set_key" : "_ZN7android14IShellCallbackD1Ev",
   "parameters" :
   [
    {
     "is_this_ptr" : true,
     "referenced_type" : "_ZTIPN7android14IShellCallbackE"
    }
   ],
   "return_type" : "_ZTIv",
   "source_file" : "/frameworks/native/libs/binder/include/binder/IShellCallback.h"
  },
  {
   "function_name" : "android::IShellCallback::~IShellCallback",
   "linker_set_key" : "_ZN7android14IShellCallbackD2Ev",
   "parameters" :
   [
    {
     "is_this_ptr" : true,
     "referenced_type" : "_ZTIPN7android14IShellCallbackE"
    }
   ],
   "return_type" : "_ZTIv",
   "source_file" : "/frameworks/native/libs/binder/include/binder/IShellCallback.h"
  },
  {
   "access" : "protected",
   "function_name" : "android::MemoryHeapBase::init",
   "linker_set_key" : "_ZN7android14MemoryHeapBase4initEiPvmiPKc",
   "parameters" :
   [
    {
     "is_this_ptr" : true,
     "referenced_type" : "_ZTIPN7android14MemoryHeapBaseE"
    },
    {
     "referenced_type" : "_ZTIi"
    },
    {
     "referenced_type" : "_ZTIPv"
    },
    {
     "referenced_type" : "_ZTIm"
    },
    {
     "default_arg" : true,
     "referenced_type" : "_ZTIi"
    },
    {
     "default_arg" : true,
     "referenced_type" : "_ZTIPKc"
    }
   ],
   "return_type" : "_ZTIi",
   "source_file" : "/frameworks/native/libs/binder/include/binder/MemoryHeapBase.h"
  },
  {
   "access" : "private",
   "function_name" : "android::MemoryHeapBase::mapfd",
   "linker_set_key" : "_ZN7android14MemoryHeapBase5mapfdEiml",
   "parameters" :
   [
    {
     "is_this_ptr" : true,
     "referenced_type" : "_ZTIPN7android14MemoryHeapBaseE"
    },
    {
     "referenced_type" : "_ZTIi"
    },
    {
     "referenced_type" : "_ZTIm"
    },
    {
     "default_arg" : true,
     "referenced_type" : "_ZTIl"
    }
   ],
   "return_type" : "_ZTIi",
   "source_file" : "/frameworks/native/libs/binder/include/binder/MemoryHeapBase.h"
  },
  {
   "function_name" : "android::MemoryHeapBase::dispose",
   "linker_set_key" : "_ZN7android14MemoryHeapBase7disposeEv",
   "parameters" :
   [
    {
     "is_this_ptr" : true,
     "referenced_type" : "_ZTIPN7android14MemoryHeapBaseE"
    }
   ],
   "return_type" : "_ZTIv",
   "source_file" : "/frameworks/native/libs/binder/include/binder/MemoryHeapBase.h"
  },
  {
   "function_name" : "android::MemoryHeapBase::MemoryHeapBase",
   "linker_set_key" : "_ZN7android14MemoryHeapBaseC1EPKcmj",
   "parameters" :
   [
    {
     "is_this_ptr" : true,
     "referenced_type" : "_ZTIPN7android14MemoryHeapBaseE"
    },
    {
     "referenced_type" : "_ZTIPKc"
    },
    {
     "default_arg" : true,
     "referenced_type" : "_ZTIm"
    },
    {
     "default_arg" : true,
     "referenced_type" : "_ZTIj"
    }
   ],
   "return_type" : "_ZTIv",
   "source_file" : "/frameworks/native/libs/binder/include/binder/MemoryHeapBase.h"
  },
  {
   "function_name" : "android::MemoryHeapBase::MemoryHeapBase",
   "linker_set_key" : "_ZN7android14MemoryHeapBaseC1Eimjl",
   "parameters" :
   [
    {
     "is_this_ptr" : true,
     "referenced_type" : "_ZTIPN7android14MemoryHeapBaseE"
    },
    {
     "referenced_type" : "_ZTIi"
    },
    {
     "referenced_type" : "_ZTIm"
    },
    {
     "default_arg" : true,
     "referenced_type" : "_ZTIj"
    },
    {
     "default_arg" : true,
     "referenced_type" : "_ZTIl"
    }
   ],
   "return_type" : "_ZTIv",
   "source_file" : "/frameworks/native/libs/binder/include/binder/MemoryHeapBase.h"
  },
  {
   "function_name" : "android::MemoryHeapBase::MemoryHeapBase",
   "linker_set_key" : "_ZN7android14MemoryHeapBaseC1EmjPKc",
   "parameters" :
   [
    {
     "is_this_ptr" : true,
     "referenced_type" : "_ZTIPN7android14MemoryHeapBaseE"
    },
    {
     "referenced_type" : "_ZTIm"
    },
    {
     "default_arg" : true,
     "referenced_type" : "_ZTIj"
    },
    {
     "default_arg" : true,
     "referenced_type" : "_ZTIPKc"
    }
   ],
   "return_type" : "_ZTIv",
   "source_file" : "/frameworks/native/libs/binder/include/binder/MemoryHeapBase.h"
  },
  {
   "access" : "protected",
   "function_name" : "android::MemoryHeapBase::MemoryHeapBase",
   "linker_set_key" : "_ZN7android14MemoryHeapBaseC1Ev",
   "parameters" :
   [
    {
     "is_this_ptr" : true,
     "referenced_type" : "_ZTIPN7android14MemoryHeapBaseE"
    }
   ],
   "return_type" : "_ZTIv",
   "source_file" : "/frameworks/native/libs/binder/include/binder/MemoryHeapBase.h"
  },
  {
   "function_name" : "android::MemoryHeapBase::MemoryHeapBase",
   "linker_set_key" : "_ZN7android14MemoryHeapBaseC2EPKcmj",
   "parameters" :
   [
    {
     "is_this_ptr" : true,
     "referenced_type" : "_ZTIPN7android14MemoryHeapBaseE"
    },
    {
     "referenced_type" : "_ZTIPKc"
    },
    {
     "default_arg" : true,
     "referenced_type" : "_ZTIm"
    },
    {
     "default_arg" : true,
     "referenced_type" : "_ZTIj"
    }
   ],
   "return_type" : "_ZTIv",
   "source_file" : "/frameworks/native/libs/binder/include/binder/MemoryHeapBase.h"
  },
  {
   "function_name" : "android::MemoryHeapBase::MemoryHeapBase",
   "linker_set_key" : "_ZN7android14MemoryHeapBaseC2Eimjl",
   "parameters" :
   [
    {
     "is_this_ptr" : true,
     "referenced_type" : "_ZTIPN7android14MemoryHeapBaseE"
    },
    {
     "referenced_type" : "_ZTIi"
    },
    {
     "referenced_type" : "_ZTIm"
    },
    {
     "default_arg" : true,
     "referenced_type" : "_ZTIj"
    },
    {
     "default_arg" : true,
     "referenced_type" : "_ZTIl"
    }
   ],
   "return_type" : "_ZTIv",
   "source_file" : "/frameworks/native/libs/binder/include/binder/MemoryHeapBase.h"
  },
  {
   "function_name" : "android::MemoryHeapBase::MemoryHeapBase",
   "linker_set_key" : "_ZN7android14MemoryHeapBaseC2EmjPKc",
   "parameters" :
   [
    {
     "is_this_ptr" : true,
     "referenced_type" : "_ZTIPN7android14MemoryHeapBaseE"
    },
    {
     "referenced_type" : "_ZTIm"
    },
    {
     "default_arg" : true,
     "referenced_type" : "_ZTIj"
    },
    {
     "default_arg" : true,
     "referenced_type" : "_ZTIPKc"
    }
   ],
   "return_type" : "_ZTIv",
   "source_file" : "/frameworks/native/libs/binder/include/binder/MemoryHeapBase.h"
  },
  {
   "access" : "protected",
   "function_name" : "android::MemoryHeapBase::MemoryHeapBase",
   "linker_set_key" : "_ZN7android14MemoryHeapBaseC2Ev",
   "parameters" :
   [
    {
     "is_this_ptr" : true,
     "referenced_type" : "_ZTIPN7android14MemoryHeapBaseE"
    }
   ],
   "return_type" : "_ZTIv",
   "source_file" : "/frameworks/native/libs/binder/include/binder/MemoryHeapBase.h"
  },
  {
   "function_name" : "android::MemoryHeapBase::~MemoryHeapBase",
   "linker_set_key" : "_ZN7android14MemoryHeapBaseD0Ev",
   "parameters" :
   [
    {
     "is_this_ptr" : true,
     "referenced_type" : "_ZTIPN7android14MemoryHeapBaseE"
    }
   ],
   "return_type" : "_ZTIv",
   "source_file" : "/frameworks/native/libs/binder/include/binder/MemoryHeapBase.h"
  },
  {
   "function_name" : "android::MemoryHeapBase::~MemoryHeapBase",
   "linker_set_key" : "_ZN7android14MemoryHeapBaseD1Ev",
   "parameters" :
   [
    {
     "is_this_ptr" : true,
     "referenced_type" : "_ZTIPN7android14MemoryHeapBaseE"
    }
   ],
   "return_type" : "_ZTIv",
   "source_file" : "/frameworks/native/libs/binder/include/binder/MemoryHeapBase.h"
  },
  {
   "function_name" : "android::MemoryHeapBase::~MemoryHeapBase",
   "linker_set_key" : "_ZN7android14MemoryHeapBaseD2Ev",
   "parameters" :
   [
    {
     "is_this_ptr" : true,
     "referenced_type" : "_ZTIPN7android14MemoryHeapBaseE"
    }
   ],
   "return_type" : "_ZTIv",
   "source_file" : "/frameworks/native/libs/binder/include/binder/MemoryHeapBase.h"
  },
  {
   "function_name" : "android::BnShellCallback::onTransact",
   "linker_set_key" : "_ZN7android15BnShellCallback10onTransactEjRKNS_6ParcelEPS1_j",
   "parameters" :
   [
    {
     "is_this_ptr" : true,
     "referenced_type" : "_ZTIPN7android15BnShellCallbackE"
    },
    {
     "referenced_type" : "_ZTIj"
    },
    {
     "referenced_type" : "_ZTIRKN7android6ParcelE"
    },
    {
     "referenced_type" : "_ZTIPN7android6ParcelE"
    },
    {
     "default_arg" : true,
     "referenced_type" : "_ZTIj"
    }
   ],
   "return_type" : "_ZTIi",
   "source_file" : "/frameworks/native/libs/binder/include/binder/IShellCallback.h"
  },
  {
   "function_name" : "android::IResultReceiver::asInterface",
   "linker_set_key" : "_ZN7android15IResultReceiver11asInterfaceERKNS_2spINS_7IBinderEEE",
   "parameters" :
   [
    {
     "referenced_type" : "_ZTIRKN7android2spINS_7IBinderEEE"
    }
   ],
   "return_type" : "_ZTIN7android2spINS_15IResultReceiverEEE",
   "source_file" : "/frameworks/native/libs/binder/include/binder/IResultReceiver.h"
  },
  {
   "function_name" : "android::IResultReceiver::getDefaultImpl",
   "linker_set_key" : "_ZN7android15IResultReceiver14getDefaultImplEv",
   "return_type" : "_ZTIRKNSt3__110unique_ptrIN7android15IResultReceiverENS_14default_deleteIS2_EEEE",
   "source_file" : "/frameworks/native/libs/binder/include/binder/IResultReceiver.h"
  },
  {
   "function_name" : "android::IResultReceiver::setDefaultImpl",
   "linker_set_key" : "_ZN7android15IResultReceiver14setDefaultImplENSt3__110unique_ptrIS0_NS1_14default_deleteIS0_EEEE",
   "parameters" :
   [
    {
     "referenced_type" : "_ZTINSt3__110unique_ptrIN7android15IResultReceiverENS_14default_deleteIS2_EEEE"
    }
   ],
   "return_type" : "_ZTIb",
   "source_file" : "/frameworks/native/libs/binder/include/binder/IResultReceiver.h"
  },
  {
   "function_name" : "android::IResultReceiver::IResultReceiver",
   "linker_set_key" : "_ZN7android15IResultReceiverC2Ev",
   "parameters" :
   [
    {
     "is_this_ptr" : true,
     "referenced_type" : "_ZTIPN7android15IResultReceiverE"
    }
   ],
   "return_type" : "_ZTIv",
   "source_file" : "/frameworks/native/libs/binder/include/binder/IResultReceiver.h"
  },
  {
   "function_name" : "android::IResultReceiver::~IResultReceiver",
   "linker_set_key" : "_ZN7android15IResultReceiverD0Ev",
   "parameters" :
   [
    {
     "is_this_ptr" : true,
     "referenced_type" : "_ZTIPN7android15IResultReceiverE"
    }
   ],
   "return_type" : "_ZTIv",
   "source_file" : "/frameworks/native/libs/binder/include/binder/IResultReceiver.h"
  },
  {
   "function_name" : "android::IResultReceiver::~IResultReceiver",
   "linker_set_key" : "_ZN7android15IResultReceiverD1Ev",
   "parameters" :
   [
    {
     "is_this_ptr" : true,
     "referenced_type" : "_ZTIPN7android15IResultReceiverE"
    }
   ],
   "return_type" : "_ZTIv",
   "source_file" : "/frameworks/native/libs/binder/include/binder/IResultReceiver.h"
  },
  {
   "function_name" : "android::IResultReceiver::~IResultReceiver",
   "linker_set_key" : "_ZN7android15IResultReceiverD2Ev",
   "parameters" :
   [
    {
     "is_this_ptr" : true,
     "referenced_type" : "_ZTIPN7android15IResultReceiverE"
    }
   ],
   "return_type" : "_ZTIv",
   "source_file" : "/frameworks/native/libs/binder/include/binder/IResultReceiver.h"
  },
  {
   "function_name" : "android::IServiceManager::IServiceManager",
   "linker_set_key" : "_ZN7android15IServiceManagerC2Ev",
   "parameters" :
   [
    {
     "is_this_ptr" : true,
     "referenced_type" : "_ZTIPN7android15IServiceManagerE"
    }
   ],
   "return_type" : "_ZTIv",
   "source_file" : "/frameworks/native/libs/binder/include/binder/IServiceManager.h"
  },
  {
   "function_name" : "android::IServiceManager::~IServiceManager",
   "linker_set_key" : "_ZN7android15IServiceManagerD0Ev",
   "parameters" :
   [
    {
     "is_this_ptr" : true,
     "referenced_type" : "_ZTIPN7android15IServiceManagerE"
    }
   ],
   "return_type" : "_ZTIv",
   "source_file" : "/frameworks/native/libs/binder/include/binder/IServiceManager.h"
  },
  {
   "function_name" : "android::IServiceManager::~IServiceManager",
   "linker_set_key" : "_ZN7android15IServiceManagerD1Ev",
   "parameters" :
   [
    {
     "is_this_ptr" : true,
     "referenced_type" : "_ZTIPN7android15IServiceManagerE"
    }
   ],
   "return_type" : "_ZTIv",
   "source_file" : "/frameworks/native/libs/binder/include/binder/IServiceManager.h"
  },
  {
   "function_name" : "android::IServiceManager::~IServiceManager",
   "linker_set_key" : "_ZN7android15IServiceManagerD2Ev",
   "parameters" :
   [
    {
     "is_this_ptr" : true,
     "referenced_type" : "_ZTIPN7android15IServiceManagerE"
    }
   ],
   "return_type" : "_ZTIv",
   "source_file" : "/frameworks/native/libs/binder/include/binder/IServiceManager.h"
  },
  {
   "function_name" : "android::BnResultReceiver::onTransact",
   "linker_set_key" : "_ZN7android16BnResultReceiver10onTransactEjRKNS_6ParcelEPS1_j",
   "parameters" :
   [
    {
     "is_this_ptr" : true,
     "referenced_type" : "_ZTIPN7android16BnResultReceiverE"
    },
    {
     "referenced_type" : "_ZTIj"
    },
    {
     "referenced_type" : "_ZTIRKN7android6ParcelE"
    },
    {
     "referenced_type" : "_ZTIPN7android6ParcelE"
    },
    {
     "default_arg" : true,
     "referenced_type" : "_ZTIj"
    }
   ],
   "return_type" : "_ZTIi",
   "source_file" : "/frameworks/native/libs/binder/include/binder/IResultReceiver.h"
  },
  {
   "function_name" : "android::defaultServiceManager",
   "linker_set_key" : "_ZN7android21defaultServiceManagerEv",
   "return_type" : "_ZTIN7android2spINS_15IServiceManagerEEE",
   "source_file" : "/frameworks/native/libs/binder/include/binder/IServiceManager.h"
  },
  {
   "function_name" : "android::setDefaultServiceManager",
   "linker_set_key" : "_ZN7android24setDefaultServiceManagerERKNS_2spINS_15IServiceManagerEEE",
   "parameters" :
   [
    {
     "referenced_type" : "_ZTIRKN7android2spINS_15IServiceManagerEEE"
    }
   ],
   "return_type" : "_ZTIv",
   "source_file" : "/frameworks/native/libs/binder/include/binder/IServiceManager.h"
  },
  {
   "function_name" : "android::os::PersistableBundle::putBoolean",
   "linker_set_key" : "_ZN7android2os17PersistableBundle10putBooleanERKNS_8String16Eb",
   "parameters" :
   [
    {
     "is_this_ptr" : true,
     "referenced_type" : "_ZTIPN7android2os17PersistableBundleE"
    },
    {
     "referenced_type" : "_ZTIRKN7android8String16E"
    },
    {
     "referenced_type" : "_ZTIb"
    }
   ],
   "return_type" : "_ZTIv",
   "source_file" : "/frameworks/native/libs/binder/include/binder/PersistableBundle.h"
  },
  {
   "function_name" : "android::os::PersistableBundle::putIntVector",
   "linker_set_key" : "_ZN7android2os17PersistableBundle12putIntVectorERKNS_8String16ERKNSt3__16vectorIiNS5_9allocatorIiEEEE",
   "parameters" :
   [
    {
     "is_this_ptr" : true,
     "referenced_type" : "_ZTIPN7android2os17PersistableBundleE"
    },
    {
     "referenced_type" : "_ZTIRKN7android8String16E"
    },
    {
     "referenced_type" : "_ZTIRKNSt3__16vectorIiNS_9allocatorIiEEEE"
    }
   ],
   "return_type" : "_ZTIv",
   "source_file" : "/frameworks/native/libs/binder/include/binder/PersistableBundle.h"
  },
  {
   "function_name" : "android::os::PersistableBundle::putLongVector",
   "linker_set_key" : "_ZN7android2os17PersistableBundle13putLongVectorERKNS_8String16ERKNSt3__16vectorIlNS5_9allocatorIlEEEE",
   "parameters" :
   [
    {
     "is_this_ptr" : true,
     "referenced_type" : "_ZTIPN7android2os17PersistableBundleE"
    },
    {
     "referenced_type" : "_ZTIRKN7android8String16E"
    },
    {
     "referenced_type" : "_ZTIRKNSt3__16vectorIlNS_9allocatorIlEEEE"
    }
   ],
   "return_type" : "_ZTIv",
   "source_file" : "/frameworks/native/libs/binder/include/binder/PersistableBundle.h"
  },
  {
   "function_name" : "android::os::PersistableBundle::readFromParcel",
   "linker_set_key" : "_ZN7android2os17PersistableBundle14readFromParcelEPKNS_6ParcelE",
   "parameters" :
   [
    {
     "is_this_ptr" : true,
     "referenced_type" : "_ZTIPN7android2os17PersistableBundleE"
    },
    {
     "referenced_type" : "_ZTIPKN7android6ParcelE"
    }
   ],
   "return_type" : "_ZTIi",
   "source_file" : "/frameworks/native/libs/binder/include/binder/PersistableBundle.h"
  },
  {
   "function_name" : "android::os::PersistableBundle::putDoubleVector",
   "linker_set_key" : "_ZN7android2os17PersistableBundle15putDoubleVectorERKNS_8String16ERKNSt3__16vectorIdNS5_9allocatorIdEEEE",
   "parameters" :
   [
    {
     "is_this_ptr" : true,
     "referenced_type" : "_ZTIPN7android2os17PersistableBundleE"
    },
    {
     "referenced_type" : "_ZTIRKN7android8String16E"
    },
    {
     "referenced_type" : "_ZTIRKNSt3__16vectorIdNS_9allocatorIdEEEE"
    }
   ],
   "return_type" : "_ZTIv",
   "source_file" : "/frameworks/native/libs/binder/include/binder/PersistableBundle.h"
  },
  {
   "function_name" : "android::os::PersistableBundle::putStringVector",
   "linker_set_key" : "_ZN7android2os17PersistableBundle15putStringVectorERKNS_8String16ERKNSt3__16vectorIS2_NS5_9allocatorIS2_EEEE",
   "parameters" :
   [
    {
     "is_this_ptr" : true,
     "referenced_type" : "_ZTIPN7android2os17PersistableBundleE"
    },
    {
     "referenced_type" : "_ZTIRKN7android8String16E"
    },
    {
     "referenced_type" : "_ZTIRKNSt3__16vectorIN7android8String16ENS_9allocatorIS2_EEEE"
    }
   ],
   "return_type" : "_ZTIv",
   "source_file" : "/frameworks/native/libs/binder/include/binder/PersistableBundle.h"
  },
  {
   "function_name" : "android::os::PersistableBundle::putBooleanVector",
   "linker_set_key" : "_ZN7android2os17PersistableBundle16putBooleanVectorERKNS_8String16ERKNSt3__16vectorIbNS5_9allocatorIbEEEE",
   "parameters" :
   [
    {
     "is_this_ptr" : true,
     "referenced_type" : "_ZTIPN7android2os17PersistableBundleE"
    },
    {
     "referenced_type" : "_ZTIRKN7android8String16E"
    },
    {
     "referenced_type" : "_ZTIRKNSt3__16vectorIbNS_9allocatorIbEEEE"
    }
   ],
   "return_type" : "_ZTIv",
   "source_file" : "/frameworks/native/libs/binder/include/binder/PersistableBundle.h"
  },
  {
   "access" : "private",
   "function_name" : "android::os::PersistableBundle::readFromParcelInner",
   "linker_set_key" : "_ZN7android2os17PersistableBundle19readFromParcelInnerEPKNS_6ParcelEm",
   "parameters" :
   [
    {
     "is_this_ptr" : true,
     "referenced_type" : "_ZTIPN7android2os17PersistableBundleE"
    },
    {
     "referenced_type" : "_ZTIPKN7android6ParcelE"
    },
    {
     "referenced_type" : "_ZTIm"
    }
   ],
   "return_type" : "_ZTIi",
   "source_file" : "/frameworks/native/libs/binder/include/binder/PersistableBundle.h"
  },
  {
   "function_name" : "android::os::PersistableBundle::putPersistableBundle",
   "linker_set_key" : "_ZN7android2os17PersistableBundle20putPersistableBundleERKNS_8String16ERKS1_",
   "parameters" :
   [
    {
     "is_this_ptr" : true,
     "referenced_type" : "_ZTIPN7android2os17PersistableBundleE"
    },
    {
     "referenced_type" : "_ZTIRKN7android8String16E"
    },
    {
     "referenced_type" : "_ZTIRKN7android2os17PersistableBundleE"
    }
   ],
   "return_type" : "_ZTIv",
   "source_file" : "/frameworks/native/libs/binder/include/binder/PersistableBundle.h"
  },
  {
   "function_name" : "android::os::PersistableBundle::erase",
   "linker_set_key" : "_ZN7android2os17PersistableBundle5eraseERKNS_8String16E",
   "parameters" :
   [
    {
     "is_this_ptr" : true,
     "referenced_type" : "_ZTIPN7android2os17PersistableBundleE"
    },
    {
     "referenced_type" : "_ZTIRKN7android8String16E"
    }
   ],
   "return_type" : "_ZTIm",
   "source_file" : "/frameworks/native/libs/binder/include/binder/PersistableBundle.h"
  },
  {
   "function_name" : "android::os::PersistableBundle::putInt",
   "linker_set_key" : "_ZN7android2os17PersistableBundle6putIntERKNS_8String16Ei",
   "parameters" :
   [
    {
     "is_this_ptr" : true,
     "referenced_type" : "_ZTIPN7android2os17PersistableBundleE"
    },
    {
     "referenced_type" : "_ZTIRKN7android8String16E"
    },
    {
     "referenced_type" : "_ZTIi"
    }
   ],
   "return_type" : "_ZTIv",
   "source_file" : "/frameworks/native/libs/binder/include/binder/PersistableBundle.h"
  },
  {
   "function_name" : "android::os::PersistableBundle::putLong",
   "linker_set_key" : "_ZN7android2os17PersistableBundle7putLongERKNS_8String16El",
   "parameters" :
   [
    {
     "is_this_ptr" : true,
     "referenced_type" : "_ZTIPN7android2os17PersistableBundleE"
    },
    {
     "referenced_type" : "_ZTIRKN7android8String16E"
    },
    {
     "referenced_type" : "_ZTIl"
    }
   ],
   "return_type" : "_ZTIv",
   "source_file" : "/frameworks/native/libs/binder/include/binder/PersistableBundle.h"
  },
  {
   "function_name" : "android::os::PersistableBundle::putDouble",
   "linker_set_key" : "_ZN7android2os17PersistableBundle9putDoubleERKNS_8String16Ed",
   "parameters" :
   [
    {
     "is_this_ptr" : true,
     "referenced_type" : "_ZTIPN7android2os17PersistableBundleE"
    },
    {
     "referenced_type" : "_ZTIRKN7android8String16E"
    },
    {
     "referenced_type" : "_ZTId"
    }
   ],
   "return_type" : "_ZTIv",
   "source_file" : "/frameworks/native/libs/binder/include/binder/PersistableBundle.h"
  },
  {
   "function_name" : "android::os::PersistableBundle::putString",
   "linker_set_key" : "_ZN7android2os17PersistableBundle9putStringERKNS_8String16ES4_",
   "parameters" :
   [
    {
     "is_this_ptr" : true,
     "referenced_type" : "_ZTIPN7android2os17PersistableBundleE"
    },
    {
     "referenced_type" : "_ZTIRKN7android8String16E"
    },
    {
     "referenced_type" : "_ZTIRKN7android8String16E"
    }
   ],
   "return_type" : "_ZTIv",
   "source_file" : "/frameworks/native/libs/binder/include/binder/PersistableBundle.h"
  },
  {
   "function_name" : "android::os::ParcelFileDescriptor::readFromParcel",
   "linker_set_key" : "_ZN7android2os20ParcelFileDescriptor14readFromParcelEPKNS_6ParcelE",
   "parameters" :
   [
    {
     "is_this_ptr" : true,
     "referenced_type" : "_ZTIPN7android2os20ParcelFileDescriptorE"
    },
    {
     "referenced_type" : "_ZTIPKN7android6ParcelE"
    }
   ],
   "return_type" : "_ZTIi",
   "source_file" : "/frameworks/native/libs/binder/include/binder/ParcelFileDescriptor.h"
  },
  {
   "function_name" : "android::os::ParcelFileDescriptor::ParcelFileDescriptor",
   "linker_set_key" : "_ZN7android2os20ParcelFileDescriptorC1ENS_4base14unique_fd_implINS2_13DefaultCloserEEE",
   "parameters" :
   [
    {
     "is_this_ptr" : true,
     "referenced_type" : "_ZTIPN7android2os20ParcelFileDescriptorE"
    },
    {
     "referenced_type" : "_ZTIN7android4base14unique_fd_implINS0_13DefaultCloserEEE"
    }
   ],
   "return_type" : "_ZTIv",
   "source_file" : "/frameworks/native/libs/binder/include/binder/ParcelFileDescriptor.h"
  },
  {
   "function_name" : "android::os::ParcelFileDescriptor::ParcelFileDescriptor",
   "linker_set_key" : "_ZN7android2os20ParcelFileDescriptorC1Ev",
   "parameters" :
   [
    {
     "is_this_ptr" : true,
     "referenced_type" : "_ZTIPN7android2os20ParcelFileDescriptorE"
    }
   ],
   "return_type" : "_ZTIv",
   "source_file" : "/frameworks/native/libs/binder/include/binder/ParcelFileDescriptor.h"
  },
  {
   "function_name" : "android::os::ParcelFileDescriptor::ParcelFileDescriptor",
   "linker_set_key" : "_ZN7android2os20ParcelFileDescriptorC2ENS_4base14unique_fd_implINS2_13DefaultCloserEEE",
   "parameters" :
   [
    {
     "is_this_ptr" : true,
     "referenced_type" : "_ZTIPN7android2os20ParcelFileDescriptorE"
    },
    {
     "referenced_type" : "_ZTIN7android4base14unique_fd_implINS0_13DefaultCloserEEE"
    }
   ],
   "return_type" : "_ZTIv",
   "source_file" : "/frameworks/native/libs/binder/include/binder/ParcelFileDescriptor.h"
  },
  {
   "function_name" : "android::os::ParcelFileDescriptor::ParcelFileDescriptor",
   "linker_set_key" : "_ZN7android2os20ParcelFileDescriptorC2Ev",
   "parameters" :
   [
    {
     "is_this_ptr" : true,
     "referenced_type" : "_ZTIPN7android2os20ParcelFileDescriptorE"
    }
   ],
   "return_type" : "_ZTIv",
   "source_file" : "/frameworks/native/libs/binder/include/binder/ParcelFileDescriptor.h"
  },
  {
   "function_name" : "android::os::ParcelFileDescriptor::~ParcelFileDescriptor",
   "linker_set_key" : "_ZN7android2os20ParcelFileDescriptorD0Ev",
   "parameters" :
   [
    {
     "is_this_ptr" : true,
     "referenced_type" : "_ZTIPN7android2os20ParcelFileDescriptorE"
    }
   ],
   "return_type" : "_ZTIv",
   "source_file" : "/frameworks/native/libs/binder/include/binder/ParcelFileDescriptor.h"
  },
  {
   "function_name" : "android::os::ParcelFileDescriptor::~ParcelFileDescriptor",
   "linker_set_key" : "_ZN7android2os20ParcelFileDescriptorD1Ev",
   "parameters" :
   [
    {
     "is_this_ptr" : true,
     "referenced_type" : "_ZTIPN7android2os20ParcelFileDescriptorE"
    }
   ],
   "return_type" : "_ZTIv",
   "source_file" : "/frameworks/native/libs/binder/include/binder/ParcelFileDescriptor.h"
  },
  {
   "function_name" : "android::os::ParcelFileDescriptor::~ParcelFileDescriptor",
   "linker_set_key" : "_ZN7android2os20ParcelFileDescriptorD2Ev",
   "parameters" :
   [
    {
     "is_this_ptr" : true,
     "referenced_type" : "_ZTIPN7android2os20ParcelFileDescriptorE"
    }
   ],
   "return_type" : "_ZTIv",
   "source_file" : "/frameworks/native/libs/binder/include/binder/ParcelFileDescriptor.h"
  },
  {
   "function_name" : "android::sp<android::ProcessState>::~sp",
   "linker_set_key" : "_ZN7android2spINS_12ProcessStateEED2Ev",
   "parameters" :
   [
    {
     "is_this_ptr" : true,
     "referenced_type" : "_ZTIPN7android2spINS_12ProcessStateEEE"
    }
   ],
   "return_type" : "_ZTIv",
   "source_file" : "/system/core/libutils/include/utils/StrongPointer.h"
  },
  {
   "function_name" : "android::sp<android::BBinder>::~sp",
   "linker_set_key" : "_ZN7android2spINS_7BBinderEED2Ev",
   "parameters" :
   [
    {
     "is_this_ptr" : true,
     "referenced_type" : "_ZTIPN7android2spINS_7BBinderEEE"
    }
   ],
   "return_type" : "_ZTIv",
   "source_file" : "/system/core/libutils/include/utils/StrongPointer.h"
  },
  {
   "function_name" : "android::sp<android::HeapCache>::~sp",
   "linker_set_key" : "_ZN7android2spINS_9HeapCacheEED2Ev",
   "parameters" :
   [
    {
     "is_this_ptr" : true,
     "referenced_type" : "_ZTIPN7android2spINS_9HeapCacheEEE"
    }
   ],
   "return_type" : "_ZTIv",
   "source_file" : "/system/core/libutils/include/utils/StrongPointer.h"
  },
  {
   "function_name" : "android::Parcel::appendFrom",
   "linker_set_key" : "_ZN7android6Parcel10appendFromEPKS0_mm",
   "parameters" :
   [
    {
     "is_this_ptr" : true,
     "referenced_type" : "_ZTIPN7android6ParcelE"
    },
    {
     "referenced_type" : "_ZTIPKN7android6ParcelE"
    },
    {
     "referenced_type" : "_ZTIm"
    },
    {
     "referenced_type" : "_ZTIm"
    }
   ],
   "return_type" : "_ZTIi",
   "source_file" : "/frameworks/native/libs/binder/include/binder/Parcel.h"
  },
  {
   "function_name" : "android::Parcel::writeFloat",
   "linker_set_key" : "_ZN7android6Parcel10writeFloatEf",
   "parameters" :
   [
    {
     "is_this_ptr" : true,
     "referenced_type" : "_ZTIPN7android6ParcelE"
    },
    {
     "referenced_type" : "_ZTIf"
    }
   ],
   "return_type" : "_ZTIi",
   "source_file" : "/frameworks/native/libs/binder/include/binder/Parcel.h"
  },
  {
   "function_name" : "android::Parcel::writeInt32",
   "linker_set_key" : "_ZN7android6Parcel10writeInt32Ei",
   "parameters" :
   [
    {
     "is_this_ptr" : true,
     "referenced_type" : "_ZTIPN7android6ParcelE"
    },
    {
     "referenced_type" : "_ZTIi"
    }
   ],
   "return_type" : "_ZTIi",
   "source_file" : "/frameworks/native/libs/binder/include/binder/Parcel.h"
  },
  {
   "function_name" : "android::Parcel::writeInt64",
   "linker_set_key" : "_ZN7android6Parcel10writeInt64El",
   "parameters" :
   [
    {
     "is_this_ptr" : true,
     "referenced_type" : "_ZTIPN7android6ParcelE"
    },
    {
     "referenced_type" : "_ZTIl"
    }
   ],
   "return_type" : "_ZTIi",
   "source_file" : "/frameworks/native/libs/binder/include/binder/Parcel.h"
  },
  {
   "function_name" : "android::Parcel::compareData",
   "linker_set_key" : "_ZN7android6Parcel11compareDataERKS0_",
   "parameters" :
   [
    {
     "is_this_ptr" : true,
     "referenced_type" : "_ZTIPN7android6ParcelE"
    },
    {
     "referenced_type" : "_ZTIRKN7android6ParcelE"
    }
   ],
   "return_type" : "_ZTIi",
   "source_file" : "/frameworks/native/libs/binder/include/binder/Parcel.h"
  },
  {
   "access" : "private",
   "function_name" : "android::Parcel::finishWrite",
   "linker_set_key" : "_ZN7android6Parcel11finishWriteEm",
   "parameters" :
   [
    {
     "is_this_ptr" : true,
     "referenced_type" : "_ZTIPN7android6ParcelE"
    },
    {
     "referenced_type" : "_ZTIm"
    }
   ],
   "return_type" : "_ZTIi",
   "source_file" : "/frameworks/native/libs/binder/include/binder/Parcel.h"
  },
  {
   "function_name" : "android::Parcel::setDataSize",
   "linker_set_key" : "_ZN7android6Parcel11setDataSizeEm",
   "parameters" :
   [
    {
     "is_this_ptr" : true,
     "referenced_type" : "_ZTIPN7android6ParcelE"
    },
    {
     "referenced_type" : "_ZTIm"
    }
   ],
   "return_type" : "_ZTIi",
   "source_file" : "/frameworks/native/libs/binder/include/binder/Parcel.h"
  },
  {
   "function_name" : "android::Parcel::writeDouble",
   "linker_set_key" : "_ZN7android6Parcel11writeDoubleEd",
   "parameters" :
   [
    {
     "is_this_ptr" : true,
     "referenced_type" : "_ZTIPN7android6ParcelE"
    },
    {
     "referenced_type" : "_ZTId"
    }
   ],
   "return_type" : "_ZTIi",
   "source_file" : "/frameworks/native/libs/binder/include/binder/Parcel.h"
  },
  {
   "function_name" : "android::Parcel::writeObject",
   "linker_set_key" : "_ZN7android6Parcel11writeObjectERKNS_18flat_binder_objectEb",
   "parameters" :
   [
    {
     "is_this_ptr" : true,
     "referenced_type" : "_ZTIPN7android6ParcelE"
    },
    {
     "referenced_type" : "_ZTIRKN7android18flat_binder_objectE"
    },
    {
     "referenced_type" : "_ZTIb"
    }
   ],
   "return_type" : "_ZTIi",
   "source_file" : "/frameworks/native/libs/binder/include/binder/Parcel.h"
  },
  {
   "function_name" : "android::Parcel::writeUint32",
   "linker_set_key" : "_ZN7android6Parcel11writeUint32Ej",
   "parameters" :
   [
    {
     "is_this_ptr" : true,
     "referenced_type" : "_ZTIPN7android6ParcelE"
    },
    {
     "referenced_type" : "_ZTIj"
    }
   ],
   "return_type" : "_ZTIi",
   "source_file" : "/frameworks/native/libs/binder/include/binder/Parcel.h"
  },
  {
   "function_name" : "android::Parcel::writeUint64",
   "linker_set_key" : "_ZN7android6Parcel11writeUint64Em",
   "parameters" :
   [
    {
     "is_this_ptr" : true,
     "referenced_type" : "_ZTIPN7android6ParcelE"
    },
    {
     "referenced_type" : "_ZTIm"
    }
   ],
   "return_type" : "_ZTIi",
   "source_file" : "/frameworks/native/libs/binder/include/binder/Parcel.h"
  },
  {
   "function_name" : "android::Parcel::pushAllowFds",
   "linker_set_key" : "_ZN7android6Parcel12pushAllowFdsEb",
   "parameters" :
   [
    {
     "is_this_ptr" : true,
     "referenced_type" : "_ZTIPN7android6ParcelE"
    },
    {
     "referenced_type" : "_ZTIb"
    }
   ],
   "return_type" : "_ZTIb",
   "source_file" : "/frameworks/native/libs/binder/include/binder/Parcel.h"
  },
  {
   "access" : "private",
   "function_name" : "android::Parcel::restartWrite",
   "linker_set_key" : "_ZN7android6Parcel12restartWriteEm",
   "parameters" :
   [
    {
     "is_this_ptr" : true,
     "referenced_type" : "_ZTIPN7android6ParcelE"
    },
    {
     "referenced_type" : "_ZTIm"
    }
   ],
   "return_type" : "_ZTIi",
   "source_file" : "/frameworks/native/libs/binder/include/binder/Parcel.h"
  },
  {
   "function_name" : "android::Parcel::writeCString",
   "linker_set_key" : "_ZN7android6Parcel12writeCStringEPKc",
   "parameters" :
   [
    {
     "is_this_ptr" : true,
     "referenced_type" : "_ZTIPN7android6ParcelE"
    },
    {
     "referenced_type" : "_ZTIPKc"
    }
   ],
   "return_type" : "_ZTIi",
   "source_file" : "/frameworks/native/libs/binder/include/binder/Parcel.h"
  },
  {
   "function_name" : "android::Parcel::writeInplace",
   "linker_set_key" : "_ZN7android6Parcel12writeInplaceEm",
   "parameters" :
   [
    {
     "is_this_ptr" : true,
     "referenced_type" : "_ZTIPN7android6ParcelE"
    },
    {
     "referenced_type" : "_ZTIm"
    }
   ],
   "return_type" : "_ZTIPv",
   "source_file" : "/frameworks/native/libs/binder/include/binder/Parcel.h"
  },
  {
   "access" : "private",
   "function_name" : "android::Parcel::writePointer",
   "linker_set_key" : "_ZN7android6Parcel12writePointerEm",
   "parameters" :
   [
    {
     "is_this_ptr" : true,
     "referenced_type" : "_ZTIPN7android6ParcelE"
    },
    {
     "referenced_type" : "_ZTIm"
    }
   ],
   "return_type" : "_ZTIi",
   "source_file" : "/frameworks/native/libs/binder/include/binder/Parcel.h"
  },
  {
   "function_name" : "android::Parcel::writeString8",
   "linker_set_key" : "_ZN7android6Parcel12writeString8EPKcm",
   "parameters" :
   [
    {
     "is_this_ptr" : true,
     "referenced_type" : "_ZTIPN7android6ParcelE"
    },
    {
     "referenced_type" : "_ZTIPKc"
    },
    {
     "referenced_type" : "_ZTIm"
    }
   ],
   "return_type" : "_ZTIi",
   "source_file" : "/frameworks/native/libs/binder/include/binder/Parcel.h"
  },
  {
   "function_name" : "android::Parcel::writeString8",
   "linker_set_key" : "_ZN7android6Parcel12writeString8ERKNS_7String8E",
   "parameters" :
   [
    {
     "is_this_ptr" : true,
     "referenced_type" : "_ZTIPN7android6ParcelE"
    },
    {
     "referenced_type" : "_ZTIRKN7android7String8E"
    }
   ],
   "return_type" : "_ZTIi",
   "source_file" : "/frameworks/native/libs/binder/include/binder/Parcel.h"
  },
  {
   "access" : "private",
   "function_name" : "android::Parcel::continueWrite",
   "linker_set_key" : "_ZN7android6Parcel13continueWriteEm",
   "parameters" :
   [
    {
     "is_this_ptr" : true,
     "referenced_type" : "_ZTIPN7android6ParcelE"
    },
    {
     "referenced_type" : "_ZTIm"
    }
   ],
   "return_type" : "_ZTIi",
   "source_file" : "/frameworks/native/libs/binder/include/binder/Parcel.h"
  },
  {
   "access" : "private",
   "function_name" : "android::Parcel::flattenBinder",
   "linker_set_key" : "_ZN7android6Parcel13flattenBinderERKNS_2spINS_7IBinderEEE",
   "parameters" :
   [
    {
     "is_this_ptr" : true,
     "referenced_type" : "_ZTIPN7android6ParcelE"
    },
    {
     "referenced_type" : "_ZTIRKN7android2spINS_7IBinderEEE"
    }
   ],
   "return_type" : "_ZTIi",
   "source_file" : "/frameworks/native/libs/binder/include/binder/Parcel.h"
  },
  {
   "function_name" : "android::Parcel::writeString16",
   "linker_set_key" : "_ZN7android6Parcel13writeString16EPKDsm",
   "parameters" :
   [
    {
     "is_this_ptr" : true,
     "referenced_type" : "_ZTIPN7android6ParcelE"
    },
    {
     "referenced_type" : "_ZTIPKDs"
    },
    {
     "referenced_type" : "_ZTIm"
    }
   ],
   "return_type" : "_ZTIi",
   "source_file" : "/frameworks/native/libs/binder/include/binder/Parcel.h"
  },
  {
   "function_name" : "android::Parcel::writeString16",
   "linker_set_key" : "_ZN7android6Parcel13writeString16ERKNS_8String16E",
   "parameters" :
   [
    {
     "is_this_ptr" : true,
     "referenced_type" : "_ZTIPN7android6ParcelE"
    },
    {
     "referenced_type" : "_ZTIRKN7android8String16E"
    }
   ],
   "return_type" : "_ZTIi",
   "source_file" : "/frameworks/native/libs/binder/include/binder/Parcel.h"
  },
  {
   "function_name" : "android::Parcel::writeString16",
   "linker_set_key" : "_ZN7android6Parcel13writeString16ERKNSt3__110unique_ptrINS_8String16ENS1_14default_deleteIS3_EEEE",
   "parameters" :
   [
    {
     "is_this_ptr" : true,
     "referenced_type" : "_ZTIPN7android6ParcelE"
    },
    {
     "referenced_type" : "_ZTIRKNSt3__110unique_ptrIN7android8String16ENS_14default_deleteIS2_EEEE"
    }
   ],
   "return_type" : "_ZTIi",
   "source_file" : "/frameworks/native/libs/binder/include/binder/Parcel.h"
  },
  {
   "function_name" : "android::Parcel::writeUnpadded",
   "linker_set_key" : "_ZN7android6Parcel13writeUnpaddedEPKvm",
   "parameters" :
   [
    {
     "is_this_ptr" : true,
     "referenced_type" : "_ZTIPN7android6ParcelE"
    },
    {
     "referenced_type" : "_ZTIPKv"
    },
    {
     "referenced_type" : "_ZTIm"
    }
   ],
   "return_type" : "_ZTIi",
   "source_file" : "/frameworks/native/libs/binder/include/binder/Parcel.h"
  },
  {
   "access" : "private",
   "function_name" : "android::Parcel::acquireObjects",
   "linker_set_key" : "_ZN7android6Parcel14acquireObjectsEv",
   "parameters" :
   [
    {
     "is_this_ptr" : true,
     "referenced_type" : "_ZTIPN7android6ParcelE"
    }
   ],
   "return_type" : "_ZTIv",
   "source_file" : "/frameworks/native/libs/binder/include/binder/Parcel.h"
  },
  {
   "access" : "private",
   "function_name" : "android::Parcel::freeDataNoInit",
   "linker_set_key" : "_ZN7android6Parcel14freeDataNoInitEv",
   "parameters" :
   [
    {
     "is_this_ptr" : true,
     "referenced_type" : "_ZTIPN7android6ParcelE"
    }
   ],
   "return_type" : "_ZTIv",
   "source_file" : "/frameworks/native/libs/binder/include/binder/Parcel.h"
  },
  {
   "access" : "private",
   "function_name" : "android::Parcel::releaseObjects",
   "linker_set_key" : "_ZN7android6Parcel14releaseObjectsEv",
   "parameters" :
   [
    {
     "is_this_ptr" : true,
     "referenced_type" : "_ZTIPN7android6ParcelE"
    }
   ],
   "return_type" : "_ZTIv",
   "source_file" : "/frameworks/native/libs/binder/include/binder/Parcel.h"
  },
  {
   "function_name" : "android::Parcel::writeByteArray",
   "linker_set_key" : "_ZN7android6Parcel14writeByteArrayEmPKh",
   "parameters" :
   [
    {
     "is_this_ptr" : true,
     "referenced_type" : "_ZTIPN7android6ParcelE"
    },
    {
     "referenced_type" : "_ZTIm"
    },
    {
     "referenced_type" : "_ZTIPKh"
    }
   ],
   "return_type" : "_ZTIi",
   "source_file" : "/frameworks/native/libs/binder/include/binder/Parcel.h"
  },
  {
   "function_name" : "android::Parcel::restoreAllowFds",
   "linker_set_key" : "_ZN7android6Parcel15restoreAllowFdsEb",
   "parameters" :
   [
    {
     "is_this_ptr" : true,
     "referenced_type" : "_ZTIPN7android6ParcelE"
    },
    {
     "referenced_type" : "_ZTIb"
    }
   ],
   "return_type" : "_ZTIv",
   "source_file" : "/frameworks/native/libs/binder/include/binder/Parcel.h"
  },
  {
   "function_name" : "android::Parcel::setDataCapacity",
   "linker_set_key" : "_ZN7android6Parcel15setDataCapacityEm",
   "parameters" :
   [
    {
     "is_this_ptr" : true,
     "referenced_type" : "_ZTIPN7android6ParcelE"
    },
    {
     "referenced_type" : "_ZTIm"
    }
   ],
   "return_type" : "_ZTIi",
   "source_file" : "/frameworks/native/libs/binder/include/binder/Parcel.h"
  },
  {
   "function_name" : "android::Parcel::writeBoolVector",
   "linker_set_key" : "_ZN7android6Parcel15writeBoolVectorERKNSt3__110unique_ptrINS1_6vectorIbNS1_9allocatorIbEEEENS1_14default_deleteIS6_EEEE",
   "parameters" :
   [
    {
     "is_this_ptr" : true,
     "referenced_type" : "_ZTIPN7android6ParcelE"
    },
    {
     "referenced_type" : "_ZTIRKNSt3__110unique_ptrINS_6vectorIbNS_9allocatorIbEEEENS_14default_deleteIS4_EEEE"
    }
   ],
   "return_type" : "_ZTIi",
   "source_file" : "/frameworks/native/libs/binder/include/binder/Parcel.h"
  },
  {
   "function_name" : "android::Parcel::writeBoolVector",
   "linker_set_key" : "_ZN7android6Parcel15writeBoolVectorERKNSt3__16vectorIbNS1_9allocatorIbEEEE",
   "parameters" :
   [
    {
     "is_this_ptr" : true,
     "referenced_type" : "_ZTIPN7android6ParcelE"
    },
    {
     "referenced_type" : "_ZTIRKNSt3__16vectorIbNS_9allocatorIbEEEE"
    }
   ],
   "return_type" : "_ZTIi",
   "source_file" : "/frameworks/native/libs/binder/include/binder/Parcel.h"
  },
  {
   "function_name" : "android::Parcel::writeByteVector",
   "linker_set_key" : "_ZN7android6Parcel15writeByteVectorERKNSt3__110unique_ptrINS1_6vectorIaNS1_9allocatorIaEEEENS1_14default_deleteIS6_EEEE",
   "parameters" :
   [
    {
     "is_this_ptr" : true,
     "referenced_type" : "_ZTIPN7android6ParcelE"
    },
    {
     "referenced_type" : "_ZTIRKNSt3__110unique_ptrINS_6vectorIaNS_9allocatorIaEEEENS_14default_deleteIS4_EEEE"
    }
   ],
   "return_type" : "_ZTIi",
   "source_file" : "/frameworks/native/libs/binder/include/binder/Parcel.h"
  },
  {
   "function_name" : "android::Parcel::writeByteVector",
   "linker_set_key" : "_ZN7android6Parcel15writeByteVectorERKNSt3__110unique_ptrINS1_6vectorIhNS1_9allocatorIhEEEENS1_14default_deleteIS6_EEEE",
   "parameters" :
   [
    {
     "is_this_ptr" : true,
     "referenced_type" : "_ZTIPN7android6ParcelE"
    },
    {
     "referenced_type" : "_ZTIRKNSt3__110unique_ptrINS_6vectorIhNS_9allocatorIhEEEENS_14default_deleteIS4_EEEE"
    }
   ],
   "return_type" : "_ZTIi",
   "source_file" : "/frameworks/native/libs/binder/include/binder/Parcel.h"
  },
  {
   "function_name" : "android::Parcel::writeByteVector",
   "linker_set_key" : "_ZN7android6Parcel15writeByteVectorERKNSt3__16vectorIaNS1_9allocatorIaEEEE",
   "parameters" :
   [
    {
     "is_this_ptr" : true,
     "referenced_type" : "_ZTIPN7android6ParcelE"
    },
    {
     "referenced_type" : "_ZTIRKNSt3__16vectorIaNS_9allocatorIaEEEE"
    }
   ],
   "return_type" : "_ZTIi",
   "source_file" : "/frameworks/native/libs/binder/include/binder/Parcel.h"
  },
  {
   "function_name" : "android::Parcel::writeByteVector",
   "linker_set_key" : "_ZN7android6Parcel15writeByteVectorERKNSt3__16vectorIhNS1_9allocatorIhEEEE",
   "parameters" :
   [
    {
     "is_this_ptr" : true,
     "referenced_type" : "_ZTIPN7android6ParcelE"
    },
    {
     "referenced_type" : "_ZTIRKNSt3__16vectorIhNS_9allocatorIhEEEE"
    }
   ],
   "return_type" : "_ZTIi",
   "source_file" : "/frameworks/native/libs/binder/include/binder/Parcel.h"
  },
  {
   "function_name" : "android::Parcel::writeCharVector",
   "linker_set_key" : "_ZN7android6Parcel15writeCharVectorERKNSt3__110unique_ptrINS1_6vectorIDsNS1_9allocatorIDsEEEENS1_14default_deleteIS6_EEEE",
   "parameters" :
   [
    {
     "is_this_ptr" : true,
     "referenced_type" : "_ZTIPN7android6ParcelE"
    },
    {
     "referenced_type" : "_ZTIRKNSt3__110unique_ptrINS_6vectorIDsNS_9allocatorIDsEEEENS_14default_deleteIS4_EEEE"
    }
   ],
   "return_type" : "_ZTIi",
   "source_file" : "/frameworks/native/libs/binder/include/binder/Parcel.h"
  },
  {
   "function_name" : "android::Parcel::writeCharVector",
   "linker_set_key" : "_ZN7android6Parcel15writeCharVectorERKNSt3__16vectorIDsNS1_9allocatorIDsEEEE",
   "parameters" :
   [
    {
     "is_this_ptr" : true,
     "referenced_type" : "_ZTIPN7android6ParcelE"
    },
    {
     "referenced_type" : "_ZTIRKNSt3__16vectorIDsNS_9allocatorIDsEEEE"
    }
   ],
   "return_type" : "_ZTIi",
   "source_file" : "/frameworks/native/libs/binder/include/binder/Parcel.h"
  },
  {
   "function_name" : "android::Parcel::writeInt32Array",
   "linker_set_key" : "_ZN7android6Parcel15writeInt32ArrayEmPKi",
   "parameters" :
   [
    {
     "is_this_ptr" : true,
     "referenced_type" : "_ZTIPN7android6ParcelE"
    },
    {
     "referenced_type" : "_ZTIm"
    },
    {
     "referenced_type" : "_ZTIPKi"
    }
   ],
   "return_type" : "_ZTIi",
   "source_file" : "/frameworks/native/libs/binder/include/binder/Parcel.h"
  },
  {
   "function_name" : "android::Parcel::writeParcelable",
   "linker_set_key" : "_ZN7android6Parcel15writeParcelableERKNS_10ParcelableE",
   "parameters" :
   [
    {
     "is_this_ptr" : true,
     "referenced_type" : "_ZTIPN7android6ParcelE"
    },
    {
     "referenced_type" : "_ZTIRKN7android10ParcelableE"
    }
   ],
   "return_type" : "_ZTIi",
   "source_file" : "/frameworks/native/libs/binder/include/binder/Parcel.h"
  },
  {
   "function_name" : "android::Parcel::writeFloatVector",
   "linker_set_key" : "_ZN7android6Parcel16writeFloatVectorERKNSt3__110unique_ptrINS1_6vectorIfNS1_9allocatorIfEEEENS1_14default_deleteIS6_EEEE",
   "parameters" :
   [
    {
     "is_this_ptr" : true,
     "referenced_type" : "_ZTIPN7android6ParcelE"
    },
    {
     "referenced_type" : "_ZTIRKNSt3__110unique_ptrINS_6vectorIfNS_9allocatorIfEEEENS_14default_deleteIS4_EEEE"
    }
   ],
   "return_type" : "_ZTIi",
   "source_file" : "/frameworks/native/libs/binder/include/binder/Parcel.h"
  },
  {
   "function_name" : "android::Parcel::writeFloatVector",
   "linker_set_key" : "_ZN7android6Parcel16writeFloatVectorERKNSt3__16vectorIfNS1_9allocatorIfEEEE",
   "parameters" :
   [
    {
     "is_this_ptr" : true,
     "referenced_type" : "_ZTIPN7android6ParcelE"
    },
    {
     "referenced_type" : "_ZTIRKNSt3__16vectorIfNS_9allocatorIfEEEE"
    }
   ],
   "return_type" : "_ZTIi",
   "source_file" : "/frameworks/native/libs/binder/include/binder/Parcel.h"
  },
  {
   "function_name" : "android::Parcel::writeInt32Vector",
   "linker_set_key" : "_ZN7android6Parcel16writeInt32VectorERKNSt3__110unique_ptrINS1_6vectorIiNS1_9allocatorIiEEEENS1_14default_deleteIS6_EEEE",
   "parameters" :
   [
    {
     "is_this_ptr" : true,
     "referenced_type" : "_ZTIPN7android6ParcelE"
    },
    {
     "referenced_type" : "_ZTIRKNSt3__110unique_ptrINS_6vectorIiNS_9allocatorIiEEEENS_14default_deleteIS4_EEEE"
    }
   ],
   "return_type" : "_ZTIi",
   "source_file" : "/frameworks/native/libs/binder/include/binder/Parcel.h"
  },
  {
   "function_name" : "android::Parcel::writeInt32Vector",
   "linker_set_key" : "_ZN7android6Parcel16writeInt32VectorERKNSt3__16vectorIiNS1_9allocatorIiEEEE",
   "parameters" :
   [
    {
     "is_this_ptr" : true,
     "referenced_type" : "_ZTIPN7android6ParcelE"
    },
    {
     "referenced_type" : "_ZTIRKNSt3__16vectorIiNS_9allocatorIiEEEE"
    }
   ],
   "return_type" : "_ZTIi",
   "source_file" : "/frameworks/native/libs/binder/include/binder/Parcel.h"
  },
  {
   "function_name" : "android::Parcel::writeInt64Vector",
   "linker_set_key" : "_ZN7android6Parcel16writeInt64VectorERKNSt3__110unique_ptrINS1_6vectorIlNS1_9allocatorIlEEEENS1_14default_deleteIS6_EEEE",
   "parameters" :
   [
    {
     "is_this_ptr" : true,
     "referenced_type" : "_ZTIPN7android6ParcelE"
    },
    {
     "referenced_type" : "_ZTIRKNSt3__110unique_ptrINS_6vectorIlNS_9allocatorIlEEEENS_14default_deleteIS4_EEEE"
    }
   ],
   "return_type" : "_ZTIi",
   "source_file" : "/frameworks/native/libs/binder/include/binder/Parcel.h"
  },
  {
   "function_name" : "android::Parcel::writeInt64Vector",
   "linker_set_key" : "_ZN7android6Parcel16writeInt64VectorERKNSt3__16vectorIlNS1_9allocatorIlEEEE",
   "parameters" :
   [
    {
     "is_this_ptr" : true,
     "referenced_type" : "_ZTIPN7android6ParcelE"
    },
    {
     "referenced_type" : "_ZTIRKNSt3__16vectorIlNS_9allocatorIlEEEE"
    }
   ],
   "return_type" : "_ZTIi",
   "source_file" : "/frameworks/native/libs/binder/include/binder/Parcel.h"
  },
  {
   "function_name" : "android::Parcel::writeNoException",
   "linker_set_key" : "_ZN7android6Parcel16writeNoExceptionEv",
   "parameters" :
   [
    {
     "is_this_ptr" : true,
     "referenced_type" : "_ZTIPN7android6ParcelE"
    }
   ],
   "return_type" : "_ZTIi",
   "source_file" : "/frameworks/native/libs/binder/include/binder/Parcel.h"
  },
  {
   "function_name" : "android::Parcel::writeUtf8AsUtf16",
   "linker_set_key" : "_ZN7android6Parcel16writeUtf8AsUtf16ERKNSt3__110unique_ptrINS1_12basic_stringIcNS1_11char_traitsIcEENS1_9allocatorIcEEEENS1_14default_deleteIS8_EEEE",
   "parameters" :
   [
    {
     "is_this_ptr" : true,
     "referenced_type" : "_ZTIPN7android6ParcelE"
    },
    {
     "referenced_type" : "_ZTIRKNSt3__110unique_ptrINS_12basic_stringIcNS_11char_traitsIcEENS_9allocatorIcEEEENS_14default_deleteIS6_EEEE"
    }
   ],
   "return_type" : "_ZTIi",
   "source_file" : "/frameworks/native/libs/binder/include/binder/Parcel.h"
  },
  {
   "function_name" : "android::Parcel::writeUtf8AsUtf16",
   "linker_set_key" : "_ZN7android6Parcel16writeUtf8AsUtf16ERKNSt3__112basic_stringIcNS1_11char_traitsIcEENS1_9allocatorIcEEEE",
   "parameters" :
   [
    {
     "is_this_ptr" : true,
     "referenced_type" : "_ZTIPN7android6ParcelE"
    },
    {
     "referenced_type" : "_ZTIRKNSt3__112basic_stringIcNS_11char_traitsIcEENS_9allocatorIcEEEE"
    }
   ],
   "return_type" : "_ZTIi",
   "source_file" : "/frameworks/native/libs/binder/include/binder/Parcel.h"
  },
  {
   "function_name" : "android::Parcel::writeDoubleVector",
   "linker_set_key" : "_ZN7android6Parcel17writeDoubleVectorERKNSt3__110unique_ptrINS1_6vectorIdNS1_9allocatorIdEEEENS1_14default_deleteIS6_EEEE",
   "parameters" :
   [
    {
     "is_this_ptr" : true,
     "referenced_type" : "_ZTIPN7android6ParcelE"
    },
    {
     "referenced_type" : "_ZTIRKNSt3__110unique_ptrINS_6vectorIdNS_9allocatorIdEEEENS_14default_deleteIS4_EEEE"
    }
   ],
   "return_type" : "_ZTIi",
   "source_file" : "/frameworks/native/libs/binder/include/binder/Parcel.h"
  },
  {
   "function_name" : "android::Parcel::writeDoubleVector",
   "linker_set_key" : "_ZN7android6Parcel17writeDoubleVectorERKNSt3__16vectorIdNS1_9allocatorIdEEEE",
   "parameters" :
   [
    {
     "is_this_ptr" : true,
     "referenced_type" : "_ZTIPN7android6ParcelE"
    },
    {
     "referenced_type" : "_ZTIRKNSt3__16vectorIdNS_9allocatorIdEEEE"
    }
   ],
   "return_type" : "_ZTIi",
   "source_file" : "/frameworks/native/libs/binder/include/binder/Parcel.h"
  },
  {
   "function_name" : "android::Parcel::writeNativeHandle",
   "linker_set_key" : "_ZN7android6Parcel17writeNativeHandleEPK13native_handle",
   "parameters" :
   [
    {
     "is_this_ptr" : true,
     "referenced_type" : "_ZTIPN7android6ParcelE"
    },
    {
     "referenced_type" : "_ZTIPK13native_handle"
    }
   ],
   "return_type" : "_ZTIi",
   "source_file" : "/frameworks/native/libs/binder/include/binder/Parcel.h"
  },
  {
   "function_name" : "android::Parcel::writeStrongBinder",
   "linker_set_key" : "_ZN7android6Parcel17writeStrongBinderERKNS_2spINS_7IBinderEEE",
   "parameters" :
   [
    {
     "is_this_ptr" : true,
     "referenced_type" : "_ZTIPN7android6ParcelE"
    },
    {
     "referenced_type" : "_ZTIRKN7android2spINS_7IBinderEEE"
    }
   ],
   "return_type" : "_ZTIi",
   "source_file" : "/frameworks/native/libs/binder/include/binder/Parcel.h"
  },
  {
   "function_name" : "android::Parcel::writeUint64Vector",
   "linker_set_key" : "_ZN7android6Parcel17writeUint64VectorERKNSt3__110unique_ptrINS1_6vectorImNS1_9allocatorImEEEENS1_14default_deleteIS6_EEEE",
   "parameters" :
   [
    {
     "is_this_ptr" : true,
     "referenced_type" : "_ZTIPN7android6ParcelE"
    },
    {
     "referenced_type" : "_ZTIRKNSt3__110unique_ptrINS_6vectorImNS_9allocatorImEEEENS_14default_deleteIS4_EEEE"
    }
   ],
   "return_type" : "_ZTIi",
   "source_file" : "/frameworks/native/libs/binder/include/binder/Parcel.h"
  },
  {
   "function_name" : "android::Parcel::writeUint64Vector",
   "linker_set_key" : "_ZN7android6Parcel17writeUint64VectorERKNSt3__16vectorImNS1_9allocatorImEEEE",
   "parameters" :
   [
    {
     "is_this_ptr" : true,
     "referenced_type" : "_ZTIPN7android6ParcelE"
    },
    {
     "referenced_type" : "_ZTIRKNSt3__16vectorImNS_9allocatorImEEEE"
    }
   ],
   "return_type" : "_ZTIi",
   "source_file" : "/frameworks/native/libs/binder/include/binder/Parcel.h"
  },
  {
   "function_name" : "android::Parcel::getGlobalAllocSize",
   "linker_set_key" : "_ZN7android6Parcel18getGlobalAllocSizeEv",
   "return_type" : "_ZTIm",
   "source_file" : "/frameworks/native/libs/binder/include/binder/Parcel.h"
  },
  {
   "access" : "private",
   "function_name" : "android::Parcel::finishFlattenBinder",
   "linker_set_key" : "_ZN7android6Parcel19finishFlattenBinderERKNS_2spINS_7IBinderEEERKNS_18flat_binder_objectE",
   "parameters" :
   [
    {
     "is_this_ptr" : true,
     "referenced_type" : "_ZTIPN7android6ParcelE"
    },
    {
     "referenced_type" : "_ZTIRKN7android2spINS_7IBinderEEE"
    },
    {
     "referenced_type" : "_ZTIRKN7android18flat_binder_objectE"
    }
   ],
   "return_type" : "_ZTIi",
   "source_file" : "/frameworks/native/libs/binder/include/binder/Parcel.h"
  },
  {
   "function_name" : "android::Parcel::getGlobalAllocCount",
   "linker_set_key" : "_ZN7android6Parcel19getGlobalAllocCountEv",
   "return_type" : "_ZTIm",
   "source_file" : "/frameworks/native/libs/binder/include/binder/Parcel.h"
  },
  {
   "access" : "private",
   "function_name" : "android::Parcel::ipcSetDataReference",
   "linker_set_key" : "_ZN7android6Parcel19ipcSetDataReferenceEPKhmPKymPFvPS0_S2_mS4_mPvES6_",
   "parameters" :
   [
    {
     "is_this_ptr" : true,
     "referenced_type" : "_ZTIPN7android6ParcelE"
    },
    {
     "referenced_type" : "_ZTIPKh"
    },
    {
     "referenced_type" : "_ZTIm"
    },
    {
     "referenced_type" : "_ZTIPKy"
    },
    {
     "referenced_type" : "_ZTIm"
    },
    {
     "referenced_type" : "_ZTIPFvPN7android6ParcelEPKhmPKymPvE"
    },
    {
     "referenced_type" : "_ZTIPv"
    }
   ],
   "return_type" : "_ZTIv",
   "source_file" : "/frameworks/native/libs/binder/include/binder/Parcel.h"
  },
  {
   "function_name" : "android::Parcel::writeFileDescriptor",
   "linker_set_key" : "_ZN7android6Parcel19writeFileDescriptorEib",
   "parameters" :
   [
    {
     "is_this_ptr" : true,
     "referenced_type" : "_ZTIPN7android6ParcelE"
    },
    {
     "referenced_type" : "_ZTIi"
    },
    {
     "default_arg" : true,
     "referenced_type" : "_ZTIb"
    }
   ],
   "return_type" : "_ZTIi",
   "source_file" : "/frameworks/native/libs/binder/include/binder/Parcel.h"
  },
  {
   "function_name" : "android::Parcel::writeInterfaceToken",
   "linker_set_key" : "_ZN7android6Parcel19writeInterfaceTokenERKNS_8String16E",
   "parameters" :
   [
    {
     "is_this_ptr" : true,
     "referenced_type" : "_ZTIPN7android6ParcelE"
    },
    {
     "referenced_type" : "_ZTIRKN7android8String16E"
    }
   ],
   "return_type" : "_ZTIi",
   "source_file" : "/frameworks/native/libs/binder/include/binder/Parcel.h"
  },
  {
   "function_name" : "android::Parcel::writeString16Vector",
   "linker_set_key" : "_ZN7android6Parcel19writeString16VectorERKNSt3__110unique_ptrINS1_6vectorINS2_INS_8String16ENS1_14default_deleteIS4_EEEENS1_9allocatorIS7_EEEENS5_ISA_EEEE",
   "parameters" :
   [
    {
     "is_this_ptr" : true,
     "referenced_type" : "_ZTIPN7android6ParcelE"
    },
    {
     "referenced_type" : "_ZTIRKNSt3__110unique_ptrINS_6vectorINS0_IN7android8String16ENS_14default_deleteIS3_EEEENS_9allocatorIS6_EEEENS4_IS9_EEEE"
    }
   ],
   "return_type" : "_ZTIi",
   "source_file" : "/frameworks/native/libs/binder/include/binder/Parcel.h"
  },
  {
   "function_name" : "android::Parcel::writeString16Vector",
   "linker_set_key" : "_ZN7android6Parcel19writeString16VectorERKNSt3__16vectorINS_8String16ENS1_9allocatorIS3_EEEE",
   "parameters" :
   [
    {
     "is_this_ptr" : true,
     "referenced_type" : "_ZTIPN7android6ParcelE"
    },
    {
     "referenced_type" : "_ZTIRKNSt3__16vectorIN7android8String16ENS_9allocatorIS2_EEEE"
    }
   ],
   "return_type" : "_ZTIi",
   "source_file" : "/frameworks/native/libs/binder/include/binder/Parcel.h"
  },
  {
   "function_name" : "android::Parcel::closeFileDescriptors",
   "linker_set_key" : "_ZN7android6Parcel20closeFileDescriptorsEv",
   "parameters" :
   [
    {
     "is_this_ptr" : true,
     "referenced_type" : "_ZTIPN7android6ParcelE"
    }
   ],
   "return_type" : "_ZTIv",
   "source_file" : "/frameworks/native/libs/binder/include/binder/Parcel.h"
  },
  {
   "access" : "private",
   "function_name" : "android::Parcel::unsafeWriteTypedVector",
   "linker_set_key" : "_ZN7android6Parcel22unsafeWriteTypedVectorIDsDsEEiRKNSt3__16vectorIT_NS2_9allocatorIS4_EEEEMS0_FiT0_E",
   "parameters" :
   [
    {
     "is_this_ptr" : true,
     "referenced_type" : "_ZTIPN7android6ParcelE"
    },
    {
     "referenced_type" : "_ZTIRKNSt3__16vectorIDsNS_9allocatorIDsEEEE"
    },
    {
     "referenced_type" : "_ZTIMN7android6ParcelEFiDsE"
    }
   ],
   "return_type" : "_ZTIi",
   "source_file" : "/frameworks/native/libs/binder/include/binder/Parcel.h",
   "template_args" : [ "_ZTIDs", "_ZTIDs" ]
  },
  {
   "access" : "private",
   "function_name" : "android::Parcel::unsafeWriteTypedVector",
   "linker_set_key" : "_ZN7android6Parcel22unsafeWriteTypedVectorINS_4base14unique_fd_implINS2_13DefaultCloserEEERKS5_EEiRKNSt3__16vectorIT_NS8_9allocatorISA_EEEEMS0_FiT0_E",
   "parameters" :
   [
    {
     "is_this_ptr" : true,
     "referenced_type" : "_ZTIPN7android6ParcelE"
    },
    {
     "referenced_type" : "_ZTIRKNSt3__16vectorIN7android4base14unique_fd_implINS2_13DefaultCloserEEENS_9allocatorIS5_EEEE"
    },
    {
     "referenced_type" : "_ZTIMN7android6ParcelEFiRKNS_4base14unique_fd_implINS1_13DefaultCloserEEEE"
    }
   ],
   "return_type" : "_ZTIi",
   "source_file" : "/frameworks/native/libs/binder/include/binder/Parcel.h",
   "template_args" :
   [
    "_ZTIN7android4base14unique_fd_implINS0_13DefaultCloserEEE",
    "_ZTIRKN7android4base14unique_fd_implINS0_13DefaultCloserEEE"
   ]
  },
  {
   "access" : "private",
   "function_name" : "android::Parcel::unsafeWriteTypedVector",
   "linker_set_key" : "_ZN7android6Parcel22unsafeWriteTypedVectorINSt3__110unique_ptrINS2_12basic_stringIcNS2_11char_traitsIcEENS2_9allocatorIcEEEENS2_14default_deleteIS9_EEEERKSC_EEiRKNS2_6vectorIT_NS7_ISG_EEEEMS0_FiT0_E",
   "parameters" :
   [
    {
     "is_this_ptr" : true,
     "referenced_type" : "_ZTIPN7android6ParcelE"
    },
    {
     "referenced_type" : "_ZTIRKNSt3__16vectorINS_10unique_ptrINS_12basic_stringIcNS_11char_traitsIcEENS_9allocatorIcEEEENS_14default_deleteIS7_EEEENS5_ISA_EEEE"
    },
    {
     "referenced_type" : "_ZTIMN7android6ParcelEFiRKNSt3__110unique_ptrINS1_12basic_stringIcNS1_11char_traitsIcEENS1_9allocatorIcEEEENS1_14default_deleteIS8_EEEEE"
    }
   ],
   "return_type" : "_ZTIi",
   "source_file" : "/frameworks/native/libs/binder/include/binder/Parcel.h",
   "template_args" :
   [
    "_ZTINSt3__110unique_ptrINS_12basic_stringIcNS_11char_traitsIcEENS_9allocatorIcEEEENS_14default_deleteIS6_EEEE",
    "_ZTIRKNSt3__110unique_ptrINS_12basic_stringIcNS_11char_traitsIcEENS_9allocatorIcEEEENS_14default_deleteIS6_EEEE"
   ]
  },
  {
   "access" : "private",
   "function_name" : "android::Parcel::unsafeWriteTypedVector",
   "linker_set_key" : "_ZN7android6Parcel22unsafeWriteTypedVectorINSt3__110unique_ptrINS_8String16ENS2_14default_deleteIS4_EEEERKS7_EEiRKNS2_6vectorIT_NS2_9allocatorISB_EEEEMS0_FiT0_E",
   "parameters" :
   [
    {
     "is_this_ptr" : true,
     "referenced_type" : "_ZTIPN7android6ParcelE"
    },
    {
     "referenced_type" : "_ZTIRKNSt3__16vectorINS_10unique_ptrIN7android8String16ENS_14default_deleteIS3_EEEENS_9allocatorIS6_EEEE"
    },
    {
     "referenced_type" : "_ZTIMN7android6ParcelEFiRKNSt3__110unique_ptrINS_8String16ENS1_14default_deleteIS3_EEEEE"
    }
   ],
   "return_type" : "_ZTIi",
   "source_file" : "/frameworks/native/libs/binder/include/binder/Parcel.h",
   "template_args" :
   [
    "_ZTINSt3__110unique_ptrIN7android8String16ENS_14default_deleteIS2_EEEE",
    "_ZTIRKNSt3__110unique_ptrIN7android8String16ENS_14default_deleteIS2_EEEE"
   ]
  },
  {
   "access" : "private",
   "function_name" : "android::Parcel::unsafeWriteTypedVector",
   "linker_set_key" : "_ZN7android6Parcel22unsafeWriteTypedVectorINSt3__112basic_stringIcNS2_11char_traitsIcEENS2_9allocatorIcEEEERKS8_EEiRKNS2_6vectorIT_NS6_ISC_EEEEMS0_FiT0_E",
   "parameters" :
   [
    {
     "is_this_ptr" : true,
     "referenced_type" : "_ZTIPN7android6ParcelE"
    },
    {
     "referenced_type" : "_ZTIRKNSt3__16vectorINS_12basic_stringIcNS_11char_traitsIcEENS_9allocatorIcEEEENS4_IS6_EEEE"
    },
    {
     "referenced_type" : "_ZTIMN7android6ParcelEFiRKNSt3__112basic_stringIcNS1_11char_traitsIcEENS1_9allocatorIcEEEEE"
    }
   ],
   "return_type" : "_ZTIi",
   "source_file" : "/frameworks/native/libs/binder/include/binder/Parcel.h",
   "template_args" :
   [
    "_ZTINSt3__112basic_stringIcNS_11char_traitsIcEENS_9allocatorIcEEEE",
    "_ZTIRKNSt3__112basic_stringIcNS_11char_traitsIcEENS_9allocatorIcEEEE"
   ]
  },
  {
   "access" : "private",
   "function_name" : "android::Parcel::unsafeWriteTypedVector",
   "linker_set_key" : "_ZN7android6Parcel22unsafeWriteTypedVectorIbbEEiRKNSt3__16vectorIT_NS2_9allocatorIS4_EEEEMS0_FiT0_E",
   "parameters" :
   [
    {
     "is_this_ptr" : true,
     "referenced_type" : "_ZTIPN7android6ParcelE"
    },
    {
     "referenced_type" : "_ZTIRKNSt3__16vectorIbNS_9allocatorIbEEEE"
    },
    {
     "referenced_type" : "_ZTIMN7android6ParcelEFibE"
    }
   ],
   "return_type" : "_ZTIi",
   "source_file" : "/frameworks/native/libs/binder/include/binder/Parcel.h",
   "template_args" : [ "_ZTIb", "_ZTIb" ]
  },
  {
   "access" : "private",
   "function_name" : "android::Parcel::unsafeWriteTypedVector",
   "linker_set_key" : "_ZN7android6Parcel22unsafeWriteTypedVectorIddEEiRKNSt3__16vectorIT_NS2_9allocatorIS4_EEEEMS0_FiT0_E",
   "parameters" :
   [
    {
     "is_this_ptr" : true,
     "referenced_type" : "_ZTIPN7android6ParcelE"
    },
    {
     "referenced_type" : "_ZTIRKNSt3__16vectorIdNS_9allocatorIdEEEE"
    },
    {
     "referenced_type" : "_ZTIMN7android6ParcelEFidE"
    }
   ],
   "return_type" : "_ZTIi",
   "source_file" : "/frameworks/native/libs/binder/include/binder/Parcel.h",
   "template_args" : [ "_ZTId", "_ZTId" ]
  },
  {
   "access" : "private",
   "function_name" : "android::Parcel::unsafeWriteTypedVector",
   "linker_set_key" : "_ZN7android6Parcel22unsafeWriteTypedVectorIffEEiRKNSt3__16vectorIT_NS2_9allocatorIS4_EEEEMS0_FiT0_E",
   "parameters" :
   [
    {
     "is_this_ptr" : true,
     "referenced_type" : "_ZTIPN7android6ParcelE"
    },
    {
     "referenced_type" : "_ZTIRKNSt3__16vectorIfNS_9allocatorIfEEEE"
    },
    {
     "referenced_type" : "_ZTIMN7android6ParcelEFifE"
    }
   ],
   "return_type" : "_ZTIi",
   "source_file" : "/frameworks/native/libs/binder/include/binder/Parcel.h",
   "template_args" : [ "_ZTIf", "_ZTIf" ]
  },
  {
   "access" : "private",
   "function_name" : "android::Parcel::unsafeWriteTypedVector",
   "linker_set_key" : "_ZN7android6Parcel22unsafeWriteTypedVectorIiiEEiRKNSt3__16vectorIT_NS2_9allocatorIS4_EEEEMS0_FiT0_E",
   "parameters" :
   [
    {
     "is_this_ptr" : true,
     "referenced_type" : "_ZTIPN7android6ParcelE"
    },
    {
     "referenced_type" : "_ZTIRKNSt3__16vectorIiNS_9allocatorIiEEEE"
    },
    {
     "referenced_type" : "_ZTIMN7android6ParcelEFiiE"
    }
   ],
   "return_type" : "_ZTIi",
   "source_file" : "/frameworks/native/libs/binder/include/binder/Parcel.h",
   "template_args" : [ "_ZTIi", "_ZTIi" ]
  },
  {
   "access" : "private",
   "function_name" : "android::Parcel::unsafeWriteTypedVector",
   "linker_set_key" : "_ZN7android6Parcel22unsafeWriteTypedVectorIllEEiRKNSt3__16vectorIT_NS2_9allocatorIS4_EEEEMS0_FiT0_E",
   "parameters" :
   [
    {
     "is_this_ptr" : true,
     "referenced_type" : "_ZTIPN7android6ParcelE"
    },
    {
     "referenced_type" : "_ZTIRKNSt3__16vectorIlNS_9allocatorIlEEEE"
    },
    {
     "referenced_type" : "_ZTIMN7android6ParcelEFilE"
    }
   ],
   "return_type" : "_ZTIi",
   "source_file" : "/frameworks/native/libs/binder/include/binder/Parcel.h",
   "template_args" : [ "_ZTIl", "_ZTIl" ]
  },
  {
   "access" : "private",
   "function_name" : "android::Parcel::unsafeWriteTypedVector",
   "linker_set_key" : "_ZN7android6Parcel22unsafeWriteTypedVectorImmEEiRKNSt3__16vectorIT_NS2_9allocatorIS4_EEEEMS0_FiT0_E",
   "parameters" :
   [
    {
     "is_this_ptr" : true,
     "referenced_type" : "_ZTIPN7android6ParcelE"
    },
    {
     "referenced_type" : "_ZTIRKNSt3__16vectorImNS_9allocatorImEEEE"
    },
    {
     "referenced_type" : "_ZTIMN7android6ParcelEFimE"
    }
   ],
   "return_type" : "_ZTIi",
   "source_file" : "/frameworks/native/libs/binder/include/binder/Parcel.h",
   "template_args" : [ "_ZTIm", "_ZTIm" ]
  },
  {
   "function_name" : "android::Parcel::writeDupFileDescriptor",
   "linker_set_key" : "_ZN7android6Parcel22writeDupFileDescriptorEi",
   "parameters" :
   [
    {
     "is_this_ptr" : true,
     "referenced_type" : "_ZTIPN7android6ParcelE"
    },
    {
     "referenced_type" : "_ZTIi"
    }
   ],
   "return_type" : "_ZTIi",
   "source_file" : "/frameworks/native/libs/binder/include/binder/Parcel.h"
  },
  {
   "access" : "private",
   "function_name" : "android::Parcel::writeByteVectorInternal",
   "linker_set_key" : "_ZN7android6Parcel23writeByteVectorInternalEPKam",
   "parameters" :
   [
    {
     "is_this_ptr" : true,
     "referenced_type" : "_ZTIPN7android6ParcelE"
    },
    {
     "referenced_type" : "_ZTIPKa"
    },
    {
     "referenced_type" : "_ZTIm"
    }
   ],
   "return_type" : "_ZTIi",
   "source_file" : "/frameworks/native/libs/binder/include/binder/Parcel.h"
  },
  {
   "function_name" : "android::Parcel::writeStrongBinderVector",
   "linker_set_key" : "_ZN7android6Parcel23writeStrongBinderVectorERKNSt3__110unique_ptrINS1_6vectorINS_2spINS_7IBinderEEENS1_9allocatorIS6_EEEENS1_14default_deleteIS9_EEEE",
   "parameters" :
   [
    {
     "is_this_ptr" : true,
     "referenced_type" : "_ZTIPN7android6ParcelE"
    },
    {
     "referenced_type" : "_ZTIRKNSt3__110unique_ptrINS_6vectorIN7android2spINS2_7IBinderEEENS_9allocatorIS5_EEEENS_14default_deleteIS8_EEEE"
    }
   ],
   "return_type" : "_ZTIi",
   "source_file" : "/frameworks/native/libs/binder/include/binder/Parcel.h"
  },
  {
   "function_name" : "android::Parcel::writeStrongBinderVector",
   "linker_set_key" : "_ZN7android6Parcel23writeStrongBinderVectorERKNSt3__16vectorINS_2spINS_7IBinderEEENS1_9allocatorIS5_EEEE",
   "parameters" :
   [
    {
     "is_this_ptr" : true,
     "referenced_type" : "_ZTIPN7android6ParcelE"
    },
    {
     "referenced_type" : "_ZTIRKNSt3__16vectorIN7android2spINS1_7IBinderEEENS_9allocatorIS4_EEEE"
    }
   ],
   "return_type" : "_ZTIi",
   "source_file" : "/frameworks/native/libs/binder/include/binder/Parcel.h"
  },
  {
   "function_name" : "android::Parcel::writeParcelFileDescriptor",
   "linker_set_key" : "_ZN7android6Parcel25writeParcelFileDescriptorEib",
   "parameters" :
   [
    {
     "is_this_ptr" : true,
     "referenced_type" : "_ZTIPN7android6ParcelE"
    },
    {
     "referenced_type" : "_ZTIi"
    },
    {
     "default_arg" : true,
     "referenced_type" : "_ZTIb"
    }
   ],
   "return_type" : "_ZTIi",
   "source_file" : "/frameworks/native/libs/binder/include/binder/Parcel.h"
  },
  {
   "function_name" : "android::Parcel::writeUniqueFileDescriptor",
   "linker_set_key" : "_ZN7android6Parcel25writeUniqueFileDescriptorERKNS_4base14unique_fd_implINS1_13DefaultCloserEEE",
   "parameters" :
   [
    {
     "is_this_ptr" : true,
     "referenced_type" : "_ZTIPN7android6ParcelE"
    },
    {
     "referenced_type" : "_ZTIRKN7android4base14unique_fd_implINS0_13DefaultCloserEEE"
    }
   ],
   "return_type" : "_ZTIi",
   "source_file" : "/frameworks/native/libs/binder/include/binder/Parcel.h"
  },
  {
   "access" : "private",
   "function_name" : "android::Parcel::writeRawNullableParcelable",
   "linker_set_key" : "_ZN7android6Parcel26writeRawNullableParcelableEPKNS_10ParcelableE",
   "parameters" :
   [
    {
     "is_this_ptr" : true,
     "referenced_type" : "_ZTIPN7android6ParcelE"
    },
    {
     "referenced_type" : "_ZTIPKN7android10ParcelableE"
    }
   ],
   "return_type" : "_ZTIi",
   "source_file" : "/frameworks/native/libs/binder/include/binder/Parcel.h"
  },
  {
   "function_name" : "android::Parcel::replaceCallingWorkSourceUid",
   "linker_set_key" : "_ZN7android6Parcel27replaceCallingWorkSourceUidEj",
   "parameters" :
   [
    {
     "is_this_ptr" : true,
     "referenced_type" : "_ZTIPN7android6ParcelE"
    },
    {
     "referenced_type" : "_ZTIj"
    }
   ],
   "return_type" : "_ZTIb",
   "source_file" : "/frameworks/native/libs/binder/include/binder/Parcel.h"
  },
  {
   "function_name" : "android::Parcel::writeDupParcelFileDescriptor",
   "linker_set_key" : "_ZN7android6Parcel28writeDupParcelFileDescriptorEi",
   "parameters" :
   [
    {
     "is_this_ptr" : true,
     "referenced_type" : "_ZTIPN7android6ParcelE"
    },
    {
     "referenced_type" : "_ZTIi"
    }
   ],
   "return_type" : "_ZTIi",
   "source_file" : "/frameworks/native/libs/binder/include/binder/Parcel.h"
  },
  {
   "function_name" : "android::Parcel::writeUtf8VectorAsUtf16Vector",
   "linker_set_key" : "_ZN7android6Parcel28writeUtf8VectorAsUtf16VectorERKNSt3__110unique_ptrINS1_6vectorINS2_INS1_12basic_stringIcNS1_11char_traitsIcEENS1_9allocatorIcEEEENS1_14default_deleteIS9_EEEENS7_ISC_EEEENSA_ISE_EEEE",
   "parameters" :
   [
    {
     "is_this_ptr" : true,
     "referenced_type" : "_ZTIPN7android6ParcelE"
    },
    {
     "referenced_type" : "_ZTIRKNSt3__110unique_ptrINS_6vectorINS0_INS_12basic_stringIcNS_11char_traitsIcEENS_9allocatorIcEEEENS_14default_deleteIS7_EEEENS5_ISA_EEEENS8_ISC_EEEE"
    }
   ],
   "return_type" : "_ZTIi",
   "source_file" : "/frameworks/native/libs/binder/include/binder/Parcel.h"
  },
  {
   "function_name" : "android::Parcel::writeUtf8VectorAsUtf16Vector",
   "linker_set_key" : "_ZN7android6Parcel28writeUtf8VectorAsUtf16VectorERKNSt3__16vectorINS1_12basic_stringIcNS1_11char_traitsIcEENS1_9allocatorIcEEEENS6_IS8_EEEE",
   "parameters" :
   [
    {
     "is_this_ptr" : true,
     "referenced_type" : "_ZTIPN7android6ParcelE"
    },
    {
     "referenced_type" : "_ZTIRKNSt3__16vectorINS_12basic_stringIcNS_11char_traitsIcEENS_9allocatorIcEEEENS4_IS6_EEEE"
    }
   ],
   "return_type" : "_ZTIi",
   "source_file" : "/frameworks/native/libs/binder/include/binder/Parcel.h"
  },
  {
   "function_name" : "android::Parcel::writeUniqueFileDescriptorVector",
   "linker_set_key" : "_ZN7android6Parcel31writeUniqueFileDescriptorVectorERKNSt3__110unique_ptrINS1_6vectorINS_4base14unique_fd_implINS4_13DefaultCloserEEENS1_9allocatorIS7_EEEENS1_14default_deleteISA_EEEE",
   "parameters" :
   [
    {
     "is_this_ptr" : true,
     "referenced_type" : "_ZTIPN7android6ParcelE"
    },
    {
     "referenced_type" : "_ZTIRKNSt3__110unique_ptrINS_6vectorIN7android4base14unique_fd_implINS3_13DefaultCloserEEENS_9allocatorIS6_EEEENS_14default_deleteIS9_EEEE"
    }
   ],
   "return_type" : "_ZTIi",
   "source_file" : "/frameworks/native/libs/binder/include/binder/Parcel.h"
  },
  {
   "function_name" : "android::Parcel::writeUniqueFileDescriptorVector",
   "linker_set_key" : "_ZN7android6Parcel31writeUniqueFileDescriptorVectorERKNSt3__16vectorINS_4base14unique_fd_implINS3_13DefaultCloserEEENS1_9allocatorIS6_EEEE",
   "parameters" :
   [
    {
     "is_this_ptr" : true,
     "referenced_type" : "_ZTIPN7android6ParcelE"
    },
    {
     "referenced_type" : "_ZTIRKNSt3__16vectorIN7android4base14unique_fd_implINS2_13DefaultCloserEEENS_9allocatorIS5_EEEE"
    }
   ],
   "return_type" : "_ZTIi",
   "source_file" : "/frameworks/native/libs/binder/include/binder/Parcel.h"
  },
  {
   "function_name" : "android::Parcel::writeDupImmutableBlobFileDescriptor",
   "linker_set_key" : "_ZN7android6Parcel35writeDupImmutableBlobFileDescriptorEi",
   "parameters" :
   [
    {
     "is_this_ptr" : true,
     "referenced_type" : "_ZTIPN7android6ParcelE"
    },
    {
     "referenced_type" : "_ZTIi"
    }
   ],
   "return_type" : "_ZTIi",
   "source_file" : "/frameworks/native/libs/binder/include/binder/Parcel.h"
  },
  {
   "access" : "protected",
   "function_name" : "android::Parcel::Blob::init",
   "linker_set_key" : "_ZN7android6Parcel4Blob4initEiPvmb",
   "parameters" :
   [
    {
     "is_this_ptr" : true,
     "referenced_type" : "_ZTIPN7android6Parcel4BlobE"
    },
    {
     "referenced_type" : "_ZTIi"
    },
    {
     "referenced_type" : "_ZTIPv"
    },
    {
     "referenced_type" : "_ZTIm"
    },
    {
     "referenced_type" : "_ZTIb"
    }
   ],
   "return_type" : "_ZTIv",
   "source_file" : "/frameworks/native/libs/binder/include/binder/Parcel.h"
  },
  {
   "function_name" : "android::Parcel::Blob::clear",
   "linker_set_key" : "_ZN7android6Parcel4Blob5clearEv",
   "parameters" :
   [
    {
     "is_this_ptr" : true,
     "referenced_type" : "_ZTIPN7android6Parcel4BlobE"
    }
   ],
   "return_type" : "_ZTIv",
   "source_file" : "/frameworks/native/libs/binder/include/binder/Parcel.h"
  },
  {
   "function_name" : "android::Parcel::Blob::release",
   "linker_set_key" : "_ZN7android6Parcel4Blob7releaseEv",
   "parameters" :
   [
    {
     "is_this_ptr" : true,
     "referenced_type" : "_ZTIPN7android6Parcel4BlobE"
    }
   ],
   "return_type" : "_ZTIv",
   "source_file" : "/frameworks/native/libs/binder/include/binder/Parcel.h"
  },
  {
   "function_name" : "android::Parcel::Blob::Blob",
   "linker_set_key" : "_ZN7android6Parcel4BlobC1Ev",
   "parameters" :
   [
    {
     "is_this_ptr" : true,
     "referenced_type" : "_ZTIPN7android6Parcel4BlobE"
    }
   ],
   "return_type" : "_ZTIv",
   "source_file" : "/frameworks/native/libs/binder/include/binder/Parcel.h"
  },
  {
   "function_name" : "android::Parcel::Blob::Blob",
   "linker_set_key" : "_ZN7android6Parcel4BlobC2Ev",
   "parameters" :
   [
    {
     "is_this_ptr" : true,
     "referenced_type" : "_ZTIPN7android6Parcel4BlobE"
    }
   ],
   "return_type" : "_ZTIv",
   "source_file" : "/frameworks/native/libs/binder/include/binder/Parcel.h"
  },
  {
   "function_name" : "android::Parcel::Blob::~Blob",
   "linker_set_key" : "_ZN7android6Parcel4BlobD1Ev",
   "parameters" :
   [
    {
     "is_this_ptr" : true,
     "referenced_type" : "_ZTIPN7android6Parcel4BlobE"
    }
   ],
   "return_type" : "_ZTIv",
   "source_file" : "/frameworks/native/libs/binder/include/binder/Parcel.h"
  },
  {
   "function_name" : "android::Parcel::Blob::~Blob",
   "linker_set_key" : "_ZN7android6Parcel4BlobD2Ev",
   "parameters" :
   [
    {
     "is_this_ptr" : true,
     "referenced_type" : "_ZTIPN7android6Parcel4BlobE"
    }
   ],
   "return_type" : "_ZTIv",
   "source_file" : "/frameworks/native/libs/binder/include/binder/Parcel.h"
  },
  {
   "function_name" : "android::Parcel::write",
   "linker_set_key" : "_ZN7android6Parcel5writeEPKvm",
   "parameters" :
   [
    {
     "is_this_ptr" : true,
     "referenced_type" : "_ZTIPN7android6ParcelE"
    },
    {
     "referenced_type" : "_ZTIPKv"
    },
    {
     "referenced_type" : "_ZTIm"
    }
   ],
   "return_type" : "_ZTIi",
   "source_file" : "/frameworks/native/libs/binder/include/binder/Parcel.h"
  },
  {
   "access" : "private",
   "function_name" : "android::Parcel::write",
   "linker_set_key" : "_ZN7android6Parcel5writeERKNS0_26FlattenableHelperInterfaceE",
   "parameters" :
   [
    {
     "is_this_ptr" : true,
     "referenced_type" : "_ZTIPN7android6ParcelE"
    },
    {
     "referenced_type" : "_ZTIRKN7android6Parcel26FlattenableHelperInterfaceE"
    }
   ],
   "return_type" : "_ZTIi",
   "source_file" : "/frameworks/native/libs/binder/include/binder/Parcel.h"
  },
  {
   "function_name" : "android::Parcel::setData",
   "linker_set_key" : "_ZN7android6Parcel7setDataEPKhm",
   "parameters" :
   [
    {
     "is_this_ptr" : true,
     "referenced_type" : "_ZTIPN7android6ParcelE"
    },
    {
     "referenced_type" : "_ZTIPKh"
    },
    {
     "referenced_type" : "_ZTIm"
    }
   ],
   "return_type" : "_ZTIi",
   "source_file" : "/frameworks/native/libs/binder/include/binder/Parcel.h"
  },
  {
   "function_name" : "android::Parcel::freeData",
   "linker_set_key" : "_ZN7android6Parcel8freeDataEv",
   "parameters" :
   [
    {
     "is_this_ptr" : true,
     "referenced_type" : "_ZTIPN7android6ParcelE"
    }
   ],
   "return_type" : "_ZTIv",
   "source_file" : "/frameworks/native/libs/binder/include/binder/Parcel.h"
  },
  {
   "access" : "private",
   "function_name" : "android::Parcel::growData",
   "linker_set_key" : "_ZN7android6Parcel8growDataEm",
   "parameters" :
   [
    {
     "is_this_ptr" : true,
     "referenced_type" : "_ZTIPN7android6ParcelE"
    },
    {
     "referenced_type" : "_ZTIm"
    }
   ],
   "return_type" : "_ZTIi",
   "source_file" : "/frameworks/native/libs/binder/include/binder/Parcel.h"
  },
  {
   "function_name" : "android::Parcel::setError",
   "linker_set_key" : "_ZN7android6Parcel8setErrorEi",
   "parameters" :
   [
    {
     "is_this_ptr" : true,
     "referenced_type" : "_ZTIPN7android6ParcelE"
    },
    {
     "referenced_type" : "_ZTIi"
    }
   ],
   "return_type" : "_ZTIv",
   "source_file" : "/frameworks/native/libs/binder/include/binder/Parcel.h"
  },
  {
   "access" : "private",
   "function_name" : "android::Parcel::initState",
   "linker_set_key" : "_ZN7android6Parcel9initStateEv",
   "parameters" :
   [
    {
     "is_this_ptr" : true,
     "referenced_type" : "_ZTIPN7android6ParcelE"
    }
   ],
   "return_type" : "_ZTIv",
   "source_file" : "/frameworks/native/libs/binder/include/binder/Parcel.h"
  },
  {
   "function_name" : "android::Parcel::writeBlob",
   "linker_set_key" : "_ZN7android6Parcel9writeBlobEmbPNS0_12WritableBlobE",
   "parameters" :
   [
    {
     "is_this_ptr" : true,
     "referenced_type" : "_ZTIPN7android6ParcelE"
    },
    {
     "referenced_type" : "_ZTIm"
    },
    {
     "referenced_type" : "_ZTIb"
    },
    {
     "referenced_type" : "_ZTIPN7android6Parcel12WritableBlobE"
    }
   ],
   "return_type" : "_ZTIi",
   "source_file" : "/frameworks/native/libs/binder/include/binder/Parcel.h"
  },
  {
   "function_name" : "android::Parcel::writeBool",
   "linker_set_key" : "_ZN7android6Parcel9writeBoolEb",
   "parameters" :
   [
    {
     "is_this_ptr" : true,
     "referenced_type" : "_ZTIPN7android6ParcelE"
    },
    {
     "referenced_type" : "_ZTIb"
    }
   ],
   "return_type" : "_ZTIi",
   "source_file" : "/frameworks/native/libs/binder/include/binder/Parcel.h"
  },
  {
   "function_name" : "android::Parcel::writeByte",
   "linker_set_key" : "_ZN7android6Parcel9writeByteEa",
   "parameters" :
   [
    {
     "is_this_ptr" : true,
     "referenced_type" : "_ZTIPN7android6ParcelE"
    },
    {
     "referenced_type" : "_ZTIa"
    }
   ],
   "return_type" : "_ZTIi",
   "source_file" : "/frameworks/native/libs/binder/include/binder/Parcel.h"
  },
  {
   "function_name" : "android::Parcel::writeChar",
   "linker_set_key" : "_ZN7android6Parcel9writeCharEDs",
   "parameters" :
   [
    {
     "is_this_ptr" : true,
     "referenced_type" : "_ZTIPN7android6ParcelE"
    },
    {
     "referenced_type" : "_ZTIDs"
    }
   ],
   "return_type" : "_ZTIi",
   "source_file" : "/frameworks/native/libs/binder/include/binder/Parcel.h"
  },
  {
   "function_name" : "android::Parcel::Parcel",
   "linker_set_key" : "_ZN7android6ParcelC1Ev",
   "parameters" :
   [
    {
     "is_this_ptr" : true,
     "referenced_type" : "_ZTIPN7android6ParcelE"
    }
   ],
   "return_type" : "_ZTIv",
   "source_file" : "/frameworks/native/libs/binder/include/binder/Parcel.h"
  },
  {
   "function_name" : "android::Parcel::Parcel",
   "linker_set_key" : "_ZN7android6ParcelC2Ev",
   "parameters" :
   [
    {
     "is_this_ptr" : true,
     "referenced_type" : "_ZTIPN7android6ParcelE"
    }
   ],
   "return_type" : "_ZTIv",
   "source_file" : "/frameworks/native/libs/binder/include/binder/Parcel.h"
  },
  {
   "function_name" : "android::Parcel::~Parcel",
   "linker_set_key" : "_ZN7android6ParcelD1Ev",
   "parameters" :
   [
    {
     "is_this_ptr" : true,
     "referenced_type" : "_ZTIPN7android6ParcelE"
    }
   ],
   "return_type" : "_ZTIv",
   "source_file" : "/frameworks/native/libs/binder/include/binder/Parcel.h"
  },
  {
   "function_name" : "android::Parcel::~Parcel",
   "linker_set_key" : "_ZN7android6ParcelD2Ev",
   "parameters" :
   [
    {
     "is_this_ptr" : true,
     "referenced_type" : "_ZTIPN7android6ParcelE"
    }
   ],
   "return_type" : "_ZTIv",
   "source_file" : "/frameworks/native/libs/binder/include/binder/Parcel.h"
  },
  {
   "function_name" : "android::binder::LazyServiceRegistrar::getInstance",
   "linker_set_key" : "_ZN7android6binder20LazyServiceRegistrar11getInstanceEv",
   "return_type" : "_ZTIRN7android6binder20LazyServiceRegistrarE",
   "source_file" : "/frameworks/native/libs/binder/include/binder/LazyServiceRegistrar.h"
  },
  {
   "function_name" : "android::binder::LazyServiceRegistrar::forcePersist",
   "linker_set_key" : "_ZN7android6binder20LazyServiceRegistrar12forcePersistEb",
   "parameters" :
   [
    {
     "is_this_ptr" : true,
     "referenced_type" : "_ZTIPN7android6binder20LazyServiceRegistrarE"
    },
    {
     "referenced_type" : "_ZTIb"
    }
   ],
   "return_type" : "_ZTIv",
   "source_file" : "/frameworks/native/libs/binder/include/binder/LazyServiceRegistrar.h"
  },
  {
   "function_name" : "android::binder::LazyServiceRegistrar::registerService",
   "linker_set_key" : "_ZN7android6binder20LazyServiceRegistrar15registerServiceERKNS_2spINS_7IBinderEEERKNSt3__112basic_stringIcNS7_11char_traitsIcEENS7_9allocatorIcEEEEbi",
   "parameters" :
   [
    {
     "is_this_ptr" : true,
     "referenced_type" : "_ZTIPN7android6binder20LazyServiceRegistrarE"
    },
    {
     "referenced_type" : "_ZTIRKN7android2spINS_7IBinderEEE"
    },
    {
     "default_arg" : true,
     "referenced_type" : "_ZTIRKNSt3__112basic_stringIcNS_11char_traitsIcEENS_9allocatorIcEEEE"
    },
    {
     "default_arg" : true,
     "referenced_type" : "_ZTIb"
    },
    {
     "default_arg" : true,
     "referenced_type" : "_ZTIi"
    }
   ],
   "return_type" : "_ZTIi",
   "source_file" : "/frameworks/native/libs/binder/include/binder/LazyServiceRegistrar.h"
  },
  {
   "access" : "private",
   "function_name" : "android::binder::LazyServiceRegistrar::LazyServiceRegistrar",
   "linker_set_key" : "_ZN7android6binder20LazyServiceRegistrarC1Ev",
   "parameters" :
   [
    {
     "is_this_ptr" : true,
     "referenced_type" : "_ZTIPN7android6binder20LazyServiceRegistrarE"
    }
   ],
   "return_type" : "_ZTIv",
   "source_file" : "/frameworks/native/libs/binder/include/binder/LazyServiceRegistrar.h"
  },
  {
   "access" : "private",
   "function_name" : "android::binder::LazyServiceRegistrar::LazyServiceRegistrar",
   "linker_set_key" : "_ZN7android6binder20LazyServiceRegistrarC2Ev",
   "parameters" :
   [
    {
     "is_this_ptr" : true,
     "referenced_type" : "_ZTIPN7android6binder20LazyServiceRegistrarE"
    }
   ],
   "return_type" : "_ZTIv",
   "source_file" : "/frameworks/native/libs/binder/include/binder/LazyServiceRegistrar.h"
  },
  {
   "function_name" : "android::binder::Status::fromStatusT",
   "linker_set_key" : "_ZN7android6binder6Status11fromStatusTEi",
   "parameters" :
   [
    {
     "referenced_type" : "_ZTIi"
    }
   ],
   "return_type" : "_ZTIN7android6binder6StatusE",
   "source_file" : "/frameworks/native/libs/binder/include/binder/Status.h"
  },
  {
   "function_name" : "android::binder::Status::setException",
   "linker_set_key" : "_ZN7android6binder6Status12setExceptionEiRKNS_7String8E",
   "parameters" :
   [
    {
     "is_this_ptr" : true,
     "referenced_type" : "_ZTIPN7android6binder6StatusE"
    },
    {
     "referenced_type" : "_ZTIi"
    },
    {
     "referenced_type" : "_ZTIRKN7android7String8E"
    }
   ],
   "return_type" : "_ZTIv",
   "source_file" : "/frameworks/native/libs/binder/include/binder/Status.h"
  },
  {
   "function_name" : "android::binder::Status::readFromParcel",
   "linker_set_key" : "_ZN7android6binder6Status14readFromParcelERKNS_6ParcelE",
   "parameters" :
   [
    {
     "is_this_ptr" : true,
     "referenced_type" : "_ZTIPN7android6binder6StatusE"
    },
    {
     "referenced_type" : "_ZTIRKN7android6ParcelE"
    }
   ],
   "return_type" : "_ZTIi",
   "source_file" : "/frameworks/native/libs/binder/include/binder/Status.h"
  },
  {
   "function_name" : "android::binder::Status::setFromStatusT",
   "linker_set_key" : "_ZN7android6binder6Status14setFromStatusTEi",
   "parameters" :
   [
    {
     "is_this_ptr" : true,
     "referenced_type" : "_ZTIPN7android6binder6StatusE"
    },
    {
     "referenced_type" : "_ZTIi"
    }
   ],
   "return_type" : "_ZTIv",
   "source_file" : "/frameworks/native/libs/binder/include/binder/Status.h"
  },
  {
   "function_name" : "android::binder::Status::exceptionToString",
   "linker_set_key" : "_ZN7android6binder6Status17exceptionToStringEi",
   "parameters" :
   [
    {
     "referenced_type" : "_ZTIi"
    }
   ],
   "return_type" : "_ZTINSt3__112basic_stringIcNS_11char_traitsIcEENS_9allocatorIcEEEE",
   "source_file" : "/frameworks/native/libs/binder/include/binder/Status.h"
  },
  {
   "function_name" : "android::binder::Status::fromExceptionCode",
   "linker_set_key" : "_ZN7android6binder6Status17fromExceptionCodeEi",
   "parameters" :
   [
    {
     "referenced_type" : "_ZTIi"
    }
   ],
   "return_type" : "_ZTIN7android6binder6StatusE",
   "source_file" : "/frameworks/native/libs/binder/include/binder/Status.h"
  },
  {
   "function_name" : "android::binder::Status::fromExceptionCode",
   "linker_set_key" : "_ZN7android6binder6Status17fromExceptionCodeEiPKc",
   "parameters" :
   [
    {
     "referenced_type" : "_ZTIi"
    },
    {
     "referenced_type" : "_ZTIPKc"
    }
   ],
   "return_type" : "_ZTIN7android6binder6StatusE",
   "source_file" : "/frameworks/native/libs/binder/include/binder/Status.h"
  },
  {
   "function_name" : "android::binder::Status::fromExceptionCode",
   "linker_set_key" : "_ZN7android6binder6Status17fromExceptionCodeEiRKNS_7String8E",
   "parameters" :
   [
    {
     "referenced_type" : "_ZTIi"
    },
    {
     "referenced_type" : "_ZTIRKN7android7String8E"
    }
   ],
   "return_type" : "_ZTIN7android6binder6StatusE",
   "source_file" : "/frameworks/native/libs/binder/include/binder/Status.h"
  },
  {
   "function_name" : "android::binder::Status::setServiceSpecificError",
   "linker_set_key" : "_ZN7android6binder6Status23setServiceSpecificErrorEiRKNS_7String8E",
   "parameters" :
   [
    {
     "is_this_ptr" : true,
     "referenced_type" : "_ZTIPN7android6binder6StatusE"
    },
    {
     "referenced_type" : "_ZTIi"
    },
    {
     "referenced_type" : "_ZTIRKN7android7String8E"
    }
   ],
   "return_type" : "_ZTIv",
   "source_file" : "/frameworks/native/libs/binder/include/binder/Status.h"
  },
  {
   "function_name" : "android::binder::Status::fromServiceSpecificError",
   "linker_set_key" : "_ZN7android6binder6Status24fromServiceSpecificErrorEi",
   "parameters" :
   [
    {
     "referenced_type" : "_ZTIi"
    }
   ],
   "return_type" : "_ZTIN7android6binder6StatusE",
   "source_file" : "/frameworks/native/libs/binder/include/binder/Status.h"
  },
  {
   "function_name" : "android::binder::Status::fromServiceSpecificError",
   "linker_set_key" : "_ZN7android6binder6Status24fromServiceSpecificErrorEiPKc",
   "parameters" :
   [
    {
     "referenced_type" : "_ZTIi"
    },
    {
     "referenced_type" : "_ZTIPKc"
    }
   ],
   "return_type" : "_ZTIN7android6binder6StatusE",
   "source_file" : "/frameworks/native/libs/binder/include/binder/Status.h"
  },
  {
   "function_name" : "android::binder::Status::fromServiceSpecificError",
   "linker_set_key" : "_ZN7android6binder6Status24fromServiceSpecificErrorEiRKNS_7String8E",
   "parameters" :
   [
    {
     "referenced_type" : "_ZTIi"
    },
    {
     "referenced_type" : "_ZTIRKN7android7String8E"
    }
   ],
   "return_type" : "_ZTIN7android6binder6StatusE",
   "source_file" : "/frameworks/native/libs/binder/include/binder/Status.h"
  },
  {
   "function_name" : "android::binder::Status::ok",
   "linker_set_key" : "_ZN7android6binder6Status2okEv",
   "return_type" : "_ZTIN7android6binder6StatusE",
   "source_file" : "/frameworks/native/libs/binder/include/binder/Status.h"
  },
  {
   "access" : "private",
   "function_name" : "android::binder::Status::Status",
   "linker_set_key" : "_ZN7android6binder6StatusC1Eii",
   "parameters" :
   [
    {
     "is_this_ptr" : true,
     "referenced_type" : "_ZTIPN7android6binder6StatusE"
    },
    {
     "referenced_type" : "_ZTIi"
    },
    {
     "referenced_type" : "_ZTIi"
    }
   ],
   "return_type" : "_ZTIv",
   "source_file" : "/frameworks/native/libs/binder/include/binder/Status.h"
  },
  {
   "access" : "private",
   "function_name" : "android::binder::Status::Status",
   "linker_set_key" : "_ZN7android6binder6StatusC1EiiRKNS_7String8E",
   "parameters" :
   [
    {
     "is_this_ptr" : true,
     "referenced_type" : "_ZTIPN7android6binder6StatusE"
    },
    {
     "referenced_type" : "_ZTIi"
    },
    {
     "referenced_type" : "_ZTIi"
    },
    {
     "referenced_type" : "_ZTIRKN7android7String8E"
    }
   ],
   "return_type" : "_ZTIv",
   "source_file" : "/frameworks/native/libs/binder/include/binder/Status.h"
  },
  {
   "access" : "private",
   "function_name" : "android::binder::Status::Status",
   "linker_set_key" : "_ZN7android6binder6StatusC2Eii",
   "parameters" :
   [
    {
     "is_this_ptr" : true,
     "referenced_type" : "_ZTIPN7android6binder6StatusE"
    },
    {
     "referenced_type" : "_ZTIi"
    },
    {
     "referenced_type" : "_ZTIi"
    }
   ],
   "return_type" : "_ZTIv",
   "source_file" : "/frameworks/native/libs/binder/include/binder/Status.h"
  },
  {
   "access" : "private",
   "function_name" : "android::binder::Status::Status",
   "linker_set_key" : "_ZN7android6binder6StatusC2EiiRKNS_7String8E",
   "parameters" :
   [
    {
     "is_this_ptr" : true,
     "referenced_type" : "_ZTIPN7android6binder6StatusE"
    },
    {
     "referenced_type" : "_ZTIi"
    },
    {
     "referenced_type" : "_ZTIi"
    },
    {
     "referenced_type" : "_ZTIRKN7android7String8E"
    }
   ],
   "return_type" : "_ZTIv",
   "source_file" : "/frameworks/native/libs/binder/include/binder/Status.h"
  },
  {
   "function_name" : "android::binder::operator<<",
   "linker_set_key" : "_ZN7android6binderlsERNSt3__118basic_stringstreamIcNS1_11char_traitsIcEENS1_9allocatorIcEEEERKNS0_6StatusE",
   "parameters" :
   [
    {
     "referenced_type" : "_ZTIRNSt3__118basic_stringstreamIcNS_11char_traitsIcEENS_9allocatorIcEEEE"
    },
    {
     "referenced_type" : "_ZTIRKN7android6binder6StatusE"
    }
   ],
   "return_type" : "_ZTIRNSt3__118basic_stringstreamIcNS_11char_traitsIcEENS_9allocatorIcEEEE",
   "source_file" : "/frameworks/native/libs/binder/include/binder/Status.h"
  },
  {
   "access" : "protected",
   "function_name" : "android::BBinder::onTransact",
   "linker_set_key" : "_ZN7android7BBinder10onTransactEjRKNS_6ParcelEPS1_j",
   "parameters" :
   [
    {
     "is_this_ptr" : true,
     "referenced_type" : "_ZTIPN7android7BBinderE"
    },
    {
     "referenced_type" : "_ZTIj"
    },
    {
     "referenced_type" : "_ZTIRKN7android6ParcelE"
    },
    {
     "referenced_type" : "_ZTIPN7android6ParcelE"
    },
    {
     "default_arg" : true,
     "referenced_type" : "_ZTIj"
    }
   ],
   "return_type" : "_ZTIi",
   "source_file" : "/frameworks/native/libs/binder/include/binder/Binder.h"
  },
  {
   "function_name" : "android::BBinder::pingBinder",
   "linker_set_key" : "_ZN7android7BBinder10pingBinderEv",
   "parameters" :
   [
    {
     "is_this_ptr" : true,
     "referenced_type" : "_ZTIPN7android7BBinderE"
    }
   ],
   "return_type" : "_ZTIi",
   "source_file" : "/frameworks/native/libs/binder/include/binder/Binder.h"
  },
  {
   "function_name" : "android::BBinder::getDebugPid",
   "linker_set_key" : "_ZN7android7BBinder11getDebugPidEv",
   "parameters" :
   [
    {
     "is_this_ptr" : true,
     "referenced_type" : "_ZTIPN7android7BBinderE"
    }
   ],
   "return_type" : "_ZTIi",
   "source_file" : "/frameworks/native/libs/binder/include/binder/Binder.h"
  },
  {
   "function_name" : "android::BBinder::linkToDeath",
   "linker_set_key" : "_ZN7android7BBinder11linkToDeathERKNS_2spINS_7IBinder14DeathRecipientEEEPvj",
   "parameters" :
   [
    {
     "is_this_ptr" : true,
     "referenced_type" : "_ZTIPN7android7BBinderE"
    },
    {
     "referenced_type" : "_ZTIRKN7android2spINS_7IBinder14DeathRecipientEEE"
    },
    {
     "default_arg" : true,
     "referenced_type" : "_ZTIPv"
    },
    {
     "default_arg" : true,
     "referenced_type" : "_ZTIj"
    }
   ],
   "return_type" : "_ZTIi",
   "source_file" : "/frameworks/native/libs/binder/include/binder/Binder.h"
  },
  {
   "function_name" : "android::BBinder::localBinder",
   "linker_set_key" : "_ZN7android7BBinder11localBinderEv",
   "parameters" :
   [
    {
     "is_this_ptr" : true,
     "referenced_type" : "_ZTIPN7android7BBinderE"
    }
   ],
   "return_type" : "_ZTIPN7android7BBinderE",
   "source_file" : "/frameworks/native/libs/binder/include/binder/Binder.h"
  },
  {
   "function_name" : "android::BBinder::attachObject",
   "linker_set_key" : "_ZN7android7BBinder12attachObjectEPKvPvS3_PFvS2_S3_S3_E",
   "parameters" :
   [
    {
     "is_this_ptr" : true,
     "referenced_type" : "_ZTIPN7android7BBinderE"
    },
    {
     "referenced_type" : "_ZTIPKv"
    },
    {
     "referenced_type" : "_ZTIPv"
    },
    {
     "referenced_type" : "_ZTIPv"
    },
    {
     "referenced_type" : "_ZTIPFvPKvPvS1_E"
    }
   ],
   "return_type" : "_ZTIv",
   "source_file" : "/frameworks/native/libs/binder/include/binder/Binder.h"
  },
  {
   "function_name" : "android::BBinder::detachObject",
   "linker_set_key" : "_ZN7android7BBinder12detachObjectEPKv",
   "parameters" :
   [
    {
     "is_this_ptr" : true,
     "referenced_type" : "_ZTIPN7android7BBinderE"
    },
    {
     "referenced_type" : "_ZTIPKv"
    }
   ],
   "return_type" : "_ZTIv",
   "source_file" : "/frameworks/native/libs/binder/include/binder/Binder.h"
  },
  {
   "function_name" : "android::BBinder::getExtension",
   "linker_set_key" : "_ZN7android7BBinder12getExtensionEv",
   "parameters" :
   [
    {
     "is_this_ptr" : true,
     "referenced_type" : "_ZTIPN7android7BBinderE"
    }
   ],
   "return_type" : "_ZTIN7android2spINS_7IBinderEEE",
   "source_file" : "/frameworks/native/libs/binder/include/binder/Binder.h"
  },
  {
   "function_name" : "android::BBinder::setExtension",
   "linker_set_key" : "_ZN7android7BBinder12setExtensionERKNS_2spINS_7IBinderEEE",
   "parameters" :
   [
    {
     "is_this_ptr" : true,
     "referenced_type" : "_ZTIPN7android7BBinderE"
    },
    {
     "referenced_type" : "_ZTIRKN7android2spINS_7IBinderEEE"
    }
   ],
   "return_type" : "_ZTIv",
   "source_file" : "/frameworks/native/libs/binder/include/binder/Binder.h"
  },
  {
   "function_name" : "android::BBinder::unlinkToDeath",
   "linker_set_key" : "_ZN7android7BBinder13unlinkToDeathERKNS_2wpINS_7IBinder14DeathRecipientEEEPvjPS4_",
   "parameters" :
   [
    {
     "is_this_ptr" : true,
     "referenced_type" : "_ZTIPN7android7BBinderE"
    },
    {
     "referenced_type" : "_ZTIRKN7android2wpINS_7IBinder14DeathRecipientEEE"
    },
    {
     "default_arg" : true,
     "referenced_type" : "_ZTIPv"
    },
    {
     "default_arg" : true,
     "referenced_type" : "_ZTIj"
    },
    {
     "default_arg" : true,
     "referenced_type" : "_ZTIPN7android2wpINS_7IBinder14DeathRecipientEEE"
    }
   ],
   "return_type" : "_ZTIi",
   "source_file" : "/frameworks/native/libs/binder/include/binder/Binder.h"
  },
  {
   "function_name" : "android::BBinder::isRequestingSid",
   "linker_set_key" : "_ZN7android7BBinder15isRequestingSidEv",
   "parameters" :
   [
    {
     "is_this_ptr" : true,
     "referenced_type" : "_ZTIPN7android7BBinderE"
    }
   ],
   "return_type" : "_ZTIb",
   "source_file" : "/frameworks/native/libs/binder/include/binder/Binder.h"
  },
  {
   "function_name" : "android::BBinder::setRequestingSid",
   "linker_set_key" : "_ZN7android7BBinder16setRequestingSidEb",
   "parameters" :
   [
    {
     "is_this_ptr" : true,
     "referenced_type" : "_ZTIPN7android7BBinderE"
    },
    {
     "referenced_type" : "_ZTIb"
    }
   ],
   "return_type" : "_ZTIv",
   "source_file" : "/frameworks/native/libs/binder/include/binder/Binder.h"
  },
  {
   "access" : "private",
   "function_name" : "android::BBinder::getOrCreateExtras",
   "linker_set_key" : "_ZN7android7BBinder17getOrCreateExtrasEv",
   "parameters" :
   [
    {
     "is_this_ptr" : true,
     "referenced_type" : "_ZTIPN7android7BBinderE"
    }
   ],
   "return_type" : "_ZTIPN7android7BBinder6ExtrasE",
   "source_file" : "/frameworks/native/libs/binder/include/binder/Binder.h"
  },
  {
   "function_name" : "android::BBinder::getMinSchedulerPolicy",
   "linker_set_key" : "_ZN7android7BBinder21getMinSchedulerPolicyEv",
   "parameters" :
   [
    {
     "is_this_ptr" : true,
     "referenced_type" : "_ZTIPN7android7BBinderE"
    }
   ],
   "return_type" : "_ZTIi",
   "source_file" : "/frameworks/native/libs/binder/include/binder/Binder.h"
  },
  {
   "function_name" : "android::BBinder::setMinSchedulerPolicy",
   "linker_set_key" : "_ZN7android7BBinder21setMinSchedulerPolicyEii",
   "parameters" :
   [
    {
     "is_this_ptr" : true,
     "referenced_type" : "_ZTIPN7android7BBinderE"
    },
    {
     "referenced_type" : "_ZTIi"
    },
    {
     "referenced_type" : "_ZTIi"
    }
   ],
   "return_type" : "_ZTIv",
   "source_file" : "/frameworks/native/libs/binder/include/binder/Binder.h"
  },
  {
   "function_name" : "android::BBinder::getMinSchedulerPriority",
   "linker_set_key" : "_ZN7android7BBinder23getMinSchedulerPriorityEv",
   "parameters" :
   [
    {
     "is_this_ptr" : true,
     "referenced_type" : "_ZTIPN7android7BBinderE"
    }
   ],
   "return_type" : "_ZTIi",
   "source_file" : "/frameworks/native/libs/binder/include/binder/Binder.h"
  },
  {
   "function_name" : "android::BBinder::dump",
   "linker_set_key" : "_ZN7android7BBinder4dumpEiRKNS_6VectorINS_8String16EEE",
   "parameters" :
   [
    {
     "is_this_ptr" : true,
     "referenced_type" : "_ZTIPN7android7BBinderE"
    },
    {
     "referenced_type" : "_ZTIi"
    },
    {
     "referenced_type" : "_ZTIRKN7android6VectorINS_8String16EEE"
    }
   ],
   "return_type" : "_ZTIi",
   "source_file" : "/frameworks/native/libs/binder/include/binder/Binder.h"
  },
  {
   "function_name" : "android::BBinder::transact",
   "linker_set_key" : "_ZN7android7BBinder8transactEjRKNS_6ParcelEPS1_j",
   "parameters" :
   [
    {
     "is_this_ptr" : true,
     "referenced_type" : "_ZTIPN7android7BBinderE"
    },
    {
     "referenced_type" : "_ZTIj"
    },
    {
     "referenced_type" : "_ZTIRKN7android6ParcelE"
    },
    {
     "referenced_type" : "_ZTIPN7android6ParcelE"
    },
    {
     "default_arg" : true,
     "referenced_type" : "_ZTIj"
    }
   ],
   "return_type" : "_ZTIi",
   "source_file" : "/frameworks/native/libs/binder/include/binder/Binder.h"
  },
  {
   "function_name" : "android::BBinder::BBinder",
   "linker_set_key" : "_ZN7android7BBinderC1Ev",
   "parameters" :
   [
    {
     "is_this_ptr" : true,
     "referenced_type" : "_ZTIPN7android7BBinderE"
    }
   ],
   "return_type" : "_ZTIv",
   "source_file" : "/frameworks/native/libs/binder/include/binder/Binder.h"
  },
  {
   "function_name" : "android::BBinder::BBinder",
   "linker_set_key" : "_ZN7android7BBinderC2Ev",
   "parameters" :
   [
    {
     "is_this_ptr" : true,
     "referenced_type" : "_ZTIPN7android7BBinderE"
    }
   ],
   "return_type" : "_ZTIv",
   "source_file" : "/frameworks/native/libs/binder/include/binder/Binder.h"
  },
  {
   "access" : "protected",
   "function_name" : "android::BBinder::~BBinder",
   "linker_set_key" : "_ZN7android7BBinderD0Ev",
   "parameters" :
   [
    {
     "is_this_ptr" : true,
     "referenced_type" : "_ZTIPN7android7BBinderE"
    }
   ],
   "return_type" : "_ZTIv",
   "source_file" : "/frameworks/native/libs/binder/include/binder/Binder.h"
  },
  {
   "access" : "protected",
   "function_name" : "android::BBinder::~BBinder",
   "linker_set_key" : "_ZN7android7BBinderD1Ev",
   "parameters" :
   [
    {
     "is_this_ptr" : true,
     "referenced_type" : "_ZTIPN7android7BBinderE"
    }
   ],
   "return_type" : "_ZTIv",
   "source_file" : "/frameworks/native/libs/binder/include/binder/Binder.h"
  },
  {
   "access" : "protected",
   "function_name" : "android::BBinder::~BBinder",
   "linker_set_key" : "_ZN7android7BBinderD2Ev",
   "parameters" :
   [
    {
     "is_this_ptr" : true,
     "referenced_type" : "_ZTIPN7android7BBinderE"
    }
   ],
   "return_type" : "_ZTIv",
   "source_file" : "/frameworks/native/libs/binder/include/binder/Binder.h"
  },
  {
   "function_name" : "android::HexDump::HexDump",
   "linker_set_key" : "_ZN7android7HexDumpC1EPKvmm",
   "parameters" :
   [
    {
     "is_this_ptr" : true,
     "referenced_type" : "_ZTIPN7android7HexDumpE"
    },
    {
     "referenced_type" : "_ZTIPKv"
    },
    {
     "referenced_type" : "_ZTIm"
    },
    {
     "default_arg" : true,
     "referenced_type" : "_ZTIm"
    }
   ],
   "return_type" : "_ZTIv",
   "source_file" : "/frameworks/native/libs/binder/include/binder/TextOutput.h"
  },
  {
   "function_name" : "android::HexDump::HexDump",
   "linker_set_key" : "_ZN7android7HexDumpC2EPKvmm",
   "parameters" :
   [
    {
     "is_this_ptr" : true,
     "referenced_type" : "_ZTIPN7android7HexDumpE"
    },
    {
     "referenced_type" : "_ZTIPKv"
    },
    {
     "referenced_type" : "_ZTIm"
    },
    {
     "default_arg" : true,
     "referenced_type" : "_ZTIm"
    }
   ],
   "return_type" : "_ZTIv",
   "source_file" : "/frameworks/native/libs/binder/include/binder/TextOutput.h"
  },
  {
   "function_name" : "android::IBinder::getDebugPid",
   "linker_set_key" : "_ZN7android7IBinder11getDebugPidEPi",
   "parameters" :
   [
    {
     "is_this_ptr" : true,
     "referenced_type" : "_ZTIPN7android7IBinderE"
    },
    {
     "referenced_type" : "_ZTIPi"
    }
   ],
   "return_type" : "_ZTIi",
   "source_file" : "/frameworks/native/libs/binder/include/binder/IBinder.h"
  },
  {
   "function_name" : "android::IBinder::localBinder",
   "linker_set_key" : "_ZN7android7IBinder11localBinderEv",
   "parameters" :
   [
    {
     "is_this_ptr" : true,
     "referenced_type" : "_ZTIPN7android7IBinderE"
    }
   ],
   "return_type" : "_ZTIPN7android7BBinderE",
   "source_file" : "/frameworks/native/libs/binder/include/binder/IBinder.h"
  },
  {
   "function_name" : "android::IBinder::getExtension",
   "linker_set_key" : "_ZN7android7IBinder12getExtensionEPNS_2spIS0_EE",
   "parameters" :
   [
    {
     "is_this_ptr" : true,
     "referenced_type" : "_ZTIPN7android7IBinderE"
    },
    {
     "referenced_type" : "_ZTIPN7android2spINS_7IBinderEEE"
    }
   ],
   "return_type" : "_ZTIi",
   "source_file" : "/frameworks/native/libs/binder/include/binder/IBinder.h"
  },
  {
   "function_name" : "android::IBinder::remoteBinder",
   "linker_set_key" : "_ZN7android7IBinder12remoteBinderEv",
   "parameters" :
   [
    {
     "is_this_ptr" : true,
     "referenced_type" : "_ZTIPN7android7IBinderE"
    }
   ],
   "return_type" : "_ZTIPN7android8BpBinderE",
   "source_file" : "/frameworks/native/libs/binder/include/binder/IBinder.h"
  },
  {
   "function_name" : "android::IBinder::shellCommand",
   "linker_set_key" : "_ZN7android7IBinder12shellCommandERKNS_2spIS0_EEiiiRNS_6VectorINS_8String16EEERKNS1_INS_14IShellCallbackEEERKNS1_INS_15IResultReceiverEEE",
   "parameters" :
   [
    {
     "referenced_type" : "_ZTIRKN7android2spINS_7IBinderEEE"
    },
    {
     "referenced_type" : "_ZTIi"
    },
    {
     "referenced_type" : "_ZTIi"
    },
    {
     "referenced_type" : "_ZTIi"
    },
    {
     "referenced_type" : "_ZTIRN7android6VectorINS_8String16EEE"
    },
    {
     "referenced_type" : "_ZTIRKN7android2spINS_14IShellCallbackEEE"
    },
    {
     "referenced_type" : "_ZTIRKN7android2spINS_15IResultReceiverEEE"
    }
   ],
   "return_type" : "_ZTIi",
   "source_file" : "/frameworks/native/libs/binder/include/binder/IBinder.h"
  },
  {
   "function_name" : "android::IBinder::queryLocalInterface",
   "linker_set_key" : "_ZN7android7IBinder19queryLocalInterfaceERKNS_8String16E",
   "parameters" :
   [
    {
     "is_this_ptr" : true,
     "referenced_type" : "_ZTIPN7android7IBinderE"
    },
    {
     "referenced_type" : "_ZTIRKN7android8String16E"
    }
   ],
   "return_type" : "_ZTIN7android2spINS_10IInterfaceEEE",
   "source_file" : "/frameworks/native/libs/binder/include/binder/IBinder.h"
  },
  {
   "function_name" : "android::IBinder::IBinder",
   "linker_set_key" : "_ZN7android7IBinderC2Ev",
   "parameters" :
   [
    {
     "is_this_ptr" : true,
     "referenced_type" : "_ZTIPN7android7IBinderE"
    }
   ],
   "return_type" : "_ZTIv",
   "source_file" : "/frameworks/native/libs/binder/include/binder/IBinder.h"
  },
  {
   "access" : "protected",
   "function_name" : "android::IBinder::~IBinder",
   "linker_set_key" : "_ZN7android7IBinderD0Ev",
   "parameters" :
   [
    {
     "is_this_ptr" : true,
     "referenced_type" : "_ZTIPN7android7IBinderE"
    }
   ],
   "return_type" : "_ZTIv",
   "source_file" : "/frameworks/native/libs/binder/include/binder/IBinder.h"
  },
  {
   "access" : "protected",
   "function_name" : "android::IBinder::~IBinder",
   "linker_set_key" : "_ZN7android7IBinderD1Ev",
   "parameters" :
   [
    {
     "is_this_ptr" : true,
     "referenced_type" : "_ZTIPN7android7IBinderE"
    }
   ],
   "return_type" : "_ZTIv",
   "source_file" : "/frameworks/native/libs/binder/include/binder/IBinder.h"
  },
  {
   "access" : "protected",
   "function_name" : "android::IBinder::~IBinder",
   "linker_set_key" : "_ZN7android7IBinderD2Ev",
   "parameters" :
   [
    {
     "is_this_ptr" : true,
     "referenced_type" : "_ZTIPN7android7IBinderE"
    }
   ],
   "return_type" : "_ZTIv",
   "source_file" : "/frameworks/native/libs/binder/include/binder/IBinder.h"
  },
  {
   "function_name" : "android::IMemory::asInterface",
   "linker_set_key" : "_ZN7android7IMemory11asInterfaceERKNS_2spINS_7IBinderEEE",
   "parameters" :
   [
    {
     "referenced_type" : "_ZTIRKN7android2spINS_7IBinderEEE"
    }
   ],
   "return_type" : "_ZTIN7android2spINS_7IMemoryEEE",
   "source_file" : "/frameworks/native/libs/binder/include/binder/IMemory.h"
  },
  {
   "function_name" : "android::IMemory::getDefaultImpl",
   "linker_set_key" : "_ZN7android7IMemory14getDefaultImplEv",
   "return_type" : "_ZTIRKNSt3__110unique_ptrIN7android7IMemoryENS_14default_deleteIS2_EEEE",
   "source_file" : "/frameworks/native/libs/binder/include/binder/IMemory.h"
  },
  {
   "function_name" : "android::IMemory::setDefaultImpl",
   "linker_set_key" : "_ZN7android7IMemory14setDefaultImplENSt3__110unique_ptrIS0_NS1_14default_deleteIS0_EEEE",
   "parameters" :
   [
    {
     "referenced_type" : "_ZTINSt3__110unique_ptrIN7android7IMemoryENS_14default_deleteIS2_EEEE"
    }
   ],
   "return_type" : "_ZTIb",
   "source_file" : "/frameworks/native/libs/binder/include/binder/IMemory.h"
  },
  {
   "function_name" : "android::IMemory::IMemory",
   "linker_set_key" : "_ZN7android7IMemoryC2Ev",
   "parameters" :
   [
    {
     "is_this_ptr" : true,
     "referenced_type" : "_ZTIPN7android7IMemoryE"
    }
   ],
   "return_type" : "_ZTIv",
   "source_file" : "/frameworks/native/libs/binder/include/binder/IMemory.h"
  },
  {
   "function_name" : "android::IMemory::~IMemory",
   "linker_set_key" : "_ZN7android7IMemoryD0Ev",
   "parameters" :
   [
    {
     "is_this_ptr" : true,
     "referenced_type" : "_ZTIPN7android7IMemoryE"
    }
   ],
   "return_type" : "_ZTIv",
   "source_file" : "/frameworks/native/libs/binder/include/binder/IMemory.h"
  },
  {
   "function_name" : "android::IMemory::~IMemory",
   "linker_set_key" : "_ZN7android7IMemoryD1Ev",
   "parameters" :
   [
    {
     "is_this_ptr" : true,
     "referenced_type" : "_ZTIPN7android7IMemoryE"
    }
   ],
   "return_type" : "_ZTIv",
   "source_file" : "/frameworks/native/libs/binder/include/binder/IMemory.h"
  },
  {
   "function_name" : "android::IMemory::~IMemory",
   "linker_set_key" : "_ZN7android7IMemoryD2Ev",
   "parameters" :
   [
    {
     "is_this_ptr" : true,
     "referenced_type" : "_ZTIPN7android7IMemoryE"
    }
   ],
   "return_type" : "_ZTIv",
   "source_file" : "/frameworks/native/libs/binder/include/binder/IMemory.h"
  },
  {
   "function_name" : "android::BnMemory::onTransact",
   "linker_set_key" : "_ZN7android8BnMemory10onTransactEjRKNS_6ParcelEPS1_j",
   "parameters" :
   [
    {
     "is_this_ptr" : true,
     "referenced_type" : "_ZTIPN7android8BnMemoryE"
    },
    {
     "referenced_type" : "_ZTIj"
    },
    {
     "referenced_type" : "_ZTIRKN7android6ParcelE"
    },
    {
     "referenced_type" : "_ZTIPN7android6ParcelE"
    },
    {
     "default_arg" : true,
     "referenced_type" : "_ZTIj"
    }
   ],
   "return_type" : "_ZTIi",
   "source_file" : "/frameworks/native/libs/binder/include/binder/IMemory.h"
  },
  {
   "function_name" : "android::BnMemory::BnMemory",
   "linker_set_key" : "_ZN7android8BnMemoryC2Ev",
   "parameters" :
   [
    {
     "is_this_ptr" : true,
     "referenced_type" : "_ZTIPN7android8BnMemoryE"
    }
   ],
   "return_type" : "_ZTIv",
   "source_file" : "/frameworks/native/libs/binder/include/binder/IMemory.h"
  },
  {
   "access" : "protected",
   "function_name" : "android::BnMemory::~BnMemory",
   "linker_set_key" : "_ZN7android8BnMemoryD0Ev",
   "parameters" :
   [
    {
     "is_this_ptr" : true,
     "referenced_type" : "_ZTIPN7android8BnMemoryE"
    }
   ],
   "return_type" : "_ZTIv",
   "source_file" : "/frameworks/native/libs/binder/include/binder/IMemory.h"
  },
  {
   "access" : "protected",
   "function_name" : "android::BnMemory::~BnMemory",
   "linker_set_key" : "_ZN7android8BnMemoryD1Ev",
   "parameters" :
   [
    {
     "is_this_ptr" : true,
     "referenced_type" : "_ZTIPN7android8BnMemoryE"
    }
   ],
   "return_type" : "_ZTIv",
   "source_file" : "/frameworks/native/libs/binder/include/binder/IMemory.h"
  },
  {
   "access" : "protected",
   "function_name" : "android::BnMemory::~BnMemory",
   "linker_set_key" : "_ZN7android8BnMemoryD2Ev",
   "parameters" :
   [
    {
     "is_this_ptr" : true,
     "referenced_type" : "_ZTIPN7android8BnMemoryE"
    }
   ],
   "return_type" : "_ZTIv",
   "source_file" : "/frameworks/native/libs/binder/include/binder/IMemory.h"
  },
  {
   "access" : "protected",
   "function_name" : "android::BpBinder::onFirstRef",
   "linker_set_key" : "_ZN7android8BpBinder10onFirstRefEv",
   "parameters" :
   [
    {
     "is_this_ptr" : true,
     "referenced_type" : "_ZTIPN7android8BpBinderE"
    }
   ],
   "return_type" : "_ZTIv",
   "source_file" : "/frameworks/native/libs/binder/include/binder/BpBinder.h"
  },
  {
   "function_name" : "android::BpBinder::pingBinder",
   "linker_set_key" : "_ZN7android8BpBinder10pingBinderEv",
   "parameters" :
   [
    {
     "is_this_ptr" : true,
     "referenced_type" : "_ZTIPN7android8BpBinderE"
    }
   ],
   "return_type" : "_ZTIi",
   "source_file" : "/frameworks/native/libs/binder/include/binder/BpBinder.h"
  },
  {
   "function_name" : "android::BpBinder::linkToDeath",
   "linker_set_key" : "_ZN7android8BpBinder11linkToDeathERKNS_2spINS_7IBinder14DeathRecipientEEEPvj",
   "parameters" :
   [
    {
     "is_this_ptr" : true,
     "referenced_type" : "_ZTIPN7android8BpBinderE"
    },
    {
     "referenced_type" : "_ZTIRKN7android2spINS_7IBinder14DeathRecipientEEE#ODR:out/soong/.intermediates/frameworks/native/libs/binder/libbinder/android_vendor.30_arm64_armv8-a_shared/obj/frameworks/native/libs/binder/BpBinder.sdump"
    },
    {
     "default_arg" : true,
     "referenced_type" : "_ZTIPv"
    },
    {
     "default_arg" : true,
     "referenced_type" : "_ZTIj"
    }
   ],
   "return_type" : "_ZTIi",
   "source_file" : "/frameworks/native/libs/binder/include/binder/BpBinder.h"
  },
  {
   "function_name" : "android::BpBinder::attachObject",
   "linker_set_key" : "_ZN7android8BpBinder12attachObjectEPKvPvS3_PFvS2_S3_S3_E",
   "parameters" :
   [
    {
     "is_this_ptr" : true,
     "referenced_type" : "_ZTIPN7android8BpBinderE"
    },
    {
     "referenced_type" : "_ZTIPKv"
    },
    {
     "referenced_type" : "_ZTIPv"
    },
    {
     "referenced_type" : "_ZTIPv"
    },
    {
     "referenced_type" : "_ZTIPFvPKvPvS1_E"
    }
   ],
   "return_type" : "_ZTIv",
   "source_file" : "/frameworks/native/libs/binder/include/binder/BpBinder.h"
  },
  {
   "function_name" : "android::BpBinder::detachObject",
   "linker_set_key" : "_ZN7android8BpBinder12detachObjectEPKv",
   "parameters" :
   [
    {
     "is_this_ptr" : true,
     "referenced_type" : "_ZTIPN7android8BpBinderE"
    },
    {
     "referenced_type" : "_ZTIPKv"
    }
   ],
   "return_type" : "_ZTIv",
   "source_file" : "/frameworks/native/libs/binder/include/binder/BpBinder.h"
  },
  {
   "function_name" : "android::BpBinder::remoteBinder",
   "linker_set_key" : "_ZN7android8BpBinder12remoteBinderEv",
   "parameters" :
   [
    {
     "is_this_ptr" : true,
     "referenced_type" : "_ZTIPN7android8BpBinderE"
    }
   ],
   "return_type" : "_ZTIPN7android8BpBinderE",
   "source_file" : "/frameworks/native/libs/binder/include/binder/BpBinder.h"
  },
  {
   "function_name" : "android::BpBinder::sendObituary",
   "linker_set_key" : "_ZN7android8BpBinder12sendObituaryEv",
   "parameters" :
   [
    {
     "is_this_ptr" : true,
     "referenced_type" : "_ZTIPN7android8BpBinderE"
    }
   ],
   "return_type" : "_ZTIv",
   "source_file" : "/frameworks/native/libs/binder/include/binder/BpBinder.h"
  },
  {
   "function_name" : "android::BpBinder::ObjectManager::kill",
   "linker_set_key" : "_ZN7android8BpBinder13ObjectManager4killEv",
   "parameters" :
   [
    {
     "is_this_ptr" : true,
     "referenced_type" : "_ZTIPN7android8BpBinder13ObjectManagerE"
    }
   ],
   "return_type" : "_ZTIv",
   "source_file" : "/frameworks/native/libs/binder/include/binder/BpBinder.h"
  },
  {
   "function_name" : "android::BpBinder::ObjectManager::attach",
   "linker_set_key" : "_ZN7android8BpBinder13ObjectManager6attachEPKvPvS4_PFvS3_S4_S4_E",
   "parameters" :
   [
    {
     "is_this_ptr" : true,
     "referenced_type" : "_ZTIPN7android8BpBinder13ObjectManagerE"
    },
    {
     "referenced_type" : "_ZTIPKv"
    },
    {
     "referenced_type" : "_ZTIPv"
    },
    {
     "referenced_type" : "_ZTIPv"
    },
    {
     "referenced_type" : "_ZTIPFvPKvPvS1_E"
    }
   ],
   "return_type" : "_ZTIv",
   "source_file" : "/frameworks/native/libs/binder/include/binder/BpBinder.h"
  },
  {
   "function_name" : "android::BpBinder::ObjectManager::detach",
   "linker_set_key" : "_ZN7android8BpBinder13ObjectManager6detachEPKv",
   "parameters" :
   [
    {
     "is_this_ptr" : true,
     "referenced_type" : "_ZTIPN7android8BpBinder13ObjectManagerE"
    },
    {
     "referenced_type" : "_ZTIPKv"
    }
   ],
   "return_type" : "_ZTIv",
   "source_file" : "/frameworks/native/libs/binder/include/binder/BpBinder.h"
  },
  {
   "function_name" : "android::BpBinder::ObjectManager::ObjectManager",
   "linker_set_key" : "_ZN7android8BpBinder13ObjectManagerC1Ev",
   "parameters" :
   [
    {
     "is_this_ptr" : true,
     "referenced_type" : "_ZTIPN7android8BpBinder13ObjectManagerE"
    }
   ],
   "return_type" : "_ZTIv",
   "source_file" : "/frameworks/native/libs/binder/include/binder/BpBinder.h"
  },
  {
   "function_name" : "android::BpBinder::ObjectManager::ObjectManager",
   "linker_set_key" : "_ZN7android8BpBinder13ObjectManagerC2Ev",
   "parameters" :
   [
    {
     "is_this_ptr" : true,
     "referenced_type" : "_ZTIPN7android8BpBinder13ObjectManagerE"
    }
   ],
   "return_type" : "_ZTIv",
   "source_file" : "/frameworks/native/libs/binder/include/binder/BpBinder.h"
  },
  {
   "function_name" : "android::BpBinder::ObjectManager::~ObjectManager",
   "linker_set_key" : "_ZN7android8BpBinder13ObjectManagerD1Ev",
   "parameters" :
   [
    {
     "is_this_ptr" : true,
     "referenced_type" : "_ZTIPN7android8BpBinder13ObjectManagerE"
    }
   ],
   "return_type" : "_ZTIv",
   "source_file" : "/frameworks/native/libs/binder/include/binder/BpBinder.h"
  },
  {
   "function_name" : "android::BpBinder::ObjectManager::~ObjectManager",
   "linker_set_key" : "_ZN7android8BpBinder13ObjectManagerD2Ev",
   "parameters" :
   [
    {
     "is_this_ptr" : true,
     "referenced_type" : "_ZTIPN7android8BpBinder13ObjectManagerE"
    }
   ],
   "return_type" : "_ZTIv",
   "source_file" : "/frameworks/native/libs/binder/include/binder/BpBinder.h"
  },
  {
   "function_name" : "android::BpBinder::getCountByUid",
   "linker_set_key" : "_ZN7android8BpBinder13getCountByUidERNS_6VectorIjEES3_",
   "parameters" :
   [
    {
     "referenced_type" : "_ZTIRN7android6VectorIjEE"
    },
    {
     "referenced_type" : "_ZTIRN7android6VectorIjEE"
    }
   ],
   "return_type" : "_ZTIv",
   "source_file" : "/frameworks/native/libs/binder/include/binder/BpBinder.h"
  },
  {
   "function_name" : "android::BpBinder::unlinkToDeath",
   "linker_set_key" : "_ZN7android8BpBinder13unlinkToDeathERKNS_2wpINS_7IBinder14DeathRecipientEEEPvjPS4_",
   "parameters" :
   [
    {
     "is_this_ptr" : true,
     "referenced_type" : "_ZTIPN7android8BpBinderE"
    },
    {
     "referenced_type" : "_ZTIRKN7android2wpINS_7IBinder14DeathRecipientEEE"
    },
    {
     "default_arg" : true,
     "referenced_type" : "_ZTIPv"
    },
    {
     "default_arg" : true,
     "referenced_type" : "_ZTIj"
    },
    {
     "default_arg" : true,
     "referenced_type" : "_ZTIPN7android2wpINS_7IBinder14DeathRecipientEEE"
    }
   ],
   "return_type" : "_ZTIi",
   "source_file" : "/frameworks/native/libs/binder/include/binder/BpBinder.h"
  },
  {
   "access" : "private",
   "function_name" : "android::BpBinder::reportOneDeath",
   "linker_set_key" : "_ZN7android8BpBinder14reportOneDeathERKNS0_8ObituaryE",
   "parameters" :
   [
    {
     "is_this_ptr" : true,
     "referenced_type" : "_ZTIPN7android8BpBinderE"
    },
    {
     "referenced_type" : "_ZTIRKN7android8BpBinder8ObituaryE"
    }
   ],
   "return_type" : "_ZTIv",
   "source_file" : "/frameworks/native/libs/binder/include/binder/BpBinder.h"
  },
  {
   "access" : "protected",
   "function_name" : "android::BpBinder::onLastStrongRef",
   "linker_set_key" : "_ZN7android8BpBinder15onLastStrongRefEPKv",
   "parameters" :
   [
    {
     "is_this_ptr" : true,
     "referenced_type" : "_ZTIPN7android8BpBinderE"
    },
    {
     "referenced_type" : "_ZTIPKv"
    }
   ],
   "return_type" : "_ZTIv",
   "source_file" : "/frameworks/native/libs/binder/include/binder/BpBinder.h"
  },
  {
   "function_name" : "android::BpBinder::enableCountByUid",
   "linker_set_key" : "_ZN7android8BpBinder16enableCountByUidEv",
   "return_type" : "_ZTIv",
   "source_file" : "/frameworks/native/libs/binder/include/binder/BpBinder.h"
  },
  {
   "function_name" : "android::BpBinder::setLimitCallback",
   "linker_set_key" : "_ZN7android8BpBinder16setLimitCallbackEPFviE",
   "parameters" :
   [
    {
     "referenced_type" : "_ZTIPFviE"
    }
   ],
   "return_type" : "_ZTIv",
   "source_file" : "/frameworks/native/libs/binder/include/binder/BpBinder.h"
  },
  {
   "function_name" : "android::BpBinder::disableCountByUid",
   "linker_set_key" : "_ZN7android8BpBinder17disableCountByUidEv",
   "return_type" : "_ZTIv",
   "source_file" : "/frameworks/native/libs/binder/include/binder/BpBinder.h"
  },
  {
   "function_name" : "android::BpBinder::getBinderProxyCount",
   "linker_set_key" : "_ZN7android8BpBinder19getBinderProxyCountEj",
   "parameters" :
   [
    {
     "referenced_type" : "_ZTIj"
    }
   ],
   "return_type" : "_ZTIj",
   "source_file" : "/frameworks/native/libs/binder/include/binder/BpBinder.h"
  },
  {
   "access" : "protected",
   "function_name" : "android::BpBinder::onIncStrongAttempted",
   "linker_set_key" : "_ZN7android8BpBinder20onIncStrongAttemptedEjPKv",
   "parameters" :
   [
    {
     "is_this_ptr" : true,
     "referenced_type" : "_ZTIPN7android8BpBinderE"
    },
    {
     "referenced_type" : "_ZTIj"
    },
    {
     "referenced_type" : "_ZTIPKv"
    }
   ],
   "return_type" : "_ZTIb",
   "source_file" : "/frameworks/native/libs/binder/include/binder/BpBinder.h"
  },
  {
   "function_name" : "android::BpBinder::setCountByUidEnabled",
   "linker_set_key" : "_ZN7android8BpBinder20setCountByUidEnabledEb",
   "parameters" :
   [
    {
     "referenced_type" : "_ZTIb"
    }
   ],
   "return_type" : "_ZTIv",
   "source_file" : "/frameworks/native/libs/binder/include/binder/BpBinder.h"
  },
  {
   "function_name" : "android::BpBinder::setBinderProxyCountWatermarks",
   "linker_set_key" : "_ZN7android8BpBinder29setBinderProxyCountWatermarksEii",
   "parameters" :
   [
    {
     "referenced_type" : "_ZTIi"
    },
    {
     "referenced_type" : "_ZTIi"
    }
   ],
   "return_type" : "_ZTIv",
   "source_file" : "/frameworks/native/libs/binder/include/binder/BpBinder.h"
  },
  {
   "function_name" : "android::BpBinder::dump",
   "linker_set_key" : "_ZN7android8BpBinder4dumpEiRKNS_6VectorINS_8String16EEE",
   "parameters" :
   [
    {
     "is_this_ptr" : true,
     "referenced_type" : "_ZTIPN7android8BpBinderE"
    },
    {
     "referenced_type" : "_ZTIi"
    },
    {
     "referenced_type" : "_ZTIRKN7android6VectorINS_8String16EEE"
    }
   ],
   "return_type" : "_ZTIi",
   "source_file" : "/frameworks/native/libs/binder/include/binder/BpBinder.h"
  },
  {
   "function_name" : "android::BpBinder::create",
   "linker_set_key" : "_ZN7android8BpBinder6createEi",
   "parameters" :
   [
    {
     "referenced_type" : "_ZTIi"
    }
   ],
   "return_type" : "_ZTIPN7android8BpBinderE",
   "source_file" : "/frameworks/native/libs/binder/include/binder/BpBinder.h"
  },
  {
   "function_name" : "android::BpBinder::transact",
   "linker_set_key" : "_ZN7android8BpBinder8transactEjRKNS_6ParcelEPS1_j",
   "parameters" :
   [
    {
     "is_this_ptr" : true,
     "referenced_type" : "_ZTIPN7android8BpBinderE"
    },
    {
     "referenced_type" : "_ZTIj"
    },
    {
     "referenced_type" : "_ZTIRKN7android6ParcelE"
    },
    {
     "referenced_type" : "_ZTIPN7android6ParcelE"
    },
    {
     "default_arg" : true,
     "referenced_type" : "_ZTIj"
    }
   ],
   "return_type" : "_ZTIi",
   "source_file" : "/frameworks/native/libs/binder/include/binder/BpBinder.h"
  },
  {
   "access" : "protected",
   "function_name" : "android::BpBinder::BpBinder",
   "linker_set_key" : "_ZN7android8BpBinderC1Eii",
   "parameters" :
   [
    {
     "is_this_ptr" : true,
     "referenced_type" : "_ZTIPN7android8BpBinderE"
    },
    {
     "referenced_type" : "_ZTIi"
    },
    {
     "referenced_type" : "_ZTIi"
    }
   ],
   "return_type" : "_ZTIv",
   "source_file" : "/frameworks/native/libs/binder/include/binder/BpBinder.h"
  },
  {
   "access" : "protected",
   "function_name" : "android::BpBinder::BpBinder",
   "linker_set_key" : "_ZN7android8BpBinderC2Eii",
   "parameters" :
   [
    {
     "is_this_ptr" : true,
     "referenced_type" : "_ZTIPN7android8BpBinderE"
    },
    {
     "referenced_type" : "_ZTIi"
    },
    {
     "referenced_type" : "_ZTIi"
    }
   ],
   "return_type" : "_ZTIv",
   "source_file" : "/frameworks/native/libs/binder/include/binder/BpBinder.h"
  },
  {
   "access" : "protected",
   "function_name" : "android::BpBinder::~BpBinder",
   "linker_set_key" : "_ZN7android8BpBinderD0Ev",
   "parameters" :
   [
    {
     "is_this_ptr" : true,
     "referenced_type" : "_ZTIPN7android8BpBinderE"
    }
   ],
   "return_type" : "_ZTIv",
   "source_file" : "/frameworks/native/libs/binder/include/binder/BpBinder.h"
  },
  {
   "access" : "protected",
   "function_name" : "android::BpBinder::~BpBinder",
   "linker_set_key" : "_ZN7android8BpBinderD1Ev",
   "parameters" :
   [
    {
     "is_this_ptr" : true,
     "referenced_type" : "_ZTIPN7android8BpBinderE"
    }
   ],
   "return_type" : "_ZTIv",
   "source_file" : "/frameworks/native/libs/binder/include/binder/BpBinder.h"
  },
  {
   "access" : "protected",
   "function_name" : "android::BpBinder::~BpBinder",
   "linker_set_key" : "_ZN7android8BpBinderD2Ev",
   "parameters" :
   [
    {
     "is_this_ptr" : true,
     "referenced_type" : "_ZTIPN7android8BpBinderE"
    }
   ],
   "return_type" : "_ZTIv",
   "source_file" : "/frameworks/native/libs/binder/include/binder/BpBinder.h"
  },
  {
   "access" : "private",
   "function_name" : "android::internal::Stability::stabilityString",
   "linker_set_key" : "_ZN7android8internal9Stability15stabilityStringEi",
   "parameters" :
   [
    {
     "referenced_type" : "_ZTIi"
    }
   ],
   "return_type" : "_ZTINSt3__112basic_stringIcNS_11char_traitsIcEENS_9allocatorIcEEEE",
   "source_file" : "/frameworks/native/libs/binder/include/binder/Stability.h"
  },
  {
   "function_name" : "android::internal::Stability::debugLogStability",
   "linker_set_key" : "_ZN7android8internal9Stability17debugLogStabilityERKNSt3__112basic_stringIcNS2_11char_traitsIcEENS2_9allocatorIcEEEERKNS_2spINS_7IBinderEEE",
   "parameters" :
   [
    {
     "referenced_type" : "_ZTIRKNSt3__112basic_stringIcNS_11char_traitsIcEENS_9allocatorIcEEEE"
    },
    {
     "referenced_type" : "_ZTIRKN7android2spINS_7IBinderEEE"
    }
   ],
   "return_type" : "_ZTIv",
   "source_file" : "/frameworks/native/libs/binder/include/binder/Stability.h"
  },
  {
   "access" : "private",
   "function_name" : "android::internal::Stability::isDeclaredStability",
   "linker_set_key" : "_ZN7android8internal9Stability19isDeclaredStabilityEi",
   "parameters" :
   [
    {
     "referenced_type" : "_ZTIi"
    }
   ],
   "return_type" : "_ZTIb",
   "source_file" : "/frameworks/native/libs/binder/include/binder/Stability.h"
  },
  {
   "function_name" : "android::internal::Stability::markCompilationUnit",
   "linker_set_key" : "_ZN7android8internal9Stability19markCompilationUnitEPNS_7IBinderE",
   "parameters" :
   [
    {
     "referenced_type" : "_ZTIPN7android7IBinderE"
    }
   ],
   "return_type" : "_ZTIv",
   "source_file" : "/frameworks/native/libs/binder/include/binder/Stability.h"
  },
  {
   "access" : "private",
   "function_name" : "android::internal::Stability::tryMarkCompilationUnit",
   "linker_set_key" : "_ZN7android8internal9Stability22tryMarkCompilationUnitEPNS_7IBinderE",
   "parameters" :
   [
    {
     "referenced_type" : "_ZTIPN7android7IBinderE"
    }
   ],
   "return_type" : "_ZTIv",
   "source_file" : "/frameworks/native/libs/binder/include/binder/Stability.h"
  },
  {
   "function_name" : "android::internal::Stability::requiresVintfDeclaration",
   "linker_set_key" : "_ZN7android8internal9Stability24requiresVintfDeclarationERKNS_2spINS_7IBinderEEE",
   "parameters" :
   [
    {
     "referenced_type" : "_ZTIRKN7android2spINS_7IBinderEEE"
    }
   ],
   "return_type" : "_ZTIb",
   "source_file" : "/frameworks/native/libs/binder/include/binder/Stability.h"
  },
  {
   "access" : "private",
   "function_name" : "android::internal::Stability::get",
   "linker_set_key" : "_ZN7android8internal9Stability3getEPNS_7IBinderE",
   "parameters" :
   [
    {
     "referenced_type" : "_ZTIPN7android7IBinderE"
    }
   ],
   "return_type" : "_ZTIN7android8internal9Stability5LevelE",
   "source_file" : "/frameworks/native/libs/binder/include/binder/Stability.h"
  },
  {
   "access" : "private",
   "function_name" : "android::internal::Stability::set",
   "linker_set_key" : "_ZN7android8internal9Stability3setEPNS_7IBinderEib",
   "parameters" :
   [
    {
     "referenced_type" : "_ZTIPN7android7IBinderE"
    },
    {
     "referenced_type" : "_ZTIi"
    },
    {
     "referenced_type" : "_ZTIb"
    }
   ],
   "return_type" : "_ZTIi",
   "source_file" : "/frameworks/native/libs/binder/include/binder/Stability.h"
  },
  {
   "access" : "private",
   "function_name" : "android::internal::Stability::check",
   "linker_set_key" : "_ZN7android8internal9Stability5checkEiNS1_5LevelE",
   "parameters" :
   [
    {
     "referenced_type" : "_ZTIi"
    },
    {
     "referenced_type" : "_ZTIN7android8internal9Stability5LevelE"
    }
   ],
   "return_type" : "_ZTIb",
   "source_file" : "/frameworks/native/libs/binder/include/binder/Stability.h"
  },
  {
   "function_name" : "android::internal::Stability::markVndk",
   "linker_set_key" : "_ZN7android8internal9Stability8markVndkEPNS_7IBinderE",
   "parameters" :
   [
    {
     "referenced_type" : "_ZTIPN7android7IBinderE"
    }
   ],
   "return_type" : "_ZTIv",
   "source_file" : "/frameworks/native/libs/binder/include/binder/Stability.h"
  },
  {
   "function_name" : "android::internal::Stability::markVintf",
   "linker_set_key" : "_ZN7android8internal9Stability9markVintfEPNS_7IBinderE",
   "parameters" :
   [
    {
     "referenced_type" : "_ZTIPN7android7IBinderE"
    }
   ],
   "return_type" : "_ZTIv",
   "source_file" : "/frameworks/native/libs/binder/include/binder/Stability.h"
  },
  {
   "access" : "protected",
   "function_name" : "android::BpRefBase::onFirstRef",
   "linker_set_key" : "_ZN7android9BpRefBase10onFirstRefEv",
   "parameters" :
   [
    {
     "is_this_ptr" : true,
     "referenced_type" : "_ZTIPN7android9BpRefBaseE"
    }
   ],
   "return_type" : "_ZTIv",
   "source_file" : "/frameworks/native/libs/binder/include/binder/Binder.h"
  },
  {
   "access" : "protected",
   "function_name" : "android::BpRefBase::onLastStrongRef",
   "linker_set_key" : "_ZN7android9BpRefBase15onLastStrongRefEPKv",
   "parameters" :
   [
    {
     "is_this_ptr" : true,
     "referenced_type" : "_ZTIPN7android9BpRefBaseE"
    },
    {
     "referenced_type" : "_ZTIPKv"
    }
   ],
   "return_type" : "_ZTIv",
   "source_file" : "/frameworks/native/libs/binder/include/binder/Binder.h"
  },
  {
   "access" : "protected",
   "function_name" : "android::BpRefBase::onIncStrongAttempted",
   "linker_set_key" : "_ZN7android9BpRefBase20onIncStrongAttemptedEjPKv",
   "parameters" :
   [
    {
     "is_this_ptr" : true,
     "referenced_type" : "_ZTIPN7android9BpRefBaseE"
    },
    {
     "referenced_type" : "_ZTIj"
    },
    {
     "referenced_type" : "_ZTIPKv"
    }
   ],
   "return_type" : "_ZTIb",
   "source_file" : "/frameworks/native/libs/binder/include/binder/Binder.h"
  },
  {
   "access" : "protected",
   "function_name" : "android::BpRefBase::BpRefBase",
   "linker_set_key" : "_ZN7android9BpRefBaseC1ERKNS_2spINS_7IBinderEEE",
   "parameters" :
   [
    {
     "is_this_ptr" : true,
     "referenced_type" : "_ZTIPN7android9BpRefBaseE"
    },
    {
     "referenced_type" : "_ZTIRKN7android2spINS_7IBinderEEE"
    }
   ],
   "return_type" : "_ZTIv",
   "source_file" : "/frameworks/native/libs/binder/include/binder/Binder.h"
  },
  {
   "access" : "protected",
   "function_name" : "android::BpRefBase::BpRefBase",
   "linker_set_key" : "_ZN7android9BpRefBaseC2ERKNS_2spINS_7IBinderEEE",
   "parameters" :
   [
    {
     "is_this_ptr" : true,
     "referenced_type" : "_ZTIPN7android9BpRefBaseE"
    },
    {
     "referenced_type" : "_ZTIRKN7android2spINS_7IBinderEEE"
    }
   ],
   "return_type" : "_ZTIv",
   "source_file" : "/frameworks/native/libs/binder/include/binder/Binder.h"
  },
  {
   "access" : "protected",
   "function_name" : "android::BpRefBase::~BpRefBase",
   "linker_set_key" : "_ZN7android9BpRefBaseD0Ev",
   "parameters" :
   [
    {
     "is_this_ptr" : true,
     "referenced_type" : "_ZTIPN7android9BpRefBaseE"
    }
   ],
   "return_type" : "_ZTIv",
   "source_file" : "/frameworks/native/libs/binder/include/binder/Binder.h"
  },
  {
   "access" : "protected",
   "function_name" : "android::BpRefBase::~BpRefBase",
   "linker_set_key" : "_ZN7android9BpRefBaseD1Ev",
   "parameters" :
   [
    {
     "is_this_ptr" : true,
     "referenced_type" : "_ZTIPN7android9BpRefBaseE"
    }
   ],
   "return_type" : "_ZTIv",
   "source_file" : "/frameworks/native/libs/binder/include/binder/Binder.h"
  },
  {
   "access" : "protected",
   "function_name" : "android::BpRefBase::~BpRefBase",
   "linker_set_key" : "_ZN7android9BpRefBaseD2Ev",
   "parameters" :
   [
    {
     "is_this_ptr" : true,
     "referenced_type" : "_ZTIPN7android9BpRefBaseE"
    }
   ],
   "return_type" : "_ZTIv",
   "source_file" : "/frameworks/native/libs/binder/include/binder/Binder.h"
  },
  {
   "function_name" : "android::operator<<",
   "linker_set_key" : "_ZN7androidlsERNS_10TextOutputERKNS_7HexDumpE",
   "parameters" :
   [
    {
     "referenced_type" : "_ZTIRN7android10TextOutputE"
    },
    {
     "referenced_type" : "_ZTIRKN7android7HexDumpE"
    }
   ],
   "return_type" : "_ZTIRN7android10TextOutputE",
   "source_file" : "/frameworks/native/libs/binder/include/binder/TextOutput.h"
  },
  {
   "function_name" : "android::operator<<",
   "linker_set_key" : "_ZN7androidlsERNS_10TextOutputERKNS_8TypeCodeE",
   "parameters" :
   [
    {
     "referenced_type" : "_ZTIRN7android10TextOutputE"
    },
    {
     "referenced_type" : "_ZTIRKN7android8TypeCodeE"
    }
   ],
   "return_type" : "_ZTIRN7android10TextOutputE",
   "source_file" : "/frameworks/native/libs/binder/include/binder/TextOutput.h"
  },
  {
   "function_name" : "android::operator<<",
   "linker_set_key" : "_ZN7androidlsIA18_cEERNS_10TextOutputES3_RKT_",
   "parameters" :
   [
    {
     "referenced_type" : "_ZTIRN7android10TextOutputE"
    },
    {
     "referenced_type" : "_ZTIRA18_Kc"
    }
   ],
   "return_type" : "_ZTIRN7android10TextOutputE",
   "source_file" : "/frameworks/native/libs/binder/include/binder/TextOutput.h",
   "template_args" : [ "_ZTIA18_c" ]
  },
  {
   "function_name" : "android::operator<<",
   "linker_set_key" : "_ZN7androidlsIA2_cEERNS_10TextOutputES3_RKT_",
   "parameters" :
   [
    {
     "referenced_type" : "_ZTIRN7android10TextOutputE"
    },
    {
     "referenced_type" : "_ZTIRA2_Kc"
    }
   ],
   "return_type" : "_ZTIRN7android10TextOutputE",
   "source_file" : "/frameworks/native/libs/binder/include/binder/TextOutput.h",
   "template_args" : [ "_ZTIA2_c" ]
  },
  {
   "function_name" : "android::operator<<",
   "linker_set_key" : "_ZN7androidlsIA3_cEERNS_10TextOutputES3_RKT_",
   "parameters" :
   [
    {
     "referenced_type" : "_ZTIRN7android10TextOutputE"
    },
    {
     "referenced_type" : "_ZTIRA3_Kc"
    }
   ],
   "return_type" : "_ZTIRN7android10TextOutputE",
   "source_file" : "/frameworks/native/libs/binder/include/binder/TextOutput.h",
   "template_args" : [ "_ZTIA3_c" ]
  },
  {
   "function_name" : "android::operator<<",
   "linker_set_key" : "_ZN7androidlsIA4_cEERNS_10TextOutputES3_RKT_",
   "parameters" :
   [
    {
     "referenced_type" : "_ZTIRN7android10TextOutputE"
    },
    {
     "referenced_type" : "_ZTIRA4_Kc"
    }
   ],
   "return_type" : "_ZTIRN7android10TextOutputE",
   "source_file" : "/frameworks/native/libs/binder/include/binder/TextOutput.h",
   "template_args" : [ "_ZTIA4_c" ]
  },
  {
   "function_name" : "android::operator<<",
   "linker_set_key" : "_ZN7androidlsIA5_cEERNS_10TextOutputES3_RKT_",
   "parameters" :
   [
    {
     "referenced_type" : "_ZTIRN7android10TextOutputE"
    },
    {
     "referenced_type" : "_ZTIRA5_Kc"
    }
   ],
   "return_type" : "_ZTIRN7android10TextOutputE",
   "source_file" : "/frameworks/native/libs/binder/include/binder/TextOutput.h",
   "template_args" : [ "_ZTIA5_c" ]
  },
  {
   "function_name" : "android::operator<<",
   "linker_set_key" : "_ZN7androidlsIA66_cEERNS_10TextOutputES3_RKT_",
   "parameters" :
   [
    {
     "referenced_type" : "_ZTIRN7android10TextOutputE"
    },
    {
     "referenced_type" : "_ZTIRA66_Kc"
    }
   ],
   "return_type" : "_ZTIRN7android10TextOutputE",
   "source_file" : "/frameworks/native/libs/binder/include/binder/TextOutput.h",
   "template_args" : [ "_ZTIA66_c" ]
  },
  {
   "function_name" : "android::operator<<",
   "linker_set_key" : "_ZN7androidlsIA8_cEERNS_10TextOutputES3_RKT_",
   "parameters" :
   [
    {
     "referenced_type" : "_ZTIRN7android10TextOutputE"
    },
    {
     "referenced_type" : "_ZTIRA8_Kc"
    }
   ],
   "return_type" : "_ZTIRN7android10TextOutputE",
   "source_file" : "/frameworks/native/libs/binder/include/binder/TextOutput.h",
   "template_args" : [ "_ZTIA8_c" ]
  },
  {
   "function_name" : "android::operator<<",
   "linker_set_key" : "_ZN7androidlsIA9_cEERNS_10TextOutputES3_RKT_",
   "parameters" :
   [
    {
     "referenced_type" : "_ZTIRN7android10TextOutputE"
    },
    {
     "referenced_type" : "_ZTIRA9_Kc"
    }
   ],
   "return_type" : "_ZTIRN7android10TextOutputE",
   "source_file" : "/frameworks/native/libs/binder/include/binder/TextOutput.h",
   "template_args" : [ "_ZTIA9_c" ]
  },
  {
   "function_name" : "android::operator<<",
   "linker_set_key" : "_ZN7androidlsINSt3__112basic_stringIcNS1_11char_traitsIcEENS1_9allocatorIcEEEEEERNS_10TextOutputES9_RKT_",
   "parameters" :
   [
    {
     "referenced_type" : "_ZTIRN7android10TextOutputE"
    },
    {
     "referenced_type" : "_ZTIRKNSt3__112basic_stringIcNS_11char_traitsIcEENS_9allocatorIcEEEE"
    }
   ],
   "return_type" : "_ZTIRN7android10TextOutputE",
   "source_file" : "/frameworks/native/libs/binder/include/binder/TextOutput.h",
   "template_args" : [ "_ZTINSt3__112basic_stringIcNS_11char_traitsIcEENS_9allocatorIcEEEE" ]
  },
  {
   "function_name" : "android::operator<<",
   "linker_set_key" : "_ZN7androidlsIPcEERNS_10TextOutputES3_RKT_",
   "parameters" :
   [
    {
     "referenced_type" : "_ZTIRN7android10TextOutputE"
    },
    {
     "referenced_type" : "_ZTIRKPc"
    }
   ],
   "return_type" : "_ZTIRN7android10TextOutputE",
   "source_file" : "/frameworks/native/libs/binder/include/binder/TextOutput.h",
   "template_args" : [ "_ZTIPc" ]
  },
  {
   "function_name" : "android::operator<<",
   "linker_set_key" : "_ZN7androidlsIPvEERNS_10TextOutputES3_RKT_",
   "parameters" :
   [
    {
     "referenced_type" : "_ZTIRN7android10TextOutputE"
    },
    {
     "referenced_type" : "_ZTIRKPv"
    }
   ],
   "return_type" : "_ZTIRN7android10TextOutputE",
   "source_file" : "/frameworks/native/libs/binder/include/binder/TextOutput.h",
   "template_args" : [ "_ZTIPv" ]
  },
  {
   "function_name" : "android::operator<<",
   "linker_set_key" : "_ZN7androidlsImEERNS_10TextOutputES2_RKT_",
   "parameters" :
   [
    {
     "referenced_type" : "_ZTIRN7android10TextOutputE"
    },
    {
     "referenced_type" : "_ZTIRKm"
    }
   ],
   "return_type" : "_ZTIRN7android10TextOutputE",
   "source_file" : "/frameworks/native/libs/binder/include/binder/TextOutput.h",
   "template_args" : [ "_ZTIm" ]
  },
  {
   "function_name" : "android::operator<<",
   "linker_set_key" : "_ZN7androidlsIyEERNS_10TextOutputES2_RKT_",
   "parameters" :
   [
    {
     "referenced_type" : "_ZTIRN7android10TextOutputE"
    },
    {
     "referenced_type" : "_ZTIRKy"
    }
   ],
   "return_type" : "_ZTIRN7android10TextOutputE",
   "source_file" : "/frameworks/native/libs/binder/include/binder/TextOutput.h",
   "template_args" : [ "_ZTIy" ]
  },
  {
   "function_name" : "android::MemoryBase::getMemory",
   "linker_set_key" : "_ZNK7android10MemoryBase9getMemoryEPlPm",
   "parameters" :
   [
    {
     "is_this_ptr" : true,
     "referenced_type" : "_ZTIPKN7android10MemoryBaseE"
    },
    {
     "referenced_type" : "_ZTIPl"
    },
    {
     "referenced_type" : "_ZTIPm"
    }
   ],
   "return_type" : "_ZTIN7android2spINS_11IMemoryHeapEEE",
   "source_file" : "/frameworks/native/libs/binder/include/binder/MemoryBase.h"
  },
  {
   "function_name" : "android::IMemoryHeap::getInterfaceDescriptor",
   "linker_set_key" : "_ZNK7android11IMemoryHeap22getInterfaceDescriptorEv",
   "parameters" :
   [
    {
     "is_this_ptr" : true,
     "referenced_type" : "_ZTIPKN7android11IMemoryHeapE"
    }
   ],
   "return_type" : "_ZTIRKN7android8String16E",
   "source_file" : "/frameworks/native/libs/binder/include/binder/IMemory.h"
  },
  {
   "function_name" : "android::MemoryDealer::dump",
   "linker_set_key" : "_ZNK7android12MemoryDealer4dumpEPKc",
   "parameters" :
   [
    {
     "is_this_ptr" : true,
     "referenced_type" : "_ZTIPKN7android12MemoryDealerE"
    },
    {
     "referenced_type" : "_ZTIPKc"
    }
   ],
   "return_type" : "_ZTIv",
   "source_file" : "/frameworks/native/libs/binder/include/binder/MemoryDealer.h"
  },
  {
   "access" : "private",
   "function_name" : "android::MemoryDealer::heap",
   "linker_set_key" : "_ZNK7android12MemoryDealer4heapEv",
   "parameters" :
   [
    {
     "is_this_ptr" : true,
     "referenced_type" : "_ZTIPKN7android12MemoryDealerE"
    }
   ],
   "return_type" : "_ZTIRKN7android2spINS_11IMemoryHeapEEE",
   "source_file" : "/frameworks/native/libs/binder/include/binder/MemoryDealer.h"
  },
  {
   "access" : "private",
   "function_name" : "android::MemoryDealer::allocator",
   "linker_set_key" : "_ZNK7android12MemoryDealer9allocatorEv",
   "parameters" :
   [
    {
     "is_this_ptr" : true,
     "referenced_type" : "_ZTIPKN7android12MemoryDealerE"
    }
   ],
   "return_type" : "_ZTIPN7android22SimpleBestFitAllocatorE",
   "source_file" : "/frameworks/native/libs/binder/include/binder/MemoryDealer.h"
  },
  {
   "access" : "protected",
   "function_name" : "android::SortedVector<android::key_value_pair_t<android::wp<android::IBinder>, android::HeapCache::heap_info_t> >::do_compare",
   "linker_set_key" : "_ZNK7android12SortedVectorINS_16key_value_pair_tINS_2wpINS_7IBinderEEENS_9HeapCache11heap_info_tEEEE10do_compareEPKvSA_",
   "parameters" :
   [
    {
     "is_this_ptr" : true,
     "referenced_type" : "_ZTIPKN7android12SortedVectorINS_16key_value_pair_tINS_2wpINS_7IBinderEEENS_9HeapCache11heap_info_tEEEEE"
    },
    {
     "referenced_type" : "_ZTIPKv"
    },
    {
     "referenced_type" : "_ZTIPKv"
    }
   ],
   "return_type" : "_ZTIi",
   "source_file" : "/system/core/libutils/include/utils/SortedVector.h"
  },
  {
   "access" : "protected",
   "function_name" : "android::SortedVector<android::key_value_pair_t<android::wp<android::IBinder>, android::HeapCache::heap_info_t> >::do_destroy",
   "linker_set_key" : "_ZNK7android12SortedVectorINS_16key_value_pair_tINS_2wpINS_7IBinderEEENS_9HeapCache11heap_info_tEEEE10do_destroyEPvm",
   "parameters" :
   [
    {
     "is_this_ptr" : true,
     "referenced_type" : "_ZTIPKN7android12SortedVectorINS_16key_value_pair_tINS_2wpINS_7IBinderEEENS_9HeapCache11heap_info_tEEEEE"
    },
    {
     "referenced_type" : "_ZTIPv"
    },
    {
     "referenced_type" : "_ZTIm"
    }
   ],
   "return_type" : "_ZTIv",
   "source_file" : "/system/core/libutils/include/utils/SortedVector.h"
  },
  {
   "access" : "protected",
   "function_name" : "android::SortedVector<android::key_value_pair_t<android::wp<android::IBinder>, android::HeapCache::heap_info_t> >::do_construct",
   "linker_set_key" : "_ZNK7android12SortedVectorINS_16key_value_pair_tINS_2wpINS_7IBinderEEENS_9HeapCache11heap_info_tEEEE12do_constructEPvm",
   "parameters" :
   [
    {
     "is_this_ptr" : true,
     "referenced_type" : "_ZTIPKN7android12SortedVectorINS_16key_value_pair_tINS_2wpINS_7IBinderEEENS_9HeapCache11heap_info_tEEEEE"
    },
    {
     "referenced_type" : "_ZTIPv"
    },
    {
     "referenced_type" : "_ZTIm"
    }
   ],
   "return_type" : "_ZTIv",
   "source_file" : "/system/core/libutils/include/utils/SortedVector.h"
  },
  {
   "access" : "protected",
   "function_name" : "android::SortedVector<android::key_value_pair_t<android::wp<android::IBinder>, android::HeapCache::heap_info_t> >::do_move_forward",
   "linker_set_key" : "_ZNK7android12SortedVectorINS_16key_value_pair_tINS_2wpINS_7IBinderEEENS_9HeapCache11heap_info_tEEEE15do_move_forwardEPvPKvm",
   "parameters" :
   [
    {
     "is_this_ptr" : true,
     "referenced_type" : "_ZTIPKN7android12SortedVectorINS_16key_value_pair_tINS_2wpINS_7IBinderEEENS_9HeapCache11heap_info_tEEEEE"
    },
    {
     "referenced_type" : "_ZTIPv"
    },
    {
     "referenced_type" : "_ZTIPKv"
    },
    {
     "referenced_type" : "_ZTIm"
    }
   ],
   "return_type" : "_ZTIv",
   "source_file" : "/system/core/libutils/include/utils/SortedVector.h"
  },
  {
   "access" : "protected",
   "function_name" : "android::SortedVector<android::key_value_pair_t<android::wp<android::IBinder>, android::HeapCache::heap_info_t> >::do_move_backward",
   "linker_set_key" : "_ZNK7android12SortedVectorINS_16key_value_pair_tINS_2wpINS_7IBinderEEENS_9HeapCache11heap_info_tEEEE16do_move_backwardEPvPKvm",
   "parameters" :
   [
    {
     "is_this_ptr" : true,
     "referenced_type" : "_ZTIPKN7android12SortedVectorINS_16key_value_pair_tINS_2wpINS_7IBinderEEENS_9HeapCache11heap_info_tEEEEE"
    },
    {
     "referenced_type" : "_ZTIPv"
    },
    {
     "referenced_type" : "_ZTIPKv"
    },
    {
     "referenced_type" : "_ZTIm"
    }
   ],
   "return_type" : "_ZTIv",
   "source_file" : "/system/core/libutils/include/utils/SortedVector.h"
  },
  {
   "access" : "protected",
   "function_name" : "android::SortedVector<android::key_value_pair_t<android::wp<android::IBinder>, android::HeapCache::heap_info_t> >::do_copy",
   "linker_set_key" : "_ZNK7android12SortedVectorINS_16key_value_pair_tINS_2wpINS_7IBinderEEENS_9HeapCache11heap_info_tEEEE7do_copyEPvPKvm",
   "parameters" :
   [
    {
     "is_this_ptr" : true,
     "referenced_type" : "_ZTIPKN7android12SortedVectorINS_16key_value_pair_tINS_2wpINS_7IBinderEEENS_9HeapCache11heap_info_tEEEEE"
    },
    {
     "referenced_type" : "_ZTIPv"
    },
    {
     "referenced_type" : "_ZTIPKv"
    },
    {
     "referenced_type" : "_ZTIm"
    }
   ],
   "return_type" : "_ZTIv",
   "source_file" : "/system/core/libutils/include/utils/SortedVector.h"
  },
  {
   "access" : "protected",
   "function_name" : "android::SortedVector<android::key_value_pair_t<android::wp<android::IBinder>, android::HeapCache::heap_info_t> >::do_splat",
   "linker_set_key" : "_ZNK7android12SortedVectorINS_16key_value_pair_tINS_2wpINS_7IBinderEEENS_9HeapCache11heap_info_tEEEE8do_splatEPvPKvm",
   "parameters" :
   [
    {
     "is_this_ptr" : true,
     "referenced_type" : "_ZTIPKN7android12SortedVectorINS_16key_value_pair_tINS_2wpINS_7IBinderEEENS_9HeapCache11heap_info_tEEEEE"
    },
    {
     "referenced_type" : "_ZTIPv"
    },
    {
     "referenced_type" : "_ZTIPKv"
    },
    {
     "referenced_type" : "_ZTIm"
    }
   ],
   "return_type" : "_ZTIv",
   "source_file" : "/system/core/libutils/include/utils/SortedVector.h"
  },
  {
   "access" : "protected",
   "function_name" : "android::SortedVector<android::key_value_pair_t<const void *, android::BpBinder::ObjectManager::entry_t> >::do_compare",
   "linker_set_key" : "_ZNK7android12SortedVectorINS_16key_value_pair_tIPKvNS_8BpBinder13ObjectManager7entry_tEEEE10do_compareES3_S3_",
   "parameters" :
   [
    {
     "is_this_ptr" : true,
     "referenced_type" : "_ZTIPKN7android12SortedVectorINS_16key_value_pair_tIPKvNS_8BpBinder13ObjectManager7entry_tEEEEE"
    },
    {
     "referenced_type" : "_ZTIPKv"
    },
    {
     "referenced_type" : "_ZTIPKv"
    }
   ],
   "return_type" : "_ZTIi",
   "source_file" : "/system/core/libutils/include/utils/SortedVector.h"
  },
  {
   "access" : "protected",
   "function_name" : "android::SortedVector<android::key_value_pair_t<const void *, android::BpBinder::ObjectManager::entry_t> >::do_destroy",
   "linker_set_key" : "_ZNK7android12SortedVectorINS_16key_value_pair_tIPKvNS_8BpBinder13ObjectManager7entry_tEEEE10do_destroyEPvm",
   "parameters" :
   [
    {
     "is_this_ptr" : true,
     "referenced_type" : "_ZTIPKN7android12SortedVectorINS_16key_value_pair_tIPKvNS_8BpBinder13ObjectManager7entry_tEEEEE"
    },
    {
     "referenced_type" : "_ZTIPv"
    },
    {
     "referenced_type" : "_ZTIm"
    }
   ],
   "return_type" : "_ZTIv",
