{
 "array_types" :
 [
  {
   "alignment" : 4,
   "linker_set_key" : "_ZTIA0_10tc_u32_key",
   "name" : "tc_u32_key [0]",
   "referenced_type" : "_ZTI10tc_u32_key",
   "self_type" : "_ZTIA0_10tc_u32_key",
   "source_file" : "/external/libnl/include/linux-private/linux/pkt_cls.h"
  },
  {
   "alignment" : 4,
   "linker_set_key" : "_ZTIA0_8in6_addr",
   "name" : "in6_addr [0]",
   "referenced_type" : "_ZTI8in6_addr",
   "self_type" : "_ZTIA0_8in6_addr",
   "source_file" : "/external/libnl/include/linux-private/linux/ipv6.h"
  },
  {
   "alignment" : 1,
   "linker_set_key" : "_ZTIA0_c",
   "name" : "char [0]",
   "referenced_type" : "_ZTIc",
   "self_type" : "_ZTIA0_c",
   "source_file" : "/external/libnl/include/netlink-private/types.h"
  },
  {
   "alignment" : 1,
   "linker_set_key" : "_ZTIA0_h",
   "name" : "unsigned char [0]",
   "referenced_type" : "_ZTIh",
   "self_type" : "_ZTIA0_h",
   "source_file" : "/external/libnl/include/linux-private/linux/ip.h"
  },
  {
   "alignment" : 8,
   "linker_set_key" : "_ZTIA0_y",
   "name" : "unsigned long long [0]",
   "referenced_type" : "_ZTIy",
   "self_type" : "_ZTIA0_y",
   "source_file" : "/external/libnl/include/linux-private/linux/pkt_cls.h"
  },
  {
   "alignment" : 8,
   "linker_set_key" : "_ZTIA11_PFiP6nl_msgPvE",
   "name" : "int (*[11])(nl_msg *, void *)",
   "referenced_type" : "_ZTIPFiP6nl_msgPvE",
   "self_type" : "_ZTIA11_PFiP6nl_msgPvE",
   "size" : 88,
   "source_file" : "/external/libnl/include/netlink-private/types.h"
  },
  {
   "alignment" : 8,
   "linker_set_key" : "_ZTIA11_Pv",
   "name" : "void *[11]",
   "referenced_type" : "_ZTIPv",
   "self_type" : "_ZTIA11_Pv",
   "size" : 88,
   "source_file" : "/external/libnl/include/netlink-private/types.h"
  },
  {
   "alignment" : 4,
   "linker_set_key" : "_ZTIA14_j",
   "name" : "unsigned int [14]",
   "referenced_type" : "_ZTIj",
   "self_type" : "_ZTIA14_j",
   "size" : 56,
   "source_file" : "/external/libnl/include/netlink-private/types.h"
  },
  {
   "alignment" : 1,
   "linker_set_key" : "_ZTIA16_c",
   "name" : "char [16]",
   "referenced_type" : "_ZTIc",
   "self_type" : "_ZTIA16_c",
   "size" : 16,
   "source_file" : "/external/libnl/include/linux-private/linux/if_arp.h"
  },
  {
   "alignment" : 1,
   "linker_set_key" : "_ZTIA16_h",
   "name" : "unsigned char [16]",
   "referenced_type" : "_ZTIh",
   "self_type" : "_ZTIA16_h",
   "size" : 16,
   "source_file" : "/external/libnl/include/linux-private/linux/pkt_sched.h"
  },
  {
   "alignment" : 2,
   "linker_set_key" : "_ZTIA16_t",
   "name" : "unsigned short [16]",
   "referenced_type" : "_ZTIt",
   "self_type" : "_ZTIA16_t",
   "size" : 32,
   "source_file" : "/external/libnl/include/linux-private/linux/pkt_sched.h"
  },
  {
   "alignment" : 1,
   "linker_set_key" : "_ZTIA32_c",
   "name" : "char [32]",
   "referenced_type" : "_ZTIc",
   "self_type" : "_ZTIA32_c",
   "size" : 32,
   "source_file" : "/external/libnl/include/netlink-private/types.h"
  },
  {
   "alignment" : 1,
   "linker_set_key" : "_ZTIA32_h",
   "name" : "unsigned char [32]",
   "referenced_type" : "_ZTIh",
   "self_type" : "_ZTIA32_h",
   "size" : 32,
   "source_file" : "/external/libnl/include/linux-private/linux/if_link.h"
  },
  {
   "alignment" : 8,
   "linker_set_key" : "_ZTIA3_PFvP7rtnl_tcP14nl_dump_paramsE",
   "name" : "void (*[3])(rtnl_tc *, nl_dump_params *)",
   "referenced_type" : "_ZTIPFvP7rtnl_tcP14nl_dump_paramsE",
   "self_type" : "_ZTIA3_PFvP7rtnl_tcP14nl_dump_paramsE",
   "size" : 24,
   "source_file" : "/external/libnl/include/netlink-private/route/tc-api.h"
  },
  {
   "alignment" : 8,
   "linker_set_key" : "_ZTIA3_PFvP7rtnl_tcPvP14nl_dump_paramsE",
   "name" : "void (*[3])(rtnl_tc *, void *, nl_dump_params *)",
   "referenced_type" : "_ZTIPFvP7rtnl_tcPvP14nl_dump_paramsE",
   "self_type" : "_ZTIA3_PFvP7rtnl_tcPvP14nl_dump_paramsE",
   "size" : 24,
   "source_file" : "/external/libnl/include/netlink-private/route/tc-api.h"
  },
  {
   "alignment" : 8,
   "linker_set_key" : "_ZTIA3_PFvP9nl_objectP14nl_dump_paramsE",
   "name" : "void (*[3])(nl_object *, nl_dump_params *)",
   "referenced_type" : "_ZTIPFvP9nl_objectP14nl_dump_paramsE",
   "self_type" : "_ZTIA3_PFvP9nl_objectP14nl_dump_paramsE",
   "size" : 24,
   "source_file" : "/external/libnl/include/netlink-private/object-api.h"
  },
  {
   "alignment" : 1,
   "linker_set_key" : "_ZTIA3_h",
   "name" : "unsigned char [3]",
   "referenced_type" : "_ZTIh",
   "self_type" : "_ZTIA3_h",
   "size" : 3,
   "source_file" : "/external/libnl/include/linux-private/linux/ipv6.h"
  },
  {
   "alignment" : 8,
   "linker_set_key" : "_ZTIA43_Pv",
   "name" : "void *[43]",
   "referenced_type" : "_ZTIPv",
   "self_type" : "_ZTIA43_Pv",
   "size" : 344,
   "source_file" : "/external/libnl/include/netlink-private/types.h"
  },
  {
   "alignment" : 8,
   "linker_set_key" : "_ZTIA63_m",
   "name" : "unsigned long [63]",
   "referenced_type" : "_ZTIm",
   "self_type" : "_ZTIA63_m",
   "size" : 504,
   "source_file" : "/external/libnl/include/netlink-private/types.h"
  },
  {
   "alignment" : 1,
   "linker_set_key" : "_ZTIA6_h",
   "name" : "unsigned char [6]",
   "referenced_type" : "_ZTIh",
   "self_type" : "_ZTIA6_h",
   "size" : 6,
   "source_file" : "/external/libnl/include/linux-private/linux/if_ether.h"
  },
  {
   "alignment" : 1,
   "linker_set_key" : "_ZTIA8_h",
   "name" : "unsigned char [8]",
   "referenced_type" : "_ZTIh",
   "self_type" : "_ZTIA8_h",
   "size" : 8,
   "source_file" : "/external/libnl/include/netlink-private/types.h"
  },
  {
   "alignment" : 4,
   "linker_set_key" : "_ZTIA8_j",
   "name" : "unsigned int [8]",
   "referenced_type" : "_ZTIj",
   "self_type" : "_ZTIA8_j",
   "size" : 32,
   "source_file" : "/external/libnl/include/netlink-private/types.h"
  },
  {
   "alignment" : 8,
   "linker_set_key" : "_ZTIA9_m",
   "name" : "unsigned long [9]",
   "referenced_type" : "_ZTIm",
   "self_type" : "_ZTIA9_m",
   "size" : 72,
   "source_file" : "/external/libnl/include/netlink-private/types.h"
  },
  {
   "linker_set_key" : "_ZTIA_10nl_msgtype",
   "name" : "nl_msgtype []",
   "referenced_type" : "_ZTI10nl_msgtype",
   "self_type" : "_ZTIA_10nl_msgtype",
   "source_file" : "/external/libnl/include/netlink-private/cache-api.h"
  },
  {
   "linker_set_key" : "_ZTIA_10nla_policy",
   "name" : "nla_policy []",
   "referenced_type" : "_ZTI10nla_policy",
   "self_type" : "_ZTIA_10nla_policy",
   "source_file" : "/external/libnl/include/netlink/route/link.h"
  }
 ],
 "builtin_types" :
 [
  {
   "alignment" : 1,
   "is_integral" : true,
   "linker_set_key" : "_ZTIa",
   "name" : "signed char",
   "referenced_type" : "_ZTIa",
   "self_type" : "_ZTIa",
   "size" : 1
  },
  {
   "alignment" : 1,
   "is_integral" : true,
   "is_unsigned" : true,
   "linker_set_key" : "_ZTIc",
   "name" : "char",
   "referenced_type" : "_ZTIc",
   "self_type" : "_ZTIc",
   "size" : 1
  },
  {
   "alignment" : 8,
   "linker_set_key" : "_ZTId",
   "name" : "double",
   "referenced_type" : "_ZTId",
   "self_type" : "_ZTId",
   "size" : 8
  },
  {
   "alignment" : 1,
   "is_integral" : true,
   "is_unsigned" : true,
   "linker_set_key" : "_ZTIh",
   "name" : "unsigned char",
   "referenced_type" : "_ZTIh",
   "self_type" : "_ZTIh",
   "size" : 1
  },
  {
   "alignment" : 4,
   "is_integral" : true,
   "linker_set_key" : "_ZTIi",
   "name" : "int",
   "referenced_type" : "_ZTIi",
   "self_type" : "_ZTIi",
   "size" : 4
  },
  {
   "alignment" : 4,
   "is_integral" : true,
   "is_unsigned" : true,
   "linker_set_key" : "_ZTIj",
   "name" : "unsigned int",
   "referenced_type" : "_ZTIj",
   "self_type" : "_ZTIj",
   "size" : 4
  },
  {
   "alignment" : 8,
   "is_integral" : true,
   "linker_set_key" : "_ZTIl",
   "name" : "long",
   "referenced_type" : "_ZTIl",
   "self_type" : "_ZTIl",
   "size" : 8
  },
  {
   "alignment" : 8,
   "is_integral" : true,
   "is_unsigned" : true,
   "linker_set_key" : "_ZTIm",
   "name" : "unsigned long",
   "referenced_type" : "_ZTIm",
   "self_type" : "_ZTIm",
   "size" : 8
  },
  {
   "alignment" : 2,
   "is_integral" : true,
   "linker_set_key" : "_ZTIs",
   "name" : "short",
   "referenced_type" : "_ZTIs",
   "self_type" : "_ZTIs",
   "size" : 2
  },
  {
   "alignment" : 2,
   "is_integral" : true,
   "is_unsigned" : true,
   "linker_set_key" : "_ZTIt",
   "name" : "unsigned short",
   "referenced_type" : "_ZTIt",
   "self_type" : "_ZTIt",
   "size" : 2
  },
  {
   "linker_set_key" : "_ZTIv",
   "name" : "void",
   "referenced_type" : "_ZTIv",
   "self_type" : "_ZTIv"
  },
  {
   "alignment" : 8,
   "is_integral" : true,
   "is_unsigned" : true,
   "linker_set_key" : "_ZTIy",
   "name" : "unsigned long long",
   "referenced_type" : "_ZTIy",
   "self_type" : "_ZTIy",
   "size" : 8
  }
 ],
 "elf_functions" :
 [
  {
   "name" : "__flags2str"
  },
  {
   "name" : "__list_str2type"
  },
  {
   "name" : "__list_type2str"
  },
  {
   "name" : "__nl_cache_mngt_require"
  },
  {
   "name" : "__nl_cache_ops_lookup"
  },
  {
   "name" : "__nl_read_num_str_file"
  },
  {
   "name" : "__str2flags"
  },
  {
   "name" : "__str2type"
  },
  {
   "name" : "__trans_list_add"
  },
  {
   "name" : "__trans_list_clear"
  },
  {
   "name" : "__type2str"
  },
  {
   "name" : "_nl_socket_generate_local_port_no_release"
  },
  {
   "name" : "_nl_socket_is_local_port_unspecified"
  },
  {
   "name" : "_nl_socket_used_ports_release_all"
  },
  {
   "name" : "_nl_socket_used_ports_set"
  },
  {
   "name" : "dump_from_ops"
  },
  {
   "name" : "flnl_lookup"
  },
  {
   "name" : "flnl_lookup_build_request"
  },
  {
   "name" : "flnl_request_alloc"
  },
  {
   "name" : "flnl_request_get_addr"
  },
  {
   "name" : "flnl_request_get_fwmark"
  },
  {
   "name" : "flnl_request_get_scope"
  },
  {
   "name" : "flnl_request_get_table"
  },
  {
   "name" : "flnl_request_get_tos"
  },
  {
   "name" : "flnl_request_set_addr"
  },
  {
   "name" : "flnl_request_set_fwmark"
  },
  {
   "name" : "flnl_request_set_scope"
  },
  {
   "name" : "flnl_request_set_table"
  },
  {
   "name" : "flnl_request_set_tos"
  },
  {
   "name" : "flnl_result_alloc"
  },
  {
   "name" : "flnl_result_alloc_cache"
  },
  {
   "name" : "flnl_result_get_error"
  },
  {
   "name" : "flnl_result_get_nexthop_sel"
  },
  {
   "name" : "flnl_result_get_prefixlen"
  },
  {
   "name" : "flnl_result_get_scope"
  },
  {
   "name" : "flnl_result_get_table_id"
  },
  {
   "name" : "flnl_result_get_type"
  },
  {
   "name" : "flnl_result_put"
  },
  {
   "name" : "genl_connect"
  },
  {
   "name" : "genl_ctrl_alloc_cache"
  },
  {
   "name" : "genl_ctrl_resolve"
  },
  {
   "name" : "genl_ctrl_resolve_grp"
  },
  {
   "name" : "genl_ctrl_search"
  },
  {
   "name" : "genl_ctrl_search_by_name"
  },
  {
   "name" : "genl_family_add_grp"
  },
  {
   "name" : "genl_family_add_op"
  },
  {
   "name" : "genl_family_alloc"
  },
  {
   "name" : "genl_family_get_hdrsize"
  },
  {
   "name" : "genl_family_get_id"
  },
  {
   "name" : "genl_family_get_maxattr"
  },
  {
   "name" : "genl_family_get_name"
  },
  {
   "name" : "genl_family_get_version"
  },
  {
   "name" : "genl_family_put"
  },
  {
   "name" : "genl_family_set_hdrsize"
  },
  {
   "name" : "genl_family_set_id"
  },
  {
   "name" : "genl_family_set_maxattr"
  },
  {
   "name" : "genl_family_set_name"
  },
  {
   "name" : "genl_family_set_version"
  },
  {
   "name" : "genl_handle_msg"
  },
  {
   "name" : "genl_mngt_resolve"
  },
  {
   "name" : "genl_op2name"
  },
  {
   "name" : "genl_ops_resolve"
  },
  {
   "name" : "genl_register"
  },
  {
   "name" : "genl_register_family"
  },
  {
   "name" : "genl_resolve_id"
  },
  {
   "name" : "genl_send_simple"
  },
  {
   "name" : "genl_unregister"
  },
  {
   "name" : "genl_unregister_family"
  },
  {
   "name" : "genlmsg_attrdata"
  },
  {
   "name" : "genlmsg_attrlen"
  },
  {
   "name" : "genlmsg_data"
  },
  {
   "name" : "genlmsg_hdr"
  },
  {
   "name" : "genlmsg_len"
  },
  {
   "name" : "genlmsg_parse"
  },
  {
   "name" : "genlmsg_put"
  },
  {
   "name" : "genlmsg_user_data"
  },
  {
   "name" : "genlmsg_user_datalen"
  },
  {
   "name" : "genlmsg_user_hdr"
  },
  {
   "name" : "genlmsg_valid_hdr"
  },
  {
   "name" : "genlmsg_validate"
  },
  {
   "name" : "nfnl_connect"
  },
  {
   "name" : "nfnl_send_simple"
  },
  {
   "name" : "nfnlmsg_alloc_simple"
  },
  {
   "name" : "nfnlmsg_family"
  },
  {
   "name" : "nfnlmsg_put"
  },
  {
   "name" : "nfnlmsg_res_id"
  },
  {
   "name" : "nfnlmsg_subsys"
  },
  {
   "name" : "nfnlmsg_subtype"
  },
  {
   "name" : "nl_addr2str"
  },
  {
   "name" : "nl_addr_alloc"
  },
  {
   "name" : "nl_addr_alloc_attr"
  },
  {
   "name" : "nl_addr_build"
  },
  {
   "name" : "nl_addr_clone"
  },
  {
   "name" : "nl_addr_cmp"
  },
  {
   "name" : "nl_addr_cmp_prefix"
  },
  {
   "name" : "nl_addr_fill_sockaddr"
  },
  {
   "name" : "nl_addr_get"
  },
  {
   "name" : "nl_addr_get_binary_addr"
  },
  {
   "name" : "nl_addr_get_family"
  },
  {
   "name" : "nl_addr_get_len"
  },
  {
   "name" : "nl_addr_get_prefixlen"
  },
  {
   "name" : "nl_addr_guess_family"
  },
  {
   "name" : "nl_addr_info"
  },
  {
   "name" : "nl_addr_iszero"
  },
  {
   "name" : "nl_addr_parse"
  },
  {
   "name" : "nl_addr_put"
  },
  {
   "name" : "nl_addr_resolve"
  },
  {
   "name" : "nl_addr_set_binary_addr"
  },
  {
   "name" : "nl_addr_set_family"
  },
  {
   "name" : "nl_addr_set_prefixlen"
  },
  {
   "name" : "nl_addr_shared"
  },
  {
   "name" : "nl_addr_valid"
  },
  {
   "name" : "nl_af2str"
  },
  {
   "name" : "nl_auto_complete"
  },
  {
   "name" : "nl_cache_add"
  },
  {
   "name" : "nl_cache_alloc"
  },
  {
   "name" : "nl_cache_alloc_and_fill"
  },
  {
   "name" : "nl_cache_alloc_name"
  },
  {
   "name" : "nl_cache_clear"
  },
  {
   "name" : "nl_cache_clone"
  },
  {
   "name" : "nl_cache_dump"
  },
  {
   "name" : "nl_cache_dump_filter"
  },
  {
   "name" : "nl_cache_find"
  },
  {
   "name" : "nl_cache_foreach"
  },
  {
   "name" : "nl_cache_foreach_filter"
  },
  {
   "name" : "nl_cache_free"
  },
  {
   "name" : "nl_cache_get"
  },
  {
   "name" : "nl_cache_get_first"
  },
  {
   "name" : "nl_cache_get_last"
  },
  {
   "name" : "nl_cache_get_next"
  },
  {
   "name" : "nl_cache_get_ops"
  },
  {
   "name" : "nl_cache_get_prev"
  },
  {
   "name" : "nl_cache_include"
  },
  {
   "name" : "nl_cache_is_empty"
  },
  {
   "name" : "nl_cache_mark_all"
  },
  {
   "name" : "nl_cache_mngr_add"
  },
  {
   "name" : "nl_cache_mngr_add_cache"
  },
  {
   "name" : "nl_cache_mngr_alloc"
  },
  {
   "name" : "nl_cache_mngr_data_ready"
  },
  {
   "name" : "nl_cache_mngr_free"
  },
  {
   "name" : "nl_cache_mngr_get_fd"
  },
  {
   "name" : "nl_cache_mngr_info"
  },
  {
   "name" : "nl_cache_mngr_poll"
  },
  {
   "name" : "nl_cache_mngt_provide"
  },
  {
   "name" : "nl_cache_mngt_register"
  },
  {
   "name" : "nl_cache_mngt_require"
  },
  {
   "name" : "nl_cache_mngt_require_safe"
  },
  {
   "name" : "nl_cache_mngt_unprovide"
  },
  {
   "name" : "nl_cache_mngt_unregister"
  },
  {
   "name" : "nl_cache_move"
  },
  {
   "name" : "nl_cache_nitems"
  },
  {
   "name" : "nl_cache_nitems_filter"
  },
  {
   "name" : "nl_cache_ops_associate"
  },
  {
   "name" : "nl_cache_ops_associate_safe"
  },
  {
   "name" : "nl_cache_ops_foreach"
  },
  {
   "name" : "nl_cache_ops_get"
  },
  {
   "name" : "nl_cache_ops_lookup"
  },
  {
   "name" : "nl_cache_ops_lookup_safe"
  },
  {
   "name" : "nl_cache_ops_put"
  },
  {
   "name" : "nl_cache_ops_set_flags"
  },
  {
   "name" : "nl_cache_parse"
  },
  {
   "name" : "nl_cache_parse_and_add"
  },
  {
   "name" : "nl_cache_pickup"
  },
  {
   "name" : "nl_cache_put"
  },
  {
   "name" : "nl_cache_refill"
  },
  {
   "name" : "nl_cache_remove"
  },
  {
   "name" : "nl_cache_resync"
  },
  {
   "name" : "nl_cache_search"
  },
  {
   "name" : "nl_cache_set_arg1"
  },
  {
   "name" : "nl_cache_set_arg2"
  },
  {
   "name" : "nl_cache_set_flags"
  },
  {
   "name" : "nl_cache_subset"
  },
  {
   "name" : "nl_cancel_down_bits"
  },
  {
   "name" : "nl_cancel_down_bytes"
  },
  {
   "name" : "nl_cancel_down_us"
  },
  {
   "name" : "nl_cb_active_type"
  },
  {
   "name" : "nl_cb_alloc"
  },
  {
   "name" : "nl_cb_clone"
  },
  {
   "name" : "nl_cb_err"
  },
  {
   "name" : "nl_cb_get"
  },
  {
   "name" : "nl_cb_overwrite_recv"
  },
  {
   "name" : "nl_cb_overwrite_recvmsgs"
  },
  {
   "name" : "nl_cb_overwrite_send"
  },
  {
   "name" : "nl_cb_put"
  },
  {
   "name" : "nl_cb_set"
  },
  {
   "name" : "nl_cb_set_all"
  },
  {
   "name" : "nl_close"
  },
  {
   "name" : "nl_complete_msg"
  },
  {
   "name" : "nl_connect"
  },
  {
   "name" : "nl_data_alloc"
  },
  {
   "name" : "nl_data_alloc_attr"
  },
  {
   "name" : "nl_data_append"
  },
  {
   "name" : "nl_data_clone"
  },
  {
   "name" : "nl_data_cmp"
  },
  {
   "name" : "nl_data_free"
  },
  {
   "name" : "nl_data_get"
  },
  {
   "name" : "nl_data_get_size"
  },
  {
   "name" : "nl_dump"
  },
  {
   "name" : "nl_dump_line"
  },
  {
   "name" : "nl_ether_proto2str"
  },
  {
   "name" : "nl_get_psched_hz"
  },
  {
   "name" : "nl_get_user_hz"
  },
  {
   "name" : "nl_geterror"
  },
  {
   "name" : "nl_has_capability"
  },
  {
   "name" : "nl_hash"
  },
  {
   "name" : "nl_hash_any"
  },
  {
   "name" : "nl_hash_table_add"
  },
  {
   "name" : "nl_hash_table_alloc"
  },
  {
   "name" : "nl_hash_table_del"
  },
  {
   "name" : "nl_hash_table_free"
  },
  {
   "name" : "nl_hash_table_lookup"
  },
  {
   "name" : "nl_ip_proto2str"
  },
  {
   "name" : "nl_join_groups"
  },
  {
   "name" : "nl_llproto2str"
  },
  {
   "name" : "nl_msec2str"
  },
  {
   "name" : "nl_msg_dump"
  },
  {
   "name" : "nl_msg_parse"
  },
  {
   "name" : "nl_msgtype_lookup"
  },
  {
   "name" : "nl_new_line"
  },
  {
   "name" : "nl_nlfamily2str"
  },
  {
   "name" : "nl_nlmsg_flags2str"
  },
  {
   "name" : "nl_nlmsgtype2str"
  },
  {
   "name" : "nl_object_alloc"
  },
  {
   "name" : "nl_object_alloc_name"
  },
  {
   "name" : "nl_object_attr_list"
  },
  {
   "name" : "nl_object_attrs2str"
  },
  {
   "name" : "nl_object_clone"
  },
  {
   "name" : "nl_object_diff"
  },
  {
   "name" : "nl_object_dump"
  },
  {
   "name" : "nl_object_dump_buf"
  },
  {
   "name" : "nl_object_free"
  },
  {
   "name" : "nl_object_get"
  },
  {
   "name" : "nl_object_get_cache"
  },
  {
   "name" : "nl_object_get_id_attrs"
  },
  {
   "name" : "nl_object_get_msgtype"
  },
  {
   "name" : "nl_object_get_ops"
  },
  {
   "name" : "nl_object_get_refcnt"
  },
  {
   "name" : "nl_object_get_type"
  },
  {
   "name" : "nl_object_identical"
  },
  {
   "name" : "nl_object_is_marked"
  },
  {
   "name" : "nl_object_keygen"
  },
  {
   "name" : "nl_object_mark"
  },
  {
   "name" : "nl_object_match_filter"
  },
  {
   "name" : "nl_object_put"
  },
  {
   "name" : "nl_object_shared"
  },
  {
   "name" : "nl_object_unmark"
  },
  {
   "name" : "nl_object_update"
  },
  {
   "name" : "nl_perror"
  },
  {
   "name" : "nl_pickup"
  },
  {
   "name" : "nl_prob2int"
  },
  {
   "name" : "nl_rate2str"
  },
  {
   "name" : "nl_recv"
  },
  {
   "name" : "nl_recvmsgs"
  },
  {
   "name" : "nl_recvmsgs_default"
  },
  {
   "name" : "nl_recvmsgs_report"
  },
  {
   "name" : "nl_rtgen_request"
  },
  {
   "name" : "nl_rtntype2str"
  },
  {
   "name" : "nl_send"
  },
  {
   "name" : "nl_send_auto"
  },
  {
   "name" : "nl_send_auto_complete"
  },
  {
   "name" : "nl_send_iovec"
  },
  {
   "name" : "nl_send_simple"
  },
  {
   "name" : "nl_send_sync"
  },
  {
   "name" : "nl_sendmsg"
  },
  {
   "name" : "nl_sendto"
  },
  {
   "name" : "nl_size2int"
  },
  {
   "name" : "nl_size2str"
  },
  {
   "name" : "nl_socket_add_membership"
  },
  {
   "name" : "nl_socket_add_memberships"
  },
  {
   "name" : "nl_socket_alloc"
  },
  {
   "name" : "nl_socket_alloc_cb"
  },
  {
   "name" : "nl_socket_disable_auto_ack"
  },
  {
   "name" : "nl_socket_disable_msg_peek"
  },
  {
   "name" : "nl_socket_disable_seq_check"
  },
  {
   "name" : "nl_socket_drop_membership"
  },
  {
   "name" : "nl_socket_drop_memberships"
  },
  {
   "name" : "nl_socket_enable_auto_ack"
  },
  {
   "name" : "nl_socket_enable_msg_peek"
  },
  {
   "name" : "nl_socket_free"
  },
  {
   "name" : "nl_socket_get_cb"
  },
  {
   "name" : "nl_socket_get_fd"
  },
  {
   "name" : "nl_socket_get_local_port"
  },
  {
   "name" : "nl_socket_get_msg_buf_size"
  },
  {
   "name" : "nl_socket_get_peer_groups"
  },
  {
   "name" : "nl_socket_get_peer_port"
  },
  {
   "name" : "nl_socket_modify_cb"
  },
  {
   "name" : "nl_socket_modify_err_cb"
  },
  {
   "name" : "nl_socket_recv_pktinfo"
  },
  {
   "name" : "nl_socket_set_buffer_size"
  },
  {
   "name" : "nl_socket_set_cb"
  },
  {
   "name" : "nl_socket_set_local_port"
  },
  {
   "name" : "nl_socket_set_msg_buf_size"
  },
  {
   "name" : "nl_socket_set_nonblocking"
  },
  {
   "name" : "nl_socket_set_passcred"
  },
  {
   "name" : "nl_socket_set_peer_groups"
  },
  {
   "name" : "nl_socket_set_peer_port"
  },
  {
   "name" : "nl_socket_use_seq"
  },
  {
   "name" : "nl_str2af"
  },
  {
   "name" : "nl_str2ether_proto"
  },
  {
   "name" : "nl_str2ip_proto"
  },
  {
   "name" : "nl_str2llproto"
  },
  {
   "name" : "nl_str2msec"
  },
  {
   "name" : "nl_str2nlfamily"
  },
  {
   "name" : "nl_str2nlmsgtype"
  },
  {
   "name" : "nl_str2rtntype"
  },
  {
   "name" : "nl_syserr2nlerr"
  },
  {
   "name" : "nl_ticks2us"
  },
  {
   "name" : "nl_us2ticks"
  },
  {
   "name" : "nl_wait_for_ack"
  },
  {
   "name" : "nla_attr_size"
  },
  {
   "name" : "nla_data"
  },
  {
   "name" : "nla_find"
  },
  {
   "name" : "nla_get_flag"
  },
  {
   "name" : "nla_get_msecs"
  },
  {
   "name" : "nla_get_string"
  },
  {
   "name" : "nla_get_u16"
  },
  {
   "name" : "nla_get_u32"
  },
  {
   "name" : "nla_get_u64"
  },
  {
   "name" : "nla_get_u8"
  },
  {
   "name" : "nla_is_nested"
  },
  {
   "name" : "nla_len"
  },
  {
   "name" : "nla_memcmp"
  },
  {
   "name" : "nla_memcpy"
  },
  {
   "name" : "nla_nest_cancel"
  },
  {
   "name" : "nla_nest_end"
  },
  {
   "name" : "nla_nest_start"
  },
  {
   "name" : "nla_next"
  },
  {
   "name" : "nla_ok"
  },
  {
   "name" : "nla_padlen"
  },
  {
   "name" : "nla_parse"
  },
  {
   "name" : "nla_parse_nested"
  },
  {
   "name" : "nla_put"
  },
  {
   "name" : "nla_put_addr"
  },
  {
   "name" : "nla_put_data"
  },
  {
   "name" : "nla_put_flag"
  },
  {
   "name" : "nla_put_msecs"
  },
  {
   "name" : "nla_put_nested"
  },
  {
   "name" : "nla_put_string"
  },
  {
   "name" : "nla_put_u16"
  },
  {
   "name" : "nla_put_u32"
  },
  {
   "name" : "nla_put_u64"
  },
  {
   "name" : "nla_put_u8"
  },
  {
   "name" : "nla_reserve"
  },
  {
   "name" : "nla_strcmp"
  },
  {
   "name" : "nla_strdup"
  },
  {
   "name" : "nla_strlcpy"
  },
  {
   "name" : "nla_total_size"
  },
  {
   "name" : "nla_type"
  },
  {
   "name" : "nla_validate"
  },
  {
   "name" : "nlmsg_alloc"
  },
  {
   "name" : "nlmsg_alloc_simple"
  },
  {
   "name" : "nlmsg_alloc_size"
  },
  {
   "name" : "nlmsg_append"
  },
  {
   "name" : "nlmsg_attrdata"
  },
  {
   "name" : "nlmsg_attrlen"
  },
  {
   "name" : "nlmsg_convert"
  },
  {
   "name" : "nlmsg_data"
  },
  {
   "name" : "nlmsg_datalen"
  },
  {
   "name" : "nlmsg_expand"
  },
  {
   "name" : "nlmsg_find_attr"
  },
  {
   "name" : "nlmsg_free"
  },
  {
   "name" : "nlmsg_get"
  },
  {
   "name" : "nlmsg_get_creds"
  },
  {
   "name" : "nlmsg_get_dst"
  },
  {
   "name" : "nlmsg_get_max_size"
  },
  {
   "name" : "nlmsg_get_proto"
  },
  {
   "name" : "nlmsg_get_src"
  },
  {
   "name" : "nlmsg_hdr"
  },
  {
   "name" : "nlmsg_inherit"
  },
  {
   "name" : "nlmsg_next"
  },
  {
   "name" : "nlmsg_ok"
  },
  {
   "name" : "nlmsg_padlen"
  },
  {
   "name" : "nlmsg_parse"
  },
  {
   "name" : "nlmsg_put"
  },
  {
   "name" : "nlmsg_reserve"
  },
  {
   "name" : "nlmsg_set_creds"
  },
  {
   "name" : "nlmsg_set_default_size"
  },
  {
   "name" : "nlmsg_set_dst"
  },
  {
   "name" : "nlmsg_set_proto"
  },
  {
   "name" : "nlmsg_set_src"
  },
  {
   "name" : "nlmsg_size"
  },
  {
   "name" : "nlmsg_tail"
  },
  {
   "name" : "nlmsg_total_size"
  },
  {
   "name" : "nlmsg_valid_hdr"
  },
  {
   "name" : "nlmsg_validate"
  },
  {
   "name" : "rtnl_realms2str"
  },
  {
   "name" : "rtnl_route_metric2str"
  },
  {
   "name" : "rtnl_route_proto2str"
  },
  {
   "name" : "rtnl_route_read_protocol_names"
  },
  {
   "name" : "rtnl_route_read_table_names"
  },
  {
   "name" : "rtnl_route_str2metric"
  },
  {
   "name" : "rtnl_route_str2proto"
  },
  {
   "name" : "rtnl_route_str2table"
  },
  {
   "name" : "rtnl_route_table2str"
  },
  {
   "name" : "rtnl_scope2str"
  },
  {
   "name" : "rtnl_str2scope"
  }
 ],
 "elf_objects" :
 [
  {
   "name" : "genl_family_ops"
  },
  {
   "name" : "nl_debug"
  },
  {
   "name" : "nl_ver_maj"
  },
  {
   "name" : "nl_ver_mic"
  },
  {
   "name" : "nl_ver_min"
  },
  {
   "name" : "nl_ver_num"
  }
 ],
 "enum_types" :
 [
  {
   "alignment" : 4,
   "enum_fields" :
   [
    {
     "enum_field_value" : 0,
     "name" : "NL_CB_DEFAULT"
    },
    {
     "enum_field_value" : 1,
     "name" : "NL_CB_VERBOSE"
    },
    {
     "enum_field_value" : 2,
     "name" : "NL_CB_DEBUG"
    },
    {
     "enum_field_value" : 3,
     "name" : "NL_CB_CUSTOM"
    },
    {
     "enum_field_value" : 4,
     "name" : "__NL_CB_KIND_MAX"
    }
   ],
   "linker_set_key" : "_ZTI10nl_cb_kind",
   "name" : "nl_cb_kind",
   "referenced_type" : "_ZTI10nl_cb_kind",
   "self_type" : "_ZTI10nl_cb_kind",
   "size" : 4,
   "source_file" : "/external/libnl/include/netlink/handlers.h",
   "underlying_type" : "_ZTIj"
  },
  {
   "alignment" : 4,
   "enum_fields" :
   [
    {
     "enum_field_value" : 0,
     "name" : "NL_CB_VALID"
    },
    {
     "enum_field_value" : 1,
     "name" : "NL_CB_FINISH"
    },
    {
     "enum_field_value" : 2,
     "name" : "NL_CB_OVERRUN"
    },
    {
     "enum_field_value" : 3,
     "name" : "NL_CB_SKIPPED"
    },
    {
     "enum_field_value" : 4,
     "name" : "NL_CB_ACK"
    },
    {
     "enum_field_value" : 5,
     "name" : "NL_CB_MSG_IN"
    },
    {
     "enum_field_value" : 6,
     "name" : "NL_CB_MSG_OUT"
    },
    {
     "enum_field_value" : 7,
     "name" : "NL_CB_INVALID"
    },
    {
     "enum_field_value" : 8,
     "name" : "NL_CB_SEQ_CHECK"
    },
    {
     "enum_field_value" : 9,
     "name" : "NL_CB_SEND_ACK"
    },
    {
     "enum_field_value" : 10,
     "name" : "NL_CB_DUMP_INTR"
    },
    {
     "enum_field_value" : 11,
     "name" : "__NL_CB_TYPE_MAX"
    }
   ],
   "linker_set_key" : "_ZTI10nl_cb_type",
   "name" : "nl_cb_type",
   "referenced_type" : "_ZTI10nl_cb_type",
   "self_type" : "_ZTI10nl_cb_type",
   "size" : 4,
   "source_file" : "/external/libnl/include/netlink/handlers.h",
   "underlying_type" : "_ZTIj"
  },
  {
   "alignment" : 4,
   "enum_fields" :
   [
    {
     "enum_field_value" : 0,
     "name" : "RT_TABLE_UNSPEC"
    },
    {
     "enum_field_value" : 252,
     "name" : "RT_TABLE_COMPAT"
    },
    {
     "enum_field_value" : 253,
     "name" : "RT_TABLE_DEFAULT"
    },
    {
     "enum_field_value" : 254,
     "name" : "RT_TABLE_MAIN"
    },
    {
     "enum_field_value" : 255,
     "name" : "RT_TABLE_LOCAL"
    },
    {
     "enum_field_value" : -1,
     "name" : "RT_TABLE_MAX"
    }
   ],
   "linker_set_key" : "_ZTI10rt_class_t",
   "name" : "rt_class_t",
   "referenced_type" : "_ZTI10rt_class_t",
   "self_type" : "_ZTI10rt_class_t",
   "size" : 4,
   "source_file" : "/external/libnl/include/linux-private/linux/rtnetlink.h",
   "underlying_type" : "_ZTIj"
  },
  {
   "alignment" : 4,
   "enum_fields" :
   [
    {
     "enum_field_value" : 0,
     "name" : "RT_SCOPE_UNIVERSE"
    },
    {
     "enum_field_value" : 200,
     "name" : "RT_SCOPE_SITE"
    },
    {
     "enum_field_value" : 253,
     "name" : "RT_SCOPE_LINK"
    },
    {
     "enum_field_value" : 254,
     "name" : "RT_SCOPE_HOST"
    },
    {
     "enum_field_value" : 255,
     "name" : "RT_SCOPE_NOWHERE"
    }
   ],
   "linker_set_key" : "_ZTI10rt_scope_t",
   "name" : "rt_scope_t",
   "referenced_type" : "_ZTI10rt_scope_t",
   "self_type" : "_ZTI10rt_scope_t",
   "size" : 4,
   "source_file" : "/external/libnl/include/linux-private/linux/rtnetlink.h",
   "underlying_type" : "_ZTIj"
  },
  {
   "alignment" : 4,
   "enum_fields" :
   [
    {
     "enum_field_value" : 0,
     "name" : "TCA_FW_UNSPEC"
    },
    {
     "enum_field_value" : 1,
     "name" : "TCA_FW_CLASSID"
    },
    {
     "enum_field_value" : 2,
     "name" : "TCA_FW_POLICE"
    },
    {
     "enum_field_value" : 3,
     "name" : "TCA_FW_INDEV"
    },
    {
     "enum_field_value" : 4,
     "name" : "TCA_FW_ACT"
    },
    {
     "enum_field_value" : 5,
     "name" : "TCA_FW_MASK"
    },
    {
     "enum_field_value" : 6,
     "name" : "__TCA_FW_MAX"
    }
   ],
   "linker_set_key" : "_ZTI11$TCA_FW_ACT",
   "name" : "(anonymous enum at external/libnl/include/linux-private/linux/pkt_cls.h:287:1)",
   "referenced_type" : "_ZTI11$TCA_FW_ACT",
   "self_type" : "_ZTI11$TCA_FW_ACT",
   "size" : 4,
   "source_file" : "/external/libnl/include/linux-private/linux/pkt_cls.h",
   "underlying_type" : "_ZTIj"
  },
  {
   "alignment" : 4,
   "enum_fields" :
   [
    {
     "enum_field_value" : 0,
     "name" : "IFA_UNSPEC"
    },
    {
     "enum_field_value" : 1,
     "name" : "IFA_ADDRESS"
    },
    {
     "enum_field_value" : 2,
     "name" : "IFA_LOCAL"
    },
    {
     "enum_field_value" : 3,
     "name" : "IFA_LABEL"
    },
    {
     "enum_field_value" : 4,
     "name" : "IFA_BROADCAST"
    },
    {
     "enum_field_value" : 5,
     "name" : "IFA_ANYCAST"
    },
    {
     "enum_field_value" : 6,
     "name" : "IFA_CACHEINFO"
    },
    {
     "enum_field_value" : 7,
     "name" : "IFA_MULTICAST"
    },
    {
     "enum_field_value" : 8,
     "name" : "IFA_FLAGS"
    },
    {
     "enum_field_value" : 9,
     "name" : "__IFA_MAX"
    }
   ],
   "linker_set_key" : "_ZTI12$IFA_ADDRESS",
   "name" : "(anonymous enum at external/libnl/include/linux-private/linux/if_addr.h:25:1)",
   "referenced_type" : "_ZTI12$IFA_ADDRESS",
   "self_type" : "_ZTI12$IFA_ADDRESS",
   "size" : 4,
   "source_file" : "/external/libnl/include/linux-private/linux/if_addr.h",
   "underlying_type" : "_ZTIj"
  },
  {
   "alignment" : 4,
   "enum_fields" :
   [
    {
     "enum_field_value" : 0,
     "name" : "IFLA_VF_UNSPEC"
    },
    {
     "enum_field_value" : 1,
     "name" : "IFLA_VF_MAC"
    },
    {
     "enum_field_value" : 2,
     "name" : "IFLA_VF_VLAN"
    },
    {
     "enum_field_value" : 3,
     "name" : "IFLA_VF_TX_RATE"
    },
    {
     "enum_field_value" : 4,
     "name" : "IFLA_VF_SPOOFCHK"
    },
    {
     "enum_field_value" : 5,
     "name" : "__IFLA_VF_MAX"
    }
   ],
   "linker_set_key" : "_ZTI12$IFLA_VF_MAC",
   "name" : "(anonymous enum at external/libnl/include/linux-private/linux/if_link.h:334:1)",
   "referenced_type" : "_ZTI12$IFLA_VF_MAC",
   "self_type" : "_ZTI12$IFLA_VF_MAC",
   "size" : 4,
   "source_file" : "/external/libnl/include/linux-private/linux/if_link.h",
   "underlying_type" : "_ZTIj"
  },
  {
   "alignment" : 4,
   "enum_fields" :
   [
    {
     "enum_field_value" : 0,
     "name" : "NDTA_UNSPEC"
    },
    {
     "enum_field_value" : 1,
     "name" : "NDTA_NAME"
    },
    {
     "enum_field_value" : 2,
     "name" : "NDTA_THRESH1"
    },
    {
     "enum_field_value" : 3,
     "name" : "NDTA_THRESH2"
    },
    {
     "enum_field_value" : 4,
     "name" : "NDTA_THRESH3"
    },
    {
     "enum_field_value" : 5,
     "name" : "NDTA_CONFIG"
    },
    {
     "enum_field_value" : 6,
     "name" : "NDTA_PARMS"
    },
    {
     "enum_field_value" : 7,
     "name" : "NDTA_STATS"
    },
    {
     "enum_field_value" : 8,
     "name" : "NDTA_GC_INTERVAL"
    },
    {
     "enum_field_value" : 9,
     "name" : "__NDTA_MAX"
    }
   ],
   "linker_set_key" : "_ZTI12$NDTA_CONFIG",
   "name" : "(anonymous enum at external/libnl/include/linux-private/linux/neighbour.h:141:1)",
   "referenced_type" : "_ZTI12$NDTA_CONFIG",
   "self_type" : "_ZTI12$NDTA_CONFIG",
   "size" : 4,
   "source_file" : "/external/libnl/include/linux-private/linux/neighbour.h",
   "underlying_type" : "_ZTIj"
  },
  {
   "alignment" : 4,
   "enum_fields" :
   [
    {
     "enum_field_value" : 0,
     "name" : "NL_BYTE_RATE"
    },
    {
     "enum_field_value" : 1,
     "name" : "NL_BIT_RATE"
    }
   ],
   "linker_set_key" : "_ZTI12$NL_BIT_RATE",
   "name" : "(anonymous enum at external/libnl/include/netlink/utils.h:41:1)",
   "referenced_type" : "_ZTI12$NL_BIT_RATE",
   "self_type" : "_ZTI12$NL_BIT_RATE",
   "size" : 4,
   "source_file" : "/external/libnl/include/netlink/utils.h",
   "underlying_type" : "_ZTIj"
  },
  {
   "alignment" : 4,
   "enum_fields" :
   [
    {
     "enum_field_value" : 0,
     "name" : "RTAX_UNSPEC"
    },
    {
     "enum_field_value" : 1,
     "name" : "RTAX_LOCK"
    },
    {
     "enum_field_value" : 2,
     "name" : "RTAX_MTU"
    },
    {
     "enum_field_value" : 3,
     "name" : "RTAX_WINDOW"
    },
    {
     "enum_field_value" : 4,
     "name" : "RTAX_RTT"
    },
    {
     "enum_field_value" : 5,
     "name" : "RTAX_RTTVAR"
    },
    {
     "enum_field_value" : 6,
     "name" : "RTAX_SSTHRESH"
    },
    {
     "enum_field_value" : 7,
     "name" : "RTAX_CWND"
    },
    {
     "enum_field_value" : 8,
     "name" : "RTAX_ADVMSS"
    },
    {
     "enum_field_value" : 9,
     "name" : "RTAX_REORDERING"
    },
    {
     "enum_field_value" : 10,
     "name" : "RTAX_HOPLIMIT"
    },
    {
     "enum_field_value" : 11,
     "name" : "RTAX_INITCWND"
    },
    {
     "enum_field_value" : 12,
     "name" : "RTAX_FEATURES"
    },
    {
     "enum_field_value" : 13,
     "name" : "RTAX_RTO_MIN"
    },
    {
     "enum_field_value" : 14,
     "name" : "RTAX_INITRWND"
    },
    {
     "enum_field_value" : 15,
     "name" : "__RTAX_MAX"
    }
   ],
   "linker_set_key" : "_ZTI12$RTAX_ADVMSS",
   "name" : "(anonymous enum at external/libnl/include/linux-private/linux/rtnetlink.h:344:1)",
   "referenced_type" : "_ZTI12$RTAX_ADVMSS",
   "self_type" : "_ZTI12$RTAX_ADVMSS",
   "size" : 4,
   "source_file" : "/external/libnl/include/linux-private/linux/rtnetlink.h",
   "underlying_type" : "_ZTIj"
  },
  {
   "alignment" : 4,
   "enum_fields" :
   [
    {
     "enum_field_value" : 0,
     "name" : "RTN_UNSPEC"
    },
    {
     "enum_field_value" : 1,
     "name" : "RTN_UNICAST"
    },
    {
     "enum_field_value" : 2,
     "name" : "RTN_LOCAL"
    },
    {
     "enum_field_value" : 3,
     "name" : "RTN_BROADCAST"
    },
    {
     "enum_field_value" : 4,
     "name" : "RTN_ANYCAST"
    },
    {
     "enum_field_value" : 5,
     "name" : "RTN_MULTICAST"
    },
    {
     "enum_field_value" : 6,
     "name" : "RTN_BLACKHOLE"
    },
    {
     "enum_field_value" : 7,
     "name" : "RTN_UNREACHABLE"
    },
    {
     "enum_field_value" : 8,
     "name" : "RTN_PROHIBIT"
    },
    {
     "enum_field_value" : 9,
     "name" : "RTN_THROW"
    },
    {
     "enum_field_value" : 10,
     "name" : "RTN_NAT"
    },
    {
     "enum_field_value" : 11,
     "name" : "RTN_XRESOLVE"
    },
    {
     "enum_field_value" : 12,
     "name" : "__RTN_MAX"
    }
   ],
   "linker_set_key" : "_ZTI12$RTN_ANYCAST",
   "name" : "(anonymous enum at external/libnl/include/linux-private/linux/rtnetlink.h:179:1)",
   "referenced_type" : "_ZTI12$RTN_ANYCAST",
   "self_type" : "_ZTI12$RTN_ANYCAST",
   "size" : 4,
   "source_file" : "/external/libnl/include/linux-private/linux/rtnetlink.h",
   "underlying_type" : "_ZTIj"
  },
  {
   "alignment" : 4,
   "enum_fields" :
   [
    {
     "enum_field_value" : 0,
     "name" : "TCA_U32_UNSPEC"
    },
    {
     "enum_field_value" : 1,
     "name" : "TCA_U32_CLASSID"
    },
    {
     "enum_field_value" : 2,
     "name" : "TCA_U32_HASH"
    },
    {
     "enum_field_value" : 3,
     "name" : "TCA_U32_LINK"
    },
    {
     "enum_field_value" : 4,
     "name" : "TCA_U32_DIVISOR"
    },
    {
     "enum_field_value" : 5,
     "name" : "TCA_U32_SEL"
    },
    {
     "enum_field_value" : 6,
     "name" : "TCA_U32_POLICE"
    },
    {
     "enum_field_value" : 7,
     "name" : "TCA_U32_ACT"
    },
    {
     "enum_field_value" : 8,
     "name" : "TCA_U32_INDEV"
    },
    {
     "enum_field_value" : 9,
     "name" : "TCA_U32_PCNT"
    },
    {
     "enum_field_value" : 10,
     "name" : "TCA_U32_MARK"
    },
    {
     "enum_field_value" : 11,
     "name" : "__TCA_U32_MAX"
    }
   ],
   "linker_set_key" : "_ZTI12$TCA_U32_ACT",
   "name" : "(anonymous enum at external/libnl/include/linux-private/linux/pkt_cls.h:179:1)",
   "referenced_type" : "_ZTI12$TCA_U32_ACT",
   "self_type" : "_ZTI12$TCA_U32_ACT",
   "size" : 4,
   "source_file" : "/external/libnl/include/linux-private/linux/pkt_cls.h",
   "underlying_type" : "_ZTIj"
  },
  {
   "alignment" : 4,
   "enum_fields" :
   [
    {
     "enum_field_value" : 1,
     "name" : "MACVLAN_MODE_PRIVATE"
    },
    {
     "enum_field_value" : 2,
     "name" : "MACVLAN_MODE_VEPA"
    },
    {
     "enum_field_value" : 4,
     "name" : "MACVLAN_MODE_BRIDGE"
    },
    {
     "enum_field_value" : 8,
     "name" : "MACVLAN_MODE_PASSTHRU"
    }
   ],
   "linker_set_key" : "_ZTI12macvlan_mode",
   "name" : "macvlan_mode",
   "referenced_type" : "_ZTI12macvlan_mode",
   "self_type" : "_ZTI12macvlan_mode",
   "size" : 4,
   "source_file" : "/external/libnl/include/linux-private/linux/if_link.h",
   "underlying_type" : "_ZTIj"
  },
  {
   "alignment" : 4,
   "enum_fields" :
   [
    {
     "enum_field_value" : 0,
     "name" : "NL_OK"
    },
    {
     "enum_field_value" : 1,
     "name" : "NL_SKIP"
    },
    {
     "enum_field_value" : 2,
     "name" : "NL_STOP"
    }
   ],
   "linker_set_key" : "_ZTI12nl_cb_action",
   "name" : "nl_cb_action",
   "referenced_type" : "_ZTI12nl_cb_action",
   "self_type" : "_ZTI12nl_cb_action",
   "size" : 4,
   "source_file" : "/external/libnl/include/netlink/handlers.h",
   "underlying_type" : "_ZTIj"
  },
  {
   "alignment" : 4,
   "enum_fields" :
   [
    {
     "enum_field_value" : 0,
     "name" : "NL_DUMP_LINE"
    },
    {
     "enum_field_value" : 1,
     "name" : "NL_DUMP_DETAILS"
    },
    {
     "enum_field_value" : 2,
     "name" : "NL_DUMP_STATS"
    },
    {
     "enum_field_value" : 3,
     "name" : "__NL_DUMP_MAX"
    }
   ],
   "linker_set_key" : "_ZTI12nl_dump_type",
   "name" : "nl_dump_type",
   "referenced_type" : "_ZTI12nl_dump_type",
   "self_type" : "_ZTI12nl_dump_type",
   "size" : 4,
   "source_file" : "/external/libnl/include/netlink/types.h",
   "underlying_type" : "_ZTIj"
  },
  {
   "alignment" : 4,
   "enum_fields" :
   [
    {
     "enum_field_value" : 0,
     "name" : "RTNL_TC_PACKETS"
    },
    {
     "enum_field_value" : 1,
     "name" : "RTNL_TC_BYTES"
    },
    {
     "enum_field_value" : 2,
     "name" : "RTNL_TC_RATE_BPS"
    },
    {
     "enum_field_value" : 3,
     "name" : "RTNL_TC_RATE_PPS"
    },
    {
     "enum_field_value" : 4,
     "name" : "RTNL_TC_QLEN"
    },
    {
     "enum_field_value" : 5,
     "name" : "RTNL_TC_BACKLOG"
    },
    {
     "enum_field_value" : 6,
     "name" : "RTNL_TC_DROPS"
    },
    {
     "enum_field_value" : 7,
     "name" : "RTNL_TC_REQUEUES"
    },
    {
     "enum_field_value" : 8,
     "name" : "RTNL_TC_OVERLIMITS"
    },
    {
     "enum_field_value" : 9,
     "name" : "__RTNL_TC_STATS_MAX"
    }
   ],
   "linker_set_key" : "_ZTI12rtnl_tc_stat",
   "name" : "rtnl_tc_stat",
   "referenced_type" : "_ZTI12rtnl_tc_stat",
   "self_type" : "_ZTI12rtnl_tc_stat",
   "size" : 4,
   "source_file" : "/external/libnl/include/netlink/route/tc.h",
   "underlying_type" : "_ZTIj"
  },
  {
   "alignment" : 4,
   "enum_fields" :
   [
    {
     "enum_field_value" : 0,
     "name" : "RTNL_TC_TYPE_QDISC"
    },
    {
     "enum_field_value" : 1,
     "name" : "RTNL_TC_TYPE_CLASS"
    },
    {
     "enum_field_value" : 2,
     "name" : "RTNL_TC_TYPE_CLS"
    },
    {
     "enum_field_value" : 3,
     "name" : "RTNL_TC_TYPE_ACT"
    },
    {
     "enum_field_value" : 4,
     "name" : "__RTNL_TC_TYPE_MAX"
    }
   ],
   "linker_set_key" : "_ZTI12rtnl_tc_type",
   "name" : "rtnl_tc_type",
   "referenced_type" : "_ZTI12rtnl_tc_type",
   "self_type" : "_ZTI12rtnl_tc_type",
   "size" : 4,
   "source_file" : "/external/libnl/include/netlink/route/tc.h",
   "underlying_type" : "_ZTIj"
  },
  {
   "alignment" : 4,
   "enum_fields" :
   [
    {
     "enum_field_value" : 0,
     "name" : "FLOW_KEY_SRC"
    },
    {
     "enum_field_value" : 1,
     "name" : "FLOW_KEY_DST"
    },
    {
     "enum_field_value" : 2,
     "name" : "FLOW_KEY_PROTO"
    },
    {
     "enum_field_value" : 3,
     "name" : "FLOW_KEY_PROTO_SRC"
    },
    {
     "enum_field_value" : 4,
     "name" : "FLOW_KEY_PROTO_DST"
    },
    {
     "enum_field_value" : 5,
     "name" : "FLOW_KEY_IIF"
    },
    {
     "enum_field_value" : 6,
     "name" : "FLOW_KEY_PRIORITY"
    },
    {
     "enum_field_value" : 7,
     "name" : "FLOW_KEY_MARK"
    },
    {
     "enum_field_value" : 8,
     "name" : "FLOW_KEY_NFCT"
    },
    {
     "enum_field_value" : 9,
     "name" : "FLOW_KEY_NFCT_SRC"
    },
    {
     "enum_field_value" : 10,
     "name" : "FLOW_KEY_NFCT_DST"
    },
    {
     "enum_field_value" : 11,
     "name" : "FLOW_KEY_NFCT_PROTO_SRC"
    },
    {
     "enum_field_value" : 12,
     "name" : "FLOW_KEY_NFCT_PROTO_DST"
    },
    {
     "enum_field_value" : 13,
     "name" : "FLOW_KEY_RTCLASSID"
    },
    {
     "enum_field_value" : 14,
     "name" : "FLOW_KEY_SKUID"
    },
    {
     "enum_field_value" : 15,
     "name" : "FLOW_KEY_SKGID"
    },
    {
     "enum_field_value" : 16,
     "name" : "FLOW_KEY_VLAN_TAG"
    },
    {
     "enum_field_value" : 17,
     "name" : "FLOW_KEY_RXHASH"
    },
    {
     "enum_field_value" : 18,
     "name" : "__FLOW_KEY_MAX"
    }
   ],
   "linker_set_key" : "_ZTI13$FLOW_KEY_DST",
   "name" : "(anonymous enum at external/libnl/include/linux-private/linux/pkt_cls.h:317:1)",
   "referenced_type" : "_ZTI13$FLOW_KEY_DST",
   "self_type" : "_ZTI13$FLOW_KEY_DST",
   "size" : 4,
   "source_file" : "/external/libnl/include/linux-private/linux/pkt_cls.h",
   "underlying_type" : "_ZTIj"
  },
  {
   "alignment" : 4,
   "enum_fields" :
   [
    {
     "enum_field_value" : 0,
     "name" : "IFLA_UNSPEC"
    },
    {
     "enum_field_value" : 1,
     "name" : "IFLA_ADDRESS"
    },
    {
     "enum_field_value" : 2,
     "name" : "IFLA_BROADCAST"
    },
    {
     "enum_field_value" : 3,
     "name" : "IFLA_IFNAME"
    },
    {
     "enum_field_value" : 4,
     "name" : "IFLA_MTU"
    },
    {
     "enum_field_value" : 5,
     "name" : "IFLA_LINK"
    },
    {
     "enum_field_value" : 6,
     "name" : "IFLA_QDISC"
    },
    {
     "enum_field_value" : 7,
     "name" : "IFLA_STATS"
    },
    {
     "enum_field_value" : 8,
     "name" : "IFLA_COST"
    },
    {
     "enum_field_value" : 9,
     "name" : "IFLA_PRIORITY"
    },
    {
     "enum_field_value" : 10,
     "name" : "IFLA_MASTER"
    },
    {
     "enum_field_value" : 11,
     "name" : "IFLA_WIRELESS"
    },
    {
     "enum_field_value" : 12,
     "name" : "IFLA_PROTINFO"
    },
    {
     "enum_field_value" : 13,
     "name" : "IFLA_TXQLEN"
    },
    {
     "enum_field_value" : 14,
     "name" : "IFLA_MAP"
    },
    {
     "enum_field_value" : 15,
     "name" : "IFLA_WEIGHT"
    },
    {
     "enum_field_value" : 16,
     "name" : "IFLA_OPERSTATE"
    },
    {
     "enum_field_value" : 17,
     "name" : "IFLA_LINKMODE"
    },
    {
     "enum_field_value" : 18,
     "name" : "IFLA_LINKINFO"
    },
    {
     "enum_field_value" : 19,
     "name" : "IFLA_NET_NS_PID"
    },
    {
     "enum_field_value" : 20,
     "name" : "IFLA_IFALIAS"
    },
    {
     "enum_field_value" : 21,
     "name" : "IFLA_NUM_VF"
    },
    {
     "enum_field_value" : 22,
     "name" : "IFLA_VFINFO_LIST"
    },
    {
     "enum_field_value" : 23,
     "name" : "IFLA_STATS64"
    },
    {
     "enum_field_value" : 24,
     "name" : "IFLA_VF_PORTS"
    },
    {
     "enum_field_value" : 25,
     "name" : "IFLA_PORT_SELF"
    },
    {
     "enum_field_value" : 26,
     "name" : "IFLA_AF_SPEC"
    },
    {
     "enum_field_value" : 27,
     "name" : "IFLA_GROUP"
    },
    {
     "enum_field_value" : 28,
     "name" : "IFLA_NET_NS_FD"
    },
    {
     "enum_field_value" : 29,
     "name" : "IFLA_EXT_MASK"
    },
    {
     "enum_field_value" : 30,
     "name" : "IFLA_PROMISCUITY"
    },
    {
     "enum_field_value" : 31,
     "name" : "IFLA_NUM_TX_QUEUES"
    },
    {
     "enum_field_value" : 32,
     "name" : "IFLA_NUM_RX_QUEUES"
    },
    {
     "enum_field_value" : 33,
     "name" : "IFLA_CARRIER"
    },
    {
     "enum_field_value" : 34,
     "name" : "IFLA_PHYS_PORT_ID"
    },
    {
     "enum_field_value" : 35,
     "name" : "__IFLA_MAX"
    }
   ],
   "linker_set_key" : "_ZTI13$IFLA_ADDRESS",
   "name" : "(anonymous enum at external/libnl/include/linux-private/linux/if_link.h:101:1)",
   "referenced_type" : "_ZTI13$IFLA_ADDRESS",
   "self_type" : "_ZTI13$IFLA_ADDRESS",
   "size" : 4,
   "source_file" : "/external/libnl/include/linux-private/linux/if_link.h",
   "underlying_type" : "_ZTIj"
  },
  {
   "alignment" : 4,
   "enum_fields" :
   [
    {
     "enum_field_value" : 0,
     "name" : "IFLA_VF_INFO_UNSPEC"
    },
    {
     "enum_field_value" : 1,
     "name" : "IFLA_VF_INFO"
    },
    {
     "enum_field_value" : 2,
     "name" : "__IFLA_VF_INFO_MAX"
    }
   ],
   "linker_set_key" : "_ZTI13$IFLA_VF_INFO",
   "name" : "(anonymous enum at external/libnl/include/linux-private/linux/if_link.h:326:1)",
   "referenced_type" : "_ZTI13$IFLA_VF_INFO",
   "self_type" : "_ZTI13$IFLA_VF_INFO",
   "size" : 4,
   "source_file" : "/external/libnl/include/linux-private/linux/if_link.h",
   "underlying_type" : "_ZTIj"
  },
  {
   "alignment" : 4,
   "enum_fields" :
   [
    {
     "enum_field_value" : 0,
     "name" : "IFLA_VF_PORT_UNSPEC"
    },
    {
     "enum_field_value" : 1,
     "name" : "IFLA_VF_PORT"
    },
    {
     "enum_field_value" : 2,
     "name" : "__IFLA_VF_PORT_MAX"
    }
   ],
   "linker_set_key" : "_ZTI13$IFLA_VF_PORT",
   "name" : "(anonymous enum at external/libnl/include/linux-private/linux/if_link.h:381:1)",
   "referenced_type" : "_ZTI13$IFLA_VF_PORT",
   "self_type" : "_ZTI13$IFLA_VF_PORT",
   "size" : 4,
   "source_file" : "/external/libnl/include/linux-private/linux/if_link.h",
   "underlying_type" : "_ZTIj"
  },
  {
   "alignment" : 4,
   "enum_fields" :
   [
    {
     "enum_field_value" : 0,
     "name" : "TCA_ATM_UNSPEC"
    },
    {
     "enum_field_value" : 1,
     "name" : "TCA_ATM_FD"
    },
    {
     "enum_field_value" : 2,
     "name" : "TCA_ATM_PTR"
    },
    {
     "enum_field_value" : 3,
     "name" : "TCA_ATM_HDR"
    },
    {
     "enum_field_value" : 4,
     "name" : "TCA_ATM_EXCESS"
    },
    {
     "enum_field_value" : 5,
     "name" : "TCA_ATM_ADDR"
    },
    {
     "enum_field_value" : 6,
     "name" : "TCA_ATM_STATE"
    },
    {
     "enum_field_value" : 7,
     "name" : "__TCA_ATM_MAX"
    }
   ],
   "linker_set_key" : "_ZTI13$TCA_ATM_ADDR",
   "name" : "(anonymous enum at external/libnl/include/linux-private/linux/pkt_sched.h:482:1)",
   "referenced_type" : "_ZTI13$TCA_ATM_ADDR",
   "self_type" : "_ZTI13$TCA_ATM_ADDR",
   "size" : 4,
   "source_file" : "/external/libnl/include/linux-private/linux/pkt_sched.h",
   "underlying_type" : "_ZTIj"
  },
  {
   "alignment" : 4,
   "enum_fields" :
   [
    {
     "enum_field_value" : 0,
     "name" : "TCA_CBQ_UNSPEC"
    },
    {
     "enum_field_value" : 1,
     "name" : "TCA_CBQ_LSSOPT"
    },
    {
     "enum_field_value" : 2,
     "name" : "TCA_CBQ_WRROPT"
    },
    {
     "enum_field_value" : 3,
     "name" : "TCA_CBQ_FOPT"
    },
    {
     "enum_field_value" : 4,
     "name" : "TCA_CBQ_OVL_STRATEGY"
    },
    {
     "enum_field_value" : 5,
     "name" : "TCA_CBQ_RATE"
    },
    {
     "enum_field_value" : 6,
     "name" : "TCA_CBQ_RTAB"
    },
    {
     "enum_field_value" : 7,
     "name" : "TCA_CBQ_POLICE"
    },
    {
     "enum_field_value" : 8,
     "name" : "__TCA_CBQ_MAX"
    }
   ],
   "linker_set_key" : "_ZTI13$TCA_CBQ_FOPT",
   "name" : "(anonymous enum at external/libnl/include/linux-private/linux/pkt_sched.h:437:1)",
   "referenced_type" : "_ZTI13$TCA_CBQ_FOPT",
   "self_type" : "_ZTI13$TCA_CBQ_FOPT",
   "size" : 4,
   "source_file" : "/external/libnl/include/linux-private/linux/pkt_sched.h",
   "underlying_type" : "_ZTIj"
  },
  {
   "alignment" : 4,
   "enum_fields" :
   [
    {
     "enum_field_value" : 0,
     "name" : "TCA_FLOW_UNSPEC"
    },
    {
     "enum_field_value" : 1,
     "name" : "TCA_FLOW_KEYS"
    },
    {
     "enum_field_value" : 2,
     "name" : "TCA_FLOW_MODE"
    },
    {
     "enum_field_value" : 3,
     "name" : "TCA_FLOW_BASECLASS"
    },
    {
     "enum_field_value" : 4,
     "name" : "TCA_FLOW_RSHIFT"
    },
    {
     "enum_field_value" : 5,
     "name" : "TCA_FLOW_ADDEND"
    },
    {
     "enum_field_value" : 6,
     "name" : "TCA_FLOW_MASK"
    },
    {
     "enum_field_value" : 7,
     "name" : "TCA_FLOW_XOR"
    },
    {
     "enum_field_value" : 8,
     "name" : "TCA_FLOW_DIVISOR"
    },
    {
     "enum_field_value" : 9,
     "name" : "TCA_FLOW_ACT"
    },
    {
     "enum_field_value" : 10,
     "name" : "TCA_FLOW_POLICE"
    },
    {
     "enum_field_value" : 11,
     "name" : "TCA_FLOW_EMATCHES"
    },
    {
     "enum_field_value" : 12,
     "name" : "TCA_FLOW_PERTURB"
    },
    {
     "enum_field_value" : 13,
     "name" : "__TCA_FLOW_MAX"
    }
   ],
   "linker_set_key" : "_ZTI13$TCA_FLOW_ACT",
   "name" : "(anonymous enum at external/libnl/include/linux-private/linux/pkt_cls.h:346:1)",
   "referenced_type" : "_ZTI13$TCA_FLOW_ACT",
   "self_type" : "_ZTI13$TCA_FLOW_ACT",
   "size" : 4,
   "source_file" : "/external/libnl/include/linux-private/linux/pkt_cls.h",
   "underlying_type" : "_ZTIj"
  },
  {
   "alignment" : 4,
   "enum_fields" :
   [
    {
     "enum_field_value" : 0,
     "name" : "TCA_GRED_UNSPEC"
    },
    {
     "enum_field_value" : 1,
     "name" : "TCA_GRED_PARMS"
    },
    {
     "enum_field_value" : 2,
     "name" : "TCA_GRED_STAB"
    },
    {
     "enum_field_value" : 3,
     "name" : "TCA_GRED_DPS"
    },
    {
     "enum_field_value" : 4,
     "name" : "__TCA_GRED_MAX"
    }
   ],
   "linker_set_key" : "_ZTI13$TCA_GRED_DPS",
   "name" : "(anonymous enum at external/libnl/include/linux-private/linux/pkt_sched.h:233:1)",
   "referenced_type" : "_ZTI13$TCA_GRED_DPS",
   "self_type" : "_ZTI13$TCA_GRED_DPS",
   "size" : 4,
   "source_file" : "/external/libnl/include/linux-private/linux/pkt_sched.h",
   "underlying_type" : "_ZTIj"
  },
  {
   "alignment" : 4,
   "enum_fields" :
   [
    {
     "enum_field_value" : 0,
     "name" : "TCA_HFSC_UNSPEC"
    },
    {
     "enum_field_value" : 1,
     "name" : "TCA_HFSC_RSC"
    },
    {
     "enum_field_value" : 2,
     "name" : "TCA_HFSC_FSC"
    },
    {
     "enum_field_value" : 3,
     "name" : "TCA_HFSC_USC"
    },
    {
     "enum_field_value" : 4,
     "name" : "__TCA_HFSC_MAX"
    }
   ],
   "linker_set_key" : "_ZTI13$TCA_HFSC_FSC",
   "name" : "(anonymous enum at external/libnl/include/linux-private/linux/pkt_sched.h:361:1)",
   "referenced_type" : "_ZTI13$TCA_HFSC_FSC",
   "self_type" : "_ZTI13$TCA_HFSC_FSC",
   "size" : 4,
   "source_file" : "/external/libnl/include/linux-private/linux/pkt_sched.h",
   "underlying_type" : "_ZTIj"
  },
  {
   "alignment" : 4,
   "enum_fields" :
   [
    {
     "enum_field_value" : 0,
     "name" : "TCA_HTB_UNSPEC"
    },
    {
     "enum_field_value" : 1,
     "name" : "TCA_HTB_PARMS"
    },
    {
     "enum_field_value" : 2,
     "name" : "TCA_HTB_INIT"
    },
    {
     "enum_field_value" : 3,
     "name" : "TCA_HTB_CTAB"
    },
    {
     "enum_field_value" : 4,
     "name" : "TCA_HTB_RTAB"
    },
    {
     "enum_field_value" : 5,
     "name" : "__TCA_HTB_MAX"
    }
   ],
   "linker_set_key" : "_ZTI13$TCA_HTB_CTAB",
   "name" : "(anonymous enum at external/libnl/include/linux-private/linux/pkt_sched.h:323:1)",
   "referenced_type" : "_ZTI13$TCA_HTB_CTAB",
   "self_type" : "_ZTI13$TCA_HTB_CTAB",
   "size" : 4,
   "source_file" : "/external/libnl/include/linux-private/linux/pkt_sched.h",
   "underlying_type" : "_ZTIj"
  },
  {
   "alignment" : 4,
   "enum_fields" :
   [
    {
     "enum_field_value" : 0,
     "name" : "TCA_QFQ_UNSPEC"
    },
    {
     "enum_field_value" : 1,
     "name" : "TCA_QFQ_WEIGHT"
    },
    {
     "enum_field_value" : 2,
     "name" : "TCA_QFQ_LMAX"
    },
    {
     "enum_field_value" : 3,
     "name" : "__TCA_QFQ_MAX"
    }
   ],
   "linker_set_key" : "_ZTI13$TCA_QFQ_LMAX",
   "name" : "(anonymous enum at external/libnl/include/linux-private/linux/pkt_sched.h:628:1)",
   "referenced_type" : "_ZTI13$TCA_QFQ_LMAX",
   "self_type" : "_ZTI13$TCA_QFQ_LMAX",
   "size" : 4,
   "source_file" : "/external/libnl/include/linux-private/linux/pkt_sched.h",
   "underlying_type" : "_ZTIj"
  },
  {
   "alignment" : 4,
   "enum_fields" :
   [
    {
     "enum_field_value" : 0,
     "name" : "TCA_RSVP_UNSPEC"
    },
    {
     "enum_field_value" : 1,
     "name" : "TCA_RSVP_CLASSID"
    },
    {
     "enum_field_value" : 2,
     "name" : "TCA_RSVP_DST"
    },
    {
     "enum_field_value" : 3,
     "name" : "TCA_RSVP_SRC"
    },
    {
     "enum_field_value" : 4,
     "name" : "TCA_RSVP_PINFO"
    },
    {
     "enum_field_value" : 5,
     "name" : "TCA_RSVP_POLICE"
    },
    {
     "enum_field_value" : 6,
     "name" : "TCA_RSVP_ACT"
    },
    {
     "enum_field_value" : 7,
     "name" : "__TCA_RSVP_MAX"
    }
   ],
   "linker_set_key" : "_ZTI13$TCA_RSVP_ACT",
   "name" : "(anonymous enum at external/libnl/include/linux-private/linux/pkt_cls.h:241:1)",
   "referenced_type" : "_ZTI13$TCA_RSVP_ACT",
   "self_type" : "_ZTI13$TCA_RSVP_ACT",
   "size" : 4,
   "source_file" : "/external/libnl/include/linux-private/linux/pkt_cls.h",
   "underlying_type" : "_ZTIj"
  },
  {
   "alignment" : 4,
   "enum_fields" :
   [
    {
     "enum_field_value" : 0,
     "name" : "RTA_UNSPEC"
    },
    {
     "enum_field_value" : 1,
     "name" : "RTA_DST"
    },
    {
     "enum_field_value" : 2,
     "name" : "RTA_SRC"
    },
    {
     "enum_field_value" : 3,
     "name" : "RTA_IIF"
    },
    {
     "enum_field_value" : 4,
     "name" : "RTA_OIF"
    },
    {
     "enum_field_value" : 5,
     "name" : "RTA_GATEWAY"
    },
    {
     "enum_field_value" : 6,
     "name" : "RTA_PRIORITY"
    },
    {
     "enum_field_value" : 7,
     "name" : "RTA_PREFSRC"
    },
    {
     "enum_field_value" : 8,
     "name" : "RTA_METRICS"
    },
    {
     "enum_field_value" : 9,
     "name" : "RTA_MULTIPATH"
    },
    {
     "enum_field_value" : 10,
     "name" : "RTA_PROTOINFO"
    },
    {
     "enum_field_value" : 11,
     "name" : "RTA_FLOW"
    },
    {
     "enum_field_value" : 12,
     "name" : "RTA_CACHEINFO"
    },
    {
     "enum_field_value" : 13,
     "name" : "RTA_SESSION"
    },
    {
     "enum_field_value" : 14,
     "name" : "RTA_MP_ALGO"
    },
    {
     "enum_field_value" : 15,
     "name" : "RTA_TABLE"
    },
    {
     "enum_field_value" : 16,
     "name" : "RTA_MARK"
    },
    {
     "enum_field_value" : 17,
     "name" : "__RTA_MAX"
    }
   ],
   "linker_set_key" : "_ZTI13rtattr_type_t",
   "name" : "rtattr_type_t",
   "referenced_type" : "_ZTI13rtattr_type_t",
   "self_type" : "_ZTI13rtattr_type_t",
   "size" : 4,
   "source_file" : "/external/libnl/include/linux-private/linux/rtnetlink.h",
   "underlying_type" : "_ZTIj"
  },
  {
   "alignment" : 4,
   "enum_fields" :
   [
    {
     "enum_field_value" : 0,
     "name" : "NDA_UNSPEC"
    },
    {
     "enum_field_value" : 1,
     "name" : "NDA_DST"
    },
    {
     "enum_field_value" : 2,
     "name" : "NDA_LLADDR"
    },
    {
     "enum_field_value" : 3,
     "name" : "NDA_CACHEINFO"
    },
    {
     "enum_field_value" : 4,
     "name" : "NDA_PROBES"
    },
    {
     "enum_field_value" : 5,
     "name" : "__NDA_MAX"
    }
   ],
   "linker_set_key" : "_ZTI14$NDA_CACHEINFO",
   "name" : "(anonymous enum at external/libnl/include/linux-private/linux/neighbour.h:17:1)",
   "referenced_type" : "_ZTI14$NDA_CACHEINFO",
   "self_type" : "_ZTI14$NDA_CACHEINFO",
   "size" : 4,
   "source_file" : "/external/libnl/include/linux-private/linux/neighbour.h",
   "underlying_type" : "_ZTIj"
  },
  {
   "alignment" : 4,
   "enum_fields" :
   [
    {
     "enum_field_value" : 0,
     "name" : "NETEM_LOSS_UNSPEC"
    },
    {
     "enum_field_value" : 1,
     "name" : "NETEM_LOSS_GI"
    },
    {
     "enum_field_value" : 2,
     "name" : "NETEM_LOSS_GE"
    },
    {
     "enum_field_value" : 3,
     "name" : "__NETEM_LOSS_MAX"
    }
   ],
   "linker_set_key" : "_ZTI14$NETEM_LOSS_GE",
   "name" : "(anonymous enum at external/libnl/include/linux-private/linux/pkt_sched.h:534:1)",
   "referenced_type" : "_ZTI14$NETEM_LOSS_GE",
   "self_type" : "_ZTI14$NETEM_LOSS_GE",
   "size" : 4,
   "source_file" : "/external/libnl/include/linux-private/linux/pkt_sched.h",
   "underlying_type" : "_ZTIj"
  },
  {
   "alignment" : 4,
   "enum_fields" :
   [
    {
     "enum_field_value" : 0,
     "name" : "NL_ACT_UNSPEC"
    },
    {
     "enum_field_value" : 1,
     "name" : "NL_ACT_NEW"
    },
    {
     "enum_field_value" : 2,
     "name" : "NL_ACT_DEL"
    },
    {
     "enum_field_value" : 3,
     "name" : "NL_ACT_GET"
    },
    {
     "enum_field_value" : 4,
     "name" : "NL_ACT_SET"
    },
    {
     "enum_field_value" : 5,
     "name" : "NL_ACT_CHANGE"
    },
    {
     "enum_field_value" : 6,
     "name" : "__NL_ACT_MAX"
    }
   ],
   "linker_set_key" : "_ZTI14$NL_ACT_CHANGE",
   "name" : "(anonymous enum at external/libnl/include/netlink/cache.h:24:1)",
   "referenced_type" : "_ZTI14$NL_ACT_CHANGE",
   "self_type" : "_ZTI14$NL_ACT_CHANGE",
   "size" : 4,
   "source_file" : "/external/libnl/include/netlink/cache.h",
   "underlying_type" : "_ZTIj"
  },
  {
   "alignment" : 4,
   "enum_fields" :
   [
    {
     "enum_field_value" : 0,
     "name" : "TCA_ACT_UNSPEC"
    },
    {
     "enum_field_value" : 1,
     "name" : "TCA_ACT_KIND"
    },
    {
     "enum_field_value" : 2,
     "name" : "TCA_ACT_OPTIONS"
    },
    {
     "enum_field_value" : 3,
     "name" : "TCA_ACT_INDEX"
    },
    {
     "enum_field_value" : 4,
     "name" : "TCA_ACT_STATS"
    },
    {
     "enum_field_value" : 5,
     "name" : "__TCA_ACT_MAX"
    }
   ],
   "linker_set_key" : "_ZTI14$TCA_ACT_INDEX",
   "name" : "(anonymous enum at external/libnl/include/linux-private/linux/pkt_cls.h:78:1)",
   "referenced_type" : "_ZTI14$TCA_ACT_INDEX",
   "self_type" : "_ZTI14$TCA_ACT_INDEX",
   "size" : 4,
   "source_file" : "/external/libnl/include/linux-private/linux/pkt_cls.h",
   "underlying_type" : "_ZTIj"
  },
  {
   "alignment" : 4,
   "enum_fields" :
   [
    {
     "enum_field_value" : 0,
     "name" : "TCA_BASIC_UNSPEC"
    },
    {
     "enum_field_value" : 1,
     "name" : "TCA_BASIC_CLASSID"
    },
    {
     "enum_field_value" : 2,
     "name" : "TCA_BASIC_EMATCHES"
    },
    {
     "enum_field_value" : 3,
     "name" : "TCA_BASIC_ACT"
    },
    {
     "enum_field_value" : 4,
     "name" : "TCA_BASIC_POLICE"
    },
    {
     "enum_field_value" : 5,
     "name" : "__TCA_BASIC_MAX"
    }
   ],
   "linker_set_key" : "_ZTI14$TCA_BASIC_ACT",
   "name" : "(anonymous enum at external/libnl/include/linux-private/linux/pkt_cls.h:367:1)",
   "referenced_type" : "_ZTI14$TCA_BASIC_ACT",
   "self_type" : "_ZTI14$TCA_BASIC_ACT",
   "size" : 4,
   "source_file" : "/external/libnl/include/linux-private/linux/pkt_cls.h",
   "underlying_type" : "_ZTIj"
  },
  {
   "alignment" : 4,
   "enum_fields" :
   [
    {
     "enum_field_value" : 0,
     "name" : "TCA_ID_UNSPEC"
    },
    {
     "enum_field_value" : 1,
     "name" : "TCA_ID_POLICE"
    },
    {
     "enum_field_value" : 255,
     "name" : "__TCA_ID_MAX"
    }
   ],
   "linker_set_key" : "_ZTI14$TCA_ID_POLICE",
   "name" : "(anonymous enum at external/libnl/include/linux-private/linux/pkt_cls.h:110:1)",
   "referenced_type" : "_ZTI14$TCA_ID_POLICE",
   "self_type" : "_ZTI14$TCA_ID_POLICE",
   "size" : 4,
   "source_file" : "/external/libnl/include/linux-private/linux/pkt_cls.h",
   "underlying_type" : "_ZTIj"
  },
  {
   "alignment" : 4,
   "enum_fields" :
   [
    {
     "enum_field_value" : 0,
     "name" : "TCA_RED_UNSPEC"
    },
    {
     "enum_field_value" : 1,
     "name" : "TCA_RED_PARMS"
    },
    {
     "enum_field_value" : 2,
     "name" : "TCA_RED_STAB"
    },
    {
     "enum_field_value" : 3,
     "name" : "__TCA_RED_MAX"
    }
   ],
   "linker_set_key" : "_ZTI14$TCA_RED_PARMS",
   "name" : "(anonymous enum at external/libnl/include/linux-private/linux/pkt_sched.h:201:1)",
   "referenced_type" : "_ZTI14$TCA_RED_PARMS",
   "self_type" : "_ZTI14$TCA_RED_PARMS",
   "size" : 4,
   "source_file" : "/external/libnl/include/linux-private/linux/pkt_sched.h",
   "underlying_type" : "_ZTIj"
  },
  {
   "alignment" : 4,
   "enum_fields" :
   [
    {
     "enum_field_value" : 0,
     "name" : "TCA_SFB_UNSPEC"
    },
    {
     "enum_field_value" : 1,
     "name" : "TCA_SFB_PARMS"
    },
    {
     "enum_field_value" : 2,
     "name" : "__TCA_SFB_MAX"
    }
   ],
   "linker_set_key" : "_ZTI14$TCA_SFB_PARMS",
   "name" : "(anonymous enum at external/libnl/include/linux-private/linux/pkt_sched.h:590:1)",
   "referenced_type" : "_ZTI14$TCA_SFB_PARMS",
   "self_type" : "_ZTI14$TCA_SFB_PARMS",
   "size" : 4,
   "source_file" : "/external/libnl/include/linux-private/linux/pkt_sched.h",
   "underlying_type" : "_ZTIj"
  },
  {
   "alignment" : 4,
   "enum_fields" :
   [
    {
     "enum_field_value" : 0,
     "name" : "TCA_STAB_UNSPEC"
    },
    {
     "enum_field_value" : 1,
     "name" : "TCA_STAB_BASE"
    },
    {
     "enum_field_value" : 2,
     "name" : "TCA_STAB_DATA"
    },
    {
     "enum_field_value" : 3,
     "name" : "__TCA_STAB_MAX"
    }
   ],
   "linker_set_key" : "_ZTI14$TCA_STAB_BASE",
   "name" : "(anonymous enum at external/libnl/include/linux-private/linux/pkt_sched.h:98:1)",
   "referenced_type" : "_ZTI14$TCA_STAB_BASE",
   "self_type" : "_ZTI14$TCA_STAB_BASE",
   "size" : 4,
   "source_file" : "/external/libnl/include/linux-private/linux/pkt_sched.h",
   "underlying_type" : "_ZTIj"
  },
  {
   "alignment" : 4,
   "enum_fields" :
   [
    {
     "enum_field_value" : 0,
     "name" : "TCA_STATS_UNSPEC"
    },
    {
     "enum_field_value" : 1,
     "name" : "TCA_STATS_BASIC"
    },
    {
     "enum_field_value" : 2,
     "name" : "TCA_STATS_RATE_EST"
    },
    {
     "enum_field_value" : 3,
     "name" : "TCA_STATS_QUEUE"
    },
    {
     "enum_field_value" : 4,
     "name" : "TCA_STATS_APP"
    },
    {
     "enum_field_value" : 5,
     "name" : "__TCA_STATS_MAX"
    }
   ],
   "linker_set_key" : "_ZTI14$TCA_STATS_APP",
   "name" : "(anonymous enum at external/libnl/include/linux-private/linux/gen_stats.h:6:1)",
   "referenced_type" : "_ZTI14$TCA_STATS_APP",
   "self_type" : "_ZTI14$TCA_STATS_APP",
   "size" : 4,
   "source_file" : "/external/libnl/include/linux-private/linux/gen_stats.h",
   "underlying_type" : "_ZTIj"
  },
  {
   "alignment" : 4,
   "enum_fields" :
   [
    {
     "enum_field_value" : 0,
     "name" : "TCA_TBF_UNSPEC"
    },
    {
     "enum_field_value" : 1,
     "name" : "TCA_TBF_PARMS"
    },
    {
     "enum_field_value" : 2,
     "name" : "TCA_TBF_RTAB"
    },
    {
     "enum_field_value" : 3,
     "name" : "TCA_TBF_PTAB"
    },
    {
     "enum_field_value" : 4,
     "name" : "__TCA_TBF_MAX"
    }
   ],
   "linker_set_key" : "_ZTI14$TCA_TBF_PARMS",
   "name" : "(anonymous enum at external/libnl/include/linux-private/linux/pkt_sched.h:161:1)",
   "referenced_type" : "_ZTI14$TCA_TBF_PARMS",
   "self_type" : "_ZTI14$TCA_TBF_PARMS",
   "size" : 4,
   "source_file" : "/external/libnl/include/linux-private/linux/pkt_sched.h",
   "underlying_type" : "_ZTIj"
  },
  {
   "alignment" : 4,
   "enum_fields" :
   [
    {
     "enum_field_value" : 0,
     "name" : "FLOW_MODE_MAP"
    },
    {
     "enum_field_value" : 1,
     "name" : "FLOW_MODE_HASH"
    }
   ],
   "linker_set_key" : "_ZTI15$FLOW_MODE_HASH",
   "name" : "(anonymous enum at external/libnl/include/linux-private/linux/pkt_cls.h:341:1)",
   "referenced_type" : "_ZTI15$FLOW_MODE_HASH",
   "self_type" : "_ZTI15$FLOW_MODE_HASH",
   "size" : 4,
   "source_file" : "/external/libnl/include/linux-private/linux/pkt_cls.h",
   "underlying_type" : "_ZTIj"
  },
  {
   "alignment" : 4,
   "enum_fields" :
   [
    {
     "enum_field_value" : 0,
     "name" : "IDIAG_SS_UNKNOWN"
    },
    {
     "enum_field_value" : 1,
     "name" : "IDIAG_SS_ESTABLISHED"
    },
    {
     "enum_field_value" : 2,
     "name" : "IDIAG_SS_SYN_SENT"
    },
    {
     "enum_field_value" : 3,
     "name" : "IDIAG_SS_SYN_RECV"
    },
    {
     "enum_field_value" : 4,
     "name" : "IDIAG_SS_FIN_WAIT1"
    },
    {
     "enum_field_value" : 5,
     "name" : "IDIAG_SS_FIN_WAIT2"
    },
    {
     "enum_field_value" : 6,
     "name" : "IDIAG_SS_TIME_WAIT"
    },
    {
     "enum_field_value" : 7,
     "name" : "IDIAG_SS_CLOSE"
    },
    {
     "enum_field_value" : 8,
     "name" : "IDIAG_SS_CLOSE_WAIT"
    },
    {
     "enum_field_value" : 9,
     "name" : "IDIAG_SS_LAST_ACK"
    },
    {
     "enum_field_value" : 10,
     "name" : "IDIAG_SS_LISTEN"
    },
    {
     "enum_field_value" : 11,
     "name" : "IDIAG_SS_CLOSING"
    },
    {
     "enum_field_value" : 12,
     "name" : "IDIAG_SS_MAX"
    }
   ],
   "linker_set_key" : "_ZTI15$IDIAG_SS_CLOSE",
   "name" : "(anonymous enum at external/libnl/include/netlink/idiag/idiagnl.h:32:1)",
   "referenced_type" : "_ZTI15$IDIAG_SS_CLOSE",
   "self_type" : "_ZTI15$IDIAG_SS_CLOSE",
   "size" : 4,
   "source_file" : "/external/libnl/include/netlink/idiag/idiagnl.h",
   "underlying_type" : "_ZTIj"
  },
  {
   "alignment" : 4,
   "enum_fields" :
   [
    {
     "enum_field_value" : 0,
     "name" : "IFLA_INET_UNSPEC"
    },
    {
     "enum_field_value" : 1,
     "name" : "IFLA_INET_CONF"
    },
    {
     "enum_field_value" : 2,
     "name" : "__IFLA_INET_MAX"
    }
   ],
   "linker_set_key" : "_ZTI15$IFLA_INET_CONF",
   "name" : "(anonymous enum at external/libnl/include/linux-private/linux/if_link.h:153:1)",
   "referenced_type" : "_ZTI15$IFLA_INET_CONF",
   "self_type" : "_ZTI15$IFLA_INET_CONF",
   "size" : 4,
   "source_file" : "/external/libnl/include/linux-private/linux/if_link.h",
   "underlying_type" : "_ZTIj"
  },
  {
   "alignment" : 4,
   "enum_fields" :
   [
    {
     "enum_field_value" : 0,
     "name" : "IFLA_INFO_UNSPEC"
    },
    {
     "enum_field_value" : 1,
     "name" : "IFLA_INFO_KIND"
    },
    {
     "enum_field_value" : 2,
     "name" : "IFLA_INFO_DATA"
    },
    {
     "enum_field_value" : 3,
     "name" : "IFLA_INFO_XSTATS"
    },
    {
     "enum_field_value" : 4,
     "name" : "__IFLA_INFO_MAX"
    }
   ],
   "linker_set_key" : "_ZTI15$IFLA_INFO_DATA",
   "name" : "(anonymous enum at external/libnl/include/linux-private/linux/if_link.h:229:1)",
   "referenced_type" : "_ZTI15$IFLA_INFO_DATA",
   "self_type" : "_ZTI15$IFLA_INFO_DATA",
   "size" : 4,
   "source_file" : "/external/libnl/include/linux-private/linux/if_link.h",
   "underlying_type" : "_ZTIj"
  },
  {
   "alignment" : 4,
   "enum_fields" :
   [
    {
     "enum_field_value" : 0,
     "name" : "PREFIX_UNSPEC"
    },
    {
     "enum_field_value" : 1,
     "name" : "PREFIX_ADDRESS"
    },
    {
     "enum_field_value" : 2,
     "name" : "PREFIX_CACHEINFO"
    },
    {
     "enum_field_value" : 3,
     "name" : "__PREFIX_MAX"
    }
   ],
   "linker_set_key" : "_ZTI15$PREFIX_ADDRESS",
   "name" : "(anonymous enum at external/libnl/include/linux-private/linux/rtnetlink.h:447:1)",
   "referenced_type" : "_ZTI15$PREFIX_ADDRESS",
   "self_type" : "_ZTI15$PREFIX_ADDRESS",
   "size" : 4,
   "source_file" : "/external/libnl/include/linux-private/linux/rtnetlink.h",
   "underlying_type" : "_ZTIj"
  },
  {
   "alignment" : 4,
   "enum_fields" :
   [
    {
     "enum_field_value" : 0,
     "name" : "TCA_CGROUP_UNSPEC"
    },
    {
     "enum_field_value" : 1,
     "name" : "TCA_CGROUP_ACT"
    },
    {
     "enum_field_value" : 2,
     "name" : "TCA_CGROUP_POLICE"
    },
    {
     "enum_field_value" : 3,
     "name" : "TCA_CGROUP_EMATCHES"
    },
    {
     "enum_field_value" : 4,
     "name" : "__TCA_CGROUP_MAX"
    }
   ],
   "linker_set_key" : "_ZTI15$TCA_CGROUP_ACT",
   "name" : "(anonymous enum at external/libnl/include/linux-private/linux/pkt_cls.h:381:1)",
   "referenced_type" : "_ZTI15$TCA_CGROUP_ACT",
   "self_type" : "_ZTI15$TCA_CGROUP_ACT",
   "size" : 4,
   "source_file" : "/external/libnl/include/linux-private/linux/pkt_cls.h",
   "underlying_type" : "_ZTIj"
  },
  {
   "alignment" : 4,
   "enum_fields" :
   [
    {
     "enum_field_value" : 0,
     "name" : "TCA_NETEM_UNSPEC"
    },
    {
     "enum_field_value" : 1,
     "name" : "TCA_NETEM_CORR"
    },
    {
     "enum_field_value" : 2,
     "name" : "TCA_NETEM_DELAY_DIST"
    },
    {
     "enum_field_value" : 3,
     "name" : "TCA_NETEM_REORDER"
    },
    {
     "enum_field_value" : 4,
     "name" : "TCA_NETEM_CORRUPT"
    },
    {
     "enum_field_value" : 5,
     "name" : "TCA_NETEM_LOSS"
    },
    {
     "enum_field_value" : 6,
     "name" : "__TCA_NETEM_MAX"
    }
   ],
   "linker_set_key" : "_ZTI15$TCA_NETEM_CORR",
   "name" : "(anonymous enum at external/libnl/include/linux-private/linux/pkt_sched.h:497:1)",
   "referenced_type" : "_ZTI15$TCA_NETEM_CORR",
   "self_type" : "_ZTI15$TCA_NETEM_CORR",
   "size" : 4,
   "source_file" : "/external/libnl/include/linux-private/linux/pkt_sched.h",
   "underlying_type" : "_ZTIj"
  },
  {
   "alignment" : 4,
   "enum_fields" :
   [
    {
     "enum_field_value" : 0,
     "name" : "TCA_ROUTE4_UNSPEC"
    },
    {
     "enum_field_value" : 1,
     "name" : "TCA_ROUTE4_CLASSID"
    },
    {
     "enum_field_value" : 2,
     "name" : "TCA_ROUTE4_TO"
    },
    {
     "enum_field_value" : 3,
     "name" : "TCA_ROUTE4_FROM"
    },
    {
     "enum_field_value" : 4,
     "name" : "TCA_ROUTE4_IIF"
    },
    {
     "enum_field_value" : 5,
     "name" : "TCA_ROUTE4_POLICE"
    },
    {
     "enum_field_value" : 6,
     "name" : "TCA_ROUTE4_ACT"
    },
    {
     "enum_field_value" : 7,
     "name" : "__TCA_ROUTE4_MAX"
    }
   ],
   "linker_set_key" : "_ZTI15$TCA_ROUTE4_ACT",
   "name" : "(anonymous enum at external/libnl/include/linux-private/linux/pkt_cls.h:271:1)",
   "referenced_type" : "_ZTI15$TCA_ROUTE4_ACT",
   "self_type" : "_ZTI15$TCA_ROUTE4_ACT",
   "size" : 4,
   "source_file" : "/external/libnl/include/linux-private/linux/pkt_cls.h",
   "underlying_type" : "_ZTIj"
  },
  {
   "alignment" : 4,
   "enum_fields" :
   [
    {
     "enum_field_value" : 0,
     "name" : "TCF_EM_OPND_EQ"
    },
    {
     "enum_field_value" : 1,
     "name" : "TCF_EM_OPND_GT"
    },
    {
     "enum_field_value" : 2,
     "name" : "TCF_EM_OPND_LT"
    }
   ],
   "linker_set_key" : "_ZTI15$TCF_EM_OPND_EQ",
   "name" : "(anonymous enum at external/libnl/include/linux-private/linux/pkt_cls.h:461:1)",
   "referenced_type" : "_ZTI15$TCF_EM_OPND_EQ",
   "self_type" : "_ZTI15$TCF_EM_OPND_EQ",
   "size" : 4,
   "source_file" : "/external/libnl/include/linux-private/linux/pkt_cls.h",
   "underlying_type" : "_ZTIj"
  },
  {
   "alignment" : 4,
   "enum_fields" :
   [
    {
     "enum_field_value" : 0,
     "name" : "TCF_EM_PROG_TC"
    }
   ],
   "linker_set_key" : "_ZTI15$TCF_EM_PROG_TC",
   "name" : "(anonymous enum at external/libnl/include/linux-private/linux/pkt_cls.h:457:1)",
   "referenced_type" : "_ZTI15$TCF_EM_PROG_TC",
   "self_type" : "_ZTI15$TCF_EM_PROG_TC",
   "size" : 4,
   "source_file" : "/external/libnl/include/linux-private/linux/pkt_cls.h",
   "underlying_type" : "_ZTIj"
  },
  {
   "alignment" : 4,
   "enum_fields" :
   [
    {
     "enum_field_value" : 0,
     "name" : "TCF_LAYER_LINK"
    },
    {
     "enum_field_value" : 1,
     "name" : "TCF_LAYER_NETWORK"
    },
    {
     "enum_field_value" : 2,
     "name" : "TCF_LAYER_TRANSPORT"
    },
    {
     "enum_field_value" : 3,
     "name" : "__TCF_LAYER_MAX"
    }
   ],
   "linker_set_key" : "_ZTI15$TCF_LAYER_LINK",
   "name" : "(anonymous enum at external/libnl/include/linux-private/linux/pkt_cls.h:436:1)",
   "referenced_type" : "_ZTI15$TCF_LAYER_LINK",
   "self_type" : "_ZTI15$TCF_LAYER_LINK",
   "size" : 4,
   "source_file" : "/external/libnl/include/linux-private/linux/pkt_cls.h",
   "underlying_type" : "_ZTIj"
  },
  {
   "alignment" : 4,
   "enum_fields" :
   [
    {
     "enum_field_value" : 0,
     "name" : "VETH_INFO_UNSPEC"
    },
    {
     "enum_field_value" : 1,
     "name" : "VETH_INFO_PEER"
    },
    {
     "enum_field_value" : 2,
     "name" : "__VETH_INFO_MAX"
    }
   ],
   "linker_set_key" : "_ZTI15$VETH_INFO_PEER",
   "name" : "(anonymous enum at external/libnl/include/linux-private/linux/if_link.h:316:1)",
   "referenced_type" : "_ZTI15$VETH_INFO_PEER",
   "self_type" : "_ZTI15$VETH_INFO_PEER",
   "size" : 4,
   "source_file" : "/external/libnl/include/linux-private/linux/if_link.h",
   "underlying_type" : "_ZTIj"
  },
  {
   "alignment" : 4,
   "enum_fields" :
   [
    {
     "enum_field_value" : 0,
     "name" : "IDIAG_ATTR_NONE"
    },
    {
     "enum_field_value" : 1,
     "name" : "IDIAG_ATTR_MEMINFO"
    },
    {
     "enum_field_value" : 2,
     "name" : "IDIAG_ATTR_INFO"
    },
    {
     "enum_field_value" : 3,
     "name" : "IDIAG_ATTR_VEGASINFO"
    },
    {
     "enum_field_value" : 4,
     "name" : "IDIAG_ATTR_CONG"
    },
    {
     "enum_field_value" : 5,
     "name" : "IDIAG_ATTR_TOS"
    },
    {
     "enum_field_value" : 6,
     "name" : "IDIAG_ATTR_TCLASS"
    },
    {
     "enum_field_value" : 7,
     "name" : "IDIAG_ATTR_SKMEMINFO"
    },
    {
     "enum_field_value" : 8,
     "name" : "IDIAG_ATTR_SHUTDOWN"
    },
    {
     "enum_field_value" : 9,
     "name" : "IDIAG_ATTR_MAX"
    }
   ],
   "linker_set_key" : "_ZTI16$IDIAG_ATTR_CONG",
   "name" : "(anonymous enum at external/libnl/include/netlink/idiag/idiagnl.h:58:1)",
   "referenced_type" : "_ZTI16$IDIAG_ATTR_CONG",
   "self_type" : "_ZTI16$IDIAG_ATTR_CONG",
   "size" : 4,
   "source_file" : "/external/libnl/include/netlink/idiag/idiagnl.h",
   "underlying_type" : "_ZTIj"
  },
  {
   "alignment" : 4,
   "enum_fields" :
   [
    {
     "enum_field_value" : 0,
     "name" : "IFLA_IPOIB_UNSPEC"
    },
    {
     "enum_field_value" : 1,
     "name" : "IFLA_IPOIB_PKEY"
    },
    {
     "enum_field_value" : 2,
     "name" : "IFLA_IPOIB_MODE"
    },
    {
     "enum_field_value" : 3,
     "name" : "IFLA_IPOIB_UMCAST"
    },
    {
     "enum_field_value" : 4,
     "name" : "__IFLA_IPOIB_MAX"
    }
   ],
   "linker_set_key" : "_ZTI16$IFLA_IPOIB_MODE",
   "name" : "(anonymous enum at external/libnl/include/linux-private/linux/if_link.h:441:1)",
   "referenced_type" : "_ZTI16$IFLA_IPOIB_MODE",
   "self_type" : "_ZTI16$IFLA_IPOIB_MODE",
   "size" : 4,
   "source_file" : "/external/libnl/include/linux-private/linux/if_link.h",
   "underlying_type" : "_ZTIj"
  },
  {
   "alignment" : 4,
   "enum_fields" :
   [
    {
     "enum_field_value" : 0,
     "name" : "TCA_CHOKE_UNSPEC"
    },
    {
     "enum_field_value" : 1,
     "name" : "TCA_CHOKE_PARMS"
    },
    {
     "enum_field_value" : 2,
     "name" : "TCA_CHOKE_STAB"
    },
    {
     "enum_field_value" : 3,
     "name" : "__TCA_CHOKE_MAX"
    }
   ],
   "linker_set_key" : "_ZTI16$TCA_CHOKE_PARMS",
   "name" : "(anonymous enum at external/libnl/include/linux-private/linux/pkt_sched.h:273:1)",
   "referenced_type" : "_ZTI16$TCA_CHOKE_PARMS",
   "self_type" : "_ZTI16$TCA_CHOKE_PARMS",
   "size" : 4,
   "source_file" : "/external/libnl/include/linux-private/linux/pkt_sched.h",
   "underlying_type" : "_ZTIj"
  },
  {
   "alignment" : 4,
   "enum_fields" :
   [
    {
     "enum_field_value" : 0,
     "name" : "TCA_DRR_UNSPEC"
    },
    {
     "enum_field_value" : 1,
     "name" : "TCA_DRR_QUANTUM"
    },
    {
     "enum_field_value" : 2,
     "name" : "__TCA_DRR_MAX"
    }
   ],
   "linker_set_key" : "_ZTI16$TCA_DRR_QUANTUM",
   "name" : "(anonymous enum at external/libnl/include/linux-private/linux/pkt_sched.h:564:1)",
   "referenced_type" : "_ZTI16$TCA_DRR_QUANTUM",
   "self_type" : "_ZTI16$TCA_DRR_QUANTUM",
   "size" : 4,
   "source_file" : "/external/libnl/include/linux-private/linux/pkt_sched.h",
   "underlying_type" : "_ZTIj"
  },
  {
   "alignment" : 4,
   "enum_fields" :
   [
    {
     "enum_field_value" : 0,
     "name" : "TCA_TCINDEX_UNSPEC"
    },
    {
     "enum_field_value" : 1,
     "name" : "TCA_TCINDEX_HASH"
    },
    {
     "enum_field_value" : 2,
     "name" : "TCA_TCINDEX_MASK"
    },
    {
     "enum_field_value" : 3,
     "name" : "TCA_TCINDEX_SHIFT"
    },
    {
     "enum_field_value" : 4,
     "name" : "TCA_TCINDEX_FALL_THROUGH"
    },
    {
     "enum_field_value" : 5,
     "name" : "TCA_TCINDEX_CLASSID"
    },
    {
     "enum_field_value" : 6,
     "name" : "TCA_TCINDEX_POLICE"
    },
    {
     "enum_field_value" : 7,
     "name" : "TCA_TCINDEX_ACT"
    },
    {
     "enum_field_value" : 8,
     "name" : "__TCA_TCINDEX_MAX"
    }
   ],
   "linker_set_key" : "_ZTI16$TCA_TCINDEX_ACT",
   "name" : "(anonymous enum at external/libnl/include/linux-private/linux/pkt_cls.h:301:1)",
   "referenced_type" : "_ZTI16$TCA_TCINDEX_ACT",
   "self_type" : "_ZTI16$TCA_TCINDEX_ACT",
   "size" : 4,
   "source_file" : "/external/libnl/include/linux-private/linux/pkt_cls.h",
   "underlying_type" : "_ZTIj"
  },
  {
   "alignment" : 4,
   "enum_fields" :
   [
    {
     "enum_field_value" : 0,
     "name" : "NFNLGRP_NONE"
    },
    {
     "enum_field_value" : 1,
     "name" : "NFNLGRP_CONNTRACK_NEW"
    },
    {
     "enum_field_value" : 2,
     "name" : "NFNLGRP_CONNTRACK_UPDATE"
    },
    {
     "enum_field_value" : 3,
     "name" : "NFNLGRP_CONNTRACK_DESTROY"
    },
    {
     "enum_field_value" : 4,
     "name" : "NFNLGRP_CONNTRACK_EXP_NEW"
    },
    {
     "enum_field_value" : 5,
     "name" : "NFNLGRP_CONNTRACK_EXP_UPDATE"
    },
    {
     "enum_field_value" : 6,
     "name" : "NFNLGRP_CONNTRACK_EXP_DESTROY"
    },
    {
     "enum_field_value" : 7,
     "name" : "NFNLGRP_NFTABLES"
    },
    {
     "enum_field_value" : 8,
     "name" : "NFNLGRP_ACCT_QUOTA"
    },
    {
     "enum_field_value" : 9,
     "name" : "__NFNLGRP_MAX"
    }
   ],
   "linker_set_key" : "_ZTI16nfnetlink_groups",
   "name" : "nfnetlink_groups",
   "referenced_type" : "_ZTI16nfnetlink_groups",
   "self_type" : "_ZTI16nfnetlink_groups",
   "size" : 4,
   "source_file" : "/external/libnl/include/linux-private/linux/netfilter/nfnetlink.h",
   "underlying_type" : "_ZTIj"
  },
  {
   "alignment" : 4,
   "enum_fields" :
   [
    {
     "enum_field_value" : 0,
     "name" : "RTNLGRP_NONE"
    },
    {
     "enum_field_value" : 1,
     "name" : "RTNLGRP_LINK"
    },
    {
     "enum_field_value" : 2,
     "name" : "RTNLGRP_NOTIFY"
    },
    {
     "enum_field_value" : 3,
     "name" : "RTNLGRP_NEIGH"
    },
    {
     "enum_field_value" : 4,
     "name" : "RTNLGRP_TC"
    },
    {
     "enum_field_value" : 5,
     "name" : "RTNLGRP_IPV4_IFADDR"
    },
    {
     "enum_field_value" : 6,
     "name" : "RTNLGRP_IPV4_MROUTE"
    },
    {
     "enum_field_value" : 7,
     "name" : "RTNLGRP_IPV4_ROUTE"
    },
    {
     "enum_field_value" : 8,
     "name" : "RTNLGRP_IPV4_RULE"
    },
    {
     "enum_field_value" : 9,
     "name" : "RTNLGRP_IPV6_IFADDR"
    },
    {
     "enum_field_value" : 10,
     "name" : "RTNLGRP_IPV6_MROUTE"
    },
    {
     "enum_field_value" : 11,
     "name" : "RTNLGRP_IPV6_ROUTE"
    },
    {
     "enum_field_value" : 12,
     "name" : "RTNLGRP_IPV6_IFINFO"
    },
    {
     "enum_field_value" : 13,
     "name" : "RTNLGRP_DECnet_IFADDR"
    },
    {
     "enum_field_value" : 14,
     "name" : "RTNLGRP_NOP2"
    },
    {
     "enum_field_value" : 15,
     "name" : "RTNLGRP_DECnet_ROUTE"
    },
    {
     "enum_field_value" : 16,
     "name" : "RTNLGRP_DECnet_RULE"
    },
    {
     "enum_field_value" : 17,
     "name" : "RTNLGRP_NOP4"
    },
    {
     "enum_field_value" : 18,
     "name" : "RTNLGRP_IPV6_PREFIX"
    },
    {
     "enum_field_value" : 19,
     "name" : "RTNLGRP_IPV6_RULE"
    },
    {
     "enum_field_value" : 20,
     "name" : "RTNLGRP_ND_USEROPT"
    },
    {
     "enum_field_value" : 21,
     "name" : "RTNLGRP_PHONET_IFADDR"
    },
    {
     "enum_field_value" : 22,
     "name" : "RTNLGRP_PHONET_ROUTE"
    },
    {
     "enum_field_value" : 23,
     "name" : "__RTNLGRP_MAX"
    }
   ],
   "linker_set_key" : "_ZTI16rtnetlink_groups",
   "name" : "rtnetlink_groups",
   "referenced_type" : "_ZTI16rtnetlink_groups",
   "self_type" : "_ZTI16rtnetlink_groups",
   "size" : 4,
   "source_file" : "/external/libnl/include/linux-private/linux/rtnetlink.h",
   "underlying_type" : "_ZTIj"
  },
  {
   "alignment" : 4,
   "enum_fields" :
   [
    {
     "enum_field_value" : 0,
     "name" : "IFLA_BRPORT_UNSPEC"
    },
    {
     "enum_field_value" : 1,
     "name" : "IFLA_BRPORT_STATE"
    },
    {
     "enum_field_value" : 2,
     "name" : "IFLA_BRPORT_PRIORITY"
    },
    {
     "enum_field_value" : 3,
     "name" : "IFLA_BRPORT_COST"
    },
    {
     "enum_field_value" : 4,
     "name" : "IFLA_BRPORT_MODE"
    },
    {
     "enum_field_value" : 5,
     "name" : "IFLA_BRPORT_GUARD"
    },
    {
     "enum_field_value" : 6,
     "name" : "IFLA_BRPORT_PROTECT"
    },
    {
     "enum_field_value" : 7,
     "name" : "IFLA_BRPORT_FAST_LEAVE"
    },
    {
     "enum_field_value" : 8,
     "name" : "__IFLA_BRPORT_MAX"
    }
   ],
   "linker_set_key" : "_ZTI17$IFLA_BRPORT_COST",
   "name" : "(anonymous enum at external/libnl/include/linux-private/linux/if_link.h:209:1)",
   "referenced_type" : "_ZTI17$IFLA_BRPORT_COST",
   "self_type" : "_ZTI17$IFLA_BRPORT_COST",
   "size" : 4,
   "source_file" : "/external/libnl/include/linux-private/linux/if_link.h",
   "underlying_type" : "_ZTIj"
  },
  {
   "alignment" : 4,
   "enum_fields" :
   [
    {
     "enum_field_value" : 0,
     "name" : "TCA_FQ_CODEL_UNSPEC"
    },
    {
     "enum_field_value" : 1,
     "name" : "TCA_FQ_CODEL_TARGET"
    },
    {
     "enum_field_value" : 2,
     "name" : "TCA_FQ_CODEL_LIMIT"
    },
    {
     "enum_field_value" : 3,
     "name" : "TCA_FQ_CODEL_INTERVAL"
    },
    {
     "enum_field_value" : 4,
     "name" : "TCA_FQ_CODEL_ECN"
    },
    {
     "enum_field_value" : 5,
     "name" : "TCA_FQ_CODEL_FLOWS"
    },
    {
     "enum_field_value" : 6,
     "name" : "TCA_FQ_CODEL_QUANTUM"
    },
    {
     "enum_field_value" : 7,
     "name" : "__TCA_FQ_CODEL_MAX"
    }
   ],
   "linker_set_key" : "_ZTI17$TCA_FQ_CODEL_ECN",
   "name" : "(anonymous enum at external/libnl/include/linux-private/linux/pkt_sched.h:467:1)",
   "referenced_type" : "_ZTI17$TCA_FQ_CODEL_ECN",
   "self_type" : "_ZTI17$TCA_FQ_CODEL_ECN",
   "size" : 4,
   "source_file" : "/external/libnl/include/linux-private/linux/pkt_sched.h",
   "underlying_type" : "_ZTIj"
  },
  {
   "alignment" : 4,
   "enum_fields" :
   [
    {
     "enum_field_value" : 0,
     "name" : "TCA_MIRRED_UNSPEC"
    },
    {
     "enum_field_value" : 1,
     "name" : "TCA_MIRRED_TM"
    },
    {
     "enum_field_value" : 2,
     "name" : "TCA_MIRRED_PARMS"
    },
    {
     "enum_field_value" : 3,
     "name" : "__TCA_MIRRED_MAX"
    }
   ],
   "linker_set_key" : "_ZTI17$TCA_MIRRED_PARMS",
   "name" : "(anonymous enum at external/libnl/include/linux-private/linux/tc_act/tc_mirred.h:19:1)",
   "referenced_type" : "_ZTI17$TCA_MIRRED_PARMS",
   "self_type" : "_ZTI17$TCA_MIRRED_PARMS",
   "size" : 4,
   "source_file" : "/external/libnl/include/linux-private/linux/tc_act/tc_mirred.h",
   "underlying_type" : "_ZTIj"
  },
  {
   "alignment" : 4,
   "enum_fields" :
   [
    {
     "enum_field_value" : 0,
     "name" : "IFLA_VXLAN_UNSPEC"
    },
    {
     "enum_field_value" : 1,
     "name" : "IFLA_VXLAN_ID"
    },
    {
     "enum_field_value" : 2,
     "name" : "IFLA_VXLAN_GROUP"
    },
    {
     "enum_field_value" : 3,
     "name" : "IFLA_VXLAN_LINK"
    },
    {
     "enum_field_value" : 4,
     "name" : "IFLA_VXLAN_LOCAL"
    },
    {
     "enum_field_value" : 5,
     "name" : "IFLA_VXLAN_TTL"
    },
    {
     "enum_field_value" : 6,
     "name" : "IFLA_VXLAN_TOS"
    },
    {
     "enum_field_value" : 7,
     "name" : "IFLA_VXLAN_LEARNING"
    },
    {
     "enum_field_value" : 8,
     "name" : "IFLA_VXLAN_AGEING"
    },
    {
     "enum_field_value" : 9,
     "name" : "IFLA_VXLAN_LIMIT"
    },
    {
     "enum_field_value" : 10,
     "name" : "IFLA_VXLAN_PORT_RANGE"
    },
    {
     "enum_field_value" : 11,
     "name" : "IFLA_VXLAN_PROXY"
    },
    {
     "enum_field_value" : 12,
     "name" : "IFLA_VXLAN_RSC"
    },
    {
     "enum_field_value" : 13,
     "name" : "IFLA_VXLAN_L2MISS"
    },
    {
     "enum_field_value" : 14,
     "name" : "IFLA_VXLAN_L3MISS"
    },
    {
     "enum_field_value" : 15,
     "name" : "__IFLA_VXLAN_MAX"
    }
   ],
   "linker_set_key" : "_ZTI18$IFLA_VXLAN_AGEING",
   "name" : "(anonymous enum at external/libnl/include/linux-private/linux/if_link.h:291:1)",
   "referenced_type" : "_ZTI18$IFLA_VXLAN_AGEING",
   "self_type" : "_ZTI18$IFLA_VXLAN_AGEING",
   "size" : 4,
   "source_file" : "/external/libnl/include/linux-private/linux/if_link.h",
   "underlying_type" : "_ZTIj"
  },
  {
   "alignment" : 4,
   "enum_fields" :
   [
    {
     "enum_field_value" : 0,
     "name" : "NDUSEROPT_UNSPEC"
    },
    {
     "enum_field_value" : 1,
     "name" : "NDUSEROPT_SRCADDR"
    },
    {
     "enum_field_value" : 2,
     "name" : "__NDUSEROPT_MAX"
    }
   ],
   "linker_set_key" : "_ZTI18$NDUSEROPT_SRCADDR",
   "name" : "(anonymous enum at external/libnl/include/linux-private/linux/rtnetlink.h:511:1)",
   "referenced_type" : "_ZTI18$NDUSEROPT_SRCADDR",
   "self_type" : "_ZTI18$NDUSEROPT_SRCADDR",
   "size" : 4,
   "source_file" : "/external/libnl/include/linux-private/linux/rtnetlink.h",
   "underlying_type" : "_ZTIj"
  },
  {
   "alignment" : 4,
   "enum_fields" :
   [
    {
     "enum_field_value" : 0,
     "name" : "NETLINK_UNCONNECTED"
    },
    {
     "enum_field_value" : 1,
     "name" : "NETLINK_CONNECTED"
    }
   ],
   "linker_set_key" : "_ZTI18$NETLINK_CONNECTED",
   "name" : "(anonymous enum at external/libnl/include/linux-private/linux/netlink.h:112:1)",
   "referenced_type" : "_ZTI18$NETLINK_CONNECTED",
   "self_type" : "_ZTI18$NETLINK_CONNECTED",
   "size" : 4,
   "source_file" : "/external/libnl/include/linux-private/linux/netlink.h",
   "underlying_type" : "_ZTIj"
  },
  {
   "alignment" : 4,
   "enum_fields" :
   [
    {
     "enum_field_value" : 0,
     "name" : "TCA_POLICE_UNSPEC"
    },
    {
     "enum_field_value" : 1,
     "name" : "TCA_POLICE_TBF"
    },
    {
     "enum_field_value" : 2,
     "name" : "TCA_POLICE_RATE"
    },
    {
     "enum_field_value" : 3,
     "name" : "TCA_POLICE_PEAKRATE"
    },
    {
     "enum_field_value" : 4,
     "name" : "TCA_POLICE_AVRATE"
    },
    {
     "enum_field_value" : 5,
     "name" : "TCA_POLICE_RESULT"
    },
    {
     "enum_field_value" : 6,
     "name" : "__TCA_POLICE_MAX"
    }
   ],
   "linker_set_key" : "_ZTI18$TCA_POLICE_AVRATE",
   "name" : "(anonymous enum at external/libnl/include/linux-private/linux/pkt_cls.h:156:1)",
   "referenced_type" : "_ZTI18$TCA_POLICE_AVRATE",
   "self_type" : "_ZTI18$TCA_POLICE_AVRATE",
   "size" : 4,
   "source_file" : "/external/libnl/include/linux-private/linux/pkt_cls.h",
   "underlying_type" : "_ZTIj"
  },
  {
   "alignment" : 4,
   "enum_fields" :
   [
    {
     "enum_field_value" : 0,
     "name" : "CTRL_ATTR_OP_UNSPEC"
    },
    {
     "enum_field_value" : 1,
     "name" : "CTRL_ATTR_OP_ID"
    },
    {
     "enum_field_value" : 2,
     "name" : "CTRL_ATTR_OP_FLAGS"
    },
    {
     "enum_field_value" : 3,
     "name" : "__CTRL_ATTR_OP_MAX"
    }
   ],
   "linker_set_key" : "_ZTI19$CTRL_ATTR_OP_FLAGS",
   "name" : "(anonymous enum at external/libnl/include/linux-private/linux/genetlink.h:65:1)",
   "referenced_type" : "_ZTI19$CTRL_ATTR_OP_FLAGS",
   "self_type" : "_ZTI19$CTRL_ATTR_OP_FLAGS",
   "size" : 4,
   "source_file" : "/external/libnl/include/linux-private/linux/genetlink.h",
   "underlying_type" : "_ZTIj"
  },
  {
   "alignment" : 4,
   "enum_fields" :
   [
    {
     "enum_field_value" : 0,
     "name" : "CTRL_CMD_UNSPEC"
    },
    {
     "enum_field_value" : 1,
     "name" : "CTRL_CMD_NEWFAMILY"
    },
    {
     "enum_field_value" : 2,
     "name" : "CTRL_CMD_DELFAMILY"
    },
    {
     "enum_field_value" : 3,
     "name" : "CTRL_CMD_GETFAMILY"
    },
    {
     "enum_field_value" : 4,
     "name" : "CTRL_CMD_NEWOPS"
    },
    {
     "enum_field_value" : 5,
     "name" : "CTRL_CMD_DELOPS"
    },
    {
     "enum_field_value" : 6,
     "name" : "CTRL_CMD_GETOPS"
    },
    {
     "enum_field_value" : 7,
     "name" : "CTRL_CMD_NEWMCAST_GRP"
    },
    {
     "enum_field_value" : 8,
     "name" : "CTRL_CMD_DELMCAST_GRP"
    },
    {
     "enum_field_value" : 9,
     "name" : "CTRL_CMD_GETMCAST_GRP"
    },
    {
     "enum_field_value" : 10,
     "name" : "__CTRL_CMD_MAX"
    }
   ],
   "linker_set_key" : "_ZTI19$CTRL_CMD_DELFAMILY",
   "name" : "(anonymous enum at external/libnl/include/linux-private/linux/genetlink.h:35:1)",
   "referenced_type" : "_ZTI19$CTRL_CMD_DELFAMILY",
   "self_type" : "_ZTI19$CTRL_CMD_DELFAMILY",
   "size" : 4,
   "source_file" : "/external/libnl/include/linux-private/linux/genetlink.h",
   "underlying_type" : "_ZTIj"
  },
  {
   "alignment" : 4,
   "enum_fields" :
   [
    {
     "enum_field_value" : 0,
     "name" : "DEVCONF_FORWARDING"
    },
    {
     "enum_field_value" : 1,
     "name" : "DEVCONF_HOPLIMIT"
    },
    {
     "enum_field_value" : 2,
     "name" : "DEVCONF_MTU6"
    },
    {
     "enum_field_value" : 3,
     "name" : "DEVCONF_ACCEPT_RA"
    },
    {
     "enum_field_value" : 4,
     "name" : "DEVCONF_ACCEPT_REDIRECTS"
    },
    {
     "enum_field_value" : 5,
     "name" : "DEVCONF_AUTOCONF"
    },
    {
     "enum_field_value" : 6,
     "name" : "DEVCONF_DAD_TRANSMITS"
    },
    {
     "enum_field_value" : 7,
     "name" : "DEVCONF_RTR_SOLICITS"
    },
    {
     "enum_field_value" : 8,
     "name" : "DEVCONF_RTR_SOLICIT_INTERVAL"
    },
    {
     "enum_field_value" : 9,
     "name" : "DEVCONF_RTR_SOLICIT_DELAY"
    },
    {
     "enum_field_value" : 10,
     "name" : "DEVCONF_USE_TEMPADDR"
    },
    {
     "enum_field_value" : 11,
     "name" : "DEVCONF_TEMP_VALID_LFT"
    },
    {
     "enum_field_value" : 12,
     "name" : "DEVCONF_TEMP_PREFERED_LFT"
    },
    {
     "enum_field_value" : 13,
     "name" : "DEVCONF_REGEN_MAX_RETRY"
    },
    {
     "enum_field_value" : 14,
     "name" : "DEVCONF_MAX_DESYNC_FACTOR"
    },
    {
     "enum_field_value" : 15,
     "name" : "DEVCONF_MAX_ADDRESSES"
    },
    {
     "enum_field_value" : 16,
     "name" : "DEVCONF_FORCE_MLD_VERSION"
    },
    {
     "enum_field_value" : 17,
     "name" : "DEVCONF_ACCEPT_RA_DEFRTR"
    },
    {
     "enum_field_value" : 18,
     "name" : "DEVCONF_ACCEPT_RA_PINFO"
    },
    {
     "enum_field_value" : 19,
     "name" : "DEVCONF_ACCEPT_RA_RTR_PREF"
    },
    {
     "enum_field_value" : 20,
     "name" : "DEVCONF_RTR_PROBE_INTERVAL"
    },
    {
     "enum_field_value" : 21,
     "name" : "DEVCONF_ACCEPT_RA_RT_INFO_MAX_PLEN"
    },
    {
     "enum_field_value" : 22,
     "name" : "DEVCONF_PROXY_NDP"
    },
    {
     "enum_field_value" : 23,
     "name" : "DEVCONF_OPTIMISTIC_DAD"
    },
    {
     "enum_field_value" : 24,
     "name" : "DEVCONF_ACCEPT_SOURCE_ROUTE"
    },
    {
     "enum_field_value" : 25,
     "name" : "DEVCONF_MC_FORWARDING"
    },
    {
     "enum_field_value" : 26,
     "name" : "DEVCONF_DISABLE_IPV6"
    },
    {
     "enum_field_value" : 27,
     "name" : "DEVCONF_ACCEPT_DAD"
    },
    {
     "enum_field_value" : 28,
     "name" : "DEVCONF_FORCE_TLLAO"
    },
    {
     "enum_field_value" : 29,
     "name" : "DEVCONF_MAX"
    }
   ],
   "linker_set_key" : "_ZTI19$DEVCONF_ACCEPT_DAD",
   "name" : "(anonymous enum at external/libnl/include/linux-private/linux/ipv6.h:112:1)",
   "referenced_type" : "_ZTI19$DEVCONF_ACCEPT_DAD",
   "self_type" : "_ZTI19$DEVCONF_ACCEPT_DAD",
   "size" : 4,
   "source_file" : "/external/libnl/include/linux-private/linux/ipv6.h",
   "underlying_type" : "_ZTIj"
  },
  {
   "alignment" : 4,
   "enum_fields" :
   [
    {
     "enum_field_value" : 0,
     "name" : "IFLA_MACVLAN_UNSPEC"
    },
    {
     "enum_field_value" : 1,
     "name" : "IFLA_MACVLAN_MODE"
    },
    {
     "enum_field_value" : 2,
     "name" : "IFLA_MACVLAN_FLAGS"
    },
    {
     "enum_field_value" : 3,
     "name" : "__IFLA_MACVLAN_MAX"
    }
   ],
   "linker_set_key" : "_ZTI19$IFLA_MACVLAN_FLAGS",
   "name" : "(anonymous enum at external/libnl/include/linux-private/linux/if_link.h:272:1)",
   "referenced_type" : "_ZTI19$IFLA_MACVLAN_FLAGS",
   "self_type" : "_ZTI19$IFLA_MACVLAN_FLAGS",
   "size" : 4,
   "source_file" : "/external/libnl/include/linux-private/linux/if_link.h",
   "underlying_type" : "_ZTIj"
  },
  {
   "alignment" : 4,
   "enum_fields" :
   [
    {
     "enum_field_value" : 0,
     "name" : "IPSTATS_MIB_NUM"
    },
    {
     "enum_field_value" : 1,
     "name" : "IPSTATS_MIB_INPKTS"
    },
    {
     "enum_field_value" : 2,
     "name" : "IPSTATS_MIB_INOCTETS"
    },
    {
     "enum_field_value" : 3,
     "name" : "IPSTATS_MIB_INDELIVERS"
    },
    {
     "enum_field_value" : 4,
     "name" : "IPSTATS_MIB_OUTFORWDATAGRAMS"
    },
    {
     "enum_field_value" : 5,
     "name" : "IPSTATS_MIB_OUTPKTS"
    },
    {
     "enum_field_value" : 6,
     "name" : "IPSTATS_MIB_OUTOCTETS"
    },
    {
     "enum_field_value" : 7,
     "name" : "IPSTATS_MIB_INHDRERRORS"
    },
    {
     "enum_field_value" : 8,
     "name" : "IPSTATS_MIB_INTOOBIGERRORS"
    },
    {
     "enum_field_value" : 9,
     "name" : "IPSTATS_MIB_INNOROUTES"
    },
    {
     "enum_field_value" : 10,
     "name" : "IPSTATS_MIB_INADDRERRORS"
    },
    {
     "enum_field_value" : 11,
     "name" : "IPSTATS_MIB_INUNKNOWNPROTOS"
    },
    {
     "enum_field_value" : 12,
     "name" : "IPSTATS_MIB_INTRUNCATEDPKTS"
    },
    {
     "enum_field_value" : 13,
     "name" : "IPSTATS_MIB_INDISCARDS"
    },
    {
     "enum_field_value" : 14,
     "name" : "IPSTATS_MIB_OUTDISCARDS"
    },
    {
     "enum_field_value" : 15,
     "name" : "IPSTATS_MIB_OUTNOROUTES"
    },
    {
     "enum_field_value" : 16,
     "name" : "IPSTATS_MIB_REASMTIMEOUT"
    },
    {
     "enum_field_value" : 17,
     "name" : "IPSTATS_MIB_REASMREQDS"
    },
    {
     "enum_field_value" : 18,
     "name" : "IPSTATS_MIB_REASMOKS"
    },
    {
     "enum_field_value" : 19,
     "name" : "IPSTATS_MIB_REASMFAILS"
    },
    {
     "enum_field_value" : 20,
     "name" : "IPSTATS_MIB_FRAGOKS"
    },
    {
     "enum_field_value" : 21,
     "name" : "IPSTATS_MIB_FRAGFAILS"
    },
    {
     "enum_field_value" : 22,
     "name" : "IPSTATS_MIB_FRAGCREATES"
    },
    {
     "enum_field_value" : 23,
     "name" : "IPSTATS_MIB_INMCASTPKTS"
    },
    {
     "enum_field_value" : 24,
     "name" : "IPSTATS_MIB_OUTMCASTPKTS"
    },
    {
     "enum_field_value" : 25,
     "name" : "IPSTATS_MIB_INBCASTPKTS"
    },
    {
     "enum_field_value" : 26,
     "name" : "IPSTATS_MIB_OUTBCASTPKTS"
    },
    {
     "enum_field_value" : 27,
     "name" : "IPSTATS_MIB_INMCASTOCTETS"
    },
    {
     "enum_field_value" : 28,
     "name" : "IPSTATS_MIB_OUTMCASTOCTETS"
    },
    {
     "enum_field_value" : 29,
     "name" : "IPSTATS_MIB_INBCASTOCTETS"
    },
    {
     "enum_field_value" : 30,
     "name" : "IPSTATS_MIB_OUTBCASTOCTETS"
    },
    {
     "enum_field_value" : 31,
     "name" : "IPSTATS_MIB_CSUMERRORS"
    },
    {
     "enum_field_value" : 32,
     "name" : "IPSTATS_MIB_NOECTPKTS"
    },
    {
     "enum_field_value" : 33,
     "name" : "IPSTATS_MIB_ECT1PKTS"
    },
    {
     "enum_field_value" : 34,
     "name" : "IPSTATS_MIB_ECT0PKTS"
    },
    {
     "enum_field_value" : 35,
     "name" : "IPSTATS_MIB_CEPKTS"
    },
    {
     "enum_field_value" : 36,
     "name" : "__IPSTATS_MIB_MAX"
    }
   ],
   "linker_set_key" : "_ZTI19$IPSTATS_MIB_CEPKTS",
   "name" : "(anonymous enum at external/libnl/include/linux-private/linux/snmp.h:18:1)",
   "referenced_type" : "_ZTI19$IPSTATS_MIB_CEPKTS",
   "self_type" : "_ZTI19$IPSTATS_MIB_CEPKTS",
   "size" : 4,
   "source_file" : "/external/libnl/include/linux-private/linux/snmp.h",
   "underlying_type" : "_ZTIj"
  },
  {
   "alignment" : 4,
   "enum_fields" :
   [
    {
     "enum_field_value" : 0,
     "name" : "UDP_MIB_NUM"
    },
    {
     "enum_field_value" : 1,
     "name" : "UDP_MIB_INDATAGRAMS"
    },
    {
     "enum_field_value" : 2,
     "name" : "UDP_MIB_NOPORTS"
    },
    {
     "enum_field_value" : 3,
     "name" : "UDP_MIB_INERRORS"
    },
    {
     "enum_field_value" : 4,
     "name" : "UDP_MIB_OUTDATAGRAMS"
    },
    {
     "enum_field_value" : 5,
     "name" : "UDP_MIB_RCVBUFERRORS"
    },
    {
     "enum_field_value" : 6,
     "name" : "UDP_MIB_SNDBUFERRORS"
    },
    {
     "enum_field_value" : 7,
     "name" : "UDP_MIB_CSUMERRORS"
    },
    {
     "enum_field_value" : 8,
     "name" : "__UDP_MIB_MAX"
    }
   ],
   "linker_set_key" : "_ZTI19$UDP_MIB_CSUMERRORS",
   "name" : "(anonymous enum at external/libnl/include/linux-private/linux/snmp.h:149:1)",
   "referenced_type" : "_ZTI19$UDP_MIB_CSUMERRORS",
   "self_type" : "_ZTI19$UDP_MIB_CSUMERRORS",
   "size" : 4,
   "source_file" : "/external/libnl/include/linux-private/linux/snmp.h",
   "underlying_type" : "_ZTIj"
  },
  {
   "alignment" : 4,
   "enum_fields" :
   [
    {
     "enum_field_value" : 0,
     "name" : "RTNL_LINK_RX_PACKETS"
    },
    {
     "enum_field_value" : 1,
     "name" : "RTNL_LINK_TX_PACKETS"
    },
    {
     "enum_field_value" : 2,
     "name" : "RTNL_LINK_RX_BYTES"
    },
    {
     "enum_field_value" : 3,
     "name" : "RTNL_LINK_TX_BYTES"
    },
    {
     "enum_field_value" : 4,
     "name" : "RTNL_LINK_RX_ERRORS"
    },
    {
     "enum_field_value" : 5,
     "name" : "RTNL_LINK_TX_ERRORS"
    },
    {
     "enum_field_value" : 6,
     "name" : "RTNL_LINK_RX_DROPPED"
    },
    {
     "enum_field_value" : 7,
     "name" : "RTNL_LINK_TX_DROPPED"
    },
    {
     "enum_field_value" : 8,
     "name" : "RTNL_LINK_RX_COMPRESSED"
    },
    {
     "enum_field_value" : 9,
     "name" : "RTNL_LINK_TX_COMPRESSED"
    },
    {
     "enum_field_value" : 10,
     "name" : "RTNL_LINK_RX_FIFO_ERR"
    },
    {
     "enum_field_value" : 11,
     "name" : "RTNL_LINK_TX_FIFO_ERR"
    },
    {
     "enum_field_value" : 12,
     "name" : "RTNL_LINK_RX_LEN_ERR"
    },
    {
     "enum_field_value" : 13,
     "name" : "RTNL_LINK_RX_OVER_ERR"
    },
    {
     "enum_field_value" : 14,
     "name" : "RTNL_LINK_RX_CRC_ERR"
    },
    {
     "enum_field_value" : 15,
     "name" : "RTNL_LINK_RX_FRAME_ERR"
    },
    {
     "enum_field_value" : 16,
     "name" : "RTNL_LINK_RX_MISSED_ERR"
    },
    {
     "enum_field_value" : 17,
     "name" : "RTNL_LINK_TX_ABORT_ERR"
    },
    {
     "enum_field_value" : 18,
     "name" : "RTNL_LINK_TX_CARRIER_ERR"
    },
    {
     "enum_field_value" : 19,
     "name" : "RTNL_LINK_TX_HBEAT_ERR"
    },
    {
     "enum_field_value" : 20,
     "name" : "RTNL_LINK_TX_WIN_ERR"
    },
    {
     "enum_field_value" : 21,
     "name" : "RTNL_LINK_COLLISIONS"
    },
    {
     "enum_field_value" : 22,
     "name" : "RTNL_LINK_MULTICAST"
    },
    {
     "enum_field_value" : 23,
     "name" : "RTNL_LINK_IP6_INPKTS"
    },
    {
     "enum_field_value" : 24,
     "name" : "RTNL_LINK_IP6_INHDRERRORS"
    },
    {
     "enum_field_value" : 25,
     "name" : "RTNL_LINK_IP6_INTOOBIGERRORS"
    },
    {
     "enum_field_value" : 26,
     "name" : "RTNL_LINK_IP6_INNOROUTES"
    },
    {
     "enum_field_value" : 27,
     "name" : "RTNL_LINK_IP6_INADDRERRORS"
    },
    {
     "enum_field_value" : 28,
     "name" : "RTNL_LINK_IP6_INUNKNOWNPROTOS"
    },
    {
     "enum_field_value" : 29,
     "name" : "RTNL_LINK_IP6_INTRUNCATEDPKTS"
    },
    {
     "enum_field_value" : 30,
     "name" : "RTNL_LINK_IP6_INDISCARDS"
    },
    {
     "enum_field_value" : 31,
     "name" : "RTNL_LINK_IP6_INDELIVERS"
    },
    {
     "enum_field_value" : 32,
     "name" : "RTNL_LINK_IP6_OUTFORWDATAGRAMS"
    },
    {
     "enum_field_value" : 33,
     "name" : "RTNL_LINK_IP6_OUTPKTS"
    },
    {
     "enum_field_value" : 34,
     "name" : "RTNL_LINK_IP6_OUTDISCARDS"
    },
    {
     "enum_field_value" : 35,
     "name" : "RTNL_LINK_IP6_OUTNOROUTES"
    },
    {
     "enum_field_value" : 36,
     "name" : "RTNL_LINK_IP6_REASMTIMEOUT"
    },
    {
     "enum_field_value" : 37,
     "name" : "RTNL_LINK_IP6_REASMREQDS"
    },
    {
     "enum_field_value" : 38,
     "name" : "RTNL_LINK_IP6_REASMOKS"
    },
    {
     "enum_field_value" : 39,
     "name" : "RTNL_LINK_IP6_REASMFAILS"
    },
    {
     "enum_field_value" : 40,
     "name" : "RTNL_LINK_IP6_FRAGOKS"
    },
    {
     "enum_field_value" : 41,
     "name" : "RTNL_LINK_IP6_FRAGFAILS"
    },
    {
     "enum_field_value" : 42,
     "name" : "RTNL_LINK_IP6_FRAGCREATES"
    },
    {
     "enum_field_value" : 43,
     "name" : "RTNL_LINK_IP6_INMCASTPKTS"
    },
    {
     "enum_field_value" : 44,
     "name" : "RTNL_LINK_IP6_OUTMCASTPKTS"
    },
    {
     "enum_field_value" : 45,
     "name" : "RTNL_LINK_IP6_INBCASTPKTS"
    },
    {
     "enum_field_value" : 46,
     "name" : "RTNL_LINK_IP6_OUTBCASTPKTS"
    },
    {
     "enum_field_value" : 47,
     "name" : "RTNL_LINK_IP6_INOCTETS"
    },
    {
     "enum_field_value" : 48,
     "name" : "RTNL_LINK_IP6_OUTOCTETS"
    },
    {
     "enum_field_value" : 49,
     "name" : "RTNL_LINK_IP6_INMCASTOCTETS"
    },
    {
     "enum_field_value" : 50,
     "name" : "RTNL_LINK_IP6_OUTMCASTOCTETS"
    },
    {
     "enum_field_value" : 51,
     "name" : "RTNL_LINK_IP6_INBCASTOCTETS"
    },
    {
     "enum_field_value" : 52,
     "name" : "RTNL_LINK_IP6_OUTBCASTOCTETS"
    },
    {
     "enum_field_value" : 53,
     "name" : "RTNL_LINK_ICMP6_INMSGS"
    },
    {
     "enum_field_value" : 54,
     "name" : "RTNL_LINK_ICMP6_INERRORS"
    },
    {
     "enum_field_value" : 55,
     "name" : "RTNL_LINK_ICMP6_OUTMSGS"
    },
    {
     "enum_field_value" : 56,
     "name" : "RTNL_LINK_ICMP6_OUTERRORS"
    },
    {
     "enum_field_value" : 57,
     "name" : "RTNL_LINK_ICMP6_CSUMERRORS"
    },
    {
     "enum_field_value" : 58,
     "name" : "RTNL_LINK_IP6_CSUMERRORS"
    },
    {
     "enum_field_value" : 59,
     "name" : "RTNL_LINK_IP6_NOECTPKTS"
    },
    {
     "enum_field_value" : 60,
     "name" : "RTNL_LINK_IP6_ECT1PKTS"
    },
    {
     "enum_field_value" : 61,
     "name" : "RTNL_LINK_IP6_ECT0PKTS"
    },
    {
     "enum_field_value" : 62,
     "name" : "RTNL_LINK_IP6_CEPKTS"
    },
    {
     "enum_field_value" : 63,
     "name" : "__RTNL_LINK_STATS_MAX"
    }
   ],
   "linker_set_key" : "_ZTI19rtnl_link_stat_id_t",
   "name" : "rtnl_link_stat_id_t",
   "referenced_type" : "_ZTI19rtnl_link_stat_id_t",
   "self_type" : "_ZTI19rtnl_link_stat_id_t",
   "size" : 4,
   "source_file" : "/external/libnl/include/netlink/route/link.h",
   "underlying_type" : "_ZTIj"
  },
  {
   "alignment" : 4,
   "enum_fields" :
   [
    {
     "enum_field_value" : 0,
     "name" : "BRIDGE_MODE_UNSPEC"
    },
    {
     "enum_field_value" : 1,
     "name" : "BRIDGE_MODE_HAIRPIN"
    }
   ],
   "linker_set_key" : "_ZTI20$BRIDGE_MODE_HAIRPIN",
   "name" : "(anonymous enum at external/libnl/include/linux-private/linux/if_link.h:204:1)",
   "referenced_type" : "_ZTI20$BRIDGE_MODE_HAIRPIN",
   "self_type" : "_ZTI20$BRIDGE_MODE_HAIRPIN",
   "size" : 4,
   "source_file" : "/external/libnl/include/linux-private/linux/if_link.h",
   "underlying_type" : "_ZTIj"
  },
  {
   "alignment" : 4,
   "enum_fields" :
   [
    {
     "enum_field_value" : 0,
     "name" : "CTRL_ATTR_UNSPEC"
    },
    {
     "enum_field_value" : 1,
     "name" : "CTRL_ATTR_FAMILY_ID"
    },
    {
     "enum_field_value" : 2,
     "name" : "CTRL_ATTR_FAMILY_NAME"
    },
    {
     "enum_field_value" : 3,
     "name" : "CTRL_ATTR_VERSION"
    },
    {
     "enum_field_value" : 4,
     "name" : "CTRL_ATTR_HDRSIZE"
    },
    {
     "enum_field_value" : 5,
     "name" : "CTRL_ATTR_MAXATTR"
    },
    {
     "enum_field_value" : 6,
     "name" : "CTRL_ATTR_OPS"
    },
    {
     "enum_field_value" : 7,
     "name" : "CTRL_ATTR_MCAST_GROUPS"
    },
    {
     "enum_field_value" : 8,
     "name" : "__CTRL_ATTR_MAX"
    }
   ],
   "linker_set_key" : "_ZTI20$CTRL_ATTR_FAMILY_ID",
   "name" : "(anonymous enum at external/libnl/include/linux-private/linux/genetlink.h:51:1)",
   "referenced_type" : "_ZTI20$CTRL_ATTR_FAMILY_ID",
   "self_type" : "_ZTI20$CTRL_ATTR_FAMILY_ID",
   "size" : 4,
   "source_file" : "/external/libnl/include/linux-private/linux/genetlink.h",
   "underlying_type" : "_ZTIj"
  },
  {
   "alignment" : 4,
   "enum_fields" :
   [
    {
     "enum_field_value" : 0,
     "name" : "ICMP_MIB_NUM"
    },
    {
     "enum_field_value" : 1,
     "name" : "ICMP_MIB_INMSGS"
    },
    {
     "enum_field_value" : 2,
     "name" : "ICMP_MIB_INERRORS"
    },
    {
     "enum_field_value" : 3,
     "name" : "ICMP_MIB_INDESTUNREACHS"
    },
    {
     "enum_field_value" : 4,
     "name" : "ICMP_MIB_INTIMEEXCDS"
    },
    {
     "enum_field_value" : 5,
     "name" : "ICMP_MIB_INPARMPROBS"
    },
    {
     "enum_field_value" : 6,
     "name" : "ICMP_MIB_INSRCQUENCHS"
    },
    {
     "enum_field_value" : 7,
     "name" : "ICMP_MIB_INREDIRECTS"
    },
    {
     "enum_field_value" : 8,
     "name" : "ICMP_MIB_INECHOS"
    },
    {
     "enum_field_value" : 9,
     "name" : "ICMP_MIB_INECHOREPS"
    },
    {
     "enum_field_value" : 10,
     "name" : "ICMP_MIB_INTIMESTAMPS"
    },
    {
     "enum_field_value" : 11,
     "name" : "ICMP_MIB_INTIMESTAMPREPS"
    },
    {
     "enum_field_value" : 12,
     "name" : "ICMP_MIB_INADDRMASKS"
    },
    {
     "enum_field_value" : 13,
     "name" : "ICMP_MIB_INADDRMASKREPS"
    },
    {
     "enum_field_value" : 14,
     "name" : "ICMP_MIB_OUTMSGS"
    },
    {
     "enum_field_value" : 15,
     "name" : "ICMP_MIB_OUTERRORS"
    },
    {
     "enum_field_value" : 16,
     "name" : "ICMP_MIB_OUTDESTUNREACHS"
    },
    {
     "enum_field_value" : 17,
     "name" : "ICMP_MIB_OUTTIMEEXCDS"
    },
    {
     "enum_field_value" : 18,
     "name" : "ICMP_MIB_OUTPARMPROBS"
    },
    {
     "enum_field_value" : 19,
     "name" : "ICMP_MIB_OUTSRCQUENCHS"
    },
    {
     "enum_field_value" : 20,
     "name" : "ICMP_MIB_OUTREDIRECTS"
    },
    {
     "enum_field_value" : 21,
     "name" : "ICMP_MIB_OUTECHOS"
    },
    {
     "enum_field_value" : 22,
     "name" : "ICMP_MIB_OUTECHOREPS"
    },
    {
     "enum_field_value" : 23,
     "name" : "ICMP_MIB_OUTTIMESTAMPS"
    },
    {
     "enum_field_value" : 24,
     "name" : "ICMP_MIB_OUTTIMESTAMPREPS"
    },
    {
     "enum_field_value" : 25,
     "name" : "ICMP_MIB_OUTADDRMASKS"
    },
    {
     "enum_field_value" : 26,
     "name" : "ICMP_MIB_OUTADDRMASKREPS"
    },
    {
     "enum_field_value" : 27,
     "name" : "ICMP_MIB_CSUMERRORS"
    },
    {
     "enum_field_value" : 28,
     "name" : "__ICMP_MIB_MAX"
    }
   ],
   "linker_set_key" : "_ZTI20$ICMP_MIB_CSUMERRORS",
   "name" : "(anonymous enum at external/libnl/include/linux-private/linux/snmp.h:66:1)",
   "referenced_type" : "_ZTI20$ICMP_MIB_CSUMERRORS",
   "self_type" : "_ZTI20$ICMP_MIB_CSUMERRORS",
   "size" : 4,
   "source_file" : "/external/libnl/include/linux-private/linux/snmp.h",
   "underlying_type" : "_ZTIj"
  },
  {
   "alignment" : 4,
   "enum_fields" :
   [
    {
     "enum_field_value" : 0,
     "name" : "IFLA_PORT_UNSPEC"
    },
    {
     "enum_field_value" : 1,
     "name" : "IFLA_PORT_VF"
    },
    {
     "enum_field_value" : 2,
     "name" : "IFLA_PORT_PROFILE"
    },
    {
     "enum_field_value" : 3,
     "name" : "IFLA_PORT_VSI_TYPE"
    },
    {
     "enum_field_value" : 4,
     "name" : "IFLA_PORT_INSTANCE_UUID"
    },
    {
     "enum_field_value" : 5,
     "name" : "IFLA_PORT_HOST_UUID"
    },
    {
     "enum_field_value" : 6,
     "name" : "IFLA_PORT_REQUEST"
    },
    {
     "enum_field_value" : 7,
     "name" : "IFLA_PORT_RESPONSE"
    },
    {
     "enum_field_value" : 8,
     "name" : "__IFLA_PORT_MAX"
    }
   ],
   "linker_set_key" : "_ZTI20$IFLA_PORT_HOST_UUID",
   "name" : "(anonymous enum at external/libnl/include/linux-private/linux/if_link.h:389:1)",
   "referenced_type" : "_ZTI20$IFLA_PORT_HOST_UUID",
   "self_type" : "_ZTI20$IFLA_PORT_HOST_UUID",
   "size" : 4,
   "source_file" : "/external/libnl/include/linux-private/linux/if_link.h",
   "underlying_type" : "_ZTIj"
  },
  {
   "alignment" : 4,
   "enum_fields" :
   [
    {
     "enum_field_value" : 0,
     "name" : "LINUX_MIB_NUM"
    },
    {
     "enum_field_value" : 1,
     "name" : "LINUX_MIB_SYNCOOKIESSENT"
    },
    {
     "enum_field_value" : 2,
     "name" : "LINUX_MIB_SYNCOOKIESRECV"
    },
    {
     "enum_field_value" : 3,
     "name" : "LINUX_MIB_SYNCOOKIESFAILED"
    },
    {
     "enum_field_value" : 4,
     "name" : "LINUX_MIB_EMBRYONICRSTS"
    },
    {
     "enum_field_value" : 5,
     "name" : "LINUX_MIB_PRUNECALLED"
    },
    {
     "enum_field_value" : 6,
     "name" : "LINUX_MIB_RCVPRUNED"
    },
    {
     "enum_field_value" : 7,
     "name" : "LINUX_MIB_OFOPRUNED"
    },
    {
     "enum_field_value" : 8,
     "name" : "LINUX_MIB_OUTOFWINDOWICMPS"
    },
    {
     "enum_field_value" : 9,
     "name" : "LINUX_MIB_LOCKDROPPEDICMPS"
    },
    {
     "enum_field_value" : 10,
     "name" : "LINUX_MIB_ARPFILTER"
    },
    {
     "enum_field_value" : 11,
     "name" : "LINUX_MIB_TIMEWAITED"
    },
    {
     "enum_field_value" : 12,
     "name" : "LINUX_MIB_TIMEWAITRECYCLED"
    },
    {
     "enum_field_value" : 13,
     "name" : "LINUX_MIB_TIMEWAITKILLED"
    },
    {
     "enum_field_value" : 14,
     "name" : "LINUX_MIB_PAWSPASSIVEREJECTED"
    },
    {
     "enum_field_value" : 15,
     "name" : "LINUX_MIB_PAWSACTIVEREJECTED"
    },
    {
     "enum_field_value" : 16,
     "name" : "LINUX_MIB_PAWSESTABREJECTED"
    },
    {
     "enum_field_value" : 17,
     "name" : "LINUX_MIB_DELAYEDACKS"
    },
    {
     "enum_field_value" : 18,
     "name" : "LINUX_MIB_DELAYEDACKLOCKED"
    },
    {
     "enum_field_value" : 19,
     "name" : "LINUX_MIB_DELAYEDACKLOST"
    },
    {
     "enum_field_value" : 20,
     "name" : "LINUX_MIB_LISTENOVERFLOWS"
    },
    {
     "enum_field_value" : 21,
     "name" : "LINUX_MIB_LISTENDROPS"
    },
    {
     "enum_field_value" : 22,
     "name" : "LINUX_MIB_TCPPREQUEUED"
    },
    {
     "enum_field_value" : 23,
     "name" : "LINUX_MIB_TCPDIRECTCOPYFROMBACKLOG"
    },
    {
     "enum_field_value" : 24,
     "name" : "LINUX_MIB_TCPDIRECTCOPYFROMPREQUEUE"
    },
    {
     "enum_field_value" : 25,
     "name" : "LINUX_MIB_TCPPREQUEUEDROPPED"
    },
    {
     "enum_field_value" : 26,
     "name" : "LINUX_MIB_TCPHPHITS"
    },
    {
     "enum_field_value" : 27,
     "name" : "LINUX_MIB_TCPHPHITSTOUSER"
    },
    {
     "enum_field_value" : 28,
     "name" : "LINUX_MIB_TCPPUREACKS"
    },
    {
     "enum_field_value" : 29,
     "name" : "LINUX_MIB_TCPHPACKS"
    },
    {
     "enum_field_value" : 30,
     "name" : "LINUX_MIB_TCPRENORECOVERY"
    },
    {
     "enum_field_value" : 31,
     "name" : "LINUX_MIB_TCPSACKRECOVERY"
    },
    {
     "enum_field_value" : 32,
     "name" : "LINUX_MIB_TCPSACKRENEGING"
    },
    {
     "enum_field_value" : 33,
     "name" : "LINUX_MIB_TCPFACKREORDER"
    },
    {
     "enum_field_value" : 34,
     "name" : "LINUX_MIB_TCPSACKREORDER"
    },
    {
     "enum_field_value" : 35,
     "name" : "LINUX_MIB_TCPRENOREORDER"
    },
    {
     "enum_field_value" : 36,
     "name" : "LINUX_MIB_TCPTSREORDER"
    },
    {
     "enum_field_value" : 37,
     "name" : "LINUX_MIB_TCPFULLUNDO"
    },
    {
     "enum_field_value" : 38,
     "name" : "LINUX_MIB_TCPPARTIALUNDO"
    },
    {
     "enum_field_value" : 39,
     "name" : "LINUX_MIB_TCPDSACKUNDO"
    },
    {
     "enum_field_value" : 40,
     "name" : "LINUX_MIB_TCPLOSSUNDO"
    },
    {
     "enum_field_value" : 41,
     "name" : "LINUX_MIB_TCPLOSTRETRANSMIT"
    },
    {
     "enum_field_value" : 42,
     "name" : "LINUX_MIB_TCPRENOFAILURES"
    },
    {
     "enum_field_value" : 43,
     "name" : "LINUX_MIB_TCPSACKFAILURES"
    },
    {
     "enum_field_value" : 44,
     "name" : "LINUX_MIB_TCPLOSSFAILURES"
    },
    {
     "enum_field_value" : 45,
     "name" : "LINUX_MIB_TCPFASTRETRANS"
    },
    {
     "enum_field_value" : 46,
     "name" : "LINUX_MIB_TCPFORWARDRETRANS"
    },
    {
     "enum_field_value" : 47,
     "name" : "LINUX_MIB_TCPSLOWSTARTRETRANS"
    },
    {
     "enum_field_value" : 48,
     "name" : "LINUX_MIB_TCPTIMEOUTS"
    },
    {
     "enum_field_value" : 49,
     "name" : "LINUX_MIB_TCPLOSSPROBES"
    },
    {
     "enum_field_value" : 50,
     "name" : "LINUX_MIB_TCPLOSSPROBERECOVERY"
    },
    {
     "enum_field_value" : 51,
     "name" : "LINUX_MIB_TCPRENORECOVERYFAIL"
    },
    {
     "enum_field_value" : 52,
     "name" : "LINUX_MIB_TCPSACKRECOVERYFAIL"
    },
    {
     "enum_field_value" : 53,
     "name" : "LINUX_MIB_TCPSCHEDULERFAILED"
    },
    {
     "enum_field_value" : 54,
     "name" : "LINUX_MIB_TCPRCVCOLLAPSED"
    },
    {
     "enum_field_value" : 55,
     "name" : "LINUX_MIB_TCPDSACKOLDSENT"
    },
    {
     "enum_field_value" : 56,
     "name" : "LINUX_MIB_TCPDSACKOFOSENT"
    },
    {
     "enum_field_value" : 57,
     "name" : "LINUX_MIB_TCPDSACKRECV"
    },
    {
     "enum_field_value" : 58,
     "name" : "LINUX_MIB_TCPDSACKOFORECV"
    },
    {
     "enum_field_value" : 59,
     "name" : "LINUX_MIB_TCPABORTONDATA"
    },
    {
     "enum_field_value" : 60,
     "name" : "LINUX_MIB_TCPABORTONCLOSE"
    },
    {
     "enum_field_value" : 61,
     "name" : "LINUX_MIB_TCPABORTONMEMORY"
    },
    {
     "enum_field_value" : 62,
     "name" : "LINUX_MIB_TCPABORTONTIMEOUT"
    },
    {
     "enum_field_value" : 63,
     "name" : "LINUX_MIB_TCPABORTONLINGER"
    },
    {
     "enum_field_value" : 64,
     "name" : "LINUX_MIB_TCPABORTFAILED"
    },
    {
     "enum_field_value" : 65,
     "name" : "LINUX_MIB_TCPMEMORYPRESSURES"
    },
    {
     "enum_field_value" : 66,
     "name" : "LINUX_MIB_TCPSACKDISCARD"
    },
    {
     "enum_field_value" : 67,
     "name" : "LINUX_MIB_TCPDSACKIGNOREDOLD"
    },
    {
     "enum_field_value" : 68,
     "name" : "LINUX_MIB_TCPDSACKIGNOREDNOUNDO"
    },
    {
     "enum_field_value" : 69,
     "name" : "LINUX_MIB_TCPSPURIOUSRTOS"
    },
    {
     "enum_field_value" : 70,
     "name" : "LINUX_MIB_TCPMD5NOTFOUND"
    },
    {
     "enum_field_value" : 71,
     "name" : "LINUX_MIB_TCPMD5UNEXPECTED"
    },
    {
     "enum_field_value" : 72,
     "name" : "LINUX_MIB_SACKSHIFTED"
    },
    {
     "enum_field_value" : 73,
     "name" : "LINUX_MIB_SACKMERGED"
    },
    {
     "enum_field_value" : 74,
     "name" : "LINUX_MIB_SACKSHIFTFALLBACK"
    },
    {
     "enum_field_value" : 75,
     "name" : "LINUX_MIB_TCPBACKLOGDROP"
    },
    {
     "enum_field_value" : 76,
     "name" : "LINUX_MIB_TCPMINTTLDROP"
    },
    {
     "enum_field_value" : 77,
     "name" : "LINUX_MIB_TCPDEFERACCEPTDROP"
    },
    {
     "enum_field_value" : 78,
     "name" : "LINUX_MIB_IPRPFILTER"
    },
    {
     "enum_field_value" : 79,
     "name" : "LINUX_MIB_TCPTIMEWAITOVERFLOW"
    },
    {
     "enum_field_value" : 80,
     "name" : "LINUX_MIB_TCPREQQFULLDOCOOKIES"
    },
    {
     "enum_field_value" : 81,
     "name" : "LINUX_MIB_TCPREQQFULLDROP"
    },
    {
     "enum_field_value" : 82,
     "name" : "LINUX_MIB_TCPRETRANSFAIL"
    },
    {
     "enum_field_value" : 83,
     "name" : "LINUX_MIB_TCPRCVCOALESCE"
    },
    {
     "enum_field_value" : 84,
     "name" : "LINUX_MIB_TCPOFOQUEUE"
    },
    {
     "enum_field_value" : 85,
     "name" : "LINUX_MIB_TCPOFODROP"
    },
    {
     "enum_field_value" : 86,
     "name" : "LINUX_MIB_TCPOFOMERGE"
    },
    {
     "enum_field_value" : 87,
     "name" : "LINUX_MIB_TCPCHALLENGEACK"
    },
    {
     "enum_field_value" : 88,
     "name" : "LINUX_MIB_TCPSYNCHALLENGE"
    },
    {
     "enum_field_value" : 89,
     "name" : "LINUX_MIB_TCPFASTOPENACTIVE"
    },
    {
     "enum_field_value" : 90,
     "name" : "LINUX_MIB_TCPFASTOPENPASSIVE"
    },
    {
     "enum_field_value" : 91,
     "name" : "LINUX_MIB_TCPFASTOPENPASSIVEFAIL"
    },
    {
     "enum_field_value" : 92,
     "name" : "LINUX_MIB_TCPFASTOPENLISTENOVERFLOW"
    },
    {
     "enum_field_value" : 93,
     "name" : "LINUX_MIB_TCPFASTOPENCOOKIEREQD"
    },
    {
     "enum_field_value" : 94,
     "name" : "LINUX_MIB_TCPSPURIOUS_RTX_HOSTQUEUES"
    },
    {
     "enum_field_value" : 95,
     "name" : "LINUX_MIB_BUSYPOLLRXPACKETS"
    },
    {
     "enum_field_value" : 96,
     "name" : "__LINUX_MIB_MAX"
    }
   ],
   "linker_set_key" : "_ZTI20$LINUX_MIB_ARPFILTER",
   "name" : "(anonymous enum at external/libnl/include/linux-private/linux/snmp.h:163:1)",
   "referenced_type" : "_ZTI20$LINUX_MIB_ARPFILTER",
   "self_type" : "_ZTI20$LINUX_MIB_ARPFILTER",
   "size" : 4,
   "source_file" : "/external/libnl/include/linux-private/linux/snmp.h",
   "underlying_type" : "_ZTIj"
  },
  {
   "alignment" : 4,
   "enum_fields" :
   [
    {
     "enum_field_value" : 0,
     "name" : "NDTPA_UNSPEC"
    },
    {
     "enum_field_value" : 1,
     "name" : "NDTPA_IFINDEX"
    },
    {
     "enum_field_value" : 2,
     "name" : "NDTPA_REFCNT"
    },
    {
     "enum_field_value" : 3,
     "name" : "NDTPA_REACHABLE_TIME"
    },
    {
     "enum_field_value" : 4,
     "name" : "NDTPA_BASE_REACHABLE_TIME"
    },
    {
     "enum_field_value" : 5,
     "name" : "NDTPA_RETRANS_TIME"
    },
    {
     "enum_field_value" : 6,
     "name" : "NDTPA_GC_STALETIME"
    },
    {
     "enum_field_value" : 7,
     "name" : "NDTPA_DELAY_PROBE_TIME"
    },
    {
     "enum_field_value" : 8,
     "name" : "NDTPA_QUEUE_LEN"
    },
    {
     "enum_field_value" : 9,
     "name" : "NDTPA_APP_PROBES"
    },
    {
     "enum_field_value" : 10,
     "name" : "NDTPA_UCAST_PROBES"
    },
    {
     "enum_field_value" : 11,
     "name" : "NDTPA_MCAST_PROBES"
    },
    {
     "enum_field_value" : 12,
     "name" : "NDTPA_ANYCAST_DELAY"
    },
    {
     "enum_field_value" : 13,
     "name" : "NDTPA_PROXY_DELAY"
    },
    {
     "enum_field_value" : 14,
     "name" : "NDTPA_PROXY_QLEN"
    },
    {
     "enum_field_value" : 15,
     "name" : "NDTPA_LOCKTIME"
    },
    {
     "enum_field_value" : 16,
     "name" : "__NDTPA_MAX"
    }
   ],
   "linker_set_key" : "_ZTI20$NDTPA_ANYCAST_DELAY",
   "name" : "(anonymous enum at external/libnl/include/linux-private/linux/neighbour.h:102:1)",
   "referenced_type" : "_ZTI20$NDTPA_ANYCAST_DELAY",
   "self_type" : "_ZTI20$NDTPA_ANYCAST_DELAY",
   "size" : 4,
   "source_file" : "/external/libnl/include/linux-private/linux/neighbour.h",
   "underlying_type" : "_ZTIj"
  },
  {
   "alignment" : 4,
   "enum_fields" :
   [
    {
     "enum_field_value" : 0,
     "name" : "TCA_EMATCH_TREE_UNSPEC"
    },
    {
     "enum_field_value" : 1,
     "name" : "TCA_EMATCH_TREE_HDR"
    },
    {
     "enum_field_value" : 2,
     "name" : "TCA_EMATCH_TREE_LIST"
    },
    {
     "enum_field_value" : 3,
     "name" : "__TCA_EMATCH_TREE_MAX"
    }
   ],
   "linker_set_key" : "_ZTI20$TCA_EMATCH_TREE_HDR",
   "name" : "(anonymous enum at external/libnl/include/linux-private/linux/pkt_cls.h:398:1)",
   "referenced_type" : "_ZTI20$TCA_EMATCH_TREE_HDR",
   "self_type" : "_ZTI20$TCA_EMATCH_TREE_HDR",
   "size" : 4,
   "source_file" : "/external/libnl/include/linux-private/linux/pkt_cls.h",
   "underlying_type" : "_ZTIj"
  },
  {
   "alignment" : 4,
   "enum_fields" :
   [
    {
     "enum_field_value" : 0,
     "name" : "TCP_MIB_NUM"
    },
    {
     "enum_field_value" : 1,
     "name" : "TCP_MIB_RTOALGORITHM"
    },
    {
     "enum_field_value" : 2,
     "name" : "TCP_MIB_RTOMIN"
    },
    {
     "enum_field_value" : 3,
     "name" : "TCP_MIB_RTOMAX"
    },
    {
     "enum_field_value" : 4,
     "name" : "TCP_MIB_MAXCONN"
    },
    {
     "enum_field_value" : 5,
     "name" : "TCP_MIB_ACTIVEOPENS"
    },
    {
     "enum_field_value" : 6,
     "name" : "TCP_MIB_PASSIVEOPENS"
    },
    {
     "enum_field_value" : 7,
     "name" : "TCP_MIB_ATTEMPTFAILS"
    },
    {
     "enum_field_value" : 8,
     "name" : "TCP_MIB_ESTABRESETS"
    },
    {
     "enum_field_value" : 9,
     "name" : "TCP_MIB_CURRESTAB"
    },
    {
     "enum_field_value" : 10,
     "name" : "TCP_MIB_INSEGS"
    },
    {
     "enum_field_value" : 11,
     "name" : "TCP_MIB_OUTSEGS"
    },
    {
     "enum_field_value" : 12,
     "name" : "TCP_MIB_RETRANSSEGS"
    },
    {
     "enum_field_value" : 13,
     "name" : "TCP_MIB_INERRS"
    },
    {
     "enum_field_value" : 14,
     "name" : "TCP_MIB_OUTRSTS"
    },
    {
     "enum_field_value" : 15,
     "name" : "TCP_MIB_CSUMERRORS"
    },
    {
     "enum_field_value" : 16,
     "name" : "__TCP_MIB_MAX"
    }
   ],
   "linker_set_key" : "_ZTI20$TCP_MIB_ACTIVEOPENS",
   "name" : "(anonymous enum at external/libnl/include/linux-private/linux/snmp.h:123:1)",
   "referenced_type" : "_ZTI20$TCP_MIB_ACTIVEOPENS",
   "self_type" : "_ZTI20$TCP_MIB_ACTIVEOPENS",
   "size" : 4,
   "source_file" : "/external/libnl/include/linux-private/linux/snmp.h",
   "underlying_type" : "_ZTIj"
  },
  {
   "alignment" : 4,
   "enum_fields" :
   [
    {
     "enum_field_value" : 0,
     "name" : "ICMP6_MIB_NUM"
    },
    {
     "enum_field_value" : 1,
     "name" : "ICMP6_MIB_INMSGS"
    },
    {
     "enum_field_value" : 2,
     "name" : "ICMP6_MIB_INERRORS"
    },
    {
     "enum_field_value" : 3,
     "name" : "ICMP6_MIB_OUTMSGS"
    },
    {
     "enum_field_value" : 4,
     "name" : "ICMP6_MIB_OUTERRORS"
    },
    {
     "enum_field_value" : 5,
     "name" : "ICMP6_MIB_CSUMERRORS"
    },
    {
     "enum_field_value" : 6,
     "name" : "__ICMP6_MIB_MAX"
    }
   ],
   "linker_set_key" : "_ZTI21$ICMP6_MIB_CSUMERRORS",
   "name" : "(anonymous enum at external/libnl/include/linux-private/linux/snmp.h:105:1)",
   "referenced_type" : "_ZTI21$ICMP6_MIB_CSUMERRORS",
   "self_type" : "_ZTI21$ICMP6_MIB_CSUMERRORS",
   "size" : 4,
   "source_file" : "/external/libnl/include/linux-private/linux/snmp.h",
   "underlying_type" : "_ZTIj"
  },
  {
   "alignment" : 4,
   "enum_fields" :
   [
    {
     "enum_field_value" : 0,
     "name" : "IFLA_INET6_UNSPEC"
    },
    {
     "enum_field_value" : 1,
     "name" : "IFLA_INET6_FLAGS"
    },
    {
     "enum_field_value" : 2,
     "name" : "IFLA_INET6_CONF"
    },
    {
     "enum_field_value" : 3,
     "name" : "IFLA_INET6_STATS"
    },
    {
     "enum_field_value" : 4,
     "name" : "IFLA_INET6_MCAST"
    },
    {
     "enum_field_value" : 5,
     "name" : "IFLA_INET6_CACHEINFO"
    },
    {
     "enum_field_value" : 6,
     "name" : "IFLA_INET6_ICMP6STATS"
    },
    {
     "enum_field_value" : 7,
     "name" : "__IFLA_INET6_MAX"
    }
   ],
   "linker_set_key" : "_ZTI21$IFLA_INET6_CACHEINFO",
   "name" : "(anonymous enum at external/libnl/include/linux-private/linux/if_link.h:191:1)",
   "referenced_type" : "_ZTI21$IFLA_INET6_CACHEINFO",
   "self_type" : "_ZTI21$IFLA_INET6_CACHEINFO",
   "size" : 4,
   "source_file" : "/external/libnl/include/linux-private/linux/if_link.h",
   "underlying_type" : "_ZTIj"
  },
  {
   "alignment" : 4,
   "enum_fields" :
   [
    {
     "enum_field_value" : 0,
     "name" : "IFLA_VLAN_UNSPEC"
    },
    {
     "enum_field_value" : 1,
     "name" : "IFLA_VLAN_ID"
    },
    {
     "enum_field_value" : 2,
     "name" : "IFLA_VLAN_FLAGS"
    },
    {
     "enum_field_value" : 3,
     "name" : "IFLA_VLAN_EGRESS_QOS"
    },
    {
     "enum_field_value" : 4,
     "name" : "IFLA_VLAN_INGRESS_QOS"
    },
    {
     "enum_field_value" : 5,
     "name" : "IFLA_VLAN_PROTOCOL"
    },
    {
     "enum_field_value" : 6,
     "name" : "__IFLA_VLAN_MAX"
    }
   ],
   "linker_set_key" : "_ZTI21$IFLA_VLAN_EGRESS_QOS",
   "name" : "(anonymous enum at external/libnl/include/linux-private/linux/if_link.h:241:1)",
   "referenced_type" : "_ZTI21$IFLA_VLAN_EGRESS_QOS",
   "self_type" : "_ZTI21$IFLA_VLAN_EGRESS_QOS",
   "size" : 4,
   "source_file" : "/external/libnl/include/linux-private/linux/if_link.h",
   "underlying_type" : "_ZTIj"
  },
  {
   "alignment" : 4,
   "enum_fields" :
   [
    {
     "enum_field_value" : 0,
     "name" : "IPOIB_MODE_DATAGRAM"
    },
    {
     "enum_field_value" : 1,
     "name" : "IPOIB_MODE_CONNECTED"
    }
   ],
   "linker_set_key" : "_ZTI21$IPOIB_MODE_CONNECTED",
   "name" : "(anonymous enum at external/libnl/include/linux-private/linux/if_link.h:449:1)",
   "referenced_type" : "_ZTI21$IPOIB_MODE_CONNECTED",
   "self_type" : "_ZTI21$IPOIB_MODE_CONNECTED",
   "size" : 4,
   "source_file" : "/external/libnl/include/linux-private/linux/if_link.h",
   "underlying_type" : "_ZTIj"
  },
  {
   "alignment" : 4,
   "enum_fields" :
   [
    {
     "enum_field_value" : -2,
     "name" : "NH_DUMP_FROM_ONELINE"
    },
    {
     "enum_field_value" : -1,
     "name" : "NH_DUMP_FROM_DETAILS"
    },
    {
     "enum_field_value" : 0,
     "name" : "NH_DUMP_FROM_ENV"
    }
   ],
   "linker_set_key" : "_ZTI21$NH_DUMP_FROM_DETAILS",
   "name" : "(anonymous enum at external/libnl/include/netlink/route/nexthop.h:24:1)",
   "referenced_type" : "_ZTI21$NH_DUMP_FROM_DETAILS",
   "self_type" : "_ZTI21$NH_DUMP_FROM_DETAILS",
   "size" : 4,
   "source_file" : "/external/libnl/include/netlink/route/nexthop.h",
   "underlying_type" : "_ZTIi"
  },
  {
   "alignment" : 4,
   "enum_fields" :
   [
    {
     "enum_field_value" : 0,
     "name" : "IDIAG_TIMER_OFF"
    },
    {
     "enum_field_value" : 1,
     "name" : "IDIAG_TIMER_ON"
    },
    {
     "enum_field_value" : 2,
     "name" : "IDIAG_TIMER_KEEPALIVE"
    },
    {
     "enum_field_value" : 3,
     "name" : "IDIAG_TIMER_TIMEWAIT"
    },
    {
     "enum_field_value" : 4,
     "name" : "IDIAG_TIMER_PERSIST"
    },
    {
     "enum_field_value" : 5,
     "name" : "IDIAG_TIMER_UNKNOWN"
    }
   ],
   "linker_set_key" : "_ZTI22$IDIAG_TIMER_KEEPALIVE",
   "name" : "(anonymous enum at external/libnl/include/netlink/idiag/idiagnl.h:98:1)",
   "referenced_type" : "_ZTI22$IDIAG_TIMER_KEEPALIVE",
   "self_type" : "_ZTI22$IDIAG_TIMER_KEEPALIVE",
   "size" : 4,
   "source_file" : "/external/libnl/include/netlink/idiag/idiagnl.h",
   "underlying_type" : "_ZTIj"
  },
  {
   "alignment" : 4,
   "enum_fields" :
   [
    {
     "enum_field_value" : 0,
     "name" : "IFLA_VLAN_QOS_UNSPEC"
    },
    {
     "enum_field_value" : 1,
     "name" : "IFLA_VLAN_QOS_MAPPING"
    },
    {
     "enum_field_value" : 2,
     "name" : "__IFLA_VLAN_QOS_MAX"
    }
   ],
   "linker_set_key" : "_ZTI22$IFLA_VLAN_QOS_MAPPING",
   "name" : "(anonymous enum at external/libnl/include/linux-private/linux/if_link.h:258:1)",
   "referenced_type" : "_ZTI22$IFLA_VLAN_QOS_MAPPING",
   "self_type" : "_ZTI22$IFLA_VLAN_QOS_MAPPING",
   "size" : 4,
   "source_file" : "/external/libnl/include/linux-private/linux/if_link.h",
   "underlying_type" : "_ZTIj"
  },
  {
   "alignment" : 4,
   "enum_fields" :
   [
    {
     "enum_field_value" : 0,
     "name" : "CTRL_ATTR_MCAST_GRP_UNSPEC"
    },
    {
     "enum_field_value" : 1,
     "name" : "CTRL_ATTR_MCAST_GRP_NAME"
    },
    {
     "enum_field_value" : 2,
     "name" : "CTRL_ATTR_MCAST_GRP_ID"
    },
    {
     "enum_field_value" : 3,
     "name" : "__CTRL_ATTR_MCAST_GRP_MAX"
    }
   ],
   "linker_set_key" : "_ZTI23$CTRL_ATTR_MCAST_GRP_ID",
   "name" : "(anonymous enum at external/libnl/include/linux-private/linux/genetlink.h:74:1)",
   "referenced_type" : "_ZTI23$CTRL_ATTR_MCAST_GRP_ID",
   "self_type" : "_ZTI23$CTRL_ATTR_MCAST_GRP_ID",
   "size" : 4,
   "source_file" : "/external/libnl/include/linux-private/linux/genetlink.h",
   "underlying_type" : "_ZTIj"
  },
  {
   "alignment" : 4,
   "enum_fields" :
   [
    {
     "enum_field_value" : 0,
     "name" : "PORT_REQUEST_PREASSOCIATE"
    },
    {
     "enum_field_value" : 1,
     "name" : "PORT_REQUEST_PREASSOCIATE_RR"
    },
    {
     "enum_field_value" : 2,
     "name" : "PORT_REQUEST_ASSOCIATE"
    },
    {
     "enum_field_value" : 3,
     "name" : "PORT_REQUEST_DISASSOCIATE"
    }
   ],
   "linker_set_key" : "_ZTI23$PORT_REQUEST_ASSOCIATE",
   "name" : "(anonymous enum at external/libnl/include/linux-private/linux/if_link.h:407:1)",
   "referenced_type" : "_ZTI23$PORT_REQUEST_ASSOCIATE",
   "self_type" : "_ZTI23$PORT_REQUEST_ASSOCIATE",
   "size" : 4,
   "source_file" : "/external/libnl/include/linux-private/linux/if_link.h",
   "underlying_type" : "_ZTIj"
  },
  {
   "alignment" : 4,
   "enum_fields" :
   [
    {
     "enum_field_value" : 0,
     "name" : "IDIAG_SK_MEMINFO_RMEM_ALLOC"
    },
    {
     "enum_field_value" : 1,
     "name" : "IDIAG_SK_MEMINFO_RCVBUF"
    },
    {
     "enum_field_value" : 2,
     "name" : "IDIAG_SK_MEMINFO_WMEM_ALLOC"
    },
    {
     "enum_field_value" : 3,
     "name" : "IDIAG_SK_MEMINFO_SNDBUF"
    },
    {
     "enum_field_value" : 4,
     "name" : "IDIAG_SK_MEMINFO_FWD_ALLOC"
    },
    {
     "enum_field_value" : 5,
     "name" : "IDIAG_SK_MEMINFO_WMEM_QUEUED"
    },
    {
     "enum_field_value" : 6,
     "name" : "IDIAG_SK_MEMINFO_OPTMEM"
    },
    {
     "enum_field_value" : 7,
     "name" : "IDIAG_SK_MEMINFO_BACKLOG"
    },
    {
     "enum_field_value" : 8,
     "name" : "IDIAG_SK_MEMINFO_VARS"
    }
   ],
   "linker_set_key" : "_ZTI25$IDIAG_SK_MEMINFO_BACKLOG",
   "name" : "(anonymous enum at external/libnl/include/netlink/idiag/idiagnl.h:81:1)",
   "referenced_type" : "_ZTI25$IDIAG_SK_MEMINFO_BACKLOG",
   "self_type" : "_ZTI25$IDIAG_SK_MEMINFO_BACKLOG",
   "size" : 4,
   "source_file" : "/external/libnl/include/netlink/idiag/idiagnl.h",
   "underlying_type" : "_ZTIj"
  },
  {
   "alignment" : 4,
   "enum_fields" :
   [
    {
     "enum_field_value" : 0,
     "name" : "TCA_DSMARK_UNSPEC"
    },
    {
     "enum_field_value" : 1,
     "name" : "TCA_DSMARK_INDICES"
    },
    {
     "enum_field_value" : 2,
     "name" : "TCA_DSMARK_DEFAULT_INDEX"
    },
    {
     "enum_field_value" : 3,
     "name" : "TCA_DSMARK_SET_TC_INDEX"
    },
    {
     "enum_field_value" : 4,
     "name" : "TCA_DSMARK_MASK"
    },
    {
     "enum_field_value" : 5,
     "name" : "TCA_DSMARK_VALUE"
    },
    {
     "enum_field_value" : 6,
     "name" : "__TCA_DSMARK_MAX"
    }
   ],
   "linker_set_key" : "_ZTI25$TCA_DSMARK_DEFAULT_INDEX",
   "name" : "(anonymous enum at external/libnl/include/linux-private/linux/pkt_sched.h:453:1)",
   "referenced_type" : "_ZTI25$TCA_DSMARK_DEFAULT_INDEX",
   "self_type" : "_ZTI25$TCA_DSMARK_DEFAULT_INDEX",
   "size" : 4,
   "source_file" : "/external/libnl/include/linux-private/linux/pkt_sched.h",
   "underlying_type" : "_ZTIj"
  },
  {
   "alignment" : 4,
   "enum_fields" :
   [
    {
     "enum_field_value" : 1,
     "name" : "IPV4_DEVCONF_FORWARDING"
    },
    {
     "enum_field_value" : 2,
     "name" : "IPV4_DEVCONF_MC_FORWARDING"
    },
    {
     "enum_field_value" : 3,
     "name" : "IPV4_DEVCONF_PROXY_ARP"
    },
    {
     "enum_field_value" : 4,
     "name" : "IPV4_DEVCONF_ACCEPT_REDIRECTS"
    },
    {
     "enum_field_value" : 5,
     "name" : "IPV4_DEVCONF_SECURE_REDIRECTS"
    },
    {
     "enum_field_value" : 6,
     "name" : "IPV4_DEVCONF_SEND_REDIRECTS"
    },
    {
     "enum_field_value" : 7,
     "name" : "IPV4_DEVCONF_SHARED_MEDIA"
    },
    {
     "enum_field_value" : 8,
     "name" : "IPV4_DEVCONF_RP_FILTER"
    },
    {
     "enum_field_value" : 9,
     "name" : "IPV4_DEVCONF_ACCEPT_SOURCE_ROUTE"
    },
    {
     "enum_field_value" : 10,
     "name" : "IPV4_DEVCONF_BOOTP_RELAY"
    },
    {
     "enum_field_value" : 11,
     "name" : "IPV4_DEVCONF_LOG_MARTIANS"
    },
    {
     "enum_field_value" : 12,
     "name" : "IPV4_DEVCONF_TAG"
    },
    {
     "enum_field_value" : 13,
     "name" : "IPV4_DEVCONF_ARPFILTER"
    },
    {
     "enum_field_value" : 14,
     "name" : "IPV4_DEVCONF_MEDIUM_ID"
    },
    {
     "enum_field_value" : 15,
     "name" : "IPV4_DEVCONF_NOXFRM"
    },
    {
     "enum_field_value" : 16,
     "name" : "IPV4_DEVCONF_NOPOLICY"
    },
    {
     "enum_field_value" : 17,
     "name" : "IPV4_DEVCONF_FORCE_IGMP_VERSION"
    },
    {
     "enum_field_value" : 18,
     "name" : "IPV4_DEVCONF_ARP_ANNOUNCE"
    },
    {
     "enum_field_value" : 19,
     "name" : "IPV4_DEVCONF_ARP_IGNORE"
    },
    {
     "enum_field_value" : 20,
     "name" : "IPV4_DEVCONF_PROMOTE_SECONDARIES"
    },
    {
     "enum_field_value" : 21,
     "name" : "IPV4_DEVCONF_ARP_ACCEPT"
    },
    {
     "enum_field_value" : 22,
     "name" : "IPV4_DEVCONF_ARP_NOTIFY"
    },
    {
     "enum_field_value" : 23,
     "name" : "IPV4_DEVCONF_ACCEPT_LOCAL"
    },
    {
     "enum_field_value" : 24,
     "name" : "IPV4_DEVCONF_SRC_VMARK"
    },
    {
     "enum_field_value" : 25,
     "name" : "IPV4_DEVCONF_PROXY_ARP_PVLAN"
    },
    {
     "enum_field_value" : 26,
     "name" : "IPV4_DEVCONF_ROUTE_LOCALNET"
    },
    {
     "enum_field_value" : 27,
     "name" : "IPV4_DEVCONF_IGMPV2_UNSOLICITED_REPORT_INTERVAL"
    },
    {
     "enum_field_value" : 28,
     "name" : "IPV4_DEVCONF_IGMPV3_UNSOLICITED_REPORT_INTERVAL"
    },
    {
     "enum_field_value" : 29,
     "name" : "__IPV4_DEVCONF_MAX"
    }
   ],
   "linker_set_key" : "_ZTI26$IPV4_DEVCONF_ACCEPT_LOCAL",
   "name" : "(anonymous enum at external/libnl/include/linux-private/linux/ip.h:137:1)",
   "referenced_type" : "_ZTI26$IPV4_DEVCONF_ACCEPT_LOCAL",
   "self_type" : "_ZTI26$IPV4_DEVCONF_ACCEPT_LOCAL",
   "size" : 4,
   "source_file" : "/external/libnl/include/linux-private/linux/ip.h",
   "underlying_type" : "_ZTIj"
  },
  {
   "alignment" : 4,
   "enum_fields" :
   [
    {
     "enum_field_value" : 0,
     "name" : "LINUX_MIB_XFRMNUM"
    },
    {
     "enum_field_value" : 1,
     "name" : "LINUX_MIB_XFRMINERROR"
    },
    {
     "enum_field_value" : 2,
     "name" : "LINUX_MIB_XFRMINBUFFERERROR"
    },
    {
     "enum_field_value" : 3,
     "name" : "LINUX_MIB_XFRMINHDRERROR"
    },
    {
     "enum_field_value" : 4,
     "name" : "LINUX_MIB_XFRMINNOSTATES"
    },
    {
     "enum_field_value" : 5,
     "name" : "LINUX_MIB_XFRMINSTATEPROTOERROR"
    },
    {
     "enum_field_value" : 6,
     "name" : "LINUX_MIB_XFRMINSTATEMODEERROR"
    },
    {
     "enum_field_value" : 7,
     "name" : "LINUX_MIB_XFRMINSTATESEQERROR"
    },
    {
     "enum_field_value" : 8,
     "name" : "LINUX_MIB_XFRMINSTATEEXPIRED"
    },
    {
     "enum_field_value" : 9,
     "name" : "LINUX_MIB_XFRMINSTATEMISMATCH"
    },
    {
     "enum_field_value" : 10,
     "name" : "LINUX_MIB_XFRMINSTATEINVALID"
    },
    {
     "enum_field_value" : 11,
     "name" : "LINUX_MIB_XFRMINTMPLMISMATCH"
    },
    {
     "enum_field_value" : 12,
     "name" : "LINUX_MIB_XFRMINNOPOLS"
    },
    {
     "enum_field_value" : 13,
     "name" : "LINUX_MIB_XFRMINPOLBLOCK"
    },
    {
     "enum_field_value" : 14,
     "name" : "LINUX_MIB_XFRMINPOLERROR"
    },
    {
     "enum_field_value" : 15,
     "name" : "LINUX_MIB_XFRMOUTERROR"
    },
    {
     "enum_field_value" : 16,
     "name" : "LINUX_MIB_XFRMOUTBUNDLEGENERROR"
    },
    {
     "enum_field_value" : 17,
     "name" : "LINUX_MIB_XFRMOUTBUNDLECHECKERROR"
    },
    {
     "enum_field_value" : 18,
     "name" : "LINUX_MIB_XFRMOUTNOSTATES"
    },
    {
     "enum_field_value" : 19,
     "name" : "LINUX_MIB_XFRMOUTSTATEPROTOERROR"
    },
    {
     "enum_field_value" : 20,
     "name" : "LINUX_MIB_XFRMOUTSTATEMODEERROR"
    },
    {
     "enum_field_value" : 21,
     "name" : "LINUX_MIB_XFRMOUTSTATESEQERROR"
    },
    {
     "enum_field_value" : 22,
     "name" : "LINUX_MIB_XFRMOUTSTATEEXPIRED"
    },
    {
     "enum_field_value" : 23,
     "name" : "LINUX_MIB_XFRMOUTPOLBLOCK"
    },
    {
     "enum_field_value" : 24,
     "name" : "LINUX_MIB_XFRMOUTPOLDEAD"
    },
    {
     "enum_field_value" : 25,
     "name" : "LINUX_MIB_XFRMOUTPOLERROR"
    },
    {
     "enum_field_value" : 26,
     "name" : "LINUX_MIB_XFRMFWDHDRERROR"
    },
    {
     "enum_field_value" : 27,
     "name" : "LINUX_MIB_XFRMOUTSTATEINVALID"
    },
    {
     "enum_field_value" : 28,
     "name" : "LINUX_MIB_XFRMACQUIREERROR"
    },
    {
     "enum_field_value" : 29,
     "name" : "__LINUX_MIB_XFRMMAX"
    }
   ],
   "linker_set_key" : "_ZTI27$LINUX_MIB_XFRMACQUIREERROR",
   "name" : "(anonymous enum at external/libnl/include/linux-private/linux/snmp.h:265:1)",
   "referenced_type" : "_ZTI27$LINUX_MIB_XFRMACQUIREERROR",
   "self_type" : "_ZTI27$LINUX_MIB_XFRMACQUIREERROR",
   "size" : 4,
   "source_file" : "/external/libnl/include/linux-private/linux/snmp.h",
   "underlying_type" : "_ZTIj"
  },
  {
   "alignment" : 4,
   "enum_fields" :
   [
    {
     "enum_field_value" : 0,
     "name" : "PORT_VDP_RESPONSE_SUCCESS"
    },
    {
     "enum_field_value" : 1,
     "name" : "PORT_VDP_RESPONSE_INVALID_FORMAT"
    },
    {
     "enum_field_value" : 2,
     "name" : "PORT_VDP_RESPONSE_INSUFFICIENT_RESOURCES"
    },
    {
     "enum_field_value" : 3,
     "name" : "PORT_VDP_RESPONSE_UNUSED_VTID"
    },
    {
     "enum_field_value" : 4,
     "name" : "PORT_VDP_RESPONSE_VTID_VIOLATION"
    },
    {
     "enum_field_value" : 5,
     "name" : "PORT_VDP_RESPONSE_VTID_VERSION_VIOALTION"
    },
    {
     "enum_field_value" : 6,
     "name" : "PORT_VDP_RESPONSE_OUT_OF_SYNC"
    },
    {
     "enum_field_value" : 256,
     "name" : "PORT_PROFILE_RESPONSE_SUCCESS"
    },
    {
     "enum_field_value" : 257,
     "name" : "PORT_PROFILE_RESPONSE_INPROGRESS"
    },
    {
     "enum_field_value" : 258,
     "name" : "PORT_PROFILE_RESPONSE_INVALID"
    },
    {
     "enum_field_value" : 259,
     "name" : "PORT_PROFILE_RESPONSE_BADSTATE"
    },
    {
     "enum_field_value" : 260,
     "name" : "PORT_PROFILE_RESPONSE_INSUFFICIENT_RESOURCES"
    },
    {
     "enum_field_value" : 261,
     "name" : "PORT_PROFILE_RESPONSE_ERROR"
    }
   ],
   "linker_set_key" : "_ZTI31$PORT_PROFILE_RESPONSE_BADSTATE",
   "name" : "(anonymous enum at external/libnl/include/linux-private/linux/if_link.h:414:1)",
   "referenced_type" : "_ZTI31$PORT_PROFILE_RESPONSE_BADSTATE",
   "self_type" : "_ZTI31$PORT_PROFILE_RESPONSE_BADSTATE",
   "size" : 4,
   "source_file" : "/external/libnl/include/linux-private/linux/if_link.h",
   "underlying_type" : "_ZTIj"
  },
  {
   "alignment" : 4,
   "enum_fields" :
   [
    {
     "enum_field_value" : 0,
     "name" : "NL_CAPABILITY_NONE"
    },
    {
     "enum_field_value" : 1,
     "name" : "NL_CAPABILITY_ROUTE_BUILD_MSG_SET_SCOPE"
    },
    {
     "enum_field_value" : 2,
     "name" : "NL_CAPABILITY_ROUTE_LINK_VETH_GET_PEER_OWN_REFERENCE"
    },
    {
     "enum_field_value" : 3,
     "name" : "NL_CAPABILITY_ROUTE_LINK_CLS_ADD_ACT_OWN_REFERENCE"
    },
    {
     "enum_field_value" : 4,
     "name" : "NL_CAPABILITY_NL_CONNECT_RETRY_GENERATE_PORT_ON_ADDRINUSE"
    },
    {
     "enum_field_value" : 5,
     "name" : "__NL_CAPABILITY_MAX"
    }
   ],
   "linker_set_key" : "_ZTI58$NL_CAPABILITY_NL_CONNECT_RETRY_GENERATE_PORT_ON_ADDRINUSE",
   "name" : "(anonymous enum at external/libnl/include/netlink/utils.h:82:1)",
   "referenced_type" : "_ZTI58$NL_CAPABILITY_NL_CONNECT_RETRY_GENERATE_PORT_ON_ADDRINUSE",
   "self_type" : "_ZTI58$NL_CAPABILITY_NL_CONNECT_RETRY_GENERATE_PORT_ON_ADDRINUSE",
   "size" : 4,
   "source_file" : "/external/libnl/include/netlink/utils.h",
   "underlying_type" : "_ZTIj"
  },
  {
   "alignment" : 4,
   "enum_fields" :
   [
    {
     "enum_field_value" : 0,
     "name" : "NLA_UNSPEC"
    },
    {
     "enum_field_value" : 1,
     "name" : "NLA_U8"
    },
    {
     "enum_field_value" : 2,
     "name" : "NLA_U16"
    },
    {
     "enum_field_value" : 3,
     "name" : "NLA_U32"
    },
    {
     "enum_field_value" : 4,
     "name" : "NLA_U64"
    },
    {
     "enum_field_value" : 5,
     "name" : "NLA_STRING"
    },
    {
     "enum_field_value" : 6,
     "name" : "NLA_FLAG"
    },
    {
     "enum_field_value" : 7,
     "name" : "NLA_MSECS"
    },
    {
     "enum_field_value" : 8,
     "name" : "NLA_NESTED"
    },
    {
     "enum_field_value" : 9,
     "name" : "__NLA_TYPE_MAX"
    }
   ],
   "linker_set_key" : "_ZTI9$NLA_FLAG",
   "name" : "(anonymous enum at external/libnl/include/netlink/attr.h:37:1)",
   "referenced_type" : "_ZTI9$NLA_FLAG",
   "self_type" : "_ZTI9$NLA_FLAG",
   "size" : 4,
   "source_file" : "/external/libnl/include/netlink/attr.h",
   "underlying_type" : "_ZTIj"
  },
  {
   "alignment" : 4,
   "enum_fields" :
   [
    {
     "enum_field_value" : 16,
     "name" : "RTM_BASE"
    },
    {
     "enum_field_value" : 16,
     "name" : "RTM_NEWLINK"
    },
    {
     "enum_field_value" : 17,
     "name" : "RTM_DELLINK"
    },
    {
     "enum_field_value" : 18,
     "name" : "RTM_GETLINK"
    },
    {
     "enum_field_value" : 19,
     "name" : "RTM_SETLINK"
    },
    {
     "enum_field_value" : 20,
     "name" : "RTM_NEWADDR"
    },
    {
     "enum_field_value" : 21,
     "name" : "RTM_DELADDR"
    },
    {
     "enum_field_value" : 22,
     "name" : "RTM_GETADDR"
    },
    {
     "enum_field_value" : 24,
     "name" : "RTM_NEWROUTE"
    },
    {
     "enum_field_value" : 25,
     "name" : "RTM_DELROUTE"
    },
    {
     "enum_field_value" : 26,
     "name" : "RTM_GETROUTE"
    },
    {
     "enum_field_value" : 28,
     "name" : "RTM_NEWNEIGH"
    },
    {
     "enum_field_value" : 29,
     "name" : "RTM_DELNEIGH"
    },
    {
     "enum_field_value" : 30,
     "name" : "RTM_GETNEIGH"
    },
    {
     "enum_field_value" : 32,
     "name" : "RTM_NEWRULE"
    },
    {
     "enum_field_value" : 33,
     "name" : "RTM_DELRULE"
    },
    {
     "enum_field_value" : 34,
     "name" : "RTM_GETRULE"
    },
    {
     "enum_field_value" : 36,
     "name" : "RTM_NEWQDISC"
    },
    {
     "enum_field_value" : 37,
     "name" : "RTM_DELQDISC"
    },
    {
     "enum_field_value" : 38,
     "name" : "RTM_GETQDISC"
    },
    {
     "enum_field_value" : 40,
     "name" : "RTM_NEWTCLASS"
    },
    {
     "enum_field_value" : 41,
     "name" : "RTM_DELTCLASS"
    },
    {
     "enum_field_value" : 42,
     "name" : "RTM_GETTCLASS"
    },
    {
     "enum_field_value" : 44,
     "name" : "RTM_NEWTFILTER"
    },
    {
     "enum_field_value" : 45,
     "name" : "RTM_DELTFILTER"
    },
    {
     "enum_field_value" : 46,
     "name" : "RTM_GETTFILTER"
    },
    {
     "enum_field_value" : 48,
     "name" : "RTM_NEWACTION"
    },
    {
     "enum_field_value" : 49,
     "name" : "RTM_DELACTION"
    },
    {
     "enum_field_value" : 50,
     "name" : "RTM_GETACTION"
    },
    {
     "enum_field_value" : 52,
     "name" : "RTM_NEWPREFIX"
    },
    {
     "enum_field_value" : 58,
     "name" : "RTM_GETMULTICAST"
    },
    {
     "enum_field_value" : 62,
     "name" : "RTM_GETANYCAST"
    },
    {
     "enum_field_value" : 64,
     "name" : "RTM_NEWNEIGHTBL"
    },
    {
     "enum_field_value" : 66,
     "name" : "RTM_GETNEIGHTBL"
    },
    {
     "enum_field_value" : 67,
     "name" : "RTM_SETNEIGHTBL"
    },
    {
     "enum_field_value" : 68,
     "name" : "RTM_NEWNDUSEROPT"
    },
    {
     "enum_field_value" : 72,
     "name" : "RTM_NEWADDRLABEL"
    },
    {
     "enum_field_value" : 73,
     "name" : "RTM_DELADDRLABEL"
    },
    {
     "enum_field_value" : 74,
     "name" : "RTM_GETADDRLABEL"
    },
    {
     "enum_field_value" : 78,
     "name" : "RTM_GETDCB"
    },
    {
     "enum_field_value" : 79,
     "name" : "RTM_SETDCB"
    },
    {
     "enum_field_value" : 80,
     "name" : "__RTM_MAX"
    }
   ],
   "linker_set_key" : "_ZTI9$RTM_BASE",
   "name" : "(anonymous enum at external/libnl/include/linux-private/linux/rtnetlink.h:23:1)",
   "referenced_type" : "_ZTI9$RTM_BASE",
   "self_type" : "_ZTI9$RTM_BASE",
   "size" : 4,
   "source_file" : "/external/libnl/include/linux-private/linux/rtnetlink.h",
   "underlying_type" : "_ZTIj"
  },
  {
   "alignment" : 4,
   "enum_fields" :
   [
    {
     "enum_field_value" : 0,
     "name" : "TCA_UNSPEC"
    },
    {
     "enum_field_value" : 1,
     "name" : "TCA_KIND"
    },
    {
     "enum_field_value" : 2,
     "name" : "TCA_OPTIONS"
    },
    {
     "enum_field_value" : 3,
     "name" : "TCA_STATS"
    },
    {
     "enum_field_value" : 4,
     "name" : "TCA_XSTATS"
    },
    {
     "enum_field_value" : 5,
     "name" : "TCA_RATE"
    },
    {
     "enum_field_value" : 6,
     "name" : "TCA_FCNT"
    },
    {
     "enum_field_value" : 7,
     "name" : "TCA_STATS2"
    },
    {
     "enum_field_value" : 8,
     "name" : "TCA_STAB"
    },
    {
     "enum_field_value" : 9,
     "name" : "__TCA_MAX"
    }
   ],
   "linker_set_key" : "_ZTI9$TCA_FCNT",
   "name" : "(anonymous enum at external/libnl/include/linux-private/linux/rtnetlink.h:477:1)",
   "referenced_type" : "_ZTI9$TCA_FCNT",
   "self_type" : "_ZTI9$TCA_FCNT",
   "size" : 4,
   "source_file" : "/external/libnl/include/linux-private/linux/rtnetlink.h",
   "underlying_type" : "_ZTIj"
  },
  {
   "alignment" : 4,
   "enum_fields" :
   [
    {
     "enum_field_value" : 0,
     "name" : "IP_MP_ALG_NONE"
    },
    {
     "enum_field_value" : 1,
     "name" : "IP_MP_ALG_RR"
    },
    {
     "enum_field_value" : 2,
     "name" : "IP_MP_ALG_DRR"
    },
    {
     "enum_field_value" : 3,
     "name" : "IP_MP_ALG_RANDOM"
    },
    {
     "enum_field_value" : 4,
     "name" : "IP_MP_ALG_WRANDOM"
    },
    {
     "enum_field_value" : 5,
     "name" : "__IP_MP_ALG_MAX"
    }
   ],
   "linker_set_key" : "_ZTI9ip_mp_alg",
   "name" : "ip_mp_alg",
   "referenced_type" : "_ZTI9ip_mp_alg",
   "self_type" : "_ZTI9ip_mp_alg",
   "size" : 4,
   "source_file" : "/external/libnl/include/linux-private/linux/ip_mp_alg.h",
   "underlying_type" : "_ZTIj"
  }
 ],
 "function_types" :
 [
  {
   "alignment" : 4,
   "linker_set_key" : "_ZTIFPciS_mE",
   "name" : "char *(int, char *, unsigned long)",
   "parameters" :
   [
    {
     "referenced_type" : "_ZTIi"
    },
    {
     "referenced_type" : "_ZTIPc"
    },
    {
     "referenced_type" : "_ZTIm"
    }
   ],
   "referenced_type" : "_ZTIFPciS_mE",
   "return_type" : "_ZTIPc",
   "self_type" : "_ZTIFPciS_mE",
   "source_file" : "/external/libnl/include/netlink-private/object-api.h"
  },
  {
   "alignment" : 4,
   "linker_set_key" : "_ZTIFiP11sockaddr_nlP8nlmsgerrPvE",
   "name" : "int (sockaddr_nl *, nlmsgerr *, void *)",
   "parameters" :
   [
    {
     "referenced_type" : "_ZTIP11sockaddr_nl"
    },
    {
     "referenced_type" : "_ZTIP8nlmsgerr"
    },
    {
     "referenced_type" : "_ZTIPv"
    }
   ],
   "referenced_type" : "_ZTIFiP11sockaddr_nlP8nlmsgerrPvE",
   "return_type" : "_ZTIi",
   "self_type" : "_ZTIFiP11sockaddr_nlP8nlmsgerrPvE",
   "source_file" : "/external/libnl/include/netlink-private/types.h"
  },
  {
   "alignment" : 4,
   "linker_set_key" : "_ZTIFiP12nl_cache_opsP11sockaddr_nlP8nlmsghdrP15nl_parser_paramE",
   "name" : "int (nl_cache_ops *, sockaddr_nl *, nlmsghdr *, nl_parser_param *)",
   "parameters" :
   [
    {
     "referenced_type" : "_ZTIP12nl_cache_ops"
    },
    {
     "referenced_type" : "_ZTIP11sockaddr_nl"
    },
    {
     "referenced_type" : "_ZTIP8nlmsghdr"
    },
    {
     "referenced_type" : "_ZTIP15nl_parser_param"
    }
   ],
   "referenced_type" : "_ZTIFiP12nl_cache_opsP11sockaddr_nlP8nlmsghdrP15nl_parser_paramE",
   "return_type" : "_ZTIi",
   "self_type" : "_ZTIFiP12nl_cache_opsP11sockaddr_nlP8nlmsghdrP15nl_parser_paramE",
   "source_file" : "/external/libnl/include/netlink-private/cache-api.h"
  },
  {
   "alignment" : 4,
   "linker_set_key" : "_ZTIFiP12nl_cache_opsP8genl_cmdP9genl_infoPvE",
   "name" : "int (nl_cache_ops *, genl_cmd *, genl_info *, void *)",
   "parameters" :
   [
    {
     "referenced_type" : "_ZTIP12nl_cache_ops"
    },
    {
     "referenced_type" : "_ZTIP8genl_cmd"
    },
    {
     "referenced_type" : "_ZTIP9genl_info"
    },
    {
     "referenced_type" : "_ZTIPv"
    }
   ],
   "referenced_type" : "_ZTIFiP12nl_cache_opsP8genl_cmdP9genl_infoPvE",
   "return_type" : "_ZTIi",
   "self_type" : "_ZTIFiP12nl_cache_opsP8genl_cmdP9genl_infoPvE",
   "source_file" : "/external/libnl/include/netlink/genl/mngt.h"
  },
  {
   "alignment" : 4,
   "linker_set_key" : "_ZTIFiP6nl_msgPvE",
   "name" : "int (nl_msg *, void *)",
   "parameters" :
   [
    {
     "referenced_type" : "_ZTIP6nl_msg"
    },
    {
     "referenced_type" : "_ZTIPv"
    }
   ],
   "referenced_type" : "_ZTIFiP6nl_msgPvE",
   "return_type" : "_ZTIi",
   "self_type" : "_ZTIFiP6nl_msgPvE",
   "source_file" : "/external/libnl/include/netlink-private/types.h"
  },
  {
   "alignment" : 4,
   "linker_set_key" : "_ZTIFiP7nl_sockP11sockaddr_nlPPhPP5ucredE",
   "name" : "int (nl_sock *, sockaddr_nl *, unsigned char **, ucred **)",
   "parameters" :
   [
    {
     "referenced_type" : "_ZTIP7nl_sock"
    },
    {
     "referenced_type" : "_ZTIP11sockaddr_nl"
    },
    {
     "referenced_type" : "_ZTIPPh"
    },
    {
     "referenced_type" : "_ZTIPP5ucred"
    }
   ],
   "referenced_type" : "_ZTIFiP7nl_sockP11sockaddr_nlPPhPP5ucredE",
   "return_type" : "_ZTIi",
   "self_type" : "_ZTIFiP7nl_sockP11sockaddr_nlPPhPP5ucredE",
   "source_file" : "/external/libnl/include/netlink-private/types.h"
  },
  {
   "alignment" : 4,
   "linker_set_key" : "_ZTIFiP7nl_sockP5nl_cbE",
   "name" : "int (nl_sock *, nl_cb *)",
   "parameters" :
   [
    {
     "referenced_type" : "_ZTIP7nl_sock"
    },
    {
     "referenced_type" : "_ZTIP5nl_cb"
    }
   ],
   "referenced_type" : "_ZTIFiP7nl_sockP5nl_cbE",
   "return_type" : "_ZTIi",
   "self_type" : "_ZTIFiP7nl_sockP5nl_cbE",
   "source_file" : "/external/libnl/include/netlink-private/types.h"
  },
  {
   "alignment" : 4,
   "linker_set_key" : "_ZTIFiP7nl_sockP6nl_msgE",
   "name" : "int (nl_sock *, nl_msg *)",
   "parameters" :
   [
    {
     "referenced_type" : "_ZTIP7nl_sock"
    },
    {
     "referenced_type" : "_ZTIP6nl_msg"
    }
   ],
   "referenced_type" : "_ZTIFiP7nl_sockP6nl_msgE",
   "return_type" : "_ZTIi",
   "self_type" : "_ZTIFiP7nl_sockP6nl_msgE",
   "source_file" : "/external/libnl/include/netlink-private/types.h"
  },
  {
   "alignment" : 4,
   "linker_set_key" : "_ZTIFiP7rtnl_tcPvE",
   "name" : "int (rtnl_tc *, void *)",
   "parameters" :
   [
    {
     "referenced_type" : "_ZTIP7rtnl_tc"
    },
    {
     "referenced_type" : "_ZTIPv"
    }
   ],
   "referenced_type" : "_ZTIFiP7rtnl_tcPvE",
   "return_type" : "_ZTIi",
   "self_type" : "_ZTIFiP7rtnl_tcPvE",
   "source_file" : "/external/libnl/include/netlink-private/route/tc-api.h"
  },
  {
   "alignment" : 4,
   "linker_set_key" : "_ZTIFiP7rtnl_tcPvP6nl_msgE",
   "name" : "int (rtnl_tc *, void *, nl_msg *)",
   "parameters" :
   [
    {
     "referenced_type" : "_ZTIP7rtnl_tc"
    },
    {
     "referenced_type" : "_ZTIPv"
    },
    {
     "referenced_type" : "_ZTIP6nl_msg"
    }
   ],
   "referenced_type" : "_ZTIFiP7rtnl_tcPvP6nl_msgE",
   "return_type" : "_ZTIi",
   "self_type" : "_ZTIFiP7rtnl_tcPvP6nl_msgE",
   "source_file" : "/external/libnl/include/netlink-private/route/tc-api.h"
  },
  {
   "alignment" : 4,
   "linker_set_key" : "_ZTIFiP8nl_cacheP7nl_sockE",
   "name" : "int (nl_cache *, nl_sock *)",
   "parameters" :
   [
    {
     "referenced_type" : "_ZTIP8nl_cache"
    },
    {
     "referenced_type" : "_ZTIP7nl_sock"
    }
   ],
   "referenced_type" : "_ZTIFiP8nl_cacheP7nl_sockE",
   "return_type" : "_ZTIi",
   "self_type" : "_ZTIFiP8nl_cacheP7nl_sockE",
   "source_file" : "/external/libnl/include/netlink-private/cache-api.h"
  },
  {
   "alignment" : 4,
   "linker_set_key" : "_ZTIFiP8nl_cacheP9nl_objectE",
   "name" : "int (nl_cache *, nl_object *)",
   "parameters" :
   [
    {
     "referenced_type" : "_ZTIP8nl_cache"
    },
    {
     "referenced_type" : "_ZTIP9nl_object"
    }
   ],
   "referenced_type" : "_ZTIFiP8nl_cacheP9nl_objectE",
   "return_type" : "_ZTIi",
   "self_type" : "_ZTIFiP8nl_cacheP9nl_objectE",
   "source_file" : "/external/libnl/include/netlink-private/cache-api.h"
  },
  {
   "alignment" : 4,
   "linker_set_key" : "_ZTIFiP8nl_cacheP9nl_objectPFvS0_S2_iPvES3_E",
   "name" : "int (nl_cache *, nl_object *, void (*)(nl_cache *, nl_object *, int, void *), void *)",
   "parameters" :
   [
    {
     "referenced_type" : "_ZTIP8nl_cache"
    },
    {
     "referenced_type" : "_ZTIP9nl_object"
    },
    {
     "referenced_type" : "_ZTIPFvP8nl_cacheP9nl_objectiPvE"
    },
    {
     "referenced_type" : "_ZTIPv"
    }
   ],
   "referenced_type" : "_ZTIFiP8nl_cacheP9nl_objectPFvS0_S2_iPvES3_E",
   "return_type" : "_ZTIi",
   "self_type" : "_ZTIFiP8nl_cacheP9nl_objectPFvS0_S2_iPvES3_E",
   "source_file" : "/external/libnl/include/netlink-private/cache-api.h"
  },
  {
   "alignment" : 4,
   "linker_set_key" : "_ZTIFiP9nl_objectP15nl_parser_paramE",
   "name" : "int (nl_object *, nl_parser_param *)",
   "parameters" :
   [
    {
     "referenced_type" : "_ZTIP9nl_object"
    },
    {
     "referenced_type" : "_ZTIP15nl_parser_param"
    }
   ],
   "referenced_type" : "_ZTIFiP9nl_objectP15nl_parser_paramE",
   "return_type" : "_ZTIi",
   "self_type" : "_ZTIFiP9nl_objectP15nl_parser_paramE",
   "source_file" : "/external/libnl/include/netlink-private/cache-api.h"
  },
  {
   "alignment" : 4,
   "linker_set_key" : "_ZTIFiP9nl_objectS0_E",
   "name" : "int (nl_object *, nl_object *)",
   "parameters" :
   [
    {
     "referenced_type" : "_ZTIP9nl_object"
    },
    {
     "referenced_type" : "_ZTIP9nl_object"
    }
   ],
   "referenced_type" : "_ZTIFiP9nl_objectS0_E",
   "return_type" : "_ZTIi",
   "self_type" : "_ZTIFiP9nl_objectS0_E",
   "source_file" : "/external/libnl/include/netlink-private/object-api.h"
  },
  {
   "alignment" : 4,
   "linker_set_key" : "_ZTIFiP9nl_objectS0_jiE",
   "name" : "int (nl_object *, nl_object *, unsigned int, int)",
   "parameters" :
   [
    {
     "referenced_type" : "_ZTIP9nl_object"
    },
    {
     "referenced_type" : "_ZTIP9nl_object"
    },
    {
     "referenced_type" : "_ZTIj"
    },
    {
     "referenced_type" : "_ZTIi"
    }
   ],
   "referenced_type" : "_ZTIFiP9nl_objectS0_jiE",
   "return_type" : "_ZTIi",
   "self_type" : "_ZTIFiP9nl_objectS0_jiE",
   "source_file" : "/external/libnl/include/netlink-private/object-api.h"
  },
  {
   "alignment" : 4,
   "linker_set_key" : "_ZTIFiPvS_E",
   "name" : "int (void *, void *)",
   "parameters" :
   [
    {
     "referenced_type" : "_ZTIPv"
    },
    {
     "referenced_type" : "_ZTIPv"
    }
   ],
   "referenced_type" : "_ZTIFiPvS_E",
   "return_type" : "_ZTIi",
   "self_type" : "_ZTIFiPvS_E",
   "source_file" : "/external/libnl/include/netlink-private/route/tc-api.h"
  },
  {
   "alignment" : 4,
   "linker_set_key" : "_ZTIFilPKcE",
   "name" : "int (long, const char *)",
   "parameters" :
   [
    {
     "referenced_type" : "_ZTIl"
    },
    {
     "referenced_type" : "_ZTIPKc"
    }
   ],
   "referenced_type" : "_ZTIFilPKcE",
   "return_type" : "_ZTIi",
   "self_type" : "_ZTIFilPKcE",
   "source_file" : "/external/libnl/include/netlink-private/netlink.h"
  },
  {
   "alignment" : 4,
   "linker_set_key" : "_ZTIFjP9nl_objectE",
   "name" : "unsigned int (nl_object *)",
   "parameters" :
   [
    {
     "referenced_type" : "_ZTIP9nl_object"
    }
   ],
   "referenced_type" : "_ZTIFjP9nl_objectE",
   "return_type" : "_ZTIj",
   "self_type" : "_ZTIFjP9nl_objectE",
   "source_file" : "/external/libnl/include/netlink-private/object-api.h"
  },
  {
   "alignment" : 4,
   "linker_set_key" : "_ZTIFvP12nl_cache_opsPvE",
   "name" : "void (nl_cache_ops *, void *)",
   "parameters" :
   [
    {
     "referenced_type" : "_ZTIP12nl_cache_ops"
    },
    {
     "referenced_type" : "_ZTIPv"
    }
   ],
   "referenced_type" : "_ZTIFvP12nl_cache_opsPvE",
   "return_type" : "_ZTIv",
   "self_type" : "_ZTIFvP12nl_cache_opsPvE",
   "source_file" : "/external/libnl/include/netlink/cache.h"
  },
  {
   "alignment" : 4,
   "linker_set_key" : "_ZTIFvP14nl_dump_paramsPcE",
   "name" : "void (nl_dump_params *, char *)",
   "parameters" :
   [
    {
     "referenced_type" : "_ZTIP14nl_dump_params"
    },
    {
     "referenced_type" : "_ZTIPc"
    }
   ],
   "referenced_type" : "_ZTIFvP14nl_dump_paramsPcE",
   "return_type" : "_ZTIv",
   "self_type" : "_ZTIFvP14nl_dump_paramsPcE",
   "source_file" : "/external/libnl/include/netlink/types.h"
  },
  {
   "alignment" : 4,
   "linker_set_key" : "_ZTIFvP14nl_dump_paramsiE",
   "name" : "void (nl_dump_params *, int)",
   "parameters" :
   [
    {
     "referenced_type" : "_ZTIP14nl_dump_params"
    },
    {
     "referenced_type" : "_ZTIi"
    }
   ],
   "referenced_type" : "_ZTIFvP14nl_dump_paramsiE",
   "return_type" : "_ZTIv",
   "self_type" : "_ZTIFvP14nl_dump_paramsiE",
   "source_file" : "/external/libnl/include/netlink/types.h"
  },
  {
   "alignment" : 4,
   "linker_set_key" : "_ZTIFvP7rtnl_tcP14nl_dump_paramsE",
   "name" : "void (rtnl_tc *, nl_dump_params *)",
   "parameters" :
   [
    {
     "referenced_type" : "_ZTIP7rtnl_tc"
    },
    {
     "referenced_type" : "_ZTIP14nl_dump_params"
    }
   ],
   "referenced_type" : "_ZTIFvP7rtnl_tcP14nl_dump_paramsE",
   "return_type" : "_ZTIv",
   "self_type" : "_ZTIFvP7rtnl_tcP14nl_dump_paramsE",
   "source_file" : "/external/libnl/include/netlink-private/route/tc-api.h"
  },
  {
   "alignment" : 4,
   "linker_set_key" : "_ZTIFvP7rtnl_tcPvE",
   "name" : "void (rtnl_tc *, void *)",
   "parameters" :
   [
    {
     "referenced_type" : "_ZTIP7rtnl_tc"
    },
    {
     "referenced_type" : "_ZTIPv"
    }
   ],
   "referenced_type" : "_ZTIFvP7rtnl_tcPvE",
   "return_type" : "_ZTIv",
   "self_type" : "_ZTIFvP7rtnl_tcPvE",
   "source_file" : "/external/libnl/include/netlink-private/route/tc-api.h"
  },
  {
   "alignment" : 4,
   "linker_set_key" : "_ZTIFvP7rtnl_tcPvP14nl_dump_paramsE",
   "name" : "void (rtnl_tc *, void *, nl_dump_params *)",
   "parameters" :
   [
    {
     "referenced_type" : "_ZTIP7rtnl_tc"
    },
    {
     "referenced_type" : "_ZTIPv"
    },
    {
     "referenced_type" : "_ZTIP14nl_dump_params"
    }
   ],
   "referenced_type" : "_ZTIFvP7rtnl_tcPvP14nl_dump_paramsE",
   "return_type" : "_ZTIv",
   "self_type" : "_ZTIFvP7rtnl_tcPvP14nl_dump_paramsE",
   "source_file" : "/external/libnl/include/netlink-private/route/tc-api.h"
  },
  {
   "alignment" : 4,
   "linker_set_key" : "_ZTIFvP8nl_cacheP9nl_objectiPvE",
   "name" : "void (nl_cache *, nl_object *, int, void *)",
   "parameters" :
   [
    {
     "referenced_type" : "_ZTIP8nl_cache"
    },
    {
     "referenced_type" : "_ZTIP9nl_object"
    },
    {
     "referenced_type" : "_ZTIi"
    },
    {
     "referenced_type" : "_ZTIPv"
    }
   ],
   "referenced_type" : "_ZTIFvP8nl_cacheP9nl_objectiPvE",
   "return_type" : "_ZTIv",
   "self_type" : "_ZTIFvP8nl_cacheP9nl_objectiPvE",
   "source_file" : "/external/libnl/include/netlink/cache.h"
  },
  {
   "alignment" : 4,
   "linker_set_key" : "_ZTIFvP9nl_objectE",
   "name" : "void (nl_object *)",
   "parameters" :
   [
    {
     "referenced_type" : "_ZTIP9nl_object"
    }
   ],
   "referenced_type" : "_ZTIFvP9nl_objectE",
   "return_type" : "_ZTIv",
   "self_type" : "_ZTIFvP9nl_objectE",
   "source_file" : "/external/libnl/include/netlink-private/object-api.h"
  },
  {
   "alignment" : 4,
   "linker_set_key" : "_ZTIFvP9nl_objectP14nl_dump_paramsE",
   "name" : "void (nl_object *, nl_dump_params *)",
   "parameters" :
   [
    {
     "referenced_type" : "_ZTIP9nl_object"
    },
    {
     "referenced_type" : "_ZTIP14nl_dump_params"
    }
   ],
   "referenced_type" : "_ZTIFvP9nl_objectP14nl_dump_paramsE",
   "return_type" : "_ZTIv",
   "self_type" : "_ZTIFvP9nl_objectP14nl_dump_paramsE",
   "source_file" : "/external/libnl/include/netlink-private/object-api.h"
  },
  {
   "alignment" : 4,
   "linker_set_key" : "_ZTIFvP9nl_objectPjjE",
   "name" : "void (nl_object *, unsigned int *, unsigned int)",
   "parameters" :
   [
    {
     "referenced_type" : "_ZTIP9nl_object"
    },
    {
     "referenced_type" : "_ZTIPj"
    },
    {
     "referenced_type" : "_ZTIj"
    }
   ],
   "referenced_type" : "_ZTIFvP9nl_objectPjjE",
   "return_type" : "_ZTIv",
   "self_type" : "_ZTIFvP9nl_objectPjjE",
   "source_file" : "/external/libnl/include/netlink-private/object-api.h"
  },
  {
   "alignment" : 4,
   "linker_set_key" : "_ZTIFvP9nl_objectPvE",
   "name" : "void (nl_object *, void *)",
   "parameters" :
   [
    {
     "referenced_type" : "_ZTIP9nl_object"
    },
    {
     "referenced_type" : "_ZTIPv"
    }
   ],
   "referenced_type" : "_ZTIFvP9nl_objectPvE",
   "return_type" : "_ZTIv",
   "self_type" : "_ZTIFvP9nl_objectPvE",
   "source_file" : "/external/libnl/include/netlink/cache.h"
  },
  {
   "alignment" : 4,
   "linker_set_key" : "_ZTIFvvE",
   "name" : "void (void)",
   "referenced_type" : "_ZTIFvvE",
   "return_type" : "_ZTIv",
   "self_type" : "_ZTIFvvE",
   "source_file" : "/external/libnl/include/netlink-private/cache-api.h"
  }
 ],
 "functions" :
 [
  {
   "function_name" : "__flags2str",
   "linker_set_key" : "__flags2str",
   "parameters" :
   [
    {
     "referenced_type" : "_ZTIi"
    },
    {
     "referenced_type" : "_ZTIPc"
    },
    {
     "referenced_type" : "_ZTIm"
    },
    {
     "referenced_type" : "_ZTIPK9trans_tbl"
    },
    {
     "referenced_type" : "_ZTIm"
    }
   ],
   "return_type" : "_ZTIPc",
   "source_file" : "/external/libnl/include/netlink-private/netlink.h"
  },
  {
   "function_name" : "__list_str2type",
   "linker_set_key" : "__list_str2type",
   "parameters" :
   [
    {
     "referenced_type" : "_ZTIPKc"
    },
    {
     "referenced_type" : "_ZTIP12nl_list_head"
    }
   ],
   "return_type" : "_ZTIi",
   "source_file" : "/external/libnl/include/netlink-private/netlink.h"
  },
  {
   "function_name" : "__list_type2str",
   "linker_set_key" : "__list_type2str",
   "parameters" :
   [
    {
     "referenced_type" : "_ZTIi"
    },
    {
     "referenced_type" : "_ZTIPc"
    },
    {
     "referenced_type" : "_ZTIm"
    },
    {
     "referenced_type" : "_ZTIP12nl_list_head"
    }
   ],
   "return_type" : "_ZTIPc",
   "source_file" : "/external/libnl/include/netlink-private/netlink.h"
  },
  {
   "function_name" : "__nl_cache_mngt_require",
   "linker_set_key" : "__nl_cache_mngt_require",
   "parameters" :
   [
    {
     "referenced_type" : "_ZTIPKc"
    }
   ],
   "return_type" : "_ZTIP8nl_cache",
   "source_file" : "/external/libnl/include/netlink/cache.h"
  },
  {
   "function_name" : "__nl_read_num_str_file",
   "linker_set_key" : "__nl_read_num_str_file",
   "parameters" :
   [
    {
     "referenced_type" : "_ZTIPKc"
    },
    {
     "referenced_type" : "_ZTIPFilPKcE"
    }
   ],
   "return_type" : "_ZTIi",
   "source_file" : "/external/libnl/include/netlink-private/netlink.h"
  },
  {
   "function_name" : "__str2flags",
   "linker_set_key" : "__str2flags",
   "parameters" :
   [
    {
     "referenced_type" : "_ZTIPKc"
    },
    {
     "referenced_type" : "_ZTIPK9trans_tbl"
    },
    {
     "referenced_type" : "_ZTIm"
    }
   ],
   "return_type" : "_ZTIi",
   "source_file" : "/external/libnl/include/netlink-private/netlink.h"
  },
  {
   "function_name" : "__str2type",
   "linker_set_key" : "__str2type",
   "parameters" :
   [
    {
     "referenced_type" : "_ZTIPKc"
    },
    {
     "referenced_type" : "_ZTIPK9trans_tbl"
    },
    {
     "referenced_type" : "_ZTIm"
    }
   ],
   "return_type" : "_ZTIi",
   "source_file" : "/external/libnl/include/netlink-private/netlink.h"
  },
  {
   "function_name" : "__trans_list_add",
   "linker_set_key" : "__trans_list_add",
   "parameters" :
   [
    {
     "referenced_type" : "_ZTIi"
    },
    {
     "referenced_type" : "_ZTIPKc"
    },
    {
     "referenced_type" : "_ZTIP12nl_list_head"
    }
   ],
   "return_type" : "_ZTIi",
   "source_file" : "/external/libnl/include/netlink-private/netlink.h"
  },
  {
   "function_name" : "__trans_list_clear",
   "linker_set_key" : "__trans_list_clear",
   "parameters" :
   [
    {
     "referenced_type" : "_ZTIP12nl_list_head"
    }
   ],
   "return_type" : "_ZTIv",
   "source_file" : "/external/libnl/include/netlink-private/netlink.h"
  },
  {
   "function_name" : "__type2str",
   "linker_set_key" : "__type2str",
   "parameters" :
   [
    {
     "referenced_type" : "_ZTIi"
    },
    {
     "referenced_type" : "_ZTIPc"
    },
    {
     "referenced_type" : "_ZTIm"
    },
    {
     "referenced_type" : "_ZTIPK9trans_tbl"
    },
    {
     "referenced_type" : "_ZTIm"
    }
   ],
   "return_type" : "_ZTIPc",
   "source_file" : "/external/libnl/include/netlink-private/netlink.h"
  },
  {
   "function_name" : "_nl_socket_generate_local_port_no_release",
   "linker_set_key" : "_nl_socket_generate_local_port_no_release",
   "parameters" :
   [
    {
     "referenced_type" : "_ZTIP7nl_sock"
    }
   ],
   "return_type" : "_ZTIj",
   "source_file" : "/external/libnl/include/netlink-private/socket.h"
  },
  {
   "function_name" : "_nl_socket_is_local_port_unspecified",
   "linker_set_key" : "_nl_socket_is_local_port_unspecified",
   "parameters" :
   [
    {
     "referenced_type" : "_ZTIP7nl_sock"
    }
   ],
   "return_type" : "_ZTIi",
   "source_file" : "/external/libnl/include/netlink-private/socket.h"
  },
  {
   "function_name" : "_nl_socket_used_ports_release_all",
   "linker_set_key" : "_nl_socket_used_ports_release_all",
   "parameters" :
   [
    {
     "referenced_type" : "_ZTIPKj"
    }
   ],
   "return_type" : "_ZTIv",
   "source_file" : "/external/libnl/include/netlink-private/socket.h"
  },
  {
   "function_name" : "_nl_socket_used_ports_set",
   "linker_set_key" : "_nl_socket_used_ports_set",
   "parameters" :
   [
    {
     "referenced_type" : "_ZTIPj"
    },
    {
     "referenced_type" : "_ZTIj"
    }
   ],
   "return_type" : "_ZTIv",
   "source_file" : "/external/libnl/include/netlink-private/socket.h"
  },
  {
   "function_name" : "dump_from_ops",
   "linker_set_key" : "dump_from_ops",
   "parameters" :
   [
    {
     "referenced_type" : "_ZTIP9nl_object"
    },
    {
     "referenced_type" : "_ZTIP14nl_dump_params"
    }
   ],
   "return_type" : "_ZTIv",
   "source_file" : "/external/libnl/include/netlink-private/netlink.h"
  },
  {
   "function_name" : "flnl_lookup",
   "linker_set_key" : "flnl_lookup",
   "parameters" :
   [
    {
     "referenced_type" : "_ZTIP7nl_sock"
    },
    {
     "referenced_type" : "_ZTIP12flnl_request"
    },
    {
     "referenced_type" : "_ZTIP8nl_cache"
    }
   ],
   "return_type" : "_ZTIi",
   "source_file" : "/external/libnl/include/netlink/fib_lookup/lookup.h"
  },
  {
   "function_name" : "flnl_lookup_build_request",
   "linker_set_key" : "flnl_lookup_build_request",
   "parameters" :
   [
    {
     "referenced_type" : "_ZTIP12flnl_request"
    },
    {
     "referenced_type" : "_ZTIi"
    },
    {
     "referenced_type" : "_ZTIPP6nl_msg"
    }
   ],
   "return_type" : "_ZTIi",
   "source_file" : "/external/libnl/include/netlink/fib_lookup/lookup.h"
  },
  {
   "function_name" : "flnl_request_alloc",
   "linker_set_key" : "flnl_request_alloc",
   "return_type" : "_ZTIP12flnl_request",
   "source_file" : "/external/libnl/include/netlink/fib_lookup/request.h"
  },
  {
   "function_name" : "flnl_request_get_addr",
   "linker_set_key" : "flnl_request_get_addr",
   "parameters" :
   [
    {
     "referenced_type" : "_ZTIP12flnl_request"
    }
   ],
   "return_type" : "_ZTIP7nl_addr",
   "source_file" : "/external/libnl/include/netlink/fib_lookup/request.h"
  },
  {
   "function_name" : "flnl_request_get_fwmark",
   "linker_set_key" : "flnl_request_get_fwmark",
   "parameters" :
   [
    {
     "referenced_type" : "_ZTIP12flnl_request"
    }
   ],
   "return_type" : "_ZTIm",
   "source_file" : "/external/libnl/include/netlink/fib_lookup/request.h"
  },
  {
   "function_name" : "flnl_request_get_scope",
   "linker_set_key" : "flnl_request_get_scope",
   "parameters" :
   [
    {
     "referenced_type" : "_ZTIP12flnl_request"
    }
   ],
   "return_type" : "_ZTIi",
   "source_file" : "/external/libnl/include/netlink/fib_lookup/request.h"
  },
  {
   "function_name" : "flnl_request_get_table",
   "linker_set_key" : "flnl_request_get_table",
   "parameters" :
   [
    {
     "referenced_type" : "_ZTIP12flnl_request"
    }
   ],
   "return_type" : "_ZTIi",
   "source_file" : "/external/libnl/include/netlink/fib_lookup/request.h"
  },
  {
   "function_name" : "flnl_request_get_tos",
   "linker_set_key" : "flnl_request_get_tos",
   "parameters" :
   [
    {
     "referenced_type" : "_ZTIP12flnl_request"
    }
   ],
   "return_type" : "_ZTIi",
   "source_file" : "/external/libnl/include/netlink/fib_lookup/request.h"
  },
  {
   "function_name" : "flnl_request_set_addr",
   "linker_set_key" : "flnl_request_set_addr",
   "parameters" :
   [
    {
     "referenced_type" : "_ZTIP12flnl_request"
    },
    {
     "referenced_type" : "_ZTIP7nl_addr"
    }
   ],
   "return_type" : "_ZTIi",
   "source_file" : "/external/libnl/include/netlink/fib_lookup/request.h"
  },
  {
   "function_name" : "flnl_request_set_fwmark",
   "linker_set_key" : "flnl_request_set_fwmark",
   "parameters" :
   [
    {
     "referenced_type" : "_ZTIP12flnl_request"
    },
    {
     "referenced_type" : "_ZTIm"
    }
   ],
   "return_type" : "_ZTIv",
   "source_file" : "/external/libnl/include/netlink/fib_lookup/request.h"
  },
  {
   "function_name" : "flnl_request_set_scope",
   "linker_set_key" : "flnl_request_set_scope",
   "parameters" :
   [
    {
     "referenced_type" : "_ZTIP12flnl_request"
    },
    {
     "referenced_type" : "_ZTIi"
    }
   ],
   "return_type" : "_ZTIv",
   "source_file" : "/external/libnl/include/netlink/fib_lookup/request.h"
  },
  {
   "function_name" : "flnl_request_set_table",
   "linker_set_key" : "flnl_request_set_table",
   "parameters" :
   [
    {
     "referenced_type" : "_ZTIP12flnl_request"
    },
    {
     "referenced_type" : "_ZTIi"
    }
   ],
   "return_type" : "_ZTIv",
   "source_file" : "/external/libnl/include/netlink/fib_lookup/request.h"
  },
  {
   "function_name" : "flnl_request_set_tos",
   "linker_set_key" : "flnl_request_set_tos",
   "parameters" :
   [
    {
     "referenced_type" : "_ZTIP12flnl_request"
    },
    {
     "referenced_type" : "_ZTIi"
    }
   ],
   "return_type" : "_ZTIv",
   "source_file" : "/external/libnl/include/netlink/fib_lookup/request.h"
  },
  {
   "function_name" : "flnl_result_alloc",
   "linker_set_key" : "flnl_result_alloc",
   "return_type" : "_ZTIP11flnl_result",
   "source_file" : "/external/libnl/include/netlink/fib_lookup/lookup.h"
  },
  {
   "function_name" : "flnl_result_alloc_cache",
   "linker_set_key" : "flnl_result_alloc_cache",
   "return_type" : "_ZTIP8nl_cache",
   "source_file" : "/external/libnl/include/netlink/fib_lookup/lookup.h"
  },
  {
   "function_name" : "flnl_result_put",
   "linker_set_key" : "flnl_result_put",
   "parameters" :
   [
    {
     "referenced_type" : "_ZTIP11flnl_result"
    }
   ],
   "return_type" : "_ZTIv",
   "source_file" : "/external/libnl/include/netlink/fib_lookup/lookup.h"
  },
  {
   "function_name" : "genl_connect",
   "linker_set_key" : "genl_connect",
   "parameters" :
   [
    {
     "referenced_type" : "_ZTIP7nl_sock"
    }
   ],
   "return_type" : "_ZTIi",
   "source_file" : "/external/libnl/include/netlink/genl/genl.h"
  },
  {
   "function_name" : "genl_ctrl_alloc_cache",
   "linker_set_key" : "genl_ctrl_alloc_cache",
   "parameters" :
   [
    {
     "referenced_type" : "_ZTIP7nl_sock"
    },
    {
     "referenced_type" : "_ZTIPP8nl_cache"
    }
   ],
   "return_type" : "_ZTIi",
   "source_file" : "/external/libnl/include/netlink/genl/ctrl.h"
  },
  {
   "function_name" : "genl_ctrl_resolve",
   "linker_set_key" : "genl_ctrl_resolve",
   "parameters" :
   [
    {
     "referenced_type" : "_ZTIP7nl_sock"
    },
    {
     "referenced_type" : "_ZTIPKc"
    }
   ],
   "return_type" : "_ZTIi",
   "source_file" : "/external/libnl/include/netlink/genl/ctrl.h"
  },
  {
   "function_name" : "genl_ctrl_resolve_grp",
   "linker_set_key" : "genl_ctrl_resolve_grp",
   "parameters" :
   [
    {
     "referenced_type" : "_ZTIP7nl_sock"
    },
    {
     "referenced_type" : "_ZTIPKc"
    },
    {
     "referenced_type" : "_ZTIPKc"
    }
   ],
   "return_type" : "_ZTIi",
   "source_file" : "/external/libnl/include/netlink/genl/ctrl.h"
  },
  {
   "function_name" : "genl_ctrl_search",
   "linker_set_key" : "genl_ctrl_search",
   "parameters" :
   [
    {
     "referenced_type" : "_ZTIP8nl_cache"
    },
    {
     "referenced_type" : "_ZTIi"
    }
   ],
   "return_type" : "_ZTIP11genl_family",
   "source_file" : "/external/libnl/include/netlink/genl/ctrl.h"
  },
  {
   "function_name" : "genl_ctrl_search_by_name",
   "linker_set_key" : "genl_ctrl_search_by_name",
   "parameters" :
   [
    {
     "referenced_type" : "_ZTIP8nl_cache"
    },
    {
     "referenced_type" : "_ZTIPKc"
    }
   ],
   "return_type" : "_ZTIP11genl_family",
   "source_file" : "/external/libnl/include/netlink/genl/ctrl.h"
  },
  {
   "function_name" : "genl_family_add_grp",
   "linker_set_key" : "genl_family_add_grp",
   "parameters" :
   [
    {
     "referenced_type" : "_ZTIP11genl_family"
    },
    {
     "referenced_type" : "_ZTIj"
    },
    {
     "referenced_type" : "_ZTIPKc"
    }
   ],
   "return_type" : "_ZTIi",
   "source_file" : "/external/libnl/include/netlink/genl/family.h"
  },
  {
   "function_name" : "genl_family_add_op",
   "linker_set_key" : "genl_family_add_op",
   "parameters" :
   [
    {
     "referenced_type" : "_ZTIP11genl_family"
    },
    {
     "referenced_type" : "_ZTIi"
    },
    {
     "referenced_type" : "_ZTIi"
    }
   ],
   "return_type" : "_ZTIi",
   "source_file" : "/external/libnl/include/netlink/genl/family.h"
  },
  {
   "function_name" : "genl_family_alloc",
   "linker_set_key" : "genl_family_alloc",
   "return_type" : "_ZTIP11genl_family",
   "source_file" : "/external/libnl/include/netlink/genl/family.h"
  },
  {
   "function_name" : "genl_family_get_hdrsize",
   "linker_set_key" : "genl_family_get_hdrsize",
   "parameters" :
   [
    {
     "referenced_type" : "_ZTIP11genl_family"
    }
   ],
   "return_type" : "_ZTIj",
   "source_file" : "/external/libnl/include/netlink/genl/family.h"
  },
  {
   "function_name" : "genl_family_get_id",
   "linker_set_key" : "genl_family_get_id",
   "parameters" :
   [
    {
     "referenced_type" : "_ZTIP11genl_family"
    }
   ],
   "return_type" : "_ZTIj",
   "source_file" : "/external/libnl/include/netlink/genl/family.h"
  },
  {
   "function_name" : "genl_family_get_maxattr",
   "linker_set_key" : "genl_family_get_maxattr",
   "parameters" :
   [
    {
     "referenced_type" : "_ZTIP11genl_family"
    }
   ],
   "return_type" : "_ZTIj",
   "source_file" : "/external/libnl/include/netlink/genl/family.h"
  },
  {
   "function_name" : "genl_family_get_name",
   "linker_set_key" : "genl_family_get_name",
   "parameters" :
   [
    {
     "referenced_type" : "_ZTIP11genl_family"
    }
   ],
   "return_type" : "_ZTIPc",
   "source_file" : "/external/libnl/include/netlink/genl/family.h"
  },
  {
   "function_name" : "genl_family_get_version",
   "linker_set_key" : "genl_family_get_version",
   "parameters" :
   [
    {
     "referenced_type" : "_ZTIP11genl_family"
    }
   ],
   "return_type" : "_ZTIh",
   "source_file" : "/external/libnl/include/netlink/genl/family.h"
  },
  {
   "function_name" : "genl_family_put",
   "linker_set_key" : "genl_family_put",
   "parameters" :
   [
    {
     "referenced_type" : "_ZTIP11genl_family"
    }
   ],
   "return_type" : "_ZTIv",
   "source_file" : "/external/libnl/include/netlink/genl/family.h"
  },
  {
   "function_name" : "genl_family_set_hdrsize",
   "linker_set_key" : "genl_family_set_hdrsize",
   "parameters" :
   [
    {
     "referenced_type" : "_ZTIP11genl_family"
    },
    {
     "referenced_type" : "_ZTIj"
    }
   ],
   "return_type" : "_ZTIv",
   "source_file" : "/external/libnl/include/netlink/genl/family.h"
  },
  {
   "function_name" : "genl_family_set_id",
   "linker_set_key" : "genl_family_set_id",
   "parameters" :
   [
    {
     "referenced_type" : "_ZTIP11genl_family"
    },
    {
     "referenced_type" : "_ZTIj"
    }
   ],
   "return_type" : "_ZTIv",
   "source_file" : "/external/libnl/include/netlink/genl/family.h"
  },
  {
   "function_name" : "genl_family_set_maxattr",
   "linker_set_key" : "genl_family_set_maxattr",
   "parameters" :
   [
    {
     "referenced_type" : "_ZTIP11genl_family"
    },
    {
     "referenced_type" : "_ZTIj"
    }
   ],
   "return_type" : "_ZTIv",
   "source_file" : "/external/libnl/include/netlink/genl/family.h"
  },
  {
   "function_name" : "genl_family_set_name",
   "linker_set_key" : "genl_family_set_name",
   "parameters" :
   [
    {
     "referenced_type" : "_ZTIP11genl_family"
    },
    {
     "referenced_type" : "_ZTIPKc"
    }
   ],
   "return_type" : "_ZTIv",
   "source_file" : "/external/libnl/include/netlink/genl/family.h"
  },
  {
   "function_name" : "genl_family_set_version",
   "linker_set_key" : "genl_family_set_version",
   "parameters" :
   [
    {
     "referenced_type" : "_ZTIP11genl_family"
    },
    {
     "referenced_type" : "_ZTIh"
    }
   ],
   "return_type" : "_ZTIv",
   "source_file" : "/external/libnl/include/netlink/genl/family.h"
  },
  {
   "function_name" : "genl_handle_msg",
   "linker_set_key" : "genl_handle_msg",
   "parameters" :
   [
    {
     "referenced_type" : "_ZTIP6nl_msg"
    },
    {
     "referenced_type" : "_ZTIPv"
    }
   ],
   "return_type" : "_ZTIi",
   "source_file" : "/external/libnl/include/netlink/genl/mngt.h"
  },
  {
   "function_name" : "genl_mngt_resolve",
   "linker_set_key" : "genl_mngt_resolve",
   "parameters" :
   [
    {
     "referenced_type" : "_ZTIP7nl_sock"
    }
   ],
   "return_type" : "_ZTIi",
   "source_file" : "/external/libnl/include/netlink/genl/mngt.h"
  },
  {
   "function_name" : "genl_op2name",
   "linker_set_key" : "genl_op2name",
   "parameters" :
   [
    {
     "referenced_type" : "_ZTIi"
    },
    {
     "referenced_type" : "_ZTIi"
    },
    {
     "referenced_type" : "_ZTIPc"
    },
    {
     "referenced_type" : "_ZTIm"
    }
   ],
   "return_type" : "_ZTIPc",
   "source_file" : "/external/libnl/include/netlink/genl/genl.h"
  },
  {
   "function_name" : "genl_ops_resolve",
   "linker_set_key" : "genl_ops_resolve",
   "parameters" :
   [
    {
     "referenced_type" : "_ZTIP7nl_sock"
    },
    {
     "referenced_type" : "_ZTIP8genl_ops#ODR:out/soong/.intermediates/external/libnl/libnl/android_vendor.30_arm64_armv8-a_static/obj/external/libnl/lib/genl/ctrl.sdump"
    }
   ],
   "return_type" : "_ZTIi",
   "source_file" : "/external/libnl/include/netlink/genl/mngt.h"
  },
  {
   "function_name" : "genl_register",
   "linker_set_key" : "genl_register",
   "parameters" :
   [
    {
     "referenced_type" : "_ZTIP12nl_cache_ops"
    }
   ],
   "return_type" : "_ZTIi",
   "source_file" : "/external/libnl/include/netlink/genl/mngt.h"
  },
  {
   "function_name" : "genl_register_family",
   "linker_set_key" : "genl_register_family",
   "parameters" :
   [
    {
     "referenced_type" : "_ZTIP8genl_ops#ODR:out/soong/.intermediates/external/libnl/libnl/android_vendor.30_arm64_armv8-a_static/obj/external/libnl/lib/genl/ctrl.sdump"
    }
   ],
   "return_type" : "_ZTIi",
   "source_file" : "/external/libnl/include/netlink/genl/mngt.h"
  },
  {
   "function_name" : "genl_resolve_id",
   "linker_set_key" : "genl_resolve_id",
   "parameters" :
   [
    {
     "referenced_type" : "_ZTIP8genl_ops#ODR:out/soong/.intermediates/external/libnl/libnl/android_vendor.30_arm64_armv8-a_static/obj/external/libnl/lib/genl/ctrl.sdump"
    }
   ],
   "return_type" : "_ZTIi",
   "source_file" : "/external/libnl/include/netlink-private/genl.h"
  },
  {
   "function_name" : "genl_send_simple",
   "linker_set_key" : "genl_send_simple",
   "parameters" :
   [
    {
     "referenced_type" : "_ZTIP7nl_sock"
    },
    {
     "referenced_type" : "_ZTIi"
    },
    {
     "referenced_type" : "_ZTIi"
    },
    {
     "referenced_type" : "_ZTIi"
    },
    {
     "referenced_type" : "_ZTIi"
    }
   ],
   "return_type" : "_ZTIi",
   "source_file" : "/external/libnl/include/netlink/genl/genl.h"
  },
  {
   "function_name" : "genl_unregister",
   "linker_set_key" : "genl_unregister",
   "parameters" :
   [
    {
     "referenced_type" : "_ZTIP12nl_cache_ops"
    }
   ],
   "return_type" : "_ZTIv",
   "source_file" : "/external/libnl/include/netlink/genl/mngt.h"
  },
  {
   "function_name" : "genl_unregister_family",
   "linker_set_key" : "genl_unregister_family",
   "parameters" :
   [
    {
     "referenced_type" : "_ZTIP8genl_ops#ODR:out/soong/.intermediates/external/libnl/libnl/android_vendor.30_arm64_armv8-a_static/obj/external/libnl/lib/genl/ctrl.sdump"
    }
   ],
   "return_type" : "_ZTIi",
   "source_file" : "/external/libnl/include/netlink/genl/mngt.h"
  },
  {
   "function_name" : "genlmsg_attrdata",
   "linker_set_key" : "genlmsg_attrdata",
   "parameters" :
   [
    {
     "referenced_type" : "_ZTIPK10genlmsghdr"
    },
    {
     "referenced_type" : "_ZTIi"
    }
   ],
   "return_type" : "_ZTIP6nlattr",
   "source_file" : "/external/libnl/include/netlink/genl/genl.h"
  },
  {
   "function_name" : "genlmsg_attrlen",
   "linker_set_key" : "genlmsg_attrlen",
   "parameters" :
   [
    {
     "referenced_type" : "_ZTIPK10genlmsghdr"
    },
    {
     "referenced_type" : "_ZTIi"
    }
   ],
   "return_type" : "_ZTIi",
   "source_file" : "/external/libnl/include/netlink/genl/genl.h"
  },
  {
   "function_name" : "genlmsg_data",
   "linker_set_key" : "genlmsg_data",
   "parameters" :
   [
    {
     "referenced_type" : "_ZTIPK10genlmsghdr"
    }
   ],
   "return_type" : "_ZTIPv",
   "source_file" : "/external/libnl/include/netlink/genl/genl.h"
  },
  {
   "function_name" : "genlmsg_hdr",
   "linker_set_key" : "genlmsg_hdr",
   "parameters" :
   [
    {
     "referenced_type" : "_ZTIP8nlmsghdr"
    }
   ],
   "return_type" : "_ZTIP10genlmsghdr",
   "source_file" : "/external/libnl/include/netlink/genl/genl.h"
  },
  {
   "function_name" : "genlmsg_len",
   "linker_set_key" : "genlmsg_len",
   "parameters" :
   [
    {
     "referenced_type" : "_ZTIPK10genlmsghdr"
    }
   ],
   "return_type" : "_ZTIi",
   "source_file" : "/external/libnl/include/netlink/genl/genl.h"
  },
  {
   "function_name" : "genlmsg_parse",
   "linker_set_key" : "genlmsg_parse",
   "parameters" :
   [
    {
     "referenced_type" : "_ZTIP8nlmsghdr"
    },
    {
     "referenced_type" : "_ZTIi"
    },
    {
     "referenced_type" : "_ZTIPP6nlattr"
    },
    {
     "referenced_type" : "_ZTIi"
    },
    {
     "referenced_type" : "_ZTIP10nla_policy"
    }
   ],
   "return_type" : "_ZTIi",
   "source_file" : "/external/libnl/include/netlink/genl/genl.h"
  },
  {
   "function_name" : "genlmsg_put",
   "linker_set_key" : "genlmsg_put",
   "parameters" :
   [
    {
     "referenced_type" : "_ZTIP6nl_msg"
    },
    {
     "referenced_type" : "_ZTIj"
    },
    {
     "referenced_type" : "_ZTIj"
    },
    {
     "referenced_type" : "_ZTIi"
    },
    {
     "referenced_type" : "_ZTIi"
    },
    {
     "referenced_type" : "_ZTIi"
    },
    {
     "referenced_type" : "_ZTIh"
    },
    {
     "referenced_type" : "_ZTIh"
    }
   ],
   "return_type" : "_ZTIPv",
   "source_file" : "/external/libnl/include/netlink/genl/genl.h"
  },
  {
   "function_name" : "genlmsg_user_data",
   "linker_set_key" : "genlmsg_user_data",
   "parameters" :
   [
    {
     "referenced_type" : "_ZTIPK10genlmsghdr"
    },
    {
     "referenced_type" : "_ZTIKi"
    }
   ],
   "return_type" : "_ZTIPv",
   "source_file" : "/external/libnl/include/netlink/genl/genl.h"
  },
  {
   "function_name" : "genlmsg_user_datalen",
   "linker_set_key" : "genlmsg_user_datalen",
   "parameters" :
   [
    {
     "referenced_type" : "_ZTIPK10genlmsghdr"
    },
    {
     "referenced_type" : "_ZTIKi"
    }
   ],
   "return_type" : "_ZTIi",
   "source_file" : "/external/libnl/include/netlink/genl/genl.h"
  },
  {
   "function_name" : "genlmsg_user_hdr",
   "linker_set_key" : "genlmsg_user_hdr",
   "parameters" :
   [
    {
     "referenced_type" : "_ZTIPK10genlmsghdr"
    }
   ],
   "return_type" : "_ZTIPv",
   "source_file" : "/external/libnl/include/netlink/genl/genl.h"
  },
  {
   "function_name" : "genlmsg_valid_hdr",
   "linker_set_key" : "genlmsg_valid_hdr",
   "parameters" :
   [
    {
     "referenced_type" : "_ZTIP8nlmsghdr"
    },
    {
     "referenced_type" : "_ZTIi"
    }
   ],
   "return_type" : "_ZTIi",
   "source_file" : "/external/libnl/include/netlink/genl/genl.h"
  },
  {
   "function_name" : "genlmsg_validate",
   "linker_set_key" : "genlmsg_validate",
   "parameters" :
   [
    {
     "referenced_type" : "_ZTIP8nlmsghdr"
    },
    {
     "referenced_type" : "_ZTIi"
    },
    {
     "referenced_type" : "_ZTIi"
    },
    {
     "referenced_type" : "_ZTIP10nla_policy"
    }
   ],
   "return_type" : "_ZTIi",
   "source_file" : "/external/libnl/include/netlink/genl/genl.h"
  },
  {
   "function_name" : "nfnl_connect",
   "linker_set_key" : "nfnl_connect",
   "parameters" :
   [
    {
     "referenced_type" : "_ZTIP7nl_sock"
    }
   ],
   "return_type" : "_ZTIi",
   "source_file" : "/external/libnl/include/netlink/netfilter/nfnl.h"
  },
  {
   "function_name" : "nfnl_send_simple",
   "linker_set_key" : "nfnl_send_simple",
   "parameters" :
   [
    {
     "referenced_type" : "_ZTIP7nl_sock"
    },
    {
     "referenced_type" : "_ZTIh"
    },
    {
     "referenced_type" : "_ZTIh"
    },
    {
     "referenced_type" : "_ZTIi"
    },
    {
     "referenced_type" : "_ZTIh"
    },
    {
     "referenced_type" : "_ZTIt"
    }
   ],
   "return_type" : "_ZTIi",
   "source_file" : "/external/libnl/include/netlink/netfilter/nfnl.h"
  },
  {
   "function_name" : "nfnlmsg_alloc_simple",
   "linker_set_key" : "nfnlmsg_alloc_simple",
   "parameters" :
   [
    {
     "referenced_type" : "_ZTIh"
    },
    {
     "referenced_type" : "_ZTIh"
    },
    {
     "referenced_type" : "_ZTIi"
    },
    {
     "referenced_type" : "_ZTIh"
    },
    {
     "referenced_type" : "_ZTIt"
    }
   ],
   "return_type" : "_ZTIP6nl_msg",
   "source_file" : "/external/libnl/include/netlink/netfilter/nfnl.h"
  },
  {
   "function_name" : "nfnlmsg_family",
   "linker_set_key" : "nfnlmsg_family",
   "parameters" :
   [
    {
     "referenced_type" : "_ZTIP8nlmsghdr"
    }
   ],
   "return_type" : "_ZTIh",
   "source_file" : "/external/libnl/include/netlink/netfilter/nfnl.h"
  },
  {
   "function_name" : "nfnlmsg_put",
   "linker_set_key" : "nfnlmsg_put",
   "parameters" :
   [
    {
     "referenced_type" : "_ZTIP6nl_msg"
    },
    {
     "referenced_type" : "_ZTIj"
    },
    {
     "referenced_type" : "_ZTIj"
    },
    {
     "referenced_type" : "_ZTIh"
    },
    {
     "referenced_type" : "_ZTIh"
    },
    {
     "referenced_type" : "_ZTIi"
    },
    {
     "referenced_type" : "_ZTIh"
    },
    {
     "referenced_type" : "_ZTIt"
    }
   ],
   "return_type" : "_ZTIi",
   "source_file" : "/external/libnl/include/netlink/netfilter/nfnl.h"
  },
  {
   "function_name" : "nfnlmsg_res_id",
   "linker_set_key" : "nfnlmsg_res_id",
   "parameters" :
   [
    {
     "referenced_type" : "_ZTIP8nlmsghdr"
    }
   ],
   "return_type" : "_ZTIt",
   "source_file" : "/external/libnl/include/netlink/netfilter/nfnl.h"
  },
  {
   "function_name" : "nfnlmsg_subsys",
   "linker_set_key" : "nfnlmsg_subsys",
   "parameters" :
   [
    {
     "referenced_type" : "_ZTIP8nlmsghdr"
    }
   ],
   "return_type" : "_ZTIh",
   "source_file" : "/external/libnl/include/netlink/netfilter/nfnl.h"
  },
  {
   "function_name" : "nfnlmsg_subtype",
   "linker_set_key" : "nfnlmsg_subtype",
   "parameters" :
   [
    {
     "referenced_type" : "_ZTIP8nlmsghdr"
    }
   ],
   "return_type" : "_ZTIh",
   "source_file" : "/external/libnl/include/netlink/netfilter/nfnl.h"
  },
  {
   "function_name" : "nl_addr2str",
   "linker_set_key" : "nl_addr2str",
   "parameters" :
   [
    {
     "referenced_type" : "_ZTIP7nl_addr"
    },
    {
     "referenced_type" : "_ZTIPc"
    },
    {
     "referenced_type" : "_ZTIm"
    }
   ],
   "return_type" : "_ZTIPc",
   "source_file" : "/external/libnl/include/netlink/addr.h"
  },
  {
   "function_name" : "nl_addr_alloc",
   "linker_set_key" : "nl_addr_alloc",
   "parameters" :
   [
    {
     "referenced_type" : "_ZTIm"
    }
   ],
   "return_type" : "_ZTIP7nl_addr",
   "source_file" : "/external/libnl/include/netlink/addr.h"
  },
  {
   "function_name" : "nl_addr_alloc_attr",
   "linker_set_key" : "nl_addr_alloc_attr",
   "parameters" :
   [
    {
     "referenced_type" : "_ZTIP6nlattr"
    },
    {
     "referenced_type" : "_ZTIi"
    }
   ],
   "return_type" : "_ZTIP7nl_addr",
   "source_file" : "/external/libnl/include/netlink/addr.h"
  },
  {
   "function_name" : "nl_addr_build",
   "linker_set_key" : "nl_addr_build",
   "parameters" :
   [
    {
     "referenced_type" : "_ZTIi"
    },
    {
     "referenced_type" : "_ZTIPv"
    },
    {
     "referenced_type" : "_ZTIm"
    }
   ],
   "return_type" : "_ZTIP7nl_addr",
   "source_file" : "/external/libnl/include/netlink/addr.h"
  },
  {
   "function_name" : "nl_addr_clone",
   "linker_set_key" : "nl_addr_clone",
   "parameters" :
   [
    {
     "referenced_type" : "_ZTIP7nl_addr"
    }
   ],
   "return_type" : "_ZTIP7nl_addr",
   "source_file" : "/external/libnl/include/netlink/addr.h"
  },
  {
   "function_name" : "nl_addr_cmp",
   "linker_set_key" : "nl_addr_cmp",
   "parameters" :
   [
    {
     "referenced_type" : "_ZTIP7nl_addr"
    },
    {
     "referenced_type" : "_ZTIP7nl_addr"
    }
   ],
   "return_type" : "_ZTIi",
   "source_file" : "/external/libnl/include/netlink/addr.h"
  },
  {
   "function_name" : "nl_addr_cmp_prefix",
   "linker_set_key" : "nl_addr_cmp_prefix",
   "parameters" :
   [
    {
     "referenced_type" : "_ZTIP7nl_addr"
    },
    {
     "referenced_type" : "_ZTIP7nl_addr"
    }
   ],
   "return_type" : "_ZTIi",
   "source_file" : "/external/libnl/include/netlink/addr.h"
  },
  {
   "function_name" : "nl_addr_fill_sockaddr",
   "linker_set_key" : "nl_addr_fill_sockaddr",
   "parameters" :
   [
    {
     "referenced_type" : "_ZTIP7nl_addr"
    },
    {
     "referenced_type" : "_ZTIP8sockaddr"
    },
    {
     "referenced_type" : "_ZTIPj"
    }
   ],
   "return_type" : "_ZTIi",
   "source_file" : "/external/libnl/include/netlink/addr.h"
  },
  {
   "function_name" : "nl_addr_get",
   "linker_set_key" : "nl_addr_get",
   "parameters" :
   [
    {
     "referenced_type" : "_ZTIP7nl_addr"
    }
   ],
   "return_type" : "_ZTIP7nl_addr",
   "source_file" : "/external/libnl/include/netlink/addr.h"
  },
  {
   "function_name" : "nl_addr_get_binary_addr",
   "linker_set_key" : "nl_addr_get_binary_addr",
   "parameters" :
   [
    {
     "referenced_type" : "_ZTIP7nl_addr"
    }
   ],
   "return_type" : "_ZTIPv",
   "source_file" : "/external/libnl/include/netlink/addr.h"
  },
  {
   "function_name" : "nl_addr_get_family",
   "linker_set_key" : "nl_addr_get_family",
   "parameters" :
   [
    {
     "referenced_type" : "_ZTIP7nl_addr"
    }
   ],
   "return_type" : "_ZTIi",
   "source_file" : "/external/libnl/include/netlink/addr.h"
  },
  {
   "function_name" : "nl_addr_get_len",
   "linker_set_key" : "nl_addr_get_len",
   "parameters" :
   [
    {
     "referenced_type" : "_ZTIP7nl_addr"
    }
   ],
   "return_type" : "_ZTIj",
   "source_file" : "/external/libnl/include/netlink/addr.h"
  },
  {
   "function_name" : "nl_addr_get_prefixlen",
   "linker_set_key" : "nl_addr_get_prefixlen",
   "parameters" :
   [
    {
     "referenced_type" : "_ZTIP7nl_addr"
    }
   ],
   "return_type" : "_ZTIj",
   "source_file" : "/external/libnl/include/netlink/addr.h"
  },
  {
   "function_name" : "nl_addr_guess_family",
   "linker_set_key" : "nl_addr_guess_family",
   "parameters" :
   [
    {
     "referenced_type" : "_ZTIP7nl_addr"
    }
   ],
   "return_type" : "_ZTIi",
   "source_file" : "/external/libnl/include/netlink/addr.h"
  },
  {
   "function_name" : "nl_addr_info",
   "linker_set_key" : "nl_addr_info",
   "parameters" :
   [
    {
     "referenced_type" : "_ZTIP7nl_addr"
    },
    {
     "referenced_type" : "_ZTIPP8addrinfo"
    }
   ],
   "return_type" : "_ZTIi",
   "source_file" : "/external/libnl/include/netlink/addr.h"
  },
  {
   "function_name" : "nl_addr_iszero",
   "linker_set_key" : "nl_addr_iszero",
   "parameters" :
   [
    {
     "referenced_type" : "_ZTIP7nl_addr"
    }
   ],
   "return_type" : "_ZTIi",
   "source_file" : "/external/libnl/include/netlink/addr.h"
  },
  {
   "function_name" : "nl_addr_parse",
   "linker_set_key" : "nl_addr_parse",
   "parameters" :
   [
    {
     "referenced_type" : "_ZTIPKc"
    },
    {
     "referenced_type" : "_ZTIi"
    },
    {
     "referenced_type" : "_ZTIPP7nl_addr"
    }
   ],
   "return_type" : "_ZTIi",
   "source_file" : "/external/libnl/include/netlink/addr.h"
  },
  {
   "function_name" : "nl_addr_put",
   "linker_set_key" : "nl_addr_put",
   "parameters" :
   [
    {
     "referenced_type" : "_ZTIP7nl_addr"
    }
   ],
   "return_type" : "_ZTIv",
   "source_file" : "/external/libnl/include/netlink/addr.h"
  },
  {
   "function_name" : "nl_addr_resolve",
   "linker_set_key" : "nl_addr_resolve",
   "parameters" :
   [
    {
     "referenced_type" : "_ZTIP7nl_addr"
    },
    {
     "referenced_type" : "_ZTIPc"
    },
    {
     "referenced_type" : "_ZTIm"
    }
   ],
   "return_type" : "_ZTIi",
   "source_file" : "/external/libnl/include/netlink/addr.h"
  },
  {
   "function_name" : "nl_addr_set_binary_addr",
   "linker_set_key" : "nl_addr_set_binary_addr",
   "parameters" :
   [
    {
     "referenced_type" : "_ZTIP7nl_addr"
    },
    {
     "referenced_type" : "_ZTIPv"
    },
    {
     "referenced_type" : "_ZTIm"
    }
   ],
   "return_type" : "_ZTIi",
   "source_file" : "/external/libnl/include/netlink/addr.h"
  },
  {
   "function_name" : "nl_addr_set_family",
   "linker_set_key" : "nl_addr_set_family",
   "parameters" :
   [
    {
     "referenced_type" : "_ZTIP7nl_addr"
    },
    {
     "referenced_type" : "_ZTIi"
    }
   ],
   "return_type" : "_ZTIv",
   "source_file" : "/external/libnl/include/netlink/addr.h"
  },
  {
   "function_name" : "nl_addr_set_prefixlen",
   "linker_set_key" : "nl_addr_set_prefixlen",
   "parameters" :
   [
    {
     "referenced_type" : "_ZTIP7nl_addr"
    },
    {
     "referenced_type" : "_ZTIi"
    }
   ],
   "return_type" : "_ZTIv",
   "source_file" : "/external/libnl/include/netlink/addr.h"
  },
  {
   "function_name" : "nl_addr_shared",
   "linker_set_key" : "nl_addr_shared",
   "parameters" :
   [
    {
     "referenced_type" : "_ZTIP7nl_addr"
    }
   ],
   "return_type" : "_ZTIi",
   "source_file" : "/external/libnl/include/netlink/addr.h"
  },
  {
   "function_name" : "nl_addr_valid",
   "linker_set_key" : "nl_addr_valid",
   "parameters" :
   [
    {
     "referenced_type" : "_ZTIPc"
    },
    {
     "referenced_type" : "_ZTIi"
    }
   ],
   "return_type" : "_ZTIi",
   "source_file" : "/external/libnl/include/netlink/addr.h"
  },
  {
   "function_name" : "nl_af2str",
   "linker_set_key" : "nl_af2str",
   "parameters" :
   [
    {
     "referenced_type" : "_ZTIi"
    },
    {
     "referenced_type" : "_ZTIPc"
    },
    {
     "referenced_type" : "_ZTIm"
    }
   ],
   "return_type" : "_ZTIPc",
   "source_file" : "/external/libnl/include/netlink/addr.h"
  },
  {
   "function_name" : "nl_auto_complete",
   "linker_set_key" : "nl_auto_complete",
   "parameters" :
   [
    {
     "referenced_type" : "_ZTIP7nl_sock"
    },
    {
     "referenced_type" : "_ZTIP6nl_msg"
    }
   ],
   "return_type" : "_ZTIv",
   "source_file" : "/external/libnl/include/netlink/netlink.h"
  },
  {
   "function_name" : "nl_cache_add",
   "linker_set_key" : "nl_cache_add",
   "parameters" :
   [
    {
     "referenced_type" : "_ZTIP8nl_cache"
    },
    {
     "referenced_type" : "_ZTIP9nl_object"
    }
   ],
   "return_type" : "_ZTIi",
   "source_file" : "/external/libnl/include/netlink/cache.h"
  },
  {
   "function_name" : "nl_cache_alloc",
   "linker_set_key" : "nl_cache_alloc",
   "parameters" :
   [
    {
     "referenced_type" : "_ZTIP12nl_cache_ops"
    }
   ],
   "return_type" : "_ZTIP8nl_cache",
   "source_file" : "/external/libnl/include/netlink/cache.h"
  },
  {
   "function_name" : "nl_cache_alloc_and_fill",
   "linker_set_key" : "nl_cache_alloc_and_fill",
   "parameters" :
   [
    {
     "referenced_type" : "_ZTIP12nl_cache_ops"
    },
    {
     "referenced_type" : "_ZTIP7nl_sock"
    },
    {
     "referenced_type" : "_ZTIPP8nl_cache"
    }
   ],
   "return_type" : "_ZTIi",
   "source_file" : "/external/libnl/include/netlink/cache.h"
  },
  {
   "function_name" : "nl_cache_alloc_name",
   "linker_set_key" : "nl_cache_alloc_name",
   "parameters" :
   [
    {
     "referenced_type" : "_ZTIPKc"
    },
    {
     "referenced_type" : "_ZTIPP8nl_cache"
    }
   ],
   "return_type" : "_ZTIi",
   "source_file" : "/external/libnl/include/netlink/cache.h"
  },
  {
   "function_name" : "nl_cache_clear",
   "linker_set_key" : "nl_cache_clear",
   "parameters" :
   [
    {
     "referenced_type" : "_ZTIP8nl_cache"
    }
   ],
   "return_type" : "_ZTIv",
   "source_file" : "/external/libnl/include/netlink/cache.h"
  },
  {
   "function_name" : "nl_cache_clone",
   "linker_set_key" : "nl_cache_clone",
   "parameters" :
   [
    {
     "referenced_type" : "_ZTIP8nl_cache"
    }
   ],
   "return_type" : "_ZTIP8nl_cache",
   "source_file" : "/external/libnl/include/netlink/cache.h"
  },
  {
   "function_name" : "nl_cache_dump",
   "linker_set_key" : "nl_cache_dump",
   "parameters" :
   [
    {
     "referenced_type" : "_ZTIP8nl_cache"
    },
    {
     "referenced_type" : "_ZTIP14nl_dump_params"
    }
   ],
   "return_type" : "_ZTIv",
   "source_file" : "/external/libnl/include/netlink/cache.h"
  },
  {
   "function_name" : "nl_cache_dump_filter",
   "linker_set_key" : "nl_cache_dump_filter",
   "parameters" :
   [
    {
     "referenced_type" : "_ZTIP8nl_cache"
    },
    {
     "referenced_type" : "_ZTIP14nl_dump_params"
    },
    {
     "referenced_type" : "_ZTIP9nl_object"
    }
   ],
   "return_type" : "_ZTIv",
   "source_file" : "/external/libnl/include/netlink/cache.h"
  },
  {
   "function_name" : "nl_cache_find",
   "linker_set_key" : "nl_cache_find",
   "parameters" :
   [
    {
     "referenced_type" : "_ZTIP8nl_cache"
    },
    {
     "referenced_type" : "_ZTIP9nl_object"
    }
   ],
   "return_type" : "_ZTIP9nl_object",
   "source_file" : "/external/libnl/include/netlink/cache.h"
  },
  {
   "function_name" : "nl_cache_foreach",
   "linker_set_key" : "nl_cache_foreach",
   "parameters" :
   [
    {
     "referenced_type" : "_ZTIP8nl_cache"
    },
    {
     "referenced_type" : "_ZTIPFvP9nl_objectPvE"
    },
    {
     "referenced_type" : "_ZTIPv"
    }
   ],
   "return_type" : "_ZTIv",
   "source_file" : "/external/libnl/include/netlink/cache.h"
  },
  {
   "function_name" : "nl_cache_foreach_filter",
   "linker_set_key" : "nl_cache_foreach_filter",
   "parameters" :
   [
    {
     "referenced_type" : "_ZTIP8nl_cache"
    },
    {
     "referenced_type" : "_ZTIP9nl_object"
    },
    {
     "referenced_type" : "_ZTIPFvP9nl_objectPvE"
    },
    {
     "referenced_type" : "_ZTIPv"
    }
   ],
   "return_type" : "_ZTIv",
   "source_file" : "/external/libnl/include/netlink/cache.h"
  },
  {
   "function_name" : "nl_cache_free",
   "linker_set_key" : "nl_cache_free",
   "parameters" :
   [
    {
     "referenced_type" : "_ZTIP8nl_cache"
    }
   ],
   "return_type" : "_ZTIv",
   "source_file" : "/external/libnl/include/netlink/cache.h"
  },
  {
   "function_name" : "nl_cache_get",
   "linker_set_key" : "nl_cache_get",
   "parameters" :
   [
    {
     "referenced_type" : "_ZTIP8nl_cache"
    }
   ],
   "return_type" : "_ZTIv",
   "source_file" : "/external/libnl/include/netlink/cache.h"
  },
  {
   "function_name" : "nl_cache_get_first",
   "linker_set_key" : "nl_cache_get_first",
   "parameters" :
   [
    {
     "referenced_type" : "_ZTIP8nl_cache"
    }
   ],
   "return_type" : "_ZTIP9nl_object",
   "source_file" : "/external/libnl/include/netlink/cache.h"
  },
  {
   "function_name" : "nl_cache_get_last",
   "linker_set_key" : "nl_cache_get_last",
   "parameters" :
   [
    {
     "referenced_type" : "_ZTIP8nl_cache"
    }
   ],
   "return_type" : "_ZTIP9nl_object",
   "source_file" : "/external/libnl/include/netlink/cache.h"
  },
  {
   "function_name" : "nl_cache_get_next",
   "linker_set_key" : "nl_cache_get_next",
   "parameters" :
   [
    {
     "referenced_type" : "_ZTIP9nl_object"
    }
   ],
   "return_type" : "_ZTIP9nl_object",
   "source_file" : "/external/libnl/include/netlink/cache.h"
  },
  {
   "function_name" : "nl_cache_get_ops",
   "linker_set_key" : "nl_cache_get_ops",
   "parameters" :
   [
    {
     "referenced_type" : "_ZTIP8nl_cache"
    }
   ],
   "return_type" : "_ZTIP12nl_cache_ops",
   "source_file" : "/external/libnl/include/netlink/cache.h"
  },
  {
   "function_name" : "nl_cache_get_prev",
   "linker_set_key" : "nl_cache_get_prev",
   "parameters" :
   [
    {
     "referenced_type" : "_ZTIP9nl_object"
    }
   ],
   "return_type" : "_ZTIP9nl_object",
   "source_file" : "/external/libnl/include/netlink/cache.h"
  },
  {
   "function_name" : "nl_cache_include",
   "linker_set_key" : "nl_cache_include",
   "parameters" :
   [
    {
     "referenced_type" : "_ZTIP8nl_cache"
    },
    {
     "referenced_type" : "_ZTIP9nl_object"
    },
    {
     "referenced_type" : "_ZTIPFvP8nl_cacheP9nl_objectiPvE"
    },
    {
     "referenced_type" : "_ZTIPv"
    }
   ],
   "return_type" : "_ZTIi",
   "source_file" : "/external/libnl/include/netlink/cache.h"
  },
  {
   "function_name" : "nl_cache_is_empty",
   "linker_set_key" : "nl_cache_is_empty",
   "parameters" :
   [
    {
     "referenced_type" : "_ZTIP8nl_cache"
    }
   ],
   "return_type" : "_ZTIi",
   "source_file" : "/external/libnl/include/netlink/cache.h"
  },
  {
   "function_name" : "nl_cache_mark_all",
   "linker_set_key" : "nl_cache_mark_all",
   "parameters" :
   [
    {
     "referenced_type" : "_ZTIP8nl_cache"
    }
   ],
   "return_type" : "_ZTIv",
   "source_file" : "/external/libnl/include/netlink/cache.h"
  },
  {
   "function_name" : "nl_cache_mngr_add",
   "linker_set_key" : "nl_cache_mngr_add",
   "parameters" :
   [
    {
     "referenced_type" : "_ZTIP13nl_cache_mngr"
    },
    {
     "referenced_type" : "_ZTIPKc"
    },
    {
     "referenced_type" : "_ZTIPFvP8nl_cacheP9nl_objectiPvE"
    },
    {
     "referenced_type" : "_ZTIPv"
    },
    {
     "referenced_type" : "_ZTIPP8nl_cache"
    }
   ],
   "return_type" : "_ZTIi",
   "source_file" : "/external/libnl/include/netlink/cache.h"
  },
  {
   "function_name" : "nl_cache_mngr_add_cache",
   "linker_set_key" : "nl_cache_mngr_add_cache",
   "parameters" :
   [
    {
     "referenced_type" : "_ZTIP13nl_cache_mngr"
    },
    {
     "referenced_type" : "_ZTIP8nl_cache"
    },
    {
     "referenced_type" : "_ZTIPFvP8nl_cacheP9nl_objectiPvE"
    },
    {
     "referenced_type" : "_ZTIPv"
    }
   ],
   "return_type" : "_ZTIi",
   "source_file" : "/external/libnl/include/netlink/cache.h"
  },
  {
   "function_name" : "nl_cache_mngr_alloc",
   "linker_set_key" : "nl_cache_mngr_alloc",
   "parameters" :
   [
    {
     "referenced_type" : "_ZTIP7nl_sock"
    },
    {
     "referenced_type" : "_ZTIi"
    },
    {
     "referenced_type" : "_ZTIi"
    },
    {
     "referenced_type" : "_ZTIPP13nl_cache_mngr"
    }
   ],
   "return_type" : "_ZTIi",
   "source_file" : "/external/libnl/include/netlink/cache.h"
  },
  {
   "function_name" : "nl_cache_mngr_data_ready",
   "linker_set_key" : "nl_cache_mngr_data_ready",
   "parameters" :
   [
    {
     "referenced_type" : "_ZTIP13nl_cache_mngr"
    }
   ],
   "return_type" : "_ZTIi",
   "source_file" : "/external/libnl/include/netlink/cache.h"
  },
  {
   "function_name" : "nl_cache_mngr_free",
   "linker_set_key" : "nl_cache_mngr_free",
   "parameters" :
   [
    {
     "referenced_type" : "_ZTIP13nl_cache_mngr"
    }
   ],
   "return_type" : "_ZTIv",
   "source_file" : "/external/libnl/include/netlink/cache.h"
  },
  {
   "function_name" : "nl_cache_mngr_get_fd",
   "linker_set_key" : "nl_cache_mngr_get_fd",
   "parameters" :
   [
    {
     "referenced_type" : "_ZTIP13nl_cache_mngr"
    }
   ],
   "return_type" : "_ZTIi",
   "source_file" : "/external/libnl/include/netlink/cache.h"
  },
  {
   "function_name" : "nl_cache_mngr_info",
   "linker_set_key" : "nl_cache_mngr_info",
   "parameters" :
   [
    {
     "referenced_type" : "_ZTIP13nl_cache_mngr"
    },
    {
     "referenced_type" : "_ZTIP14nl_dump_params"
    }
   ],
   "return_type" : "_ZTIv",
   "source_file" : "/external/libnl/include/netlink/cache.h"
  },
  {
   "function_name" : "nl_cache_mngr_poll",
   "linker_set_key" : "nl_cache_mngr_poll",
   "parameters" :
   [
    {
     "referenced_type" : "_ZTIP13nl_cache_mngr"
    },
    {
     "referenced_type" : "_ZTIi"
    }
   ],
   "return_type" : "_ZTIi",
   "source_file" : "/external/libnl/include/netlink/cache.h"
  },
  {
   "function_name" : "nl_cache_mngt_provide",
   "linker_set_key" : "nl_cache_mngt_provide",
   "parameters" :
   [
    {
     "referenced_type" : "_ZTIP8nl_cache"
    }
   ],
   "return_type" : "_ZTIv",
   "source_file" : "/external/libnl/include/netlink/cache.h"
  },
  {
   "function_name" : "nl_cache_mngt_register",
   "linker_set_key" : "nl_cache_mngt_register",
   "parameters" :
   [
    {
     "referenced_type" : "_ZTIP12nl_cache_ops"
    }
   ],
   "return_type" : "_ZTIi",
   "source_file" : "/external/libnl/include/netlink/cache.h"
  },
  {
   "function_name" : "nl_cache_mngt_require",
   "linker_set_key" : "nl_cache_mngt_require",
   "parameters" :
   [
    {
     "referenced_type" : "_ZTIPKc"
    }
   ],
   "return_type" : "_ZTIP8nl_cache",
   "source_file" : "/external/libnl/include/netlink/cache.h"
  },
  {
   "function_name" : "nl_cache_mngt_require_safe",
   "linker_set_key" : "nl_cache_mngt_require_safe",
   "parameters" :
   [
    {
     "referenced_type" : "_ZTIPKc"
    }
   ],
   "return_type" : "_ZTIP8nl_cache",
   "source_file" : "/external/libnl/include/netlink/cache.h"
  },
  {
   "function_name" : "nl_cache_mngt_unprovide",
   "linker_set_key" : "nl_cache_mngt_unprovide",
   "parameters" :
   [
    {
     "referenced_type" : "_ZTIP8nl_cache"
    }
   ],
   "return_type" : "_ZTIv",
   "source_file" : "/external/libnl/include/netlink/cache.h"
  },
  {
   "function_name" : "nl_cache_mngt_unregister",
   "linker_set_key" : "nl_cache_mngt_unregister",
   "parameters" :
   [
    {
     "referenced_type" : "_ZTIP12nl_cache_ops"
    }
   ],
   "return_type" : "_ZTIi",
   "source_file" : "/external/libnl/include/netlink/cache.h"
  },
  {
   "function_name" : "nl_cache_move",
   "linker_set_key" : "nl_cache_move",
   "parameters" :
   [
    {
     "referenced_type" : "_ZTIP8nl_cache"
    },
    {
     "referenced_type" : "_ZTIP9nl_object"
    }
   ],
   "return_type" : "_ZTIi",
   "source_file" : "/external/libnl/include/netlink/cache.h"
  },
  {
   "function_name" : "nl_cache_nitems",
   "linker_set_key" : "nl_cache_nitems",
   "parameters" :
   [
    {
     "referenced_type" : "_ZTIP8nl_cache"
    }
   ],
   "return_type" : "_ZTIi",
   "source_file" : "/external/libnl/include/netlink/cache.h"
  },
  {
   "function_name" : "nl_cache_nitems_filter",
   "linker_set_key" : "nl_cache_nitems_filter",
   "parameters" :
   [
    {
     "referenced_type" : "_ZTIP8nl_cache"
    },
    {
     "referenced_type" : "_ZTIP9nl_object"
    }
   ],
   "return_type" : "_ZTIi",
   "source_file" : "/external/libnl/include/netlink/cache.h"
  },
  {
   "function_name" : "nl_cache_ops_associate",
   "linker_set_key" : "nl_cache_ops_associate",
   "parameters" :
   [
    {
     "referenced_type" : "_ZTIi"
    },
    {
     "referenced_type" : "_ZTIi"
    }
   ],
   "return_type" : "_ZTIP12nl_cache_ops",
   "source_file" : "/external/libnl/include/netlink/cache.h"
  },
  {
   "function_name" : "nl_cache_ops_associate_safe",
   "linker_set_key" : "nl_cache_ops_associate_safe",
   "parameters" :
   [
    {
     "referenced_type" : "_ZTIi"
    },
    {
     "referenced_type" : "_ZTIi"
    }
   ],
   "return_type" : "_ZTIP12nl_cache_ops",
   "source_file" : "/external/libnl/include/netlink/cache.h"
  },
  {
   "function_name" : "nl_cache_ops_foreach",
   "linker_set_key" : "nl_cache_ops_foreach",
   "parameters" :
   [
    {
     "referenced_type" : "_ZTIPFvP12nl_cache_opsPvE"
    },
    {
     "referenced_type" : "_ZTIPv"
    }
   ],
   "return_type" : "_ZTIv",
   "source_file" : "/external/libnl/include/netlink/cache.h"
  },
  {
   "function_name" : "nl_cache_ops_get",
   "linker_set_key" : "nl_cache_ops_get",
   "parameters" :
   [
    {
     "referenced_type" : "_ZTIP12nl_cache_ops"
    }
   ],
   "return_type" : "_ZTIv",
   "source_file" : "/external/libnl/include/netlink/cache.h"
  },
  {
   "function_name" : "nl_cache_ops_lookup",
   "linker_set_key" : "nl_cache_ops_lookup",
   "parameters" :
   [
    {
     "referenced_type" : "_ZTIPKc"
    }
   ],
   "return_type" : "_ZTIP12nl_cache_ops",
   "source_file" : "/external/libnl/include/netlink/cache.h"
  },
  {
   "function_name" : "nl_cache_ops_lookup_safe",
   "linker_set_key" : "nl_cache_ops_lookup_safe",
   "parameters" :
   [
    {
     "referenced_type" : "_ZTIPKc"
    }
   ],
   "return_type" : "_ZTIP12nl_cache_ops",
   "source_file" : "/external/libnl/include/netlink/cache.h"
  },
  {
   "function_name" : "nl_cache_ops_put",
   "linker_set_key" : "nl_cache_ops_put",
   "parameters" :
   [
    {
     "referenced_type" : "_ZTIP12nl_cache_ops"
    }
   ],
   "return_type" : "_ZTIv",
   "source_file" : "/external/libnl/include/netlink/cache.h"
  },
  {
   "function_name" : "nl_cache_parse",
   "linker_set_key" : "nl_cache_parse",
   "parameters" :
   [
    {
     "referenced_type" : "_ZTIP12nl_cache_ops"
    },
    {
     "referenced_type" : "_ZTIP11sockaddr_nl"
    },
    {
     "referenced_type" : "_ZTIP8nlmsghdr"
    },
    {
     "referenced_type" : "_ZTIP15nl_parser_param"
    }
   ],
   "return_type" : "_ZTIi",
   "source_file" : "/external/libnl/include/netlink-private/netlink.h"
  },
  {
   "function_name" : "nl_cache_parse_and_add",
   "linker_set_key" : "nl_cache_parse_and_add",
   "parameters" :
   [
    {
     "referenced_type" : "_ZTIP8nl_cache"
    },
    {
     "referenced_type" : "_ZTIP6nl_msg"
    }
   ],
   "return_type" : "_ZTIi",
   "source_file" : "/external/libnl/include/netlink/cache.h"
  },
  {
   "function_name" : "nl_cache_pickup",
   "linker_set_key" : "nl_cache_pickup",
   "parameters" :
   [
    {
     "referenced_type" : "_ZTIP7nl_sock"
    },
    {
     "referenced_type" : "_ZTIP8nl_cache"
    }
   ],
   "return_type" : "_ZTIi",
   "source_file" : "/external/libnl/include/netlink/cache.h"
  },
  {
   "function_name" : "nl_cache_put",
   "linker_set_key" : "nl_cache_put",
   "parameters" :
   [
    {
     "referenced_type" : "_ZTIP8nl_cache"
    }
   ],
   "return_type" : "_ZTIv",
   "source_file" : "/external/libnl/include/netlink/cache.h"
  },
  {
   "function_name" : "nl_cache_refill",
   "linker_set_key" : "nl_cache_refill",
   "parameters" :
   [
    {
     "referenced_type" : "_ZTIP7nl_sock"
    },
    {
     "referenced_type" : "_ZTIP8nl_cache"
    }
   ],
   "return_type" : "_ZTIi",
   "source_file" : "/external/libnl/include/netlink/cache.h"
  },
  {
   "function_name" : "nl_cache_remove",
   "linker_set_key" : "nl_cache_remove",
   "parameters" :
   [
    {
     "referenced_type" : "_ZTIP9nl_object"
    }
   ],
   "return_type" : "_ZTIv",
   "source_file" : "/external/libnl/include/netlink/cache.h"
  },
  {
   "function_name" : "nl_cache_resync",
   "linker_set_key" : "nl_cache_resync",
   "parameters" :
   [
    {
     "referenced_type" : "_ZTIP7nl_sock"
    },
    {
     "referenced_type" : "_ZTIP8nl_cache"
    },
    {
     "referenced_type" : "_ZTIPFvP8nl_cacheP9nl_objectiPvE"
    },
    {
     "referenced_type" : "_ZTIPv"
    }
   ],
   "return_type" : "_ZTIi",
   "source_file" : "/external/libnl/include/netlink/cache.h"
  },
  {
   "function_name" : "nl_cache_search",
   "linker_set_key" : "nl_cache_search",
   "parameters" :
   [
    {
     "referenced_type" : "_ZTIP8nl_cache"
    },
    {
     "referenced_type" : "_ZTIP9nl_object"
    }
   ],
   "return_type" : "_ZTIP9nl_object",
   "source_file" : "/external/libnl/include/netlink/cache.h"
  },
  {
   "function_name" : "nl_cache_set_arg1",
   "linker_set_key" : "nl_cache_set_arg1",
   "parameters" :
   [
    {
     "referenced_type" : "_ZTIP8nl_cache"
    },
    {
     "referenced_type" : "_ZTIi"
    }
   ],
   "return_type" : "_ZTIv",
   "source_file" : "/external/libnl/include/netlink/cache.h"
  },
  {
   "function_name" : "nl_cache_set_arg2",
   "linker_set_key" : "nl_cache_set_arg2",
   "parameters" :
   [
    {
     "referenced_type" : "_ZTIP8nl_cache"
    },
    {
     "referenced_type" : "_ZTIi"
    }
   ],
   "return_type" : "_ZTIv",
   "source_file" : "/external/libnl/include/netlink/cache.h"
  },
  {
   "function_name" : "nl_cache_set_flags",
   "linker_set_key" : "nl_cache_set_flags",
   "parameters" :
   [
    {
     "referenced_type" : "_ZTIP8nl_cache"
    },
    {
     "referenced_type" : "_ZTIj"
    }
   ],
   "return_type" : "_ZTIv",
   "source_file" : "/external/libnl/include/netlink/cache.h"
  },
  {
   "function_name" : "nl_cache_subset",
   "linker_set_key" : "nl_cache_subset",
   "parameters" :
   [
    {
     "referenced_type" : "_ZTIP8nl_cache"
    },
    {
     "referenced_type" : "_ZTIP9nl_object"
    }
   ],
   "return_type" : "_ZTIP8nl_cache",
   "source_file" : "/external/libnl/include/netlink/cache.h"
  },
  {
   "function_name" : "nl_cancel_down_bits",
   "linker_set_key" : "nl_cancel_down_bits",
   "parameters" :
   [
    {
     "referenced_type" : "_ZTIy"
    },
    {
     "referenced_type" : "_ZTIPPc"
    }
   ],
   "return_type" : "_ZTId",
   "source_file" : "/external/libnl/include/netlink/utils.h"
  },
  {
   "function_name" : "nl_cancel_down_bytes",
   "linker_set_key" : "nl_cancel_down_bytes",
   "parameters" :
   [
    {
     "referenced_type" : "_ZTIy"
    },
    {
     "referenced_type" : "_ZTIPPc"
    }
   ],
   "return_type" : "_ZTId",
   "source_file" : "/external/libnl/include/netlink/utils.h"
  },
  {
   "function_name" : "nl_cancel_down_us",
   "linker_set_key" : "nl_cancel_down_us",
   "parameters" :
   [
    {
     "referenced_type" : "_ZTIj"
    },
    {
     "referenced_type" : "_ZTIPPc"
    }
   ],
   "return_type" : "_ZTId",
   "source_file" : "/external/libnl/include/netlink/utils.h"
  },
  {
   "function_name" : "nl_cb_active_type",
   "linker_set_key" : "nl_cb_active_type",
   "parameters" :
   [
    {
     "referenced_type" : "_ZTIP5nl_cb"
    }
   ],
   "return_type" : "_ZTI10nl_cb_type",
   "source_file" : "/external/libnl/include/netlink/handlers.h"
  },
  {
   "function_name" : "nl_cb_alloc",
   "linker_set_key" : "nl_cb_alloc",
   "parameters" :
   [
    {
     "referenced_type" : "_ZTI10nl_cb_kind"
    }
   ],
   "return_type" : "_ZTIP5nl_cb",
   "source_file" : "/external/libnl/include/netlink/handlers.h"
  },
  {
   "function_name" : "nl_cb_clone",
   "linker_set_key" : "nl_cb_clone",
   "parameters" :
   [
    {
     "referenced_type" : "_ZTIP5nl_cb"
    }
   ],
   "return_type" : "_ZTIP5nl_cb",
   "source_file" : "/external/libnl/include/netlink/handlers.h"
  },
  {
   "function_name" : "nl_cb_err",
   "linker_set_key" : "nl_cb_err",
   "parameters" :
   [
    {
     "referenced_type" : "_ZTIP5nl_cb"
    },
    {
     "referenced_type" : "_ZTI10nl_cb_kind"
    },
    {
     "referenced_type" : "_ZTIPFiP11sockaddr_nlP8nlmsgerrPvE"
    },
    {
     "referenced_type" : "_ZTIPv"
    }
   ],
   "return_type" : "_ZTIi",
   "source_file" : "/external/libnl/include/netlink/handlers.h"
  },
  {
   "function_name" : "nl_cb_get",
   "linker_set_key" : "nl_cb_get",
   "parameters" :
   [
    {
     "referenced_type" : "_ZTIP5nl_cb"
    }
   ],
   "return_type" : "_ZTIP5nl_cb",
   "source_file" : "/external/libnl/include/netlink/handlers.h"
  },
  {
   "function_name" : "nl_cb_overwrite_recv",
   "linker_set_key" : "nl_cb_overwrite_recv",
   "parameters" :
   [
    {
     "referenced_type" : "_ZTIP5nl_cb"
    },
    {
     "referenced_type" : "_ZTIPFiP7nl_sockP11sockaddr_nlPPhPP5ucredE"
    }
   ],
   "return_type" : "_ZTIv",
   "source_file" : "/external/libnl/include/netlink/handlers.h"
  },
  {
   "function_name" : "nl_cb_overwrite_recvmsgs",
   "linker_set_key" : "nl_cb_overwrite_recvmsgs",
   "parameters" :
   [
    {
     "referenced_type" : "_ZTIP5nl_cb"
    },
    {
     "referenced_type" : "_ZTIPFiP7nl_sockP5nl_cbE"
    }
   ],
   "return_type" : "_ZTIv",
   "source_file" : "/external/libnl/include/netlink/handlers.h"
  },
  {
   "function_name" : "nl_cb_overwrite_send",
   "linker_set_key" : "nl_cb_overwrite_send",
   "parameters" :
   [
    {
     "referenced_type" : "_ZTIP5nl_cb"
    },
    {
     "referenced_type" : "_ZTIPFiP7nl_sockP6nl_msgE"
    }
   ],
   "return_type" : "_ZTIv",
   "source_file" : "/external/libnl/include/netlink/handlers.h"
  },
  {
   "function_name" : "nl_cb_put",
   "linker_set_key" : "nl_cb_put",
   "parameters" :
   [
    {
     "referenced_type" : "_ZTIP5nl_cb"
    }
   ],
   "return_type" : "_ZTIv",
   "source_file" : "/external/libnl/include/netlink/handlers.h"
  },
  {
   "function_name" : "nl_cb_set",
   "linker_set_key" : "nl_cb_set",
   "parameters" :
   [
    {
     "referenced_type" : "_ZTIP5nl_cb"
    },
    {
     "referenced_type" : "_ZTI10nl_cb_type"
    },
    {
     "referenced_type" : "_ZTI10nl_cb_kind"
    },
    {
     "referenced_type" : "_ZTIPFiP6nl_msgPvE"
    },
    {
     "referenced_type" : "_ZTIPv"
    }
   ],
   "return_type" : "_ZTIi",
   "source_file" : "/external/libnl/include/netlink/handlers.h"
  },
  {
   "function_name" : "nl_cb_set_all",
   "linker_set_key" : "nl_cb_set_all",
   "parameters" :
   [
    {
     "referenced_type" : "_ZTIP5nl_cb"
    },
    {
     "referenced_type" : "_ZTI10nl_cb_kind"
    },
    {
     "referenced_type" : "_ZTIPFiP6nl_msgPvE"
    },
    {
     "referenced_type" : "_ZTIPv"
    }
   ],
   "return_type" : "_ZTIi",
   "source_file" : "/external/libnl/include/netlink/handlers.h"
  },
  {
   "function_name" : "nl_close",
   "linker_set_key" : "nl_close",
   "parameters" :
   [
    {
     "referenced_type" : "_ZTIP7nl_sock"
    }
   ],
   "return_type" : "_ZTIv",
   "source_file" : "/external/libnl/include/netlink/netlink.h"
  },
  {
   "function_name" : "nl_complete_msg",
   "linker_set_key" : "nl_complete_msg",
   "parameters" :
   [
    {
     "referenced_type" : "_ZTIP7nl_sock"
    },
    {
     "referenced_type" : "_ZTIP6nl_msg"
    }
   ],
   "return_type" : "_ZTIv",
   "source_file" : "/external/libnl/include/netlink/netlink.h"
  },
  {
   "function_name" : "nl_connect",
   "linker_set_key" : "nl_connect",
   "parameters" :
   [
    {
     "referenced_type" : "_ZTIP7nl_sock"
    },
    {
     "referenced_type" : "_ZTIi"
    }
   ],
   "return_type" : "_ZTIi",
   "source_file" : "/external/libnl/include/netlink/netlink.h"
  },
  {
   "function_name" : "nl_data_alloc",
   "linker_set_key" : "nl_data_alloc",
   "parameters" :
   [
    {
     "referenced_type" : "_ZTIPv"
    },
    {
     "referenced_type" : "_ZTIm"
    }
   ],
   "return_type" : "_ZTIP7nl_data",
   "source_file" : "/external/libnl/include/netlink/data.h"
  },
  {
   "function_name" : "nl_data_alloc_attr",
   "linker_set_key" : "nl_data_alloc_attr",
   "parameters" :
   [
    {
     "referenced_type" : "_ZTIP6nlattr"
    }
   ],
   "return_type" : "_ZTIP7nl_data",
   "source_file" : "/external/libnl/include/netlink/data.h"
  },
  {
   "function_name" : "nl_data_append",
   "linker_set_key" : "nl_data_append",
   "parameters" :
   [
    {
     "referenced_type" : "_ZTIP7nl_data"
    },
    {
     "referenced_type" : "_ZTIPv"
    },
    {
     "referenced_type" : "_ZTIm"
    }
   ],
   "return_type" : "_ZTIi",
   "source_file" : "/external/libnl/include/netlink/data.h"
  },
  {
   "function_name" : "nl_data_clone",
   "linker_set_key" : "nl_data_clone",
   "parameters" :
   [
    {
     "referenced_type" : "_ZTIP7nl_data"
    }
   ],
   "return_type" : "_ZTIP7nl_data",
   "source_file" : "/external/libnl/include/netlink/data.h"
  },
  {
   "function_name" : "nl_data_cmp",
   "linker_set_key" : "nl_data_cmp",
   "parameters" :
   [
    {
     "referenced_type" : "_ZTIP7nl_data"
    },
    {
     "referenced_type" : "_ZTIP7nl_data"
    }
   ],
   "return_type" : "_ZTIi",
   "source_file" : "/external/libnl/include/netlink/data.h"
  },
  {
   "function_name" : "nl_data_free",
   "linker_set_key" : "nl_data_free",
   "parameters" :
   [
    {
     "referenced_type" : "_ZTIP7nl_data"
    }
   ],
   "return_type" : "_ZTIv",
   "source_file" : "/external/libnl/include/netlink/data.h"
  },
  {
   "function_name" : "nl_data_get",
   "linker_set_key" : "nl_data_get",
   "parameters" :
   [
    {
     "referenced_type" : "_ZTIP7nl_data"
    }
   ],
   "return_type" : "_ZTIPv",
   "source_file" : "/external/libnl/include/netlink/data.h"
  },
  {
   "function_name" : "nl_data_get_size",
   "linker_set_key" : "nl_data_get_size",
   "parameters" :
   [
    {
     "referenced_type" : "_ZTIP7nl_data"
    }
   ],
   "return_type" : "_ZTIm",
   "source_file" : "/external/libnl/include/netlink/data.h"
  },
  {
   "function_name" : "nl_dump",
   "linker_set_key" : "nl_dump",
   "parameters" :
   [
    {
     "referenced_type" : "_ZTIP14nl_dump_params"
    },
    {
     "referenced_type" : "_ZTIPKc"
    }
   ],
   "return_type" : "_ZTIv",
   "source_file" : "/external/libnl/include/netlink/utils.h"
  },
  {
   "function_name" : "nl_dump_line",
   "linker_set_key" : "nl_dump_line",
   "parameters" :
   [
    {
     "referenced_type" : "_ZTIP14nl_dump_params"
    },
    {
     "referenced_type" : "_ZTIPKc"
    }
   ],
   "return_type" : "_ZTIv",
   "source_file" : "/external/libnl/include/netlink/utils.h"
  },
  {
   "function_name" : "nl_ether_proto2str",
   "linker_set_key" : "nl_ether_proto2str",
   "parameters" :
   [
    {
     "referenced_type" : "_ZTIi"
    },
    {
     "referenced_type" : "_ZTIPc"
    },
    {
     "referenced_type" : "_ZTIm"
    }
   ],
   "return_type" : "_ZTIPc",
   "source_file" : "/external/libnl/include/netlink/utils.h"
  },
  {
   "function_name" : "nl_get_psched_hz",
   "linker_set_key" : "nl_get_psched_hz",
   "return_type" : "_ZTIi",
   "source_file" : "/external/libnl/include/netlink/utils.h"
  },
  {
   "function_name" : "nl_get_user_hz",
   "linker_set_key" : "nl_get_user_hz",
   "return_type" : "_ZTIi",
   "source_file" : "/external/libnl/include/netlink/utils.h"
  },
  {
   "function_name" : "nl_geterror",
   "linker_set_key" : "nl_geterror",
   "parameters" :
   [
    {
     "referenced_type" : "_ZTIi"
    }
   ],
   "return_type" : "_ZTIPKc",
   "source_file" : "/external/libnl/include/netlink/errno.h"
  },
  {
   "function_name" : "nl_has_capability",
   "linker_set_key" : "nl_has_capability",
   "parameters" :
   [
    {
     "referenced_type" : "_ZTIi"
    }
   ],
   "return_type" : "_ZTIi",
   "source_file" : "/external/libnl/include/netlink/utils.h"
  },
  {
   "function_name" : "nl_hash",
   "linker_set_key" : "nl_hash",
   "parameters" :
   [
    {
     "referenced_type" : "_ZTIPv"
    },
    {
     "referenced_type" : "_ZTIm"
    },
    {
     "referenced_type" : "_ZTIj"
    }
   ],
   "return_type" : "_ZTIj",
   "source_file" : "/external/libnl/include/netlink/hashtable.h"
  },
  {
   "function_name" : "nl_hash_any",
   "linker_set_key" : "nl_hash_any",
   "parameters" :
   [
    {
     "referenced_type" : "_ZTIPKv"
    },
    {
     "referenced_type" : "_ZTIm"
    },
    {
     "referenced_type" : "_ZTIj"
    }
   ],
   "return_type" : "_ZTIj",
   "source_file" : "/external/libnl/include/netlink/hash.h"
  },
  {
   "function_name" : "nl_hash_table_add",
   "linker_set_key" : "nl_hash_table_add",
   "parameters" :
   [
    {
     "referenced_type" : "_ZTIP13nl_hash_table"
    },
    {
     "referenced_type" : "_ZTIP9nl_object"
    }
   ],
   "return_type" : "_ZTIi",
   "source_file" : "/external/libnl/include/netlink/hashtable.h"
  },
  {
   "function_name" : "nl_hash_table_alloc",
   "linker_set_key" : "nl_hash_table_alloc",
   "parameters" :
   [
    {
     "referenced_type" : "_ZTIi"
    }
   ],
   "return_type" : "_ZTIP13nl_hash_table",
   "source_file" : "/external/libnl/include/netlink/hashtable.h"
  },
  {
   "function_name" : "nl_hash_table_del",
   "linker_set_key" : "nl_hash_table_del",
   "parameters" :
   [
    {
     "referenced_type" : "_ZTIP13nl_hash_table"
    },
    {
     "referenced_type" : "_ZTIP9nl_object"
    }
   ],
   "return_type" : "_ZTIi",
   "source_file" : "/external/libnl/include/netlink/hashtable.h"
  },
  {
   "function_name" : "nl_hash_table_free",
   "linker_set_key" : "nl_hash_table_free",
   "parameters" :
   [
    {
     "referenced_type" : "_ZTIP13nl_hash_table"
    }
   ],
   "return_type" : "_ZTIv",
   "source_file" : "/external/libnl/include/netlink/hashtable.h"
  },
  {
   "function_name" : "nl_hash_table_lookup",
   "linker_set_key" : "nl_hash_table_lookup",
   "parameters" :
   [
    {
     "referenced_type" : "_ZTIP13nl_hash_table"
    },
    {
     "referenced_type" : "_ZTIP9nl_object"
    }
   ],
   "return_type" : "_ZTIP9nl_object",
   "source_file" : "/external/libnl/include/netlink/hashtable.h"
  },
  {
   "function_name" : "nl_ip_proto2str",
   "linker_set_key" : "nl_ip_proto2str",
   "parameters" :
   [
    {
     "referenced_type" : "_ZTIi"
    },
    {
     "referenced_type" : "_ZTIPc"
    },
    {
     "referenced_type" : "_ZTIm"
    }
   ],
   "return_type" : "_ZTIPc",
   "source_file" : "/external/libnl/include/netlink/utils.h"
  },
  {
   "function_name" : "nl_join_groups",
   "linker_set_key" : "nl_join_groups",
   "parameters" :
   [
    {
     "referenced_type" : "_ZTIP7nl_sock"
    },
    {
     "referenced_type" : "_ZTIi"
    }
   ],
   "return_type" : "_ZTIv",
   "source_file" : "/external/libnl/include/netlink/socket.h"
  },
  {
   "function_name" : "nl_llproto2str",
   "linker_set_key" : "nl_llproto2str",
   "parameters" :
   [
    {
     "referenced_type" : "_ZTIi"
    },
    {
     "referenced_type" : "_ZTIPc"
    },
    {
     "referenced_type" : "_ZTIm"
    }
   ],
   "return_type" : "_ZTIPc",
   "source_file" : "/external/libnl/include/netlink/utils.h"
  },
  {
   "function_name" : "nl_msec2str",
   "linker_set_key" : "nl_msec2str",
   "parameters" :
   [
    {
     "referenced_type" : "_ZTIm"
    },
    {
     "referenced_type" : "_ZTIPc"
    },
    {
     "referenced_type" : "_ZTIm"
    }
   ],
   "return_type" : "_ZTIPc",
   "source_file" : "/external/libnl/include/netlink/utils.h"
  },
  {
   "function_name" : "nl_msg_dump",
   "linker_set_key" : "nl_msg_dump",
   "parameters" :
   [
    {
     "referenced_type" : "_ZTIP6nl_msg"
    },
    {
     "referenced_type" : "_ZTIP7__sFILE"
    }
   ],
   "return_type" : "_ZTIv",
   "source_file" : "/external/libnl/include/netlink/msg.h"
  },
  {
   "function_name" : "nl_msg_parse",
   "linker_set_key" : "nl_msg_parse",
   "parameters" :
   [
    {
     "referenced_type" : "_ZTIP6nl_msg"
    },
    {
     "referenced_type" : "_ZTIPFvP9nl_objectPvE"
    },
    {
     "referenced_type" : "_ZTIPv"
    }
   ],
   "return_type" : "_ZTIi",
   "source_file" : "/external/libnl/include/netlink/msg.h"
  },
  {
   "function_name" : "nl_msgtype_lookup",
   "linker_set_key" : "nl_msgtype_lookup",
   "parameters" :
   [
    {
     "referenced_type" : "_ZTIP12nl_cache_ops"
    },
    {
     "referenced_type" : "_ZTIi"
    }
   ],
   "return_type" : "_ZTIP10nl_msgtype",
   "source_file" : "/external/libnl/include/netlink/cache.h"
  },
  {
   "function_name" : "nl_new_line",
   "linker_set_key" : "nl_new_line",
   "parameters" :
   [
    {
     "referenced_type" : "_ZTIP14nl_dump_params"
    }
   ],
   "return_type" : "_ZTIv",
   "source_file" : "/external/libnl/include/netlink/utils.h"
  },
  {
   "function_name" : "nl_nlfamily2str",
   "linker_set_key" : "nl_nlfamily2str",
   "parameters" :
   [
    {
     "referenced_type" : "_ZTIi"
    },
    {
     "referenced_type" : "_ZTIPc"
    },
    {
     "referenced_type" : "_ZTIm"
    }
   ],
   "return_type" : "_ZTIPc",
   "source_file" : "/external/libnl/include/netlink/netlink.h"
  },
  {
   "function_name" : "nl_nlmsg_flags2str",
   "linker_set_key" : "nl_nlmsg_flags2str",
   "parameters" :
   [
    {
     "referenced_type" : "_ZTIi"
    },
    {
     "referenced_type" : "_ZTIPc"
    },
    {
     "referenced_type" : "_ZTIm"
    }
   ],
   "return_type" : "_ZTIPc",
   "source_file" : "/external/libnl/include/netlink/msg.h"
  },
  {
   "function_name" : "nl_nlmsgtype2str",
   "linker_set_key" : "nl_nlmsgtype2str",
   "parameters" :
   [
    {
     "referenced_type" : "_ZTIi"
    },
    {
     "referenced_type" : "_ZTIPc"
    },
    {
     "referenced_type" : "_ZTIm"
    }
   ],
   "return_type" : "_ZTIPc",
   "source_file" : "/external/libnl/include/netlink/msg.h"
  },
  {
   "function_name" : "nl_object_alloc",
   "linker_set_key" : "nl_object_alloc",
   "parameters" :
   [
    {
     "referenced_type" : "_ZTIP13nl_object_ops"
    }
   ],
   "return_type" : "_ZTIP9nl_object",
   "source_file" : "/external/libnl/include/netlink/object.h"
  },
  {
   "function_name" : "nl_object_alloc_name",
   "linker_set_key" : "nl_object_alloc_name",
   "parameters" :
   [
    {
     "referenced_type" : "_ZTIPKc"
    },
    {
     "referenced_type" : "_ZTIPP9nl_object"
    }
   ],
   "return_type" : "_ZTIi",
   "source_file" : "/external/libnl/include/netlink/object.h"
  },
  {
   "function_name" : "nl_object_attr_list",
   "linker_set_key" : "nl_object_attr_list",
   "parameters" :
   [
    {
     "referenced_type" : "_ZTIP9nl_object"
    },
    {
     "referenced_type" : "_ZTIPc"
    },
    {
     "referenced_type" : "_ZTIm"
    }
   ],
   "return_type" : "_ZTIPc",
   "source_file" : "/external/libnl/include/netlink/object.h"
  },
  {
   "function_name" : "nl_object_attrs2str",
   "linker_set_key" : "nl_object_attrs2str",
   "parameters" :
   [
    {
     "referenced_type" : "_ZTIP9nl_object"
    },
    {
     "referenced_type" : "_ZTIj"
    },
    {
     "referenced_type" : "_ZTIPc"
    },
    {
     "referenced_type" : "_ZTIm"
    }
   ],
   "return_type" : "_ZTIPc",
   "source_file" : "/external/libnl/include/netlink/object.h"
  },
  {
   "function_name" : "nl_object_clone",
   "linker_set_key" : "nl_object_clone",
   "parameters" :
   [
    {
     "referenced_type" : "_ZTIP9nl_object"
    }
   ],
   "return_type" : "_ZTIP9nl_object",
   "source_file" : "/external/libnl/include/netlink/object.h"
  },
  {
   "function_name" : "nl_object_diff",
   "linker_set_key" : "nl_object_diff",
   "parameters" :
   [
    {
     "referenced_type" : "_ZTIP9nl_object"
    },
    {
     "referenced_type" : "_ZTIP9nl_object"
    }
   ],
   "return_type" : "_ZTIj",
   "source_file" : "/external/libnl/include/netlink/object.h"
  },
  {
   "function_name" : "nl_object_dump",
   "linker_set_key" : "nl_object_dump",
   "parameters" :
   [
    {
     "referenced_type" : "_ZTIP9nl_object"
    },
    {
     "referenced_type" : "_ZTIP14nl_dump_params"
    }
   ],
   "return_type" : "_ZTIv",
   "source_file" : "/external/libnl/include/netlink/object.h"
  },
  {
   "function_name" : "nl_object_dump_buf",
   "linker_set_key" : "nl_object_dump_buf",
   "parameters" :
   [
    {
     "referenced_type" : "_ZTIP9nl_object"
    },
    {
     "referenced_type" : "_ZTIPc"
    },
    {
     "referenced_type" : "_ZTIm"
    }
   ],
   "return_type" : "_ZTIv",
   "source_file" : "/external/libnl/include/netlink/object.h"
  },
  {
   "function_name" : "nl_object_free",
   "linker_set_key" : "nl_object_free",
   "parameters" :
   [
    {
     "referenced_type" : "_ZTIP9nl_object"
    }
   ],
   "return_type" : "_ZTIv",
   "source_file" : "/external/libnl/include/netlink/object.h"
  },
  {
   "function_name" : "nl_object_get",
   "linker_set_key" : "nl_object_get",
   "parameters" :
   [
    {
     "referenced_type" : "_ZTIP9nl_object"
    }
   ],
   "return_type" : "_ZTIv",
   "source_file" : "/external/libnl/include/netlink/object.h"
  },
  {
   "function_name" : "nl_object_get_cache",
   "linker_set_key" : "nl_object_get_cache",
   "parameters" :
   [
    {
     "referenced_type" : "_ZTIP9nl_object"
    }
   ],
   "return_type" : "_ZTIP8nl_cache",
   "source_file" : "/external/libnl/include/netlink/object.h"
  },
  {
   "function_name" : "nl_object_get_id_attrs",
   "linker_set_key" : "nl_object_get_id_attrs",
   "parameters" :
   [
    {
     "referenced_type" : "_ZTIP9nl_object"
    }
   ],
   "return_type" : "_ZTIj",
   "source_file" : "/external/libnl/include/netlink/object.h"
  },
  {
   "function_name" : "nl_object_get_msgtype",
   "linker_set_key" : "nl_object_get_msgtype",
   "parameters" :
   [
    {
     "referenced_type" : "_ZTIPK9nl_object"
    }
   ],
   "return_type" : "_ZTIi",
   "source_file" : "/external/libnl/include/netlink/object.h"
  },
  {
   "function_name" : "nl_object_get_ops",
   "linker_set_key" : "nl_object_get_ops",
   "parameters" :
   [
    {
     "referenced_type" : "_ZTIPK9nl_object"
    }
   ],
   "return_type" : "_ZTIP13nl_object_ops",
   "source_file" : "/external/libnl/include/netlink/object.h"
  },
  {
   "function_name" : "nl_object_get_refcnt",
   "linker_set_key" : "nl_object_get_refcnt",
   "parameters" :
   [
    {
     "referenced_type" : "_ZTIP9nl_object"
    }
   ],
   "return_type" : "_ZTIi",
   "source_file" : "/external/libnl/include/netlink/object.h"
  },
  {
   "function_name" : "nl_object_get_type",
   "linker_set_key" : "nl_object_get_type",
   "parameters" :
   [
    {
     "referenced_type" : "_ZTIPK9nl_object"
    }
   ],
   "return_type" : "_ZTIPKc",
   "source_file" : "/external/libnl/include/netlink/object.h"
  },
  {
   "function_name" : "nl_object_identical",
   "linker_set_key" : "nl_object_identical",
   "parameters" :
   [
    {
     "referenced_type" : "_ZTIP9nl_object"
    },
    {
     "referenced_type" : "_ZTIP9nl_object"
    }
   ],
   "return_type" : "_ZTIi",
   "source_file" : "/external/libnl/include/netlink/object.h"
  },
  {
   "function_name" : "nl_object_is_marked",
   "linker_set_key" : "nl_object_is_marked",
   "parameters" :
   [
    {
     "referenced_type" : "_ZTIP9nl_object"
    }
   ],
   "return_type" : "_ZTIi",
   "source_file" : "/external/libnl/include/netlink/object.h"
  },
  {
   "function_name" : "nl_object_keygen",
   "linker_set_key" : "nl_object_keygen",
   "parameters" :
   [
    {
     "referenced_type" : "_ZTIP9nl_object"
    },
    {
     "referenced_type" : "_ZTIPj"
    },
    {
     "referenced_type" : "_ZTIj"
    }
   ],
   "return_type" : "_ZTIv",
   "source_file" : "/external/libnl/include/netlink/object.h"
  },
  {
   "function_name" : "nl_object_mark",
   "linker_set_key" : "nl_object_mark",
   "parameters" :
   [
    {
     "referenced_type" : "_ZTIP9nl_object"
    }
   ],
   "return_type" : "_ZTIv",
   "source_file" : "/external/libnl/include/netlink/object.h"
  },
  {
   "function_name" : "nl_object_match_filter",
   "linker_set_key" : "nl_object_match_filter",
   "parameters" :
   [
    {
     "referenced_type" : "_ZTIP9nl_object"
    },
    {
     "referenced_type" : "_ZTIP9nl_object"
    }
   ],
   "return_type" : "_ZTIi",
   "source_file" : "/external/libnl/include/netlink/object.h"
  },
  {
   "function_name" : "nl_object_put",
   "linker_set_key" : "nl_object_put",
   "parameters" :
   [
    {
     "referenced_type" : "_ZTIP9nl_object"
    }
   ],
   "return_type" : "_ZTIv",
   "source_file" : "/external/libnl/include/netlink/object.h"
  },
  {
   "function_name" : "nl_object_shared",
   "linker_set_key" : "nl_object_shared",
   "parameters" :
   [
    {
     "referenced_type" : "_ZTIP9nl_object"
    }
   ],
   "return_type" : "_ZTIi",
   "source_file" : "/external/libnl/include/netlink/object.h"
  },
  {
   "function_name" : "nl_object_unmark",
   "linker_set_key" : "nl_object_unmark",
   "parameters" :
   [
    {
     "referenced_type" : "_ZTIP9nl_object"
    }
   ],
   "return_type" : "_ZTIv",
   "source_file" : "/external/libnl/include/netlink/object.h"
  },
  {
   "function_name" : "nl_object_update",
   "linker_set_key" : "nl_object_update",
   "parameters" :
   [
    {
     "referenced_type" : "_ZTIP9nl_object"
    },
    {
     "referenced_type" : "_ZTIP9nl_object"
    }
   ],
   "return_type" : "_ZTIi",
   "source_file" : "/external/libnl/include/netlink/object.h"
  },
  {
   "function_name" : "nl_perror",
   "linker_set_key" : "nl_perror",
   "parameters" :
   [
    {
     "referenced_type" : "_ZTIi"
    },
    {
     "referenced_type" : "_ZTIPKc"
    }
   ],
   "return_type" : "_ZTIv",
   "source_file" : "/external/libnl/include/netlink/errno.h"
  },
  {
   "function_name" : "nl_pickup",
   "linker_set_key" : "nl_pickup",
   "parameters" :
   [
    {
     "referenced_type" : "_ZTIP7nl_sock"
    },
    {
     "referenced_type" : "_ZTIPFiP12nl_cache_opsP11sockaddr_nlP8nlmsghdrP15nl_parser_paramE"
    },
    {
     "referenced_type" : "_ZTIPP9nl_object"
    }
   ],
   "return_type" : "_ZTIi",
   "source_file" : "/external/libnl/include/netlink/netlink.h"
  },
  {
   "function_name" : "nl_prob2int",
   "linker_set_key" : "nl_prob2int",
   "parameters" :
   [
    {
     "referenced_type" : "_ZTIPKc"
    }
   ],
   "return_type" : "_ZTIl",
   "source_file" : "/external/libnl/include/netlink/utils.h"
  },
  {
   "function_name" : "nl_rate2str",
   "linker_set_key" : "nl_rate2str",
   "parameters" :
   [
    {
     "referenced_type" : "_ZTIy"
    },
    {
     "referenced_type" : "_ZTIi"
    },
    {
     "referenced_type" : "_ZTIPc"
    },
    {
     "referenced_type" : "_ZTIm"
    }
   ],
   "return_type" : "_ZTIi",
   "source_file" : "/external/libnl/include/netlink/utils.h"
  },
  {
   "function_name" : "nl_recv",
   "linker_set_key" : "nl_recv",
   "parameters" :
   [
    {
     "referenced_type" : "_ZTIP7nl_sock"
    },
    {
     "referenced_type" : "_ZTIP11sockaddr_nl"
    },
    {
     "referenced_type" : "_ZTIPPh"
    },
    {
     "referenced_type" : "_ZTIPP5ucred"
    }
   ],
   "return_type" : "_ZTIi",
   "source_file" : "/external/libnl/include/netlink/netlink.h"
  },
  {
   "function_name" : "nl_recvmsgs",
   "linker_set_key" : "nl_recvmsgs",
   "parameters" :
   [
    {
     "referenced_type" : "_ZTIP7nl_sock"
    },
    {
     "referenced_type" : "_ZTIP5nl_cb"
    }
   ],
   "return_type" : "_ZTIi",
   "source_file" : "/external/libnl/include/netlink/netlink.h"
  },
  {
   "function_name" : "nl_recvmsgs_default",
   "linker_set_key" : "nl_recvmsgs_default",
   "parameters" :
   [
    {
     "referenced_type" : "_ZTIP7nl_sock"
    }
   ],
   "return_type" : "_ZTIi",
   "source_file" : "/external/libnl/include/netlink/netlink.h"
  },
  {
   "function_name" : "nl_recvmsgs_report",
   "linker_set_key" : "nl_recvmsgs_report",
   "parameters" :
   [
    {
     "referenced_type" : "_ZTIP7nl_sock"
    },
    {
     "referenced_type" : "_ZTIP5nl_cb"
    }
   ],
   "return_type" : "_ZTIi",
   "source_file" : "/external/libnl/include/netlink/netlink.h"
  },
  {
   "function_name" : "nl_rtgen_request",
   "linker_set_key" : "nl_rtgen_request",
   "parameters" :
   [
    {
     "referenced_type" : "_ZTIP7nl_sock"
    },
    {
     "referenced_type" : "_ZTIi"
    },
    {
     "referenced_type" : "_ZTIi"
    },
    {
     "referenced_type" : "_ZTIi"
    }
   ],
   "return_type" : "_ZTIi",
   "source_file" : "/external/libnl/include/netlink/route/rtnl.h"
  },
  {
   "function_name" : "nl_rtntype2str",
   "linker_set_key" : "nl_rtntype2str",
   "parameters" :
   [
    {
     "referenced_type" : "_ZTIi"
    },
    {
     "referenced_type" : "_ZTIPc"
    },
    {
     "referenced_type" : "_ZTIm"
    }
   ],
   "return_type" : "_ZTIPc",
   "source_file" : "/external/libnl/include/netlink/route/rtnl.h"
  },
  {
   "function_name" : "nl_send",
   "linker_set_key" : "nl_send",
   "parameters" :
   [
    {
     "referenced_type" : "_ZTIP7nl_sock"
    },
    {
     "referenced_type" : "_ZTIP6nl_msg"
    }
   ],
   "return_type" : "_ZTIi",
   "source_file" : "/external/libnl/include/netlink/netlink.h"
  },
  {
   "function_name" : "nl_send_auto",
   "linker_set_key" : "nl_send_auto",
   "parameters" :
   [
    {
     "referenced_type" : "_ZTIP7nl_sock"
    },
    {
     "referenced_type" : "_ZTIP6nl_msg"
    }
   ],
   "return_type" : "_ZTIi",
   "source_file" : "/external/libnl/include/netlink/netlink.h"
  },
  {
   "function_name" : "nl_send_auto_complete",
   "linker_set_key" : "nl_send_auto_complete",
   "parameters" :
   [
    {
     "referenced_type" : "_ZTIP7nl_sock"
    },
    {
     "referenced_type" : "_ZTIP6nl_msg"
    }
   ],
   "return_type" : "_ZTIi",
   "source_file" : "/external/libnl/include/netlink/netlink.h"
  },
  {
   "function_name" : "nl_send_iovec",
   "linker_set_key" : "nl_send_iovec",
   "parameters" :
   [
    {
     "referenced_type" : "_ZTIP7nl_sock"
    },
    {
     "referenced_type" : "_ZTIP6nl_msg"
    },
    {
     "referenced_type" : "_ZTIP5iovec"
    },
    {
     "referenced_type" : "_ZTIj"
    }
   ],
   "return_type" : "_ZTIi",
   "source_file" : "/external/libnl/include/netlink/netlink.h"
  },
  {
   "function_name" : "nl_send_simple",
   "linker_set_key" : "nl_send_simple",
   "parameters" :
   [
    {
     "referenced_type" : "_ZTIP7nl_sock"
    },
    {
     "referenced_type" : "_ZTIi"
    },
    {
     "referenced_type" : "_ZTIi"
    },
    {
     "referenced_type" : "_ZTIPv"
    },
    {
     "referenced_type" : "_ZTIm"
    }
   ],
   "return_type" : "_ZTIi",
   "source_file" : "/external/libnl/include/netlink/netlink.h"
  },
  {
   "function_name" : "nl_send_sync",
   "linker_set_key" : "nl_send_sync",
   "parameters" :
   [
    {
     "referenced_type" : "_ZTIP7nl_sock"
    },
    {
     "referenced_type" : "_ZTIP6nl_msg"
    }
   ],
   "return_type" : "_ZTIi",
   "source_file" : "/external/libnl/include/netlink/netlink.h"
  },
  {
   "function_name" : "nl_sendmsg",
   "linker_set_key" : "nl_sendmsg",
   "parameters" :
   [
    {
     "referenced_type" : "_ZTIP7nl_sock"
    },
    {
     "referenced_type" : "_ZTIP6nl_msg"
    },
    {
     "referenced_type" : "_ZTIP6msghdr"
    }
   ],
   "return_type" : "_ZTIi",
   "source_file" : "/external/libnl/include/netlink/netlink.h"
  },
  {
   "function_name" : "nl_sendto",
   "linker_set_key" : "nl_sendto",
   "parameters" :
   [
    {
     "referenced_type" : "_ZTIP7nl_sock"
    },
    {
     "referenced_type" : "_ZTIPv"
    },
    {
     "referenced_type" : "_ZTIm"
    }
   ],
   "return_type" : "_ZTIi",
   "source_file" : "/external/libnl/include/netlink/netlink.h"
  },
  {
   "function_name" : "nl_size2int",
   "linker_set_key" : "nl_size2int",
   "parameters" :
   [
    {
     "referenced_type" : "_ZTIPKc"
    }
   ],
   "return_type" : "_ZTIl",
   "source_file" : "/external/libnl/include/netlink/utils.h"
  },
  {
   "function_name" : "nl_size2str",
   "linker_set_key" : "nl_size2str",
   "parameters" :
   [
    {
     "referenced_type" : "_ZTIKm"
    },
    {
     "referenced_type" : "_ZTIPc"
    },
    {
     "referenced_type" : "_ZTIKm"
    }
   ],
   "return_type" : "_ZTIPc",
   "source_file" : "/external/libnl/include/netlink/utils.h"
  },
  {
   "function_name" : "nl_socket_add_membership",
   "linker_set_key" : "nl_socket_add_membership",
   "parameters" :
   [
    {
     "referenced_type" : "_ZTIP7nl_sock"
    },
    {
     "referenced_type" : "_ZTIi"
    }
   ],
   "return_type" : "_ZTIi",
   "source_file" : "/external/libnl/include/netlink/socket.h"
  },
  {
   "function_name" : "nl_socket_add_memberships",
   "linker_set_key" : "nl_socket_add_memberships",
   "parameters" :
   [
    {
     "referenced_type" : "_ZTIP7nl_sock"
    },
    {
     "referenced_type" : "_ZTIi"
    }
   ],
   "return_type" : "_ZTIi",
   "source_file" : "/external/libnl/include/netlink/socket.h"
  },
  {
   "function_name" : "nl_socket_alloc",
   "linker_set_key" : "nl_socket_alloc",
   "return_type" : "_ZTIP7nl_sock",
   "source_file" : "/external/libnl/include/netlink/socket.h"
  },
  {
   "function_name" : "nl_socket_alloc_cb",
   "linker_set_key" : "nl_socket_alloc_cb",
   "parameters" :
   [
    {
     "referenced_type" : "_ZTIP5nl_cb"
    }
   ],
   "return_type" : "_ZTIP7nl_sock",
   "source_file" : "/external/libnl/include/netlink/socket.h"
  },
  {
   "function_name" : "nl_socket_disable_auto_ack",
   "linker_set_key" : "nl_socket_disable_auto_ack",
   "parameters" :
   [
    {
     "referenced_type" : "_ZTIP7nl_sock"
    }
   ],
   "return_type" : "_ZTIv",
   "source_file" : "/external/libnl/include/netlink/socket.h"
  },
  {
   "function_name" : "nl_socket_disable_msg_peek",
   "linker_set_key" : "nl_socket_disable_msg_peek",
   "parameters" :
   [
    {
     "referenced_type" : "_ZTIP7nl_sock"
    }
   ],
   "return_type" : "_ZTIv",
   "source_file" : "/external/libnl/include/netlink/socket.h"
  },
  {
   "function_name" : "nl_socket_disable_seq_check",
   "linker_set_key" : "nl_socket_disable_seq_check",
   "parameters" :
   [
    {
     "referenced_type" : "_ZTIP7nl_sock"
    }
   ],
   "return_type" : "_ZTIv",
   "source_file" : "/external/libnl/include/netlink/socket.h"
  },
  {
   "function_name" : "nl_socket_drop_membership",
   "linker_set_key" : "nl_socket_drop_membership",
   "parameters" :
   [
    {
     "referenced_type" : "_ZTIP7nl_sock"
    },
    {
     "referenced_type" : "_ZTIi"
    }
   ],
   "return_type" : "_ZTIi",
   "source_file" : "/external/libnl/include/netlink/socket.h"
  },
  {
   "function_name" : "nl_socket_drop_memberships",
   "linker_set_key" : "nl_socket_drop_memberships",
   "parameters" :
   [
    {
     "referenced_type" : "_ZTIP7nl_sock"
    },
    {
     "referenced_type" : "_ZTIi"
    }
   ],
   "return_type" : "_ZTIi",
   "source_file" : "/external/libnl/include/netlink/socket.h"
  },
  {
   "function_name" : "nl_socket_enable_auto_ack",
   "linker_set_key" : "nl_socket_enable_auto_ack",
   "parameters" :
   [
    {
     "referenced_type" : "_ZTIP7nl_sock"
    }
   ],
   "return_type" : "_ZTIv",
   "source_file" : "/external/libnl/include/netlink/socket.h"
  },
  {
   "function_name" : "nl_socket_enable_msg_peek",
   "linker_set_key" : "nl_socket_enable_msg_peek",
   "parameters" :
   [
    {
     "referenced_type" : "_ZTIP7nl_sock"
    }
   ],
   "return_type" : "_ZTIv",
   "source_file" : "/external/libnl/include/netlink/socket.h"
  },
  {
   "function_name" : "nl_socket_free",
   "linker_set_key" : "nl_socket_free",
   "parameters" :
   [
    {
     "referenced_type" : "_ZTIP7nl_sock"
    }
   ],
   "return_type" : "_ZTIv",
   "source_file" : "/external/libnl/include/netlink/socket.h"
  },
  {
   "function_name" : "nl_socket_get_cb",
   "linker_set_key" : "nl_socket_get_cb",
   "parameters" :
   [
    {
     "referenced_type" : "_ZTIPK7nl_sock"
    }
   ],
   "return_type" : "_ZTIP5nl_cb",
   "source_file" : "/external/libnl/include/netlink/socket.h"
  },
  {
   "function_name" : "nl_socket_get_fd",
   "linker_set_key" : "nl_socket_get_fd",
   "parameters" :
   [
    {
     "referenced_type" : "_ZTIPK7nl_sock"
    }
   ],
   "return_type" : "_ZTIi",
   "source_file" : "/external/libnl/include/netlink/socket.h"
  },
  {
   "function_name" : "nl_socket_get_local_port",
   "linker_set_key" : "nl_socket_get_local_port",
   "parameters" :
   [
    {
     "referenced_type" : "_ZTIPK7nl_sock"
    }
   ],
   "return_type" : "_ZTIj",
   "source_file" : "/external/libnl/include/netlink/socket.h"
  },
  {
   "function_name" : "nl_socket_get_msg_buf_size",
   "linker_set_key" : "nl_socket_get_msg_buf_size",
   "parameters" :
   [
    {
     "referenced_type" : "_ZTIP7nl_sock"
    }
   ],
   "return_type" : "_ZTIm",
   "source_file" : "/external/libnl/include/netlink/socket.h"
  },
  {
   "function_name" : "nl_socket_get_peer_groups",
   "linker_set_key" : "nl_socket_get_peer_groups",
   "parameters" :
   [
    {
     "referenced_type" : "_ZTIPK7nl_sock"
    }
   ],
   "return_type" : "_ZTIj",
   "source_file" : "/external/libnl/include/netlink/socket.h"
  },
  {
   "function_name" : "nl_socket_get_peer_port",
   "linker_set_key" : "nl_socket_get_peer_port",
   "parameters" :
   [
    {
     "referenced_type" : "_ZTIPK7nl_sock"
    }
   ],
   "return_type" : "_ZTIj",
   "source_file" : "/external/libnl/include/netlink/socket.h"
  },
  {
   "function_name" : "nl_socket_modify_cb",
   "linker_set_key" : "nl_socket_modify_cb",
   "parameters" :
   [
    {
     "referenced_type" : "_ZTIP7nl_sock"
    },
    {
     "referenced_type" : "_ZTI10nl_cb_type"
    },
    {
     "referenced_type" : "_ZTI10nl_cb_kind"
    },
    {
     "referenced_type" : "_ZTIPFiP6nl_msgPvE"
    },
    {
     "referenced_type" : "_ZTIPv"
    }
   ],
   "return_type" : "_ZTIi",
   "source_file" : "/external/libnl/include/netlink/socket.h"
  },
  {
   "function_name" : "nl_socket_modify_err_cb",
   "linker_set_key" : "nl_socket_modify_err_cb",
   "parameters" :
   [
    {
     "referenced_type" : "_ZTIP7nl_sock"
    },
    {
     "referenced_type" : "_ZTI10nl_cb_kind"
    },
    {
     "referenced_type" : "_ZTIPFiP11sockaddr_nlP8nlmsgerrPvE"
    },
    {
     "referenced_type" : "_ZTIPv"
    }
   ],
   "return_type" : "_ZTIi",
   "source_file" : "/external/libnl/include/netlink/socket.h"
  },
  {
   "function_name" : "nl_socket_recv_pktinfo",
   "linker_set_key" : "nl_socket_recv_pktinfo",
   "parameters" :
   [
    {
     "referenced_type" : "_ZTIP7nl_sock"
    },
    {
     "referenced_type" : "_ZTIi"
    }
   ],
   "return_type" : "_ZTIi",
   "source_file" : "/external/libnl/include/netlink/socket.h"
  },
  {
   "function_name" : "nl_socket_set_buffer_size",
   "linker_set_key" : "nl_socket_set_buffer_size",
   "parameters" :
   [
    {
     "referenced_type" : "_ZTIP7nl_sock"
    },
    {
     "referenced_type" : "_ZTIi"
    },
    {
     "referenced_type" : "_ZTIi"
    }
   ],
   "return_type" : "_ZTIi",
   "source_file" : "/external/libnl/include/netlink/socket.h"
  },
  {
   "function_name" : "nl_socket_set_cb",
   "linker_set_key" : "nl_socket_set_cb",
   "parameters" :
   [
    {
     "referenced_type" : "_ZTIP7nl_sock"
    },
    {
     "referenced_type" : "_ZTIP5nl_cb"
    }
   ],
   "return_type" : "_ZTIv",
   "source_file" : "/external/libnl/include/netlink/socket.h"
  },
  {
   "function_name" : "nl_socket_set_local_port",
   "linker_set_key" : "nl_socket_set_local_port",
   "parameters" :
   [
    {
     "referenced_type" : "_ZTIP7nl_sock"
    },
    {
     "referenced_type" : "_ZTIj"
    }
   ],
   "return_type" : "_ZTIv",
   "source_file" : "/external/libnl/include/netlink/socket.h"
  },
  {
   "function_name" : "nl_socket_set_msg_buf_size",
   "linker_set_key" : "nl_socket_set_msg_buf_size",
   "parameters" :
   [
    {
     "referenced_type" : "_ZTIP7nl_sock"
    },
    {
     "referenced_type" : "_ZTIm"
    }
   ],
   "return_type" : "_ZTIi",
   "source_file" : "/external/libnl/include/netlink/socket.h"
  },
  {
   "function_name" : "nl_socket_set_nonblocking",
   "linker_set_key" : "nl_socket_set_nonblocking",
   "parameters" :
   [
    {
     "referenced_type" : "_ZTIPK7nl_sock"
    }
   ],
   "return_type" : "_ZTIi",
   "source_file" : "/external/libnl/include/netlink/socket.h"
  },
  {
   "function_name" : "nl_socket_set_passcred",
   "linker_set_key" : "nl_socket_set_passcred",
   "parameters" :
   [
    {
     "referenced_type" : "_ZTIP7nl_sock"
    },
    {
     "referenced_type" : "_ZTIi"
    }
   ],
   "return_type" : "_ZTIi",
   "source_file" : "/external/libnl/include/netlink/socket.h"
  },
  {
   "function_name" : "nl_socket_set_peer_groups",
   "linker_set_key" : "nl_socket_set_peer_groups",
   "parameters" :
   [
    {
     "referenced_type" : "_ZTIP7nl_sock"
    },
    {
     "referenced_type" : "_ZTIj"
    }
   ],
   "return_type" : "_ZTIv",
   "source_file" : "/external/libnl/include/netlink/socket.h"
  },
  {
   "function_name" : "nl_socket_set_peer_port",
   "linker_set_key" : "nl_socket_set_peer_port",
   "parameters" :
   [
    {
     "referenced_type" : "_ZTIP7nl_sock"
    },
    {
     "referenced_type" : "_ZTIj"
    }
   ],
   "return_type" : "_ZTIv",
   "source_file" : "/external/libnl/include/netlink/socket.h"
  },
  {
   "function_name" : "nl_socket_use_seq",
   "linker_set_key" : "nl_socket_use_seq",
   "parameters" :
   [
    {
     "referenced_type" : "_ZTIP7nl_sock"
    }
   ],
   "return_type" : "_ZTIj",
   "source_file" : "/external/libnl/include/netlink/socket.h"
  },
  {
   "function_name" : "nl_str2af",
   "linker_set_key" : "nl_str2af",
   "parameters" :
   [
    {
     "referenced_type" : "_ZTIPKc"
    }
   ],
   "return_type" : "_ZTIi",
   "source_file" : "/external/libnl/include/netlink/addr.h"
  },
  {
   "function_name" : "nl_str2ether_proto",
   "linker_set_key" : "nl_str2ether_proto",
   "parameters" :
   [
    {
     "referenced_type" : "_ZTIPKc"
    }
   ],
   "return_type" : "_ZTIi",
   "source_file" : "/external/libnl/include/netlink/utils.h"
  },
  {
   "function_name" : "nl_str2ip_proto",
   "linker_set_key" : "nl_str2ip_proto",
   "parameters" :
   [
    {
     "referenced_type" : "_ZTIPKc"
    }
   ],
   "return_type" : "_ZTIi",
   "source_file" : "/external/libnl/include/netlink/utils.h"
  },
  {
   "function_name" : "nl_str2llproto",
   "linker_set_key" : "nl_str2llproto",
   "parameters" :
   [
    {
     "referenced_type" : "_ZTIPKc"
    }
   ],
   "return_type" : "_ZTIi",
   "source_file" : "/external/libnl/include/netlink/utils.h"
  },
  {
   "function_name" : "nl_str2msec",
   "linker_set_key" : "nl_str2msec",
   "parameters" :
   [
    {
     "referenced_type" : "_ZTIPKc"
    },
    {
     "referenced_type" : "_ZTIPm"
    }
   ],
   "return_type" : "_ZTIi",
   "source_file" : "/external/libnl/include/netlink/utils.h"
  },
  {
   "function_name" : "nl_str2nlfamily",
   "linker_set_key" : "nl_str2nlfamily",
   "parameters" :
   [
    {
     "referenced_type" : "_ZTIPKc"
    }
   ],
   "return_type" : "_ZTIi",
   "source_file" : "/external/libnl/include/netlink/netlink.h"
  },
  {
   "function_name" : "nl_str2nlmsgtype",
   "linker_set_key" : "nl_str2nlmsgtype",
   "parameters" :
   [
    {
     "referenced_type" : "_ZTIPKc"
    }
   ],
   "return_type" : "_ZTIi",
   "source_file" : "/external/libnl/include/netlink/msg.h"
  },
  {
   "function_name" : "nl_str2rtntype",
   "linker_set_key" : "nl_str2rtntype",
   "parameters" :
   [
    {
     "referenced_type" : "_ZTIPKc"
    }
   ],
   "return_type" : "_ZTIi",
   "source_file" : "/external/libnl/include/netlink/route/rtnl.h"
  },
  {
   "function_name" : "nl_syserr2nlerr",
   "linker_set_key" : "nl_syserr2nlerr",
   "parameters" :
   [
    {
     "referenced_type" : "_ZTIi"
    }
   ],
   "return_type" : "_ZTIi",
   "source_file" : "/external/libnl/include/netlink/errno.h"
  },
  {
   "function_name" : "nl_ticks2us",
   "linker_set_key" : "nl_ticks2us",
   "parameters" :
   [
    {
     "referenced_type" : "_ZTIj"
    }
   ],
   "return_type" : "_ZTIj",
   "source_file" : "/external/libnl/include/netlink/utils.h"
  },
  {
   "function_name" : "nl_us2ticks",
   "linker_set_key" : "nl_us2ticks",
   "parameters" :
   [
    {
     "referenced_type" : "_ZTIj"
    }
   ],
   "return_type" : "_ZTIj",
   "source_file" : "/external/libnl/include/netlink/utils.h"
  },
  {
   "function_name" : "nl_wait_for_ack",
   "linker_set_key" : "nl_wait_for_ack",
   "parameters" :
   [
    {
     "referenced_type" : "_ZTIP7nl_sock"
    }
   ],
   "return_type" : "_ZTIi",
   "source_file" : "/external/libnl/include/netlink/netlink.h"
  },
  {
   "function_name" : "nla_attr_size",
   "linker_set_key" : "nla_attr_size",
   "parameters" :
   [
    {
     "referenced_type" : "_ZTIi"
    }
   ],
   "return_type" : "_ZTIi",
   "source_file" : "/external/libnl/include/netlink/attr.h"
  },
  {
   "function_name" : "nla_data",
   "linker_set_key" : "nla_data",
   "parameters" :
   [
    {
     "referenced_type" : "_ZTIPK6nlattr"
    }
   ],
   "return_type" : "_ZTIPv",
   "source_file" : "/external/libnl/include/netlink/attr.h"
  },
  {
   "function_name" : "nla_find",
   "linker_set_key" : "nla_find",
   "parameters" :
   [
    {
     "referenced_type" : "_ZTIP6nlattr"
    },
    {
     "referenced_type" : "_ZTIi"
    },
    {
     "referenced_type" : "_ZTIi"
    }
   ],
   "return_type" : "_ZTIP6nlattr",
   "source_file" : "/external/libnl/include/netlink/attr.h"
  },
  {
   "function_name" : "nla_get_flag",
   "linker_set_key" : "nla_get_flag",
   "parameters" :
   [
    {
     "referenced_type" : "_ZTIP6nlattr"
    }
   ],
   "return_type" : "_ZTIi",
   "source_file" : "/external/libnl/include/netlink/attr.h"
  },
  {
   "function_name" : "nla_get_msecs",
   "linker_set_key" : "nla_get_msecs",
   "parameters" :
   [
    {
     "referenced_type" : "_ZTIP6nlattr"
    }
   ],
   "return_type" : "_ZTIm",
   "source_file" : "/external/libnl/include/netlink/attr.h"
  },
  {
   "function_name" : "nla_get_string",
   "linker_set_key" : "nla_get_string",
   "parameters" :
   [
    {
     "referenced_type" : "_ZTIP6nlattr"
    }
   ],
   "return_type" : "_ZTIPc",
   "source_file" : "/external/libnl/include/netlink/attr.h"
  },
  {
   "function_name" : "nla_get_u16",
   "linker_set_key" : "nla_get_u16",
   "parameters" :
   [
    {
     "referenced_type" : "_ZTIP6nlattr"
    }
   ],
   "return_type" : "_ZTIt",
   "source_file" : "/external/libnl/include/netlink/attr.h"
  },
  {
   "function_name" : "nla_get_u32",
   "linker_set_key" : "nla_get_u32",
   "parameters" :
   [
    {
     "referenced_type" : "_ZTIP6nlattr"
    }
   ],
   "return_type" : "_ZTIj",
   "source_file" : "/external/libnl/include/netlink/attr.h"
  },
  {
   "function_name" : "nla_get_u64",
   "linker_set_key" : "nla_get_u64",
   "parameters" :
   [
    {
     "referenced_type" : "_ZTIP6nlattr"
    }
   ],
   "return_type" : "_ZTIm",
   "source_file" : "/external/libnl/include/netlink/attr.h"
  },
  {
   "function_name" : "nla_get_u8",
   "linker_set_key" : "nla_get_u8",
   "parameters" :
   [
    {
     "referenced_type" : "_ZTIP6nlattr"
    }
   ],
   "return_type" : "_ZTIh",
   "source_file" : "/external/libnl/include/netlink/attr.h"
  },
  {
   "function_name" : "nla_is_nested",
   "linker_set_key" : "nla_is_nested",
   "parameters" :
   [
    {
     "referenced_type" : "_ZTIP6nlattr"
    }
   ],
   "return_type" : "_ZTIi",
   "source_file" : "/external/libnl/include/netlink/attr.h"
  },
  {
   "function_name" : "nla_len",
   "linker_set_key" : "nla_len",
   "parameters" :
   [
    {
     "referenced_type" : "_ZTIPK6nlattr"
    }
   ],
   "return_type" : "_ZTIi",
   "source_file" : "/external/libnl/include/netlink/attr.h"
  },
  {
   "function_name" : "nla_memcmp",
   "linker_set_key" : "nla_memcmp",
   "parameters" :
   [
    {
     "referenced_type" : "_ZTIPK6nlattr"
    },
    {
     "referenced_type" : "_ZTIPKv"
    },
    {
     "referenced_type" : "_ZTIm"
    }
   ],
   "return_type" : "_ZTIi",
   "source_file" : "/external/libnl/include/netlink/attr.h"
  },
  {
   "function_name" : "nla_memcpy",
   "linker_set_key" : "nla_memcpy",
   "parameters" :
   [
    {
     "referenced_type" : "_ZTIPv"
    },
    {
     "referenced_type" : "_ZTIP6nlattr"
    },
    {
     "referenced_type" : "_ZTIi"
    }
   ],
   "return_type" : "_ZTIi",
   "source_file" : "/external/libnl/include/netlink/attr.h"
  },
  {
   "function_name" : "nla_nest_cancel",
   "linker_set_key" : "nla_nest_cancel",
   "parameters" :
   [
    {
     "referenced_type" : "_ZTIP6nl_msg"
    },
    {
     "referenced_type" : "_ZTIP6nlattr"
    }
   ],
   "return_type" : "_ZTIv",
   "source_file" : "/external/libnl/include/netlink/attr.h"
  },
  {
   "function_name" : "nla_nest_end",
   "linker_set_key" : "nla_nest_end",
   "parameters" :
   [
    {
     "referenced_type" : "_ZTIP6nl_msg"
    },
    {
     "referenced_type" : "_ZTIP6nlattr"
    }
   ],
   "return_type" : "_ZTIi",
   "source_file" : "/external/libnl/include/netlink/attr.h"
  },
  {
   "function_name" : "nla_nest_start",
   "linker_set_key" : "nla_nest_start",
   "parameters" :
   [
    {
     "referenced_type" : "_ZTIP6nl_msg"
    },
    {
     "referenced_type" : "_ZTIi"
    }
   ],
   "return_type" : "_ZTIP6nlattr",
   "source_file" : "/external/libnl/include/netlink/attr.h"
  },
  {
   "function_name" : "nla_next",
   "linker_set_key" : "nla_next",
   "parameters" :
   [
    {
     "referenced_type" : "_ZTIPK6nlattr"
    },
    {
     "referenced_type" : "_ZTIPi"
    }
   ],
   "return_type" : "_ZTIP6nlattr",
   "source_file" : "/external/libnl/include/netlink/attr.h"
  },
  {
   "function_name" : "nla_ok",
   "linker_set_key" : "nla_ok",
   "parameters" :
   [
    {
     "referenced_type" : "_ZTIPK6nlattr"
    },
    {
     "referenced_type" : "_ZTIi"
    }
   ],
   "return_type" : "_ZTIi",
   "source_file" : "/external/libnl/include/netlink/attr.h"
  },
  {
   "function_name" : "nla_padlen",
   "linker_set_key" : "nla_padlen",
   "parameters" :
   [
    {
     "referenced_type" : "_ZTIi"
    }
   ],
   "return_type" : "_ZTIi",
   "source_file" : "/external/libnl/include/netlink/attr.h"
  },
  {
   "function_name" : "nla_parse",
   "linker_set_key" : "nla_parse",
   "parameters" :
   [
    {
     "referenced_type" : "_ZTIPP6nlattr"
    },
    {
     "referenced_type" : "_ZTIi"
    },
    {
     "referenced_type" : "_ZTIP6nlattr"
    },
    {
     "referenced_type" : "_ZTIi"
    },
    {
     "referenced_type" : "_ZTIP10nla_policy"
    }
   ],
   "return_type" : "_ZTIi",
   "source_file" : "/external/libnl/include/netlink/attr.h"
  },
  {
   "function_name" : "nla_parse_nested",
   "linker_set_key" : "nla_parse_nested",
   "parameters" :
   [
    {
     "referenced_type" : "_ZTIPP6nlattr"
    },
    {
     "referenced_type" : "_ZTIi"
    },
    {
     "referenced_type" : "_ZTIP6nlattr"
    },
    {
     "referenced_type" : "_ZTIP10nla_policy"
    }
   ],
   "return_type" : "_ZTIi",
   "source_file" : "/external/libnl/include/netlink/attr.h"
  },
  {
   "function_name" : "nla_put",
   "linker_set_key" : "nla_put",
   "parameters" :
   [
    {
     "referenced_type" : "_ZTIP6nl_msg"
    },
    {
     "referenced_type" : "_ZTIi"
    },
    {
     "referenced_type" : "_ZTIi"
    },
    {
     "referenced_type" : "_ZTIPKv"
    }
   ],
   "return_type" : "_ZTIi",
   "source_file" : "/external/libnl/include/netlink/attr.h"
  },
  {
   "function_name" : "nla_put_addr",
   "linker_set_key" : "nla_put_addr",
   "parameters" :
   [
    {
     "referenced_type" : "_ZTIP6nl_msg"
    },
    {
     "referenced_type" : "_ZTIi"
    },
    {
     "referenced_type" : "_ZTIP7nl_addr"
    }
   ],
   "return_type" : "_ZTIi",
   "source_file" : "/external/libnl/include/netlink/attr.h"
  },
  {
   "function_name" : "nla_put_data",
   "linker_set_key" : "nla_put_data",
   "parameters" :
   [
    {
     "referenced_type" : "_ZTIP6nl_msg"
    },
    {
     "referenced_type" : "_ZTIi"
    },
    {
     "referenced_type" : "_ZTIP7nl_data"
    }
   ],
   "return_type" : "_ZTIi",
   "source_file" : "/external/libnl/include/netlink/attr.h"
  },
  {
   "function_name" : "nla_put_flag",
   "linker_set_key" : "nla_put_flag",
   "parameters" :
   [
    {
     "referenced_type" : "_ZTIP6nl_msg"
    },
    {
     "referenced_type" : "_ZTIi"
    }
   ],
   "return_type" : "_ZTIi",
   "source_file" : "/external/libnl/include/netlink/attr.h"
  },
  {
   "function_name" : "nla_put_msecs",
   "linker_set_key" : "nla_put_msecs",
   "parameters" :
   [
    {
     "referenced_type" : "_ZTIP6nl_msg"
    },
    {
     "referenced_type" : "_ZTIi"
    },
    {
     "referenced_type" : "_ZTIm"
    }
   ],
   "return_type" : "_ZTIi",
   "source_file" : "/external/libnl/include/netlink/attr.h"
  },
  {
   "function_name" : "nla_put_nested",
   "linker_set_key" : "nla_put_nested",
   "parameters" :
   [
    {
     "referenced_type" : "_ZTIP6nl_msg"
    },
    {
     "referenced_type" : "_ZTIi"
    },
    {
     "referenced_type" : "_ZTIP6nl_msg"
    }
   ],
   "return_type" : "_ZTIi",
   "source_file" : "/external/libnl/include/netlink/attr.h"
  },
  {
   "function_name" : "nla_put_string",
   "linker_set_key" : "nla_put_string",
   "parameters" :
   [
    {
     "referenced_type" : "_ZTIP6nl_msg"
    },
    {
     "referenced_type" : "_ZTIi"
    },
    {
     "referenced_type" : "_ZTIPKc"
    }
   ],
   "return_type" : "_ZTIi",
   "source_file" : "/external/libnl/include/netlink/attr.h"
  },
  {
   "function_name" : "nla_put_u16",
   "linker_set_key" : "nla_put_u16",
   "parameters" :
   [
    {
     "referenced_type" : "_ZTIP6nl_msg"
    },
    {
     "referenced_type" : "_ZTIi"
    },
    {
     "referenced_type" : "_ZTIt"
    }
   ],
   "return_type" : "_ZTIi",
   "source_file" : "/external/libnl/include/netlink/attr.h"
  },
  {
   "function_name" : "nla_put_u32",
   "linker_set_key" : "nla_put_u32",
   "parameters" :
   [
    {
     "referenced_type" : "_ZTIP6nl_msg"
    },
    {
     "referenced_type" : "_ZTIi"
    },
    {
     "referenced_type" : "_ZTIj"
    }
   ],
   "return_type" : "_ZTIi",
   "source_file" : "/external/libnl/include/netlink/attr.h"
  },
  {
   "function_name" : "nla_put_u64",
   "linker_set_key" : "nla_put_u64",
   "parameters" :
   [
    {
     "referenced_type" : "_ZTIP6nl_msg"
    },
    {
     "referenced_type" : "_ZTIi"
    },
    {
     "referenced_type" : "_ZTIm"
    }
   ],
   "return_type" : "_ZTIi",
   "source_file" : "/external/libnl/include/netlink/attr.h"
  },
  {
   "function_name" : "nla_put_u8",
   "linker_set_key" : "nla_put_u8",
   "parameters" :
   [
    {
     "referenced_type" : "_ZTIP6nl_msg"
    },
    {
     "referenced_type" : "_ZTIi"
    },
    {
     "referenced_type" : "_ZTIh"
    }
   ],
   "return_type" : "_ZTIi",
   "source_file" : "/external/libnl/include/netlink/attr.h"
  },
  {
   "function_name" : "nla_reserve",
   "linker_set_key" : "nla_reserve",
   "parameters" :
   [
    {
     "referenced_type" : "_ZTIP6nl_msg"
    },
    {
     "referenced_type" : "_ZTIi"
    },
    {
     "referenced_type" : "_ZTIi"
    }
   ],
   "return_type" : "_ZTIP6nlattr",
   "source_file" : "/external/libnl/include/netlink/attr.h"
  },
  {
   "function_name" : "nla_strcmp",
   "linker_set_key" : "nla_strcmp",
   "parameters" :
   [
    {
     "referenced_type" : "_ZTIPK6nlattr"
    },
    {
     "referenced_type" : "_ZTIPKc"
    }
   ],
   "return_type" : "_ZTIi",
   "source_file" : "/external/libnl/include/netlink/attr.h"
  },
  {
   "function_name" : "nla_strdup",
   "linker_set_key" : "nla_strdup",
   "parameters" :
   [
    {
     "referenced_type" : "_ZTIP6nlattr"
    }
   ],
   "return_type" : "_ZTIPc",
   "source_file" : "/external/libnl/include/netlink/attr.h"
  },
  {
   "function_name" : "nla_strlcpy",
   "linker_set_key" : "nla_strlcpy",
   "parameters" :
   [
    {
     "referenced_type" : "_ZTIPc"
    },
    {
     "referenced_type" : "_ZTIPK6nlattr"
    },
    {
     "referenced_type" : "_ZTIm"
    }
   ],
   "return_type" : "_ZTIm",
   "source_file" : "/external/libnl/include/netlink/attr.h"
  },
  {
   "function_name" : "nla_total_size",
   "linker_set_key" : "nla_total_size",
   "parameters" :
   [
    {
     "referenced_type" : "_ZTIi"
    }
   ],
   "return_type" : "_ZTIi",
   "source_file" : "/external/libnl/include/netlink/attr.h"
  },
  {
   "function_name" : "nla_type",
   "linker_set_key" : "nla_type",
   "parameters" :
   [
    {
     "referenced_type" : "_ZTIPK6nlattr"
    }
   ],
   "return_type" : "_ZTIi",
   "source_file" : "/external/libnl/include/netlink/attr.h"
  },
  {
   "function_name" : "nla_validate",
   "linker_set_key" : "nla_validate",
   "parameters" :
   [
    {
     "referenced_type" : "_ZTIP6nlattr"
    },
    {
     "referenced_type" : "_ZTIi"
    },
    {
     "referenced_type" : "_ZTIi"
    },
    {
     "referenced_type" : "_ZTIP10nla_policy"
    }
   ],
   "return_type" : "_ZTIi",
   "source_file" : "/external/libnl/include/netlink/attr.h"
  },
  {
   "function_name" : "nlmsg_alloc",
   "linker_set_key" : "nlmsg_alloc",
   "return_type" : "_ZTIP6nl_msg",
   "source_file" : "/external/libnl/include/netlink/msg.h"
  },
  {
   "function_name" : "nlmsg_alloc_simple",
   "linker_set_key" : "nlmsg_alloc_simple",
   "parameters" :
   [
    {
     "referenced_type" : "_ZTIi"
    },
    {
     "referenced_type" : "_ZTIi"
    }
   ],
   "return_type" : "_ZTIP6nl_msg",
   "source_file" : "/external/libnl/include/netlink/msg.h"
  },
  {
   "function_name" : "nlmsg_alloc_size",
   "linker_set_key" : "nlmsg_alloc_size",
   "parameters" :
   [
    {
     "referenced_type" : "_ZTIm"
    }
   ],
   "return_type" : "_ZTIP6nl_msg",
   "source_file" : "/external/libnl/include/netlink/msg.h"
  },
  {
   "function_name" : "nlmsg_append",
   "linker_set_key" : "nlmsg_append",
   "parameters" :
   [
    {
     "referenced_type" : "_ZTIP6nl_msg"
    },
    {
     "referenced_type" : "_ZTIPv"
    },
    {
     "referenced_type" : "_ZTIm"
    },
    {
     "referenced_type" : "_ZTIi"
    }
   ],
   "return_type" : "_ZTIi",
   "source_file" : "/external/libnl/include/netlink/msg.h"
  },
  {
   "function_name" : "nlmsg_attrdata",
   "linker_set_key" : "nlmsg_attrdata",
   "parameters" :
   [
    {
     "referenced_type" : "_ZTIPK8nlmsghdr"
    },
    {
     "referenced_type" : "_ZTIi"
    }
   ],
   "return_type" : "_ZTIP6nlattr",
   "source_file" : "/external/libnl/include/netlink/msg.h"
  },
  {
   "function_name" : "nlmsg_attrlen",
   "linker_set_key" : "nlmsg_attrlen",
   "parameters" :
   [
    {
     "referenced_type" : "_ZTIPK8nlmsghdr"
    },
    {
     "referenced_type" : "_ZTIi"
    }
   ],
   "return_type" : "_ZTIi",
   "source_file" : "/external/libnl/include/netlink/msg.h"
  },
  {
   "function_name" : "nlmsg_convert",
   "linker_set_key" : "nlmsg_convert",
   "parameters" :
   [
    {
     "referenced_type" : "_ZTIP8nlmsghdr"
    }
   ],
   "return_type" : "_ZTIP6nl_msg",
   "source_file" : "/external/libnl/include/netlink/msg.h"
  },
  {
   "function_name" : "nlmsg_data",
   "linker_set_key" : "nlmsg_data",
   "parameters" :
   [
    {
     "referenced_type" : "_ZTIPK8nlmsghdr"
    }
   ],
   "return_type" : "_ZTIPv",
   "source_file" : "/external/libnl/include/netlink/msg.h"
  },
  {
   "function_name" : "nlmsg_datalen",
   "linker_set_key" : "nlmsg_datalen",
   "parameters" :
   [
    {
     "referenced_type" : "_ZTIPK8nlmsghdr"
    }
   ],
   "return_type" : "_ZTIi",
   "source_file" : "/external/libnl/include/netlink/msg.h"
  },
  {
   "function_name" : "nlmsg_expand",
   "linker_set_key" : "nlmsg_expand",
   "parameters" :
   [
    {
     "referenced_type" : "_ZTIP6nl_msg"
    },
    {
     "referenced_type" : "_ZTIm"
    }
   ],
   "return_type" : "_ZTIi",
   "source_file" : "/external/libnl/include/netlink/msg.h"
  },
  {
   "function_name" : "nlmsg_find_attr",
   "linker_set_key" : "nlmsg_find_attr",
   "parameters" :
   [
    {
     "referenced_type" : "_ZTIP8nlmsghdr"
    },
    {
     "referenced_type" : "_ZTIi"
    },
    {
     "referenced_type" : "_ZTIi"
    }
   ],
   "return_type" : "_ZTIP6nlattr",
   "source_file" : "/external/libnl/include/netlink/msg.h"
  },
  {
   "function_name" : "nlmsg_free",
   "linker_set_key" : "nlmsg_free",
   "parameters" :
   [
    {
     "referenced_type" : "_ZTIP6nl_msg"
    }
   ],
   "return_type" : "_ZTIv",
   "source_file" : "/external/libnl/include/netlink/msg.h"
  },
  {
   "function_name" : "nlmsg_get",
   "linker_set_key" : "nlmsg_get",
   "parameters" :
   [
    {
     "referenced_type" : "_ZTIP6nl_msg"
    }
   ],
   "return_type" : "_ZTIv",
   "source_file" : "/external/libnl/include/netlink/msg.h"
  },
  {
   "function_name" : "nlmsg_get_creds",
   "linker_set_key" : "nlmsg_get_creds",
   "parameters" :
   [
    {
     "referenced_type" : "_ZTIP6nl_msg"
    }
   ],
   "return_type" : "_ZTIP5ucred",
   "source_file" : "/external/libnl/include/netlink/msg.h"
  },
  {
   "function_name" : "nlmsg_get_dst",
   "linker_set_key" : "nlmsg_get_dst",
   "parameters" :
   [
    {
     "referenced_type" : "_ZTIP6nl_msg"
    }
   ],
   "return_type" : "_ZTIP11sockaddr_nl",
   "source_file" : "/external/libnl/include/netlink/msg.h"
  },
  {
   "function_name" : "nlmsg_get_max_size",
   "linker_set_key" : "nlmsg_get_max_size",
   "parameters" :
   [
    {
     "referenced_type" : "_ZTIP6nl_msg"
    }
   ],
   "return_type" : "_ZTIm",
   "source_file" : "/external/libnl/include/netlink/msg.h"
  },
  {
   "function_name" : "nlmsg_get_proto",
   "linker_set_key" : "nlmsg_get_proto",
   "parameters" :
   [
    {
     "referenced_type" : "_ZTIP6nl_msg"
    }
   ],
   "return_type" : "_ZTIi",
   "source_file" : "/external/libnl/include/netlink/msg.h"
  },
  {
   "function_name" : "nlmsg_get_src",
   "linker_set_key" : "nlmsg_get_src",
   "parameters" :
   [
    {
     "referenced_type" : "_ZTIP6nl_msg"
    }
   ],
   "return_type" : "_ZTIP11sockaddr_nl",
   "source_file" : "/external/libnl/include/netlink/msg.h"
  },
  {
   "function_name" : "nlmsg_hdr",
   "linker_set_key" : "nlmsg_hdr",
   "parameters" :
   [
    {
     "referenced_type" : "_ZTIP6nl_msg"
    }
   ],
   "return_type" : "_ZTIP8nlmsghdr",
   "source_file" : "/external/libnl/include/netlink/msg.h"
  },
  {
   "function_name" : "nlmsg_inherit",
   "linker_set_key" : "nlmsg_inherit",
   "parameters" :
   [
    {
     "referenced_type" : "_ZTIP8nlmsghdr"
    }
   ],
   "return_type" : "_ZTIP6nl_msg",
   "source_file" : "/external/libnl/include/netlink/msg.h"
  },
  {
   "function_name" : "nlmsg_next",
   "linker_set_key" : "nlmsg_next",
   "parameters" :
   [
    {
     "referenced_type" : "_ZTIP8nlmsghdr"
    },
    {
     "referenced_type" : "_ZTIPi"
    }
   ],
   "return_type" : "_ZTIP8nlmsghdr",
   "source_file" : "/external/libnl/include/netlink/msg.h"
  },
  {
   "function_name" : "nlmsg_ok",
   "linker_set_key" : "nlmsg_ok",
   "parameters" :
   [
    {
     "referenced_type" : "_ZTIPK8nlmsghdr"
    },
    {
     "referenced_type" : "_ZTIi"
    }
   ],
   "return_type" : "_ZTIi",
   "source_file" : "/external/libnl/include/netlink/msg.h"
  },
  {
   "function_name" : "nlmsg_padlen",
   "linker_set_key" : "nlmsg_padlen",
   "parameters" :
   [
    {
     "referenced_type" : "_ZTIi"
    }
   ],
   "return_type" : "_ZTIi",
   "source_file" : "/external/libnl/include/netlink/msg.h"
  },
  {
   "function_name" : "nlmsg_parse",
   "linker_set_key" : "nlmsg_parse",
   "parameters" :
   [
    {
     "referenced_type" : "_ZTIP8nlmsghdr"
    },
    {
     "referenced_type" : "_ZTIi"
    },
    {
     "referenced_type" : "_ZTIPP6nlattr"
    },
    {
     "referenced_type" : "_ZTIi"
    },
    {
     "referenced_type" : "_ZTIP10nla_policy"
    }
   ],
   "return_type" : "_ZTIi",
   "source_file" : "/external/libnl/include/netlink/msg.h"
  },
  {
   "function_name" : "nlmsg_put",
   "linker_set_key" : "nlmsg_put",
   "parameters" :
   [
    {
     "referenced_type" : "_ZTIP6nl_msg"
    },
    {
     "referenced_type" : "_ZTIj"
    },
    {
     "referenced_type" : "_ZTIj"
    },
    {
     "referenced_type" : "_ZTIi"
    },
    {
     "referenced_type" : "_ZTIi"
    },
    {
     "referenced_type" : "_ZTIi"
    }
   ],
   "return_type" : "_ZTIP8nlmsghdr",
   "source_file" : "/external/libnl/include/netlink/msg.h"
  },
  {
   "function_name" : "nlmsg_reserve",
   "linker_set_key" : "nlmsg_reserve",
   "parameters" :
   [
    {
     "referenced_type" : "_ZTIP6nl_msg"
    },
    {
     "referenced_type" : "_ZTIm"
    },
    {
     "referenced_type" : "_ZTIi"
    }
   ],
   "return_type" : "_ZTIPv",
   "source_file" : "/external/libnl/include/netlink/msg.h"
  },
  {
   "function_name" : "nlmsg_set_creds",
   "linker_set_key" : "nlmsg_set_creds",
   "parameters" :
   [
    {
     "referenced_type" : "_ZTIP6nl_msg"
    },
    {
     "referenced_type" : "_ZTIP5ucred"
    }
   ],
   "return_type" : "_ZTIv",
   "source_file" : "/external/libnl/include/netlink/msg.h"
  },
  {
   "function_name" : "nlmsg_set_default_size",
   "linker_set_key" : "nlmsg_set_default_size",
   "parameters" :
   [
    {
     "referenced_type" : "_ZTIm"
    }
   ],
   "return_type" : "_ZTIv",
   "source_file" : "/external/libnl/include/netlink/msg.h"
  },
  {
   "function_name" : "nlmsg_set_dst",
   "linker_set_key" : "nlmsg_set_dst",
   "parameters" :
   [
    {
     "referenced_type" : "_ZTIP6nl_msg"
    },
    {
     "referenced_type" : "_ZTIP11sockaddr_nl"
    }
   ],
   "return_type" : "_ZTIv",
   "source_file" : "/external/libnl/include/netlink/msg.h"
  },
  {
   "function_name" : "nlmsg_set_proto",
   "linker_set_key" : "nlmsg_set_proto",
   "parameters" :
   [
    {
     "referenced_type" : "_ZTIP6nl_msg"
    },
    {
     "referenced_type" : "_ZTIi"
    }
   ],
   "return_type" : "_ZTIv",
   "source_file" : "/external/libnl/include/netlink/msg.h"
  },
  {
   "function_name" : "nlmsg_set_src",
   "linker_set_key" : "nlmsg_set_src",
   "parameters" :
   [
    {
     "referenced_type" : "_ZTIP6nl_msg"
    },
    {
     "referenced_type" : "_ZTIP11sockaddr_nl"
    }
   ],
   "return_type" : "_ZTIv",
   "source_file" : "/external/libnl/include/netlink/msg.h"
  },
  {
   "function_name" : "nlmsg_size",
   "linker_set_key" : "nlmsg_size",
   "parameters" :
   [
    {
     "referenced_type" : "_ZTIi"
    }
   ],
   "return_type" : "_ZTIi",
   "source_file" : "/external/libnl/include/netlink/msg.h"
  },
  {
   "function_name" : "nlmsg_tail",
   "linker_set_key" : "nlmsg_tail",
   "parameters" :
   [
    {
     "referenced_type" : "_ZTIPK8nlmsghdr"
    }
   ],
   "return_type" : "_ZTIPv",
   "source_file" : "/external/libnl/include/netlink/msg.h"
  },
  {
   "function_name" : "nlmsg_total_size",
   "linker_set_key" : "nlmsg_total_size",
   "parameters" :
   [
    {
     "referenced_type" : "_ZTIi"
    }
   ],
   "return_type" : "_ZTIi",
   "source_file" : "/external/libnl/include/netlink/msg.h"
  },
  {
   "function_name" : "nlmsg_valid_hdr",
   "linker_set_key" : "nlmsg_valid_hdr",
   "parameters" :
   [
    {
     "referenced_type" : "_ZTIPK8nlmsghdr"
    },
    {
     "referenced_type" : "_ZTIi"
    }
   ],
   "return_type" : "_ZTIi",
   "source_file" : "/external/libnl/include/netlink/msg.h"
  },
  {
   "function_name" : "nlmsg_validate",
   "linker_set_key" : "nlmsg_validate",
   "parameters" :
   [
    {
     "referenced_type" : "_ZTIP8nlmsghdr"
    },
    {
     "referenced_type" : "_ZTIi"
    },
    {
     "referenced_type" : "_ZTIi"
    },
    {
     "referenced_type" : "_ZTIP10nla_policy"
    }
   ],
   "return_type" : "_ZTIi",
   "source_file" : "/external/libnl/include/netlink/msg.h"
  },
  {
   "function_name" : "rtnl_realms2str",
   "linker_set_key" : "rtnl_realms2str",
   "parameters" :
   [
    {
     "referenced_type" : "_ZTIj"
    },
    {
     "referenced_type" : "_ZTIPc"
    },
    {
     "referenced_type" : "_ZTIm"
    }
   ],
   "return_type" : "_ZTIPc",
   "source_file" : "/external/libnl/include/netlink/route/rtnl.h"
  },
  {
   "function_name" : "rtnl_route_metric2str",
   "linker_set_key" : "rtnl_route_metric2str",
   "parameters" :
   [
    {
     "referenced_type" : "_ZTIi"
    },
    {
     "referenced_type" : "_ZTIPc"
    },
    {
     "referenced_type" : "_ZTIm"
    }
   ],
   "return_type" : "_ZTIPc",
   "source_file" : "/external/libnl/include/netlink/route/route.h"
  },
  {
   "function_name" : "rtnl_route_proto2str",
   "linker_set_key" : "rtnl_route_proto2str",
   "parameters" :
   [
    {
     "referenced_type" : "_ZTIi"
    },
    {
     "referenced_type" : "_ZTIPc"
    },
    {
     "referenced_type" : "_ZTIm"
    }
   ],
   "return_type" : "_ZTIPc",
   "source_file" : "/external/libnl/include/netlink/route/route.h"
  },
  {
   "function_name" : "rtnl_route_read_protocol_names",
   "linker_set_key" : "rtnl_route_read_protocol_names",
   "parameters" :
   [
    {
     "referenced_type" : "_ZTIPKc"
    }
   ],
   "return_type" : "_ZTIi",
   "source_file" : "/external/libnl/include/netlink/route/route.h"
  },
  {
   "function_name" : "rtnl_route_read_table_names",
   "linker_set_key" : "rtnl_route_read_table_names",
   "parameters" :
   [
    {
     "referenced_type" : "_ZTIPKc"
    }
   ],
   "return_type" : "_ZTIi",
   "source_file" : "/external/libnl/include/netlink/route/route.h"
  },
  {
   "function_name" : "rtnl_route_str2metric",
   "linker_set_key" : "rtnl_route_str2metric",
   "parameters" :
   [
    {
     "referenced_type" : "_ZTIPKc"
    }
   ],
   "return_type" : "_ZTIi",
   "source_file" : "/external/libnl/include/netlink/route/route.h"
  },
  {
   "function_name" : "rtnl_route_str2proto",
   "linker_set_key" : "rtnl_route_str2proto",
   "parameters" :
   [
    {
     "referenced_type" : "_ZTIPKc"
    }
   ],
   "return_type" : "_ZTIi",
   "source_file" : "/external/libnl/include/netlink/route/route.h"
  },
  {
   "function_name" : "rtnl_route_str2table",
   "linker_set_key" : "rtnl_route_str2table",
   "parameters" :
   [
    {
     "referenced_type" : "_ZTIPKc"
    }
   ],
   "return_type" : "_ZTIi",
   "source_file" : "/external/libnl/include/netlink/route/route.h"
  },
  {
   "function_name" : "rtnl_route_table2str",
   "linker_set_key" : "rtnl_route_table2str",
   "parameters" :
   [
    {
     "referenced_type" : "_ZTIi"
    },
    {
     "referenced_type" : "_ZTIPc"
    },
    {
     "referenced_type" : "_ZTIm"
    }
   ],
   "return_type" : "_ZTIPc",
   "source_file" : "/external/libnl/include/netlink/route/route.h"
  },
  {
   "function_name" : "rtnl_scope2str",
   "linker_set_key" : "rtnl_scope2str",
   "parameters" :
   [
    {
     "referenced_type" : "_ZTIi"
    },
    {
     "referenced_type" : "_ZTIPc"
    },
    {
     "referenced_type" : "_ZTIm"
    }
   ],
   "return_type" : "_ZTIPc",
   "source_file" : "/external/libnl/include/netlink/route/rtnl.h"
  },
  {
   "function_name" : "rtnl_str2scope",
   "linker_set_key" : "rtnl_str2scope",
   "parameters" :
   [
    {
     "referenced_type" : "_ZTIPKc"
    }
   ],
   "return_type" : "_ZTIi",
   "source_file" : "/external/libnl/include/netlink/route/rtnl.h"
  }
 ],
 "global_vars" :
 [
  {
   "linker_set_key" : "nl_debug",
   "name" : "nl_debug",
   "referenced_type" : "_ZTIi",
   "source_file" : "/external/libnl/include/netlink/netlink.h"
  },
  {
   "linker_set_key" : "nl_ver_maj",
   "name" : "nl_ver_maj",
   "referenced_type" : "_ZTIKi",
   "source_file" : "/external/libnl/include/netlink/version.h"
  },
  {
   "linker_set_key" : "nl_ver_mic",
   "name" : "nl_ver_mic",
   "referenced_type" : "_ZTIKi",
   "source_file" : "/external/libnl/include/netlink/version.h"
  },
  {
   "linker_set_key" : "nl_ver_min",
   "name" : "nl_ver_min",
   "referenced_type" : "_ZTIKi",
   "source_file" : "/external/libnl/include/netlink/version.h"
  },
  {
   "linker_set_key" : "nl_ver_num",
   "name" : "nl_ver_num",
   "referenced_type" : "_ZTIKi",
   "source_file" : "/external/libnl/include/netlink/version.h"
  }
 ],
 "lvalue_reference_types" : [],
 "pointer_types" :
 [
  {
   "alignment" : 8,
   "linker_set_key" : "_ZTIP10genlmsghdr",
   "name" : "genlmsghdr *",
   "referenced_type" : "_ZTI10genlmsghdr",
   "self_type" : "_ZTIP10genlmsghdr",
   "size" : 8,
   "source_file" : "/external/libnl/include/netlink/genl/mngt.h"
  },
  {
   "alignment" : 8,
   "linker_set_key" : "_ZTIP10nl_msgtype",
   "name" : "nl_msgtype *",
   "referenced_type" : "_ZTI10nl_msgtype",
   "self_type" : "_ZTIP10nl_msgtype",
   "size" : 8,
   "source_file" : "/external/libnl/include/netlink/cache.h"
  },
  {
   "alignment" : 8,
   "linker_set_key" : "_ZTIP10nla_policy",
   "name" : "nla_policy *",
   "referenced_type" : "_ZTI10nla_policy",
   "self_type" : "_ZTIP10nla_policy",
   "size" : 8,
   "source_file" : "/external/libnl/include/netlink/genl/mngt.h"
  },
  {
   "alignment" : 8,
   "linker_set_key" : "_ZTIP11flnl_result",
   "name" : "flnl_result *",
   "referenced_type" : "_ZTI11flnl_result",
   "self_type" : "_ZTIP11flnl_result",
   "size" : 8,
   "source_file" : "/external/libnl/include/netlink/fib_lookup/lookup.h"
  },
  {
   "alignment" : 8,
   "linker_set_key" : "_ZTIP11genl_family",
   "name" : "genl_family *",
   "referenced_type" : "_ZTI11genl_family",
   "self_type" : "_ZTIP11genl_family",
   "size" : 8,
   "source_file" : "/external/libnl/include/netlink-private/types.h"
  },
  {
   "alignment" : 8,
   "linker_set_key" : "_ZTIP11nl_af_group",
   "name" : "nl_af_group *",
   "referenced_type" : "_ZTI11nl_af_group",
   "self_type" : "_ZTIP11nl_af_group",
   "size" : 8,
   "source_file" : "/external/libnl/include/netlink-private/cache-api.h"
  },
  {
   "alignment" : 8,
   "linker_set_key" : "_ZTIP11rtnl_tc_ops",
   "name" : "rtnl_tc_ops *",
   "referenced_type" : "_ZTI11rtnl_tc_ops",
   "self_type" : "_ZTIP11rtnl_tc_ops",
   "size" : 8,
   "source_file" : "/external/libnl/include/netlink-private/types.h"
  },
  {
   "alignment" : 8,
   "linker_set_key" : "_ZTIP11sockaddr_nl",
   "name" : "sockaddr_nl *",
   "referenced_type" : "_ZTI11sockaddr_nl",
   "self_type" : "_ZTIP11sockaddr_nl",
   "size" : 8,
   "source_file" : "/external/libnl/include/netlink-private/cache-api.h"
  },
  {
   "alignment" : 8,
   "linker_set_key" : "_ZTIP12flnl_request",
   "name" : "flnl_request *",
   "referenced_type" : "_ZTI12flnl_request",
   "self_type" : "_ZTIP12flnl_request",
   "size" : 8,
   "source_file" : "/external/libnl/include/netlink-private/types.h"
  },
  {
   "alignment" : 8,
   "linker_set_key" : "_ZTIP12nl_cache_ops",
   "name" : "nl_cache_ops *",
   "referenced_type" : "_ZTI12nl_cache_ops",
   "self_type" : "_ZTIP12nl_cache_ops",
   "size" : 8,
   "source_file" : "/external/libnl/include/netlink/cache.h"
  },
  {
   "alignment" : 8,
   "linker_set_key" : "_ZTIP12nl_hash_node",
   "name" : "nl_hash_node *",
   "referenced_type" : "_ZTI12nl_hash_node",
   "self_type" : "_ZTIP12nl_hash_node",
   "size" : 8,
   "source_file" : "/external/libnl/include/netlink/hashtable.h"
  },
  {
   "alignment" : 8,
   "linker_set_key" : "_ZTIP12nl_list_head",
   "name" : "nl_list_head *",
   "referenced_type" : "_ZTI12nl_list_head",
   "self_type" : "_ZTIP12nl_list_head",
   "size" : 8,
   "source_file" : "/external/libnl/include/netlink/list.h"
  },
  {
   "alignment" : 8,
   "linker_set_key" : "_ZTIP13nl_cache_mngr",
   "name" : "nl_cache_mngr *",
   "referenced_type" : "_ZTI13nl_cache_mngr",
   "self_type" : "_ZTIP13nl_cache_mngr",
   "size" : 8,
   "source_file" : "/external/libnl/include/netlink/cache.h"
  },
  {
   "alignment" : 8,
   "linker_set_key" : "_ZTIP13nl_hash_table",
   "name" : "nl_hash_table *",
   "referenced_type" : "_ZTI13nl_hash_table",
   "self_type" : "_ZTIP13nl_hash_table",
   "size" : 8,
   "source_file" : "/external/libnl/include/netlink-private/types.h"
  },
  {
   "alignment" : 8,
   "linker_set_key" : "_ZTIP13nl_object_ops",
   "name" : "nl_object_ops *",
   "referenced_type" : "_ZTI13nl_object_ops",
   "self_type" : "_ZTIP13nl_object_ops",
   "size" : 8,
   "source_file" : "/external/libnl/include/netlink-private/object-api.h"
  },
  {
   "alignment" : 8,
   "linker_set_key" : "_ZTIP14nl_cache_assoc",
   "name" : "nl_cache_assoc *",
   "referenced_type" : "_ZTI14nl_cache_assoc",
   "self_type" : "_ZTIP14nl_cache_assoc",
   "size" : 8,
   "source_file" : "/external/libnl/include/netlink-private/types.h"
  },
  {
   "alignment" : 8,
   "linker_set_key" : "_ZTIP14nl_dump_params",
   "name" : "nl_dump_params *",
   "referenced_type" : "_ZTI14nl_dump_params",
   "self_type" : "_ZTIP14nl_dump_params",
   "size" : 8,
   "source_file" : "/external/libnl/include/netlink/types.h"
  },
  {
   "alignment" : 8,
   "linker_set_key" : "_ZTIP15idiagnl_meminfo",
   "name" : "idiagnl_meminfo *",
   "referenced_type" : "_ZTI15idiagnl_meminfo",
   "self_type" : "_ZTIP15idiagnl_meminfo",
   "size" : 8,
   "source_file" : "/external/libnl/include/netlink-private/types.h"
  },
  {
   "alignment" : 8,
   "linker_set_key" : "_ZTIP15nl_parser_param",
   "name" : "nl_parser_param *",
   "referenced_type" : "_ZTI15nl_parser_param",
   "self_type" : "_ZTIP15nl_parser_param",
   "size" : 8,
   "source_file" : "/external/libnl/include/netlink-private/cache-api.h"
  },
  {
   "alignment" : 8,
   "linker_set_key" : "_ZTIP15rtnl_ematch_ops",
   "name" : "rtnl_ematch_ops *",
   "referenced_type" : "_ZTI15rtnl_ematch_ops",
   "self_type" : "_ZTIP15rtnl_ematch_ops",
   "size" : 8,
   "source_file" : "/external/libnl/include/netlink-private/types.h"
  },
  {
   "alignment" : 8,
   "linker_set_key" : "_ZTIP16rtnl_ematch_tree",
   "name" : "rtnl_ematch_tree *",
   "referenced_type" : "_ZTI16rtnl_ematch_tree",
   "self_type" : "_ZTIP16rtnl_ematch_tree",
   "size" : 8,
   "source_file" : "/external/libnl/include/netlink-private/types.h"
  },
  {
   "alignment" : 8,
   "linker_set_key" : "_ZTIP16rtnl_link_af_ops",
   "name" : "rtnl_link_af_ops *",
   "referenced_type" : "_ZTI16rtnl_link_af_ops",
   "self_type" : "_ZTIP16rtnl_link_af_ops",
   "size" : 8,
   "source_file" : "/external/libnl/include/netlink-private/types.h"
  },
  {
   "alignment" : 8,
   "linker_set_key" : "_ZTIP17idiagnl_vegasinfo",
   "name" : "idiagnl_vegasinfo *",
   "referenced_type" : "_ZTI17idiagnl_vegasinfo",
   "self_type" : "_ZTIP17idiagnl_vegasinfo",
   "size" : 8,
   "source_file" : "/external/libnl/include/netlink-private/types.h"
  },
  {
   "alignment" : 8,
   "linker_set_key" : "_ZTIP18rtnl_link_info_ops",
   "name" : "rtnl_link_info_ops *",
   "referenced_type" : "_ZTI18rtnl_link_info_ops",
   "self_type" : "_ZTIP18rtnl_link_info_ops",
   "size" : 8,
   "source_file" : "/external/libnl/include/netlink-private/types.h"
  },
  {
   "alignment" : 8,
   "linker_set_key" : "_ZTIP5iovec",
   "name" : "iovec *",
   "referenced_type" : "_ZTI5iovec",
   "self_type" : "_ZTIP5iovec",
   "size" : 8,
   "source_file" : "/external/libnl/include/netlink/netlink.h"
  },
  {
   "alignment" : 8,
   "linker_set_key" : "_ZTIP5nl_cb",
   "name" : "nl_cb *",
   "referenced_type" : "_ZTI5nl_cb",
   "self_type" : "_ZTIP5nl_cb",
   "size" : 8,
   "source_file" : "/external/libnl/include/netlink-private/types.h"
  },
  {
   "alignment" : 8,
   "linker_set_key" : "_ZTIP5ucred",
   "name" : "ucred *",
   "referenced_type" : "_ZTI5ucred",
   "self_type" : "_ZTIP5ucred",
   "size" : 8,
   "source_file" : "/external/libnl/include/netlink-private/types.h"
  },
  {
   "alignment" : 8,
   "linker_set_key" : "_ZTIP6msghdr",
   "name" : "msghdr *",
   "referenced_type" : "_ZTI6msghdr",
   "self_type" : "_ZTIP6msghdr",
   "size" : 8,
   "source_file" : "/external/libnl/include/netlink/netlink.h"
  },
  {
   "alignment" : 8,
   "linker_set_key" : "_ZTIP6nl_msg",
   "name" : "nl_msg *",
   "referenced_type" : "_ZTI6nl_msg",
   "self_type" : "_ZTIP6nl_msg",
   "size" : 8,
   "source_file" : "/external/libnl/include/netlink/cache.h"
  },
  {
   "alignment" : 8,
   "linker_set_key" : "_ZTIP6nlattr",
   "name" : "nlattr *",
   "referenced_type" : "_ZTI6nlattr",
   "self_type" : "_ZTIP6nlattr",
   "size" : 8,
   "source_file" : "/external/libnl/include/netlink/data.h"
  },
  {
   "alignment" : 8,
   "linker_set_key" : "_ZTIP7__sFILE",
   "name" : "__sFILE *",
   "referenced_type" : "_ZTI7__sFILE",
   "self_type" : "_ZTIP7__sFILE",
   "size" : 8,
   "source_file" : "/external/libnl/include/netlink/types.h"
  },
  {
   "alignment" : 8,
   "linker_set_key" : "_ZTIP7nl_addr",
   "name" : "nl_addr *",
   "referenced_type" : "_ZTI7nl_addr",
   "self_type" : "_ZTIP7nl_addr",
   "size" : 8,
   "source_file" : "/external/libnl/include/netlink-private/types.h"
  },
  {
   "alignment" : 8,
   "linker_set_key" : "_ZTIP7nl_data",
   "name" : "nl_data *",
   "referenced_type" : "_ZTI7nl_data",
   "self_type" : "_ZTIP7nl_data",
   "size" : 8,
   "source_file" : "/external/libnl/include/netlink-private/types.h"
  },
  {
   "alignment" : 8,
   "linker_set_key" : "_ZTIP7nl_sock",
   "name" : "nl_sock *",
   "referenced_type" : "_ZTI7nl_sock",
   "self_type" : "_ZTIP7nl_sock",
   "size" : 8,
   "source_file" : "/external/libnl/include/netlink/cache.h"
  },
  {
   "alignment" : 8,
   "linker_set_key" : "_ZTIP7rtnl_tc",
   "name" : "rtnl_tc *",
   "referenced_type" : "_ZTI7rtnl_tc",
   "self_type" : "_ZTIP7rtnl_tc",
   "size" : 8,
   "source_file" : "/external/libnl/include/netlink-private/route/tc-api.h"
  },
  {
   "alignment" : 8,
   "linker_set_key" : "_ZTIP8addrinfo",
   "name" : "addrinfo *",
   "referenced_type" : "_ZTI8addrinfo",
   "self_type" : "_ZTIP8addrinfo",
   "size" : 8,
   "source_file" : "/external/libnl/include/netlink/addr.h"
  },
  {
   "alignment" : 8,
   "linker_set_key" : "_ZTIP8genl_cmd",
   "name" : "genl_cmd *",
   "referenced_type" : "_ZTI8genl_cmd",
   "self_type" : "_ZTIP8genl_cmd",
   "size" : 8,
   "source_file" : "/external/libnl/include/netlink/genl/mngt.h"
  },
  {
   "alignment" : 8,
   "linker_set_key" : "_ZTIP8genl_ops",
   "name" : "genl_ops *",
   "referenced_type" : "_ZTI8genl_ops",
   "self_type" : "_ZTIP8genl_ops",
   "size" : 8,
   "source_file" : "/external/libnl/include/netlink-private/cache-api.h"
  },
  {
   "alignment" : 8,
   "linker_set_key" : "_ZTIP8nl_cache",
   "name" : "nl_cache *",
   "referenced_type" : "_ZTI8nl_cache",
   "self_type" : "_ZTIP8nl_cache",
   "size" : 8,
   "source_file" : "/external/libnl/include/netlink/cache.h"
  },
  {
   "alignment" : 8,
   "linker_set_key" : "_ZTIP8nlmsgerr",
   "name" : "nlmsgerr *",
   "referenced_type" : "_ZTI8nlmsgerr",
   "self_type" : "_ZTIP8nlmsgerr",
   "size" : 8,
   "source_file" : "/external/libnl/include/netlink-private/types.h"
  },
  {
   "alignment" : 8,
   "linker_set_key" : "_ZTIP8nlmsghdr",
   "name" : "nlmsghdr *",
   "referenced_type" : "_ZTI8nlmsghdr",
   "self_type" : "_ZTIP8nlmsghdr",
   "size" : 8,
   "source_file" : "/external/libnl/include/netlink-private/cache-api.h"
  },
  {
   "alignment" : 8,
   "linker_set_key" : "_ZTIP8rtnl_act",
   "name" : "rtnl_act *",
   "referenced_type" : "_ZTI8rtnl_act",
   "self_type" : "_ZTIP8rtnl_act",
   "size" : 8,
   "source_file" : "/external/libnl/include/netlink-private/types.h"
  },
  {
   "alignment" : 8,
   "linker_set_key" : "_ZTIP8sockaddr",
   "name" : "sockaddr *",
   "referenced_type" : "_ZTI8sockaddr",
   "self_type" : "_ZTIP8sockaddr",
   "size" : 8,
   "source_file" : "/external/libnl/include/netlink/addr.h"
  },
  {
   "alignment" : 8,
   "linker_set_key" : "_ZTIP9genl_info",
   "name" : "genl_info *",
   "referenced_type" : "_ZTI9genl_info",
   "self_type" : "_ZTIP9genl_info",
   "size" : 8,
   "source_file" : "/external/libnl/include/netlink/genl/mngt.h"
  },
  {
   "alignment" : 8,
   "linker_set_key" : "_ZTIP9nl_object",
   "name" : "nl_object *",
   "referenced_type" : "_ZTI9nl_object",
   "self_type" : "_ZTIP9nl_object",
   "size" : 8,
   "source_file" : "/external/libnl/include/netlink/cache.h"
  },
  {
   "alignment" : 8,
   "linker_set_key" : "_ZTIP9rtnl_link",
   "name" : "rtnl_link *",
   "referenced_type" : "_ZTI9rtnl_link",
   "self_type" : "_ZTIP9rtnl_link",
   "size" : 8,
   "source_file" : "/external/libnl/include/netlink-private/types.h"
  },
  {
   "alignment" : 8,
   "linker_set_key" : "_ZTIPFPciS_mE",
   "name" : "char *(*)(int, char *, unsigned long)",
   "referenced_type" : "_ZTIFPciS_mE",
   "self_type" : "_ZTIPFPciS_mE",
   "size" : 8,
   "source_file" : "/external/libnl/include/netlink-private/object-api.h"
  },
  {
   "alignment" : 8,
   "linker_set_key" : "_ZTIPFiP11sockaddr_nlP8nlmsgerrPvE",
   "name" : "int (*)(sockaddr_nl *, nlmsgerr *, void *)",
   "referenced_type" : "_ZTIFiP11sockaddr_nlP8nlmsgerrPvE",
   "self_type" : "_ZTIPFiP11sockaddr_nlP8nlmsgerrPvE",
   "size" : 8,
   "source_file" : "/external/libnl/include/netlink-private/types.h"
  },
  {
   "alignment" : 8,
   "linker_set_key" : "_ZTIPFiP12nl_cache_opsP11sockaddr_nlP8nlmsghdrP15nl_parser_paramE",
   "name" : "int (*)(nl_cache_ops *, sockaddr_nl *, nlmsghdr *, nl_parser_param *)",
   "referenced_type" : "_ZTIFiP12nl_cache_opsP11sockaddr_nlP8nlmsghdrP15nl_parser_paramE",
   "self_type" : "_ZTIPFiP12nl_cache_opsP11sockaddr_nlP8nlmsghdrP15nl_parser_paramE",
   "size" : 8,
   "source_file" : "/external/libnl/include/netlink-private/cache-api.h"
  },
  {
   "alignment" : 8,
   "linker_set_key" : "_ZTIPFiP12nl_cache_opsP8genl_cmdP9genl_infoPvE",
   "name" : "int (*)(nl_cache_ops *, genl_cmd *, genl_info *, void *)",
   "referenced_type" : "_ZTIFiP12nl_cache_opsP8genl_cmdP9genl_infoPvE",
   "self_type" : "_ZTIPFiP12nl_cache_opsP8genl_cmdP9genl_infoPvE",
   "size" : 8,
   "source_file" : "/external/libnl/include/netlink/genl/mngt.h"
  },
  {
   "alignment" : 8,
   "linker_set_key" : "_ZTIPFiP6nl_msgPvE",
   "name" : "int (*)(nl_msg *, void *)",
   "referenced_type" : "_ZTIFiP6nl_msgPvE",
   "self_type" : "_ZTIPFiP6nl_msgPvE",
   "size" : 8,
   "source_file" : "/external/libnl/include/netlink-private/types.h"
  },
  {
   "alignment" : 8,
   "linker_set_key" : "_ZTIPFiP7nl_sockP11sockaddr_nlPPhPP5ucredE",
   "name" : "int (*)(nl_sock *, sockaddr_nl *, unsigned char **, ucred **)",
   "referenced_type" : "_ZTIFiP7nl_sockP11sockaddr_nlPPhPP5ucredE",
   "self_type" : "_ZTIPFiP7nl_sockP11sockaddr_nlPPhPP5ucredE",
   "size" : 8,
   "source_file" : "/external/libnl/include/netlink-private/types.h"
  },
  {
   "alignment" : 8,
   "linker_set_key" : "_ZTIPFiP7nl_sockP5nl_cbE",
   "name" : "int (*)(nl_sock *, nl_cb *)",
   "referenced_type" : "_ZTIFiP7nl_sockP5nl_cbE",
   "self_type" : "_ZTIPFiP7nl_sockP5nl_cbE",
   "size" : 8,
   "source_file" : "/external/libnl/include/netlink-private/types.h"
  },
  {
   "alignment" : 8,
   "linker_set_key" : "_ZTIPFiP7nl_sockP6nl_msgE",
   "name" : "int (*)(nl_sock *, nl_msg *)",
   "referenced_type" : "_ZTIFiP7nl_sockP6nl_msgE",
   "self_type" : "_ZTIPFiP7nl_sockP6nl_msgE",
   "size" : 8,
   "source_file" : "/external/libnl/include/netlink-private/types.h"
  },
  {
   "alignment" : 8,
   "linker_set_key" : "_ZTIPFiP7rtnl_tcPvE",
   "name" : "int (*)(rtnl_tc *, void *)",
   "referenced_type" : "_ZTIFiP7rtnl_tcPvE",
   "self_type" : "_ZTIPFiP7rtnl_tcPvE",
   "size" : 8,
   "source_file" : "/external/libnl/include/netlink-private/route/tc-api.h"
  },
  {
   "alignment" : 8,
   "linker_set_key" : "_ZTIPFiP7rtnl_tcPvP6nl_msgE",
   "name" : "int (*)(rtnl_tc *, void *, nl_msg *)",
   "referenced_type" : "_ZTIFiP7rtnl_tcPvP6nl_msgE",
   "self_type" : "_ZTIPFiP7rtnl_tcPvP6nl_msgE",
   "size" : 8,
   "source_file" : "/external/libnl/include/netlink-private/route/tc-api.h"
  },
  {
   "alignment" : 8,
   "linker_set_key" : "_ZTIPFiP8nl_cacheP7nl_sockE",
   "name" : "int (*)(nl_cache *, nl_sock *)",
   "referenced_type" : "_ZTIFiP8nl_cacheP7nl_sockE",
   "self_type" : "_ZTIPFiP8nl_cacheP7nl_sockE",
   "size" : 8,
   "source_file" : "/external/libnl/include/netlink-private/cache-api.h"
  },
  {
   "alignment" : 8,
   "linker_set_key" : "_ZTIPFiP8nl_cacheP9nl_objectE",
   "name" : "int (*)(nl_cache *, nl_object *)",
   "referenced_type" : "_ZTIFiP8nl_cacheP9nl_objectE",
   "self_type" : "_ZTIPFiP8nl_cacheP9nl_objectE",
   "size" : 8,
   "source_file" : "/external/libnl/include/netlink-private/cache-api.h"
  },
  {
   "alignment" : 8,
   "linker_set_key" : "_ZTIPFiP8nl_cacheP9nl_objectPFvS0_S2_iPvES3_E",
   "name" : "int (*)(nl_cache *, nl_object *, void (*)(nl_cache *, nl_object *, int, void *), void *)",
   "referenced_type" : "_ZTIFiP8nl_cacheP9nl_objectPFvS0_S2_iPvES3_E",
   "self_type" : "_ZTIPFiP8nl_cacheP9nl_objectPFvS0_S2_iPvES3_E",
   "size" : 8,
   "source_file" : "/external/libnl/include/netlink-private/cache-api.h"
  },
  {
   "alignment" : 8,
   "linker_set_key" : "_ZTIPFiP9nl_objectP15nl_parser_paramE",
   "name" : "int (*)(nl_object *, nl_parser_param *)",
   "referenced_type" : "_ZTIFiP9nl_objectP15nl_parser_paramE",
   "self_type" : "_ZTIPFiP9nl_objectP15nl_parser_paramE",
   "size" : 8,
   "source_file" : "/external/libnl/include/netlink-private/cache-api.h"
  },
  {
   "alignment" : 8,
   "linker_set_key" : "_ZTIPFiP9nl_objectS0_E",
   "name" : "int (*)(nl_object *, nl_object *)",
   "referenced_type" : "_ZTIFiP9nl_objectS0_E",
   "self_type" : "_ZTIPFiP9nl_objectS0_E",
   "size" : 8,
   "source_file" : "/external/libnl/include/netlink-private/object-api.h"
  },
  {
   "alignment" : 8,
   "linker_set_key" : "_ZTIPFiP9nl_objectS0_jiE",
   "name" : "int (*)(nl_object *, nl_object *, unsigned int, int)",
   "referenced_type" : "_ZTIFiP9nl_objectS0_jiE",
   "self_type" : "_ZTIPFiP9nl_objectS0_jiE",
   "size" : 8,
   "source_file" : "/external/libnl/include/netlink-private/object-api.h"
  },
  {
   "alignment" : 8,
   "linker_set_key" : "_ZTIPFiPvS_E",
   "name" : "int (*)(void *, void *)",
   "referenced_type" : "_ZTIFiPvS_E",
   "self_type" : "_ZTIPFiPvS_E",
   "size" : 8,
   "source_file" : "/external/libnl/include/netlink-private/route/tc-api.h"
  },
  {
   "alignment" : 8,
   "linker_set_key" : "_ZTIPFilPKcE",
   "name" : "int (*)(long, const char *)",
   "referenced_type" : "_ZTIFilPKcE",
   "self_type" : "_ZTIPFilPKcE",
   "size" : 8,
   "source_file" : "/external/libnl/include/netlink-private/netlink.h"
  },
  {
   "alignment" : 8,
   "linker_set_key" : "_ZTIPFjP9nl_objectE",
   "name" : "unsigned int (*)(nl_object *)",
   "referenced_type" : "_ZTIFjP9nl_objectE",
   "self_type" : "_ZTIPFjP9nl_objectE",
   "size" : 8,
   "source_file" : "/external/libnl/include/netlink-private/object-api.h"
  },
  {
   "alignment" : 8,
   "linker_set_key" : "_ZTIPFvP12nl_cache_opsPvE",
   "name" : "void (*)(nl_cache_ops *, void *)",
   "referenced_type" : "_ZTIFvP12nl_cache_opsPvE",
   "self_type" : "_ZTIPFvP12nl_cache_opsPvE",
   "size" : 8,
   "source_file" : "/external/libnl/include/netlink/cache.h"
  },
  {
   "alignment" : 8,
   "linker_set_key" : "_ZTIPFvP14nl_dump_paramsPcE",
   "name" : "void (*)(nl_dump_params *, char *)",
   "referenced_type" : "_ZTIFvP14nl_dump_paramsPcE",
   "self_type" : "_ZTIPFvP14nl_dump_paramsPcE",
   "size" : 8,
   "source_file" : "/external/libnl/include/netlink/types.h"
  },
  {
   "alignment" : 8,
   "linker_set_key" : "_ZTIPFvP14nl_dump_paramsiE",
   "name" : "void (*)(nl_dump_params *, int)",
   "referenced_type" : "_ZTIFvP14nl_dump_paramsiE",
   "self_type" : "_ZTIPFvP14nl_dump_paramsiE",
   "size" : 8,
   "source_file" : "/external/libnl/include/netlink/types.h"
  },
  {
   "alignment" : 8,
   "linker_set_key" : "_ZTIPFvP7rtnl_tcP14nl_dump_paramsE",
   "name" : "void (*)(rtnl_tc *, nl_dump_params *)",
   "referenced_type" : "_ZTIFvP7rtnl_tcP14nl_dump_paramsE",
   "self_type" : "_ZTIPFvP7rtnl_tcP14nl_dump_paramsE",
   "size" : 8,
   "source_file" : "/external/libnl/include/netlink-private/route/tc-api.h"
  },
  {
   "alignment" : 8,
   "linker_set_key" : "_ZTIPFvP7rtnl_tcPvE",
   "name" : "void (*)(rtnl_tc *, void *)",
   "referenced_type" : "_ZTIFvP7rtnl_tcPvE",
   "self_type" : "_ZTIPFvP7rtnl_tcPvE",
   "size" : 8,
   "source_file" : "/external/libnl/include/netlink-private/route/tc-api.h"
  },
  {
   "alignment" : 8,
   "linker_set_key" : "_ZTIPFvP7rtnl_tcPvP14nl_dump_paramsE",
   "name" : "void (*)(rtnl_tc *, void *, nl_dump_params *)",
   "referenced_type" : "_ZTIFvP7rtnl_tcPvP14nl_dump_paramsE",
   "self_type" : "_ZTIPFvP7rtnl_tcPvP14nl_dump_paramsE",
   "size" : 8,
   "source_file" : "/external/libnl/include/netlink-private/route/tc-api.h"
  },
  {
   "alignment" : 8,
   "linker_set_key" : "_ZTIPFvP8nl_cacheP9nl_objectiPvE",
   "name" : "void (*)(nl_cache *, nl_object *, int, void *)",
   "referenced_type" : "_ZTIFvP8nl_cacheP9nl_objectiPvE",
   "self_type" : "_ZTIPFvP8nl_cacheP9nl_objectiPvE",
   "size" : 8,
   "source_file" : "/external/libnl/include/netlink/cache.h"
  },
  {
   "alignment" : 8,
   "linker_set_key" : "_ZTIPFvP9nl_objectE",
   "name" : "void (*)(nl_object *)",
   "referenced_type" : "_ZTIFvP9nl_objectE",
   "self_type" : "_ZTIPFvP9nl_objectE",
   "size" : 8,
   "source_file" : "/external/libnl/include/netlink-private/object-api.h"
  },
  {
   "alignment" : 8,
   "linker_set_key" : "_ZTIPFvP9nl_objectP14nl_dump_paramsE",
   "name" : "void (*)(nl_object *, nl_dump_params *)",
   "referenced_type" : "_ZTIFvP9nl_objectP14nl_dump_paramsE",
   "self_type" : "_ZTIPFvP9nl_objectP14nl_dump_paramsE",
   "size" : 8,
   "source_file" : "/external/libnl/include/netlink-private/object-api.h"
  },
  {
   "alignment" : 8,
   "linker_set_key" : "_ZTIPFvP9nl_objectPjjE",
   "name" : "void (*)(nl_object *, unsigned int *, unsigned int)",
   "referenced_type" : "_ZTIFvP9nl_objectPjjE",
   "self_type" : "_ZTIPFvP9nl_objectPjjE",
   "size" : 8,
   "source_file" : "/external/libnl/include/netlink-private/object-api.h"
  },
  {
   "alignment" : 8,
   "linker_set_key" : "_ZTIPFvP9nl_objectPvE",
   "name" : "void (*)(nl_object *, void *)",
   "referenced_type" : "_ZTIFvP9nl_objectPvE",
   "self_type" : "_ZTIPFvP9nl_objectPvE",
   "size" : 8,
   "source_file" : "/external/libnl/include/netlink/cache.h"
  },
  {
   "alignment" : 8,
   "linker_set_key" : "_ZTIPFvvE",
   "name" : "void (*)(void)",
   "referenced_type" : "_ZTIFvvE",
   "self_type" : "_ZTIPFvvE",
   "size" : 8,
   "source_file" : "/external/libnl/include/netlink-private/cache-api.h"
  },
  {
   "alignment" : 8,
   "linker_set_key" : "_ZTIPK10genlmsghdr",
   "name" : "const genlmsghdr *",
   "referenced_type" : "_ZTIK10genlmsghdr",
   "self_type" : "_ZTIPK10genlmsghdr",
   "size" : 8,
   "source_file" : "/external/libnl/include/netlink/genl/genl.h"
  },
  {
   "alignment" : 8,
   "linker_set_key" : "_ZTIPK6nlattr",
   "name" : "const nlattr *",
   "referenced_type" : "_ZTIK6nlattr",
   "self_type" : "_ZTIPK6nlattr",
   "size" : 8,
   "source_file" : "/external/libnl/include/netlink/attr.h"
  },
  {
   "alignment" : 8,
   "linker_set_key" : "_ZTIPK7nl_sock",
   "name" : "const nl_sock *",
   "referenced_type" : "_ZTIK7nl_sock",
   "self_type" : "_ZTIPK7nl_sock",
   "size" : 8,
   "source_file" : "/external/libnl/include/netlink/socket.h"
  },
  {
   "alignment" : 8,
   "linker_set_key" : "_ZTIPK8nlmsghdr",
   "name" : "const nlmsghdr *",
   "referenced_type" : "_ZTIK8nlmsghdr",
   "self_type" : "_ZTIPK8nlmsghdr",
   "size" : 8,
   "source_file" : "/external/libnl/include/netlink/msg.h"
  },
  {
   "alignment" : 8,
   "linker_set_key" : "_ZTIPK9nl_object",
   "name" : "const nl_object *",
   "referenced_type" : "_ZTIK9nl_object",
   "self_type" : "_ZTIPK9nl_object",
   "size" : 8,
   "source_file" : "/external/libnl/include/netlink/object.h"
  },
  {
   "alignment" : 8,
   "linker_set_key" : "_ZTIPK9trans_tbl",
   "name" : "const trans_tbl *",
   "referenced_type" : "_ZTIK9trans_tbl",
   "self_type" : "_ZTIPK9trans_tbl",
   "size" : 8,
   "source_file" : "/external/libnl/include/netlink-private/netlink.h"
  },
  {
   "alignment" : 8,
   "linker_set_key" : "_ZTIPKc",
   "name" : "const char *",
   "referenced_type" : "_ZTIKc",
   "self_type" : "_ZTIPKc",
   "size" : 8,
   "source_file" : "/external/libnl/include/netlink/cache.h"
  },
  {
   "alignment" : 8,
   "linker_set_key" : "_ZTIPKj",
   "name" : "const unsigned int *",
   "referenced_type" : "_ZTIKj",
   "self_type" : "_ZTIPKj",
   "size" : 8,
   "source_file" : "/external/libnl/include/netlink-private/socket.h"
  },
  {
   "alignment" : 8,
   "linker_set_key" : "_ZTIPKv",
   "name" : "const void *",
   "referenced_type" : "_ZTIKv",
   "self_type" : "_ZTIPKv",
   "size" : 8,
   "source_file" : "/external/libnl/include/netlink/hash.h"
  },
  {
   "alignment" : 8,
   "linker_set_key" : "_ZTIPP12nl_hash_node",
   "name" : "nl_hash_node **",
   "referenced_type" : "_ZTIP12nl_hash_node",
   "self_type" : "_ZTIPP12nl_hash_node",
   "size" : 8,
   "source_file" : "/external/libnl/include/netlink/hashtable.h"
  },
  {
   "alignment" : 8,
   "linker_set_key" : "_ZTIPP13nl_cache_mngr",
   "name" : "nl_cache_mngr **",
   "referenced_type" : "_ZTIP13nl_cache_mngr",
   "self_type" : "_ZTIPP13nl_cache_mngr",
   "size" : 8,
   "source_file" : "/external/libnl/include/netlink/cache.h"
  },
  {
   "alignment" : 8,
   "linker_set_key" : "_ZTIPP5ucred",
   "name" : "ucred **",
   "referenced_type" : "_ZTIP5ucred",
   "self_type" : "_ZTIPP5ucred",
   "size" : 8,
   "source_file" : "/external/libnl/include/netlink-private/types.h"
  },
  {
   "alignment" : 8,
   "linker_set_key" : "_ZTIPP6nl_msg",
   "name" : "nl_msg **",
   "referenced_type" : "_ZTIP6nl_msg",
   "self_type" : "_ZTIPP6nl_msg",
   "size" : 8,
   "source_file" : "/external/libnl/include/netlink/fib_lookup/lookup.h"
  },
  {
   "alignment" : 8,
   "linker_set_key" : "_ZTIPP6nlattr",
   "name" : "nlattr **",
   "referenced_type" : "_ZTIP6nlattr",
   "self_type" : "_ZTIPP6nlattr",
   "size" : 8,
   "source_file" : "/external/libnl/include/netlink/genl/mngt.h"
  },
  {
   "alignment" : 8,
   "linker_set_key" : "_ZTIPP7nl_addr",
   "name" : "nl_addr **",
   "referenced_type" : "_ZTIP7nl_addr",
   "self_type" : "_ZTIPP7nl_addr",
   "size" : 8,
   "source_file" : "/external/libnl/include/netlink/addr.h"
  },
  {
   "alignment" : 8,
   "linker_set_key" : "_ZTIPP8addrinfo",
   "name" : "addrinfo **",
   "referenced_type" : "_ZTIP8addrinfo",
   "self_type" : "_ZTIPP8addrinfo",
   "size" : 8,
   "source_file" : "/external/libnl/include/netlink/addr.h"
  },
  {
   "alignment" : 8,
   "linker_set_key" : "_ZTIPP8nl_cache",
   "name" : "nl_cache **",
   "referenced_type" : "_ZTIP8nl_cache",
   "self_type" : "_ZTIPP8nl_cache",
   "size" : 8,
   "source_file" : "/external/libnl/include/netlink/cache.h"
  },
  {
   "alignment" : 8,
   "linker_set_key" : "_ZTIPP9nl_object",
   "name" : "nl_object **",
   "referenced_type" : "_ZTIP9nl_object",
   "self_type" : "_ZTIPP9nl_object",
   "size" : 8,
   "source_file" : "/external/libnl/include/netlink/netlink.h"
  },
  {
   "alignment" : 8,
   "linker_set_key" : "_ZTIPPc",
   "name" : "char **",
   "referenced_type" : "_ZTIPc",
   "self_type" : "_ZTIPPc",
   "size" : 8,
   "source_file" : "/external/libnl/include/netlink/utils.h"
  },
  {
   "alignment" : 8,
   "linker_set_key" : "_ZTIPPh",
   "name" : "unsigned char **",
   "referenced_type" : "_ZTIPh",
   "self_type" : "_ZTIPPh",
   "size" : 8,
   "source_file" : "/external/libnl/include/netlink-private/types.h"
  },
  {
   "alignment" : 8,
   "linker_set_key" : "_ZTIPc",
   "name" : "char *",
   "referenced_type" : "_ZTIc",
   "self_type" : "_ZTIPc",
   "size" : 8,
   "source_file" : "/external/libnl/include/netlink/types.h"
  },
  {
   "alignment" : 8,
   "linker_set_key" : "_ZTIPh",
   "name" : "unsigned char *",
   "referenced_type" : "_ZTIh",
   "self_type" : "_ZTIPh",
   "size" : 8,
   "source_file" : "/external/libnl/include/netlink-private/types.h"
  },
  {
   "alignment" : 8,
   "linker_set_key" : "_ZTIPi",
   "name" : "int *",
   "referenced_type" : "_ZTIi",
   "self_type" : "_ZTIPi",
   "size" : 8,
   "source_file" : "/external/libnl/include/netlink/msg.h"
  },
  {
   "alignment" : 8,
   "linker_set_key" : "_ZTIPj",
   "name" : "unsigned int *",
   "referenced_type" : "_ZTIj",
   "self_type" : "_ZTIPj",
   "size" : 8,
   "source_file" : "/external/libnl/include/netlink-private/object-api.h"
  },
  {
   "alignment" : 8,
   "linker_set_key" : "_ZTIPm",
   "name" : "unsigned long *",
   "referenced_type" : "_ZTIm",
   "self_type" : "_ZTIPm",
   "size" : 8,
   "source_file" : "/external/libnl/include/netlink/utils.h"
  },
  {
   "alignment" : 8,
   "linker_set_key" : "_ZTIPs",
   "name" : "short *",
   "referenced_type" : "_ZTIs",
   "self_type" : "_ZTIPs",
   "size" : 8,
   "source_file" : "/external/libnl/include/netlink-private/types.h"
  },
  {
   "alignment" : 8,
   "linker_set_key" : "_ZTIPv",
   "name" : "void *",
   "referenced_type" : "_ZTIv",
   "self_type" : "_ZTIPv",
   "size" : 8,
   "source_file" : "/external/libnl/include/netlink/types.h"
  }
 ],
 "qualified_types" :
 [
  {
   "alignment" : 2,
   "is_const" : true,
   "linker_set_key" : "_ZTIK10genlmsghdr",
   "name" : "const genlmsghdr",
   "referenced_type" : "_ZTI10genlmsghdr",
   "self_type" : "_ZTIK10genlmsghdr",
   "size" : 4,
   "source_file" : "/external/libnl/include/netlink/genl/genl.h"
  },
  {
   "alignment" : 2,
   "is_const" : true,
   "linker_set_key" : "_ZTIK6nlattr",
   "name" : "const nlattr",
   "referenced_type" : "_ZTI6nlattr",
   "self_type" : "_ZTIK6nlattr",
   "size" : 4,
   "source_file" : "/external/libnl/include/netlink/attr.h"
  },
  {
   "alignment" : 8,
   "is_const" : true,
   "linker_set_key" : "_ZTIK7nl_sock",
   "name" : "const nl_sock",
   "referenced_type" : "_ZTI7nl_sock",
   "self_type" : "_ZTIK7nl_sock",
   "size" : 64,
   "source_file" : "/external/libnl/include/netlink/socket.h"
  },
  {
   "alignment" : 4,
   "is_const" : true,
   "linker_set_key" : "_ZTIK8nlmsghdr",
   "name" : "const nlmsghdr",
   "referenced_type" : "_ZTI8nlmsghdr",
   "self_type" : "_ZTIK8nlmsghdr",
   "size" : 16,
   "source_file" : "/external/libnl/include/netlink/msg.h"
  },
  {
   "alignment" : 8,
   "is_const" : true,
   "linker_set_key" : "_ZTIK9nl_object",
   "name" : "const nl_object",
   "referenced_type" : "_ZTI9nl_object",
   "self_type" : "_ZTIK9nl_object",
   "size" : 56,
   "source_file" : "/external/libnl/include/netlink/object.h"
  },
  {
   "alignment" : 8,
   "is_const" : true,
   "linker_set_key" : "_ZTIK9trans_tbl",
   "name" : "const trans_tbl",
   "referenced_type" : "_ZTI9trans_tbl",
   "self_type" : "_ZTIK9trans_tbl",
   "size" : 16,
   "source_file" : "/external/libnl/include/netlink-private/netlink.h"
  },
  {
   "alignment" : 1,
   "is_const" : true,
   "linker_set_key" : "_ZTIKc",
   "name" : "const char",
   "referenced_type" : "_ZTIc",
   "self_type" : "_ZTIKc",
   "size" : 1,
   "source_file" : "/external/libnl/include/netlink/cache.h"
  },
  {
   "alignment" : 4,
   "is_const" : true,
   "linker_set_key" : "_ZTIKi",
   "name" : "const int",
   "referenced_type" : "_ZTIi",
   "self_type" : "_ZTIKi",
   "size" : 4,
   "source_file" : "/external/libnl/include/netlink/version.h"
  },
  {
   "alignment" : 4,
   "is_const" : true,
   "linker_set_key" : "_ZTIKj",
   "name" : "const unsigned int",
   "referenced_type" : "_ZTIj",
   "self_type" : "_ZTIKj",
   "size" : 4,
   "source_file" : "/external/libnl/include/netlink-private/socket.h"
  },
  {
   "alignment" : 8,
   "is_const" : true,
   "linker_set_key" : "_ZTIKm",
   "name" : "const unsigned long",
   "referenced_type" : "_ZTIm",
   "self_type" : "_ZTIKm",
   "size" : 8,
   "source_file" : "/external/libnl/include/netlink/utils.h"
  },
  {
   "is_const" : true,
   "linker_set_key" : "_ZTIKv",
   "name" : "const void",
   "referenced_type" : "_ZTIv",
   "self_type" : "_ZTIKv",
   "source_file" : "/external/libnl/include/netlink/hash.h"
  }
 ],
 "record_types" :
 [
  {
   "alignment" : 4,
   "fields" :
   [
    {
     "field_name" : "arp_pa",
     "referenced_type" : "_ZTI8sockaddr"
    },
    {
     "field_name" : "arp_ha",
     "field_offset" : 128,
     "referenced_type" : "_ZTI8sockaddr"
    },
    {
     "field_name" : "arp_flags",
     "field_offset" : 256,
     "referenced_type" : "_ZTIi"
    },
    {
     "field_name" : "arp_netmask",
     "field_offset" : 288,
     "referenced_type" : "_ZTI8sockaddr"
    }
   ],
   "linker_set_key" : "_ZTI10arpreq_old",
   "name" : "arpreq_old",
   "referenced_type" : "_ZTI10arpreq_old",
   "self_type" : "_ZTI10arpreq_old",
   "size" : 52,
   "source_file" : "/external/libnl/include/linux-private/linux/if_arp.h"
  },
  {
   "alignment" : 2,
   "fields" :
   [
    {
     "field_name" : "cmd",
     "referenced_type" : "_ZTIh"
    },
    {
     "field_name" : "version",
     "field_offset" : 8,
     "referenced_type" : "_ZTIh"
    },
    {
     "field_name" : "reserved",
     "field_offset" : 16,
     "referenced_type" : "_ZTIt"
    }
   ],
   "linker_set_key" : "_ZTI10genlmsghdr",
   "name" : "genlmsghdr",
   "referenced_type" : "_ZTI10genlmsghdr",
   "self_type" : "_ZTI10genlmsghdr",
   "size" : 4,
   "source_file" : "/external/libnl/include/linux-private/linux/genetlink.h"
  },
  {
   "alignment" : 4,
   "fields" :
   [
    {
     "field_name" : "spi",
     "referenced_type" : "_ZTIj"
    },
    {
     "field_name" : "seq_no",
     "field_offset" : 32,
     "referenced_type" : "_ZTIj"
    },
    {
     "field_name" : "enc_data",
     "field_offset" : 64,
     "referenced_type" : "_ZTIA0_h"
    }
   ],
   "linker_set_key" : "_ZTI10ip_esp_hdr",
   "name" : "ip_esp_hdr",
   "referenced_type" : "_ZTI10ip_esp_hdr",
   "self_type" : "_ZTI10ip_esp_hdr",
   "size" : 8,
   "source_file" : "/external/libnl/include/linux-private/linux/ip.h"
  },
  {
   "alignment" : 4,
   "fields" :
   [
    {
     "field_name" : "ndtc_key_len",
     "referenced_type" : "_ZTIt"
    },
    {
     "field_name" : "ndtc_entry_size",
     "field_offset" : 16,
     "referenced_type" : "_ZTIt"
    },
    {
     "field_name" : "ndtc_entries",
     "field_offset" : 32,
     "referenced_type" : "_ZTIj"
    },
    {
     "field_name" : "ndtc_last_flush",
     "field_offset" : 64,
     "referenced_type" : "_ZTIj"
    },
    {
     "field_name" : "ndtc_last_rand",
     "field_offset" : 96,
     "referenced_type" : "_ZTIj"
    },
    {
     "field_name" : "ndtc_hash_rnd",
     "field_offset" : 128,
     "referenced_type" : "_ZTIj"
    },
    {
     "field_name" : "ndtc_hash_mask",
     "field_offset" : 160,
     "referenced_type" : "_ZTIj"
    },
    {
     "field_name" : "ndtc_hash_chain_gc",
     "field_offset" : 192,
     "referenced_type" : "_ZTIj"
    },
    {
     "field_name" : "ndtc_proxy_qlen",
     "field_offset" : 224,
     "referenced_type" : "_ZTIj"
    }
   ],
   "linker_set_key" : "_ZTI10ndt_config",
   "name" : "ndt_config",
   "referenced_type" : "_ZTI10ndt_config",
   "self_type" : "_ZTI10ndt_config",
   "size" : 32,
   "source_file" : "/external/libnl/include/linux-private/linux/neighbour.h"
  },
  {
   "alignment" : 8,
   "fields" :
   [
    {
     "field_name" : "ce_refcnt",
     "referenced_type" : "_ZTIi"
    },
    {
     "field_name" : "ce_ops",
     "field_offset" : 64,
     "referenced_type" : "_ZTIP13nl_object_ops"
    },
    {
     "field_name" : "ce_cache",
     "field_offset" : 128,
     "referenced_type" : "_ZTIP8nl_cache"
    },
    {
     "field_name" : "ce_list",
     "field_offset" : 192,
     "referenced_type" : "_ZTI12nl_list_head"
    },
    {
     "field_name" : "ce_msgtype",
     "field_offset" : 320,
     "referenced_type" : "_ZTIi"
    },
    {
     "field_name" : "ce_flags",
     "field_offset" : 352,
     "referenced_type" : "_ZTIi"
    },
    {
     "field_name" : "ce_mask",
     "field_offset" : 384,
     "referenced_type" : "_ZTIj"
    },
    {
     "field_name" : "queue_group",
     "field_offset" : 416,
     "referenced_type" : "_ZTIt"
    },
    {
     "field_name" : "queue_maxlen",
     "field_offset" : 448,
     "referenced_type" : "_ZTIj"
    },
    {
     "field_name" : "queue_copy_range",
     "field_offset" : 480,
     "referenced_type" : "_ZTIj"
    },
    {
     "field_name" : "queue_copy_mode",
     "field_offset" : 512,
     "referenced_type" : "_ZTIh"
    }
   ],
   "linker_set_key" : "_ZTI10nfnl_queue",
   "name" : "nfnl_queue",
   "referenced_type" : "_ZTI10nfnl_queue",
   "self_type" : "_ZTI10nfnl_queue",
   "size" : 72,
   "source_file" : "/external/libnl/include/netlink-private/types.h"
  },
  {
   "alignment" : 8,
   "fields" :
   [
    {
     "field_name" : "mt_id",
     "referenced_type" : "_ZTIi"
    },
    {
     "field_name" : "mt_act",
     "field_offset" : 32,
     "referenced_type" : "_ZTIi"
    },
    {
     "field_name" : "mt_name",
     "field_offset" : 64,
     "referenced_type" : "_ZTIPc"
    }
   ],
   "linker_set_key" : "_ZTI10nl_msgtype",
   "name" : "nl_msgtype",
   "referenced_type" : "_ZTI10nl_msgtype",
   "self_type" : "_ZTI10nl_msgtype",
   "size" : 16,
   "source_file" : "/external/libnl/include/netlink-private/cache-api.h"
  },
  {
   "alignment" : 4,
   "fields" :
   [
    {
     "field_name" : "group",
     "referenced_type" : "_ZTIj"
    }
   ],
   "linker_set_key" : "_ZTI10nl_pktinfo",
   "name" : "nl_pktinfo",
   "referenced_type" : "_ZTI10nl_pktinfo",
   "self_type" : "_ZTI10nl_pktinfo",
   "size" : 4,
   "source_file" : "/external/libnl/include/linux-private/linux/netlink.h"
  },
  {
   "alignment" : 2,
   "fields" :
   [
    {
     "field_name" : "type",
     "referenced_type" : "_ZTIt"
    },
    {
     "field_name" : "minlen",
     "field_offset" : 16,
     "referenced_type" : "_ZTIt"
    },
    {
     "field_name" : "maxlen",
     "field_offset" : 32,
     "referenced_type" : "_ZTIt"
    }
   ],
   "linker_set_key" : "_ZTI10nla_policy",
   "name" : "nla_policy",
   "referenced_type" : "_ZTI10nla_policy",
   "self_type" : "_ZTI10nla_policy",
   "size" : 6,
   "source_file" : "/external/libnl/include/netlink/attr.h"
  },
  {
   "alignment" : 8,
   "fields" :
   [
    {
     "field_name" : "ce_refcnt",
     "referenced_type" : "_ZTIi"
    },
    {
     "field_name" : "ce_ops",
     "field_offset" : 64,
     "referenced_type" : "_ZTIP13nl_object_ops"
    },
    {
     "field_name" : "ce_cache",
     "field_offset" : 128,
     "referenced_type" : "_ZTIP8nl_cache"
    },
    {
     "field_name" : "ce_list",
     "field_offset" : 192,
     "referenced_type" : "_ZTI12nl_list_head"
    },
    {
     "field_name" : "ce_msgtype",
     "field_offset" : 320,
     "referenced_type" : "_ZTIi"
    },
    {
     "field_name" : "ce_flags",
     "field_offset" : 352,
     "referenced_type" : "_ZTIi"
    },
    {
     "field_name" : "ce_mask",
     "field_offset" : 384,
     "referenced_type" : "_ZTIj"
    },
    {
     "field_name" : "c_family",
     "field_offset" : 416,
     "referenced_type" : "_ZTIj"
    },
    {
     "field_name" : "c_ifindex",
     "field_offset" : 448,
     "referenced_type" : "_ZTIj"
    },
    {
     "field_name" : "c_handle",
     "field_offset" : 480,
     "referenced_type" : "_ZTIj"
    },
    {
     "field_name" : "c_parent",
     "field_offset" : 512,
     "referenced_type" : "_ZTIj"
    },
    {
     "field_name" : "c_info",
     "field_offset" : 544,
     "referenced_type" : "_ZTIj"
    },
    {
     "field_name" : "c_mtu",
     "field_offset" : 576,
     "referenced_type" : "_ZTIj"
    },
    {
     "field_name" : "c_mpu",
     "field_offset" : 608,
     "referenced_type" : "_ZTIj"
    },
    {
     "field_name" : "c_overhead",
     "field_offset" : 640,
     "referenced_type" : "_ZTIj"
    },
    {
     "field_name" : "c_linktype",
     "field_offset" : 672,
     "referenced_type" : "_ZTIj"
    },
    {
     "field_name" : "c_kind",
     "field_offset" : 704,
     "referenced_type" : "_ZTIA32_c"
    },
    {
     "field_name" : "c_opts",
     "field_offset" : 960,
     "referenced_type" : "_ZTIP7nl_data"
    },
    {
     "field_name" : "c_stats",
     "field_offset" : 1024,
     "referenced_type" : "_ZTIA9_m"
    },
    {
     "field_name" : "c_xstats",
     "field_offset" : 1600,
     "referenced_type" : "_ZTIP7nl_data"
    },
    {
     "field_name" : "c_subdata",
     "field_offset" : 1664,
     "referenced_type" : "_ZTIP7nl_data"
    },
    {
     "field_name" : "c_link",
     "field_offset" : 1728,
     "referenced_type" : "_ZTIP9rtnl_link"
    },
    {
     "field_name" : "c_ops",
     "field_offset" : 1792,
     "referenced_type" : "_ZTIP11rtnl_tc_ops"
    },
    {
     "field_name" : "c_type",
     "field_offset" : 1856,
     "referenced_type" : "_ZTI12rtnl_tc_type"
    }
   ],
   "linker_set_key" : "_ZTI10rtnl_class",
   "name" : "rtnl_class",
   "referenced_type" : "_ZTI10rtnl_class",
   "self_type" : "_ZTI10rtnl_class",
   "size" : 240,
   "source_file" : "/external/libnl/include/netlink-private/types.h"
  },
  {
   "alignment" : 8,
   "fields" :
   [
    {
     "field_name" : "ce_refcnt",
     "referenced_type" : "_ZTIi"
    },
    {
     "field_name" : "ce_ops",
     "field_offset" : 64,
     "referenced_type" : "_ZTIP13nl_object_ops"
    },
    {
     "field_name" : "ce_cache",
     "field_offset" : 128,
     "referenced_type" : "_ZTIP8nl_cache"
    },
    {
     "field_name" : "ce_list",
     "field_offset" : 192,
     "referenced_type" : "_ZTI12nl_list_head"
    },
    {
     "field_name" : "ce_msgtype",
     "field_offset" : 320,
     "referenced_type" : "_ZTIi"
    },
    {
     "field_name" : "ce_flags",
     "field_offset" : 352,
     "referenced_type" : "_ZTIi"
    },
    {
     "field_name" : "ce_mask",
     "field_offset" : 384,
     "referenced_type" : "_ZTIj"
    },
    {
     "field_name" : "n_family",
     "field_offset" : 416,
     "referenced_type" : "_ZTIj"
    },
    {
     "field_name" : "n_ifindex",
     "field_offset" : 448,
     "referenced_type" : "_ZTIj"
    },
    {
     "field_name" : "n_state",
     "field_offset" : 480,
     "referenced_type" : "_ZTIt"
    },
    {
     "field_name" : "n_flags",
     "field_offset" : 496,
     "referenced_type" : "_ZTIh"
    },
    {
     "field_name" : "n_type",
     "field_offset" : 504,
     "referenced_type" : "_ZTIh"
    },
    {
     "field_name" : "n_lladdr",
     "field_offset" : 512,
     "referenced_type" : "_ZTIP7nl_addr"
    },
    {
     "field_name" : "n_dst",
     "field_offset" : 576,
     "referenced_type" : "_ZTIP7nl_addr"
    },
    {
     "field_name" : "n_probes",
     "field_offset" : 640,
     "referenced_type" : "_ZTIj"
    },
    {
     "field_name" : "n_cacheinfo",
     "field_offset" : 672,
     "referenced_type" : "_ZTI15rtnl_ncacheinfo"
    },
    {
     "field_name" : "n_state_mask",
     "field_offset" : 800,
     "referenced_type" : "_ZTIj"
    },
    {
     "field_name" : "n_flag_mask",
     "field_offset" : 832,
     "referenced_type" : "_ZTIj"
    },
    {
     "field_name" : "n_master",
     "field_offset" : 864,
     "referenced_type" : "_ZTIj"
    }
   ],
   "linker_set_key" : "_ZTI10rtnl_neigh",
   "name" : "rtnl_neigh",
   "referenced_type" : "_ZTI10rtnl_neigh",
   "self_type" : "_ZTI10rtnl_neigh",
   "size" : 112,
   "source_file" : "/external/libnl/include/netlink-private/types.h"
  },
  {
   "alignment" : 8,
   "fields" :
   [
    {
     "field_name" : "qnm_latency",
     "referenced_type" : "_ZTIj"
    },
    {
     "field_name" : "qnm_limit",
     "field_offset" : 32,
     "referenced_type" : "_ZTIj"
    },
    {
     "field_name" : "qnm_loss",
     "field_offset" : 64,
     "referenced_type" : "_ZTIj"
    },
    {
     "field_name" : "qnm_gap",
     "field_offset" : 96,
     "referenced_type" : "_ZTIj"
    },
    {
     "field_name" : "qnm_duplicate",
     "field_offset" : 128,
     "referenced_type" : "_ZTIj"
    },
    {
     "field_name" : "qnm_jitter",
     "field_offset" : 160,
     "referenced_type" : "_ZTIj"
    },
    {
     "field_name" : "qnm_mask",
     "field_offset" : 192,
     "referenced_type" : "_ZTIj"
    },
    {
     "field_name" : "qnm_corr",
     "field_offset" : 224,
     "referenced_type" : "_ZTI15rtnl_netem_corr"
    },
    {
     "field_name" : "qnm_ro",
     "field_offset" : 320,
     "referenced_type" : "_ZTI14rtnl_netem_reo"
    },
    {
     "field_name" : "qnm_crpt",
     "field_offset" : 384,
     "referenced_type" : "_ZTI15rtnl_netem_crpt"
    },
    {
     "field_name" : "qnm_dist",
     "field_offset" : 448,
     "referenced_type" : "_ZTI15rtnl_netem_dist"
    }
   ],
   "linker_set_key" : "_ZTI10rtnl_netem",
   "name" : "rtnl_netem",
   "referenced_type" : "_ZTI10rtnl_netem",
   "self_type" : "_ZTI10rtnl_netem",
   "size" : 72,
   "source_file" : "/external/libnl/include/netlink-private/types.h"
  },
  {
   "alignment" : 8,
   "fields" :
   [
    {
     "field_name" : "ce_refcnt",
     "referenced_type" : "_ZTIi"
    },
    {
     "field_name" : "ce_ops",
     "field_offset" : 64,
     "referenced_type" : "_ZTIP13nl_object_ops"
    },
    {
     "field_name" : "ce_cache",
     "field_offset" : 128,
     "referenced_type" : "_ZTIP8nl_cache"
    },
    {
     "field_name" : "ce_list",
     "field_offset" : 192,
     "referenced_type" : "_ZTI12nl_list_head"
    },
    {
     "field_name" : "ce_msgtype",
     "field_offset" : 320,
     "referenced_type" : "_ZTIi"
    },
    {
     "field_name" : "ce_flags",
     "field_offset" : 352,
     "referenced_type" : "_ZTIi"
    },
    {
     "field_name" : "ce_mask",
     "field_offset" : 384,
     "referenced_type" : "_ZTIj"
    },
    {
     "field_name" : "q_family",
     "field_offset" : 416,
     "referenced_type" : "_ZTIj"
    },
    {
     "field_name" : "q_ifindex",
     "field_offset" : 448,
     "referenced_type" : "_ZTIj"
    },
    {
     "field_name" : "q_handle",
     "field_offset" : 480,
     "referenced_type" : "_ZTIj"
    },
    {
     "field_name" : "q_parent",
     "field_offset" : 512,
     "referenced_type" : "_ZTIj"
    },
    {
     "field_name" : "q_info",
     "field_offset" : 544,
     "referenced_type" : "_ZTIj"
    },
    {
     "field_name" : "q_mtu",
     "field_offset" : 576,
     "referenced_type" : "_ZTIj"
    },
    {
     "field_name" : "q_mpu",
     "field_offset" : 608,
     "referenced_type" : "_ZTIj"
    },
    {
     "field_name" : "q_overhead",
     "field_offset" : 640,
     "referenced_type" : "_ZTIj"
    },
    {
     "field_name" : "q_linktype",
     "field_offset" : 672,
     "referenced_type" : "_ZTIj"
    },
    {
     "field_name" : "q_kind",
     "field_offset" : 704,
     "referenced_type" : "_ZTIA32_c"
    },
    {
     "field_name" : "q_opts",
     "field_offset" : 960,
     "referenced_type" : "_ZTIP7nl_data"
    },
    {
     "field_name" : "q_stats",
     "field_offset" : 1024,
     "referenced_type" : "_ZTIA9_m"
    },
    {
     "field_name" : "q_xstats",
     "field_offset" : 1600,
     "referenced_type" : "_ZTIP7nl_data"
    },
    {
     "field_name" : "q_subdata",
     "field_offset" : 1664,
     "referenced_type" : "_ZTIP7nl_data"
    },
    {
     "field_name" : "q_link",
     "field_offset" : 1728,
     "referenced_type" : "_ZTIP9rtnl_link"
    },
    {
     "field_name" : "q_ops",
     "field_offset" : 1792,
     "referenced_type" : "_ZTIP11rtnl_tc_ops"
    },
    {
     "field_name" : "q_type",
     "field_offset" : 1856,
     "referenced_type" : "_ZTI12rtnl_tc_type"
    }
   ],
   "linker_set_key" : "_ZTI10rtnl_qdisc",
   "name" : "rtnl_qdisc",
   "referenced_type" : "_ZTI10rtnl_qdisc",
   "self_type" : "_ZTI10rtnl_qdisc",
   "size" : 240,
   "source_file" : "/external/libnl/include/netlink-private/types.h"
  },
  {
   "alignment" : 8,
   "fields" :
   [
    {
     "field_name" : "ce_refcnt",
     "referenced_type" : "_ZTIi"
    },
    {
     "field_name" : "ce_ops",
     "field_offset" : 64,
     "referenced_type" : "_ZTIP13nl_object_ops"
    },
    {
     "field_name" : "ce_cache",
     "field_offset" : 128,
     "referenced_type" : "_ZTIP8nl_cache"
    },
    {
     "field_name" : "ce_list",
     "field_offset" : 192,
     "referenced_type" : "_ZTI12nl_list_head"
    },
    {
     "field_name" : "ce_msgtype",
     "field_offset" : 320,
     "referenced_type" : "_ZTIi"
    },
    {
     "field_name" : "ce_flags",
     "field_offset" : 352,
     "referenced_type" : "_ZTIi"
    },
    {
     "field_name" : "ce_mask",
     "field_offset" : 384,
     "referenced_type" : "_ZTIj"
    },
    {
     "field_name" : "rt_family",
     "field_offset" : 416,
     "referenced_type" : "_ZTIh"
    },
    {
     "field_name" : "rt_dst_len",
     "field_offset" : 424,
     "referenced_type" : "_ZTIh"
    },
    {
     "field_name" : "rt_src_len",
     "field_offset" : 432,
     "referenced_type" : "_ZTIh"
    },
    {
     "field_name" : "rt_tos",
     "field_offset" : 440,
     "referenced_type" : "_ZTIh"
    },
    {
     "field_name" : "rt_protocol",
     "field_offset" : 448,
     "referenced_type" : "_ZTIh"
    },
    {
     "field_name" : "rt_scope",
     "field_offset" : 456,
     "referenced_type" : "_ZTIh"
    },
    {
     "field_name" : "rt_type",
     "field_offset" : 464,
     "referenced_type" : "_ZTIh"
    },
    {
     "field_name" : "rt_nmetrics",
     "field_offset" : 472,
     "referenced_type" : "_ZTIh"
    },
    {
     "field_name" : "rt_flags",
     "field_offset" : 480,
     "referenced_type" : "_ZTIj"
    },
    {
     "field_name" : "rt_dst",
     "field_offset" : 512,
     "referenced_type" : "_ZTIP7nl_addr"
    },
    {
     "field_name" : "rt_src",
     "field_offset" : 576,
     "referenced_type" : "_ZTIP7nl_addr"
    },
    {
     "field_name" : "rt_table",
     "field_offset" : 640,
     "referenced_type" : "_ZTIj"
    },
    {
     "field_name" : "rt_iif",
     "field_offset" : 672,
     "referenced_type" : "_ZTIj"
    },
    {
     "field_name" : "rt_prio",
     "field_offset" : 704,
     "referenced_type" : "_ZTIj"
    },
    {
     "field_name" : "rt_metrics",
     "field_offset" : 736,
     "referenced_type" : "_ZTIA14_j"
    },
    {
     "field_name" : "rt_metrics_mask",
     "field_offset" : 1184,
     "referenced_type" : "_ZTIj"
    },
    {
     "field_name" : "rt_nr_nh",
     "field_offset" : 1216,
     "referenced_type" : "_ZTIj"
    },
    {
     "field_name" : "rt_pref_src",
     "field_offset" : 1280,
     "referenced_type" : "_ZTIP7nl_addr"
    },
    {
     "field_name" : "rt_nexthops",
     "field_offset" : 1344,
     "referenced_type" : "_ZTI12nl_list_head"
    },
    {
     "field_name" : "rt_cacheinfo",
     "field_offset" : 1472,
     "referenced_type" : "_ZTI16rtnl_rtcacheinfo"
    },
    {
     "field_name" : "rt_flag_mask",
     "field_offset" : 1728,
     "referenced_type" : "_ZTIj"
    }
   ],
   "linker_set_key" : "_ZTI10rtnl_route",
   "name" : "rtnl_route",
   "referenced_type" : "_ZTI10rtnl_route",
   "self_type" : "_ZTI10rtnl_route",
   "size" : 224,
   "source_file" : "/external/libnl/include/netlink-private/types.h"
  },
  {
   "alignment" : 4,
   "fields" :
   [
    {
     "field_name" : "strategy",
     "referenced_type" : "_ZTIh"
    },
    {
     "field_name" : "priority2",
     "field_offset" : 8,
     "referenced_type" : "_ZTIh"
    },
    {
     "field_name" : "pad",
     "field_offset" : 16,
     "referenced_type" : "_ZTIt"
    },
    {
     "field_name" : "penalty",
     "field_offset" : 32,
     "referenced_type" : "_ZTIj"
    }
   ],
   "linker_set_key" : "_ZTI10tc_cbq_ovl",
   "name" : "tc_cbq_ovl",
   "referenced_type" : "_ZTI10tc_cbq_ovl",
   "self_type" : "_ZTI10tc_cbq_ovl",
   "size" : 8,
   "source_file" : "/external/libnl/include/linux-private/linux/pkt_sched.h"
  },
  {
   "alignment" : 4,
   "fields" :
   [
    {
     "field_name" : "rate",
     "referenced_type" : "_ZTI11tc_ratespec"
    },
    {
     "field_name" : "ceil",
     "field_offset" : 96,
     "referenced_type" : "_ZTI11tc_ratespec"
    },
    {
     "field_name" : "buffer",
     "field_offset" : 192,
     "referenced_type" : "_ZTIj"
    },
    {
     "field_name" : "cbuffer",
     "field_offset" : 224,
     "referenced_type" : "_ZTIj"
    },
    {
     "field_name" : "quantum",
     "field_offset" : 256,
     "referenced_type" : "_ZTIj"
    },
    {
     "field_name" : "level",
     "field_offset" : 288,
     "referenced_type" : "_ZTIj"
    },
    {
     "field_name" : "prio",
     "field_offset" : 320,
     "referenced_type" : "_ZTIj"
    }
   ],
   "linker_set_key" : "_ZTI10tc_htb_opt",
   "name" : "tc_htb_opt",
   "referenced_type" : "_ZTI10tc_htb_opt",
   "self_type" : "_ZTI10tc_htb_opt",
   "size" : 44,
   "source_file" : "/external/libnl/include/linux-private/linux/pkt_sched.h"
  },
  {
   "alignment" : 4,
   "fields" :
   [
    {
     "field_name" : "mask",
     "referenced_type" : "_ZTIj"
    },
    {
     "field_name" : "val",
     "field_offset" : 32,
     "referenced_type" : "_ZTIj"
    },
    {
     "field_name" : "off",
     "field_offset" : 64,
     "referenced_type" : "_ZTIi"
    },
    {
     "field_name" : "offmask",
     "field_offset" : 96,
     "referenced_type" : "_ZTIi"
    }
   ],
   "linker_set_key" : "_ZTI10tc_u32_key",
   "name" : "tc_u32_key",
   "referenced_type" : "_ZTI10tc_u32_key",
   "self_type" : "_ZTI10tc_u32_key",
   "size" : 16,
   "source_file" : "/external/libnl/include/linux-private/linux/pkt_cls.h"
  },
  {
   "alignment" : 4,
   "fields" :
   [
    {
     "field_name" : "flags",
     "referenced_type" : "_ZTIh"
    },
    {
     "field_name" : "offshift",
     "field_offset" : 8,
     "referenced_type" : "_ZTIh"
    },
    {
     "field_name" : "nkeys",
     "field_offset" : 16,
     "referenced_type" : "_ZTIh"
    },
    {
     "field_name" : "offmask",
     "field_offset" : 32,
     "referenced_type" : "_ZTIt"
    },
    {
     "field_name" : "off",
     "field_offset" : 48,
     "referenced_type" : "_ZTIt"
    },
    {
     "field_name" : "offoff",
     "field_offset" : 64,
     "referenced_type" : "_ZTIs"
    },
    {
     "field_name" : "hoff",
     "field_offset" : 80,
     "referenced_type" : "_ZTIs"
    },
    {
     "field_name" : "hmask",
     "field_offset" : 96,
     "referenced_type" : "_ZTIj"
    },
    {
     "field_name" : "keys",
     "field_offset" : 128,
     "referenced_type" : "_ZTIA0_10tc_u32_key"
    }
   ],
   "linker_set_key" : "_ZTI10tc_u32_sel",
   "name" : "tc_u32_sel",
   "referenced_type" : "_ZTI10tc_u32_sel",
   "self_type" : "_ZTI10tc_u32_sel",
   "size" : 16,
   "source_file" : "/external/libnl/include/linux-private/linux/pkt_cls.h"
  },
  {
   "alignment" : 8,
   "fields" :
   [
    {
     "field_name" : "i",
     "referenced_type" : "_ZTIi"
    },
    {
     "field_name" : "a",
     "field_offset" : 64,
     "referenced_type" : "_ZTIPc"
    },
    {
     "field_name" : "list",
     "field_offset" : 128,
     "referenced_type" : "_ZTI12nl_list_head"
    }
   ],
   "linker_set_key" : "_ZTI10trans_list",
   "name" : "trans_list",
   "referenced_type" : "_ZTI10trans_list",
   "self_type" : "_ZTI10trans_list",
   "size" : 32,
   "source_file" : "/external/libnl/include/netlink-private/netlink.h"
  },
  {
   "alignment" : 8,
   "fields" :
   [
    {
     "field_name" : "ce_refcnt",
     "referenced_type" : "_ZTIi"
    },
    {
     "field_name" : "ce_ops",
     "field_offset" : 64,
     "referenced_type" : "_ZTIP13nl_object_ops"
    },
    {
     "field_name" : "ce_cache",
     "field_offset" : 128,
     "referenced_type" : "_ZTIP8nl_cache"
    },
    {
     "field_name" : "ce_list",
     "field_offset" : 192,
     "referenced_type" : "_ZTI12nl_list_head"
    },
    {
     "field_name" : "ce_msgtype",
     "field_offset" : 320,
     "referenced_type" : "_ZTIi"
    },
    {
     "field_name" : "ce_flags",
     "field_offset" : 352,
     "referenced_type" : "_ZTIi"
    },
    {
     "field_name" : "ce_mask",
     "field_offset" : 384,
     "referenced_type" : "_ZTIj"
    },
    {
     "field_name" : "fr_req",
     "field_offset" : 448,
     "referenced_type" : "_ZTIP12flnl_request"
    },
    {
     "field_name" : "fr_table_id",
     "field_offset" : 512,
     "referenced_type" : "_ZTIh"
    },
    {
     "field_name" : "fr_prefixlen",
     "field_offset" : 520,
     "referenced_type" : "_ZTIh"
    },
    {
     "field_name" : "fr_nh_sel",
     "field_offset" : 528,
     "referenced_type" : "_ZTIh"
    },
    {
     "field_name" : "fr_type",
     "field_offset" : 536,
     "referenced_type" : "_ZTIh"
    },
    {
     "field_name" : "fr_scope",
     "field_offset" : 544,
     "referenced_type" : "_ZTIh"
    },
    {
     "field_name" : "fr_error",
     "field_offset" : 576,
     "referenced_type" : "_ZTIj"
    }
   ],
   "linker_set_key" : "_ZTI11flnl_result",
   "name" : "flnl_result",
   "referenced_type" : "_ZTI11flnl_result",
   "self_type" : "_ZTI11flnl_result",
   "size" : 80,
   "source_file" : "/external/libnl/include/netlink-private/types.h"
  },
  {
   "alignment" : 8,
   "fields" :
   [
    {
     "field_name" : "ce_refcnt",
     "referenced_type" : "_ZTIi"
    },
    {
     "field_name" : "ce_ops",
     "field_offset" : 64,
     "referenced_type" : "_ZTIP13nl_object_ops"
    },
    {
     "field_name" : "ce_cache",
     "field_offset" : 128,
     "referenced_type" : "_ZTIP8nl_cache"
    },
    {
     "field_name" : "ce_list",
     "field_offset" : 192,
     "referenced_type" : "_ZTI12nl_list_head"
    },
    {
     "field_name" : "ce_msgtype",
     "field_offset" : 320,
     "referenced_type" : "_ZTIi"
    },
    {
     "field_name" : "ce_flags",
     "field_offset" : 352,
     "referenced_type" : "_ZTIi"
    },
    {
     "field_name" : "ce_mask",
     "field_offset" : 384,
     "referenced_type" : "_ZTIj"
    },
    {
     "field_name" : "gf_id",
     "field_offset" : 416,
     "referenced_type" : "_ZTIt"
    },
    {
     "field_name" : "gf_name",
     "field_offset" : 432,
     "referenced_type" : "_ZTIA16_c"
    },
    {
     "field_name" : "gf_version",
     "field_offset" : 576,
     "referenced_type" : "_ZTIj"
    },
    {
     "field_name" : "gf_hdrsize",
     "field_offset" : 608,
     "referenced_type" : "_ZTIj"
    },
    {
     "field_name" : "gf_maxattr",
     "field_offset" : 640,
     "referenced_type" : "_ZTIj"
    },
    {
     "field_name" : "gf_ops",
     "field_offset" : 704,
     "referenced_type" : "_ZTI12nl_list_head"
    },
    {
     "field_name" : "gf_mc_grps",
     "field_offset" : 832,
     "referenced_type" : "_ZTI12nl_list_head"
    }
   ],
   "linker_set_key" : "_ZTI11genl_family",
   "name" : "genl_family",
   "referenced_type" : "_ZTI11genl_family",
   "self_type" : "_ZTI11genl_family",
   "size" : 120,
   "source_file" : "/external/libnl/include/netlink-private/types.h"
  },
  {
   "alignment" : 8,
   "fields" :
   [
    {
     "field_name" : "ce_refcnt",
     "referenced_type" : "_ZTIi"
    },
    {
     "field_name" : "ce_ops",
     "field_offset" : 64,
     "referenced_type" : "_ZTIP13nl_object_ops"
    },
    {
     "field_name" : "ce_cache",
     "field_offset" : 128,
     "referenced_type" : "_ZTIP8nl_cache"
    },
    {
     "field_name" : "ce_list",
     "field_offset" : 192,
     "referenced_type" : "_ZTI12nl_list_head"
    },
    {
     "field_name" : "ce_msgtype",
     "field_offset" : 320,
     "referenced_type" : "_ZTIi"
    },
    {
     "field_name" : "ce_flags",
     "field_offset" : 352,
     "referenced_type" : "_ZTIi"
    },
    {
     "field_name" : "ce_mask",
     "field_offset" : 384,
     "referenced_type" : "_ZTIj"
    },
    {
     "field_name" : "idiag_family",
     "field_offset" : 416,
     "referenced_type" : "_ZTIh"
    },
    {
     "field_name" : "idiag_state",
     "field_offset" : 424,
     "referenced_type" : "_ZTIh"
    },
    {
     "field_name" : "idiag_timer",
     "field_offset" : 432,
     "referenced_type" : "_ZTIh"
    },
    {
     "field_name" : "idiag_retrans",
     "field_offset" : 440,
     "referenced_type" : "_ZTIh"
    },
    {
     "field_name" : "idiag_sport",
     "field_offset" : 448,
     "referenced_type" : "_ZTIt"
    },
    {
     "field_name" : "idiag_dport",
     "field_offset" : 464,
     "referenced_type" : "_ZTIt"
    },
    {
     "field_name" : "idiag_src",
     "field_offset" : 512,
     "referenced_type" : "_ZTIP7nl_addr"
    },
    {
     "field_name" : "idiag_dst",
     "field_offset" : 576,
     "referenced_type" : "_ZTIP7nl_addr"
    },
    {
     "field_name" : "idiag_ifindex",
     "field_offset" : 640,
     "referenced_type" : "_ZTIj"
    },
    {
     "field_name" : "idiag_expires",
     "field_offset" : 672,
     "referenced_type" : "_ZTIj"
    },
    {
     "field_name" : "idiag_rqueue",
     "field_offset" : 704,
     "referenced_type" : "_ZTIj"
    },
    {
     "field_name" : "idiag_wqueue",
     "field_offset" : 736,
     "referenced_type" : "_ZTIj"
    },
    {
     "field_name" : "idiag_uid",
     "field_offset" : 768,
     "referenced_type" : "_ZTIj"
    },
    {
     "field_name" : "idiag_inode",
     "field_offset" : 800,
     "referenced_type" : "_ZTIj"
    },
    {
     "field_name" : "idiag_tos",
     "field_offset" : 832,
     "referenced_type" : "_ZTIh"
    },
    {
     "field_name" : "idiag_tclass",
     "field_offset" : 840,
     "referenced_type" : "_ZTIh"
    },
    {
     "field_name" : "idiag_shutdown",
     "field_offset" : 848,
     "referenced_type" : "_ZTIh"
    },
    {
     "field_name" : "idiag_cong",
     "field_offset" : 896,
     "referenced_type" : "_ZTIPc"
    },
    {
     "field_name" : "idiag_meminfo",
     "field_offset" : 960,
     "referenced_type" : "_ZTIP15idiagnl_meminfo"
    },
    {
     "field_name" : "idiag_vegasinfo",
     "field_offset" : 1024,
     "referenced_type" : "_ZTIP17idiagnl_vegasinfo"
    },
    {
     "field_name" : "idiag_tcpinfo",
     "field_offset" : 1088,
     "referenced_type" : "_ZTI8tcp_info"
    },
    {
     "field_name" : "idiag_skmeminfo",
     "field_offset" : 2944,
     "referenced_type" : "_ZTIA8_j"
    }
   ],
   "linker_set_key" : "_ZTI11idiagnl_msg",
   "name" : "idiagnl_msg",
   "referenced_type" : "_ZTI11idiagnl_msg",
   "self_type" : "_ZTI11idiagnl_msg",
   "size" : 400,
   "source_file" : "/external/libnl/include/netlink-private/types.h"
  },
  {
   "alignment" : 8,
   "fields" :
   [
    {
     "field_name" : "ce_refcnt",
     "referenced_type" : "_ZTIi"
    },
    {
     "field_name" : "ce_ops",
     "field_offset" : 64,
     "referenced_type" : "_ZTIP13nl_object_ops"
    },
    {
     "field_name" : "ce_cache",
     "field_offset" : 128,
     "referenced_type" : "_ZTIP8nl_cache"
    },
    {
     "field_name" : "ce_list",
     "field_offset" : 192,
     "referenced_type" : "_ZTI12nl_list_head"
    },
    {
     "field_name" : "ce_msgtype",
     "field_offset" : 320,
     "referenced_type" : "_ZTIi"
    },
    {
     "field_name" : "ce_flags",
     "field_offset" : 352,
     "referenced_type" : "_ZTIi"
    },
    {
     "field_name" : "ce_mask",
     "field_offset" : 384,
     "referenced_type" : "_ZTIj"
    },
    {
     "field_name" : "idiag_family",
     "field_offset" : 416,
     "referenced_type" : "_ZTIh"
    },
    {
     "field_name" : "idiag_ext",
     "field_offset" : 424,
     "referenced_type" : "_ZTIh"
    },
    {
     "field_name" : "idiag_src",
     "field_offset" : 448,
     "referenced_type" : "_ZTIP7nl_addr"
    },
    {
     "field_name" : "idiag_dst",
     "field_offset" : 512,
     "referenced_type" : "_ZTIP7nl_addr"
    },
    {
     "field_name" : "idiag_ifindex",
     "field_offset" : 576,
     "referenced_type" : "_ZTIj"
    },
    {
     "field_name" : "idiag_states",
     "field_offset" : 608,
     "referenced_type" : "_ZTIj"
    },
    {
     "field_name" : "idiag_dbs",
     "field_offset" : 640,
     "referenced_type" : "_ZTIj"
    }
   ],
   "linker_set_key" : "_ZTI11idiagnl_req",
   "name" : "idiagnl_req",
   "referenced_type" : "_ZTI11idiagnl_req",
   "self_type" : "_ZTI11idiagnl_req",
   "size" : 88,
   "source_file" : "/external/libnl/include/netlink-private/types.h"
  },
  {
   "alignment" : 4,
   "fields" :
   [
    {
     "field_name" : "vf",
     "referenced_type" : "_ZTIj"
    },
    {
     "field_name" : "mac",
     "field_offset" : 32,
     "referenced_type" : "_ZTIA32_h"
    }
   ],
   "linker_set_key" : "_ZTI11ifla_vf_mac",
   "name" : "ifla_vf_mac",
   "referenced_type" : "_ZTI11ifla_vf_mac",
   "self_type" : "_ZTI11ifla_vf_mac",
   "size" : 36,
   "source_file" : "/external/libnl/include/linux-private/linux/if_link.h"
  },
  {
   "alignment" : 4,
   "fields" :
   [
    {
     "field_name" : "nexthdr",
     "referenced_type" : "_ZTIh"
    },
    {
     "field_name" : "hdrlen",
     "field_offset" : 8,
     "referenced_type" : "_ZTIh"
    },
    {
     "field_name" : "reserved",
     "field_offset" : 16,
     "referenced_type" : "_ZTIt"
    },
    {
     "field_name" : "spi",
     "field_offset" : 32,
     "referenced_type" : "_ZTIj"
    },
    {
     "field_name" : "seq_no",
     "field_offset" : 64,
     "referenced_type" : "_ZTIj"
    },
    {
     "field_name" : "auth_data",
     "field_offset" : 96,
     "referenced_type" : "_ZTIA0_h"
    }
   ],
   "linker_set_key" : "_ZTI11ip_auth_hdr",
   "name" : "ip_auth_hdr",
   "referenced_type" : "_ZTI11ip_auth_hdr",
   "self_type" : "_ZTI11ip_auth_hdr",
   "size" : 12,
   "source_file" : "/external/libnl/include/linux-private/linux/ip.h"
  },
  {
   "alignment" : 2,
   "fields" :
   [
    {
     "field_name" : "nexthdr",
     "referenced_type" : "_ZTIh"
    },
    {
     "field_name" : "flags",
     "field_offset" : 8,
     "referenced_type" : "_ZTIh"
    },
    {
     "field_name" : "cpi",
     "field_offset" : 16,
     "referenced_type" : "_ZTIt"
    }
   ],
   "linker_set_key" : "_ZTI11ip_comp_hdr",
   "name" : "ip_comp_hdr",
   "referenced_type" : "_ZTI11ip_comp_hdr",
   "self_type" : "_ZTI11ip_comp_hdr",
   "size" : 4,
   "source_file" : "/external/libnl/include/linux-private/linux/ip.h"
  },
  {
   "alignment" : 1,
   "fields" :
   [
    {
     "field_name" : "nexthdr",
     "referenced_type" : "_ZTIh"
    },
    {
     "field_name" : "hdrlen",
     "field_offset" : 8,
     "referenced_type" : "_ZTIh"
    },
    {
     "field_name" : "type",
     "field_offset" : 16,
     "referenced_type" : "_ZTIh"
    },
    {
     "field_name" : "segments_left",
     "field_offset" : 24,
     "referenced_type" : "_ZTIh"
    }
   ],
   "linker_set_key" : "_ZTI11ipv6_rt_hdr",
   "name" : "ipv6_rt_hdr",
   "referenced_type" : "_ZTI11ipv6_rt_hdr",
   "self_type" : "_ZTI11ipv6_rt_hdr",
   "size" : 4,
   "source_file" : "/external/libnl/include/linux-private/linux/ipv6.h"
  },
  {
   "alignment" : 8,
   "fields" :
   [
    {
     "field_name" : "src",
     "referenced_type" : "_ZTIP7nl_addr"
    },
    {
     "field_name" : "dst",
     "field_offset" : 64,
     "referenced_type" : "_ZTIP7nl_addr"
    },
    {
     "field_name" : "proto",
     "field_offset" : 128,
     "referenced_type" : "_ZTI13nfnl_ct_proto"
    },
    {
     "field_name" : "packets",
     "field_offset" : 192,
     "referenced_type" : "_ZTIm"
    },
    {
     "field_name" : "bytes",
     "field_offset" : 256,
     "referenced_type" : "_ZTIm"
    }
   ],
   "linker_set_key" : "_ZTI11nfnl_ct_dir",
   "name" : "nfnl_ct_dir",
   "referenced_type" : "_ZTI11nfnl_ct_dir",
   "self_type" : "_ZTI11nfnl_ct_dir",
   "size" : 40,
   "source_file" : "/external/libnl/include/netlink-private/types.h"
  },
  {
   "alignment" : 4,
   "fields" :
   [
    {
     "field_name" : "ag_family",
     "referenced_type" : "_ZTIi"
    },
    {
     "field_name" : "ag_group",
     "field_offset" : 32,
     "referenced_type" : "_ZTIi"
    }
   ],
   "linker_set_key" : "_ZTI11nl_af_group",
   "name" : "nl_af_group",
   "referenced_type" : "_ZTI11nl_af_group",
   "self_type" : "_ZTI11nl_af_group",
   "size" : 8,
   "source_file" : "/external/libnl/include/netlink-private/cache-api.h"
  },
  {
   "alignment" : 4,
   "fields" :
   [
    {
     "field_name" : "proto",
     "referenced_type" : "_ZTIh"
    },
    {
     "field_name" : "pad1",
     "field_offset" : 8,
     "referenced_type" : "_ZTIh"
    },
    {
     "field_name" : "pad2",
     "field_offset" : 16,
     "referenced_type" : "_ZTIt"
    },
    {
     "field_name" : "u",
     "field_offset" : 32,
     "referenced_type" : "_ZTIN11rta_sessionUt_E"
    }
   ],
   "linker_set_key" : "_ZTI11rta_session",
   "name" : "rta_session",
   "referenced_type" : "_ZTI11rta_session",
   "self_type" : "_ZTI11rta_session",
   "size" : 8,
   "source_file" : "/external/libnl/include/linux-private/linux/rtnetlink.h"
  },
  {
   "alignment" : 8,
   "fields" :
   [
    {
     "field_name" : "cg_ematch",
     "referenced_type" : "_ZTIP16rtnl_ematch_tree"
    },
    {
     "field_name" : "cg_mask",
     "field_offset" : 64,
     "referenced_type" : "_ZTIi"
    }
   ],
   "linker_set_key" : "_ZTI11rtnl_cgroup",
   "name" : "rtnl_cgroup",
   "referenced_type" : "_ZTI11rtnl_cgroup",
   "self_type" : "_ZTI11rtnl_cgroup",
   "size" : 16,
   "source_file" : "/external/libnl/include/netlink-private/types.h"
  },
  {
   "alignment" : 8,
   "fields" :
   [
    {
     "field_name" : "e_id",
     "referenced_type" : "_ZTIt"
    },
    {
     "field_name" : "e_kind",
     "field_offset" : 16,
     "referenced_type" : "_ZTIt"
    },
    {
     "field_name" : "e_flags",
     "field_offset" : 32,
     "referenced_type" : "_ZTIt"
    },
    {
     "field_name" : "e_index",
     "field_offset" : 48,
     "referenced_type" : "_ZTIt"
    },
    {
     "field_name" : "e_datalen",
     "field_offset" : 64,
     "referenced_type" : "_ZTIm"
    },
    {
     "field_name" : "e_childs",
     "field_offset" : 128,
     "referenced_type" : "_ZTI12nl_list_head"
    },
    {
     "field_name" : "e_list",
     "field_offset" : 256,
     "referenced_type" : "_ZTI12nl_list_head"
    },
    {
     "field_name" : "e_ops",
     "field_offset" : 384,
     "referenced_type" : "_ZTIP15rtnl_ematch_ops"
    },
    {
     "field_name" : "e_data",
     "field_offset" : 448,
     "referenced_type" : "_ZTIPv"
    }
   ],
   "linker_set_key" : "_ZTI11rtnl_ematch",
   "name" : "rtnl_ematch",
   "referenced_type" : "_ZTI11rtnl_ematch",
   "self_type" : "_ZTI11rtnl_ematch",
   "size" : 64,
   "source_file" : "/external/libnl/include/netlink-private/types.h"
  },
  {
   "alignment" : 4,
   "fields" :
   [
    {
     "field_name" : "m_parm",
     "referenced_type" : "_ZTI9tc_mirred"
    }
   ],
   "linker_set_key" : "_ZTI11rtnl_mirred",
   "name" : "rtnl_mirred",
   "referenced_type" : "_ZTI11rtnl_mirred",
   "self_type" : "_ZTI11rtnl_mirred",
   "size" : 28,
   "source_file" : "/external/libnl/include/netlink-private/types.h"
  },
  {
   "alignment" : 8,
   "fields" :
   [
    {
     "field_name" : "to_kind",
     "referenced_type" : "_ZTIPc"
    },
    {
     "field_name" : "to_type",
     "field_offset" : 64,
     "referenced_type" : "_ZTI12rtnl_tc_type"
    },
    {
     "field_name" : "to_size",
     "field_offset" : 128,
     "referenced_type" : "_ZTIm"
    },
    {
     "field_name" : "to_dump",
     "field_offset" : 192,
     "referenced_type" : "_ZTIA3_PFvP7rtnl_tcPvP14nl_dump_paramsE"
    },
    {
     "field_name" : "to_msg_fill",
     "field_offset" : 384,
     "referenced_type" : "_ZTIPFiP7rtnl_tcPvP6nl_msgE"
    },
    {
     "field_name" : "to_msg_fill_raw",
     "field_offset" : 448,
     "referenced_type" : "_ZTIPFiP7rtnl_tcPvP6nl_msgE"
    },
    {
     "field_name" : "to_msg_parser",
     "field_offset" : 512,
     "referenced_type" : "_ZTIPFiP7rtnl_tcPvE"
    },
    {
     "field_name" : "to_free_data",
     "field_offset" : 576,
     "referenced_type" : "_ZTIPFvP7rtnl_tcPvE"
    },
    {
     "field_name" : "to_clone",
     "field_offset" : 640,
     "referenced_type" : "_ZTIPFiPvS_E"
    },
    {
     "field_name" : "to_list",
     "field_offset" : 704,
     "referenced_type" : "_ZTI12nl_list_head"
    }
   ],
   "linker_set_key" : "_ZTI11rtnl_tc_ops",
   "name" : "rtnl_tc_ops",
   "referenced_type" : "_ZTI11rtnl_tc_ops",
   "self_type" : "_ZTI11rtnl_tc_ops",
   "size" : 104,
   "source_file" : "/external/libnl/include/netlink-private/route/tc-api.h"
  },
  {
   "alignment" : 8,
   "fields" :
   [
    {
     "field_name" : "tcs_basic",
     "referenced_type" : "_ZTIN11rtnl_tstatsUt_E"
    },
    {
     "field_name" : "tcs_rate_est",
     "field_offset" : 128,
     "referenced_type" : "_ZTIN11rtnl_tstatsUt_E"
    },
    {
     "field_name" : "tcs_queue",
     "field_offset" : 192,
     "referenced_type" : "_ZTIN11rtnl_tstatsUt_E"
    }
   ],
   "linker_set_key" : "_ZTI11rtnl_tstats",
   "name" : "rtnl_tstats",
   "referenced_type" : "_ZTI11rtnl_tstats",
   "self_type" : "_ZTI11rtnl_tstats",
   "size" : 48,
   "source_file" : "/external/libnl/include/netlink-private/types.h"
  },
  {
   "alignment" : 4,
   "fields" :
   [
    {
     "field_name" : "nl_family",
     "referenced_type" : "_ZTIt"
    },
    {
     "field_name" : "nl_pad",
     "field_offset" : 16,
     "referenced_type" : "_ZTIt"
    },
    {
     "field_name" : "nl_pid",
     "field_offset" : 32,
     "referenced_type" : "_ZTIj"
    },
    {
     "field_name" : "nl_groups",
     "field_offset" : 64,
     "referenced_type" : "_ZTIj"
    }
   ],
   "linker_set_key" : "_ZTI11sockaddr_nl",
   "name" : "sockaddr_nl",
   "referenced_type" : "_ZTI11sockaddr_nl",
   "self_type" : "_ZTI11sockaddr_nl",
   "size" : 12,
   "source_file" : "/external/libnl/include/linux-private/linux/netlink.h"
  },
  {
   "alignment" : 4,
   "fields" :
   [
    {
     "field_name" : "split",
     "referenced_type" : "_ZTIj"
    },
    {
     "field_name" : "defmap",
     "field_offset" : 32,
     "referenced_type" : "_ZTIj"
    },
    {
     "field_name" : "defchange",
     "field_offset" : 64,
     "referenced_type" : "_ZTIj"
    }
   ],
   "linker_set_key" : "_ZTI11tc_cbq_fopt",
   "name" : "tc_cbq_fopt",
   "referenced_type" : "_ZTI11tc_cbq_fopt",
   "self_type" : "_ZTI11tc_cbq_fopt",
   "size" : 12,
   "source_file" : "/external/libnl/include/linux-private/linux/pkt_sched.h"
  },
  {
   "alignment" : 4,
   "fields" :
   [
    {
     "field_name" : "version",
     "referenced_type" : "_ZTIj"
    },
    {
     "field_name" : "rate2quantum",
     "field_offset" : 32,
     "referenced_type" : "_ZTIj"
    },
    {
     "field_name" : "defcls",
     "field_offset" : 64,
     "referenced_type" : "_ZTIj"
    },
    {
     "field_name" : "debug",
     "field_offset" : 96,
     "referenced_type" : "_ZTIj"
    },
    {
     "field_name" : "direct_pkts",
     "field_offset" : 128,
     "referenced_type" : "_ZTIj"
    }
   ],
   "linker_set_key" : "_ZTI11tc_htb_glob",
   "name" : "tc_htb_glob",
   "referenced_type" : "_ZTI11tc_htb_glob",
   "self_type" : "_ZTI11tc_htb_glob",
   "size" : 20,
   "source_file" : "/external/libnl/include/linux-private/linux/pkt_sched.h"
  },
  {
   "alignment" : 4,
   "fields" :
   [
    {
     "field_name" : "cell_log",
     "referenced_type" : "_ZTIh"
    },
    {
     "field_name" : "__reserved",
     "field_offset" : 8,
     "referenced_type" : "_ZTIh"
    },
    {
     "field_name" : "overhead",
     "field_offset" : 16,
     "referenced_type" : "_ZTIt"
    },
    {
     "field_name" : "cell_align",
     "field_offset" : 32,
     "referenced_type" : "_ZTIs"
    },
    {
     "field_name" : "mpu",
     "field_offset" : 48,
     "referenced_type" : "_ZTIt"
    },
    {
     "field_name" : "rate",
     "field_offset" : 64,
     "referenced_type" : "_ZTIj"
    }
   ],
   "linker_set_key" : "_ZTI11tc_ratespec",
   "name" : "tc_ratespec",
   "referenced_type" : "_ZTI11tc_ratespec",
   "self_type" : "_ZTI11tc_ratespec",
   "size" : 12,
   "source_file" : "/external/libnl/include/linux-private/linux/pkt_sched.h"
  },
  {
   "alignment" : 4,
   "fields" :
   [
    {
     "field_name" : "limit",
     "referenced_type" : "_ZTIj"
    },
    {
     "field_name" : "qth_min",
     "field_offset" : 32,
     "referenced_type" : "_ZTIj"
    },
    {
     "field_name" : "qth_max",
     "field_offset" : 64,
     "referenced_type" : "_ZTIj"
    },
    {
     "field_name" : "Wlog",
     "field_offset" : 96,
     "referenced_type" : "_ZTIh"
    },
    {
     "field_name" : "Plog",
     "field_offset" : 104,
     "referenced_type" : "_ZTIh"
    },
    {
     "field_name" : "Scell_log",
     "field_offset" : 112,
     "referenced_type" : "_ZTIh"
    },
    {
     "field_name" : "flags",
     "field_offset" : 120,
     "referenced_type" : "_ZTIh"
    }
   ],
   "linker_set_key" : "_ZTI11tc_red_qopt",
   "name" : "tc_red_qopt",
   "referenced_type" : "_ZTI11tc_red_qopt",
   "self_type" : "_ZTI11tc_red_qopt",
   "size" : 16,
   "source_file" : "/external/libnl/include/linux-private/linux/pkt_sched.h"
  },
  {
   "alignment" : 4,
   "fields" :
   [
    {
     "field_name" : "key",
     "referenced_type" : "_ZTIj"
    },
    {
     "field_name" : "mask",
     "field_offset" : 32,
     "referenced_type" : "_ZTIj"
    },
    {
     "field_name" : "offset",
     "field_offset" : 64,
     "referenced_type" : "_ZTIi"
    }
   ],
   "linker_set_key" : "_ZTI11tc_rsvp_gpi",
   "name" : "tc_rsvp_gpi",
   "referenced_type" : "_ZTI11tc_rsvp_gpi",
   "self_type" : "_ZTI11tc_rsvp_gpi",
   "size" : 12,
   "source_file" : "/external/libnl/include/linux-private/linux/pkt_cls.h"
  },
  {
   "alignment" : 4,
   "fields" :
   [
    {
     "field_name" : "rehash_interval",
     "referenced_type" : "_ZTIj"
    },
    {
     "field_name" : "warmup_time",
     "field_offset" : 32,
     "referenced_type" : "_ZTIj"
    },
    {
     "field_name" : "max",
     "field_offset" : 64,
     "referenced_type" : "_ZTIj"
    },
    {
     "field_name" : "bin_size",
     "field_offset" : 96,
     "referenced_type" : "_ZTIj"
    },
    {
     "field_name" : "increment",
     "field_offset" : 128,
     "referenced_type" : "_ZTIj"
    },
    {
     "field_name" : "decrement",
     "field_offset" : 160,
     "referenced_type" : "_ZTIj"
    },
    {
     "field_name" : "limit",
     "field_offset" : 192,
     "referenced_type" : "_ZTIj"
    },
    {
     "field_name" : "penalty_rate",
     "field_offset" : 224,
     "referenced_type" : "_ZTIj"
    },
    {
     "field_name" : "penalty_burst",
     "field_offset" : 256,
     "referenced_type" : "_ZTIj"
    }
   ],
   "linker_set_key" : "_ZTI11tc_sfb_qopt",
   "name" : "tc_sfb_qopt",
   "referenced_type" : "_ZTI11tc_sfb_qopt",
   "self_type" : "_ZTI11tc_sfb_qopt",
   "size" : 36,
   "source_file" : "/external/libnl/include/linux-private/linux/pkt_sched.h"
  },
  {
   "alignment" : 4,
   "fields" :
   [
    {
     "field_name" : "quantum",
     "referenced_type" : "_ZTIj"
    },
    {
     "field_name" : "perturb_period",
     "field_offset" : 32,
     "referenced_type" : "_ZTIi"
    },
    {
     "field_name" : "limit",
     "field_offset" : 64,
     "referenced_type" : "_ZTIj"
    },
    {
     "field_name" : "divisor",
     "field_offset" : 96,
     "referenced_type" : "_ZTIj"
    },
    {
     "field_name" : "flows",
     "field_offset" : 128,
     "referenced_type" : "_ZTIj"
    }
   ],
   "linker_set_key" : "_ZTI11tc_sfq_qopt",
   "name" : "tc_sfq_qopt",
   "referenced_type" : "_ZTI11tc_sfq_qopt",
   "self_type" : "_ZTI11tc_sfq_qopt",
   "size" : 20,
   "source_file" : "/external/libnl/include/linux-private/linux/pkt_sched.h"
  },
  {
   "alignment" : 4,
   "fields" :
   [
    {
     "field_name" : "cell_log",
     "referenced_type" : "_ZTIh"
    },
    {
     "field_name" : "size_log",
     "field_offset" : 8,
     "referenced_type" : "_ZTIh"
    },
    {
     "field_name" : "cell_align",
     "field_offset" : 16,
     "referenced_type" : "_ZTIs"
    },
    {
     "field_name" : "overhead",
     "field_offset" : 32,
     "referenced_type" : "_ZTIi"
    },
    {
     "field_name" : "linklayer",
     "field_offset" : 64,
     "referenced_type" : "_ZTIj"
    },
    {
     "field_name" : "mpu",
     "field_offset" : 96,
     "referenced_type" : "_ZTIj"
    },
    {
     "field_name" : "mtu",
     "field_offset" : 128,
     "referenced_type" : "_ZTIj"
    },
    {
     "field_name" : "tsize",
     "field_offset" : 160,
     "referenced_type" : "_ZTIj"
    }
   ],
   "linker_set_key" : "_ZTI11tc_sizespec",
   "name" : "tc_sizespec",
   "referenced_type" : "_ZTI11tc_sizespec",
   "self_type" : "_ZTI11tc_sizespec",
   "size" : 24,
   "source_file" : "/external/libnl/include/linux-private/linux/pkt_sched.h"
  },
  {
   "alignment" : 4,
   "fields" :
   [
    {
     "field_name" : "rate",
     "referenced_type" : "_ZTI11tc_ratespec"
    },
    {
     "field_name" : "peakrate",
     "field_offset" : 96,
     "referenced_type" : "_ZTI11tc_ratespec"
    },
    {
     "field_name" : "limit",
     "field_offset" : 192,
     "referenced_type" : "_ZTIj"
    },
    {
     "field_name" : "buffer",
     "field_offset" : 224,
     "referenced_type" : "_ZTIj"
    },
    {
     "field_name" : "mtu",
     "field_offset" : 256,
     "referenced_type" : "_ZTIj"
    }
   ],
   "linker_set_key" : "_ZTI11tc_tbf_qopt",
   "name" : "tc_tbf_qopt",
   "referenced_type" : "_ZTI11tc_tbf_qopt",
   "self_type" : "_ZTI11tc_tbf_qopt",
   "size" : 36,
   "source_file" : "/external/libnl/include/linux-private/linux/pkt_sched.h"
  },
  {
   "alignment" : 4,
   "fields" :
   [
    {
     "field_name" : "val",
     "referenced_type" : "_ZTIj"
    },
    {
     "field_name" : "mask",
     "field_offset" : 32,
     "referenced_type" : "_ZTIj"
    },
    {
     "field_name" : "success",
     "field_offset" : 64,
     "referenced_type" : "_ZTIj"
    }
   ],
   "linker_set_key" : "_ZTI11tc_u32_mark",
   "name" : "tc_u32_mark",
   "referenced_type" : "_ZTI11tc_u32_mark",
   "self_type" : "_ZTI11tc_u32_mark",
   "size" : 12,
   "source_file" : "/external/libnl/include/linux-private/linux/pkt_cls.h"
  },
  {
   "alignment" : 8,
   "fields" :
   [
    {
     "field_name" : "rcnt",
     "referenced_type" : "_ZTIy"
    },
    {
     "field_name" : "rhit",
     "field_offset" : 64,
     "referenced_type" : "_ZTIy"
    },
    {
     "field_name" : "kcnts",
     "field_offset" : 128,
     "referenced_type" : "_ZTIA0_y"
    }
   ],
   "linker_set_key" : "_ZTI11tc_u32_pcnt",
   "name" : "tc_u32_pcnt",
   "referenced_type" : "_ZTI11tc_u32_pcnt",
   "self_type" : "_ZTI11tc_u32_pcnt",
   "size" : 16,
   "source_file" : "/external/libnl/include/linux-private/linux/pkt_cls.h"
  },
  {
   "alignment" : 8,
   "fields" :
   [
    {
     "field_name" : "ce_refcnt",
     "referenced_type" : "_ZTIi"
    },
    {
     "field_name" : "ce_ops",
     "field_offset" : 64,
     "referenced_type" : "_ZTIP13nl_object_ops"
    },
    {
     "field_name" : "ce_cache",
     "field_offset" : 128,
     "referenced_type" : "_ZTIP8nl_cache"
    },
    {
     "field_name" : "ce_list",
     "field_offset" : 192,
     "referenced_type" : "_ZTI12nl_list_head"
    },
    {
     "field_name" : "ce_msgtype",
     "field_offset" : 320,
     "referenced_type" : "_ZTIi"
    },
    {
     "field_name" : "ce_flags",
     "field_offset" : 352,
     "referenced_type" : "_ZTIi"
    },
    {
     "field_name" : "ce_mask",
     "field_offset" : 384,
     "referenced_type" : "_ZTIj"
    },
    {
     "field_name" : "lr_addr",
     "field_offset" : 448,
     "referenced_type" : "_ZTIP7nl_addr"
    },
    {
     "field_name" : "lr_fwmark",
     "field_offset" : 512,
     "referenced_type" : "_ZTIj"
    },
    {
     "field_name" : "lr_tos",
     "field_offset" : 544,
     "referenced_type" : "_ZTIh"
    },
    {
     "field_name" : "lr_scope",
     "field_offset" : 552,
     "referenced_type" : "_ZTIh"
    },
    {
     "field_name" : "lr_table",
     "field_offset" : 560,
     "referenced_type" : "_ZTIh"
    }
   ],
   "linker_set_key" : "_ZTI12flnl_request",
   "name" : "flnl_request",
   "referenced_type" : "_ZTI12flnl_request",
   "self_type" : "_ZTI12flnl_request",
   "size" : 72,
   "source_file" : "/external/libnl/include/netlink-private/types.h"
  },
  {
   "alignment" : 4,
   "fields" :
   [
    {
     "field_name" : "vf",
     "referenced_type" : "_ZTIj"
    },
    {
     "field_name" : "vlan",
     "field_offset" : 32,
     "referenced_type" : "_ZTIj"
    },
    {
     "field_name" : "qos",
     "field_offset" : 64,
     "referenced_type" : "_ZTIj"
    }
   ],
   "linker_set_key" : "_ZTI12ifla_vf_vlan",
   "name" : "ifla_vf_vlan",
   "referenced_type" : "_ZTI12ifla_vf_vlan",
   "self_type" : "_ZTI12ifla_vf_vlan",
   "size" : 12,
   "source_file" : "/external/libnl/include/linux-private/linux/if_link.h"
  },
  {
   "alignment" : 1,
   "fields" :
   [
    {
     "field_name" : "nexthdr",
     "referenced_type" : "_ZTIh"
    },
    {
     "field_name" : "hdrlen",
     "field_offset" : 8,
     "referenced_type" : "_ZTIh"
    },
    {
     "field_name" : "padlen",
     "field_offset" : 16,
     "referenced_type" : "_ZTIh"
    },
    {
     "field_name" : "reserved",
     "field_offset" : 24,
     "referenced_type" : "_ZTIh"
    }
   ],
   "linker_set_key" : "_ZTI12ip_beet_phdr",
   "name" : "ip_beet_phdr",
   "referenced_type" : "_ZTI12ip_beet_phdr",
   "self_type" : "_ZTI12ip_beet_phdr",
   "size" : 4,
   "source_file" : "/external/libnl/include/linux-private/linux/ip.h"
  },
  {
   "alignment" : 1,
   "fields" :
   [
    {
     "field_name" : "nexthdr",
     "referenced_type" : "_ZTIh"
    },
    {
     "field_name" : "hdrlen",
     "field_offset" : 8,
     "referenced_type" : "_ZTIh"
    }
   ],
   "linker_set_key" : "_ZTI12ipv6_opt_hdr",
   "name" : "ipv6_opt_hdr",
   "referenced_type" : "_ZTI12ipv6_opt_hdr",
   "self_type" : "_ZTI12ipv6_opt_hdr",
   "size" : 2,
   "source_file" : "/external/libnl/include/linux-private/linux/ipv6.h"
  },
  {
   "alignment" : 4,
   "fields" :
   [
    {
     "field_name" : "nduseropt_family",
     "referenced_type" : "_ZTIh"
    },
    {
     "field_name" : "nduseropt_pad1",
     "field_offset" : 8,
     "referenced_type" : "_ZTIh"
    },
    {
     "field_name" : "nduseropt_opts_len",
     "field_offset" : 16,
     "referenced_type" : "_ZTIt"
    },
    {
     "field_name" : "nduseropt_ifindex",
     "field_offset" : 32,
     "referenced_type" : "_ZTIi"
    },
    {
     "field_name" : "nduseropt_icmp_type",
     "field_offset" : 64,
     "referenced_type" : "_ZTIh"
    },
    {
     "field_name" : "nduseropt_icmp_code",
     "field_offset" : 72,
     "referenced_type" : "_ZTIh"
    },
    {
     "field_name" : "nduseropt_pad2",
     "field_offset" : 80,
     "referenced_type" : "_ZTIt"
    },
    {
     "field_name" : "nduseropt_pad3",
     "field_offset" : 96,
     "referenced_type" : "_ZTIj"
    }
   ],
   "linker_set_key" : "_ZTI12nduseroptmsg",
   "name" : "nduseroptmsg",
   "referenced_type" : "_ZTI12nduseroptmsg",
   "self_type" : "_ZTI12nduseroptmsg",
   "size" : 16,
   "source_file" : "/external/libnl/include/linux-private/linux/rtnetlink.h"
  },
  {
   "alignment" : 8,
   "fields" :
   [
    {
     "field_name" : "src",
     "referenced_type" : "_ZTIP7nl_addr"
    },
    {
     "field_name" : "dst",
     "field_offset" : 64,
     "referenced_type" : "_ZTIP7nl_addr"
    },
    {
     "field_name" : "proto",
     "field_offset" : 128,
     "referenced_type" : "_ZTI14nfnl_exp_proto"
    }
   ],
   "linker_set_key" : "_ZTI12nfnl_exp_dir",
   "name" : "nfnl_exp_dir",
   "referenced_type" : "_ZTI12nfnl_exp_dir",
   "self_type" : "_ZTI12nfnl_exp_dir",
   "size" : 24,
   "source_file" : "/external/libnl/include/netlink-private/types.h"
  },
  {
   "alignment" : 8,
   "fields" :
   [
    {
     "field_name" : "ce_refcnt",
     "referenced_type" : "_ZTIi"
    },
    {
     "field_name" : "ce_ops",
     "field_offset" : 64,
     "referenced_type" : "_ZTIP13nl_object_ops"
    },
    {
     "field_name" : "ce_cache",
     "field_offset" : 128,
     "referenced_type" : "_ZTIP8nl_cache"
    },
    {
     "field_name" : "ce_list",
     "field_offset" : 192,
     "referenced_type" : "_ZTI12nl_list_head"
    },
    {
     "field_name" : "ce_msgtype",
     "field_offset" : 320,
     "referenced_type" : "_ZTIi"
    },
    {
     "field_name" : "ce_flags",
     "field_offset" : 352,
     "referenced_type" : "_ZTIi"
    },
    {
     "field_name" : "ce_mask",
     "field_offset" : 384,
     "referenced_type" : "_ZTIj"
    },
    {
     "field_name" : "log_msg_family",
     "field_offset" : 416,
     "referenced_type" : "_ZTIh"
    },
    {
     "field_name" : "log_msg_hook",
     "field_offset" : 424,
     "referenced_type" : "_ZTIh"
    },
    {
     "field_name" : "log_msg_hwproto",
     "field_offset" : 432,
     "referenced_type" : "_ZTIt"
    },
    {
     "field_name" : "log_msg_mark",
     "field_offset" : 448,
     "referenced_type" : "_ZTIj"
    },
    {
     "field_name" : "log_msg_timestamp",
     "field_offset" : 512,
     "referenced_type" : "_ZTI7timeval"
    },
    {
     "field_name" : "log_msg_indev",
     "field_offset" : 640,
     "referenced_type" : "_ZTIj"
    },
    {
     "field_name" : "log_msg_outdev",
     "field_offset" : 672,
     "referenced_type" : "_ZTIj"
    },
    {
     "field_name" : "log_msg_physindev",
     "field_offset" : 704,
     "referenced_type" : "_ZTIj"
    },
    {
     "field_name" : "log_msg_physoutdev",
     "field_offset" : 736,
     "referenced_type" : "_ZTIj"
    },
    {
     "field_name" : "log_msg_hwaddr",
     "field_offset" : 768,
     "referenced_type" : "_ZTIA8_h"
    },
    {
     "field_name" : "log_msg_hwaddr_len",
     "field_offset" : 832,
     "referenced_type" : "_ZTIi"
    },
    {
     "field_name" : "log_msg_payload",
     "field_offset" : 896,
     "referenced_type" : "_ZTIPv"
    },
    {
     "field_name" : "log_msg_payload_len",
     "field_offset" : 960,
     "referenced_type" : "_ZTIi"
    },
    {
     "field_name" : "log_msg_prefix",
     "field_offset" : 1024,
     "referenced_type" : "_ZTIPc"
    },
    {
     "field_name" : "log_msg_uid",
     "field_offset" : 1088,
     "referenced_type" : "_ZTIj"
    },
    {
     "field_name" : "log_msg_gid",
     "field_offset" : 1120,
     "referenced_type" : "_ZTIj"
    },
    {
     "field_name" : "log_msg_seq",
     "field_offset" : 1152,
     "referenced_type" : "_ZTIj"
    },
    {
     "field_name" : "log_msg_seq_global",
     "field_offset" : 1184,
     "referenced_type" : "_ZTIj"
    }
   ],
   "linker_set_key" : "_ZTI12nfnl_log_msg",
   "name" : "nfnl_log_msg",
   "referenced_type" : "_ZTI12nfnl_log_msg",
   "self_type" : "_ZTI12nfnl_log_msg",
   "size" : 152,
   "source_file" : "/external/libnl/include/netlink-private/types.h"
  },
  {
   "alignment" : 8,
   "fields" :
   [
    {
     "field_name" : "co_name",
     "referenced_type" : "_ZTIPc"
    },
    {
     "field_name" : "co_hdrsize",
     "field_offset" : 64,
     "referenced_type" : "_ZTIi"
    },
    {
     "field_name" : "co_protocol",
     "field_offset" : 96,
     "referenced_type" : "_ZTIi"
    },
    {
     "field_name" : "co_hash_size",
     "field_offset" : 128,
     "referenced_type" : "_ZTIi"
    },
    {
     "field_name" : "co_flags",
     "field_offset" : 160,
     "referenced_type" : "_ZTIj"
    },
    {
     "field_name" : "co_refcnt",
     "field_offset" : 192,
     "referenced_type" : "_ZTIj"
    },
    {
     "field_name" : "co_groups",
     "field_offset" : 256,
     "referenced_type" : "_ZTIP11nl_af_group"
    },
    {
     "field_name" : "co_request_update",
     "field_offset" : 320,
     "referenced_type" : "_ZTIPFiP8nl_cacheP7nl_sockE"
    },
    {
     "field_name" : "co_msg_parser",
     "field_offset" : 384,
     "referenced_type" : "_ZTIPFiP12nl_cache_opsP11sockaddr_nlP8nlmsghdrP15nl_parser_paramE"
    },
    {
     "field_name" : "co_event_filter",
     "field_offset" : 448,
     "referenced_type" : "_ZTIPFiP8nl_cacheP9nl_objectE"
    },
    {
     "field_name" : "co_include_event",
     "field_offset" : 512,
     "referenced_type" : "_ZTIPFiP8nl_cacheP9nl_objectPFvS0_S2_iPvES3_E"
    },
    {
     "field_name" : "reserved_1",
     "field_offset" : 576,
     "referenced_type" : "_ZTIPFvvE"
    },
    {
     "field_name" : "reserved_2",
     "field_offset" : 640,
     "referenced_type" : "_ZTIPFvvE"
    },
    {
     "field_name" : "reserved_3",
     "field_offset" : 704,
     "referenced_type" : "_ZTIPFvvE"
    },
    {
     "field_name" : "reserved_4",
     "field_offset" : 768,
     "referenced_type" : "_ZTIPFvvE"
    },
    {
     "field_name" : "reserved_5",
     "field_offset" : 832,
     "referenced_type" : "_ZTIPFvvE"
    },
    {
     "field_name" : "reserved_6",
     "field_offset" : 896,
     "referenced_type" : "_ZTIPFvvE"
    },
    {
     "field_name" : "reserved_7",
     "field_offset" : 960,
     "referenced_type" : "_ZTIPFvvE"
    },
    {
     "field_name" : "reserved_8",
     "field_offset" : 1024,
     "referenced_type" : "_ZTIPFvvE"
    },
    {
     "field_name" : "co_obj_ops",
     "field_offset" : 1088,
     "referenced_type" : "_ZTIP13nl_object_ops"
    },
    {
     "field_name" : "co_next",
     "field_offset" : 1152,
     "referenced_type" : "_ZTIP12nl_cache_ops"
    },
    {
     "field_name" : "co_major_cache",
     "field_offset" : 1216,
     "referenced_type" : "_ZTIP8nl_cache"
    },
    {
     "field_name" : "co_genl",
     "field_offset" : 1280,
     "referenced_type" : "_ZTIP8genl_ops"
    },
    {
     "field_name" : "co_msgtypes",
     "field_offset" : 1344,
     "referenced_type" : "_ZTIA_10nl_msgtype"
    }
   ],
   "linker_set_key" : "_ZTI12nl_cache_ops",
   "name" : "nl_cache_ops",
   "referenced_type" : "_ZTI12nl_cache_ops",
   "self_type" : "_ZTI12nl_cache_ops",
   "size" : 168,
   "source_file" : "/external/libnl/include/netlink-private/cache-api.h"
  },
  {
   "alignment" : 8,
   "fields" :
   [
    {
     "field_name" : "key",
     "referenced_type" : "_ZTIj"
    },
    {
     "field_name" : "key_size",
     "field_offset" : 32,
     "referenced_type" : "_ZTIj"
    },
    {
     "field_name" : "obj",
     "field_offset" : 64,
     "referenced_type" : "_ZTIP9nl_object"
    },
    {
     "field_name" : "next",
     "field_offset" : 128,
     "referenced_type" : "_ZTIP12nl_hash_node"
    }
   ],
   "linker_set_key" : "_ZTI12nl_hash_node",
   "name" : "nl_hash_node",
   "referenced_type" : "_ZTI12nl_hash_node",
   "self_type" : "_ZTI12nl_hash_node",
   "size" : 24,
   "source_file" : "/external/libnl/include/netlink/hashtable.h"
  },
  {
   "alignment" : 8,
   "fields" :
   [
    {
     "field_name" : "next",
     "referenced_type" : "_ZTIP12nl_list_head"
    },
    {
     "field_name" : "prev",
     "field_offset" : 64,
     "referenced_type" : "_ZTIP12nl_list_head"
    }
   ],
   "linker_set_key" : "_ZTI12nl_list_head",
   "name" : "nl_list_head",
   "referenced_type" : "_ZTI12nl_list_head",
   "self_type" : "_ZTI12nl_list_head",
   "size" : 16,
   "source_file" : "/external/libnl/include/netlink/list.h"
  },
  {
   "alignment" : 8,
   "fields" :
   [
    {
     "field_name" : "rtnh_flags",
     "referenced_type" : "_ZTIh"
    },
    {
     "field_name" : "rtnh_flag_mask",
     "field_offset" : 8,
     "referenced_type" : "_ZTIh"
    },
    {
     "field_name" : "rtnh_weight",
     "field_offset" : 16,
     "referenced_type" : "_ZTIh"
    },
    {
     "field_name" : "rtnh_ifindex",
     "field_offset" : 32,
     "referenced_type" : "_ZTIj"
    },
    {
     "field_name" : "rtnh_gateway",
     "field_offset" : 64,
     "referenced_type" : "_ZTIP7nl_addr"
    },
    {
     "field_name" : "ce_mask",
     "field_offset" : 128,
     "referenced_type" : "_ZTIj"
    },
    {
     "field_name" : "rtnh_list",
     "field_offset" : 192,
     "referenced_type" : "_ZTI12nl_list_head"
    },
    {
     "field_name" : "rtnh_realms",
     "field_offset" : 320,
     "referenced_type" : "_ZTIj"
    }
   ],
   "linker_set_key" : "_ZTI12rtnl_nexthop",
   "name" : "rtnl_nexthop",
   "referenced_type" : "_ZTI12rtnl_nexthop",
   "self_type" : "_ZTI12rtnl_nexthop",
   "size" : 48,
   "source_file" : "/external/libnl/include/netlink-private/types.h"
  },
  {
   "alignment" : 4,
   "fields" :
   [
    {
     "field_name" : "deficit",
     "referenced_type" : "_ZTIj"
    }
   ],
   "linker_set_key" : "_ZTI12tc_drr_stats",
   "name" : "tc_drr_stats",
   "referenced_type" : "_ZTI12tc_drr_stats",
   "self_type" : "_ZTI12tc_drr_stats",
   "size" : 4,
   "source_file" : "/external/libnl/include/linux-private/linux/pkt_sched.h"
  },
  {
   "alignment" : 1,
   "fields" :
   [
    {
     "field_name" : "interval",
     "referenced_type" : "_ZTIa"
    },
    {
     "field_name" : "ewma_log",
     "field_offset" : 8,
     "referenced_type" : "_ZTIh"
    }
   ],
   "linker_set_key" : "_ZTI12tc_estimator",
   "name" : "tc_estimator",
   "referenced_type" : "_ZTI12tc_estimator",
   "self_type" : "_ZTI12tc_estimator",
   "size" : 2,
   "source_file" : "/external/libnl/include/linux-private/linux/pkt_sched.h"
  },
  {
   "alignment" : 4,
   "fields" :
   [
    {
     "field_name" : "limit",
     "referenced_type" : "_ZTIj"
    }
   ],
   "linker_set_key" : "_ZTI12tc_fifo_qopt",
   "name" : "tc_fifo_qopt",
   "referenced_type" : "_ZTI12tc_fifo_qopt",
   "self_type" : "_ZTI12tc_fifo_qopt",
   "size" : 4,
   "source_file" : "/external/libnl/include/linux-private/linux/pkt_sched.h"
  },
  {
   "alignment" : 4,
   "fields" :
   [
    {
     "field_name" : "limit",
     "referenced_type" : "_ZTIj"
    },
    {
     "field_name" : "qth_min",
     "field_offset" : 32,
     "referenced_type" : "_ZTIj"
    },
    {
     "field_name" : "qth_max",
     "field_offset" : 64,
     "referenced_type" : "_ZTIj"
    },
    {
     "field_name" : "DP",
     "field_offset" : 96,
     "referenced_type" : "_ZTIj"
    },
    {
     "field_name" : "backlog",
     "field_offset" : 128,
     "referenced_type" : "_ZTIj"
    },
    {
     "field_name" : "qave",
     "field_offset" : 160,
     "referenced_type" : "_ZTIj"
    },
    {
     "field_name" : "forced",
     "field_offset" : 192,
     "referenced_type" : "_ZTIj"
    },
    {
     "field_name" : "early",
     "field_offset" : 224,
     "referenced_type" : "_ZTIj"
    },
    {
     "field_name" : "other",
     "field_offset" : 256,
     "referenced_type" : "_ZTIj"
    },
    {
     "field_name" : "pdrop",
     "field_offset" : 288,
     "referenced_type" : "_ZTIj"
    },
    {
     "field_name" : "Wlog",
     "field_offset" : 320,
     "referenced_type" : "_ZTIh"
    },
    {
     "field_name" : "Plog",
     "field_offset" : 328,
     "referenced_type" : "_ZTIh"
    },
    {
     "field_name" : "Scell_log",
     "field_offset" : 336,
     "referenced_type" : "_ZTIh"
    },
    {
     "field_name" : "prio",
     "field_offset" : 344,
     "referenced_type" : "_ZTIh"
    },
    {
     "field_name" : "packets",
     "field_offset" : 352,
     "referenced_type" : "_ZTIj"
    },
    {
     "field_name" : "bytesin",
     "field_offset" : 384,
     "referenced_type" : "_ZTIj"
    }
   ],
   "linker_set_key" : "_ZTI12tc_gred_qopt",
   "name" : "tc_gred_qopt",
   "referenced_type" : "_ZTI12tc_gred_qopt",
   "self_type" : "_ZTI12tc_gred_qopt",
   "size" : 52,
   "source_file" : "/external/libnl/include/linux-private/linux/pkt_sched.h"
  },
  {
   "alignment" : 4,
   "fields" :
   [
    {
     "field_name" : "DPs",
     "referenced_type" : "_ZTIj"
    },
    {
     "field_name" : "def_DP",
     "field_offset" : 32,
     "referenced_type" : "_ZTIj"
    },
    {
     "field_name" : "grio",
     "field_offset" : 64,
     "referenced_type" : "_ZTIh"
    },
    {
     "field_name" : "flags",
     "field_offset" : 72,
     "referenced_type" : "_ZTIh"
    },
    {
     "field_name" : "pad1",
     "field_offset" : 80,
     "referenced_type" : "_ZTIt"
    }
   ],
   "linker_set_key" : "_ZTI12tc_gred_sopt",
   "name" : "tc_gred_sopt",
   "referenced_type" : "_ZTI12tc_gred_sopt",
   "self_type" : "_ZTI12tc_gred_sopt",
   "size" : 12,
   "source_file" : "/external/libnl/include/linux-private/linux/pkt_sched.h"
  },
  {
   "alignment" : 2,
   "fields" :
   [
    {
     "field_name" : "defcls",
     "referenced_type" : "_ZTIt"
    }
   ],
   "linker_set_key" : "_ZTI12tc_hfsc_qopt",
   "name" : "tc_hfsc_qopt",
   "referenced_type" : "_ZTI12tc_hfsc_qopt",
   "self_type" : "_ZTI12tc_hfsc_qopt",
   "size" : 2,
   "source_file" : "/external/libnl/include/linux-private/linux/pkt_sched.h"
  },
  {
   "alignment" : 4,
   "fields" :
   [
    {
     "field_name" : "action",
     "referenced_type" : "_ZTIi"
    },
    {
     "field_name" : "limit",
     "field_offset" : 32,
     "referenced_type" : "_ZTIj"
    }
   ],
   "linker_set_key" : "_ZTI12tc_plug_qopt",
   "name" : "tc_plug_qopt",
   "referenced_type" : "_ZTI12tc_plug_qopt",
   "self_type" : "_ZTI12tc_plug_qopt",
   "size" : 8,
   "source_file" : "/external/libnl/include/linux-private/linux/pkt_sched.h"
  },
  {
   "alignment" : 4,
   "fields" :
   [
    {
     "field_name" : "bands",
     "referenced_type" : "_ZTIi"
    },
    {
     "field_name" : "priomap",
     "field_offset" : 32,
     "referenced_type" : "_ZTIA16_h"
    }
   ],
   "linker_set_key" : "_ZTI12tc_prio_qopt",
   "name" : "tc_prio_qopt",
   "referenced_type" : "_ZTI12tc_prio_qopt",
   "self_type" : "_ZTI12tc_prio_qopt",
   "size" : 20,
   "source_file" : "/external/libnl/include/linux-private/linux/pkt_sched.h"
  },
  {
   "alignment" : 4,
   "fields" :
   [
    {
     "field_name" : "weight",
     "referenced_type" : "_ZTIj"
    },
    {
     "field_name" : "lmax",
     "field_offset" : 32,
     "referenced_type" : "_ZTIj"
    }
   ],
   "linker_set_key" : "_ZTI12tc_qfq_stats",
   "name" : "tc_qfq_stats",
   "referenced_type" : "_ZTI12tc_qfq_stats",
   "self_type" : "_ZTI12tc_qfq_stats",
   "size" : 8,
   "source_file" : "/external/libnl/include/linux-private/linux/pkt_sched.h"
  },
  {
   "alignment" : 8,
   "fields" :
   [
    {
     "field_name" : "data",
     "referenced_type" : "_ZTIPc"
    },
    {
     "field_name" : "len",
     "field_offset" : 64,
     "referenced_type" : "_ZTIm"
    },
    {
     "field_name" : "index",
     "field_offset" : 128,
     "referenced_type" : "_ZTIi"
    }
   ],
   "linker_set_key" : "_ZTI13ematch_quoted",
   "name" : "ematch_quoted",
   "referenced_type" : "_ZTI13ematch_quoted",
   "self_type" : "_ZTI13ematch_quoted",
   "size" : 24,
   "source_file" : "/external/libnl/include/netlink-private/types.h"
  },
  {
   "alignment" : 4,
   "fields" :
   [
    {
     "field_name" : "ifa_prefered",
     "referenced_type" : "_ZTIj"
    },
    {
     "field_name" : "ifa_valid",
     "field_offset" : 32,
     "referenced_type" : "_ZTIj"
    },
    {
     "field_name" : "cstamp",
     "field_offset" : 64,
     "referenced_type" : "_ZTIj"
    },
    {
     "field_name" : "tstamp",
     "field_offset" : 96,
     "referenced_type" : "_ZTIj"
    }
   ],
   "linker_set_key" : "_ZTI13ifa_cacheinfo",
   "name" : "ifa_cacheinfo",
   "referenced_type" : "_ZTI13ifa_cacheinfo",
   "self_type" : "_ZTI13ifa_cacheinfo",
   "size" : 16,
   "source_file" : "/external/libnl/include/linux-private/linux/if_addr.h"
  },
  {
   "alignment" : 1,
   "fields" :
   [
    {
     "field_name" : "vsi_mgr_id",
     "referenced_type" : "_ZTIh"
    },
    {
     "field_name" : "vsi_type_id",
     "field_offset" : 8,
     "referenced_type" : "_ZTIA3_h"
    },
    {
     "field_name" : "vsi_type_version",
     "field_offset" : 32,
     "referenced_type" : "_ZTIh"
    },
    {
     "field_name" : "pad",
     "field_offset" : 40,
     "referenced_type" : "_ZTIA3_h"
    }
   ],
   "linker_set_key" : "_ZTI13ifla_port_vsi",
   "name" : "ifla_port_vsi",
   "referenced_type" : "_ZTI13ifla_port_vsi",
   "self_type" : "_ZTI13ifla_port_vsi",
   "size" : 8,
   "source_file" : "/external/libnl/include/linux-private/linux/if_link.h"
  },
  {
   "alignment" : 4,
   "fields" :
   [
    {
     "field_name" : "ndm_confirmed",
     "referenced_type" : "_ZTIj"
    },
    {
     "field_name" : "ndm_used",
     "field_offset" : 32,
     "referenced_type" : "_ZTIj"
    },
    {
     "field_name" : "ndm_updated",
     "field_offset" : 64,
     "referenced_type" : "_ZTIj"
    },
    {
     "field_name" : "ndm_refcnt",
     "field_offset" : 96,
     "referenced_type" : "_ZTIj"
    }
   ],
   "linker_set_key" : "_ZTI13nda_cacheinfo",
   "name" : "nda_cacheinfo",
   "referenced_type" : "_ZTI13nda_cacheinfo",
   "self_type" : "_ZTI13nda_cacheinfo",
   "size" : 16,
   "source_file" : "/external/libnl/include/linux-private/linux/neighbour.h"
  },
  {
   "alignment" : 2,
   "fields" :
   [
    {
     "field_name" : "port",
     "referenced_type" : "_ZTIN13nfnl_ct_protoUt_E"
    },
    {
     "field_name" : "icmp",
     "referenced_type" : "_ZTIN13nfnl_ct_protoUt_E"
    }
   ],
   "linker_set_key" : "_ZTI13nfnl_ct_proto",
   "name" : "nfnl_ct_proto",
   "record_kind" : "union",
   "referenced_type" : "_ZTI13nfnl_ct_proto",
   "self_type" : "_ZTI13nfnl_ct_proto",
   "size" : 4,
   "source_file" : "/external/libnl/include/netlink-private/types.h"
  },
  {
   "alignment" : 8,
   "fields" :
   [
    {
     "field_name" : "cm_protocol",
     "referenced_type" : "_ZTIi"
    },
    {
     "field_name" : "cm_flags",
     "field_offset" : 32,
     "referenced_type" : "_ZTIi"
    },
    {
     "field_name" : "cm_nassocs",
     "field_offset" : 64,
     "referenced_type" : "_ZTIi"
    },
    {
     "field_name" : "cm_sock",
     "field_offset" : 128,
     "referenced_type" : "_ZTIP7nl_sock"
    },
    {
     "field_name" : "cm_sync_sock",
     "field_offset" : 192,
     "referenced_type" : "_ZTIP7nl_sock"
    },
    {
     "field_name" : "cm_assocs",
     "field_offset" : 256,
     "referenced_type" : "_ZTIP14nl_cache_assoc"
    }
   ],
   "linker_set_key" : "_ZTI13nl_cache_mngr",
   "name" : "nl_cache_mngr",
   "referenced_type" : "_ZTI13nl_cache_mngr",
   "self_type" : "_ZTI13nl_cache_mngr",
   "size" : 40,
   "source_file" : "/external/libnl/include/netlink-private/types.h"
  },
  {
   "alignment" : 8,
   "fields" :
   [
    {
     "field_name" : "size",
     "referenced_type" : "_ZTIi"
    },
    {
     "field_name" : "nodes",
     "field_offset" : 64,
     "referenced_type" : "_ZTIPP12nl_hash_node"
    }
   ],
   "linker_set_key" : "_ZTI13nl_hash_table",
   "name" : "nl_hash_table",
   "referenced_type" : "_ZTI13nl_hash_table",
   "self_type" : "_ZTI13nl_hash_table",
   "size" : 16,
   "source_file" : "/external/libnl/include/netlink/hashtable.h"
  },
  {
   "alignment" : 8,
   "fields" :
   [
    {
     "field_name" : "oo_name",
     "referenced_type" : "_ZTIPc"
    },
    {
     "field_name" : "oo_size",
     "field_offset" : 64,
     "referenced_type" : "_ZTIm"
    },
    {
     "field_name" : "oo_id_attrs",
     "field_offset" : 128,
     "referenced_type" : "_ZTIj"
    },
    {
     "field_name" : "oo_constructor",
     "field_offset" : 192,
     "referenced_type" : "_ZTIPFvP9nl_objectE"
    },
    {
     "field_name" : "oo_free_data",
     "field_offset" : 256,
     "referenced_type" : "_ZTIPFvP9nl_objectE"
    },
    {
     "field_name" : "oo_clone",
     "field_offset" : 320,
     "referenced_type" : "_ZTIPFiP9nl_objectS0_E"
    },
    {
     "field_name" : "oo_dump",
     "field_offset" : 384,
     "referenced_type" : "_ZTIA3_PFvP9nl_objectP14nl_dump_paramsE"
    },
    {
     "field_name" : "oo_compare",
     "field_offset" : 576,
     "referenced_type" : "_ZTIPFiP9nl_objectS0_jiE"
    },
    {
     "field_name" : "oo_update",
     "field_offset" : 640,
     "referenced_type" : "_ZTIPFiP9nl_objectS0_E"
    },
    {
     "field_name" : "oo_keygen",
     "field_offset" : 704,
     "referenced_type" : "_ZTIPFvP9nl_objectPjjE"
    },
    {
     "field_name" : "oo_attrs2str",
     "field_offset" : 768,
     "referenced_type" : "_ZTIPFPciS_mE"
    },
    {
     "field_name" : "oo_id_attrs_get",
     "field_offset" : 832,
     "referenced_type" : "_ZTIPFjP9nl_objectE"
    }
   ],
   "linker_set_key" : "_ZTI13nl_object_ops",
   "name" : "nl_object_ops",
   "referenced_type" : "_ZTI13nl_object_ops",
   "self_type" : "_ZTI13nl_object_ops",
   "size" : 112,
   "source_file" : "/external/libnl/include/netlink-private/object-api.h"
  },
  {
   "alignment" : 4,
   "fields" :
   [
    {
     "field_name" : "rta_clntref",
     "referenced_type" : "_ZTIj"
    },
    {
     "field_name" : "rta_lastuse",
     "field_offset" : 32,
     "referenced_type" : "_ZTIj"
    },
    {
     "field_name" : "rta_expires",
     "field_offset" : 64,
     "referenced_type" : "_ZTIi"
    },
    {
     "field_name" : "rta_error",
     "field_offset" : 96,
     "referenced_type" : "_ZTIj"
    },
    {
     "field_name" : "rta_used",
     "field_offset" : 128,
     "referenced_type" : "_ZTIj"
    },
    {
     "field_name" : "rta_id",
     "field_offset" : 160,
     "referenced_type" : "_ZTIj"
    },
    {
     "field_name" : "rta_ts",
     "field_offset" : 192,
     "referenced_type" : "_ZTIj"
    },
    {
     "field_name" : "rta_tsage",
     "field_offset" : 224,
     "referenced_type" : "_ZTIj"
    }
   ],
   "linker_set_key" : "_ZTI13rta_cacheinfo",
   "name" : "rta_cacheinfo",
   "referenced_type" : "_ZTI13rta_cacheinfo",
   "self_type" : "_ZTI13rta_cacheinfo",
   "size" : 32,
   "source_file" : "/external/libnl/include/linux-private/linux/rtnetlink.h"
  },
  {
   "alignment" : 4,
   "fields" :
   [
    {
     "field_name" : "fq_limit",
     "referenced_type" : "_ZTIi"
    },
    {
     "field_name" : "fq_target",
     "field_offset" : 32,
     "referenced_type" : "_ZTIj"
    },
    {
     "field_name" : "fq_interval",
     "field_offset" : 64,
     "referenced_type" : "_ZTIj"
    },
    {
     "field_name" : "fq_flows",
     "field_offset" : 96,
     "referenced_type" : "_ZTIi"
    },
    {
     "field_name" : "fq_quantum",
     "field_offset" : 128,
     "referenced_type" : "_ZTIj"
    },
    {
     "field_name" : "fq_ecn",
     "field_offset" : 160,
     "referenced_type" : "_ZTIi"
    },
    {
     "field_name" : "fq_mask",
     "field_offset" : 192,
     "referenced_type" : "_ZTIj"
    }
   ],
   "linker_set_key" : "_ZTI13rtnl_fq_codel",
   "name" : "rtnl_fq_codel",
   "referenced_type" : "_ZTI13rtnl_fq_codel",
   "self_type" : "_ZTI13rtnl_fq_codel",
   "size" : 28,
   "source_file" : "/external/libnl/include/netlink-private/types.h"
  },
  {
   "alignment" : 8,
   "fields" :
   [
    {
     "field_name" : "lm_mem_start",
     "referenced_type" : "_ZTIm"
    },
    {
     "field_name" : "lm_mem_end",
     "field_offset" : 64,
     "referenced_type" : "_ZTIm"
    },
    {
     "field_name" : "lm_base_addr",
     "field_offset" : 128,
     "referenced_type" : "_ZTIm"
    },
    {
     "field_name" : "lm_irq",
     "field_offset" : 192,
     "referenced_type" : "_ZTIt"
    },
    {
     "field_name" : "lm_dma",
     "field_offset" : 208,
     "referenced_type" : "_ZTIh"
    },
    {
     "field_name" : "lm_port",
     "field_offset" : 216,
     "referenced_type" : "_ZTIh"
    }
   ],
   "linker_set_key" : "_ZTI13rtnl_link_map",
   "name" : "rtnl_link_map",
   "referenced_type" : "_ZTI13rtnl_link_map",
   "self_type" : "_ZTI13rtnl_link_map",
   "size" : 32,
   "source_file" : "/external/libnl/include/netlink-private/types.h"
  },
  {
   "alignment" : 8,
   "fields" :
   [
    {
     "field_name" : "ce_refcnt",
     "referenced_type" : "_ZTIi"
    },
    {
     "field_name" : "ce_ops",
     "field_offset" : 64,
     "referenced_type" : "_ZTIP13nl_object_ops"
    },
    {
     "field_name" : "ce_cache",
     "field_offset" : 128,
     "referenced_type" : "_ZTIP8nl_cache"
    },
    {
     "field_name" : "ce_list",
     "field_offset" : 192,
     "referenced_type" : "_ZTI12nl_list_head"
    },
    {
     "field_name" : "ce_msgtype",
     "field_offset" : 320,
     "referenced_type" : "_ZTIi"
    },
    {
     "field_name" : "ce_flags",
     "field_offset" : 352,
     "referenced_type" : "_ZTIi"
    },
    {
     "field_name" : "ce_mask",
     "field_offset" : 384,
     "referenced_type" : "_ZTIj"
    },
    {
     "field_name" : "nt_name",
     "field_offset" : 416,
     "referenced_type" : "_ZTIA32_c"
    },
    {
     "field_name" : "nt_family",
     "field_offset" : 672,
     "referenced_type" : "_ZTIj"
    },
    {
     "field_name" : "nt_gc_thresh1",
     "field_offset" : 704,
     "referenced_type" : "_ZTIj"
    },
    {
     "field_name" : "nt_gc_thresh2",
     "field_offset" : 736,
     "referenced_type" : "_ZTIj"
    },
    {
     "field_name" : "nt_gc_thresh3",
     "field_offset" : 768,
     "referenced_type" : "_ZTIj"
    },
    {
     "field_name" : "nt_gc_interval",
     "field_offset" : 832,
     "referenced_type" : "_ZTIm"
    },
    {
     "field_name" : "nt_config",
     "field_offset" : 896,
     "referenced_type" : "_ZTI10ndt_config"
    },
    {
     "field_name" : "nt_parms",
     "field_offset" : 1152,
     "referenced_type" : "_ZTI19rtnl_neightbl_parms"
    },
    {
     "field_name" : "nt_stats",
     "field_offset" : 1920,
     "referenced_type" : "_ZTI9ndt_stats"
    }
   ],
   "linker_set_key" : "_ZTI13rtnl_neightbl",
   "name" : "rtnl_neightbl",
   "referenced_type" : "_ZTI13rtnl_neightbl",
   "self_type" : "_ZTI13rtnl_neightbl",
   "size" : 320,
   "source_file" : "/external/libnl/include/netlink-private/types.h"
  },
  {
   "alignment" : 4,
   "fields" :
   [
    {
     "field_name" : "rs_cell_log",
     "referenced_type" : "_ZTIh"
    },
    {
     "field_name" : "rs_overhead",
     "field_offset" : 16,
     "referenced_type" : "_ZTIt"
    },
    {
     "field_name" : "rs_cell_align",
     "field_offset" : 32,
     "referenced_type" : "_ZTIs"
    },
    {
     "field_name" : "rs_mpu",
     "field_offset" : 48,
     "referenced_type" : "_ZTIt"
    },
    {
     "field_name" : "rs_rate",
     "field_offset" : 64,
     "referenced_type" : "_ZTIj"
    }
   ],
   "linker_set_key" : "_ZTI13rtnl_ratespec",
   "name" : "rtnl_ratespec",
   "referenced_type" : "_ZTI13rtnl_ratespec",
   "self_type" : "_ZTI13rtnl_ratespec",
   "size" : 12,
   "source_file" : "/external/libnl/include/netlink-private/types.h"
  },
  {
   "alignment" : 4,
   "fields" :
   [
    {
     "field_name" : "change",
     "referenced_type" : "_ZTIh"
    },
    {
     "field_name" : "flags",
     "field_offset" : 8,
     "referenced_type" : "_ZTIh"
    },
    {
     "field_name" : "ewma_log",
     "field_offset" : 16,
     "referenced_type" : "_ZTIh"
    },
    {
     "field_name" : "level",
     "field_offset" : 24,
     "referenced_type" : "_ZTIh"
    },
    {
     "field_name" : "maxidle",
     "field_offset" : 32,
     "referenced_type" : "_ZTIj"
    },
    {
     "field_name" : "minidle",
     "field_offset" : 64,
     "referenced_type" : "_ZTIj"
    },
    {
     "field_name" : "offtime",
     "field_offset" : 96,
     "referenced_type" : "_ZTIj"
    },
    {
     "field_name" : "avpkt",
     "field_offset" : 128,
     "referenced_type" : "_ZTIj"
    }
   ],
   "linker_set_key" : "_ZTI13tc_cbq_lssopt",
   "name" : "tc_cbq_lssopt",
   "referenced_type" : "_ZTI13tc_cbq_lssopt",
   "self_type" : "_ZTI13tc_cbq_lssopt",
   "size" : 20,
   "source_file" : "/external/libnl/include/linux-private/linux/pkt_sched.h"
  },
  {
   "alignment" : 2,
   "fields" :
   [
    {
     "field_name" : "police",
     "referenced_type" : "_ZTIh"
    },
    {
     "field_name" : "__res1",
     "field_offset" : 8,
     "referenced_type" : "_ZTIh"
    },
    {
     "field_name" : "__res2",
     "field_offset" : 16,
     "referenced_type" : "_ZTIt"
    }
   ],
   "linker_set_key" : "_ZTI13tc_cbq_police",
   "name" : "tc_cbq_police",
   "referenced_type" : "_ZTI13tc_cbq_police",
   "self_type" : "_ZTI13tc_cbq_police",
   "size" : 4,
   "source_file" : "/external/libnl/include/linux-private/linux/pkt_sched.h"
  },
  {
   "alignment" : 4,
   "fields" :
   [
    {
     "field_name" : "flags",
     "referenced_type" : "_ZTIh"
    },
    {
     "field_name" : "priority",
     "field_offset" : 8,
     "referenced_type" : "_ZTIh"
    },
    {
     "field_name" : "cpriority",
     "field_offset" : 16,
     "referenced_type" : "_ZTIh"
    },
    {
     "field_name" : "__reserved",
     "field_offset" : 24,
     "referenced_type" : "_ZTIh"
    },
    {
     "field_name" : "allot",
     "field_offset" : 32,
     "referenced_type" : "_ZTIj"
    },
    {
     "field_name" : "weight",
     "field_offset" : 64,
     "referenced_type" : "_ZTIj"
    }
   ],
   "linker_set_key" : "_ZTI13tc_cbq_wrropt",
   "name" : "tc_cbq_wrropt",
   "referenced_type" : "_ZTI13tc_cbq_wrropt",
   "self_type" : "_ZTI13tc_cbq_wrropt",
   "size" : 12,
   "source_file" : "/external/libnl/include/linux-private/linux/pkt_sched.h"
  },
  {
   "alignment" : 4,
   "fields" :
   [
    {
     "field_name" : "borrows",
     "referenced_type" : "_ZTIj"
    },
    {
     "field_name" : "overactions",
     "field_offset" : 32,
     "referenced_type" : "_ZTIj"
    },
    {
     "field_name" : "avgidle",
     "field_offset" : 64,
     "referenced_type" : "_ZTIi"
    },
    {
     "field_name" : "undertime",
     "field_offset" : 96,
     "referenced_type" : "_ZTIi"
    }
   ],
   "linker_set_key" : "_ZTI13tc_cbq_xstats",
   "name" : "tc_cbq_xstats",
   "referenced_type" : "_ZTI13tc_cbq_xstats",
   "self_type" : "_ZTI13tc_cbq_xstats",
   "size" : 16,
   "source_file" : "/external/libnl/include/linux-private/linux/pkt_sched.h"
  },
  {
   "alignment" : 4,
   "fields" :
   [
    {
     "field_name" : "limit",
     "referenced_type" : "_ZTIj"
    },
    {
     "field_name" : "qth_min",
     "field_offset" : 32,
     "referenced_type" : "_ZTIj"
    },
    {
     "field_name" : "qth_max",
     "field_offset" : 64,
     "referenced_type" : "_ZTIj"
    },
    {
     "field_name" : "Wlog",
     "field_offset" : 96,
     "referenced_type" : "_ZTIh"
    },
    {
     "field_name" : "Plog",
     "field_offset" : 104,
     "referenced_type" : "_ZTIh"
    },
    {
     "field_name" : "Scell_log",
     "field_offset" : 112,
     "referenced_type" : "_ZTIh"
    },
    {
     "field_name" : "flags",
     "field_offset" : 120,
     "referenced_type" : "_ZTIh"
    }
   ],
   "linker_set_key" : "_ZTI13tc_choke_qopt",
   "name" : "tc_choke_qopt",
   "referenced_type" : "_ZTI13tc_choke_qopt",
   "self_type" : "_ZTI13tc_choke_qopt",
   "size" : 16,
   "source_file" : "/external/libnl/include/linux-private/linux/pkt_sched.h"
  },
  {
   "alignment" : 8,
   "fields" :
   [
    {
     "field_name" : "work",
     "referenced_type" : "_ZTIy"
    },
    {
     "field_name" : "rtwork",
     "field_offset" : 64,
     "referenced_type" : "_ZTIy"
    },
    {
     "field_name" : "period",
     "field_offset" : 128,
     "referenced_type" : "_ZTIj"
    },
    {
     "field_name" : "level",
     "field_offset" : 160,
     "referenced_type" : "_ZTIj"
    }
   ],
   "linker_set_key" : "_ZTI13tc_hfsc_stats",
   "name" : "tc_hfsc_stats",
   "referenced_type" : "_ZTI13tc_hfsc_stats",
   "self_type" : "_ZTI13tc_hfsc_stats",
   "size" : 24,
   "source_file" : "/external/libnl/include/linux-private/linux/pkt_sched.h"
  },
  {
   "alignment" : 4,
   "fields" :
   [
    {
     "field_name" : "lends",
     "referenced_type" : "_ZTIj"
    },
    {
     "field_name" : "borrows",
     "field_offset" : 32,
     "referenced_type" : "_ZTIj"
    },
    {
     "field_name" : "giants",
     "field_offset" : 64,
     "referenced_type" : "_ZTIj"
    },
    {
     "field_name" : "tokens",
     "field_offset" : 96,
     "referenced_type" : "_ZTIj"
    },
    {
     "field_name" : "ctokens",
     "field_offset" : 128,
     "referenced_type" : "_ZTIj"
    }
   ],
   "linker_set_key" : "_ZTI13tc_htb_xstats",
   "name" : "tc_htb_xstats",
   "referenced_type" : "_ZTI13tc_htb_xstats",
   "self_type" : "_ZTI13tc_htb_xstats",
   "size" : 20,
   "source_file" : "/external/libnl/include/linux-private/linux/pkt_sched.h"
  },
  {
   "alignment" : 4,
   "fields" :
   [
    {
     "field_name" : "delay_corr",
     "referenced_type" : "_ZTIj"
    },
    {
     "field_name" : "loss_corr",
     "field_offset" : 32,
     "referenced_type" : "_ZTIj"
    },
    {
     "field_name" : "dup_corr",
     "field_offset" : 64,
     "referenced_type" : "_ZTIj"
    }
   ],
   "linker_set_key" : "_ZTI13tc_netem_corr",
   "name" : "tc_netem_corr",
   "referenced_type" : "_ZTI13tc_netem_corr",
   "self_type" : "_ZTI13tc_netem_corr",
   "size" : 12,
   "source_file" : "/external/libnl/include/linux-private/linux/pkt_sched.h"
  },
  {
   "alignment" : 4,
   "fields" :
   [
    {
     "field_name" : "latency",
     "referenced_type" : "_ZTIj"
    },
    {
     "field_name" : "limit",
     "field_offset" : 32,
     "referenced_type" : "_ZTIj"
    },
    {
     "field_name" : "loss",
     "field_offset" : 64,
     "referenced_type" : "_ZTIj"
    },
    {
     "field_name" : "gap",
     "field_offset" : 96,
     "referenced_type" : "_ZTIj"
    },
    {
     "field_name" : "duplicate",
     "field_offset" : 128,
     "referenced_type" : "_ZTIj"
    },
    {
     "field_name" : "jitter",
     "field_offset" : 160,
     "referenced_type" : "_ZTIj"
    }
   ],
   "linker_set_key" : "_ZTI13tc_netem_qopt",
   "name" : "tc_netem_qopt",
   "referenced_type" : "_ZTI13tc_netem_qopt",
   "self_type" : "_ZTI13tc_netem_qopt",
   "size" : 24,
   "source_file" : "/external/libnl/include/linux-private/linux/pkt_sched.h"
  },
  {
   "alignment" : 4,
   "fields" :
   [
    {
     "field_name" : "early",
     "referenced_type" : "_ZTIj"
    },
    {
     "field_name" : "pdrop",
     "field_offset" : 32,
     "referenced_type" : "_ZTIj"
    },
    {
     "field_name" : "other",
     "field_offset" : 64,
     "referenced_type" : "_ZTIj"
    },
    {
     "field_name" : "marked",
     "field_offset" : 96,
     "referenced_type" : "_ZTIj"
    }
   ],
   "linker_set_key" : "_ZTI13tc_red_xstats",
   "name" : "tc_red_xstats",
   "referenced_type" : "_ZTI13tc_red_xstats",
   "self_type" : "_ZTI13tc_red_xstats",
   "size" : 16,
   "source_file" : "/external/libnl/include/linux-private/linux/pkt_sched.h"
  },
  {
   "alignment" : 4,
   "fields" :
   [
    {
     "field_name" : "dpi",
     "referenced_type" : "_ZTI11tc_rsvp_gpi"
    },
    {
     "field_name" : "spi",
     "field_offset" : 96,
     "referenced_type" : "_ZTI11tc_rsvp_gpi"
    },
    {
     "field_name" : "protocol",
     "field_offset" : 192,
     "referenced_type" : "_ZTIh"
    },
    {
     "field_name" : "tunnelid",
     "field_offset" : 200,
     "referenced_type" : "_ZTIh"
    },
    {
     "field_name" : "tunnelhdr",
     "field_offset" : 208,
     "referenced_type" : "_ZTIh"
    },
    {
     "field_name" : "pad",
     "field_offset" : 216,
     "referenced_type" : "_ZTIh"
    }
   ],
   "linker_set_key" : "_ZTI13tc_rsvp_pinfo",
   "name" : "tc_rsvp_pinfo",
   "referenced_type" : "_ZTI13tc_rsvp_pinfo",
   "self_type" : "_ZTI13tc_rsvp_pinfo",
   "size" : 28,
   "source_file" : "/external/libnl/include/linux-private/linux/pkt_cls.h"
  },
  {
   "alignment" : 4,
   "fields" :
   [
    {
     "field_name" : "earlydrop",
     "referenced_type" : "_ZTIj"
    },
    {
     "field_name" : "penaltydrop",
     "field_offset" : 32,
     "referenced_type" : "_ZTIj"
    },
    {
     "field_name" : "bucketdrop",
     "field_offset" : 64,
     "referenced_type" : "_ZTIj"
    },
    {
     "field_name" : "queuedrop",
     "field_offset" : 96,
     "referenced_type" : "_ZTIj"
    },
    {
     "field_name" : "childdrop",
     "field_offset" : 128,
     "referenced_type" : "_ZTIj"
    },
    {
     "field_name" : "marked",
     "field_offset" : 160,
     "referenced_type" : "_ZTIj"
    },
    {
     "field_name" : "maxqlen",
     "field_offset" : 192,
     "referenced_type" : "_ZTIj"
    },
    {
     "field_name" : "maxprob",
     "field_offset" : 224,
     "referenced_type" : "_ZTIj"
    },
    {
     "field_name" : "avgprob",
     "field_offset" : 256,
     "referenced_type" : "_ZTIj"
    }
   ],
   "linker_set_key" : "_ZTI13tc_sfb_xstats",
   "name" : "tc_sfb_xstats",
   "referenced_type" : "_ZTI13tc_sfb_xstats",
   "self_type" : "_ZTI13tc_sfb_xstats",
   "size" : 36,
   "source_file" : "/external/libnl/include/linux-private/linux/pkt_sched.h"
  },
  {
   "alignment" : 4,
   "fields" :
   [
    {
     "field_name" : "allot",
     "referenced_type" : "_ZTIi"
    }
   ],
   "linker_set_key" : "_ZTI13tc_sfq_xstats",
   "name" : "tc_sfq_xstats",
   "referenced_type" : "_ZTI13tc_sfq_xstats",
   "self_type" : "_ZTI13tc_sfq_xstats",
   "size" : 4,
   "source_file" : "/external/libnl/include/linux-private/linux/pkt_sched.h"
  },
  {
   "alignment" : 8,
   "fields" :
   [
    {
     "field_name" : "o_id",
     "referenced_type" : "_ZTIj"
    },
    {
     "field_name" : "o_flags",
     "field_offset" : 32,
     "referenced_type" : "_ZTIj"
    },
    {
     "field_name" : "o_list",
     "field_offset" : 64,
     "referenced_type" : "_ZTI12nl_list_head"
    }
   ],
   "linker_set_key" : "_ZTI14genl_family_op",
   "name" : "genl_family_op",
   "referenced_type" : "_ZTI14genl_family_op",
   "self_type" : "_ZTI14genl_family_op",
   "size" : 24,
   "source_file" : "/external/libnl/include/netlink-private/types.h"
  },
  {
   "alignment" : 1,
   "fields" :
   [
    {
     "field_name" : "interval",
     "referenced_type" : "_ZTIa"
    },
    {
     "field_name" : "ewma_log",
     "field_offset" : 8,
     "referenced_type" : "_ZTIh"
    }
   ],
   "linker_set_key" : "_ZTI14gnet_estimator",
   "name" : "gnet_estimator",
   "referenced_type" : "_ZTI14gnet_estimator",
   "self_type" : "_ZTI14gnet_estimator",
   "size" : 2,
   "source_file" : "/external/libnl/include/linux-private/linux/gen_stats.h"
  },
  {
   "alignment" : 4,
   "fields" :
   [
    {
     "field_name" : "max_reasm_len",
     "referenced_type" : "_ZTIj"
    },
    {
     "field_name" : "tstamp",
     "field_offset" : 32,
     "referenced_type" : "_ZTIj"
    },
    {
     "field_name" : "reachable_time",
     "field_offset" : 64,
     "referenced_type" : "_ZTIj"
    },
    {
     "field_name" : "retrans_time",
     "field_offset" : 96,
     "referenced_type" : "_ZTIj"
    }
   ],
   "linker_set_key" : "_ZTI14ifla_cacheinfo",
   "name" : "ifla_cacheinfo",
   "referenced_type" : "_ZTI14ifla_cacheinfo",
   "self_type" : "_ZTI14ifla_cacheinfo",
   "size" : 16,
   "source_file" : "/external/libnl/include/linux-private/linux/if_link.h"
  },
  {
   "alignment" : 2,
   "fields" :
   [
    {
     "field_name" : "l4protonum",
     "referenced_type" : "_ZTIh"
    },
    {
     "field_name" : "l4protodata",
     "field_offset" : 16,
     "referenced_type" : "_ZTI18nfnl_exp_protodata"
    }
   ],
   "linker_set_key" : "_ZTI14nfnl_exp_proto",
   "name" : "nfnl_exp_proto",
   "referenced_type" : "_ZTI14nfnl_exp_proto",
   "self_type" : "_ZTI14nfnl_exp_proto",
   "size" : 6,
   "source_file" : "/external/libnl/include/netlink-private/types.h"
  },
  {
   "alignment" : 8,
   "fields" :
   [
    {
     "field_name" : "ce_refcnt",
     "referenced_type" : "_ZTIi"
    },
    {
     "field_name" : "ce_ops",
     "field_offset" : 64,
     "referenced_type" : "_ZTIP13nl_object_ops"
    },
    {
     "field_name" : "ce_cache",
     "field_offset" : 128,
     "referenced_type" : "_ZTIP8nl_cache"
    },
    {
     "field_name" : "ce_list",
     "field_offset" : 192,
     "referenced_type" : "_ZTI12nl_list_head"
    },
    {
     "field_name" : "ce_msgtype",
     "field_offset" : 320,
     "referenced_type" : "_ZTIi"
    },
    {
     "field_name" : "ce_flags",
     "field_offset" : 352,
     "referenced_type" : "_ZTIi"
    },
    {
     "field_name" : "ce_mask",
     "field_offset" : 384,
     "referenced_type" : "_ZTIj"
    },
    {
     "field_name" : "queue_msg_group",
     "field_offset" : 416,
     "referenced_type" : "_ZTIt"
    },
    {
     "field_name" : "queue_msg_family",
     "field_offset" : 432,
     "referenced_type" : "_ZTIh"
    },
    {
     "field_name" : "queue_msg_hook",
     "field_offset" : 440,
     "referenced_type" : "_ZTIh"
    },
    {
     "field_name" : "queue_msg_hwproto",
     "field_offset" : 448,
     "referenced_type" : "_ZTIt"
    },
    {
     "field_name" : "queue_msg_packetid",
     "field_offset" : 480,
     "referenced_type" : "_ZTIj"
    },
    {
     "field_name" : "queue_msg_mark",
     "field_offset" : 512,
     "referenced_type" : "_ZTIj"
    },
    {
     "field_name" : "queue_msg_timestamp",
     "field_offset" : 576,
     "referenced_type" : "_ZTI7timeval"
    },
    {
     "field_name" : "queue_msg_indev",
     "field_offset" : 704,
     "referenced_type" : "_ZTIj"
    },
    {
     "field_name" : "queue_msg_outdev",
     "field_offset" : 736,
     "referenced_type" : "_ZTIj"
    },
    {
     "field_name" : "queue_msg_physindev",
     "field_offset" : 768,
     "referenced_type" : "_ZTIj"
    },
    {
     "field_name" : "queue_msg_physoutdev",
     "field_offset" : 800,
     "referenced_type" : "_ZTIj"
    },
    {
     "field_name" : "queue_msg_hwaddr",
     "field_offset" : 832,
     "referenced_type" : "_ZTIA8_h"
    },
    {
     "field_name" : "queue_msg_hwaddr_len",
     "field_offset" : 896,
     "referenced_type" : "_ZTIi"
    },
    {
     "field_name" : "queue_msg_payload",
     "field_offset" : 960,
     "referenced_type" : "_ZTIPv"
    },
    {
     "field_name" : "queue_msg_payload_len",
     "field_offset" : 1024,
     "referenced_type" : "_ZTIi"
    },
    {
     "field_name" : "queue_msg_verdict",
     "field_offset" : 1056,
     "referenced_type" : "_ZTIj"
    }
   ],
   "linker_set_key" : "_ZTI14nfnl_queue_msg",
   "name" : "nfnl_queue_msg",
   "referenced_type" : "_ZTI14nfnl_queue_msg",
   "self_type" : "_ZTI14nfnl_queue_msg",
   "size" : 136,
   "source_file" : "/external/libnl/include/netlink-private/types.h"
  },
  {
   "alignment" : 8,
   "fields" :
   [
    {
     "field_name" : "ca_cache",
     "referenced_type" : "_ZTIP8nl_cache"
    },
    {
     "field_name" : "ca_change",
     "field_offset" : 64,
     "referenced_type" : "_ZTIPFvP8nl_cacheP9nl_objectiPvE"
    },
    {
     "field_name" : "ca_change_data",
     "field_offset" : 128,
     "referenced_type" : "_ZTIPv"
    }
   ],
   "linker_set_key" : "_ZTI14nl_cache_assoc",
   "name" : "nl_cache_assoc",
   "referenced_type" : "_ZTI14nl_cache_assoc",
   "self_type" : "_ZTI14nl_cache_assoc",
   "size" : 24,
   "source_file" : "/external/libnl/include/netlink-private/types.h"
  },
  {
   "alignment" : 8,
   "fields" :
   [
    {
     "field_name" : "dp_type",
     "referenced_type" : "_ZTI12nl_dump_type"
    },
    {
     "field_name" : "dp_prefix",
     "field_offset" : 32,
     "referenced_type" : "_ZTIi"
    },
    {
     "field_name" : "dp_print_index",
     "field_offset" : 64,
     "referenced_type" : "_ZTIi"
    },
    {
     "field_name" : "dp_dump_msgtype",
     "field_offset" : 96,
     "referenced_type" : "_ZTIi"
    },
    {
     "field_name" : "dp_cb",
     "field_offset" : 128,
     "referenced_type" : "_ZTIPFvP14nl_dump_paramsPcE"
    },
    {
     "field_name" : "dp_nl_cb",
     "field_offset" : 192,
     "referenced_type" : "_ZTIPFvP14nl_dump_paramsiE"
    },
    {
     "field_name" : "dp_data",
     "field_offset" : 256,
     "referenced_type" : "_ZTIPv"
    },
    {
     "field_name" : "dp_fd",
     "field_offset" : 320,
     "referenced_type" : "_ZTIP7__sFILE"
    },
    {
     "field_name" : "dp_buf",
     "field_offset" : 384,
     "referenced_type" : "_ZTIPc"
    },
    {
     "field_name" : "dp_buflen",
     "field_offset" : 448,
     "referenced_type" : "_ZTIm"
    },
    {
     "field_name" : "dp_pre_dump",
     "field_offset" : 512,
     "referenced_type" : "_ZTIi"
    },
    {
     "field_name" : "dp_ivar",
     "field_offset" : 544,
     "referenced_type" : "_ZTIi"
    },
    {
     "field_name" : "dp_line",
     "field_offset" : 576,
     "referenced_type" : "_ZTIj"
    }
   ],
   "linker_set_key" : "_ZTI14nl_dump_params",
   "name" : "nl_dump_params",
   "referenced_type" : "_ZTI14nl_dump_params",
   "self_type" : "_ZTI14nl_dump_params",
   "size" : 80,
   "source_file" : "/external/libnl/include/netlink/types.h"
  },
  {
   "alignment" : 4,
   "fields" :
   [
    {
     "field_name" : "ch_prio",
     "referenced_type" : "_ZTIj"
    },
    {
     "field_name" : "ch_rate",
     "field_offset" : 32,
     "referenced_type" : "_ZTI13rtnl_ratespec"
    },
    {
     "field_name" : "ch_ceil",
     "field_offset" : 128,
     "referenced_type" : "_ZTI13rtnl_ratespec"
    },
    {
     "field_name" : "ch_rbuffer",
     "field_offset" : 224,
     "referenced_type" : "_ZTIj"
    },
    {
     "field_name" : "ch_cbuffer",
     "field_offset" : 256,
     "referenced_type" : "_ZTIj"
    },
    {
     "field_name" : "ch_quantum",
     "field_offset" : 288,
     "referenced_type" : "_ZTIj"
    },
    {
     "field_name" : "ch_mask",
     "field_offset" : 320,
     "referenced_type" : "_ZTIj"
    },
    {
     "field_name" : "ch_level",
     "field_offset" : 352,
     "referenced_type" : "_ZTIj"
    }
   ],
   "linker_set_key" : "_ZTI14rtnl_htb_class",
   "name" : "rtnl_htb_class",
   "referenced_type" : "_ZTI14rtnl_htb_class",
   "self_type" : "_ZTI14rtnl_htb_class",
   "size" : 48,
   "source_file" : "/external/libnl/include/netlink-private/types.h"
  },
  {
   "alignment" : 4,
   "fields" :
   [
    {
     "field_name" : "qh_rate2quantum",
     "referenced_type" : "_ZTIj"
    },
    {
     "field_name" : "qh_defcls",
     "field_offset" : 32,
     "referenced_type" : "_ZTIj"
    },
    {
     "field_name" : "qh_mask",
     "field_offset" : 64,
     "referenced_type" : "_ZTIj"
    },
    {
     "field_name" : "qh_direct_pkts",
     "field_offset" : 96,
     "referenced_type" : "_ZTIj"
    }
   ],
   "linker_set_key" : "_ZTI14rtnl_htb_qdisc",
   "name" : "rtnl_htb_qdisc",
   "referenced_type" : "_ZTI14rtnl_htb_qdisc",
   "self_type" : "_ZTI14rtnl_htb_qdisc",
   "size" : 16,
   "source_file" : "/external/libnl/include/netlink-private/types.h"
  },
  {
   "alignment" : 4,
   "fields" :
   [
    {
     "field_name" : "nmro_probability",
     "referenced_type" : "_ZTIj"
    },
    {
     "field_name" : "nmro_correlation",
     "field_offset" : 32,
     "referenced_type" : "_ZTIj"
    }
   ],
   "linker_set_key" : "_ZTI14rtnl_netem_reo",
   "name" : "rtnl_netem_reo",
   "referenced_type" : "_ZTI14rtnl_netem_reo",
   "self_type" : "_ZTI14rtnl_netem_reo",
   "size" : 8,
   "source_file" : "/external/libnl/include/netlink-private/types.h"
  },
  {
   "alignment" : 2,
   "fields" :
   [
    {
     "field_name" : "num_tc",
     "referenced_type" : "_ZTIh"
    },
    {
     "field_name" : "prio_tc_map",
     "field_offset" : 8,
     "referenced_type" : "_ZTIA16_h"
    },
    {
     "field_name" : "hw",
     "field_offset" : 136,
     "referenced_type" : "_ZTIh"
    },
    {
     "field_name" : "count",
     "field_offset" : 144,
     "referenced_type" : "_ZTIA16_t"
    },
    {
     "field_name" : "offset",
     "field_offset" : 400,
     "referenced_type" : "_ZTIA16_t"
    }
   ],
   "linker_set_key" : "_ZTI14tc_mqprio_qopt",
   "name" : "tc_mqprio_qopt",
   "referenced_type" : "_ZTI14tc_mqprio_qopt",
   "self_type" : "_ZTI14tc_mqprio_qopt",
   "size" : 82,
   "source_file" : "/external/libnl/include/linux-private/linux/pkt_sched.h"
  },
  {
   "alignment" : 2,
   "fields" :
   [
    {
     "field_name" : "bands",
     "referenced_type" : "_ZTIt"
    },
    {
     "field_name" : "max_bands",
     "field_offset" : 16,
     "referenced_type" : "_ZTIt"
    }
   ],
   "linker_set_key" : "_ZTI14tc_multiq_qopt",
   "name" : "tc_multiq_qopt",
   "referenced_type" : "_ZTI14tc_multiq_qopt",
   "self_type" : "_ZTI14tc_multiq_qopt",
   "size" : 4,
   "source_file" : "/external/libnl/include/linux-private/linux/pkt_sched.h"
  },
  {
   "alignment" : 2,
   "fields" :
   [
    {
     "field_name" : "matchid",
     "referenced_type" : "_ZTIt"
    },
    {
     "field_name" : "kind",
     "field_offset" : 16,
     "referenced_type" : "_ZTIt"
    },
    {
     "field_name" : "flags",
     "field_offset" : 32,
     "referenced_type" : "_ZTIt"
    },
    {
     "field_name" : "pad",
     "field_offset" : 48,
     "referenced_type" : "_ZTIt"
    }
   ],
   "linker_set_key" : "_ZTI14tcf_ematch_hdr",
   "name" : "tcf_ematch_hdr",
   "referenced_type" : "_ZTI14tcf_ematch_hdr",
   "self_type" : "_ZTI14tcf_ematch_hdr",
   "size" : 8,
   "source_file" : "/external/libnl/include/linux-private/linux/pkt_cls.h"
  },
  {
   "alignment" : 8,
   "fields" :
   [
    {
     "field_name" : "family",
     "referenced_type" : "_ZTIP11genl_family"
    },
    {
     "field_name" : "list",
     "field_offset" : 64,
     "referenced_type" : "_ZTI12nl_list_head"
    },
    {
     "field_name" : "name",
     "field_offset" : 192,
     "referenced_type" : "_ZTIA16_c"
    },
    {
     "field_name" : "id",
     "field_offset" : 320,
     "referenced_type" : "_ZTIj"
    }
   ],
   "linker_set_key" : "_ZTI15genl_family_grp",
   "name" : "genl_family_grp",
   "referenced_type" : "_ZTI15genl_family_grp",
   "self_type" : "_ZTI15genl_family_grp",
   "size" : 48,
   "source_file" : "/external/libnl/include/netlink-private/types.h"
  },
  {
   "alignment" : 8,
   "fields" :
   [
    {
     "field_name" : "ce_refcnt",
     "referenced_type" : "_ZTIi"
    },
    {
     "field_name" : "ce_ops",
     "field_offset" : 64,
     "referenced_type" : "_ZTIP13nl_object_ops"
    },
    {
     "field_name" : "ce_cache",
     "field_offset" : 128,
     "referenced_type" : "_ZTIP8nl_cache"
    },
    {
     "field_name" : "ce_list",
     "field_offset" : 192,
     "referenced_type" : "_ZTI12nl_list_head"
    },
    {
     "field_name" : "ce_msgtype",
     "field_offset" : 320,
     "referenced_type" : "_ZTIi"
    },
    {
     "field_name" : "ce_flags",
     "field_offset" : 352,
     "referenced_type" : "_ZTIi"
    },
    {
     "field_name" : "ce_mask",
     "field_offset" : 384,
     "referenced_type" : "_ZTIj"
    },
    {
     "field_name" : "idiag_rmem",
     "field_offset" : 416,
     "referenced_type" : "_ZTIj"
    },
    {
     "field_name" : "idiag_wmem",
     "field_offset" : 448,
     "referenced_type" : "_ZTIj"
    },
    {
     "field_name" : "idiag_fmem",
     "field_offset" : 480,
     "referenced_type" : "_ZTIj"
    },
    {
     "field_name" : "idiag_tmem",
     "field_offset" : 512,
     "referenced_type" : "_ZTIj"
    }
   ],
   "linker_set_key" : "_ZTI15idiagnl_meminfo",
   "name" : "idiagnl_meminfo",
   "referenced_type" : "_ZTI15idiagnl_meminfo",
   "self_type" : "_ZTI15idiagnl_meminfo",
   "size" : 72,
   "source_file" : "/external/libnl/include/netlink-private/types.h"
  },
  {
   "alignment" : 4,
   "fields" :
   [
    {
     "field_name" : "vf",
     "referenced_type" : "_ZTIj"
    },
    {
     "field_name" : "rate",
     "field_offset" : 32,
     "referenced_type" : "_ZTIj"
    }
   ],
   "linker_set_key" : "_ZTI15ifla_vf_tx_rate",
   "name" : "ifla_vf_tx_rate",
   "referenced_type" : "_ZTI15ifla_vf_tx_rate",
   "self_type" : "_ZTI15ifla_vf_tx_rate",
   "size" : 8,
   "source_file" : "/external/libnl/include/linux-private/linux/if_link.h"
  },
  {
   "alignment" : 4,
   "fields" :
   [
    {
     "field_name" : "flags",
     "referenced_type" : "_ZTIj"
    },
    {
     "field_name" : "mask",
     "field_offset" : 32,
     "referenced_type" : "_ZTIj"
    }
   ],
   "linker_set_key" : "_ZTI15ifla_vlan_flags",
   "name" : "ifla_vlan_flags",
   "referenced_type" : "_ZTI15ifla_vlan_flags",
   "self_type" : "_ZTI15ifla_vlan_flags",
   "size" : 8,
   "source_file" : "/external/libnl/include/linux-private/linux/if_link.h"
  },
  {
   "alignment" : 8,
   "fields" :
   [
    {
     "field_name" : "pp_cb",
     "referenced_type" : "_ZTIPFiP9nl_objectP15nl_parser_paramE"
    },
    {
     "field_name" : "pp_arg",
     "field_offset" : 64,
     "referenced_type" : "_ZTIPv"
    }
   ],
   "linker_set_key" : "_ZTI15nl_parser_param",
   "name" : "nl_parser_param",
   "referenced_type" : "_ZTI15nl_parser_param",
   "self_type" : "_ZTI15nl_parser_param",
   "size" : 16,
   "source_file" : "/external/libnl/include/netlink-private/cache-api.h"
  },
  {
   "alignment" : 8,
   "fields" :
   [
    {
     "field_name" : "mem_start",
     "referenced_type" : "_ZTIy"
    },
    {
     "field_name" : "mem_end",
     "field_offset" : 64,
     "referenced_type" : "_ZTIy"
    },
    {
     "field_name" : "base_addr",
     "field_offset" : 128,
     "referenced_type" : "_ZTIy"
    },
    {
     "field_name" : "irq",
     "field_offset" : 192,
     "referenced_type" : "_ZTIt"
    },
    {
     "field_name" : "dma",
     "field_offset" : 208,
     "referenced_type" : "_ZTIh"
    },
    {
     "field_name" : "port",
     "field_offset" : 216,
     "referenced_type" : "_ZTIh"
    }
   ],
   "linker_set_key" : "_ZTI15rtnl_link_ifmap",
   "name" : "rtnl_link_ifmap",
   "referenced_type" : "_ZTI15rtnl_link_ifmap",
   "self_type" : "_ZTI15rtnl_link_ifmap",
   "size" : 32,
   "source_file" : "/external/libnl/include/linux-private/linux/if_link.h"
  },
  {
   "alignment" : 4,
   "fields" :
   [
    {
     "field_name" : "rx_packets",
     "referenced_type" : "_ZTIj"
    },
    {
     "field_name" : "tx_packets",
     "field_offset" : 32,
     "referenced_type" : "_ZTIj"
    },
    {
     "field_name" : "rx_bytes",
     "field_offset" : 64,
     "referenced_type" : "_ZTIj"
    },
    {
     "field_name" : "tx_bytes",
     "field_offset" : 96,
     "referenced_type" : "_ZTIj"
    },
    {
     "field_name" : "rx_errors",
     "field_offset" : 128,
     "referenced_type" : "_ZTIj"
    },
    {
     "field_name" : "tx_errors",
     "field_offset" : 160,
     "referenced_type" : "_ZTIj"
    },
    {
     "field_name" : "rx_dropped",
     "field_offset" : 192,
     "referenced_type" : "_ZTIj"
    },
    {
     "field_name" : "tx_dropped",
     "field_offset" : 224,
     "referenced_type" : "_ZTIj"
    },
    {
     "field_name" : "multicast",
     "field_offset" : 256,
     "referenced_type" : "_ZTIj"
    },
    {
     "field_name" : "collisions",
     "field_offset" : 288,
     "referenced_type" : "_ZTIj"
    },
    {
     "field_name" : "rx_length_errors",
     "field_offset" : 320,
     "referenced_type" : "_ZTIj"
    },
    {
     "field_name" : "rx_over_errors",
     "field_offset" : 352,
     "referenced_type" : "_ZTIj"
    },
    {
     "field_name" : "rx_crc_errors",
     "field_offset" : 384,
     "referenced_type" : "_ZTIj"
    },
    {
     "field_name" : "rx_frame_errors",
     "field_offset" : 416,
     "referenced_type" : "_ZTIj"
    },
    {
     "field_name" : "rx_fifo_errors",
     "field_offset" : 448,
     "referenced_type" : "_ZTIj"
    },
    {
     "field_name" : "rx_missed_errors",
     "field_offset" : 480,
     "referenced_type" : "_ZTIj"
    },
    {
     "field_name" : "tx_aborted_errors",
     "field_offset" : 512,
     "referenced_type" : "_ZTIj"
    },
    {
     "field_name" : "tx_carrier_errors",
     "field_offset" : 544,
     "referenced_type" : "_ZTIj"
    },
    {
     "field_name" : "tx_fifo_errors",
     "field_offset" : 576,
     "referenced_type" : "_ZTIj"
    },
    {
     "field_name" : "tx_heartbeat_errors",
     "field_offset" : 608,
     "referenced_type" : "_ZTIj"
    },
    {
     "field_name" : "tx_window_errors",
     "field_offset" : 640,
     "referenced_type" : "_ZTIj"
    },
    {
     "field_name" : "rx_compressed",
     "field_offset" : 672,
     "referenced_type" : "_ZTIj"
    },
    {
     "field_name" : "tx_compressed",
     "field_offset" : 704,
     "referenced_type" : "_ZTIj"
    }
   ],
   "linker_set_key" : "_ZTI15rtnl_link_stats",
   "name" : "rtnl_link_stats",
   "referenced_type" : "_ZTI15rtnl_link_stats",
   "self_type" : "_ZTI15rtnl_link_stats",
   "size" : 92,
   "source_file" : "/external/libnl/include/linux-private/linux/if_link.h"
  },
  {
   "alignment" : 4,
   "fields" :
   [
    {
     "field_name" : "nci_confirmed",
     "referenced_type" : "_ZTIj"
    },
    {
     "field_name" : "nci_used",
     "field_offset" : 32,
     "referenced_type" : "_ZTIj"
    },
    {
     "field_name" : "nci_updated",
     "field_offset" : 64,
     "referenced_type" : "_ZTIj"
    },
    {
     "field_name" : "nci_refcnt",
     "field_offset" : 96,
     "referenced_type" : "_ZTIj"
    }
   ],
   "linker_set_key" : "_ZTI15rtnl_ncacheinfo",
   "name" : "rtnl_ncacheinfo",
   "referenced_type" : "_ZTI15rtnl_ncacheinfo",
   "self_type" : "_ZTI15rtnl_ncacheinfo",
   "size" : 16,
   "source_file" : "/external/libnl/include/netlink-private/types.h"
  },
  {
   "alignment" : 4,
   "fields" :
   [
    {
     "field_name" : "nmc_delay",
     "referenced_type" : "_ZTIj"
    },
    {
     "field_name" : "nmc_loss",
     "field_offset" : 32,
     "referenced_type" : "_ZTIj"
    },
    {
     "field_name" : "nmc_duplicate",
     "field_offset" : 64,
     "referenced_type" : "_ZTIj"
    }
   ],
   "linker_set_key" : "_ZTI15rtnl_netem_corr",
   "name" : "rtnl_netem_corr",
   "referenced_type" : "_ZTI15rtnl_netem_corr",
   "self_type" : "_ZTI15rtnl_netem_corr",
   "size" : 12,
   "source_file" : "/external/libnl/include/netlink-private/types.h"
  },
  {
   "alignment" : 4,
   "fields" :
   [
    {
     "field_name" : "nmcr_probability",
     "referenced_type" : "_ZTIj"
    },
    {
     "field_name" : "nmcr_correlation",
     "field_offset" : 32,
     "referenced_type" : "_ZTIj"
    }
   ],
   "linker_set_key" : "_ZTI15rtnl_netem_crpt",
   "name" : "rtnl_netem_crpt",
   "referenced_type" : "_ZTI15rtnl_netem_crpt",
   "self_type" : "_ZTI15rtnl_netem_crpt",
   "size" : 8,
   "source_file" : "/external/libnl/include/netlink-private/types.h"
  },
  {
   "alignment" : 8,
   "fields" :
   [
    {
     "field_name" : "dist_data",
     "referenced_type" : "_ZTIPs"
    },
    {
     "field_name" : "dist_size",
     "field_offset" : 64,
     "referenced_type" : "_ZTIm"
    }
   ],
   "linker_set_key" : "_ZTI15rtnl_netem_dist",
   "name" : "rtnl_netem_dist",
   "referenced_type" : "_ZTI15rtnl_netem_dist",
   "self_type" : "_ZTI15rtnl_netem_dist",
   "size" : 16,
   "source_file" : "/external/libnl/include/netlink-private/types.h"
  },
  {
   "alignment" : 4,
   "fields" :
   [
    {
     "field_name" : "early",
     "referenced_type" : "_ZTIj"
    },
    {
     "field_name" : "pdrop",
     "field_offset" : 32,
     "referenced_type" : "_ZTIj"
    },
    {
     "field_name" : "other",
     "field_offset" : 64,
     "referenced_type" : "_ZTIj"
    },
    {
     "field_name" : "marked",
     "field_offset" : 96,
     "referenced_type" : "_ZTIj"
    },
    {
     "field_name" : "matched",
     "field_offset" : 128,
     "referenced_type" : "_ZTIj"
    }
   ],
   "linker_set_key" : "_ZTI15tc_choke_xstats",
   "name" : "tc_choke_xstats",
   "referenced_type" : "_ZTI15tc_choke_xstats",
   "self_type" : "_ZTI15tc_choke_xstats",
   "size" : 20,
   "source_file" : "/external/libnl/include/linux-private/linux/pkt_sched.h"
  },
  {
   "alignment" : 8,
   "fields" :
   [
    {
     "field_name" : "bytes",
     "referenced_type" : "_ZTIy"
    },
    {
     "field_name" : "packets",
     "field_offset" : 64,
     "referenced_type" : "_ZTIj"
    }
   ],
   "linker_set_key" : "_ZTI16gnet_stats_basic",
   "name" : "gnet_stats_basic",
   "referenced_type" : "_ZTI16gnet_stats_basic",
   "self_type" : "_ZTI16gnet_stats_basic",
   "size" : 16,
   "source_file" : "/external/libnl/include/linux-private/linux/gen_stats.h"
  },
  {
   "alignment" : 4,
   "fields" :
   [
    {
     "field_name" : "qlen",
     "referenced_type" : "_ZTIj"
    },
    {
     "field_name" : "backlog",
     "field_offset" : 32,
     "referenced_type" : "_ZTIj"
    },
    {
     "field_name" : "drops",
     "field_offset" : 64,
     "referenced_type" : "_ZTIj"
    },
    {
     "field_name" : "requeues",
     "field_offset" : 96,
     "referenced_type" : "_ZTIj"
    },
    {
     "field_name" : "overlimits",
     "field_offset" : 128,
     "referenced_type" : "_ZTIj"
    }
   ],
   "linker_set_key" : "_ZTI16gnet_stats_queue",
   "name" : "gnet_stats_queue",
   "referenced_type" : "_ZTI16gnet_stats_queue",
   "self_type" : "_ZTI16gnet_stats_queue",
   "size" : 20,
   "source_file" : "/external/libnl/include/linux-private/linux/gen_stats.h"
  },
  {
   "alignment" : 4,
   "fields" :
   [
    {
     "field_name" : "vf",
     "referenced_type" : "_ZTIj"
    },
    {
     "field_name" : "setting",
     "field_offset" : 32,
     "referenced_type" : "_ZTIj"
    }
   ],
   "linker_set_key" : "_ZTI16ifla_vf_spoofchk",
   "name" : "ifla_vf_spoofchk",
   "referenced_type" : "_ZTI16ifla_vf_spoofchk",
   "self_type" : "_ZTI16ifla_vf_spoofchk",
   "size" : 8,
   "source_file" : "/external/libnl/include/linux-private/linux/if_link.h"
  },
  {
   "alignment" : 1,
   "fields" :
   [
    {
     "field_name" : "type",
     "referenced_type" : "_ZTIh"
    },
    {
     "field_name" : "length",
     "field_offset" : 8,
     "referenced_type" : "_ZTIh"
    },
    {
     "field_name" : "addr",
     "field_offset" : 16,
     "referenced_type" : "_ZTI8in6_addr"
    }
   ],
   "linker_set_key" : "_ZTI16ipv6_destopt_hao",
   "name" : "ipv6_destopt_hao",
   "referenced_type" : "_ZTI16ipv6_destopt_hao",
   "self_type" : "_ZTI16ipv6_destopt_hao",
   "size" : 18,
   "source_file" : "/external/libnl/include/linux-private/linux/ipv6.h"
  },
  {
   "alignment" : 4,
   "fields" :
   [
    {
     "field_name" : "preferred_time",
     "referenced_type" : "_ZTIj"
    },
    {
     "field_name" : "valid_time",
     "field_offset" : 32,
     "referenced_type" : "_ZTIj"
    }
   ],
   "linker_set_key" : "_ZTI16prefix_cacheinfo",
   "name" : "prefix_cacheinfo",
   "referenced_type" : "_ZTI16prefix_cacheinfo",
   "self_type" : "_ZTI16prefix_cacheinfo",
   "size" : 8,
   "source_file" : "/external/libnl/include/linux-private/linux/rtnetlink.h"
  },
  {
   "alignment" : 8,
   "fields" :
   [
    {
     "field_name" : "et_progid",
     "referenced_type" : "_ZTIt"
    },
    {
     "field_name" : "et_list",
     "field_offset" : 64,
     "referenced_type" : "_ZTI12nl_list_head"
    }
   ],
   "linker_set_key" : "_ZTI16rtnl_ematch_tree",
   "name" : "rtnl_ematch_tree",
   "referenced_type" : "_ZTI16rtnl_ematch_tree",
   "self_type" : "_ZTI16rtnl_ematch_tree",
   "size" : 24,
   "source_file" : "/external/libnl/include/netlink-private/types.h"
  },
  {
   "alignment" : 4,
   "fields" :
   [
    {
     "field_name" : "rtci_clntref",
     "referenced_type" : "_ZTIj"
    },
    {
     "field_name" : "rtci_last_use",
     "field_offset" : 32,
     "referenced_type" : "_ZTIj"
    },
    {
     "field_name" : "rtci_expires",
     "field_offset" : 64,
     "referenced_type" : "_ZTIj"
    },
    {
     "field_name" : "rtci_error",
     "field_offset" : 96,
     "referenced_type" : "_ZTIi"
    },
    {
     "field_name" : "rtci_used",
     "field_offset" : 128,
     "referenced_type" : "_ZTIj"
    },
    {
     "field_name" : "rtci_id",
     "field_offset" : 160,
     "referenced_type" : "_ZTIj"
    },
    {
     "field_name" : "rtci_ts",
     "field_offset" : 192,
     "referenced_type" : "_ZTIj"
    },
    {
     "field_name" : "rtci_tsage",
     "field_offset" : 224,
     "referenced_type" : "_ZTIj"
    }
   ],
   "linker_set_key" : "_ZTI16rtnl_rtcacheinfo",
   "name" : "rtnl_rtcacheinfo",
   "referenced_type" : "_ZTI16rtnl_rtcacheinfo",
   "self_type" : "_ZTI16rtnl_rtcacheinfo",
   "size" : 32,
   "source_file" : "/external/libnl/include/netlink/route/route.h"
  },
  {
   "alignment" : 8,
   "fields" :
   [
    {
     "field_name" : "tt_type",
     "referenced_type" : "_ZTI12rtnl_tc_type"
    },
    {
     "field_name" : "tt_dump_prefix",
     "field_offset" : 64,
     "referenced_type" : "_ZTIPc"
    },
    {
     "field_name" : "tt_dump",
     "field_offset" : 128,
     "referenced_type" : "_ZTIA3_PFvP7rtnl_tcP14nl_dump_paramsE"
    }
   ],
   "linker_set_key" : "_ZTI16rtnl_tc_type_ops",
   "name" : "rtnl_tc_type_ops",
   "referenced_type" : "_ZTI16rtnl_tc_type_ops",
   "self_type" : "_ZTI16rtnl_tc_type_ops",
   "size" : 40,
   "source_file" : "/external/libnl/include/netlink-private/route/tc-api.h"
  },
  {
   "alignment" : 4,
   "fields" :
   [
    {
     "field_name" : "probability",
     "referenced_type" : "_ZTIj"
    },
    {
     "field_name" : "correlation",
     "field_offset" : 32,
     "referenced_type" : "_ZTIj"
    }
   ],
   "linker_set_key" : "_ZTI16tc_netem_corrupt",
   "name" : "tc_netem_corrupt",
   "referenced_type" : "_ZTI16tc_netem_corrupt",
   "self_type" : "_ZTI16tc_netem_corrupt",
   "size" : 8,
   "source_file" : "/external/libnl/include/linux-private/linux/pkt_sched.h"
  },
  {
   "alignment" : 4,
   "fields" :
   [
    {
     "field_name" : "p",
     "referenced_type" : "_ZTIj"
    },
    {
     "field_name" : "r",
     "field_offset" : 32,
     "referenced_type" : "_ZTIj"
    },
    {
     "field_name" : "h",
     "field_offset" : 64,
     "referenced_type" : "_ZTIj"
    },
    {
     "field_name" : "k1",
     "field_offset" : 96,
     "referenced_type" : "_ZTIj"
    }
   ],
   "linker_set_key" : "_ZTI16tc_netem_gemodel",
   "name" : "tc_netem_gemodel",
   "referenced_type" : "_ZTI16tc_netem_gemodel",
   "self_type" : "_ZTI16tc_netem_gemodel",
   "size" : 16,
   "source_file" : "/external/libnl/include/linux-private/linux/pkt_sched.h"
  },
  {
   "alignment" : 4,
   "fields" :
   [
    {
     "field_name" : "p13",
     "referenced_type" : "_ZTIj"
    },
    {
     "field_name" : "p31",
     "field_offset" : 32,
     "referenced_type" : "_ZTIj"
    },
    {
     "field_name" : "p32",
     "field_offset" : 64,
     "referenced_type" : "_ZTIj"
    },
    {
     "field_name" : "p14",
     "field_offset" : 96,
     "referenced_type" : "_ZTIj"
    },
    {
     "field_name" : "p23",
     "field_offset" : 128,
     "referenced_type" : "_ZTIj"
    }
   ],
   "linker_set_key" : "_ZTI16tc_netem_gimodel",
   "name" : "tc_netem_gimodel",
   "referenced_type" : "_ZTI16tc_netem_gimodel",
   "self_type" : "_ZTI16tc_netem_gimodel",
   "size" : 20,
   "source_file" : "/external/libnl/include/linux-private/linux/pkt_sched.h"
  },
  {
   "alignment" : 4,
   "fields" :
   [
    {
     "field_name" : "probability",
     "referenced_type" : "_ZTIj"
    },
    {
     "field_name" : "correlation",
     "field_offset" : 32,
     "referenced_type" : "_ZTIj"
    }
   ],
   "linker_set_key" : "_ZTI16tc_netem_reorder",
   "name" : "tc_netem_reorder",
   "referenced_type" : "_ZTI16tc_netem_reorder",
   "self_type" : "_ZTI16tc_netem_reorder",
   "size" : 8,
   "source_file" : "/external/libnl/include/linux-private/linux/pkt_sched.h"
  },
  {
   "alignment" : 4,
   "fields" :
   [
    {
     "field_name" : "m1",
     "referenced_type" : "_ZTIj"
    },
    {
     "field_name" : "d",
     "field_offset" : 32,
     "referenced_type" : "_ZTIj"
    },
    {
     "field_name" : "m2",
     "field_offset" : 64,
     "referenced_type" : "_ZTIj"
    }
   ],
   "linker_set_key" : "_ZTI16tc_service_curve",
   "name" : "tc_service_curve",
   "referenced_type" : "_ZTI16tc_service_curve",
   "self_type" : "_ZTI16tc_service_curve",
   "size" : 12,
   "source_file" : "/external/libnl/include/linux-private/linux/pkt_sched.h"
  },
  {
   "alignment" : 8,
   "fields" :
   [
    {
     "field_name" : "ce_refcnt",
     "referenced_type" : "_ZTIi"
    },
    {
     "field_name" : "ce_ops",
     "field_offset" : 64,
     "referenced_type" : "_ZTIP13nl_object_ops"
    },
    {
     "field_name" : "ce_cache",
     "field_offset" : 128,
     "referenced_type" : "_ZTIP8nl_cache"
    },
    {
     "field_name" : "ce_list",
     "field_offset" : 192,
     "referenced_type" : "_ZTI12nl_list_head"
    },
    {
     "field_name" : "ce_msgtype",
     "field_offset" : 320,
     "referenced_type" : "_ZTIi"
    },
    {
     "field_name" : "ce_flags",
     "field_offset" : 352,
     "referenced_type" : "_ZTIi"
    },
    {
     "field_name" : "ce_mask",
     "field_offset" : 384,
     "referenced_type" : "_ZTIj"
    },
    {
     "field_name" : "tcpv_enabled",
     "field_offset" : 416,
     "referenced_type" : "_ZTIj"
    },
    {
     "field_name" : "tcpv_rttcnt",
     "field_offset" : 448,
     "referenced_type" : "_ZTIj"
    },
    {
     "field_name" : "tcpv_rtt",
     "field_offset" : 480,
     "referenced_type" : "_ZTIj"
    },
    {
     "field_name" : "tcpv_minrtt",
     "field_offset" : 512,
     "referenced_type" : "_ZTIj"
    }
   ],
   "linker_set_key" : "_ZTI17idiagnl_vegasinfo",
   "name" : "idiagnl_vegasinfo",
   "referenced_type" : "_ZTI17idiagnl_vegasinfo",
   "self_type" : "_ZTI17idiagnl_vegasinfo",
   "size" : 72,
   "source_file" : "/external/libnl/include/netlink-private/types.h"
  },
  {
   "alignment" : 1,
   "fields" :
   [
    {
     "field_name" : "tcp",
     "referenced_type" : "_ZTIN17nfnl_ct_protoinfoUt_E"
    }
   ],
   "linker_set_key" : "_ZTI17nfnl_ct_protoinfo",
   "name" : "nfnl_ct_protoinfo",
   "record_kind" : "union",
   "referenced_type" : "_ZTI17nfnl_ct_protoinfo",
   "self_type" : "_ZTI17nfnl_ct_protoinfo",
   "size" : 1,
   "source_file" : "/external/libnl/include/netlink-private/types.h"
  },
  {
   "alignment" : 8,
   "fields" :
   [
    {
     "field_name" : "start",
     "referenced_type" : "_ZTIm"
    },
    {
     "field_name" : "stop",
     "field_offset" : 64,
     "referenced_type" : "_ZTIm"
    }
   ],
   "linker_set_key" : "_ZTI17nfnl_ct_timestamp",
   "name" : "nfnl_ct_timestamp",
   "referenced_type" : "_ZTI17nfnl_ct_timestamp",
   "self_type" : "_ZTI17nfnl_ct_timestamp",
   "size" : 16,
   "source_file" : "/external/libnl/include/netlink/netfilter/ct.h"
  },
  {
   "alignment" : 4,
   "fields" :
   [
    {
     "field_name" : "cdm_bmask",
     "referenced_type" : "_ZTIh"
    },
    {
     "field_name" : "cdm_value",
     "field_offset" : 8,
     "referenced_type" : "_ZTIh"
    },
    {
     "field_name" : "cdm_mask",
     "field_offset" : 32,
     "referenced_type" : "_ZTIj"
    }
   ],
   "linker_set_key" : "_ZTI17rtnl_dsmark_class",
   "name" : "rtnl_dsmark_class",
   "referenced_type" : "_ZTI17rtnl_dsmark_class",
   "self_type" : "_ZTI17rtnl_dsmark_class",
   "size" : 8,
   "source_file" : "/external/libnl/include/netlink-private/types.h"
  },
  {
   "alignment" : 4,
   "fields" :
   [
    {
     "field_name" : "qdm_indices",
     "referenced_type" : "_ZTIt"
    },
    {
     "field_name" : "qdm_default_index",
     "field_offset" : 16,
     "referenced_type" : "_ZTIt"
    },
    {
     "field_name" : "qdm_set_tc_index",
     "field_offset" : 32,
     "referenced_type" : "_ZTIj"
    },
    {
     "field_name" : "qdm_mask",
     "field_offset" : 64,
     "referenced_type" : "_ZTIj"
    }
   ],
   "linker_set_key" : "_ZTI17rtnl_dsmark_qdisc",
   "name" : "rtnl_dsmark_qdisc",
   "referenced_type" : "_ZTI17rtnl_dsmark_qdisc",
   "self_type" : "_ZTI17rtnl_dsmark_qdisc",
   "size" : 12,
   "source_file" : "/external/libnl/include/netlink-private/types.h"
  },
  {
   "alignment" : 8,
   "fields" :
   [
    {
     "field_name" : "rx_packets",
     "referenced_type" : "_ZTIy"
    },
    {
     "field_name" : "tx_packets",
     "field_offset" : 64,
     "referenced_type" : "_ZTIy"
    },
    {
     "field_name" : "rx_bytes",
     "field_offset" : 128,
     "referenced_type" : "_ZTIy"
    },
    {
     "field_name" : "tx_bytes",
     "field_offset" : 192,
     "referenced_type" : "_ZTIy"
    },
    {
     "field_name" : "rx_errors",
     "field_offset" : 256,
     "referenced_type" : "_ZTIy"
    },
    {
     "field_name" : "tx_errors",
     "field_offset" : 320,
     "referenced_type" : "_ZTIy"
    },
    {
     "field_name" : "rx_dropped",
     "field_offset" : 384,
     "referenced_type" : "_ZTIy"
    },
    {
     "field_name" : "tx_dropped",
     "field_offset" : 448,
     "referenced_type" : "_ZTIy"
    },
    {
     "field_name" : "multicast",
     "field_offset" : 512,
     "referenced_type" : "_ZTIy"
    },
    {
     "field_name" : "collisions",
     "field_offset" : 576,
     "referenced_type" : "_ZTIy"
    },
    {
     "field_name" : "rx_length_errors",
     "field_offset" : 640,
     "referenced_type" : "_ZTIy"
    },
    {
     "field_name" : "rx_over_errors",
     "field_offset" : 704,
     "referenced_type" : "_ZTIy"
    },
    {
     "field_name" : "rx_crc_errors",
     "field_offset" : 768,
     "referenced_type" : "_ZTIy"
    },
    {
     "field_name" : "rx_frame_errors",
     "field_offset" : 832,
     "referenced_type" : "_ZTIy"
    },
    {
     "field_name" : "rx_fifo_errors",
     "field_offset" : 896,
     "referenced_type" : "_ZTIy"
    },
    {
     "field_name" : "rx_missed_errors",
     "field_offset" : 960,
     "referenced_type" : "_ZTIy"
    },
    {
     "field_name" : "tx_aborted_errors",
     "field_offset" : 1024,
     "referenced_type" : "_ZTIy"
    },
    {
     "field_name" : "tx_carrier_errors",
     "field_offset" : 1088,
     "referenced_type" : "_ZTIy"
    },
    {
     "field_name" : "tx_fifo_errors",
     "field_offset" : 1152,
     "referenced_type" : "_ZTIy"
    },
    {
     "field_name" : "tx_heartbeat_errors",
     "field_offset" : 1216,
     "referenced_type" : "_ZTIy"
    },
    {
     "field_name" : "tx_window_errors",
     "field_offset" : 1280,
     "referenced_type" : "_ZTIy"
    },
    {
     "field_name" : "rx_compressed",
     "field_offset" : 1344,
     "referenced_type" : "_ZTIy"
    },
    {
     "field_name" : "tx_compressed",
     "field_offset" : 1408,
     "referenced_type" : "_ZTIy"
    }
   ],
   "linker_set_key" : "_ZTI17rtnl_link_stats64",
   "name" : "rtnl_link_stats64",
   "referenced_type" : "_ZTI17rtnl_link_stats64",
   "self_type" : "_ZTI17rtnl_link_stats64",
   "size" : 184,
   "source_file" : "/external/libnl/include/linux-private/linux/if_link.h"
  },
  {
   "alignment" : 2,
   "fields" :
   [
    {
     "field_name" : "port",
     "referenced_type" : "_ZTIN18nfnl_exp_protodataUt_E"
    },
    {
     "field_name" : "icmp",
     "referenced_type" : "_ZTIN18nfnl_exp_protodataUt_E"
    }
   ],
   "linker_set_key" : "_ZTI18nfnl_exp_protodata",
   "name" : "nfnl_exp_protodata",
   "record_kind" : "union",
   "referenced_type" : "_ZTI18nfnl_exp_protodata",
   "self_type" : "_ZTI18nfnl_exp_protodata",
   "size" : 4,
   "source_file" : "/external/libnl/include/netlink-private/types.h"
  },
  {
   "alignment" : 4,
   "fields" :
   [
    {
     "field_name" : "bps",
     "referenced_type" : "_ZTIj"
    },
    {
     "field_name" : "pps",
     "field_offset" : 32,
     "referenced_type" : "_ZTIj"
    }
   ],
   "linker_set_key" : "_ZTI19gnet_stats_rate_est",
   "name" : "gnet_stats_rate_est",
   "referenced_type" : "_ZTI19gnet_stats_rate_est",
   "self_type" : "_ZTI19gnet_stats_rate_est",
   "size" : 8,
   "source_file" : "/external/libnl/include/linux-private/linux/gen_stats.h"
  },
  {
   "alignment" : 4,
   "fields" :
   [
    {
     "field_name" : "aci_prefered",
     "referenced_type" : "_ZTIj"
    },
    {
     "field_name" : "aci_valid",
     "field_offset" : 32,
     "referenced_type" : "_ZTIj"
    },
    {
     "field_name" : "aci_cstamp",
     "field_offset" : 64,
     "referenced_type" : "_ZTIj"
    },
    {
     "field_name" : "aci_tstamp",
     "field_offset" : 96,
     "referenced_type" : "_ZTIj"
    }
   ],
   "linker_set_key" : "_ZTI19rtnl_addr_cacheinfo",
   "name" : "rtnl_addr_cacheinfo",
   "referenced_type" : "_ZTI19rtnl_addr_cacheinfo",
   "self_type" : "_ZTI19rtnl_addr_cacheinfo",
   "size" : 16,
   "source_file" : "/external/libnl/include/netlink-private/types.h"
  },
  {
   "alignment" : 8,
   "fields" :
   [
    {
     "field_name" : "ntp_ifindex",
     "referenced_type" : "_ZTIj"
    },
    {
     "field_name" : "ntp_refcnt",
     "field_offset" : 32,
     "referenced_type" : "_ZTIj"
    },
    {
     "field_name" : "ntp_queue_len",
     "field_offset" : 64,
     "referenced_type" : "_ZTIj"
    },
    {
     "field_name" : "ntp_app_probes",
     "field_offset" : 96,
     "referenced_type" : "_ZTIj"
    },
    {
     "field_name" : "ntp_ucast_probes",
     "field_offset" : 128,
     "referenced_type" : "_ZTIj"
    },
    {
     "field_name" : "ntp_mcast_probes",
     "field_offset" : 160,
     "referenced_type" : "_ZTIj"
    },
    {
     "field_name" : "ntp_base_reachable_time",
     "field_offset" : 192,
     "referenced_type" : "_ZTIm"
    },
    {
     "field_name" : "ntp_reachable_time",
     "field_offset" : 256,
     "referenced_type" : "_ZTIm"
    },
    {
     "field_name" : "ntp_retrans_time",
     "field_offset" : 320,
     "referenced_type" : "_ZTIm"
    },
    {
     "field_name" : "ntp_gc_stale_time",
     "field_offset" : 384,
     "referenced_type" : "_ZTIm"
    },
    {
     "field_name" : "ntp_probe_delay",
     "field_offset" : 448,
     "referenced_type" : "_ZTIm"
    },
    {
     "field_name" : "ntp_anycast_delay",
     "field_offset" : 512,
     "referenced_type" : "_ZTIm"
    },
    {
     "field_name" : "ntp_locktime",
     "field_offset" : 576,
     "referenced_type" : "_ZTIm"
    },
    {
     "field_name" : "ntp_proxy_delay",
     "field_offset" : 640,
     "referenced_type" : "_ZTIm"
    },
    {
     "field_name" : "ntp_proxy_qlen",
     "field_offset" : 704,
     "referenced_type" : "_ZTIj"
    },
    {
     "field_name" : "ntp_mask",
     "field_offset" : 736,
     "referenced_type" : "_ZTIj"
    }
   ],
   "linker_set_key" : "_ZTI19rtnl_neightbl_parms",
   "name" : "rtnl_neightbl_parms",
   "referenced_type" : "_ZTI19rtnl_neightbl_parms",
   "self_type" : "_ZTI19rtnl_neightbl_parms",
   "size" : 96,
   "source_file" : "/external/libnl/include/netlink-private/types.h"
  },
  {
   "alignment" : 2,
   "fields" :
   [
    {
     "field_name" : "nmatches",
     "referenced_type" : "_ZTIt"
    },
    {
     "field_name" : "progid",
     "field_offset" : 16,
     "referenced_type" : "_ZTIt"
    }
   ],
   "linker_set_key" : "_ZTI19tcf_ematch_tree_hdr",
   "name" : "tcf_ematch_tree_hdr",
   "referenced_type" : "_ZTI19tcf_ematch_tree_hdr",
   "self_type" : "_ZTI19tcf_ematch_tree_hdr",
   "size" : 4,
   "source_file" : "/external/libnl/include/linux-private/linux/pkt_cls.h"
  },
  {
   "alignment" : 4,
   "fields" :
   [
    {
     "field_name" : "from",
     "referenced_type" : "_ZTIj"
    },
    {
     "field_name" : "to",
     "field_offset" : 32,
     "referenced_type" : "_ZTIj"
    }
   ],
   "linker_set_key" : "_ZTI21ifla_vlan_qos_mapping",
   "name" : "ifla_vlan_qos_mapping",
   "referenced_type" : "_ZTI21ifla_vlan_qos_mapping",
   "self_type" : "_ZTI21ifla_vlan_qos_mapping",
   "size" : 8,
   "source_file" : "/external/libnl/include/linux-private/linux/if_link.h"
  },
  {
   "alignment" : 2,
   "fields" :
   [
    {
     "field_name" : "low",
     "referenced_type" : "_ZTIt"
    },
    {
     "field_name" : "high",
     "field_offset" : 16,
     "referenced_type" : "_ZTIt"
    }
   ],
   "linker_set_key" : "_ZTI21ifla_vxlan_port_range",
   "name" : "ifla_vxlan_port_range",
   "referenced_type" : "_ZTI21ifla_vxlan_port_range",
   "self_type" : "_ZTI21ifla_vxlan_port_range",
   "size" : 4,
   "source_file" : "/external/libnl/include/linux-private/linux/if_link.h"
  },
  {
   "alignment" : 1,
   "fields" :
   [
    {
     "field_name" : "bytes",
     "referenced_type" : "_ZTIy"
    },
    {
     "field_name" : "packets",
     "field_offset" : 64,
     "referenced_type" : "_ZTIj"
    }
   ],
   "linker_set_key" : "_ZTI23gnet_stats_basic_packed",
   "name" : "gnet_stats_basic_packed",
   "referenced_type" : "_ZTI23gnet_stats_basic_packed",
   "self_type" : "_ZTI23gnet_stats_basic_packed",
   "size" : 12,
   "source_file" : "/external/libnl/include/linux-private/linux/gen_stats.h"
  },
  {
   "alignment" : 4,
   "fields" :
   [
    {
     "field_name" : "ihl",
     "referenced_type" : "_ZTIh"
    },
    {
     "field_name" : "version",
     "field_offset" : 4,
     "referenced_type" : "_ZTIh"
    },
    {
     "field_name" : "tos",
     "field_offset" : 8,
     "referenced_type" : "_ZTIh"
    },
    {
     "field_name" : "tot_len",
     "field_offset" : 16,
     "referenced_type" : "_ZTIt"
    },
    {
     "field_name" : "id",
     "field_offset" : 32,
     "referenced_type" : "_ZTIt"
    },
    {
     "field_name" : "frag_off",
     "field_offset" : 48,
     "referenced_type" : "_ZTIt"
    },
    {
     "field_name" : "ttl",
     "field_offset" : 64,
     "referenced_type" : "_ZTIh"
    },
    {
     "field_name" : "protocol",
     "field_offset" : 72,
     "referenced_type" : "_ZTIh"
    },
    {
     "field_name" : "check",
     "field_offset" : 80,
     "referenced_type" : "_ZTIt"
    },
    {
     "field_name" : "saddr",
     "field_offset" : 96,
     "referenced_type" : "_ZTIj"
    },
    {
     "field_name" : "daddr",
     "field_offset" : 128,
     "referenced_type" : "_ZTIj"
    }
   ],
   "linker_set_key" : "_ZTI5iphdr",
   "name" : "iphdr",
   "referenced_type" : "_ZTI5iphdr",
   "self_type" : "_ZTI5iphdr",
   "size" : 20,
   "source_file" : "/external/libnl/include/linux-private/linux/ip.h"
  },
  {
   "alignment" : 4,
   "fields" :
   [
    {
     "field_name" : "ndm_family",
     "referenced_type" : "_ZTIh"
    },
    {
     "field_name" : "ndm_pad1",
     "field_offset" : 8,
     "referenced_type" : "_ZTIh"
    },
    {
     "field_name" : "ndm_pad2",
     "field_offset" : 16,
     "referenced_type" : "_ZTIt"
    },
    {
     "field_name" : "ndm_ifindex",
     "field_offset" : 32,
     "referenced_type" : "_ZTIi"
    },
    {
     "field_name" : "ndm_state",
     "field_offset" : 64,
     "referenced_type" : "_ZTIt"
    },
    {
     "field_name" : "ndm_flags",
     "field_offset" : 80,
     "referenced_type" : "_ZTIh"
    },
    {
     "field_name" : "ndm_type",
     "field_offset" : 88,
     "referenced_type" : "_ZTIh"
    }
   ],
   "linker_set_key" : "_ZTI5ndmsg",
   "name" : "ndmsg",
   "referenced_type" : "_ZTI5ndmsg",
   "self_type" : "_ZTI5ndmsg",
   "size" : 12,
   "source_file" : "/external/libnl/include/linux-private/linux/neighbour.h"
  },
  {
   "alignment" : 8,
   "fields" :
   [
    {
     "field_name" : "cb_set",
     "referenced_type" : "_ZTIA11_PFiP6nl_msgPvE"
    },
    {
     "field_name" : "cb_args",
     "field_offset" : 704,
     "referenced_type" : "_ZTIA11_Pv"
    },
    {
     "field_name" : "cb_err",
     "field_offset" : 1408,
     "referenced_type" : "_ZTIPFiP11sockaddr_nlP8nlmsgerrPvE"
    },
    {
     "field_name" : "cb_err_arg",
     "field_offset" : 1472,
     "referenced_type" : "_ZTIPv"
    },
    {
     "field_name" : "cb_recvmsgs_ow",
     "field_offset" : 1536,
     "referenced_type" : "_ZTIPFiP7nl_sockP5nl_cbE"
    },
    {
     "field_name" : "cb_recv_ow",
     "field_offset" : 1600,
     "referenced_type" : "_ZTIPFiP7nl_sockP11sockaddr_nlPPhPP5ucredE"
    },
    {
     "field_name" : "cb_send_ow",
     "field_offset" : 1664,
     "referenced_type" : "_ZTIPFiP7nl_sockP6nl_msgE"
    },
    {
     "field_name" : "cb_refcnt",
     "field_offset" : 1728,
     "referenced_type" : "_ZTIi"
    },
    {
     "field_name" : "cb_active",
     "field_offset" : 1760,
     "referenced_type" : "_ZTI10nl_cb_type"
    }
   ],
   "linker_set_key" : "_ZTI5nl_cb",
   "name" : "nl_cb",
   "referenced_type" : "_ZTI5nl_cb",
   "self_type" : "_ZTI5nl_cb",
   "size" : 224,
   "source_file" : "/external/libnl/include/netlink-private/types.h"
  },
  {
   "alignment" : 4,
   "fields" :
   [
    {
     "field_name" : "rtm_family",
     "referenced_type" : "_ZTIh"
    },
    {
     "field_name" : "rtm_dst_len",
     "field_offset" : 8,
     "referenced_type" : "_ZTIh"
    },
    {
     "field_name" : "rtm_src_len",
     "field_offset" : 16,
     "referenced_type" : "_ZTIh"
    },
    {
     "field_name" : "rtm_tos",
     "field_offset" : 24,
     "referenced_type" : "_ZTIh"
    },
    {
     "field_name" : "rtm_table",
     "field_offset" : 32,
     "referenced_type" : "_ZTIh"
    },
    {
     "field_name" : "rtm_protocol",
     "field_offset" : 40,
     "referenced_type" : "_ZTIh"
    },
    {
     "field_name" : "rtm_scope",
     "field_offset" : 48,
     "referenced_type" : "_ZTIh"
    },
    {
     "field_name" : "rtm_type",
     "field_offset" : 56,
     "referenced_type" : "_ZTIh"
    },
    {
     "field_name" : "rtm_flags",
     "field_offset" : 64,
     "referenced_type" : "_ZTIj"
    }
   ],
   "linker_set_key" : "_ZTI5rtmsg",
   "name" : "rtmsg",
   "referenced_type" : "_ZTI5rtmsg",
   "self_type" : "_ZTI5rtmsg",
   "size" : 12,
   "source_file" : "/external/libnl/include/linux-private/linux/rtnetlink.h"
  },
  {
   "alignment" : 8,
   "fields" :
   [
    {
     "field_name" : "install",
     "referenced_type" : "_ZTIy"
    },
    {
     "field_name" : "lastuse",
     "field_offset" : 64,
     "referenced_type" : "_ZTIy"
    },
    {
     "field_name" : "expires",
     "field_offset" : 128,
     "referenced_type" : "_ZTIy"
    }
   ],
   "linker_set_key" : "_ZTI5tcf_t",
   "name" : "tcf_t",
   "referenced_type" : "_ZTI5tcf_t",
   "self_type" : "_ZTI5tcf_t",
   "size" : 24,
   "source_file" : "/external/libnl/include/linux-private/linux/pkt_cls.h"
  },
  {
   "alignment" : 4,
   "fields" :
   [
    {
     "field_name" : "tcm_family",
     "referenced_type" : "_ZTIh"
    },
    {
     "field_name" : "tcm__pad1",
     "field_offset" : 8,
     "referenced_type" : "_ZTIh"
    },
    {
     "field_name" : "tcm__pad2",
     "field_offset" : 16,
     "referenced_type" : "_ZTIt"
    },
    {
     "field_name" : "tcm_ifindex",
     "field_offset" : 32,
     "referenced_type" : "_ZTIi"
    },
    {
     "field_name" : "tcm_handle",
     "field_offset" : 64,
     "referenced_type" : "_ZTIj"
    },
    {
     "field_name" : "tcm_parent",
     "field_offset" : 96,
     "referenced_type" : "_ZTIj"
    },
    {
     "field_name" : "tcm_info",
     "field_offset" : 128,
     "referenced_type" : "_ZTIj"
    }
   ],
   "linker_set_key" : "_ZTI5tcmsg",
   "name" : "tcmsg",
   "referenced_type" : "_ZTI5tcmsg",
   "self_type" : "_ZTI5tcmsg",
   "size" : 20,
   "source_file" : "/external/libnl/include/linux-private/linux/rtnetlink.h"
  },
  {
   "alignment" : 2,
   "fields" :
   [
    {
     "field_name" : "ar_hrd",
     "referenced_type" : "_ZTIt"
    },
    {
     "field_name" : "ar_pro",
     "field_offset" : 16,
     "referenced_type" : "_ZTIt"
    },
    {
     "field_name" : "ar_hln",
     "field_offset" : 32,
     "referenced_type" : "_ZTIh"
    },
    {
     "field_name" : "ar_pln",
     "field_offset" : 40,
     "referenced_type" : "_ZTIh"
    },
    {
     "field_name" : "ar_op",
     "field_offset" : 48,
     "referenced_type" : "_ZTIt"
    }
   ],
   "linker_set_key" : "_ZTI6arphdr",
   "name" : "arphdr",
   "referenced_type" : "_ZTI6arphdr",
   "self_type" : "_ZTI6arphdr",
   "size" : 8,
   "source_file" : "/external/libnl/include/linux-private/linux/if_arp.h"
  },
  {
   "alignment" : 4,
   "fields" :
   [
    {
     "field_name" : "arp_pa",
     "referenced_type" : "_ZTI8sockaddr"
    },
    {
     "field_name" : "arp_ha",
     "field_offset" : 128,
     "referenced_type" : "_ZTI8sockaddr"
    },
    {
     "field_name" : "arp_flags",
     "field_offset" : 256,
     "referenced_type" : "_ZTIi"
    },
    {
     "field_name" : "arp_netmask",
     "field_offset" : 288,
     "referenced_type" : "_ZTI8sockaddr"
    },
    {
     "field_name" : "arp_dev",
     "field_offset" : 416,
     "referenced_type" : "_ZTIA16_c"
    }
   ],
   "linker_set_key" : "_ZTI6arpreq",
   "name" : "arpreq",
   "referenced_type" : "_ZTI6arpreq",
   "self_type" : "_ZTI6arpreq",
   "size" : 68,
   "source_file" : "/external/libnl/include/linux-private/linux/if_arp.h"
  },
  {
   "alignment" : 1,
   "fields" :
   [
    {
     "field_name" : "h_dest",
     "referenced_type" : "_ZTIA6_h"
    },
    {
     "field_name" : "h_source",
     "field_offset" : 48,
     "referenced_type" : "_ZTIA6_h"
    },
    {
     "field_name" : "h_proto",
     "field_offset" : 96,
     "referenced_type" : "_ZTIt"
    }
   ],
   "linker_set_key" : "_ZTI6ethhdr",
   "name" : "ethhdr",
   "referenced_type" : "_ZTI6ethhdr",
   "self_type" : "_ZTI6ethhdr",
   "size" : 14,
   "source_file" : "/external/libnl/include/linux-private/linux/if_ether.h"
  },
  {
   "alignment" : 2,
   "fields" :
   [
    {
     "field_name" : "ndtm_family",
     "referenced_type" : "_ZTIh"
    },
    {
     "field_name" : "ndtm_pad1",
     "field_offset" : 8,
     "referenced_type" : "_ZTIh"
    },
    {
     "field_name" : "ndtm_pad2",
     "field_offset" : 16,
     "referenced_type" : "_ZTIt"
    }
   ],
   "linker_set_key" : "_ZTI6ndtmsg",
   "name" : "ndtmsg",
   "referenced_type" : "_ZTI6ndtmsg",
   "self_type" : "_ZTI6ndtmsg",
   "size" : 4,
   "source_file" : "/external/libnl/include/linux-private/linux/neighbour.h"
  },
  {
   "alignment" : 8,
   "fields" :
   [
    {
     "field_name" : "nm_protocol",
     "referenced_type" : "_ZTIi"
    },
    {
     "field_name" : "nm_flags",
     "field_offset" : 32,
     "referenced_type" : "_ZTIi"
    },
    {
     "field_name" : "nm_src",
     "field_offset" : 64,
     "referenced_type" : "_ZTI11sockaddr_nl"
    },
    {
     "field_name" : "nm_dst",
     "field_offset" : 160,
     "referenced_type" : "_ZTI11sockaddr_nl"
    },
    {
     "field_name" : "nm_creds",
     "field_offset" : 256,
     "referenced_type" : "_ZTI5ucred"
    },
    {
     "field_name" : "nm_nlh",
     "field_offset" : 384,
     "referenced_type" : "_ZTIP8nlmsghdr"
    },
    {
     "field_name" : "nm_size",
     "field_offset" : 448,
     "referenced_type" : "_ZTIm"
    },
    {
     "field_name" : "nm_refcnt",
     "field_offset" : 512,
     "referenced_type" : "_ZTIi"
    }
   ],
   "linker_set_key" : "_ZTI6nl_msg",
   "name" : "nl_msg",
   "referenced_type" : "_ZTI6nl_msg",
   "self_type" : "_ZTI6nl_msg",
   "size" : 72,
   "source_file" : "/external/libnl/include/netlink-private/types.h"
  },
  {
   "alignment" : 2,
   "fields" :
   [
    {
     "field_name" : "nla_len",
     "referenced_type" : "_ZTIt"
    },
    {
     "field_name" : "nla_type",
     "field_offset" : 16,
     "referenced_type" : "_ZTIt"
    }
   ],
   "linker_set_key" : "_ZTI6nlattr",
   "name" : "nlattr",
   "referenced_type" : "_ZTI6nlattr",
   "self_type" : "_ZTI6nlattr",
   "size" : 4,
   "source_file" : "/external/libnl/include/linux-private/linux/netlink.h"
  },
  {
   "alignment" : 2,
   "fields" :
   [
    {
     "field_name" : "rta_len",
     "referenced_type" : "_ZTIt"
    },
    {
     "field_name" : "rta_type",
     "field_offset" : 16,
     "referenced_type" : "_ZTIt"
    }
   ],
   "linker_set_key" : "_ZTI6rtattr",
   "name" : "rtattr",
   "referenced_type" : "_ZTI6rtattr",
   "self_type" : "_ZTI6rtattr",
   "size" : 4,
   "source_file" : "/external/libnl/include/linux-private/linux/rtnetlink.h"
  },
  {
   "alignment" : 4,
   "fields" :
   [
    {
     "field_name" : "refcnt",
     "referenced_type" : "_ZTIi"
    },
    {
     "field_name" : "bindcnt",
     "field_offset" : 32,
     "referenced_type" : "_ZTIi"
    }
   ],
   "linker_set_key" : "_ZTI6tc_cnt",
   "name" : "tc_cnt",
   "referenced_type" : "_ZTI6tc_cnt",
   "self_type" : "_ZTI6tc_cnt",
   "size" : 8,
   "source_file" : "/external/libnl/include/linux-private/linux/pkt_cls.h"
  },
  {
   "alignment" : 2,
   "fields" :
   [
    {
     "field_name" : "tca_family",
     "referenced_type" : "_ZTIh"
    },
    {
     "field_name" : "tca__pad1",
     "field_offset" : 8,
     "referenced_type" : "_ZTIh"
    },
    {
     "field_name" : "tca__pad2",
     "field_offset" : 16,
     "referenced_type" : "_ZTIt"
    }
   ],
   "linker_set_key" : "_ZTI6tcamsg",
   "name" : "tcamsg",
   "referenced_type" : "_ZTI6tcamsg",
   "self_type" : "_ZTI6tcamsg",
   "size" : 4,
   "source_file" : "/external/libnl/include/linux-private/linux/rtnetlink.h"
  },
  {
   "alignment" : 4,
   "fields" :
   [
    {
     "field_name" : "priority",
     "referenced_type" : "_ZTIh"
    },
    {
     "field_name" : "version",
     "field_offset" : 4,
     "referenced_type" : "_ZTIh"
    },
    {
     "field_name" : "flow_lbl",
     "field_offset" : 8,
     "referenced_type" : "_ZTIA3_h"
    },
    {
     "field_name" : "payload_len",
     "field_offset" : 32,
     "referenced_type" : "_ZTIt"
    },
    {
     "field_name" : "nexthdr",
     "field_offset" : 48,
     "referenced_type" : "_ZTIh"
    },
    {
     "field_name" : "hop_limit",
     "field_offset" : 56,
     "referenced_type" : "_ZTIh"
    },
    {
     "field_name" : "saddr",
     "field_offset" : 64,
     "referenced_type" : "_ZTI8in6_addr"
    },
    {
     "field_name" : "daddr",
     "field_offset" : 192,
     "referenced_type" : "_ZTI8in6_addr"
    }
   ],
   "linker_set_key" : "_ZTI7ipv6hdr",
   "name" : "ipv6hdr",
   "referenced_type" : "_ZTI7ipv6hdr",
   "self_type" : "_ZTI7ipv6hdr",
   "size" : 40,
   "source_file" : "/external/libnl/include/linux-private/linux/ipv6.h"
  },
  {
   "alignment" : 8,
   "fields" :
   [
    {
     "field_name" : "ce_refcnt",
     "referenced_type" : "_ZTIi"
    },
    {
     "field_name" : "ce_ops",
     "field_offset" : 64,
     "referenced_type" : "_ZTIP13nl_object_ops"
    },
    {
     "field_name" : "ce_cache",
     "field_offset" : 128,
     "referenced_type" : "_ZTIP8nl_cache"
    },
    {
     "field_name" : "ce_list",
     "field_offset" : 192,
     "referenced_type" : "_ZTI12nl_list_head"
    },
    {
     "field_name" : "ce_msgtype",
     "field_offset" : 320,
     "referenced_type" : "_ZTIi"
    },
    {
     "field_name" : "ce_flags",
     "field_offset" : 352,
     "referenced_type" : "_ZTIi"
    },
    {
     "field_name" : "ce_mask",
     "field_offset" : 384,
     "referenced_type" : "_ZTIj"
    },
    {
     "field_name" : "ct_family",
     "field_offset" : 416,
     "referenced_type" : "_ZTIh"
    },
    {
     "field_name" : "ct_proto",
     "field_offset" : 424,
     "referenced_type" : "_ZTIh"
    },
    {
     "field_name" : "ct_protoinfo",
     "field_offset" : 432,
     "referenced_type" : "_ZTI17nfnl_ct_protoinfo"
    },
    {
     "field_name" : "ct_status",
     "field_offset" : 448,
     "referenced_type" : "_ZTIj"
    },
    {
     "field_name" : "ct_status_mask",
     "field_offset" : 480,
     "referenced_type" : "_ZTIj"
    },
    {
     "field_name" : "ct_timeout",
     "field_offset" : 512,
     "referenced_type" : "_ZTIj"
    },
    {
     "field_name" : "ct_mark",
     "field_offset" : 544,
     "referenced_type" : "_ZTIj"
    },
    {
     "field_name" : "ct_use",
     "field_offset" : 576,
     "referenced_type" : "_ZTIj"
    },
    {
     "field_name" : "ct_id",
     "field_offset" : 608,
     "referenced_type" : "_ZTIj"
    },
    {
     "field_name" : "ct_zone",
     "field_offset" : 640,
     "referenced_type" : "_ZTIt"
    },
    {
     "field_name" : "ct_orig",
     "field_offset" : 704,
     "referenced_type" : "_ZTI11nfnl_ct_dir"
    },
    {
     "field_name" : "ct_repl",
     "field_offset" : 1024,
     "referenced_type" : "_ZTI11nfnl_ct_dir"
    },
    {
     "field_name" : "ct_tstamp",
     "field_offset" : 1344,
     "referenced_type" : "_ZTI17nfnl_ct_timestamp"
    }
   ],
   "linker_set_key" : "_ZTI7nfnl_ct",
   "name" : "nfnl_ct",
   "referenced_type" : "_ZTI7nfnl_ct",
   "self_type" : "_ZTI7nfnl_ct",
   "size" : 184,
   "source_file" : "/external/libnl/include/netlink-private/types.h"
  },
  {
   "alignment" : 4,
   "fields" :
   [
    {
     "field_name" : "a_family",
     "referenced_type" : "_ZTIi"
    },
    {
     "field_name" : "a_maxsize",
     "field_offset" : 32,
     "referenced_type" : "_ZTIj"
    },
    {
     "field_name" : "a_len",
     "field_offset" : 64,
     "referenced_type" : "_ZTIj"
    },
    {
     "field_name" : "a_prefixlen",
     "field_offset" : 96,
     "referenced_type" : "_ZTIi"
    },
    {
     "field_name" : "a_refcnt",
     "field_offset" : 128,
     "referenced_type" : "_ZTIi"
    },
    {
     "field_name" : "a_addr",
     "field_offset" : 160,
     "referenced_type" : "_ZTIA0_c"
    }
   ],
   "linker_set_key" : "_ZTI7nl_addr",
   "name" : "nl_addr",
   "referenced_type" : "_ZTI7nl_addr",
   "self_type" : "_ZTI7nl_addr",
   "size" : 20,
   "source_file" : "/external/libnl/include/netlink-private/types.h"
  },
  {
   "alignment" : 8,
   "fields" :
   [
    {
     "field_name" : "d_size",
     "referenced_type" : "_ZTIm"
    },
    {
     "field_name" : "d_data",
     "field_offset" : 64,
     "referenced_type" : "_ZTIPv"
    }
   ],
   "linker_set_key" : "_ZTI7nl_data",
   "name" : "nl_data",
   "referenced_type" : "_ZTI7nl_data",
   "self_type" : "_ZTI7nl_data",
   "size" : 16,
   "source_file" : "/external/libnl/include/netlink-private/types.h"
  },
  {
   "alignment" : 8,
   "fields" :
   [
    {
     "field_name" : "s_local",
     "referenced_type" : "_ZTI11sockaddr_nl"
    },
    {
     "field_name" : "s_peer",
     "field_offset" : 96,
     "referenced_type" : "_ZTI11sockaddr_nl"
    },
    {
     "field_name" : "s_fd",
     "field_offset" : 192,
     "referenced_type" : "_ZTIi"
    },
    {
     "field_name" : "s_proto",
     "field_offset" : 224,
     "referenced_type" : "_ZTIi"
    },
    {
     "field_name" : "s_seq_next",
     "field_offset" : 256,
     "referenced_type" : "_ZTIj"
    },
    {
     "field_name" : "s_seq_expect",
     "field_offset" : 288,
     "referenced_type" : "_ZTIj"
    },
    {
     "field_name" : "s_flags",
     "field_offset" : 320,
     "referenced_type" : "_ZTIi"
    },
    {
     "field_name" : "s_cb",
     "field_offset" : 384,
     "referenced_type" : "_ZTIP5nl_cb"
    },
    {
     "field_name" : "s_bufsize",
     "field_offset" : 448,
     "referenced_type" : "_ZTIm"
    }
   ],
   "linker_set_key" : "_ZTI7nl_sock",
   "name" : "nl_sock",
   "referenced_type" : "_ZTI7nl_sock",
   "self_type" : "_ZTI7nl_sock",
   "size" : 64,
   "source_file" : "/external/libnl/include/netlink-private/types.h"
  },
  {
   "alignment" : 4,
   "fields" :
   [
    {
     "field_name" : "rt_hdr",
     "referenced_type" : "_ZTI11ipv6_rt_hdr"
    },
    {
     "field_name" : "reserved",
     "field_offset" : 32,
     "referenced_type" : "_ZTIj"
    },
    {
     "field_name" : "addr",
     "field_offset" : 64,
     "referenced_type" : "_ZTIA0_8in6_addr"
    }
   ],
   "linker_set_key" : "_ZTI7rt0_hdr",
   "name" : "rt0_hdr",
   "referenced_type" : "_ZTI7rt0_hdr",
   "self_type" : "_ZTI7rt0_hdr",
   "size" : 8,
   "source_file" : "/external/libnl/include/linux-private/linux/ipv6.h"
  },
  {
   "alignment" : 4,
   "fields" :
   [
    {
     "field_name" : "rt_hdr",
     "referenced_type" : "_ZTI11ipv6_rt_hdr"
    },
    {
     "field_name" : "reserved",
     "field_offset" : 32,
     "referenced_type" : "_ZTIj"
    },
    {
     "field_name" : "addr",
     "field_offset" : 64,
     "referenced_type" : "_ZTI8in6_addr"
    }
   ],
   "linker_set_key" : "_ZTI7rt2_hdr",
   "name" : "rt2_hdr",
   "referenced_type" : "_ZTI7rt2_hdr",
   "self_type" : "_ZTI7rt2_hdr",
   "size" : 24,
   "source_file" : "/external/libnl/include/linux-private/linux/ipv6.h"
  },
  {
   "alignment" : 8,
   "fields" :
   [
    {
     "field_name" : "cf_classid",
     "referenced_type" : "_ZTIj"
    },
    {
     "field_name" : "cf_act",
     "field_offset" : 64,
     "referenced_type" : "_ZTIP7nl_data"
    },
    {
     "field_name" : "cf_police",
     "field_offset" : 128,
     "referenced_type" : "_ZTIP7nl_data"
    },
    {
     "field_name" : "cf_indev",
     "field_offset" : 192,
     "referenced_type" : "_ZTIA16_c"
    },
    {
     "field_name" : "cf_fwmask",
     "field_offset" : 320,
     "referenced_type" : "_ZTIj"
    },
    {
     "field_name" : "cf_mask",
     "field_offset" : 352,
     "referenced_type" : "_ZTIi"
    }
   ],
   "linker_set_key" : "_ZTI7rtnl_fw",
   "name" : "rtnl_fw",
   "referenced_type" : "_ZTI7rtnl_fw",
   "self_type" : "_ZTI7rtnl_fw",
   "size" : 48,
   "source_file" : "/external/libnl/include/netlink-private/types.h"
  },
  {
   "alignment" : 8,
   "fields" :
   [
    {
     "field_name" : "ce_refcnt",
     "referenced_type" : "_ZTIi"
    },
    {
     "field_name" : "ce_ops",
     "field_offset" : 64,
     "referenced_type" : "_ZTIP13nl_object_ops"
    },
    {
     "field_name" : "ce_cache",
     "field_offset" : 128,
     "referenced_type" : "_ZTIP8nl_cache"
    },
    {
     "field_name" : "ce_list",
     "field_offset" : 192,
     "referenced_type" : "_ZTI12nl_list_head"
    },
    {
     "field_name" : "ce_msgtype",
     "field_offset" : 320,
     "referenced_type" : "_ZTIi"
    },
    {
     "field_name" : "ce_flags",
     "field_offset" : 352,
     "referenced_type" : "_ZTIi"
    },
    {
     "field_name" : "ce_mask",
     "field_offset" : 384,
     "referenced_type" : "_ZTIj"
    },
    {
     "field_name" : "tc_family",
     "field_offset" : 416,
     "referenced_type" : "_ZTIj"
    },
    {
     "field_name" : "tc_ifindex",
     "field_offset" : 448,
     "referenced_type" : "_ZTIj"
    },
    {
     "field_name" : "tc_handle",
     "field_offset" : 480,
     "referenced_type" : "_ZTIj"
    },
    {
     "field_name" : "tc_parent",
     "field_offset" : 512,
     "referenced_type" : "_ZTIj"
    },
    {
     "field_name" : "tc_info",
     "field_offset" : 544,
     "referenced_type" : "_ZTIj"
    },
    {
     "field_name" : "tc_mtu",
     "field_offset" : 576,
     "referenced_type" : "_ZTIj"
    },
    {
     "field_name" : "tc_mpu",
     "field_offset" : 608,
     "referenced_type" : "_ZTIj"
    },
    {
     "field_name" : "tc_overhead",
     "field_offset" : 640,
     "referenced_type" : "_ZTIj"
    },
    {
     "field_name" : "tc_linktype",
     "field_offset" : 672,
     "referenced_type" : "_ZTIj"
    },
    {
     "field_name" : "tc_kind",
     "field_offset" : 704,
     "referenced_type" : "_ZTIA32_c"
    },
    {
     "field_name" : "tc_opts",
     "field_offset" : 960,
     "referenced_type" : "_ZTIP7nl_data"
    },
    {
     "field_name" : "tc_stats",
     "field_offset" : 1024,
     "referenced_type" : "_ZTIA9_m"
    },
    {
     "field_name" : "tc_xstats",
     "field_offset" : 1600,
     "referenced_type" : "_ZTIP7nl_data"
    },
    {
     "field_name" : "tc_subdata",
     "field_offset" : 1664,
     "referenced_type" : "_ZTIP7nl_data"
    },
    {
     "field_name" : "tc_link",
     "field_offset" : 1728,
     "referenced_type" : "_ZTIP9rtnl_link"
    },
    {
     "field_name" : "tc_ops",
     "field_offset" : 1792,
     "referenced_type" : "_ZTIP11rtnl_tc_ops"
    },
    {
     "field_name" : "tc_type",
     "field_offset" : 1856,
     "referenced_type" : "_ZTI12rtnl_tc_type"
    }
   ],
   "linker_set_key" : "_ZTI7rtnl_tc",
   "name" : "rtnl_tc",
   "referenced_type" : "_ZTI7rtnl_tc",
   "self_type" : "_ZTI7rtnl_tc",
   "size" : 240,
   "source_file" : "/external/libnl/include/netlink-private/types.h"
  },
  {
   "alignment" : 8,
   "fields" :
   [
    {
     "field_name" : "c_id",
     "referenced_type" : "_ZTIi"
    },
    {
     "field_name" : "c_name",
     "field_offset" : 64,
     "referenced_type" : "_ZTIPc"
    },
    {
     "field_name" : "c_maxattr",
     "field_offset" : 128,
     "referenced_type" : "_ZTIi"
    },
    {
     "field_name" : "c_msg_parser",
     "field_offset" : 192,
     "referenced_type" : "_ZTIPFiP12nl_cache_opsP8genl_cmdP9genl_infoPvE"
    },
    {
     "field_name" : "c_attr_policy",
     "field_offset" : 256,
     "referenced_type" : "_ZTIP10nla_policy"
    }
   ],
   "linker_set_key" : "_ZTI8genl_cmd",
   "name" : "genl_cmd",
   "referenced_type" : "_ZTI8genl_cmd",
   "self_type" : "_ZTI8genl_cmd",
   "size" : 40,
   "source_file" : "/external/libnl/include/netlink/genl/mngt.h"
  },
  {
   "alignment" : 8,
   "fields" :
   [
    {
     "field_name" : "o_hdrsize",
     "referenced_type" : "_ZTIj"
    },
    {
     "field_name" : "o_id",
     "field_offset" : 32,
     "referenced_type" : "_ZTIi"
    },
    {
     "field_name" : "o_name",
     "field_offset" : 64,
     "referenced_type" : "_ZTIPc"
    },
    {
     "field_name" : "o_cache_ops",
     "field_offset" : 128,
     "referenced_type" : "_ZTIP12nl_cache_ops"
    },
    {
     "field_name" : "o_cmds",
     "field_offset" : 192,
     "referenced_type" : "_ZTIP8genl_cmd"
    },
    {
     "field_name" : "o_ncmds",
     "field_offset" : 256,
     "referenced_type" : "_ZTIi"
    },
    {
     "field_name" : "o_list",
     "field_offset" : 320,
     "referenced_type" : "_ZTI12nl_list_head"
    }
   ],
   "linker_set_key" : "_ZTI8genl_ops",
   "name" : "genl_ops",
   "referenced_type" : "_ZTI8genl_ops",
   "self_type" : "_ZTI8genl_ops",
   "size" : 56,
   "source_file" : "/external/libnl/include/netlink/genl/mngt.h"
  },
  {
   "alignment" : 2,
   "fields" :
   [
    {
     "field_name" : "nfgen_family",
     "referenced_type" : "_ZTIh"
    },
    {
     "field_name" : "version",
     "field_offset" : 8,
     "referenced_type" : "_ZTIh"
    },
    {
     "field_name" : "res_id",
     "field_offset" : 16,
     "referenced_type" : "_ZTIt"
    }
   ],
   "linker_set_key" : "_ZTI8nfgenmsg",
   "name" : "nfgenmsg",
   "referenced_type" : "_ZTI8nfgenmsg",
   "self_type" : "_ZTI8nfgenmsg",
   "size" : 4,
   "source_file" : "/external/libnl/include/linux-private/linux/netfilter/nfnetlink.h"
  },
  {
   "alignment" : 8,
   "fields" :
   [
    {
     "field_name" : "ce_refcnt",
     "referenced_type" : "_ZTIi"
    },
    {
     "field_name" : "ce_ops",
     "field_offset" : 64,
     "referenced_type" : "_ZTIP13nl_object_ops"
    },
    {
     "field_name" : "ce_cache",
     "field_offset" : 128,
     "referenced_type" : "_ZTIP8nl_cache"
    },
    {
     "field_name" : "ce_list",
     "field_offset" : 192,
     "referenced_type" : "_ZTI12nl_list_head"
    },
    {
     "field_name" : "ce_msgtype",
     "field_offset" : 320,
     "referenced_type" : "_ZTIi"
    },
    {
     "field_name" : "ce_flags",
     "field_offset" : 352,
     "referenced_type" : "_ZTIi"
    },
    {
     "field_name" : "ce_mask",
     "field_offset" : 384,
     "referenced_type" : "_ZTIj"
    },
    {
     "field_name" : "exp_family",
     "field_offset" : 416,
     "referenced_type" : "_ZTIh"
    },
    {
     "field_name" : "exp_timeout",
     "field_offset" : 448,
     "referenced_type" : "_ZTIj"
    },
    {
     "field_name" : "exp_id",
     "field_offset" : 480,
     "referenced_type" : "_ZTIj"
    },
    {
     "field_name" : "exp_zone",
     "field_offset" : 512,
     "referenced_type" : "_ZTIt"
    },
    {
     "field_name" : "exp_class",
     "field_offset" : 544,
     "referenced_type" : "_ZTIj"
    },
    {
     "field_name" : "exp_flags",
     "field_offset" : 576,
     "referenced_type" : "_ZTIj"
    },
    {
     "field_name" : "exp_helper_name",
     "field_offset" : 640,
     "referenced_type" : "_ZTIPc"
    },
    {
     "field_name" : "exp_fn",
     "field_offset" : 704,
     "referenced_type" : "_ZTIPc"
    },
    {
     "field_name" : "exp_nat_dir",
     "field_offset" : 768,
     "referenced_type" : "_ZTIh"
    },
    {
     "field_name" : "exp_expect",
     "field_offset" : 832,
     "referenced_type" : "_ZTI12nfnl_exp_dir"
    },
    {
     "field_name" : "exp_master",
     "field_offset" : 1024,
     "referenced_type" : "_ZTI12nfnl_exp_dir"
    },
    {
     "field_name" : "exp_mask",
     "field_offset" : 1216,
     "referenced_type" : "_ZTI12nfnl_exp_dir"
    },
    {
     "field_name" : "exp_nat",
     "field_offset" : 1408,
     "referenced_type" : "_ZTI12nfnl_exp_dir"
    }
   ],
   "linker_set_key" : "_ZTI8nfnl_exp",
   "name" : "nfnl_exp",
   "referenced_type" : "_ZTI8nfnl_exp",
   "self_type" : "_ZTI8nfnl_exp",
   "size" : 200,
   "source_file" : "/external/libnl/include/netlink-private/types.h"
  },
  {
   "alignment" : 8,
   "fields" :
   [
    {
     "field_name" : "ce_refcnt",
     "referenced_type" : "_ZTIi"
    },
    {
     "field_name" : "ce_ops",
     "field_offset" : 64,
     "referenced_type" : "_ZTIP13nl_object_ops"
    },
    {
     "field_name" : "ce_cache",
     "field_offset" : 128,
     "referenced_type" : "_ZTIP8nl_cache"
    },
    {
     "field_name" : "ce_list",
     "field_offset" : 192,
     "referenced_type" : "_ZTI12nl_list_head"
    },
    {
     "field_name" : "ce_msgtype",
     "field_offset" : 320,
     "referenced_type" : "_ZTIi"
    },
    {
     "field_name" : "ce_flags",
     "field_offset" : 352,
     "referenced_type" : "_ZTIi"
    },
    {
     "field_name" : "ce_mask",
     "field_offset" : 384,
     "referenced_type" : "_ZTIj"
    },
    {
     "field_name" : "log_group",
     "field_offset" : 416,
     "referenced_type" : "_ZTIt"
    },
    {
     "field_name" : "log_copy_mode",
     "field_offset" : 432,
     "referenced_type" : "_ZTIh"
    },
    {
     "field_name" : "log_copy_range",
     "field_offset" : 448,
     "referenced_type" : "_ZTIj"
    },
    {
     "field_name" : "log_flush_timeout",
     "field_offset" : 480,
     "referenced_type" : "_ZTIj"
    },
    {
     "field_name" : "log_alloc_size",
     "field_offset" : 512,
     "referenced_type" : "_ZTIj"
    },
    {
     "field_name" : "log_queue_threshold",
     "field_offset" : 544,
     "referenced_type" : "_ZTIj"
    },
    {
     "field_name" : "log_flags",
     "field_offset" : 576,
     "referenced_type" : "_ZTIj"
    },
    {
     "field_name" : "log_flag_mask",
     "field_offset" : 608,
     "referenced_type" : "_ZTIj"
    }
   ],
   "linker_set_key" : "_ZTI8nfnl_log",
   "name" : "nfnl_log",
   "referenced_type" : "_ZTI8nfnl_log",
   "self_type" : "_ZTI8nfnl_log",
   "size" : 80,
   "source_file" : "/external/libnl/include/netlink-private/types.h"
  },
  {
   "alignment" : 8,
   "fields" :
   [
    {
     "field_name" : "c_items",
     "referenced_type" : "_ZTI12nl_list_head"
    },
    {
     "field_name" : "c_nitems",
     "field_offset" : 128,
     "referenced_type" : "_ZTIi"
    },
    {
     "field_name" : "c_iarg1",
     "field_offset" : 160,
     "referenced_type" : "_ZTIi"
    },
    {
     "field_name" : "c_iarg2",
     "field_offset" : 192,
     "referenced_type" : "_ZTIi"
    },
    {
     "field_name" : "c_refcnt",
     "field_offset" : 224,
     "referenced_type" : "_ZTIi"
    },
    {
     "field_name" : "c_flags",
     "field_offset" : 256,
     "referenced_type" : "_ZTIj"
    },
    {
     "field_name" : "hashtable",
     "field_offset" : 320,
     "referenced_type" : "_ZTIP13nl_hash_table"
    },
    {
     "field_name" : "c_ops",
     "field_offset" : 384,
     "referenced_type" : "_ZTIP12nl_cache_ops"
    }
   ],
   "linker_set_key" : "_ZTI8nl_cache",
   "name" : "nl_cache",
   "referenced_type" : "_ZTI8nl_cache",
   "self_type" : "_ZTI8nl_cache",
   "size" : 56,
   "source_file" : "/external/libnl/include/netlink-private/types.h"
  },
  {
   "alignment" : 4,
   "fields" :
   [
    {
     "field_name" : "error",
     "referenced_type" : "_ZTIi"
    },
    {
     "field_name" : "msg",
     "field_offset" : 32,
     "referenced_type" : "_ZTI8nlmsghdr"
    }
   ],
   "linker_set_key" : "_ZTI8nlmsgerr",
   "name" : "nlmsgerr",
   "referenced_type" : "_ZTI8nlmsgerr",
   "self_type" : "_ZTI8nlmsgerr",
   "size" : 20,
   "source_file" : "/external/libnl/include/linux-private/linux/netlink.h"
  },
  {
   "alignment" : 4,
   "fields" :
   [
    {
     "field_name" : "nlmsg_len",
     "referenced_type" : "_ZTIj"
    },
    {
     "field_name" : "nlmsg_type",
     "field_offset" : 32,
     "referenced_type" : "_ZTIt"
    },
    {
     "field_name" : "nlmsg_flags",
     "field_offset" : 48,
     "referenced_type" : "_ZTIt"
    },
    {
     "field_name" : "nlmsg_seq",
     "field_offset" : 64,
     "referenced_type" : "_ZTIj"
    },
    {
     "field_name" : "nlmsg_pid",
     "field_offset" : 96,
     "referenced_type" : "_ZTIj"
    }
   ],
   "linker_set_key" : "_ZTI8nlmsghdr",
   "name" : "nlmsghdr",
   "referenced_type" : "_ZTI8nlmsghdr",
   "self_type" : "_ZTI8nlmsghdr",
   "size" : 16,
   "source_file" : "/external/libnl/include/linux-private/linux/netlink.h"
  },
  {
   "alignment" : 1,
   "fields" :
   [
    {
     "field_name" : "rtgen_family",
     "referenced_type" : "_ZTIh"
    }
   ],
   "linker_set_key" : "_ZTI8rtgenmsg",
   "name" : "rtgenmsg",
   "referenced_type" : "_ZTI8rtgenmsg",
   "self_type" : "_ZTI8rtgenmsg",
   "size" : 1,
   "source_file" : "/external/libnl/include/linux-private/linux/rtnetlink.h"
  },
  {
   "alignment" : 8,
   "fields" :
   [
    {
     "field_name" : "ce_refcnt",
     "referenced_type" : "_ZTIi"
    },
    {
     "field_name" : "ce_ops",
     "field_offset" : 64,
     "referenced_type" : "_ZTIP13nl_object_ops"
    },
    {
     "field_name" : "ce_cache",
     "field_offset" : 128,
     "referenced_type" : "_ZTIP8nl_cache"
    },
    {
     "field_name" : "ce_list",
     "field_offset" : 192,
     "referenced_type" : "_ZTI12nl_list_head"
    },
    {
     "field_name" : "ce_msgtype",
     "field_offset" : 320,
     "referenced_type" : "_ZTIi"
    },
    {
     "field_name" : "ce_flags",
     "field_offset" : 352,
     "referenced_type" : "_ZTIi"
    },
    {
     "field_name" : "ce_mask",
     "field_offset" : 384,
     "referenced_type" : "_ZTIj"
    },
    {
     "field_name" : "c_family",
     "field_offset" : 416,
     "referenced_type" : "_ZTIj"
    },
    {
     "field_name" : "c_ifindex",
     "field_offset" : 448,
     "referenced_type" : "_ZTIj"
    },
    {
     "field_name" : "c_handle",
     "field_offset" : 480,
     "referenced_type" : "_ZTIj"
    },
    {
     "field_name" : "c_parent",
     "field_offset" : 512,
     "referenced_type" : "_ZTIj"
    },
    {
     "field_name" : "c_info",
     "field_offset" : 544,
     "referenced_type" : "_ZTIj"
    },
    {
     "field_name" : "c_mtu",
     "field_offset" : 576,
     "referenced_type" : "_ZTIj"
    },
    {
     "field_name" : "c_mpu",
     "field_offset" : 608,
     "referenced_type" : "_ZTIj"
    },
    {
     "field_name" : "c_overhead",
     "field_offset" : 640,
     "referenced_type" : "_ZTIj"
    },
    {
     "field_name" : "c_linktype",
     "field_offset" : 672,
     "referenced_type" : "_ZTIj"
    },
    {
     "field_name" : "c_kind",
     "field_offset" : 704,
     "referenced_type" : "_ZTIA32_c"
    },
    {
     "field_name" : "c_opts",
     "field_offset" : 960,
     "referenced_type" : "_ZTIP7nl_data"
    },
    {
     "field_name" : "c_stats",
     "field_offset" : 1024,
     "referenced_type" : "_ZTIA9_m"
    },
    {
     "field_name" : "c_xstats",
     "field_offset" : 1600,
     "referenced_type" : "_ZTIP7nl_data"
    },
    {
     "field_name" : "c_subdata",
     "field_offset" : 1664,
     "referenced_type" : "_ZTIP7nl_data"
    },
    {
     "field_name" : "c_link",
     "field_offset" : 1728,
     "referenced_type" : "_ZTIP9rtnl_link"
    },
    {
     "field_name" : "c_ops",
     "field_offset" : 1792,
     "referenced_type" : "_ZTIP11rtnl_tc_ops"
    },
    {
     "field_name" : "c_type",
     "field_offset" : 1856,
     "referenced_type" : "_ZTI12rtnl_tc_type"
    },
    {
     "field_name" : "a_next",
     "field_offset" : 1920,
     "referenced_type" : "_ZTIP8rtnl_act"
    }
   ],
   "linker_set_key" : "_ZTI8rtnl_act",
   "name" : "rtnl_act",
   "referenced_type" : "_ZTI8rtnl_act",
   "self_type" : "_ZTI8rtnl_act",
   "size" : 248,
   "source_file" : "/external/libnl/include/netlink-private/types.h"
  },
  {
   "alignment" : 4,
   "fields" :
   [
    {
     "field_name" : "cbq_lss",
     "referenced_type" : "_ZTI13tc_cbq_lssopt"
    },
    {
     "field_name" : "cbq_rate",
     "field_offset" : 160,
     "referenced_type" : "_ZTI11tc_ratespec"
    },
    {
     "field_name" : "cbq_wrr",
     "field_offset" : 256,
     "referenced_type" : "_ZTI13tc_cbq_wrropt"
    },
    {
     "field_name" : "cbq_ovl",
     "field_offset" : 352,
     "referenced_type" : "_ZTI10tc_cbq_ovl"
    },
    {
     "field_name" : "cbq_fopt",
     "field_offset" : 416,
     "referenced_type" : "_ZTI11tc_cbq_fopt"
    },
    {
     "field_name" : "cbq_police",
     "field_offset" : 512,
     "referenced_type" : "_ZTI13tc_cbq_police"
    }
   ],
   "linker_set_key" : "_ZTI8rtnl_cbq",
   "name" : "rtnl_cbq",
   "referenced_type" : "_ZTI8rtnl_cbq",
   "self_type" : "_ZTI8rtnl_cbq",
   "size" : 68,
   "source_file" : "/external/libnl/include/netlink-private/types.h"
  },
  {
   "alignment" : 8,
   "fields" :
   [
    {
     "field_name" : "ce_refcnt",
     "referenced_type" : "_ZTIi"
    },
    {
     "field_name" : "ce_ops",
     "field_offset" : 64,
     "referenced_type" : "_ZTIP13nl_object_ops"
    },
    {
     "field_name" : "ce_cache",
     "field_offset" : 128,
     "referenced_type" : "_ZTIP8nl_cache"
    },
    {
     "field_name" : "ce_list",
     "field_offset" : 192,
     "referenced_type" : "_ZTI12nl_list_head"
    },
    {
     "field_name" : "ce_msgtype",
     "field_offset" : 320,
     "referenced_type" : "_ZTIi"
    },
    {
     "field_name" : "ce_flags",
     "field_offset" : 352,
     "referenced_type" : "_ZTIi"
    },
    {
     "field_name" : "ce_mask",
     "field_offset" : 384,
     "referenced_type" : "_ZTIj"
    },
    {
     "field_name" : "c_family",
     "field_offset" : 416,
     "referenced_type" : "_ZTIj"
    },
    {
     "field_name" : "c_ifindex",
     "field_offset" : 448,
     "referenced_type" : "_ZTIj"
    },
    {
     "field_name" : "c_handle",
     "field_offset" : 480,
     "referenced_type" : "_ZTIj"
    },
    {
     "field_name" : "c_parent",
     "field_offset" : 512,
     "referenced_type" : "_ZTIj"
    },
    {
     "field_name" : "c_info",
     "field_offset" : 544,
     "referenced_type" : "_ZTIj"
    },
    {
     "field_name" : "c_mtu",
     "field_offset" : 576,
     "referenced_type" : "_ZTIj"
    },
    {
     "field_name" : "c_mpu",
     "field_offset" : 608,
     "referenced_type" : "_ZTIj"
    },
    {
     "field_name" : "c_overhead",
     "field_offset" : 640,
     "referenced_type" : "_ZTIj"
    },
    {
     "field_name" : "c_linktype",
     "field_offset" : 672,
     "referenced_type" : "_ZTIj"
    },
    {
     "field_name" : "c_kind",
     "field_offset" : 704,
     "referenced_type" : "_ZTIA32_c"
    },
    {
     "field_name" : "c_opts",
     "field_offset" : 960,
     "referenced_type" : "_ZTIP7nl_data"
    },
    {
     "field_name" : "c_stats",
     "field_offset" : 1024,
     "referenced_type" : "_ZTIA9_m"
    },
    {
     "field_name" : "c_xstats",
     "field_offset" : 1600,
     "referenced_type" : "_ZTIP7nl_data"
    },
    {
     "field_name" : "c_subdata",
     "field_offset" : 1664,
     "referenced_type" : "_ZTIP7nl_data"
    },
    {
     "field_name" : "c_link",
     "field_offset" : 1728,
     "referenced_type" : "_ZTIP9rtnl_link"
    },
    {
     "field_name" : "c_ops",
     "field_offset" : 1792,
     "referenced_type" : "_ZTIP11rtnl_tc_ops"
    },
    {
     "field_name" : "c_type",
     "field_offset" : 1856,
     "referenced_type" : "_ZTI12rtnl_tc_type"
    },
    {
     "field_name" : "c_prio",
     "field_offset" : 1888,
     "referenced_type" : "_ZTIt"
    },
    {
     "field_name" : "c_protocol",
     "field_offset" : 1904,
     "referenced_type" : "_ZTIt"
    }
   ],
   "linker_set_key" : "_ZTI8rtnl_cls",
   "name" : "rtnl_cls",
   "referenced_type" : "_ZTI8rtnl_cls",
   "self_type" : "_ZTI8rtnl_cls",
   "size" : 240,
   "source_file" : "/external/libnl/include/netlink-private/types.h"
  },
  {
   "alignment" : 4,
   "fields" :
   [
    {
     "field_name" : "qr_limit",
     "referenced_type" : "_ZTIj"
    },
    {
     "field_name" : "qr_qth_min",
     "field_offset" : 32,
     "referenced_type" : "_ZTIj"
    },
    {
     "field_name" : "qr_qth_max",
     "field_offset" : 64,
     "referenced_type" : "_ZTIj"
    },
    {
     "field_name" : "qr_flags",
     "field_offset" : 96,
     "referenced_type" : "_ZTIh"
    },
    {
     "field_name" : "qr_wlog",
     "field_offset" : 104,
     "referenced_type" : "_ZTIh"
    },
    {
     "field_name" : "qr_plog",
     "field_offset" : 112,
     "referenced_type" : "_ZTIh"
    },
    {
     "field_name" : "qr_scell_log",
     "field_offset" : 120,
     "referenced_type" : "_ZTIh"
    },
    {
     "field_name" : "qr_mask",
     "field_offset" : 128,
     "referenced_type" : "_ZTIj"
    }
   ],
   "linker_set_key" : "_ZTI8rtnl_red",
   "name" : "rtnl_red",
   "referenced_type" : "_ZTI8rtnl_red",
   "self_type" : "_ZTI8rtnl_red",
   "size" : 20,
   "source_file" : "/external/libnl/include/netlink-private/types.h"
  },
  {
   "alignment" : 4,
   "fields" :
   [
    {
     "field_name" : "qs_quantum",
     "referenced_type" : "_ZTIj"
    },
    {
     "field_name" : "qs_perturb",
     "field_offset" : 32,
     "referenced_type" : "_ZTIj"
    },
    {
     "field_name" : "qs_limit",
     "field_offset" : 64,
     "referenced_type" : "_ZTIj"
    },
    {
     "field_name" : "qs_divisor",
     "field_offset" : 96,
     "referenced_type" : "_ZTIj"
    },
    {
     "field_name" : "qs_flows",
     "field_offset" : 128,
     "referenced_type" : "_ZTIj"
    },
    {
     "field_name" : "qs_mask",
     "field_offset" : 160,
     "referenced_type" : "_ZTIj"
    }
   ],
   "linker_set_key" : "_ZTI8rtnl_sfq",
   "name" : "rtnl_sfq",
   "referenced_type" : "_ZTI8rtnl_sfq",
   "self_type" : "_ZTI8rtnl_sfq",
   "size" : 24,
   "source_file" : "/external/libnl/include/netlink-private/types.h"
  },
  {
   "alignment" : 4,
   "fields" :
   [
    {
     "field_name" : "qt_limit",
     "referenced_type" : "_ZTIj"
    },
    {
     "field_name" : "qt_rate",
     "field_offset" : 32,
     "referenced_type" : "_ZTI13rtnl_ratespec"
    },
    {
     "field_name" : "qt_rate_bucket",
     "field_offset" : 128,
     "referenced_type" : "_ZTIj"
    },
    {
     "field_name" : "qt_rate_txtime",
     "field_offset" : 160,
     "referenced_type" : "_ZTIj"
    },
    {
     "field_name" : "qt_peakrate",
     "field_offset" : 192,
     "referenced_type" : "_ZTI13rtnl_ratespec"
    },
    {
     "field_name" : "qt_peakrate_bucket",
     "field_offset" : 288,
     "referenced_type" : "_ZTIj"
    },
    {
     "field_name" : "qt_peakrate_txtime",
     "field_offset" : 320,
     "referenced_type" : "_ZTIj"
    },
    {
     "field_name" : "qt_mask",
     "field_offset" : 352,
     "referenced_type" : "_ZTIj"
    }
   ],
   "linker_set_key" : "_ZTI8rtnl_tbf",
   "name" : "rtnl_tbf",
   "referenced_type" : "_ZTI8rtnl_tbf",
   "self_type" : "_ZTI8rtnl_tbf",
   "size" : 48,
   "source_file" : "/external/libnl/include/netlink-private/types.h"
  },
  {
   "alignment" : 8,
   "fields" :
   [
    {
     "field_name" : "cu_divisor",
     "referenced_type" : "_ZTIj"
    },
    {
     "field_name" : "cu_hash",
     "field_offset" : 32,
     "referenced_type" : "_ZTIj"
    },
    {
     "field_name" : "cu_classid",
     "field_offset" : 64,
     "referenced_type" : "_ZTIj"
    },
    {
     "field_name" : "cu_link",
     "field_offset" : 96,
     "referenced_type" : "_ZTIj"
    },
    {
     "field_name" : "cu_pcnt",
     "field_offset" : 128,
     "referenced_type" : "_ZTIP7nl_data"
    },
    {
     "field_name" : "cu_selector",
     "field_offset" : 192,
     "referenced_type" : "_ZTIP7nl_data"
    },
    {
     "field_name" : "cu_act",
     "field_offset" : 256,
     "referenced_type" : "_ZTIP8rtnl_act"
    },
    {
     "field_name" : "cu_police",
     "field_offset" : 320,
     "referenced_type" : "_ZTIP7nl_data"
    },
    {
     "field_name" : "cu_indev",
     "field_offset" : 384,
     "referenced_type" : "_ZTIA16_c"
    },
    {
     "field_name" : "cu_mask",
     "field_offset" : 512,
     "referenced_type" : "_ZTIi"
    }
   ],
   "linker_set_key" : "_ZTI8rtnl_u32",
   "name" : "rtnl_u32",
   "referenced_type" : "_ZTI8rtnl_u32",
   "self_type" : "_ZTI8rtnl_u32",
   "size" : 72,
   "source_file" : "/external/libnl/include/netlink-private/types.h"
  },
  {
   "alignment" : 8,
   "fields" :
   [
    {
     "field_name" : "bytes",
     "referenced_type" : "_ZTIy"
    },
    {
     "field_name" : "packets",
     "field_offset" : 64,
     "referenced_type" : "_ZTIj"
    },
    {
     "field_name" : "drops",
     "field_offset" : 96,
     "referenced_type" : "_ZTIj"
    },
    {
     "field_name" : "overlimits",
     "field_offset" : 128,
     "referenced_type" : "_ZTIj"
    },
    {
     "field_name" : "bps",
     "field_offset" : 160,
     "referenced_type" : "_ZTIj"
    },
    {
     "field_name" : "pps",
     "field_offset" : 192,
     "referenced_type" : "_ZTIj"
    },
    {
     "field_name" : "qlen",
     "field_offset" : 224,
     "referenced_type" : "_ZTIj"
    },
    {
     "field_name" : "backlog",
     "field_offset" : 256,
     "referenced_type" : "_ZTIj"
    }
   ],
   "linker_set_key" : "_ZTI8tc_stats",
   "name" : "tc_stats",
   "referenced_type" : "_ZTI8tc_stats",
   "self_type" : "_ZTI8tc_stats",
   "size" : 40,
   "source_file" : "/external/libnl/include/linux-private/linux/pkt_sched.h"
  },
  {
   "alignment" : 8,
   "fields" :
   [
    {
     "field_name" : "who",
     "referenced_type" : "_ZTIP11sockaddr_nl"
    },
    {
     "field_name" : "nlh",
     "field_offset" : 64,
     "referenced_type" : "_ZTIP8nlmsghdr"
    },
    {
     "field_name" : "genlhdr",
     "field_offset" : 128,
     "referenced_type" : "_ZTIP10genlmsghdr"
    },
    {
     "field_name" : "userhdr",
     "field_offset" : 192,
     "referenced_type" : "_ZTIPv"
    },
    {
     "field_name" : "attrs",
     "field_offset" : 256,
     "referenced_type" : "_ZTIPP6nlattr"
    }
   ],
   "linker_set_key" : "_ZTI9genl_info",
   "name" : "genl_info",
   "referenced_type" : "_ZTI9genl_info",
   "self_type" : "_ZTI9genl_info",
   "size" : 40,
   "source_file" : "/external/libnl/include/netlink/genl/mngt.h"
  },
  {
   "alignment" : 4,
   "fields" :
   [
    {
     "field_name" : "ifa_family",
     "referenced_type" : "_ZTIh"
    },
    {
     "field_name" : "ifa_prefixlen",
     "field_offset" : 8,
     "referenced_type" : "_ZTIh"
    },
    {
     "field_name" : "ifa_flags",
     "field_offset" : 16,
     "referenced_type" : "_ZTIh"
    },
    {
     "field_name" : "ifa_scope",
     "field_offset" : 24,
     "referenced_type" : "_ZTIh"
    },
    {
     "field_name" : "ifa_index",
     "field_offset" : 32,
     "referenced_type" : "_ZTIj"
    }
   ],
   "linker_set_key" : "_ZTI9ifaddrmsg",
   "name" : "ifaddrmsg",
   "referenced_type" : "_ZTI9ifaddrmsg",
   "self_type" : "_ZTI9ifaddrmsg",
   "size" : 8,
   "source_file" : "/external/libnl/include/linux-private/linux/if_addr.h"
  },
  {
   "alignment" : 4,
   "fields" :
   [
    {
     "field_name" : "ifi_family",
     "referenced_type" : "_ZTIh"
    },
    {
     "field_name" : "__ifi_pad",
     "field_offset" : 8,
     "referenced_type" : "_ZTIh"
    },
    {
     "field_name" : "ifi_type",
     "field_offset" : 16,
     "referenced_type" : "_ZTIt"
    },
    {
     "field_name" : "ifi_index",
     "field_offset" : 32,
     "referenced_type" : "_ZTIi"
    },
    {
     "field_name" : "ifi_flags",
     "field_offset" : 64,
     "referenced_type" : "_ZTIj"
    },
    {
     "field_name" : "ifi_change",
     "field_offset" : 96,
     "referenced_type" : "_ZTIj"
    }
   ],
   "linker_set_key" : "_ZTI9ifinfomsg",
   "name" : "ifinfomsg",
   "referenced_type" : "_ZTI9ifinfomsg",
   "self_type" : "_ZTI9ifinfomsg",
   "size" : 16,
   "source_file" : "/external/libnl/include/linux-private/linux/rtnetlink.h"
  },
  {
   "alignment" : 8,
   "fields" :
   [
    {
     "field_name" : "ndts_allocs",
     "referenced_type" : "_ZTIy"
    },
    {
     "field_name" : "ndts_destroys",
     "field_offset" : 64,
     "referenced_type" : "_ZTIy"
    },
    {
     "field_name" : "ndts_hash_grows",
     "field_offset" : 128,
     "referenced_type" : "_ZTIy"
    },
    {
     "field_name" : "ndts_res_failed",
     "field_offset" : 192,
     "referenced_type" : "_ZTIy"
    },
    {
     "field_name" : "ndts_lookups",
     "field_offset" : 256,
     "referenced_type" : "_ZTIy"
    },
    {
     "field_name" : "ndts_hits",
     "field_offset" : 320,
     "referenced_type" : "_ZTIy"
    },
    {
     "field_name" : "ndts_rcv_probes_mcast",
     "field_offset" : 384,
     "referenced_type" : "_ZTIy"
    },
    {
     "field_name" : "ndts_rcv_probes_ucast",
     "field_offset" : 448,
     "referenced_type" : "_ZTIy"
    },
    {
     "field_name" : "ndts_periodic_gc_runs",
     "field_offset" : 512,
     "referenced_type" : "_ZTIy"
    },
    {
     "field_name" : "ndts_forced_gc_runs",
     "field_offset" : 576,
     "referenced_type" : "_ZTIy"
    }
   ],
   "linker_set_key" : "_ZTI9ndt_stats",
   "name" : "ndt_stats",
   "referenced_type" : "_ZTI9ndt_stats",
   "self_type" : "_ZTI9ndt_stats",
   "size" : 80,
   "source_file" : "/external/libnl/include/linux-private/linux/neighbour.h"
  },
  {
   "alignment" : 8,
   "fields" :
   [
    {
     "field_name" : "ce_refcnt",
     "referenced_type" : "_ZTIi"
    },
    {
     "field_name" : "ce_ops",
     "field_offset" : 64,
     "referenced_type" : "_ZTIP13nl_object_ops"
    },
    {
