{
 "array_types" :
 [
  {
   "alignment" : 4,
   "linker_set_key" : "_ZTIA0_i",
   "name" : "int [0]",
   "referenced_type" : "_ZTIi",
   "self_type" : "_ZTIA0_i",
   "source_file" : "/system/core/libcutils/include/cutils/native_handle.h"
  },
  {
   "alignment" : 1,
   "linker_set_key" : "_ZTIA128_h",
   "name" : "unsigned char [128]",
   "referenced_type" : "_ZTIh",
   "self_type" : "_ZTIA128_h",
   "size" : 128,
   "source_file" : "/frameworks/native/headers/media_plugin/media/openmax/OMX_Core.h"
  },
  {
   "alignment" : 4,
   "linker_set_key" : "_ZTIA16_21OMX_AUDIO_CHANNELTYPE",
   "name" : "OMX_AUDIO_CHANNELTYPE [16]",
   "referenced_type" : "_ZTI21OMX_AUDIO_CHANNELTYPE",
   "self_type" : "_ZTIA16_21OMX_AUDIO_CHANNELTYPE",
   "size" : 64,
   "source_file" : "/frameworks/native/headers/media_plugin/media/openmax/OMX_Audio.h"
  },
  {
   "alignment" : 1,
   "linker_set_key" : "_ZTIA16_c",
   "name" : "char [16]",
   "referenced_type" : "_ZTIc",
   "self_type" : "_ZTIA16_c",
   "size" : 16,
   "source_file" : "/frameworks/av/media/libstagefright/omx/include/media/stagefright/omx/OMXMaster.h"
  },
  {
   "alignment" : 1,
   "linker_set_key" : "_ZTIA16_h",
   "name" : "unsigned char [16]",
   "referenced_type" : "_ZTIh",
   "self_type" : "_ZTIA16_h",
   "size" : 16,
   "source_file" : "/frameworks/native/headers/media_plugin/media/openmax/OMX_Image.h"
  },
  {
   "alignment" : 8,
   "linker_set_key" : "_ZTIA1_35OMX_CONFIG_ANDROID_VENDOR_PARAMTYPE",
   "name" : "OMX_CONFIG_ANDROID_VENDOR_PARAMTYPE [1]",
   "referenced_type" : "_ZTI35OMX_CONFIG_ANDROID_VENDOR_PARAMTYPE",
   "self_type" : "_ZTIA1_35OMX_CONFIG_ANDROID_VENDOR_PARAMTYPE",
   "size" : 264,
   "source_file" : "/frameworks/native/headers/media_plugin/media/openmax/OMX_IndexExt.h"
  },
  {
   "alignment" : 1,
   "linker_set_key" : "_ZTIA1_h",
   "name" : "unsigned char [1]",
   "referenced_type" : "_ZTIh",
   "self_type" : "_ZTIA1_h",
   "size" : 1,
   "source_file" : "/frameworks/native/headers/media_plugin/media/openmax/OMX_Core.h"
  },
  {
   "alignment" : 1,
   "linker_set_key" : "_ZTIA256_h",
   "name" : "unsigned char [256]",
   "referenced_type" : "_ZTIh",
   "self_type" : "_ZTIA256_h",
   "size" : 256,
   "source_file" : "/frameworks/native/headers/media_plugin/media/openmax/OMX_Image.h"
  },
  {
   "alignment" : 4,
   "linker_set_key" : "_ZTIA2_N7android15OMXNodeInstance16SecureBufferTypeE",
   "name" : "android::OMXNodeInstance::SecureBufferType [2]",
   "referenced_type" : "_ZTIN7android15OMXNodeInstance16SecureBufferTypeE",
   "self_type" : "_ZTIA2_N7android15OMXNodeInstance16SecureBufferTypeE",
   "size" : 8,
   "source_file" : "/frameworks/av/media/libstagefright/omx/include/media/stagefright/omx/OMXNodeInstance.h"
  },
  {
   "alignment" : 4,
   "linker_set_key" : "_ZTIA2_N7android18MetadataBufferTypeE",
   "name" : "android::MetadataBufferType [2]",
   "referenced_type" : "_ZTIN7android18MetadataBufferTypeE",
   "self_type" : "_ZTIA2_N7android18MetadataBufferTypeE",
   "size" : 8,
   "source_file" : "/frameworks/av/media/libstagefright/omx/include/media/stagefright/omx/OMXNodeInstance.h"
  },
  {
   "alignment" : 4,
   "linker_set_key" : "_ZTIA2_N7android4IOMX8PortModeE",
   "name" : "android::IOMX::PortMode [2]",
   "referenced_type" : "_ZTIN7android4IOMX8PortModeE",
   "self_type" : "_ZTIA2_N7android4IOMX8PortModeE",
   "size" : 8,
   "source_file" : "/frameworks/av/media/libstagefright/omx/include/media/stagefright/omx/OMXNodeInstance.h"
  },
  {
   "alignment" : 1,
   "linker_set_key" : "_ZTIA2_b",
   "name" : "bool [2]",
   "referenced_type" : "_ZTIb",
   "self_type" : "_ZTIA2_b",
   "size" : 2,
   "source_file" : "/frameworks/av/media/libstagefright/omx/include/media/stagefright/omx/OMXNodeInstance.h"
  },
  {
   "alignment" : 8,
   "linker_set_key" : "_ZTIA2_m",
   "name" : "unsigned long [2]",
   "referenced_type" : "_ZTIm",
   "self_type" : "_ZTIA2_m",
   "size" : 16,
   "source_file" : "/frameworks/av/media/libstagefright/omx/include/media/stagefright/omx/OMXNodeInstance.h"
  },
  {
   "alignment" : 4,
   "linker_set_key" : "_ZTIA3_A3_i",
   "name" : "int [3][3]",
   "referenced_type" : "_ZTIA3_i",
   "self_type" : "_ZTIA3_A3_i",
   "size" : 36,
   "source_file" : "/frameworks/native/headers/media_plugin/media/openmax/OMX_IVCommon.h"
  },
  {
   "alignment" : 4,
   "linker_set_key" : "_ZTIA3_N7android10MediaImage9PlaneInfoE",
   "name" : "android::MediaImage::PlaneInfo [3]",
   "referenced_type" : "_ZTIN7android10MediaImage9PlaneInfoE",
   "self_type" : "_ZTIA3_N7android10MediaImage9PlaneInfoE",
   "size" : 60,
   "source_file" : "/frameworks/native/headers/media_plugin/media/hardware/VideoAPI.h"
  },
  {
   "alignment" : 4,
   "linker_set_key" : "_ZTIA3_i",
   "name" : "int [3]",
   "referenced_type" : "_ZTIi",
   "self_type" : "_ZTIA3_i",
   "size" : 12,
   "source_file" : "/frameworks/native/headers/media_plugin/media/openmax/OMX_IVCommon.h"
  },
  {
   "alignment" : 4,
   "linker_set_key" : "_ZTIA3_j",
   "name" : "unsigned int [3]",
   "referenced_type" : "_ZTIj",
   "self_type" : "_ZTIA3_j",
   "size" : 12,
   "source_file" : "/frameworks/native/headers/media_plugin/media/openmax/OMX_VideoExt.h"
  },
  {
   "alignment" : 1,
   "linker_set_key" : "_ZTIA4_N7android11MediaImage29PlaneInfoE",
   "name" : "android::MediaImage2::PlaneInfo [4]",
   "referenced_type" : "_ZTIN7android11MediaImage29PlaneInfoE",
   "self_type" : "_ZTIA4_N7android11MediaImage29PlaneInfoE",
   "size" : 80,
   "source_file" : "/frameworks/native/headers/media_plugin/media/hardware/VideoAPI.h"
  },
  {
   "alignment" : 4,
   "linker_set_key" : "_ZTIA4_i",
   "name" : "int [4]",
   "referenced_type" : "_ZTIi",
   "self_type" : "_ZTIA4_i",
   "size" : 16,
   "source_file" : "/frameworks/native/headers/media_plugin/media/openmax/OMX_IVCommon.h"
  },
  {
   "alignment" : 1,
   "linker_set_key" : "_ZTIA5121_h",
   "name" : "unsigned char [5121]",
   "referenced_type" : "_ZTIh",
   "self_type" : "_ZTIA5121_h",
   "size" : 5121,
   "source_file" : "/system/core/liblog/include/log/log_read.h"
  },
  {
   "alignment" : 8,
   "linker_set_key" : "_ZTIA64_N7android8AMessage4ItemE",
   "name" : "android::AMessage::Item [64]",
   "referenced_type" : "_ZTIN7android8AMessage4ItemE",
   "self_type" : "_ZTIA64_N7android8AMessage4ItemE",
   "size" : 2560,
   "source_file" : "/frameworks/av/media/libstagefright/foundation/include/media/stagefright/foundation/AMessage.h"
  },
  {
   "alignment" : 1,
   "linker_set_key" : "_ZTIA64_h",
   "name" : "unsigned char [64]",
   "referenced_type" : "_ZTIh",
   "self_type" : "_ZTIA64_h",
   "size" : 64,
   "source_file" : "/frameworks/native/headers/media_plugin/media/openmax/OMX_Image.h"
  },
  {
   "alignment" : 4,
   "linker_set_key" : "_ZTIA8_j",
   "name" : "unsigned int [8]",
   "referenced_type" : "_ZTIj",
   "self_type" : "_ZTIA8_j",
   "size" : 32,
   "source_file" : "/system/core/libsystem/include/system/graphics.h"
  },
  {
   "linker_set_key" : "_ZTIA_25OMX_COMPONENTREGISTERTYPE",
   "name" : "OMX_COMPONENTREGISTERTYPE []",
   "referenced_type" : "_ZTI25OMX_COMPONENTREGISTERTYPE#ODR:out/soong/.intermediates/frameworks/av/media/libstagefright/omx/libstagefright_omx/android_vendor.30_arm64_armv8-a_shared/obj/frameworks/av/media/libstagefright/omx/OmxGraphicBufferSource.sdump",
   "self_type" : "_ZTIA_25OMX_COMPONENTREGISTERTYPE#ODR:out/soong/.intermediates/frameworks/av/media/libstagefright/omx/libstagefright_omx/android_vendor.30_arm64_armv8-a_shared/obj/frameworks/av/media/libstagefright/omx/OmxGraphicBufferSource.sdump",
   "source_file" : "/frameworks/native/headers/media_plugin/media/openmax/OMX_Core.h"
  },
  {
   "linker_set_key" : "_ZTIA_25OMX_COMPONENTREGISTERTYPE",
   "name" : "OMX_COMPONENTREGISTERTYPE []",
   "referenced_type" : "_ZTI25OMX_COMPONENTREGISTERTYPE",
   "self_type" : "_ZTIA_25OMX_COMPONENTREGISTERTYPE",
   "source_file" : "/frameworks/native/headers/media_plugin/media/openmax/OMX_Core.h"
  },
  {
   "linker_set_key" : "_ZTIA_f",
   "name" : "float []",
   "referenced_type" : "_ZTIf",
   "self_type" : "_ZTIA_f",
   "source_file" : "/system/core/libsystem/include/system/graphics.h"
  }
 ],
 "builtin_types" :
 [
  {
   "alignment" : 2,
   "is_integral" : true,
   "is_unsigned" : true,
   "linker_set_key" : "_ZTIDs",
   "name" : "char16_t",
   "referenced_type" : "_ZTIDs",
   "self_type" : "_ZTIDs",
   "size" : 2
  },
  {
   "alignment" : 1,
   "is_integral" : true,
   "linker_set_key" : "_ZTIa",
   "name" : "signed char",
   "referenced_type" : "_ZTIa",
   "self_type" : "_ZTIa",
   "size" : 1
  },
  {
   "alignment" : 1,
   "is_integral" : true,
   "is_unsigned" : true,
   "linker_set_key" : "_ZTIb",
   "name" : "bool",
   "referenced_type" : "_ZTIb",
   "self_type" : "_ZTIb",
   "size" : 1
  },
  {
   "alignment" : 1,
   "is_integral" : true,
   "is_unsigned" : true,
   "linker_set_key" : "_ZTIc",
   "name" : "char",
   "referenced_type" : "_ZTIc",
   "self_type" : "_ZTIc",
   "size" : 1
  },
  {
   "alignment" : 8,
   "linker_set_key" : "_ZTId",
   "name" : "double",
   "referenced_type" : "_ZTId",
   "self_type" : "_ZTId",
   "size" : 8
  },
  {
   "alignment" : 4,
   "linker_set_key" : "_ZTIf",
   "name" : "float",
   "referenced_type" : "_ZTIf",
   "self_type" : "_ZTIf",
   "size" : 4
  },
  {
   "alignment" : 1,
   "is_integral" : true,
   "is_unsigned" : true,
   "linker_set_key" : "_ZTIh",
   "name" : "unsigned char",
   "referenced_type" : "_ZTIh",
   "self_type" : "_ZTIh",
   "size" : 1
  },
  {
   "alignment" : 4,
   "is_integral" : true,
   "linker_set_key" : "_ZTIi",
   "name" : "int",
   "referenced_type" : "_ZTIi",
   "self_type" : "_ZTIi",
   "size" : 4
  },
  {
   "alignment" : 4,
   "is_integral" : true,
   "is_unsigned" : true,
   "linker_set_key" : "_ZTIj",
   "name" : "unsigned int",
   "referenced_type" : "_ZTIj",
   "self_type" : "_ZTIj",
   "size" : 4
  },
  {
   "alignment" : 8,
   "is_integral" : true,
   "linker_set_key" : "_ZTIl",
   "name" : "long",
   "referenced_type" : "_ZTIl",
   "self_type" : "_ZTIl",
   "size" : 8
  },
  {
   "alignment" : 8,
   "is_integral" : true,
   "is_unsigned" : true,
   "linker_set_key" : "_ZTIm",
   "name" : "unsigned long",
   "referenced_type" : "_ZTIm",
   "self_type" : "_ZTIm",
   "size" : 8
  },
  {
   "alignment" : 2,
   "is_integral" : true,
   "linker_set_key" : "_ZTIs",
   "name" : "short",
   "referenced_type" : "_ZTIs",
   "self_type" : "_ZTIs",
   "size" : 2
  },
  {
   "alignment" : 2,
   "is_integral" : true,
   "is_unsigned" : true,
   "linker_set_key" : "_ZTIt",
   "name" : "unsigned short",
   "referenced_type" : "_ZTIt",
   "self_type" : "_ZTIt",
   "size" : 2
  },
  {
   "linker_set_key" : "_ZTIv",
   "name" : "void",
   "referenced_type" : "_ZTIv",
   "self_type" : "_ZTIv"
  },
  {
   "alignment" : 8,
   "is_integral" : true,
   "linker_set_key" : "_ZTIx",
   "name" : "long long",
   "referenced_type" : "_ZTIx",
   "self_type" : "_ZTIx",
   "size" : 8
  },
  {
   "alignment" : 8,
   "is_integral" : true,
   "is_unsigned" : true,
   "linker_set_key" : "_ZTIy",
   "name" : "unsigned long long",
   "referenced_type" : "_ZTIy",
   "self_type" : "_ZTIy",
   "size" : 8
  }
 ],
 "elf_functions" :
 [
  {
   "name" : "HIDL_FETCH_IOmx"
  },
  {
   "binding" : "weak",
   "name" : "_ZN7android11BnInterfaceINS_12IOMXObserverEE10onAsBinderEv"
  },
  {
   "binding" : "weak",
   "name" : "_ZN7android11BnInterfaceINS_16IOMXBufferSourceEE10onAsBinderEv"
  },
  {
   "binding" : "weak",
   "name" : "_ZN7android11BnInterfaceINS_8IOMXNodeEE10onAsBinderEv"
  },
  {
   "name" : "_ZN7android11MediaImage210initFromV1ERKNS_10MediaImageE"
  },
  {
   "name" : "_ZN7android15OMXNodeInstance10fillBufferEjRKNS_9OMXBufferEi"
  },
  {
   "name" : "_ZN7android15OMXNodeInstance10freeBufferEjj"
  },
  {
   "name" : "_ZN7android15OMXNodeInstance10onMessagesERNSt3__14listINS_11omx_messageENS1_9allocatorIS3_EEEE"
  },
  {
   "name" : "_ZN7android15OMXNodeInstance11emptyBufferEjRKNS_9OMXBufferEjxi"
  },
  {
   "name" : "_ZN7android15OMXNodeInstance11sendCommandE15OMX_COMMANDTYPEi"
  },
  {
   "name" : "_ZN7android15OMXNodeInstance11setPortModeEjNS_4IOMX8PortModeE"
  },
  {
   "name" : "_ZN7android15OMXNodeInstance11useBuffer_lEjRKNS_2spINS_7IMemoryEEERKNS1_INS_4hidl6memory4V1_07IMemoryEEEPj"
  },
  {
   "name" : "_ZN7android15OMXNodeInstance12findBufferIDEP20OMX_BUFFERHEADERTYPE"
  },
  {
   "name" : "_ZN7android15OMXNodeInstance12getParameterE13OMX_INDEXTYPEPvm"
  },
  {
   "name" : "_ZN7android15OMXNodeInstance12makeBufferIDEP20OMX_BUFFERHEADERTYPE"
  },
  {
   "name" : "_ZN7android15OMXNodeInstance12setParameterE13OMX_INDEXTYPEPKvm"
  },
  {
   "name" : "_ZN7android15OMXNodeInstance13emptyBuffer_lEP20OMX_BUFFERHEADERTYPEjxli"
  },
  {
   "name" : "_ZN7android15OMXNodeInstance13emptyBuffer_lEjjjjxi"
  },
  {
   "name" : "_ZN7android15OMXNodeInstance13handleMessageERNS_11omx_messageE"
  },
  {
   "name" : "_ZN7android15OMXNodeInstance14onObserverDiedEv"
  },
  {
   "name" : "_ZN7android15OMXNodeInstance14setMaxPtsGapUsEPKvm"
  },
  {
   "name" : "_ZN7android15OMXNodeInstance15addActiveBufferEjj"
  },
  {
   "name" : "_ZN7android15OMXNodeInstance15dispatchMessageERKNS_11omx_messageE"
  },
  {
   "name" : "_ZN7android15OMXNodeInstance15getBufferSourceEv"
  },
  {
   "name" : "_ZN7android15OMXNodeInstance15setBufferSourceERKNS_2spINS_16IOMXBufferSourceEEE"
  },
  {
   "name" : "_ZN7android15OMXNodeInstance15setInputSurfaceERKNS_2spINS_16IOMXBufferSourceEEE"
  },
  {
   "name" : "_ZN7android15OMXNodeInstance16OnFillBufferDoneEPvS1_P20OMX_BUFFERHEADERTYPE"
  },
  {
   "name" : "_ZN7android15OMXNodeInstance16bumpDebugLevel_lEmm"
  },
  {
   "name" : "_ZN7android15OMXNodeInstance16findBufferHeaderEjj"
  },
  {
   "name" : "_ZN7android15OMXNodeInstance17OnEmptyBufferDoneEPvS1_P20OMX_BUFFERHEADERTYPE"
  },
  {
   "name" : "_ZN7android15OMXNodeInstance17codecBufferFilledERNS_11omx_messageE"
  },
  {
   "name" : "_ZN7android15OMXNodeInstance17freeActiveBuffersEv"
  },
  {
   "name" : "_ZN7android15OMXNodeInstance17getCodecTimestampEx"
  },
  {
   "name" : "_ZN7android15OMXNodeInstance17getExtensionIndexEPKcP13OMX_INDEXTYPE"
  },
  {
   "name" : "_ZN7android15OMXNodeInstance18CallbackDispatcher4loopEv"
  },
  {
   "name" : "_ZN7android15OMXNodeInstance18CallbackDispatcher4postERKNS_11omx_messageEb"
  },
  {
   "name" : "_ZN7android15OMXNodeInstance18CallbackDispatcher8dispatchERNSt3__14listINS_11omx_messageENS2_9allocatorIS4_EEEE"
  },
  {
   "name" : "_ZN7android15OMXNodeInstance18CallbackDispatcherC1ERKNS_2spIS0_EE"
  },
  {
   "name" : "_ZN7android15OMXNodeInstance18CallbackDispatcherC2ERKNS_2spIS0_EE"
  },
  {
   "name" : "_ZN7android15OMXNodeInstance18CallbackDispatcherD0Ev"
  },
  {
   "name" : "_ZN7android15OMXNodeInstance18CallbackDispatcherD1Ev"
  },
  {
   "name" : "_ZN7android15OMXNodeInstance18CallbackDispatcherD2Ev"
  },
  {
   "name" : "_ZN7android15OMXNodeInstance18invalidateBufferIDEj"
  },
  {
   "name" : "_ZN7android15OMXNodeInstance18removeActiveBufferEjj"
  },
  {
   "name" : "_ZN7android15OMXNodeInstance18storeFenceInMeta_lEP20OMX_BUFFERHEADERTYPEij"
  },
  {
   "name" : "_ZN7android15OMXNodeInstance18unbumpDebugLevel_lEm"
  },
  {
   "name" : "_ZN7android15OMXNodeInstance18useGraphicBuffer_lEjRKNS_2spINS_13GraphicBufferEEEPj"
  },
  {
   "name" : "_ZN7android15OMXNodeInstance19isProhibitedIndex_lE13OMX_INDEXTYPE"
  },
  {
   "name" : "_ZN7android15OMXNodeInstance19useGraphicBuffer2_lEjRKNS_2spINS_13GraphicBufferEEEPj"
  },
  {
   "name" : "_ZN7android15OMXNodeInstance20allocateSecureBufferEjmPjPPvPNS_2spINS_12NativeHandleEEE"
  },
  {
   "name" : "_ZN7android15OMXNodeInstance20emptyGraphicBuffer_lEjRKNS_2spINS_13GraphicBufferEEEjxi"
  },
  {
   "name" : "_ZN7android15OMXNodeInstance21enableNativeBuffers_lEj8OMX_BOOLS1_"
  },
  {
   "name" : "_ZN7android15OMXNodeInstance21getGraphicBufferUsageEjPj"
  },
  {
   "name" : "_ZN7android15OMXNodeInstance22handleDataSpaceChangedERNS_11omx_messageE"
  },
  {
   "name" : "_ZN7android15OMXNodeInstance23retrieveFenceFromMeta_lEP20OMX_BUFFERHEADERTYPEj"
  },
  {
   "name" : "_ZN7android15OMXNodeInstance24CallbackDispatcherThread10threadLoopEv"
  },
  {
   "name" : "_ZN7android15OMXNodeInstance24configureVideoTunnelModeEj8OMX_BOOLjPP13native_handle"
  },
  {
   "name" : "_ZN7android15OMXNodeInstance24storeMetaDataInBuffers_lEj8OMX_BOOLPNS_18MetadataBufferTypeE"
  },
  {
   "name" : "_ZN7android15OMXNodeInstance25emptyNativeHandleBuffer_lEjRKNS_2spINS_12NativeHandleEEEjxi"
  },
  {
   "name" : "_ZN7android15OMXNodeInstance26prepareForAdaptivePlaybackEj8OMX_BOOLjj"
  },
  {
   "name" : "_ZN7android15OMXNodeInstance26updateNativeHandleInMeta_lEjRKNS_2spINS_12NativeHandleEEEjP20OMX_BUFFERHEADERTYPE"
  },
  {
   "name" : "_ZN7android15OMXNodeInstance27updateGraphicBufferInMeta_lEjRKNS_2spINS_13GraphicBufferEEEjP20OMX_BUFFERHEADERTYPE"
  },
  {
   "name" : "_ZN7android15OMXNodeInstance30useGraphicBufferWithMetadata_lEjRKNS_2spINS_13GraphicBufferEEEPj"
  },
  {
   "name" : "_ZN7android15OMXNodeInstance6handleEv"
  },
  {
   "name" : "_ZN7android15OMXNodeInstance7OnEventEPvS1_13OMX_EVENTTYPEjjS1_"
  },
  {
   "name" : "_ZN7android15OMXNodeInstance7onEventE13OMX_EVENTTYPEjj"
  },
  {
   "name" : "_ZN7android15OMXNodeInstance8freeNodeEv"
  },
  {
   "name" : "_ZN7android15OMXNodeInstance8observerEv"
  },
  {
   "name" : "_ZN7android15OMXNodeInstance9getConfigE13OMX_INDEXTYPEPvm"
  },
  {
   "name" : "_ZN7android15OMXNodeInstance9setConfigE13OMX_INDEXTYPEPKvm"
  },
  {
   "name" : "_ZN7android15OMXNodeInstance9setHandleEPv"
  },
  {
   "name" : "_ZN7android15OMXNodeInstance9setQuirksEj"
  },
  {
   "name" : "_ZN7android15OMXNodeInstance9useBufferEjRKNS_9OMXBufferEPj"
  },
  {
   "name" : "_ZN7android15OMXNodeInstanceC1EPNS_8hardware5media3omx4V1_014implementation3OmxERKNS_2spINS_12IOMXObserverEEEPKc"
  },
  {
   "name" : "_ZN7android15OMXNodeInstanceC2EPNS_8hardware5media3omx4V1_014implementation3OmxERKNS_2spINS_12IOMXObserverEEEPKc"
  },
  {
   "name" : "_ZN7android15OMXNodeInstanceD0Ev"
  },
  {
   "name" : "_ZN7android15OMXNodeInstanceD1Ev"
  },
  {
   "name" : "_ZN7android15OMXNodeInstanceD2Ev"
  },
  {
   "name" : "_ZN7android16GetComponentRoleEbPKc"
  },
  {
   "name" : "_ZN7android16SetComponentRoleERKNS_2spINS_8IOMXNodeEEEPKc"
  },
  {
   "name" : "_ZN7android18StatusFromOMXErrorE13OMX_ERRORTYPE"
  },
  {
   "name" : "_ZN7android19DescribeColorFormatERKNS_2spINS_8IOMXNodeEEERNS_26DescribeColorFormat2ParamsE"
  },
  {
   "name" : "_ZN7android21IsFlexibleColorFormatERKNS_2spINS_8IOMXNodeEEEjbPj"
  },
  {
   "name" : "_ZN7android22OmxGraphicBufferSource11onOmxLoadedEv"
  },
  {
   "name" : "_ZN7android22OmxGraphicBufferSource14onOmxExecutingEv"
  },
  {
   "name" : "_ZN7android22OmxGraphicBufferSource9configureERKNS_2spINS_15IOmxNodeWrapperEEEiijjj"
  },
  {
   "name" : "_ZN7android22OmxGraphicBufferSource9onOmxIdleEv"
  },
  {
   "name" : "_ZN7android25DescribeColorFormatParamsC1ERKNS_26DescribeColorFormat2ParamsE"
  },
  {
   "name" : "_ZN7android25DescribeColorFormatParamsC2ERKNS_26DescribeColorFormat2ParamsE"
  },
  {
   "name" : "_ZN7android26DescribeColorFormat2Params10initFromV1ERKNS_25DescribeColorFormatParamsE"
  },
  {
   "name" : "_ZN7android26DescribeDefaultColorFormatERNS_26DescribeColorFormat2ParamsE"
  },
  {
   "binding" : "weak",
   "name" : "_ZN7android2spINS_12NativeHandleEEaSEOS2_"
  },
  {
   "binding" : "weak",
   "name" : "_ZN7android2spINS_12NativeHandleEEaSEPS1_"
  },
  {
   "binding" : "weak",
   "name" : "_ZN7android2spINS_15IOmxNodeWrapperEEC2INS_8hardware5media3omx4V1_014implementation21TWGraphicBufferSource16TWOmxNodeWrapperEEEPT_"
  },
  {
   "name" : "_ZN7android8hardware5media3omx4V1_014implementation13LWOmxObserver10onMessagesERKNSt3__14listINS_11omx_messageENS6_9allocatorIS8_EEEE"
  },
  {
   "name" : "_ZN7android8hardware5media3omx4V1_014implementation13LWOmxObserverC1ERKNS_2spINS3_12IOmxObserverEEE"
  },
  {
   "name" : "_ZN7android8hardware5media3omx4V1_014implementation13LWOmxObserverC2ERKNS_2spINS3_12IOmxObserverEEE"
  },
  {
   "name" : "_ZN7android8hardware5media3omx4V1_014implementation13TWOmxObserver10onMessagesERKNS0_8hidl_vecINS3_7MessageEEE"
  },
  {
   "name" : "_ZN7android8hardware5media3omx4V1_014implementation13TWOmxObserverC1ERKNS_2spINS_12IOMXObserverEEE"
  },
  {
   "name" : "_ZN7android8hardware5media3omx4V1_014implementation13TWOmxObserverC2ERKNS_2spINS_12IOMXObserverEEE"
  },
  {
   "name" : "_ZN7android8hardware5media3omx4V1_014implementation17LWOmxBufferSource11onOmxLoadedEv"
  },
  {
   "name" : "_ZN7android8hardware5media3omx4V1_014implementation17LWOmxBufferSource14onOmxExecutingEv"
  },
  {
   "name" : "_ZN7android8hardware5media3omx4V1_014implementation17LWOmxBufferSource18onInputBufferAddedEi"
  },
  {
   "name" : "_ZN7android8hardware5media3omx4V1_014implementation17LWOmxBufferSource20onInputBufferEmptiedEiRKNS_18OMXFenceParcelableE"
  },
  {
   "name" : "_ZN7android8hardware5media3omx4V1_014implementation17LWOmxBufferSource9onOmxIdleEv"
  },
  {
   "name" : "_ZN7android8hardware5media3omx4V1_014implementation17LWOmxBufferSourceC1ERKNS_2spINS3_16IOmxBufferSourceEEE"
  },
  {
   "name" : "_ZN7android8hardware5media3omx4V1_014implementation17LWOmxBufferSourceC2ERKNS_2spINS3_16IOmxBufferSourceEEE"
  },
  {
   "name" : "_ZN7android8hardware5media3omx4V1_014implementation17TWOmxBufferSource11onOmxLoadedEv"
  },
  {
   "name" : "_ZN7android8hardware5media3omx4V1_014implementation17TWOmxBufferSource14onOmxExecutingEv"
  },
  {
   "name" : "_ZN7android8hardware5media3omx4V1_014implementation17TWOmxBufferSource18onInputBufferAddedEj"
  },
  {
   "name" : "_ZN7android8hardware5media3omx4V1_014implementation17TWOmxBufferSource20onInputBufferEmptiedEjRKNS0_11hidl_handleE"
  },
  {
   "name" : "_ZN7android8hardware5media3omx4V1_014implementation17TWOmxBufferSource9onOmxIdleEv"
  },
  {
   "name" : "_ZN7android8hardware5media3omx4V1_014implementation17TWOmxBufferSourceC1ERKNS_2spINS_16IOMXBufferSourceEEE"
  },
  {
   "name" : "_ZN7android8hardware5media3omx4V1_014implementation17TWOmxBufferSourceC2ERKNS_2spINS_16IOMXBufferSourceEEE"
  },
  {
   "name" : "_ZN7android8hardware5media3omx4V1_014implementation21TWGraphicBufferSource10setSuspendEbl"
  },
  {
   "name" : "_ZN7android8hardware5media3omx4V1_014implementation21TWGraphicBufferSource13setStopTimeUsEl"
  },
  {
   "name" : "_ZN7android8hardware5media3omx4V1_014implementation21TWGraphicBufferSource14setStartTimeUsEl"
  },
  {
   "name" : "_ZN7android8hardware5media3omx4V1_014implementation21TWGraphicBufferSource15setColorAspectsERKNS3_12ColorAspectsE"
  },
  {
   "name" : "_ZN7android8hardware5media3omx4V1_014implementation21TWGraphicBufferSource15setTimeOffsetUsEl"
  },
  {
   "name" : "_ZN7android8hardware5media3omx4V1_014implementation21TWGraphicBufferSource18setTimeLapseConfigEdd"
  },
  {
   "name" : "_ZN7android8hardware5media3omx4V1_014implementation21TWGraphicBufferSource19getStopTimeOffsetUsENSt3__18functionIFvNS3_6StatusElEEE"
  },
  {
   "name" : "_ZN7android8hardware5media3omx4V1_014implementation21TWGraphicBufferSource22signalEndOfInputStreamEv"
  },
  {
   "name" : "_ZN7android8hardware5media3omx4V1_014implementation21TWGraphicBufferSource29setRepeatPreviousFrameDelayUsEl"
  },
  {
   "name" : "_ZN7android8hardware5media3omx4V1_014implementation21TWGraphicBufferSource9configureERKNS_2spINS3_8IOmxNodeEEENS0_8graphics6common4V1_09DataspaceE"
  },
  {
   "name" : "_ZN7android8hardware5media3omx4V1_014implementation21TWGraphicBufferSource9setMaxFpsEf"
  },
  {
   "name" : "_ZN7android8hardware5media3omx4V1_014implementation21TWGraphicBufferSourceC1ERKNS_2spINS_22OmxGraphicBufferSourceEEE"
  },
  {
   "name" : "_ZN7android8hardware5media3omx4V1_014implementation21TWGraphicBufferSourceC2ERKNS_2spINS_22OmxGraphicBufferSourceEEE"
  },
  {
   "name" : "_ZN7android8hardware5media3omx4V1_014implementation3Omx11serviceDiedEmRKNS_2wpINS_4hidl4base4V1_05IBaseEEE"
  },
  {
   "name" : "_ZN7android8hardware5media3omx4V1_014implementation3Omx12allocateNodeERKNS0_11hidl_stringERKNS_2spINS3_12IOmxObserverEEENSt3__18functionIFvNS3_6StatusERKNS9_INS3_8IOmxNodeEEEEEE"
  },
  {
   "name" : "_ZN7android8hardware5media3omx4V1_014implementation3Omx18createInputSurfaceENSt3__18functionIFvNS3_6StatusERKNS_2spINS0_8graphics11bufferqueue4V1_022IGraphicBufferProducerEEERKNS9_INS3_20IGraphicBufferSourceEEEEEE"
  },
  {
   "name" : "_ZN7android8hardware5media3omx4V1_014implementation3Omx8freeNodeERKNS_2spINS_15OMXNodeInstanceEEE"
  },
  {
   "name" : "_ZN7android8hardware5media3omx4V1_014implementation3Omx9listNodesENSt3__18functionIFvNS3_6StatusERKNS0_8hidl_vecINS3_4IOmx13ComponentInfoEEEEEE"
  },
  {
   "name" : "_ZN7android8hardware5media3omx4V1_014implementation3OmxC1Ev"
  },
  {
   "name" : "_ZN7android8hardware5media3omx4V1_014implementation3OmxC2Ev"
  },
  {
   "name" : "_ZN7android8hardware5media3omx4V1_014implementation3OmxD0Ev"
  },
  {
   "name" : "_ZN7android8hardware5media3omx4V1_014implementation3OmxD1Ev"
  },
  {
   "name" : "_ZN7android8hardware5media3omx4V1_014implementation3OmxD2Ev"
  },
  {
   "name" : "_ZN7android8hardware5media3omx4V1_014implementation8OmxStore13getNodePrefixENSt3__18functionIFvRKNS0_11hidl_stringEEEE"
  },
  {
   "name" : "_ZN7android8hardware5media3omx4V1_014implementation8OmxStore21listServiceAttributesENSt3__18functionIFvNS3_6StatusERKNS0_8hidl_vecINS3_9IOmxStore9AttributeEEEEEE"
  },
  {
   "name" : "_ZN7android8hardware5media3omx4V1_014implementation8OmxStore6getOmxERKNS0_11hidl_stringE"
  },
  {
   "name" : "_ZN7android8hardware5media3omx4V1_014implementation8OmxStore9listRolesENSt3__18functionIFvRKNS0_8hidl_vecINS3_9IOmxStore8RoleInfoEEEEEE"
  },
  {
   "name" : "_ZN7android8hardware5media3omx4V1_014implementation8OmxStoreC1ERKNS_2spINS3_4IOmxEEEPKcRKNSt3__16vectorINSD_12basic_stringIcNSD_11char_traitsIcEENSD_9allocatorIcEEEENSI_ISK_EEEESO_SC_"
  },
  {
   "name" : "_ZN7android8hardware5media3omx4V1_014implementation8OmxStoreC2ERKNS_2spINS3_4IOmxEEEPKcRKNSt3__16vectorINSD_12basic_stringIcNSD_11char_traitsIcEENSD_9allocatorIcEEEENSI_ISK_EEEESO_SC_"
  },
  {
   "name" : "_ZN7android8hardware5media3omx4V1_014implementation8OmxStoreD0Ev"
  },
  {
   "name" : "_ZN7android8hardware5media3omx4V1_014implementation8OmxStoreD1Ev"
  },
  {
   "name" : "_ZN7android8hardware5media3omx4V1_014implementation8OmxStoreD2Ev"
  },
  {
   "name" : "_ZN7android8hardware5media3omx4V1_014implementation9LWOmxNode10fillBufferEjRKNS_9OMXBufferEi"
  },
  {
   "name" : "_ZN7android8hardware5media3omx4V1_014implementation9LWOmxNode10freeBufferEjj"
  },
  {
   "name" : "_ZN7android8hardware5media3omx4V1_014implementation9LWOmxNode11emptyBufferEjRKNS_9OMXBufferEjxi"
  },
  {
   "name" : "_ZN7android8hardware5media3omx4V1_014implementation9LWOmxNode11sendCommandE15OMX_COMMANDTYPEi"
  },
  {
   "name" : "_ZN7android8hardware5media3omx4V1_014implementation9LWOmxNode11setPortModeEjNS_4IOMX8PortModeE"
  },
  {
   "name" : "_ZN7android8hardware5media3omx4V1_014implementation9LWOmxNode12getParameterE13OMX_INDEXTYPEPvm"
  },
  {
   "name" : "_ZN7android8hardware5media3omx4V1_014implementation9LWOmxNode12setParameterE13OMX_INDEXTYPEPKvm"
  },
  {
   "name" : "_ZN7android8hardware5media3omx4V1_014implementation9LWOmxNode15dispatchMessageERKNS_11omx_messageE"
  },
  {
   "name" : "_ZN7android8hardware5media3omx4V1_014implementation9LWOmxNode15setInputSurfaceERKNS_2spINS_16IOMXBufferSourceEEE"
  },
  {
   "name" : "_ZN7android8hardware5media3omx4V1_014implementation9LWOmxNode17getExtensionIndexEPKcP13OMX_INDEXTYPE"
  },
  {
   "name" : "_ZN7android8hardware5media3omx4V1_014implementation9LWOmxNode20allocateSecureBufferEjmPjPPvPNS_2spINS_12NativeHandleEEE"
  },
  {
   "name" : "_ZN7android8hardware5media3omx4V1_014implementation9LWOmxNode21getGraphicBufferUsageEjPj"
  },
  {
   "name" : "_ZN7android8hardware5media3omx4V1_014implementation9LWOmxNode24configureVideoTunnelModeEj8OMX_BOOLjPP13native_handle"
  },
  {
   "name" : "_ZN7android8hardware5media3omx4V1_014implementation9LWOmxNode26prepareForAdaptivePlaybackEj8OMX_BOOLjj"
  },
  {
   "name" : "_ZN7android8hardware5media3omx4V1_014implementation9LWOmxNode8freeNodeEv"
  },
  {
   "name" : "_ZN7android8hardware5media3omx4V1_014implementation9LWOmxNode9getConfigE13OMX_INDEXTYPEPvm"
  },
  {
   "name" : "_ZN7android8hardware5media3omx4V1_014implementation9LWOmxNode9setConfigE13OMX_INDEXTYPEPKvm"
  },
  {
   "name" : "_ZN7android8hardware5media3omx4V1_014implementation9LWOmxNode9useBufferEjRKNS_9OMXBufferEPj"
  },
  {
   "name" : "_ZN7android8hardware5media3omx4V1_014implementation9LWOmxNodeC1ERKNS_2spINS3_8IOmxNodeEEE"
  },
  {
   "name" : "_ZN7android8hardware5media3omx4V1_014implementation9LWOmxNodeC2ERKNS_2spINS3_8IOmxNodeEEE"
  },
  {
   "name" : "_ZN7android8hardware5media3omx4V1_014implementation9TWOmxNode10fillBufferEjRKNS3_11CodecBufferERKNS0_11hidl_handleE"
  },
  {
   "name" : "_ZN7android8hardware5media3omx4V1_014implementation9TWOmxNode10freeBufferEjj"
  },
  {
   "name" : "_ZN7android8hardware5media3omx4V1_014implementation9TWOmxNode11emptyBufferEjRKNS3_11CodecBufferEjmRKNS0_11hidl_handleE"
  },
  {
   "name" : "_ZN7android8hardware5media3omx4V1_014implementation9TWOmxNode11sendCommandEji"
  },
  {
   "name" : "_ZN7android8hardware5media3omx4V1_014implementation9TWOmxNode11setPortModeEjNS3_8PortModeE"
  },
  {
   "name" : "_ZN7android8hardware5media3omx4V1_014implementation9TWOmxNode12getParameterEjRKNS0_8hidl_vecIhEENSt3__18functionIFvNS3_6StatusES9_EEE"
  },
  {
   "name" : "_ZN7android8hardware5media3omx4V1_014implementation9TWOmxNode12setParameterEjRKNS0_8hidl_vecIhEE"
  },
  {
   "name" : "_ZN7android8hardware5media3omx4V1_014implementation9TWOmxNode15dispatchMessageERKNS3_7MessageE"
  },
  {
   "name" : "_ZN7android8hardware5media3omx4V1_014implementation9TWOmxNode15setInputSurfaceERKNS_2spINS3_16IOmxBufferSourceEEE"
  },
  {
   "name" : "_ZN7android8hardware5media3omx4V1_014implementation9TWOmxNode17getExtensionIndexERKNS0_11hidl_stringENSt3__18functionIFvNS3_6StatusEjEEE"
  },
  {
   "name" : "_ZN7android8hardware5media3omx4V1_014implementation9TWOmxNode20allocateSecureBufferEjmNSt3__18functionIFvNS3_6StatusEjRKNS0_11hidl_handleEEEE"
  },
  {
   "name" : "_ZN7android8hardware5media3omx4V1_014implementation9TWOmxNode21getGraphicBufferUsageEjNSt3__18functionIFvNS3_6StatusEjEEE"
  },
  {
   "name" : "_ZN7android8hardware5media3omx4V1_014implementation9TWOmxNode24configureVideoTunnelModeEjbjNSt3__18functionIFvNS3_6StatusERKNS0_11hidl_handleEEEE"
  },
  {
   "name" : "_ZN7android8hardware5media3omx4V1_014implementation9TWOmxNode26prepareForAdaptivePlaybackEjbjj"
  },
  {
   "name" : "_ZN7android8hardware5media3omx4V1_014implementation9TWOmxNode8freeNodeEv"
  },
  {
   "name" : "_ZN7android8hardware5media3omx4V1_014implementation9TWOmxNode9getConfigEjRKNS0_8hidl_vecIhEENSt3__18functionIFvNS3_6StatusES9_EEE"
  },
  {
   "name" : "_ZN7android8hardware5media3omx4V1_014implementation9TWOmxNode9setConfigEjRKNS0_8hidl_vecIhEE"
  },
  {
   "name" : "_ZN7android8hardware5media3omx4V1_014implementation9TWOmxNode9useBufferEjRKNS3_11CodecBufferENSt3__18functionIFvNS3_6StatusEjEEE"
  },
  {
   "name" : "_ZN7android8hardware5media3omx4V1_014implementation9TWOmxNodeC1ERKNS_2spINS_8IOMXNodeEEE"
  },
  {
   "name" : "_ZN7android8hardware5media3omx4V1_014implementation9TWOmxNodeC2ERKNS_2spINS_8IOMXNodeEEE"
  },
  {
   "name" : "_ZN7android9OMXMaster12clearPluginsEv"
  },
  {
   "name" : "_ZN7android9OMXMaster15addVendorPluginEv"
  },
  {
   "name" : "_ZN7android9OMXMaster17addPlatformPluginEv"
  },
  {
   "name" : "_ZN7android9OMXMaster19enumerateComponentsEPcmj"
  },
  {
   "name" : "_ZN7android9OMXMaster19getRolesOfComponentEPKcPNS_6VectorINS_7String8EEE"
  },
  {
   "name" : "_ZN7android9OMXMaster21makeComponentInstanceEPKcPK16OMX_CALLBACKTYPEPvPP17OMX_COMPONENTTYPE"
  },
  {
   "name" : "_ZN7android9OMXMaster24destroyComponentInstanceEP17OMX_COMPONENTTYPE"
  },
  {
   "name" : "_ZN7android9OMXMaster9addPluginEPKc"
  },
  {
   "name" : "_ZN7android9OMXMaster9addPluginEPNS_13OMXPluginBaseE"
  },
  {
   "name" : "_ZN7android9OMXMasterC1Ev"
  },
  {
   "name" : "_ZN7android9OMXMasterC2Ev"
  },
  {
   "name" : "_ZN7android9OMXMasterD0Ev"
  },
  {
   "name" : "_ZN7android9OMXMasterD1Ev"
  },
  {
   "name" : "_ZN7android9OMXMasterD2Ev"
  },
  {
   "binding" : "weak",
   "name" : "_ZNK7android12SortedVectorI13OMX_INDEXTYPEE10do_compareEPKvS4_"
  },
  {
   "binding" : "weak",
   "name" : "_ZNK7android12SortedVectorI13OMX_INDEXTYPEE10do_destroyEPvm"
  },
  {
   "binding" : "weak",
   "name" : "_ZNK7android12SortedVectorI13OMX_INDEXTYPEE12do_constructEPvm"
  },
  {
   "binding" : "weak",
   "name" : "_ZNK7android12SortedVectorI13OMX_INDEXTYPEE15do_move_forwardEPvPKvm"
  },
  {
   "binding" : "weak",
   "name" : "_ZNK7android12SortedVectorI13OMX_INDEXTYPEE16do_move_backwardEPvPKvm"
  },
  {
   "binding" : "weak",
   "name" : "_ZNK7android12SortedVectorI13OMX_INDEXTYPEE7do_copyEPvPKvm"
  },
  {
   "binding" : "weak",
   "name" : "_ZNK7android12SortedVectorI13OMX_INDEXTYPEE8do_splatEPvPKvm"
  },
  {
   "binding" : "weak",
   "name" : "_ZNK7android12SortedVectorINS_16key_value_pair_tINS_2wpINS_4hidl4base4V1_05IBaseEEENS_2spINS_15OMXNodeInstanceEEEEEE10do_compareEPKvSE_"
  },
  {
   "binding" : "weak",
   "name" : "_ZNK7android12SortedVectorINS_16key_value_pair_tINS_2wpINS_4hidl4base4V1_05IBaseEEENS_2spINS_15OMXNodeInstanceEEEEEE10do_destroyEPvm"
  },
  {
   "binding" : "weak",
   "name" : "_ZNK7android12SortedVectorINS_16key_value_pair_tINS_2wpINS_4hidl4base4V1_05IBaseEEENS_2spINS_15OMXNodeInstanceEEEEEE12do_constructEPvm"
  },
  {
   "binding" : "weak",
   "name" : "_ZNK7android12SortedVectorINS_16key_value_pair_tINS_2wpINS_4hidl4base4V1_05IBaseEEENS_2spINS_15OMXNodeInstanceEEEEEE15do_move_forwardEPvPKvm"
  },
  {
   "binding" : "weak",
   "name" : "_ZNK7android12SortedVectorINS_16key_value_pair_tINS_2wpINS_4hidl4base4V1_05IBaseEEENS_2spINS_15OMXNodeInstanceEEEEEE16do_move_backwardEPvPKvm"
  },
  {
   "binding" : "weak",
   "name" : "_ZNK7android12SortedVectorINS_16key_value_pair_tINS_2wpINS_4hidl4base4V1_05IBaseEEENS_2spINS_15OMXNodeInstanceEEEEEE7do_copyEPvPKvm"
  },
  {
   "binding" : "weak",
   "name" : "_ZNK7android12SortedVectorINS_16key_value_pair_tINS_2wpINS_4hidl4base4V1_05IBaseEEENS_2spINS_15OMXNodeInstanceEEEEEE8do_splatEPvPKvm"
  },
  {
   "binding" : "weak",
   "name" : "_ZNK7android12SortedVectorINS_16key_value_pair_tINS_7String8EPNS_13OMXPluginBaseEEEE10do_compareEPKvS8_"
  },
  {
   "binding" : "weak",
   "name" : "_ZNK7android12SortedVectorINS_16key_value_pair_tINS_7String8EPNS_13OMXPluginBaseEEEE10do_destroyEPvm"
  },
  {
   "binding" : "weak",
   "name" : "_ZNK7android12SortedVectorINS_16key_value_pair_tINS_7String8EPNS_13OMXPluginBaseEEEE12do_constructEPvm"
  },
  {
   "binding" : "weak",
   "name" : "_ZNK7android12SortedVectorINS_16key_value_pair_tINS_7String8EPNS_13OMXPluginBaseEEEE15do_move_forwardEPvPKvm"
  },
  {
   "binding" : "weak",
   "name" : "_ZNK7android12SortedVectorINS_16key_value_pair_tINS_7String8EPNS_13OMXPluginBaseEEEE16do_move_backwardEPvPKvm"
  },
  {
   "binding" : "weak",
   "name" : "_ZNK7android12SortedVectorINS_16key_value_pair_tINS_7String8EPNS_13OMXPluginBaseEEEE7do_copyEPvPKvm"
  },
  {
   "binding" : "weak",
   "name" : "_ZNK7android12SortedVectorINS_16key_value_pair_tINS_7String8EPNS_13OMXPluginBaseEEEE8do_splatEPvPKvm"
  },
  {
   "binding" : "weak",
   "name" : "_ZNK7android12SortedVectorINS_16key_value_pair_tIP17OMX_COMPONENTTYPEPNS_13OMXPluginBaseEEEE10do_compareEPKvS9_"
  },
  {
   "binding" : "weak",
   "name" : "_ZNK7android12SortedVectorINS_16key_value_pair_tIP17OMX_COMPONENTTYPEPNS_13OMXPluginBaseEEEE10do_destroyEPvm"
  },
  {
   "binding" : "weak",
   "name" : "_ZNK7android12SortedVectorINS_16key_value_pair_tIP17OMX_COMPONENTTYPEPNS_13OMXPluginBaseEEEE12do_constructEPvm"
  },
  {
   "binding" : "weak",
   "name" : "_ZNK7android12SortedVectorINS_16key_value_pair_tIP17OMX_COMPONENTTYPEPNS_13OMXPluginBaseEEEE15do_move_forwardEPvPKvm"
  },
  {
   "binding" : "weak",
   "name" : "_ZNK7android12SortedVectorINS_16key_value_pair_tIP17OMX_COMPONENTTYPEPNS_13OMXPluginBaseEEEE16do_move_backwardEPvPKvm"
  },
  {
   "binding" : "weak",
   "name" : "_ZNK7android12SortedVectorINS_16key_value_pair_tIP17OMX_COMPONENTTYPEPNS_13OMXPluginBaseEEEE7do_copyEPvPKvm"
  },
  {
   "binding" : "weak",
   "name" : "_ZNK7android12SortedVectorINS_16key_value_pair_tIP17OMX_COMPONENTTYPEPNS_13OMXPluginBaseEEEE8do_splatEPvPKvm"
  },
  {
   "binding" : "weak",
   "name" : "_ZNK7android12SortedVectorINS_16key_value_pair_tIP20OMX_BUFFERHEADERTYPEjEEE10do_compareEPKvS7_"
  },
  {
   "binding" : "weak",
   "name" : "_ZNK7android12SortedVectorINS_16key_value_pair_tIP20OMX_BUFFERHEADERTYPEjEEE10do_destroyEPvm"
  },
  {
   "binding" : "weak",
   "name" : "_ZNK7android12SortedVectorINS_16key_value_pair_tIP20OMX_BUFFERHEADERTYPEjEEE12do_constructEPvm"
  },
  {
   "binding" : "weak",
   "name" : "_ZNK7android12SortedVectorINS_16key_value_pair_tIP20OMX_BUFFERHEADERTYPEjEEE15do_move_forwardEPvPKvm"
  },
  {
   "binding" : "weak",
   "name" : "_ZNK7android12SortedVectorINS_16key_value_pair_tIP20OMX_BUFFERHEADERTYPEjEEE16do_move_backwardEPvPKvm"
  },
  {
   "binding" : "weak",
   "name" : "_ZNK7android12SortedVectorINS_16key_value_pair_tIP20OMX_BUFFERHEADERTYPEjEEE7do_copyEPvPKvm"
  },
  {
   "binding" : "weak",
   "name" : "_ZNK7android12SortedVectorINS_16key_value_pair_tIP20OMX_BUFFERHEADERTYPEjEEE8do_splatEPvPKvm"
  },
  {
   "binding" : "weak",
   "name" : "_ZNK7android12SortedVectorINS_16key_value_pair_tIPNS_15OMXNodeInstanceENS_2wpINS_4hidl4base4V1_05IBaseEEEEEE10do_compareEPKvSD_"
  },
  {
   "binding" : "weak",
   "name" : "_ZNK7android12SortedVectorINS_16key_value_pair_tIPNS_15OMXNodeInstanceENS_2wpINS_4hidl4base4V1_05IBaseEEEEEE10do_destroyEPvm"
  },
  {
   "binding" : "weak",
   "name" : "_ZNK7android12SortedVectorINS_16key_value_pair_tIPNS_15OMXNodeInstanceENS_2wpINS_4hidl4base4V1_05IBaseEEEEEE12do_constructEPvm"
  },
  {
   "binding" : "weak",
   "name" : "_ZNK7android12SortedVectorINS_16key_value_pair_tIPNS_15OMXNodeInstanceENS_2wpINS_4hidl4base4V1_05IBaseEEEEEE15do_move_forwardEPvPKvm"
  },
  {
   "binding" : "weak",
   "name" : "_ZNK7android12SortedVectorINS_16key_value_pair_tIPNS_15OMXNodeInstanceENS_2wpINS_4hidl4base4V1_05IBaseEEEEEE16do_move_backwardEPvPKvm"
  },
  {
   "binding" : "weak",
   "name" : "_ZNK7android12SortedVectorINS_16key_value_pair_tIPNS_15OMXNodeInstanceENS_2wpINS_4hidl4base4V1_05IBaseEEEEEE7do_copyEPvPKvm"
  },
  {
   "binding" : "weak",
   "name" : "_ZNK7android12SortedVectorINS_16key_value_pair_tIPNS_15OMXNodeInstanceENS_2wpINS_4hidl4base4V1_05IBaseEEEEEE8do_splatEPvPKvm"
  },
  {
   "binding" : "weak",
   "name" : "_ZNK7android12SortedVectorINS_16key_value_pair_tIjP20OMX_BUFFERHEADERTYPEEEE10do_compareEPKvS7_"
  },
  {
   "binding" : "weak",
   "name" : "_ZNK7android12SortedVectorINS_16key_value_pair_tIjP20OMX_BUFFERHEADERTYPEEEE10do_destroyEPvm"
  },
  {
   "binding" : "weak",
   "name" : "_ZNK7android12SortedVectorINS_16key_value_pair_tIjP20OMX_BUFFERHEADERTYPEEEE12do_constructEPvm"
  },
  {
   "binding" : "weak",
   "name" : "_ZNK7android12SortedVectorINS_16key_value_pair_tIjP20OMX_BUFFERHEADERTYPEEEE15do_move_forwardEPvPKvm"
  },
  {
   "binding" : "weak",
   "name" : "_ZNK7android12SortedVectorINS_16key_value_pair_tIjP20OMX_BUFFERHEADERTYPEEEE16do_move_backwardEPvPKvm"
  },
  {
   "binding" : "weak",
   "name" : "_ZNK7android12SortedVectorINS_16key_value_pair_tIjP20OMX_BUFFERHEADERTYPEEEE7do_copyEPvPKvm"
  },
  {
   "binding" : "weak",
   "name" : "_ZNK7android12SortedVectorINS_16key_value_pair_tIjP20OMX_BUFFERHEADERTYPEEEE8do_splatEPvPKvm"
  },
  {
   "binding" : "weak",
   "name" : "_ZNK7android12SortedVectorINS_16key_value_pair_tIllEEE10do_compareEPKvS5_"
  },
  {
   "binding" : "weak",
   "name" : "_ZNK7android12SortedVectorINS_16key_value_pair_tIllEEE10do_destroyEPvm"
  },
  {
   "binding" : "weak",
   "name" : "_ZNK7android12SortedVectorINS_16key_value_pair_tIllEEE12do_constructEPvm"
  },
  {
   "binding" : "weak",
   "name" : "_ZNK7android12SortedVectorINS_16key_value_pair_tIllEEE15do_move_forwardEPvPKvm"
  },
  {
   "binding" : "weak",
   "name" : "_ZNK7android12SortedVectorINS_16key_value_pair_tIllEEE16do_move_backwardEPvPKvm"
  },
  {
   "binding" : "weak",
   "name" : "_ZNK7android12SortedVectorINS_16key_value_pair_tIllEEE7do_copyEPvPKvm"
  },
  {
   "binding" : "weak",
   "name" : "_ZNK7android12SortedVectorINS_16key_value_pair_tIllEEE8do_splatEPvPKvm"
  },
  {
   "binding" : "weak",
   "name" : "_ZNK7android12SortedVectorIP20OMX_BUFFERHEADERTYPEE10do_compareEPKvS5_"
  },
  {
   "binding" : "weak",
   "name" : "_ZNK7android12SortedVectorIP20OMX_BUFFERHEADERTYPEE10do_destroyEPvm"
  },
  {
   "binding" : "weak",
   "name" : "_ZNK7android12SortedVectorIP20OMX_BUFFERHEADERTYPEE12do_constructEPvm"
  },
  {
   "binding" : "weak",
   "name" : "_ZNK7android12SortedVectorIP20OMX_BUFFERHEADERTYPEE15do_move_forwardEPvPKvm"
  },
  {
   "binding" : "weak",
   "name" : "_ZNK7android12SortedVectorIP20OMX_BUFFERHEADERTYPEE16do_move_backwardEPvPKvm"
  },
  {
   "binding" : "weak",
   "name" : "_ZNK7android12SortedVectorIP20OMX_BUFFERHEADERTYPEE7do_copyEPvPKvm"
  },
  {
   "binding" : "weak",
   "name" : "_ZNK7android12SortedVectorIP20OMX_BUFFERHEADERTYPEE8do_splatEPvPKvm"
  },
  {
   "binding" : "weak",
   "name" : "_ZNK7android6VectorINS_15OMXNodeInstance12ActiveBufferEE10do_destroyEPvm"
  },
  {
   "binding" : "weak",
   "name" : "_ZNK7android6VectorINS_15OMXNodeInstance12ActiveBufferEE12do_constructEPvm"
  },
  {
   "binding" : "weak",
   "name" : "_ZNK7android6VectorINS_15OMXNodeInstance12ActiveBufferEE15do_move_forwardEPvPKvm"
  },
  {
   "binding" : "weak",
   "name" : "_ZNK7android6VectorINS_15OMXNodeInstance12ActiveBufferEE16do_move_backwardEPvPKvm"
  },
  {
   "binding" : "weak",
   "name" : "_ZNK7android6VectorINS_15OMXNodeInstance12ActiveBufferEE7do_copyEPvPKvm"
  },
  {
   "binding" : "weak",
   "name" : "_ZNK7android6VectorINS_15OMXNodeInstance12ActiveBufferEE8do_splatEPvPKvm"
  },
  {
   "binding" : "weak",
   "name" : "_ZNK7android6VectorINS_7String8EE10do_destroyEPvm"
  },
  {
   "binding" : "weak",
   "name" : "_ZNK7android6VectorINS_7String8EE12do_constructEPvm"
  },
  {
   "binding" : "weak",
   "name" : "_ZNK7android6VectorINS_7String8EE15do_move_forwardEPvPKvm"
  },
  {
   "binding" : "weak",
   "name" : "_ZNK7android6VectorINS_7String8EE16do_move_backwardEPvPKvm"
  },
  {
   "binding" : "weak",
   "name" : "_ZNK7android6VectorINS_7String8EE7do_copyEPvPKvm"
  },
  {
   "binding" : "weak",
   "name" : "_ZNK7android6VectorINS_7String8EE8do_splatEPvPKvm"
  },
  {
   "binding" : "weak",
   "name" : "_ZNKSt3__16__treeINS_12__value_typeINS_12basic_stringIcNS_11char_traitsIcEENS_9allocatorIcEEEEN7android20MediaCodecsXmlParser15CodecPropertiesEEENS_19__map_value_compareIS7_SB_NS_4lessIS7_EELb1EEENS5_ISB_EEE4findIS7_EENS_21__tree_const_iteratorISB_PNS_11__tree_nodeISB_PvEElEERKT_"
  },
  {
   "binding" : "weak",
   "name" : "_ZNKSt3__16__treeINS_12basic_stringIcNS_11char_traitsIcEENS_9allocatorIcEEEENS_4lessIS6_EENS4_IS6_EEE14__count_uniqueIS6_EEmRKT_"
  },
  {
   "binding" : "weak",
   "name" : "_ZNSt3__124__put_character_sequenceIcNS_11char_traitsIcEEEERNS_13basic_ostreamIT_T0_EES7_PKS4_m"
  },
  {
   "binding" : "weak",
   "name" : "_ZNSt3__127__tree_balance_after_insertIPNS_16__tree_node_baseIPvEEEEvT_S5_"
  },
  {
   "binding" : "weak",
   "name" : "_ZNSt3__14listIN7android4IOMX13ComponentInfoENS_9allocatorIS3_EEE9push_backEOS3_"
  },
  {
   "binding" : "weak",
   "name" : "_ZNSt3__16__treeINS_12basic_stringIcNS_11char_traitsIcEENS_9allocatorIcEEEENS_4lessIS6_EENS4_IS6_EEE12__find_equalIS6_EERPNS_16__tree_node_baseIPvEERPNS_15__tree_end_nodeISF_EERKT_"
  },
  {
   "binding" : "weak",
   "name" : "_ZNSt3__16__treeINS_12basic_stringIcNS_11char_traitsIcEENS_9allocatorIcEEEENS_4lessIS6_EENS4_IS6_EEE21__emplace_unique_implIJPKcEEENS_4pairINS_15__tree_iteratorIS6_PNS_11__tree_nodeIS6_PvEElEEbEEDpOT_"
  },
  {
   "binding" : "weak",
   "name" : "_ZNSt3__16__treeINS_12basic_stringIcNS_11char_traitsIcEENS_9allocatorIcEEEENS_4lessIS6_EENS4_IS6_EEE7destroyEPNS_11__tree_nodeIS6_PvEE"
  },
  {
   "binding" : "weak",
   "name" : "_ZNSt3__16vectorIjNS_9allocatorIjEEE24__emplace_back_slow_pathIJRKjEEEvDpOT_"
  },
  {
   "name" : "_ZThn8_N7android15OMXNodeInstanceD0Ev"
  },
  {
   "name" : "_ZThn8_N7android15OMXNodeInstanceD1Ev"
  },
  {
   "name" : "_ZThn8_N7android8hardware5media3omx4V1_014implementation3Omx11serviceDiedEmRKNS_2wpINS_4hidl4base4V1_05IBaseEEE"
  },
  {
   "name" : "_ZThn8_N7android8hardware5media3omx4V1_014implementation3OmxD0Ev"
  },
  {
   "name" : "_ZThn8_N7android8hardware5media3omx4V1_014implementation3OmxD1Ev"
  },
  {
   "name" : "_ZTv0_n24_N7android15OMXNodeInstanceD0Ev"
  },
  {
   "name" : "_ZTv0_n24_N7android15OMXNodeInstanceD1Ev"
  },
  {
   "name" : "_ZTv0_n24_N7android8hardware5media3omx4V1_014implementation3OmxD0Ev"
  },
  {
   "name" : "_ZTv0_n24_N7android8hardware5media3omx4V1_014implementation3OmxD1Ev"
  },
  {
   "name" : "_ZTv0_n24_N7android8hardware5media3omx4V1_014implementation8OmxStoreD0Ev"
  },
  {
   "name" : "_ZTv0_n24_N7android8hardware5media3omx4V1_014implementation8OmxStoreD1Ev"
  }
 ],
 "elf_objects" :
 [
  {
   "name" : "_ZN7android15OMXNodeInstance10kCallbacksE"
  },
  {
   "name" : "_ZTCN7android15OMXNodeInstance24CallbackDispatcherThreadE0_NS_6ThreadE"
  },
  {
   "name" : "_ZTCN7android15OMXNodeInstanceE0_NS_10IInterfaceE"
  },
  {
   "name" : "_ZTCN7android15OMXNodeInstanceE0_NS_11BnInterfaceINS_8IOMXNodeEEE"
  },
  {
   "name" : "_ZTCN7android15OMXNodeInstanceE0_NS_8IOMXNodeE"
  },
  {
   "name" : "_ZTCN7android15OMXNodeInstanceE0_NS_9BnOMXNodeE"
  },
  {
   "name" : "_ZTCN7android15OMXNodeInstanceE8_NS_7BBinderE"
  },
  {
   "name" : "_ZTCN7android15OMXNodeInstanceE8_NS_7IBinderE"
  },
  {
   "name" : "_ZTCN7android8hardware5media3omx4V1_014implementation13LWOmxObserverE0_NS_10IInterfaceE"
  },
  {
   "name" : "_ZTCN7android8hardware5media3omx4V1_014implementation13LWOmxObserverE0_NS_11BnInterfaceINS_12IOMXObserverEEE"
  },
  {
   "name" : "_ZTCN7android8hardware5media3omx4V1_014implementation13LWOmxObserverE0_NS_12IOMXObserverE"
  },
  {
   "name" : "_ZTCN7android8hardware5media3omx4V1_014implementation13LWOmxObserverE0_NS_13BnOMXObserverE"
  },
  {
   "name" : "_ZTCN7android8hardware5media3omx4V1_014implementation13LWOmxObserverE8_NS_7BBinderE"
  },
  {
   "name" : "_ZTCN7android8hardware5media3omx4V1_014implementation13LWOmxObserverE8_NS_7IBinderE"
  },
  {
   "name" : "_ZTCN7android8hardware5media3omx4V1_014implementation13TWOmxObserverE0_NS3_12IOmxObserverE"
  },
  {
   "name" : "_ZTCN7android8hardware5media3omx4V1_014implementation13TWOmxObserverE0_NS_4hidl4base4V1_05IBaseE"
  },
  {
   "name" : "_ZTCN7android8hardware5media3omx4V1_014implementation17LWOmxBufferSourceE0_NS_10IInterfaceE"
  },
  {
   "name" : "_ZTCN7android8hardware5media3omx4V1_014implementation17LWOmxBufferSourceE0_NS_11BnInterfaceINS_16IOMXBufferSourceEEE"
  },
  {
   "name" : "_ZTCN7android8hardware5media3omx4V1_014implementation17LWOmxBufferSourceE0_NS_16IOMXBufferSourceE"
  },
  {
   "name" : "_ZTCN7android8hardware5media3omx4V1_014implementation17LWOmxBufferSourceE0_NS_17BnOMXBufferSourceE"
  },
  {
   "name" : "_ZTCN7android8hardware5media3omx4V1_014implementation17LWOmxBufferSourceE8_NS_7BBinderE"
  },
  {
   "name" : "_ZTCN7android8hardware5media3omx4V1_014implementation17LWOmxBufferSourceE8_NS_7IBinderE"
  },
  {
   "name" : "_ZTCN7android8hardware5media3omx4V1_014implementation17TWOmxBufferSourceE0_NS3_16IOmxBufferSourceE"
  },
  {
   "name" : "_ZTCN7android8hardware5media3omx4V1_014implementation17TWOmxBufferSourceE0_NS_4hidl4base4V1_05IBaseE"
  },
  {
   "name" : "_ZTCN7android8hardware5media3omx4V1_014implementation21TWGraphicBufferSourceE0_NS3_20IGraphicBufferSourceE"
  },
  {
   "name" : "_ZTCN7android8hardware5media3omx4V1_014implementation21TWGraphicBufferSourceE0_NS_4hidl4base4V1_05IBaseE"
  },
  {
   "name" : "_ZTCN7android8hardware5media3omx4V1_014implementation3OmxE0_NS3_4IOmxE"
  },
  {
   "name" : "_ZTCN7android8hardware5media3omx4V1_014implementation3OmxE0_NS_4hidl4base4V1_05IBaseE"
  },
  {
   "name" : "_ZTCN7android8hardware5media3omx4V1_014implementation3OmxE8_NS0_20hidl_death_recipientE"
  },
  {
   "name" : "_ZTCN7android8hardware5media3omx4V1_014implementation8OmxStoreE0_NS3_9IOmxStoreE"
  },
  {
   "name" : "_ZTCN7android8hardware5media3omx4V1_014implementation8OmxStoreE0_NS_4hidl4base4V1_05IBaseE"
  },
  {
   "name" : "_ZTCN7android8hardware5media3omx4V1_014implementation9LWOmxNodeE0_NS_10IInterfaceE"
  },
  {
   "name" : "_ZTCN7android8hardware5media3omx4V1_014implementation9LWOmxNodeE0_NS_11BnInterfaceINS_8IOMXNodeEEE"
  },
  {
   "name" : "_ZTCN7android8hardware5media3omx4V1_014implementation9LWOmxNodeE0_NS_8IOMXNodeE"
  },
  {
   "name" : "_ZTCN7android8hardware5media3omx4V1_014implementation9LWOmxNodeE0_NS_9BnOMXNodeE"
  },
  {
   "name" : "_ZTCN7android8hardware5media3omx4V1_014implementation9LWOmxNodeE8_NS_7BBinderE"
  },
  {
   "name" : "_ZTCN7android8hardware5media3omx4V1_014implementation9LWOmxNodeE8_NS_7IBinderE"
  },
  {
   "name" : "_ZTCN7android8hardware5media3omx4V1_014implementation9TWOmxNodeE0_NS3_8IOmxNodeE"
  },
  {
   "name" : "_ZTCN7android8hardware5media3omx4V1_014implementation9TWOmxNodeE0_NS_4hidl4base4V1_05IBaseE"
  },
  {
   "name" : "_ZTTN7android15OMXNodeInstance24CallbackDispatcherThreadE"
  },
  {
   "name" : "_ZTTN7android15OMXNodeInstanceE"
  },
  {
   "name" : "_ZTTN7android8hardware5media3omx4V1_014implementation13LWOmxObserverE"
  },
  {
   "name" : "_ZTTN7android8hardware5media3omx4V1_014implementation13TWOmxObserverE"
  },
  {
   "name" : "_ZTTN7android8hardware5media3omx4V1_014implementation17LWOmxBufferSourceE"
  },
  {
   "name" : "_ZTTN7android8hardware5media3omx4V1_014implementation17TWOmxBufferSourceE"
  },
  {
   "name" : "_ZTTN7android8hardware5media3omx4V1_014implementation21TWGraphicBufferSourceE"
  },
  {
   "name" : "_ZTTN7android8hardware5media3omx4V1_014implementation3OmxE"
  },
  {
   "name" : "_ZTTN7android8hardware5media3omx4V1_014implementation8OmxStoreE"
  },
  {
   "name" : "_ZTTN7android8hardware5media3omx4V1_014implementation9LWOmxNodeE"
  },
  {
   "name" : "_ZTTN7android8hardware5media3omx4V1_014implementation9TWOmxNodeE"
  },
  {
   "binding" : "weak",
   "name" : "_ZTVN7android12SortedVectorI13OMX_INDEXTYPEEE"
  },
  {
   "binding" : "weak",
   "name" : "_ZTVN7android12SortedVectorINS_16key_value_pair_tINS_2wpINS_4hidl4base4V1_05IBaseEEENS_2spINS_15OMXNodeInstanceEEEEEEE"
  },
  {
   "binding" : "weak",
   "name" : "_ZTVN7android12SortedVectorINS_16key_value_pair_tINS_7String8EPNS_13OMXPluginBaseEEEEE"
  },
  {
   "binding" : "weak",
   "name" : "_ZTVN7android12SortedVectorINS_16key_value_pair_tIP17OMX_COMPONENTTYPEPNS_13OMXPluginBaseEEEEE"
  },
  {
   "binding" : "weak",
   "name" : "_ZTVN7android12SortedVectorINS_16key_value_pair_tIP20OMX_BUFFERHEADERTYPEjEEEE"
  },
  {
   "binding" : "weak",
   "name" : "_ZTVN7android12SortedVectorINS_16key_value_pair_tIPNS_15OMXNodeInstanceENS_2wpINS_4hidl4base4V1_05IBaseEEEEEEE"
  },
  {
   "binding" : "weak",
   "name" : "_ZTVN7android12SortedVectorINS_16key_value_pair_tIjP20OMX_BUFFERHEADERTYPEEEEE"
  },
  {
   "binding" : "weak",
   "name" : "_ZTVN7android12SortedVectorINS_16key_value_pair_tIllEEEE"
  },
  {
   "binding" : "weak",
   "name" : "_ZTVN7android12SortedVectorIP20OMX_BUFFERHEADERTYPEEE"
  },
  {
   "name" : "_ZTVN7android15OMXNodeInstance18CallbackDispatcherE"
  },
  {
   "name" : "_ZTVN7android15OMXNodeInstance24CallbackDispatcherThreadE"
  },
  {
   "name" : "_ZTVN7android15OMXNodeInstanceE"
  },
  {
   "binding" : "weak",
   "name" : "_ZTVN7android18OMXFenceParcelableE"
  },
  {
   "binding" : "weak",
   "name" : "_ZTVN7android22OmxGraphicBufferSourceE"
  },
  {
   "binding" : "weak",
   "name" : "_ZTVN7android4ListINS_7String8EEE"
  },
  {
   "binding" : "weak",
   "name" : "_ZTVN7android4ListINS_9OMXMaster6PluginEEE"
  },
  {
   "binding" : "weak",
   "name" : "_ZTVN7android6VectorINS_15OMXNodeInstance12ActiveBufferEEE"
  },
  {
   "binding" : "weak",
   "name" : "_ZTVN7android6VectorINS_7String8EEE"
  },
  {
   "name" : "_ZTVN7android8hardware5media3omx4V1_014implementation13LWOmxObserverE"
  },
  {
   "name" : "_ZTVN7android8hardware5media3omx4V1_014implementation13TWOmxObserverE"
  },
  {
   "name" : "_ZTVN7android8hardware5media3omx4V1_014implementation17LWOmxBufferSourceE"
  },
  {
   "name" : "_ZTVN7android8hardware5media3omx4V1_014implementation17TWOmxBufferSourceE"
  },
  {
   "binding" : "weak",
   "name" : "_ZTVN7android8hardware5media3omx4V1_014implementation21TWGraphicBufferSource16TWOmxNodeWrapperE"
  },
  {
   "binding" : "weak",
   "name" : "_ZTVN7android8hardware5media3omx4V1_014implementation21TWGraphicBufferSource17TWOmxBufferSourceE"
  },
  {
   "name" : "_ZTVN7android8hardware5media3omx4V1_014implementation21TWGraphicBufferSourceE"
  },
  {
   "name" : "_ZTVN7android8hardware5media3omx4V1_014implementation3OmxE"
  },
  {
   "name" : "_ZTVN7android8hardware5media3omx4V1_014implementation8OmxStoreE"
  },
  {
   "name" : "_ZTVN7android8hardware5media3omx4V1_014implementation9LWOmxNodeE"
  },
  {
   "name" : "_ZTVN7android8hardware5media3omx4V1_014implementation9TWOmxNodeE"
  },
  {
   "name" : "_ZTVN7android9OMXMasterE"
  }
 ],
 "enum_types" :
 [
  {
   "alignment" : 4,
   "enum_fields" :
   [
    {
     "enum_field_value" : 0,
     "name" : "OMX_DirInput"
    },
    {
     "enum_field_value" : 1,
     "name" : "OMX_DirOutput"
    },
    {
     "enum_field_value" : 2147483647,
     "name" : "OMX_DirMax"
    }
   ],
   "linker_set_key" : "_ZTI11OMX_DIRTYPE",
   "name" : "OMX_DIRTYPE",
   "referenced_type" : "_ZTI11OMX_DIRTYPE",
   "self_type" : "_ZTI11OMX_DIRTYPE",
   "size" : 4,
   "source_file" : "/frameworks/native/headers/media_plugin/media/openmax/OMX_Types.h",
   "underlying_type" : "_ZTIj"
  },
  {
   "alignment" : 4,
   "enum_fields" :
   [
    {
     "enum_field_value" : 0,
     "name" : "OMX_ErrorNone"
    },
    {
     "enum_field_value" : -2147479552,
     "name" : "OMX_ErrorInsufficientResources"
    },
    {
     "enum_field_value" : -2147479551,
     "name" : "OMX_ErrorUndefined"
    },
    {
     "enum_field_value" : -2147479550,
     "name" : "OMX_ErrorInvalidComponentName"
    },
    {
     "enum_field_value" : -2147479549,
     "name" : "OMX_ErrorComponentNotFound"
    },
    {
     "enum_field_value" : -2147479548,
     "name" : "OMX_ErrorInvalidComponent"
    },
    {
     "enum_field_value" : -2147479547,
     "name" : "OMX_ErrorBadParameter"
    },
    {
     "enum_field_value" : -2147479546,
     "name" : "OMX_ErrorNotImplemented"
    },
    {
     "enum_field_value" : -2147479545,
     "name" : "OMX_ErrorUnderflow"
    },
    {
     "enum_field_value" : -2147479544,
     "name" : "OMX_ErrorOverflow"
    },
    {
     "enum_field_value" : -2147479543,
     "name" : "OMX_ErrorHardware"
    },
    {
     "enum_field_value" : -2147479542,
     "name" : "OMX_ErrorInvalidState"
    },
    {
     "enum_field_value" : -2147479541,
     "name" : "OMX_ErrorStreamCorrupt"
    },
    {
     "enum_field_value" : -2147479540,
     "name" : "OMX_ErrorPortsNotCompatible"
    },
    {
     "enum_field_value" : -2147479539,
     "name" : "OMX_ErrorResourcesLost"
    },
    {
     "enum_field_value" : -2147479538,
     "name" : "OMX_ErrorNoMore"
    },
    {
     "enum_field_value" : -2147479537,
     "name" : "OMX_ErrorVersionMismatch"
    },
    {
     "enum_field_value" : -2147479536,
     "name" : "OMX_ErrorNotReady"
    },
    {
     "enum_field_value" : -2147479535,
     "name" : "OMX_ErrorTimeout"
    },
    {
     "enum_field_value" : -2147479534,
     "name" : "OMX_ErrorSameState"
    },
    {
     "enum_field_value" : -2147479533,
     "name" : "OMX_ErrorResourcesPreempted"
    },
    {
     "enum_field_value" : -2147479532,
     "name" : "OMX_ErrorPortUnresponsiveDuringAllocation"
    },
    {
     "enum_field_value" : -2147479531,
     "name" : "OMX_ErrorPortUnresponsiveDuringDeallocation"
    },
    {
     "enum_field_value" : -2147479530,
     "name" : "OMX_ErrorPortUnresponsiveDuringStop"
    },
    {
     "enum_field_value" : -2147479529,
     "name" : "OMX_ErrorIncorrectStateTransition"
    },
    {
     "enum_field_value" : -2147479528,
     "name" : "OMX_ErrorIncorrectStateOperation"
    },
    {
     "enum_field_value" : -2147479527,
     "name" : "OMX_ErrorUnsupportedSetting"
    },
    {
     "enum_field_value" : -2147479526,
     "name" : "OMX_ErrorUnsupportedIndex"
    },
    {
     "enum_field_value" : -2147479525,
     "name" : "OMX_ErrorBadPortIndex"
    },
    {
     "enum_field_value" : -2147479524,
     "name" : "OMX_ErrorPortUnpopulated"
    },
    {
     "enum_field_value" : -2147479523,
     "name" : "OMX_ErrorComponentSuspended"
    },
    {
     "enum_field_value" : -2147479522,
     "name" : "OMX_ErrorDynamicResourcesUnavailable"
    },
    {
     "enum_field_value" : -2147479521,
     "name" : "OMX_ErrorMbErrorsInFrame"
    },
    {
     "enum_field_value" : -2147479520,
     "name" : "OMX_ErrorFormatNotDetected"
    },
    {
     "enum_field_value" : -2147479519,
     "name" : "OMX_ErrorContentPipeOpenFailed"
    },
    {
     "enum_field_value" : -2147479518,
     "name" : "OMX_ErrorContentPipeCreationFailed"
    },
    {
     "enum_field_value" : -2147479517,
     "name" : "OMX_ErrorSeperateTablesUsed"
    },
    {
     "enum_field_value" : -2147479516,
     "name" : "OMX_ErrorTunnelingUnsupported"
    },
    {
     "enum_field_value" : -1895825408,
     "name" : "OMX_ErrorKhronosExtensions"
    },
    {
     "enum_field_value" : -1879048192,
     "name" : "OMX_ErrorVendorStartUnused"
    },
    {
     "enum_field_value" : 2147483647,
     "name" : "OMX_ErrorMax"
    }
   ],
   "linker_set_key" : "_ZTI13OMX_ERRORTYPE",
   "name" : "OMX_ERRORTYPE",
   "referenced_type" : "_ZTI13OMX_ERRORTYPE",
   "self_type" : "_ZTI13OMX_ERRORTYPE",
   "size" : 4,
   "source_file" : "/frameworks/native/headers/media_plugin/media/openmax/OMX_Core.h",
   "underlying_type" : "_ZTIi"
  },
  {
   "alignment" : 4,
   "enum_fields" :
   [
    {
     "enum_field_value" : 0,
     "name" : "OMX_EventCmdComplete"
    },
    {
     "enum_field_value" : 1,
     "name" : "OMX_EventError"
    },
    {
     "enum_field_value" : 2,
     "name" : "OMX_EventMark"
    },
    {
     "enum_field_value" : 3,
     "name" : "OMX_EventPortSettingsChanged"
    },
    {
     "enum_field_value" : 4,
     "name" : "OMX_EventBufferFlag"
    },
    {
     "enum_field_value" : 5,
     "name" : "OMX_EventResourcesAcquired"
    },
    {
     "enum_field_value" : 6,
     "name" : "OMX_EventComponentResumed"
    },
    {
     "enum_field_value" : 7,
     "name" : "OMX_EventDynamicResourcesAvailable"
    },
    {
     "enum_field_value" : 8,
     "name" : "OMX_EventPortFormatDetected"
    },
    {
     "enum_field_value" : 1862270976,
     "name" : "OMX_EventKhronosExtensions"
    },
    {
     "enum_field_value" : 2130706432,
     "name" : "OMX_EventVendorStartUnused"
    },
    {
     "enum_field_value" : 2130706433,
     "name" : "OMX_EventOutputRendered"
    },
    {
     "enum_field_value" : 2130706434,
     "name" : "OMX_EventDataSpaceChanged"
    },
    {
     "enum_field_value" : 2130706435,
     "name" : "OMX_EventConfigUpdate"
    },
    {
     "enum_field_value" : 2147483647,
     "name" : "OMX_EventMax"
    }
   ],
   "linker_set_key" : "_ZTI13OMX_EVENTTYPE",
   "name" : "OMX_EVENTTYPE",
   "referenced_type" : "_ZTI13OMX_EVENTTYPE",
   "self_type" : "_ZTI13OMX_EVENTTYPE",
   "size" : 4,
   "source_file" : "/frameworks/native/headers/media_plugin/media/openmax/OMX_Core.h",
   "underlying_type" : "_ZTIj"
  },
  {
   "alignment" : 4,
   "enum_fields" :
   [
    {
     "enum_field_value" : 16777216,
     "name" : "OMX_IndexComponentStartUnused"
    },
    {
     "enum_field_value" : 16777217,
     "name" : "OMX_IndexParamPriorityMgmt"
    },
    {
     "enum_field_value" : 16777218,
     "name" : "OMX_IndexParamAudioInit"
    },
    {
     "enum_field_value" : 16777219,
     "name" : "OMX_IndexParamImageInit"
    },
    {
     "enum_field_value" : 16777220,
     "name" : "OMX_IndexParamVideoInit"
    },
    {
     "enum_field_value" : 16777221,
     "name" : "OMX_IndexParamOtherInit"
    },
    {
     "enum_field_value" : 16777222,
     "name" : "OMX_IndexParamNumAvailableStreams"
    },
    {
     "enum_field_value" : 16777223,
     "name" : "OMX_IndexParamActiveStream"
    },
    {
     "enum_field_value" : 16777224,
     "name" : "OMX_IndexParamSuspensionPolicy"
    },
    {
     "enum_field_value" : 16777225,
     "name" : "OMX_IndexParamComponentSuspended"
    },
    {
     "enum_field_value" : 16777226,
     "name" : "OMX_IndexConfigCapturing"
    },
    {
     "enum_field_value" : 16777227,
     "name" : "OMX_IndexConfigCaptureMode"
    },
    {
     "enum_field_value" : 16777228,
     "name" : "OMX_IndexAutoPauseAfterCapture"
    },
    {
     "enum_field_value" : 16777229,
     "name" : "OMX_IndexParamContentURI"
    },
    {
     "enum_field_value" : 16777230,
     "name" : "OMX_IndexParamCustomContentPipe"
    },
    {
     "enum_field_value" : 16777231,
     "name" : "OMX_IndexParamDisableResourceConcealment"
    },
    {
     "enum_field_value" : 16777232,
     "name" : "OMX_IndexConfigMetadataItemCount"
    },
    {
     "enum_field_value" : 16777233,
     "name" : "OMX_IndexConfigContainerNodeCount"
    },
    {
     "enum_field_value" : 16777234,
     "name" : "OMX_IndexConfigMetadataItem"
    },
    {
     "enum_field_value" : 16777235,
     "name" : "OMX_IndexConfigCounterNodeID"
    },
    {
     "enum_field_value" : 16777236,
     "name" : "OMX_IndexParamMetadataFilterType"
    },
    {
     "enum_field_value" : 16777237,
     "name" : "OMX_IndexParamMetadataKeyFilter"
    },
    {
     "enum_field_value" : 16777238,
     "name" : "OMX_IndexConfigPriorityMgmt"
    },
    {
     "enum_field_value" : 16777239,
     "name" : "OMX_IndexParamStandardComponentRole"
    },
    {
     "enum_field_value" : 16777240,
     "name" : "OMX_IndexComponentEndUnused"
    },
    {
     "enum_field_value" : 33554432,
     "name" : "OMX_IndexPortStartUnused"
    },
    {
     "enum_field_value" : 33554433,
     "name" : "OMX_IndexParamPortDefinition"
    },
    {
     "enum_field_value" : 33554434,
     "name" : "OMX_IndexParamCompBufferSupplier"
    },
    {
     "enum_field_value" : 33554435,
     "name" : "OMX_IndexPortEndUnused"
    },
    {
     "enum_field_value" : 50331648,
     "name" : "OMX_IndexReservedStartUnused"
    },
    {
     "enum_field_value" : 67108864,
     "name" : "OMX_IndexAudioStartUnused"
    },
    {
     "enum_field_value" : 67108865,
     "name" : "OMX_IndexParamAudioPortFormat"
    },
    {
     "enum_field_value" : 67108866,
     "name" : "OMX_IndexParamAudioPcm"
    },
    {
     "enum_field_value" : 67108867,
     "name" : "OMX_IndexParamAudioAac"
    },
    {
     "enum_field_value" : 67108868,
     "name" : "OMX_IndexParamAudioRa"
    },
    {
     "enum_field_value" : 67108869,
     "name" : "OMX_IndexParamAudioMp3"
    },
    {
     "enum_field_value" : 67108870,
     "name" : "OMX_IndexParamAudioAdpcm"
    },
    {
     "enum_field_value" : 67108871,
     "name" : "OMX_IndexParamAudioG723"
    },
    {
     "enum_field_value" : 67108872,
     "name" : "OMX_IndexParamAudioG729"
    },
    {
     "enum_field_value" : 67108873,
     "name" : "OMX_IndexParamAudioAmr"
    },
    {
     "enum_field_value" : 67108874,
     "name" : "OMX_IndexParamAudioWma"
    },
    {
     "enum_field_value" : 67108875,
     "name" : "OMX_IndexParamAudioSbc"
    },
    {
     "enum_field_value" : 67108876,
     "name" : "OMX_IndexParamAudioMidi"
    },
    {
     "enum_field_value" : 67108877,
     "name" : "OMX_IndexParamAudioGsm_FR"
    },
    {
     "enum_field_value" : 67108878,
     "name" : "OMX_IndexParamAudioMidiLoadUserSound"
    },
    {
     "enum_field_value" : 67108879,
     "name" : "OMX_IndexParamAudioG726"
    },
    {
     "enum_field_value" : 67108880,
     "name" : "OMX_IndexParamAudioGsm_EFR"
    },
    {
     "enum_field_value" : 67108881,
     "name" : "OMX_IndexParamAudioGsm_HR"
    },
    {
     "enum_field_value" : 67108882,
     "name" : "OMX_IndexParamAudioPdc_FR"
    },
    {
     "enum_field_value" : 67108883,
     "name" : "OMX_IndexParamAudioPdc_EFR"
    },
    {
     "enum_field_value" : 67108884,
     "name" : "OMX_IndexParamAudioPdc_HR"
    },
    {
     "enum_field_value" : 67108885,
     "name" : "OMX_IndexParamAudioTdma_FR"
    },
    {
     "enum_field_value" : 67108886,
     "name" : "OMX_IndexParamAudioTdma_EFR"
    },
    {
     "enum_field_value" : 67108887,
     "name" : "OMX_IndexParamAudioQcelp8"
    },
    {
     "enum_field_value" : 67108888,
     "name" : "OMX_IndexParamAudioQcelp13"
    },
    {
     "enum_field_value" : 67108889,
     "name" : "OMX_IndexParamAudioEvrc"
    },
    {
     "enum_field_value" : 67108890,
     "name" : "OMX_IndexParamAudioSmv"
    },
    {
     "enum_field_value" : 67108891,
     "name" : "OMX_IndexParamAudioVorbis"
    },
    {
     "enum_field_value" : 67108892,
     "name" : "OMX_IndexParamAudioFlac"
    },
    {
     "enum_field_value" : 67108893,
     "name" : "OMX_IndexAudioEndUnused"
    },
    {
     "enum_field_value" : 67108894,
     "name" : "OMX_IndexConfigAudioMidiImmediateEvent"
    },
    {
     "enum_field_value" : 67108895,
     "name" : "OMX_IndexConfigAudioMidiControl"
    },
    {
     "enum_field_value" : 67108896,
     "name" : "OMX_IndexConfigAudioMidiSoundBankProgram"
    },
    {
     "enum_field_value" : 67108897,
     "name" : "OMX_IndexConfigAudioMidiStatus"
    },
    {
     "enum_field_value" : 67108898,
     "name" : "OMX_IndexConfigAudioMidiMetaEvent"
    },
    {
     "enum_field_value" : 67108899,
     "name" : "OMX_IndexConfigAudioMidiMetaEventData"
    },
    {
     "enum_field_value" : 67108900,
     "name" : "OMX_IndexConfigAudioVolume"
    },
    {
     "enum_field_value" : 67108901,
     "name" : "OMX_IndexConfigAudioBalance"
    },
    {
     "enum_field_value" : 67108902,
     "name" : "OMX_IndexConfigAudioChannelMute"
    },
    {
     "enum_field_value" : 67108903,
     "name" : "OMX_IndexConfigAudioMute"
    },
    {
     "enum_field_value" : 67108904,
     "name" : "OMX_IndexConfigAudioLoudness"
    },
    {
     "enum_field_value" : 67108905,
     "name" : "OMX_IndexConfigAudioEchoCancelation"
    },
    {
     "enum_field_value" : 67108906,
     "name" : "OMX_IndexConfigAudioNoiseReduction"
    },
    {
     "enum_field_value" : 67108907,
     "name" : "OMX_IndexConfigAudioBass"
    },
    {
     "enum_field_value" : 67108908,
     "name" : "OMX_IndexConfigAudioTreble"
    },
    {
     "enum_field_value" : 67108909,
     "name" : "OMX_IndexConfigAudioStereoWidening"
    },
    {
     "enum_field_value" : 67108910,
     "name" : "OMX_IndexConfigAudioChorus"
    },
    {
     "enum_field_value" : 67108911,
     "name" : "OMX_IndexConfigAudioEqualizer"
    },
    {
     "enum_field_value" : 67108912,
     "name" : "OMX_IndexConfigAudioReverberation"
    },
    {
     "enum_field_value" : 67108913,
     "name" : "OMX_IndexConfigAudioChannelVolume"
    },
    {
     "enum_field_value" : 83886080,
     "name" : "OMX_IndexImageStartUnused"
    },
    {
     "enum_field_value" : 83886081,
     "name" : "OMX_IndexParamImagePortFormat"
    },
    {
     "enum_field_value" : 83886082,
     "name" : "OMX_IndexParamFlashControl"
    },
    {
     "enum_field_value" : 83886083,
     "name" : "OMX_IndexConfigFocusControl"
    },
    {
     "enum_field_value" : 83886084,
     "name" : "OMX_IndexParamQFactor"
    },
    {
     "enum_field_value" : 83886085,
     "name" : "OMX_IndexParamQuantizationTable"
    },
    {
     "enum_field_value" : 83886086,
     "name" : "OMX_IndexParamHuffmanTable"
    },
    {
     "enum_field_value" : 83886087,
     "name" : "OMX_IndexConfigFlashControl"
    },
    {
     "enum_field_value" : 100663296,
     "name" : "OMX_IndexVideoStartUnused"
    },
    {
     "enum_field_value" : 100663297,
     "name" : "OMX_IndexParamVideoPortFormat"
    },
    {
     "enum_field_value" : 100663298,
     "name" : "OMX_IndexParamVideoQuantization"
    },
    {
     "enum_field_value" : 100663299,
     "name" : "OMX_IndexParamVideoFastUpdate"
    },
    {
     "enum_field_value" : 100663300,
     "name" : "OMX_IndexParamVideoBitrate"
    },
    {
     "enum_field_value" : 100663301,
     "name" : "OMX_IndexParamVideoMotionVector"
    },
    {
     "enum_field_value" : 100663302,
     "name" : "OMX_IndexParamVideoIntraRefresh"
    },
    {
     "enum_field_value" : 100663303,
     "name" : "OMX_IndexParamVideoErrorCorrection"
    },
    {
     "enum_field_value" : 100663304,
     "name" : "OMX_IndexParamVideoVBSMC"
    },
    {
     "enum_field_value" : 100663305,
     "name" : "OMX_IndexParamVideoMpeg2"
    },
    {
     "enum_field_value" : 100663306,
     "name" : "OMX_IndexParamVideoMpeg4"
    },
    {
     "enum_field_value" : 100663307,
     "name" : "OMX_IndexParamVideoWmv"
    },
    {
     "enum_field_value" : 100663308,
     "name" : "OMX_IndexParamVideoRv"
    },
    {
     "enum_field_value" : 100663309,
     "name" : "OMX_IndexParamVideoAvc"
    },
    {
     "enum_field_value" : 100663310,
     "name" : "OMX_IndexParamVideoH263"
    },
    {
     "enum_field_value" : 100663311,
     "name" : "OMX_IndexParamVideoProfileLevelQuerySupported"
    },
    {
     "enum_field_value" : 100663312,
     "name" : "OMX_IndexParamVideoProfileLevelCurrent"
    },
    {
     "enum_field_value" : 100663313,
     "name" : "OMX_IndexConfigVideoBitrate"
    },
    {
     "enum_field_value" : 100663314,
     "name" : "OMX_IndexConfigVideoFramerate"
    },
    {
     "enum_field_value" : 100663315,
     "name" : "OMX_IndexConfigVideoIntraVOPRefresh"
    },
    {
     "enum_field_value" : 100663316,
     "name" : "OMX_IndexConfigVideoIntraMBRefresh"
    },
    {
     "enum_field_value" : 100663317,
     "name" : "OMX_IndexConfigVideoMBErrorReporting"
    },
    {
     "enum_field_value" : 100663318,
     "name" : "OMX_IndexParamVideoMacroblocksPerFrame"
    },
    {
     "enum_field_value" : 100663319,
     "name" : "OMX_IndexConfigVideoMacroBlockErrorMap"
    },
    {
     "enum_field_value" : 100663320,
     "name" : "OMX_IndexParamVideoSliceFMO"
    },
    {
     "enum_field_value" : 100663321,
     "name" : "OMX_IndexConfigVideoAVCIntraPeriod"
    },
    {
     "enum_field_value" : 100663322,
     "name" : "OMX_IndexConfigVideoNalSize"
    },
    {
     "enum_field_value" : 100663323,
     "name" : "OMX_IndexVideoEndUnused"
    },
    {
     "enum_field_value" : 117440512,
     "name" : "OMX_IndexCommonStartUnused"
    },
    {
     "enum_field_value" : 117440513,
     "name" : "OMX_IndexParamCommonDeblocking"
    },
    {
     "enum_field_value" : 117440514,
     "name" : "OMX_IndexParamCommonSensorMode"
    },
    {
     "enum_field_value" : 117440515,
     "name" : "OMX_IndexParamCommonInterleave"
    },
    {
     "enum_field_value" : 117440516,
     "name" : "OMX_IndexConfigCommonColorFormatConversion"
    },
    {
     "enum_field_value" : 117440517,
     "name" : "OMX_IndexConfigCommonScale"
    },
    {
     "enum_field_value" : 117440518,
     "name" : "OMX_IndexConfigCommonImageFilter"
    },
    {
     "enum_field_value" : 117440519,
     "name" : "OMX_IndexConfigCommonColorEnhancement"
    },
    {
     "enum_field_value" : 117440520,
     "name" : "OMX_IndexConfigCommonColorKey"
    },
    {
     "enum_field_value" : 117440521,
     "name" : "OMX_IndexConfigCommonColorBlend"
    },
    {
     "enum_field_value" : 117440522,
     "name" : "OMX_IndexConfigCommonFrameStabilisation"
    },
    {
     "enum_field_value" : 117440523,
     "name" : "OMX_IndexConfigCommonRotate"
    },
    {
     "enum_field_value" : 117440524,
     "name" : "OMX_IndexConfigCommonMirror"
    },
    {
     "enum_field_value" : 117440525,
     "name" : "OMX_IndexConfigCommonOutputPosition"
    },
    {
     "enum_field_value" : 117440526,
     "name" : "OMX_IndexConfigCommonInputCrop"
    },
    {
     "enum_field_value" : 117440527,
     "name" : "OMX_IndexConfigCommonOutputCrop"
    },
    {
     "enum_field_value" : 117440528,
     "name" : "OMX_IndexConfigCommonDigitalZoom"
    },
    {
     "enum_field_value" : 117440529,
     "name" : "OMX_IndexConfigCommonOpticalZoom"
    },
    {
     "enum_field_value" : 117440530,
     "name" : "OMX_IndexConfigCommonWhiteBalance"
    },
    {
     "enum_field_value" : 117440531,
     "name" : "OMX_IndexConfigCommonExposure"
    },
    {
     "enum_field_value" : 117440532,
     "name" : "OMX_IndexConfigCommonContrast"
    },
    {
     "enum_field_value" : 117440533,
     "name" : "OMX_IndexConfigCommonBrightness"
    },
    {
     "enum_field_value" : 117440534,
     "name" : "OMX_IndexConfigCommonBacklight"
    },
    {
     "enum_field_value" : 117440535,
     "name" : "OMX_IndexConfigCommonGamma"
    },
    {
     "enum_field_value" : 117440536,
     "name" : "OMX_IndexConfigCommonSaturation"
    },
    {
     "enum_field_value" : 117440537,
     "name" : "OMX_IndexConfigCommonLightness"
    },
    {
     "enum_field_value" : 117440538,
     "name" : "OMX_IndexConfigCommonExclusionRect"
    },
    {
     "enum_field_value" : 117440539,
     "name" : "OMX_IndexConfigCommonDithering"
    },
    {
     "enum_field_value" : 117440540,
     "name" : "OMX_IndexConfigCommonPlaneBlend"
    },
    {
     "enum_field_value" : 117440541,
     "name" : "OMX_IndexConfigCommonExposureValue"
    },
    {
     "enum_field_value" : 117440542,
     "name" : "OMX_IndexConfigCommonOutputSize"
    },
    {
     "enum_field_value" : 117440543,
     "name" : "OMX_IndexParamCommonExtraQuantData"
    },
    {
     "enum_field_value" : 117440544,
     "name" : "OMX_IndexConfigCommonFocusRegion"
    },
    {
     "enum_field_value" : 117440545,
     "name" : "OMX_IndexConfigCommonFocusStatus"
    },
    {
     "enum_field_value" : 117440546,
     "name" : "OMX_IndexConfigCommonTransitionEffect"
    },
    {
     "enum_field_value" : 117440547,
     "name" : "OMX_IndexCommonEndUnused"
    },
    {
     "enum_field_value" : 134217728,
     "name" : "OMX_IndexOtherStartUnused"
    },
    {
     "enum_field_value" : 134217729,
     "name" : "OMX_IndexParamOtherPortFormat"
    },
    {
     "enum_field_value" : 134217730,
     "name" : "OMX_IndexConfigOtherPower"
    },
    {
     "enum_field_value" : 134217731,
     "name" : "OMX_IndexConfigOtherStats"
    },
    {
     "enum_field_value" : 150994944,
     "name" : "OMX_IndexTimeStartUnused"
    },
    {
     "enum_field_value" : 150994945,
     "name" : "OMX_IndexConfigTimeScale"
    },
    {
     "enum_field_value" : 150994946,
     "name" : "OMX_IndexConfigTimeClockState"
    },
    {
     "enum_field_value" : 150994947,
     "name" : "OMX_IndexConfigTimeActiveRefClock"
    },
    {
     "enum_field_value" : 150994948,
     "name" : "OMX_IndexConfigTimeCurrentMediaTime"
    },
    {
     "enum_field_value" : 150994949,
     "name" : "OMX_IndexConfigTimeCurrentWallTime"
    },
    {
     "enum_field_value" : 150994950,
     "name" : "OMX_IndexConfigTimeCurrentAudioReference"
    },
    {
     "enum_field_value" : 150994951,
     "name" : "OMX_IndexConfigTimeCurrentVideoReference"
    },
    {
     "enum_field_value" : 150994952,
     "name" : "OMX_IndexConfigTimeMediaTimeRequest"
    },
    {
     "enum_field_value" : 150994953,
     "name" : "OMX_IndexConfigTimeClientStartTime"
    },
    {
     "enum_field_value" : 150994954,
     "name" : "OMX_IndexConfigTimePosition"
    },
    {
     "enum_field_value" : 150994955,
     "name" : "OMX_IndexConfigTimeSeekMode"
    },
    {
     "enum_field_value" : 1862270976,
     "name" : "OMX_IndexKhronosExtensions"
    },
    {
     "enum_field_value" : 2130706432,
     "name" : "OMX_IndexVendorStartUnused"
    },
    {
     "enum_field_value" : 2147483647,
     "name" : "OMX_IndexMax"
    }
   ],
   "linker_set_key" : "_ZTI13OMX_INDEXTYPE",
   "name" : "OMX_INDEXTYPE",
   "referenced_type" : "_ZTI13OMX_INDEXTYPE",
   "self_type" : "_ZTI13OMX_INDEXTYPE",
   "size" : 4,
   "source_file" : "/frameworks/native/headers/media_plugin/media/openmax/OMX_Index.h",
   "underlying_type" : "_ZTIj"
  },
  {
   "alignment" : 4,
   "enum_fields" :
   [
    {
     "enum_field_value" : 0,
     "name" : "OMX_StateInvalid"
    },
    {
     "enum_field_value" : 1,
     "name" : "OMX_StateLoaded"
    },
    {
     "enum_field_value" : 2,
     "name" : "OMX_StateIdle"
    },
    {
     "enum_field_value" : 3,
     "name" : "OMX_StateExecuting"
    },
    {
     "enum_field_value" : 4,
     "name" : "OMX_StatePause"
    },
    {
     "enum_field_value" : 5,
     "name" : "OMX_StateWaitForResources"
    },
    {
     "enum_field_value" : 1862270976,
     "name" : "OMX_StateKhronosExtensions"
    },
    {
     "enum_field_value" : 2130706432,
     "name" : "OMX_StateVendorStartUnused"
    },
    {
     "enum_field_value" : 2147483647,
     "name" : "OMX_StateMax"
    }
   ],
   "linker_set_key" : "_ZTI13OMX_STATETYPE",
   "name" : "OMX_STATETYPE",
   "referenced_type" : "_ZTI13OMX_STATETYPE",
   "self_type" : "_ZTI13OMX_STATETYPE",
   "size" : 4,
   "source_file" : "/frameworks/native/headers/media_plugin/media/openmax/OMX_Core.h",
   "underlying_type" : "_ZTIj"
  },
  {
   "alignment" : 4,
   "enum_fields" :
   [
    {
     "enum_field_value" : 1,
     "name" : "HAL_HDR_DOLBY_VISION"
    },
    {
     "enum_field_value" : 2,
     "name" : "HAL_HDR_HDR10"
    },
    {
     "enum_field_value" : 3,
     "name" : "HAL_HDR_HLG"
    }
   ],
   "linker_set_key" : "_ZTI13android_hdr_t",
   "name" : "android_hdr_t",
   "referenced_type" : "_ZTI13android_hdr_t",
   "self_type" : "_ZTI13android_hdr_t",
   "size" : 4,
   "source_file" : "/system/core/libsystem/include/system/graphics-base-v1.0.h",
   "underlying_type" : "_ZTIj"
  },
  {
   "alignment" : 4,
   "enum_fields" :
   [
    {
     "enum_field_value" : 0,
     "name" : "OMX_DitherNone"
    },
    {
     "enum_field_value" : 1,
     "name" : "OMX_DitherOrdered"
    },
    {
     "enum_field_value" : 2,
     "name" : "OMX_DitherErrorDiffusion"
    },
    {
     "enum_field_value" : 3,
     "name" : "OMX_DitherOther"
    },
    {
     "enum_field_value" : 1862270976,
     "name" : "OMX_DitherKhronosExtensions"
    },
    {
     "enum_field_value" : 2130706432,
     "name" : "OMX_DitherVendorStartUnused"
    },
    {
     "enum_field_value" : 2147483647,
     "name" : "OMX_DitherMax"
    }
   ],
   "linker_set_key" : "_ZTI14OMX_DITHERTYPE",
   "name" : "OMX_DITHERTYPE",
   "referenced_type" : "_ZTI14OMX_DITHERTYPE",
   "self_type" : "_ZTI14OMX_DITHERTYPE",
   "size" : 4,
   "source_file" : "/frameworks/native/headers/media_plugin/media/openmax/OMX_IVCommon.h",
   "underlying_type" : "_ZTIj"
  },
  {
   "alignment" : 4,
   "enum_fields" :
   [
    {
     "enum_field_value" : 0,
     "name" : "OMX_EndianBig"
    },
    {
     "enum_field_value" : 1,
     "name" : "OMX_EndianLittle"
    },
    {
     "enum_field_value" : 2147483647,
     "name" : "OMX_EndianMax"
    }
   ],
   "linker_set_key" : "_ZTI14OMX_ENDIANTYPE",
   "name" : "OMX_ENDIANTYPE",
   "referenced_type" : "_ZTI14OMX_ENDIANTYPE",
   "self_type" : "_ZTI14OMX_ENDIANTYPE",
   "size" : 4,
   "source_file" : "/frameworks/native/headers/media_plugin/media/openmax/OMX_Types.h",
   "underlying_type" : "_ZTIj"
  },
  {
   "alignment" : 4,
   "enum_fields" :
   [
    {
     "enum_field_value" : 0,
     "name" : "OMX_MirrorNone"
    },
    {
     "enum_field_value" : 1,
     "name" : "OMX_MirrorVertical"
    },
    {
     "enum_field_value" : 2,
     "name" : "OMX_MirrorHorizontal"
    },
    {
     "enum_field_value" : 3,
     "name" : "OMX_MirrorBoth"
    },
    {
     "enum_field_value" : 1862270976,
     "name" : "OMX_MirrorKhronosExtensions"
    },
    {
     "enum_field_value" : 2130706432,
     "name" : "OMX_MirrorVendorStartUnused"
    },
    {
     "enum_field_value" : 2147483647,
     "name" : "OMX_MirrorMax"
    }
   ],
   "linker_set_key" : "_ZTI14OMX_MIRRORTYPE",
   "name" : "OMX_MIRRORTYPE",
   "referenced_type" : "_ZTI14OMX_MIRRORTYPE",
   "self_type" : "_ZTI14OMX_MIRRORTYPE",
   "size" : 4,
   "source_file" : "/frameworks/native/headers/media_plugin/media/openmax/OMX_IVCommon.h",
   "underlying_type" : "_ZTIj"
  },
  {
   "alignment" : 4,
   "enum_fields" :
   [
    {
     "enum_field_value" : 0,
     "name" : "OMX_CommandStateSet"
    },
    {
     "enum_field_value" : 1,
     "name" : "OMX_CommandFlush"
    },
    {
     "enum_field_value" : 2,
     "name" : "OMX_CommandPortDisable"
    },
    {
     "enum_field_value" : 3,
     "name" : "OMX_CommandPortEnable"
    },
    {
     "enum_field_value" : 4,
     "name" : "OMX_CommandMarkBuffer"
    },
    {
     "enum_field_value" : 1862270976,
     "name" : "OMX_CommandKhronosExtensions"
    },
    {
     "enum_field_value" : 2130706432,
     "name" : "OMX_CommandVendorStartUnused"
    },
    {
     "enum_field_value" : 2147483647,
     "name" : "OMX_CommandMax"
    }
   ],
   "linker_set_key" : "_ZTI15OMX_COMMANDTYPE",
   "name" : "OMX_COMMANDTYPE",
   "referenced_type" : "_ZTI15OMX_COMMANDTYPE",
   "self_type" : "_ZTI15OMX_COMMANDTYPE",
   "size" : 4,
   "source_file" : "/frameworks/native/headers/media_plugin/media/openmax/OMX_Core.h",
   "underlying_type" : "_ZTIj"
  },
  {
   "alignment" : 4,
   "enum_fields" :
   [
    {
     "enum_field_value" : 0,
     "name" : "OMX_DataUnitCodedPicture"
    },
    {
     "enum_field_value" : 1,
     "name" : "OMX_DataUnitVideoSegment"
    },
    {
     "enum_field_value" : 2,
     "name" : "OMX_DataUnitSeveralSegments"
    },
    {
     "enum_field_value" : 3,
     "name" : "OMX_DataUnitArbitraryStreamSection"
    },
    {
     "enum_field_value" : 1862270976,
     "name" : "OMX_DataUnitKhronosExtensions"
    },
    {
     "enum_field_value" : 2130706432,
     "name" : "OMX_DataUnitVendorStartUnused"
    },
    {
     "enum_field_value" : 2147483647,
     "name" : "OMX_DataUnitMax"
    }
   ],
   "linker_set_key" : "_ZTI16OMX_DATAUNITTYPE",
   "name" : "OMX_DATAUNITTYPE",
   "referenced_type" : "_ZTI16OMX_DATAUNITTYPE",
   "self_type" : "_ZTI16OMX_DATAUNITTYPE",
   "size" : 4,
   "source_file" : "/frameworks/native/headers/media_plugin/media/openmax/OMX_IVCommon.h",
   "underlying_type" : "_ZTIj"
  },
  {
   "alignment" : 4,
   "enum_fields" :
   [
    {
     "enum_field_value" : 1863319552,
     "name" : "OMX_IndexExtComponentStartUnused"
    },
    {
     "enum_field_value" : 1863319553,
     "name" : "OMX_IndexConfigCallbackRequest"
    },
    {
     "enum_field_value" : 1863319554,
     "name" : "OMX_IndexConfigCommitMode"
    },
    {
     "enum_field_value" : 1863319555,
     "name" : "OMX_IndexConfigCommit"
    },
    {
     "enum_field_value" : 1863319556,
     "name" : "OMX_IndexConfigAndroidVendorExtension"
    },
    {
     "enum_field_value" : 1864368128,
     "name" : "OMX_IndexExtPortStartUnused"
    },
    {
     "enum_field_value" : 1866465280,
     "name" : "OMX_IndexExtAudioStartUnused"
    },
    {
     "enum_field_value" : 1866465281,
     "name" : "OMX_IndexParamAudioAndroidAc3"
    },
    {
     "enum_field_value" : 1866465282,
     "name" : "OMX_IndexParamAudioAndroidOpus"
    },
    {
     "enum_field_value" : 1866465283,
     "name" : "OMX_IndexParamAudioAndroidAacPresentation"
    },
    {
     "enum_field_value" : 1866465284,
     "name" : "OMX_IndexParamAudioAndroidEac3"
    },
    {
     "enum_field_value" : 1866465285,
     "name" : "OMX_IndexParamAudioProfileQuerySupported"
    },
    {
     "enum_field_value" : 1866465286,
     "name" : "OMX_IndexParamAudioAndroidAacDrcPresentation"
    },
    {
     "enum_field_value" : 1866465287,
     "name" : "OMX_IndexParamAudioAndroidAc4"
    },
    {
     "enum_field_value" : 1866465288,
     "name" : "OMX_IndexConfigAudioPresentation"
    },
    {
     "enum_field_value" : 1866465289,
     "name" : "OMX_IndexExtAudioEndUnused"
    },
    {
     "enum_field_value" : 1867513856,
     "name" : "OMX_IndexExtImageStartUnused"
    },
    {
     "enum_field_value" : 1868562432,
     "name" : "OMX_IndexExtVideoStartUnused"
    },
    {
     "enum_field_value" : 1868562433,
     "name" : "OMX_IndexParamNalStreamFormatSupported"
    },
    {
     "enum_field_value" : 1868562434,
     "name" : "OMX_IndexParamNalStreamFormat"
    },
    {
     "enum_field_value" : 1868562435,
     "name" : "OMX_IndexParamNalStreamFormatSelect"
    },
    {
     "enum_field_value" : 1868562436,
     "name" : "OMX_IndexParamVideoVp8"
    },
    {
     "enum_field_value" : 1868562437,
     "name" : "OMX_IndexConfigVideoVp8ReferenceFrame"
    },
    {
     "enum_field_value" : 1868562438,
     "name" : "OMX_IndexConfigVideoVp8ReferenceFrameType"
    },
    {
     "enum_field_value" : 1868562439,
     "name" : "OMX_IndexParamVideoAndroidVp8Encoder"
    },
    {
     "enum_field_value" : 1868562440,
     "name" : "OMX_IndexParamVideoHevc"
    },
    {
     "enum_field_value" : 1868562441,
     "name" : "OMX_IndexParamSliceSegments"
    },
    {
     "enum_field_value" : 1868562442,
     "name" : "OMX_IndexConfigAndroidIntraRefresh"
    },
    {
     "enum_field_value" : 1868562443,
     "name" : "OMX_IndexParamAndroidVideoTemporalLayering"
    },
    {
     "enum_field_value" : 1868562444,
     "name" : "OMX_IndexConfigAndroidVideoTemporalLayering"
    },
    {
     "enum_field_value" : 1868562445,
     "name" : "OMX_IndexParamMaxFrameDurationForBitrateControl"
    },
    {
     "enum_field_value" : 1868562446,
     "name" : "OMX_IndexParamVideoVp9"
    },
    {
     "enum_field_value" : 1868562447,
     "name" : "OMX_IndexParamVideoAndroidVp9Encoder"
    },
    {
     "enum_field_value" : 1868562448,
     "name" : "OMX_IndexParamVideoAndroidImageGrid"
    },
    {
     "enum_field_value" : 1868562449,
     "name" : "OMX_IndexParamVideoAndroidRequiresSwRenderer"
    },
    {
     "enum_field_value" : 1868562450,
     "name" : "OMX_IndexExtVideoEndUnused"
    },
    {
     "enum_field_value" : 1869611008,
     "name" : "OMX_IndexExtCommonStartUnused"
    },
    {
     "enum_field_value" : 1870659584,
     "name" : "OMX_IndexExtOtherStartUnused"
    },
    {
     "enum_field_value" : 1870659585,
     "name" : "OMX_IndexConfigAutoFramerateConversion"
    },
    {
     "enum_field_value" : 1870659586,
     "name" : "OMX_IndexConfigPriority"
    },
    {
     "enum_field_value" : 1870659587,
     "name" : "OMX_IndexConfigOperatingRate"
    },
    {
     "enum_field_value" : 1870659588,
     "name" : "OMX_IndexParamConsumerUsageBits"
    },
    {
     "enum_field_value" : 1870659589,
     "name" : "OMX_IndexConfigLatency"
    },
    {
     "enum_field_value" : 1870659590,
     "name" : "OMX_IndexConfigLowLatency"
    },
    {
     "enum_field_value" : 1870659591,
     "name" : "OMX_IndexExtOtherEndUnused"
    },
    {
     "enum_field_value" : 1871708160,
     "name" : "OMX_IndexExtTimeStartUnused"
    },
    {
     "enum_field_value" : 2147483647,
     "name" : "OMX_IndexExtMax"
    }
   ],
   "linker_set_key" : "_ZTI16OMX_INDEXEXTTYPE",
   "name" : "OMX_INDEXEXTTYPE",
   "referenced_type" : "_ZTI16OMX_INDEXEXTTYPE",
   "self_type" : "_ZTI16OMX_INDEXEXTTYPE",
   "size" : 4,
   "source_file" : "/frameworks/native/headers/media_plugin/media/openmax/OMX_IndexExt.h",
   "underlying_type" : "_ZTIj"
  },
  {
   "alignment" : 4,
   "enum_fields" :
   [
    {
     "enum_field_value" : 0,
     "name" : "OMX_MeteringModeAverage"
    },
    {
     "enum_field_value" : 1,
     "name" : "OMX_MeteringModeSpot"
    },
    {
     "enum_field_value" : 2,
     "name" : "OMX_MeteringModeMatrix"
    },
    {
     "enum_field_value" : 1862270976,
     "name" : "OMX_MeteringKhronosExtensions"
    },
    {
     "enum_field_value" : 2130706432,
     "name" : "OMX_MeteringVendorStartUnused"
    },
    {
     "enum_field_value" : 2147483647,
     "name" : "OMX_EVModeMax"
    }
   ],
   "linker_set_key" : "_ZTI16OMX_METERINGTYPE",
   "name" : "OMX_METERINGTYPE",
   "referenced_type" : "_ZTI16OMX_METERINGTYPE",
   "self_type" : "_ZTI16OMX_METERINGTYPE",
   "size" : 4,
   "source_file" : "/frameworks/native/headers/media_plugin/media/openmax/OMX_IVCommon.h",
   "underlying_type" : "_ZTIj"
  },
  {
   "alignment" : 4,
   "enum_fields" :
   [
    {
     "enum_field_value" : 0,
     "name" : "OMX_ExtraDataNone"
    },
    {
     "enum_field_value" : 1,
     "name" : "OMX_ExtraDataQuantization"
    },
    {
     "enum_field_value" : 1862270976,
     "name" : "OMX_ExtraDataKhronosExtensions"
    },
    {
     "enum_field_value" : 2130706432,
     "name" : "OMX_ExtraDataVendorStartUnused"
    },
    {
     "enum_field_value" : 2147483647,
     "name" : "OMX_ExtraDataMax"
    }
   ],
   "linker_set_key" : "_ZTI17OMX_EXTRADATATYPE",
   "name" : "OMX_EXTRADATATYPE",
   "referenced_type" : "_ZTI17OMX_EXTRADATATYPE",
   "self_type" : "_ZTI17OMX_EXTRADATATYPE",
   "size" : 4,
   "source_file" : "/frameworks/native/headers/media_plugin/media/openmax/OMX_Core.h",
   "underlying_type" : "_ZTIj"
  },
  {
   "alignment" : 4,
   "enum_fields" :
   [
    {
     "enum_field_value" : 0,
     "name" : "OMX_AUDIO_G723ModeUnused"
    },
    {
     "enum_field_value" : 1,
     "name" : "OMX_AUDIO_G723ModeLow"
    },
    {
     "enum_field_value" : 2,
     "name" : "OMX_AUDIO_G723ModeHigh"
    },
    {
     "enum_field_value" : 1862270976,
     "name" : "OMX_AUDIO_G723ModeKhronosExtensions"
    },
    {
     "enum_field_value" : 2130706432,
     "name" : "OMX_AUDIO_G723ModeVendorStartUnused"
    },
    {
     "enum_field_value" : 2147483647,
     "name" : "OMX_AUDIO_G723ModeMax"
    }
   ],
   "linker_set_key" : "_ZTI18OMX_AUDIO_G723RATE",
   "name" : "OMX_AUDIO_G723RATE",
   "referenced_type" : "_ZTI18OMX_AUDIO_G723RATE",
   "self_type" : "_ZTI18OMX_AUDIO_G723RATE",
   "size" : 4,
   "source_file" : "/frameworks/native/headers/media_plugin/media/openmax/OMX_Audio.h",
   "underlying_type" : "_ZTIj"
  },
  {
   "alignment" : 4,
   "enum_fields" :
   [
    {
     "enum_field_value" : 0,
     "name" : "OMX_AUDIO_G726ModeUnused"
    },
    {
     "enum_field_value" : 1,
     "name" : "OMX_AUDIO_G726Mode16"
    },
    {
     "enum_field_value" : 2,
     "name" : "OMX_AUDIO_G726Mode24"
    },
    {
     "enum_field_value" : 3,
     "name" : "OMX_AUDIO_G726Mode32"
    },
    {
     "enum_field_value" : 4,
     "name" : "OMX_AUDIO_G726Mode40"
    },
    {
     "enum_field_value" : 1862270976,
     "name" : "OMX_AUDIO_G726ModeKhronosExtensions"
    },
    {
     "enum_field_value" : 2130706432,
     "name" : "OMX_AUDIO_G726ModeVendorStartUnused"
    },
    {
     "enum_field_value" : 2147483647,
     "name" : "OMX_AUDIO_G726ModeMax"
    }
   ],
   "linker_set_key" : "_ZTI18OMX_AUDIO_G726MODE",
   "name" : "OMX_AUDIO_G726MODE",
   "referenced_type" : "_ZTI18OMX_AUDIO_G726MODE",
   "self_type" : "_ZTI18OMX_AUDIO_G726MODE",
   "size" : 4,
   "source_file" : "/frameworks/native/headers/media_plugin/media/openmax/OMX_Audio.h",
   "underlying_type" : "_ZTIj"
  },
  {
   "alignment" : 4,
   "enum_fields" :
   [
    {
     "enum_field_value" : 0,
     "name" : "OMX_AUDIO_G729"
    },
    {
     "enum_field_value" : 1,
     "name" : "OMX_AUDIO_G729A"
    },
    {
     "enum_field_value" : 2,
     "name" : "OMX_AUDIO_G729B"
    },
    {
     "enum_field_value" : 3,
     "name" : "OMX_AUDIO_G729AB"
    },
    {
     "enum_field_value" : 1862270976,
     "name" : "OMX_AUDIO_G729KhronosExtensions"
    },
    {
     "enum_field_value" : 2130706432,
     "name" : "OMX_AUDIO_G729VendorStartUnused"
    },
    {
     "enum_field_value" : 2147483647,
     "name" : "OMX_AUDIO_G729Max"
    }
   ],
   "linker_set_key" : "_ZTI18OMX_AUDIO_G729TYPE",
   "name" : "OMX_AUDIO_G729TYPE",
   "referenced_type" : "_ZTI18OMX_AUDIO_G729TYPE",
   "self_type" : "_ZTI18OMX_AUDIO_G729TYPE",
   "size" : 4,
   "source_file" : "/frameworks/native/headers/media_plugin/media/openmax/OMX_Audio.h",
   "underlying_type" : "_ZTIj"
  },
  {
   "alignment" : 4,
   "enum_fields" :
   [
    {
     "enum_field_value" : 0,
     "name" : "OMX_ColorBlendNone"
    },
    {
     "enum_field_value" : 1,
     "name" : "OMX_ColorBlendAlphaConstant"
    },
    {
     "enum_field_value" : 2,
     "name" : "OMX_ColorBlendAlphaPerPixel"
    },
    {
     "enum_field_value" : 3,
     "name" : "OMX_ColorBlendAlternate"
    },
    {
     "enum_field_value" : 4,
     "name" : "OMX_ColorBlendAnd"
    },
    {
     "enum_field_value" : 5,
     "name" : "OMX_ColorBlendOr"
    },
    {
     "enum_field_value" : 6,
     "name" : "OMX_ColorBlendInvert"
    },
    {
     "enum_field_value" : 1862270976,
     "name" : "OMX_ColorBlendKhronosExtensions"
    },
    {
     "enum_field_value" : 2130706432,
     "name" : "OMX_ColorBlendVendorStartUnused"
    },
    {
     "enum_field_value" : 2147483647,
     "name" : "OMX_ColorBlendMax"
    }
   ],
   "linker_set_key" : "_ZTI18OMX_COLORBLENDTYPE",
   "name" : "OMX_COLORBLENDTYPE",
   "referenced_type" : "_ZTI18OMX_COLORBLENDTYPE",
   "self_type" : "_ZTI18OMX_COLORBLENDTYPE",
   "size" : 4,
   "source_file" : "/frameworks/native/headers/media_plugin/media/openmax/OMX_IVCommon.h",
   "underlying_type" : "_ZTIj"
  },
  {
   "alignment" : 4,
   "enum_fields" :
   [
    {
     "enum_field_value" : 0,
     "name" : "OMX_PortDomainAudio"
    },
    {
     "enum_field_value" : 1,
     "name" : "OMX_PortDomainVideo"
    },
    {
     "enum_field_value" : 2,
     "name" : "OMX_PortDomainImage"
    },
    {
     "enum_field_value" : 3,
     "name" : "OMX_PortDomainOther"
    },
    {
     "enum_field_value" : 1862270976,
     "name" : "OMX_PortDomainKhronosExtensions"
    },
    {
     "enum_field_value" : 2130706432,
     "name" : "OMX_PortDomainVendorStartUnused"
    },
    {
     "enum_field_value" : 134217727,
     "name" : "OMX_PortDomainMax"
    }
   ],
   "linker_set_key" : "_ZTI18OMX_PORTDOMAINTYPE",
   "name" : "OMX_PORTDOMAINTYPE",
   "referenced_type" : "_ZTI18OMX_PORTDOMAINTYPE",
   "self_type" : "_ZTI18OMX_PORTDOMAINTYPE",
   "size" : 4,
   "source_file" : "/frameworks/native/headers/media_plugin/media/openmax/OMX_Component.h",
   "underlying_type" : "_ZTIj"
  },
  {
   "alignment" : 4,
   "enum_fields" :
   [
    {
     "enum_field_value" : 0,
     "name" : "OMX_NotSuspended"
    },
    {
     "enum_field_value" : 1,
     "name" : "OMX_Suspended"
    },
    {
     "enum_field_value" : 1862270976,
     "name" : "OMX_SuspensionKhronosExtensions"
    },
    {
     "enum_field_value" : 2130706432,
     "name" : "OMX_SuspensionVendorStartUnused"
    },
    {
     "enum_field_value" : 2147483647,
     "name" : "OMX_SuspendMax"
    }
   ],
   "linker_set_key" : "_ZTI18OMX_SUSPENSIONTYPE",
   "name" : "OMX_SUSPENSIONTYPE",
   "referenced_type" : "_ZTI18OMX_SUSPENSIONTYPE",
   "self_type" : "_ZTI18OMX_SUSPENSIONTYPE",
   "size" : 4,
   "source_file" : "/frameworks/native/headers/media_plugin/media/openmax/OMX_Component.h",
   "underlying_type" : "_ZTIj"
  },
  {
   "alignment" : 4,
   "enum_fields" :
   [
    {
     "enum_field_value" : 4,
     "name" : "HAL_HDR_HDR10_PLUS"
    }
   ],
   "linker_set_key" : "_ZTI18android_hdr_v1_2_t",
   "name" : "android_hdr_v1_2_t",
   "referenced_type" : "_ZTI18android_hdr_v1_2_t",
   "self_type" : "_ZTI18android_hdr_v1_2_t",
   "size" : 4,
   "source_file" : "/system/core/libsystem/include/system/graphics-base-v1.2.h",
   "underlying_type" : "_ZTIj"
  },
  {
   "alignment" : 4,
   "enum_fields" :
   [
    {
     "enum_field_value" : 0,
     "name" : "OMX_FocusStatusOff"
    },
    {
     "enum_field_value" : 1,
     "name" : "OMX_FocusStatusRequest"
    },
    {
     "enum_field_value" : 2,
     "name" : "OMX_FocusStatusReached"
    },
    {
     "enum_field_value" : 3,
     "name" : "OMX_FocusStatusUnableToReach"
    },
    {
     "enum_field_value" : 4,
     "name" : "OMX_FocusStatusLost"
    },
    {
     "enum_field_value" : 1862270976,
     "name" : "OMX_FocusStatusKhronosExtensions"
    },
    {
     "enum_field_value" : 2130706432,
     "name" : "OMX_FocusStatusVendorStartUnused"
    },
    {
     "enum_field_value" : 2147483647,
     "name" : "OMX_FocusStatusMax"
    }
   ],
   "linker_set_key" : "_ZTI19OMX_FOCUSSTATUSTYPE",
   "name" : "OMX_FOCUSSTATUSTYPE",
   "referenced_type" : "_ZTI19OMX_FOCUSSTATUSTYPE",
   "self_type" : "_ZTI19OMX_FOCUSSTATUSTYPE",
   "size" : 4,
   "source_file" : "/frameworks/native/headers/media_plugin/media/openmax/OMX_IVCommon.h",
   "underlying_type" : "_ZTIj"
  },
  {
   "alignment" : 4,
   "enum_fields" :
   [
    {
     "enum_field_value" : 0,
     "name" : "OMX_ImageFilterNone"
    },
    {
     "enum_field_value" : 1,
     "name" : "OMX_ImageFilterNoise"
    },
    {
     "enum_field_value" : 2,
     "name" : "OMX_ImageFilterEmboss"
    },
    {
     "enum_field_value" : 3,
     "name" : "OMX_ImageFilterNegative"
    },
    {
     "enum_field_value" : 4,
     "name" : "OMX_ImageFilterSketch"
    },
    {
     "enum_field_value" : 5,
     "name" : "OMX_ImageFilterOilPaint"
    },
    {
     "enum_field_value" : 6,
     "name" : "OMX_ImageFilterHatch"
    },
    {
     "enum_field_value" : 7,
     "name" : "OMX_ImageFilterGpen"
    },
    {
     "enum_field_value" : 8,
     "name" : "OMX_ImageFilterAntialias"
    },
    {
     "enum_field_value" : 9,
     "name" : "OMX_ImageFilterDeRing"
    },
    {
     "enum_field_value" : 10,
     "name" : "OMX_ImageFilterSolarize"
    },
    {
     "enum_field_value" : 1862270976,
     "name" : "OMX_ImageFilterKhronosExtensions"
    },
    {
     "enum_field_value" : 2130706432,
     "name" : "OMX_ImageFilterVendorStartUnused"
    },
    {
     "enum_field_value" : 2147483647,
     "name" : "OMX_ImageFilterMax"
    }
   ],
   "linker_set_key" : "_ZTI19OMX_IMAGEFILTERTYPE",
   "name" : "OMX_IMAGEFILTERTYPE",
   "referenced_type" : "_ZTI19OMX_IMAGEFILTERTYPE",
   "self_type" : "_ZTI19OMX_IMAGEFILTERTYPE",
   "size" : 4,
   "source_file" : "/frameworks/native/headers/media_plugin/media/openmax/OMX_IVCommon.h",
   "underlying_type" : "_ZTIj"
  },
  {
   "alignment" : 4,
   "enum_fields" :
   [
    {
     "enum_field_value" : 1,
     "name" : "OMX_NaluFormatStartCodes"
    },
    {
     "enum_field_value" : 2,
     "name" : "OMX_NaluFormatOneNaluPerBuffer"
    },
    {
     "enum_field_value" : 4,
     "name" : "OMX_NaluFormatOneByteInterleaveLength"
    },
    {
     "enum_field_value" : 8,
     "name" : "OMX_NaluFormatTwoByteInterleaveLength"
    },
    {
     "enum_field_value" : 16,
     "name" : "OMX_NaluFormatFourByteInterleaveLength"
    },
    {
     "enum_field_value" : 2147483647,
     "name" : "OMX_NaluFormatCodingMax"
    }
   ],
   "linker_set_key" : "_ZTI19OMX_NALUFORMATSTYPE",
   "name" : "OMX_NALUFORMATSTYPE",
   "referenced_type" : "_ZTI19OMX_NALUFORMATSTYPE",
   "self_type" : "_ZTI19OMX_NALUFORMATSTYPE",
   "size" : 4,
   "source_file" : "/frameworks/native/headers/media_plugin/media/openmax/OMX_VideoExt.h",
   "underlying_type" : "_ZTIj"
  },
  {
   "alignment" : 4,
   "enum_fields" :
   [
    {
     "enum_field_value" : 0,
     "name" : "OMX_TIME_ClockStateRunning"
    },
    {
     "enum_field_value" : 1,
     "name" : "OMX_TIME_ClockStateWaitingForStartTime"
    },
    {
     "enum_field_value" : 2,
     "name" : "OMX_TIME_ClockStateStopped"
    },
    {
     "enum_field_value" : 1862270976,
     "name" : "OMX_TIME_ClockStateKhronosExtensions"
    },
    {
     "enum_field_value" : 2130706432,
     "name" : "OMX_TIME_ClockStateVendorStartUnused"
    },
    {
     "enum_field_value" : 2147483647,
     "name" : "OMX_TIME_ClockStateMax"
    }
   ],
   "linker_set_key" : "_ZTI19OMX_TIME_CLOCKSTATE",
   "name" : "OMX_TIME_CLOCKSTATE",
   "referenced_type" : "_ZTI19OMX_TIME_CLOCKSTATE",
   "self_type" : "_ZTI19OMX_TIME_CLOCKSTATE",
   "size" : 4,
   "source_file" : "/frameworks/native/headers/media_plugin/media/openmax/OMX_Other.h",
   "underlying_type" : "_ZTIj"
  },
  {
   "alignment" : 4,
   "enum_fields" :
   [
    {
     "enum_field_value" : 0,
     "name" : "OMX_TIME_UpdateRequestFulfillment"
    },
    {
     "enum_field_value" : 1,
     "name" : "OMX_TIME_UpdateScaleChanged"
    },
    {
     "enum_field_value" : 2,
     "name" : "OMX_TIME_UpdateClockStateChanged"
    },
    {
     "enum_field_value" : 1862270976,
     "name" : "OMX_TIME_UpdateKhronosExtensions"
    },
    {
     "enum_field_value" : 2130706432,
     "name" : "OMX_TIME_UpdateVendorStartUnused"
    },
    {
     "enum_field_value" : 2147483647,
     "name" : "OMX_TIME_UpdateMax"
    }
   ],
   "linker_set_key" : "_ZTI19OMX_TIME_UPDATETYPE",
   "name" : "OMX_TIME_UPDATETYPE",
   "referenced_type" : "_ZTI19OMX_TIME_UPDATETYPE",
   "self_type" : "_ZTI19OMX_TIME_UPDATETYPE",
   "size" : 4,
   "source_file" : "/frameworks/native/headers/media_plugin/media/openmax/OMX_Other.h",
   "underlying_type" : "_ZTIj"
  },
  {
   "alignment" : 4,
   "enum_fields" :
   [
    {
     "enum_field_value" : 0,
     "name" : "ANDROID_LOG_UNKNOWN"
    },
    {
     "enum_field_value" : 1,
     "name" : "ANDROID_LOG_DEFAULT"
    },
    {
     "enum_field_value" : 2,
     "name" : "ANDROID_LOG_VERBOSE"
    },
    {
     "enum_field_value" : 3,
     "name" : "ANDROID_LOG_DEBUG"
    },
    {
     "enum_field_value" : 4,
     "name" : "ANDROID_LOG_INFO"
    },
    {
     "enum_field_value" : 5,
     "name" : "ANDROID_LOG_WARN"
    },
    {
     "enum_field_value" : 6,
     "name" : "ANDROID_LOG_ERROR"
    },
    {
     "enum_field_value" : 7,
     "name" : "ANDROID_LOG_FATAL"
    },
    {
     "enum_field_value" : 8,
     "name" : "ANDROID_LOG_SILENT"
    }
   ],
   "linker_set_key" : "_ZTI19android_LogPriority",
   "name" : "android_LogPriority",
   "referenced_type" : "_ZTI19android_LogPriority",
   "self_type" : "_ZTI19android_LogPriority",
   "size" : 4,
   "source_file" : "/system/core/liblog/include/android/log.h",
   "underlying_type" : "_ZTIj"
  },
  {
   "alignment" : 4,
   "enum_fields" :
   [
    {
     "enum_field_value" : 0,
     "name" : "HAL_DATASPACE_UNKNOWN"
    },
    {
     "enum_field_value" : 1,
     "name" : "HAL_DATASPACE_ARBITRARY"
    },
    {
     "enum_field_value" : 16,
     "name" : "HAL_DATASPACE_STANDARD_SHIFT"
    },
    {
     "enum_field_value" : 4128768,
     "name" : "HAL_DATASPACE_STANDARD_MASK"
    },
    {
     "enum_field_value" : 0,
     "name" : "HAL_DATASPACE_STANDARD_UNSPECIFIED"
    },
    {
     "enum_field_value" : 65536,
     "name" : "HAL_DATASPACE_STANDARD_BT709"
    },
    {
     "enum_field_value" : 131072,
     "name" : "HAL_DATASPACE_STANDARD_BT601_625"
    },
    {
     "enum_field_value" : 196608,
     "name" : "HAL_DATASPACE_STANDARD_BT601_625_UNADJUSTED"
    },
    {
     "enum_field_value" : 262144,
     "name" : "HAL_DATASPACE_STANDARD_BT601_525"
    },
    {
     "enum_field_value" : 327680,
     "name" : "HAL_DATASPACE_STANDARD_BT601_525_UNADJUSTED"
    },
    {
     "enum_field_value" : 393216,
     "name" : "HAL_DATASPACE_STANDARD_BT2020"
    },
    {
     "enum_field_value" : 458752,
     "name" : "HAL_DATASPACE_STANDARD_BT2020_CONSTANT_LUMINANCE"
    },
    {
     "enum_field_value" : 524288,
     "name" : "HAL_DATASPACE_STANDARD_BT470M"
    },
    {
     "enum_field_value" : 589824,
     "name" : "HAL_DATASPACE_STANDARD_FILM"
    },
    {
     "enum_field_value" : 655360,
     "name" : "HAL_DATASPACE_STANDARD_DCI_P3"
    },
    {
     "enum_field_value" : 720896,
     "name" : "HAL_DATASPACE_STANDARD_ADOBE_RGB"
    },
    {
     "enum_field_value" : 22,
     "name" : "HAL_DATASPACE_TRANSFER_SHIFT"
    },
    {
     "enum_field_value" : 130023424,
     "name" : "HAL_DATASPACE_TRANSFER_MASK"
    },
    {
     "enum_field_value" : 0,
     "name" : "HAL_DATASPACE_TRANSFER_UNSPECIFIED"
    },
    {
     "enum_field_value" : 4194304,
     "name" : "HAL_DATASPACE_TRANSFER_LINEAR"
    },
    {
     "enum_field_value" : 8388608,
     "name" : "HAL_DATASPACE_TRANSFER_SRGB"
    },
    {
     "enum_field_value" : 12582912,
     "name" : "HAL_DATASPACE_TRANSFER_SMPTE_170M"
    },
    {
     "enum_field_value" : 16777216,
     "name" : "HAL_DATASPACE_TRANSFER_GAMMA2_2"
    },
    {
     "enum_field_value" : 20971520,
     "name" : "HAL_DATASPACE_TRANSFER_GAMMA2_6"
    },
    {
     "enum_field_value" : 25165824,
     "name" : "HAL_DATASPACE_TRANSFER_GAMMA2_8"
    },
    {
     "enum_field_value" : 29360128,
     "name" : "HAL_DATASPACE_TRANSFER_ST2084"
    },
    {
     "enum_field_value" : 33554432,
     "name" : "HAL_DATASPACE_TRANSFER_HLG"
    },
    {
     "enum_field_value" : 27,
     "name" : "HAL_DATASPACE_RANGE_SHIFT"
    },
    {
     "enum_field_value" : 939524096,
     "name" : "HAL_DATASPACE_RANGE_MASK"
    },
    {
     "enum_field_value" : 0,
     "name" : "HAL_DATASPACE_RANGE_UNSPECIFIED"
    },
    {
     "enum_field_value" : 134217728,
     "name" : "HAL_DATASPACE_RANGE_FULL"
    },
    {
     "enum_field_value" : 268435456,
     "name" : "HAL_DATASPACE_RANGE_LIMITED"
    },
    {
     "enum_field_value" : 402653184,
     "name" : "HAL_DATASPACE_RANGE_EXTENDED"
    },
    {
     "enum_field_value" : 512,
     "name" : "HAL_DATASPACE_SRGB_LINEAR"
    },
    {
     "enum_field_value" : 138477568,
     "name" : "HAL_DATASPACE_V0_SRGB_LINEAR"
    },
    {
     "enum_field_value" : 406913024,
     "name" : "HAL_DATASPACE_V0_SCRGB_LINEAR"
    },
    {
     "enum_field_value" : 513,
     "name" : "HAL_DATASPACE_SRGB"
    },
    {
     "enum_field_value" : 142671872,
     "name" : "HAL_DATASPACE_V0_SRGB"
    },
    {
     "enum_field_value" : 411107328,
     "name" : "HAL_DATASPACE_V0_SCRGB"
    },
    {
     "enum_field_value" : 257,
     "name" : "HAL_DATASPACE_JFIF"
    },
    {
     "enum_field_value" : 146931712,
     "name" : "HAL_DATASPACE_V0_JFIF"
    },
    {
     "enum_field_value" : 258,
     "name" : "HAL_DATASPACE_BT601_625"
    },
    {
     "enum_field_value" : 281149440,
     "name" : "HAL_DATASPACE_V0_BT601_625"
    },
    {
     "enum_field_value" : 259,
     "name" : "HAL_DATASPACE_BT601_525"
    },
    {
     "enum_field_value" : 281280512,
     "name" : "HAL_DATASPACE_V0_BT601_525"
    },
    {
     "enum_field_value" : 260,
     "name" : "HAL_DATASPACE_BT709"
    },
    {
     "enum_field_value" : 281083904,
     "name" : "HAL_DATASPACE_V0_BT709"
    },
    {
     "enum_field_value" : 139067392,
     "name" : "HAL_DATASPACE_DCI_P3_LINEAR"
    },
    {
     "enum_field_value" : 155844608,
     "name" : "HAL_DATASPACE_DCI_P3"
    },
    {
     "enum_field_value" : 139067392,
     "name" : "HAL_DATASPACE_DISPLAY_P3_LINEAR"
    },
    {
     "enum_field_value" : 143261696,
     "name" : "HAL_DATASPACE_DISPLAY_P3"
    },
    {
     "enum_field_value" : 151715840,
     "name" : "HAL_DATASPACE_ADOBE_RGB"
    },
    {
     "enum_field_value" : 138805248,
     "name" : "HAL_DATASPACE_BT2020_LINEAR"
    },
    {
     "enum_field_value" : 147193856,
     "name" : "HAL_DATASPACE_BT2020"
    },
    {
     "enum_field_value" : 163971072,
     "name" : "HAL_DATASPACE_BT2020_PQ"
    },
    {
     "enum_field_value" : 4096,
     "name" : "HAL_DATASPACE_DEPTH"
    },
    {
     "enum_field_value" : 4097,
     "name" : "HAL_DATASPACE_SENSOR"
    }
   ],
   "linker_set_key" : "_ZTI19android_dataspace_t",
   "name" : "android_dataspace_t",
   "referenced_type" : "_ZTI19android_dataspace_t",
   "self_type" : "_ZTI19android_dataspace_t",
   "size" : 4,
   "source_file" : "/system/core/libsystem/include/system/graphics-base-v1.0.h",
   "underlying_type" : "_ZTIj"
  },
  {
   "alignment" : 4,
   "enum_fields" :
   [
    {
     "enum_field_value" : 0,
     "name" : "FLEX_FORMAT_INVALID"
    },
    {
     "enum_field_value" : 1,
     "name" : "FLEX_FORMAT_Y"
    },
    {
     "enum_field_value" : 7,
     "name" : "FLEX_FORMAT_YCbCr"
    },
    {
     "enum_field_value" : 1073741831,
     "name" : "FLEX_FORMAT_YCbCrA"
    },
    {
     "enum_field_value" : 7168,
     "name" : "FLEX_FORMAT_RGB"
    },
    {
     "enum_field_value" : 1073748992,
     "name" : "FLEX_FORMAT_RGBA"
    }
   ],
   "linker_set_key" : "_ZTI19android_flex_format",
   "name" : "android_flex_format",
   "referenced_type" : "_ZTI19android_flex_format",
   "self_type" : "_ZTI19android_flex_format",
   "size" : 4,
   "source_file" : "/system/core/libsystem/include/system/graphics.h",
   "underlying_type" : "_ZTIj"
  },
  {
   "alignment" : 4,
   "enum_fields" :
   [
    {
     "enum_field_value" : 1,
     "name" : "HAL_TRANSFORM_FLIP_H"
    },
    {
     "enum_field_value" : 2,
     "name" : "HAL_TRANSFORM_FLIP_V"
    },
    {
     "enum_field_value" : 4,
     "name" : "HAL_TRANSFORM_ROT_90"
    },
    {
     "enum_field_value" : 3,
     "name" : "HAL_TRANSFORM_ROT_180"
    },
    {
     "enum_field_value" : 7,
     "name" : "HAL_TRANSFORM_ROT_270"
    }
   ],
   "linker_set_key" : "_ZTI19android_transform_t",
   "name" : "android_transform_t",
   "referenced_type" : "_ZTI19android_transform_t",
   "self_type" : "_ZTI19android_transform_t",
   "size" : 4,
   "source_file" : "/system/core/libsystem/include/system/graphics-base-v1.0.h",
   "underlying_type" : "_ZTIj"
  },
  {
   "alignment" : 4,
   "enum_fields" :
   [
    {
     "enum_field_value" : 0,
     "name" : "OMX_AUDIO_CodingUnused"
    },
    {
     "enum_field_value" : 1,
     "name" : "OMX_AUDIO_CodingAutoDetect"
    },
    {
     "enum_field_value" : 2,
     "name" : "OMX_AUDIO_CodingPCM"
    },
    {
     "enum_field_value" : 3,
     "name" : "OMX_AUDIO_CodingADPCM"
    },
    {
     "enum_field_value" : 4,
     "name" : "OMX_AUDIO_CodingAMR"
    },
    {
     "enum_field_value" : 5,
     "name" : "OMX_AUDIO_CodingGSMFR"
    },
    {
     "enum_field_value" : 6,
     "name" : "OMX_AUDIO_CodingGSMEFR"
    },
    {
     "enum_field_value" : 7,
     "name" : "OMX_AUDIO_CodingGSMHR"
    },
    {
     "enum_field_value" : 8,
     "name" : "OMX_AUDIO_CodingPDCFR"
    },
    {
     "enum_field_value" : 9,
     "name" : "OMX_AUDIO_CodingPDCEFR"
    },
    {
     "enum_field_value" : 10,
     "name" : "OMX_AUDIO_CodingPDCHR"
    },
    {
     "enum_field_value" : 11,
     "name" : "OMX_AUDIO_CodingTDMAFR"
    },
    {
     "enum_field_value" : 12,
     "name" : "OMX_AUDIO_CodingTDMAEFR"
    },
    {
     "enum_field_value" : 13,
     "name" : "OMX_AUDIO_CodingQCELP8"
    },
    {
     "enum_field_value" : 14,
     "name" : "OMX_AUDIO_CodingQCELP13"
    },
    {
     "enum_field_value" : 15,
     "name" : "OMX_AUDIO_CodingEVRC"
    },
    {
     "enum_field_value" : 16,
     "name" : "OMX_AUDIO_CodingSMV"
    },
    {
     "enum_field_value" : 17,
     "name" : "OMX_AUDIO_CodingG711"
    },
    {
     "enum_field_value" : 18,
     "name" : "OMX_AUDIO_CodingG723"
    },
    {
     "enum_field_value" : 19,
     "name" : "OMX_AUDIO_CodingG726"
    },
    {
     "enum_field_value" : 20,
     "name" : "OMX_AUDIO_CodingG729"
    },
    {
     "enum_field_value" : 21,
     "name" : "OMX_AUDIO_CodingAAC"
    },
    {
     "enum_field_value" : 22,
     "name" : "OMX_AUDIO_CodingMP3"
    },
    {
     "enum_field_value" : 23,
     "name" : "OMX_AUDIO_CodingSBC"
    },
    {
     "enum_field_value" : 24,
     "name" : "OMX_AUDIO_CodingVORBIS"
    },
    {
     "enum_field_value" : 25,
     "name" : "OMX_AUDIO_CodingWMA"
    },
    {
     "enum_field_value" : 26,
     "name" : "OMX_AUDIO_CodingRA"
    },
    {
     "enum_field_value" : 27,
     "name" : "OMX_AUDIO_CodingMIDI"
    },
    {
     "enum_field_value" : 28,
     "name" : "OMX_AUDIO_CodingFLAC"
    },
    {
     "enum_field_value" : 1862270976,
     "name" : "OMX_AUDIO_CodingKhronosExtensions"
    },
    {
     "enum_field_value" : 2130706432,
     "name" : "OMX_AUDIO_CodingVendorStartUnused"
    },
    {
     "enum_field_value" : 2147483647,
     "name" : "OMX_AUDIO_CodingMax"
    }
   ],
   "linker_set_key" : "_ZTI20OMX_AUDIO_CODINGTYPE",
   "name" : "OMX_AUDIO_CODINGTYPE",
   "referenced_type" : "_ZTI20OMX_AUDIO_CODINGTYPE",
   "self_type" : "_ZTI20OMX_AUDIO_CODINGTYPE",
   "size" : 4,
   "source_file" : "/frameworks/native/headers/media_plugin/media/openmax/OMX_Audio.h",
   "underlying_type" : "_ZTIj"
  },
  {
   "alignment" : 4,
   "enum_fields" :
   [
    {
     "enum_field_value" : 0,
     "name" : "OMX_COLOR_FormatUnused"
    },
    {
     "enum_field_value" : 1,
     "name" : "OMX_COLOR_FormatMonochrome"
    },
    {
     "enum_field_value" : 2,
     "name" : "OMX_COLOR_Format8bitRGB332"
    },
    {
     "enum_field_value" : 3,
     "name" : "OMX_COLOR_Format12bitRGB444"
    },
    {
     "enum_field_value" : 4,
     "name" : "OMX_COLOR_Format16bitARGB4444"
    },
    {
     "enum_field_value" : 5,
     "name" : "OMX_COLOR_Format16bitARGB1555"
    },
    {
     "enum_field_value" : 6,
     "name" : "OMX_COLOR_Format16bitRGB565"
    },
    {
     "enum_field_value" : 7,
     "name" : "OMX_COLOR_Format16bitBGR565"
    },
    {
     "enum_field_value" : 8,
     "name" : "OMX_COLOR_Format18bitRGB666"
    },
    {
     "enum_field_value" : 9,
     "name" : "OMX_COLOR_Format18bitARGB1665"
    },
    {
     "enum_field_value" : 10,
     "name" : "OMX_COLOR_Format19bitARGB1666"
    },
    {
     "enum_field_value" : 11,
     "name" : "OMX_COLOR_Format24bitRGB888"
    },
    {
     "enum_field_value" : 12,
     "name" : "OMX_COLOR_Format24bitBGR888"
    },
    {
     "enum_field_value" : 13,
     "name" : "OMX_COLOR_Format24bitARGB1887"
    },
    {
     "enum_field_value" : 14,
     "name" : "OMX_COLOR_Format25bitARGB1888"
    },
    {
     "enum_field_value" : 15,
     "name" : "OMX_COLOR_Format32bitBGRA8888"
    },
    {
     "enum_field_value" : 16,
     "name" : "OMX_COLOR_Format32bitARGB8888"
    },
    {
     "enum_field_value" : 17,
     "name" : "OMX_COLOR_FormatYUV411Planar"
    },
    {
     "enum_field_value" : 18,
     "name" : "OMX_COLOR_FormatYUV411PackedPlanar"
    },
    {
     "enum_field_value" : 19,
     "name" : "OMX_COLOR_FormatYUV420Planar"
    },
    {
     "enum_field_value" : 20,
     "name" : "OMX_COLOR_FormatYUV420PackedPlanar"
    },
    {
     "enum_field_value" : 21,
     "name" : "OMX_COLOR_FormatYUV420SemiPlanar"
    },
    {
     "enum_field_value" : 22,
     "name" : "OMX_COLOR_FormatYUV422Planar"
    },
    {
     "enum_field_value" : 23,
     "name" : "OMX_COLOR_FormatYUV422PackedPlanar"
    },
    {
     "enum_field_value" : 24,
     "name" : "OMX_COLOR_FormatYUV422SemiPlanar"
    },
    {
     "enum_field_value" : 25,
     "name" : "OMX_COLOR_FormatYCbYCr"
    },
    {
     "enum_field_value" : 26,
     "name" : "OMX_COLOR_FormatYCrYCb"
    },
    {
     "enum_field_value" : 27,
     "name" : "OMX_COLOR_FormatCbYCrY"
    },
    {
     "enum_field_value" : 28,
     "name" : "OMX_COLOR_FormatCrYCbY"
    },
    {
     "enum_field_value" : 29,
     "name" : "OMX_COLOR_FormatYUV444Interleaved"
    },
    {
     "enum_field_value" : 30,
     "name" : "OMX_COLOR_FormatRawBayer8bit"
    },
    {
     "enum_field_value" : 31,
     "name" : "OMX_COLOR_FormatRawBayer10bit"
    },
    {
     "enum_field_value" : 32,
     "name" : "OMX_COLOR_FormatRawBayer8bitcompressed"
    },
    {
     "enum_field_value" : 33,
     "name" : "OMX_COLOR_FormatL2"
    },
    {
     "enum_field_value" : 34,
     "name" : "OMX_COLOR_FormatL4"
    },
    {
     "enum_field_value" : 35,
     "name" : "OMX_COLOR_FormatL8"
    },
    {
     "enum_field_value" : 36,
     "name" : "OMX_COLOR_FormatL16"
    },
    {
     "enum_field_value" : 37,
     "name" : "OMX_COLOR_FormatL24"
    },
    {
     "enum_field_value" : 38,
     "name" : "OMX_COLOR_FormatL32"
    },
    {
     "enum_field_value" : 39,
     "name" : "OMX_COLOR_FormatYUV420PackedSemiPlanar"
    },
    {
     "enum_field_value" : 40,
     "name" : "OMX_COLOR_FormatYUV422PackedSemiPlanar"
    },
    {
     "enum_field_value" : 41,
     "name" : "OMX_COLOR_Format18BitBGR666"
    },
    {
     "enum_field_value" : 42,
     "name" : "OMX_COLOR_Format24BitARGB6666"
    },
    {
     "enum_field_value" : 43,
     "name" : "OMX_COLOR_Format24BitABGR6666"
    },
    {
     "enum_field_value" : 1862270976,
     "name" : "OMX_COLOR_FormatKhronosExtensions"
    },
    {
     "enum_field_value" : 2130706432,
     "name" : "OMX_COLOR_FormatVendorStartUnused"
    },
    {
     "enum_field_value" : 2130708361,
     "name" : "OMX_COLOR_FormatAndroidOpaque"
    },
    {
     "enum_field_value" : 2130747392,
     "name" : "OMX_COLOR_Format32BitRGBA8888"
    },
    {
     "enum_field_value" : 2135033992,
     "name" : "OMX_COLOR_FormatYUV420Flexible"
    },
    {
     "enum_field_value" : 2135032171,
     "name" : "OMX_COLOR_FormatYUV420Planar16"
    },
    {
     "enum_field_value" : 2135181994,
     "name" : "OMX_COLOR_FormatYUV444Y410"
    },
    {
     "enum_field_value" : 2130706688,
     "name" : "OMX_TI_COLOR_FormatYUV420PackedSemiPlanar"
    },
    {
     "enum_field_value" : 2141391872,
     "name" : "OMX_QCOM_COLOR_FormatYVU420SemiPlanar"
    },
    {
     "enum_field_value" : 2141391875,
     "name" : "OMX_QCOM_COLOR_FormatYUV420PackedSemiPlanar64x32Tile2m8ka"
    },
    {
     "enum_field_value" : 2143289346,
     "name" : "OMX_SEC_COLOR_FormatNV12Tiled"
    },
    {
     "enum_field_value" : 2141391876,
     "name" : "OMX_QCOM_COLOR_FormatYUV420PackedSemiPlanar32m"
    },
    {
     "enum_field_value" : 2147483647,
     "name" : "OMX_COLOR_FormatMax"
    }
   ],
   "linker_set_key" : "_ZTI20OMX_COLOR_FORMATTYPE",
   "name" : "OMX_COLOR_FORMATTYPE",
   "referenced_type" : "_ZTI20OMX_COLOR_FORMATTYPE",
   "self_type" : "_ZTI20OMX_COLOR_FORMATTYPE",
   "size" : 4,
   "source_file" : "/frameworks/native/headers/media_plugin/media/openmax/OMX_IVCommon.h",
   "underlying_type" : "_ZTIj"
  },
  {
   "alignment" : 4,
   "enum_fields" :
   [
    {
     "enum_field_value" : 0,
     "name" : "OMX_IMAGE_CodingUnused"
    },
    {
     "enum_field_value" : 1,
     "name" : "OMX_IMAGE_CodingAutoDetect"
    },
    {
     "enum_field_value" : 2,
     "name" : "OMX_IMAGE_CodingJPEG"
    },
    {
     "enum_field_value" : 3,
     "name" : "OMX_IMAGE_CodingJPEG2K"
    },
    {
     "enum_field_value" : 4,
     "name" : "OMX_IMAGE_CodingEXIF"
    },
    {
     "enum_field_value" : 5,
     "name" : "OMX_IMAGE_CodingTIFF"
    },
    {
     "enum_field_value" : 6,
     "name" : "OMX_IMAGE_CodingGIF"
    },
    {
     "enum_field_value" : 7,
     "name" : "OMX_IMAGE_CodingPNG"
    },
    {
     "enum_field_value" : 8,
     "name" : "OMX_IMAGE_CodingLZW"
    },
    {
     "enum_field_value" : 9,
     "name" : "OMX_IMAGE_CodingBMP"
    },
    {
     "enum_field_value" : 1862270976,
     "name" : "OMX_IMAGE_CodingKhronosExtensions"
    },
    {
     "enum_field_value" : 2130706432,
     "name" : "OMX_IMAGE_CodingVendorStartUnused"
    },
    {
     "enum_field_value" : 2147483647,
     "name" : "OMX_IMAGE_CodingMax"
    }
   ],
   "linker_set_key" : "_ZTI20OMX_IMAGE_CODINGTYPE",
   "name" : "OMX_IMAGE_CODINGTYPE",
   "referenced_type" : "_ZTI20OMX_IMAGE_CODINGTYPE",
   "self_type" : "_ZTI20OMX_IMAGE_CODINGTYPE",
   "size" : 4,
   "source_file" : "/frameworks/native/headers/media_plugin/media/openmax/OMX_Image.h",
   "underlying_type" : "_ZTIj"
  },
  {
   "alignment" : 4,
   "enum_fields" :
   [
    {
     "enum_field_value" : 0,
     "name" : "OMX_OTHER_FormatTime"
    },
    {
     "enum_field_value" : 1,
     "name" : "OMX_OTHER_FormatPower"
    },
    {
     "enum_field_value" : 2,
     "name" : "OMX_OTHER_FormatStats"
    },
    {
     "enum_field_value" : 3,
     "name" : "OMX_OTHER_FormatBinary"
    },
    {
     "enum_field_value" : 1000,
     "name" : "OMX_OTHER_FormatVendorReserved"
    },
    {
     "enum_field_value" : 1862270976,
     "name" : "OMX_OTHER_FormatKhronosExtensions"
    },
    {
     "enum_field_value" : 2130706432,
     "name" : "OMX_OTHER_FormatVendorStartUnused"
    },
    {
     "enum_field_value" : 2147483647,
     "name" : "OMX_OTHER_FormatMax"
    }
   ],
   "linker_set_key" : "_ZTI20OMX_OTHER_FORMATTYPE",
   "name" : "OMX_OTHER_FORMATTYPE",
   "referenced_type" : "_ZTI20OMX_OTHER_FORMATTYPE",
   "self_type" : "_ZTI20OMX_OTHER_FORMATTYPE",
   "size" : 4,
   "source_file" : "/frameworks/native/headers/media_plugin/media/openmax/OMX_Other.h",
   "underlying_type" : "_ZTIj"
  },
  {
   "alignment" : 4,
   "enum_fields" :
   [
    {
     "enum_field_value" : 0,
     "name" : "OMX_VIDEO_CodingUnused"
    },
    {
     "enum_field_value" : 1,
     "name" : "OMX_VIDEO_CodingAutoDetect"
    },
    {
     "enum_field_value" : 2,
     "name" : "OMX_VIDEO_CodingMPEG2"
    },
    {
     "enum_field_value" : 3,
     "name" : "OMX_VIDEO_CodingH263"
    },
    {
     "enum_field_value" : 4,
     "name" : "OMX_VIDEO_CodingMPEG4"
    },
    {
     "enum_field_value" : 5,
     "name" : "OMX_VIDEO_CodingWMV"
    },
    {
     "enum_field_value" : 6,
     "name" : "OMX_VIDEO_CodingRV"
    },
    {
     "enum_field_value" : 7,
     "name" : "OMX_VIDEO_CodingAVC"
    },
    {
     "enum_field_value" : 8,
     "name" : "OMX_VIDEO_CodingMJPEG"
    },
    {
     "enum_field_value" : 9,
     "name" : "OMX_VIDEO_CodingVP8"
    },
    {
     "enum_field_value" : 10,
     "name" : "OMX_VIDEO_CodingVP9"
    },
    {
     "enum_field_value" : 11,
     "name" : "OMX_VIDEO_CodingHEVC"
    },
    {
     "enum_field_value" : 12,
     "name" : "OMX_VIDEO_CodingDolbyVision"
    },
    {
     "enum_field_value" : 13,
     "name" : "OMX_VIDEO_CodingImageHEIC"
    },
    {
     "enum_field_value" : 14,
     "name" : "OMX_VIDEO_CodingAV1"
    },
    {
     "enum_field_value" : 1862270976,
     "name" : "OMX_VIDEO_CodingKhronosExtensions"
    },
    {
     "enum_field_value" : 2130706432,
     "name" : "OMX_VIDEO_CodingVendorStartUnused"
    },
    {
     "enum_field_value" : 2147483647,
     "name" : "OMX_VIDEO_CodingMax"
    }
   ],
   "linker_set_key" : "_ZTI20OMX_VIDEO_CODINGTYPE",
   "name" : "OMX_VIDEO_CODINGTYPE",
   "referenced_type" : "_ZTI20OMX_VIDEO_CODINGTYPE",
   "self_type" : "_ZTI20OMX_VIDEO_CODINGTYPE",
   "size" : 4,
   "source_file" : "/frameworks/native/headers/media_plugin/media/openmax/OMX_Video.h",
   "underlying_type" : "_ZTIj"
  },
  {
   "alignment" : 4,
   "enum_fields" :
   [
    {
     "enum_field_value" : 0,
     "name" : "HAL_COLOR_MODE_NATIVE"
    },
    {
     "enum_field_value" : 1,
     "name" : "HAL_COLOR_MODE_STANDARD_BT601_625"
    },
    {
     "enum_field_value" : 2,
     "name" : "HAL_COLOR_MODE_STANDARD_BT601_625_UNADJUSTED"
    },
    {
     "enum_field_value" : 3,
     "name" : "HAL_COLOR_MODE_STANDARD_BT601_525"
    },
    {
     "enum_field_value" : 4,
     "name" : "HAL_COLOR_MODE_STANDARD_BT601_525_UNADJUSTED"
    },
    {
     "enum_field_value" : 5,
     "name" : "HAL_COLOR_MODE_STANDARD_BT709"
    },
    {
     "enum_field_value" : 6,
     "name" : "HAL_COLOR_MODE_DCI_P3"
    },
    {
     "enum_field_value" : 7,
     "name" : "HAL_COLOR_MODE_SRGB"
    },
    {
     "enum_field_value" : 8,
     "name" : "HAL_COLOR_MODE_ADOBE_RGB"
    },
    {
     "enum_field_value" : 9,
     "name" : "HAL_COLOR_MODE_DISPLAY_P3"
    }
   ],
   "linker_set_key" : "_ZTI20android_color_mode_t",
   "name" : "android_color_mode_t",
   "referenced_type" : "_ZTI20android_color_mode_t",
   "self_type" : "_ZTI20android_color_mode_t",
   "size" : 4,
   "source_file" : "/system/core/libsystem/include/system/graphics-base-v1.0.h",
   "underlying_type" : "_ZTIj"
  },
  {
   "alignment" : 4,
   "enum_fields" :
   [
    {
     "enum_field_value" : 0,
     "name" : "SYSTEM_TIME_REALTIME"
    },
    {
     "enum_field_value" : 1,
     "name" : "SYSTEM_TIME_MONOTONIC"
    },
    {
     "enum_field_value" : 2,
     "name" : "SYSTEM_TIME_PROCESS"
    },
    {
     "enum_field_value" : 3,
     "name" : "SYSTEM_TIME_THREAD"
    },
    {
     "enum_field_value" : 4,
     "name" : "SYSTEM_TIME_BOOTTIME"
    }
   ],
   "linker_set_key" : "_ZTI21$SYSTEM_TIME_BOOTTIME",
   "name" : "(anonymous enum at system/core/libutils/include/utils/Timers.h:79:1)",
   "referenced_type" : "_ZTI21$SYSTEM_TIME_BOOTTIME",
   "self_type" : "_ZTI21$SYSTEM_TIME_BOOTTIME",
   "size" : 4,
   "source_file" : "/system/core/libutils/include/utils/Timers.h",
   "underlying_type" : "_ZTIj"
  },
  {
   "alignment" : 4,
   "enum_fields" :
   [
    {
     "enum_field_value" : 0,
     "name" : "OMX_AUDIO_ChannelNone"
    },
    {
     "enum_field_value" : 1,
     "name" : "OMX_AUDIO_ChannelLF"
    },
    {
     "enum_field_value" : 2,
     "name" : "OMX_AUDIO_ChannelRF"
    },
    {
     "enum_field_value" : 3,
     "name" : "OMX_AUDIO_ChannelCF"
    },
    {
     "enum_field_value" : 4,
     "name" : "OMX_AUDIO_ChannelLS"
    },
    {
     "enum_field_value" : 5,
     "name" : "OMX_AUDIO_ChannelRS"
    },
    {
     "enum_field_value" : 6,
     "name" : "OMX_AUDIO_ChannelLFE"
    },
    {
     "enum_field_value" : 7,
     "name" : "OMX_AUDIO_ChannelCS"
    },
    {
     "enum_field_value" : 8,
     "name" : "OMX_AUDIO_ChannelLR"
    },
    {
     "enum_field_value" : 9,
     "name" : "OMX_AUDIO_ChannelRR"
    },
    {
     "enum_field_value" : 1862270976,
     "name" : "OMX_AUDIO_ChannelKhronosExtensions"
    },
    {
     "enum_field_value" : 2130706432,
     "name" : "OMX_AUDIO_ChannelVendorStartUnused"
    },
    {
     "enum_field_value" : 2147483647,
     "name" : "OMX_AUDIO_ChannelMax"
    }
   ],
   "linker_set_key" : "_ZTI21OMX_AUDIO_CHANNELTYPE",
   "name" : "OMX_AUDIO_CHANNELTYPE",
   "referenced_type" : "_ZTI21OMX_AUDIO_CHANNELTYPE",
   "self_type" : "_ZTI21OMX_AUDIO_CHANNELTYPE",
   "size" : 4,
   "source_file" : "/frameworks/native/headers/media_plugin/media/openmax/OMX_Audio.h",
   "underlying_type" : "_ZTIj"
  },
  {
   "alignment" : 4,
   "enum_fields" :
   [
    {
     "enum_field_value" : 0,
     "name" : "OMX_AUDIO_EchoCanOff"
    },
    {
     "enum_field_value" : 1,
     "name" : "OMX_AUDIO_EchoCanNormal"
    },
    {
     "enum_field_value" : 2,
     "name" : "OMX_AUDIO_EchoCanHFree"
    },
    {
     "enum_field_value" : 3,
     "name" : "OMX_AUDIO_EchoCanCarKit"
    },
    {
     "enum_field_value" : 1862270976,
     "name" : "OMX_AUDIO_EchoCanKhronosExtensions"
    },
    {
     "enum_field_value" : 2130706432,
     "name" : "OMX_AUDIO_EchoCanVendorStartUnused"
    },
    {
     "enum_field_value" : 2147483647,
     "name" : "OMX_AUDIO_EchoCanMax"
    }
   ],
   "linker_set_key" : "_ZTI21OMX_AUDIO_ECHOCANTYPE",
   "name" : "OMX_AUDIO_ECHOCANTYPE",
   "referenced_type" : "_ZTI21OMX_AUDIO_ECHOCANTYPE",
   "self_type" : "_ZTI21OMX_AUDIO_ECHOCANTYPE",
   "size" : 4,
   "source_file" : "/frameworks/native/headers/media_plugin/media/openmax/OMX_Audio.h",
   "underlying_type" : "_ZTIj"
  },
  {
   "alignment" : 4,
   "enum_fields" :
   [
    {
     "enum_field_value" : 0,
     "name" : "OMX_AUDIO_PCMModeLinear"
    },
    {
     "enum_field_value" : 1,
     "name" : "OMX_AUDIO_PCMModeALaw"
    },
    {
     "enum_field_value" : 2,
     "name" : "OMX_AUDIO_PCMModeMULaw"
    },
    {
     "enum_field_value" : 1862270976,
     "name" : "OMX_AUDIO_PCMModeKhronosExtensions"
    },
    {
     "enum_field_value" : 2130706432,
     "name" : "OMX_AUDIO_PCMModeVendorStartUnused"
    },
    {
     "enum_field_value" : 2147483647,
     "name" : "OMX_AUDIO_PCMModeMax"
    }
   ],
   "linker_set_key" : "_ZTI21OMX_AUDIO_PCMMODETYPE",
   "name" : "OMX_AUDIO_PCMMODETYPE",
   "referenced_type" : "_ZTI21OMX_AUDIO_PCMMODETYPE",
   "self_type" : "_ZTI21OMX_AUDIO_PCMMODETYPE",
   "size" : 4,
   "source_file" : "/frameworks/native/headers/media_plugin/media/openmax/OMX_Audio.h",
   "underlying_type" : "_ZTIj"
  },
  {
   "alignment" : 4,
   "enum_fields" :
   [
    {
     "enum_field_value" : 0,
     "name" : "OMX_MetadataScopeAllLevels"
    },
    {
     "enum_field_value" : 1,
     "name" : "OMX_MetadataScopeTopLevel"
    },
    {
     "enum_field_value" : 2,
     "name" : "OMX_MetadataScopePortLevel"
    },
    {
     "enum_field_value" : 3,
     "name" : "OMX_MetadataScopeNodeLevel"
    },
    {
     "enum_field_value" : 1862270976,
     "name" : "OMX_MetadataScopeKhronosExtensions"
    },
    {
     "enum_field_value" : 2130706432,
     "name" : "OMX_MetadataScopeVendorStartUnused"
    },
    {
     "enum_field_value" : 2147483647,
     "name" : "OMX_MetadataScopeTypeMax"
    }
   ],
   "linker_set_key" : "_ZTI21OMX_METADATASCOPETYPE",
   "name" : "OMX_METADATASCOPETYPE",
   "referenced_type" : "_ZTI21OMX_METADATASCOPETYPE",
   "self_type" : "_ZTI21OMX_METADATASCOPETYPE",
   "size" : 4,
   "source_file" : "/frameworks/native/headers/media_plugin/media/openmax/OMX_Component.h",
   "underlying_type" : "_ZTIj"
  },
  {
   "alignment" : 4,
   "enum_fields" :
   [
    {
     "enum_field_value" : 0,
     "name" : "OMX_NumericalDataSigned"
    },
    {
     "enum_field_value" : 1,
     "name" : "OMX_NumericalDataUnsigned"
    },
    {
     "enum_field_value" : 2130706433,
     "name" : "OMX_NumericalDataFloat"
    },
    {
     "enum_field_value" : 2147483647,
     "name" : "OMX_NumercialDataMax"
    }
   ],
   "linker_set_key" : "_ZTI21OMX_NUMERICALDATATYPE",
   "name" : "OMX_NUMERICALDATATYPE",
   "referenced_type" : "_ZTI21OMX_NUMERICALDATATYPE",
   "self_type" : "_ZTI21OMX_NUMERICALDATATYPE",
   "size" : 4,
   "source_file" : "/frameworks/native/headers/media_plugin/media/openmax/OMX_Types.h",
   "underlying_type" : "_ZTIj"
  },
  {
   "alignment" : 4,
   "enum_fields" :
   [
    {
     "enum_field_value" : 0,
     "name" : "OMX_TIME_RefClockNone"
    },
    {
     "enum_field_value" : 1,
     "name" : "OMX_TIME_RefClockAudio"
    },
    {
     "enum_field_value" : 2,
     "name" : "OMX_TIME_RefClockVideo"
    },
    {
     "enum_field_value" : 1862270976,
     "name" : "OMX_TIME_RefClockKhronosExtensions"
    },
    {
     "enum_field_value" : 2130706432,
     "name" : "OMX_TIME_RefClockVendorStartUnused"
    },
    {
     "enum_field_value" : 2147483647,
     "name" : "OMX_TIME_RefClockMax"
    }
   ],
   "linker_set_key" : "_ZTI21OMX_TIME_REFCLOCKTYPE",
   "name" : "OMX_TIME_REFCLOCKTYPE",
   "referenced_type" : "_ZTI21OMX_TIME_REFCLOCKTYPE",
   "self_type" : "_ZTI21OMX_TIME_REFCLOCKTYPE",
   "size" : 4,
   "source_file" : "/frameworks/native/headers/media_plugin/media/openmax/OMX_Other.h",
   "underlying_type" : "_ZTIj"
  },
  {
   "alignment" : 4,
   "enum_fields" :
   [
    {
     "enum_field_value" : 0,
     "name" : "OMX_TIME_SeekModeFast"
    },
    {
     "enum_field_value" : 1,
     "name" : "OMX_TIME_SeekModeAccurate"
    },
    {
     "enum_field_value" : 1862270976,
     "name" : "OMX_TIME_SeekModeKhronosExtensions"
    },
    {
     "enum_field_value" : 2130706432,
     "name" : "OMX_TIME_SeekModeVendorStartUnused"
    },
    {
     "enum_field_value" : 2147483647,
     "name" : "OMX_TIME_SeekModeMax"
    }
   ],
   "linker_set_key" : "_ZTI21OMX_TIME_SEEKMODETYPE",
   "name" : "OMX_TIME_SEEKMODETYPE",
   "referenced_type" : "_ZTI21OMX_TIME_SEEKMODETYPE",
   "self_type" : "_ZTI21OMX_TIME_SEEKMODETYPE",
   "size" : 4,
   "source_file" : "/frameworks/native/headers/media_plugin/media/openmax/OMX_Other.h",
   "underlying_type" : "_ZTIj"
  },
  {
   "alignment" : 4,
   "enum_fields" :
   [
    {
     "enum_field_value" : 1,
     "name" : "OMX_VIDEO_PictureTypeI"
    },
    {
     "enum_field_value" : 2,
     "name" : "OMX_VIDEO_PictureTypeP"
    },
    {
     "enum_field_value" : 4,
     "name" : "OMX_VIDEO_PictureTypeB"
    },
    {
     "enum_field_value" : 8,
     "name" : "OMX_VIDEO_PictureTypeSI"
    },
    {
     "enum_field_value" : 16,
     "name" : "OMX_VIDEO_PictureTypeSP"
    },
    {
     "enum_field_value" : 17,
     "name" : "OMX_VIDEO_PictureTypeEI"
    },
    {
     "enum_field_value" : 18,
     "name" : "OMX_VIDEO_PictureTypeEP"
    },
    {
     "enum_field_value" : 20,
     "name" : "OMX_VIDEO_PictureTypeS"
    },
    {
     "enum_field_value" : 1862270976,
     "name" : "OMX_VIDEO_PictureTypeKhronosExtensions"
    },
    {
     "enum_field_value" : 2130706432,
     "name" : "OMX_VIDEO_PictureTypeVendorStartUnused"
    },
    {
     "enum_field_value" : 2147483647,
     "name" : "OMX_VIDEO_PictureTypeMax"
    }
   ],
   "linker_set_key" : "_ZTI21OMX_VIDEO_PICTURETYPE",
   "name" : "OMX_VIDEO_PICTURETYPE",
   "referenced_type" : "_ZTI21OMX_VIDEO_PICTURETYPE",
   "self_type" : "_ZTI21OMX_VIDEO_PICTURETYPE",
   "size" : 4,
   "source_file" : "/frameworks/native/headers/media_plugin/media/openmax/OMX_Video.h",
   "underlying_type" : "_ZTIj"
  },
  {
   "alignment" : 4,
   "enum_fields" :
   [
    {
     "enum_field_value" : 0,
     "name" : "OMX_AUDIO_CDMARateBlank"
    },
    {
     "enum_field_value" : 1,
     "name" : "OMX_AUDIO_CDMARateFull"
    },
    {
     "enum_field_value" : 2,
     "name" : "OMX_AUDIO_CDMARateHalf"
    },
    {
     "enum_field_value" : 3,
     "name" : "OMX_AUDIO_CDMARateQuarter"
    },
    {
     "enum_field_value" : 4,
     "name" : "OMX_AUDIO_CDMARateEighth"
    },
    {
     "enum_field_value" : 5,
     "name" : "OMX_AUDIO_CDMARateErasure"
    },
    {
     "enum_field_value" : 1862270976,
     "name" : "OMX_AUDIO_CDMARateKhronosExtensions"
    },
    {
     "enum_field_value" : 2130706432,
     "name" : "OMX_AUDIO_CDMARateVendorStartUnused"
    },
    {
     "enum_field_value" : 2147483647,
     "name" : "OMX_AUDIO_CDMARateMax"
    }
   ],
   "linker_set_key" : "_ZTI22OMX_AUDIO_CDMARATETYPE",
   "name" : "OMX_AUDIO_CDMARATETYPE",
   "referenced_type" : "_ZTI22OMX_AUDIO_CDMARATETYPE",
   "self_type" : "_ZTI22OMX_AUDIO_CDMARATETYPE",
   "size" : 4,
   "source_file" : "/frameworks/native/headers/media_plugin/media/openmax/OMX_Audio.h",
   "underlying_type" : "_ZTIj"
  },
  {
   "alignment" : 4,
   "enum_fields" :
   [
    {
     "enum_field_value" : 0,
     "name" : "OMX_AUDIO_RAFormatUnused"
    },
    {
     "enum_field_value" : 1,
     "name" : "OMX_AUDIO_RA8"
    },
    {
     "enum_field_value" : 2,
     "name" : "OMX_AUDIO_RA9"
    },
    {
     "enum_field_value" : 3,
     "name" : "OMX_AUDIO_RA10_AAC"
    },
    {
     "enum_field_value" : 4,
     "name" : "OMX_AUDIO_RA10_CODEC"
    },
    {
     "enum_field_value" : 5,
     "name" : "OMX_AUDIO_RA10_LOSSLESS"
    },
    {
     "enum_field_value" : 6,
     "name" : "OMX_AUDIO_RA10_MULTICHANNEL"
    },
    {
     "enum_field_value" : 7,
     "name" : "OMX_AUDIO_RA10_VOICE"
    },
    {
     "enum_field_value" : 1862270976,
     "name" : "OMX_AUDIO_RAFormatKhronosExtensions"
    },
    {
     "enum_field_value" : 2130706432,
     "name" : "OMX_AUDIO_RAFormatVendorStartUnused"
    },
    {
     "enum_field_value" : 2147483647,
     "name" : "OMX_VIDEO_RAFormatMax"
    }
   ],
   "linker_set_key" : "_ZTI22OMX_AUDIO_RAFORMATTYPE",
   "name" : "OMX_AUDIO_RAFORMATTYPE",
   "referenced_type" : "_ZTI22OMX_AUDIO_RAFORMATTYPE",
   "self_type" : "_ZTI22OMX_AUDIO_RAFORMATTYPE",
   "size" : 4,
   "source_file" : "/frameworks/native/headers/media_plugin/media/openmax/OMX_Audio.h",
   "underlying_type" : "_ZTIj"
  },
  {
   "alignment" : 4,
   "enum_fields" :
   [
    {
     "enum_field_value" : 0,
     "name" : "OMX_BufferSupplyUnspecified"
    },
    {
     "enum_field_value" : 1,
     "name" : "OMX_BufferSupplyInput"
    },
    {
     "enum_field_value" : 2,
     "name" : "OMX_BufferSupplyOutput"
    },
    {
     "enum_field_value" : 1862270976,
     "name" : "OMX_BufferSupplyKhronosExtensions"
    },
    {
     "enum_field_value" : 2130706432,
     "name" : "OMX_BufferSupplyVendorStartUnused"
    },
    {
     "enum_field_value" : 2147483647,
     "name" : "OMX_BufferSupplyMax"
    }
   ],
   "linker_set_key" : "_ZTI22OMX_BUFFERSUPPLIERTYPE",
   "name" : "OMX_BUFFERSUPPLIERTYPE",
   "referenced_type" : "_ZTI22OMX_BUFFERSUPPLIERTYPE",
   "self_type" : "_ZTI22OMX_BUFFERSUPPLIERTYPE",
   "size" : 4,
   "source_file" : "/frameworks/native/headers/media_plugin/media/openmax/OMX_Core.h",
   "underlying_type" : "_ZTIj"
  },
  {
   "alignment" : 4,
   "enum_fields" :
   [
    {
     "enum_field_value" : 1,
     "name" : "OMX_VIDEO_AVCLevel1"
    },
    {
     "enum_field_value" : 2,
     "name" : "OMX_VIDEO_AVCLevel1b"
    },
    {
     "enum_field_value" : 4,
     "name" : "OMX_VIDEO_AVCLevel11"
    },
    {
     "enum_field_value" : 8,
     "name" : "OMX_VIDEO_AVCLevel12"
    },
    {
     "enum_field_value" : 16,
     "name" : "OMX_VIDEO_AVCLevel13"
    },
    {
     "enum_field_value" : 32,
     "name" : "OMX_VIDEO_AVCLevel2"
    },
    {
     "enum_field_value" : 64,
     "name" : "OMX_VIDEO_AVCLevel21"
    },
    {
     "enum_field_value" : 128,
     "name" : "OMX_VIDEO_AVCLevel22"
    },
    {
     "enum_field_value" : 256,
     "name" : "OMX_VIDEO_AVCLevel3"
    },
    {
     "enum_field_value" : 512,
     "name" : "OMX_VIDEO_AVCLevel31"
    },
    {
     "enum_field_value" : 1024,
     "name" : "OMX_VIDEO_AVCLevel32"
    },
    {
     "enum_field_value" : 2048,
     "name" : "OMX_VIDEO_AVCLevel4"
    },
    {
     "enum_field_value" : 4096,
     "name" : "OMX_VIDEO_AVCLevel41"
    },
    {
     "enum_field_value" : 8192,
     "name" : "OMX_VIDEO_AVCLevel42"
    },
    {
     "enum_field_value" : 16384,
     "name" : "OMX_VIDEO_AVCLevel5"
    },
    {
     "enum_field_value" : 32768,
     "name" : "OMX_VIDEO_AVCLevel51"
    },
    {
     "enum_field_value" : 65536,
     "name" : "OMX_VIDEO_AVCLevel52"
    },
    {
     "enum_field_value" : 131072,
     "name" : "OMX_VIDEO_AVCLevel6"
    },
    {
     "enum_field_value" : 262144,
     "name" : "OMX_VIDEO_AVCLevel61"
    },
    {
     "enum_field_value" : 524288,
     "name" : "OMX_VIDEO_AVCLevel62"
    },
    {
     "enum_field_value" : 1862270976,
     "name" : "OMX_VIDEO_AVCLevelKhronosExtensions"
    },
    {
     "enum_field_value" : 2130706432,
     "name" : "OMX_VIDEO_AVCLevelVendorStartUnused"
    },
    {
     "enum_field_value" : 2147483647,
     "name" : "OMX_VIDEO_AVCLevelMax"
    }
   ],
   "linker_set_key" : "_ZTI22OMX_VIDEO_AVCLEVELTYPE",
   "name" : "OMX_VIDEO_AVCLEVELTYPE",
   "referenced_type" : "_ZTI22OMX_VIDEO_AVCLEVELTYPE",
   "self_type" : "_ZTI22OMX_VIDEO_AVCLEVELTYPE",
   "size" : 4,
   "source_file" : "/frameworks/native/headers/media_plugin/media/openmax/OMX_Video.h",
   "underlying_type" : "_ZTIj"
  },
  {
   "alignment" : 4,
   "enum_fields" :
   [
    {
     "enum_field_value" : 0,
     "name" : "OMX_VIDEO_RVFormatUnused"
    },
    {
     "enum_field_value" : 1,
     "name" : "OMX_VIDEO_RVFormat8"
    },
    {
     "enum_field_value" : 2,
     "name" : "OMX_VIDEO_RVFormat9"
    },
    {
     "enum_field_value" : 3,
     "name" : "OMX_VIDEO_RVFormatG2"
    },
    {
     "enum_field_value" : 1862270976,
     "name" : "OMX_VIDEO_RVFormatKhronosExtensions"
    },
    {
     "enum_field_value" : 2130706432,
     "name" : "OMX_VIDEO_RVFormatVendorStartUnused"
    },
    {
     "enum_field_value" : 2147483647,
     "name" : "OMX_VIDEO_RVFormatMax"
    }
   ],
   "linker_set_key" : "_ZTI22OMX_VIDEO_RVFORMATTYPE",
   "name" : "OMX_VIDEO_RVFORMATTYPE",
   "referenced_type" : "_ZTI22OMX_VIDEO_RVFORMATTYPE",
   "self_type" : "_ZTI22OMX_VIDEO_RVFORMATTYPE",
   "size" : 4,
   "source_file" : "/frameworks/native/headers/media_plugin/media/openmax/OMX_Video.h",
   "underlying_type" : "_ZTIj"
  },
  {
   "alignment" : 4,
   "enum_fields" :
   [
    {
     "enum_field_value" : 1,
     "name" : "OMX_VIDEO_VP8Level_Version0"
    },
    {
     "enum_field_value" : 2,
     "name" : "OMX_VIDEO_VP8Level_Version1"
    },
    {
     "enum_field_value" : 4,
     "name" : "OMX_VIDEO_VP8Level_Version2"
    },
    {
     "enum_field_value" : 8,
     "name" : "OMX_VIDEO_VP8Level_Version3"
    },
    {
     "enum_field_value" : 1862270975,
     "name" : "OMX_VIDEO_VP8LevelUnknown"
    },
    {
     "enum_field_value" : 2147483647,
     "name" : "OMX_VIDEO_VP8LevelMax"
    }
   ],
   "linker_set_key" : "_ZTI22OMX_VIDEO_VP8LEVELTYPE",
   "name" : "OMX_VIDEO_VP8LEVELTYPE",
   "referenced_type" : "_ZTI22OMX_VIDEO_VP8LEVELTYPE",
   "self_type" : "_ZTI22OMX_VIDEO_VP8LEVELTYPE",
   "size" : 4,
   "source_file" : "/frameworks/native/headers/media_plugin/media/openmax/OMX_VideoExt.h",
   "underlying_type" : "_ZTIj"
  },
  {
   "alignment" : 4,
   "enum_fields" :
   [
    {
     "enum_field_value" : 1,
     "name" : "OMX_VIDEO_VP9Level1"
    },
    {
     "enum_field_value" : 2,
     "name" : "OMX_VIDEO_VP9Level11"
    },
    {
     "enum_field_value" : 4,
     "name" : "OMX_VIDEO_VP9Level2"
    },
    {
     "enum_field_value" : 8,
     "name" : "OMX_VIDEO_VP9Level21"
    },
    {
     "enum_field_value" : 16,
     "name" : "OMX_VIDEO_VP9Level3"
    },
    {
     "enum_field_value" : 32,
     "name" : "OMX_VIDEO_VP9Level31"
    },
    {
     "enum_field_value" : 64,
     "name" : "OMX_VIDEO_VP9Level4"
    },
    {
     "enum_field_value" : 128,
     "name" : "OMX_VIDEO_VP9Level41"
    },
    {
     "enum_field_value" : 256,
     "name" : "OMX_VIDEO_VP9Level5"
    },
    {
     "enum_field_value" : 512,
     "name" : "OMX_VIDEO_VP9Level51"
    },
    {
     "enum_field_value" : 1024,
     "name" : "OMX_VIDEO_VP9Level52"
    },
    {
     "enum_field_value" : 2048,
     "name" : "OMX_VIDEO_VP9Level6"
    },
    {
     "enum_field_value" : 4096,
     "name" : "OMX_VIDEO_VP9Level61"
    },
    {
     "enum_field_value" : 8192,
     "name" : "OMX_VIDEO_VP9Level62"
    },
    {
     "enum_field_value" : 1862270975,
     "name" : "OMX_VIDEO_VP9LevelUnknown"
    },
    {
     "enum_field_value" : 2147483647,
     "name" : "OMX_VIDEO_VP9LevelMax"
    }
   ],
   "linker_set_key" : "_ZTI22OMX_VIDEO_VP9LEVELTYPE",
   "name" : "OMX_VIDEO_VP9LEVELTYPE",
   "referenced_type" : "_ZTI22OMX_VIDEO_VP9LEVELTYPE",
   "self_type" : "_ZTI22OMX_VIDEO_VP9LEVELTYPE",
   "size" : 4,
   "source_file" : "/frameworks/native/headers/media_plugin/media/openmax/OMX_VideoExt.h",
   "underlying_type" : "_ZTIj"
  },
  {
   "alignment" : 4,
   "enum_fields" :
   [
    {
     "enum_field_value" : 1,
     "name" : "FLEX_COMPONENT_Y"
    },
    {
     "enum_field_value" : 2,
     "name" : "FLEX_COMPONENT_Cb"
    },
    {
     "enum_field_value" : 4,
     "name" : "FLEX_COMPONENT_Cr"
    },
    {
     "enum_field_value" : 1024,
     "name" : "FLEX_COMPONENT_R"
    },
    {
     "enum_field_value" : 2048,
     "name" : "FLEX_COMPONENT_G"
    },
    {
     "enum_field_value" : 4096,
     "name" : "FLEX_COMPONENT_B"
    },
    {
     "enum_field_value" : 1073741824,
     "name" : "FLEX_COMPONENT_A"
    }
   ],
   "linker_set_key" : "_ZTI22android_flex_component",
   "name" : "android_flex_component",
   "referenced_type" : "_ZTI22android_flex_component",
   "self_type" : "_ZTI22android_flex_component",
   "size" : 4,
   "source_file" : "/system/core/libsystem/include/system/graphics.h",
   "underlying_type" : "_ZTIj"
  },
  {
   "alignment" : 4,
   "enum_fields" :
   [
    {
     "enum_field_value" : 1,
     "name" : "HAL_PIXEL_FORMAT_RGBA_8888"
    },
    {
     "enum_field_value" : 2,
     "name" : "HAL_PIXEL_FORMAT_RGBX_8888"
    },
    {
     "enum_field_value" : 3,
     "name" : "HAL_PIXEL_FORMAT_RGB_888"
    },
    {
     "enum_field_value" : 4,
     "name" : "HAL_PIXEL_FORMAT_RGB_565"
    },
    {
     "enum_field_value" : 5,
     "name" : "HAL_PIXEL_FORMAT_BGRA_8888"
    },
    {
     "enum_field_value" : 16,
     "name" : "HAL_PIXEL_FORMAT_YCBCR_422_SP"
    },
    {
     "enum_field_value" : 17,
     "name" : "HAL_PIXEL_FORMAT_YCRCB_420_SP"
    },
    {
     "enum_field_value" : 20,
     "name" : "HAL_PIXEL_FORMAT_YCBCR_422_I"
    },
    {
     "enum_field_value" : 22,
     "name" : "HAL_PIXEL_FORMAT_RGBA_FP16"
    },
    {
     "enum_field_value" : 32,
     "name" : "HAL_PIXEL_FORMAT_RAW16"
    },
    {
     "enum_field_value" : 33,
     "name" : "HAL_PIXEL_FORMAT_BLOB"
    },
    {
     "enum_field_value" : 34,
     "name" : "HAL_PIXEL_FORMAT_IMPLEMENTATION_DEFINED"
    },
    {
     "enum_field_value" : 35,
     "name" : "HAL_PIXEL_FORMAT_YCBCR_420_888"
    },
    {
     "enum_field_value" : 36,
     "name" : "HAL_PIXEL_FORMAT_RAW_OPAQUE"
    },
    {
     "enum_field_value" : 37,
     "name" : "HAL_PIXEL_FORMAT_RAW10"
    },
    {
     "enum_field_value" : 38,
     "name" : "HAL_PIXEL_FORMAT_RAW12"
    },
    {
     "enum_field_value" : 43,
     "name" : "HAL_PIXEL_FORMAT_RGBA_1010102"
    },
    {
     "enum_field_value" : 538982489,
     "name" : "HAL_PIXEL_FORMAT_Y8"
    },
    {
     "enum_field_value" : 540422489,
     "name" : "HAL_PIXEL_FORMAT_Y16"
    },
    {
     "enum_field_value" : 842094169,
     "name" : "HAL_PIXEL_FORMAT_YV12"
    }
   ],
   "linker_set_key" : "_ZTI22android_pixel_format_t",
   "name" : "android_pixel_format_t",
   "referenced_type" : "_ZTI22android_pixel_format_t",
   "self_type" : "_ZTI22android_pixel_format_t",
   "size" : 4,
   "source_file" : "/system/core/libsystem/include/system/graphics-base-v1.0.h",
   "underlying_type" : "_ZTIj"
  },
  {
   "alignment" : 4,
   "enum_fields" :
   [
    {
     "enum_field_value" : 19,
     "name" : "ANDROID_PRIORITY_LOWEST"
    },
    {
     "enum_field_value" : 10,
     "name" : "ANDROID_PRIORITY_BACKGROUND"
    },
    {
     "enum_field_value" : 0,
     "name" : "ANDROID_PRIORITY_NORMAL"
    },
    {
     "enum_field_value" : -2,
     "name" : "ANDROID_PRIORITY_FOREGROUND"
    },
    {
     "enum_field_value" : -4,
     "name" : "ANDROID_PRIORITY_DISPLAY"
    },
    {
     "enum_field_value" : -8,
     "name" : "ANDROID_PRIORITY_URGENT_DISPLAY"
    },
    {
     "enum_field_value" : -10,
     "name" : "ANDROID_PRIORITY_VIDEO"
    },
    {
     "enum_field_value" : -16,
     "name" : "ANDROID_PRIORITY_AUDIO"
    },
    {
     "enum_field_value" : -19,
     "name" : "ANDROID_PRIORITY_URGENT_AUDIO"
    },
    {
     "enum_field_value" : -20,
     "name" : "ANDROID_PRIORITY_HIGHEST"
    },
    {
     "enum_field_value" : 0,
     "name" : "ANDROID_PRIORITY_DEFAULT"
    },
    {
     "enum_field_value" : -1,
     "name" : "ANDROID_PRIORITY_MORE_FAVORABLE"
    },
    {
     "enum_field_value" : 1,
     "name" : "ANDROID_PRIORITY_LESS_FAVORABLE"
    }
   ],
   "linker_set_key" : "_ZTI23$ANDROID_PRIORITY_AUDIO",
   "name" : "(anonymous enum at system/core/libsystem/include/system/thread_defs.h:26:1)",
   "referenced_type" : "_ZTI23$ANDROID_PRIORITY_AUDIO",
   "self_type" : "_ZTI23$ANDROID_PRIORITY_AUDIO",
   "size" : 4,
   "source_file" : "/system/core/libsystem/include/system/thread_defs.h",
   "underlying_type" : "_ZTIi"
  },
  {
   "alignment" : 4,
   "enum_fields" :
   [
    {
     "enum_field_value" : 0,
     "name" : "OMX_AUDIO_WMAFormatUnused"
    },
    {
     "enum_field_value" : 1,
     "name" : "OMX_AUDIO_WMAFormat7"
    },
    {
     "enum_field_value" : 2,
     "name" : "OMX_AUDIO_WMAFormat8"
    },
    {
     "enum_field_value" : 3,
     "name" : "OMX_AUDIO_WMAFormat9"
    },
    {
     "enum_field_value" : 1862270976,
     "name" : "OMX_AUDIO_WMAFormatKhronosExtensions"
    },
    {
     "enum_field_value" : 2130706432,
     "name" : "OMX_AUDIO_WMAFormatVendorStartUnused"
    },
    {
     "enum_field_value" : 2147483647,
     "name" : "OMX_AUDIO_WMAFormatMax"
    }
   ],
   "linker_set_key" : "_ZTI23OMX_AUDIO_WMAFORMATTYPE",
   "name" : "OMX_AUDIO_WMAFORMATTYPE",
   "referenced_type" : "_ZTI23OMX_AUDIO_WMAFORMATTYPE",
   "self_type" : "_ZTI23OMX_AUDIO_WMAFORMATTYPE",
   "size" : 4,
   "source_file" : "/frameworks/native/headers/media_plugin/media/openmax/OMX_Audio.h",
   "underlying_type" : "_ZTIj"
  },
  {
   "alignment" : 4,
   "enum_fields" :
   [
    {
     "enum_field_value" : 0,
     "name" : "OMX_ExposureControlOff"
    },
    {
     "enum_field_value" : 1,
     "name" : "OMX_ExposureControlAuto"
    },
    {
     "enum_field_value" : 2,
     "name" : "OMX_ExposureControlNight"
    },
    {
     "enum_field_value" : 3,
     "name" : "OMX_ExposureControlBackLight"
    },
    {
     "enum_field_value" : 4,
     "name" : "OMX_ExposureControlSpotLight"
    },
    {
     "enum_field_value" : 5,
     "name" : "OMX_ExposureControlSports"
    },
    {
     "enum_field_value" : 6,
     "name" : "OMX_ExposureControlSnow"
    },
    {
     "enum_field_value" : 7,
     "name" : "OMX_ExposureControlBeach"
    },
    {
     "enum_field_value" : 8,
     "name" : "OMX_ExposureControlLargeAperture"
    },
    {
     "enum_field_value" : 9,
     "name" : "OMX_ExposureControlSmallApperture"
    },
    {
     "enum_field_value" : 1862270976,
     "name" : "OMX_ExposureControlKhronosExtensions"
    },
    {
     "enum_field_value" : 2130706432,
     "name" : "OMX_ExposureControlVendorStartUnused"
    },
    {
     "enum_field_value" : 2147483647,
     "name" : "OMX_ExposureControlMax"
    }
   ],
   "linker_set_key" : "_ZTI23OMX_EXPOSURECONTROLTYPE",
   "name" : "OMX_EXPOSURECONTROLTYPE",
   "referenced_type" : "_ZTI23OMX_EXPOSURECONTROLTYPE",
   "self_type" : "_ZTI23OMX_EXPOSURECONTROLTYPE",
   "size" : 4,
   "source_file" : "/frameworks/native/headers/media_plugin/media/openmax/OMX_IVCommon.h",
   "underlying_type" : "_ZTIj"
  },
  {
   "alignment" : 4,
   "enum_fields" :
   [
    {
     "enum_field_value" : 0,
     "name" : "OMX_MetadataCharsetUnknown"
    },
    {
     "enum_field_value" : 1,
     "name" : "OMX_MetadataCharsetASCII"
    },
    {
     "enum_field_value" : 2,
     "name" : "OMX_MetadataCharsetBinary"
    },
    {
     "enum_field_value" : 3,
     "name" : "OMX_MetadataCharsetCodePage1252"
    },
    {
     "enum_field_value" : 4,
     "name" : "OMX_MetadataCharsetUTF8"
    },
    {
     "enum_field_value" : 5,
     "name" : "OMX_MetadataCharsetJavaConformantUTF8"
    },
    {
     "enum_field_value" : 6,
     "name" : "OMX_MetadataCharsetUTF7"
    },
    {
     "enum_field_value" : 7,
     "name" : "OMX_MetadataCharsetImapUTF7"
    },
    {
     "enum_field_value" : 8,
     "name" : "OMX_MetadataCharsetUTF16LE"
    },
    {
     "enum_field_value" : 9,
     "name" : "OMX_MetadataCharsetUTF16BE"
    },
    {
     "enum_field_value" : 10,
     "name" : "OMX_MetadataCharsetGB12345"
    },
    {
     "enum_field_value" : 11,
     "name" : "OMX_MetadataCharsetHZGB2312"
    },
    {
     "enum_field_value" : 12,
     "name" : "OMX_MetadataCharsetGB2312"
    },
    {
     "enum_field_value" : 13,
     "name" : "OMX_MetadataCharsetGB18030"
    },
    {
     "enum_field_value" : 14,
     "name" : "OMX_MetadataCharsetGBK"
    },
    {
     "enum_field_value" : 15,
     "name" : "OMX_MetadataCharsetBig5"
    },
    {
     "enum_field_value" : 16,
     "name" : "OMX_MetadataCharsetISO88591"
    },
    {
     "enum_field_value" : 17,
     "name" : "OMX_MetadataCharsetISO88592"
    },
    {
     "enum_field_value" : 18,
     "name" : "OMX_MetadataCharsetISO88593"
    },
    {
     "enum_field_value" : 19,
     "name" : "OMX_MetadataCharsetISO88594"
    },
    {
     "enum_field_value" : 20,
     "name" : "OMX_MetadataCharsetISO88595"
    },
    {
     "enum_field_value" : 21,
     "name" : "OMX_MetadataCharsetISO88596"
    },
    {
     "enum_field_value" : 22,
     "name" : "OMX_MetadataCharsetISO88597"
    },
    {
     "enum_field_value" : 23,
     "name" : "OMX_MetadataCharsetISO88598"
    },
    {
     "enum_field_value" : 24,
     "name" : "OMX_MetadataCharsetISO88599"
    },
    {
     "enum_field_value" : 25,
     "name" : "OMX_MetadataCharsetISO885910"
    },
    {
     "enum_field_value" : 26,
     "name" : "OMX_MetadataCharsetISO885913"
    },
    {
     "enum_field_value" : 27,
     "name" : "OMX_MetadataCharsetISO885914"
    },
    {
     "enum_field_value" : 28,
     "name" : "OMX_MetadataCharsetISO885915"
    },
    {
     "enum_field_value" : 29,
     "name" : "OMX_MetadataCharsetShiftJIS"
    },
    {
     "enum_field_value" : 30,
     "name" : "OMX_MetadataCharsetISO2022JP"
    },
    {
     "enum_field_value" : 31,
     "name" : "OMX_MetadataCharsetISO2022JP1"
    },
    {
     "enum_field_value" : 32,
     "name" : "OMX_MetadataCharsetISOEUCJP"
    },
    {
     "enum_field_value" : 33,
     "name" : "OMX_MetadataCharsetSMS7Bit"
    },
    {
     "enum_field_value" : 1862270976,
     "name" : "OMX_MetadataCharsetKhronosExtensions"
    },
    {
     "enum_field_value" : 2130706432,
     "name" : "OMX_MetadataCharsetVendorStartUnused"
    },
    {
     "enum_field_value" : 2147483647,
     "name" : "OMX_MetadataCharsetTypeMax"
    }
   ],
   "linker_set_key" : "_ZTI23OMX_METADATACHARSETTYPE",
   "name" : "OMX_METADATACHARSETTYPE",
   "referenced_type" : "_ZTI23OMX_METADATACHARSETTYPE",
   "self_type" : "_ZTI23OMX_METADATACHARSETTYPE",
   "size" : 4,
   "source_file" : "/frameworks/native/headers/media_plugin/media/openmax/OMX_Component.h",
   "underlying_type" : "_ZTIj"
  },
  {
   "alignment" : 4,
   "enum_fields" :
   [
    {
     "enum_field_value" : 1,
     "name" : "OMX_VIDEO_H263Level10"
    },
    {
     "enum_field_value" : 2,
     "name" : "OMX_VIDEO_H263Level20"
    },
    {
     "enum_field_value" : 4,
     "name" : "OMX_VIDEO_H263Level30"
    },
    {
     "enum_field_value" : 8,
     "name" : "OMX_VIDEO_H263Level40"
    },
    {
     "enum_field_value" : 16,
     "name" : "OMX_VIDEO_H263Level45"
    },
    {
     "enum_field_value" : 32,
     "name" : "OMX_VIDEO_H263Level50"
    },
    {
     "enum_field_value" : 64,
     "name" : "OMX_VIDEO_H263Level60"
    },
    {
     "enum_field_value" : 128,
     "name" : "OMX_VIDEO_H263Level70"
    },
    {
     "enum_field_value" : 1862270976,
     "name" : "OMX_VIDEO_H263LevelKhronosExtensions"
    },
    {
     "enum_field_value" : 2130706432,
     "name" : "OMX_VIDEO_H263LevelVendorStartUnused"
    },
    {
     "enum_field_value" : 2147483647,
     "name" : "OMX_VIDEO_H263LevelMax"
    }
   ],
   "linker_set_key" : "_ZTI23OMX_VIDEO_H263LEVELTYPE",
   "name" : "OMX_VIDEO_H263LEVELTYPE",
   "referenced_type" : "_ZTI23OMX_VIDEO_H263LEVELTYPE",
   "self_type" : "_ZTI23OMX_VIDEO_H263LEVELTYPE",
   "size" : 4,
   "source_file" : "/frameworks/native/headers/media_plugin/media/openmax/OMX_Video.h",
   "underlying_type" : "_ZTIj"
  },
  {
   "alignment" : 4,
   "enum_fields" :
   [
    {
     "enum_field_value" : 0,
     "name" : "OMX_VIDEO_HEVCLevelUnknown"
    },
    {
     "enum_field_value" : 1,
     "name" : "OMX_VIDEO_HEVCMainTierLevel1"
    },
    {
     "enum_field_value" : 2,
     "name" : "OMX_VIDEO_HEVCHighTierLevel1"
    },
    {
     "enum_field_value" : 4,
     "name" : "OMX_VIDEO_HEVCMainTierLevel2"
    },
    {
     "enum_field_value" : 8,
     "name" : "OMX_VIDEO_HEVCHighTierLevel2"
    },
    {
     "enum_field_value" : 16,
     "name" : "OMX_VIDEO_HEVCMainTierLevel21"
    },
    {
     "enum_field_value" : 32,
     "name" : "OMX_VIDEO_HEVCHighTierLevel21"
    },
    {
     "enum_field_value" : 64,
     "name" : "OMX_VIDEO_HEVCMainTierLevel3"
    },
    {
     "enum_field_value" : 128,
     "name" : "OMX_VIDEO_HEVCHighTierLevel3"
    },
    {
     "enum_field_value" : 256,
     "name" : "OMX_VIDEO_HEVCMainTierLevel31"
    },
    {
     "enum_field_value" : 512,
     "name" : "OMX_VIDEO_HEVCHighTierLevel31"
    },
    {
     "enum_field_value" : 1024,
     "name" : "OMX_VIDEO_HEVCMainTierLevel4"
    },
    {
     "enum_field_value" : 2048,
     "name" : "OMX_VIDEO_HEVCHighTierLevel4"
    },
    {
     "enum_field_value" : 4096,
     "name" : "OMX_VIDEO_HEVCMainTierLevel41"
    },
    {
     "enum_field_value" : 8192,
     "name" : "OMX_VIDEO_HEVCHighTierLevel41"
    },
    {
     "enum_field_value" : 16384,
     "name" : "OMX_VIDEO_HEVCMainTierLevel5"
    },
    {
     "enum_field_value" : 32768,
     "name" : "OMX_VIDEO_HEVCHighTierLevel5"
    },
    {
     "enum_field_value" : 65536,
     "name" : "OMX_VIDEO_HEVCMainTierLevel51"
    },
    {
     "enum_field_value" : 131072,
     "name" : "OMX_VIDEO_HEVCHighTierLevel51"
    },
    {
     "enum_field_value" : 262144,
     "name" : "OMX_VIDEO_HEVCMainTierLevel52"
    },
    {
     "enum_field_value" : 524288,
     "name" : "OMX_VIDEO_HEVCHighTierLevel52"
    },
    {
     "enum_field_value" : 1048576,
     "name" : "OMX_VIDEO_HEVCMainTierLevel6"
    },
    {
     "enum_field_value" : 2097152,
     "name" : "OMX_VIDEO_HEVCHighTierLevel6"
    },
    {
     "enum_field_value" : 4194304,
     "name" : "OMX_VIDEO_HEVCMainTierLevel61"
    },
    {
     "enum_field_value" : 8388608,
     "name" : "OMX_VIDEO_HEVCHighTierLevel61"
    },
    {
     "enum_field_value" : 16777216,
     "name" : "OMX_VIDEO_HEVCMainTierLevel62"
    },
    {
     "enum_field_value" : 33554432,
     "name" : "OMX_VIDEO_HEVCHighTierLevel62"
    },
    {
     "enum_field_value" : 2147483647,
     "name" : "OMX_VIDEO_HEVCHighTiermax"
    }
   ],
   "linker_set_key" : "_ZTI23OMX_VIDEO_HEVCLEVELTYPE",
   "name" : "OMX_VIDEO_HEVCLEVELTYPE",
   "referenced_type" : "_ZTI23OMX_VIDEO_HEVCLEVELTYPE",
   "self_type" : "_ZTI23OMX_VIDEO_HEVCLEVELTYPE",
   "size" : 4,
   "source_file" : "/frameworks/native/headers/media_plugin/media/openmax/OMX_VideoExt.h",
   "underlying_type" : "_ZTIj"
  },
  {
   "alignment" : 4,
   "enum_fields" :
   [
    {
     "enum_field_value" : 1,
     "name" : "OMX_VIDEO_WMVFormatUnused"
    },
    {
     "enum_field_value" : 2,
     "name" : "OMX_VIDEO_WMVFormat7"
    },
    {
     "enum_field_value" : 4,
     "name" : "OMX_VIDEO_WMVFormat8"
    },
    {
     "enum_field_value" : 8,
     "name" : "OMX_VIDEO_WMVFormat9"
    },
    {
     "enum_field_value" : 1862270976,
     "name" : "OMX_VIDEO_WMFFormatKhronosExtensions"
    },
    {
     "enum_field_value" : 2130706432,
     "name" : "OMX_VIDEO_WMFFormatVendorStartUnused"
    },
    {
     "enum_field_value" : 2147483647,
     "name" : "OMX_VIDEO_WMVFormatMax"
    }
   ],
   "linker_set_key" : "_ZTI23OMX_VIDEO_WMVFORMATTYPE",
   "name" : "OMX_VIDEO_WMVFORMATTYPE",
   "referenced_type" : "_ZTI23OMX_VIDEO_WMVFORMATTYPE",
   "self_type" : "_ZTI23OMX_VIDEO_WMVFORMATTYPE",
   "size" : 4,
   "source_file" : "/frameworks/native/headers/media_plugin/media/openmax/OMX_Video.h",
   "underlying_type" : "_ZTIj"
  },
  {
   "alignment" : 4,
   "enum_fields" :
   [
    {
     "enum_field_value" : 0,
     "name" : "OMX_WhiteBalControlOff"
    },
    {
     "enum_field_value" : 1,
     "name" : "OMX_WhiteBalControlAuto"
    },
    {
     "enum_field_value" : 2,
     "name" : "OMX_WhiteBalControlSunLight"
    },
    {
     "enum_field_value" : 3,
     "name" : "OMX_WhiteBalControlCloudy"
    },
    {
     "enum_field_value" : 4,
     "name" : "OMX_WhiteBalControlShade"
    },
    {
     "enum_field_value" : 5,
     "name" : "OMX_WhiteBalControlTungsten"
    },
    {
     "enum_field_value" : 6,
     "name" : "OMX_WhiteBalControlFluorescent"
    },
    {
     "enum_field_value" : 7,
     "name" : "OMX_WhiteBalControlIncandescent"
    },
    {
     "enum_field_value" : 8,
     "name" : "OMX_WhiteBalControlFlash"
    },
    {
     "enum_field_value" : 9,
     "name" : "OMX_WhiteBalControlHorizon"
    },
    {
     "enum_field_value" : 1862270976,
     "name" : "OMX_WhiteBalControlKhronosExtensions"
    },
    {
     "enum_field_value" : 2130706432,
     "name" : "OMX_WhiteBalControlVendorStartUnused"
    },
    {
     "enum_field_value" : 2147483647,
     "name" : "OMX_WhiteBalControlMax"
    }
   ],
   "linker_set_key" : "_ZTI23OMX_WHITEBALCONTROLTYPE",
   "name" : "OMX_WHITEBALCONTROLTYPE",
   "referenced_type" : "_ZTI23OMX_WHITEBALCONTROLTYPE",
   "self_type" : "_ZTI23OMX_WHITEBALCONTROLTYPE",
   "size" : 4,
   "source_file" : "/frameworks/native/headers/media_plugin/media/openmax/OMX_IVCommon.h",
   "underlying_type" : "_ZTIj"
  },
  {
   "alignment" : 4,
   "enum_fields" :
   [
    {
     "enum_field_value" : 0,
     "name" : "OMX_AUDIO_AACObjectNull"
    },
    {
     "enum_field_value" : 1,
     "name" : "OMX_AUDIO_AACObjectMain"
    },
    {
     "enum_field_value" : 2,
     "name" : "OMX_AUDIO_AACObjectLC"
    },
    {
     "enum_field_value" : 3,
     "name" : "OMX_AUDIO_AACObjectSSR"
    },
    {
     "enum_field_value" : 4,
     "name" : "OMX_AUDIO_AACObjectLTP"
    },
    {
     "enum_field_value" : 5,
     "name" : "OMX_AUDIO_AACObjectHE"
    },
    {
     "enum_field_value" : 6,
     "name" : "OMX_AUDIO_AACObjectScalable"
    },
    {
     "enum_field_value" : 17,
     "name" : "OMX_AUDIO_AACObjectERLC"
    },
    {
     "enum_field_value" : 20,
     "name" : "OMX_AUDIO_AACObjectER_Scalable"
    },
    {
     "enum_field_value" : 23,
     "name" : "OMX_AUDIO_AACObjectLD"
    },
    {
     "enum_field_value" : 29,
     "name" : "OMX_AUDIO_AACObjectHE_PS"
    },
    {
     "enum_field_value" : 39,
     "name" : "OMX_AUDIO_AACObjectELD"
    },
    {
     "enum_field_value" : 42,
     "name" : "OMX_AUDIO_AACObjectXHE"
    },
    {
     "enum_field_value" : 1862270976,
     "name" : "OMX_AUDIO_AACObjectKhronosExtensions"
    },
    {
     "enum_field_value" : 2130706432,
     "name" : "OMX_AUDIO_AACObjectVendorStartUnused"
    },
    {
     "enum_field_value" : 2147483647,
     "name" : "OMX_AUDIO_AACObjectMax"
    }
   ],
   "linker_set_key" : "_ZTI24OMX_AUDIO_AACPROFILETYPE",
   "name" : "OMX_AUDIO_AACPROFILETYPE",
   "referenced_type" : "_ZTI24OMX_AUDIO_AACPROFILETYPE",
   "self_type" : "_ZTI24OMX_AUDIO_AACPROFILETYPE",
   "size" : 4,
   "source_file" : "/frameworks/native/headers/media_plugin/media/openmax/OMX_Audio.h",
   "underlying_type" : "_ZTIj"
  },
  {
   "alignment" : 4,
   "enum_fields" :
   [
    {
     "enum_field_value" : 0,
     "name" : "OMX_AUDIO_AMRDTXModeOff"
    },
    {
     "enum_field_value" : 1,
     "name" : "OMX_AUDIO_AMRDTXModeOnVAD1"
    },
    {
     "enum_field_value" : 2,
     "name" : "OMX_AUDIO_AMRDTXModeOnVAD2"
    },
    {
     "enum_field_value" : 3,
     "name" : "OMX_AUDIO_AMRDTXModeOnAuto"
    },
    {
     "enum_field_value" : 4,
     "name" : "OMX_AUDIO_AMRDTXasEFR"
    },
    {
     "enum_field_value" : 1862270976,
     "name" : "OMX_AUDIO_AMRDTXModeKhronosExtensions"
    },
    {
     "enum_field_value" : 2130706432,
     "name" : "OMX_AUDIO_AMRDTXModeVendorStartUnused"
    },
    {
     "enum_field_value" : 2147483647,
     "name" : "OMX_AUDIO_AMRDTXModeMax"
    }
   ],
   "linker_set_key" : "_ZTI24OMX_AUDIO_AMRDTXMODETYPE",
   "name" : "OMX_AUDIO_AMRDTXMODETYPE",
   "referenced_type" : "_ZTI24OMX_AUDIO_AMRDTXMODETYPE",
   "self_type" : "_ZTI24OMX_AUDIO_AMRDTXMODETYPE",
   "size" : 4,
   "source_file" : "/frameworks/native/headers/media_plugin/media/openmax/OMX_Audio.h",
   "underlying_type" : "_ZTIj"
  },
  {
   "alignment" : 4,
   "enum_fields" :
   [
    {
     "enum_field_value" : 0,
     "name" : "OMX_AUDIO_MIDIFormatUnknown"
    },
    {
     "enum_field_value" : 1,
     "name" : "OMX_AUDIO_MIDIFormatSMF0"
    },
    {
     "enum_field_value" : 2,
     "name" : "OMX_AUDIO_MIDIFormatSMF1"
    },
    {
     "enum_field_value" : 3,
     "name" : "OMX_AUDIO_MIDIFormatSMF2"
    },
    {
     "enum_field_value" : 4,
     "name" : "OMX_AUDIO_MIDIFormatSPMIDI"
    },
    {
     "enum_field_value" : 5,
     "name" : "OMX_AUDIO_MIDIFormatXMF0"
    },
    {
     "enum_field_value" : 6,
     "name" : "OMX_AUDIO_MIDIFormatXMF1"
    },
    {
     "enum_field_value" : 7,
     "name" : "OMX_AUDIO_MIDIFormatMobileXMF"
    },
    {
     "enum_field_value" : 1862270976,
     "name" : "OMX_AUDIO_MIDIFormatKhronosExtensions"
    },
    {
     "enum_field_value" : 2130706432,
     "name" : "OMX_AUDIO_MIDIFormatVendorStartUnused"
    },
    {
     "enum_field_value" : 2147483647,
     "name" : "OMX_AUDIO_MIDIFormatMax"
    }
   ],
   "linker_set_key" : "_ZTI24OMX_AUDIO_MIDIFORMATTYPE",
   "name" : "OMX_AUDIO_MIDIFORMATTYPE",
   "referenced_type" : "_ZTI24OMX_AUDIO_MIDIFORMATTYPE",
   "self_type" : "_ZTI24OMX_AUDIO_MIDIFORMATTYPE",
   "size" : 4,
   "source_file" : "/frameworks/native/headers/media_plugin/media/openmax/OMX_Audio.h",
   "underlying_type" : "_ZTIj"
  },
  {
   "alignment" : 4,
   "enum_fields" :
   [
    {
     "enum_field_value" : 0,
     "name" : "OMX_AUDIO_WMAProfileUnused"
    },
    {
     "enum_field_value" : 1,
     "name" : "OMX_AUDIO_WMAProfileL1"
    },
    {
     "enum_field_value" : 2,
     "name" : "OMX_AUDIO_WMAProfileL2"
    },
    {
     "enum_field_value" : 3,
     "name" : "OMX_AUDIO_WMAProfileL3"
    },
    {
     "enum_field_value" : 1862270976,
     "name" : "OMX_AUDIO_WMAProfileKhronosExtensions"
    },
    {
     "enum_field_value" : 2130706432,
     "name" : "OMX_AUDIO_WMAProfileVendorStartUnused"
    },
    {
     "enum_field_value" : 2147483647,
     "name" : "OMX_AUDIO_WMAProfileMax"
    }
   ],
   "linker_set_key" : "_ZTI24OMX_AUDIO_WMAPROFILETYPE",
   "name" : "OMX_AUDIO_WMAPROFILETYPE",
   "referenced_type" : "_ZTI24OMX_AUDIO_WMAPROFILETYPE",
   "self_type" : "_ZTI24OMX_AUDIO_WMAPROFILETYPE",
   "size" : 4,
   "source_file" : "/frameworks/native/headers/media_plugin/media/openmax/OMX_Audio.h",
   "underlying_type" : "_ZTIj"
  },
  {
   "alignment" : 4,
   "enum_fields" :
   [
    {
     "enum_field_value" : 0,
     "name" : "OMX_SuspensionDisabled"
    },
    {
     "enum_field_value" : 1,
     "name" : "OMX_SuspensionEnabled"
    },
    {
     "enum_field_value" : 1862270976,
     "name" : "OMX_SuspensionPolicyKhronosExtensions"
    },
    {
     "enum_field_value" : 2130706432,
     "name" : "OMX_SuspensionPolicyStartUnused"
    },
    {
     "enum_field_value" : 2147483647,
     "name" : "OMX_SuspensionPolicyMax"
    }
   ],
   "linker_set_key" : "_ZTI24OMX_SUSPENSIONPOLICYTYPE",
   "name" : "OMX_SUSPENSIONPOLICYTYPE",
   "referenced_type" : "_ZTI24OMX_SUSPENSIONPOLICYTYPE",
   "self_type" : "_ZTI24OMX_SUSPENSIONPOLICYTYPE",
   "size" : 4,
   "source_file" : "/frameworks/native/headers/media_plugin/media/openmax/OMX_Component.h",
   "underlying_type" : "_ZTIj"
  },
  {
   "alignment" : 4,
   "enum_fields" :
   [
    {
     "enum_field_value" : 0,
     "name" : "OMX_EffectNone"
    },
    {
     "enum_field_value" : 1,
     "name" : "OMX_EffectFadeFromBlack"
    },
    {
     "enum_field_value" : 2,
     "name" : "OMX_EffectFadeToBlack"
    },
    {
     "enum_field_value" : 3,
     "name" : "OMX_EffectUnspecifiedThroughConstantColor"
    },
    {
     "enum_field_value" : 4,
     "name" : "OMX_EffectDissolve"
    },
    {
     "enum_field_value" : 5,
     "name" : "OMX_EffectWipe"
    },
    {
     "enum_field_value" : 6,
     "name" : "OMX_EffectUnspecifiedMixOfTwoScenes"
    },
    {
     "enum_field_value" : 1862270976,
     "name" : "OMX_EffectKhronosExtensions"
    },
    {
     "enum_field_value" : 2130706432,
     "name" : "OMX_EffectVendorStartUnused"
    },
    {
     "enum_field_value" : 2147483647,
     "name" : "OMX_EffectMax"
    }
   ],
   "linker_set_key" : "_ZTI24OMX_TRANSITIONEFFECTTYPE",
   "name" : "OMX_TRANSITIONEFFECTTYPE",
   "referenced_type" : "_ZTI24OMX_TRANSITIONEFFECTTYPE",
   "self_type" : "_ZTI24OMX_TRANSITIONEFFECTTYPE",
   "size" : 4,
   "source_file" : "/frameworks/native/headers/media_plugin/media/openmax/OMX_IVCommon.h",
   "underlying_type" : "_ZTIj"
  },
  {
   "alignment" : 4,
   "enum_fields" :
   [
    {
     "enum_field_value" : 1,
     "name" : "OMX_VIDEO_AVCProfileBaseline"
    },
    {
     "enum_field_value" : 2,
     "name" : "OMX_VIDEO_AVCProfileMain"
    },
    {
     "enum_field_value" : 4,
     "name" : "OMX_VIDEO_AVCProfileExtended"
    },
    {
     "enum_field_value" : 8,
     "name" : "OMX_VIDEO_AVCProfileHigh"
    },
    {
     "enum_field_value" : 16,
     "name" : "OMX_VIDEO_AVCProfileHigh10"
    },
    {
     "enum_field_value" : 32,
     "name" : "OMX_VIDEO_AVCProfileHigh422"
    },
    {
     "enum_field_value" : 64,
     "name" : "OMX_VIDEO_AVCProfileHigh444"
    },
    {
     "enum_field_value" : 1862270976,
     "name" : "OMX_VIDEO_AVCProfileKhronosExtensions"
    },
    {
     "enum_field_value" : 2130706432,
     "name" : "OMX_VIDEO_AVCProfileVendorStartUnused"
    },
    {
     "enum_field_value" : 2147483647,
     "name" : "OMX_VIDEO_AVCProfileMax"
    }
   ],
   "linker_set_key" : "_ZTI24OMX_VIDEO_AVCPROFILETYPE",
   "name" : "OMX_VIDEO_AVCPROFILETYPE",
   "referenced_type" : "_ZTI24OMX_VIDEO_AVCPROFILETYPE",
   "self_type" : "_ZTI24OMX_VIDEO_AVCPROFILETYPE",
   "size" : 4,
   "source_file" : "/frameworks/native/headers/media_plugin/media/openmax/OMX_Video.h",
   "underlying_type" : "_ZTIj"
  },
  {
   "alignment" : 4,
   "enum_fields" :
   [
    {
     "enum_field_value" : 0,
     "name" : "OMX_VIDEO_MPEG2LevelLL"
    },
    {
     "enum_field_value" : 1,
     "name" : "OMX_VIDEO_MPEG2LevelML"
    },
    {
     "enum_field_value" : 2,
     "name" : "OMX_VIDEO_MPEG2LevelH14"
    },
    {
     "enum_field_value" : 3,
     "name" : "OMX_VIDEO_MPEG2LevelHL"
    },
    {
     "enum_field_value" : 4,
     "name" : "OMX_VIDEO_MPEG2LevelHP"
    },
    {
     "enum_field_value" : 1862270976,
     "name" : "OMX_VIDEO_MPEG2LevelKhronosExtensions"
    },
    {
     "enum_field_value" : 2130706432,
     "name" : "OMX_VIDEO_MPEG2LevelVendorStartUnused"
    },
    {
     "enum_field_value" : 2147483647,
     "name" : "OMX_VIDEO_MPEG2LevelMax"
    }
   ],
   "linker_set_key" : "_ZTI24OMX_VIDEO_MPEG2LEVELTYPE",
   "name" : "OMX_VIDEO_MPEG2LEVELTYPE",
   "referenced_type" : "_ZTI24OMX_VIDEO_MPEG2LEVELTYPE",
   "self_type" : "_ZTI24OMX_VIDEO_MPEG2LEVELTYPE",
   "size" : 4,
   "source_file" : "/frameworks/native/headers/media_plugin/media/openmax/OMX_Video.h",
   "underlying_type" : "_ZTIj"
  },
  {
   "alignment" : 4,
   "enum_fields" :
   [
    {
     "enum_field_value" : 1,
     "name" : "OMX_VIDEO_MPEG4Level0"
    },
    {
     "enum_field_value" : 2,
     "name" : "OMX_VIDEO_MPEG4Level0b"
    },
    {
     "enum_field_value" : 4,
     "name" : "OMX_VIDEO_MPEG4Level1"
    },
    {
     "enum_field_value" : 8,
     "name" : "OMX_VIDEO_MPEG4Level2"
    },
    {
     "enum_field_value" : 16,
     "name" : "OMX_VIDEO_MPEG4Level3"
    },
    {
     "enum_field_value" : 24,
     "name" : "OMX_VIDEO_MPEG4Level3b"
    },
    {
     "enum_field_value" : 32,
     "name" : "OMX_VIDEO_MPEG4Level4"
    },
    {
     "enum_field_value" : 64,
     "name" : "OMX_VIDEO_MPEG4Level4a"
    },
    {
     "enum_field_value" : 128,
     "name" : "OMX_VIDEO_MPEG4Level5"
    },
    {
     "enum_field_value" : 256,
     "name" : "OMX_VIDEO_MPEG4Level6"
    },
    {
     "enum_field_value" : 1862270976,
     "name" : "OMX_VIDEO_MPEG4LevelKhronosExtensions"
    },
    {
     "enum_field_value" : 2130706432,
     "name" : "OMX_VIDEO_MPEG4LevelVendorStartUnused"
    },
    {
     "enum_field_value" : 2147483647,
     "name" : "OMX_VIDEO_MPEG4LevelMax"
    }
   ],
   "linker_set_key" : "_ZTI24OMX_VIDEO_MPEG4LEVELTYPE",
   "name" : "OMX_VIDEO_MPEG4LEVELTYPE",
   "referenced_type" : "_ZTI24OMX_VIDEO_MPEG4LEVELTYPE",
   "self_type" : "_ZTI24OMX_VIDEO_MPEG4LEVELTYPE",
   "size" : 4,
   "source_file" : "/frameworks/native/headers/media_plugin/media/openmax/OMX_Video.h",
   "underlying_type" : "_ZTIj"
  },
  {
   "alignment" : 4,
   "enum_fields" :
   [
    {
     "enum_field_value" : 1,
     "name" : "OMX_VIDEO_VP8ProfileMain"
    },
    {
     "enum_field_value" : 1862270975,
     "name" : "OMX_VIDEO_VP8ProfileUnknown"
    },
    {
     "enum_field_value" : 2147483647,
     "name" : "OMX_VIDEO_VP8ProfileMax"
    }
   ],
   "linker_set_key" : "_ZTI24OMX_VIDEO_VP8PROFILETYPE",
   "name" : "OMX_VIDEO_VP8PROFILETYPE",
   "referenced_type" : "_ZTI24OMX_VIDEO_VP8PROFILETYPE",
   "self_type" : "_ZTI24OMX_VIDEO_VP8PROFILETYPE",
   "size" : 4,
   "source_file" : "/frameworks/native/headers/media_plugin/media/openmax/OMX_VideoExt.h",
   "underlying_type" : "_ZTIj"
  },
  {
   "alignment" : 4,
   "enum_fields" :
   [
    {
     "enum_field_value" : 1,
     "name" : "OMX_VIDEO_VP9Profile0"
    },
    {
     "enum_field_value" : 2,
     "name" : "OMX_VIDEO_VP9Profile1"
    },
    {
     "enum_field_value" : 4,
     "name" : "OMX_VIDEO_VP9Profile2"
    },
    {
     "enum_field_value" : 8,
     "name" : "OMX_VIDEO_VP9Profile3"
    },
    {
     "enum_field_value" : 4096,
     "name" : "OMX_VIDEO_VP9Profile2HDR"
    },
    {
     "enum_field_value" : 8192,
     "name" : "OMX_VIDEO_VP9Profile3HDR"
    },
    {
     "enum_field_value" : 16384,
     "name" : "OMX_VIDEO_VP9Profile2HDR10Plus"
    },
    {
     "enum_field_value" : 32768,
     "name" : "OMX_VIDEO_VP9Profile3HDR10Plus"
    },
    {
     "enum_field_value" : 1862270975,
     "name" : "OMX_VIDEO_VP9ProfileUnknown"
    },
    {
     "enum_field_value" : 2147483647,
     "name" : "OMX_VIDEO_VP9ProfileMax"
    }
   ],
   "linker_set_key" : "_ZTI24OMX_VIDEO_VP9PROFILETYPE",
   "name" : "OMX_VIDEO_VP9PROFILETYPE",
   "referenced_type" : "_ZTI24OMX_VIDEO_VP9PROFILETYPE",
   "self_type" : "_ZTI24OMX_VIDEO_VP9PROFILETYPE",
   "size" : 4,
   "source_file" : "/frameworks/native/headers/media_plugin/media/openmax/OMX_VideoExt.h",
   "underlying_type" : "_ZTIj"
  },
  {
   "alignment" : 4,
   "enum_fields" :
   [
    {
     "enum_field_value" : 281411584,
     "name" : "HAL_DATASPACE_BT2020_ITU"
    },
    {
     "enum_field_value" : 298188800,
     "name" : "HAL_DATASPACE_BT2020_ITU_PQ"
    },
    {
     "enum_field_value" : 302383104,
     "name" : "HAL_DATASPACE_BT2020_ITU_HLG"
    },
    {
     "enum_field_value" : 168165376,
     "name" : "HAL_DATASPACE_BT2020_HLG"
    }
   ],
   "linker_set_key" : "_ZTI24android_dataspace_v1_1_t",
   "name" : "android_dataspace_v1_1_t",
   "referenced_type" : "_ZTI24android_dataspace_v1_1_t",
   "self_type" : "_ZTI24android_dataspace_v1_1_t",
   "size" : 4,
   "source_file" : "/system/core/libsystem/include/system/graphics-base-v1.1.h",
   "underlying_type" : "_ZTIj"
  },
  {
   "alignment" : 4,
   "enum_fields" :
   [
    {
     "enum_field_value" : 142999552,
     "name" : "HAL_DATASPACE_DISPLAY_BT2020"
    },
    {
     "enum_field_value" : 4098,
     "name" : "HAL_DATASPACE_DYNAMIC_DEPTH"
    },
    {
     "enum_field_value" : 4099,
     "name" : "HAL_DATASPACE_JPEG_APP_SEGMENTS"
    },
    {
     "enum_field_value" : 4100,
     "name" : "HAL_DATASPACE_HEIF"
    }
   ],
   "linker_set_key" : "_ZTI24android_dataspace_v1_2_t",
   "name" : "android_dataspace_v1_2_t",
   "referenced_type" : "_ZTI24android_dataspace_v1_2_t",
   "self_type" : "_ZTI24android_dataspace_v1_2_t",
   "size" : 4,
   "source_file" : "/system/core/libsystem/include/system/graphics-base-v1.2.h",
   "underlying_type" : "_ZTIj"
  },
  {
   "alignment" : 4,
   "enum_fields" :
   [
    {
     "enum_field_value" : 0,
     "name" : "OMX_AUDIO_AMRBandModeUnused"
    },
    {
     "enum_field_value" : 1,
     "name" : "OMX_AUDIO_AMRBandModeNB0"
    },
    {
     "enum_field_value" : 2,
     "name" : "OMX_AUDIO_AMRBandModeNB1"
    },
    {
     "enum_field_value" : 3,
     "name" : "OMX_AUDIO_AMRBandModeNB2"
    },
    {
     "enum_field_value" : 4,
     "name" : "OMX_AUDIO_AMRBandModeNB3"
    },
    {
     "enum_field_value" : 5,
     "name" : "OMX_AUDIO_AMRBandModeNB4"
    },
    {
     "enum_field_value" : 6,
     "name" : "OMX_AUDIO_AMRBandModeNB5"
    },
    {
     "enum_field_value" : 7,
     "name" : "OMX_AUDIO_AMRBandModeNB6"
    },
    {
     "enum_field_value" : 8,
     "name" : "OMX_AUDIO_AMRBandModeNB7"
    },
    {
     "enum_field_value" : 9,
     "name" : "OMX_AUDIO_AMRBandModeWB0"
    },
    {
     "enum_field_value" : 10,
     "name" : "OMX_AUDIO_AMRBandModeWB1"
    },
    {
     "enum_field_value" : 11,
     "name" : "OMX_AUDIO_AMRBandModeWB2"
    },
    {
     "enum_field_value" : 12,
     "name" : "OMX_AUDIO_AMRBandModeWB3"
    },
    {
     "enum_field_value" : 13,
     "name" : "OMX_AUDIO_AMRBandModeWB4"
    },
    {
     "enum_field_value" : 14,
     "name" : "OMX_AUDIO_AMRBandModeWB5"
    },
    {
     "enum_field_value" : 15,
     "name" : "OMX_AUDIO_AMRBandModeWB6"
    },
    {
     "enum_field_value" : 16,
     "name" : "OMX_AUDIO_AMRBandModeWB7"
    },
    {
     "enum_field_value" : 17,
     "name" : "OMX_AUDIO_AMRBandModeWB8"
    },
    {
     "enum_field_value" : 1862270976,
     "name" : "OMX_AUDIO_AMRBandModeKhronosExtensions"
    },
    {
     "enum_field_value" : 2130706432,
     "name" : "OMX_AUDIO_AMRBandModeVendorStartUnused"
    },
    {
     "enum_field_value" : 2147483647,
     "name" : "OMX_AUDIO_AMRBandModeMax"
    }
   ],
   "linker_set_key" : "_ZTI25OMX_AUDIO_AMRBANDMODETYPE",
   "name" : "OMX_AUDIO_AMRBANDMODETYPE",
   "referenced_type" : "_ZTI25OMX_AUDIO_AMRBANDMODETYPE",
   "self_type" : "_ZTI25OMX_AUDIO_AMRBANDMODETYPE",
   "size" : 4,
   "source_file" : "/frameworks/native/headers/media_plugin/media/openmax/OMX_Audio.h",
   "underlying_type" : "_ZTIj"
  },
  {
   "alignment" : 4,
   "enum_fields" :
   [
    {
     "enum_field_value" : 0,
     "name" : "OMX_AUDIO_ChannelModeStereo"
    },
    {
     "enum_field_value" : 1,
     "name" : "OMX_AUDIO_ChannelModeJointStereo"
    },
    {
     "enum_field_value" : 2,
     "name" : "OMX_AUDIO_ChannelModeDual"
    },
    {
     "enum_field_value" : 3,
     "name" : "OMX_AUDIO_ChannelModeMono"
    },
    {
     "enum_field_value" : 1862270976,
     "name" : "OMX_AUDIO_ChannelModeKhronosExtensions"
    },
    {
     "enum_field_value" : 2130706432,
     "name" : "OMX_AUDIO_ChannelModeVendorStartUnused"
    },
    {
     "enum_field_value" : 2147483647,
     "name" : "OMX_AUDIO_ChannelModeMax"
    }
   ],
   "linker_set_key" : "_ZTI25OMX_AUDIO_CHANNELMODETYPE",
   "name" : "OMX_AUDIO_CHANNELMODETYPE",
   "referenced_type" : "_ZTI25OMX_AUDIO_CHANNELMODETYPE",
   "self_type" : "_ZTI25OMX_AUDIO_CHANNELMODETYPE",
   "size" : 4,
   "source_file" : "/frameworks/native/headers/media_plugin/media/openmax/OMX_Audio.h",
   "underlying_type" : "_ZTIj"
  },
  {
   "alignment" : 4,
   "enum_fields" :
   [
    {
     "enum_field_value" : 0,
     "name" : "OMX_Video_ControlRateDisable"
    },
    {
     "enum_field_value" : 1,
     "name" : "OMX_Video_ControlRateVariable"
    },
    {
     "enum_field_value" : 2,
     "name" : "OMX_Video_ControlRateConstant"
    },
    {
     "enum_field_value" : 3,
     "name" : "OMX_Video_ControlRateVariableSkipFrames"
    },
    {
     "enum_field_value" : 4,
     "name" : "OMX_Video_ControlRateConstantSkipFrames"
    },
    {
     "enum_field_value" : 5,
     "name" : "OMX_Video_ControlRateConstantQuality"
    },
    {
     "enum_field_value" : 1862270976,
     "name" : "OMX_Video_ControlRateKhronosExtensions"
    },
    {
     "enum_field_value" : 2130706432,
     "name" : "OMX_Video_ControlRateVendorStartUnused"
    },
    {
     "enum_field_value" : 2147483647,
     "name" : "OMX_Video_ControlRateMax"
    }
   ],
   "linker_set_key" : "_ZTI25OMX_VIDEO_CONTROLRATETYPE",
   "name" : "OMX_VIDEO_CONTROLRATETYPE",
   "referenced_type" : "_ZTI25OMX_VIDEO_CONTROLRATETYPE",
   "self_type" : "_ZTI25OMX_VIDEO_CONTROLRATETYPE",
   "size" : 4,
   "source_file" : "/frameworks/native/headers/media_plugin/media/openmax/OMX_Video.h",
   "underlying_type" : "_ZTIj"
  },
  {
   "alignment" : 4,
   "enum_fields" :
   [
    {
     "enum_field_value" : 1,
     "name" : "OMX_VIDEO_H263ProfileBaseline"
    },
    {
     "enum_field_value" : 2,
     "name" : "OMX_VIDEO_H263ProfileH320Coding"
    },
    {
     "enum_field_value" : 4,
     "name" : "OMX_VIDEO_H263ProfileBackwardCompatible"
    },
    {
     "enum_field_value" : 8,
     "name" : "OMX_VIDEO_H263ProfileISWV2"
    },
    {
     "enum_field_value" : 16,
     "name" : "OMX_VIDEO_H263ProfileISWV3"
    },
    {
     "enum_field_value" : 32,
     "name" : "OMX_VIDEO_H263ProfileHighCompression"
    },
    {
     "enum_field_value" : 64,
     "name" : "OMX_VIDEO_H263ProfileInternet"
    },
    {
     "enum_field_value" : 128,
     "name" : "OMX_VIDEO_H263ProfileInterlace"
    },
    {
     "enum_field_value" : 256,
     "name" : "OMX_VIDEO_H263ProfileHighLatency"
    },
    {
     "enum_field_value" : 1862270976,
     "name" : "OMX_VIDEO_H263ProfileKhronosExtensions"
    },
    {
     "enum_field_value" : 2130706432,
     "name" : "OMX_VIDEO_H263ProfileVendorStartUnused"
    },
    {
     "enum_field_value" : 2147483647,
     "name" : "OMX_VIDEO_H263ProfileMax"
    }
   ],
   "linker_set_key" : "_ZTI25OMX_VIDEO_H263PROFILETYPE",
   "name" : "OMX_VIDEO_H263PROFILETYPE",
   "referenced_type" : "_ZTI25OMX_VIDEO_H263PROFILETYPE",
   "self_type" : "_ZTI25OMX_VIDEO_H263PROFILETYPE",
   "size" : 4,
   "source_file" : "/frameworks/native/headers/media_plugin/media/openmax/OMX_Video.h",
   "underlying_type" : "_ZTIj"
  },
  {
   "alignment" : 4,
   "enum_fields" :
   [
    {
     "enum_field_value" : 0,
     "name" : "OMX_VIDEO_HEVCProfileUnknown"
    },
    {
     "enum_field_value" : 1,
     "name" : "OMX_VIDEO_HEVCProfileMain"
    },
    {
     "enum_field_value" : 2,
     "name" : "OMX_VIDEO_HEVCProfileMain10"
    },
    {
     "enum_field_value" : 4,
     "name" : "OMX_VIDEO_HEVCProfileMainStill"
    },
    {
     "enum_field_value" : 4096,
     "name" : "OMX_VIDEO_HEVCProfileMain10HDR10"
    },
    {
     "enum_field_value" : 8192,
     "name" : "OMX_VIDEO_HEVCProfileMain10HDR10Plus"
    },
    {
     "enum_field_value" : 2147483647,
     "name" : "OMX_VIDEO_HEVCProfileMax"
    }
   ],
   "linker_set_key" : "_ZTI25OMX_VIDEO_HEVCPROFILETYPE",
   "name" : "OMX_VIDEO_HEVCPROFILETYPE",
   "referenced_type" : "_ZTI25OMX_VIDEO_HEVCPROFILETYPE",
   "self_type" : "_ZTI25OMX_VIDEO_HEVCPROFILETYPE",
   "size" : 4,
   "source_file" : "/frameworks/native/headers/media_plugin/media/openmax/OMX_VideoExt.h",
   "underlying_type" : "_ZTIj"
  },
  {
   "alignment" : 4,
   "enum_fields" :
   [
    {
     "enum_field_value" : 10,
     "name" : "HAL_COLOR_MODE_BT2020"
    },
    {
     "enum_field_value" : 11,
     "name" : "HAL_COLOR_MODE_BT2100_PQ"
    },
    {
     "enum_field_value" : 12,
     "name" : "HAL_COLOR_MODE_BT2100_HLG"
    }
   ],
   "linker_set_key" : "_ZTI25android_color_mode_v1_1_t",
   "name" : "android_color_mode_v1_1_t",
   "referenced_type" : "_ZTI25android_color_mode_v1_1_t",
   "self_type" : "_ZTI25android_color_mode_v1_1_t",
   "size" : 4,
   "source_file" : "/system/core/libsystem/include/system/graphics-base-v1.1.h",
   "underlying_type" : "_ZTIj"
  },
  {
   "alignment" : 4,
   "enum_fields" :
   [
    {
     "enum_field_value" : 0,
     "name" : "HAL_COLOR_TRANSFORM_IDENTITY"
    },
    {
     "enum_field_value" : 1,
     "name" : "HAL_COLOR_TRANSFORM_ARBITRARY_MATRIX"
    },
    {
     "enum_field_value" : 2,
     "name" : "HAL_COLOR_TRANSFORM_VALUE_INVERSE"
    },
    {
     "enum_field_value" : 3,
     "name" : "HAL_COLOR_TRANSFORM_GRAYSCALE"
    },
    {
     "enum_field_value" : 4,
     "name" : "HAL_COLOR_TRANSFORM_CORRECT_PROTANOPIA"
    },
    {
     "enum_field_value" : 5,
     "name" : "HAL_COLOR_TRANSFORM_CORRECT_DEUTERANOPIA"
    },
    {
     "enum_field_value" : 6,
     "name" : "HAL_COLOR_TRANSFORM_CORRECT_TRITANOPIA"
    }
   ],
   "linker_set_key" : "_ZTI25android_color_transform_t",
   "name" : "android_color_transform_t",
   "referenced_type" : "_ZTI25android_color_transform_t",
   "self_type" : "_ZTI25android_color_transform_t",
   "size" : 4,
   "source_file" : "/system/core/libsystem/include/system/graphics-base-v1.0.h",
   "underlying_type" : "_ZTIj"
  },
  {
   "alignment" : 4,
   "enum_fields" :
   [
    {
     "enum_field_value" : 39,
     "name" : "HAL_PIXEL_FORMAT_YCBCR_422_888"
    },
    {
     "enum_field_value" : 40,
     "name" : "HAL_PIXEL_FORMAT_YCBCR_444_888"
    },
    {
     "enum_field_value" : 41,
     "name" : "HAL_PIXEL_FORMAT_FLEX_RGB_888"
    },
    {
     "enum_field_value" : 42,
     "name" : "HAL_PIXEL_FORMAT_FLEX_RGBA_8888"
    }
   ],
   "linker_set_key" : "_ZTI25android_pixel_format_sw_t",
   "name" : "android_pixel_format_sw_t",
   "referenced_type" : "_ZTI25android_pixel_format_sw_t",
   "self_type" : "_ZTI25android_pixel_format_sw_t",
   "size" : 4,
   "source_file" : "/system/core/libsystem/include/system/graphics-sw.h",
   "underlying_type" : "_ZTIj"
  },
  {
   "alignment" : 4,
   "enum_fields" :
   [
    {
     "enum_field_value" : 0,
     "name" : "OMX_IMAGE_FlashControlOn"
    },
    {
     "enum_field_value" : 1,
     "name" : "OMX_IMAGE_FlashControlOff"
    },
    {
     "enum_field_value" : 2,
     "name" : "OMX_IMAGE_FlashControlAuto"
    },
    {
     "enum_field_value" : 3,
     "name" : "OMX_IMAGE_FlashControlRedEyeReduction"
    },
    {
     "enum_field_value" : 4,
     "name" : "OMX_IMAGE_FlashControlFillin"
    },
    {
     "enum_field_value" : 5,
     "name" : "OMX_IMAGE_FlashControlTorch"
    },
    {
     "enum_field_value" : 1862270976,
     "name" : "OMX_IMAGE_FlashControlKhronosExtensions"
    },
    {
     "enum_field_value" : 2130706432,
     "name" : "OMX_IMAGE_FlashControlVendorStartUnused"
    },
    {
     "enum_field_value" : 2147483647,
     "name" : "OMX_IMAGE_FlashControlMax"
    }
   ],
   "linker_set_key" : "_ZTI26OMX_IMAGE_FLASHCONTROLTYPE",
   "name" : "OMX_IMAGE_FLASHCONTROLTYPE",
   "referenced_type" : "_ZTI26OMX_IMAGE_FLASHCONTROLTYPE",
   "self_type" : "_ZTI26OMX_IMAGE_FLASHCONTROLTYPE",
   "size" : 4,
   "source_file" : "/frameworks/native/headers/media_plugin/media/openmax/OMX_Image.h",
   "underlying_type" : "_ZTIj"
  },
  {
   "alignment" : 4,
   "enum_fields" :
   [
    {
     "enum_field_value" : 0,
     "name" : "OMX_IMAGE_FocusControlOn"
    },
    {
     "enum_field_value" : 1,
     "name" : "OMX_IMAGE_FocusControlOff"
    },
    {
     "enum_field_value" : 2,
     "name" : "OMX_IMAGE_FocusControlAuto"
    },
    {
     "enum_field_value" : 3,
     "name" : "OMX_IMAGE_FocusControlAutoLock"
    },
    {
     "enum_field_value" : 1862270976,
     "name" : "OMX_IMAGE_FocusControlKhronosExtensions"
    },
    {
     "enum_field_value" : 2130706432,
     "name" : "OMX_IMAGE_FocusControlVendorStartUnused"
    },
    {
     "enum_field_value" : 2147483647,
     "name" : "OMX_IMAGE_FocusControlMax"
    }
   ],
   "linker_set_key" : "_ZTI26OMX_IMAGE_FOCUSCONTROLTYPE",
   "name" : "OMX_IMAGE_FOCUSCONTROLTYPE",
   "referenced_type" : "_ZTI26OMX_IMAGE_FOCUSCONTROLTYPE",
   "self_type" : "_ZTI26OMX_IMAGE_FOCUSCONTROLTYPE",
   "size" : 4,
   "source_file" : "/frameworks/native/headers/media_plugin/media/openmax/OMX_Image.h",
   "underlying_type" : "_ZTIj"
  },
  {
   "alignment" : 4,
   "enum_fields" :
   [
    {
     "enum_field_value" : 0,
     "name" : "OMX_IMAGE_HuffmanTableAC"
    },
    {
     "enum_field_value" : 1,
     "name" : "OMX_IMAGE_HuffmanTableDC"
    },
    {
     "enum_field_value" : 2,
     "name" : "OMX_IMAGE_HuffmanTableACLuma"
    },
    {
     "enum_field_value" : 3,
     "name" : "OMX_IMAGE_HuffmanTableACChroma"
    },
    {
     "enum_field_value" : 4,
     "name" : "OMX_IMAGE_HuffmanTableDCLuma"
    },
    {
     "enum_field_value" : 5,
     "name" : "OMX_IMAGE_HuffmanTableDCChroma"
    },
    {
     "enum_field_value" : 1862270976,
     "name" : "OMX_IMAGE_HuffmanTableKhronosExtensions"
    },
    {
     "enum_field_value" : 2130706432,
     "name" : "OMX_IMAGE_HuffmanTableVendorStartUnused"
    },
    {
     "enum_field_value" : 2147483647,
     "name" : "OMX_IMAGE_HuffmanTableMax"
    }
   ],
   "linker_set_key" : "_ZTI26OMX_IMAGE_HUFFMANTABLETYPE",
   "name" : "OMX_IMAGE_HUFFMANTABLETYPE",
   "referenced_type" : "_ZTI26OMX_IMAGE_HUFFMANTABLETYPE",
   "self_type" : "_ZTI26OMX_IMAGE_HUFFMANTABLETYPE",
   "size" : 4,
   "source_file" : "/frameworks/native/headers/media_plugin/media/openmax/OMX_Image.h",
   "underlying_type" : "_ZTIj"
  },
  {
   "alignment" : 4,
   "enum_fields" :
   [
    {
     "enum_field_value" : 0,
     "name" : "OMX_MetadataSearchValueSizeByIndex"
    },
    {
     "enum_field_value" : 1,
     "name" : "OMX_MetadataSearchItemByIndex"
    },
    {
     "enum_field_value" : 2,
     "name" : "OMX_MetadataSearchNextItemByKey"
    },
    {
     "enum_field_value" : 1862270976,
     "name" : "OMX_MetadataSearchKhronosExtensions"
    },
    {
     "enum_field_value" : 2130706432,
     "name" : "OMX_MetadataSearchVendorStartUnused"
    },
    {
     "enum_field_value" : 2147483647,
     "name" : "OMX_MetadataSearchTypeMax"
    }
   ],
   "linker_set_key" : "_ZTI26OMX_METADATASEARCHMODETYPE",
   "name" : "OMX_METADATASEARCHMODETYPE",
   "referenced_type" : "_ZTI26OMX_METADATASEARCHMODETYPE",
   "self_type" : "_ZTI26OMX_METADATASEARCHMODETYPE",
   "size" : 4,
   "source_file" : "/frameworks/native/headers/media_plugin/media/openmax/OMX_Component.h",
   "underlying_type" : "_ZTIj"
  },
  {
   "alignment" : 4,
   "enum_fields" :
   [
    {
     "enum_field_value" : 0,
     "name" : "OMX_VIDEO_SLICEMODE_AVCDefault"
    },
    {
     "enum_field_value" : 1,
     "name" : "OMX_VIDEO_SLICEMODE_AVCMBSlice"
    },
    {
     "enum_field_value" : 2,
     "name" : "OMX_VIDEO_SLICEMODE_AVCByteSlice"
    },
    {
     "enum_field_value" : 1862270976,
     "name" : "OMX_VIDEO_SLICEMODE_AVCKhronosExtensions"
    },
    {
     "enum_field_value" : 2130706432,
     "name" : "OMX_VIDEO_SLICEMODE_AVCVendorStartUnused"
    },
    {
     "enum_field_value" : 2147483647,
     "name" : "OMX_VIDEO_SLICEMODE_AVCLevelMax"
    }
   ],
   "linker_set_key" : "_ZTI26OMX_VIDEO_AVCSLICEMODETYPE",
   "name" : "OMX_VIDEO_AVCSLICEMODETYPE",
   "referenced_type" : "_ZTI26OMX_VIDEO_AVCSLICEMODETYPE",
   "self_type" : "_ZTI26OMX_VIDEO_AVCSLICEMODETYPE",
   "size" : 4,
   "source_file" : "/frameworks/native/headers/media_plugin/media/openmax/OMX_Video.h",
   "underlying_type" : "_ZTIj"
  },
  {
   "alignment" : 4,
   "enum_fields" :
   [
    {
     "enum_field_value" : 0,
     "name" : "OMX_VIDEO_IntraRefreshCyclic"
    },
    {
     "enum_field_value" : 1,
     "name" : "OMX_VIDEO_IntraRefreshAdaptive"
    },
    {
     "enum_field_value" : 2,
     "name" : "OMX_VIDEO_IntraRefreshBoth"
    },
    {
     "enum_field_value" : 1862270976,
     "name" : "OMX_VIDEO_IntraRefreshKhronosExtensions"
    },
    {
     "enum_field_value" : 2130706432,
     "name" : "OMX_VIDEO_IntraRefreshVendorStartUnused"
    },
    {
     "enum_field_value" : 2147483647,
     "name" : "OMX_VIDEO_IntraRefreshMax"
    }
   ],
   "linker_set_key" : "_ZTI26OMX_VIDEO_INTRAREFRESHTYPE",
   "name" : "OMX_VIDEO_INTRAREFRESHTYPE",
   "referenced_type" : "_ZTI26OMX_VIDEO_INTRAREFRESHTYPE",
   "self_type" : "_ZTI26OMX_VIDEO_INTRAREFRESHTYPE",
   "size" : 4,
   "source_file" : "/frameworks/native/headers/media_plugin/media/openmax/OMX_Video.h",
   "underlying_type" : "_ZTIj"
  },
  {
   "alignment" : 4,
   "enum_fields" :
   [
    {
     "enum_field_value" : 0,
     "name" : "OMX_Video_MotionVectorPixel"
    },
    {
     "enum_field_value" : 1,
     "name" : "OMX_Video_MotionVectorHalfPel"
    },
    {
     "enum_field_value" : 2,
     "name" : "OMX_Video_MotionVectorQuarterPel"
    },
    {
     "enum_field_value" : 3,
     "name" : "OMX_Video_MotionVectorEighthPel"
    },
    {
     "enum_field_value" : 1862270976,
     "name" : "OMX_Video_MotionVectorKhronosExtensions"
    },
    {
     "enum_field_value" : 2130706432,
     "name" : "OMX_Video_MotionVectorVendorStartUnused"
    },
    {
     "enum_field_value" : 2147483647,
     "name" : "OMX_Video_MotionVectorMax"
    }
   ],
   "linker_set_key" : "_ZTI26OMX_VIDEO_MOTIONVECTORTYPE",
   "name" : "OMX_VIDEO_MOTIONVECTORTYPE",
   "referenced_type" : "_ZTI26OMX_VIDEO_MOTIONVECTORTYPE",
   "self_type" : "_ZTI26OMX_VIDEO_MOTIONVECTORTYPE",
   "size" : 4,
   "source_file" : "/frameworks/native/headers/media_plugin/media/openmax/OMX_Video.h",
   "underlying_type" : "_ZTIj"
  },
  {
   "alignment" : 4,
   "enum_fields" :
   [
    {
     "enum_field_value" : 0,
     "name" : "OMX_VIDEO_MPEG2ProfileSimple"
    },
    {
     "enum_field_value" : 1,
     "name" : "OMX_VIDEO_MPEG2ProfileMain"
    },
    {
     "enum_field_value" : 2,
     "name" : "OMX_VIDEO_MPEG2Profile422"
    },
    {
     "enum_field_value" : 3,
     "name" : "OMX_VIDEO_MPEG2ProfileSNR"
    },
    {
     "enum_field_value" : 4,
     "name" : "OMX_VIDEO_MPEG2ProfileSpatial"
    },
    {
     "enum_field_value" : 5,
     "name" : "OMX_VIDEO_MPEG2ProfileHigh"
    },
    {
     "enum_field_value" : 1862270976,
     "name" : "OMX_VIDEO_MPEG2ProfileKhronosExtensions"
    },
    {
     "enum_field_value" : 2130706432,
     "name" : "OMX_VIDEO_MPEG2ProfileVendorStartUnused"
    },
    {
     "enum_field_value" : 2147483647,
     "name" : "OMX_VIDEO_MPEG2ProfileMax"
    }
   ],
   "linker_set_key" : "_ZTI26OMX_VIDEO_MPEG2PROFILETYPE",
   "name" : "OMX_VIDEO_MPEG2PROFILETYPE",
   "referenced_type" : "_ZTI26OMX_VIDEO_MPEG2PROFILETYPE",
   "self_type" : "_ZTI26OMX_VIDEO_MPEG2PROFILETYPE",
   "size" : 4,
   "source_file" : "/frameworks/native/headers/media_plugin/media/openmax/OMX_Video.h",
   "underlying_type" : "_ZTIj"
  },
  {
   "alignment" : 4,
   "enum_fields" :
   [
    {
     "enum_field_value" : 1,
     "name" : "OMX_VIDEO_MPEG4ProfileSimple"
    },
    {
     "enum_field_value" : 2,
     "name" : "OMX_VIDEO_MPEG4ProfileSimpleScalable"
    },
    {
     "enum_field_value" : 4,
     "name" : "OMX_VIDEO_MPEG4ProfileCore"
    },
    {
     "enum_field_value" : 8,
     "name" : "OMX_VIDEO_MPEG4ProfileMain"
    },
    {
     "enum_field_value" : 16,
     "name" : "OMX_VIDEO_MPEG4ProfileNbit"
    },
    {
     "enum_field_value" : 32,
     "name" : "OMX_VIDEO_MPEG4ProfileScalableTexture"
    },
    {
     "enum_field_value" : 64,
     "name" : "OMX_VIDEO_MPEG4ProfileSimpleFace"
    },
    {
     "enum_field_value" : 128,
     "name" : "OMX_VIDEO_MPEG4ProfileSimpleFBA"
    },
    {
     "enum_field_value" : 256,
     "name" : "OMX_VIDEO_MPEG4ProfileBasicAnimated"
    },
    {
     "enum_field_value" : 512,
     "name" : "OMX_VIDEO_MPEG4ProfileHybrid"
    },
    {
     "enum_field_value" : 1024,
     "name" : "OMX_VIDEO_MPEG4ProfileAdvancedRealTime"
    },
    {
     "enum_field_value" : 2048,
     "name" : "OMX_VIDEO_MPEG4ProfileCoreScalable"
    },
    {
     "enum_field_value" : 4096,
     "name" : "OMX_VIDEO_MPEG4ProfileAdvancedCoding"
    },
    {
     "enum_field_value" : 8192,
     "name" : "OMX_VIDEO_MPEG4ProfileAdvancedCore"
    },
    {
     "enum_field_value" : 16384,
     "name" : "OMX_VIDEO_MPEG4ProfileAdvancedScalable"
    },
    {
     "enum_field_value" : 32768,
     "name" : "OMX_VIDEO_MPEG4ProfileAdvancedSimple"
    },
    {
     "enum_field_value" : 1862270976,
     "name" : "OMX_VIDEO_MPEG4ProfileKhronosExtensions"
    },
    {
     "enum_field_value" : 2130706432,
     "name" : "OMX_VIDEO_MPEG4ProfileVendorStartUnused"
    },
    {
     "enum_field_value" : 2147483647,
     "name" : "OMX_VIDEO_MPEG4ProfileMax"
    }
   ],
   "linker_set_key" : "_ZTI26OMX_VIDEO_MPEG4PROFILETYPE",
   "name" : "OMX_VIDEO_MPEG4PROFILETYPE",
   "referenced_type" : "_ZTI26OMX_VIDEO_MPEG4PROFILETYPE",
   "self_type" : "_ZTI26OMX_VIDEO_MPEG4PROFILETYPE",
   "size" : 4,
   "source_file" : "/frameworks/native/headers/media_plugin/media/openmax/OMX_Video.h",
   "underlying_type" : "_ZTIj"
  },
  {
   "alignment" : 4,
   "enum_fields" :
   [
    {
     "enum_field_value" : 0,
     "name" : "OMX_AUDIO_MIDISoundBankUnused"
    },
    {
     "enum_field_value" : 1,
     "name" : "OMX_AUDIO_MIDISoundBankDLS1"
    },
    {
     "enum_field_value" : 2,
     "name" : "OMX_AUDIO_MIDISoundBankDLS2"
    },
    {
     "enum_field_value" : 3,
     "name" : "OMX_AUDIO_MIDISoundBankMobileDLSBase"
    },
    {
     "enum_field_value" : 4,
     "name" : "OMX_AUDIO_MIDISoundBankMobileDLSPlusOptions"
    },
    {
     "enum_field_value" : 1862270976,
     "name" : "OMX_AUDIO_MIDISoundBankKhronosExtensions"
    },
    {
     "enum_field_value" : 2130706432,
     "name" : "OMX_AUDIO_MIDISoundBankVendorStartUnused"
    },
    {
     "enum_field_value" : 2147483647,
     "name" : "OMX_AUDIO_MIDISoundBankMax"
    }
   ],
   "linker_set_key" : "_ZTI27OMX_AUDIO_MIDISOUNDBANKTYPE",
   "name" : "OMX_AUDIO_MIDISOUNDBANKTYPE",
   "referenced_type" : "_ZTI27OMX_AUDIO_MIDISOUNDBANKTYPE",
   "self_type" : "_ZTI27OMX_AUDIO_MIDISOUNDBANKTYPE",
   "size" : 4,
   "source_file" : "/frameworks/native/headers/media_plugin/media/openmax/OMX_Audio.h",
   "underlying_type" : "_ZTIj"
  },
  {
   "alignment" : 4,
   "enum_fields" :
   [
    {
     "enum_field_value" : 0,
     "name" : "OMX_VIDEO_AVCLoopFilterEnable"
    },
    {
     "enum_field_value" : 1,
     "name" : "OMX_VIDEO_AVCLoopFilterDisable"
    },
    {
     "enum_field_value" : 2,
     "name" : "OMX_VIDEO_AVCLoopFilterDisableSliceBoundary"
    },
    {
     "enum_field_value" : 1862270976,
     "name" : "OMX_VIDEO_AVCLoopFilterKhronosExtensions"
    },
    {
     "enum_field_value" : 2130706432,
     "name" : "OMX_VIDEO_AVCLoopFilterVendorStartUnused"
    },
    {
     "enum_field_value" : 2147483647,
     "name" : "OMX_VIDEO_AVCLoopFilterMax"
    }
   ],
   "linker_set_key" : "_ZTI27OMX_VIDEO_AVCLOOPFILTERTYPE",
   "name" : "OMX_VIDEO_AVCLOOPFILTERTYPE",
   "referenced_type" : "_ZTI27OMX_VIDEO_AVCLOOPFILTERTYPE",
   "self_type" : "_ZTI27OMX_VIDEO_AVCLOOPFILTERTYPE",
   "size" : 4,
   "source_file" : "/frameworks/native/headers/media_plugin/media/openmax/OMX_Video.h",
   "underlying_type" : "_ZTIj"
  },
  {
   "alignment" : 4,
   "enum_fields" :
   [
    {
     "enum_field_value" : 65536,
     "name" : "OMX_VIDEO_AVCProfileConstrainedBaseline"
    },
    {
     "enum_field_value" : 524288,
     "name" : "OMX_VIDEO_AVCProfileConstrainedHigh"
    }
   ],
   "linker_set_key" : "_ZTI27OMX_VIDEO_AVCPROFILEEXTTYPE",
   "name" : "OMX_VIDEO_AVCPROFILEEXTTYPE",
   "referenced_type" : "_ZTI27OMX_VIDEO_AVCPROFILEEXTTYPE",
   "self_type" : "_ZTI27OMX_VIDEO_AVCPROFILEEXTTYPE",
   "size" : 4,
   "source_file" : "/frameworks/native/headers/media_plugin/media/openmax/OMX_VideoExt.h",
   "underlying_type" : "_ZTIj"
  },
  {
   "alignment" : 4,
   "enum_fields" :
   [
    {
     "enum_field_value" : 48,
     "name" : "HAL_PIXEL_FORMAT_DEPTH_16"
    },
    {
     "enum_field_value" : 49,
     "name" : "HAL_PIXEL_FORMAT_DEPTH_24"
    },
    {
     "enum_field_value" : 50,
     "name" : "HAL_PIXEL_FORMAT_DEPTH_24_STENCIL_8"
    },
    {
     "enum_field_value" : 51,
     "name" : "HAL_PIXEL_FORMAT_DEPTH_32F"
    },
    {
     "enum_field_value" : 52,
     "name" : "HAL_PIXEL_FORMAT_DEPTH_32F_STENCIL_8"
    },
    {
     "enum_field_value" : 53,
     "name" : "HAL_PIXEL_FORMAT_STENCIL_8"
    },
    {
     "enum_field_value" : 54,
     "name" : "HAL_PIXEL_FORMAT_YCBCR_P010"
    }
   ],
   "linker_set_key" : "_ZTI27android_pixel_format_v1_1_t",
   "name" : "android_pixel_format_v1_1_t",
   "referenced_type" : "_ZTI27android_pixel_format_v1_1_t",
   "self_type" : "_ZTI27android_pixel_format_v1_1_t",
   "size" : 4,
   "source_file" : "/system/core/libsystem/include/system/graphics-base-v1.1.h",
   "underlying_type" : "_ZTIj"
  },
  {
   "alignment" : 4,
   "enum_fields" :
   [
    {
     "enum_field_value" : 55,
     "name" : "HAL_PIXEL_FORMAT_HSV_888"
    }
   ],
   "linker_set_key" : "_ZTI27android_pixel_format_v1_2_t",
   "name" : "android_pixel_format_v1_2_t",
   "referenced_type" : "_ZTI27android_pixel_format_v1_2_t",
   "self_type" : "_ZTI27android_pixel_format_v1_2_t",
   "size" : 4,
   "source_file" : "/system/core/libsystem/include/system/graphics-base-v1.2.h",
   "underlying_type" : "_ZTIj"
  },
  {
   "alignment" : 4,
   "enum_fields" :
   [
    {
     "enum_field_value" : 0,
     "name" : "OMX_AndroidVendorValueInt32"
    },
    {
     "enum_field_value" : 1,
     "name" : "OMX_AndroidVendorValueInt64"
    },
    {
     "enum_field_value" : 2,
     "name" : "OMX_AndroidVendorValueString"
    },
    {
     "enum_field_value" : 3,
     "name" : "OMX_AndroidVendorValueEndUnused"
    }
   ],
   "linker_set_key" : "_ZTI28OMX_ANDROID_VENDOR_VALUETYPE",
   "name" : "OMX_ANDROID_VENDOR_VALUETYPE",
   "referenced_type" : "_ZTI28OMX_ANDROID_VENDOR_VALUETYPE",
   "self_type" : "_ZTI28OMX_ANDROID_VENDOR_VALUETYPE",
   "size" : 4,
   "source_file" : "/frameworks/native/headers/media_plugin/media/openmax/OMX_IndexExt.h",
   "underlying_type" : "_ZTIj"
  },
  {
   "alignment" : 4,
   "enum_fields" :
   [
    {
     "enum_field_value" : 0,
     "name" : "OMX_AUDIO_AMRFrameFormatConformance"
    },
    {
     "enum_field_value" : 1,
     "name" : "OMX_AUDIO_AMRFrameFormatIF1"
    },
    {
     "enum_field_value" : 2,
     "name" : "OMX_AUDIO_AMRFrameFormatIF2"
    },
    {
     "enum_field_value" : 3,
     "name" : "OMX_AUDIO_AMRFrameFormatFSF"
    },
    {
     "enum_field_value" : 4,
     "name" : "OMX_AUDIO_AMRFrameFormatRTPPayload"
    },
    {
     "enum_field_value" : 5,
     "name" : "OMX_AUDIO_AMRFrameFormatITU"
    },
    {
     "enum_field_value" : 1862270976,
     "name" : "OMX_AUDIO_AMRFrameFormatKhronosExtensions"
    },
    {
     "enum_field_value" : 2130706432,
     "name" : "OMX_AUDIO_AMRFrameFormatVendorStartUnused"
    },
    {
     "enum_field_value" : 2147483647,
     "name" : "OMX_AUDIO_AMRFrameFormatMax"
    }
   ],
   "linker_set_key" : "_ZTI28OMX_AUDIO_AMRFRAMEFORMATTYPE",
   "name" : "OMX_AUDIO_AMRFRAMEFORMATTYPE",
   "referenced_type" : "_ZTI28OMX_AUDIO_AMRFRAMEFORMATTYPE",
   "self_type" : "_ZTI28OMX_AUDIO_AMRFRAMEFORMATTYPE",
   "size" : 4,
   "source_file" : "/frameworks/native/headers/media_plugin/media/openmax/OMX_Audio.h",
   "underlying_type" : "_ZTIj"
  },
  {
   "alignment" : 4,
   "enum_fields" :
   [
    {
     "enum_field_value" : 0,
     "name" : "OMX_AUDIO_SBCAllocMethodLoudness"
    },
    {
     "enum_field_value" : 1,
     "name" : "OMX_AUDIO_SBCAllocMethodSNR"
    },
    {
     "enum_field_value" : 1862270976,
     "name" : "OMX_AUDIO_SBCAllocMethodKhronosExtensions"
    },
    {
     "enum_field_value" : 2130706432,
     "name" : "OMX_AUDIO_SBCAllocMethodVendorStartUnused"
    },
    {
     "enum_field_value" : 2147483647,
     "name" : "OMX_AUDIO_SBCAllocMethodMax"
    }
   ],
   "linker_set_key" : "_ZTI28OMX_AUDIO_SBCALLOCMETHODTYPE",
   "name" : "OMX_AUDIO_SBCALLOCMETHODTYPE",
   "referenced_type" : "_ZTI28OMX_AUDIO_SBCALLOCMETHODTYPE",
   "self_type" : "_ZTI28OMX_AUDIO_SBCALLOCMETHODTYPE",
   "size" : 4,
   "source_file" : "/frameworks/native/headers/media_plugin/media/openmax/OMX_Audio.h",
   "underlying_type" : "_ZTIj"
  },
  {
   "alignment" : 4,
   "enum_fields" :
   [
    {
     "enum_field_value" : 0,
     "name" : "OMX_AUDIO_StereoWideningHeadphones"
    },
    {
     "enum_field_value" : 1,
     "name" : "OMX_AUDIO_StereoWideningLoudspeakers"
    },
    {
     "enum_field_value" : 1862270976,
     "name" : "OMX_AUDIO_StereoWideningKhronosExtensions"
    },
    {
     "enum_field_value" : 2130706432,
     "name" : "OMX_AUDIO_StereoWideningVendorStartUnused"
    },
    {
     "enum_field_value" : 2147483647,
     "name" : "OMX_AUDIO_StereoWideningMax"
    }
   ],
   "linker_set_key" : "_ZTI28OMX_AUDIO_STEREOWIDENINGTYPE",
   "name" : "OMX_AUDIO_STEREOWIDENINGTYPE",
   "referenced_type" : "_ZTI28OMX_AUDIO_STEREOWIDENINGTYPE",
   "self_type" : "_ZTI28OMX_AUDIO_STEREOWIDENINGTYPE",
   "size" : 4,
   "source_file" : "/frameworks/native/headers/media_plugin/media/openmax/OMX_Audio.h",
   "underlying_type" : "_ZTIj"
  },
  {
   "alignment" : 4,
   "enum_fields" :
   [
    {
     "enum_field_value" : 0,
     "name" : "HAL_RENDER_INTENT_COLORIMETRIC"
    },
    {
     "enum_field_value" : 1,
     "name" : "HAL_RENDER_INTENT_ENHANCE"
    },
    {
     "enum_field_value" : 2,
     "name" : "HAL_RENDER_INTENT_TONE_MAP_COLORIMETRIC"
    },
    {
     "enum_field_value" : 3,
     "name" : "HAL_RENDER_INTENT_TONE_MAP_ENHANCE"
    }
   ],
   "linker_set_key" : "_ZTI28android_render_intent_v1_1_t",
   "name" : "android_render_intent_v1_1_t",
   "referenced_type" : "_ZTI28android_render_intent_v1_1_t",
   "self_type" : "_ZTI28android_render_intent_v1_1_t",
   "size" : 4,
   "source_file" : "/system/core/libsystem/include/system/graphics-base-v1.1.h",
   "underlying_type" : "_ZTIj"
  },
  {
   "alignment" : 4,
   "enum_fields" :
   [
    {
     "enum_field_value" : 0,
     "name" : "OMX_AUDIO_AACStreamFormatMP2ADTS"
    },
    {
     "enum_field_value" : 1,
     "name" : "OMX_AUDIO_AACStreamFormatMP4ADTS"
    },
    {
     "enum_field_value" : 2,
     "name" : "OMX_AUDIO_AACStreamFormatMP4LOAS"
    },
    {
     "enum_field_value" : 3,
     "name" : "OMX_AUDIO_AACStreamFormatMP4LATM"
    },
    {
     "enum_field_value" : 4,
     "name" : "OMX_AUDIO_AACStreamFormatADIF"
    },
    {
     "enum_field_value" : 5,
     "name" : "OMX_AUDIO_AACStreamFormatMP4FF"
    },
    {
     "enum_field_value" : 6,
     "name" : "OMX_AUDIO_AACStreamFormatRAW"
    },
    {
     "enum_field_value" : 1862270976,
     "name" : "OMX_AUDIO_AACStreamFormatKhronosExtensions"
    },
    {
     "enum_field_value" : 2130706432,
     "name" : "OMX_AUDIO_AACStreamFormatVendorStartUnused"
    },
    {
     "enum_field_value" : 2147483647,
     "name" : "OMX_AUDIO_AACStreamFormatMax"
    }
   ],
   "linker_set_key" : "_ZTI29OMX_AUDIO_AACSTREAMFORMATTYPE",
   "name" : "OMX_AUDIO_AACSTREAMFORMATTYPE",
   "referenced_type" : "_ZTI29OMX_AUDIO_AACSTREAMFORMATTYPE",
   "self_type" : "_ZTI29OMX_AUDIO_AACSTREAMFORMATTYPE",
   "size" : 4,
   "source_file" : "/frameworks/native/headers/media_plugin/media/openmax/OMX_Audio.h",
   "underlying_type" : "_ZTIj"
  },
  {
   "alignment" : 4,
   "enum_fields" :
   [
    {
     "enum_field_value" : 0,
     "name" : "OMX_AUDIO_MP3StreamFormatMP1Layer3"
    },
    {
     "enum_field_value" : 1,
     "name" : "OMX_AUDIO_MP3StreamFormatMP2Layer3"
    },
    {
     "enum_field_value" : 2,
     "name" : "OMX_AUDIO_MP3StreamFormatMP2_5Layer3"
    },
    {
     "enum_field_value" : 1862270976,
     "name" : "OMX_AUDIO_MP3StreamFormatKhronosExtensions"
    },
    {
     "enum_field_value" : 2130706432,
     "name" : "OMX_AUDIO_MP3StreamFormatVendorStartUnused"
    },
    {
     "enum_field_value" : 2147483647,
     "name" : "OMX_AUDIO_MP3StreamFormatMax"
    }
   ],
   "linker_set_key" : "_ZTI29OMX_AUDIO_MP3STREAMFORMATTYPE",
   "name" : "OMX_AUDIO_MP3STREAMFORMATTYPE",
   "referenced_type" : "_ZTI29OMX_AUDIO_MP3STREAMFORMATTYPE",
   "self_type" : "_ZTI29OMX_AUDIO_MP3STREAMFORMATTYPE",
   "size" : 4,
   "source_file" : "/frameworks/native/headers/media_plugin/media/openmax/OMX_Audio.h",
   "underlying_type" : "_ZTIj"
  },
  {
   "alignment" : 4,
   "enum_fields" :
   [
    {
     "enum_field_value" : 0,
     "name" : "OMX_DataEncapsulationElementaryStream"
    },
    {
     "enum_field_value" : 1,
     "name" : "OMX_DataEncapsulationGenericPayload"
    },
    {
     "enum_field_value" : 2,
     "name" : "OMX_DataEncapsulationRtpPayload"
    },
    {
     "enum_field_value" : 1862270976,
     "name" : "OMX_DataEncapsulationKhronosExtensions"
    },
    {
     "enum_field_value" : 2130706432,
     "name" : "OMX_DataEncapsulationVendorStartUnused"
    },
    {
     "enum_field_value" : 2147483647,
     "name" : "OMX_DataEncapsulationMax"
    }
   ],
   "linker_set_key" : "_ZTI29OMX_DATAUNITENCAPSULATIONTYPE",
   "name" : "OMX_DATAUNITENCAPSULATIONTYPE",
   "referenced_type" : "_ZTI29OMX_DATAUNITENCAPSULATIONTYPE",
   "self_type" : "_ZTI29OMX_DATAUNITENCAPSULATIONTYPE",
   "size" : 4,
   "source_file" : "/frameworks/native/headers/media_plugin/media/openmax/OMX_IVCommon.h",
   "underlying_type" : "_ZTIj"
  },
  {
   "alignment" : 4,
   "enum_fields" :
   [
    {
     "enum_field_value" : 0,
     "name" : "OMX_VIDEO_DolbyVisionLevelUnknown"
    },
    {
     "enum_field_value" : 1,
     "name" : "OMX_VIDEO_DolbyVisionLevelHd24"
    },
    {
     "enum_field_value" : 2,
     "name" : "OMX_VIDEO_DolbyVisionLevelHd30"
    },
    {
     "enum_field_value" : 4,
     "name" : "OMX_VIDEO_DolbyVisionLevelFhd24"
    },
    {
     "enum_field_value" : 8,
     "name" : "OMX_VIDEO_DolbyVisionLevelFhd30"
    },
    {
     "enum_field_value" : 16,
     "name" : "OMX_VIDEO_DolbyVisionLevelFhd60"
    },
    {
     "enum_field_value" : 32,
     "name" : "OMX_VIDEO_DolbyVisionLevelUhd24"
    },
    {
     "enum_field_value" : 64,
     "name" : "OMX_VIDEO_DolbyVisionLevelUhd30"
    },
    {
     "enum_field_value" : 128,
     "name" : "OMX_VIDEO_DolbyVisionLevelUhd48"
    },
    {
     "enum_field_value" : 256,
     "name" : "OMX_VIDEO_DolbyVisionLevelUhd60"
    },
    {
     "enum_field_value" : 2147483647,
     "name" : "OMX_VIDEO_DolbyVisionLevelmax"
    }
   ],
   "linker_set_key" : "_ZTI30OMX_VIDEO_DOLBYVISIONLEVELTYPE",
   "name" : "OMX_VIDEO_DOLBYVISIONLEVELTYPE",
   "referenced_type" : "_ZTI30OMX_VIDEO_DOLBYVISIONLEVELTYPE",
   "self_type" : "_ZTI30OMX_VIDEO_DOLBYVISIONLEVELTYPE",
   "size" : 4,
   "source_file" : "/frameworks/native/headers/media_plugin/media/openmax/OMX_VideoExt.h",
   "underlying_type" : "_ZTIj"
  },
  {
   "alignment" : 4,
   "enum_fields" :
   [
    {
     "enum_field_value" : 0,
     "name" : "OMX_AUDIO_MIDIPlayBackStateUnknown"
    },
    {
     "enum_field_value" : 1,
     "name" : "OMX_AUDIO_MIDIPlayBackStateClosedEngaged"
    },
    {
     "enum_field_value" : 2,
     "name" : "OMX_AUDIO_MIDIPlayBackStateParsing"
    },
    {
     "enum_field_value" : 3,
     "name" : "OMX_AUDIO_MIDIPlayBackStateOpenEngaged"
    },
    {
     "enum_field_value" : 4,
     "name" : "OMX_AUDIO_MIDIPlayBackStatePlaying"
    },
    {
     "enum_field_value" : 5,
     "name" : "OMX_AUDIO_MIDIPlayBackStatePlayingPartially"
    },
    {
     "enum_field_value" : 6,
     "name" : "OMX_AUDIO_MIDIPlayBackStatePlayingSilently"
    },
    {
     "enum_field_value" : 1862270976,
     "name" : "OMX_AUDIO_MIDIPlayBackStateKhronosExtensions"
    },
    {
     "enum_field_value" : 2130706432,
     "name" : "OMX_AUDIO_MIDIPlayBackStateVendorStartUnused"
    },
    {
     "enum_field_value" : 2147483647,
     "name" : "OMX_AUDIO_MIDIPlayBackStateMax"
    }
   ],
   "linker_set_key" : "_ZTI31OMX_AUDIO_MIDIPLAYBACKSTATETYPE",
   "name" : "OMX_AUDIO_MIDIPLAYBACKSTATETYPE",
   "referenced_type" : "_ZTI31OMX_AUDIO_MIDIPLAYBACKSTATETYPE",
   "self_type" : "_ZTI31OMX_AUDIO_MIDIPLAYBACKSTATETYPE",
   "size" : 4,
   "source_file" : "/frameworks/native/headers/media_plugin/media/openmax/OMX_Audio.h",
   "underlying_type" : "_ZTIj"
  },
  {
   "alignment" : 4,
   "enum_fields" :
   [
    {
     "enum_field_value" : 0,
     "name" : "OMX_IMAGE_QuantizationTableLuma"
    },
    {
     "enum_field_value" : 1,
     "name" : "OMX_IMAGE_QuantizationTableChroma"
    },
    {
     "enum_field_value" : 2,
     "name" : "OMX_IMAGE_QuantizationTableChromaCb"
    },
    {
     "enum_field_value" : 3,
     "name" : "OMX_IMAGE_QuantizationTableChromaCr"
    },
    {
     "enum_field_value" : 1862270976,
     "name" : "OMX_IMAGE_QuantizationTableKhronosExtensions"
    },
    {
     "enum_field_value" : 2130706432,
     "name" : "OMX_IMAGE_QuantizationTableVendorStartUnused"
    },
    {
     "enum_field_value" : 2147483647,
     "name" : "OMX_IMAGE_QuantizationTableMax"
    }
   ],
   "linker_set_key" : "_ZTI31OMX_IMAGE_QUANTIZATIONTABLETYPE",
   "name" : "OMX_IMAGE_QUANTIZATIONTABLETYPE",
   "referenced_type" : "_ZTI31OMX_IMAGE_QUANTIZATIONTABLETYPE",
   "self_type" : "_ZTI31OMX_IMAGE_QUANTIZATIONTABLETYPE",
   "size" : 4,
   "source_file" : "/frameworks/native/headers/media_plugin/media/openmax/OMX_Image.h",
   "underlying_type" : "_ZTIj"
  },
  {
   "alignment" : 4,
   "enum_fields" :
   [
    {
     "enum_field_value" : 0,
     "name" : "OMX_VIDEO_DolbyVisionProfileUnknown"
    },
    {
     "enum_field_value" : 1,
     "name" : "OMX_VIDEO_DolbyVisionProfileDvavPer"
    },
    {
     "enum_field_value" : 2,
     "name" : "OMX_VIDEO_DolbyVisionProfileDvavPen"
    },
    {
     "enum_field_value" : 4,
     "name" : "OMX_VIDEO_DolbyVisionProfileDvheDer"
    },
    {
     "enum_field_value" : 8,
     "name" : "OMX_VIDEO_DolbyVisionProfileDvheDen"
    },
    {
     "enum_field_value" : 16,
     "name" : "OMX_VIDEO_DolbyVisionProfileDvheDtr"
    },
    {
     "enum_field_value" : 32,
     "name" : "OMX_VIDEO_DolbyVisionProfileDvheStn"
    },
    {
     "enum_field_value" : 64,
     "name" : "OMX_VIDEO_DolbyVisionProfileDvheDth"
    },
    {
     "enum_field_value" : 128,
     "name" : "OMX_VIDEO_DolbyVisionProfileDvheDtb"
    },
    {
     "enum_field_value" : 256,
     "name" : "OMX_VIDEO_DolbyVisionProfileDvheSt"
    },
    {
     "enum_field_value" : 512,
     "name" : "OMX_VIDEO_DolbyVisionProfileDvavSe"
    },
    {
     "enum_field_value" : 1024,
     "name" : "OMX_VIDEO_DolbyVisionProfileDvav110"
    },
    {
     "enum_field_value" : 2147483647,
     "name" : "OMX_VIDEO_DolbyVisionProfileMax"
    }
   ],
   "linker_set_key" : "_ZTI32OMX_VIDEO_DOLBYVISIONPROFILETYPE",
   "name" : "OMX_VIDEO_DOLBYVISIONPROFILETYPE",
   "referenced_type" : "_ZTI32OMX_VIDEO_DOLBYVISIONPROFILETYPE",
   "self_type" : "_ZTI32OMX_VIDEO_DOLBYVISIONPROFILETYPE",
   "size" : 4,
   "source_file" : "/frameworks/native/headers/media_plugin/media/openmax/OMX_VideoExt.h",
   "underlying_type" : "_ZTIj"
  },
  {
   "alignment" : 4,
   "enum_fields" :
   [
    {
     "enum_field_value" : 0,
     "name" : "OMX_AUDIO_MIDISoundBankLayoutUnused"
    },
    {
     "enum_field_value" : 1,
     "name" : "OMX_AUDIO_MIDISoundBankLayoutGM"
    },
    {
     "enum_field_value" : 2,
     "name" : "OMX_AUDIO_MIDISoundBankLayoutGM2"
    },
    {
     "enum_field_value" : 3,
     "name" : "OMX_AUDIO_MIDISoundBankLayoutUser"
    },
    {
     "enum_field_value" : 1862270976,
     "name" : "OMX_AUDIO_MIDISoundBankLayoutKhronosExtensions"
    },
    {
     "enum_field_value" : 2130706432,
     "name" : "OMX_AUDIO_MIDISoundBankLayoutVendorStartUnused"
    },
    {
     "enum_field_value" : 2147483647,
     "name" : "OMX_AUDIO_MIDISoundBankLayoutMax"
    }
   ],
   "linker_set_key" : "_ZTI33OMX_AUDIO_MIDISOUNDBANKLAYOUTTYPE",
   "name" : "OMX_AUDIO_MIDISOUNDBANKLAYOUTTYPE",
   "referenced_type" : "_ZTI33OMX_AUDIO_MIDISOUNDBANKLAYOUTTYPE",
   "self_type" : "_ZTI33OMX_AUDIO_MIDISOUNDBANKLAYOUTTYPE",
   "size" : 4,
   "source_file" : "/frameworks/native/headers/media_plugin/media/openmax/OMX_Audio.h",
   "underlying_type" : "_ZTIj"
  },
  {
   "alignment" : 4,
   "enum_fields" :
   [
    {
     "enum_field_value" : 0,
     "name" : "OMX_VIDEO_AndroidTemporalLayeringPatternNone"
    },
    {
     "enum_field_value" : 1,
     "name" : "OMX_VIDEO_AndroidTemporalLayeringPatternWebRTC"
    },
    {
     "enum_field_value" : 2,
     "name" : "OMX_VIDEO_AndroidTemporalLayeringPatternAndroid"
    }
   ],
   "linker_set_key" : "_ZTI45OMX_VIDEO_ANDROID_TEMPORALLAYERINGPATTERNTYPE",
   "name" : "OMX_VIDEO_ANDROID_TEMPORALLAYERINGPATTERNTYPE",
   "referenced_type" : "_ZTI45OMX_VIDEO_ANDROID_TEMPORALLAYERINGPATTERNTYPE",
   "self_type" : "_ZTI45OMX_VIDEO_ANDROID_TEMPORALLAYERINGPATTERNTYPE",
   "size" : 4,
   "source_file" : "/frameworks/native/headers/media_plugin/media/openmax/OMX_VideoExt.h",
   "underlying_type" : "_ZTIj"
  },
  {
   "alignment" : 4,
   "enum_fields" :
   [
    {
     "enum_field_value" : 0,
     "name" : "OMX_VIDEO_VPXTemporalLayerPatternNone"
    },
    {
     "enum_field_value" : 1,
     "name" : "OMX_VIDEO_VPXTemporalLayerPatternWebRTC"
    },
    {
     "enum_field_value" : 2147483647,
     "name" : "OMX_VIDEO_VPXTemporalLayerPatternMax"
    }
   ],
   "linker_set_key" : "_ZTI45OMX_VIDEO_ANDROID_VPXTEMPORALLAYERPATTERNTYPE",
   "name" : "OMX_VIDEO_ANDROID_VPXTEMPORALLAYERPATTERNTYPE",
   "referenced_type" : "_ZTI45OMX_VIDEO_ANDROID_VPXTEMPORALLAYERPATTERNTYPE",
   "self_type" : "_ZTI45OMX_VIDEO_ANDROID_VPXTEMPORALLAYERPATTERNTYPE",
   "size" : 4,
   "source_file" : "/frameworks/native/headers/media_plugin/media/openmax/OMX_VideoExt.h",
   "underlying_type" : "_ZTIj"
  },
  {
   "alignment" : 4,
   "enum_fields" :
   [
    {
     "enum_field_value" : 0,
     "name" : "LOG_ID_MIN"
    },
    {
     "enum_field_value" : 0,
     "name" : "LOG_ID_MAIN"
    },
    {
     "enum_field_value" : 1,
     "name" : "LOG_ID_RADIO"
    },
    {
     "enum_field_value" : 2,
     "name" : "LOG_ID_EVENTS"
    },
    {
     "enum_field_value" : 3,
     "name" : "LOG_ID_SYSTEM"
    },
    {
     "enum_field_value" : 4,
     "name" : "LOG_ID_CRASH"
    },
    {
     "enum_field_value" : 5,
     "name" : "LOG_ID_STATS"
    },
    {
     "enum_field_value" : 6,
     "name" : "LOG_ID_SECURITY"
    },
    {
     "enum_field_value" : 7,
     "name" : "LOG_ID_KERNEL"
    },
    {
     "enum_field_value" : 8,
     "name" : "LOG_ID_MAX"
    },
    {
     "enum_field_value" : 2147483647,
     "name" : "LOG_ID_DEFAULT"
    }
   ],
   "linker_set_key" : "_ZTI6log_id",
   "name" : "log_id",
   "referenced_type" : "_ZTI6log_id",
   "self_type" : "_ZTI6log_id",
   "size" : 4,
   "source_file" : "/system/core/liblog/include/android/log.h",
   "underlying_type" : "_ZTIj"
  },
  {
   "alignment" : 4,
   "enum_fields" :
   [
    {
     "enum_field_value" : 0,
     "name" : "OMX_FALSE"
    },
    {
     "enum_field_value" : 1,
     "name" : "OMX_TRUE"
    },
    {
     "enum_field_value" : 2147483647,
     "name" : "OMX_BOOL_MAX"
    }
   ],
   "linker_set_key" : "_ZTI8OMX_BOOL",
   "name" : "OMX_BOOL",
   "referenced_type" : "_ZTI8OMX_BOOL",
   "self_type" : "_ZTI8OMX_BOOL",
   "size" : 4,
   "source_file" : "/frameworks/native/headers/media_plugin/media/openmax/OMX_Types.h",
   "underlying_type" : "_ZTIj"
  },
  {
   "alignment" : 4,
   "enum_fields" :
   [
    {
     "enum_field_value" : 0,
     "name" : "android::ACTION_CODE_FATAL"
    },
    {
     "enum_field_value" : 1,
     "name" : "android::ACTION_CODE_TRANSIENT"
    },
    {
     "enum_field_value" : 2,
     "name" : "android::ACTION_CODE_RECOVERABLE"
    }
   ],
   "linker_set_key" : "_ZTIN7android10ActionCodeE",
   "name" : "android::ActionCode",
   "referenced_type" : "_ZTIN7android10ActionCodeE",
   "self_type" : "_ZTIN7android10ActionCodeE",
   "size" : 4,
   "source_file" : "/frameworks/av/media/libstagefright/include/media/stagefright/MediaErrors.h",
   "underlying_type" : "_ZTIj"
  },
  {
   "alignment" : 4,
   "enum_fields" :
   [
    {
     "enum_field_value" : 0,
     "name" : "android::ColorUtils::kColorRangeUnspecified"
    },
    {
     "enum_field_value" : 1,
     "name" : "android::ColorUtils::kColorRangeFull"
    },
    {
     "enum_field_value" : 2,
     "name" : "android::ColorUtils::kColorRangeLimited"
    },
    {
     "enum_field_value" : 8,
     "name" : "android::ColorUtils::kColorRangeExtendedStart"
    },
    {
     "enum_field_value" : 65536,
     "name" : "android::ColorUtils::kColorRangeVendorStart"
    }
   ],
   "linker_set_key" : "_ZTIN7android10ColorUtils10ColorRangeE",
   "name" : "android::ColorUtils::ColorRange",
   "referenced_type" : "_ZTIN7android10ColorUtils10ColorRangeE",
   "self_type" : "_ZTIN7android10ColorUtils10ColorRangeE",
   "size" : 4,
   "source_file" : "/frameworks/av/media/libstagefright/foundation/include/media/stagefright/foundation/ColorUtils.h",
   "underlying_type" : "_ZTIj"
  },
  {
   "alignment" : 4,
   "enum_fields" :
   [
    {
     "enum_field_value" : 0,
     "name" : "android::ColorUtils::kColorStandardUnspecified"
    },
    {
     "enum_field_value" : 1,
     "name" : "android::ColorUtils::kColorStandardBT709"
    },
    {
     "enum_field_value" : 2,
     "name" : "android::ColorUtils::kColorStandardBT601_625"
    },
    {
     "enum_field_value" : 3,
     "name" : "android::ColorUtils::kColorStandardBT601_625_Unadjusted"
    },
    {
     "enum_field_value" : 4,
     "name" : "android::ColorUtils::kColorStandardBT601_525"
    },
    {
     "enum_field_value" : 5,
     "name" : "android::ColorUtils::kColorStandardBT601_525_Unadjusted"
    },
    {
     "enum_field_value" : 6,
     "name" : "android::ColorUtils::kColorStandardBT2020"
    },
    {
     "enum_field_value" : 7,
     "name" : "android::ColorUtils::kColorStandardBT2020Constant"
    },
    {
     "enum_field_value" : 8,
     "name" : "android::ColorUtils::kColorStandardBT470M"
    },
    {
     "enum_field_value" : 9,
     "name" : "android::ColorUtils::kColorStandardFilm"
    },
    {
     "enum_field_value" : 10,
     "name" : "android::ColorUtils::kColorStandardDCI_P3"
    },
    {
     "enum_field_value" : 64,
     "name" : "android::ColorUtils::kColorStandardExtendedStart"
    },
    {
     "enum_field_value" : 65536,
     "name" : "android::ColorUtils::kColorStandardVendorStart"
    }
   ],
   "linker_set_key" : "_ZTIN7android10ColorUtils13ColorStandardE",
   "name" : "android::ColorUtils::ColorStandard",
   "referenced_type" : "_ZTIN7android10ColorUtils13ColorStandardE",
   "self_type" : "_ZTIN7android10ColorUtils13ColorStandardE",
   "size" : 4,
   "source_file" : "/frameworks/av/media/libstagefright/foundation/include/media/stagefright/foundation/ColorUtils.h",
   "underlying_type" : "_ZTIj"
  },
  {
   "alignment" : 4,
   "enum_fields" :
   [
    {
     "enum_field_value" : 0,
     "name" : "android::ColorUtils::kColorTransferUnspecified"
    },
    {
     "enum_field_value" : 1,
     "name" : "android::ColorUtils::kColorTransferLinear"
    },
    {
     "enum_field_value" : 2,
     "name" : "android::ColorUtils::kColorTransferSRGB"
    },
    {
     "enum_field_value" : 3,
     "name" : "android::ColorUtils::kColorTransferSMPTE_170M"
    },
    {
     "enum_field_value" : 4,
     "name" : "android::ColorUtils::kColorTransferGamma22"
    },
    {
     "enum_field_value" : 5,
     "name" : "android::ColorUtils::kColorTransferGamma28"
    },
    {
     "enum_field_value" : 6,
     "name" : "android::ColorUtils::kColorTransferST2084"
    },
    {
     "enum_field_value" : 7,
     "name" : "android::ColorUtils::kColorTransferHLG"
    },
    {
     "enum_field_value" : 8,
     "name" : "android::ColorUtils::kColorTransferGamma26"
    },
    {
     "enum_field_value" : 32,
     "name" : "android::ColorUtils::kColorTransferExtendedStart"
    },
    {
     "enum_field_value" : 65536,
     "name" : "android::ColorUtils::kColorTransferVendorStart"
    }
   ],
   "linker_set_key" : "_ZTIN7android10ColorUtils13ColorTransferE",
   "name" : "android::ColorUtils::ColorTransfer",
   "referenced_type" : "_ZTIN7android10ColorUtils13ColorTransferE",
   "self_type" : "_ZTIN7android10ColorUtils13ColorTransferE",
   "size" : 4,
   "source_file" : "/frameworks/av/media/libstagefright/foundation/include/media/stagefright/foundation/ColorUtils.h",
   "underlying_type" : "_ZTIj"
  },
  {
   "alignment" : 4,
   "enum_fields" :
   [
    {
     "enum_field_value" : 0,
     "name" : "android::MediaImage::Y"
    },
    {
     "enum_field_value" : 1,
     "name" : "android::MediaImage::U"
    },
    {
     "enum_field_value" : 2,
     "name" : "android::MediaImage::V"
    },
    {
     "enum_field_value" : 3,
     "name" : "android::MediaImage::MAX_NUM_PLANES"
    }
   ],
   "linker_set_key" : "_ZTIN7android10MediaImage10PlaneIndexE",
   "name" : "android::MediaImage::PlaneIndex",
   "referenced_type" : "_ZTIN7android10MediaImage10PlaneIndexE",
   "self_type" : "_ZTIN7android10MediaImage10PlaneIndexE",
   "size" : 4,
   "source_file" : "/frameworks/native/headers/media_plugin/media/hardware/VideoAPI.h",
   "underlying_type" : "_ZTIj"
  },
  {
   "alignment" : 4,
   "enum_fields" :
   [
    {
     "enum_field_value" : 0,
     "name" : "android::MediaImage::MEDIA_IMAGE_TYPE_UNKNOWN"
    },
    {
     "enum_field_value" : 1,
     "name" : "android::MediaImage::MEDIA_IMAGE_TYPE_YUV"
    }
   ],
   "linker_set_key" : "_ZTIN7android10MediaImage4TypeE",
   "name" : "android::MediaImage::Type",
   "referenced_type" : "_ZTIN7android10MediaImage4TypeE",
   "self_type" : "_ZTIN7android10MediaImage4TypeE",
   "size" : 4,
   "source_file" : "/frameworks/native/headers/media_plugin/media/hardware/VideoAPI.h",
   "underlying_type" : "_ZTIj"
  },
  {
   "alignment" : 4,
   "enum_fields" :
   [
    {
     "enum_field_value" : 1,
     "name" : "android::VectorImpl::HAS_TRIVIAL_CTOR"
    },
    {
     "enum_field_value" : 2,
     "name" : "android::VectorImpl::HAS_TRIVIAL_DTOR"
    },
    {
     "enum_field_value" : 4,
     "name" : "android::VectorImpl::HAS_TRIVIAL_COPY"
    }
   ],
   "linker_set_key" : "_ZTIN7android10VectorImpl17$HAS_TRIVIAL_COPYE",
   "name" : "android::VectorImpl::(anonymous enum at system/core/libutils/include/utils/VectorImpl.h:43:5)",
   "referenced_type" : "_ZTIN7android10VectorImpl17$HAS_TRIVIAL_COPYE",
   "self_type" : "_ZTIN7android10VectorImpl17$HAS_TRIVIAL_COPYE",
   "size" : 4,
   "source_file" : "/system/core/libutils/include/utils/VectorImpl.h",
   "underlying_type" : "_ZTIj"
  },
  {
   "alignment" : 4,
   "enum_fields" :
   [
    {
     "enum_field_value" : 0,
     "name" : "android::MediaImage2::Y"
    },
    {
     "enum_field_value" : 1,
     "name" : "android::MediaImage2::U"
    },
    {
     "enum_field_value" : 2,
     "name" : "android::MediaImage2::V"
    },
    {
     "enum_field_value" : 0,
     "name" : "android::MediaImage2::R"
    },
    {
     "enum_field_value" : 1,
     "name" : "android::MediaImage2::G"
    },
    {
     "enum_field_value" : 2,
     "name" : "android::MediaImage2::B"
    },
    {
     "enum_field_value" : 3,
     "name" : "android::MediaImage2::A"
    },
    {
     "enum_field_value" : 4,
     "name" : "android::MediaImage2::MAX_NUM_PLANES"
    }
   ],
   "linker_set_key" : "_ZTIN7android11MediaImage210PlaneIndexE",
   "name" : "android::MediaImage2::PlaneIndex",
   "referenced_type" : "_ZTIN7android11MediaImage210PlaneIndexE",
   "self_type" : "_ZTIN7android11MediaImage210PlaneIndexE",
   "size" : 4,
   "source_file" : "/frameworks/native/headers/media_plugin/media/hardware/VideoAPI.h",
   "underlying_type" : "_ZTIj"
  },
  {
   "alignment" : 4,
   "enum_fields" :
   [
    {
     "enum_field_value" : 0,
     "name" : "android::MediaImage2::MEDIA_IMAGE_TYPE_UNKNOWN"
    },
    {
     "enum_field_value" : 1,
     "name" : "android::MediaImage2::MEDIA_IMAGE_TYPE_YUV"
    },
    {
     "enum_field_value" : 2,
     "name" : "android::MediaImage2::MEDIA_IMAGE_TYPE_YUVA"
    },
    {
     "enum_field_value" : 3,
     "name" : "android::MediaImage2::MEDIA_IMAGE_TYPE_RGB"
    },
    {
     "enum_field_value" : 4,
     "name" : "android::MediaImage2::MEDIA_IMAGE_TYPE_RGBA"
    },
    {
     "enum_field_value" : 5,
     "name" : "android::MediaImage2::MEDIA_IMAGE_TYPE_Y"
    }
   ],
   "linker_set_key" : "_ZTIN7android11MediaImage24TypeE",
   "name" : "android::MediaImage2::Type",
   "referenced_type" : "_ZTIN7android11MediaImage24TypeE",
   "self_type" : "_ZTIN7android11MediaImage24TypeE",
   "size" : 4,
   "source_file" : "/frameworks/native/headers/media_plugin/media/hardware/VideoAPI.h",
   "underlying_type" : "_ZTIj"
  },
  {
   "alignment" : 4,
   "enum_fields" :
   [
    {
     "enum_field_value" : 0,
     "name" : "android::ColorAspects::MatrixUnspecified"
    },
    {
     "enum_field_value" : 1,
     "name" : "android::ColorAspects::MatrixBT709_5"
    },
    {
     "enum_field_value" : 2,
     "name" : "android::ColorAspects::MatrixBT470_6M"
    },
    {
     "enum_field_value" : 3,
     "name" : "android::ColorAspects::MatrixBT601_6"
    },
    {
     "enum_field_value" : 4,
     "name" : "android::ColorAspects::MatrixSMPTE240M"
    },
    {
     "enum_field_value" : 5,
     "name" : "android::ColorAspects::MatrixBT2020"
    },
    {
     "enum_field_value" : 6,
     "name" : "android::ColorAspects::MatrixBT2020Constant"
    },
    {
     "enum_field_value" : 255,
     "name" : "android::ColorAspects::MatrixOther"
    }
   ],
   "linker_set_key" : "_ZTIN7android12ColorAspects12MatrixCoeffsE",
   "name" : "android::ColorAspects::MatrixCoeffs",
   "referenced_type" : "_ZTIN7android12ColorAspects12MatrixCoeffsE",
   "self_type" : "_ZTIN7android12ColorAspects12MatrixCoeffsE",
   "size" : 4,
   "source_file" : "/frameworks/native/headers/media_plugin/media/hardware/VideoAPI.h",
   "underlying_type" : "_ZTIj"
  },
  {
   "alignment" : 4,
   "enum_fields" :
   [
    {
     "enum_field_value" : 0,
     "name" : "android::ColorAspects::RangeUnspecified"
    },
    {
     "enum_field_value" : 1,
     "name" : "android::ColorAspects::RangeFull"
    },
    {
     "enum_field_value" : 2,
     "name" : "android::ColorAspects::RangeLimited"
    },
    {
     "enum_field_value" : 255,
     "name" : "android::ColorAspects::RangeOther"
    }
   ],
   "linker_set_key" : "_ZTIN7android12ColorAspects5RangeE",
   "name" : "android::ColorAspects::Range",
   "referenced_type" : "_ZTIN7android12ColorAspects5RangeE",
   "self_type" : "_ZTIN7android12ColorAspects5RangeE",
   "size" : 4,
   "source_file" : "/frameworks/native/headers/media_plugin/media/hardware/VideoAPI.h",
   "underlying_type" : "_ZTIj"
  },
  {
   "alignment" : 4,
   "enum_fields" :
   [
    {
     "enum_field_value" : 0,
     "name" : "android::ColorAspects::StandardUnspecified"
    },
    {
     "enum_field_value" : 1,
     "name" : "android::ColorAspects::StandardBT709"
    },
    {
     "enum_field_value" : 2,
     "name" : "android::ColorAspects::StandardBT601_625"
    },
    {
     "enum_field_value" : 3,
     "name" : "android::ColorAspects::StandardBT601_625_Unadjusted"
    },
    {
     "enum_field_value" : 4,
     "name" : "android::ColorAspects::StandardBT601_525"
    },
    {
     "enum_field_value" : 5,
     "name" : "android::ColorAspects::StandardBT601_525_Unadjusted"
    },
    {
     "enum_field_value" : 6,
     "name" : "android::ColorAspects::StandardBT2020"
    },
    {
     "enum_field_value" : 7,
     "name" : "android::ColorAspects::StandardBT2020Constant"
    },
    {
     "enum_field_value" : 8,
     "name" : "android::ColorAspects::StandardBT470M"
    },
    {
     "enum_field_value" : 9,
     "name" : "android::ColorAspects::StandardFilm"
    },
    {
     "enum_field_value" : 255,
     "name" : "android::ColorAspects::StandardOther"
    }
   ],
   "linker_set_key" : "_ZTIN7android12ColorAspects8StandardE",
   "name" : "android::ColorAspects::Standard",
   "referenced_type" : "_ZTIN7android12ColorAspects8StandardE",
   "self_type" : "_ZTIN7android12ColorAspects8StandardE",
   "size" : 4,
   "source_file" : "/frameworks/native/headers/media_plugin/media/hardware/VideoAPI.h",
   "underlying_type" : "_ZTIj"
  },
  {
   "alignment" : 4,
   "enum_fields" :
   [
    {
     "enum_field_value" : 0,
     "name" : "android::ColorAspects::TransferUnspecified"
    },
    {
     "enum_field_value" : 1,
     "name" : "android::ColorAspects::TransferLinear"
    },
    {
     "enum_field_value" : 2,
     "name" : "android::ColorAspects::TransferSRGB"
    },
    {
     "enum_field_value" : 3,
     "name" : "android::ColorAspects::TransferSMPTE170M"
    },
    {
     "enum_field_value" : 4,
     "name" : "android::ColorAspects::TransferGamma22"
    },
    {
     "enum_field_value" : 5,
     "name" : "android::ColorAspects::TransferGamma28"
    },
    {
     "enum_field_value" : 6,
     "name" : "android::ColorAspects::TransferST2084"
    },
    {
     "enum_field_value" : 7,
     "name" : "android::ColorAspects::TransferHLG"
    },
    {
     "enum_field_value" : 64,
     "name" : "android::ColorAspects::TransferSMPTE240M"
    },
    {
     "enum_field_value" : 65,
     "name" : "android::ColorAspects::TransferXvYCC"
    },
    {
     "enum_field_value" : 66,
     "name" : "android::ColorAspects::TransferBT1361"
    },
    {
     "enum_field_value" : 67,
     "name" : "android::ColorAspects::TransferST428"
    },
    {
     "enum_field_value" : 255,
     "name" : "android::ColorAspects::TransferOther"
    }
   ],
   "linker_set_key" : "_ZTIN7android12ColorAspects8TransferE",
   "name" : "android::ColorAspects::Transfer",
   "referenced_type" : "_ZTIN7android12ColorAspects8TransferE",
   "self_type" : "_ZTIN7android12ColorAspects8TransferE",
   "size" : 4,
   "source_file" : "/frameworks/native/headers/media_plugin/media/hardware/VideoAPI.h",
   "underlying_type" : "_ZTIj"
  },
  {
   "alignment" : 4,
   "enum_fields" :
   [
    {
     "enum_field_value" : 0,
     "name" : "android::ColorAspects::PrimariesUnspecified"
    },
    {
     "enum_field_value" : 1,
     "name" : "android::ColorAspects::PrimariesBT709_5"
    },
    {
     "enum_field_value" : 2,
     "name" : "android::ColorAspects::PrimariesBT470_6M"
    },
    {
     "enum_field_value" : 3,
     "name" : "android::ColorAspects::PrimariesBT601_6_625"
    },
    {
     "enum_field_value" : 4,
     "name" : "android::ColorAspects::PrimariesBT601_6_525"
    },
    {
     "enum_field_value" : 5,
     "name" : "android::ColorAspects::PrimariesGenericFilm"
    },
    {
     "enum_field_value" : 6,
     "name" : "android::ColorAspects::PrimariesBT2020"
    },
    {
     "enum_field_value" : 255,
     "name" : "android::ColorAspects::PrimariesOther"
    }
   ],
   "linker_set_key" : "_ZTIN7android12ColorAspects9PrimariesE",
   "name" : "android::ColorAspects::Primaries",
   "referenced_type" : "_ZTIN7android12ColorAspects9PrimariesE",
   "self_type" : "_ZTIN7android12ColorAspects9PrimariesE",
   "size" : 4,
   "source_file" : "/frameworks/native/headers/media_plugin/media/hardware/VideoAPI.h",
   "underlying_type" : "_ZTIj"
  },
  {
   "alignment" : 4,
   "enum_fields" :
   [
    {
     "enum_field_value" : 2,
     "name" : "android::kAudioEncodingPcm16bit"
    },
    {
     "enum_field_value" : 3,
     "name" : "android::kAudioEncodingPcm8bit"
    },
    {
     "enum_field_value" : 4,
     "name" : "android::kAudioEncodingPcmFloat"
    }
   ],
   "linker_set_key" : "_ZTIN7android13AudioEncodingE",
   "name" : "android::AudioEncoding",
   "referenced_type" : "_ZTIN7android13AudioEncodingE",
   "self_type" : "_ZTIN7android13AudioEncodingE",
   "size" : 4,
   "source_file" : "/frameworks/av/media/libstagefright/foundation/include/media/stagefright/foundation/MediaDefs.h",
   "underlying_type" : "_ZTIj"
  },
  {
   "alignment" : 1,
   "enum_fields" :
   [
    {
     "enum_field_value" : 0,
     "name" : "android::HDRStaticInfo::kType1"
    }
   ],
   "linker_set_key" : "_ZTIN7android13HDRStaticInfo2IDE",
   "name" : "android::HDRStaticInfo::ID",
   "referenced_type" : "_ZTIN7android13HDRStaticInfo2IDE",
   "self_type" : "_ZTIN7android13HDRStaticInfo2IDE",
   "size" : 1,
   "source_file" : "/frameworks/native/headers/media_plugin/media/hardware/VideoAPI.h",
   "underlying_type" : "_ZTIh"
  },
  {
   "alignment" : 4,
   "enum_fields" :
   [
    {
     "enum_field_value" : 0,
     "name" : "android::trait_pointer<OMX_INDEXTYPE>::value"
    }
   ],
   "linker_set_key" : "_ZTIN7android13trait_pointerI13OMX_INDEXTYPEE6$valueE",
   "name" : "android::trait_pointer<OMX_INDEXTYPE>::(anonymous enum at system/core/libutils/include/utils/TypeHelpers.h:39:51)",
   "referenced_type" : "_ZTIN7android13trait_pointerI13OMX_INDEXTYPEE6$valueE",
   "self_type" : "_ZTIN7android13trait_pointerI13OMX_INDEXTYPEE6$valueE",
   "size" : 4,
   "source_file" : "/system/core/libutils/include/utils/TypeHelpers.h",
   "underlying_type" : "_ZTIj"
  },
  {
   "alignment" : 4,
   "enum_fields" :
   [
    {
     "enum_field_value" : 0,
     "name" : "android::trait_pointer<android::OMXNodeInstance::ActiveBuffer>::value"
    }
   ],
   "linker_set_key" : "_ZTIN7android13trait_pointerINS_15OMXNodeInstance12ActiveBufferEE6$valueE",
   "name" : "android::trait_pointer<ActiveBuffer>::(anonymous enum at system/core/libutils/include/utils/TypeHelpers.h:39:51)",
   "referenced_type" : "_ZTIN7android13trait_pointerINS_15OMXNodeInstance12ActiveBufferEE6$valueE",
   "self_type" : "_ZTIN7android13trait_pointerINS_15OMXNodeInstance12ActiveBufferEE6$valueE",
   "size" : 4,
   "source_file" : "/system/core/libutils/include/utils/TypeHelpers.h",
   "underlying_type" : "_ZTIj"
  },
  {
   "alignment" : 4,
   "enum_fields" :
   [
    {
     "enum_field_value" : 0,
     "name" : "android::trait_pointer<android::key_value_pair_t<android::wp<android::hidl::base::V1_0::IBase>, android::sp<android::OMXNodeInstance> > >::value"
    }
   ],
   "linker_set_key" : "_ZTIN7android13trait_pointerINS_16key_value_pair_tINS_2wpINS_4hidl4base4V1_05IBaseEEENS_2spINS_15OMXNodeInstanceEEEEEE6$valueE",
   "name" : "android::trait_pointer<key_value_pair_t<wp<IBase>, sp<OMXNodeInstance> > >::(anonymous enum at system/core/libutils/include/utils/TypeHelpers.h:39:51)",
   "referenced_type" : "_ZTIN7android13trait_pointerINS_16key_value_pair_tINS_2wpINS_4hidl4base4V1_05IBaseEEENS_2spINS_15OMXNodeInstanceEEEEEE6$valueE",
   "self_type" : "_ZTIN7android13trait_pointerINS_16key_value_pair_tINS_2wpINS_4hidl4base4V1_05IBaseEEENS_2spINS_15OMXNodeInstanceEEEEEE6$valueE",
   "size" : 4,
   "source_file" : "/system/core/libutils/include/utils/TypeHelpers.h",
   "underlying_type" : "_ZTIj"
  },
  {
   "alignment" : 4,
   "enum_fields" :
   [
    {
     "enum_field_value" : 0,
     "name" : "android::trait_pointer<android::key_value_pair_t<android::String8, android::OMXPluginBase *> >::value"
    }
   ],
   "linker_set_key" : "_ZTIN7android13trait_pointerINS_16key_value_pair_tINS_7String8EPNS_13OMXPluginBaseEEEE6$valueE",
   "name" : "android::trait_pointer<key_value_pair_t<String8, OMXPluginBase *> >::(anonymous enum at system/core/libutils/include/utils/TypeHelpers.h:39:51)",
   "referenced_type" : "_ZTIN7android13trait_pointerINS_16key_value_pair_tINS_7String8EPNS_13OMXPluginBaseEEEE6$valueE",
   "self_type" : "_ZTIN7android13trait_pointerINS_16key_value_pair_tINS_7String8EPNS_13OMXPluginBaseEEEE6$valueE",
   "size" : 4,
   "source_file" : "/system/core/libutils/include/utils/TypeHelpers.h",
   "underlying_type" : "_ZTIj"
  },
  {
   "alignment" : 4,
   "enum_fields" :
   [
    {
     "enum_field_value" : 0,
     "name" : "android::trait_pointer<android::key_value_pair_t<OMX_COMPONENTTYPE *, android::OMXPluginBase *> >::value"
    }
   ],
   "linker_set_key" : "_ZTIN7android13trait_pointerINS_16key_value_pair_tIP17OMX_COMPONENTTYPEPNS_13OMXPluginBaseEEEE6$valueE",
   "name" : "android::trait_pointer<key_value_pair_t<OMX_COMPONENTTYPE *, OMXPluginBase *> >::(anonymous enum at system/core/libutils/include/utils/TypeHelpers.h:39:51)",
   "referenced_type" : "_ZTIN7android13trait_pointerINS_16key_value_pair_tIP17OMX_COMPONENTTYPEPNS_13OMXPluginBaseEEEE6$valueE",
   "self_type" : "_ZTIN7android13trait_pointerINS_16key_value_pair_tIP17OMX_COMPONENTTYPEPNS_13OMXPluginBaseEEEE6$valueE",
   "size" : 4,
   "source_file" : "/system/core/libutils/include/utils/TypeHelpers.h",
   "underlying_type" : "_ZTIj"
  },
  {
   "alignment" : 4,
   "enum_fields" :
   [
    {
     "enum_field_value" : 0,
     "name" : "android::trait_pointer<android::key_value_pair_t<OMX_BUFFERHEADERTYPE *, unsigned int> >::value"
    }
   ],
   "linker_set_key" : "_ZTIN7android13trait_pointerINS_16key_value_pair_tIP20OMX_BUFFERHEADERTYPEjEEE6$valueE",
   "name" : "android::trait_pointer<key_value_pair_t<OMX_BUFFERHEADERTYPE *, unsigned int> >::(anonymous enum at system/core/libutils/include/utils/TypeHelpers.h:39:51)",
   "referenced_type" : "_ZTIN7android13trait_pointerINS_16key_value_pair_tIP20OMX_BUFFERHEADERTYPEjEEE6$valueE",
   "self_type" : "_ZTIN7android13trait_pointerINS_16key_value_pair_tIP20OMX_BUFFERHEADERTYPEjEEE6$valueE",
   "size" : 4,
   "source_file" : "/system/core/libutils/include/utils/TypeHelpers.h",
   "underlying_type" : "_ZTIj"
  },
  {
   "alignment" : 4,
   "enum_fields" :
   [
    {
     "enum_field_value" : 0,
     "name" : "android::trait_pointer<android::key_value_pair_t<android::OMXNodeInstance *, android::wp<android::hidl::base::V1_0::IBase> > >::value"
    }
   ],
   "linker_set_key" : "_ZTIN7android13trait_pointerINS_16key_value_pair_tIPNS_15OMXNodeInstanceENS_2wpINS_4hidl4base4V1_05IBaseEEEEEE6$valueE",
   "name" : "android::trait_pointer<key_value_pair_t<OMXNodeInstance *, wp<IBase> > >::(anonymous enum at system/core/libutils/include/utils/TypeHelpers.h:39:51)",
   "referenced_type" : "_ZTIN7android13trait_pointerINS_16key_value_pair_tIPNS_15OMXNodeInstanceENS_2wpINS_4hidl4base4V1_05IBaseEEEEEE6$valueE",
   "self_type" : "_ZTIN7android13trait_pointerINS_16key_value_pair_tIPNS_15OMXNodeInstanceENS_2wpINS_4hidl4base4V1_05IBaseEEEEEE6$valueE",
   "size" : 4,
   "source_file" : "/system/core/libutils/include/utils/TypeHelpers.h",
   "underlying_type" : "_ZTIj"
  },
  {
   "alignment" : 4,
   "enum_fields" :
   [
    {
     "enum_field_value" : 0,
     "name" : "android::trait_pointer<android::key_value_pair_t<unsigned int, OMX_BUFFERHEADERTYPE *> >::value"
    }
   ],
   "linker_set_key" : "_ZTIN7android13trait_pointerINS_16key_value_pair_tIjP20OMX_BUFFERHEADERTYPEEEE6$valueE",
   "name" : "android::trait_pointer<key_value_pair_t<unsigned int, OMX_BUFFERHEADERTYPE *> >::(anonymous enum at system/core/libutils/include/utils/TypeHelpers.h:39:51)",
   "referenced_type" : "_ZTIN7android13trait_pointerINS_16key_value_pair_tIjP20OMX_BUFFERHEADERTYPEEEE6$valueE",
   "self_type" : "_ZTIN7android13trait_pointerINS_16key_value_pair_tIjP20OMX_BUFFERHEADERTYPEEEE6$valueE",
   "size" : 4,
   "source_file" : "/system/core/libutils/include/utils/TypeHelpers.h",
   "underlying_type" : "_ZTIj"
  },
  {
   "alignment" : 4,
   "enum_fields" :
   [
    {
     "enum_field_value" : 0,
     "name" : "android::trait_pointer<android::key_value_pair_t<unsigned int, unsigned int> >::value"
    }
   ],
   "linker_set_key" : "_ZTIN7android13trait_pointerINS_16key_value_pair_tIjjEEE6$valueE",
   "name" : "android::trait_pointer<key_value_pair_t<unsigned int, unsigned int> >::(anonymous enum at system/core/libutils/include/utils/TypeHelpers.h:39:51)",
   "referenced_type" : "_ZTIN7android13trait_pointerINS_16key_value_pair_tIjjEEE6$valueE",
   "self_type" : "_ZTIN7android13trait_pointerINS_16key_value_pair_tIjjEEE6$valueE",
   "size" : 4,
   "source_file" : "/system/core/libutils/include/utils/TypeHelpers.h",
   "underlying_type" : "_ZTIj"
  },
  {
   "alignment" : 4,
   "enum_fields" :
   [
    {
     "enum_field_value" : 0,
     "name" : "android::trait_pointer<android::key_value_pair_t<long, long> >::value"
    }
   ],
   "linker_set_key" : "_ZTIN7android13trait_pointerINS_16key_value_pair_tIllEEE6$valueE",
   "name" : "android::trait_pointer<key_value_pair_t<long, long> >::(anonymous enum at system/core/libutils/include/utils/TypeHelpers.h:39:51)",
   "referenced_type" : "_ZTIN7android13trait_pointerINS_16key_value_pair_tIllEEE6$valueE",
   "self_type" : "_ZTIN7android13trait_pointerINS_16key_value_pair_tIllEEE6$valueE",
   "size" : 4,
   "source_file" : "/system/core/libutils/include/utils/TypeHelpers.h",
   "underlying_type" : "_ZTIj"
  },
  {
   "alignment" : 4,
   "enum_fields" :
   [
    {
     "enum_field_value" : 0,
     "name" : "android::trait_pointer<android::sp<android::OMXNodeInstance> >::value"
    }
   ],
   "linker_set_key" : "_ZTIN7android13trait_pointerINS_2spINS_15OMXNodeInstanceEEEE6$valueE",
   "name" : "android::trait_pointer<sp<OMXNodeInstance> >::(anonymous enum at system/core/libutils/include/utils/TypeHelpers.h:39:51)",
   "referenced_type" : "_ZTIN7android13trait_pointerINS_2spINS_15OMXNodeInstanceEEEE6$valueE",
   "self_type" : "_ZTIN7android13trait_pointerINS_2spINS_15OMXNodeInstanceEEEE6$valueE",
   "size" : 4,
   "source_file" : "/system/core/libutils/include/utils/TypeHelpers.h",
   "underlying_type" : "_ZTIj"
  },
  {
   "alignment" : 4,
   "enum_fields" :
   [
    {
     "enum_field_value" : 0,
     "name" : "android::trait_pointer<android::wp<android::hidl::base::V1_0::IBase> >::value"
    }
   ],
   "linker_set_key" : "_ZTIN7android13trait_pointerINS_2wpINS_4hidl4base4V1_05IBaseEEEE6$valueE",
   "name" : "android::trait_pointer<wp<IBase> >::(anonymous enum at system/core/libutils/include/utils/TypeHelpers.h:39:51)",
   "referenced_type" : "_ZTIN7android13trait_pointerINS_2wpINS_4hidl4base4V1_05IBaseEEEE6$valueE",
   "self_type" : "_ZTIN7android13trait_pointerINS_2wpINS_4hidl4base4V1_05IBaseEEEE6$valueE",
   "size" : 4,
   "source_file" : "/system/core/libutils/include/utils/TypeHelpers.h",
   "underlying_type" : "_ZTIj"
  },
  {
   "alignment" : 4,
   "enum_fields" :
   [
    {
     "enum_field_value" : 0,
     "name" : "android::trait_pointer<android::String8>::value"
    }
   ],
   "linker_set_key" : "_ZTIN7android13trait_pointerINS_7String8EE6$valueE",
   "name" : "android::trait_pointer<String8>::(anonymous enum at system/core/libutils/include/utils/TypeHelpers.h:39:51)",
   "referenced_type" : "_ZTIN7android13trait_pointerINS_7String8EE6$valueE",
   "self_type" : "_ZTIN7android13trait_pointerINS_7String8EE6$valueE",
   "size" : 4,
   "source_file" : "/system/core/libutils/include/utils/TypeHelpers.h",
   "underlying_type" : "_ZTIj"
  },
  {
   "alignment" : 4,
   "enum_fields" :
   [
    {
     "enum_field_value" : 1,
     "name" : "android::trait_pointer<OMX_COMPONENTTYPE *>::value"
    }
   ],
   "linker_set_key" : "_ZTIN7android13trait_pointerIP17OMX_COMPONENTTYPEE6$valueE",
   "name" : "android::trait_pointer<OMX_COMPONENTTYPE *>::(anonymous enum at system/core/libutils/include/utils/TypeHelpers.h:40:51)",
   "referenced_type" : "_ZTIN7android13trait_pointerIP17OMX_COMPONENTTYPEE6$valueE",
   "self_type" : "_ZTIN7android13trait_pointerIP17OMX_COMPONENTTYPEE6$valueE",
   "size" : 4,
   "source_file" : "/system/core/libutils/include/utils/TypeHelpers.h",
   "underlying_type" : "_ZTIj"
  },
  {
   "alignment" : 4,
   "enum_fields" :
   [
    {
     "enum_field_value" : 1,
     "name" : "android::trait_pointer<OMX_BUFFERHEADERTYPE *>::value"
    }
   ],
   "linker_set_key" : "_ZTIN7android13trait_pointerIP20OMX_BUFFERHEADERTYPEE6$valueE",
   "name" : "android::trait_pointer<OMX_BUFFERHEADERTYPE *>::(anonymous enum at system/core/libutils/include/utils/TypeHelpers.h:40:51)",
   "referenced_type" : "_ZTIN7android13trait_pointerIP20OMX_BUFFERHEADERTYPEE6$valueE",
   "self_type" : "_ZTIN7android13trait_pointerIP20OMX_BUFFERHEADERTYPEE6$valueE",
   "size" : 4,
   "source_file" : "/system/core/libutils/include/utils/TypeHelpers.h",
   "underlying_type" : "_ZTIj"
  },
  {
   "alignment" : 4,
   "enum_fields" :
   [
    {
     "enum_field_value" : 1,
     "name" : "android::trait_pointer<android::OMXPluginBase *>::value"
    }
   ],
   "linker_set_key" : "_ZTIN7android13trait_pointerIPNS_13OMXPluginBaseEE6$valueE",
   "name" : "android::trait_pointer<OMXPluginBase *>::(anonymous enum at system/core/libutils/include/utils/TypeHelpers.h:40:51)",
   "referenced_type" : "_ZTIN7android13trait_pointerIPNS_13OMXPluginBaseEE6$valueE",
   "self_type" : "_ZTIN7android13trait_pointerIPNS_13OMXPluginBaseEE6$valueE",
   "size" : 4,
   "source_file" : "/system/core/libutils/include/utils/TypeHelpers.h",
   "underlying_type" : "_ZTIj"
  },
  {
   "alignment" : 4,
   "enum_fields" :
   [
    {
     "enum_field_value" : 1,
     "name" : "android::trait_pointer<android::OMXNodeInstance *>::value"
    }
   ],
   "linker_set_key" : "_ZTIN7android13trait_pointerIPNS_15OMXNodeInstanceEE6$valueE",
   "name" : "android::trait_pointer<OMXNodeInstance *>::(anonymous enum at system/core/libutils/include/utils/TypeHelpers.h:40:51)",
   "referenced_type" : "_ZTIN7android13trait_pointerIPNS_15OMXNodeInstanceEE6$valueE",
   "self_type" : "_ZTIN7android13trait_pointerIPNS_15OMXNodeInstanceEE6$valueE",
   "size" : 4,
   "source_file" : "/system/core/libutils/include/utils/TypeHelpers.h",
   "underlying_type" : "_ZTIj"
  },
  {
   "alignment" : 4,
   "enum_fields" :
   [
    {
     "enum_field_value" : 0,
     "name" : "android::trait_pointer<unsigned int>::value"
    }
   ],
   "linker_set_key" : "_ZTIN7android13trait_pointerIjE6$valueE",
   "name" : "android::trait_pointer<unsigned int>::(anonymous enum at system/core/libutils/include/utils/TypeHelpers.h:39:51)",
   "referenced_type" : "_ZTIN7android13trait_pointerIjE6$valueE",
   "self_type" : "_ZTIN7android13trait_pointerIjE6$valueE",
   "size" : 4,
   "source_file" : "/system/core/libutils/include/utils/TypeHelpers.h",
   "underlying_type" : "_ZTIj"
  },
  {
   "alignment" : 4,
   "enum_fields" :
   [
    {
     "enum_field_value" : 0,
     "name" : "android::trait_pointer<long>::value"
    }
   ],
   "linker_set_key" : "_ZTIN7android13trait_pointerIlE6$valueE",
   "name" : "android::trait_pointer<long>::(anonymous enum at system/core/libutils/include/utils/TypeHelpers.h:39:51)",
   "referenced_type" : "_ZTIN7android13trait_pointerIlE6$valueE",
   "self_type" : "_ZTIN7android13trait_pointerIlE6$valueE",
   "size" : 4,
   "source_file" : "/system/core/libutils/include/utils/TypeHelpers.h",
   "underlying_type" : "_ZTIj"
  },
  {
   "alignment" : 4,
   "enum_fields" :
   [
    {
     "enum_field_value" : 0,
     "name" : "android::OK"
    },
    {
     "enum_field_value" : 0,
     "name" : "android::NO_ERROR"
    },
    {
     "enum_field_value" : -2147483648,
     "name" : "android::UNKNOWN_ERROR"
    },
    {
     "enum_field_value" : -12,
     "name" : "android::NO_MEMORY"
    },
    {
     "enum_field_value" : -38,
     "name" : "android::INVALID_OPERATION"
    },
    {
     "enum_field_value" : -22,
     "name" : "android::BAD_VALUE"
    },
    {
     "enum_field_value" : -2147483647,
     "name" : "android::BAD_TYPE"
    },
    {
     "enum_field_value" : -2,
     "name" : "android::NAME_NOT_FOUND"
    },
    {
     "enum_field_value" : -1,
     "name" : "android::PERMISSION_DENIED"
    },
    {
     "enum_field_value" : -19,
     "name" : "android::NO_INIT"
    },
    {
     "enum_field_value" : -17,
     "name" : "android::ALREADY_EXISTS"
    },
    {
     "enum_field_value" : -32,
     "name" : "android::DEAD_OBJECT"
    },
    {
     "enum_field_value" : -2147483646,
     "name" : "android::FAILED_TRANSACTION"
    },
    {
     "enum_field_value" : -75,
     "name" : "android::BAD_INDEX"
    },
    {
     "enum_field_value" : -61,
     "name" : "android::NOT_ENOUGH_DATA"
    },
    {
     "enum_field_value" : -11,
     "name" : "android::WOULD_BLOCK"
    },
    {
     "enum_field_value" : -110,
     "name" : "android::TIMED_OUT"
    },
    {
     "enum_field_value" : -74,
     "name" : "android::UNKNOWN_TRANSACTION"
    },
    {
     "enum_field_value" : -2147483641,
     "name" : "android::FDS_NOT_ALLOWED"
    },
    {
     "enum_field_value" : -2147483640,
     "name" : "android::UNEXPECTED_NULL"
    }
   ],
   "linker_set_key" : "_ZTIN7android15$ALREADY_EXISTSE",
   "name" : "android::(anonymous enum at system/core/libutils/include/utils/Errors.h:43:1)",
   "referenced_type" : "_ZTIN7android15$ALREADY_EXISTSE",
   "self_type" : "_ZTIN7android15$ALREADY_EXISTSE",
   "size" : 4,
   "source_file" : "/system/core/libutils/include/utils/Errors.h",
   "underlying_type" : "_ZTIi"
  },
  {
   "alignment" : 4,
   "enum_fields" :
   [
    {
     "enum_field_value" : -1000,
     "name" : "android::MEDIA_ERROR_BASE"
    },
    {
     "enum_field_value" : -1000,
     "name" : "android::ERROR_ALREADY_CONNECTED"
    },
    {
     "enum_field_value" : -1001,
     "name" : "android::ERROR_NOT_CONNECTED"
    },
    {
     "enum_field_value" : -1002,
     "name" : "android::ERROR_UNKNOWN_HOST"
    },
    {
     "enum_field_value" : -1003,
     "name" : "android::ERROR_CANNOT_CONNECT"
    },
    {
     "enum_field_value" : -1004,
     "name" : "android::ERROR_IO"
    },
    {
     "enum_field_value" : -1005,
     "name" : "android::ERROR_CONNECTION_LOST"
    },
    {
     "enum_field_value" : -1007,
     "name" : "android::ERROR_MALFORMED"
    },
    {
     "enum_field_value" : -1008,
     "name" : "android::ERROR_OUT_OF_RANGE"
    },
    {
     "enum_field_value" : -1009,
     "name" : "android::ERROR_BUFFER_TOO_SMALL"
    },
    {
     "enum_field_value" : -1010,
     "name" : "android::ERROR_UNSUPPORTED"
    },
    {
     "enum_field_value" : -1011,
     "name" : "android::ERROR_END_OF_STREAM"
    },
    {
     "enum_field_value" : -1012,
     "name" : "android::INFO_FORMAT_CHANGED"
    },
    {
     "enum_field_value" : -1013,
     "name" : "android::INFO_DISCONTINUITY"
    },
    {
     "enum_field_value" : -1014,
     "name" : "android::INFO_OUTPUT_BUFFERS_CHANGED"
    },
    {
     "enum_field_value" : -2000,
     "name" : "android::DRM_ERROR_BASE"
    },
    {
     "enum_field_value" : -2000,
     "name" : "android::ERROR_DRM_UNKNOWN"
    },
    {
     "enum_field_value" : -2001,
     "name" : "android::ERROR_DRM_NO_LICENSE"
    },
    {
     "enum_field_value" : -2002,
     "name" : "android::ERROR_DRM_LICENSE_EXPIRED"
    },
    {
     "enum_field_value" : -2003,
     "name" : "android::ERROR_DRM_SESSION_NOT_OPENED"
    },
    {
     "enum_field_value" : -2004,
     "name" : "android::ERROR_DRM_DECRYPT_UNIT_NOT_INITIALIZED"
    },
    {
     "enum_field_value" : -2005,
     "name" : "android::ERROR_DRM_DECRYPT"
    },
    {
     "enum_field_value" : -2006,
     "name" : "android::ERROR_DRM_CANNOT_HANDLE"
    },
    {
     "enum_field_value" : -2007,
     "name" : "android::ERROR_DRM_TAMPER_DETECTED"
    },
    {
     "enum_field_value" : -2008,
     "name" : "android::ERROR_DRM_NOT_PROVISIONED"
    },
    {
     "enum_field_value" : -2009,
     "name" : "android::ERROR_DRM_DEVICE_REVOKED"
    },
    {
     "enum_field_value" : -2010,
     "name" : "android::ERROR_DRM_RESOURCE_BUSY"
    },
    {
     "enum_field_value" : -2011,
     "name" : "android::ERROR_DRM_INSUFFICIENT_OUTPUT_PROTECTION"
    },
    {
     "enum_field_value" : -2012,
     "name" : "android::ERROR_DRM_INSUFFICIENT_SECURITY"
    },
    {
     "enum_field_value" : -2013,
     "name" : "android::ERROR_DRM_FRAME_TOO_LARGE"
    },
    {
     "enum_field_value" : -2014,
     "name" : "android::ERROR_DRM_RESOURCE_CONTENTION"
    },
    {
     "enum_field_value" : -2015,
     "name" : "android::ERROR_DRM_SESSION_LOST_STATE"
    },
    {
     "enum_field_value" : -2016,
     "name" : "android::ERROR_DRM_INVALID_STATE"
    },
    {
     "enum_field_value" : -2016,
     "name" : "android::ERROR_DRM_LAST_USED_ERRORCODE"
    },
    {
     "enum_field_value" : -2500,
     "name" : "android::ERROR_DRM_VENDOR_MAX"
    },
    {
     "enum_field_value" : -2999,
     "name" : "android::ERROR_DRM_VENDOR_MIN"
    },
    {
     "enum_field_value" : -3000,
     "name" : "android::HEARTBEAT_ERROR_BASE"
    },
    {
     "enum_field_value" : -3000,
     "name" : "android::ERROR_HEARTBEAT_TERMINATE_REQUESTED"
    },
    {
     "enum_field_value" : -4000,
     "name" : "android::CAS_ERROR_BASE"
    },
    {
     "enum_field_value" : -4000,
     "name" : "android::ERROR_CAS_UNKNOWN"
    },
    {
     "enum_field_value" : -4001,
     "name" : "android::ERROR_CAS_NO_LICENSE"
    },
    {
     "enum_field_value" : -4002,
     "name" : "android::ERROR_CAS_LICENSE_EXPIRED"
    },
    {
     "enum_field_value" : -4003,
     "name" : "android::ERROR_CAS_SESSION_NOT_OPENED"
    },
    {
     "enum_field_value" : -4004,
     "name" : "android::ERROR_CAS_DECRYPT_UNIT_NOT_INITIALIZED"
    },
    {
     "enum_field_value" : -4005,
     "name" : "android::ERROR_CAS_DECRYPT"
    },
    {
     "enum_field_value" : -4006,
     "name" : "android::ERROR_CAS_CANNOT_HANDLE"
    },
    {
     "enum_field_value" : -4007,
     "name" : "android::ERROR_CAS_TAMPER_DETECTED"
    },
    {
     "enum_field_value" : -4008,
     "name" : "android::ERROR_CAS_NOT_PROVISIONED"
    },
    {
     "enum_field_value" : -4009,
     "name" : "android::ERROR_CAS_DEVICE_REVOKED"
    },
    {
     "enum_field_value" : -4010,
     "name" : "android::ERROR_CAS_RESOURCE_BUSY"
    },
    {
     "enum_field_value" : -4011,
     "name" : "android::ERROR_CAS_INSUFFICIENT_OUTPUT_PROTECTION"
    },
    {
     "enum_field_value" : -4012,
     "name" : "android::ERROR_CAS_NEED_ACTIVATION"
    },
    {
     "enum_field_value" : -4013,
     "name" : "android::ERROR_CAS_NEED_PAIRING"
    },
    {
     "enum_field_value" : -4014,
     "name" : "android::ERROR_CAS_NO_CARD"
    },
    {
     "enum_field_value" : -4015,
     "name" : "android::ERROR_CAS_CARD_MUTE"
    },
    {
     "enum_field_value" : -4016,
     "name" : "android::ERROR_CAS_CARD_INVALID"
    },
    {
     "enum_field_value" : -4017,
     "name" : "android::ERROR_CAS_BLACKOUT"
    },
    {
     "enum_field_value" : -4018,
     "name" : "android::ERROR_CAS_REBOOTING"
    },
    {
     "enum_field_value" : -4018,
     "name" : "android::ERROR_CAS_LAST_USED_ERRORCODE"
    },
    {
     "enum_field_value" : -4500,
     "name" : "android::ERROR_CAS_VENDOR_MAX"
    },
    {
     "enum_field_value" : -4999,
     "name" : "android::ERROR_CAS_VENDOR_MIN"
    },
    {
     "enum_field_value" : -1878982657,
     "name" : "android::ERROR_CODEC_MAX"
    },
    {
     "enum_field_value" : -2147479552,
     "name" : "android::ERROR_CODEC_MIN"
    }
   ],
   "linker_set_key" : "_ZTIN7android15$CAS_ERROR_BASEE",
   "name" : "android::(anonymous enum at frameworks/av/media/libstagefright/include/media/stagefright/MediaErrors.h:25:1)",
   "referenced_type" : "_ZTIN7android15$CAS_ERROR_BASEE",
   "self_type" : "_ZTIN7android15$CAS_ERROR_BASEE",
   "size" : 4,
   "source_file" : "/frameworks/av/media/libstagefright/include/media/stagefright/MediaErrors.h",
   "underlying_type" : "_ZTIi"
  },
  {
   "alignment" : 4,
   "enum_fields" :
   [
    {
     "enum_field_value" : 19,
     "name" : "android::PRIORITY_LOWEST"
    },
    {
     "enum_field_value" : 10,
     "name" : "android::PRIORITY_BACKGROUND"
    },
    {
     "enum_field_value" : 0,
     "name" : "android::PRIORITY_NORMAL"
    },
    {
     "enum_field_value" : -2,
     "name" : "android::PRIORITY_FOREGROUND"
    },
    {
     "enum_field_value" : -4,
     "name" : "android::PRIORITY_DISPLAY"
    },
    {
     "enum_field_value" : -8,
     "name" : "android::PRIORITY_URGENT_DISPLAY"
    },
    {
     "enum_field_value" : -16,
     "name" : "android::PRIORITY_AUDIO"
    },
    {
     "enum_field_value" : -19,
     "name" : "android::PRIORITY_URGENT_AUDIO"
    },
    {
     "enum_field_value" : -20,
     "name" : "android::PRIORITY_HIGHEST"
    },
    {
     "enum_field_value" : 0,
     "name" : "android::PRIORITY_DEFAULT"
    },
    {
     "enum_field_value" : -1,
     "name" : "android::PRIORITY_MORE_FAVORABLE"
    },
    {
     "enum_field_value" : 1,
     "name" : "android::PRIORITY_LESS_FAVORABLE"
    }
   ],
   "linker_set_key" : "_ZTIN7android15$PRIORITY_AUDIOE",
   "name" : "android::(anonymous enum at system/core/libutils/include/utils/ThreadDefs.h:53:1)",
   "referenced_type" : "_ZTIN7android15$PRIORITY_AUDIOE",
   "self_type" : "_ZTIN7android15$PRIORITY_AUDIOE",
   "size" : 4,
   "source_file" : "/system/core/libutils/include/utils/ThreadDefs.h",
   "underlying_type" : "_ZTIi"
  },
  {
   "access" : "private",
   "alignment" : 4,
   "enum_fields" :
   [
    {
     "enum_field_value" : 0,
     "name" : "android::OMXNodeInstance::kSecureBufferTypeUnknown"
    },
    {
     "enum_field_value" : 1,
     "name" : "android::OMXNodeInstance::kSecureBufferTypeOpaque"
    },
    {
     "enum_field_value" : 2,
     "name" : "android::OMXNodeInstance::kSecureBufferTypeNativeHandle"
    }
   ],
   "linker_set_key" : "_ZTIN7android15OMXNodeInstance16SecureBufferTypeE",
   "name" : "android::OMXNodeInstance::SecureBufferType",
   "referenced_type" : "_ZTIN7android15OMXNodeInstance16SecureBufferTypeE",
   "self_type" : "_ZTIN7android15OMXNodeInstance16SecureBufferTypeE",
   "size" : 4,
   "source_file" : "/frameworks/av/media/libstagefright/omx/include/media/stagefright/omx/OMXNodeInstance.h",
   "underlying_type" : "_ZTIj"
  },
  {
   "alignment" : 4,
   "enum_fields" :
   [
    {
     "enum_field_value" : 1,
     "name" : "android::OMXNodeInstance::kRequiresAllocateBufferOnInputPorts"
    },
    {
     "enum_field_value" : 2,
     "name" : "android::OMXNodeInstance::kRequiresAllocateBufferOnOutputPorts"
    },
    {
     "enum_field_value" : 3,
     "name" : "android::OMXNodeInstance::kQuirksMask"
    }
   ],
   "linker_set_key" : "_ZTIN7android15OMXNodeInstance6QuirksE",
   "name" : "android::OMXNodeInstance::Quirks",
   "referenced_type" : "_ZTIN7android15OMXNodeInstance6QuirksE",
   "self_type" : "_ZTIN7android15OMXNodeInstance6QuirksE",
   "size" : 4,
   "source_file" : "/frameworks/av/media/libstagefright/omx/include/media/stagefright/omx/OMXNodeInstance.h",
   "underlying_type" : "_ZTIj"
  },
  {
   "alignment" : 4,
   "enum_fields" :
   [
    {
     "enum_field_value" : 0,
     "name" : "android::aggregate_traits<android::wp<android::hidl::base::V1_0::IBase>, android::sp<android::OMXNodeInstance> >::is_pointer"
    },
    {
     "enum_field_value" : 0,
     "name" : "android::aggregate_traits<android::wp<android::hidl::base::V1_0::IBase>, android::sp<android::OMXNodeInstance> >::has_trivial_ctor"
    },
    {
     "enum_field_value" : 0,
     "name" : "android::aggregate_traits<android::wp<android::hidl::base::V1_0::IBase>, android::sp<android::OMXNodeInstance> >::has_trivial_dtor"
    },
    {
     "enum_field_value" : 0,
     "name" : "android::aggregate_traits<android::wp<android::hidl::base::V1_0::IBase>, android::sp<android::OMXNodeInstance> >::has_trivial_copy"
    },
    {
     "enum_field_value" : 0,
     "name" : "android::aggregate_traits<android::wp<android::hidl::base::V1_0::IBase>, android::sp<android::OMXNodeInstance> >::has_trivial_move"
    }
   ],
   "linker_set_key" : "_ZTIN7android16aggregate_traitsINS_2wpINS_4hidl4base4V1_05IBaseEEENS_2spINS_15OMXNodeInstanceEEEE17$has_trivial_copyE",
   "name" : "android::aggregate_traits<wp<IBase>, sp<OMXNodeInstance> >::(anonymous enum at system/core/libutils/include/utils/TypeHelpers.h:60:5)",
   "referenced_type" : "_ZTIN7android16aggregate_traitsINS_2wpINS_4hidl4base4V1_05IBaseEEENS_2spINS_15OMXNodeInstanceEEEE17$has_trivial_copyE",
   "self_type" : "_ZTIN7android16aggregate_traitsINS_2wpINS_4hidl4base4V1_05IBaseEEENS_2spINS_15OMXNodeInstanceEEEE17$has_trivial_copyE",
   "size" : 4,
   "source_file" : "/system/core/libutils/include/utils/TypeHelpers.h",
   "underlying_type" : "_ZTIj"
  },
  {
   "alignment" : 4,
   "enum_fields" :
   [
    {
     "enum_field_value" : 0,
     "name" : "android::aggregate_traits<android::String8, android::OMXPluginBase *>::is_pointer"
    },
    {
     "enum_field_value" : 0,
     "name" : "android::aggregate_traits<android::String8, android::OMXPluginBase *>::has_trivial_ctor"
    },
    {
     "enum_field_value" : 0,
     "name" : "android::aggregate_traits<android::String8, android::OMXPluginBase *>::has_trivial_dtor"
    },
    {
     "enum_field_value" : 0,
     "name" : "android::aggregate_traits<android::String8, android::OMXPluginBase *>::has_trivial_copy"
    },
    {
     "enum_field_value" : 1,
     "name" : "android::aggregate_traits<android::String8, android::OMXPluginBase *>::has_trivial_move"
    }
   ],
   "linker_set_key" : "_ZTIN7android16aggregate_traitsINS_7String8EPNS_13OMXPluginBaseEE17$has_trivial_copyE",
   "name" : "android::aggregate_traits<String8, OMXPluginBase *>::(anonymous enum at system/core/libutils/include/utils/TypeHelpers.h:60:5)",
   "referenced_type" : "_ZTIN7android16aggregate_traitsINS_7String8EPNS_13OMXPluginBaseEE17$has_trivial_copyE",
   "self_type" : "_ZTIN7android16aggregate_traitsINS_7String8EPNS_13OMXPluginBaseEE17$has_trivial_copyE",
   "size" : 4,
   "source_file" : "/system/core/libutils/include/utils/TypeHelpers.h",
   "underlying_type" : "_ZTIj"
  },
  {
   "alignment" : 4,
   "enum_fields" :
   [
    {
     "enum_field_value" : 0,
     "name" : "android::aggregate_traits<OMX_COMPONENTTYPE *, android::OMXPluginBase *>::is_pointer"
    },
    {
     "enum_field_value" : 1,
     "name" : "android::aggregate_traits<OMX_COMPONENTTYPE *, android::OMXPluginBase *>::has_trivial_ctor"
    },
    {
     "enum_field_value" : 1,
     "name" : "android::aggregate_traits<OMX_COMPONENTTYPE *, android::OMXPluginBase *>::has_trivial_dtor"
    },
    {
     "enum_field_value" : 1,
     "name" : "android::aggregate_traits<OMX_COMPONENTTYPE *, android::OMXPluginBase *>::has_trivial_copy"
    },
    {
     "enum_field_value" : 1,
     "name" : "android::aggregate_traits<OMX_COMPONENTTYPE *, android::OMXPluginBase *>::has_trivial_move"
    }
   ],
   "linker_set_key" : "_ZTIN7android16aggregate_traitsIP17OMX_COMPONENTTYPEPNS_13OMXPluginBaseEE17$has_trivial_copyE",
   "name" : "android::aggregate_traits<OMX_COMPONENTTYPE *, OMXPluginBase *>::(anonymous enum at system/core/libutils/include/utils/TypeHelpers.h:60:5)",
   "referenced_type" : "_ZTIN7android16aggregate_traitsIP17OMX_COMPONENTTYPEPNS_13OMXPluginBaseEE17$has_trivial_copyE",
   "self_type" : "_ZTIN7android16aggregate_traitsIP17OMX_COMPONENTTYPEPNS_13OMXPluginBaseEE17$has_trivial_copyE",
   "size" : 4,
   "source_file" : "/system/core/libutils/include/utils/TypeHelpers.h",
   "underlying_type" : "_ZTIj"
  },
  {
   "alignment" : 4,
   "enum_fields" :
   [
    {
     "enum_field_value" : 0,
     "name" : "android::aggregate_traits<OMX_BUFFERHEADERTYPE *, unsigned int>::is_pointer"
    },
    {
     "enum_field_value" : 1,
     "name" : "android::aggregate_traits<OMX_BUFFERHEADERTYPE *, unsigned int>::has_trivial_ctor"
    },
    {
     "enum_field_value" : 1,
     "name" : "android::aggregate_traits<OMX_BUFFERHEADERTYPE *, unsigned int>::has_trivial_dtor"
    },
    {
     "enum_field_value" : 1,
     "name" : "android::aggregate_traits<OMX_BUFFERHEADERTYPE *, unsigned int>::has_trivial_copy"
    },
    {
     "enum_field_value" : 1,
     "name" : "android::aggregate_traits<OMX_BUFFERHEADERTYPE *, unsigned int>::has_trivial_move"
    }
   ],
   "linker_set_key" : "_ZTIN7android16aggregate_traitsIP20OMX_BUFFERHEADERTYPEjE17$has_trivial_copyE",
   "name" : "android::aggregate_traits<OMX_BUFFERHEADERTYPE *, unsigned int>::(anonymous enum at system/core/libutils/include/utils/TypeHelpers.h:60:5)",
   "referenced_type" : "_ZTIN7android16aggregate_traitsIP20OMX_BUFFERHEADERTYPEjE17$has_trivial_copyE",
   "self_type" : "_ZTIN7android16aggregate_traitsIP20OMX_BUFFERHEADERTYPEjE17$has_trivial_copyE",
   "size" : 4,
   "source_file" : "/system/core/libutils/include/utils/TypeHelpers.h",
   "underlying_type" : "_ZTIj"
  },
  {
   "alignment" : 4,
   "enum_fields" :
   [
    {
     "enum_field_value" : 0,
     "name" : "android::aggregate_traits<android::OMXNodeInstance *, android::wp<android::hidl::base::V1_0::IBase> >::is_pointer"
    },
    {
     "enum_field_value" : 0,
     "name" : "android::aggregate_traits<android::OMXNodeInstance *, android::wp<android::hidl::base::V1_0::IBase> >::has_trivial_ctor"
    },
    {
     "enum_field_value" : 0,
     "name" : "android::aggregate_traits<android::OMXNodeInstance *, android::wp<android::hidl::base::V1_0::IBase> >::has_trivial_dtor"
    },
    {
     "enum_field_value" : 0,
     "name" : "android::aggregate_traits<android::OMXNodeInstance *, android::wp<android::hidl::base::V1_0::IBase> >::has_trivial_copy"
    },
    {
     "enum_field_value" : 0,
     "name" : "android::aggregate_traits<android::OMXNodeInstance *, android::wp<android::hidl::base::V1_0::IBase> >::has_trivial_move"
    }
   ],
   "linker_set_key" : "_ZTIN7android16aggregate_traitsIPNS_15OMXNodeInstanceENS_2wpINS_4hidl4base4V1_05IBaseEEEE17$has_trivial_copyE",
   "name" : "android::aggregate_traits<OMXNodeInstance *, wp<IBase> >::(anonymous enum at system/core/libutils/include/utils/TypeHelpers.h:60:5)",
   "referenced_type" : "_ZTIN7android16aggregate_traitsIPNS_15OMXNodeInstanceENS_2wpINS_4hidl4base4V1_05IBaseEEEE17$has_trivial_copyE",
   "self_type" : "_ZTIN7android16aggregate_traitsIPNS_15OMXNodeInstanceENS_2wpINS_4hidl4base4V1_05IBaseEEEE17$has_trivial_copyE",
   "size" : 4,
   "source_file" : "/system/core/libutils/include/utils/TypeHelpers.h",
   "underlying_type" : "_ZTIj"
  },
  {
   "alignment" : 4,
   "enum_fields" :
   [
    {
     "enum_field_value" : 0,
     "name" : "android::aggregate_traits<unsigned int, OMX_BUFFERHEADERTYPE *>::is_pointer"
    },
    {
     "enum_field_value" : 1,
     "name" : "android::aggregate_traits<unsigned int, OMX_BUFFERHEADERTYPE *>::has_trivial_ctor"
    },
    {
     "enum_field_value" : 1,
     "name" : "android::aggregate_traits<unsigned int, OMX_BUFFERHEADERTYPE *>::has_trivial_dtor"
    },
    {
     "enum_field_value" : 1,
     "name" : "android::aggregate_traits<unsigned int, OMX_BUFFERHEADERTYPE *>::has_trivial_copy"
    },
    {
     "enum_field_value" : 1,
     "name" : "android::aggregate_traits<unsigned int, OMX_BUFFERHEADERTYPE *>::has_trivial_move"
    }
   ],
   "linker_set_key" : "_ZTIN7android16aggregate_traitsIjP20OMX_BUFFERHEADERTYPEE17$has_trivial_copyE",
   "name" : "android::aggregate_traits<unsigned int, OMX_BUFFERHEADERTYPE *>::(anonymous enum at system/core/libutils/include/utils/TypeHelpers.h:60:5)",
   "referenced_type" : "_ZTIN7android16aggregate_traitsIjP20OMX_BUFFERHEADERTYPEE17$has_trivial_copyE",
   "self_type" : "_ZTIN7android16aggregate_traitsIjP20OMX_BUFFERHEADERTYPEE17$has_trivial_copyE",
   "size" : 4,
   "source_file" : "/system/core/libutils/include/utils/TypeHelpers.h",
   "underlying_type" : "_ZTIj"
  },
  {
   "alignment" : 4,
   "enum_fields" :
   [
    {
     "enum_field_value" : 0,
     "name" : "android::aggregate_traits<unsigned int, unsigned int>::is_pointer"
    },
    {
     "enum_field_value" : 1,
     "name" : "android::aggregate_traits<unsigned int, unsigned int>::has_trivial_ctor"
    },
    {
     "enum_field_value" : 1,
     "name" : "android::aggregate_traits<unsigned int, unsigned int>::has_trivial_dtor"
    },
    {
     "enum_field_value" : 1,
     "name" : "android::aggregate_traits<unsigned int, unsigned int>::has_trivial_copy"
    },
    {
     "enum_field_value" : 1,
     "name" : "android::aggregate_traits<unsigned int, unsigned int>::has_trivial_move"
    }
   ],
   "linker_set_key" : "_ZTIN7android16aggregate_traitsIjjE17$has_trivial_copyE",
   "name" : "android::aggregate_traits<unsigned int, unsigned int>::(anonymous enum at system/core/libutils/include/utils/TypeHelpers.h:60:5)",
   "referenced_type" : "_ZTIN7android16aggregate_traitsIjjE17$has_trivial_copyE",
   "self_type" : "_ZTIN7android16aggregate_traitsIjjE17$has_trivial_copyE",
   "size" : 4,
   "source_file" : "/system/core/libutils/include/utils/TypeHelpers.h",
   "underlying_type" : "_ZTIj"
  },
  {
   "alignment" : 4,
   "enum_fields" :
   [
    {
     "enum_field_value" : 0,
     "name" : "android::aggregate_traits<long, long>::is_pointer"
    },
    {
     "enum_field_value" : 1,
     "name" : "android::aggregate_traits<long, long>::has_trivial_ctor"
    },
    {
     "enum_field_value" : 1,
     "name" : "android::aggregate_traits<long, long>::has_trivial_dtor"
    },
    {
     "enum_field_value" : 1,
     "name" : "android::aggregate_traits<long, long>::has_trivial_copy"
    },
    {
     "enum_field_value" : 1,
     "name" : "android::aggregate_traits<long, long>::has_trivial_move"
    }
   ],
   "linker_set_key" : "_ZTIN7android16aggregate_traitsIllE17$has_trivial_copyE",
   "name" : "android::aggregate_traits<long, long>::(anonymous enum at system/core/libutils/include/utils/TypeHelpers.h:60:5)",
   "referenced_type" : "_ZTIN7android16aggregate_traitsIllE17$has_trivial_copyE",
   "self_type" : "_ZTIN7android16aggregate_traitsIllE17$has_trivial_copyE",
   "size" : 4,
   "source_file" : "/system/core/libutils/include/utils/TypeHelpers.h",
   "underlying_type" : "_ZTIj"
  },
  {
   "alignment" : 4,
   "enum_fields" :
   [
    {
     "enum_field_value" : 0,
     "name" : "android::kMetadataBufferTypeCameraSource"
    },
    {
     "enum_field_value" : 1,
     "name" : "android::kMetadataBufferTypeGrallocSource"
    },
    {
     "enum_field_value" : 2,
     "name" : "android::kMetadataBufferTypeANWBuffer"
    },
    {
     "enum_field_value" : 3,
     "name" : "android::kMetadataBufferTypeNativeHandleSource"
    },
    {
     "enum_field_value" : -1,
     "name" : "android::kMetadataBufferTypeInvalid"
    }
   ],
   "linker_set_key" : "_ZTIN7android18MetadataBufferTypeE",
   "name" : "android::MetadataBufferType",
   "referenced_type" : "_ZTIN7android18MetadataBufferTypeE",
   "self_type" : "_ZTIN7android18MetadataBufferTypeE",
   "size" : 4,
   "source_file" : "/frameworks/native/headers/media_plugin/media/hardware/MetadataBufferType.h",
   "underlying_type" : "_ZTIi"
  },
  {
   "alignment" : 4,
   "enum_fields" :
   [
    {
     "enum_field_value" : 0,
     "name" : "android::trait_trivial_copy<OMX_INDEXTYPE>::value"
    }
   ],
   "linker_set_key" : "_ZTIN7android18trait_trivial_copyI13OMX_INDEXTYPEE6$valueE",
   "name" : "android::trait_trivial_copy<OMX_INDEXTYPE>::(anonymous enum at system/core/libutils/include/utils/TypeHelpers.h:37:51)",
   "referenced_type" : "_ZTIN7android18trait_trivial_copyI13OMX_INDEXTYPEE6$valueE",
   "self_type" : "_ZTIN7android18trait_trivial_copyI13OMX_INDEXTYPEE6$valueE",
   "size" : 4,
   "source_file" : "/system/core/libutils/include/utils/TypeHelpers.h",
   "underlying_type" : "_ZTIj"
  },
  {
   "alignment" : 4,
   "enum_fields" :
   [
    {
     "enum_field_value" : 0,
     "name" : "android::trait_trivial_copy<android::OMXNodeInstance::ActiveBuffer>::value"
    }
   ],
   "linker_set_key" : "_ZTIN7android18trait_trivial_copyINS_15OMXNodeInstance12ActiveBufferEE6$valueE",
   "name" : "android::trait_trivial_copy<ActiveBuffer>::(anonymous enum at system/core/libutils/include/utils/TypeHelpers.h:37:51)",
   "referenced_type" : "_ZTIN7android18trait_trivial_copyINS_15OMXNodeInstance12ActiveBufferEE6$valueE",
   "self_type" : "_ZTIN7android18trait_trivial_copyINS_15OMXNodeInstance12ActiveBufferEE6$valueE",
   "size" : 4,
   "source_file" : "/system/core/libutils/include/utils/TypeHelpers.h",
   "underlying_type" : "_ZTIj"
  },
  {
   "alignment" : 4,
   "enum_fields" :
   [
    {
     "enum_field_value" : 0,
     "name" : "android::trait_trivial_copy<android::key_value_pair_t<android::wp<android::hidl::base::V1_0::IBase>, android::sp<android::OMXNodeInstance> > >::value"
    }
   ],
   "linker_set_key" : "_ZTIN7android18trait_trivial_copyINS_16key_value_pair_tINS_2wpINS_4hidl4base4V1_05IBaseEEENS_2spINS_15OMXNodeInstanceEEEEEE6$valueE",
   "name" : "android::trait_trivial_copy<key_value_pair_t<wp<IBase>, sp<OMXNodeInstance> > >::(anonymous enum at system/core/libutils/include/utils/TypeHelpers.h:287:3)",
   "referenced_type" : "_ZTIN7android18trait_trivial_copyINS_16key_value_pair_tINS_2wpINS_4hidl4base4V1_05IBaseEEENS_2spINS_15OMXNodeInstanceEEEEEE6$valueE",
   "self_type" : "_ZTIN7android18trait_trivial_copyINS_16key_value_pair_tINS_2wpINS_4hidl4base4V1_05IBaseEEENS_2spINS_15OMXNodeInstanceEEEEEE6$valueE",
   "size" : 4,
   "source_file" : "/system/core/libutils/include/utils/TypeHelpers.h",
   "underlying_type" : "_ZTIj"
  },
  {
   "alignment" : 4,
   "enum_fields" :
   [
    {
     "enum_field_value" : 0,
     "name" : "android::trait_trivial_copy<android::key_value_pair_t<android::String8, android::OMXPluginBase *> >::value"
    }
   ],
   "linker_set_key" : "_ZTIN7android18trait_trivial_copyINS_16key_value_pair_tINS_7String8EPNS_13OMXPluginBaseEEEE6$valueE",
   "name" : "android::trait_trivial_copy<key_value_pair_t<String8, OMXPluginBase *> >::(anonymous enum at system/core/libutils/include/utils/TypeHelpers.h:287:3)",
   "referenced_type" : "_ZTIN7android18trait_trivial_copyINS_16key_value_pair_tINS_7String8EPNS_13OMXPluginBaseEEEE6$valueE",
   "self_type" : "_ZTIN7android18trait_trivial_copyINS_16key_value_pair_tINS_7String8EPNS_13OMXPluginBaseEEEE6$valueE",
   "size" : 4,
   "source_file" : "/system/core/libutils/include/utils/TypeHelpers.h",
   "underlying_type" : "_ZTIj"
  },
  {
   "alignment" : 4,
   "enum_fields" :
   [
    {
     "enum_field_value" : 1,
     "name" : "android::trait_trivial_copy<android::key_value_pair_t<OMX_COMPONENTTYPE *, android::OMXPluginBase *> >::value"
    }
   ],
   "linker_set_key" : "_ZTIN7android18trait_trivial_copyINS_16key_value_pair_tIP17OMX_COMPONENTTYPEPNS_13OMXPluginBaseEEEE6$valueE",
   "name" : "android::trait_trivial_copy<key_value_pair_t<OMX_COMPONENTTYPE *, OMXPluginBase *> >::(anonymous enum at system/core/libutils/include/utils/TypeHelpers.h:287:3)",
   "referenced_type" : "_ZTIN7android18trait_trivial_copyINS_16key_value_pair_tIP17OMX_COMPONENTTYPEPNS_13OMXPluginBaseEEEE6$valueE",
   "self_type" : "_ZTIN7android18trait_trivial_copyINS_16key_value_pair_tIP17OMX_COMPONENTTYPEPNS_13OMXPluginBaseEEEE6$valueE",
   "size" : 4,
   "source_file" : "/system/core/libutils/include/utils/TypeHelpers.h",
   "underlying_type" : "_ZTIj"
  },
  {
   "alignment" : 4,
   "enum_fields" :
   [
    {
     "enum_field_value" : 1,
     "name" : "android::trait_trivial_copy<android::key_value_pair_t<OMX_BUFFERHEADERTYPE *, unsigned int> >::value"
    }
   ],
   "linker_set_key" : "_ZTIN7android18trait_trivial_copyINS_16key_value_pair_tIP20OMX_BUFFERHEADERTYPEjEEE6$valueE",
   "name" : "android::trait_trivial_copy<key_value_pair_t<OMX_BUFFERHEADERTYPE *, unsigned int> >::(anonymous enum at system/core/libutils/include/utils/TypeHelpers.h:287:3)",
   "referenced_type" : "_ZTIN7android18trait_trivial_copyINS_16key_value_pair_tIP20OMX_BUFFERHEADERTYPEjEEE6$valueE",
   "self_type" : "_ZTIN7android18trait_trivial_copyINS_16key_value_pair_tIP20OMX_BUFFERHEADERTYPEjEEE6$valueE",
   "size" : 4,
   "source_file" : "/system/core/libutils/include/utils/TypeHelpers.h",
   "underlying_type" : "_ZTIj"
  },
  {
   "alignment" : 4,
   "enum_fields" :
   [
    {
     "enum_field_value" : 0,
     "name" : "android::trait_trivial_copy<android::key_value_pair_t<android::OMXNodeInstance *, android::wp<android::hidl::base::V1_0::IBase> > >::value"
    }
   ],
   "linker_set_key" : "_ZTIN7android18trait_trivial_copyINS_16key_value_pair_tIPNS_15OMXNodeInstanceENS_2wpINS_4hidl4base4V1_05IBaseEEEEEE6$valueE",
   "name" : "android::trait_trivial_copy<key_value_pair_t<OMXNodeInstance *, wp<IBase> > >::(anonymous enum at system/core/libutils/include/utils/TypeHelpers.h:287:3)",
   "referenced_type" : "_ZTIN7android18trait_trivial_copyINS_16key_value_pair_tIPNS_15OMXNodeInstanceENS_2wpINS_4hidl4base4V1_05IBaseEEEEEE6$valueE",
   "self_type" : "_ZTIN7android18trait_trivial_copyINS_16key_value_pair_tIPNS_15OMXNodeInstanceENS_2wpINS_4hidl4base4V1_05IBaseEEEEEE6$valueE",
   "size" : 4,
   "source_file" : "/system/core/libutils/include/utils/TypeHelpers.h",
   "underlying_type" : "_ZTIj"
  },
  {
   "alignment" : 4,
   "enum_fields" :
   [
    {
     "enum_field_value" : 1,
     "name" : "android::trait_trivial_copy<android::key_value_pair_t<unsigned int, OMX_BUFFERHEADERTYPE *> >::value"
    }
   ],
   "linker_set_key" : "_ZTIN7android18trait_trivial_copyINS_16key_value_pair_tIjP20OMX_BUFFERHEADERTYPEEEE6$valueE",
   "name" : "android::trait_trivial_copy<key_value_pair_t<unsigned int, OMX_BUFFERHEADERTYPE *> >::(anonymous enum at system/core/libutils/include/utils/TypeHelpers.h:287:3)",
   "referenced_type" : "_ZTIN7android18trait_trivial_copyINS_16key_value_pair_tIjP20OMX_BUFFERHEADERTYPEEEE6$valueE",
   "self_type" : "_ZTIN7android18trait_trivial_copyINS_16key_value_pair_tIjP20OMX_BUFFERHEADERTYPEEEE6$valueE",
   "size" : 4,
   "source_file" : "/system/core/libutils/include/utils/TypeHelpers.h",
   "underlying_type" : "_ZTIj"
  },
  {
   "alignment" : 4,
   "enum_fields" :
   [
    {
     "enum_field_value" : 1,
     "name" : "android::trait_trivial_copy<android::key_value_pair_t<unsigned int, unsigned int> >::value"
    }
   ],
   "linker_set_key" : "_ZTIN7android18trait_trivial_copyINS_16key_value_pair_tIjjEEE6$valueE",
   "name" : "android::trait_trivial_copy<key_value_pair_t<unsigned int, unsigned int> >::(anonymous enum at system/core/libutils/include/utils/TypeHelpers.h:287:3)",
   "referenced_type" : "_ZTIN7android18trait_trivial_copyINS_16key_value_pair_tIjjEEE6$valueE",
   "self_type" : "_ZTIN7android18trait_trivial_copyINS_16key_value_pair_tIjjEEE6$valueE",
   "size" : 4,
   "source_file" : "/system/core/libutils/include/utils/TypeHelpers.h",
   "underlying_type" : "_ZTIj"
  },
  {
   "alignment" : 4,
   "enum_fields" :
   [
    {
     "enum_field_value" : 1,
     "name" : "android::trait_trivial_copy<android::key_value_pair_t<long, long> >::value"
    }
   ],
   "linker_set_key" : "_ZTIN7android18trait_trivial_copyINS_16key_value_pair_tIllEEE6$valueE",
   "name" : "android::trait_trivial_copy<key_value_pair_t<long, long> >::(anonymous enum at system/core/libutils/include/utils/TypeHelpers.h:287:3)",
   "referenced_type" : "_ZTIN7android18trait_trivial_copyINS_16key_value_pair_tIllEEE6$valueE",
   "self_type" : "_ZTIN7android18trait_trivial_copyINS_16key_value_pair_tIllEEE6$valueE",
   "size" : 4,
   "source_file" : "/system/core/libutils/include/utils/TypeHelpers.h",
   "underlying_type" : "_ZTIj"
  },
  {
   "alignment" : 4,
   "enum_fields" :
   [
    {
     "enum_field_value" : 0,
     "name" : "android::trait_trivial_copy<android::sp<android::OMXNodeInstance> >::value"
    }
   ],
   "linker_set_key" : "_ZTIN7android18trait_trivial_copyINS_2spINS_15OMXNodeInstanceEEEE6$valueE",
   "name" : "android::trait_trivial_copy<sp<OMXNodeInstance> >::(anonymous enum at system/core/libutils/include/utils/TypeHelpers.h:37:51)",
   "referenced_type" : "_ZTIN7android18trait_trivial_copyINS_2spINS_15OMXNodeInstanceEEEE6$valueE",
   "self_type" : "_ZTIN7android18trait_trivial_copyINS_2spINS_15OMXNodeInstanceEEEE6$valueE",
   "size" : 4,
   "source_file" : "/system/core/libutils/include/utils/TypeHelpers.h",
   "underlying_type" : "_ZTIj"
  },
  {
   "alignment" : 4,
   "enum_fields" :
   [
    {
     "enum_field_value" : 0,
     "name" : "android::trait_trivial_copy<android::wp<android::hidl::base::V1_0::IBase> >::value"
    }
   ],
   "linker_set_key" : "_ZTIN7android18trait_trivial_copyINS_2wpINS_4hidl4base4V1_05IBaseEEEE6$valueE",
   "name" : "android::trait_trivial_copy<wp<IBase> >::(anonymous enum at system/core/libutils/include/utils/TypeHelpers.h:37:51)",
   "referenced_type" : "_ZTIN7android18trait_trivial_copyINS_2wpINS_4hidl4base4V1_05IBaseEEEE6$valueE",
   "self_type" : "_ZTIN7android18trait_trivial_copyINS_2wpINS_4hidl4base4V1_05IBaseEEEE6$valueE",
   "size" : 4,
   "source_file" : "/system/core/libutils/include/utils/TypeHelpers.h",
   "underlying_type" : "_ZTIj"
  },
  {
   "alignment" : 4,
   "enum_fields" :
   [
    {
     "enum_field_value" : 0,
     "name" : "android::trait_trivial_copy<android::String8>::value"
    }
   ],
   "linker_set_key" : "_ZTIN7android18trait_trivial_copyINS_7String8EE6$valueE",
   "name" : "android::trait_trivial_copy<String8>::(anonymous enum at system/core/libutils/include/utils/TypeHelpers.h:37:51)",
   "referenced_type" : "_ZTIN7android18trait_trivial_copyINS_7String8EE6$valueE",
   "self_type" : "_ZTIN7android18trait_trivial_copyINS_7String8EE6$valueE",
   "size" : 4,
   "source_file" : "/system/core/libutils/include/utils/TypeHelpers.h",
   "underlying_type" : "_ZTIj"
  },
  {
   "alignment" : 4,
   "enum_fields" :
   [
    {
     "enum_field_value" : 0,
     "name" : "android::trait_trivial_copy<OMX_COMPONENTTYPE *>::value"
    }
   ],
   "linker_set_key" : "_ZTIN7android18trait_trivial_copyIP17OMX_COMPONENTTYPEE6$valueE",
   "name" : "android::trait_trivial_copy<OMX_COMPONENTTYPE *>::(anonymous enum at system/core/libutils/include/utils/TypeHelpers.h:37:51)",
   "referenced_type" : "_ZTIN7android18trait_trivial_copyIP17OMX_COMPONENTTYPEE6$valueE",
   "self_type" : "_ZTIN7android18trait_trivial_copyIP17OMX_COMPONENTTYPEE6$valueE",
   "size" : 4,
   "source_file" : "/system/core/libutils/include/utils/TypeHelpers.h",
   "underlying_type" : "_ZTIj"
  },
  {
   "alignment" : 4,
   "enum_fields" :
   [
    {
     "enum_field_value" : 0,
     "name" : "android::trait_trivial_copy<OMX_BUFFERHEADERTYPE *>::value"
    }
   ],
   "linker_set_key" : "_ZTIN7android18trait_trivial_copyIP20OMX_BUFFERHEADERTYPEE6$valueE",
   "name" : "android::trait_trivial_copy<OMX_BUFFERHEADERTYPE *>::(anonymous enum at system/core/libutils/include/utils/TypeHelpers.h:37:51)",
   "referenced_type" : "_ZTIN7android18trait_trivial_copyIP20OMX_BUFFERHEADERTYPEE6$valueE",
   "self_type" : "_ZTIN7android18trait_trivial_copyIP20OMX_BUFFERHEADERTYPEE6$valueE",
   "size" : 4,
   "source_file" : "/system/core/libutils/include/utils/TypeHelpers.h",
   "underlying_type" : "_ZTIj"
  },
  {
   "alignment" : 4,
   "enum_fields" :
   [
    {
     "enum_field_value" : 0,
     "name" : "android::trait_trivial_copy<android::OMXPluginBase *>::value"
    }
   ],
   "linker_set_key" : "_ZTIN7android18trait_trivial_copyIPNS_13OMXPluginBaseEE6$valueE",
   "name" : "android::trait_trivial_copy<OMXPluginBase *>::(anonymous enum at system/core/libutils/include/utils/TypeHelpers.h:37:51)",
   "referenced_type" : "_ZTIN7android18trait_trivial_copyIPNS_13OMXPluginBaseEE6$valueE",
   "self_type" : "_ZTIN7android18trait_trivial_copyIPNS_13OMXPluginBaseEE6$valueE",
   "size" : 4,
   "source_file" : "/system/core/libutils/include/utils/TypeHelpers.h",
   "underlying_type" : "_ZTIj"
  },
  {
   "alignment" : 4,
   "enum_fields" :
   [
    {
     "enum_field_value" : 0,
     "name" : "android::trait_trivial_copy<android::OMXNodeInstance *>::value"
    }
   ],
   "linker_set_key" : "_ZTIN7android18trait_trivial_copyIPNS_15OMXNodeInstanceEE6$valueE",
   "name" : "android::trait_trivial_copy<OMXNodeInstance *>::(anonymous enum at system/core/libutils/include/utils/TypeHelpers.h:37:51)",
   "referenced_type" : "_ZTIN7android18trait_trivial_copyIPNS_15OMXNodeInstanceEE6$valueE",
   "self_type" : "_ZTIN7android18trait_trivial_copyIPNS_15OMXNodeInstanceEE6$valueE",
   "size" : 4,
   "source_file" : "/system/core/libutils/include/utils/TypeHelpers.h",
   "underlying_type" : "_ZTIj"
  },
  {
   "alignment" : 4,
   "enum_fields" :
   [
    {
     "enum_field_value" : 1,
     "name" : "android::trait_trivial_copy<bool>::value"
    }
   ],
   "linker_set_key" : "_ZTIN7android18trait_trivial_copyIbE6$valueE",
   "name" : "android::trait_trivial_copy<bool>::(anonymous enum at system/core/libutils/include/utils/TypeHelpers.h:98:1)",
   "referenced_type" : "_ZTIN7android18trait_trivial_copyIbE6$valueE",
   "self_type" : "_ZTIN7android18trait_trivial_copyIbE6$valueE",
   "size" : 4,
   "source_file" : "/system/core/libutils/include/utils/TypeHelpers.h",
   "underlying_type" : "_ZTIj"
  },
  {
   "alignment" : 4,
   "enum_fields" :
   [
    {
     "enum_field_value" : 1,
     "name" : "android::trait_trivial_copy<char>::value"
    }
   ],
   "linker_set_key" : "_ZTIN7android18trait_trivial_copyIcE6$valueE",
   "name" : "android::trait_trivial_copy<char>::(anonymous enum at system/core/libutils/include/utils/TypeHelpers.h:99:1)",
   "referenced_type" : "_ZTIN7android18trait_trivial_copyIcE6$valueE",
   "self_type" : "_ZTIN7android18trait_trivial_copyIcE6$valueE",
   "size" : 4,
   "source_file" : "/system/core/libutils/include/utils/TypeHelpers.h",
   "underlying_type" : "_ZTIj"
  },
  {
   "alignment" : 4,
   "enum_fields" :
   [
    {
     "enum_field_value" : 1,
     "name" : "android::trait_trivial_copy<double>::value"
    }
   ],
   "linker_set_key" : "_ZTIN7android18trait_trivial_copyIdE6$valueE",
   "name" : "android::trait_trivial_copy<double>::(anonymous enum at system/core/libutils/include/utils/TypeHelpers.h:110:1)",
   "referenced_type" : "_ZTIN7android18trait_trivial_copyIdE6$valueE",
   "self_type" : "_ZTIN7android18trait_trivial_copyIdE6$valueE",
   "size" : 4,
   "source_file" : "/system/core/libutils/include/utils/TypeHelpers.h",
   "underlying_type" : "_ZTIj"
  },
  {
   "alignment" : 4,
   "enum_fields" :
   [
    {
     "enum_field_value" : 1,
     "name" : "android::trait_trivial_copy<float>::value"
    }
   ],
   "linker_set_key" : "_ZTIN7android18trait_trivial_copyIfE6$valueE",
   "name" : "android::trait_trivial_copy<float>::(anonymous enum at system/core/libutils/include/utils/TypeHelpers.h:109:1)",
   "referenced_type" : "_ZTIN7android18trait_trivial_copyIfE6$valueE",
   "self_type" : "_ZTIN7android18trait_trivial_copyIfE6$valueE",
   "size" : 4,
   "source_file" : "/system/core/libutils/include/utils/TypeHelpers.h",
   "underlying_type" : "_ZTIj"
  },
  {
   "alignment" : 4,
   "enum_fields" :
   [
    {
     "enum_field_value" : 1,
     "name" : "android::trait_trivial_copy<unsigned char>::value"
    }
   ],
   "linker_set_key" : "_ZTIN7android18trait_trivial_copyIhE6$valueE",
   "name" : "android::trait_trivial_copy<unsigned char>::(anonymous enum at system/core/libutils/include/utils/TypeHelpers.h:100:1)",
   "referenced_type" : "_ZTIN7android18trait_trivial_copyIhE6$valueE",
   "self_type" : "_ZTIN7android18trait_trivial_copyIhE6$valueE",
   "size" : 4,
   "source_file" : "/system/core/libutils/include/utils/TypeHelpers.h",
   "underlying_type" : "_ZTIj"
  },
  {
   "alignment" : 4,
   "enum_fields" :
   [
    {
     "enum_field_value" : 1,
     "name" : "android::trait_trivial_copy<int>::value"
    }
   ],
   "linker_set_key" : "_ZTIN7android18trait_trivial_copyIiE6$valueE",
   "name" : "android::trait_trivial_copy<int>::(anonymous enum at system/core/libutils/include/utils/TypeHelpers.h:103:1)",
   "referenced_type" : "_ZTIN7android18trait_trivial_copyIiE6$valueE",
   "self_type" : "_ZTIN7android18trait_trivial_copyIiE6$valueE",
   "size" : 4,
   "source_file" : "/system/core/libutils/include/utils/TypeHelpers.h",
   "underlying_type" : "_ZTIj"
  },
  {
   "alignment" : 4,
   "enum_fields" :
   [
    {
     "enum_field_value" : 1,
     "name" : "android::trait_trivial_copy<unsigned int>::value"
    }
   ],
   "linker_set_key" : "_ZTIN7android18trait_trivial_copyIjE6$valueE",
   "name" : "android::trait_trivial_copy<unsigned int>::(anonymous enum at system/core/libutils/include/utils/TypeHelpers.h:104:1)",
   "referenced_type" : "_ZTIN7android18trait_trivial_copyIjE6$valueE",
   "self_type" : "_ZTIN7android18trait_trivial_copyIjE6$valueE",
   "size" : 4,
   "source_file" : "/system/core/libutils/include/utils/TypeHelpers.h",
   "underlying_type" : "_ZTIj"
  },
  {
   "alignment" : 4,
   "enum_fields" :
   [
    {
     "enum_field_value" : 1,
     "name" : "android::trait_trivial_copy<long>::value"
    }
   ],
   "linker_set_key" : "_ZTIN7android18trait_trivial_copyIlE6$valueE",
   "name" : "android::trait_trivial_copy<long>::(anonymous enum at system/core/libutils/include/utils/TypeHelpers.h:105:1)",
   "referenced_type" : "_ZTIN7android18trait_trivial_copyIlE6$valueE",
   "self_type" : "_ZTIN7android18trait_trivial_copyIlE6$valueE",
   "size" : 4,
   "source_file" : "/system/core/libutils/include/utils/TypeHelpers.h",
   "underlying_type" : "_ZTIj"
  },
  {
   "alignment" : 4,
   "enum_fields" :
   [
    {
     "enum_field_value" : 1,
     "name" : "android::trait_trivial_copy<unsigned long>::value"
    }
   ],
   "linker_set_key" : "_ZTIN7android18trait_trivial_copyImE6$valueE",
   "name" : "android::trait_trivial_copy<unsigned long>::(anonymous enum at system/core/libutils/include/utils/TypeHelpers.h:106:1)",
   "referenced_type" : "_ZTIN7android18trait_trivial_copyImE6$valueE",
   "self_type" : "_ZTIN7android18trait_trivial_copyImE6$valueE",
   "size" : 4,
   "source_file" : "/system/core/libutils/include/utils/TypeHelpers.h",
   "underlying_type" : "_ZTIj"
  },
  {
   "alignment" : 4,
   "enum_fields" :
   [
    {
     "enum_field_value" : 1,
     "name" : "android::trait_trivial_copy<short>::value"
    }
   ],
   "linker_set_key" : "_ZTIN7android18trait_trivial_copyIsE6$valueE",
   "name" : "android::trait_trivial_copy<short>::(anonymous enum at system/core/libutils/include/utils/TypeHelpers.h:101:1)",
   "referenced_type" : "_ZTIN7android18trait_trivial_copyIsE6$valueE",
   "self_type" : "_ZTIN7android18trait_trivial_copyIsE6$valueE",
   "size" : 4,
   "source_file" : "/system/core/libutils/include/utils/TypeHelpers.h",
   "underlying_type" : "_ZTIj"
  },
  {
   "alignment" : 4,
   "enum_fields" :
   [
    {
     "enum_field_value" : 1,
     "name" : "android::trait_trivial_copy<unsigned short>::value"
    }
   ],
   "linker_set_key" : "_ZTIN7android18trait_trivial_copyItE6$valueE",
   "name" : "android::trait_trivial_copy<unsigned short>::(anonymous enum at system/core/libutils/include/utils/TypeHelpers.h:102:1)",
   "referenced_type" : "_ZTIN7android18trait_trivial_copyItE6$valueE",
   "self_type" : "_ZTIN7android18trait_trivial_copyItE6$valueE",
   "size" : 4,
   "source_file" : "/system/core/libutils/include/utils/TypeHelpers.h",
   "underlying_type" : "_ZTIj"
  },
  {
   "alignment" : 4,
   "enum_fields" :
   [
    {
     "enum_field_value" : 1,
     "name" : "android::trait_trivial_copy<void>::value"
    }
   ],
   "linker_set_key" : "_ZTIN7android18trait_trivial_copyIvE6$valueE",
   "name" : "android::trait_trivial_copy<void>::(anonymous enum at system/core/libutils/include/utils/TypeHelpers.h:97:1)",
   "referenced_type" : "_ZTIN7android18trait_trivial_copyIvE6$valueE",
   "self_type" : "_ZTIN7android18trait_trivial_copyIvE6$valueE",
   "size" : 4,
   "source_file" : "/system/core/libutils/include/utils/TypeHelpers.h",
   "underlying_type" : "_ZTIj"
  },
  {
   "alignment" : 4,
   "enum_fields" :
   [
    {
     "enum_field_value" : 1,
     "name" : "android::trait_trivial_copy<long long>::value"
    }
   ],
   "linker_set_key" : "_ZTIN7android18trait_trivial_copyIxE6$valueE",
   "name" : "android::trait_trivial_copy<long long>::(anonymous enum at system/core/libutils/include/utils/TypeHelpers.h:107:1)",
   "referenced_type" : "_ZTIN7android18trait_trivial_copyIxE6$valueE",
   "self_type" : "_ZTIN7android18trait_trivial_copyIxE6$valueE",
   "size" : 4,
   "source_file" : "/system/core/libutils/include/utils/TypeHelpers.h",
   "underlying_type" : "_ZTIj"
  },
  {
   "alignment" : 4,
   "enum_fields" :
   [
    {
     "enum_field_value" : 1,
     "name" : "android::trait_trivial_copy<unsigned long long>::value"
    }
   ],
   "linker_set_key" : "_ZTIN7android18trait_trivial_copyIyE6$valueE",
   "name" : "android::trait_trivial_copy<unsigned long long>::(anonymous enum at system/core/libutils/include/utils/TypeHelpers.h:108:1)",
   "referenced_type" : "_ZTIN7android18trait_trivial_copyIyE6$valueE",
   "self_type" : "_ZTIN7android18trait_trivial_copyIyE6$valueE",
   "size" : 4,
   "source_file" : "/system/core/libutils/include/utils/TypeHelpers.h",
   "underlying_type" : "_ZTIj"
  },
  {
   "alignment" : 4,
   "enum_fields" :
   [
    {
     "enum_field_value" : 0,
     "name" : "android::trait_trivial_ctor<OMX_INDEXTYPE>::value"
    }
   ],
   "linker_set_key" : "_ZTIN7android18trait_trivial_ctorI13OMX_INDEXTYPEE6$valueE",
   "name" : "android::trait_trivial_ctor<OMX_INDEXTYPE>::(anonymous enum at system/core/libutils/include/utils/TypeHelpers.h:35:51)",
   "referenced_type" : "_ZTIN7android18trait_trivial_ctorI13OMX_INDEXTYPEE6$valueE",
   "self_type" : "_ZTIN7android18trait_trivial_ctorI13OMX_INDEXTYPEE6$valueE",
   "size" : 4,
   "source_file" : "/system/core/libutils/include/utils/TypeHelpers.h",
   "underlying_type" : "_ZTIj"
  },
  {
   "alignment" : 4,
   "enum_fields" :
   [
    {
     "enum_field_value" : 0,
     "name" : "android::trait_trivial_ctor<android::OMXNodeInstance::ActiveBuffer>::value"
    }
   ],
   "linker_set_key" : "_ZTIN7android18trait_trivial_ctorINS_15OMXNodeInstance12ActiveBufferEE6$valueE",
   "name" : "android::trait_trivial_ctor<ActiveBuffer>::(anonymous enum at system/core/libutils/include/utils/TypeHelpers.h:35:51)",
   "referenced_type" : "_ZTIN7android18trait_trivial_ctorINS_15OMXNodeInstance12ActiveBufferEE6$valueE",
   "self_type" : "_ZTIN7android18trait_trivial_ctorINS_15OMXNodeInstance12ActiveBufferEE6$valueE",
   "size" : 4,
   "source_file" : "/system/core/libutils/include/utils/TypeHelpers.h",
   "underlying_type" : "_ZTIj"
  },
  {
   "alignment" : 4,
   "enum_fields" :
   [
    {
     "enum_field_value" : 0,
     "name" : "android::trait_trivial_ctor<android::key_value_pair_t<android::wp<android::hidl::base::V1_0::IBase>, android::sp<android::OMXNodeInstance> > >::value"
    }
   ],
   "linker_set_key" : "_ZTIN7android18trait_trivial_ctorINS_16key_value_pair_tINS_2wpINS_4hidl4base4V1_05IBaseEEENS_2spINS_15OMXNodeInstanceEEEEEE6$valueE",
   "name" : "android::trait_trivial_ctor<key_value_pair_t<wp<IBase>, sp<OMXNodeInstance> > >::(anonymous enum at system/core/libutils/include/utils/TypeHelpers.h:281:3)",
   "referenced_type" : "_ZTIN7android18trait_trivial_ctorINS_16key_value_pair_tINS_2wpINS_4hidl4base4V1_05IBaseEEENS_2spINS_15OMXNodeInstanceEEEEEE6$valueE",
   "self_type" : "_ZTIN7android18trait_trivial_ctorINS_16key_value_pair_tINS_2wpINS_4hidl4base4V1_05IBaseEEENS_2spINS_15OMXNodeInstanceEEEEEE6$valueE",
   "size" : 4,
   "source_file" : "/system/core/libutils/include/utils/TypeHelpers.h",
   "underlying_type" : "_ZTIj"
  },
  {
   "alignment" : 4,
   "enum_fields" :
   [
    {
     "enum_field_value" : 0,
     "name" : "android::trait_trivial_ctor<android::key_value_pair_t<android::String8, android::OMXPluginBase *> >::value"
    }
   ],
   "linker_set_key" : "_ZTIN7android18trait_trivial_ctorINS_16key_value_pair_tINS_7String8EPNS_13OMXPluginBaseEEEE6$valueE",
   "name" : "android::trait_trivial_ctor<key_value_pair_t<String8, OMXPluginBase *> >::(anonymous enum at system/core/libutils/include/utils/TypeHelpers.h:281:3)",
   "referenced_type" : "_ZTIN7android18trait_trivial_ctorINS_16key_value_pair_tINS_7String8EPNS_13OMXPluginBaseEEEE6$valueE",
   "self_type" : "_ZTIN7android18trait_trivial_ctorINS_16key_value_pair_tINS_7String8EPNS_13OMXPluginBaseEEEE6$valueE",
   "size" : 4,
   "source_file" : "/system/core/libutils/include/utils/TypeHelpers.h",
   "underlying_type" : "_ZTIj"
  },
  {
   "alignment" : 4,
   "enum_fields" :
   [
    {
     "enum_field_value" : 1,
     "name" : "android::trait_trivial_ctor<android::key_value_pair_t<OMX_COMPONENTTYPE *, android::OMXPluginBase *> >::value"
    }
   ],
   "linker_set_key" : "_ZTIN7android18trait_trivial_ctorINS_16key_value_pair_tIP17OMX_COMPONENTTYPEPNS_13OMXPluginBaseEEEE6$valueE",
   "name" : "android::trait_trivial_ctor<key_value_pair_t<OMX_COMPONENTTYPE *, OMXPluginBase *> >::(anonymous enum at system/core/libutils/include/utils/TypeHelpers.h:281:3)",
   "referenced_type" : "_ZTIN7android18trait_trivial_ctorINS_16key_value_pair_tIP17OMX_COMPONENTTYPEPNS_13OMXPluginBaseEEEE6$valueE",
   "self_type" : "_ZTIN7android18trait_trivial_ctorINS_16key_value_pair_tIP17OMX_COMPONENTTYPEPNS_13OMXPluginBaseEEEE6$valueE",
   "size" : 4,
   "source_file" : "/system/core/libutils/include/utils/TypeHelpers.h",
   "underlying_type" : "_ZTIj"
  },
  {
   "alignment" : 4,
   "enum_fields" :
   [
    {
     "enum_field_value" : 1,
     "name" : "android::trait_trivial_ctor<android::key_value_pair_t<OMX_BUFFERHEADERTYPE *, unsigned int> >::value"
    }
   ],
   "linker_set_key" : "_ZTIN7android18trait_trivial_ctorINS_16key_value_pair_tIP20OMX_BUFFERHEADERTYPEjEEE6$valueE",
   "name" : "android::trait_trivial_ctor<key_value_pair_t<OMX_BUFFERHEADERTYPE *, unsigned int> >::(anonymous enum at system/core/libutils/include/utils/TypeHelpers.h:281:3)",
   "referenced_type" : "_ZTIN7android18trait_trivial_ctorINS_16key_value_pair_tIP20OMX_BUFFERHEADERTYPEjEEE6$valueE",
   "self_type" : "_ZTIN7android18trait_trivial_ctorINS_16key_value_pair_tIP20OMX_BUFFERHEADERTYPEjEEE6$valueE",
   "size" : 4,
   "source_file" : "/system/core/libutils/include/utils/TypeHelpers.h",
   "underlying_type" : "_ZTIj"
  },
  {
   "alignment" : 4,
   "enum_fields" :
   [
    {
     "enum_field_value" : 0,
     "name" : "android::trait_trivial_ctor<android::key_value_pair_t<android::OMXNodeInstance *, android::wp<android::hidl::base::V1_0::IBase> > >::value"
    }
   ],
   "linker_set_key" : "_ZTIN7android18trait_trivial_ctorINS_16key_value_pair_tIPNS_15OMXNodeInstanceENS_2wpINS_4hidl4base4V1_05IBaseEEEEEE6$valueE",
   "name" : "android::trait_trivial_ctor<key_value_pair_t<OMXNodeInstance *, wp<IBase> > >::(anonymous enum at system/core/libutils/include/utils/TypeHelpers.h:281:3)",
   "referenced_type" : "_ZTIN7android18trait_trivial_ctorINS_16key_value_pair_tIPNS_15OMXNodeInstanceENS_2wpINS_4hidl4base4V1_05IBaseEEEEEE6$valueE",
   "self_type" : "_ZTIN7android18trait_trivial_ctorINS_16key_value_pair_tIPNS_15OMXNodeInstanceENS_2wpINS_4hidl4base4V1_05IBaseEEEEEE6$valueE",
   "size" : 4,
   "source_file" : "/system/core/libutils/include/utils/TypeHelpers.h",
   "underlying_type" : "_ZTIj"
  },
  {
   "alignment" : 4,
   "enum_fields" :
   [
    {
     "enum_field_value" : 1,
     "name" : "android::trait_trivial_ctor<android::key_value_pair_t<unsigned int, OMX_BUFFERHEADERTYPE *> >::value"
    }
   ],
   "linker_set_key" : "_ZTIN7android18trait_trivial_ctorINS_16key_value_pair_tIjP20OMX_BUFFERHEADERTYPEEEE6$valueE",
   "name" : "android::trait_trivial_ctor<key_value_pair_t<unsigned int, OMX_BUFFERHEADERTYPE *> >::(anonymous enum at system/core/libutils/include/utils/TypeHelpers.h:281:3)",
   "referenced_type" : "_ZTIN7android18trait_trivial_ctorINS_16key_value_pair_tIjP20OMX_BUFFERHEADERTYPEEEE6$valueE",
   "self_type" : "_ZTIN7android18trait_trivial_ctorINS_16key_value_pair_tIjP20OMX_BUFFERHEADERTYPEEEE6$valueE",
   "size" : 4,
   "source_file" : "/system/core/libutils/include/utils/TypeHelpers.h",
   "underlying_type" : "_ZTIj"
  },
  {
   "alignment" : 4,
   "enum_fields" :
   [
    {
     "enum_field_value" : 1,
     "name" : "android::trait_trivial_ctor<android::key_value_pair_t<unsigned int, unsigned int> >::value"
    }
   ],
   "linker_set_key" : "_ZTIN7android18trait_trivial_ctorINS_16key_value_pair_tIjjEEE6$valueE",
   "name" : "android::trait_trivial_ctor<key_value_pair_t<unsigned int, unsigned int> >::(anonymous enum at system/core/libutils/include/utils/TypeHelpers.h:281:3)",
   "referenced_type" : "_ZTIN7android18trait_trivial_ctorINS_16key_value_pair_tIjjEEE6$valueE",
   "self_type" : "_ZTIN7android18trait_trivial_ctorINS_16key_value_pair_tIjjEEE6$valueE",
   "size" : 4,
   "source_file" : "/system/core/libutils/include/utils/TypeHelpers.h",
   "underlying_type" : "_ZTIj"
  },
  {
   "alignment" : 4,
   "enum_fields" :
   [
    {
     "enum_field_value" : 1,
     "name" : "android::trait_trivial_ctor<android::key_value_pair_t<long, long> >::value"
    }
   ],
   "linker_set_key" : "_ZTIN7android18trait_trivial_ctorINS_16key_value_pair_tIllEEE6$valueE",
   "name" : "android::trait_trivial_ctor<key_value_pair_t<long, long> >::(anonymous enum at system/core/libutils/include/utils/TypeHelpers.h:281:3)",
   "referenced_type" : "_ZTIN7android18trait_trivial_ctorINS_16key_value_pair_tIllEEE6$valueE",
   "self_type" : "_ZTIN7android18trait_trivial_ctorINS_16key_value_pair_tIllEEE6$valueE",
   "size" : 4,
   "source_file" : "/system/core/libutils/include/utils/TypeHelpers.h",
   "underlying_type" : "_ZTIj"
  },
  {
   "alignment" : 4,
   "enum_fields" :
   [
    {
     "enum_field_value" : 0,
     "name" : "android::trait_trivial_ctor<android::sp<android::OMXNodeInstance> >::value"
    }
   ],
   "linker_set_key" : "_ZTIN7android18trait_trivial_ctorINS_2spINS_15OMXNodeInstanceEEEE6$valueE",
   "name" : "android::trait_trivial_ctor<sp<OMXNodeInstance> >::(anonymous enum at system/core/libutils/include/utils/TypeHelpers.h:35:51)",
   "referenced_type" : "_ZTIN7android18trait_trivial_ctorINS_2spINS_15OMXNodeInstanceEEEE6$valueE",
   "self_type" : "_ZTIN7android18trait_trivial_ctorINS_2spINS_15OMXNodeInstanceEEEE6$valueE",
   "size" : 4,
   "source_file" : "/system/core/libutils/include/utils/TypeHelpers.h",
   "underlying_type" : "_ZTIj"
  },
  {
   "alignment" : 4,
   "enum_fields" :
   [
    {
     "enum_field_value" : 0,
     "name" : "android::trait_trivial_ctor<android::wp<android::hidl::base::V1_0::IBase> >::value"
    }
   ],
   "linker_set_key" : "_ZTIN7android18trait_trivial_ctorINS_2wpINS_4hidl4base4V1_05IBaseEEEE6$valueE",
   "name" : "android::trait_trivial_ctor<wp<IBase> >::(anonymous enum at system/core/libutils/include/utils/TypeHelpers.h:35:51)",
   "referenced_type" : "_ZTIN7android18trait_trivial_ctorINS_2wpINS_4hidl4base4V1_05IBaseEEEE6$valueE",
   "self_type" : "_ZTIN7android18trait_trivial_ctorINS_2wpINS_4hidl4base4V1_05IBaseEEEE6$valueE",
   "size" : 4,
   "source_file" : "/system/core/libutils/include/utils/TypeHelpers.h",
   "underlying_type" : "_ZTIj"
  },
  {
   "alignment" : 4,
   "enum_fields" :
   [
    {
     "enum_field_value" : 0,
     "name" : "android::trait_trivial_ctor<android::String8>::value"
    }
   ],
   "linker_set_key" : "_ZTIN7android18trait_trivial_ctorINS_7String8EE6$valueE",
   "name" : "android::trait_trivial_ctor<String8>::(anonymous enum at system/core/libutils/include/utils/TypeHelpers.h:35:51)",
   "referenced_type" : "_ZTIN7android18trait_trivial_ctorINS_7String8EE6$valueE",
   "self_type" : "_ZTIN7android18trait_trivial_ctorINS_7String8EE6$valueE",
   "size" : 4,
   "source_file" : "/system/core/libutils/include/utils/TypeHelpers.h",
   "underlying_type" : "_ZTIj"
  },
  {
   "alignment" : 4,
   "enum_fields" :
   [
    {
     "enum_field_value" : 0,
     "name" : "android::trait_trivial_ctor<OMX_COMPONENTTYPE *>::value"
    }
   ],
   "linker_set_key" : "_ZTIN7android18trait_trivial_ctorIP17OMX_COMPONENTTYPEE6$valueE",
   "name" : "android::trait_trivial_ctor<OMX_COMPONENTTYPE *>::(anonymous enum at system/core/libutils/include/utils/TypeHelpers.h:35:51)",
   "referenced_type" : "_ZTIN7android18trait_trivial_ctorIP17OMX_COMPONENTTYPEE6$valueE",
   "self_type" : "_ZTIN7android18trait_trivial_ctorIP17OMX_COMPONENTTYPEE6$valueE",
   "size" : 4,
   "source_file" : "/system/core/libutils/include/utils/TypeHelpers.h",
   "underlying_type" : "_ZTIj"
  },
  {
   "alignment" : 4,
   "enum_fields" :
   [
    {
     "enum_field_value" : 0,
     "name" : "android::trait_trivial_ctor<OMX_BUFFERHEADERTYPE *>::value"
    }
   ],
   "linker_set_key" : "_ZTIN7android18trait_trivial_ctorIP20OMX_BUFFERHEADERTYPEE6$valueE",
   "name" : "android::trait_trivial_ctor<OMX_BUFFERHEADERTYPE *>::(anonymous enum at system/core/libutils/include/utils/TypeHelpers.h:35:51)",
   "referenced_type" : "_ZTIN7android18trait_trivial_ctorIP20OMX_BUFFERHEADERTYPEE6$valueE",
   "self_type" : "_ZTIN7android18trait_trivial_ctorIP20OMX_BUFFERHEADERTYPEE6$valueE",
   "size" : 4,
   "source_file" : "/system/core/libutils/include/utils/TypeHelpers.h",
   "underlying_type" : "_ZTIj"
  },
  {
   "alignment" : 4,
   "enum_fields" :
   [
    {
     "enum_field_value" : 0,
     "name" : "android::trait_trivial_ctor<android::OMXPluginBase *>::value"
    }
   ],
   "linker_set_key" : "_ZTIN7android18trait_trivial_ctorIPNS_13OMXPluginBaseEE6$valueE",
   "name" : "android::trait_trivial_ctor<OMXPluginBase *>::(anonymous enum at system/core/libutils/include/utils/TypeHelpers.h:35:51)",
   "referenced_type" : "_ZTIN7android18trait_trivial_ctorIPNS_13OMXPluginBaseEE6$valueE",
   "self_type" : "_ZTIN7android18trait_trivial_ctorIPNS_13OMXPluginBaseEE6$valueE",
   "size" : 4,
   "source_file" : "/system/core/libutils/include/utils/TypeHelpers.h",
   "underlying_type" : "_ZTIj"
  },
  {
   "alignment" : 4,
   "enum_fields" :
   [
    {
     "enum_field_value" : 0,
     "name" : "android::trait_trivial_ctor<android::OMXNodeInstance *>::value"
    }
   ],
   "linker_set_key" : "_ZTIN7android18trait_trivial_ctorIPNS_15OMXNodeInstanceEE6$valueE",
   "name" : "android::trait_trivial_ctor<OMXNodeInstance *>::(anonymous enum at system/core/libutils/include/utils/TypeHelpers.h:35:51)",
   "referenced_type" : "_ZTIN7android18trait_trivial_ctorIPNS_15OMXNodeInstanceEE6$valueE",
   "self_type" : "_ZTIN7android18trait_trivial_ctorIPNS_15OMXNodeInstanceEE6$valueE",
   "size" : 4,
   "source_file" : "/system/core/libutils/include/utils/TypeHelpers.h",
   "underlying_type" : "_ZTIj"
  },
  {
   "alignment" : 4,
   "enum_fields" :
   [
    {
     "enum_field_value" : 1,
     "name" : "android::trait_trivial_ctor<bool>::value"
    }
   ],
   "linker_set_key" : "_ZTIN7android18trait_trivial_ctorIbE6$valueE",
   "name" : "android::trait_trivial_ctor<bool>::(anonymous enum at system/core/libutils/include/utils/TypeHelpers.h:98:1)",
   "referenced_type" : "_ZTIN7android18trait_trivial_ctorIbE6$valueE",
   "self_type" : "_ZTIN7android18trait_trivial_ctorIbE6$valueE",
   "size" : 4,
   "source_file" : "/system/core/libutils/include/utils/TypeHelpers.h",
   "underlying_type" : "_ZTIj"
  },
  {
   "alignment" : 4,
   "enum_fields" :
   [
    {
     "enum_field_value" : 1,
     "name" : "android::trait_trivial_ctor<char>::value"
    }
   ],
   "linker_set_key" : "_ZTIN7android18trait_trivial_ctorIcE6$valueE",
   "name" : "android::trait_trivial_ctor<char>::(anonymous enum at system/core/libutils/include/utils/TypeHelpers.h:99:1)",
   "referenced_type" : "_ZTIN7android18trait_trivial_ctorIcE6$valueE",
   "self_type" : "_ZTIN7android18trait_trivial_ctorIcE6$valueE",
   "size" : 4,
   "source_file" : "/system/core/libutils/include/utils/TypeHelpers.h",
   "underlying_type" : "_ZTIj"
  },
  {
   "alignment" : 4,
   "enum_fields" :
   [
    {
     "enum_field_value" : 1,
     "name" : "android::trait_trivial_ctor<double>::value"
    }
   ],
   "linker_set_key" : "_ZTIN7android18trait_trivial_ctorIdE6$valueE",
   "name" : "android::trait_trivial_ctor<double>::(anonymous enum at system/core/libutils/include/utils/TypeHelpers.h:110:1)",
   "referenced_type" : "_ZTIN7android18trait_trivial_ctorIdE6$valueE",
   "self_type" : "_ZTIN7android18trait_trivial_ctorIdE6$valueE",
   "size" : 4,
   "source_file" : "/system/core/libutils/include/utils/TypeHelpers.h",
   "underlying_type" : "_ZTIj"
  },
  {
   "alignment" : 4,
   "enum_fields" :
   [
    {
     "enum_field_value" : 1,
     "name" : "android::trait_trivial_ctor<float>::value"
    }
   ],
   "linker_set_key" : "_ZTIN7android18trait_trivial_ctorIfE6$valueE",
   "name" : "android::trait_trivial_ctor<float>::(anonymous enum at system/core/libutils/include/utils/TypeHelpers.h:109:1)",
   "referenced_type" : "_ZTIN7android18trait_trivial_ctorIfE6$valueE",
   "self_type" : "_ZTIN7android18trait_trivial_ctorIfE6$valueE",
   "size" : 4,
   "source_file" : "/system/core/libutils/include/utils/TypeHelpers.h",
   "underlying_type" : "_ZTIj"
  },
  {
   "alignment" : 4,
   "enum_fields" :
   [
    {
     "enum_field_value" : 1,
     "name" : "android::trait_trivial_ctor<unsigned char>::value"
    }
   ],
   "linker_set_key" : "_ZTIN7android18trait_trivial_ctorIhE6$valueE",
   "name" : "android::trait_trivial_ctor<unsigned char>::(anonymous enum at system/core/libutils/include/utils/TypeHelpers.h:100:1)",
   "referenced_type" : "_ZTIN7android18trait_trivial_ctorIhE6$valueE",
   "self_type" : "_ZTIN7android18trait_trivial_ctorIhE6$valueE",
   "size" : 4,
   "source_file" : "/system/core/libutils/include/utils/TypeHelpers.h",
   "underlying_type" : "_ZTIj"
  },
  {
   "alignment" : 4,
   "enum_fields" :
   [
    {
     "enum_field_value" : 1,
     "name" : "android::trait_trivial_ctor<int>::value"
    }
   ],
   "linker_set_key" : "_ZTIN7android18trait_trivial_ctorIiE6$valueE",
   "name" : "android::trait_trivial_ctor<int>::(anonymous enum at system/core/libutils/include/utils/TypeHelpers.h:103:1)",
   "referenced_type" : "_ZTIN7android18trait_trivial_ctorIiE6$valueE",
   "self_type" : "_ZTIN7android18trait_trivial_ctorIiE6$valueE",
   "size" : 4,
   "source_file" : "/system/core/libutils/include/utils/TypeHelpers.h",
   "underlying_type" : "_ZTIj"
  },
  {
   "alignment" : 4,
   "enum_fields" :
   [
    {
     "enum_field_value" : 1,
     "name" : "android::trait_trivial_ctor<unsigned int>::value"
    }
   ],
   "linker_set_key" : "_ZTIN7android18trait_trivial_ctorIjE6$valueE",
   "name" : "android::trait_trivial_ctor<unsigned int>::(anonymous enum at system/core/libutils/include/utils/TypeHelpers.h:104:1)",
   "referenced_type" : "_ZTIN7android18trait_trivial_ctorIjE6$valueE",
   "self_type" : "_ZTIN7android18trait_trivial_ctorIjE6$valueE",
   "size" : 4,
   "source_file" : "/system/core/libutils/include/utils/TypeHelpers.h",
   "underlying_type" : "_ZTIj"
  },
  {
   "alignment" : 4,
   "enum_fields" :
   [
    {
     "enum_field_value" : 1,
     "name" : "android::trait_trivial_ctor<long>::value"
    }
   ],
   "linker_set_key" : "_ZTIN7android18trait_trivial_ctorIlE6$valueE",
   "name" : "android::trait_trivial_ctor<long>::(anonymous enum at system/core/libutils/include/utils/TypeHelpers.h:105:1)",
   "referenced_type" : "_ZTIN7android18trait_trivial_ctorIlE6$valueE",
   "self_type" : "_ZTIN7android18trait_trivial_ctorIlE6$valueE",
   "size" : 4,
   "source_file" : "/system/core/libutils/include/utils/TypeHelpers.h",
   "underlying_type" : "_ZTIj"
  },
  {
   "alignment" : 4,
   "enum_fields" :
   [
    {
     "enum_field_value" : 1,
     "name" : "android::trait_trivial_ctor<unsigned long>::value"
    }
   ],
   "linker_set_key" : "_ZTIN7android18trait_trivial_ctorImE6$valueE",
   "name" : "android::trait_trivial_ctor<unsigned long>::(anonymous enum at system/core/libutils/include/utils/TypeHelpers.h:106:1)",
   "referenced_type" : "_ZTIN7android18trait_trivial_ctorImE6$valueE",
   "self_type" : "_ZTIN7android18trait_trivial_ctorImE6$valueE",
   "size" : 4,
   "source_file" : "/system/core/libutils/include/utils/TypeHelpers.h",
   "underlying_type" : "_ZTIj"
  },
  {
   "alignment" : 4,
   "enum_fields" :
   [
    {
     "enum_field_value" : 1,
     "name" : "android::trait_trivial_ctor<short>::value"
    }
   ],
   "linker_set_key" : "_ZTIN7android18trait_trivial_ctorIsE6$valueE",
   "name" : "android::trait_trivial_ctor<short>::(anonymous enum at system/core/libutils/include/utils/TypeHelpers.h:101:1)",
   "referenced_type" : "_ZTIN7android18trait_trivial_ctorIsE6$valueE",
   "self_type" : "_ZTIN7android18trait_trivial_ctorIsE6$valueE",
   "size" : 4,
   "source_file" : "/system/core/libutils/include/utils/TypeHelpers.h",
   "underlying_type" : "_ZTIj"
  },
  {
   "alignment" : 4,
   "enum_fields" :
   [
    {
     "enum_field_value" : 1,
     "name" : "android::trait_trivial_ctor<unsigned short>::value"
    }
   ],
   "linker_set_key" : "_ZTIN7android18trait_trivial_ctorItE6$valueE",
   "name" : "android::trait_trivial_ctor<unsigned short>::(anonymous enum at system/core/libutils/include/utils/TypeHelpers.h:102:1)",
   "referenced_type" : "_ZTIN7android18trait_trivial_ctorItE6$valueE",
   "self_type" : "_ZTIN7android18trait_trivial_ctorItE6$valueE",
   "size" : 4,
   "source_file" : "/system/core/libutils/include/utils/TypeHelpers.h",
   "underlying_type" : "_ZTIj"
  },
  {
   "alignment" : 4,
   "enum_fields" :
   [
    {
     "enum_field_value" : 1,
     "name" : "android::trait_trivial_ctor<void>::value"
    }
   ],
   "linker_set_key" : "_ZTIN7android18trait_trivial_ctorIvE6$valueE",
   "name" : "android::trait_trivial_ctor<void>::(anonymous enum at system/core/libutils/include/utils/TypeHelpers.h:97:1)",
   "referenced_type" : "_ZTIN7android18trait_trivial_ctorIvE6$valueE",
   "self_type" : "_ZTIN7android18trait_trivial_ctorIvE6$valueE",
   "size" : 4,
   "source_file" : "/system/core/libutils/include/utils/TypeHelpers.h",
   "underlying_type" : "_ZTIj"
  },
  {
   "alignment" : 4,
   "enum_fields" :
   [
    {
     "enum_field_value" : 1,
     "name" : "android::trait_trivial_ctor<long long>::value"
    }
   ],
   "linker_set_key" : "_ZTIN7android18trait_trivial_ctorIxE6$valueE",
   "name" : "android::trait_trivial_ctor<long long>::(anonymous enum at system/core/libutils/include/utils/TypeHelpers.h:107:1)",
   "referenced_type" : "_ZTIN7android18trait_trivial_ctorIxE6$valueE",
   "self_type" : "_ZTIN7android18trait_trivial_ctorIxE6$valueE",
   "size" : 4,
   "source_file" : "/system/core/libutils/include/utils/TypeHelpers.h",
   "underlying_type" : "_ZTIj"
  },
  {
   "alignment" : 4,
   "enum_fields" :
   [
    {
     "enum_field_value" : 1,
     "name" : "android::trait_trivial_ctor<unsigned long long>::value"
    }
   ],
   "linker_set_key" : "_ZTIN7android18trait_trivial_ctorIyE6$valueE",
   "name" : "android::trait_trivial_ctor<unsigned long long>::(anonymous enum at system/core/libutils/include/utils/TypeHelpers.h:108:1)",
   "referenced_type" : "_ZTIN7android18trait_trivial_ctorIyE6$valueE",
   "self_type" : "_ZTIN7android18trait_trivial_ctorIyE6$valueE",
   "size" : 4,
   "source_file" : "/system/core/libutils/include/utils/TypeHelpers.h",
   "underlying_type" : "_ZTIj"
  },
  {
   "alignment" : 4,
   "enum_fields" :
   [
    {
     "enum_field_value" : 0,
     "name" : "android::trait_trivial_dtor<OMX_INDEXTYPE>::value"
    }
   ],
   "linker_set_key" : "_ZTIN7android18trait_trivial_dtorI13OMX_INDEXTYPEE6$valueE",
   "name" : "android::trait_trivial_dtor<OMX_INDEXTYPE>::(anonymous enum at system/core/libutils/include/utils/TypeHelpers.h:36:51)",
   "referenced_type" : "_ZTIN7android18trait_trivial_dtorI13OMX_INDEXTYPEE6$valueE",
   "self_type" : "_ZTIN7android18trait_trivial_dtorI13OMX_INDEXTYPEE6$valueE",
   "size" : 4,
   "source_file" : "/system/core/libutils/include/utils/TypeHelpers.h",
   "underlying_type" : "_ZTIj"
  },
  {
   "alignment" : 4,
   "enum_fields" :
   [
    {
     "enum_field_value" : 0,
     "name" : "android::trait_trivial_dtor<android::OMXNodeInstance::ActiveBuffer>::value"
    }
   ],
   "linker_set_key" : "_ZTIN7android18trait_trivial_dtorINS_15OMXNodeInstance12ActiveBufferEE6$valueE",
   "name" : "android::trait_trivial_dtor<ActiveBuffer>::(anonymous enum at system/core/libutils/include/utils/TypeHelpers.h:36:51)",
   "referenced_type" : "_ZTIN7android18trait_trivial_dtorINS_15OMXNodeInstance12ActiveBufferEE6$valueE",
   "self_type" : "_ZTIN7android18trait_trivial_dtorINS_15OMXNodeInstance12ActiveBufferEE6$valueE",
   "size" : 4,
   "source_file" : "/system/core/libutils/include/utils/TypeHelpers.h",
   "underlying_type" : "_ZTIj"
  },
  {
   "alignment" : 4,
   "enum_fields" :
   [
    {
     "enum_field_value" : 0,
     "name" : "android::trait_trivial_dtor<android::key_value_pair_t<android::wp<android::hidl::base::V1_0::IBase>, android::sp<android::OMXNodeInstance> > >::value"
    }
   ],
   "linker_set_key" : "_ZTIN7android18trait_trivial_dtorINS_16key_value_pair_tINS_2wpINS_4hidl4base4V1_05IBaseEEENS_2spINS_15OMXNodeInstanceEEEEEE6$valueE",
   "name" : "android::trait_trivial_dtor<key_value_pair_t<wp<IBase>, sp<OMXNodeInstance> > >::(anonymous enum at system/core/libutils/include/utils/TypeHelpers.h:284:3)",
   "referenced_type" : "_ZTIN7android18trait_trivial_dtorINS_16key_value_pair_tINS_2wpINS_4hidl4base4V1_05IBaseEEENS_2spINS_15OMXNodeInstanceEEEEEE6$valueE",
   "self_type" : "_ZTIN7android18trait_trivial_dtorINS_16key_value_pair_tINS_2wpINS_4hidl4base4V1_05IBaseEEENS_2spINS_15OMXNodeInstanceEEEEEE6$valueE",
   "size" : 4,
   "source_file" : "/system/core/libutils/include/utils/TypeHelpers.h",
   "underlying_type" : "_ZTIj"
  },
  {
   "alignment" : 4,
   "enum_fields" :
   [
    {
     "enum_field_value" : 0,
     "name" : "android::trait_trivial_dtor<android::key_value_pair_t<android::String8, android::OMXPluginBase *> >::value"
    }
   ],
   "linker_set_key" : "_ZTIN7android18trait_trivial_dtorINS_16key_value_pair_tINS_7String8EPNS_13OMXPluginBaseEEEE6$valueE",
   "name" : "android::trait_trivial_dtor<key_value_pair_t<String8, OMXPluginBase *> >::(anonymous enum at system/core/libutils/include/utils/TypeHelpers.h:284:3)",
   "referenced_type" : "_ZTIN7android18trait_trivial_dtorINS_16key_value_pair_tINS_7String8EPNS_13OMXPluginBaseEEEE6$valueE",
   "self_type" : "_ZTIN7android18trait_trivial_dtorINS_16key_value_pair_tINS_7String8EPNS_13OMXPluginBaseEEEE6$valueE",
   "size" : 4,
   "source_file" : "/system/core/libutils/include/utils/TypeHelpers.h",
   "underlying_type" : "_ZTIj"
  },
  {
   "alignment" : 4,
   "enum_fields" :
   [
    {
     "enum_field_value" : 1,
     "name" : "android::trait_trivial_dtor<android::key_value_pair_t<OMX_COMPONENTTYPE *, android::OMXPluginBase *> >::value"
    }
   ],
   "linker_set_key" : "_ZTIN7android18trait_trivial_dtorINS_16key_value_pair_tIP17OMX_COMPONENTTYPEPNS_13OMXPluginBaseEEEE6$valueE",
   "name" : "android::trait_trivial_dtor<key_value_pair_t<OMX_COMPONENTTYPE *, OMXPluginBase *> >::(anonymous enum at system/core/libutils/include/utils/TypeHelpers.h:284:3)",
   "referenced_type" : "_ZTIN7android18trait_trivial_dtorINS_16key_value_pair_tIP17OMX_COMPONENTTYPEPNS_13OMXPluginBaseEEEE6$valueE",
   "self_type" : "_ZTIN7android18trait_trivial_dtorINS_16key_value_pair_tIP17OMX_COMPONENTTYPEPNS_13OMXPluginBaseEEEE6$valueE",
   "size" : 4,
   "source_file" : "/system/core/libutils/include/utils/TypeHelpers.h",
   "underlying_type" : "_ZTIj"
  },
  {
   "alignment" : 4,
   "enum_fields" :
   [
    {
     "enum_field_value" : 1,
     "name" : "android::trait_trivial_dtor<android::key_value_pair_t<OMX_BUFFERHEADERTYPE *, unsigned int> >::value"
    }
   ],
   "linker_set_key" : "_ZTIN7android18trait_trivial_dtorINS_16key_value_pair_tIP20OMX_BUFFERHEADERTYPEjEEE6$valueE",
   "name" : "android::trait_trivial_dtor<key_value_pair_t<OMX_BUFFERHEADERTYPE *, unsigned int> >::(anonymous enum at system/core/libutils/include/utils/TypeHelpers.h:284:3)",
   "referenced_type" : "_ZTIN7android18trait_trivial_dtorINS_16key_value_pair_tIP20OMX_BUFFERHEADERTYPEjEEE6$valueE",
   "self_type" : "_ZTIN7android18trait_trivial_dtorINS_16key_value_pair_tIP20OMX_BUFFERHEADERTYPEjEEE6$valueE",
   "size" : 4,
   "source_file" : "/system/core/libutils/include/utils/TypeHelpers.h",
   "underlying_type" : "_ZTIj"
  },
  {
   "alignment" : 4,
   "enum_fields" :
   [
    {
     "enum_field_value" : 0,
     "name" : "android::trait_trivial_dtor<android::key_value_pair_t<android::OMXNodeInstance *, android::wp<android::hidl::base::V1_0::IBase> > >::value"
    }
   ],
   "linker_set_key" : "_ZTIN7android18trait_trivial_dtorINS_16key_value_pair_tIPNS_15OMXNodeInstanceENS_2wpINS_4hidl4base4V1_05IBaseEEEEEE6$valueE",
   "name" : "android::trait_trivial_dtor<key_value_pair_t<OMXNodeInstance *, wp<IBase> > >::(anonymous enum at system/core/libutils/include/utils/TypeHelpers.h:284:3)",
   "referenced_type" : "_ZTIN7android18trait_trivial_dtorINS_16key_value_pair_tIPNS_15OMXNodeInstanceENS_2wpINS_4hidl4base4V1_05IBaseEEEEEE6$valueE",
   "self_type" : "_ZTIN7android18trait_trivial_dtorINS_16key_value_pair_tIPNS_15OMXNodeInstanceENS_2wpINS_4hidl4base4V1_05IBaseEEEEEE6$valueE",
   "size" : 4,
   "source_file" : "/system/core/libutils/include/utils/TypeHelpers.h",
   "underlying_type" : "_ZTIj"
  },
  {
   "alignment" : 4,
   "enum_fields" :
   [
    {
     "enum_field_value" : 1,
     "name" : "android::trait_trivial_dtor<android::key_value_pair_t<unsigned int, OMX_BUFFERHEADERTYPE *> >::value"
    }
   ],
   "linker_set_key" : "_ZTIN7android18trait_trivial_dtorINS_16key_value_pair_tIjP20OMX_BUFFERHEADERTYPEEEE6$valueE",
   "name" : "android::trait_trivial_dtor<key_value_pair_t<unsigned int, OMX_BUFFERHEADERTYPE *> >::(anonymous enum at system/core/libutils/include/utils/TypeHelpers.h:284:3)",
   "referenced_type" : "_ZTIN7android18trait_trivial_dtorINS_16key_value_pair_tIjP20OMX_BUFFERHEADERTYPEEEE6$valueE",
   "self_type" : "_ZTIN7android18trait_trivial_dtorINS_16key_value_pair_tIjP20OMX_BUFFERHEADERTYPEEEE6$valueE",
   "size" : 4,
   "source_file" : "/system/core/libutils/include/utils/TypeHelpers.h",
   "underlying_type" : "_ZTIj"
  },
  {
   "alignment" : 4,
   "enum_fields" :
   [
    {
     "enum_field_value" : 1,
     "name" : "android::trait_trivial_dtor<android::key_value_pair_t<unsigned int, unsigned int> >::value"
    }
   ],
   "linker_set_key" : "_ZTIN7android18trait_trivial_dtorINS_16key_value_pair_tIjjEEE6$valueE",
   "name" : "android::trait_trivial_dtor<key_value_pair_t<unsigned int, unsigned int> >::(anonymous enum at system/core/libutils/include/utils/TypeHelpers.h:284:3)",
   "referenced_type" : "_ZTIN7android18trait_trivial_dtorINS_16key_value_pair_tIjjEEE6$valueE",
   "self_type" : "_ZTIN7android18trait_trivial_dtorINS_16key_value_pair_tIjjEEE6$valueE",
   "size" : 4,
   "source_file" : "/system/core/libutils/include/utils/TypeHelpers.h",
   "underlying_type" : "_ZTIj"
  },
  {
   "alignment" : 4,
   "enum_fields" :
   [
    {
     "enum_field_value" : 1,
     "name" : "android::trait_trivial_dtor<android::key_value_pair_t<long, long> >::value"
    }
   ],
   "linker_set_key" : "_ZTIN7android18trait_trivial_dtorINS_16key_value_pair_tIllEEE6$valueE",
   "name" : "android::trait_trivial_dtor<key_value_pair_t<long, long> >::(anonymous enum at system/core/libutils/include/utils/TypeHelpers.h:284:3)",
   "referenced_type" : "_ZTIN7android18trait_trivial_dtorINS_16key_value_pair_tIllEEE6$valueE",
   "self_type" : "_ZTIN7android18trait_trivial_dtorINS_16key_value_pair_tIllEEE6$valueE",
   "size" : 4,
   "source_file" : "/system/core/libutils/include/utils/TypeHelpers.h",
   "underlying_type" : "_ZTIj"
  },
  {
   "alignment" : 4,
   "enum_fields" :
   [
    {
     "enum_field_value" : 0,
     "name" : "android::trait_trivial_dtor<android::sp<android::OMXNodeInstance> >::value"
    }
   ],
   "linker_set_key" : "_ZTIN7android18trait_trivial_dtorINS_2spINS_15OMXNodeInstanceEEEE6$valueE",
   "name" : "android::trait_trivial_dtor<sp<OMXNodeInstance> >::(anonymous enum at system/core/libutils/include/utils/TypeHelpers.h:36:51)",
   "referenced_type" : "_ZTIN7android18trait_trivial_dtorINS_2spINS_15OMXNodeInstanceEEEE6$valueE",
   "self_type" : "_ZTIN7android18trait_trivial_dtorINS_2spINS_15OMXNodeInstanceEEEE6$valueE",
   "size" : 4,
   "source_file" : "/system/core/libutils/include/utils/TypeHelpers.h",
   "underlying_type" : "_ZTIj"
  },
  {
   "alignment" : 4,
   "enum_fields" :
   [
    {
     "enum_field_value" : 0,
     "name" : "android::trait_trivial_dtor<android::wp<android::hidl::base::V1_0::IBase> >::value"
    }
   ],
   "linker_set_key" : "_ZTIN7android18trait_trivial_dtorINS_2wpINS_4hidl4base4V1_05IBaseEEEE6$valueE",
   "name" : "android::trait_trivial_dtor<wp<IBase> >::(anonymous enum at system/core/libutils/include/utils/TypeHelpers.h:36:51)",
   "referenced_type" : "_ZTIN7android18trait_trivial_dtorINS_2wpINS_4hidl4base4V1_05IBaseEEEE6$valueE",
   "self_type" : "_ZTIN7android18trait_trivial_dtorINS_2wpINS_4hidl4base4V1_05IBaseEEEE6$valueE",
   "size" : 4,
   "source_file" : "/system/core/libutils/include/utils/TypeHelpers.h",
   "underlying_type" : "_ZTIj"
  },
  {
   "alignment" : 4,
   "enum_fields" :
   [
    {
     "enum_field_value" : 0,
     "name" : "android::trait_trivial_dtor<android::String8>::value"
    }
   ],
   "linker_set_key" : "_ZTIN7android18trait_trivial_dtorINS_7String8EE6$valueE",
   "name" : "android::trait_trivial_dtor<String8>::(anonymous enum at system/core/libutils/include/utils/TypeHelpers.h:36:51)",
   "referenced_type" : "_ZTIN7android18trait_trivial_dtorINS_7String8EE6$valueE",
   "self_type" : "_ZTIN7android18trait_trivial_dtorINS_7String8EE6$valueE",
   "size" : 4,
   "source_file" : "/system/core/libutils/include/utils/TypeHelpers.h",
   "underlying_type" : "_ZTIj"
  },
  {
   "alignment" : 4,
   "enum_fields" :
   [
    {
     "enum_field_value" : 0,
     "name" : "android::trait_trivial_dtor<OMX_COMPONENTTYPE *>::value"
    }
   ],
   "linker_set_key" : "_ZTIN7android18trait_trivial_dtorIP17OMX_COMPONENTTYPEE6$valueE",
   "name" : "android::trait_trivial_dtor<OMX_COMPONENTTYPE *>::(anonymous enum at system/core/libutils/include/utils/TypeHelpers.h:36:51)",
   "referenced_type" : "_ZTIN7android18trait_trivial_dtorIP17OMX_COMPONENTTYPEE6$valueE",
   "self_type" : "_ZTIN7android18trait_trivial_dtorIP17OMX_COMPONENTTYPEE6$valueE",
   "size" : 4,
   "source_file" : "/system/core/libutils/include/utils/TypeHelpers.h",
   "underlying_type" : "_ZTIj"
  },
  {
   "alignment" : 4,
   "enum_fields" :
   [
    {
     "enum_field_value" : 0,
     "name" : "android::trait_trivial_dtor<OMX_BUFFERHEADERTYPE *>::value"
    }
   ],
   "linker_set_key" : "_ZTIN7android18trait_trivial_dtorIP20OMX_BUFFERHEADERTYPEE6$valueE",
   "name" : "android::trait_trivial_dtor<OMX_BUFFERHEADERTYPE *>::(anonymous enum at system/core/libutils/include/utils/TypeHelpers.h:36:51)",
   "referenced_type" : "_ZTIN7android18trait_trivial_dtorIP20OMX_BUFFERHEADERTYPEE6$valueE",
   "self_type" : "_ZTIN7android18trait_trivial_dtorIP20OMX_BUFFERHEADERTYPEE6$valueE",
   "size" : 4,
   "source_file" : "/system/core/libutils/include/utils/TypeHelpers.h",
   "underlying_type" : "_ZTIj"
  },
  {
   "alignment" : 4,
   "enum_fields" :
   [
    {
     "enum_field_value" : 0,
     "name" : "android::trait_trivial_dtor<android::OMXPluginBase *>::value"
    }
   ],
   "linker_set_key" : "_ZTIN7android18trait_trivial_dtorIPNS_13OMXPluginBaseEE6$valueE",
   "name" : "android::trait_trivial_dtor<OMXPluginBase *>::(anonymous enum at system/core/libutils/include/utils/TypeHelpers.h:36:51)",
   "referenced_type" : "_ZTIN7android18trait_trivial_dtorIPNS_13OMXPluginBaseEE6$valueE",
   "self_type" : "_ZTIN7android18trait_trivial_dtorIPNS_13OMXPluginBaseEE6$valueE",
   "size" : 4,
   "source_file" : "/system/core/libutils/include/utils/TypeHelpers.h",
   "underlying_type" : "_ZTIj"
  },
  {
   "alignment" : 4,
   "enum_fields" :
   [
    {
     "enum_field_value" : 0,
     "name" : "android::trait_trivial_dtor<android::OMXNodeInstance *>::value"
    }
   ],
   "linker_set_key" : "_ZTIN7android18trait_trivial_dtorIPNS_15OMXNodeInstanceEE6$valueE",
   "name" : "android::trait_trivial_dtor<OMXNodeInstance *>::(anonymous enum at system/core/libutils/include/utils/TypeHelpers.h:36:51)",
   "referenced_type" : "_ZTIN7android18trait_trivial_dtorIPNS_15OMXNodeInstanceEE6$valueE",
   "self_type" : "_ZTIN7android18trait_trivial_dtorIPNS_15OMXNodeInstanceEE6$valueE",
   "size" : 4,
   "source_file" : "/system/core/libutils/include/utils/TypeHelpers.h",
   "underlying_type" : "_ZTIj"
  },
  {
   "alignment" : 4,
   "enum_fields" :
   [
    {
     "enum_field_value" : 1,
     "name" : "android::trait_trivial_dtor<bool>::value"
    }
   ],
   "linker_set_key" : "_ZTIN7android18trait_trivial_dtorIbE6$valueE",
   "name" : "android::trait_trivial_dtor<bool>::(anonymous enum at system/core/libutils/include/utils/TypeHelpers.h:98:1)",
   "referenced_type" : "_ZTIN7android18trait_trivial_dtorIbE6$valueE",
   "self_type" : "_ZTIN7android18trait_trivial_dtorIbE6$valueE",
   "size" : 4,
   "source_file" : "/system/core/libutils/include/utils/TypeHelpers.h",
   "underlying_type" : "_ZTIj"
  },
  {
   "alignment" : 4,
   "enum_fields" :
   [
    {
     "enum_field_value" : 1,
     "name" : "android::trait_trivial_dtor<char>::value"
    }
   ],
   "linker_set_key" : "_ZTIN7android18trait_trivial_dtorIcE6$valueE",
   "name" : "android::trait_trivial_dtor<char>::(anonymous enum at system/core/libutils/include/utils/TypeHelpers.h:99:1)",
   "referenced_type" : "_ZTIN7android18trait_trivial_dtorIcE6$valueE",
   "self_type" : "_ZTIN7android18trait_trivial_dtorIcE6$valueE",
   "size" : 4,
   "source_file" : "/system/core/libutils/include/utils/TypeHelpers.h",
   "underlying_type" : "_ZTIj"
  },
  {
   "alignment" : 4,
   "enum_fields" :
   [
    {
     "enum_field_value" : 1,
     "name" : "android::trait_trivial_dtor<double>::value"
    }
   ],
   "linker_set_key" : "_ZTIN7android18trait_trivial_dtorIdE6$valueE",
   "name" : "android::trait_trivial_dtor<double>::(anonymous enum at system/core/libutils/include/utils/TypeHelpers.h:110:1)",
   "referenced_type" : "_ZTIN7android18trait_trivial_dtorIdE6$valueE",
   "self_type" : "_ZTIN7android18trait_trivial_dtorIdE6$valueE",
   "size" : 4,
   "source_file" : "/system/core/libutils/include/utils/TypeHelpers.h",
   "underlying_type" : "_ZTIj"
  },
  {
   "alignment" : 4,
   "enum_fields" :
   [
    {
     "enum_field_value" : 1,
     "name" : "android::trait_trivial_dtor<float>::value"
    }
   ],
   "linker_set_key" : "_ZTIN7android18trait_trivial_dtorIfE6$valueE",
   "name" : "android::trait_trivial_dtor<float>::(anonymous enum at system/core/libutils/include/utils/TypeHelpers.h:109:1)",
   "referenced_type" : "_ZTIN7android18trait_trivial_dtorIfE6$valueE",
   "self_type" : "_ZTIN7android18trait_trivial_dtorIfE6$valueE",
   "size" : 4,
   "source_file" : "/system/core/libutils/include/utils/TypeHelpers.h",
   "underlying_type" : "_ZTIj"
  },
  {
   "alignment" : 4,
   "enum_fields" :
   [
    {
     "enum_field_value" : 1,
     "name" : "android::trait_trivial_dtor<unsigned char>::value"
    }
   ],
   "linker_set_key" : "_ZTIN7android18trait_trivial_dtorIhE6$valueE",
   "name" : "android::trait_trivial_dtor<unsigned char>::(anonymous enum at system/core/libutils/include/utils/TypeHelpers.h:100:1)",
   "referenced_type" : "_ZTIN7android18trait_trivial_dtorIhE6$valueE",
   "self_type" : "_ZTIN7android18trait_trivial_dtorIhE6$valueE",
   "size" : 4,
   "source_file" : "/system/core/libutils/include/utils/TypeHelpers.h",
   "underlying_type" : "_ZTIj"
  },
  {
   "alignment" : 4,
   "enum_fields" :
   [
    {
     "enum_field_value" : 1,
     "name" : "android::trait_trivial_dtor<int>::value"
    }
   ],
   "linker_set_key" : "_ZTIN7android18trait_trivial_dtorIiE6$valueE",
   "name" : "android::trait_trivial_dtor<int>::(anonymous enum at system/core/libutils/include/utils/TypeHelpers.h:103:1)",
   "referenced_type" : "_ZTIN7android18trait_trivial_dtorIiE6$valueE",
   "self_type" : "_ZTIN7android18trait_trivial_dtorIiE6$valueE",
   "size" : 4,
   "source_file" : "/system/core/libutils/include/utils/TypeHelpers.h",
   "underlying_type" : "_ZTIj"
  },
  {
   "alignment" : 4,
   "enum_fields" :
   [
    {
     "enum_field_value" : 1,
     "name" : "android::trait_trivial_dtor<unsigned int>::value"
    }
   ],
   "linker_set_key" : "_ZTIN7android18trait_trivial_dtorIjE6$valueE",
   "name" : "android::trait_trivial_dtor<unsigned int>::(anonymous enum at system/core/libutils/include/utils/TypeHelpers.h:104:1)",
   "referenced_type" : "_ZTIN7android18trait_trivial_dtorIjE6$valueE",
   "self_type" : "_ZTIN7android18trait_trivial_dtorIjE6$valueE",
   "size" : 4,
   "source_file" : "/system/core/libutils/include/utils/TypeHelpers.h",
   "underlying_type" : "_ZTIj"
  },
  {
   "alignment" : 4,
   "enum_fields" :
   [
    {
     "enum_field_value" : 1,
     "name" : "android::trait_trivial_dtor<long>::value"
    }
   ],
   "linker_set_key" : "_ZTIN7android18trait_trivial_dtorIlE6$valueE",
   "name" : "android::trait_trivial_dtor<long>::(anonymous enum at system/core/libutils/include/utils/TypeHelpers.h:105:1)",
   "referenced_type" : "_ZTIN7android18trait_trivial_dtorIlE6$valueE",
   "self_type" : "_ZTIN7android18trait_trivial_dtorIlE6$valueE",
   "size" : 4,
   "source_file" : "/system/core/libutils/include/utils/TypeHelpers.h",
   "underlying_type" : "_ZTIj"
  },
  {
   "alignment" : 4,
   "enum_fields" :
   [
    {
     "enum_field_value" : 1,
     "name" : "android::trait_trivial_dtor<unsigned long>::value"
    }
   ],
   "linker_set_key" : "_ZTIN7android18trait_trivial_dtorImE6$valueE",
   "name" : "android::trait_trivial_dtor<unsigned long>::(anonymous enum at system/core/libutils/include/utils/TypeHelpers.h:106:1)",
   "referenced_type" : "_ZTIN7android18trait_trivial_dtorImE6$valueE",
   "self_type" : "_ZTIN7android18trait_trivial_dtorImE6$valueE",
   "size" : 4,
   "source_file" : "/system/core/libutils/include/utils/TypeHelpers.h",
   "underlying_type" : "_ZTIj"
  },
  {
   "alignment" : 4,
   "enum_fields" :
   [
    {
     "enum_field_value" : 1,
     "name" : "android::trait_trivial_dtor<short>::value"
    }
   ],
   "linker_set_key" : "_ZTIN7android18trait_trivial_dtorIsE6$valueE",
   "name" : "android::trait_trivial_dtor<short>::(anonymous enum at system/core/libutils/include/utils/TypeHelpers.h:101:1)",
   "referenced_type" : "_ZTIN7android18trait_trivial_dtorIsE6$valueE",
   "self_type" : "_ZTIN7android18trait_trivial_dtorIsE6$valueE",
   "size" : 4,
   "source_file" : "/system/core/libutils/include/utils/TypeHelpers.h",
   "underlying_type" : "_ZTIj"
  },
  {
   "alignment" : 4,
   "enum_fields" :
   [
    {
     "enum_field_value" : 1,
     "name" : "android::trait_trivial_dtor<unsigned short>::value"
    }
   ],
   "linker_set_key" : "_ZTIN7android18trait_trivial_dtorItE6$valueE",
   "name" : "android::trait_trivial_dtor<unsigned short>::(anonymous enum at system/core/libutils/include/utils/TypeHelpers.h:102:1)",
   "referenced_type" : "_ZTIN7android18trait_trivial_dtorItE6$valueE",
   "self_type" : "_ZTIN7android18trait_trivial_dtorItE6$valueE",
   "size" : 4,
   "source_file" : "/system/core/libutils/include/utils/TypeHelpers.h",
   "underlying_type" : "_ZTIj"
  },
  {
   "alignment" : 4,
   "enum_fields" :
   [
    {
     "enum_field_value" : 1,
     "name" : "android::trait_trivial_dtor<void>::value"
    }
   ],
   "linker_set_key" : "_ZTIN7android18trait_trivial_dtorIvE6$valueE",
   "name" : "android::trait_trivial_dtor<void>::(anonymous enum at system/core/libutils/include/utils/TypeHelpers.h:97:1)",
   "referenced_type" : "_ZTIN7android18trait_trivial_dtorIvE6$valueE",
   "self_type" : "_ZTIN7android18trait_trivial_dtorIvE6$valueE",
   "size" : 4,
   "source_file" : "/system/core/libutils/include/utils/TypeHelpers.h",
   "underlying_type" : "_ZTIj"
  },
  {
   "alignment" : 4,
   "enum_fields" :
   [
    {
     "enum_field_value" : 1,
     "name" : "android::trait_trivial_dtor<long long>::value"
    }
   ],
   "linker_set_key" : "_ZTIN7android18trait_trivial_dtorIxE6$valueE",
   "name" : "android::trait_trivial_dtor<long long>::(anonymous enum at system/core/libutils/include/utils/TypeHelpers.h:107:1)",
   "referenced_type" : "_ZTIN7android18trait_trivial_dtorIxE6$valueE",
   "self_type" : "_ZTIN7android18trait_trivial_dtorIxE6$valueE",
   "size" : 4,
   "source_file" : "/system/core/libutils/include/utils/TypeHelpers.h",
   "underlying_type" : "_ZTIj"
  },
  {
   "alignment" : 4,
   "enum_fields" :
   [
    {
     "enum_field_value" : 1,
     "name" : "android::trait_trivial_dtor<unsigned long long>::value"
    }
   ],
   "linker_set_key" : "_ZTIN7android18trait_trivial_dtorIyE6$valueE",
   "name" : "android::trait_trivial_dtor<unsigned long long>::(anonymous enum at system/core/libutils/include/utils/TypeHelpers.h:108:1)",
   "referenced_type" : "_ZTIN7android18trait_trivial_dtorIyE6$valueE",
   "self_type" : "_ZTIN7android18trait_trivial_dtorIyE6$valueE",
   "size" : 4,
   "source_file" : "/system/core/libutils/include/utils/TypeHelpers.h",
   "underlying_type" : "_ZTIj"
  },
  {
   "alignment" : 4,
   "enum_fields" :
   [
    {
     "enum_field_value" : 0,
     "name" : "android::trait_trivial_move<OMX_INDEXTYPE>::value"
    }
   ],
   "linker_set_key" : "_ZTIN7android18trait_trivial_moveI13OMX_INDEXTYPEE6$valueE",
   "name" : "android::trait_trivial_move<OMX_INDEXTYPE>::(anonymous enum at system/core/libutils/include/utils/TypeHelpers.h:38:51)",
   "referenced_type" : "_ZTIN7android18trait_trivial_moveI13OMX_INDEXTYPEE6$valueE",
   "self_type" : "_ZTIN7android18trait_trivial_moveI13OMX_INDEXTYPEE6$valueE",
   "size" : 4,
   "source_file" : "/system/core/libutils/include/utils/TypeHelpers.h",
   "underlying_type" : "_ZTIj"
  },
  {
   "alignment" : 4,
   "enum_fields" :
   [
    {
     "enum_field_value" : 0,
     "name" : "android::trait_trivial_move<android::OMXNodeInstance::ActiveBuffer>::value"
    }
   ],
   "linker_set_key" : "_ZTIN7android18trait_trivial_moveINS_15OMXNodeInstance12ActiveBufferEE6$valueE",
   "name" : "android::trait_trivial_move<ActiveBuffer>::(anonymous enum at system/core/libutils/include/utils/TypeHelpers.h:38:51)",
   "referenced_type" : "_ZTIN7android18trait_trivial_moveINS_15OMXNodeInstance12ActiveBufferEE6$valueE",
   "self_type" : "_ZTIN7android18trait_trivial_moveINS_15OMXNodeInstance12ActiveBufferEE6$valueE",
   "size" : 4,
   "source_file" : "/system/core/libutils/include/utils/TypeHelpers.h",
   "underlying_type" : "_ZTIj"
  },
  {
   "alignment" : 4,
   "enum_fields" :
   [
    {
     "enum_field_value" : 0,
     "name" : "android::trait_trivial_move<android::key_value_pair_t<android::wp<android::hidl::base::V1_0::IBase>, android::sp<android::OMXNodeInstance> > >::value"
    }
   ],
   "linker_set_key" : "_ZTIN7android18trait_trivial_moveINS_16key_value_pair_tINS_2wpINS_4hidl4base4V1_05IBaseEEENS_2spINS_15OMXNodeInstanceEEEEEE6$valueE",
   "name" : "android::trait_trivial_move<key_value_pair_t<wp<IBase>, sp<OMXNodeInstance> > >::(anonymous enum at system/core/libutils/include/utils/TypeHelpers.h:290:3)",
   "referenced_type" : "_ZTIN7android18trait_trivial_moveINS_16key_value_pair_tINS_2wpINS_4hidl4base4V1_05IBaseEEENS_2spINS_15OMXNodeInstanceEEEEEE6$valueE",
   "self_type" : "_ZTIN7android18trait_trivial_moveINS_16key_value_pair_tINS_2wpINS_4hidl4base4V1_05IBaseEEENS_2spINS_15OMXNodeInstanceEEEEEE6$valueE",
   "size" : 4,
   "source_file" : "/system/core/libutils/include/utils/TypeHelpers.h",
   "underlying_type" : "_ZTIj"
  },
  {
   "alignment" : 4,
   "enum_fields" :
   [
    {
     "enum_field_value" : 1,
     "name" : "android::trait_trivial_move<android::key_value_pair_t<android::String8, android::OMXPluginBase *> >::value"
    }
   ],
   "linker_set_key" : "_ZTIN7android18trait_trivial_moveINS_16key_value_pair_tINS_7String8EPNS_13OMXPluginBaseEEEE6$valueE",
   "name" : "android::trait_trivial_move<key_value_pair_t<String8, OMXPluginBase *> >::(anonymous enum at system/core/libutils/include/utils/TypeHelpers.h:290:3)",
   "referenced_type" : "_ZTIN7android18trait_trivial_moveINS_16key_value_pair_tINS_7String8EPNS_13OMXPluginBaseEEEE6$valueE",
   "self_type" : "_ZTIN7android18trait_trivial_moveINS_16key_value_pair_tINS_7String8EPNS_13OMXPluginBaseEEEE6$valueE",
   "size" : 4,
   "source_file" : "/system/core/libutils/include/utils/TypeHelpers.h",
   "underlying_type" : "_ZTIj"
  },
  {
   "alignment" : 4,
   "enum_fields" :
   [
    {
     "enum_field_value" : 1,
     "name" : "android::trait_trivial_move<android::key_value_pair_t<OMX_COMPONENTTYPE *, android::OMXPluginBase *> >::value"
    }
   ],
   "linker_set_key" : "_ZTIN7android18trait_trivial_moveINS_16key_value_pair_tIP17OMX_COMPONENTTYPEPNS_13OMXPluginBaseEEEE6$valueE",
   "name" : "android::trait_trivial_move<key_value_pair_t<OMX_COMPONENTTYPE *, OMXPluginBase *> >::(anonymous enum at system/core/libutils/include/utils/TypeHelpers.h:290:3)",
   "referenced_type" : "_ZTIN7android18trait_trivial_moveINS_16key_value_pair_tIP17OMX_COMPONENTTYPEPNS_13OMXPluginBaseEEEE6$valueE",
   "self_type" : "_ZTIN7android18trait_trivial_moveINS_16key_value_pair_tIP17OMX_COMPONENTTYPEPNS_13OMXPluginBaseEEEE6$valueE",
   "size" : 4,
   "source_file" : "/system/core/libutils/include/utils/TypeHelpers.h",
   "underlying_type" : "_ZTIj"
  },
  {
   "alignment" : 4,
   "enum_fields" :
   [
    {
     "enum_field_value" : 1,
     "name" : "android::trait_trivial_move<android::key_value_pair_t<OMX_BUFFERHEADERTYPE *, unsigned int> >::value"
    }
   ],
   "linker_set_key" : "_ZTIN7android18trait_trivial_moveINS_16key_value_pair_tIP20OMX_BUFFERHEADERTYPEjEEE6$valueE",
   "name" : "android::trait_trivial_move<key_value_pair_t<OMX_BUFFERHEADERTYPE *, unsigned int> >::(anonymous enum at system/core/libutils/include/utils/TypeHelpers.h:290:3)",
   "referenced_type" : "_ZTIN7android18trait_trivial_moveINS_16key_value_pair_tIP20OMX_BUFFERHEADERTYPEjEEE6$valueE",
   "self_type" : "_ZTIN7android18trait_trivial_moveINS_16key_value_pair_tIP20OMX_BUFFERHEADERTYPEjEEE6$valueE",
   "size" : 4,
   "source_file" : "/system/core/libutils/include/utils/TypeHelpers.h",
   "underlying_type" : "_ZTIj"
  },
  {
   "alignment" : 4,
   "enum_fields" :
   [
    {
     "enum_field_value" : 0,
     "name" : "android::trait_trivial_move<android::key_value_pair_t<android::OMXNodeInstance *, android::wp<android::hidl::base::V1_0::IBase> > >::value"
    }
   ],
   "linker_set_key" : "_ZTIN7android18trait_trivial_moveINS_16key_value_pair_tIPNS_15OMXNodeInstanceENS_2wpINS_4hidl4base4V1_05IBaseEEEEEE6$valueE",
   "name" : "android::trait_trivial_move<key_value_pair_t<OMXNodeInstance *, wp<IBase> > >::(anonymous enum at system/core/libutils/include/utils/TypeHelpers.h:290:3)",
   "referenced_type" : "_ZTIN7android18trait_trivial_moveINS_16key_value_pair_tIPNS_15OMXNodeInstanceENS_2wpINS_4hidl4base4V1_05IBaseEEEEEE6$valueE",
   "self_type" : "_ZTIN7android18trait_trivial_moveINS_16key_value_pair_tIPNS_15OMXNodeInstanceENS_2wpINS_4hidl4base4V1_05IBaseEEEEEE6$valueE",
   "size" : 4,
   "source_file" : "/system/core/libutils/include/utils/TypeHelpers.h",
   "underlying_type" : "_ZTIj"
  },
  {
   "alignment" : 4,
   "enum_fields" :
   [
    {
     "enum_field_value" : 1,
     "name" : "android::trait_trivial_move<android::key_value_pair_t<unsigned int, OMX_BUFFERHEADERTYPE *> >::value"
    }
   ],
   "linker_set_key" : "_ZTIN7android18trait_trivial_moveINS_16key_value_pair_tIjP20OMX_BUFFERHEADERTYPEEEE6$valueE",
   "name" : "android::trait_trivial_move<key_value_pair_t<unsigned int, OMX_BUFFERHEADERTYPE *> >::(anonymous enum at system/core/libutils/include/utils/TypeHelpers.h:290:3)",
   "referenced_type" : "_ZTIN7android18trait_trivial_moveINS_16key_value_pair_tIjP20OMX_BUFFERHEADERTYPEEEE6$valueE",
   "self_type" : "_ZTIN7android18trait_trivial_moveINS_16key_value_pair_tIjP20OMX_BUFFERHEADERTYPEEEE6$valueE",
   "size" : 4,
   "source_file" : "/system/core/libutils/include/utils/TypeHelpers.h",
   "underlying_type" : "_ZTIj"
  },
  {
   "alignment" : 4,
   "enum_fields" :
   [
    {
     "enum_field_value" : 1,
     "name" : "android::trait_trivial_move<android::key_value_pair_t<unsigned int, unsigned int> >::value"
    }
   ],
   "linker_set_key" : "_ZTIN7android18trait_trivial_moveINS_16key_value_pair_tIjjEEE6$valueE",
   "name" : "android::trait_trivial_move<key_value_pair_t<unsigned int, unsigned int> >::(anonymous enum at system/core/libutils/include/utils/TypeHelpers.h:290:3)",
   "referenced_type" : "_ZTIN7android18trait_trivial_moveINS_16key_value_pair_tIjjEEE6$valueE",
   "self_type" : "_ZTIN7android18trait_trivial_moveINS_16key_value_pair_tIjjEEE6$valueE",
   "size" : 4,
   "source_file" : "/system/core/libutils/include/utils/TypeHelpers.h",
   "underlying_type" : "_ZTIj"
  },
  {
   "alignment" : 4,
   "enum_fields" :
   [
    {
     "enum_field_value" : 1,
     "name" : "android::trait_trivial_move<android::key_value_pair_t<long, long> >::value"
    }
   ],
   "linker_set_key" : "_ZTIN7android18trait_trivial_moveINS_16key_value_pair_tIllEEE6$valueE",
   "name" : "android::trait_trivial_move<key_value_pair_t<long, long> >::(anonymous enum at system/core/libutils/include/utils/TypeHelpers.h:290:3)",
   "referenced_type" : "_ZTIN7android18trait_trivial_moveINS_16key_value_pair_tIllEEE6$valueE",
   "self_type" : "_ZTIN7android18trait_trivial_moveINS_16key_value_pair_tIllEEE6$valueE",
   "size" : 4,
   "source_file" : "/system/core/libutils/include/utils/TypeHelpers.h",
   "underlying_type" : "_ZTIj"
  },
  {
   "alignment" : 4,
   "enum_fields" :
   [
    {
     "enum_field_value" : 0,
     "name" : "android::trait_trivial_move<android::sp<android::OMXNodeInstance> >::value"
    }
   ],
   "linker_set_key" : "_ZTIN7android18trait_trivial_moveINS_2spINS_15OMXNodeInstanceEEEE6$valueE",
   "name" : "android::trait_trivial_move<sp<OMXNodeInstance> >::(anonymous enum at system/core/libutils/include/utils/TypeHelpers.h:38:51)",
   "referenced_type" : "_ZTIN7android18trait_trivial_moveINS_2spINS_15OMXNodeInstanceEEEE6$valueE",
   "self_type" : "_ZTIN7android18trait_trivial_moveINS_2spINS_15OMXNodeInstanceEEEE6$valueE",
   "size" : 4,
   "source_file" : "/system/core/libutils/include/utils/TypeHelpers.h",
   "underlying_type" : "_ZTIj"
  },
  {
   "alignment" : 4,
   "enum_fields" :
   [
    {
     "enum_field_value" : 0,
     "name" : "android::trait_trivial_move<android::wp<android::hidl::base::V1_0::IBase> >::value"
    }
   ],
   "linker_set_key" : "_ZTIN7android18trait_trivial_moveINS_2wpINS_4hidl4base4V1_05IBaseEEEE6$valueE",
   "name" : "android::trait_trivial_move<wp<IBase> >::(anonymous enum at system/core/libutils/include/utils/TypeHelpers.h:38:51)",
   "referenced_type" : "_ZTIN7android18trait_trivial_moveINS_2wpINS_4hidl4base4V1_05IBaseEEEE6$valueE",
   "self_type" : "_ZTIN7android18trait_trivial_moveINS_2wpINS_4hidl4base4V1_05IBaseEEEE6$valueE",
   "size" : 4,
   "source_file" : "/system/core/libutils/include/utils/TypeHelpers.h",
   "underlying_type" : "_ZTIj"
  },
  {
   "alignment" : 4,
   "enum_fields" :
   [
    {
     "enum_field_value" : 1,
     "name" : "android::trait_trivial_move<android::String8>::value"
    }
   ],
   "linker_set_key" : "_ZTIN7android18trait_trivial_moveINS_7String8EE6$valueE",
   "name" : "android::trait_trivial_move<String8>::(anonymous enum at system/core/libutils/include/utils/String8.h:242:1)",
   "referenced_type" : "_ZTIN7android18trait_trivial_moveINS_7String8EE6$valueE",
   "self_type" : "_ZTIN7android18trait_trivial_moveINS_7String8EE6$valueE",
   "size" : 4,
   "source_file" : "/system/core/libutils/include/utils/String8.h",
   "underlying_type" : "_ZTIj"
  },
  {
   "alignment" : 4,
   "enum_fields" :
   [
    {
     "enum_field_value" : 1,
     "name" : "android::trait_trivial_move<android::String16>::value"
    }
   ],
   "linker_set_key" : "_ZTIN7android18trait_trivial_moveINS_8String16EE6$valueE",
   "name" : "android::trait_trivial_move<String16>::(anonymous enum at system/core/libutils/include/utils/String16.h:197:1)",
   "referenced_type" : "_ZTIN7android18trait_trivial_moveINS_8String16EE6$valueE",
   "self_type" : "_ZTIN7android18trait_trivial_moveINS_8String16EE6$valueE",
   "size" : 4,
   "source_file" : "/system/core/libutils/include/utils/String16.h",
   "underlying_type" : "_ZTIj"
  },
  {
   "alignment" : 4,
   "enum_fields" :
   [
    {
     "enum_field_value" : 0,
     "name" : "android::trait_trivial_move<OMX_COMPONENTTYPE *>::value"
    }
   ],
   "linker_set_key" : "_ZTIN7android18trait_trivial_moveIP17OMX_COMPONENTTYPEE6$valueE",
   "name" : "android::trait_trivial_move<OMX_COMPONENTTYPE *>::(anonymous enum at system/core/libutils/include/utils/TypeHelpers.h:38:51)",
   "referenced_type" : "_ZTIN7android18trait_trivial_moveIP17OMX_COMPONENTTYPEE6$valueE",
   "self_type" : "_ZTIN7android18trait_trivial_moveIP17OMX_COMPONENTTYPEE6$valueE",
   "size" : 4,
   "source_file" : "/system/core/libutils/include/utils/TypeHelpers.h",
   "underlying_type" : "_ZTIj"
  },
  {
   "alignment" : 4,
   "enum_fields" :
   [
    {
     "enum_field_value" : 0,
     "name" : "android::trait_trivial_move<OMX_BUFFERHEADERTYPE *>::value"
    }
   ],
   "linker_set_key" : "_ZTIN7android18trait_trivial_moveIP20OMX_BUFFERHEADERTYPEE6$valueE",
   "name" : "android::trait_trivial_move<OMX_BUFFERHEADERTYPE *>::(anonymous enum at system/core/libutils/include/utils/TypeHelpers.h:38:51)",
   "referenced_type" : "_ZTIN7android18trait_trivial_moveIP20OMX_BUFFERHEADERTYPEE6$valueE",
   "self_type" : "_ZTIN7android18trait_trivial_moveIP20OMX_BUFFERHEADERTYPEE6$valueE",
   "size" : 4,
   "source_file" : "/system/core/libutils/include/utils/TypeHelpers.h",
   "underlying_type" : "_ZTIj"
  },
  {
   "alignment" : 4,
   "enum_fields" :
   [
    {
     "enum_field_value" : 0,
     "name" : "android::trait_trivial_move<android::OMXPluginBase *>::value"
    }
   ],
   "linker_set_key" : "_ZTIN7android18trait_trivial_moveIPNS_13OMXPluginBaseEE6$valueE",
   "name" : "android::trait_trivial_move<OMXPluginBase *>::(anonymous enum at system/core/libutils/include/utils/TypeHelpers.h:38:51)",
   "referenced_type" : "_ZTIN7android18trait_trivial_moveIPNS_13OMXPluginBaseEE6$valueE",
   "self_type" : "_ZTIN7android18trait_trivial_moveIPNS_13OMXPluginBaseEE6$valueE",
   "size" : 4,
   "source_file" : "/system/core/libutils/include/utils/TypeHelpers.h",
   "underlying_type" : "_ZTIj"
  },
  {
   "alignment" : 4,
   "enum_fields" :
   [
    {
     "enum_field_value" : 0,
     "name" : "android::trait_trivial_move<android::OMXNodeInstance *>::value"
    }
   ],
   "linker_set_key" : "_ZTIN7android18trait_trivial_moveIPNS_15OMXNodeInstanceEE6$valueE",
   "name" : "android::trait_trivial_move<OMXNodeInstance *>::(anonymous enum at system/core/libutils/include/utils/TypeHelpers.h:38:51)",
   "referenced_type" : "_ZTIN7android18trait_trivial_moveIPNS_15OMXNodeInstanceEE6$valueE",
   "self_type" : "_ZTIN7android18trait_trivial_moveIPNS_15OMXNodeInstanceEE6$valueE",
   "size" : 4,
   "source_file" : "/system/core/libutils/include/utils/TypeHelpers.h",
   "underlying_type" : "_ZTIj"
  },
  {
   "alignment" : 4,
   "enum_fields" :
   [
    {
     "enum_field_value" : 1,
     "name" : "android::trait_trivial_move<bool>::value"
    }
   ],
   "linker_set_key" : "_ZTIN7android18trait_trivial_moveIbE6$valueE",
   "name" : "android::trait_trivial_move<bool>::(anonymous enum at system/core/libutils/include/utils/TypeHelpers.h:98:1)",
   "referenced_type" : "_ZTIN7android18trait_trivial_moveIbE6$valueE",
   "self_type" : "_ZTIN7android18trait_trivial_moveIbE6$valueE",
   "size" : 4,
   "source_file" : "/system/core/libutils/include/utils/TypeHelpers.h",
   "underlying_type" : "_ZTIj"
  },
  {
   "alignment" : 4,
   "enum_fields" :
   [
    {
     "enum_field_value" : 1,
     "name" : "android::trait_trivial_move<char>::value"
    }
   ],
   "linker_set_key" : "_ZTIN7android18trait_trivial_moveIcE6$valueE",
   "name" : "android::trait_trivial_move<char>::(anonymous enum at system/core/libutils/include/utils/TypeHelpers.h:99:1)",
   "referenced_type" : "_ZTIN7android18trait_trivial_moveIcE6$valueE",
   "self_type" : "_ZTIN7android18trait_trivial_moveIcE6$valueE",
   "size" : 4,
   "source_file" : "/system/core/libutils/include/utils/TypeHelpers.h",
   "underlying_type" : "_ZTIj"
  },
  {
   "alignment" : 4,
   "enum_fields" :
   [
    {
     "enum_field_value" : 1,
     "name" : "android::trait_trivial_move<double>::value"
    }
   ],
   "linker_set_key" : "_ZTIN7android18trait_trivial_moveIdE6$valueE",
   "name" : "android::trait_trivial_move<double>::(anonymous enum at system/core/libutils/include/utils/TypeHelpers.h:110:1)",
   "referenced_type" : "_ZTIN7android18trait_trivial_moveIdE6$valueE",
   "self_type" : "_ZTIN7android18trait_trivial_moveIdE6$valueE",
   "size" : 4,
   "source_file" : "/system/core/libutils/include/utils/TypeHelpers.h",
   "underlying_type" : "_ZTIj"
  },
  {
   "alignment" : 4,
   "enum_fields" :
   [
    {
     "enum_field_value" : 1,
     "name" : "android::trait_trivial_move<float>::value"
    }
   ],
   "linker_set_key" : "_ZTIN7android18trait_trivial_moveIfE6$valueE",
   "name" : "android::trait_trivial_move<float>::(anonymous enum at system/core/libutils/include/utils/TypeHelpers.h:109:1)",
   "referenced_type" : "_ZTIN7android18trait_trivial_moveIfE6$valueE",
   "self_type" : "_ZTIN7android18trait_trivial_moveIfE6$valueE",
   "size" : 4,
   "source_file" : "/system/core/libutils/include/utils/TypeHelpers.h",
   "underlying_type" : "_ZTIj"
  },
  {
   "alignment" : 4,
   "enum_fields" :
   [
    {
     "enum_field_value" : 1,
     "name" : "android::trait_trivial_move<unsigned char>::value"
    }
   ],
   "linker_set_key" : "_ZTIN7android18trait_trivial_moveIhE6$valueE",
   "name" : "android::trait_trivial_move<unsigned char>::(anonymous enum at system/core/libutils/include/utils/TypeHelpers.h:100:1)",
   "referenced_type" : "_ZTIN7android18trait_trivial_moveIhE6$valueE",
   "self_type" : "_ZTIN7android18trait_trivial_moveIhE6$valueE",
   "size" : 4,
   "source_file" : "/system/core/libutils/include/utils/TypeHelpers.h",
   "underlying_type" : "_ZTIj"
  },
  {
   "alignment" : 4,
   "enum_fields" :
   [
    {
     "enum_field_value" : 1,
     "name" : "android::trait_trivial_move<int>::value"
    }
   ],
   "linker_set_key" : "_ZTIN7android18trait_trivial_moveIiE6$valueE",
   "name" : "android::trait_trivial_move<int>::(anonymous enum at system/core/libutils/include/utils/TypeHelpers.h:103:1)",
   "referenced_type" : "_ZTIN7android18trait_trivial_moveIiE6$valueE",
   "self_type" : "_ZTIN7android18trait_trivial_moveIiE6$valueE",
   "size" : 4,
   "source_file" : "/system/core/libutils/include/utils/TypeHelpers.h",
   "underlying_type" : "_ZTIj"
  },
  {
   "alignment" : 4,
   "enum_fields" :
   [
    {
     "enum_field_value" : 1,
     "name" : "android::trait_trivial_move<unsigned int>::value"
    }
   ],
   "linker_set_key" : "_ZTIN7android18trait_trivial_moveIjE6$valueE",
   "name" : "android::trait_trivial_move<unsigned int>::(anonymous enum at system/core/libutils/include/utils/TypeHelpers.h:104:1)",
   "referenced_type" : "_ZTIN7android18trait_trivial_moveIjE6$valueE",
   "self_type" : "_ZTIN7android18trait_trivial_moveIjE6$valueE",
   "size" : 4,
   "source_file" : "/system/core/libutils/include/utils/TypeHelpers.h",
   "underlying_type" : "_ZTIj"
  },
  {
   "alignment" : 4,
   "enum_fields" :
   [
    {
     "enum_field_value" : 1,
     "name" : "android::trait_trivial_move<long>::value"
    }
   ],
   "linker_set_key" : "_ZTIN7android18trait_trivial_moveIlE6$valueE",
   "name" : "android::trait_trivial_move<long>::(anonymous enum at system/core/libutils/include/utils/TypeHelpers.h:105:1)",
   "referenced_type" : "_ZTIN7android18trait_trivial_moveIlE6$valueE",
   "self_type" : "_ZTIN7android18trait_trivial_moveIlE6$valueE",
   "size" : 4,
   "source_file" : "/system/core/libutils/include/utils/TypeHelpers.h",
   "underlying_type" : "_ZTIj"
  },
  {
   "alignment" : 4,
   "enum_fields" :
   [
    {
     "enum_field_value" : 1,
     "name" : "android::trait_trivial_move<unsigned long>::value"
    }
   ],
   "linker_set_key" : "_ZTIN7android18trait_trivial_moveImE6$valueE",
   "name" : "android::trait_trivial_move<unsigned long>::(anonymous enum at system/core/libutils/include/utils/TypeHelpers.h:106:1)",
   "referenced_type" : "_ZTIN7android18trait_trivial_moveImE6$valueE",
   "self_type" : "_ZTIN7android18trait_trivial_moveImE6$valueE",
   "size" : 4,
   "source_file" : "/system/core/libutils/include/utils/TypeHelpers.h",
   "underlying_type" : "_ZTIj"
  },
  {
   "alignment" : 4,
   "enum_fields" :
   [
    {
     "enum_field_value" : 1,
     "name" : "android::trait_trivial_move<short>::value"
    }
   ],
   "linker_set_key" : "_ZTIN7android18trait_trivial_moveIsE6$valueE",
   "name" : "android::trait_trivial_move<short>::(anonymous enum at system/core/libutils/include/utils/TypeHelpers.h:101:1)",
   "referenced_type" : "_ZTIN7android18trait_trivial_moveIsE6$valueE",
   "self_type" : "_ZTIN7android18trait_trivial_moveIsE6$valueE",
   "size" : 4,
   "source_file" : "/system/core/libutils/include/utils/TypeHelpers.h",
   "underlying_type" : "_ZTIj"
  },
  {
   "alignment" : 4,
   "enum_fields" :
   [
    {
     "enum_field_value" : 1,
     "name" : "android::trait_trivial_move<unsigned short>::value"
    }
   ],
   "linker_set_key" : "_ZTIN7android18trait_trivial_moveItE6$valueE",
   "name" : "android::trait_trivial_move<unsigned short>::(anonymous enum at system/core/libutils/include/utils/TypeHelpers.h:102:1)",
   "referenced_type" : "_ZTIN7android18trait_trivial_moveItE6$valueE",
   "self_type" : "_ZTIN7android18trait_trivial_moveItE6$valueE",
   "size" : 4,
   "source_file" : "/system/core/libutils/include/utils/TypeHelpers.h",
   "underlying_type" : "_ZTIj"
  },
  {
   "alignment" : 4,
   "enum_fields" :
   [
    {
     "enum_field_value" : 1,
     "name" : "android::trait_trivial_move<void>::value"
    }
   ],
   "linker_set_key" : "_ZTIN7android18trait_trivial_moveIvE6$valueE",
   "name" : "android::trait_trivial_move<void>::(anonymous enum at system/core/libutils/include/utils/TypeHelpers.h:97:1)",
   "referenced_type" : "_ZTIN7android18trait_trivial_moveIvE6$valueE",
   "self_type" : "_ZTIN7android18trait_trivial_moveIvE6$valueE",
   "size" : 4,
   "source_file" : "/system/core/libutils/include/utils/TypeHelpers.h",
   "underlying_type" : "_ZTIj"
  },
  {
   "alignment" : 4,
   "enum_fields" :
   [
    {
     "enum_field_value" : 1,
     "name" : "android::trait_trivial_move<long long>::value"
    }
   ],
   "linker_set_key" : "_ZTIN7android18trait_trivial_moveIxE6$valueE",
   "name" : "android::trait_trivial_move<long long>::(anonymous enum at system/core/libutils/include/utils/TypeHelpers.h:107:1)",
   "referenced_type" : "_ZTIN7android18trait_trivial_moveIxE6$valueE",
   "self_type" : "_ZTIN7android18trait_trivial_moveIxE6$valueE",
   "size" : 4,
   "source_file" : "/system/core/libutils/include/utils/TypeHelpers.h",
   "underlying_type" : "_ZTIj"
  },
  {
   "alignment" : 4,
   "enum_fields" :
   [
    {
     "enum_field_value" : 1,
     "name" : "android::trait_trivial_move<unsigned long long>::value"
    }
   ],
   "linker_set_key" : "_ZTIN7android18trait_trivial_moveIyE6$valueE",
   "name" : "android::trait_trivial_move<unsigned long long>::(anonymous enum at system/core/libutils/include/utils/TypeHelpers.h:108:1)",
   "referenced_type" : "_ZTIN7android18trait_trivial_moveIyE6$valueE",
   "self_type" : "_ZTIN7android18trait_trivial_moveIyE6$valueE",
   "size" : 4,
   "source_file" : "/system/core/libutils/include/utils/TypeHelpers.h",
   "underlying_type" : "_ZTIj"
  },
  {
   "alignment" : 4,
   "enum_fields" :
   [
    {
     "enum_field_value" : 0,
     "name" : "android::Mutex::PRIVATE"
    },
    {
     "enum_field_value" : 1,
     "name" : "android::Mutex::SHARED"
    }
   ],
   "linker_set_key" : "_ZTIN7android5Mutex8$PRIVATEE",
   "name" : "android::Mutex::(anonymous enum at system/core/libutils/include/utils/Mutex.h:96:5)",
   "referenced_type" : "_ZTIN7android5Mutex8$PRIVATEE",
   "self_type" : "_ZTIN7android5Mutex8$PRIVATEE",
   "size" : 4,
   "source_file" : "/system/core/libutils/include/utils/Mutex.h",
   "underlying_type" : "_ZTIj"
  },
  {
   "alignment" : 4,
   "enum_fields" :
   [
    {
     "enum_field_value" : 0,
     "name" : "android::ADebug::kDebugNone"
    },
    {
     "enum_field_value" : 1,
     "name" : "android::ADebug::kDebugLifeCycle"
    },
    {
     "enum_field_value" : 2,
     "name" : "android::ADebug::kDebugState"
    },
    {
     "enum_field_value" : 3,
     "name" : "android::ADebug::kDebugConfig"
    },
    {
     "enum_field_value" : 4,
     "name" : "android::ADebug::kDebugInternalState"
    },
    {
     "enum_field_value" : 5,
     "name" : "android::ADebug::kDebugAll"
    },
    {
     "enum_field_value" : 5,
     "name" : "android::ADebug::kDebugMax"
    }
   ],
   "linker_set_key" : "_ZTIN7android6ADebug5LevelE",
   "name" : "android::ADebug::Level",
   "referenced_type" : "_ZTIN7android6ADebug5LevelE",
   "self_type" : "_ZTIN7android6ADebug5LevelE",
   "size" : 4,
   "source_file" : "/frameworks/av/media/libstagefright/foundation/include/media/stagefright/foundation/ADebug.h",
   "underlying_type" : "_ZTIj"
  },
  {
   "alignment" : 4,
   "enum_fields" :
   [
    {
     "enum_field_value" : 0,
     "name" : "android::RWLock::PRIVATE"
    },
    {
     "enum_field_value" : 1,
     "name" : "android::RWLock::SHARED"
    }
   ],
   "linker_set_key" : "_ZTIN7android6RWLock8$PRIVATEE",
   "name" : "android::RWLock::(anonymous enum at system/core/libutils/include/utils/RWLock.h:44:5)",
   "referenced_type" : "_ZTIN7android6RWLock8$PRIVATEE",
   "self_type" : "_ZTIN7android6RWLock8$PRIVATEE",
   "size" : 4,
   "source_file" : "/system/core/libutils/include/utils/RWLock.h",
   "underlying_type" : "_ZTIj"
  },
  {
   "alignment" : 4,
   "enum_fields" :
   [
    {
     "enum_field_value" : 0,
     "name" : "android::traits<OMX_INDEXTYPE>::is_pointer"
    },
    {
     "enum_field_value" : 0,
     "name" : "android::traits<OMX_INDEXTYPE>::has_trivial_ctor"
    },
    {
     "enum_field_value" : 0,
     "name" : "android::traits<OMX_INDEXTYPE>::has_trivial_dtor"
    },
    {
     "enum_field_value" : 0,
     "name" : "android::traits<OMX_INDEXTYPE>::has_trivial_copy"
    },
    {
     "enum_field_value" : 0,
     "name" : "android::traits<OMX_INDEXTYPE>::has_trivial_move"
    }
   ],
   "linker_set_key" : "_ZTIN7android6traitsI13OMX_INDEXTYPEE17$has_trivial_copyE",
   "name" : "android::traits<OMX_INDEXTYPE>::(anonymous enum at system/core/libutils/include/utils/TypeHelpers.h:44:5)",
   "referenced_type" : "_ZTIN7android6traitsI13OMX_INDEXTYPEE17$has_trivial_copyE",
   "self_type" : "_ZTIN7android6traitsI13OMX_INDEXTYPEE17$has_trivial_copyE",
   "size" : 4,
   "source_file" : "/system/core/libutils/include/utils/TypeHelpers.h",
   "underlying_type" : "_ZTIj"
  },
  {
   "alignment" : 4,
   "enum_fields" :
   [
    {
     "enum_field_value" : 0,
     "name" : "android::traits<android::OMXNodeInstance::ActiveBuffer>::is_pointer"
    },
    {
     "enum_field_value" : 0,
     "name" : "android::traits<android::OMXNodeInstance::ActiveBuffer>::has_trivial_ctor"
    },
    {
     "enum_field_value" : 0,
     "name" : "android::traits<android::OMXNodeInstance::ActiveBuffer>::has_trivial_dtor"
    },
    {
     "enum_field_value" : 0,
     "name" : "android::traits<android::OMXNodeInstance::ActiveBuffer>::has_trivial_copy"
    },
    {
     "enum_field_value" : 0,
     "name" : "android::traits<android::OMXNodeInstance::ActiveBuffer>::has_trivial_move"
    }
   ],
   "linker_set_key" : "_ZTIN7android6traitsINS_15OMXNodeInstance12ActiveBufferEE17$has_trivial_copyE",
   "name" : "android::traits<ActiveBuffer>::(anonymous enum at system/core/libutils/include/utils/TypeHelpers.h:44:5)",
   "referenced_type" : "_ZTIN7android6traitsINS_15OMXNodeInstance12ActiveBufferEE17$has_trivial_copyE",
   "self_type" : "_ZTIN7android6traitsINS_15OMXNodeInstance12ActiveBufferEE17$has_trivial_copyE",
   "size" : 4,
   "source_file" : "/system/core/libutils/include/utils/TypeHelpers.h",
   "underlying_type" : "_ZTIj"
  },
  {
   "alignment" : 4,
   "enum_fields" :
   [
    {
     "enum_field_value" : 0,
     "name" : "android::traits<android::key_value_pair_t<android::wp<android::hidl::base::V1_0::IBase>, android::sp<android::OMXNodeInstance> > >::is_pointer"
    },
    {
     "enum_field_value" : 0,
     "name" : "android::traits<android::key_value_pair_t<android::wp<android::hidl::base::V1_0::IBase>, android::sp<android::OMXNodeInstance> > >::has_trivial_ctor"
    },
    {
     "enum_field_value" : 0,
     "name" : "android::traits<android::key_value_pair_t<android::wp<android::hidl::base::V1_0::IBase>, android::sp<android::OMXNodeInstance> > >::has_trivial_dtor"
    },
    {
     "enum_field_value" : 0,
     "name" : "android::traits<android::key_value_pair_t<android::wp<android::hidl::base::V1_0::IBase>, android::sp<android::OMXNodeInstance> > >::has_trivial_copy"
    },
    {
     "enum_field_value" : 0,
     "name" : "android::traits<android::key_value_pair_t<android::wp<android::hidl::base::V1_0::IBase>, android::sp<android::OMXNodeInstance> > >::has_trivial_move"
    }
   ],
   "linker_set_key" : "_ZTIN7android6traitsINS_16key_value_pair_tINS_2wpINS_4hidl4base4V1_05IBaseEEENS_2spINS_15OMXNodeInstanceEEEEEE17$has_trivial_copyE",
   "name" : "android::traits<key_value_pair_t<wp<IBase>, sp<OMXNodeInstance> > >::(anonymous enum at system/core/libutils/include/utils/TypeHelpers.h:44:5)",
   "referenced_type" : "_ZTIN7android6traitsINS_16key_value_pair_tINS_2wpINS_4hidl4base4V1_05IBaseEEENS_2spINS_15OMXNodeInstanceEEEEEE17$has_trivial_copyE",
   "self_type" : "_ZTIN7android6traitsINS_16key_value_pair_tINS_2wpINS_4hidl4base4V1_05IBaseEEENS_2spINS_15OMXNodeInstanceEEEEEE17$has_trivial_copyE",
   "size" : 4,
   "source_file" : "/system/core/libutils/include/utils/TypeHelpers.h",
   "underlying_type" : "_ZTIj"
  },
  {
   "alignment" : 4,
   "enum_fields" :
   [
    {
     "enum_field_value" : 0,
     "name" : "android::traits<android::key_value_pair_t<android::String8, android::OMXPluginBase *> >::is_pointer"
    },
    {
     "enum_field_value" : 0,
     "name" : "android::traits<android::key_value_pair_t<android::String8, android::OMXPluginBase *> >::has_trivial_ctor"
    },
    {
     "enum_field_value" : 0,
     "name" : "android::traits<android::key_value_pair_t<android::String8, android::OMXPluginBase *> >::has_trivial_dtor"
    },
    {
     "enum_field_value" : 0,
     "name" : "android::traits<android::key_value_pair_t<android::String8, android::OMXPluginBase *> >::has_trivial_copy"
    },
    {
     "enum_field_value" : 1,
     "name" : "android::traits<android::key_value_pair_t<android::String8, android::OMXPluginBase *> >::has_trivial_move"
    }
   ],
   "linker_set_key" : "_ZTIN7android6traitsINS_16key_value_pair_tINS_7String8EPNS_13OMXPluginBaseEEEE17$has_trivial_copyE",
   "name" : "android::traits<key_value_pair_t<String8, OMXPluginBase *> >::(anonymous enum at system/core/libutils/include/utils/TypeHelpers.h:44:5)",
   "referenced_type" : "_ZTIN7android6traitsINS_16key_value_pair_tINS_7String8EPNS_13OMXPluginBaseEEEE17$has_trivial_copyE",
   "self_type" : "_ZTIN7android6traitsINS_16key_value_pair_tINS_7String8EPNS_13OMXPluginBaseEEEE17$has_trivial_copyE",
   "size" : 4,
   "source_file" : "/system/core/libutils/include/utils/TypeHelpers.h",
   "underlying_type" : "_ZTIj"
  },
  {
   "alignment" : 4,
   "enum_fields" :
   [
    {
     "enum_field_value" : 0,
     "name" : "android::traits<android::key_value_pair_t<OMX_COMPONENTTYPE *, android::OMXPluginBase *> >::is_pointer"
    },
    {
     "enum_field_value" : 1,
     "name" : "android::traits<android::key_value_pair_t<OMX_COMPONENTTYPE *, android::OMXPluginBase *> >::has_trivial_ctor"
    },
    {
     "enum_field_value" : 1,
     "name" : "android::traits<android::key_value_pair_t<OMX_COMPONENTTYPE *, android::OMXPluginBase *> >::has_trivial_dtor"
    },
    {
     "enum_field_value" : 1,
     "name" : "android::traits<android::key_value_pair_t<OMX_COMPONENTTYPE *, android::OMXPluginBase *> >::has_trivial_copy"
    },
    {
     "enum_field_value" : 1,
     "name" : "android::traits<android::key_value_pair_t<OMX_COMPONENTTYPE *, android::OMXPluginBase *> >::has_trivial_move"
    }
   ],
   "linker_set_key" : "_ZTIN7android6traitsINS_16key_value_pair_tIP17OMX_COMPONENTTYPEPNS_13OMXPluginBaseEEEE17$has_trivial_copyE",
   "name" : "android::traits<key_value_pair_t<OMX_COMPONENTTYPE *, OMXPluginBase *> >::(anonymous enum at system/core/libutils/include/utils/TypeHelpers.h:44:5)",
   "referenced_type" : "_ZTIN7android6traitsINS_16key_value_pair_tIP17OMX_COMPONENTTYPEPNS_13OMXPluginBaseEEEE17$has_trivial_copyE",
   "self_type" : "_ZTIN7android6traitsINS_16key_value_pair_tIP17OMX_COMPONENTTYPEPNS_13OMXPluginBaseEEEE17$has_trivial_copyE",
   "size" : 4,
   "source_file" : "/system/core/libutils/include/utils/TypeHelpers.h",
   "underlying_type" : "_ZTIj"
  },
  {
   "alignment" : 4,
   "enum_fields" :
   [
    {
     "enum_field_value" : 0,
     "name" : "android::traits<android::key_value_pair_t<OMX_BUFFERHEADERTYPE *, unsigned int> >::is_pointer"
    },
    {
     "enum_field_value" : 1,
     "name" : "android::traits<android::key_value_pair_t<OMX_BUFFERHEADERTYPE *, unsigned int> >::has_trivial_ctor"
    },
    {
     "enum_field_value" : 1,
     "name" : "android::traits<android::key_value_pair_t<OMX_BUFFERHEADERTYPE *, unsigned int> >::has_trivial_dtor"
    },
    {
     "enum_field_value" : 1,
     "name" : "android::traits<android::key_value_pair_t<OMX_BUFFERHEADERTYPE *, unsigned int> >::has_trivial_copy"
    },
    {
     "enum_field_value" : 1,
     "name" : "android::traits<android::key_value_pair_t<OMX_BUFFERHEADERTYPE *, unsigned int> >::has_trivial_move"
    }
   ],
   "linker_set_key" : "_ZTIN7android6traitsINS_16key_value_pair_tIP20OMX_BUFFERHEADERTYPEjEEE17$has_trivial_copyE",
   "name" : "android::traits<key_value_pair_t<OMX_BUFFERHEADERTYPE *, unsigned int> >::(anonymous enum at system/core/libutils/include/utils/TypeHelpers.h:44:5)",
   "referenced_type" : "_ZTIN7android6traitsINS_16key_value_pair_tIP20OMX_BUFFERHEADERTYPEjEEE17$has_trivial_copyE",
   "self_type" : "_ZTIN7android6traitsINS_16key_value_pair_tIP20OMX_BUFFERHEADERTYPEjEEE17$has_trivial_copyE",
   "size" : 4,
   "source_file" : "/system/core/libutils/include/utils/TypeHelpers.h",
   "underlying_type" : "_ZTIj"
  },
  {
   "alignment" : 4,
   "enum_fields" :
   [
    {
     "enum_field_value" : 0,
     "name" : "android::traits<android::key_value_pair_t<android::OMXNodeInstance *, android::wp<android::hidl::base::V1_0::IBase> > >::is_pointer"
    },
    {
     "enum_field_value" : 0,
     "name" : "android::traits<android::key_value_pair_t<android::OMXNodeInstance *, android::wp<android::hidl::base::V1_0::IBase> > >::has_trivial_ctor"
    },
    {
     "enum_field_value" : 0,
     "name" : "android::traits<android::key_value_pair_t<android::OMXNodeInstance *, android::wp<android::hidl::base::V1_0::IBase> > >::has_trivial_dtor"
    },
    {
     "enum_field_value" : 0,
     "name" : "android::traits<android::key_value_pair_t<android::OMXNodeInstance *, android::wp<android::hidl::base::V1_0::IBase> > >::has_trivial_copy"
    },
    {
     "enum_field_value" : 0,
     "name" : "android::traits<android::key_value_pair_t<android::OMXNodeInstance *, android::wp<android::hidl::base::V1_0::IBase> > >::has_trivial_move"
    }
   ],
   "linker_set_key" : "_ZTIN7android6traitsINS_16key_value_pair_tIPNS_15OMXNodeInstanceENS_2wpINS_4hidl4base4V1_05IBaseEEEEEE17$has_trivial_copyE",
   "name" : "android::traits<key_value_pair_t<OMXNodeInstance *, wp<IBase> > >::(anonymous enum at system/core/libutils/include/utils/TypeHelpers.h:44:5)",
   "referenced_type" : "_ZTIN7android6traitsINS_16key_value_pair_tIPNS_15OMXNodeInstanceENS_2wpINS_4hidl4base4V1_05IBaseEEEEEE17$has_trivial_copyE",
   "self_type" : "_ZTIN7android6traitsINS_16key_value_pair_tIPNS_15OMXNodeInstanceENS_2wpINS_4hidl4base4V1_05IBaseEEEEEE17$has_trivial_copyE",
   "size" : 4,
   "source_file" : "/system/core/libutils/include/utils/TypeHelpers.h",
   "underlying_type" : "_ZTIj"
  },
  {
   "alignment" : 4,
   "enum_fields" :
   [
    {
     "enum_field_value" : 0,
     "name" : "android::traits<android::key_value_pair_t<unsigned int, OMX_BUFFERHEADERTYPE *> >::is_pointer"
    },
    {
     "enum_field_value" : 1,
     "name" : "android::traits<android::key_value_pair_t<unsigned int, OMX_BUFFERHEADERTYPE *> >::has_trivial_ctor"
    },
    {
     "enum_field_value" : 1,
     "name" : "android::traits<android::key_value_pair_t<unsigned int, OMX_BUFFERHEADERTYPE *> >::has_trivial_dtor"
    },
    {
     "enum_field_value" : 1,
     "name" : "android::traits<android::key_value_pair_t<unsigned int, OMX_BUFFERHEADERTYPE *> >::has_trivial_copy"
    },
    {
     "enum_field_value" : 1,
     "name" : "android::traits<android::key_value_pair_t<unsigned int, OMX_BUFFERHEADERTYPE *> >::has_trivial_move"
    }
   ],
   "linker_set_key" : "_ZTIN7android6traitsINS_16key_value_pair_tIjP20OMX_BUFFERHEADERTYPEEEE17$has_trivial_copyE",
   "name" : "android::traits<key_value_pair_t<unsigned int, OMX_BUFFERHEADERTYPE *> >::(anonymous enum at system/core/libutils/include/utils/TypeHelpers.h:44:5)",
   "referenced_type" : "_ZTIN7android6traitsINS_16key_value_pair_tIjP20OMX_BUFFERHEADERTYPEEEE17$has_trivial_copyE",
   "self_type" : "_ZTIN7android6traitsINS_16key_value_pair_tIjP20OMX_BUFFERHEADERTYPEEEE17$has_trivial_copyE",
   "size" : 4,
   "source_file" : "/system/core/libutils/include/utils/TypeHelpers.h",
   "underlying_type" : "_ZTIj"
  },
  {
   "alignment" : 4,
   "enum_fields" :
   [
    {
     "enum_field_value" : 0,
     "name" : "android::traits<android::key_value_pair_t<unsigned int, unsigned int> >::is_pointer"
    },
    {
     "enum_field_value" : 1,
     "name" : "android::traits<android::key_value_pair_t<unsigned int, unsigned int> >::has_trivial_ctor"
    },
    {
     "enum_field_value" : 1,
     "name" : "android::traits<android::key_value_pair_t<unsigned int, unsigned int> >::has_trivial_dtor"
    },
    {
     "enum_field_value" : 1,
     "name" : "android::traits<android::key_value_pair_t<unsigned int, unsigned int> >::has_trivial_copy"
    },
    {
     "enum_field_value" : 1,
     "name" : "android::traits<android::key_value_pair_t<unsigned int, unsigned int> >::has_trivial_move"
    }
   ],
   "linker_set_key" : "_ZTIN7android6traitsINS_16key_value_pair_tIjjEEE17$has_trivial_copyE",
   "name" : "android::traits<key_value_pair_t<unsigned int, unsigned int> >::(anonymous enum at system/core/libutils/include/utils/TypeHelpers.h:44:5)",
   "referenced_type" : "_ZTIN7android6traitsINS_16key_value_pair_tIjjEEE17$has_trivial_copyE",
   "self_type" : "_ZTIN7android6traitsINS_16key_value_pair_tIjjEEE17$has_trivial_copyE",
   "size" : 4,
   "source_file" : "/system/core/libutils/include/utils/TypeHelpers.h",
   "underlying_type" : "_ZTIj"
  },
  {
   "alignment" : 4,
   "enum_fields" :
   [
    {
     "enum_field_value" : 0,
     "name" : "android::traits<android::key_value_pair_t<long, long> >::is_pointer"
    },
    {
     "enum_field_value" : 1,
     "name" : "android::traits<android::key_value_pair_t<long, long> >::has_trivial_ctor"
    },
    {
     "enum_field_value" : 1,
     "name" : "android::traits<android::key_value_pair_t<long, long> >::has_trivial_dtor"
    },
    {
     "enum_field_value" : 1,
     "name" : "android::traits<android::key_value_pair_t<long, long> >::has_trivial_copy"
    },
    {
     "enum_field_value" : 1,
     "name" : "android::traits<android::key_value_pair_t<long, long> >::has_trivial_move"
    }
   ],
   "linker_set_key" : "_ZTIN7android6traitsINS_16key_value_pair_tIllEEE17$has_trivial_copyE",
   "name" : "android::traits<key_value_pair_t<long, long> >::(anonymous enum at system/core/libutils/include/utils/TypeHelpers.h:44:5)",
   "referenced_type" : "_ZTIN7android6traitsINS_16key_value_pair_tIllEEE17$has_trivial_copyE",
   "self_type" : "_ZTIN7android6traitsINS_16key_value_pair_tIllEEE17$has_trivial_copyE",
   "size" : 4,
   "source_file" : "/system/core/libutils/include/utils/TypeHelpers.h",
   "underlying_type" : "_ZTIj"
  },
  {
   "alignment" : 4,
   "enum_fields" :
   [
    {
     "enum_field_value" : 0,
     "name" : "android::traits<android::sp<android::OMXNodeInstance> >::is_pointer"
    },
    {
     "enum_field_value" : 0,
     "name" : "android::traits<android::sp<android::OMXNodeInstance> >::has_trivial_ctor"
    },
    {
     "enum_field_value" : 0,
     "name" : "android::traits<android::sp<android::OMXNodeInstance> >::has_trivial_dtor"
    },
    {
     "enum_field_value" : 0,
     "name" : "android::traits<android::sp<android::OMXNodeInstance> >::has_trivial_copy"
    },
    {
     "enum_field_value" : 0,
     "name" : "android::traits<android::sp<android::OMXNodeInstance> >::has_trivial_move"
    }
   ],
   "linker_set_key" : "_ZTIN7android6traitsINS_2spINS_15OMXNodeInstanceEEEE17$has_trivial_copyE",
   "name" : "android::traits<sp<OMXNodeInstance> >::(anonymous enum at system/core/libutils/include/utils/TypeHelpers.h:44:5)",
   "referenced_type" : "_ZTIN7android6traitsINS_2spINS_15OMXNodeInstanceEEEE17$has_trivial_copyE",
   "self_type" : "_ZTIN7android6traitsINS_2spINS_15OMXNodeInstanceEEEE17$has_trivial_copyE",
   "size" : 4,
   "source_file" : "/system/core/libutils/include/utils/TypeHelpers.h",
   "underlying_type" : "_ZTIj"
  },
  {
   "alignment" : 4,
   "enum_fields" :
   [
    {
     "enum_field_value" : 0,
     "name" : "android::traits<android::wp<android::hidl::base::V1_0::IBase> >::is_pointer"
    },
    {
     "enum_field_value" : 0,
     "name" : "android::traits<android::wp<android::hidl::base::V1_0::IBase> >::has_trivial_ctor"
    },
    {
     "enum_field_value" : 0,
     "name" : "android::traits<android::wp<android::hidl::base::V1_0::IBase> >::has_trivial_dtor"
    },
    {
     "enum_field_value" : 0,
     "name" : "android::traits<android::wp<android::hidl::base::V1_0::IBase> >::has_trivial_copy"
    },
    {
     "enum_field_value" : 0,
     "name" : "android::traits<android::wp<android::hidl::base::V1_0::IBase> >::has_trivial_move"
    }
   ],
   "linker_set_key" : "_ZTIN7android6traitsINS_2wpINS_4hidl4base4V1_05IBaseEEEE17$has_trivial_copyE",
   "name" : "android::traits<wp<IBase> >::(anonymous enum at system/core/libutils/include/utils/TypeHelpers.h:44:5)",
   "referenced_type" : "_ZTIN7android6traitsINS_2wpINS_4hidl4base4V1_05IBaseEEEE17$has_trivial_copyE",
   "self_type" : "_ZTIN7android6traitsINS_2wpINS_4hidl4base4V1_05IBaseEEEE17$has_trivial_copyE",
   "size" : 4,
   "source_file" : "/system/core/libutils/include/utils/TypeHelpers.h",
   "underlying_type" : "_ZTIj"
  },
  {
   "alignment" : 4,
   "enum_fields" :
   [
    {
     "enum_field_value" : 0,
     "name" : "android::traits<android::String8>::is_pointer"
    },
    {
     "enum_field_value" : 0,
     "name" : "android::traits<android::String8>::has_trivial_ctor"
    },
    {
     "enum_field_value" : 0,
     "name" : "android::traits<android::String8>::has_trivial_dtor"
    },
    {
     "enum_field_value" : 0,
     "name" : "android::traits<android::String8>::has_trivial_copy"
    },
    {
     "enum_field_value" : 1,
     "name" : "android::traits<android::String8>::has_trivial_move"
    }
   ],
   "linker_set_key" : "_ZTIN7android6traitsINS_7String8EE17$has_trivial_copyE",
   "name" : "android::traits<String8>::(anonymous enum at system/core/libutils/include/utils/TypeHelpers.h:44:5)",
   "referenced_type" : "_ZTIN7android6traitsINS_7String8EE17$has_trivial_copyE",
   "self_type" : "_ZTIN7android6traitsINS_7String8EE17$has_trivial_copyE",
   "size" : 4,
   "source_file" : "/system/core/libutils/include/utils/TypeHelpers.h",
   "underlying_type" : "_ZTIj"
  },
  {
   "alignment" : 4,
   "enum_fields" :
   [
    {
     "enum_field_value" : 1,
     "name" : "android::traits<OMX_COMPONENTTYPE *>::is_pointer"
    },
    {
     "enum_field_value" : 1,
     "name" : "android::traits<OMX_COMPONENTTYPE *>::has_trivial_ctor"
    },
    {
     "enum_field_value" : 1,
     "name" : "android::traits<OMX_COMPONENTTYPE *>::has_trivial_dtor"
    },
    {
     "enum_field_value" : 1,
     "name" : "android::traits<OMX_COMPONENTTYPE *>::has_trivial_copy"
    },
    {
     "enum_field_value" : 1,
     "name" : "android::traits<OMX_COMPONENTTYPE *>::has_trivial_move"
    }
   ],
   "linker_set_key" : "_ZTIN7android6traitsIP17OMX_COMPONENTTYPEE17$has_trivial_copyE",
   "name" : "android::traits<OMX_COMPONENTTYPE *>::(anonymous enum at system/core/libutils/include/utils/TypeHelpers.h:44:5)",
   "referenced_type" : "_ZTIN7android6traitsIP17OMX_COMPONENTTYPEE17$has_trivial_copyE",
   "self_type" : "_ZTIN7android6traitsIP17OMX_COMPONENTTYPEE17$has_trivial_copyE",
   "size" : 4,
   "source_file" : "/system/core/libutils/include/utils/TypeHelpers.h",
   "underlying_type" : "_ZTIj"
  },
  {
   "alignment" : 4,
   "enum_fields" :
   [
    {
     "enum_field_value" : 1,
     "name" : "android::traits<OMX_BUFFERHEADERTYPE *>::is_pointer"
    },
    {
     "enum_field_value" : 1,
     "name" : "android::traits<OMX_BUFFERHEADERTYPE *>::has_trivial_ctor"
    },
    {
     "enum_field_value" : 1,
     "name" : "android::traits<OMX_BUFFERHEADERTYPE *>::has_trivial_dtor"
    },
    {
     "enum_field_value" : 1,
     "name" : "android::traits<OMX_BUFFERHEADERTYPE *>::has_trivial_copy"
    },
    {
     "enum_field_value" : 1,
     "name" : "android::traits<OMX_BUFFERHEADERTYPE *>::has_trivial_move"
    }
   ],
   "linker_set_key" : "_ZTIN7android6traitsIP20OMX_BUFFERHEADERTYPEE17$has_trivial_copyE",
   "name" : "android::traits<OMX_BUFFERHEADERTYPE *>::(anonymous enum at system/core/libutils/include/utils/TypeHelpers.h:44:5)",
   "referenced_type" : "_ZTIN7android6traitsIP20OMX_BUFFERHEADERTYPEE17$has_trivial_copyE",
   "self_type" : "_ZTIN7android6traitsIP20OMX_BUFFERHEADERTYPEE17$has_trivial_copyE",
   "size" : 4,
   "source_file" : "/system/core/libutils/include/utils/TypeHelpers.h",
   "underlying_type" : "_ZTIj"
  },
  {
   "alignment" : 4,
   "enum_fields" :
   [
    {
     "enum_field_value" : 1,
     "name" : "android::traits<android::OMXPluginBase *>::is_pointer"
    },
    {
     "enum_field_value" : 1,
     "name" : "android::traits<android::OMXPluginBase *>::has_trivial_ctor"
    },
    {
     "enum_field_value" : 1,
     "name" : "android::traits<android::OMXPluginBase *>::has_trivial_dtor"
    },
    {
     "enum_field_value" : 1,
     "name" : "android::traits<android::OMXPluginBase *>::has_trivial_copy"
    },
    {
     "enum_field_value" : 1,
     "name" : "android::traits<android::OMXPluginBase *>::has_trivial_move"
    }
   ],
   "linker_set_key" : "_ZTIN7android6traitsIPNS_13OMXPluginBaseEE17$has_trivial_copyE",
   "name" : "android::traits<OMXPluginBase *>::(anonymous enum at system/core/libutils/include/utils/TypeHelpers.h:44:5)",
   "referenced_type" : "_ZTIN7android6traitsIPNS_13OMXPluginBaseEE17$has_trivial_copyE",
   "self_type" : "_ZTIN7android6traitsIPNS_13OMXPluginBaseEE17$has_trivial_copyE",
   "size" : 4,
   "source_file" : "/system/core/libutils/include/utils/TypeHelpers.h",
   "underlying_type" : "_ZTIj"
  },
  {
   "alignment" : 4,
   "enum_fields" :
   [
    {
     "enum_field_value" : 1,
     "name" : "android::traits<android::OMXNodeInstance *>::is_pointer"
    },
    {
     "enum_field_value" : 1,
     "name" : "android::traits<android::OMXNodeInstance *>::has_trivial_ctor"
    },
    {
     "enum_field_value" : 1,
     "name" : "android::traits<android::OMXNodeInstance *>::has_trivial_dtor"
    },
    {
     "enum_field_value" : 1,
     "name" : "android::traits<android::OMXNodeInstance *>::has_trivial_copy"
    },
    {
     "enum_field_value" : 1,
     "name" : "android::traits<android::OMXNodeInstance *>::has_trivial_move"
    }
   ],
   "linker_set_key" : "_ZTIN7android6traitsIPNS_15OMXNodeInstanceEE17$has_trivial_copyE",
   "name" : "android::traits<OMXNodeInstance *>::(anonymous enum at system/core/libutils/include/utils/TypeHelpers.h:44:5)",
   "referenced_type" : "_ZTIN7android6traitsIPNS_15OMXNodeInstanceEE17$has_trivial_copyE",
   "self_type" : "_ZTIN7android6traitsIPNS_15OMXNodeInstanceEE17$has_trivial_copyE",
   "size" : 4,
   "source_file" : "/system/core/libutils/include/utils/TypeHelpers.h",
   "underlying_type" : "_ZTIj"
  },
  {
   "alignment" : 4,
   "enum_fields" :
   [
    {
     "enum_field_value" : 0,
     "name" : "android::traits<unsigned int>::is_pointer"
    },
    {
     "enum_field_value" : 1,
     "name" : "android::traits<unsigned int>::has_trivial_ctor"
    },
    {
     "enum_field_value" : 1,
     "name" : "android::traits<unsigned int>::has_trivial_dtor"
    },
    {
     "enum_field_value" : 1,
     "name" : "android::traits<unsigned int>::has_trivial_copy"
    },
    {
     "enum_field_value" : 1,
     "name" : "android::traits<unsigned int>::has_trivial_move"
    }
   ],
   "linker_set_key" : "_ZTIN7android6traitsIjE17$has_trivial_copyE",
   "name" : "android::traits<unsigned int>::(anonymous enum at system/core/libutils/include/utils/TypeHelpers.h:44:5)",
   "referenced_type" : "_ZTIN7android6traitsIjE17$has_trivial_copyE",
   "self_type" : "_ZTIN7android6traitsIjE17$has_trivial_copyE",
   "size" : 4,
   "source_file" : "/system/core/libutils/include/utils/TypeHelpers.h",
   "underlying_type" : "_ZTIj"
  },
  {
   "alignment" : 4,
   "enum_fields" :
   [
    {
     "enum_field_value" : 0,
     "name" : "android::traits<long>::is_pointer"
    },
    {
     "enum_field_value" : 1,
     "name" : "android::traits<long>::has_trivial_ctor"
    },
    {
     "enum_field_value" : 1,
     "name" : "android::traits<long>::has_trivial_dtor"
    },
    {
     "enum_field_value" : 1,
     "name" : "android::traits<long>::has_trivial_copy"
    },
    {
     "enum_field_value" : 1,
     "name" : "android::traits<long>::has_trivial_move"
    }
   ],
   "linker_set_key" : "_ZTIN7android6traitsIlE17$has_trivial_copyE",
   "name" : "android::traits<long>::(anonymous enum at system/core/libutils/include/utils/TypeHelpers.h:44:5)",
   "referenced_type" : "_ZTIN7android6traitsIlE17$has_trivial_copyE",
   "self_type" : "_ZTIN7android6traitsIlE17$has_trivial_copyE",
   "size" : 4,
   "source_file" : "/system/core/libutils/include/utils/TypeHelpers.h",
   "underlying_type" : "_ZTIj"
  },
  {
   "access" : "protected",
   "alignment" : 4,
   "enum_fields" :
   [
    {
     "enum_field_value" : 1,
     "name" : "android::RefBase::FIRST_INC_STRONG"
    }
   ],
   "linker_set_key" : "_ZTIN7android7RefBase17$FIRST_INC_STRONGE",
   "name" : "android::RefBase::(anonymous enum at system/core/libutils/include/utils/RefBase.h:313:5)",
   "referenced_type" : "_ZTIN7android7RefBase17$FIRST_INC_STRONGE",
   "self_type" : "_ZTIN7android7RefBase17$FIRST_INC_STRONGE",
   "size" : 4,
   "source_file" : "/system/core/libutils/include/utils/RefBase.h",
   "underlying_type" : "_ZTIj"
  },
  {
   "access" : "protected",
   "alignment" : 4,
   "enum_fields" :
   [
    {
     "enum_field_value" : 0,
     "name" : "android::RefBase::OBJECT_LIFETIME_STRONG"
    },
    {
     "enum_field_value" : 1,
     "name" : "android::RefBase::OBJECT_LIFETIME_WEAK"
    },
    {
     "enum_field_value" : 1,
     "name" : "android::RefBase::OBJECT_LIFETIME_MASK"
    }
   ],
   "linker_set_key" : "_ZTIN7android7RefBase21$OBJECT_LIFETIME_MASKE",
   "name" : "android::RefBase::(anonymous enum at system/core/libutils/include/utils/RefBase.h:304:5)",
   "referenced_type" : "_ZTIN7android7RefBase21$OBJECT_LIFETIME_MASKE",
   "self_type" : "_ZTIN7android7RefBase21$OBJECT_LIFETIME_MASKE",
   "size" : 4,
   "source_file" : "/system/core/libutils/include/utils/RefBase.h",
   "underlying_type" : "_ZTIj"
  },
  {
   "alignment" : 4,
   "enum_fields" :
   [
    {
     "enum_field_value" : 0,
     "name" : "android::String8::kEmptyString"
    }
   ],
   "linker_set_key" : "_ZTIN7android7String813StaticLinkageE",
   "name" : "android::String8::StaticLinkage",
   "referenced_type" : "_ZTIN7android7String813StaticLinkageE",
   "self_type" : "_ZTIN7android7String813StaticLinkageE",
   "size" : 4,
   "source_file" : "/system/core/libutils/include/utils/String8.h",
   "underlying_type" : "_ZTIj"
  },
  {
   "access" : "private",
   "alignment" : 4,
   "enum_fields" :
   [
    {
     "enum_field_value" : 64,
     "name" : "android::AMessage::kMaxNumItems"
    }
   ],
   "linker_set_key" : "_ZTIN7android8AMessage13$kMaxNumItemsE",
   "name" : "android::AMessage::(anonymous enum at frameworks/av/media/libstagefright/foundation/include/media/stagefright/foundation/AMessage.h:296:5)",
   "referenced_type" : "_ZTIN7android8AMessage13$kMaxNumItemsE",
   "self_type" : "_ZTIN7android8AMessage13$kMaxNumItemsE",
   "size" : 4,
   "source_file" : "/frameworks/av/media/libstagefright/foundation/include/media/stagefright/foundation/AMessage.h",
   "underlying_type" : "_ZTIj"
  },
  {
   "alignment" : 4,
   "enum_fields" :
   [
    {
     "enum_field_value" : 0,
     "name" : "android::AMessage::kTypeInt32"
    },
    {
     "enum_field_value" : 1,
     "name" : "android::AMessage::kTypeInt64"
    },
    {
     "enum_field_value" : 2,
     "name" : "android::AMessage::kTypeSize"
    },
    {
     "enum_field_value" : 3,
     "name" : "android::AMessage::kTypeFloat"
    },
    {
     "enum_field_value" : 4,
     "name" : "android::AMessage::kTypeDouble"
    },
    {
     "enum_field_value" : 5,
     "name" : "android::AMessage::kTypePointer"
    },
    {
     "enum_field_value" : 6,
     "name" : "android::AMessage::kTypeString"
    },
    {
     "enum_field_value" : 7,
     "name" : "android::AMessage::kTypeObject"
    },
    {
     "enum_field_value" : 8,
     "name" : "android::AMessage::kTypeMessage"
    },
    {
     "enum_field_value" : 9,
     "name" : "android::AMessage::kTypeRect"
    },
    {
     "enum_field_value" : 10,
     "name" : "android::AMessage::kTypeBuffer"
    }
   ],
   "linker_set_key" : "_ZTIN7android8AMessage4TypeE",
   "name" : "android::AMessage::Type",
   "referenced_type" : "_ZTIN7android8AMessage4TypeE",
   "self_type" : "_ZTIN7android8AMessage4TypeE",
   "size" : 4,
   "source_file" : "/frameworks/av/media/libstagefright/foundation/include/media/stagefright/foundation/AMessage.h",
   "underlying_type" : "_ZTIj"
  },
  {
   "alignment" : 4,
   "enum_fields" :
   [
    {
     "enum_field_value" : 0,
     "name" : "android::String16::kEmptyString"
    }
   ],
   "linker_set_key" : "_ZTIN7android8String1613StaticLinkageE",
   "name" : "android::String16::StaticLinkage",
   "referenced_type" : "_ZTIN7android8String1613StaticLinkageE",
   "self_type" : "_ZTIN7android8String1613StaticLinkageE",
   "size" : 4,
   "source_file" : "/system/core/libutils/include/utils/String16.h",
   "underlying_type" : "_ZTIj"
  },
  {
   "alignment" : 4,
   "enum_fields" :
   [
    {
     "enum_field_value" : 0,
     "name" : "android::Condition::WAKE_UP_ONE"
    },
    {
     "enum_field_value" : 1,
     "name" : "android::Condition::WAKE_UP_ALL"
    }
   ],
   "linker_set_key" : "_ZTIN7android9Condition10WakeUpTypeE",
   "name" : "android::Condition::WakeUpType",
   "referenced_type" : "_ZTIN7android9Condition10WakeUpTypeE",
   "self_type" : "_ZTIN7android9Condition10WakeUpTypeE",
   "size" : 4,
   "source_file" : "/system/core/libutils/include/utils/Condition.h",
   "underlying_type" : "_ZTIj"
  },
  {
   "alignment" : 4,
   "enum_fields" :
   [
    {
     "enum_field_value" : 0,
     "name" : "android::Condition::PRIVATE"
    },
    {
     "enum_field_value" : 1,
     "name" : "android::Condition::SHARED"
    }
   ],
   "linker_set_key" : "_ZTIN7android9Condition8$PRIVATEE",
   "name" : "android::Condition::(anonymous enum at system/core/libutils/include/utils/Condition.h:54:5)",
   "referenced_type" : "_ZTIN7android9Condition8$PRIVATEE",
   "self_type" : "_ZTIN7android9Condition8$PRIVATEE",
   "size" : 4,
   "source_file" : "/system/core/libutils/include/utils/Condition.h",
   "underlying_type" : "_ZTIj"
  }
 ],
 "function_types" :
 [
  {
   "alignment" : 4,
   "linker_set_key" : "_ZTIF13OMX_ERRORTYPEPv13OMX_INDEXTYPES0_E",
   "name" : "OMX_ERRORTYPE (void *, OMX_INDEXTYPE, void *)",
   "parameters" :
   [
    {
     "referenced_type" : "_ZTIPv"
    },
    {
     "referenced_type" : "_ZTI13OMX_INDEXTYPE"
    },
    {
     "referenced_type" : "_ZTIPv"
    }
   ],
   "referenced_type" : "_ZTIF13OMX_ERRORTYPEPv13OMX_INDEXTYPES0_E",
   "return_type" : "_ZTI13OMX_ERRORTYPE",
   "self_type" : "_ZTIF13OMX_ERRORTYPEPv13OMX_INDEXTYPES0_E",
   "source_file" : "/frameworks/native/headers/media_plugin/media/openmax/OMX_Component.h"
  },
  {
   "alignment" : 4,
   "linker_set_key" : "_ZTIF13OMX_ERRORTYPEPv15OMX_COMMANDTYPEjS0_E",
   "name" : "OMX_ERRORTYPE (void *, OMX_COMMANDTYPE, unsigned int, void *)",
   "parameters" :
   [
    {
     "referenced_type" : "_ZTIPv"
    },
    {
     "referenced_type" : "_ZTI15OMX_COMMANDTYPE"
    },
    {
     "referenced_type" : "_ZTIj"
    },
    {
     "referenced_type" : "_ZTIPv"
    }
   ],
   "referenced_type" : "_ZTIF13OMX_ERRORTYPEPv15OMX_COMMANDTYPEjS0_E",
   "return_type" : "_ZTI13OMX_ERRORTYPE",
   "self_type" : "_ZTIF13OMX_ERRORTYPEPv15OMX_COMMANDTYPEjS0_E",
   "source_file" : "/frameworks/native/headers/media_plugin/media/openmax/OMX_Component.h"
  },
  {
   "alignment" : 4,
   "linker_set_key" : "_ZTIF13OMX_ERRORTYPEPvE",
   "name" : "OMX_ERRORTYPE (void *)",
   "parameters" :
   [
    {
     "referenced_type" : "_ZTIPv"
    }
   ],
   "referenced_type" : "_ZTIF13OMX_ERRORTYPEPvE",
   "return_type" : "_ZTI13OMX_ERRORTYPE",
   "self_type" : "_ZTIF13OMX_ERRORTYPEPvE",
   "source_file" : "/frameworks/native/headers/media_plugin/media/openmax/OMX_Core.h"
  },
  {
   "alignment" : 4,
   "linker_set_key" : "_ZTIF13OMX_ERRORTYPEPvP13OMX_STATETYPEE",
   "name" : "OMX_ERRORTYPE (void *, OMX_STATETYPE *)",
   "parameters" :
   [
    {
     "referenced_type" : "_ZTIPv"
    },
    {
     "referenced_type" : "_ZTIP13OMX_STATETYPE"
    }
   ],
   "referenced_type" : "_ZTIF13OMX_ERRORTYPEPvP13OMX_STATETYPEE",
   "return_type" : "_ZTI13OMX_ERRORTYPE",
   "self_type" : "_ZTIF13OMX_ERRORTYPEPvP13OMX_STATETYPEE",
   "source_file" : "/frameworks/native/headers/media_plugin/media/openmax/OMX_Component.h"
  },
  {
   "alignment" : 4,
   "linker_set_key" : "_ZTIF13OMX_ERRORTYPEPvP16OMX_CALLBACKTYPES0_E",
   "name" : "OMX_ERRORTYPE (void *, OMX_CALLBACKTYPE *, void *)",
   "parameters" :
   [
    {
     "referenced_type" : "_ZTIPv"
    },
    {
     "referenced_type" : "_ZTIP16OMX_CALLBACKTYPE"
    },
    {
     "referenced_type" : "_ZTIPv"
    }
   ],
   "referenced_type" : "_ZTIF13OMX_ERRORTYPEPvP16OMX_CALLBACKTYPES0_E",
   "return_type" : "_ZTI13OMX_ERRORTYPE",
   "self_type" : "_ZTIF13OMX_ERRORTYPEPvP16OMX_CALLBACKTYPES0_E",
   "source_file" : "/frameworks/native/headers/media_plugin/media/openmax/OMX_Component.h"
  },
  {
   "alignment" : 4,
   "linker_set_key" : "_ZTIF13OMX_ERRORTYPEPvP20OMX_BUFFERHEADERTYPEE",
   "name" : "OMX_ERRORTYPE (void *, OMX_BUFFERHEADERTYPE *)",
   "parameters" :
   [
    {
     "referenced_type" : "_ZTIPv"
    },
    {
     "referenced_type" : "_ZTIP20OMX_BUFFERHEADERTYPE"
    }
   ],
   "referenced_type" : "_ZTIF13OMX_ERRORTYPEPvP20OMX_BUFFERHEADERTYPEE",
   "return_type" : "_ZTI13OMX_ERRORTYPE",
   "self_type" : "_ZTIF13OMX_ERRORTYPEPvP20OMX_BUFFERHEADERTYPEE",
   "source_file" : "/frameworks/native/headers/media_plugin/media/openmax/OMX_Component.h"
  },
  {
   "alignment" : 4,
   "linker_set_key" : "_ZTIF13OMX_ERRORTYPEPvPP20OMX_BUFFERHEADERTYPEjS0_S0_E",
   "name" : "OMX_ERRORTYPE (void *, OMX_BUFFERHEADERTYPE **, unsigned int, void *, void *)",
   "parameters" :
   [
    {
     "referenced_type" : "_ZTIPv"
    },
    {
     "referenced_type" : "_ZTIPP20OMX_BUFFERHEADERTYPE"
    },
    {
     "referenced_type" : "_ZTIj"
    },
    {
     "referenced_type" : "_ZTIPv"
    },
    {
     "referenced_type" : "_ZTIPv"
    }
   ],
   "referenced_type" : "_ZTIF13OMX_ERRORTYPEPvPP20OMX_BUFFERHEADERTYPEjS0_S0_E",
   "return_type" : "_ZTI13OMX_ERRORTYPE",
   "self_type" : "_ZTIF13OMX_ERRORTYPEPvPP20OMX_BUFFERHEADERTYPEjS0_S0_E",
   "source_file" : "/frameworks/native/headers/media_plugin/media/openmax/OMX_Component.h"
  },
  {
   "alignment" : 4,
   "linker_set_key" : "_ZTIF13OMX_ERRORTYPEPvPP20OMX_BUFFERHEADERTYPEjS0_jE",
   "name" : "OMX_ERRORTYPE (void *, OMX_BUFFERHEADERTYPE **, unsigned int, void *, unsigned int)",
   "parameters" :
   [
    {
     "referenced_type" : "_ZTIPv"
    },
    {
     "referenced_type" : "_ZTIPP20OMX_BUFFERHEADERTYPE"
    },
    {
     "referenced_type" : "_ZTIj"
    },
    {
     "referenced_type" : "_ZTIPv"
    },
    {
     "referenced_type" : "_ZTIj"
    }
   ],
   "referenced_type" : "_ZTIF13OMX_ERRORTYPEPvPP20OMX_BUFFERHEADERTYPEjS0_jE",
   "return_type" : "_ZTI13OMX_ERRORTYPE",
   "self_type" : "_ZTIF13OMX_ERRORTYPEPvPP20OMX_BUFFERHEADERTYPEjS0_jE",
   "source_file" : "/frameworks/native/headers/media_plugin/media/openmax/OMX_Component.h"
  },
  {
   "alignment" : 4,
   "linker_set_key" : "_ZTIF13OMX_ERRORTYPEPvPP20OMX_BUFFERHEADERTYPEjS0_jPhE",
   "name" : "OMX_ERRORTYPE (void *, OMX_BUFFERHEADERTYPE **, unsigned int, void *, unsigned int, unsigned char *)",
   "parameters" :
   [
    {
     "referenced_type" : "_ZTIPv"
    },
    {
     "referenced_type" : "_ZTIPP20OMX_BUFFERHEADERTYPE"
    },
    {
     "referenced_type" : "_ZTIj"
    },
    {
     "referenced_type" : "_ZTIPv"
    },
    {
     "referenced_type" : "_ZTIj"
    },
    {
     "referenced_type" : "_ZTIPh"
    }
   ],
   "referenced_type" : "_ZTIF13OMX_ERRORTYPEPvPP20OMX_BUFFERHEADERTYPEjS0_jPhE",
   "return_type" : "_ZTI13OMX_ERRORTYPE",
   "self_type" : "_ZTIF13OMX_ERRORTYPEPvPP20OMX_BUFFERHEADERTYPEjS0_jPhE",
   "source_file" : "/frameworks/native/headers/media_plugin/media/openmax/OMX_Component.h"
  },
  {
   "alignment" : 4,
   "linker_set_key" : "_ZTIF13OMX_ERRORTYPEPvPcP13OMX_INDEXTYPEE",
   "name" : "OMX_ERRORTYPE (void *, char *, OMX_INDEXTYPE *)",
   "parameters" :
   [
    {
     "referenced_type" : "_ZTIPv"
    },
    {
     "referenced_type" : "_ZTIPc"
    },
    {
     "referenced_type" : "_ZTIP13OMX_INDEXTYPE"
    }
   ],
   "referenced_type" : "_ZTIF13OMX_ERRORTYPEPvPcP13OMX_INDEXTYPEE",
   "return_type" : "_ZTI13OMX_ERRORTYPE",
   "self_type" : "_ZTIF13OMX_ERRORTYPEPvPcP13OMX_INDEXTYPEE",
   "source_file" : "/frameworks/native/headers/media_plugin/media/openmax/OMX_Component.h"
  },
  {
   "alignment" : 4,
   "linker_set_key" : "_ZTIF13OMX_ERRORTYPEPvPcP15OMX_VERSIONTYPES3_PA128_hE",
   "name" : "OMX_ERRORTYPE (void *, char *, OMX_VERSIONTYPE *, OMX_VERSIONTYPE *, unsigned char (*)[128])",
   "parameters" :
   [
    {
     "referenced_type" : "_ZTIPv"
    },
    {
     "referenced_type" : "_ZTIPc"
    },
    {
     "referenced_type" : "_ZTIP15OMX_VERSIONTYPE"
    },
    {
     "referenced_type" : "_ZTIP15OMX_VERSIONTYPE"
    },
    {
     "referenced_type" : "_ZTIPA128_h"
    }
   ],
   "referenced_type" : "_ZTIF13OMX_ERRORTYPEPvPcP15OMX_VERSIONTYPES3_PA128_hE",
   "return_type" : "_ZTI13OMX_ERRORTYPE",
   "self_type" : "_ZTIF13OMX_ERRORTYPEPvPcP15OMX_VERSIONTYPES3_PA128_hE",
   "source_file" : "/frameworks/native/headers/media_plugin/media/openmax/OMX_Component.h"
  },
  {
   "alignment" : 4,
   "linker_set_key" : "_ZTIF13OMX_ERRORTYPEPvPhjE",
   "name" : "OMX_ERRORTYPE (void *, unsigned char *, unsigned int)",
   "parameters" :
   [
    {
     "referenced_type" : "_ZTIPv"
    },
    {
     "referenced_type" : "_ZTIPh"
    },
    {
     "referenced_type" : "_ZTIj"
    }
   ],
   "referenced_type" : "_ZTIF13OMX_ERRORTYPEPvPhjE",
   "return_type" : "_ZTI13OMX_ERRORTYPE",
   "self_type" : "_ZTIF13OMX_ERRORTYPEPvPhjE",
   "source_file" : "/frameworks/native/headers/media_plugin/media/openmax/OMX_Component.h"
  },
  {
   "alignment" : 4,
   "linker_set_key" : "_ZTIF13OMX_ERRORTYPEPvS0_13OMX_EVENTTYPEjjS0_E",
   "name" : "OMX_ERRORTYPE (void *, void *, OMX_EVENTTYPE, unsigned int, unsigned int, void *)",
   "parameters" :
   [
    {
     "referenced_type" : "_ZTIPv"
    },
    {
     "referenced_type" : "_ZTIPv"
    },
    {
     "referenced_type" : "_ZTI13OMX_EVENTTYPE"
    },
    {
     "referenced_type" : "_ZTIj"
    },
    {
     "referenced_type" : "_ZTIj"
    },
    {
     "referenced_type" : "_ZTIPv"
    }
   ],
   "referenced_type" : "_ZTIF13OMX_ERRORTYPEPvS0_13OMX_EVENTTYPEjjS0_E",
   "return_type" : "_ZTI13OMX_ERRORTYPE",
   "self_type" : "_ZTIF13OMX_ERRORTYPEPvS0_13OMX_EVENTTYPEjjS0_E",
   "source_file" : "/frameworks/native/headers/media_plugin/media/openmax/OMX_Core.h"
  },
  {
   "alignment" : 4,
   "linker_set_key" : "_ZTIF13OMX_ERRORTYPEPvS0_P20OMX_BUFFERHEADERTYPEE",
   "name" : "OMX_ERRORTYPE (void *, void *, OMX_BUFFERHEADERTYPE *)",
   "parameters" :
   [
    {
     "referenced_type" : "_ZTIPv"
    },
    {
     "referenced_type" : "_ZTIPv"
    },
    {
     "referenced_type" : "_ZTIP20OMX_BUFFERHEADERTYPE"
    }
   ],
   "referenced_type" : "_ZTIF13OMX_ERRORTYPEPvS0_P20OMX_BUFFERHEADERTYPEE",
   "return_type" : "_ZTI13OMX_ERRORTYPE",
   "self_type" : "_ZTIF13OMX_ERRORTYPEPvS0_P20OMX_BUFFERHEADERTYPEE",
   "source_file" : "/frameworks/native/headers/media_plugin/media/openmax/OMX_Core.h"
  },
  {
   "alignment" : 4,
   "linker_set_key" : "_ZTIF13OMX_ERRORTYPEPvjP20OMX_BUFFERHEADERTYPEE",
   "name" : "OMX_ERRORTYPE (void *, unsigned int, OMX_BUFFERHEADERTYPE *)",
   "parameters" :
   [
    {
     "referenced_type" : "_ZTIPv"
    },
    {
     "referenced_type" : "_ZTIj"
    },
    {
     "referenced_type" : "_ZTIP20OMX_BUFFERHEADERTYPE"
    }
   ],
   "referenced_type" : "_ZTIF13OMX_ERRORTYPEPvjP20OMX_BUFFERHEADERTYPEE",
   "return_type" : "_ZTI13OMX_ERRORTYPE",
   "self_type" : "_ZTIF13OMX_ERRORTYPEPvjP20OMX_BUFFERHEADERTYPEE",
   "source_file" : "/frameworks/native/headers/media_plugin/media/openmax/OMX_Component.h"
  },
  {
   "alignment" : 4,
   "linker_set_key" : "_ZTIF13OMX_ERRORTYPEPvjS0_jP19OMX_TUNNELSETUPTYPEE",
   "name" : "OMX_ERRORTYPE (void *, unsigned int, void *, unsigned int, OMX_TUNNELSETUPTYPE *)",
   "parameters" :
   [
    {
     "referenced_type" : "_ZTIPv"
    },
    {
     "referenced_type" : "_ZTIj"
    },
    {
     "referenced_type" : "_ZTIPv"
    },
    {
     "referenced_type" : "_ZTIj"
    },
    {
     "referenced_type" : "_ZTIP19OMX_TUNNELSETUPTYPE"
    }
   ],
   "referenced_type" : "_ZTIF13OMX_ERRORTYPEPvjS0_jP19OMX_TUNNELSETUPTYPEE",
   "return_type" : "_ZTI13OMX_ERRORTYPE",
   "self_type" : "_ZTIF13OMX_ERRORTYPEPvjS0_jP19OMX_TUNNELSETUPTYPEE",
   "source_file" : "/frameworks/native/headers/media_plugin/media/openmax/OMX_Component.h"
  },
  {
   "alignment" : 4,
   "linker_set_key" : "_ZTIF13OMX_ERRORTYPEj13OMX_INDEXTYPEjE",
   "name" : "OMX_ERRORTYPE (unsigned int, OMX_INDEXTYPE, unsigned int)",
   "parameters" :
   [
    {
     "referenced_type" : "_ZTIj"
    },
    {
     "referenced_type" : "_ZTI13OMX_INDEXTYPE"
    },
    {
     "referenced_type" : "_ZTIj"
    }
   ],
   "referenced_type" : "_ZTIF13OMX_ERRORTYPEj13OMX_INDEXTYPEjE",
   "return_type" : "_ZTI13OMX_ERRORTYPE",
   "self_type" : "_ZTIF13OMX_ERRORTYPEj13OMX_INDEXTYPEjE",
   "source_file" : "/frameworks/native/headers/media_plugin/media/openmax/OMX_Component.h"
  },
  {
   "alignment" : 4,
   "linker_set_key" : "_ZTIF13OMX_ERRORTYPEj15OMX_COMMANDTYPEjjE",
   "name" : "OMX_ERRORTYPE (unsigned int, OMX_COMMANDTYPE, unsigned int, unsigned int)",
   "parameters" :
   [
    {
     "referenced_type" : "_ZTIj"
    },
    {
     "referenced_type" : "_ZTI15OMX_COMMANDTYPE"
    },
    {
     "referenced_type" : "_ZTIj"
    },
    {
     "referenced_type" : "_ZTIj"
    }
   ],
   "referenced_type" : "_ZTIF13OMX_ERRORTYPEj15OMX_COMMANDTYPEjjE",
   "return_type" : "_ZTI13OMX_ERRORTYPE",
   "self_type" : "_ZTIF13OMX_ERRORTYPEj15OMX_COMMANDTYPEjjE",
   "source_file" : "/frameworks/native/headers/media_plugin/media/openmax/OMX_Component.h"
  },
  {
   "alignment" : 4,
   "linker_set_key" : "_ZTIF13OMX_ERRORTYPEjE",
   "name" : "OMX_ERRORTYPE (unsigned int)",
   "parameters" :
   [
    {
     "referenced_type" : "_ZTIj"
    }
   ],
   "referenced_type" : "_ZTIF13OMX_ERRORTYPEjE",
   "return_type" : "_ZTI13OMX_ERRORTYPE",
   "self_type" : "_ZTIF13OMX_ERRORTYPEjE",
   "source_file" : "/frameworks/native/headers/media_plugin/media/openmax/OMX_Core.h"
  },
  {
   "alignment" : 4,
   "linker_set_key" : "_ZTIF13OMX_ERRORTYPEjP13OMX_STATETYPEE",
   "name" : "OMX_ERRORTYPE (unsigned int, OMX_STATETYPE *)",
   "parameters" :
   [
    {
     "referenced_type" : "_ZTIj"
    },
    {
     "referenced_type" : "_ZTIP13OMX_STATETYPE"
    }
   ],
   "referenced_type" : "_ZTIF13OMX_ERRORTYPEjP13OMX_STATETYPEE",
   "return_type" : "_ZTI13OMX_ERRORTYPE",
   "self_type" : "_ZTIF13OMX_ERRORTYPEjP13OMX_STATETYPEE",
   "source_file" : "/frameworks/native/headers/media_plugin/media/openmax/OMX_Component.h"
  },
  {
   "alignment" : 4,
   "linker_set_key" : "_ZTIF13OMX_ERRORTYPEjP16OMX_CALLBACKTYPEjE",
   "name" : "OMX_ERRORTYPE (unsigned int, OMX_CALLBACKTYPE *, unsigned int)",
   "parameters" :
   [
    {
     "referenced_type" : "_ZTIj"
    },
    {
     "referenced_type" : "_ZTIP16OMX_CALLBACKTYPE#ODR:out/soong/.intermediates/frameworks/av/media/libstagefright/omx/libstagefright_omx/android_vendor.30_arm64_armv8-a_shared/obj/frameworks/av/media/libstagefright/omx/1.0/WGraphicBufferSource.sdump"
    },
    {
     "referenced_type" : "_ZTIj"
    }
   ],
   "referenced_type" : "_ZTIF13OMX_ERRORTYPEjP16OMX_CALLBACKTYPEjE",
   "return_type" : "_ZTI13OMX_ERRORTYPE",
   "self_type" : "_ZTIF13OMX_ERRORTYPEjP16OMX_CALLBACKTYPEjE",
   "source_file" : "/frameworks/native/headers/media_plugin/media/openmax/OMX_Component.h"
  },
  {
   "alignment" : 4,
   "linker_set_key" : "_ZTIF13OMX_ERRORTYPEjP20OMX_BUFFERHEADERTYPEE",
   "name" : "OMX_ERRORTYPE (unsigned int, OMX_BUFFERHEADERTYPE *)",
   "parameters" :
   [
    {
     "referenced_type" : "_ZTIj"
    },
    {
     "referenced_type" : "_ZTIP20OMX_BUFFERHEADERTYPE#ODR:out/soong/.intermediates/frameworks/av/media/libstagefright/omx/libstagefright_omx/android_vendor.30_arm64_armv8-a_shared/obj/frameworks/av/media/libstagefright/omx/OmxGraphicBufferSource.sdump"
    }
   ],
   "referenced_type" : "_ZTIF13OMX_ERRORTYPEjP20OMX_BUFFERHEADERTYPEE",
   "return_type" : "_ZTI13OMX_ERRORTYPE",
   "self_type" : "_ZTIF13OMX_ERRORTYPEjP20OMX_BUFFERHEADERTYPEE",
   "source_file" : "/frameworks/native/headers/media_plugin/media/openmax/OMX_Component.h"
  },
  {
   "alignment" : 4,
   "linker_set_key" : "_ZTIF13OMX_ERRORTYPEjPP20OMX_BUFFERHEADERTYPEjjPvE",
   "name" : "OMX_ERRORTYPE (unsigned int, OMX_BUFFERHEADERTYPE **, unsigned int, unsigned int, void *)",
   "parameters" :
   [
    {
     "referenced_type" : "_ZTIj"
    },
    {
     "referenced_type" : "_ZTIPP20OMX_BUFFERHEADERTYPE#ODR:out/soong/.intermediates/frameworks/av/media/libstagefright/omx/libstagefright_omx/android_vendor.30_arm64_armv8-a_shared/obj/frameworks/av/media/libstagefright/omx/1.0/WGraphicBufferSource.sdump"
    },
    {
     "referenced_type" : "_ZTIj"
    },
    {
     "referenced_type" : "_ZTIj"
    },
    {
     "referenced_type" : "_ZTIPv"
    }
   ],
   "referenced_type" : "_ZTIF13OMX_ERRORTYPEjPP20OMX_BUFFERHEADERTYPEjjPvE",
   "return_type" : "_ZTI13OMX_ERRORTYPE",
   "self_type" : "_ZTIF13OMX_ERRORTYPEjPP20OMX_BUFFERHEADERTYPEjjPvE",
   "source_file" : "/frameworks/native/headers/media_plugin/media/openmax/OMX_Component.h"
  },
  {
   "alignment" : 4,
   "linker_set_key" : "_ZTIF13OMX_ERRORTYPEjPP20OMX_BUFFERHEADERTYPEjjjE",
   "name" : "OMX_ERRORTYPE (unsigned int, OMX_BUFFERHEADERTYPE **, unsigned int, unsigned int, unsigned int)",
   "parameters" :
   [
    {
     "referenced_type" : "_ZTIj"
    },
    {
     "referenced_type" : "_ZTIPP20OMX_BUFFERHEADERTYPE#ODR:out/soong/.intermediates/frameworks/av/media/libstagefright/omx/libstagefright_omx/android_vendor.30_arm64_armv8-a_shared/obj/frameworks/av/media/libstagefright/omx/1.0/WGraphicBufferSource.sdump"
    },
    {
     "referenced_type" : "_ZTIj"
    },
    {
     "referenced_type" : "_ZTIj"
    },
    {
     "referenced_type" : "_ZTIj"
    }
   ],
   "referenced_type" : "_ZTIF13OMX_ERRORTYPEjPP20OMX_BUFFERHEADERTYPEjjjE",
   "return_type" : "_ZTI13OMX_ERRORTYPE",
   "self_type" : "_ZTIF13OMX_ERRORTYPEjPP20OMX_BUFFERHEADERTYPEjjjE",
   "source_file" : "/frameworks/native/headers/media_plugin/media/openmax/OMX_Component.h"
  },
  {
   "alignment" : 4,
   "linker_set_key" : "_ZTIF13OMX_ERRORTYPEjPP20OMX_BUFFERHEADERTYPEjjjPhE",
   "name" : "OMX_ERRORTYPE (unsigned int, OMX_BUFFERHEADERTYPE **, unsigned int, unsigned int, unsigned int, unsigned char *)",
   "parameters" :
   [
    {
     "referenced_type" : "_ZTIj"
    },
    {
     "referenced_type" : "_ZTIPP20OMX_BUFFERHEADERTYPE#ODR:out/soong/.intermediates/frameworks/av/media/libstagefright/omx/libstagefright_omx/android_vendor.30_arm64_armv8-a_shared/obj/frameworks/av/media/libstagefright/omx/1.0/WGraphicBufferSource.sdump"
    },
    {
     "referenced_type" : "_ZTIj"
    },
    {
     "referenced_type" : "_ZTIj"
    },
    {
     "referenced_type" : "_ZTIj"
    },
    {
     "referenced_type" : "_ZTIPh"
    }
   ],
   "referenced_type" : "_ZTIF13OMX_ERRORTYPEjPP20OMX_BUFFERHEADERTYPEjjjPhE",
   "return_type" : "_ZTI13OMX_ERRORTYPE",
   "self_type" : "_ZTIF13OMX_ERRORTYPEjPP20OMX_BUFFERHEADERTYPEjjjPhE",
   "source_file" : "/frameworks/native/headers/media_plugin/media/openmax/OMX_Component.h"
  },
  {
   "alignment" : 4,
   "linker_set_key" : "_ZTIF13OMX_ERRORTYPEjPhjE",
   "name" : "OMX_ERRORTYPE (unsigned int, unsigned char *, unsigned int)",
   "parameters" :
   [
    {
     "referenced_type" : "_ZTIj"
    },
    {
     "referenced_type" : "_ZTIPh"
    },
    {
     "referenced_type" : "_ZTIj"
    }
   ],
   "referenced_type" : "_ZTIF13OMX_ERRORTYPEjPhjE",
   "return_type" : "_ZTI13OMX_ERRORTYPE",
   "self_type" : "_ZTIF13OMX_ERRORTYPEjPhjE",
   "source_file" : "/frameworks/native/headers/media_plugin/media/openmax/OMX_Component.h"
  },
  {
   "alignment" : 4,
   "linker_set_key" : "_ZTIF13OMX_ERRORTYPEjj13OMX_EVENTTYPEjjjE",
   "name" : "OMX_ERRORTYPE (unsigned int, unsigned int, OMX_EVENTTYPE, unsigned int, unsigned int, unsigned int)",
   "parameters" :
   [
    {
     "referenced_type" : "_ZTIj"
    },
    {
     "referenced_type" : "_ZTIj"
    },
    {
     "referenced_type" : "_ZTI13OMX_EVENTTYPE"
    },
    {
     "referenced_type" : "_ZTIj"
    },
    {
     "referenced_type" : "_ZTIj"
    },
    {
     "referenced_type" : "_ZTIj"
    }
   ],
   "referenced_type" : "_ZTIF13OMX_ERRORTYPEjj13OMX_EVENTTYPEjjjE",
   "return_type" : "_ZTI13OMX_ERRORTYPE",
   "self_type" : "_ZTIF13OMX_ERRORTYPEjj13OMX_EVENTTYPEjjjE",
   "source_file" : "/frameworks/native/headers/media_plugin/media/openmax/OMX_Core.h"
  },
  {
   "alignment" : 4,
   "linker_set_key" : "_ZTIF13OMX_ERRORTYPEjjP13OMX_INDEXTYPEE",
   "name" : "OMX_ERRORTYPE (unsigned int, unsigned int, OMX_INDEXTYPE *)",
   "parameters" :
   [
    {
     "referenced_type" : "_ZTIj"
    },
    {
     "referenced_type" : "_ZTIj"
    },
    {
     "referenced_type" : "_ZTIP13OMX_INDEXTYPE"
    }
   ],
   "referenced_type" : "_ZTIF13OMX_ERRORTYPEjjP13OMX_INDEXTYPEE",
   "return_type" : "_ZTI13OMX_ERRORTYPE",
   "self_type" : "_ZTIF13OMX_ERRORTYPEjjP13OMX_INDEXTYPEE",
   "source_file" : "/frameworks/native/headers/media_plugin/media/openmax/OMX_Component.h"
  },
  {
   "alignment" : 4,
   "linker_set_key" : "_ZTIF13OMX_ERRORTYPEjjP15OMX_VERSIONTYPES1_PA128_hE",
   "name" : "OMX_ERRORTYPE (unsigned int, unsigned int, OMX_VERSIONTYPE *, OMX_VERSIONTYPE *, unsigned char (*)[128])",
   "parameters" :
   [
    {
     "referenced_type" : "_ZTIj"
    },
    {
     "referenced_type" : "_ZTIj"
    },
    {
     "referenced_type" : "_ZTIP15OMX_VERSIONTYPE"
    },
    {
     "referenced_type" : "_ZTIP15OMX_VERSIONTYPE"
    },
    {
     "referenced_type" : "_ZTIPA128_h"
    }
   ],
   "referenced_type" : "_ZTIF13OMX_ERRORTYPEjjP15OMX_VERSIONTYPES1_PA128_hE",
   "return_type" : "_ZTI13OMX_ERRORTYPE",
   "self_type" : "_ZTIF13OMX_ERRORTYPEjjP15OMX_VERSIONTYPES1_PA128_hE",
   "source_file" : "/frameworks/native/headers/media_plugin/media/openmax/OMX_Component.h"
  },
  {
   "alignment" : 4,
   "linker_set_key" : "_ZTIF13OMX_ERRORTYPEjjP20OMX_BUFFERHEADERTYPEE",
   "name" : "OMX_ERRORTYPE (unsigned int, unsigned int, OMX_BUFFERHEADERTYPE *)",
   "parameters" :
   [
    {
     "referenced_type" : "_ZTIj"
    },
    {
     "referenced_type" : "_ZTIj"
    },
    {
     "referenced_type" : "_ZTIP20OMX_BUFFERHEADERTYPE#ODR:out/soong/.intermediates/frameworks/av/media/libstagefright/omx/libstagefright_omx/android_vendor.30_arm64_armv8-a_shared/obj/frameworks/av/media/libstagefright/omx/OmxGraphicBufferSource.sdump"
    }
   ],
   "referenced_type" : "_ZTIF13OMX_ERRORTYPEjjP20OMX_BUFFERHEADERTYPEE",
   "return_type" : "_ZTI13OMX_ERRORTYPE",
   "self_type" : "_ZTIF13OMX_ERRORTYPEjjP20OMX_BUFFERHEADERTYPEE",
   "source_file" : "/frameworks/native/headers/media_plugin/media/openmax/OMX_Core.h"
  },
  {
   "alignment" : 4,
   "linker_set_key" : "_ZTIF13OMX_ERRORTYPEjjjjP19OMX_TUNNELSETUPTYPEE",
   "name" : "OMX_ERRORTYPE (unsigned int, unsigned int, unsigned int, unsigned int, OMX_TUNNELSETUPTYPE *)",
   "parameters" :
   [
    {
     "referenced_type" : "_ZTIj"
    },
    {
     "referenced_type" : "_ZTIj"
    },
    {
     "referenced_type" : "_ZTIj"
    },
    {
     "referenced_type" : "_ZTIj"
    },
    {
     "referenced_type" : "_ZTIP19OMX_TUNNELSETUPTYPE"
    }
   ],
   "referenced_type" : "_ZTIF13OMX_ERRORTYPEjjjjP19OMX_TUNNELSETUPTYPEE",
   "return_type" : "_ZTI13OMX_ERRORTYPE",
   "self_type" : "_ZTIF13OMX_ERRORTYPEjjjjP19OMX_TUNNELSETUPTYPEE",
   "source_file" : "/frameworks/native/headers/media_plugin/media/openmax/OMX_Component.h"
  },
  {
   "alignment" : 4,
   "linker_set_key" : "_ZTIFiPvE",
   "name" : "int (void *)",
   "parameters" :
   [
    {
     "referenced_type" : "_ZTIPv"
    }
   ],
   "referenced_type" : "_ZTIFiPvE",
   "return_type" : "_ZTIi",
   "self_type" : "_ZTIFiPvE",
   "source_file" : "/system/core/libutils/include/utils/AndroidThreads.h"
  }
 ],
 "functions" :
 [
  {
   "function_name" : "android::hardware::media::omx::V1_0::implementation::HIDL_FETCH_IOmx",
   "linker_set_key" : "HIDL_FETCH_IOmx",
   "parameters" :
   [
    {
     "referenced_type" : "_ZTIPKc"
    }
   ],
   "return_type" : "_ZTIPN7android8hardware5media3omx4V1_04IOmxE",
   "source_file" : "/frameworks/av/media/libstagefright/omx/include/media/stagefright/omx/1.0/Omx.h"
  },
  {
   "function_name" : "android::MediaImage2::initFromV1",
   "linker_set_key" : "_ZN7android11MediaImage210initFromV1ERKNS_10MediaImageE",
   "parameters" :
   [
    {
     "is_this_ptr" : true,
     "referenced_type" : "_ZTIPN7android11MediaImage2E"
    },
    {
     "referenced_type" : "_ZTIRKN7android10MediaImageE"
    }
   ],
   "return_type" : "_ZTIv",
   "source_file" : "/frameworks/native/headers/media_plugin/media/hardware/VideoAPI.h"
  },
  {
   "function_name" : "android::OMXNodeInstance::fillBuffer",
   "linker_set_key" : "_ZN7android15OMXNodeInstance10fillBufferEjRKNS_9OMXBufferEi",
   "parameters" :
   [
    {
     "is_this_ptr" : true,
     "referenced_type" : "_ZTIPN7android15OMXNodeInstanceE"
    },
    {
     "referenced_type" : "_ZTIj"
    },
    {
     "referenced_type" : "_ZTIRKN7android9OMXBufferE"
    },
    {
     "default_arg" : true,
     "referenced_type" : "_ZTIi"
    }
   ],
   "return_type" : "_ZTIi",
   "source_file" : "/frameworks/av/media/libstagefright/omx/include/media/stagefright/omx/OMXNodeInstance.h"
  },
  {
   "function_name" : "android::OMXNodeInstance::freeBuffer",
   "linker_set_key" : "_ZN7android15OMXNodeInstance10freeBufferEjj",
   "parameters" :
   [
    {
     "is_this_ptr" : true,
     "referenced_type" : "_ZTIPN7android15OMXNodeInstanceE"
    },
    {
     "referenced_type" : "_ZTIj"
    },
    {
     "referenced_type" : "_ZTIj"
    }
   ],
   "return_type" : "_ZTIi",
   "source_file" : "/frameworks/av/media/libstagefright/omx/include/media/stagefright/omx/OMXNodeInstance.h"
  },
  {
   "function_name" : "android::OMXNodeInstance::onMessages",
   "linker_set_key" : "_ZN7android15OMXNodeInstance10onMessagesERNSt3__14listINS_11omx_messageENS1_9allocatorIS3_EEEE",
   "parameters" :
   [
    {
     "is_this_ptr" : true,
     "referenced_type" : "_ZTIPN7android15OMXNodeInstanceE"
    },
    {
     "referenced_type" : "_ZTIRNSt3__14listIN7android11omx_messageENS_9allocatorIS2_EEEE"
    }
   ],
   "return_type" : "_ZTIv",
   "source_file" : "/frameworks/av/media/libstagefright/omx/include/media/stagefright/omx/OMXNodeInstance.h"
  },
  {
   "function_name" : "android::OMXNodeInstance::emptyBuffer",
   "linker_set_key" : "_ZN7android15OMXNodeInstance11emptyBufferEjRKNS_9OMXBufferEjxi",
   "parameters" :
   [
    {
     "is_this_ptr" : true,
     "referenced_type" : "_ZTIPN7android15OMXNodeInstanceE"
    },
    {
     "referenced_type" : "_ZTIj"
    },
    {
     "referenced_type" : "_ZTIRKN7android9OMXBufferE"
    },
    {
     "referenced_type" : "_ZTIj"
    },
    {
     "referenced_type" : "_ZTIx"
    },
    {
     "default_arg" : true,
     "referenced_type" : "_ZTIi"
    }
   ],
   "return_type" : "_ZTIi",
   "source_file" : "/frameworks/av/media/libstagefright/omx/include/media/stagefright/omx/OMXNodeInstance.h"
  },
  {
   "function_name" : "android::OMXNodeInstance::sendCommand",
   "linker_set_key" : "_ZN7android15OMXNodeInstance11sendCommandE15OMX_COMMANDTYPEi",
   "parameters" :
   [
    {
     "is_this_ptr" : true,
     "referenced_type" : "_ZTIPN7android15OMXNodeInstanceE"
    },
    {
     "referenced_type" : "_ZTI15OMX_COMMANDTYPE"
    },
    {
     "referenced_type" : "_ZTIi"
    }
   ],
   "return_type" : "_ZTIi",
   "source_file" : "/frameworks/av/media/libstagefright/omx/include/media/stagefright/omx/OMXNodeInstance.h"
  },
  {
   "function_name" : "android::OMXNodeInstance::setPortMode",
   "linker_set_key" : "_ZN7android15OMXNodeInstance11setPortModeEjNS_4IOMX8PortModeE",
   "parameters" :
   [
    {
     "is_this_ptr" : true,
     "referenced_type" : "_ZTIPN7android15OMXNodeInstanceE"
    },
    {
     "referenced_type" : "_ZTIj"
    },
    {
     "referenced_type" : "_ZTIN7android4IOMX8PortModeE"
    }
   ],
   "return_type" : "_ZTIi",
   "source_file" : "/frameworks/av/media/libstagefright/omx/include/media/stagefright/omx/OMXNodeInstance.h"
  },
  {
   "access" : "private",
   "function_name" : "android::OMXNodeInstance::useBuffer_l",
   "linker_set_key" : "_ZN7android15OMXNodeInstance11useBuffer_lEjRKNS_2spINS_7IMemoryEEERKNS1_INS_4hidl6memory4V1_07IMemoryEEEPj",
   "parameters" :
   [
    {
     "is_this_ptr" : true,
     "referenced_type" : "_ZTIPN7android15OMXNodeInstanceE"
    },
    {
     "referenced_type" : "_ZTIj"
    },
    {
     "referenced_type" : "_ZTIRKN7android2spINS_7IMemoryEEE"
    },
    {
     "referenced_type" : "_ZTIRKN7android2spINS_4hidl6memory4V1_07IMemoryEEE"
    },
    {
     "referenced_type" : "_ZTIPj"
    }
   ],
   "return_type" : "_ZTIi",
   "source_file" : "/frameworks/av/media/libstagefright/omx/include/media/stagefright/omx/OMXNodeInstance.h"
  },
  {
   "access" : "private",
   "function_name" : "android::OMXNodeInstance::findBufferID",
   "linker_set_key" : "_ZN7android15OMXNodeInstance12findBufferIDEP20OMX_BUFFERHEADERTYPE",
   "parameters" :
   [
    {
     "is_this_ptr" : true,
     "referenced_type" : "_ZTIPN7android15OMXNodeInstanceE"
    },
    {
     "referenced_type" : "_ZTIP20OMX_BUFFERHEADERTYPE"
    }
   ],
   "return_type" : "_ZTIj",
   "source_file" : "/frameworks/av/media/libstagefright/omx/include/media/stagefright/omx/OMXNodeInstance.h"
  },
  {
   "function_name" : "android::OMXNodeInstance::getParameter",
   "linker_set_key" : "_ZN7android15OMXNodeInstance12getParameterE13OMX_INDEXTYPEPvm",
   "parameters" :
   [
    {
     "is_this_ptr" : true,
     "referenced_type" : "_ZTIPN7android15OMXNodeInstanceE"
    },
    {
     "referenced_type" : "_ZTI13OMX_INDEXTYPE"
    },
    {
     "referenced_type" : "_ZTIPv"
    },
    {
     "referenced_type" : "_ZTIm"
    }
   ],
   "return_type" : "_ZTIi",
   "source_file" : "/frameworks/av/media/libstagefright/omx/include/media/stagefright/omx/OMXNodeInstance.h"
  },
  {
   "access" : "private",
   "function_name" : "android::OMXNodeInstance::makeBufferID",
   "linker_set_key" : "_ZN7android15OMXNodeInstance12makeBufferIDEP20OMX_BUFFERHEADERTYPE",
   "parameters" :
   [
    {
     "is_this_ptr" : true,
     "referenced_type" : "_ZTIPN7android15OMXNodeInstanceE"
    },
    {
     "referenced_type" : "_ZTIP20OMX_BUFFERHEADERTYPE"
    }
   ],
   "return_type" : "_ZTIj",
   "source_file" : "/frameworks/av/media/libstagefright/omx/include/media/stagefright/omx/OMXNodeInstance.h"
  },
  {
   "function_name" : "android::OMXNodeInstance::setParameter",
   "linker_set_key" : "_ZN7android15OMXNodeInstance12setParameterE13OMX_INDEXTYPEPKvm",
   "parameters" :
   [
    {
     "is_this_ptr" : true,
     "referenced_type" : "_ZTIPN7android15OMXNodeInstanceE"
    },
    {
     "referenced_type" : "_ZTI13OMX_INDEXTYPE"
    },
    {
     "referenced_type" : "_ZTIPKv"
    },
    {
     "referenced_type" : "_ZTIm"
    }
   ],
   "return_type" : "_ZTIi",
   "source_file" : "/frameworks/av/media/libstagefright/omx/include/media/stagefright/omx/OMXNodeInstance.h"
  },
  {
   "access" : "private",
   "function_name" : "android::OMXNodeInstance::emptyBuffer_l",
   "linker_set_key" : "_ZN7android15OMXNodeInstance13emptyBuffer_lEP20OMX_BUFFERHEADERTYPEjxli",
   "parameters" :
   [
    {
     "is_this_ptr" : true,
     "referenced_type" : "_ZTIPN7android15OMXNodeInstanceE"
    },
    {
     "referenced_type" : "_ZTIP20OMX_BUFFERHEADERTYPE"
    },
    {
     "referenced_type" : "_ZTIj"
    },
    {
     "referenced_type" : "_ZTIx"
    },
    {
     "referenced_type" : "_ZTIl"
    },
    {
     "referenced_type" : "_ZTIi"
    }
   ],
   "return_type" : "_ZTIi",
   "source_file" : "/frameworks/av/media/libstagefright/omx/include/media/stagefright/omx/OMXNodeInstance.h"
  },
  {
   "access" : "private",
   "function_name" : "android::OMXNodeInstance::emptyBuffer_l",
   "linker_set_key" : "_ZN7android15OMXNodeInstance13emptyBuffer_lEjjjjxi",
   "parameters" :
   [
    {
     "is_this_ptr" : true,
     "referenced_type" : "_ZTIPN7android15OMXNodeInstanceE"
    },
    {
     "referenced_type" : "_ZTIj"
    },
    {
     "referenced_type" : "_ZTIj"
    },
    {
     "referenced_type" : "_ZTIj"
    },
    {
     "referenced_type" : "_ZTIj"
    },
    {
     "referenced_type" : "_ZTIx"
    },
    {
     "referenced_type" : "_ZTIi"
    }
   ],
   "return_type" : "_ZTIi",
   "source_file" : "/frameworks/av/media/libstagefright/omx/include/media/stagefright/omx/OMXNodeInstance.h"
  },
  {
   "access" : "private",
   "function_name" : "android::OMXNodeInstance::handleMessage",
   "linker_set_key" : "_ZN7android15OMXNodeInstance13handleMessageERNS_11omx_messageE",
   "parameters" :
   [
    {
     "is_this_ptr" : true,
     "referenced_type" : "_ZTIPN7android15OMXNodeInstanceE"
    },
    {
     "referenced_type" : "_ZTIRN7android11omx_messageE"
    }
   ],
   "return_type" : "_ZTIb",
   "source_file" : "/frameworks/av/media/libstagefright/omx/include/media/stagefright/omx/OMXNodeInstance.h"
  },
  {
   "function_name" : "android::OMXNodeInstance::onObserverDied",
   "linker_set_key" : "_ZN7android15OMXNodeInstance14onObserverDiedEv",
   "parameters" :
   [
    {
     "is_this_ptr" : true,
     "referenced_type" : "_ZTIPN7android15OMXNodeInstanceE"
    }
   ],
   "return_type" : "_ZTIv",
   "source_file" : "/frameworks/av/media/libstagefright/omx/include/media/stagefright/omx/OMXNodeInstance.h"
  },
  {
   "access" : "private",
   "function_name" : "android::OMXNodeInstance::setMaxPtsGapUs",
   "linker_set_key" : "_ZN7android15OMXNodeInstance14setMaxPtsGapUsEPKvm",
   "parameters" :
   [
    {
     "is_this_ptr" : true,
     "referenced_type" : "_ZTIPN7android15OMXNodeInstanceE"
    },
    {
     "referenced_type" : "_ZTIPKv"
    },
    {
     "referenced_type" : "_ZTIm"
    }
   ],
   "return_type" : "_ZTIi",
   "source_file" : "/frameworks/av/media/libstagefright/omx/include/media/stagefright/omx/OMXNodeInstance.h"
  },
  {
   "access" : "private",
   "function_name" : "android::OMXNodeInstance::addActiveBuffer",
   "linker_set_key" : "_ZN7android15OMXNodeInstance15addActiveBufferEjj",
   "parameters" :
   [
    {
     "is_this_ptr" : true,
     "referenced_type" : "_ZTIPN7android15OMXNodeInstanceE"
    },
    {
     "referenced_type" : "_ZTIj"
    },
    {
     "referenced_type" : "_ZTIj"
    }
   ],
   "return_type" : "_ZTIv",
   "source_file" : "/frameworks/av/media/libstagefright/omx/include/media/stagefright/omx/OMXNodeInstance.h"
  },
  {
   "function_name" : "android::OMXNodeInstance::dispatchMessage",
   "linker_set_key" : "_ZN7android15OMXNodeInstance15dispatchMessageERKNS_11omx_messageE",
   "parameters" :
   [
    {
     "is_this_ptr" : true,
     "referenced_type" : "_ZTIPN7android15OMXNodeInstanceE"
    },
    {
     "referenced_type" : "_ZTIRKN7android11omx_messageE"
    }
   ],
   "return_type" : "_ZTIi",
   "source_file" : "/frameworks/av/media/libstagefright/omx/include/media/stagefright/omx/OMXNodeInstance.h"
  },
  {
   "access" : "private",
   "function_name" : "android::OMXNodeInstance::getBufferSource",
   "linker_set_key" : "_ZN7android15OMXNodeInstance15getBufferSourceEv",
   "parameters" :
   [
    {
     "is_this_ptr" : true,
     "referenced_type" : "_ZTIPN7android15OMXNodeInstanceE"
    }
   ],
   "return_type" : "_ZTIN7android2spINS_16IOMXBufferSourceEEE",
   "source_file" : "/frameworks/av/media/libstagefright/omx/include/media/stagefright/omx/OMXNodeInstance.h"
  },
  {
   "access" : "private",
   "function_name" : "android::OMXNodeInstance::setBufferSource",
   "linker_set_key" : "_ZN7android15OMXNodeInstance15setBufferSourceERKNS_2spINS_16IOMXBufferSourceEEE",
   "parameters" :
   [
    {
     "is_this_ptr" : true,
     "referenced_type" : "_ZTIPN7android15OMXNodeInstanceE"
    },
    {
     "referenced_type" : "_ZTIRKN7android2spINS_16IOMXBufferSourceEEE"
    }
   ],
   "return_type" : "_ZTIv",
   "source_file" : "/frameworks/av/media/libstagefright/omx/include/media/stagefright/omx/OMXNodeInstance.h"
  },
  {
   "function_name" : "android::OMXNodeInstance::setInputSurface",
   "linker_set_key" : "_ZN7android15OMXNodeInstance15setInputSurfaceERKNS_2spINS_16IOMXBufferSourceEEE",
   "parameters" :
   [
    {
     "is_this_ptr" : true,
     "referenced_type" : "_ZTIPN7android15OMXNodeInstanceE"
    },
    {
     "referenced_type" : "_ZTIRKN7android2spINS_16IOMXBufferSourceEEE"
    }
   ],
   "return_type" : "_ZTIi",
   "source_file" : "/frameworks/av/media/libstagefright/omx/include/media/stagefright/omx/OMXNodeInstance.h"
  },
  {
   "access" : "private",
   "function_name" : "android::OMXNodeInstance::OnFillBufferDone",
   "linker_set_key" : "_ZN7android15OMXNodeInstance16OnFillBufferDoneEPvS1_P20OMX_BUFFERHEADERTYPE",
   "parameters" :
   [
    {
     "referenced_type" : "_ZTIPv"
    },
    {
     "referenced_type" : "_ZTIPv"
    },
    {
     "referenced_type" : "_ZTIP20OMX_BUFFERHEADERTYPE"
    }
   ],
   "return_type" : "_ZTI13OMX_ERRORTYPE",
   "source_file" : "/frameworks/av/media/libstagefright/omx/include/media/stagefright/omx/OMXNodeInstance.h"
  },
  {
   "access" : "private",
   "function_name" : "android::OMXNodeInstance::bumpDebugLevel_l",
   "linker_set_key" : "_ZN7android15OMXNodeInstance16bumpDebugLevel_lEmm",
   "parameters" :
   [
    {
     "is_this_ptr" : true,
     "referenced_type" : "_ZTIPN7android15OMXNodeInstanceE"
    },
    {
     "referenced_type" : "_ZTIm"
    },
    {
     "referenced_type" : "_ZTIm"
    }
   ],
   "return_type" : "_ZTIv",
   "source_file" : "/frameworks/av/media/libstagefright/omx/include/media/stagefright/omx/OMXNodeInstance.h"
  },
  {
   "access" : "private",
   "function_name" : "android::OMXNodeInstance::findBufferHeader",
   "linker_set_key" : "_ZN7android15OMXNodeInstance16findBufferHeaderEjj",
   "parameters" :
   [
    {
     "is_this_ptr" : true,
     "referenced_type" : "_ZTIPN7android15OMXNodeInstanceE"
    },
    {
     "referenced_type" : "_ZTIj"
    },
    {
     "referenced_type" : "_ZTIj"
    }
   ],
   "return_type" : "_ZTIP20OMX_BUFFERHEADERTYPE",
   "source_file" : "/frameworks/av/media/libstagefright/omx/include/media/stagefright/omx/OMXNodeInstance.h"
  },
  {
   "access" : "private",
   "function_name" : "android::OMXNodeInstance::OnEmptyBufferDone",
   "linker_set_key" : "_ZN7android15OMXNodeInstance17OnEmptyBufferDoneEPvS1_P20OMX_BUFFERHEADERTYPE",
   "parameters" :
   [
    {
     "referenced_type" : "_ZTIPv"
    },
    {
     "referenced_type" : "_ZTIPv"
    },
    {
     "referenced_type" : "_ZTIP20OMX_BUFFERHEADERTYPE"
    }
   ],
   "return_type" : "_ZTI13OMX_ERRORTYPE",
   "source_file" : "/frameworks/av/media/libstagefright/omx/include/media/stagefright/omx/OMXNodeInstance.h"
  },
  {
   "access" : "private",
   "function_name" : "android::OMXNodeInstance::codecBufferFilled",
   "linker_set_key" : "_ZN7android15OMXNodeInstance17codecBufferFilledERNS_11omx_messageE",
   "parameters" :
   [
    {
     "is_this_ptr" : true,
     "referenced_type" : "_ZTIPN7android15OMXNodeInstanceE"
    },
    {
     "referenced_type" : "_ZTIRN7android11omx_messageE"
    }
   ],
   "return_type" : "_ZTIv",
   "source_file" : "/frameworks/av/media/libstagefright/omx/include/media/stagefright/omx/OMXNodeInstance.h"
  },
  {
   "access" : "private",
   "function_name" : "android::OMXNodeInstance::freeActiveBuffers",
   "linker_set_key" : "_ZN7android15OMXNodeInstance17freeActiveBuffersEv",
   "parameters" :
   [
    {
     "is_this_ptr" : true,
     "referenced_type" : "_ZTIPN7android15OMXNodeInstanceE"
    }
   ],
   "return_type" : "_ZTIv",
   "source_file" : "/frameworks/av/media/libstagefright/omx/include/media/stagefright/omx/OMXNodeInstance.h"
  },
  {
   "access" : "private",
   "function_name" : "android::OMXNodeInstance::getCodecTimestamp",
   "linker_set_key" : "_ZN7android15OMXNodeInstance17getCodecTimestampEx",
   "parameters" :
   [
    {
     "is_this_ptr" : true,
     "referenced_type" : "_ZTIPN7android15OMXNodeInstanceE"
    },
    {
     "referenced_type" : "_ZTIx"
    }
   ],
   "return_type" : "_ZTIl",
   "source_file" : "/frameworks/av/media/libstagefright/omx/include/media/stagefright/omx/OMXNodeInstance.h"
  },
  {
   "function_name" : "android::OMXNodeInstance::getExtensionIndex",
   "linker_set_key" : "_ZN7android15OMXNodeInstance17getExtensionIndexEPKcP13OMX_INDEXTYPE",
   "parameters" :
   [
    {
     "is_this_ptr" : true,
     "referenced_type" : "_ZTIPN7android15OMXNodeInstanceE"
    },
    {
     "referenced_type" : "_ZTIPKc"
    },
    {
     "referenced_type" : "_ZTIP13OMX_INDEXTYPE"
    }
   ],
   "return_type" : "_ZTIi",
   "source_file" : "/frameworks/av/media/libstagefright/omx/include/media/stagefright/omx/OMXNodeInstance.h"
  },
  {
   "access" : "private",
   "function_name" : "android::OMXNodeInstance::invalidateBufferID",
   "linker_set_key" : "_ZN7android15OMXNodeInstance18invalidateBufferIDEj",
   "parameters" :
   [
    {
     "is_this_ptr" : true,
     "referenced_type" : "_ZTIPN7android15OMXNodeInstanceE"
    },
    {
     "referenced_type" : "_ZTIj"
    }
   ],
   "return_type" : "_ZTIv",
   "source_file" : "/frameworks/av/media/libstagefright/omx/include/media/stagefright/omx/OMXNodeInstance.h"
  },
  {
   "access" : "private",
   "function_name" : "android::OMXNodeInstance::removeActiveBuffer",
   "linker_set_key" : "_ZN7android15OMXNodeInstance18removeActiveBufferEjj",
   "parameters" :
   [
    {
     "is_this_ptr" : true,
     "referenced_type" : "_ZTIPN7android15OMXNodeInstanceE"
    },
    {
     "referenced_type" : "_ZTIj"
    },
    {
     "referenced_type" : "_ZTIj"
    }
   ],
   "return_type" : "_ZTIv",
   "source_file" : "/frameworks/av/media/libstagefright/omx/include/media/stagefright/omx/OMXNodeInstance.h"
  },
  {
   "access" : "private",
   "function_name" : "android::OMXNodeInstance::storeFenceInMeta_l",
   "linker_set_key" : "_ZN7android15OMXNodeInstance18storeFenceInMeta_lEP20OMX_BUFFERHEADERTYPEij",
   "parameters" :
   [
    {
     "is_this_ptr" : true,
     "referenced_type" : "_ZTIPN7android15OMXNodeInstanceE"
    },
    {
     "referenced_type" : "_ZTIP20OMX_BUFFERHEADERTYPE"
    },
    {
     "referenced_type" : "_ZTIi"
    },
    {
     "referenced_type" : "_ZTIj"
    }
   ],
   "return_type" : "_ZTIi",
   "source_file" : "/frameworks/av/media/libstagefright/omx/include/media/stagefright/omx/OMXNodeInstance.h"
  },
  {
   "access" : "private",
   "function_name" : "android::OMXNodeInstance::unbumpDebugLevel_l",
   "linker_set_key" : "_ZN7android15OMXNodeInstance18unbumpDebugLevel_lEm",
   "parameters" :
   [
    {
     "is_this_ptr" : true,
     "referenced_type" : "_ZTIPN7android15OMXNodeInstanceE"
    },
    {
     "referenced_type" : "_ZTIm"
    }
   ],
   "return_type" : "_ZTIv",
   "source_file" : "/frameworks/av/media/libstagefright/omx/include/media/stagefright/omx/OMXNodeInstance.h"
  },
  {
   "access" : "private",
   "function_name" : "android::OMXNodeInstance::useGraphicBuffer_l",
   "linker_set_key" : "_ZN7android15OMXNodeInstance18useGraphicBuffer_lEjRKNS_2spINS_13GraphicBufferEEEPj",
   "parameters" :
   [
    {
     "is_this_ptr" : true,
     "referenced_type" : "_ZTIPN7android15OMXNodeInstanceE"
    },
    {
     "referenced_type" : "_ZTIj"
    },
    {
     "referenced_type" : "_ZTIRKN7android2spINS_13GraphicBufferEEE"
    },
    {
     "referenced_type" : "_ZTIPj"
    }
   ],
   "return_type" : "_ZTIi",
   "source_file" : "/frameworks/av/media/libstagefright/omx/include/media/stagefright/omx/OMXNodeInstance.h"
  },
  {
   "access" : "private",
   "function_name" : "android::OMXNodeInstance::isProhibitedIndex_l",
   "linker_set_key" : "_ZN7android15OMXNodeInstance19isProhibitedIndex_lE13OMX_INDEXTYPE",
   "parameters" :
   [
    {
     "is_this_ptr" : true,
     "referenced_type" : "_ZTIPN7android15OMXNodeInstanceE"
    },
    {
     "referenced_type" : "_ZTI13OMX_INDEXTYPE"
    }
   ],
   "return_type" : "_ZTIb",
   "source_file" : "/frameworks/av/media/libstagefright/omx/include/media/stagefright/omx/OMXNodeInstance.h"
  },
  {
   "access" : "private",
   "function_name" : "android::OMXNodeInstance::useGraphicBuffer2_l",
   "linker_set_key" : "_ZN7android15OMXNodeInstance19useGraphicBuffer2_lEjRKNS_2spINS_13GraphicBufferEEEPj",
   "parameters" :
   [
    {
     "is_this_ptr" : true,
     "referenced_type" : "_ZTIPN7android15OMXNodeInstanceE"
    },
    {
     "referenced_type" : "_ZTIj"
    },
    {
     "referenced_type" : "_ZTIRKN7android2spINS_13GraphicBufferEEE"
    },
    {
     "referenced_type" : "_ZTIPj"
    }
   ],
   "return_type" : "_ZTIi",
   "source_file" : "/frameworks/av/media/libstagefright/omx/include/media/stagefright/omx/OMXNodeInstance.h"
  },
  {
   "function_name" : "android::OMXNodeInstance::allocateSecureBuffer",
   "linker_set_key" : "_ZN7android15OMXNodeInstance20allocateSecureBufferEjmPjPPvPNS_2spINS_12NativeHandleEEE",
   "parameters" :
   [
    {
     "is_this_ptr" : true,
     "referenced_type" : "_ZTIPN7android15OMXNodeInstanceE"
    },
    {
     "referenced_type" : "_ZTIj"
    },
    {
     "referenced_type" : "_ZTIm"
    },
    {
     "referenced_type" : "_ZTIPj"
    },
    {
     "referenced_type" : "_ZTIPPv"
    },
    {
     "referenced_type" : "_ZTIPN7android2spINS_12NativeHandleEEE"
    }
   ],
   "return_type" : "_ZTIi",
   "source_file" : "/frameworks/av/media/libstagefright/omx/include/media/stagefright/omx/OMXNodeInstance.h"
  },
  {
   "access" : "private",
   "function_name" : "android::OMXNodeInstance::emptyGraphicBuffer_l",
   "linker_set_key" : "_ZN7android15OMXNodeInstance20emptyGraphicBuffer_lEjRKNS_2spINS_13GraphicBufferEEEjxi",
   "parameters" :
   [
    {
     "is_this_ptr" : true,
     "referenced_type" : "_ZTIPN7android15OMXNodeInstanceE"
    },
    {
     "referenced_type" : "_ZTIj"
    },
    {
     "referenced_type" : "_ZTIRKN7android2spINS_13GraphicBufferEEE"
    },
    {
     "referenced_type" : "_ZTIj"
    },
    {
     "referenced_type" : "_ZTIx"
    },
    {
     "referenced_type" : "_ZTIi"
    }
   ],
   "return_type" : "_ZTIi",
   "source_file" : "/frameworks/av/media/libstagefright/omx/include/media/stagefright/omx/OMXNodeInstance.h"
  },
  {
   "access" : "private",
   "function_name" : "android::OMXNodeInstance::enableNativeBuffers_l",
   "linker_set_key" : "_ZN7android15OMXNodeInstance21enableNativeBuffers_lEj8OMX_BOOLS1_",
   "parameters" :
   [
    {
     "is_this_ptr" : true,
     "referenced_type" : "_ZTIPN7android15OMXNodeInstanceE"
    },
    {
     "referenced_type" : "_ZTIj"
    },
    {
     "referenced_type" : "_ZTI8OMX_BOOL"
    },
    {
     "referenced_type" : "_ZTI8OMX_BOOL"
    }
   ],
   "return_type" : "_ZTIi",
   "source_file" : "/frameworks/av/media/libstagefright/omx/include/media/stagefright/omx/OMXNodeInstance.h"
  },
  {
   "function_name" : "android::OMXNodeInstance::getGraphicBufferUsage",
   "linker_set_key" : "_ZN7android15OMXNodeInstance21getGraphicBufferUsageEjPj",
   "parameters" :
   [
    {
     "is_this_ptr" : true,
     "referenced_type" : "_ZTIPN7android15OMXNodeInstanceE"
    },
    {
     "referenced_type" : "_ZTIj"
    },
    {
     "referenced_type" : "_ZTIPj"
    }
   ],
   "return_type" : "_ZTIi",
   "source_file" : "/frameworks/av/media/libstagefright/omx/include/media/stagefright/omx/OMXNodeInstance.h"
  },
  {
   "access" : "private",
   "function_name" : "android::OMXNodeInstance::handleDataSpaceChanged",
   "linker_set_key" : "_ZN7android15OMXNodeInstance22handleDataSpaceChangedERNS_11omx_messageE",
   "parameters" :
   [
    {
     "is_this_ptr" : true,
     "referenced_type" : "_ZTIPN7android15OMXNodeInstanceE"
    },
    {
     "referenced_type" : "_ZTIRN7android11omx_messageE"
    }
   ],
   "return_type" : "_ZTIb",
   "source_file" : "/frameworks/av/media/libstagefright/omx/include/media/stagefright/omx/OMXNodeInstance.h"
  },
  {
   "access" : "private",
   "function_name" : "android::OMXNodeInstance::retrieveFenceFromMeta_l",
   "linker_set_key" : "_ZN7android15OMXNodeInstance23retrieveFenceFromMeta_lEP20OMX_BUFFERHEADERTYPEj",
   "parameters" :
   [
    {
     "is_this_ptr" : true,
     "referenced_type" : "_ZTIPN7android15OMXNodeInstanceE"
    },
    {
     "referenced_type" : "_ZTIP20OMX_BUFFERHEADERTYPE"
    },
    {
     "referenced_type" : "_ZTIj"
    }
   ],
   "return_type" : "_ZTIi",
   "source_file" : "/frameworks/av/media/libstagefright/omx/include/media/stagefright/omx/OMXNodeInstance.h"
  },
  {
   "function_name" : "android::OMXNodeInstance::configureVideoTunnelMode",
   "linker_set_key" : "_ZN7android15OMXNodeInstance24configureVideoTunnelModeEj8OMX_BOOLjPP13native_handle",
   "parameters" :
   [
    {
     "is_this_ptr" : true,
     "referenced_type" : "_ZTIPN7android15OMXNodeInstanceE"
    },
    {
     "referenced_type" : "_ZTIj"
    },
    {
     "referenced_type" : "_ZTI8OMX_BOOL"
    },
    {
     "referenced_type" : "_ZTIj"
    },
    {
     "referenced_type" : "_ZTIPP13native_handle"
    }
   ],
   "return_type" : "_ZTIi",
   "source_file" : "/frameworks/av/media/libstagefright/omx/include/media/stagefright/omx/OMXNodeInstance.h"
  },
  {
   "access" : "private",
   "function_name" : "android::OMXNodeInstance::storeMetaDataInBuffers_l",
   "linker_set_key" : "_ZN7android15OMXNodeInstance24storeMetaDataInBuffers_lEj8OMX_BOOLPNS_18MetadataBufferTypeE",
   "parameters" :
   [
    {
     "is_this_ptr" : true,
     "referenced_type" : "_ZTIPN7android15OMXNodeInstanceE"
    },
    {
     "referenced_type" : "_ZTIj"
    },
    {
     "referenced_type" : "_ZTI8OMX_BOOL"
    },
    {
     "referenced_type" : "_ZTIPN7android18MetadataBufferTypeE"
    }
   ],
   "return_type" : "_ZTIi",
   "source_file" : "/frameworks/av/media/libstagefright/omx/include/media/stagefright/omx/OMXNodeInstance.h"
  },
  {
   "access" : "private",
   "function_name" : "android::OMXNodeInstance::emptyNativeHandleBuffer_l",
   "linker_set_key" : "_ZN7android15OMXNodeInstance25emptyNativeHandleBuffer_lEjRKNS_2spINS_12NativeHandleEEEjxi",
   "parameters" :
   [
    {
     "is_this_ptr" : true,
     "referenced_type" : "_ZTIPN7android15OMXNodeInstanceE"
    },
    {
     "referenced_type" : "_ZTIj"
    },
    {
     "referenced_type" : "_ZTIRKN7android2spINS_12NativeHandleEEE"
    },
    {
     "referenced_type" : "_ZTIj"
    },
    {
     "referenced_type" : "_ZTIx"
    },
    {
     "referenced_type" : "_ZTIi"
    }
   ],
   "return_type" : "_ZTIi",
   "source_file" : "/frameworks/av/media/libstagefright/omx/include/media/stagefright/omx/OMXNodeInstance.h"
  },
  {
   "function_name" : "android::OMXNodeInstance::prepareForAdaptivePlayback",
   "linker_set_key" : "_ZN7android15OMXNodeInstance26prepareForAdaptivePlaybackEj8OMX_BOOLjj",
   "parameters" :
   [
    {
     "is_this_ptr" : true,
     "referenced_type" : "_ZTIPN7android15OMXNodeInstanceE"
    },
    {
     "referenced_type" : "_ZTIj"
    },
    {
     "referenced_type" : "_ZTI8OMX_BOOL"
    },
    {
     "referenced_type" : "_ZTIj"
    },
    {
     "referenced_type" : "_ZTIj"
    }
   ],
   "return_type" : "_ZTIi",
   "source_file" : "/frameworks/av/media/libstagefright/omx/include/media/stagefright/omx/OMXNodeInstance.h"
  },
  {
   "access" : "private",
   "function_name" : "android::OMXNodeInstance::updateNativeHandleInMeta_l",
   "linker_set_key" : "_ZN7android15OMXNodeInstance26updateNativeHandleInMeta_lEjRKNS_2spINS_12NativeHandleEEEjP20OMX_BUFFERHEADERTYPE",
   "parameters" :
   [
    {
     "is_this_ptr" : true,
     "referenced_type" : "_ZTIPN7android15OMXNodeInstanceE"
    },
    {
     "referenced_type" : "_ZTIj"
    },
    {
     "referenced_type" : "_ZTIRKN7android2spINS_12NativeHandleEEE"
    },
    {
     "referenced_type" : "_ZTIj"
    },
    {
     "referenced_type" : "_ZTIP20OMX_BUFFERHEADERTYPE"
    }
   ],
   "return_type" : "_ZTIi",
   "source_file" : "/frameworks/av/media/libstagefright/omx/include/media/stagefright/omx/OMXNodeInstance.h"
  },
  {
   "access" : "private",
   "function_name" : "android::OMXNodeInstance::updateGraphicBufferInMeta_l",
   "linker_set_key" : "_ZN7android15OMXNodeInstance27updateGraphicBufferInMeta_lEjRKNS_2spINS_13GraphicBufferEEEjP20OMX_BUFFERHEADERTYPE",
   "parameters" :
   [
    {
     "is_this_ptr" : true,
     "referenced_type" : "_ZTIPN7android15OMXNodeInstanceE"
    },
    {
     "referenced_type" : "_ZTIj"
    },
    {
     "referenced_type" : "_ZTIRKN7android2spINS_13GraphicBufferEEE"
    },
    {
     "referenced_type" : "_ZTIj"
    },
    {
     "referenced_type" : "_ZTIP20OMX_BUFFERHEADERTYPE"
    }
   ],
   "return_type" : "_ZTIi",
   "source_file" : "/frameworks/av/media/libstagefright/omx/include/media/stagefright/omx/OMXNodeInstance.h"
  },
  {
   "access" : "private",
   "function_name" : "android::OMXNodeInstance::useGraphicBufferWithMetadata_l",
   "linker_set_key" : "_ZN7android15OMXNodeInstance30useGraphicBufferWithMetadata_lEjRKNS_2spINS_13GraphicBufferEEEPj",
   "parameters" :
   [
    {
     "is_this_ptr" : true,
     "referenced_type" : "_ZTIPN7android15OMXNodeInstanceE"
    },
    {
     "referenced_type" : "_ZTIj"
    },
    {
     "referenced_type" : "_ZTIRKN7android2spINS_13GraphicBufferEEE"
    },
    {
     "referenced_type" : "_ZTIPj"
    }
   ],
   "return_type" : "_ZTIi",
   "source_file" : "/frameworks/av/media/libstagefright/omx/include/media/stagefright/omx/OMXNodeInstance.h"
  },
  {
   "function_name" : "android::OMXNodeInstance::handle",
   "linker_set_key" : "_ZN7android15OMXNodeInstance6handleEv",
   "parameters" :
   [
    {
     "is_this_ptr" : true,
     "referenced_type" : "_ZTIPN7android15OMXNodeInstanceE"
    }
   ],
   "return_type" : "_ZTIPv",
   "source_file" : "/frameworks/av/media/libstagefright/omx/include/media/stagefright/omx/OMXNodeInstance.h"
  },
  {
   "access" : "private",
   "function_name" : "android::OMXNodeInstance::OnEvent",
   "linker_set_key" : "_ZN7android15OMXNodeInstance7OnEventEPvS1_13OMX_EVENTTYPEjjS1_",
   "parameters" :
   [
    {
     "referenced_type" : "_ZTIPv"
    },
    {
     "referenced_type" : "_ZTIPv"
    },
    {
     "referenced_type" : "_ZTI13OMX_EVENTTYPE"
    },
    {
     "referenced_type" : "_ZTIj"
    },
    {
     "referenced_type" : "_ZTIj"
    },
    {
     "referenced_type" : "_ZTIPv"
    }
   ],
   "return_type" : "_ZTI13OMX_ERRORTYPE",
   "source_file" : "/frameworks/av/media/libstagefright/omx/include/media/stagefright/omx/OMXNodeInstance.h"
  },
  {
   "function_name" : "android::OMXNodeInstance::onEvent",
   "linker_set_key" : "_ZN7android15OMXNodeInstance7onEventE13OMX_EVENTTYPEjj",
   "parameters" :
   [
    {
     "is_this_ptr" : true,
     "referenced_type" : "_ZTIPN7android15OMXNodeInstanceE"
    },
    {
     "referenced_type" : "_ZTI13OMX_EVENTTYPE"
    },
    {
     "referenced_type" : "_ZTIj"
    },
    {
     "referenced_type" : "_ZTIj"
    }
   ],
   "return_type" : "_ZTIv",
   "source_file" : "/frameworks/av/media/libstagefright/omx/include/media/stagefright/omx/OMXNodeInstance.h"
  },
  {
   "function_name" : "android::OMXNodeInstance::freeNode",
   "linker_set_key" : "_ZN7android15OMXNodeInstance8freeNodeEv",
   "parameters" :
   [
    {
     "is_this_ptr" : true,
     "referenced_type" : "_ZTIPN7android15OMXNodeInstanceE"
    }
   ],
   "return_type" : "_ZTIi",
   "source_file" : "/frameworks/av/media/libstagefright/omx/include/media/stagefright/omx/OMXNodeInstance.h"
  },
  {
   "function_name" : "android::OMXNodeInstance::observer",
   "linker_set_key" : "_ZN7android15OMXNodeInstance8observerEv",
   "parameters" :
   [
    {
     "is_this_ptr" : true,
     "referenced_type" : "_ZTIPN7android15OMXNodeInstanceE"
    }
   ],
   "return_type" : "_ZTIN7android2spINS_12IOMXObserverEEE",
   "source_file" : "/frameworks/av/media/libstagefright/omx/include/media/stagefright/omx/OMXNodeInstance.h"
  },
  {
   "function_name" : "android::OMXNodeInstance::getConfig",
   "linker_set_key" : "_ZN7android15OMXNodeInstance9getConfigE13OMX_INDEXTYPEPvm",
   "parameters" :
   [
    {
     "is_this_ptr" : true,
     "referenced_type" : "_ZTIPN7android15OMXNodeInstanceE"
    },
    {
     "referenced_type" : "_ZTI13OMX_INDEXTYPE"
    },
    {
     "referenced_type" : "_ZTIPv"
    },
    {
     "referenced_type" : "_ZTIm"
    }
   ],
   "return_type" : "_ZTIi",
   "source_file" : "/frameworks/av/media/libstagefright/omx/include/media/stagefright/omx/OMXNodeInstance.h"
  },
  {
   "function_name" : "android::OMXNodeInstance::setConfig",
   "linker_set_key" : "_ZN7android15OMXNodeInstance9setConfigE13OMX_INDEXTYPEPKvm",
   "parameters" :
   [
    {
     "is_this_ptr" : true,
     "referenced_type" : "_ZTIPN7android15OMXNodeInstanceE"
    },
    {
     "referenced_type" : "_ZTI13OMX_INDEXTYPE"
    },
    {
     "referenced_type" : "_ZTIPKv"
    },
    {
     "referenced_type" : "_ZTIm"
    }
   ],
   "return_type" : "_ZTIi",
   "source_file" : "/frameworks/av/media/libstagefright/omx/include/media/stagefright/omx/OMXNodeInstance.h"
  },
  {
   "function_name" : "android::OMXNodeInstance::setHandle",
   "linker_set_key" : "_ZN7android15OMXNodeInstance9setHandleEPv",
   "parameters" :
   [
    {
     "is_this_ptr" : true,
     "referenced_type" : "_ZTIPN7android15OMXNodeInstanceE"
    },
    {
     "referenced_type" : "_ZTIPv"
    }
   ],
   "return_type" : "_ZTIv",
   "source_file" : "/frameworks/av/media/libstagefright/omx/include/media/stagefright/omx/OMXNodeInstance.h"
  },
  {
   "function_name" : "android::OMXNodeInstance::setQuirks",
   "linker_set_key" : "_ZN7android15OMXNodeInstance9setQuirksEj",
   "parameters" :
   [
    {
     "is_this_ptr" : true,
     "referenced_type" : "_ZTIPN7android15OMXNodeInstanceE"
    },
    {
     "referenced_type" : "_ZTIj"
    }
   ],
   "return_type" : "_ZTIi",
   "source_file" : "/frameworks/av/media/libstagefright/omx/include/media/stagefright/omx/OMXNodeInstance.h"
  },
  {
   "function_name" : "android::OMXNodeInstance::useBuffer",
   "linker_set_key" : "_ZN7android15OMXNodeInstance9useBufferEjRKNS_9OMXBufferEPj",
   "parameters" :
   [
    {
     "is_this_ptr" : true,
     "referenced_type" : "_ZTIPN7android15OMXNodeInstanceE"
    },
    {
     "referenced_type" : "_ZTIj"
    },
    {
     "referenced_type" : "_ZTIRKN7android9OMXBufferE"
    },
    {
     "referenced_type" : "_ZTIPj"
    }
   ],
   "return_type" : "_ZTIi",
   "source_file" : "/frameworks/av/media/libstagefright/omx/include/media/stagefright/omx/OMXNodeInstance.h"
  },
  {
   "function_name" : "android::OMXNodeInstance::OMXNodeInstance",
   "linker_set_key" : "_ZN7android15OMXNodeInstanceC1EPNS_8hardware5media3omx4V1_014implementation3OmxERKNS_2spINS_12IOMXObserverEEEPKc",
   "parameters" :
   [
    {
     "is_this_ptr" : true,
     "referenced_type" : "_ZTIPN7android15OMXNodeInstanceE"
    },
    {
     "referenced_type" : "_ZTIPN7android8hardware5media3omx4V1_014implementation3OmxE"
    },
    {
     "referenced_type" : "_ZTIRKN7android2spINS_12IOMXObserverEEE"
    },
    {
     "referenced_type" : "_ZTIPKc"
    }
   ],
   "return_type" : "_ZTIv",
   "source_file" : "/frameworks/av/media/libstagefright/omx/include/media/stagefright/omx/OMXNodeInstance.h"
  },
  {
   "function_name" : "android::OMXNodeInstance::OMXNodeInstance",
   "linker_set_key" : "_ZN7android15OMXNodeInstanceC2EPNS_8hardware5media3omx4V1_014implementation3OmxERKNS_2spINS_12IOMXObserverEEEPKc",
   "parameters" :
   [
    {
     "is_this_ptr" : true,
     "referenced_type" : "_ZTIPN7android15OMXNodeInstanceE"
    },
    {
     "referenced_type" : "_ZTIPN7android8hardware5media3omx4V1_014implementation3OmxE"
    },
    {
     "referenced_type" : "_ZTIRKN7android2spINS_12IOMXObserverEEE"
    },
    {
     "referenced_type" : "_ZTIPKc"
    }
   ],
   "return_type" : "_ZTIv",
   "source_file" : "/frameworks/av/media/libstagefright/omx/include/media/stagefright/omx/OMXNodeInstance.h"
  },
  {
   "access" : "private",
   "function_name" : "android::OMXNodeInstance::~OMXNodeInstance",
   "linker_set_key" : "_ZN7android15OMXNodeInstanceD0Ev",
   "parameters" :
   [
    {
     "is_this_ptr" : true,
     "referenced_type" : "_ZTIPN7android15OMXNodeInstanceE"
    }
   ],
   "return_type" : "_ZTIv",
   "source_file" : "/frameworks/av/media/libstagefright/omx/include/media/stagefright/omx/OMXNodeInstance.h"
  },
  {
   "access" : "private",
   "function_name" : "android::OMXNodeInstance::~OMXNodeInstance",
   "linker_set_key" : "_ZN7android15OMXNodeInstanceD1Ev",
   "parameters" :
   [
    {
     "is_this_ptr" : true,
     "referenced_type" : "_ZTIPN7android15OMXNodeInstanceE"
    }
   ],
   "return_type" : "_ZTIv",
   "source_file" : "/frameworks/av/media/libstagefright/omx/include/media/stagefright/omx/OMXNodeInstance.h"
  },
  {
   "access" : "private",
   "function_name" : "android::OMXNodeInstance::~OMXNodeInstance",
   "linker_set_key" : "_ZN7android15OMXNodeInstanceD2Ev",
   "parameters" :
   [
    {
     "is_this_ptr" : true,
     "referenced_type" : "_ZTIPN7android15OMXNodeInstanceE"
    }
   ],
   "return_type" : "_ZTIv",
   "source_file" : "/frameworks/av/media/libstagefright/omx/include/media/stagefright/omx/OMXNodeInstance.h"
  },
  {
   "function_name" : "android::GetComponentRole",
   "linker_set_key" : "_ZN7android16GetComponentRoleEbPKc",
   "parameters" :
   [
    {
     "referenced_type" : "_ZTIb"
    },
    {
     "referenced_type" : "_ZTIPKc"
    }
   ],
   "return_type" : "_ZTIPKc",
   "source_file" : "/frameworks/av/media/libstagefright/omx/include/media/stagefright/omx/OMXUtils.h"
  },
  {
   "function_name" : "android::SetComponentRole",
   "linker_set_key" : "_ZN7android16SetComponentRoleERKNS_2spINS_8IOMXNodeEEEPKc",
   "parameters" :
   [
    {
     "referenced_type" : "_ZTIRKN7android2spINS_8IOMXNodeEEE"
    },
    {
     "referenced_type" : "_ZTIPKc"
    }
   ],
   "return_type" : "_ZTIi",
   "source_file" : "/frameworks/av/media/libstagefright/omx/include/media/stagefright/omx/OMXUtils.h"
  },
  {
   "function_name" : "android::StatusFromOMXError",
   "linker_set_key" : "_ZN7android18StatusFromOMXErrorE13OMX_ERRORTYPE",
   "parameters" :
   [
    {
     "referenced_type" : "_ZTI13OMX_ERRORTYPE"
    }
   ],
   "return_type" : "_ZTIi",
   "source_file" : "/frameworks/av/media/libstagefright/omx/include/media/stagefright/omx/OMXUtils.h"
  },
  {
   "function_name" : "android::DescribeColorFormat",
   "linker_set_key" : "_ZN7android19DescribeColorFormatERKNS_2spINS_8IOMXNodeEEERNS_26DescribeColorFormat2ParamsE",
   "parameters" :
   [
    {
     "referenced_type" : "_ZTIRKN7android2spINS_8IOMXNodeEEE"
    },
    {
     "referenced_type" : "_ZTIRN7android26DescribeColorFormat2ParamsE"
    }
   ],
   "return_type" : "_ZTIb",
   "source_file" : "/frameworks/av/media/libstagefright/omx/include/media/stagefright/omx/OMXUtils.h"
  },
  {
   "function_name" : "android::IsFlexibleColorFormat",
   "linker_set_key" : "_ZN7android21IsFlexibleColorFormatERKNS_2spINS_8IOMXNodeEEEjbPj",
   "parameters" :
   [
    {
     "referenced_type" : "_ZTIRKN7android2spINS_8IOMXNodeEEE"
    },
    {
     "referenced_type" : "_ZTIj"
    },
    {
     "referenced_type" : "_ZTIb"
    },
    {
     "referenced_type" : "_ZTIPj"
    }
   ],
   "return_type" : "_ZTIb",
   "source_file" : "/frameworks/av/media/libstagefright/omx/include/media/stagefright/omx/OMXUtils.h"
  },
  {
   "function_name" : "android::OmxGraphicBufferSource::onOmxLoaded",
   "linker_set_key" : "_ZN7android22OmxGraphicBufferSource11onOmxLoadedEv",
   "parameters" :
   [
    {
     "is_this_ptr" : true,
     "referenced_type" : "_ZTIPN7android22OmxGraphicBufferSourceE"
    }
   ],
   "return_type" : "_ZTIN7android6binder6StatusE",
   "source_file" : "/frameworks/av/media/libstagefright/omx/include/media/stagefright/omx/OmxGraphicBufferSource.h"
  },
  {
   "function_name" : "android::OmxGraphicBufferSource::onOmxExecuting",
   "linker_set_key" : "_ZN7android22OmxGraphicBufferSource14onOmxExecutingEv",
   "parameters" :
   [
    {
     "is_this_ptr" : true,
     "referenced_type" : "_ZTIPN7android22OmxGraphicBufferSourceE"
    }
   ],
   "return_type" : "_ZTIN7android6binder6StatusE",
   "source_file" : "/frameworks/av/media/libstagefright/omx/include/media/stagefright/omx/OmxGraphicBufferSource.h"
  },
  {
   "function_name" : "android::OmxGraphicBufferSource::configure",
   "linker_set_key" : "_ZN7android22OmxGraphicBufferSource9configureERKNS_2spINS_15IOmxNodeWrapperEEEiijjj",
   "parameters" :
   [
    {
     "is_this_ptr" : true,
     "referenced_type" : "_ZTIPN7android22OmxGraphicBufferSourceE"
    },
    {
     "referenced_type" : "_ZTIRKN7android2spINS_15IOmxNodeWrapperEEE"
    },
    {
     "referenced_type" : "_ZTIi"
    },
    {
     "referenced_type" : "_ZTIi"
    },
    {
     "referenced_type" : "_ZTIj"
    },
    {
     "referenced_type" : "_ZTIj"
    },
    {
     "referenced_type" : "_ZTIj"
    }
   ],
   "return_type" : "_ZTIi",
   "source_file" : "/frameworks/av/media/libstagefright/omx/include/media/stagefright/omx/OmxGraphicBufferSource.h"
  },
  {
   "function_name" : "android::OmxGraphicBufferSource::onOmxIdle",
   "linker_set_key" : "_ZN7android22OmxGraphicBufferSource9onOmxIdleEv",
   "parameters" :
   [
    {
     "is_this_ptr" : true,
     "referenced_type" : "_ZTIPN7android22OmxGraphicBufferSourceE"
    }
   ],
   "return_type" : "_ZTIN7android6binder6StatusE",
   "source_file" : "/frameworks/av/media/libstagefright/omx/include/media/stagefright/omx/OmxGraphicBufferSource.h"
  },
  {
   "function_name" : "android::DescribeColorFormatParams::DescribeColorFormatParams",
   "linker_set_key" : "_ZN7android25DescribeColorFormatParamsC1ERKNS_26DescribeColorFormat2ParamsE",
   "parameters" :
   [
    {
     "is_this_ptr" : true,
     "referenced_type" : "_ZTIPN7android25DescribeColorFormatParamsE"
    },
    {
     "referenced_type" : "_ZTIRKN7android26DescribeColorFormat2ParamsE"
    }
   ],
   "return_type" : "_ZTIv",
   "source_file" : "/frameworks/native/headers/media_plugin/media/hardware/HardwareAPI.h"
  },
  {
   "function_name" : "android::DescribeColorFormatParams::DescribeColorFormatParams",
   "linker_set_key" : "_ZN7android25DescribeColorFormatParamsC2ERKNS_26DescribeColorFormat2ParamsE",
   "parameters" :
   [
    {
     "is_this_ptr" : true,
     "referenced_type" : "_ZTIPN7android25DescribeColorFormatParamsE"
    },
    {
     "referenced_type" : "_ZTIRKN7android26DescribeColorFormat2ParamsE"
    }
   ],
   "return_type" : "_ZTIv",
   "source_file" : "/frameworks/native/headers/media_plugin/media/hardware/HardwareAPI.h"
  },
  {
   "function_name" : "android::DescribeColorFormat2Params::initFromV1",
   "linker_set_key" : "_ZN7android26DescribeColorFormat2Params10initFromV1ERKNS_25DescribeColorFormatParamsE",
   "parameters" :
   [
    {
     "is_this_ptr" : true,
     "referenced_type" : "_ZTIPN7android26DescribeColorFormat2ParamsE"
    },
    {
     "referenced_type" : "_ZTIRKN7android25DescribeColorFormatParamsE"
    }
   ],
   "return_type" : "_ZTIv",
   "source_file" : "/frameworks/native/headers/media_plugin/media/hardware/HardwareAPI.h"
  },
  {
   "function_name" : "android::DescribeDefaultColorFormat",
   "linker_set_key" : "_ZN7android26DescribeDefaultColorFormatERNS_26DescribeColorFormat2ParamsE",
   "parameters" :
   [
    {
     "referenced_type" : "_ZTIRN7android26DescribeColorFormat2ParamsE"
    }
   ],
   "return_type" : "_ZTIb",
   "source_file" : "/frameworks/av/media/libstagefright/omx/include/media/stagefright/omx/OMXUtils.h"
  },
  {
   "function_name" : "android::sp<android::NativeHandle>::operator=",
   "linker_set_key" : "_ZN7android2spINS_12NativeHandleEEaSEOS2_",
   "parameters" :
   [
    {
     "is_this_ptr" : true,
     "referenced_type" : "_ZTIPN7android2spINS_12NativeHandleEEE"
    },
    {
     "referenced_type" : "_ZTION7android2spINS_12NativeHandleEEE"
    }
   ],
   "return_type" : "_ZTIRN7android2spINS_12NativeHandleEEE",
   "source_file" : "/system/core/libutils/include/utils/StrongPointer.h"
  },
  {
   "function_name" : "android::sp<android::NativeHandle>::operator=",
   "linker_set_key" : "_ZN7android2spINS_12NativeHandleEEaSEPS1_",
   "parameters" :
   [
    {
     "is_this_ptr" : true,
     "referenced_type" : "_ZTIPN7android2spINS_12NativeHandleEEE"
    },
    {
     "referenced_type" : "_ZTIPN7android12NativeHandleE"
    }
   ],
   "return_type" : "_ZTIRN7android2spINS_12NativeHandleEEE",
   "source_file" : "/system/core/libutils/include/utils/StrongPointer.h"
  },
  {
   "function_name" : "android::sp<android::IOmxNodeWrapper>::sp",
   "linker_set_key" : "_ZN7android2spINS_15IOmxNodeWrapperEEC2INS_8hardware5media3omx4V1_014implementation21TWGraphicBufferSource16TWOmxNodeWrapperEEEPT_",
   "parameters" :
   [
    {
     "is_this_ptr" : true,
     "referenced_type" : "_ZTIPN7android2spINS_15IOmxNodeWrapperEEE"
    },
    {
     "referenced_type" : "_ZTIPN7android8hardware5media3omx4V1_014implementation21TWGraphicBufferSource16TWOmxNodeWrapperE"
    }
   ],
   "return_type" : "_ZTIv",
   "source_file" : "/system/core/libutils/include/utils/StrongPointer.h",
   "template_args" :
   [
    "_ZTIN7android8hardware5media3omx4V1_014implementation21TWGraphicBufferSource16TWOmxNodeWrapperE"
   ]
  },
  {
   "function_name" : "android::hardware::media::omx::V1_0::implementation::LWOmxObserver::onMessages",
   "linker_set_key" : "_ZN7android8hardware5media3omx4V1_014implementation13LWOmxObserver10onMessagesERKNSt3__14listINS_11omx_messageENS6_9allocatorIS8_EEEE",
   "parameters" :
   [
    {
     "is_this_ptr" : true,
     "referenced_type" : "_ZTIPN7android8hardware5media3omx4V1_014implementation13LWOmxObserverE"
    },
    {
     "referenced_type" : "_ZTIRKNSt3__14listIN7android11omx_messageENS_9allocatorIS2_EEEE"
    }
   ],
   "return_type" : "_ZTIv",
   "source_file" : "/frameworks/av/media/libstagefright/omx/include/media/stagefright/omx/1.0/WOmxObserver.h"
  },
  {
   "function_name" : "android::hardware::media::omx::V1_0::implementation::LWOmxObserver::LWOmxObserver",
   "linker_set_key" : "_ZN7android8hardware5media3omx4V1_014implementation13LWOmxObserverC1ERKNS_2spINS3_12IOmxObserverEEE",
   "parameters" :
   [
    {
     "is_this_ptr" : true,
     "referenced_type" : "_ZTIPN7android8hardware5media3omx4V1_014implementation13LWOmxObserverE"
    },
    {
     "referenced_type" : "_ZTIRKN7android2spINS_8hardware5media3omx4V1_012IOmxObserverEEE"
    }
   ],
   "return_type" : "_ZTIv",
   "source_file" : "/frameworks/av/media/libstagefright/omx/include/media/stagefright/omx/1.0/WOmxObserver.h"
  },
  {
   "function_name" : "android::hardware::media::omx::V1_0::implementation::LWOmxObserver::LWOmxObserver",
   "linker_set_key" : "_ZN7android8hardware5media3omx4V1_014implementation13LWOmxObserverC2ERKNS_2spINS3_12IOmxObserverEEE",
   "parameters" :
   [
    {
     "is_this_ptr" : true,
     "referenced_type" : "_ZTIPN7android8hardware5media3omx4V1_014implementation13LWOmxObserverE"
    },
    {
     "referenced_type" : "_ZTIRKN7android2spINS_8hardware5media3omx4V1_012IOmxObserverEEE"
    }
   ],
   "return_type" : "_ZTIv",
   "source_file" : "/frameworks/av/media/libstagefright/omx/include/media/stagefright/omx/1.0/WOmxObserver.h"
  },
  {
   "function_name" : "android::hardware::media::omx::V1_0::implementation::TWOmxObserver::onMessages",
   "linker_set_key" : "_ZN7android8hardware5media3omx4V1_014implementation13TWOmxObserver10onMessagesERKNS0_8hidl_vecINS3_7MessageEEE",
   "parameters" :
   [
    {
     "is_this_ptr" : true,
     "referenced_type" : "_ZTIPN7android8hardware5media3omx4V1_014implementation13TWOmxObserverE"
    },
    {
     "referenced_type" : "_ZTIRKN7android8hardware8hidl_vecINS0_5media3omx4V1_07MessageEEE"
    }
   ],
   "return_type" : "_ZTIN7android8hardware6ReturnIvEE",
   "source_file" : "/frameworks/av/media/libstagefright/omx/include/media/stagefright/omx/1.0/WOmxObserver.h"
  },
  {
   "function_name" : "android::hardware::media::omx::V1_0::implementation::TWOmxObserver::TWOmxObserver",
   "linker_set_key" : "_ZN7android8hardware5media3omx4V1_014implementation13TWOmxObserverC1ERKNS_2spINS_12IOMXObserverEEE",
   "parameters" :
   [
    {
     "is_this_ptr" : true,
     "referenced_type" : "_ZTIPN7android8hardware5media3omx4V1_014implementation13TWOmxObserverE"
    },
    {
     "referenced_type" : "_ZTIRKN7android2spINS_12IOMXObserverEEE"
    }
   ],
   "return_type" : "_ZTIv",
   "source_file" : "/frameworks/av/media/libstagefright/omx/include/media/stagefright/omx/1.0/WOmxObserver.h"
  },
  {
   "function_name" : "android::hardware::media::omx::V1_0::implementation::TWOmxObserver::TWOmxObserver",
   "linker_set_key" : "_ZN7android8hardware5media3omx4V1_014implementation13TWOmxObserverC2ERKNS_2spINS_12IOMXObserverEEE",
   "parameters" :
   [
    {
     "is_this_ptr" : true,
     "referenced_type" : "_ZTIPN7android8hardware5media3omx4V1_014implementation13TWOmxObserverE"
    },
    {
     "referenced_type" : "_ZTIRKN7android2spINS_12IOMXObserverEEE"
    }
   ],
   "return_type" : "_ZTIv",
   "source_file" : "/frameworks/av/media/libstagefright/omx/include/media/stagefright/omx/1.0/WOmxObserver.h"
  },
  {
   "function_name" : "android::hardware::media::omx::V1_0::implementation::LWOmxBufferSource::onOmxLoaded",
   "linker_set_key" : "_ZN7android8hardware5media3omx4V1_014implementation17LWOmxBufferSource11onOmxLoadedEv",
   "parameters" :
   [
    {
     "is_this_ptr" : true,
     "referenced_type" : "_ZTIPN7android8hardware5media3omx4V1_014implementation17LWOmxBufferSourceE"
    }
   ],
   "return_type" : "_ZTIN7android6binder6StatusE",
   "source_file" : "/frameworks/av/media/libstagefright/omx/include/media/stagefright/omx/1.0/WOmxBufferSource.h"
  },
  {
   "function_name" : "android::hardware::media::omx::V1_0::implementation::LWOmxBufferSource::onOmxExecuting",
   "linker_set_key" : "_ZN7android8hardware5media3omx4V1_014implementation17LWOmxBufferSource14onOmxExecutingEv",
   "parameters" :
   [
    {
     "is_this_ptr" : true,
     "referenced_type" : "_ZTIPN7android8hardware5media3omx4V1_014implementation17LWOmxBufferSourceE"
    }
   ],
   "return_type" : "_ZTIN7android6binder6StatusE",
   "source_file" : "/frameworks/av/media/libstagefright/omx/include/media/stagefright/omx/1.0/WOmxBufferSource.h"
  },
  {
   "function_name" : "android::hardware::media::omx::V1_0::implementation::LWOmxBufferSource::onInputBufferAdded",
   "linker_set_key" : "_ZN7android8hardware5media3omx4V1_014implementation17LWOmxBufferSource18onInputBufferAddedEi",
   "parameters" :
   [
    {
     "is_this_ptr" : true,
     "referenced_type" : "_ZTIPN7android8hardware5media3omx4V1_014implementation17LWOmxBufferSourceE"
    },
    {
     "referenced_type" : "_ZTIi"
    }
   ],
   "return_type" : "_ZTIN7android6binder6StatusE",
   "source_file" : "/frameworks/av/media/libstagefright/omx/include/media/stagefright/omx/1.0/WOmxBufferSource.h"
  },
  {
   "function_name" : "android::hardware::media::omx::V1_0::implementation::LWOmxBufferSource::onInputBufferEmptied",
   "linker_set_key" : "_ZN7android8hardware5media3omx4V1_014implementation17LWOmxBufferSource20onInputBufferEmptiedEiRKNS_18OMXFenceParcelableE",
   "parameters" :
   [
    {
     "is_this_ptr" : true,
     "referenced_type" : "_ZTIPN7android8hardware5media3omx4V1_014implementation17LWOmxBufferSourceE"
    },
    {
     "referenced_type" : "_ZTIi"
    },
    {
     "referenced_type" : "_ZTIRKN7android18OMXFenceParcelableE"
    }
   ],
   "return_type" : "_ZTIN7android6binder6StatusE",
   "source_file" : "/frameworks/av/media/libstagefright/omx/include/media/stagefright/omx/1.0/WOmxBufferSource.h"
  },
  {
   "function_name" : "android::hardware::media::omx::V1_0::implementation::LWOmxBufferSource::onOmxIdle",
   "linker_set_key" : "_ZN7android8hardware5media3omx4V1_014implementation17LWOmxBufferSource9onOmxIdleEv",
   "parameters" :
   [
    {
     "is_this_ptr" : true,
     "referenced_type" : "_ZTIPN7android8hardware5media3omx4V1_014implementation17LWOmxBufferSourceE"
    }
   ],
   "return_type" : "_ZTIN7android6binder6StatusE",
   "source_file" : "/frameworks/av/media/libstagefright/omx/include/media/stagefright/omx/1.0/WOmxBufferSource.h"
  },
  {
   "function_name" : "android::hardware::media::omx::V1_0::implementation::LWOmxBufferSource::LWOmxBufferSource",
   "linker_set_key" : "_ZN7android8hardware5media3omx4V1_014implementation17LWOmxBufferSourceC1ERKNS_2spINS3_16IOmxBufferSourceEEE",
   "parameters" :
   [
    {
     "is_this_ptr" : true,
     "referenced_type" : "_ZTIPN7android8hardware5media3omx4V1_014implementation17LWOmxBufferSourceE"
    },
    {
     "referenced_type" : "_ZTIRKN7android2spINS_8hardware5media3omx4V1_016IOmxBufferSourceEEE"
    }
   ],
   "return_type" : "_ZTIv",
   "source_file" : "/frameworks/av/media/libstagefright/omx/include/media/stagefright/omx/1.0/WOmxBufferSource.h"
  },
  {
   "function_name" : "android::hardware::media::omx::V1_0::implementation::LWOmxBufferSource::LWOmxBufferSource",
   "linker_set_key" : "_ZN7android8hardware5media3omx4V1_014implementation17LWOmxBufferSourceC2ERKNS_2spINS3_16IOmxBufferSourceEEE",
   "parameters" :
   [
    {
     "is_this_ptr" : true,
     "referenced_type" : "_ZTIPN7android8hardware5media3omx4V1_014implementation17LWOmxBufferSourceE"
    },
    {
     "referenced_type" : "_ZTIRKN7android2spINS_8hardware5media3omx4V1_016IOmxBufferSourceEEE"
    }
   ],
   "return_type" : "_ZTIv",
   "source_file" : "/frameworks/av/media/libstagefright/omx/include/media/stagefright/omx/1.0/WOmxBufferSource.h"
  },
  {
   "function_name" : "android::hardware::media::omx::V1_0::implementation::TWOmxBufferSource::onOmxLoaded",
   "linker_set_key" : "_ZN7android8hardware5media3omx4V1_014implementation17TWOmxBufferSource11onOmxLoadedEv",
   "parameters" :
   [
    {
     "is_this_ptr" : true,
     "referenced_type" : "_ZTIPN7android8hardware5media3omx4V1_014implementation17TWOmxBufferSourceE"
    }
   ],
   "return_type" : "_ZTIN7android8hardware6ReturnIvEE",
   "source_file" : "/frameworks/av/media/libstagefright/omx/include/media/stagefright/omx/1.0/WOmxBufferSource.h"
  },
  {
   "function_name" : "android::hardware::media::omx::V1_0::implementation::TWOmxBufferSource::onOmxExecuting",
   "linker_set_key" : "_ZN7android8hardware5media3omx4V1_014implementation17TWOmxBufferSource14onOmxExecutingEv",
   "parameters" :
   [
    {
     "is_this_ptr" : true,
     "referenced_type" : "_ZTIPN7android8hardware5media3omx4V1_014implementation17TWOmxBufferSourceE"
    }
   ],
   "return_type" : "_ZTIN7android8hardware6ReturnIvEE",
   "source_file" : "/frameworks/av/media/libstagefright/omx/include/media/stagefright/omx/1.0/WOmxBufferSource.h"
  },
  {
   "function_name" : "android::hardware::media::omx::V1_0::implementation::TWOmxBufferSource::onInputBufferAdded",
   "linker_set_key" : "_ZN7android8hardware5media3omx4V1_014implementation17TWOmxBufferSource18onInputBufferAddedEj",
   "parameters" :
   [
    {
     "is_this_ptr" : true,
     "referenced_type" : "_ZTIPN7android8hardware5media3omx4V1_014implementation17TWOmxBufferSourceE"
    },
    {
     "referenced_type" : "_ZTIj"
    }
   ],
   "return_type" : "_ZTIN7android8hardware6ReturnIvEE",
   "source_file" : "/frameworks/av/media/libstagefright/omx/include/media/stagefright/omx/1.0/WOmxBufferSource.h"
  },
  {
   "function_name" : "android::hardware::media::omx::V1_0::implementation::TWOmxBufferSource::onInputBufferEmptied",
   "linker_set_key" : "_ZN7android8hardware5media3omx4V1_014implementation17TWOmxBufferSource20onInputBufferEmptiedEjRKNS0_11hidl_handleE",
   "parameters" :
   [
    {
     "is_this_ptr" : true,
     "referenced_type" : "_ZTIPN7android8hardware5media3omx4V1_014implementation17TWOmxBufferSourceE"
    },
    {
     "referenced_type" : "_ZTIj"
    },
    {
     "referenced_type" : "_ZTIRKN7android8hardware11hidl_handleE"
    }
   ],
   "return_type" : "_ZTIN7android8hardware6ReturnIvEE",
   "source_file" : "/frameworks/av/media/libstagefright/omx/include/media/stagefright/omx/1.0/WOmxBufferSource.h"
  },
  {
   "function_name" : "android::hardware::media::omx::V1_0::implementation::TWOmxBufferSource::onOmxIdle",
   "linker_set_key" : "_ZN7android8hardware5media3omx4V1_014implementation17TWOmxBufferSource9onOmxIdleEv",
   "parameters" :
   [
    {
     "is_this_ptr" : true,
     "referenced_type" : "_ZTIPN7android8hardware5media3omx4V1_014implementation17TWOmxBufferSourceE"
    }
   ],
   "return_type" : "_ZTIN7android8hardware6ReturnIvEE",
   "source_file" : "/frameworks/av/media/libstagefright/omx/include/media/stagefright/omx/1.0/WOmxBufferSource.h"
  },
  {
   "function_name" : "android::hardware::media::omx::V1_0::implementation::TWOmxBufferSource::TWOmxBufferSource",
   "linker_set_key" : "_ZN7android8hardware5media3omx4V1_014implementation17TWOmxBufferSourceC1ERKNS_2spINS_16IOMXBufferSourceEEE",
   "parameters" :
   [
    {
     "is_this_ptr" : true,
     "referenced_type" : "_ZTIPN7android8hardware5media3omx4V1_014implementation17TWOmxBufferSourceE"
    },
    {
     "referenced_type" : "_ZTIRKN7android2spINS_16IOMXBufferSourceEEE"
    }
   ],
   "return_type" : "_ZTIv",
   "source_file" : "/frameworks/av/media/libstagefright/omx/include/media/stagefright/omx/1.0/WOmxBufferSource.h"
  },
  {
   "function_name" : "android::hardware::media::omx::V1_0::implementation::TWOmxBufferSource::TWOmxBufferSource",
   "linker_set_key" : "_ZN7android8hardware5media3omx4V1_014implementation17TWOmxBufferSourceC2ERKNS_2spINS_16IOMXBufferSourceEEE",
   "parameters" :
   [
    {
     "is_this_ptr" : true,
     "referenced_type" : "_ZTIPN7android8hardware5media3omx4V1_014implementation17TWOmxBufferSourceE"
    },
    {
     "referenced_type" : "_ZTIRKN7android2spINS_16IOMXBufferSourceEEE"
    }
   ],
   "return_type" : "_ZTIv",
   "source_file" : "/frameworks/av/media/libstagefright/omx/include/media/stagefright/omx/1.0/WOmxBufferSource.h"
  },
  {
   "function_name" : "android::hardware::media::omx::V1_0::implementation::TWGraphicBufferSource::setSuspend",
   "linker_set_key" : "_ZN7android8hardware5media3omx4V1_014implementation21TWGraphicBufferSource10setSuspendEbl",
   "parameters" :
   [
    {
     "is_this_ptr" : true,
     "referenced_type" : "_ZTIPN7android8hardware5media3omx4V1_014implementation21TWGraphicBufferSourceE"
    },
    {
     "referenced_type" : "_ZTIb"
    },
    {
     "referenced_type" : "_ZTIl"
    }
   ],
   "return_type" : "_ZTIN7android8hardware6ReturnINS0_5media3omx4V1_06StatusEEE",
   "source_file" : "/frameworks/av/media/libstagefright/omx/include/media/stagefright/omx/1.0/WGraphicBufferSource.h"
  },
  {
   "function_name" : "android::hardware::media::omx::V1_0::implementation::TWGraphicBufferSource::setStopTimeUs",
   "linker_set_key" : "_ZN7android8hardware5media3omx4V1_014implementation21TWGraphicBufferSource13setStopTimeUsEl",
   "parameters" :
   [
    {
     "is_this_ptr" : true,
     "referenced_type" : "_ZTIPN7android8hardware5media3omx4V1_014implementation21TWGraphicBufferSourceE"
    },
    {
     "referenced_type" : "_ZTIl"
    }
   ],
   "return_type" : "_ZTIN7android8hardware6ReturnINS0_5media3omx4V1_06StatusEEE",
   "source_file" : "/frameworks/av/media/libstagefright/omx/include/media/stagefright/omx/1.0/WGraphicBufferSource.h"
  },
  {
   "function_name" : "android::hardware::media::omx::V1_0::implementation::TWGraphicBufferSource::setStartTimeUs",
   "linker_set_key" : "_ZN7android8hardware5media3omx4V1_014implementation21TWGraphicBufferSource14setStartTimeUsEl",
   "parameters" :
   [
    {
     "is_this_ptr" : true,
     "referenced_type" : "_ZTIPN7android8hardware5media3omx4V1_014implementation21TWGraphicBufferSourceE"
    },
    {
     "referenced_type" : "_ZTIl"
    }
   ],
   "return_type" : "_ZTIN7android8hardware6ReturnINS0_5media3omx4V1_06StatusEEE",
   "source_file" : "/frameworks/av/media/libstagefright/omx/include/media/stagefright/omx/1.0/WGraphicBufferSource.h"
  },
  {
   "function_name" : "android::hardware::media::omx::V1_0::implementation::TWGraphicBufferSource::setColorAspects",
   "linker_set_key" : "_ZN7android8hardware5media3omx4V1_014implementation21TWGraphicBufferSource15setColorAspectsERKNS3_12ColorAspectsE",
   "parameters" :
   [
    {
     "is_this_ptr" : true,
     "referenced_type" : "_ZTIPN7android8hardware5media3omx4V1_014implementation21TWGraphicBufferSourceE"
    },
    {
     "referenced_type" : "_ZTIRKN7android8hardware5media3omx4V1_012ColorAspectsE"
    }
   ],
   "return_type" : "_ZTIN7android8hardware6ReturnINS0_5media3omx4V1_06StatusEEE",
   "source_file" : "/frameworks/av/media/libstagefright/omx/include/media/stagefright/omx/1.0/WGraphicBufferSource.h"
  },
  {
   "function_name" : "android::hardware::media::omx::V1_0::implementation::TWGraphicBufferSource::setTimeOffsetUs",
   "linker_set_key" : "_ZN7android8hardware5media3omx4V1_014implementation21TWGraphicBufferSource15setTimeOffsetUsEl",
   "parameters" :
   [
    {
     "is_this_ptr" : true,
     "referenced_type" : "_ZTIPN7android8hardware5media3omx4V1_014implementation21TWGraphicBufferSourceE"
    },
    {
     "referenced_type" : "_ZTIl"
    }
   ],
   "return_type" : "_ZTIN7android8hardware6ReturnINS0_5media3omx4V1_06StatusEEE",
   "source_file" : "/frameworks/av/media/libstagefright/omx/include/media/stagefright/omx/1.0/WGraphicBufferSource.h"
  },
  {
   "function_name" : "android::hardware::media::omx::V1_0::implementation::TWGraphicBufferSource::setTimeLapseConfig",
   "linker_set_key" : "_ZN7android8hardware5media3omx4V1_014implementation21TWGraphicBufferSource18setTimeLapseConfigEdd",
   "parameters" :
   [
    {
     "is_this_ptr" : true,
     "referenced_type" : "_ZTIPN7android8hardware5media3omx4V1_014implementation21TWGraphicBufferSourceE"
    },
    {
     "referenced_type" : "_ZTId"
    },
    {
     "referenced_type" : "_ZTId"
    }
   ],
   "return_type" : "_ZTIN7android8hardware6ReturnINS0_5media3omx4V1_06StatusEEE",
   "source_file" : "/frameworks/av/media/libstagefright/omx/include/media/stagefright/omx/1.0/WGraphicBufferSource.h"
  },
  {
   "function_name" : "android::hardware::media::omx::V1_0::implementation::TWGraphicBufferSource::getStopTimeOffsetUs",
   "linker_set_key" : "_ZN7android8hardware5media3omx4V1_014implementation21TWGraphicBufferSource19getStopTimeOffsetUsENSt3__18functionIFvNS3_6StatusElEEE",
   "parameters" :
   [
    {
     "is_this_ptr" : true,
     "referenced_type" : "_ZTIPN7android8hardware5media3omx4V1_014implementation21TWGraphicBufferSourceE"
    },
    {
     "referenced_type" : "_ZTINSt3__18functionIFvN7android8hardware5media3omx4V1_06StatusElEEE"
    }
   ],
   "return_type" : "_ZTIN7android8hardware6ReturnIvEE",
   "source_file" : "/frameworks/av/media/libstagefright/omx/include/media/stagefright/omx/1.0/WGraphicBufferSource.h"
  },
  {
   "function_name" : "android::hardware::media::omx::V1_0::implementation::TWGraphicBufferSource::signalEndOfInputStream",
   "linker_set_key" : "_ZN7android8hardware5media3omx4V1_014implementation21TWGraphicBufferSource22signalEndOfInputStreamEv",
   "parameters" :
   [
    {
     "is_this_ptr" : true,
     "referenced_type" : "_ZTIPN7android8hardware5media3omx4V1_014implementation21TWGraphicBufferSourceE"
    }
   ],
   "return_type" : "_ZTIN7android8hardware6ReturnINS0_5media3omx4V1_06StatusEEE",
   "source_file" : "/frameworks/av/media/libstagefright/omx/include/media/stagefright/omx/1.0/WGraphicBufferSource.h"
  },
  {
   "function_name" : "android::hardware::media::omx::V1_0::implementation::TWGraphicBufferSource::setRepeatPreviousFrameDelayUs",
   "linker_set_key" : "_ZN7android8hardware5media3omx4V1_014implementation21TWGraphicBufferSource29setRepeatPreviousFrameDelayUsEl",
   "parameters" :
   [
    {
     "is_this_ptr" : true,
     "referenced_type" : "_ZTIPN7android8hardware5media3omx4V1_014implementation21TWGraphicBufferSourceE"
    },
    {
     "referenced_type" : "_ZTIl"
    }
   ],
   "return_type" : "_ZTIN7android8hardware6ReturnINS0_5media3omx4V1_06StatusEEE",
   "source_file" : "/frameworks/av/media/libstagefright/omx/include/media/stagefright/omx/1.0/WGraphicBufferSource.h"
  },
  {
   "function_name" : "android::hardware::media::omx::V1_0::implementation::TWGraphicBufferSource::configure",
   "linker_set_key" : "_ZN7android8hardware5media3omx4V1_014implementation21TWGraphicBufferSource9configureERKNS_2spINS3_8IOmxNodeEEENS0_8graphics6common4V1_09DataspaceE",
   "parameters" :
   [
    {
     "is_this_ptr" : true,
     "referenced_type" : "_ZTIPN7android8hardware5media3omx4V1_014implementation21TWGraphicBufferSourceE"
    },
    {
     "referenced_type" : "_ZTIRKN7android2spINS_8hardware5media3omx4V1_08IOmxNodeEEE"
    },
    {
     "referenced_type" : "_ZTIN7android8hardware8graphics6common4V1_09DataspaceE"
    }
   ],
   "return_type" : "_ZTIN7android8hardware6ReturnINS0_5media3omx4V1_06StatusEEE",
   "source_file" : "/frameworks/av/media/libstagefright/omx/include/media/stagefright/omx/1.0/WGraphicBufferSource.h"
  },
  {
   "function_name" : "android::hardware::media::omx::V1_0::implementation::TWGraphicBufferSource::setMaxFps",
   "linker_set_key" : "_ZN7android8hardware5media3omx4V1_014implementation21TWGraphicBufferSource9setMaxFpsEf",
   "parameters" :
   [
    {
     "is_this_ptr" : true,
     "referenced_type" : "_ZTIPN7android8hardware5media3omx4V1_014implementation21TWGraphicBufferSourceE"
    },
    {
     "referenced_type" : "_ZTIf"
    }
   ],
   "return_type" : "_ZTIN7android8hardware6ReturnINS0_5media3omx4V1_06StatusEEE",
   "source_file" : "/frameworks/av/media/libstagefright/omx/include/media/stagefright/omx/1.0/WGraphicBufferSource.h"
  },
  {
   "function_name" : "android::hardware::media::omx::V1_0::implementation::TWGraphicBufferSource::TWGraphicBufferSource",
   "linker_set_key" : "_ZN7android8hardware5media3omx4V1_014implementation21TWGraphicBufferSourceC1ERKNS_2spINS_22OmxGraphicBufferSourceEEE",
   "parameters" :
   [
    {
     "is_this_ptr" : true,
     "referenced_type" : "_ZTIPN7android8hardware5media3omx4V1_014implementation21TWGraphicBufferSourceE"
    },
    {
     "referenced_type" : "_ZTIRKN7android2spINS_22OmxGraphicBufferSourceEEE"
    }
   ],
   "return_type" : "_ZTIv",
   "source_file" : "/frameworks/av/media/libstagefright/omx/include/media/stagefright/omx/1.0/WGraphicBufferSource.h"
  },
  {
   "function_name" : "android::hardware::media::omx::V1_0::implementation::TWGraphicBufferSource::TWGraphicBufferSource",
   "linker_set_key" : "_ZN7android8hardware5media3omx4V1_014implementation21TWGraphicBufferSourceC2ERKNS_2spINS_22OmxGraphicBufferSourceEEE",
   "parameters" :
   [
    {
     "is_this_ptr" : true,
     "referenced_type" : "_ZTIPN7android8hardware5media3omx4V1_014implementation21TWGraphicBufferSourceE"
    },
    {
     "referenced_type" : "_ZTIRKN7android2spINS_22OmxGraphicBufferSourceEEE"
    }
   ],
   "return_type" : "_ZTIv",
   "source_file" : "/frameworks/av/media/libstagefright/omx/include/media/stagefright/omx/1.0/WGraphicBufferSource.h"
  },
  {
   "function_name" : "android::hardware::media::omx::V1_0::implementation::Omx::serviceDied",
   "linker_set_key" : "_ZN7android8hardware5media3omx4V1_014implementation3Omx11serviceDiedEmRKNS_2wpINS_4hidl4base4V1_05IBaseEEE",
   "parameters" :
   [
    {
     "is_this_ptr" : true,
     "referenced_type" : "_ZTIPN7android8hardware5media3omx4V1_014implementation3OmxE"
    },
    {
     "referenced_type" : "_ZTIm"
    },
    {
     "referenced_type" : "_ZTIRKN7android2wpINS_4hidl4base4V1_05IBaseEEE"
    }
   ],
   "return_type" : "_ZTIv",
   "source_file" : "/frameworks/av/media/libstagefright/omx/include/media/stagefright/omx/1.0/Omx.h"
  },
  {
   "function_name" : "android::hardware::media::omx::V1_0::implementation::Omx::allocateNode",
   "linker_set_key" : "_ZN7android8hardware5media3omx4V1_014implementation3Omx12allocateNodeERKNS0_11hidl_stringERKNS_2spINS3_12IOmxObserverEEENSt3__18functionIFvNS3_6StatusERKNS9_INS3_8IOmxNodeEEEEEE",
   "parameters" :
   [
    {
     "is_this_ptr" : true,
     "referenced_type" : "_ZTIPN7android8hardware5media3omx4V1_014implementation3OmxE"
    },
    {
     "referenced_type" : "_ZTIRKN7android8hardware11hidl_stringE"
    },
    {
     "referenced_type" : "_ZTIRKN7android2spINS_8hardware5media3omx4V1_012IOmxObserverEEE"
    },
    {
     "referenced_type" : "_ZTINSt3__18functionIFvN7android8hardware5media3omx4V1_06StatusERKNS1_2spINS5_8IOmxNodeEEEEEE"
    }
   ],
   "return_type" : "_ZTIN7android8hardware6ReturnIvEE",
   "source_file" : "/frameworks/av/media/libstagefright/omx/include/media/stagefright/omx/1.0/Omx.h"
  },
  {
   "function_name" : "android::hardware::media::omx::V1_0::implementation::Omx::createInputSurface",
   "linker_set_key" : "_ZN7android8hardware5media3omx4V1_014implementation3Omx18createInputSurfaceENSt3__18functionIFvNS3_6StatusERKNS_2spINS0_8graphics11bufferqueue4V1_022IGraphicBufferProducerEEERKNS9_INS3_20IGraphicBufferSourceEEEEEE",
   "parameters" :
   [
    {
     "is_this_ptr" : true,
     "referenced_type" : "_ZTIPN7android8hardware5media3omx4V1_014implementation3OmxE"
    },
    {
     "referenced_type" : "_ZTINSt3__18functionIFvN7android8hardware5media3omx4V1_06StatusERKNS1_2spINS2_8graphics11bufferqueue4V1_022IGraphicBufferProducerEEERKNS7_INS5_20IGraphicBufferSourceEEEEEE"
    }
   ],
   "return_type" : "_ZTIN7android8hardware6ReturnIvEE",
   "source_file" : "/frameworks/av/media/libstagefright/omx/include/media/stagefright/omx/1.0/Omx.h"
  },
  {
   "function_name" : "android::hardware::media::omx::V1_0::implementation::Omx::freeNode",
   "linker_set_key" : "_ZN7android8hardware5media3omx4V1_014implementation3Omx8freeNodeERKNS_2spINS_15OMXNodeInstanceEEE",
   "parameters" :
   [
    {
     "is_this_ptr" : true,
     "referenced_type" : "_ZTIPN7android8hardware5media3omx4V1_014implementation3OmxE"
    },
    {
     "referenced_type" : "_ZTIRKN7android2spINS_15OMXNodeInstanceEEE"
    }
   ],
   "return_type" : "_ZTIi",
   "source_file" : "/frameworks/av/media/libstagefright/omx/include/media/stagefright/omx/1.0/Omx.h"
  },
  {
   "function_name" : "android::hardware::media::omx::V1_0::implementation::Omx::listNodes",
   "linker_set_key" : "_ZN7android8hardware5media3omx4V1_014implementation3Omx9listNodesENSt3__18functionIFvNS3_6StatusERKNS0_8hidl_vecINS3_4IOmx13ComponentInfoEEEEEE",
   "parameters" :
   [
    {
     "is_this_ptr" : true,
     "referenced_type" : "_ZTIPN7android8hardware5media3omx4V1_014implementation3OmxE"
    },
    {
     "referenced_type" : "_ZTINSt3__18functionIFvN7android8hardware5media3omx4V1_06StatusERKNS2_8hidl_vecINS5_4IOmx13ComponentInfoEEEEEE"
    }
   ],
   "return_type" : "_ZTIN7android8hardware6ReturnIvEE",
   "source_file" : "/frameworks/av/media/libstagefright/omx/include/media/stagefright/omx/1.0/Omx.h"
  },
  {
   "function_name" : "android::hardware::media::omx::V1_0::implementation::Omx::Omx",
   "linker_set_key" : "_ZN7android8hardware5media3omx4V1_014implementation3OmxC1Ev",
   "parameters" :
   [
    {
     "is_this_ptr" : true,
     "referenced_type" : "_ZTIPN7android8hardware5media3omx4V1_014implementation3OmxE"
    }
   ],
   "return_type" : "_ZTIv",
   "source_file" : "/frameworks/av/media/libstagefright/omx/include/media/stagefright/omx/1.0/Omx.h"
  },
  {
   "function_name" : "android::hardware::media::omx::V1_0::implementation::Omx::Omx",
   "linker_set_key" : "_ZN7android8hardware5media3omx4V1_014implementation3OmxC2Ev",
   "parameters" :
   [
    {
     "is_this_ptr" : true,
     "referenced_type" : "_ZTIPN7android8hardware5media3omx4V1_014implementation3OmxE"
    }
   ],
   "return_type" : "_ZTIv",
   "source_file" : "/frameworks/av/media/libstagefright/omx/include/media/stagefright/omx/1.0/Omx.h"
  },
  {
   "function_name" : "android::hardware::media::omx::V1_0::implementation::Omx::~Omx",
   "linker_set_key" : "_ZN7android8hardware5media3omx4V1_014implementation3OmxD0Ev",
   "parameters" :
   [
    {
     "is_this_ptr" : true,
     "referenced_type" : "_ZTIPN7android8hardware5media3omx4V1_014implementation3OmxE"
    }
   ],
   "return_type" : "_ZTIv",
   "source_file" : "/frameworks/av/media/libstagefright/omx/include/media/stagefright/omx/1.0/Omx.h"
  },
  {
   "function_name" : "android::hardware::media::omx::V1_0::implementation::Omx::~Omx",
   "linker_set_key" : "_ZN7android8hardware5media3omx4V1_014implementation3OmxD1Ev",
   "parameters" :
   [
    {
     "is_this_ptr" : true,
     "referenced_type" : "_ZTIPN7android8hardware5media3omx4V1_014implementation3OmxE"
    }
   ],
   "return_type" : "_ZTIv",
   "source_file" : "/frameworks/av/media/libstagefright/omx/include/media/stagefright/omx/1.0/Omx.h"
  },
  {
   "function_name" : "android::hardware::media::omx::V1_0::implementation::Omx::~Omx",
   "linker_set_key" : "_ZN7android8hardware5media3omx4V1_014implementation3OmxD2Ev",
   "parameters" :
   [
    {
     "is_this_ptr" : true,
     "referenced_type" : "_ZTIPN7android8hardware5media3omx4V1_014implementation3OmxE"
    }
   ],
   "return_type" : "_ZTIv",
   "source_file" : "/frameworks/av/media/libstagefright/omx/include/media/stagefright/omx/1.0/Omx.h"
  },
  {
   "function_name" : "android::hardware::media::omx::V1_0::implementation::OmxStore::getNodePrefix",
   "linker_set_key" : "_ZN7android8hardware5media3omx4V1_014implementation8OmxStore13getNodePrefixENSt3__18functionIFvRKNS0_11hidl_stringEEEE",
   "parameters" :
   [
    {
     "is_this_ptr" : true,
     "referenced_type" : "_ZTIPN7android8hardware5media3omx4V1_014implementation8OmxStoreE"
    },
    {
     "referenced_type" : "_ZTINSt3__18functionIFvRKN7android8hardware11hidl_stringEEEE"
    }
   ],
   "return_type" : "_ZTIN7android8hardware6ReturnIvEE",
   "source_file" : "/frameworks/av/media/libstagefright/omx/include/media/stagefright/omx/1.0/OmxStore.h"
  },
  {
   "function_name" : "android::hardware::media::omx::V1_0::implementation::OmxStore::listServiceAttributes",
   "linker_set_key" : "_ZN7android8hardware5media3omx4V1_014implementation8OmxStore21listServiceAttributesENSt3__18functionIFvNS3_6StatusERKNS0_8hidl_vecINS3_9IOmxStore9AttributeEEEEEE",
   "parameters" :
   [
    {
     "is_this_ptr" : true,
     "referenced_type" : "_ZTIPN7android8hardware5media3omx4V1_014implementation8OmxStoreE"
    },
    {
     "referenced_type" : "_ZTINSt3__18functionIFvN7android8hardware5media3omx4V1_06StatusERKNS2_8hidl_vecINS5_9IOmxStore9AttributeEEEEEE"
    }
   ],
   "return_type" : "_ZTIN7android8hardware6ReturnIvEE",
   "source_file" : "/frameworks/av/media/libstagefright/omx/include/media/stagefright/omx/1.0/OmxStore.h"
  },
  {
   "function_name" : "android::hardware::media::omx::V1_0::implementation::OmxStore::getOmx",
   "linker_set_key" : "_ZN7android8hardware5media3omx4V1_014implementation8OmxStore6getOmxERKNS0_11hidl_stringE",
   "parameters" :
   [
    {
     "is_this_ptr" : true,
     "referenced_type" : "_ZTIPN7android8hardware5media3omx4V1_014implementation8OmxStoreE"
    },
    {
     "referenced_type" : "_ZTIRKN7android8hardware11hidl_stringE"
    }
   ],
   "return_type" : "_ZTIN7android8hardware6ReturnINS_2spINS0_5media3omx4V1_04IOmxEEEEE",
   "source_file" : "/frameworks/av/media/libstagefright/omx/include/media/stagefright/omx/1.0/OmxStore.h"
  },
  {
   "function_name" : "android::hardware::media::omx::V1_0::implementation::OmxStore::listRoles",
   "linker_set_key" : "_ZN7android8hardware5media3omx4V1_014implementation8OmxStore9listRolesENSt3__18functionIFvRKNS0_8hidl_vecINS3_9IOmxStore8RoleInfoEEEEEE",
   "parameters" :
   [
    {
     "is_this_ptr" : true,
     "referenced_type" : "_ZTIPN7android8hardware5media3omx4V1_014implementation8OmxStoreE"
    },
    {
     "referenced_type" : "_ZTINSt3__18functionIFvRKN7android8hardware8hidl_vecINS2_5media3omx4V1_09IOmxStore8RoleInfoEEEEEE"
    }
   ],
   "return_type" : "_ZTIN7android8hardware6ReturnIvEE",
   "source_file" : "/frameworks/av/media/libstagefright/omx/include/media/stagefright/omx/1.0/OmxStore.h"
  },
  {
   "function_name" : "android::hardware::media::omx::V1_0::implementation::OmxStore::OmxStore",
   "linker_set_key" : "_ZN7android8hardware5media3omx4V1_014implementation8OmxStoreC1ERKNS_2spINS3_4IOmxEEEPKcRKNSt3__16vectorINSD_12basic_stringIcNSD_11char_traitsIcEENSD_9allocatorIcEEEENSI_ISK_EEEESO_SC_",
   "parameters" :
   [
    {
     "is_this_ptr" : true,
     "referenced_type" : "_ZTIPN7android8hardware5media3omx4V1_014implementation8OmxStoreE"
    },
    {
     "default_arg" : true,
     "referenced_type" : "_ZTIRKN7android2spINS_8hardware5media3omx4V1_04IOmxEEE"
    },
    {
     "default_arg" : true,
     "referenced_type" : "_ZTIPKc"
    },
    {
     "default_arg" : true,
     "referenced_type" : "_ZTIRKNSt3__16vectorINS_12basic_stringIcNS_11char_traitsIcEENS_9allocatorIcEEEENS4_IS6_EEEE"
    },
    {
     "default_arg" : true,
     "referenced_type" : "_ZTIRKNSt3__16vectorINS_12basic_stringIcNS_11char_traitsIcEENS_9allocatorIcEEEENS4_IS6_EEEE"
    },
    {
     "default_arg" : true,
     "referenced_type" : "_ZTIPKc"
    }
   ],
   "return_type" : "_ZTIv",
   "source_file" : "/frameworks/av/media/libstagefright/omx/include/media/stagefright/omx/1.0/OmxStore.h"
  },
  {
   "function_name" : "android::hardware::media::omx::V1_0::implementation::OmxStore::OmxStore",
   "linker_set_key" : "_ZN7android8hardware5media3omx4V1_014implementation8OmxStoreC2ERKNS_2spINS3_4IOmxEEEPKcRKNSt3__16vectorINSD_12basic_stringIcNSD_11char_traitsIcEENSD_9allocatorIcEEEENSI_ISK_EEEESO_SC_",
   "parameters" :
   [
    {
     "is_this_ptr" : true,
     "referenced_type" : "_ZTIPN7android8hardware5media3omx4V1_014implementation8OmxStoreE"
    },
    {
     "default_arg" : true,
     "referenced_type" : "_ZTIRKN7android2spINS_8hardware5media3omx4V1_04IOmxEEE"
    },
    {
     "default_arg" : true,
     "referenced_type" : "_ZTIPKc"
    },
    {
     "default_arg" : true,
     "referenced_type" : "_ZTIRKNSt3__16vectorINS_12basic_stringIcNS_11char_traitsIcEENS_9allocatorIcEEEENS4_IS6_EEEE"
    },
    {
     "default_arg" : true,
     "referenced_type" : "_ZTIRKNSt3__16vectorINS_12basic_stringIcNS_11char_traitsIcEENS_9allocatorIcEEEENS4_IS6_EEEE"
    },
    {
     "default_arg" : true,
     "referenced_type" : "_ZTIPKc"
    }
   ],
   "return_type" : "_ZTIv",
   "source_file" : "/frameworks/av/media/libstagefright/omx/include/media/stagefright/omx/1.0/OmxStore.h"
  },
  {
   "function_name" : "android::hardware::media::omx::V1_0::implementation::OmxStore::~OmxStore",
   "linker_set_key" : "_ZN7android8hardware5media3omx4V1_014implementation8OmxStoreD0Ev",
   "parameters" :
   [
    {
     "is_this_ptr" : true,
     "referenced_type" : "_ZTIPN7android8hardware5media3omx4V1_014implementation8OmxStoreE"
    }
   ],
   "return_type" : "_ZTIv",
   "source_file" : "/frameworks/av/media/libstagefright/omx/include/media/stagefright/omx/1.0/OmxStore.h"
  },
  {
   "function_name" : "android::hardware::media::omx::V1_0::implementation::OmxStore::~OmxStore",
   "linker_set_key" : "_ZN7android8hardware5media3omx4V1_014implementation8OmxStoreD1Ev",
   "parameters" :
   [
    {
     "is_this_ptr" : true,
     "referenced_type" : "_ZTIPN7android8hardware5media3omx4V1_014implementation8OmxStoreE"
    }
   ],
   "return_type" : "_ZTIv",
   "source_file" : "/frameworks/av/media/libstagefright/omx/include/media/stagefright/omx/1.0/OmxStore.h"
  },
  {
   "function_name" : "android::hardware::media::omx::V1_0::implementation::OmxStore::~OmxStore",
   "linker_set_key" : "_ZN7android8hardware5media3omx4V1_014implementation8OmxStoreD2Ev",
   "parameters" :
   [
    {
     "is_this_ptr" : true,
     "referenced_type" : "_ZTIPN7android8hardware5media3omx4V1_014implementation8OmxStoreE"
    }
   ],
   "return_type" : "_ZTIv",
   "source_file" : "/frameworks/av/media/libstagefright/omx/include/media/stagefright/omx/1.0/OmxStore.h"
  },
  {
   "function_name" : "android::hardware::media::omx::V1_0::implementation::LWOmxNode::fillBuffer",
   "linker_set_key" : "_ZN7android8hardware5media3omx4V1_014implementation9LWOmxNode10fillBufferEjRKNS_9OMXBufferEi",
   "parameters" :
   [
    {
     "is_this_ptr" : true,
     "referenced_type" : "_ZTIPN7android8hardware5media3omx4V1_014implementation9LWOmxNodeE"
    },
    {
     "referenced_type" : "_ZTIj"
    },
    {
     "referenced_type" : "_ZTIRKN7android9OMXBufferE"
    },
    {
     "default_arg" : true,
     "referenced_type" : "_ZTIi"
    }
   ],
   "return_type" : "_ZTIi",
   "source_file" : "/frameworks/av/media/libstagefright/omx/include/media/stagefright/omx/1.0/WOmxNode.h"
  },
  {
   "function_name" : "android::hardware::media::omx::V1_0::implementation::LWOmxNode::freeBuffer",
   "linker_set_key" : "_ZN7android8hardware5media3omx4V1_014implementation9LWOmxNode10freeBufferEjj",
   "parameters" :
   [
    {
     "is_this_ptr" : true,
     "referenced_type" : "_ZTIPN7android8hardware5media3omx4V1_014implementation9LWOmxNodeE"
    },
    {
     "referenced_type" : "_ZTIj"
    },
    {
     "referenced_type" : "_ZTIj"
    }
   ],
   "return_type" : "_ZTIi",
   "source_file" : "/frameworks/av/media/libstagefright/omx/include/media/stagefright/omx/1.0/WOmxNode.h"
  },
  {
   "function_name" : "android::hardware::media::omx::V1_0::implementation::LWOmxNode::emptyBuffer",
   "linker_set_key" : "_ZN7android8hardware5media3omx4V1_014implementation9LWOmxNode11emptyBufferEjRKNS_9OMXBufferEjxi",
   "parameters" :
   [
    {
     "is_this_ptr" : true,
     "referenced_type" : "_ZTIPN7android8hardware5media3omx4V1_014implementation9LWOmxNodeE"
    },
    {
     "referenced_type" : "_ZTIj"
    },
    {
     "referenced_type" : "_ZTIRKN7android9OMXBufferE"
    },
    {
     "referenced_type" : "_ZTIj"
    },
    {
     "referenced_type" : "_ZTIx"
    },
    {
     "default_arg" : true,
     "referenced_type" : "_ZTIi"
    }
   ],
   "return_type" : "_ZTIi",
   "source_file" : "/frameworks/av/media/libstagefright/omx/include/media/stagefright/omx/1.0/WOmxNode.h"
  },
  {
   "function_name" : "android::hardware::media::omx::V1_0::implementation::LWOmxNode::sendCommand",
   "linker_set_key" : "_ZN7android8hardware5media3omx4V1_014implementation9LWOmxNode11sendCommandE15OMX_COMMANDTYPEi",
   "parameters" :
   [
    {
     "is_this_ptr" : true,
     "referenced_type" : "_ZTIPN7android8hardware5media3omx4V1_014implementation9LWOmxNodeE"
    },
    {
     "referenced_type" : "_ZTI15OMX_COMMANDTYPE"
    },
    {
     "referenced_type" : "_ZTIi"
    }
   ],
   "return_type" : "_ZTIi",
   "source_file" : "/frameworks/av/media/libstagefright/omx/include/media/stagefright/omx/1.0/WOmxNode.h"
  },
  {
   "function_name" : "android::hardware::media::omx::V1_0::implementation::LWOmxNode::setPortMode",
   "linker_set_key" : "_ZN7android8hardware5media3omx4V1_014implementation9LWOmxNode11setPortModeEjNS_4IOMX8PortModeE",
   "parameters" :
   [
    {
     "is_this_ptr" : true,
     "referenced_type" : "_ZTIPN7android8hardware5media3omx4V1_014implementation9LWOmxNodeE"
    },
    {
     "referenced_type" : "_ZTIj"
    },
    {
     "referenced_type" : "_ZTIN7android4IOMX8PortModeE"
    }
   ],
   "return_type" : "_ZTIi",
   "source_file" : "/frameworks/av/media/libstagefright/omx/include/media/stagefright/omx/1.0/WOmxNode.h"
  },
  {
   "function_name" : "android::hardware::media::omx::V1_0::implementation::LWOmxNode::getParameter",
   "linker_set_key" : "_ZN7android8hardware5media3omx4V1_014implementation9LWOmxNode12getParameterE13OMX_INDEXTYPEPvm",
   "parameters" :
   [
    {
     "is_this_ptr" : true,
     "referenced_type" : "_ZTIPN7android8hardware5media3omx4V1_014implementation9LWOmxNodeE"
    },
    {
     "referenced_type" : "_ZTI13OMX_INDEXTYPE"
    },
    {
     "referenced_type" : "_ZTIPv"
    },
    {
     "referenced_type" : "_ZTIm"
    }
   ],
   "return_type" : "_ZTIi",
   "source_file" : "/frameworks/av/media/libstagefright/omx/include/media/stagefright/omx/1.0/WOmxNode.h"
  },
  {
   "function_name" : "android::hardware::media::omx::V1_0::implementation::LWOmxNode::setParameter",
   "linker_set_key" : "_ZN7android8hardware5media3omx4V1_014implementation9LWOmxNode12setParameterE13OMX_INDEXTYPEPKvm",
   "parameters" :
   [
    {
     "is_this_ptr" : true,
     "referenced_type" : "_ZTIPN7android8hardware5media3omx4V1_014implementation9LWOmxNodeE"
    },
    {
     "referenced_type" : "_ZTI13OMX_INDEXTYPE"
    },
    {
     "referenced_type" : "_ZTIPKv"
    },
    {
     "referenced_type" : "_ZTIm"
    }
   ],
   "return_type" : "_ZTIi",
   "source_file" : "/frameworks/av/media/libstagefright/omx/include/media/stagefright/omx/1.0/WOmxNode.h"
  },
  {
   "function_name" : "android::hardware::media::omx::V1_0::implementation::LWOmxNode::dispatchMessage",
   "linker_set_key" : "_ZN7android8hardware5media3omx4V1_014implementation9LWOmxNode15dispatchMessageERKNS_11omx_messageE",
   "parameters" :
   [
    {
     "is_this_ptr" : true,
     "referenced_type" : "_ZTIPN7android8hardware5media3omx4V1_014implementation9LWOmxNodeE"
    },
    {
