{
 "array_types" :
 [
  {
   "alignment" : 2,
   "linker_set_key" : "_ZTIA10_t",
   "name" : "unsigned short [10]",
   "referenced_type" : "_ZTIt",
   "self_type" : "_ZTIA10_t",
   "size" : 20,
   "source_file" : "/external/boringssl/src/include/openssl/span.h"
  },
  {
   "alignment" : 1,
   "linker_set_key" : "_ZTIA128_h",
   "name" : "unsigned char [128]",
   "referenced_type" : "_ZTIh",
   "self_type" : "_ZTIA128_h",
   "size" : 128,
   "source_file" : "/external/boringssl/src/include/openssl/sha.h"
  },
  {
   "alignment" : 2,
   "linker_set_key" : "_ZTIA12_t",
   "name" : "unsigned short [12]",
   "referenced_type" : "_ZTIt",
   "self_type" : "_ZTIA12_t",
   "size" : 24,
   "source_file" : "/external/boringssl/src/include/openssl/span.h"
  },
  {
   "alignment" : 1,
   "linker_set_key" : "_ZTIA1424_h",
   "name" : "unsigned char [1424]",
   "referenced_type" : "_ZTIh",
   "self_type" : "_ZTIA1424_h",
   "size" : 1424,
   "source_file" : "/external/boringssl/src/include/openssl/hrss.h"
  },
  {
   "alignment" : 1,
   "linker_set_key" : "_ZTIA16_h",
   "name" : "unsigned char [16]",
   "referenced_type" : "_ZTIh",
   "self_type" : "_ZTIA16_h",
   "size" : 16,
   "source_file" : "/external/boringssl/src/include/openssl/cipher.h"
  },
  {
   "alignment" : 1,
   "linker_set_key" : "_ZTIA1808_h",
   "name" : "unsigned char [1808]",
   "referenced_type" : "_ZTIh",
   "self_type" : "_ZTIA1808_h",
   "size" : 1808,
   "source_file" : "/external/boringssl/src/include/openssl/hrss.h"
  },
  {
   "alignment" : 1,
   "linker_set_key" : "_ZTIA1_h",
   "name" : "unsigned char [1]",
   "referenced_type" : "_ZTIh",
   "self_type" : "_ZTIA1_h",
   "size" : 1,
   "source_file" : "/external/boringssl/src/include/openssl/span.h"
  },
  {
   "alignment" : 1,
   "linker_set_key" : "_ZTIA20_c",
   "name" : "char [20]",
   "referenced_type" : "_ZTIc",
   "self_type" : "_ZTIA20_c",
   "size" : 20,
   "source_file" : "/external/boringssl/src/include/openssl/span.h"
  },
  {
   "alignment" : 1,
   "linker_set_key" : "_ZTIA20_h",
   "name" : "unsigned char [20]",
   "referenced_type" : "_ZTIh",
   "self_type" : "_ZTIA20_h",
   "size" : 20,
   "source_file" : "/external/boringssl/src/include/openssl/x509.h"
  },
  {
   "alignment" : 1,
   "linker_set_key" : "_ZTIA2_h",
   "name" : "unsigned char [2]",
   "referenced_type" : "_ZTIh",
   "self_type" : "_ZTIA2_h",
   "size" : 2,
   "source_file" : "/external/boringssl/src/include/openssl/span.h"
  },
  {
   "alignment" : 8,
   "linker_set_key" : "_ZTIA2_m",
   "name" : "unsigned long [2]",
   "referenced_type" : "_ZTIm",
   "self_type" : "_ZTIA2_m",
   "size" : 16,
   "source_file" : "/external/boringssl/src/include/openssl/bn.h"
  },
  {
   "alignment" : 2,
   "linker_set_key" : "_ZTIA2_t",
   "name" : "unsigned short [2]",
   "referenced_type" : "_ZTIt",
   "self_type" : "_ZTIA2_t",
   "size" : 4,
   "source_file" : "/external/boringssl/src/include/openssl/span.h"
  },
  {
   "alignment" : 1,
   "linker_set_key" : "_ZTIA32_h",
   "name" : "unsigned char [32]",
   "referenced_type" : "_ZTIh",
   "self_type" : "_ZTIA32_h",
   "size" : 32,
   "source_file" : "/external/boringssl/src/include/openssl/cipher.h"
  },
  {
   "alignment" : 1,
   "linker_set_key" : "_ZTIA34_c",
   "name" : "char [34]",
   "referenced_type" : "_ZTIc",
   "self_type" : "_ZTIA34_c",
   "size" : 34,
   "source_file" : "/external/boringssl/src/include/openssl/span.h"
  },
  {
   "alignment" : 2,
   "linker_set_key" : "_ZTIA3_t",
   "name" : "unsigned short [3]",
   "referenced_type" : "_ZTIt",
   "self_type" : "_ZTIA3_t",
   "size" : 6,
   "source_file" : "/external/boringssl/src/include/openssl/span.h"
  },
  {
   "alignment" : 1,
   "linker_set_key" : "_ZTIA48_h",
   "name" : "unsigned char [48]",
   "referenced_type" : "_ZTIh",
   "self_type" : "_ZTIA48_h",
   "size" : 48,
   "source_file" : "/external/boringssl/src/include/openssl/base64.h"
  },
  {
   "alignment" : 1,
   "linker_set_key" : "_ZTIA4_h",
   "name" : "unsigned char [4]",
   "referenced_type" : "_ZTIh",
   "self_type" : "_ZTIA4_h",
   "size" : 4,
   "source_file" : "/external/boringssl/src/include/openssl/span.h"
  },
  {
   "alignment" : 4,
   "linker_set_key" : "_ZTIA4_j",
   "name" : "unsigned int [4]",
   "referenced_type" : "_ZTIj",
   "self_type" : "_ZTIA4_j",
   "size" : 16,
   "source_file" : "/external/boringssl/src/include/openssl/md5.h"
  },
  {
   "alignment" : 2,
   "linker_set_key" : "_ZTIA4_t",
   "name" : "unsigned short [4]",
   "referenced_type" : "_ZTIt",
   "self_type" : "_ZTIA4_t",
   "size" : 8,
   "source_file" : "/external/boringssl/src/include/openssl/span.h"
  },
  {
   "alignment" : 1,
   "linker_set_key" : "_ZTIA56_h",
   "name" : "unsigned char [56]",
   "referenced_type" : "_ZTIh",
   "self_type" : "_ZTIA56_h",
   "size" : 56,
   "source_file" : "/external/boringssl/src/include/openssl/thread.h"
  },
  {
   "alignment" : 1,
   "linker_set_key" : "_ZTIA580_h",
   "name" : "unsigned char [580]",
   "referenced_type" : "_ZTIh",
   "self_type" : "_ZTIA580_h",
   "size" : 580,
   "source_file" : "/external/boringssl/src/include/openssl/aead.h"
  },
  {
   "alignment" : 4,
   "linker_set_key" : "_ZTIA5_j",
   "name" : "unsigned int [5]",
   "referenced_type" : "_ZTIj",
   "self_type" : "_ZTIA5_j",
   "size" : 20,
   "source_file" : "/external/boringssl/src/include/openssl/sha.h"
  },
  {
   "alignment" : 1,
   "linker_set_key" : "_ZTIA64_h",
   "name" : "unsigned char [64]",
   "referenced_type" : "_ZTIh",
   "self_type" : "_ZTIA64_h",
   "size" : 64,
   "source_file" : "/external/boringssl/src/include/openssl/sha.h"
  },
  {
   "alignment" : 1,
   "linker_set_key" : "_ZTIA8_h",
   "name" : "unsigned char [8]",
   "referenced_type" : "_ZTIh",
   "self_type" : "_ZTIA8_h",
   "size" : 8,
   "source_file" : "/external/boringssl/src/include/openssl/span.h"
  },
  {
   "alignment" : 4,
   "linker_set_key" : "_ZTIA8_j",
   "name" : "unsigned int [8]",
   "referenced_type" : "_ZTIj",
   "self_type" : "_ZTIA8_j",
   "size" : 32,
   "source_file" : "/external/boringssl/src/include/openssl/sha.h"
  },
  {
   "alignment" : 8,
   "linker_set_key" : "_ZTIA8_m",
   "name" : "unsigned long [8]",
   "referenced_type" : "_ZTIm",
   "self_type" : "_ZTIA8_m",
   "size" : 64,
   "source_file" : "/external/boringssl/src/include/openssl/sha.h"
  }
 ],
 "builtin_types" :
 [
  {
   "alignment" : 4,
   "is_integral" : true,
   "is_unsigned" : true,
   "linker_set_key" : "_ZTIDi",
   "name" : "char32_t",
   "referenced_type" : "_ZTIDi",
   "self_type" : "_ZTIDi",
   "size" : 4
  },
  {
   "alignment" : 8,
   "linker_set_key" : "_ZTIDn",
   "name" : "nullptr_t",
   "referenced_type" : "_ZTIDn",
   "self_type" : "_ZTIDn",
   "size" : 8
  },
  {
   "alignment" : 2,
   "is_integral" : true,
   "is_unsigned" : true,
   "linker_set_key" : "_ZTIDs",
   "name" : "char16_t",
   "referenced_type" : "_ZTIDs",
   "self_type" : "_ZTIDs",
   "size" : 2
  },
  {
   "alignment" : 1,
   "is_integral" : true,
   "linker_set_key" : "_ZTIa",
   "name" : "signed char",
   "referenced_type" : "_ZTIa",
   "self_type" : "_ZTIa",
   "size" : 1
  },
  {
   "alignment" : 1,
   "is_integral" : true,
   "is_unsigned" : true,
   "linker_set_key" : "_ZTIb",
   "name" : "bool",
   "referenced_type" : "_ZTIb",
   "self_type" : "_ZTIb",
   "size" : 1
  },
  {
   "alignment" : 1,
   "is_integral" : true,
   "is_unsigned" : true,
   "linker_set_key" : "_ZTIc",
   "name" : "char",
   "referenced_type" : "_ZTIc",
   "self_type" : "_ZTIc",
   "size" : 1
  },
  {
   "alignment" : 8,
   "linker_set_key" : "_ZTId",
   "name" : "double",
   "referenced_type" : "_ZTId",
   "self_type" : "_ZTId",
   "size" : 8
  },
  {
   "alignment" : 16,
   "linker_set_key" : "_ZTIe",
   "name" : "long double",
   "referenced_type" : "_ZTIe",
   "self_type" : "_ZTIe",
   "size" : 16
  },
  {
   "alignment" : 4,
   "linker_set_key" : "_ZTIf",
   "name" : "float",
   "referenced_type" : "_ZTIf",
   "self_type" : "_ZTIf",
   "size" : 4
  },
  {
   "alignment" : 1,
   "is_integral" : true,
   "is_unsigned" : true,
   "linker_set_key" : "_ZTIh",
   "name" : "unsigned char",
   "referenced_type" : "_ZTIh",
   "self_type" : "_ZTIh",
   "size" : 1
  },
  {
   "alignment" : 4,
   "is_integral" : true,
   "linker_set_key" : "_ZTIi",
   "name" : "int",
   "referenced_type" : "_ZTIi",
   "self_type" : "_ZTIi",
   "size" : 4
  },
  {
   "alignment" : 4,
   "is_integral" : true,
   "is_unsigned" : true,
   "linker_set_key" : "_ZTIj",
   "name" : "unsigned int",
   "referenced_type" : "_ZTIj",
   "self_type" : "_ZTIj",
   "size" : 4
  },
  {
   "alignment" : 8,
   "is_integral" : true,
   "linker_set_key" : "_ZTIl",
   "name" : "long",
   "referenced_type" : "_ZTIl",
   "self_type" : "_ZTIl",
   "size" : 8
  },
  {
   "alignment" : 8,
   "is_integral" : true,
   "is_unsigned" : true,
   "linker_set_key" : "_ZTIm",
   "name" : "unsigned long",
   "referenced_type" : "_ZTIm",
   "self_type" : "_ZTIm",
   "size" : 8
  },
  {
   "alignment" : 16,
   "is_integral" : true,
   "linker_set_key" : "_ZTIn",
   "name" : "__int128",
   "referenced_type" : "_ZTIn",
   "self_type" : "_ZTIn",
   "size" : 16
  },
  {
   "alignment" : 16,
   "is_integral" : true,
   "is_unsigned" : true,
   "linker_set_key" : "_ZTIo",
   "name" : "unsigned __int128",
   "referenced_type" : "_ZTIo",
   "self_type" : "_ZTIo",
   "size" : 16
  },
  {
   "alignment" : 2,
   "is_integral" : true,
   "linker_set_key" : "_ZTIs",
   "name" : "short",
   "referenced_type" : "_ZTIs",
   "self_type" : "_ZTIs",
   "size" : 2
  },
  {
   "alignment" : 2,
   "is_integral" : true,
   "is_unsigned" : true,
   "linker_set_key" : "_ZTIt",
   "name" : "unsigned short",
   "referenced_type" : "_ZTIt",
   "self_type" : "_ZTIt",
   "size" : 2
  },
  {
   "linker_set_key" : "_ZTIv",
   "name" : "void",
   "referenced_type" : "_ZTIv",
   "self_type" : "_ZTIv"
  },
  {
   "alignment" : 4,
   "is_integral" : true,
   "is_unsigned" : true,
   "linker_set_key" : "_ZTIw",
   "name" : "wchar_t",
   "referenced_type" : "_ZTIw",
   "self_type" : "_ZTIw",
   "size" : 4
  },
  {
   "alignment" : 8,
   "is_integral" : true,
   "linker_set_key" : "_ZTIx",
   "name" : "long long",
   "referenced_type" : "_ZTIx",
   "self_type" : "_ZTIx",
   "size" : 8
  },
  {
   "alignment" : 8,
   "is_integral" : true,
   "is_unsigned" : true,
   "linker_set_key" : "_ZTIy",
   "name" : "unsigned long long",
   "referenced_type" : "_ZTIy",
   "self_type" : "_ZTIy",
   "size" : 8
  }
 ],
 "elf_functions" :
 [
  {
   "name" : "BIO_f_ssl"
  },
  {
   "name" : "BIO_set_ssl"
  },
  {
   "name" : "DTLS_client_method"
  },
  {
   "name" : "DTLS_method"
  },
  {
   "name" : "DTLS_server_method"
  },
  {
   "name" : "DTLS_with_buffers_method"
  },
  {
   "name" : "DTLSv1_2_client_method"
  },
  {
   "name" : "DTLSv1_2_method"
  },
  {
   "name" : "DTLSv1_2_server_method"
  },
  {
   "name" : "DTLSv1_client_method"
  },
  {
   "name" : "DTLSv1_get_timeout"
  },
  {
   "name" : "DTLSv1_handle_timeout"
  },
  {
   "name" : "DTLSv1_method"
  },
  {
   "name" : "DTLSv1_server_method"
  },
  {
   "name" : "DTLSv1_set_initial_timeout_duration"
  },
  {
   "name" : "ERR_load_SSL_strings"
  },
  {
   "name" : "OPENSSL_init_ssl"
  },
  {
   "name" : "PEM_read_SSL_SESSION"
  },
  {
   "name" : "PEM_read_bio_SSL_SESSION"
  },
  {
   "name" : "PEM_write_SSL_SESSION"
  },
  {
   "name" : "PEM_write_bio_SSL_SESSION"
  },
  {
   "name" : "SSL_CIPHER_description"
  },
  {
   "name" : "SSL_CIPHER_get_auth_nid"
  },
  {
   "name" : "SSL_CIPHER_get_bits"
  },
  {
   "name" : "SSL_CIPHER_get_cipher_nid"
  },
  {
   "name" : "SSL_CIPHER_get_digest_nid"
  },
  {
   "name" : "SSL_CIPHER_get_id"
  },
  {
   "name" : "SSL_CIPHER_get_kx_name"
  },
  {
   "name" : "SSL_CIPHER_get_kx_nid"
  },
  {
   "name" : "SSL_CIPHER_get_max_version"
  },
  {
   "name" : "SSL_CIPHER_get_min_version"
  },
  {
   "name" : "SSL_CIPHER_get_name"
  },
  {
   "name" : "SSL_CIPHER_get_prf_nid"
  },
  {
   "name" : "SSL_CIPHER_get_rfc_name"
  },
  {
   "name" : "SSL_CIPHER_get_value"
  },
  {
   "name" : "SSL_CIPHER_get_version"
  },
  {
   "name" : "SSL_CIPHER_is_aead"
  },
  {
   "name" : "SSL_CIPHER_is_block_cipher"
  },
  {
   "name" : "SSL_CIPHER_standard_name"
  },
  {
   "name" : "SSL_COMP_add_compression_method"
  },
  {
   "name" : "SSL_COMP_free_compression_methods"
  },
  {
   "name" : "SSL_COMP_get0_name"
  },
  {
   "name" : "SSL_COMP_get_compression_methods"
  },
  {
   "name" : "SSL_COMP_get_id"
  },
  {
   "name" : "SSL_COMP_get_name"
  },
  {
   "name" : "SSL_CTX_add0_chain_cert"
  },
  {
   "name" : "SSL_CTX_add1_chain_cert"
  },
  {
   "name" : "SSL_CTX_add_cert_compression_alg"
  },
  {
   "name" : "SSL_CTX_add_client_CA"
  },
  {
   "name" : "SSL_CTX_add_extra_chain_cert"
  },
  {
   "name" : "SSL_CTX_add_session"
  },
  {
   "name" : "SSL_CTX_check_private_key"
  },
  {
   "name" : "SSL_CTX_cipher_in_group"
  },
  {
   "name" : "SSL_CTX_clear_chain_certs"
  },
  {
   "name" : "SSL_CTX_clear_extra_chain_certs"
  },
  {
   "name" : "SSL_CTX_clear_mode"
  },
  {
   "name" : "SSL_CTX_clear_options"
  },
  {
   "name" : "SSL_CTX_enable_ocsp_stapling"
  },
  {
   "name" : "SSL_CTX_enable_pq_experiment_signal"
  },
  {
   "name" : "SSL_CTX_enable_signed_cert_timestamps"
  },
  {
   "name" : "SSL_CTX_enable_tls_channel_id"
  },
  {
   "name" : "SSL_CTX_flush_sessions"
  },
  {
   "name" : "SSL_CTX_free"
  },
  {
   "name" : "SSL_CTX_get0_certificate"
  },
  {
   "name" : "SSL_CTX_get0_chain_certs"
  },
  {
   "name" : "SSL_CTX_get0_param"
  },
  {
   "name" : "SSL_CTX_get0_privatekey"
  },
  {
   "name" : "SSL_CTX_get_cert_store"
  },
  {
   "name" : "SSL_CTX_get_channel_id_cb"
  },
  {
   "name" : "SSL_CTX_get_ciphers"
  },
  {
   "name" : "SSL_CTX_get_client_CA_list"
  },
  {
   "name" : "SSL_CTX_get_default_passwd_cb"
  },
  {
   "name" : "SSL_CTX_get_default_passwd_cb_userdata"
  },
  {
   "name" : "SSL_CTX_get_ex_data"
  },
  {
   "name" : "SSL_CTX_get_ex_new_index"
  },
  {
   "name" : "SSL_CTX_get_extra_chain_certs"
  },
  {
   "name" : "SSL_CTX_get_info_callback"
  },
  {
   "name" : "SSL_CTX_get_keylog_callback"
  },
  {
   "name" : "SSL_CTX_get_max_cert_list"
  },
  {
   "name" : "SSL_CTX_get_max_proto_version"
  },
  {
   "name" : "SSL_CTX_get_min_proto_version"
  },
  {
   "name" : "SSL_CTX_get_mode"
  },
  {
   "name" : "SSL_CTX_get_options"
  },
  {
   "name" : "SSL_CTX_get_quiet_shutdown"
  },
  {
   "name" : "SSL_CTX_get_read_ahead"
  },
  {
   "name" : "SSL_CTX_get_session_cache_mode"
  },
  {
   "name" : "SSL_CTX_get_timeout"
  },
  {
   "name" : "SSL_CTX_get_tlsext_ticket_keys"
  },
  {
   "name" : "SSL_CTX_get_verify_callback"
  },
  {
   "name" : "SSL_CTX_get_verify_depth"
  },
  {
   "name" : "SSL_CTX_get_verify_mode"
  },
  {
   "name" : "SSL_CTX_load_verify_locations"
  },
  {
   "name" : "SSL_CTX_need_tmp_RSA"
  },
  {
   "name" : "SSL_CTX_new"
  },
  {
   "name" : "SSL_CTX_remove_session"
  },
  {
   "name" : "SSL_CTX_sess_accept"
  },
  {
   "name" : "SSL_CTX_sess_accept_good"
  },
  {
   "name" : "SSL_CTX_sess_accept_renegotiate"
  },
  {
   "name" : "SSL_CTX_sess_cache_full"
  },
  {
   "name" : "SSL_CTX_sess_cb_hits"
  },
  {
   "name" : "SSL_CTX_sess_connect"
  },
  {
   "name" : "SSL_CTX_sess_connect_good"
  },
  {
   "name" : "SSL_CTX_sess_connect_renegotiate"
  },
  {
   "name" : "SSL_CTX_sess_get_cache_size"
  },
  {
   "name" : "SSL_CTX_sess_get_get_cb"
  },
  {
   "name" : "SSL_CTX_sess_get_new_cb"
  },
  {
   "name" : "SSL_CTX_sess_get_remove_cb"
  },
  {
   "name" : "SSL_CTX_sess_hits"
  },
  {
   "name" : "SSL_CTX_sess_misses"
  },
  {
   "name" : "SSL_CTX_sess_number"
  },
  {
   "name" : "SSL_CTX_sess_set_cache_size"
  },
  {
   "name" : "SSL_CTX_sess_set_get_cb"
  },
  {
   "name" : "SSL_CTX_sess_set_new_cb"
  },
  {
   "name" : "SSL_CTX_sess_set_remove_cb"
  },
  {
   "name" : "SSL_CTX_sess_timeouts"
  },
  {
   "name" : "SSL_CTX_set0_buffer_pool"
  },
  {
   "name" : "SSL_CTX_set0_chain"
  },
  {
   "name" : "SSL_CTX_set0_client_CAs"
  },
  {
   "name" : "SSL_CTX_set0_verify_cert_store"
  },
  {
   "name" : "SSL_CTX_set1_chain"
  },
  {
   "name" : "SSL_CTX_set1_curves"
  },
  {
   "name" : "SSL_CTX_set1_curves_list"
  },
  {
   "name" : "SSL_CTX_set1_param"
  },
  {
   "name" : "SSL_CTX_set1_sigalgs"
  },
  {
   "name" : "SSL_CTX_set1_sigalgs_list"
  },
  {
   "name" : "SSL_CTX_set1_tls_channel_id"
  },
  {
   "name" : "SSL_CTX_set1_verify_cert_store"
  },
  {
   "name" : "SSL_CTX_set_allow_unknown_alpn_protos"
  },
  {
   "name" : "SSL_CTX_set_alpn_protos"
  },
  {
   "name" : "SSL_CTX_set_alpn_select_cb"
  },
  {
   "name" : "SSL_CTX_set_cert_cb"
  },
  {
   "name" : "SSL_CTX_set_cert_store"
  },
  {
   "name" : "SSL_CTX_set_cert_verify_callback"
  },
  {
   "name" : "SSL_CTX_set_chain_and_key"
  },
  {
   "name" : "SSL_CTX_set_channel_id_cb"
  },
  {
   "name" : "SSL_CTX_set_cipher_list"
  },
  {
   "name" : "SSL_CTX_set_client_CA_list"
  },
  {
   "name" : "SSL_CTX_set_client_cert_cb"
  },
  {
   "name" : "SSL_CTX_set_current_time_cb"
  },
  {
   "name" : "SSL_CTX_set_custom_verify"
  },
  {
   "name" : "SSL_CTX_set_default_passwd_cb"
  },
  {
   "name" : "SSL_CTX_set_default_passwd_cb_userdata"
  },
  {
   "name" : "SSL_CTX_set_default_verify_paths"
  },
  {
   "name" : "SSL_CTX_set_dos_protection_cb"
  },
  {
   "name" : "SSL_CTX_set_early_data_enabled"
  },
  {
   "name" : "SSL_CTX_set_ed25519_enabled"
  },
  {
   "name" : "SSL_CTX_set_ex_data"
  },
  {
   "name" : "SSL_CTX_set_false_start_allowed_without_alpn"
  },
  {
   "name" : "SSL_CTX_set_grease_enabled"
  },
  {
   "name" : "SSL_CTX_set_ignore_tls13_downgrade"
  },
  {
   "name" : "SSL_CTX_set_info_callback"
  },
  {
   "name" : "SSL_CTX_set_keylog_callback"
  },
  {
   "name" : "SSL_CTX_set_max_cert_list"
  },
  {
   "name" : "SSL_CTX_set_max_proto_version"
  },
  {
   "name" : "SSL_CTX_set_max_send_fragment"
  },
  {
   "name" : "SSL_CTX_set_min_proto_version"
  },
  {
   "name" : "SSL_CTX_set_mode"
  },
  {
   "name" : "SSL_CTX_set_msg_callback"
  },
  {
   "name" : "SSL_CTX_set_msg_callback_arg"
  },
  {
   "name" : "SSL_CTX_set_next_proto_select_cb"
  },
  {
   "name" : "SSL_CTX_set_next_protos_advertised_cb"
  },
  {
   "name" : "SSL_CTX_set_ocsp_response"
  },
  {
   "name" : "SSL_CTX_set_options"
  },
  {
   "name" : "SSL_CTX_set_private_key_method"
  },
  {
   "name" : "SSL_CTX_set_psk_client_callback"
  },
  {
   "name" : "SSL_CTX_set_psk_server_callback"
  },
  {
   "name" : "SSL_CTX_set_purpose"
  },
  {
   "name" : "SSL_CTX_set_quic_method"
  },
  {
   "name" : "SSL_CTX_set_quiet_shutdown"
  },
  {
   "name" : "SSL_CTX_set_read_ahead"
  },
  {
   "name" : "SSL_CTX_set_retain_only_sha256_of_client_certs"
  },
  {
   "name" : "SSL_CTX_set_reverify_on_resume"
  },
  {
   "name" : "SSL_CTX_set_rsa_pss_rsae_certs_enabled"
  },
  {
   "name" : "SSL_CTX_set_select_certificate_cb"
  },
  {
   "name" : "SSL_CTX_set_session_cache_mode"
  },
  {
   "name" : "SSL_CTX_set_session_id_context"
  },
  {
   "name" : "SSL_CTX_set_session_psk_dhe_timeout"
  },
  {
   "name" : "SSL_CTX_set_signed_cert_timestamp_list"
  },
  {
   "name" : "SSL_CTX_set_signing_algorithm_prefs"
  },
  {
   "name" : "SSL_CTX_set_srtp_profiles"
  },
  {
   "name" : "SSL_CTX_set_strict_cipher_list"
  },
  {
   "name" : "SSL_CTX_set_ticket_aead_method"
  },
  {
   "name" : "SSL_CTX_set_timeout"
  },
  {
   "name" : "SSL_CTX_set_tls_channel_id_enabled"
  },
  {
   "name" : "SSL_CTX_set_tlsext_servername_arg"
  },
  {
   "name" : "SSL_CTX_set_tlsext_servername_callback"
  },
  {
   "name" : "SSL_CTX_set_tlsext_status_arg"
  },
  {
   "name" : "SSL_CTX_set_tlsext_status_cb"
  },
  {
   "name" : "SSL_CTX_set_tlsext_ticket_key_cb"
  },
  {
   "name" : "SSL_CTX_set_tlsext_ticket_keys"
  },
  {
   "name" : "SSL_CTX_set_tlsext_use_srtp"
  },
  {
   "name" : "SSL_CTX_set_tmp_dh"
  },
  {
   "name" : "SSL_CTX_set_tmp_dh_callback"
  },
  {
   "name" : "SSL_CTX_set_tmp_ecdh"
  },
  {
   "name" : "SSL_CTX_set_tmp_rsa"
  },
  {
   "name" : "SSL_CTX_set_tmp_rsa_callback"
  },
  {
   "name" : "SSL_CTX_set_trust"
  },
  {
   "name" : "SSL_CTX_set_verify"
  },
  {
   "name" : "SSL_CTX_set_verify_algorithm_prefs"
  },
  {
   "name" : "SSL_CTX_set_verify_depth"
  },
  {
   "name" : "SSL_CTX_up_ref"
  },
  {
   "name" : "SSL_CTX_use_PrivateKey"
  },
  {
   "name" : "SSL_CTX_use_PrivateKey_ASN1"
  },
  {
   "name" : "SSL_CTX_use_PrivateKey_file"
  },
  {
   "name" : "SSL_CTX_use_RSAPrivateKey"
  },
  {
   "name" : "SSL_CTX_use_RSAPrivateKey_ASN1"
  },
  {
   "name" : "SSL_CTX_use_RSAPrivateKey_file"
  },
  {
   "name" : "SSL_CTX_use_certificate"
  },
  {
   "name" : "SSL_CTX_use_certificate_ASN1"
  },
  {
   "name" : "SSL_CTX_use_certificate_chain_file"
  },
  {
   "name" : "SSL_CTX_use_certificate_file"
  },
  {
   "name" : "SSL_CTX_use_psk_identity_hint"
  },
  {
   "name" : "SSL_SESSION_early_data_capable"
  },
  {
   "name" : "SSL_SESSION_free"
  },
  {
   "name" : "SSL_SESSION_from_bytes"
  },
  {
   "name" : "SSL_SESSION_get0_cipher"
  },
  {
   "name" : "SSL_SESSION_get0_id_context"
  },
  {
   "name" : "SSL_SESSION_get0_ocsp_response"
  },
  {
   "name" : "SSL_SESSION_get0_peer"
  },
  {
   "name" : "SSL_SESSION_get0_peer_certificates"
  },
  {
   "name" : "SSL_SESSION_get0_peer_sha256"
  },
  {
   "name" : "SSL_SESSION_get0_signed_cert_timestamp_list"
  },
  {
   "name" : "SSL_SESSION_get0_ticket"
  },
  {
   "name" : "SSL_SESSION_get_ex_data"
  },
  {
   "name" : "SSL_SESSION_get_ex_new_index"
  },
  {
   "name" : "SSL_SESSION_get_id"
  },
  {
   "name" : "SSL_SESSION_get_master_key"
  },
  {
   "name" : "SSL_SESSION_get_protocol_version"
  },
  {
   "name" : "SSL_SESSION_get_ticket_lifetime_hint"
  },
  {
   "name" : "SSL_SESSION_get_time"
  },
  {
   "name" : "SSL_SESSION_get_timeout"
  },
  {
   "name" : "SSL_SESSION_get_version"
  },
  {
   "name" : "SSL_SESSION_has_peer_sha256"
  },
  {
   "name" : "SSL_SESSION_has_ticket"
  },
  {
   "name" : "SSL_SESSION_is_resumable"
  },
  {
   "name" : "SSL_SESSION_new"
  },
  {
   "name" : "SSL_SESSION_set1_id"
  },
  {
   "name" : "SSL_SESSION_set1_id_context"
  },
  {
   "name" : "SSL_SESSION_set_ex_data"
  },
  {
   "name" : "SSL_SESSION_set_protocol_version"
  },
  {
   "name" : "SSL_SESSION_set_ticket"
  },
  {
   "name" : "SSL_SESSION_set_time"
  },
  {
   "name" : "SSL_SESSION_set_timeout"
  },
  {
   "name" : "SSL_SESSION_should_be_single_use"
  },
  {
   "name" : "SSL_SESSION_to_bytes"
  },
  {
   "name" : "SSL_SESSION_to_bytes_for_ticket"
  },
  {
   "name" : "SSL_SESSION_up_ref"
  },
  {
   "name" : "SSL_accept"
  },
  {
   "name" : "SSL_add0_chain_cert"
  },
  {
   "name" : "SSL_add1_chain_cert"
  },
  {
   "name" : "SSL_add_client_CA"
  },
  {
   "name" : "SSL_add_file_cert_subjects_to_stack"
  },
  {
   "name" : "SSL_alert_desc_string"
  },
  {
   "name" : "SSL_alert_desc_string_long"
  },
  {
   "name" : "SSL_alert_from_verify_result"
  },
  {
   "name" : "SSL_alert_type_string"
  },
  {
   "name" : "SSL_alert_type_string_long"
  },
  {
   "name" : "SSL_cache_hit"
  },
  {
   "name" : "SSL_certs_clear"
  },
  {
   "name" : "SSL_check_private_key"
  },
  {
   "name" : "SSL_clear"
  },
  {
   "name" : "SSL_clear_chain_certs"
  },
  {
   "name" : "SSL_clear_mode"
  },
  {
   "name" : "SSL_clear_options"
  },
  {
   "name" : "SSL_connect"
  },
  {
   "name" : "SSL_cutthrough_complete"
  },
  {
   "name" : "SSL_delegated_credential_used"
  },
  {
   "name" : "SSL_do_handshake"
  },
  {
   "name" : "SSL_dup_CA_list"
  },
  {
   "name" : "SSL_early_callback_ctx_extension_get"
  },
  {
   "name" : "SSL_early_data_accepted"
  },
  {
   "name" : "SSL_enable_ocsp_stapling"
  },
  {
   "name" : "SSL_enable_signed_cert_timestamps"
  },
  {
   "name" : "SSL_enable_tls_channel_id"
  },
  {
   "name" : "SSL_error_description"
  },
  {
   "name" : "SSL_export_keying_material"
  },
  {
   "name" : "SSL_free"
  },
  {
   "name" : "SSL_generate_key_block"
  },
  {
   "name" : "SSL_get0_alpn_selected"
  },
  {
   "name" : "SSL_get0_certificate_types"
  },
  {
   "name" : "SSL_get0_chain_certs"
  },
  {
   "name" : "SSL_get0_next_proto_negotiated"
  },
  {
   "name" : "SSL_get0_ocsp_response"
  },
  {
   "name" : "SSL_get0_param"
  },
  {
   "name" : "SSL_get0_peer_certificates"
  },
  {
   "name" : "SSL_get0_peer_verify_algorithms"
  },
  {
   "name" : "SSL_get0_server_requested_CAs"
  },
  {
   "name" : "SSL_get0_session_id_context"
  },
  {
   "name" : "SSL_get0_signed_cert_timestamp_list"
  },
  {
   "name" : "SSL_get1_session"
  },
  {
   "name" : "SSL_get_SSL_CTX"
  },
  {
   "name" : "SSL_get_certificate"
  },
  {
   "name" : "SSL_get_cipher_by_value"
  },
  {
   "name" : "SSL_get_cipher_list"
  },
  {
   "name" : "SSL_get_ciphers"
  },
  {
   "name" : "SSL_get_client_CA_list"
  },
  {
   "name" : "SSL_get_client_random"
  },
  {
   "name" : "SSL_get_current_cipher"
  },
  {
   "name" : "SSL_get_current_compression"
  },
  {
   "name" : "SSL_get_current_expansion"
  },
  {
   "name" : "SSL_get_curve_id"
  },
  {
   "name" : "SSL_get_curve_name"
  },
  {
   "name" : "SSL_get_default_timeout"
  },
  {
   "name" : "SSL_get_early_data_reason"
  },
  {
   "name" : "SSL_get_error"
  },
  {
   "name" : "SSL_get_ex_data"
  },
  {
   "name" : "SSL_get_ex_data_X509_STORE_CTX_idx"
  },
  {
   "name" : "SSL_get_ex_new_index"
  },
  {
   "name" : "SSL_get_extms_support"
  },
  {
   "name" : "SSL_get_fd"
  },
  {
   "name" : "SSL_get_finished"
  },
  {
   "name" : "SSL_get_info_callback"
  },
  {
   "name" : "SSL_get_ivs"
  },
  {
   "name" : "SSL_get_key_block_len"
  },
  {
   "name" : "SSL_get_max_cert_list"
  },
  {
   "name" : "SSL_get_max_proto_version"
  },
  {
   "name" : "SSL_get_min_proto_version"
  },
  {
   "name" : "SSL_get_mode"
  },
  {
   "name" : "SSL_get_negotiated_token_binding_param"
  },
  {
   "name" : "SSL_get_options"
  },
  {
   "name" : "SSL_get_peer_cert_chain"
  },
  {
   "name" : "SSL_get_peer_certificate"
  },
  {
   "name" : "SSL_get_peer_finished"
  },
  {
   "name" : "SSL_get_peer_full_cert_chain"
  },
  {
   "name" : "SSL_get_peer_quic_transport_params"
  },
  {
   "name" : "SSL_get_peer_signature_algorithm"
  },
  {
   "name" : "SSL_get_pending_cipher"
  },
  {
   "name" : "SSL_get_privatekey"
  },
  {
   "name" : "SSL_get_psk_identity"
  },
  {
   "name" : "SSL_get_psk_identity_hint"
  },
  {
   "name" : "SSL_get_quiet_shutdown"
  },
  {
   "name" : "SSL_get_rbio"
  },
  {
   "name" : "SSL_get_read_ahead"
  },
  {
   "name" : "SSL_get_read_sequence"
  },
  {
   "name" : "SSL_get_rfd"
  },
  {
   "name" : "SSL_get_secure_renegotiation_support"
  },
  {
   "name" : "SSL_get_selected_srtp_profile"
  },
  {
   "name" : "SSL_get_server_random"
  },
  {
   "name" : "SSL_get_server_tmp_key"
  },
  {
   "name" : "SSL_get_servername"
  },
  {
   "name" : "SSL_get_servername_type"
  },
  {
   "name" : "SSL_get_session"
  },
  {
   "name" : "SSL_get_shared_ciphers"
  },
  {
   "name" : "SSL_get_shutdown"
  },
  {
   "name" : "SSL_get_signature_algorithm_digest"
  },
  {
   "name" : "SSL_get_signature_algorithm_key_type"
  },
  {
   "name" : "SSL_get_signature_algorithm_name"
  },
  {
   "name" : "SSL_get_srtp_profiles"
  },
  {
   "name" : "SSL_get_ticket_age_skew"
  },
  {
   "name" : "SSL_get_tls_channel_id"
  },
  {
   "name" : "SSL_get_tls_unique"
  },
  {
   "name" : "SSL_get_tlsext_status_ocsp_resp"
  },
  {
   "name" : "SSL_get_tlsext_status_type"
  },
  {
   "name" : "SSL_get_verify_callback"
  },
  {
   "name" : "SSL_get_verify_depth"
  },
  {
   "name" : "SSL_get_verify_mode"
  },
  {
   "name" : "SSL_get_verify_result"
  },
  {
   "name" : "SSL_get_version"
  },
  {
   "name" : "SSL_get_wbio"
  },
  {
   "name" : "SSL_get_wfd"
  },
  {
   "name" : "SSL_get_write_sequence"
  },
  {
   "name" : "SSL_in_early_data"
  },
  {
   "name" : "SSL_in_false_start"
  },
  {
   "name" : "SSL_in_init"
  },
  {
   "name" : "SSL_is_dtls"
  },
  {
   "name" : "SSL_is_init_finished"
  },
  {
   "name" : "SSL_is_server"
  },
  {
   "name" : "SSL_is_signature_algorithm_rsa_pss"
  },
  {
   "name" : "SSL_is_tls13_downgrade"
  },
  {
   "name" : "SSL_is_token_binding_negotiated"
  },
  {
   "name" : "SSL_key_update"
  },
  {
   "name" : "SSL_library_init"
  },
  {
   "name" : "SSL_load_client_CA_file"
  },
  {
   "name" : "SSL_load_error_strings"
  },
  {
   "name" : "SSL_magic_pending_session_ptr"
  },
  {
   "name" : "SSL_max_seal_overhead"
  },
  {
   "name" : "SSL_need_tmp_RSA"
  },
  {
   "name" : "SSL_new"
  },
  {
   "name" : "SSL_num_renegotiations"
  },
  {
   "name" : "SSL_peek"
  },
  {
   "name" : "SSL_pending"
  },
  {
   "name" : "SSL_pq_experiment_signal_seen"
  },
  {
   "name" : "SSL_process_quic_post_handshake"
  },
  {
   "name" : "SSL_provide_quic_data"
  },
  {
   "name" : "SSL_quic_max_handshake_flight_len"
  },
  {
   "name" : "SSL_quic_read_level"
  },
  {
   "name" : "SSL_quic_write_level"
  },
  {
   "name" : "SSL_read"
  },
  {
   "name" : "SSL_renegotiate"
  },
  {
   "name" : "SSL_renegotiate_pending"
  },
  {
   "name" : "SSL_reset_early_data_reject"
  },
  {
   "name" : "SSL_select_next_proto"
  },
  {
   "name" : "SSL_send_fatal_alert"
  },
  {
   "name" : "SSL_session_reused"
  },
  {
   "name" : "SSL_set0_chain"
  },
  {
   "name" : "SSL_set0_client_CAs"
  },
  {
   "name" : "SSL_set0_rbio"
  },
  {
   "name" : "SSL_set0_verify_cert_store"
  },
  {
   "name" : "SSL_set0_wbio"
  },
  {
   "name" : "SSL_set1_chain"
  },
  {
   "name" : "SSL_set1_curves"
  },
  {
   "name" : "SSL_set1_curves_list"
  },
  {
   "name" : "SSL_set1_delegated_credential"
  },
  {
   "name" : "SSL_set1_param"
  },
  {
   "name" : "SSL_set1_sigalgs"
  },
  {
   "name" : "SSL_set1_sigalgs_list"
  },
  {
   "name" : "SSL_set1_tls_channel_id"
  },
  {
   "name" : "SSL_set1_verify_cert_store"
  },
  {
   "name" : "SSL_set_SSL_CTX"
  },
  {
   "name" : "SSL_set_accept_state"
  },
  {
   "name" : "SSL_set_alpn_protos"
  },
  {
   "name" : "SSL_set_bio"
  },
  {
   "name" : "SSL_set_cert_cb"
  },
  {
   "name" : "SSL_set_chain_and_key"
  },
  {
   "name" : "SSL_set_cipher_list"
  },
  {
   "name" : "SSL_set_client_CA_list"
  },
  {
   "name" : "SSL_set_connect_state"
  },
  {
   "name" : "SSL_set_custom_verify"
  },
  {
   "name" : "SSL_set_early_data_enabled"
  },
  {
   "name" : "SSL_set_enforce_rsa_key_usage"
  },
  {
   "name" : "SSL_set_ex_data"
  },
  {
   "name" : "SSL_set_fd"
  },
  {
   "name" : "SSL_set_ignore_tls13_downgrade"
  },
  {
   "name" : "SSL_set_info_callback"
  },
  {
   "name" : "SSL_set_jdk11_workaround"
  },
  {
   "name" : "SSL_set_max_cert_list"
  },
  {
   "name" : "SSL_set_max_proto_version"
  },
  {
   "name" : "SSL_set_max_send_fragment"
  },
  {
   "name" : "SSL_set_min_proto_version"
  },
  {
   "name" : "SSL_set_mode"
  },
  {
   "name" : "SSL_set_msg_callback"
  },
  {
   "name" : "SSL_set_msg_callback_arg"
  },
  {
   "name" : "SSL_set_mtu"
  },
  {
   "name" : "SSL_set_ocsp_response"
  },
  {
   "name" : "SSL_set_options"
  },
  {
   "name" : "SSL_set_private_key_method"
  },
  {
   "name" : "SSL_set_psk_client_callback"
  },
  {
   "name" : "SSL_set_psk_server_callback"
  },
  {
   "name" : "SSL_set_purpose"
  },
  {
   "name" : "SSL_set_quic_method"
  },
  {
   "name" : "SSL_set_quic_transport_params"
  },
  {
   "name" : "SSL_set_quiet_shutdown"
  },
  {
   "name" : "SSL_set_read_ahead"
  },
  {
   "name" : "SSL_set_renegotiate_mode"
  },
  {
   "name" : "SSL_set_retain_only_sha256_of_client_certs"
  },
  {
   "name" : "SSL_set_rfd"
  },
  {
   "name" : "SSL_set_session"
  },
  {
   "name" : "SSL_set_session_id_context"
  },
  {
   "name" : "SSL_set_shed_handshake_config"
  },
  {
   "name" : "SSL_set_shutdown"
  },
  {
   "name" : "SSL_set_signed_cert_timestamp_list"
  },
  {
   "name" : "SSL_set_signing_algorithm_prefs"
  },
  {
   "name" : "SSL_set_srtp_profiles"
  },
  {
   "name" : "SSL_set_state"
  },
  {
   "name" : "SSL_set_strict_cipher_list"
  },
  {
   "name" : "SSL_set_tls_channel_id_enabled"
  },
  {
   "name" : "SSL_set_tlsext_host_name"
  },
  {
   "name" : "SSL_set_tlsext_status_ocsp_resp"
  },
  {
   "name" : "SSL_set_tlsext_status_type"
  },
  {
   "name" : "SSL_set_tlsext_use_srtp"
  },
  {
   "name" : "SSL_set_tmp_dh"
  },
  {
   "name" : "SSL_set_tmp_dh_callback"
  },
  {
   "name" : "SSL_set_tmp_ecdh"
  },
  {
   "name" : "SSL_set_tmp_rsa"
  },
  {
   "name" : "SSL_set_tmp_rsa_callback"
  },
  {
   "name" : "SSL_set_token_binding_params"
  },
  {
   "name" : "SSL_set_trust"
  },
  {
   "name" : "SSL_set_verify"
  },
  {
   "name" : "SSL_set_verify_depth"
  },
  {
   "name" : "SSL_set_verify_result"
  },
  {
   "name" : "SSL_set_wfd"
  },
  {
   "name" : "SSL_shutdown"
  },
  {
   "name" : "SSL_state"
  },
  {
   "name" : "SSL_state_string"
  },
  {
   "name" : "SSL_state_string_long"
  },
  {
   "name" : "SSL_total_renegotiations"
  },
  {
   "name" : "SSL_use_PrivateKey"
  },
  {
   "name" : "SSL_use_PrivateKey_ASN1"
  },
  {
   "name" : "SSL_use_PrivateKey_file"
  },
  {
   "name" : "SSL_use_RSAPrivateKey"
  },
  {
   "name" : "SSL_use_RSAPrivateKey_ASN1"
  },
  {
   "name" : "SSL_use_RSAPrivateKey_file"
  },
  {
   "name" : "SSL_use_certificate"
  },
  {
   "name" : "SSL_use_certificate_ASN1"
  },
  {
   "name" : "SSL_use_certificate_file"
  },
  {
   "name" : "SSL_use_psk_identity_hint"
  },
  {
   "name" : "SSL_version"
  },
  {
   "name" : "SSL_want"
  },
  {
   "name" : "SSL_write"
  },
  {
   "name" : "SSLv23_client_method"
  },
  {
   "name" : "SSLv23_method"
  },
  {
   "name" : "SSLv23_server_method"
  },
  {
   "name" : "TLS_client_method"
  },
  {
   "name" : "TLS_method"
  },
  {
   "name" : "TLS_server_method"
  },
  {
   "name" : "TLS_with_buffers_method"
  },
  {
   "name" : "TLSv1_1_client_method"
  },
  {
   "name" : "TLSv1_1_method"
  },
  {
   "name" : "TLSv1_1_server_method"
  },
  {
   "name" : "TLSv1_2_client_method"
  },
  {
   "name" : "TLSv1_2_method"
  },
  {
   "name" : "TLSv1_2_server_method"
  },
  {
   "name" : "TLSv1_client_method"
  },
  {
   "name" : "TLSv1_method"
  },
  {
   "name" : "TLSv1_server_method"
  },
  {
   "name" : "_ZN4bssl10OpenRecordEP6ssl_stPNS_4SpanIhEEPmPhS3_"
  },
  {
   "name" : "_ZN4bssl10SealRecordEP6ssl_stNS_4SpanIhEES3_S3_NS2_IKhEE"
  },
  {
   "name" : "_ZN4bssl14CBBFinishArrayEP6cbb_stPNS_5ArrayIhEE"
  },
  {
   "name" : "_ZN4bssl15SSL_SESSION_dupEP14ssl_session_sti"
  },
  {
   "name" : "_ZN4bssl17SSL_SESSION_parseEP6cbs_stPKNS_15SSL_X509_METHODEP21crypto_buffer_pool_st"
  },
  {
   "name" : "_ZN4bssl17SSL_apply_handoffEP6ssl_stNS_4SpanIKhEE"
  },
  {
   "name" : "_ZN4bssl18SSL_apply_handbackEP6ssl_stNS_4SpanIKhEE"
  },
  {
   "name" : "_ZN4bssl19SSL_decline_handoffEP6ssl_st"
  },
  {
   "name" : "_ZN4bssl19SealRecordPrefixLenEPK6ssl_stm"
  },
  {
   "name" : "_ZN4bssl19SealRecordSuffixLenEPK6ssl_stm"
  },
  {
   "name" : "_ZN4bssl20SSL_set_handoff_modeEP6ssl_stb"
  },
  {
   "name" : "_ZN4bssl21SSL_serialize_handoffEPK6ssl_stP6cbb_stP22ssl_early_callback_ctx"
  },
  {
   "name" : "_ZN4bssl21ssl_session_serializeEPK14ssl_session_stP6cbb_st"
  },
  {
   "name" : "_ZN4bssl22SSL_serialize_handbackEPK6ssl_stP6cbb_st"
  },
  {
   "name" : "_ZN4bssl23SSL_get_traffic_secretsEPK6ssl_stPNS_4SpanIKhEES6_"
  },
  {
   "name" : "_ZN4bssl24SSL_CTX_set_handoff_modeEP10ssl_ctx_stb"
  },
  {
   "name" : "d2i_SSL_SESSION"
  },
  {
   "name" : "d2i_SSL_SESSION_bio"
  },
  {
   "name" : "i2d_SSL_SESSION"
  },
  {
   "name" : "i2d_SSL_SESSION_bio"
  }
 ],
 "elf_objects" : [],
 "enum_types" :
 [
  {
   "alignment" : 4,
   "enum_fields" :
   [
    {
     "enum_field_value" : 1,
     "name" : "ERR_LIB_NONE"
    },
    {
     "enum_field_value" : 2,
     "name" : "ERR_LIB_SYS"
    },
    {
     "enum_field_value" : 3,
     "name" : "ERR_LIB_BN"
    },
    {
     "enum_field_value" : 4,
     "name" : "ERR_LIB_RSA"
    },
    {
     "enum_field_value" : 5,
     "name" : "ERR_LIB_DH"
    },
    {
     "enum_field_value" : 6,
     "name" : "ERR_LIB_EVP"
    },
    {
     "enum_field_value" : 7,
     "name" : "ERR_LIB_BUF"
    },
    {
     "enum_field_value" : 8,
     "name" : "ERR_LIB_OBJ"
    },
    {
     "enum_field_value" : 9,
     "name" : "ERR_LIB_PEM"
    },
    {
     "enum_field_value" : 10,
     "name" : "ERR_LIB_DSA"
    },
    {
     "enum_field_value" : 11,
     "name" : "ERR_LIB_X509"
    },
    {
     "enum_field_value" : 12,
     "name" : "ERR_LIB_ASN1"
    },
    {
     "enum_field_value" : 13,
     "name" : "ERR_LIB_CONF"
    },
    {
     "enum_field_value" : 14,
     "name" : "ERR_LIB_CRYPTO"
    },
    {
     "enum_field_value" : 15,
     "name" : "ERR_LIB_EC"
    },
    {
     "enum_field_value" : 16,
     "name" : "ERR_LIB_SSL"
    },
    {
     "enum_field_value" : 17,
     "name" : "ERR_LIB_BIO"
    },
    {
     "enum_field_value" : 18,
     "name" : "ERR_LIB_PKCS7"
    },
    {
     "enum_field_value" : 19,
     "name" : "ERR_LIB_PKCS8"
    },
    {
     "enum_field_value" : 20,
     "name" : "ERR_LIB_X509V3"
    },
    {
     "enum_field_value" : 21,
     "name" : "ERR_LIB_RAND"
    },
    {
     "enum_field_value" : 22,
     "name" : "ERR_LIB_ENGINE"
    },
    {
     "enum_field_value" : 23,
     "name" : "ERR_LIB_OCSP"
    },
    {
     "enum_field_value" : 24,
     "name" : "ERR_LIB_UI"
    },
    {
     "enum_field_value" : 25,
     "name" : "ERR_LIB_COMP"
    },
    {
     "enum_field_value" : 26,
     "name" : "ERR_LIB_ECDSA"
    },
    {
     "enum_field_value" : 27,
     "name" : "ERR_LIB_ECDH"
    },
    {
     "enum_field_value" : 28,
     "name" : "ERR_LIB_HMAC"
    },
    {
     "enum_field_value" : 29,
     "name" : "ERR_LIB_DIGEST"
    },
    {
     "enum_field_value" : 30,
     "name" : "ERR_LIB_CIPHER"
    },
    {
     "enum_field_value" : 31,
     "name" : "ERR_LIB_HKDF"
    },
    {
     "enum_field_value" : 32,
     "name" : "ERR_LIB_USER"
    },
    {
     "enum_field_value" : 33,
     "name" : "ERR_NUM_LIBS"
    }
   ],
   "linker_set_key" : "_ZTI13$ERR_LIB_ASN1",
   "name" : "(anonymous enum at external/boringssl/src/include/openssl/err.h:290:1)",
   "referenced_type" : "_ZTI13$ERR_LIB_ASN1",
   "self_type" : "_ZTI13$ERR_LIB_ASN1",
   "size" : 4,
   "source_file" : "/external/boringssl/src/include/openssl/err.h",
   "underlying_type" : "_ZTIj"
  },
  {
   "alignment" : 4,
   "enum_fields" :
   [
    {
     "enum_field_value" : 0,
     "name" : "spake2_role_alice"
    },
    {
     "enum_field_value" : 1,
     "name" : "spake2_role_bob"
    }
   ],
   "linker_set_key" : "_ZTI13spake2_role_t",
   "name" : "spake2_role_t",
   "referenced_type" : "_ZTI13spake2_role_t",
   "self_type" : "_ZTI13spake2_role_t",
   "size" : 4,
   "source_file" : "/external/boringssl/src/include/openssl/curve25519.h",
   "underlying_type" : "_ZTIj"
  },
  {
   "alignment" : 4,
   "enum_fields" :
   [
    {
     "enum_field_value" : 0,
     "name" : "ssl_verify_ok"
    },
    {
     "enum_field_value" : 1,
     "name" : "ssl_verify_invalid"
    },
    {
     "enum_field_value" : 2,
     "name" : "ssl_verify_retry"
    }
   ],
   "linker_set_key" : "_ZTI19ssl_verify_result_t",
   "name" : "ssl_verify_result_t",
   "referenced_type" : "_ZTI19ssl_verify_result_t",
   "self_type" : "_ZTI19ssl_verify_result_t",
   "size" : 4,
   "source_file" : "/external/boringssl/src/include/openssl/ssl.h",
   "underlying_type" : "_ZTIi"
  },
  {
   "alignment" : 4,
   "enum_fields" :
   [
    {
     "enum_field_value" : 0,
     "name" : "evp_aead_open"
    },
    {
     "enum_field_value" : 1,
     "name" : "evp_aead_seal"
    }
   ],
   "linker_set_key" : "_ZTI20evp_aead_direction_t",
   "name" : "evp_aead_direction_t",
   "referenced_type" : "_ZTI20evp_aead_direction_t",
   "self_type" : "_ZTI20evp_aead_direction_t",
   "size" : 4,
   "source_file" : "/external/boringssl/src/include/openssl/aead.h",
   "underlying_type" : "_ZTIj"
  },
  {
   "alignment" : 4,
   "enum_fields" :
   [
    {
     "enum_field_value" : 0,
     "name" : "bn_probably_prime"
    },
    {
     "enum_field_value" : 1,
     "name" : "bn_composite"
    },
    {
     "enum_field_value" : 2,
     "name" : "bn_non_prime_power_composite"
    }
   ],
   "linker_set_key" : "_ZTI21bn_primality_result_t",
   "name" : "bn_primality_result_t",
   "referenced_type" : "_ZTI21bn_primality_result_t",
   "self_type" : "_ZTI21bn_primality_result_t",
   "size" : 4,
   "source_file" : "/external/boringssl/src/include/openssl/bn.h",
   "underlying_type" : "_ZTIj"
  },
  {
   "alignment" : 4,
   "enum_fields" :
   [
    {
     "enum_field_value" : 0,
     "name" : "ssl_encryption_initial"
    },
    {
     "enum_field_value" : 1,
     "name" : "ssl_encryption_early_data"
    },
    {
     "enum_field_value" : 2,
     "name" : "ssl_encryption_handshake"
    },
    {
     "enum_field_value" : 3,
     "name" : "ssl_encryption_application"
    }
   ],
   "linker_set_key" : "_ZTI22ssl_encryption_level_t",
   "name" : "ssl_encryption_level_t",
   "referenced_type" : "_ZTI22ssl_encryption_level_t",
   "self_type" : "_ZTI22ssl_encryption_level_t",
   "size" : 4,
   "source_file" : "/external/boringssl/src/include/openssl/ssl.h",
   "underlying_type" : "_ZTIi"
  },
  {
   "alignment" : 4,
   "enum_fields" :
   [
    {
     "enum_field_value" : 0,
     "name" : "ssl_renegotiate_never"
    },
    {
     "enum_field_value" : 1,
     "name" : "ssl_renegotiate_once"
    },
    {
     "enum_field_value" : 2,
     "name" : "ssl_renegotiate_freely"
    },
    {
     "enum_field_value" : 3,
     "name" : "ssl_renegotiate_ignore"
    },
    {
     "enum_field_value" : 4,
     "name" : "ssl_renegotiate_explicit"
    }
   ],
   "linker_set_key" : "_ZTI22ssl_renegotiate_mode_t",
   "name" : "ssl_renegotiate_mode_t",
   "referenced_type" : "_ZTI22ssl_renegotiate_mode_t",
   "self_type" : "_ZTI22ssl_renegotiate_mode_t",
   "size" : 4,
   "source_file" : "/external/boringssl/src/include/openssl/ssl.h",
   "underlying_type" : "_ZTIi"
  },
  {
   "alignment" : 4,
   "enum_fields" :
   [
    {
     "enum_field_value" : 2,
     "name" : "POINT_CONVERSION_COMPRESSED"
    },
    {
     "enum_field_value" : 4,
     "name" : "POINT_CONVERSION_UNCOMPRESSED"
    },
    {
     "enum_field_value" : 6,
     "name" : "POINT_CONVERSION_HYBRID"
    }
   ],
   "linker_set_key" : "_ZTI23point_conversion_form_t",
   "name" : "point_conversion_form_t",
   "referenced_type" : "_ZTI23point_conversion_form_t",
   "self_type" : "_ZTI23point_conversion_form_t",
   "size" : 4,
   "source_file" : "/external/boringssl/src/include/openssl/ec.h",
   "underlying_type" : "_ZTIj"
  },
  {
   "alignment" : 4,
   "enum_fields" :
   [
    {
     "enum_field_value" : 0,
     "name" : "ssl_early_data_unknown"
    },
    {
     "enum_field_value" : 1,
     "name" : "ssl_early_data_disabled"
    },
    {
     "enum_field_value" : 2,
     "name" : "ssl_early_data_accepted"
    },
    {
     "enum_field_value" : 3,
     "name" : "ssl_early_data_protocol_version"
    },
    {
     "enum_field_value" : 4,
     "name" : "ssl_early_data_peer_declined"
    },
    {
     "enum_field_value" : 5,
     "name" : "ssl_early_data_no_session_offered"
    },
    {
     "enum_field_value" : 6,
     "name" : "ssl_early_data_session_not_resumed"
    },
    {
     "enum_field_value" : 7,
     "name" : "ssl_early_data_unsupported_for_session"
    },
    {
     "enum_field_value" : 8,
     "name" : "ssl_early_data_hello_retry_request"
    },
    {
     "enum_field_value" : 9,
     "name" : "ssl_early_data_alpn_mismatch"
    },
    {
     "enum_field_value" : 10,
     "name" : "ssl_early_data_channel_id"
    },
    {
     "enum_field_value" : 11,
     "name" : "ssl_early_data_token_binding"
    },
    {
     "enum_field_value" : 12,
     "name" : "ssl_early_data_ticket_age_skew"
    },
    {
     "enum_field_value" : 12,
     "name" : "ssl_early_data_reason_max_value"
    }
   ],
   "linker_set_key" : "_ZTI23ssl_early_data_reason_t",
   "name" : "ssl_early_data_reason_t",
   "referenced_type" : "_ZTI23ssl_early_data_reason_t",
   "self_type" : "_ZTI23ssl_early_data_reason_t",
   "size" : 4,
   "source_file" : "/external/boringssl/src/include/openssl/ssl.h",
   "underlying_type" : "_ZTIi"
  },
  {
   "alignment" : 4,
   "enum_fields" :
   [
    {
     "enum_field_value" : 0,
     "name" : "ssl_private_key_success"
    },
    {
     "enum_field_value" : 1,
     "name" : "ssl_private_key_retry"
    },
    {
     "enum_field_value" : 2,
     "name" : "ssl_private_key_failure"
    }
   ],
   "linker_set_key" : "_ZTI24ssl_private_key_result_t",
   "name" : "ssl_private_key_result_t",
   "referenced_type" : "_ZTI24ssl_private_key_result_t",
   "self_type" : "_ZTI24ssl_private_key_result_t",
   "size" : 4,
   "source_file" : "/external/boringssl/src/include/openssl/ssl.h",
   "underlying_type" : "_ZTIi"
  },
  {
   "alignment" : 4,
   "enum_fields" :
   [
    {
     "enum_field_value" : 1,
     "name" : "ssl_select_cert_success"
    },
    {
     "enum_field_value" : 0,
     "name" : "ssl_select_cert_retry"
    },
    {
     "enum_field_value" : -1,
     "name" : "ssl_select_cert_error"
    }
   ],
   "linker_set_key" : "_ZTI24ssl_select_cert_result_t",
   "name" : "ssl_select_cert_result_t",
   "referenced_type" : "_ZTI24ssl_select_cert_result_t",
   "self_type" : "_ZTI24ssl_select_cert_result_t",
   "size" : 4,
   "source_file" : "/external/boringssl/src/include/openssl/ssl.h",
   "underlying_type" : "_ZTIi"
  },
  {
   "alignment" : 4,
   "enum_fields" :
   [
    {
     "enum_field_value" : 0,
     "name" : "ssl_ticket_aead_success"
    },
    {
     "enum_field_value" : 1,
     "name" : "ssl_ticket_aead_retry"
    },
    {
     "enum_field_value" : 2,
     "name" : "ssl_ticket_aead_ignore_ticket"
    },
    {
     "enum_field_value" : 3,
     "name" : "ssl_ticket_aead_error"
    }
   ],
   "linker_set_key" : "_ZTI24ssl_ticket_aead_result_t",
   "name" : "ssl_ticket_aead_result_t",
   "referenced_type" : "_ZTI24ssl_ticket_aead_result_t",
   "self_type" : "_ZTI24ssl_ticket_aead_result_t",
   "size" : 4,
   "source_file" : "/external/boringssl/src/include/openssl/ssl.h",
   "underlying_type" : "_ZTIi"
  },
  {
   "alignment" : 4,
   "enum_fields" :
   [
    {
     "enum_field_value" : 0,
     "name" : "bssl::OpenRecordResult::kOK"
    },
    {
     "enum_field_value" : 1,
     "name" : "bssl::OpenRecordResult::kDiscard"
    },
    {
     "enum_field_value" : 2,
     "name" : "bssl::OpenRecordResult::kIncompleteRecord"
    },
    {
     "enum_field_value" : 3,
     "name" : "bssl::OpenRecordResult::kAlertCloseNotify"
    },
    {
     "enum_field_value" : 4,
     "name" : "bssl::OpenRecordResult::kError"
    }
   ],
   "linker_set_key" : "_ZTIN4bssl16OpenRecordResultE",
   "name" : "bssl::OpenRecordResult",
   "referenced_type" : "_ZTIN4bssl16OpenRecordResultE",
   "self_type" : "_ZTIN4bssl16OpenRecordResultE",
   "size" : 4,
   "source_file" : "/external/boringssl/src/include/openssl/ssl.h",
   "underlying_type" : "_ZTIi"
  }
 ],
 "function_types" :
 [
  {
   "alignment" : 4,
   "linker_set_key" : "_ZTIF19ssl_verify_result_tP6ssl_stPhE",
   "name" : "ssl_verify_result_t (ssl_st *, unsigned char *)",
   "parameters" :
   [
    {
     "referenced_type" : "_ZTIP6ssl_st"
    },
    {
     "referenced_type" : "_ZTIPh"
    }
   ],
   "referenced_type" : "_ZTIF19ssl_verify_result_tP6ssl_stPhE",
   "return_type" : "_ZTI19ssl_verify_result_t",
   "self_type" : "_ZTIF19ssl_verify_result_tP6ssl_stPhE",
   "source_file" : "/external/boringssl/src/include/openssl/ssl.h"
  },
  {
   "alignment" : 4,
   "linker_set_key" : "_ZTIF24ssl_private_key_result_tP6ssl_stPhPmmE",
   "name" : "ssl_private_key_result_t (ssl_st *, unsigned char *, unsigned long *, unsigned long)",
   "parameters" :
   [
    {
     "referenced_type" : "_ZTIP6ssl_st"
    },
    {
     "referenced_type" : "_ZTIPh"
    },
    {
     "referenced_type" : "_ZTIPm"
    },
    {
     "referenced_type" : "_ZTIm"
    }
   ],
   "referenced_type" : "_ZTIF24ssl_private_key_result_tP6ssl_stPhPmmE",
   "return_type" : "_ZTI24ssl_private_key_result_t",
   "self_type" : "_ZTIF24ssl_private_key_result_tP6ssl_stPhPmmE",
   "source_file" : "/external/boringssl/src/include/openssl/ssl.h"
  },
  {
   "alignment" : 4,
   "linker_set_key" : "_ZTIF24ssl_private_key_result_tP6ssl_stPhPmmPKhmE",
   "name" : "ssl_private_key_result_t (ssl_st *, unsigned char *, unsigned long *, unsigned long, const unsigned char *, unsigned long)",
   "parameters" :
   [
    {
     "referenced_type" : "_ZTIP6ssl_st"
    },
    {
     "referenced_type" : "_ZTIPh"
    },
    {
     "referenced_type" : "_ZTIPm"
    },
    {
     "referenced_type" : "_ZTIm"
    },
    {
     "referenced_type" : "_ZTIPKh"
    },
    {
     "referenced_type" : "_ZTIm"
    }
   ],
   "referenced_type" : "_ZTIF24ssl_private_key_result_tP6ssl_stPhPmmPKhmE",
   "return_type" : "_ZTI24ssl_private_key_result_t",
   "self_type" : "_ZTIF24ssl_private_key_result_tP6ssl_stPhPmmPKhmE",
   "source_file" : "/external/boringssl/src/include/openssl/ssl.h"
  },
  {
   "alignment" : 4,
   "linker_set_key" : "_ZTIF24ssl_private_key_result_tP6ssl_stPhPmmtPKhmE",
   "name" : "ssl_private_key_result_t (ssl_st *, unsigned char *, unsigned long *, unsigned long, unsigned short, const unsigned char *, unsigned long)",
   "parameters" :
   [
    {
     "referenced_type" : "_ZTIP6ssl_st"
    },
    {
     "referenced_type" : "_ZTIPh"
    },
    {
     "referenced_type" : "_ZTIPm"
    },
    {
     "referenced_type" : "_ZTIm"
    },
    {
     "referenced_type" : "_ZTIt"
    },
    {
     "referenced_type" : "_ZTIPKh"
    },
    {
     "referenced_type" : "_ZTIm"
    }
   ],
   "referenced_type" : "_ZTIF24ssl_private_key_result_tP6ssl_stPhPmmtPKhmE",
   "return_type" : "_ZTI24ssl_private_key_result_t",
   "self_type" : "_ZTIF24ssl_private_key_result_tP6ssl_stPhPmmtPKhmE",
   "source_file" : "/external/boringssl/src/include/openssl/ssl.h"
  },
  {
   "alignment" : 4,
   "linker_set_key" : "_ZTIF24ssl_select_cert_result_tPK22ssl_early_callback_ctxE",
   "name" : "ssl_select_cert_result_t (const ssl_early_callback_ctx *)",
   "parameters" :
   [
    {
     "referenced_type" : "_ZTIPK22ssl_early_callback_ctx"
    }
   ],
   "referenced_type" : "_ZTIF24ssl_select_cert_result_tPK22ssl_early_callback_ctxE",
   "return_type" : "_ZTI24ssl_select_cert_result_t",
   "self_type" : "_ZTIF24ssl_select_cert_result_tPK22ssl_early_callback_ctxE",
   "source_file" : "/external/boringssl/src/include/openssl/ssl.h"
  },
  {
   "alignment" : 4,
   "linker_set_key" : "_ZTIF24ssl_ticket_aead_result_tP6ssl_stPhPmmPKhmE",
   "name" : "ssl_ticket_aead_result_t (ssl_st *, unsigned char *, unsigned long *, unsigned long, const unsigned char *, unsigned long)",
   "parameters" :
   [
    {
     "referenced_type" : "_ZTIP6ssl_st"
    },
    {
     "referenced_type" : "_ZTIPh"
    },
    {
     "referenced_type" : "_ZTIPm"
    },
    {
     "referenced_type" : "_ZTIm"
    },
    {
     "referenced_type" : "_ZTIPKh"
    },
    {
     "referenced_type" : "_ZTIm"
    }
   ],
   "referenced_type" : "_ZTIF24ssl_ticket_aead_result_tP6ssl_stPhPmmPKhmE",
   "return_type" : "_ZTI24ssl_ticket_aead_result_t",
   "self_type" : "_ZTIF24ssl_ticket_aead_result_tP6ssl_stPhPmmPKhmE",
   "source_file" : "/external/boringssl/src/include/openssl/ssl.h"
  },
  {
   "alignment" : 4,
   "linker_set_key" : "_ZTIFP11SXNET_ID_stS0_E",
   "name" : "SXNET_ID_st *(SXNET_ID_st *)",
   "parameters" :
   [
    {
     "referenced_type" : "_ZTIP11SXNET_ID_st"
    }
   ],
   "referenced_type" : "_ZTIFP11SXNET_ID_stS0_E",
   "return_type" : "_ZTIP11SXNET_ID_st",
   "self_type" : "_ZTIFP11SXNET_ID_stS0_E",
   "source_file" : "/external/boringssl/src/include/openssl/x509v3.h"
  },
  {
   "alignment" : 4,
   "linker_set_key" : "_ZTIFP11X509_crl_stS0_E",
   "name" : "X509_crl_st *(X509_crl_st *)",
   "parameters" :
   [
    {
     "referenced_type" : "_ZTIP11X509_crl_st"
    }
   ],
   "referenced_type" : "_ZTIFP11X509_crl_stS0_E",
   "return_type" : "_ZTIP11X509_crl_st",
   "self_type" : "_ZTIFP11X509_crl_stS0_E",
   "source_file" : "/external/boringssl/src/include/openssl/x509.h"
  },
  {
   "alignment" : 4,
   "linker_set_key" : "_ZTIFP11ssl_comp_stS0_E",
   "name" : "ssl_comp_st *(ssl_comp_st *)",
   "parameters" :
   [
    {
     "referenced_type" : "_ZTIP11ssl_comp_st"
    }
   ],
   "referenced_type" : "_ZTIFP11ssl_comp_stS0_E",
   "return_type" : "_ZTIP11ssl_comp_st",
   "self_type" : "_ZTIFP11ssl_comp_stS0_E",
   "source_file" : "/external/boringssl/src/include/openssl/ssl.h"
  },
  {
   "alignment" : 4,
   "linker_set_key" : "_ZTIFP12X509_info_stS0_E",
   "name" : "X509_info_st *(X509_info_st *)",
   "parameters" :
   [
    {
     "referenced_type" : "_ZTIP12X509_info_st"
    }
   ],
   "referenced_type" : "_ZTIFP12X509_info_stS0_E",
   "return_type" : "_ZTIP12X509_info_st",
   "self_type" : "_ZTIFP12X509_info_stS0_E",
   "source_file" : "/external/boringssl/src/include/openssl/x509.h"
  },
  {
   "alignment" : 4,
   "linker_set_key" : "_ZTIFP12X509_name_stS0_E",
   "name" : "X509_name_st *(X509_name_st *)",
   "parameters" :
   [
    {
     "referenced_type" : "_ZTIP12X509_name_st"
    }
   ],
   "referenced_type" : "_ZTIFP12X509_name_stS0_E",
   "return_type" : "_ZTIP12X509_name_st",
   "self_type" : "_ZTIFP12X509_name_stS0_E",
   "source_file" : "/external/boringssl/src/include/openssl/x509.h"
  },
  {
   "alignment" : 4,
   "linker_set_key" : "_ZTIFP12asn1_type_stS0_E",
   "name" : "asn1_type_st *(asn1_type_st *)",
   "parameters" :
   [
    {
     "referenced_type" : "_ZTIP12asn1_type_st"
    }
   ],
   "referenced_type" : "_ZTIFP12asn1_type_stS0_E",
   "return_type" : "_ZTIP12asn1_type_st",
   "self_type" : "_ZTIFP12asn1_type_stS0_E",
   "source_file" : "/external/boringssl/src/include/openssl/asn1.h"
  },
  {
   "alignment" : 4,
   "linker_set_key" : "_ZTIFP13DIST_POINT_stS0_E",
   "name" : "DIST_POINT_st *(DIST_POINT_st *)",
   "parameters" :
   [
    {
     "referenced_type" : "_ZTIP13DIST_POINT_st"
    }
   ],
   "referenced_type" : "_ZTIFP13DIST_POINT_stS0_E",
   "return_type" : "_ZTIP13DIST_POINT_st",
   "self_type" : "_ZTIFP13DIST_POINT_stS0_E",
   "source_file" : "/external/boringssl/src/include/openssl/x509v3.h"
  },
  {
   "alignment" : 4,
   "linker_set_key" : "_ZTIFP13POLICYINFO_stS0_E",
   "name" : "POLICYINFO_st *(POLICYINFO_st *)",
   "parameters" :
   [
    {
     "referenced_type" : "_ZTIP13POLICYINFO_st"
    }
   ],
   "referenced_type" : "_ZTIFP13POLICYINFO_stS0_E",
   "return_type" : "_ZTIP13POLICYINFO_st",
   "self_type" : "_ZTIFP13POLICYINFO_stS0_E",
   "source_file" : "/external/boringssl/src/include/openssl/x509v3.h"
  },
  {
   "alignment" : 4,
   "linker_set_key" : "_ZTIFP13X509_algor_stS0_E",
   "name" : "X509_algor_st *(X509_algor_st *)",
   "parameters" :
   [
    {
     "referenced_type" : "_ZTIP13X509_algor_st"
    }
   ],
   "referenced_type" : "_ZTIFP13X509_algor_stS0_E",
   "return_type" : "_ZTIP13X509_algor_st",
   "self_type" : "_ZTIFP13X509_algor_stS0_E",
   "source_file" : "/external/boringssl/src/include/openssl/x509.h"
  },
  {
   "alignment" : 4,
   "linker_set_key" : "_ZTIFP13conf_value_stS0_E",
   "name" : "conf_value_st *(conf_value_st *)",
   "parameters" :
   [
    {
     "referenced_type" : "_ZTIP13conf_value_st"
    }
   ],
   "referenced_type" : "_ZTIFP13conf_value_stS0_E",
   "return_type" : "_ZTIP13conf_value_st",
   "self_type" : "_ZTIFP13conf_value_stS0_E",
   "source_file" : "/external/boringssl/src/include/openssl/conf.h"
  },
  {
   "alignment" : 4,
   "linker_set_key" : "_ZTIFP13stack_st_X509P17x509_store_ctx_stP12X509_name_stE",
   "name" : "stack_st_X509 *(x509_store_ctx_st *, X509_name_st *)",
   "parameters" :
   [
    {
     "referenced_type" : "_ZTIP17x509_store_ctx_st"
    },
    {
     "referenced_type" : "_ZTIP12X509_name_st"
    }
   ],
   "referenced_type" : "_ZTIFP13stack_st_X509P17x509_store_ctx_stP12X509_name_stE",
   "return_type" : "_ZTIP13stack_st_X509",
   "self_type" : "_ZTIFP13stack_st_X509P17x509_store_ctx_stP12X509_name_stE",
   "source_file" : "/external/boringssl/src/include/openssl/x509_vfy.h"
  },
  {
   "alignment" : 4,
   "linker_set_key" : "_ZTIFP13v3_ext_methodS0_E",
   "name" : "v3_ext_method *(v3_ext_method *)",
   "parameters" :
   [
    {
     "referenced_type" : "_ZTIP13v3_ext_method"
    }
   ],
   "referenced_type" : "_ZTIFP13v3_ext_methodS0_E",
   "return_type" : "_ZTIP13v3_ext_method",
   "self_type" : "_ZTIFP13v3_ext_methodS0_E",
   "source_file" : "/external/boringssl/src/include/openssl/x509v3.h"
  },
  {
   "alignment" : 4,
   "linker_set_key" : "_ZTIFP13x509_trust_stS0_E",
   "name" : "x509_trust_st *(x509_trust_st *)",
   "parameters" :
   [
    {
     "referenced_type" : "_ZTIP13x509_trust_st"
    }
   ],
   "referenced_type" : "_ZTIFP13x509_trust_stS0_E",
   "return_type" : "_ZTIP13x509_trust_st",
   "self_type" : "_ZTIFP13x509_trust_stS0_E",
   "source_file" : "/external/boringssl/src/include/openssl/x509.h"
  },
  {
   "alignment" : 4,
   "linker_set_key" : "_ZTIFP14asn1_object_stS0_E",
   "name" : "asn1_object_st *(asn1_object_st *)",
   "parameters" :
   [
    {
     "referenced_type" : "_ZTIP14asn1_object_st"
    }
   ],
   "referenced_type" : "_ZTIFP14asn1_object_stS0_E",
   "return_type" : "_ZTIP14asn1_object_st",
   "self_type" : "_ZTIFP14asn1_object_stS0_E",
   "source_file" : "/external/boringssl/src/include/openssl/asn1.h"
  },
  {
   "alignment" : 4,
   "linker_set_key" : "_ZTIFP14asn1_string_stS0_E",
   "name" : "asn1_string_st *(asn1_string_st *)",
   "parameters" :
   [
    {
     "referenced_type" : "_ZTIP14asn1_string_st"
    }
   ],
   "referenced_type" : "_ZTIFP14asn1_string_stS0_E",
   "return_type" : "_ZTIP14asn1_string_st",
   "self_type" : "_ZTIFP14asn1_string_stS0_E",
   "source_file" : "/external/boringssl/src/include/openssl/asn1.h"
  },
  {
   "alignment" : 4,
   "linker_set_key" : "_ZTIFP14ssl_session_stP6ssl_stPKhiPiE",
   "name" : "ssl_session_st *(ssl_st *, const unsigned char *, int, int *)",
   "parameters" :
   [
    {
     "referenced_type" : "_ZTIP6ssl_st"
    },
    {
     "referenced_type" : "_ZTIPKh"
    },
    {
     "referenced_type" : "_ZTIi"
    },
    {
     "referenced_type" : "_ZTIPi"
    }
   ],
   "referenced_type" : "_ZTIFP14ssl_session_stP6ssl_stPKhiPiE",
   "return_type" : "_ZTIP14ssl_session_st",
   "self_type" : "_ZTIFP14ssl_session_stP6ssl_stPKhiPiE",
   "source_file" : "/external/boringssl/src/include/openssl/ssl.h"
  },
  {
   "alignment" : 4,
   "linker_set_key" : "_ZTIFP14x509_lookup_stS0_E",
   "name" : "x509_lookup_st *(x509_lookup_st *)",
   "parameters" :
   [
    {
     "referenced_type" : "_ZTIP14x509_lookup_st"
    }
   ],
   "referenced_type" : "_ZTIFP14x509_lookup_stS0_E",
   "return_type" : "_ZTIP14x509_lookup_st",
   "self_type" : "_ZTIFP14x509_lookup_stS0_E",
   "source_file" : "/external/boringssl/src/include/openssl/x509_vfy.h"
  },
  {
   "alignment" : 4,
   "linker_set_key" : "_ZTIFP14x509_object_stS0_E",
   "name" : "x509_object_st *(x509_object_st *)",
   "parameters" :
   [
    {
     "referenced_type" : "_ZTIP14x509_object_st"
    }
   ],
   "referenced_type" : "_ZTIFP14x509_object_stS0_E",
   "return_type" : "_ZTIP14x509_object_st",
   "self_type" : "_ZTIFP14x509_object_stS0_E",
   "source_file" : "/external/boringssl/src/include/openssl/x509_vfy.h"
  },
  {
   "alignment" : 4,
   "linker_set_key" : "_ZTIFP15GENERAL_NAME_stS0_E",
   "name" : "GENERAL_NAME_st *(GENERAL_NAME_st *)",
   "parameters" :
   [
    {
     "referenced_type" : "_ZTIP15GENERAL_NAME_st"
    }
   ],
   "referenced_type" : "_ZTIFP15GENERAL_NAME_stS0_E",
   "return_type" : "_ZTIP15GENERAL_NAME_st",
   "self_type" : "_ZTIFP15GENERAL_NAME_stS0_E",
   "source_file" : "/external/boringssl/src/include/openssl/x509v3.h"
  },
  {
   "alignment" : 4,
   "linker_set_key" : "_ZTIFP15x509_purpose_stS0_E",
   "name" : "x509_purpose_st *(x509_purpose_st *)",
   "parameters" :
   [
    {
     "referenced_type" : "_ZTIP15x509_purpose_st"
    }
   ],
   "referenced_type" : "_ZTIFP15x509_purpose_stS0_E",
   "return_type" : "_ZTIP15x509_purpose_st",
   "self_type" : "_ZTIFP15x509_purpose_stS0_E",
   "source_file" : "/external/boringssl/src/include/openssl/x509v3.h"
  },
  {
   "alignment" : 4,
   "linker_set_key" : "_ZTIFP15x509_revoked_stS0_E",
   "name" : "x509_revoked_st *(x509_revoked_st *)",
   "parameters" :
   [
    {
     "referenced_type" : "_ZTIP15x509_revoked_st"
    }
   ],
   "referenced_type" : "_ZTIFP15x509_revoked_stS0_E",
   "return_type" : "_ZTIP15x509_revoked_st",
   "self_type" : "_ZTIFP15x509_revoked_stS0_E",
   "source_file" : "/external/boringssl/src/include/openssl/x509.h"
  },
  {
   "alignment" : 4,
   "linker_set_key" : "_ZTIFP16crypto_buffer_stS0_E",
   "name" : "crypto_buffer_st *(crypto_buffer_st *)",
   "parameters" :
   [
    {
     "referenced_type" : "_ZTIP16crypto_buffer_st"
    }
   ],
   "referenced_type" : "_ZTIFP16crypto_buffer_stS0_E",
   "return_type" : "_ZTIP16crypto_buffer_st",
   "self_type" : "_ZTIFP16crypto_buffer_stS0_E",
   "source_file" : "/external/boringssl/src/include/openssl/pool.h"
  },
  {
   "alignment" : 4,
   "linker_set_key" : "_ZTIFP17POLICYQUALINFO_stS0_E",
   "name" : "POLICYQUALINFO_st *(POLICYQUALINFO_st *)",
   "parameters" :
   [
    {
     "referenced_type" : "_ZTIP17POLICYQUALINFO_st"
    }
   ],
   "referenced_type" : "_ZTIFP17POLICYQUALINFO_stS0_E",
   "return_type" : "_ZTIP17POLICYQUALINFO_st",
   "self_type" : "_ZTIFP17POLICYQUALINFO_stS0_E",
   "source_file" : "/external/boringssl/src/include/openssl/x509v3.h"
  },
  {
   "alignment" : 4,
   "linker_set_key" : "_ZTIFP17POLICY_MAPPING_stS0_E",
   "name" : "POLICY_MAPPING_st *(POLICY_MAPPING_st *)",
   "parameters" :
   [
    {
     "referenced_type" : "_ZTIP17POLICY_MAPPING_st"
    }
   ],
   "referenced_type" : "_ZTIFP17POLICY_MAPPING_stS0_E",
   "return_type" : "_ZTIP17POLICY_MAPPING_st",
   "self_type" : "_ZTIFP17POLICY_MAPPING_stS0_E",
   "source_file" : "/external/boringssl/src/include/openssl/x509v3.h"
  },
  {
   "alignment" : 4,
   "linker_set_key" : "_ZTIFP17X509_extension_stS0_E",
   "name" : "X509_extension_st *(X509_extension_st *)",
   "parameters" :
   [
    {
     "referenced_type" : "_ZTIP17X509_extension_st"
    }
   ],
   "referenced_type" : "_ZTIFP17X509_extension_stS0_E",
   "return_type" : "_ZTIP17X509_extension_st",
   "self_type" : "_ZTIFP17X509_extension_stS0_E",
   "source_file" : "/external/boringssl/src/include/openssl/x509.h"
  },
  {
   "alignment" : 4,
   "linker_set_key" : "_ZTIFP17stack_st_X509_CRLP17x509_store_ctx_stP12X509_name_stE",
   "name" : "stack_st_X509_CRL *(x509_store_ctx_st *, X509_name_st *)",
   "parameters" :
   [
    {
     "referenced_type" : "_ZTIP17x509_store_ctx_st"
    },
    {
     "referenced_type" : "_ZTIP12X509_name_st"
    }
   ],
   "referenced_type" : "_ZTIFP17stack_st_X509_CRLP17x509_store_ctx_stP12X509_name_stE",
   "return_type" : "_ZTIP17stack_st_X509_CRL",
   "self_type" : "_ZTIFP17stack_st_X509_CRLP17x509_store_ctx_stP12X509_name_stE",
   "source_file" : "/external/boringssl/src/include/openssl/x509_vfy.h"
  },
  {
   "alignment" : 4,
   "linker_set_key" : "_ZTIFP18GENERAL_SUBTREE_stS0_E",
   "name" : "GENERAL_SUBTREE_st *(GENERAL_SUBTREE_st *)",
   "parameters" :
   [
    {
     "referenced_type" : "_ZTIP18GENERAL_SUBTREE_st"
    }
   ],
   "referenced_type" : "_ZTIFP18GENERAL_SUBTREE_stS0_E",
   "return_type" : "_ZTIP18GENERAL_SUBTREE_st",
   "self_type" : "_ZTIFP18GENERAL_SUBTREE_stS0_E",
   "source_file" : "/external/boringssl/src/include/openssl/x509v3.h"
  },
  {
   "alignment" : 4,
   "linker_set_key" : "_ZTIFP18X509_name_entry_stS0_E",
   "name" : "X509_name_entry_st *(X509_name_entry_st *)",
   "parameters" :
   [
    {
     "referenced_type" : "_ZTIP18X509_name_entry_st"
    }
   ],
   "referenced_type" : "_ZTIFP18X509_name_entry_stS0_E",
   "return_type" : "_ZTIP18X509_name_entry_st",
   "self_type" : "_ZTIFP18X509_name_entry_stS0_E",
   "source_file" : "/external/boringssl/src/include/openssl/x509.h"
  },
  {
   "alignment" : 4,
   "linker_set_key" : "_ZTIFP18x509_attributes_stS0_E",
   "name" : "x509_attributes_st *(x509_attributes_st *)",
   "parameters" :
   [
    {
     "referenced_type" : "_ZTIP18x509_attributes_st"
    }
   ],
   "referenced_type" : "_ZTIFP18x509_attributes_stS0_E",
   "return_type" : "_ZTIP18x509_attributes_st",
   "self_type" : "_ZTIFP18x509_attributes_stS0_E",
   "source_file" : "/external/boringssl/src/include/openssl/x509.h"
  },
  {
   "alignment" : 4,
   "linker_set_key" : "_ZTIFP19X509_POLICY_NODE_stS0_E",
   "name" : "X509_POLICY_NODE_st *(X509_POLICY_NODE_st *)",
   "parameters" :
   [
    {
     "referenced_type" : "_ZTIP19X509_POLICY_NODE_st"
    }
   ],
   "referenced_type" : "_ZTIFP19X509_POLICY_NODE_stS0_E",
   "return_type" : "_ZTIP19X509_POLICY_NODE_st",
   "self_type" : "_ZTIFP19X509_POLICY_NODE_stS0_E",
   "source_file" : "/external/boringssl/src/include/openssl/x509v3.h"
  },
  {
   "alignment" : 4,
   "linker_set_key" : "_ZTIFP19stack_st_CONF_VALUEPK13v3_ext_methodPvS0_E",
   "name" : "stack_st_CONF_VALUE *(const v3_ext_method *, void *, stack_st_CONF_VALUE *)",
   "parameters" :
   [
    {
     "referenced_type" : "_ZTIPK13v3_ext_method"
    },
    {
     "referenced_type" : "_ZTIPv"
    },
    {
     "referenced_type" : "_ZTIP19stack_st_CONF_VALUE"
    }
   ],
   "referenced_type" : "_ZTIFP19stack_st_CONF_VALUEPK13v3_ext_methodPvS0_E",
   "return_type" : "_ZTIP19stack_st_CONF_VALUE",
   "self_type" : "_ZTIFP19stack_st_CONF_VALUEPK13v3_ext_methodPvS0_E",
   "source_file" : "/external/boringssl/src/include/openssl/x509v3.h"
  },
  {
   "alignment" : 4,
   "linker_set_key" : "_ZTIFP19stack_st_CONF_VALUEPvPcE",
   "name" : "stack_st_CONF_VALUE *(void *, char *)",
   "parameters" :
   [
    {
     "referenced_type" : "_ZTIPv"
    },
    {
     "referenced_type" : "_ZTIPc"
    }
   ],
   "referenced_type" : "_ZTIFP19stack_st_CONF_VALUEPvPcE",
   "return_type" : "_ZTIP19stack_st_CONF_VALUE",
   "self_type" : "_ZTIFP19stack_st_CONF_VALUEPvPcE",
   "source_file" : "/external/boringssl/src/include/openssl/x509v3.h"
  },
  {
   "alignment" : 4,
   "linker_set_key" : "_ZTIFP20X509_VERIFY_PARAM_stS0_E",
   "name" : "X509_VERIFY_PARAM_st *(X509_VERIFY_PARAM_st *)",
   "parameters" :
   [
    {
     "referenced_type" : "_ZTIP20X509_VERIFY_PARAM_st"
    }
   ],
   "referenced_type" : "_ZTIFP20X509_VERIFY_PARAM_stS0_E",
   "return_type" : "_ZTIP20X509_VERIFY_PARAM_st",
   "self_type" : "_ZTIFP20X509_VERIFY_PARAM_stS0_E",
   "source_file" : "/external/boringssl/src/include/openssl/x509_vfy.h"
  },
  {
   "alignment" : 4,
   "linker_set_key" : "_ZTIFP21ACCESS_DESCRIPTION_stS0_E",
   "name" : "ACCESS_DESCRIPTION_st *(ACCESS_DESCRIPTION_st *)",
   "parameters" :
   [
    {
     "referenced_type" : "_ZTIP21ACCESS_DESCRIPTION_st"
    }
   ],
   "referenced_type" : "_ZTIFP21ACCESS_DESCRIPTION_stS0_E",
   "return_type" : "_ZTIP21ACCESS_DESCRIPTION_st",
   "self_type" : "_ZTIFP21ACCESS_DESCRIPTION_stS0_E",
   "source_file" : "/external/boringssl/src/include/openssl/x509v3.h"
  },
  {
   "alignment" : 4,
   "linker_set_key" : "_ZTIFP21stack_st_GENERAL_NAMES0_E",
   "name" : "stack_st_GENERAL_NAME *(stack_st_GENERAL_NAME *)",
   "parameters" :
   [
    {
     "referenced_type" : "_ZTIP21stack_st_GENERAL_NAME"
    }
   ],
   "referenced_type" : "_ZTIFP21stack_st_GENERAL_NAMES0_E",
   "return_type" : "_ZTIP21stack_st_GENERAL_NAME",
   "self_type" : "_ZTIFP21stack_st_GENERAL_NAMES0_E",
   "source_file" : "/external/boringssl/src/include/openssl/x509v3.h"
  },
  {
   "alignment" : 4,
   "linker_set_key" : "_ZTIFP5dh_stP6ssl_stiiE",
   "name" : "dh_st *(ssl_st *, int, int)",
   "parameters" :
   [
    {
     "referenced_type" : "_ZTIP6ssl_st"
    },
    {
     "referenced_type" : "_ZTIi"
    },
    {
     "referenced_type" : "_ZTIi"
    }
   ],
   "referenced_type" : "_ZTIFP5dh_stP6ssl_stiiE",
   "return_type" : "_ZTIP5dh_st",
   "self_type" : "_ZTIFP5dh_stP6ssl_stiiE",
   "source_file" : "/external/boringssl/src/include/openssl/ssl.h"
  },
  {
   "alignment" : 4,
   "linker_set_key" : "_ZTIFP6bio_stS0_E",
   "name" : "bio_st *(bio_st *)",
   "parameters" :
   [
    {
     "referenced_type" : "_ZTIP6bio_st"
    }
   ],
   "referenced_type" : "_ZTIFP6bio_stS0_E",
   "return_type" : "_ZTIP6bio_st",
   "self_type" : "_ZTIFP6bio_stS0_E",
   "source_file" : "/external/boringssl/src/include/openssl/bio.h"
  },
  {
   "alignment" : 4,
   "linker_set_key" : "_ZTIFP6rsa_stP6ssl_stiiE",
   "name" : "rsa_st *(ssl_st *, int, int)",
   "parameters" :
   [
    {
     "referenced_type" : "_ZTIP6ssl_st"
    },
    {
     "referenced_type" : "_ZTIi"
    },
    {
     "referenced_type" : "_ZTIi"
    }
   ],
   "referenced_type" : "_ZTIFP6rsa_stP6ssl_stiiE",
   "return_type" : "_ZTIP6rsa_st",
   "self_type" : "_ZTIFP6rsa_stP6ssl_stiiE",
   "source_file" : "/external/boringssl/src/include/openssl/ssl.h"
  },
  {
   "alignment" : 4,
   "linker_set_key" : "_ZTIFP7x509_stS0_E",
   "name" : "x509_st *(x509_st *)",
   "parameters" :
   [
    {
     "referenced_type" : "_ZTIP7x509_st"
    }
   ],
   "referenced_type" : "_ZTIFP7x509_stS0_E",
   "return_type" : "_ZTIP7x509_st",
   "self_type" : "_ZTIFP7x509_stS0_E",
   "source_file" : "/external/boringssl/src/include/openssl/x509.h"
  },
  {
   "alignment" : 4,
   "linker_set_key" : "_ZTIFPK13ssl_cipher_stS1_E",
   "name" : "const ssl_cipher_st *(const ssl_cipher_st *)",
   "parameters" :
   [
    {
     "referenced_type" : "_ZTIPK13ssl_cipher_st"
    }
   ],
   "referenced_type" : "_ZTIFPK13ssl_cipher_stS1_E",
   "return_type" : "_ZTIPK13ssl_cipher_st",
   "self_type" : "_ZTIFPK13ssl_cipher_stS1_E",
   "source_file" : "/external/boringssl/src/include/openssl/ssl.h"
  },
  {
   "alignment" : 4,
   "linker_set_key" : "_ZTIFPK26srtp_protection_profile_stS1_E",
   "name" : "const srtp_protection_profile_st *(const srtp_protection_profile_st *)",
   "parameters" :
   [
    {
     "referenced_type" : "_ZTIPK26srtp_protection_profile_st"
    }
   ],
   "referenced_type" : "_ZTIFPK26srtp_protection_profile_stS1_E",
   "return_type" : "_ZTIPK26srtp_protection_profile_st",
   "self_type" : "_ZTIFPK26srtp_protection_profile_stS1_E",
   "source_file" : "/external/boringssl/src/include/openssl/ssl.h"
  },
  {
   "alignment" : 4,
   "linker_set_key" : "_ZTIFPcPK13v3_ext_methodPvE",
   "name" : "char *(const v3_ext_method *, void *)",
   "parameters" :
   [
    {
     "referenced_type" : "_ZTIPK13v3_ext_method"
    },
    {
     "referenced_type" : "_ZTIPv"
    }
   ],
   "referenced_type" : "_ZTIFPcPK13v3_ext_methodPvE",
   "return_type" : "_ZTIPc",
   "self_type" : "_ZTIFPcPK13v3_ext_methodPvE",
   "source_file" : "/external/boringssl/src/include/openssl/x509v3.h"
  },
  {
   "alignment" : 4,
   "linker_set_key" : "_ZTIFPcPvS_S_E",
   "name" : "char *(void *, char *, char *)",
   "parameters" :
   [
    {
     "referenced_type" : "_ZTIPv"
    },
    {
     "referenced_type" : "_ZTIPc"
    },
    {
     "referenced_type" : "_ZTIPc"
    }
   ],
   "referenced_type" : "_ZTIFPcPvS_S_E",
   "return_type" : "_ZTIPc",
   "self_type" : "_ZTIFPcPvS_S_E",
   "source_file" : "/external/boringssl/src/include/openssl/x509v3.h"
  },
  {
   "alignment" : 4,
   "linker_set_key" : "_ZTIFPcS_E",
   "name" : "char *(char *)",
   "parameters" :
   [
    {
     "referenced_type" : "_ZTIPc"
    }
   ],
   "referenced_type" : "_ZTIFPcS_E",
   "return_type" : "_ZTIPc",
   "self_type" : "_ZTIFPcS_E",
   "source_file" : "/external/boringssl/src/include/openssl/stack.h"
  },
  {
   "alignment" : 4,
   "linker_set_key" : "_ZTIFPvPK13v3_ext_methodP10v3_ext_ctxP19stack_st_CONF_VALUEE",
   "name" : "void *(const v3_ext_method *, v3_ext_ctx *, stack_st_CONF_VALUE *)",
   "parameters" :
   [
    {
     "referenced_type" : "_ZTIPK13v3_ext_method"
    },
    {
     "referenced_type" : "_ZTIP10v3_ext_ctx"
    },
    {
     "referenced_type" : "_ZTIP19stack_st_CONF_VALUE"
    }
   ],
   "referenced_type" : "_ZTIFPvPK13v3_ext_methodP10v3_ext_ctxP19stack_st_CONF_VALUEE",
   "return_type" : "_ZTIPv",
   "self_type" : "_ZTIFPvPK13v3_ext_methodP10v3_ext_ctxP19stack_st_CONF_VALUEE",
   "source_file" : "/external/boringssl/src/include/openssl/x509v3.h"
  },
  {
   "alignment" : 4,
   "linker_set_key" : "_ZTIFPvPK13v3_ext_methodP10v3_ext_ctxPKcE",
   "name" : "void *(const v3_ext_method *, v3_ext_ctx *, const char *)",
   "parameters" :
   [
    {
     "referenced_type" : "_ZTIPK13v3_ext_method"
    },
    {
     "referenced_type" : "_ZTIP10v3_ext_ctx"
    },
    {
     "referenced_type" : "_ZTIPKc"
    }
   ],
   "referenced_type" : "_ZTIFPvPK13v3_ext_methodP10v3_ext_ctxPKcE",
   "return_type" : "_ZTIPv",
   "self_type" : "_ZTIFPvPK13v3_ext_methodP10v3_ext_ctxPKcE",
   "source_file" : "/external/boringssl/src/include/openssl/x509v3.h"
  },
  {
   "alignment" : 4,
   "linker_set_key" : "_ZTIFPvS_E",
   "name" : "void *(void *)",
   "parameters" :
   [
    {
     "referenced_type" : "_ZTIPv"
    }
   ],
   "referenced_type" : "_ZTIFPvS_E",
   "return_type" : "_ZTIPv",
   "self_type" : "_ZTIFPvS_E",
   "source_file" : "/external/boringssl/src/include/openssl/stack.h"
  },
  {
   "alignment" : 4,
   "linker_set_key" : "_ZTIFPvS_PPKhlE",
   "name" : "void *(void *, const unsigned char **, long)",
   "parameters" :
   [
    {
     "referenced_type" : "_ZTIPv"
    },
    {
     "referenced_type" : "_ZTIPPKh"
    },
    {
     "referenced_type" : "_ZTIl"
    }
   ],
   "referenced_type" : "_ZTIFPvS_PPKhlE",
   "return_type" : "_ZTIPv",
   "self_type" : "_ZTIFPvS_PPKhlE",
   "source_file" : "/external/boringssl/src/include/openssl/x509v3.h"
  },
  {
   "alignment" : 4,
   "linker_set_key" : "_ZTIFPvvE",
   "name" : "void *()",
   "referenced_type" : "_ZTIFPvvE",
   "return_type" : "_ZTIPv",
   "self_type" : "_ZTIFPvvE",
   "source_file" : "/external/boringssl/src/include/openssl/x509v3.h"
  },
  {
   "alignment" : 4,
   "linker_set_key" : "_ZTIFiP13x509_trust_stP7x509_stiE",
   "name" : "int (x509_trust_st *, x509_st *, int)",
   "parameters" :
   [
    {
     "referenced_type" : "_ZTIP13x509_trust_st"
    },
    {
     "referenced_type" : "_ZTIP7x509_st"
    },
    {
     "referenced_type" : "_ZTIi"
    }
   ],
   "referenced_type" : "_ZTIFiP13x509_trust_stP7x509_stiE",
   "return_type" : "_ZTIi",
   "self_type" : "_ZTIFiP13x509_trust_stP7x509_stiE",
   "source_file" : "/external/boringssl/src/include/openssl/x509.h"
  },
  {
   "alignment" : 4,
   "linker_set_key" : "_ZTIFiP14x509_lookup_stE",
   "name" : "int (x509_lookup_st *)",
   "parameters" :
   [
    {
     "referenced_type" : "_ZTIP14x509_lookup_st"
    }
   ],
   "referenced_type" : "_ZTIFiP14x509_lookup_stE",
   "return_type" : "_ZTIi",
   "self_type" : "_ZTIFiP14x509_lookup_stE",
   "source_file" : "/external/boringssl/src/include/openssl/x509_vfy.h"
  },
  {
   "alignment" : 4,
   "linker_set_key" : "_ZTIFiP14x509_lookup_stiP12X509_name_stP14asn1_string_stP14x509_object_stE",
   "name" : "int (x509_lookup_st *, int, X509_name_st *, asn1_string_st *, x509_object_st *)",
   "parameters" :
   [
    {
     "referenced_type" : "_ZTIP14x509_lookup_st"
    },
    {
     "referenced_type" : "_ZTIi"
    },
    {
     "referenced_type" : "_ZTIP12X509_name_st"
    },
    {
     "referenced_type" : "_ZTIP14asn1_string_st"
    },
    {
     "referenced_type" : "_ZTIP14x509_object_st"
    }
   ],
   "referenced_type" : "_ZTIFiP14x509_lookup_stiP12X509_name_stP14asn1_string_stP14x509_object_stE",
   "return_type" : "_ZTIi",
   "self_type" : "_ZTIFiP14x509_lookup_stiP12X509_name_stP14asn1_string_stP14x509_object_stE",
   "source_file" : "/external/boringssl/src/include/openssl/x509_vfy.h"
  },
  {
   "alignment" : 4,
   "linker_set_key" : "_ZTIFiP14x509_lookup_stiP12X509_name_stP14x509_object_stE",
   "name" : "int (x509_lookup_st *, int, X509_name_st *, x509_object_st *)",
   "parameters" :
   [
    {
     "referenced_type" : "_ZTIP14x509_lookup_st"
    },
    {
     "referenced_type" : "_ZTIi"
    },
    {
     "referenced_type" : "_ZTIP12X509_name_st"
    },
    {
     "referenced_type" : "_ZTIP14x509_object_st"
    }
   ],
   "referenced_type" : "_ZTIFiP14x509_lookup_stiP12X509_name_stP14x509_object_stE",
   "return_type" : "_ZTIi",
   "self_type" : "_ZTIFiP14x509_lookup_stiP12X509_name_stP14x509_object_stE",
   "source_file" : "/external/boringssl/src/include/openssl/x509_vfy.h"
  },
  {
   "alignment" : 4,
   "linker_set_key" : "_ZTIFiP14x509_lookup_stiPKclPPcE",
   "name" : "int (x509_lookup_st *, int, const char *, long, char **)",
   "parameters" :
   [
    {
     "referenced_type" : "_ZTIP14x509_lookup_st"
    },
    {
     "referenced_type" : "_ZTIi"
    },
    {
     "referenced_type" : "_ZTIPKc"
    },
    {
     "referenced_type" : "_ZTIl"
    },
    {
     "referenced_type" : "_ZTIPPc"
    }
   ],
   "referenced_type" : "_ZTIFiP14x509_lookup_stiPKclPPcE",
   "return_type" : "_ZTIi",
   "self_type" : "_ZTIFiP14x509_lookup_stiPKclPPcE",
   "source_file" : "/external/boringssl/src/include/openssl/x509_vfy.h"
  },
  {
   "alignment" : 4,
   "linker_set_key" : "_ZTIFiP14x509_lookup_stiPciP14x509_object_stE",
   "name" : "int (x509_lookup_st *, int, char *, int, x509_object_st *)",
   "parameters" :
   [
    {
     "referenced_type" : "_ZTIP14x509_lookup_st"
    },
    {
     "referenced_type" : "_ZTIi"
    },
    {
     "referenced_type" : "_ZTIPc"
    },
    {
     "referenced_type" : "_ZTIi"
    },
    {
     "referenced_type" : "_ZTIP14x509_object_st"
    }
   ],
   "referenced_type" : "_ZTIFiP14x509_lookup_stiPciP14x509_object_stE",
   "return_type" : "_ZTIi",
   "self_type" : "_ZTIFiP14x509_lookup_stiPciP14x509_object_stE",
   "source_file" : "/external/boringssl/src/include/openssl/x509_vfy.h"
  },
  {
   "alignment" : 4,
   "linker_set_key" : "_ZTIFiP14x509_lookup_stiPhiP14x509_object_stE",
   "name" : "int (x509_lookup_st *, int, unsigned char *, int, x509_object_st *)",
   "parameters" :
   [
    {
     "referenced_type" : "_ZTIP14x509_lookup_st"
    },
    {
     "referenced_type" : "_ZTIi"
    },
    {
     "referenced_type" : "_ZTIPh"
    },
    {
     "referenced_type" : "_ZTIi"
    },
    {
     "referenced_type" : "_ZTIP14x509_object_st"
    }
   ],
   "referenced_type" : "_ZTIFiP14x509_lookup_stiPhiP14x509_object_stE",
   "return_type" : "_ZTIi",
   "self_type" : "_ZTIFiP14x509_lookup_stiPhiP14x509_object_stE",
   "source_file" : "/external/boringssl/src/include/openssl/x509_vfy.h"
  },
  {
   "alignment" : 4,
   "linker_set_key" : "_ZTIFiP17crypto_ex_data_stPKS_PPvilS3_E",
   "name" : "int (crypto_ex_data_st *, const crypto_ex_data_st *, void **, int, long, void *)",
   "parameters" :
   [
    {
     "referenced_type" : "_ZTIP17crypto_ex_data_st"
    },
    {
     "referenced_type" : "_ZTIPK17crypto_ex_data_st"
    },
    {
     "referenced_type" : "_ZTIPPv"
    },
    {
     "referenced_type" : "_ZTIi"
    },
    {
     "referenced_type" : "_ZTIl"
    },
    {
     "referenced_type" : "_ZTIPv"
    }
   ],
   "referenced_type" : "_ZTIFiP17crypto_ex_data_stPKS_PPvilS3_E",
   "return_type" : "_ZTIi",
   "self_type" : "_ZTIFiP17crypto_ex_data_stPKS_PPvilS3_E",
   "source_file" : "/external/boringssl/src/include/openssl/ssl.h"
  },
  {
   "alignment" : 4,
   "linker_set_key" : "_ZTIFiP17evp_cipher_ctx_stPKhS2_iE",
   "name" : "int (evp_cipher_ctx_st *, const unsigned char *, const unsigned char *, int)",
   "parameters" :
   [
    {
     "referenced_type" : "_ZTIP17evp_cipher_ctx_st"
    },
    {
     "referenced_type" : "_ZTIPKh"
    },
    {
     "referenced_type" : "_ZTIPKh"
    },
    {
     "referenced_type" : "_ZTIi"
    }
   ],
   "referenced_type" : "_ZTIFiP17evp_cipher_ctx_stPKhS2_iE",
   "return_type" : "_ZTIi",
   "self_type" : "_ZTIFiP17evp_cipher_ctx_stPKhS2_iE",
   "source_file" : "/external/boringssl/src/include/openssl/cipher.h"
  },
  {
   "alignment" : 4,
   "linker_set_key" : "_ZTIFiP17evp_cipher_ctx_stPhPKhmE",
   "name" : "int (evp_cipher_ctx_st *, unsigned char *, const unsigned char *, unsigned long)",
   "parameters" :
   [
    {
     "referenced_type" : "_ZTIP17evp_cipher_ctx_st"
    },
    {
     "referenced_type" : "_ZTIPh"
    },
    {
     "referenced_type" : "_ZTIPKh"
    },
    {
     "referenced_type" : "_ZTIm"
    }
   ],
   "referenced_type" : "_ZTIFiP17evp_cipher_ctx_stPhPKhmE",
   "return_type" : "_ZTIi",
   "self_type" : "_ZTIFiP17evp_cipher_ctx_stPhPKhmE",
   "source_file" : "/external/boringssl/src/include/openssl/cipher.h"
  },
  {
   "alignment" : 4,
   "linker_set_key" : "_ZTIFiP17evp_cipher_ctx_stiiPvE",
   "name" : "int (evp_cipher_ctx_st *, int, int, void *)",
   "parameters" :
   [
    {
     "referenced_type" : "_ZTIP17evp_cipher_ctx_st"
    },
    {
     "referenced_type" : "_ZTIi"
    },
    {
     "referenced_type" : "_ZTIi"
    },
    {
     "referenced_type" : "_ZTIPv"
    }
   ],
   "referenced_type" : "_ZTIFiP17evp_cipher_ctx_stiiPvE",
   "return_type" : "_ZTIi",
   "self_type" : "_ZTIFiP17evp_cipher_ctx_stiiPvE",
   "source_file" : "/external/boringssl/src/include/openssl/cipher.h"
  },
  {
   "alignment" : 4,
   "linker_set_key" : "_ZTIFiP17x509_store_ctx_stE",
   "name" : "int (x509_store_ctx_st *)",
   "parameters" :
   [
    {
     "referenced_type" : "_ZTIP17x509_store_ctx_st"
    }
   ],
   "referenced_type" : "_ZTIFiP17x509_store_ctx_stE",
   "return_type" : "_ZTIi",
   "self_type" : "_ZTIFiP17x509_store_ctx_stE",
   "source_file" : "/external/boringssl/src/include/openssl/x509_vfy.h"
  },
  {
   "alignment" : 4,
   "linker_set_key" : "_ZTIFiP17x509_store_ctx_stP11X509_crl_stE",
   "name" : "int (x509_store_ctx_st *, X509_crl_st *)",
   "parameters" :
   [
    {
     "referenced_type" : "_ZTIP17x509_store_ctx_st"
    },
    {
     "referenced_type" : "_ZTIP11X509_crl_st"
    }
   ],
   "referenced_type" : "_ZTIFiP17x509_store_ctx_stP11X509_crl_stE",
   "return_type" : "_ZTIi",
   "self_type" : "_ZTIFiP17x509_store_ctx_stP11X509_crl_stE",
   "source_file" : "/external/boringssl/src/include/openssl/x509_vfy.h"
  },
  {
   "alignment" : 4,
   "linker_set_key" : "_ZTIFiP17x509_store_ctx_stP11X509_crl_stP7x509_stE",
   "name" : "int (x509_store_ctx_st *, X509_crl_st *, x509_st *)",
   "parameters" :
   [
    {
     "referenced_type" : "_ZTIP17x509_store_ctx_st"
    },
    {
     "referenced_type" : "_ZTIP11X509_crl_st"
    },
    {
     "referenced_type" : "_ZTIP7x509_st"
    }
   ],
   "referenced_type" : "_ZTIFiP17x509_store_ctx_stP11X509_crl_stP7x509_stE",
   "return_type" : "_ZTIi",
   "self_type" : "_ZTIFiP17x509_store_ctx_stP11X509_crl_stP7x509_stE",
   "source_file" : "/external/boringssl/src/include/openssl/x509_vfy.h"
  },
  {
   "alignment" : 4,
   "linker_set_key" : "_ZTIFiP17x509_store_ctx_stP7x509_stS2_E",
   "name" : "int (x509_store_ctx_st *, x509_st *, x509_st *)",
   "parameters" :
   [
    {
     "referenced_type" : "_ZTIP17x509_store_ctx_st"
    },
    {
     "referenced_type" : "_ZTIP7x509_st"
    },
    {
     "referenced_type" : "_ZTIP7x509_st"
    }
   ],
   "referenced_type" : "_ZTIFiP17x509_store_ctx_stP7x509_stS2_E",
   "return_type" : "_ZTIi",
   "self_type" : "_ZTIFiP17x509_store_ctx_stP7x509_stS2_E",
   "source_file" : "/external/boringssl/src/include/openssl/x509_vfy.h"
  },
  {
   "alignment" : 4,
   "linker_set_key" : "_ZTIFiP17x509_store_ctx_stPP11X509_crl_stP7x509_stE",
   "name" : "int (x509_store_ctx_st *, X509_crl_st **, x509_st *)",
   "parameters" :
   [
    {
     "referenced_type" : "_ZTIP17x509_store_ctx_st"
    },
    {
     "referenced_type" : "_ZTIPP11X509_crl_st"
    },
    {
     "referenced_type" : "_ZTIP7x509_st"
    }
   ],
   "referenced_type" : "_ZTIFiP17x509_store_ctx_stPP11X509_crl_stP7x509_stE",
   "return_type" : "_ZTIi",
   "self_type" : "_ZTIFiP17x509_store_ctx_stPP11X509_crl_stP7x509_stE",
   "source_file" : "/external/boringssl/src/include/openssl/x509_vfy.h"
  },
  {
   "alignment" : 4,
   "linker_set_key" : "_ZTIFiP17x509_store_ctx_stPvE",
   "name" : "int (x509_store_ctx_st *, void *)",
   "parameters" :
   [
    {
     "referenced_type" : "_ZTIP17x509_store_ctx_st"
    },
    {
     "referenced_type" : "_ZTIPv"
    }
   ],
   "referenced_type" : "_ZTIFiP17x509_store_ctx_stPvE",
   "return_type" : "_ZTIi",
   "self_type" : "_ZTIFiP17x509_store_ctx_stPvE",
   "source_file" : "/external/boringssl/src/include/openssl/ssl.h"
  },
  {
   "alignment" : 4,
   "linker_set_key" : "_ZTIFiP6bio_stE",
   "name" : "int (bio_st *)",
   "parameters" :
   [
    {
     "referenced_type" : "_ZTIP6bio_st"
    }
   ],
   "referenced_type" : "_ZTIFiP6bio_stE",
   "return_type" : "_ZTIi",
   "self_type" : "_ZTIFiP6bio_stE",
   "source_file" : "/external/boringssl/src/include/openssl/bio.h"
  },
  {
   "alignment" : 4,
   "linker_set_key" : "_ZTIFiP6bio_stPKcE",
   "name" : "int (bio_st *, const char *)",
   "parameters" :
   [
    {
     "referenced_type" : "_ZTIP6bio_st"
    },
    {
     "referenced_type" : "_ZTIPKc"
    }
   ],
   "referenced_type" : "_ZTIFiP6bio_stPKcE",
   "return_type" : "_ZTIi",
   "self_type" : "_ZTIFiP6bio_stPKcE",
   "source_file" : "/external/boringssl/src/include/openssl/bio.h"
  },
  {
   "alignment" : 4,
   "linker_set_key" : "_ZTIFiP6bio_stPKciE",
   "name" : "int (bio_st *, const char *, int)",
   "parameters" :
   [
    {
     "referenced_type" : "_ZTIP6bio_st"
    },
    {
     "referenced_type" : "_ZTIPKc"
    },
    {
     "referenced_type" : "_ZTIi"
    }
   ],
   "referenced_type" : "_ZTIFiP6bio_stPKciE",
   "return_type" : "_ZTIi",
   "self_type" : "_ZTIFiP6bio_stPKciE",
   "source_file" : "/external/boringssl/src/include/openssl/bio.h"
  },
  {
   "alignment" : 4,
   "linker_set_key" : "_ZTIFiP6bio_stPciE",
   "name" : "int (bio_st *, char *, int)",
   "parameters" :
   [
    {
     "referenced_type" : "_ZTIP6bio_st"
    },
    {
     "referenced_type" : "_ZTIPc"
    },
    {
     "referenced_type" : "_ZTIi"
    }
   ],
   "referenced_type" : "_ZTIFiP6bio_stPciE",
   "return_type" : "_ZTIi",
   "self_type" : "_ZTIFiP6bio_stPciE",
   "source_file" : "/external/boringssl/src/include/openssl/bio.h"
  },
  {
   "alignment" : 4,
   "linker_set_key" : "_ZTIFiP6rsa_stE",
   "name" : "int (rsa_st *)",
   "parameters" :
   [
    {
     "referenced_type" : "_ZTIP6rsa_st"
    }
   ],
   "referenced_type" : "_ZTIFiP6rsa_stE",
   "return_type" : "_ZTIi",
   "self_type" : "_ZTIFiP6rsa_stE",
   "source_file" : "/external/boringssl/src/include/openssl/rsa.h"
  },
  {
   "alignment" : 4,
   "linker_set_key" : "_ZTIFiP6rsa_stPhPKhmE",
   "name" : "int (rsa_st *, unsigned char *, const unsigned char *, unsigned long)",
   "parameters" :
   [
    {
     "referenced_type" : "_ZTIP6rsa_st"
    },
    {
     "referenced_type" : "_ZTIPh"
    },
    {
     "referenced_type" : "_ZTIPKh"
    },
    {
     "referenced_type" : "_ZTIm"
    }
   ],
   "referenced_type" : "_ZTIFiP6rsa_stPhPKhmE",
   "return_type" : "_ZTIi",
   "self_type" : "_ZTIFiP6rsa_stPhPKhmE",
   "source_file" : "/external/boringssl/src/include/openssl/rsa.h"
  },
  {
   "alignment" : 4,
   "linker_set_key" : "_ZTIFiP6rsa_stPmPhmPKhmiE",
   "name" : "int (rsa_st *, unsigned long *, unsigned char *, unsigned long, const unsigned char *, unsigned long, int)",
   "parameters" :
   [
    {
     "referenced_type" : "_ZTIP6rsa_st"
    },
    {
     "referenced_type" : "_ZTIPm"
    },
    {
     "referenced_type" : "_ZTIPh"
    },
    {
     "referenced_type" : "_ZTIm"
    },
    {
     "referenced_type" : "_ZTIPKh"
    },
    {
     "referenced_type" : "_ZTIm"
    },
    {
     "referenced_type" : "_ZTIi"
    }
   ],
   "referenced_type" : "_ZTIFiP6rsa_stPmPhmPKhmiE",
   "return_type" : "_ZTIi",
   "self_type" : "_ZTIFiP6rsa_stPmPhmPKhmiE",
   "source_file" : "/external/boringssl/src/include/openssl/rsa.h"
  },
  {
   "alignment" : 4,
   "linker_set_key" : "_ZTIFiP6ssl_st22ssl_encryption_level_tPKhS3_mE",
   "name" : "int (ssl_st *, ssl_encryption_level_t, const unsigned char *, const unsigned char *, unsigned long)",
   "parameters" :
   [
    {
     "referenced_type" : "_ZTIP6ssl_st"
    },
    {
     "referenced_type" : "_ZTI22ssl_encryption_level_t"
    },
    {
     "referenced_type" : "_ZTIPKh"
    },
    {
     "referenced_type" : "_ZTIPKh"
    },
    {
     "referenced_type" : "_ZTIm"
    }
   ],
   "referenced_type" : "_ZTIFiP6ssl_st22ssl_encryption_level_tPKhS3_mE",
   "return_type" : "_ZTIi",
   "self_type" : "_ZTIFiP6ssl_st22ssl_encryption_level_tPKhS3_mE",
   "source_file" : "/external/boringssl/src/include/openssl/ssl.h"
  },
  {
   "alignment" : 4,
   "linker_set_key" : "_ZTIFiP6ssl_st22ssl_encryption_level_tPKhmE",
   "name" : "int (ssl_st *, ssl_encryption_level_t, const unsigned char *, unsigned long)",
   "parameters" :
   [
    {
     "referenced_type" : "_ZTIP6ssl_st"
    },
    {
     "referenced_type" : "_ZTI22ssl_encryption_level_t"
    },
    {
     "referenced_type" : "_ZTIPKh"
    },
    {
     "referenced_type" : "_ZTIm"
    }
   ],
   "referenced_type" : "_ZTIFiP6ssl_st22ssl_encryption_level_tPKhmE",
   "return_type" : "_ZTIi",
   "self_type" : "_ZTIFiP6ssl_st22ssl_encryption_level_tPKhmE",
   "source_file" : "/external/boringssl/src/include/openssl/ssl.h"
  },
  {
   "alignment" : 4,
   "linker_set_key" : "_ZTIFiP6ssl_st22ssl_encryption_level_thE",
   "name" : "int (ssl_st *, ssl_encryption_level_t, unsigned char)",
   "parameters" :
   [
    {
     "referenced_type" : "_ZTIP6ssl_st"
    },
    {
     "referenced_type" : "_ZTI22ssl_encryption_level_t"
    },
    {
     "referenced_type" : "_ZTIh"
    }
   ],
   "referenced_type" : "_ZTIFiP6ssl_st22ssl_encryption_level_thE",
   "return_type" : "_ZTIi",
   "self_type" : "_ZTIFiP6ssl_st22ssl_encryption_level_thE",
   "source_file" : "/external/boringssl/src/include/openssl/ssl.h"
  },
  {
   "alignment" : 4,
   "linker_set_key" : "_ZTIFiP6ssl_stE",
   "name" : "int (ssl_st *)",
   "parameters" :
   [
    {
     "referenced_type" : "_ZTIP6ssl_st"
    }
   ],
   "referenced_type" : "_ZTIFiP6ssl_stE",
   "return_type" : "_ZTIi",
   "self_type" : "_ZTIFiP6ssl_stE",
   "source_file" : "/external/boringssl/src/include/openssl/ssl.h"
  },
  {
   "alignment" : 4,
   "linker_set_key" : "_ZTIFiP6ssl_stP14ssl_session_stE",
   "name" : "int (ssl_st *, ssl_session_st *)",
   "parameters" :
   [
    {
     "referenced_type" : "_ZTIP6ssl_st"
    },
    {
     "referenced_type" : "_ZTIP14ssl_session_st"
    }
   ],
   "referenced_type" : "_ZTIFiP6ssl_stP14ssl_session_stE",
   "return_type" : "_ZTIi",
   "self_type" : "_ZTIFiP6ssl_stP14ssl_session_stE",
   "source_file" : "/external/boringssl/src/include/openssl/ssl.h"
  },
  {
   "alignment" : 4,
   "linker_set_key" : "_ZTIFiP6ssl_stP6cbb_stPKhmE",
   "name" : "int (ssl_st *, cbb_st *, const unsigned char *, unsigned long)",
   "parameters" :
   [
    {
     "referenced_type" : "_ZTIP6ssl_st"
    },
    {
     "referenced_type" : "_ZTIP6cbb_st"
    },
    {
     "referenced_type" : "_ZTIPKh"
    },
    {
     "referenced_type" : "_ZTIm"
    }
   ],
   "referenced_type" : "_ZTIFiP6ssl_stP6cbb_stPKhmE",
   "return_type" : "_ZTIi",
   "self_type" : "_ZTIFiP6ssl_stP6cbb_stPKhmE",
   "source_file" : "/external/boringssl/src/include/openssl/ssl.h"
  },
  {
   "alignment" : 4,
   "linker_set_key" : "_ZTIFiP6ssl_stPP16crypto_buffer_stmPKhmE",
   "name" : "int (ssl_st *, crypto_buffer_st **, unsigned long, const unsigned char *, unsigned long)",
   "parameters" :
   [
    {
     "referenced_type" : "_ZTIP6ssl_st"
    },
    {
     "referenced_type" : "_ZTIPP16crypto_buffer_st"
    },
    {
     "referenced_type" : "_ZTIm"
    },
    {
     "referenced_type" : "_ZTIPKh"
    },
    {
     "referenced_type" : "_ZTIm"
    }
   ],
   "referenced_type" : "_ZTIFiP6ssl_stPP16crypto_buffer_stmPKhmE",
   "return_type" : "_ZTIi",
   "self_type" : "_ZTIFiP6ssl_stPP16crypto_buffer_stmPKhmE",
   "source_file" : "/external/boringssl/src/include/openssl/ssl.h"
  },
  {
   "alignment" : 4,
   "linker_set_key" : "_ZTIFiP6ssl_stPP7x509_stPP11evp_pkey_stE",
   "name" : "int (ssl_st *, x509_st **, evp_pkey_st **)",
   "parameters" :
   [
    {
     "referenced_type" : "_ZTIP6ssl_st"
    },
    {
     "referenced_type" : "_ZTIPP7x509_st"
    },
    {
     "referenced_type" : "_ZTIPP11evp_pkey_st"
    }
   ],
   "referenced_type" : "_ZTIFiP6ssl_stPP7x509_stPP11evp_pkey_stE",
   "return_type" : "_ZTIi",
   "self_type" : "_ZTIFiP6ssl_stPP7x509_stPP11evp_pkey_stE",
   "source_file" : "/external/boringssl/src/include/openssl/ssl.h"
  },
  {
   "alignment" : 4,
   "linker_set_key" : "_ZTIFiP6ssl_stPPKhPhS2_jPvE",
   "name" : "int (ssl_st *, const unsigned char **, unsigned char *, const unsigned char *, unsigned int, void *)",
   "parameters" :
   [
    {
     "referenced_type" : "_ZTIP6ssl_st"
    },
    {
     "referenced_type" : "_ZTIPPKh"
    },
    {
     "referenced_type" : "_ZTIPh"
    },
    {
     "referenced_type" : "_ZTIPKh"
    },
    {
     "referenced_type" : "_ZTIj"
    },
    {
     "referenced_type" : "_ZTIPv"
    }
   ],
   "referenced_type" : "_ZTIFiP6ssl_stPPKhPhS2_jPvE",
   "return_type" : "_ZTIi",
   "self_type" : "_ZTIFiP6ssl_stPPKhPhS2_jPvE",
   "source_file" : "/external/boringssl/src/include/openssl/ssl.h"
  },
  {
   "alignment" : 4,
   "linker_set_key" : "_ZTIFiP6ssl_stPPKhPjPvE",
   "name" : "int (ssl_st *, const unsigned char **, unsigned int *, void *)",
   "parameters" :
   [
    {
     "referenced_type" : "_ZTIP6ssl_st"
    },
    {
     "referenced_type" : "_ZTIPPKh"
    },
    {
     "referenced_type" : "_ZTIPj"
    },
    {
     "referenced_type" : "_ZTIPv"
    }
   ],
   "referenced_type" : "_ZTIFiP6ssl_stPPKhPjPvE",
   "return_type" : "_ZTIi",
   "self_type" : "_ZTIFiP6ssl_stPPKhPjPvE",
   "source_file" : "/external/boringssl/src/include/openssl/ssl.h"
  },
  {
   "alignment" : 4,
   "linker_set_key" : "_ZTIFiP6ssl_stPPhS1_PKhjPvE",
   "name" : "int (ssl_st *, unsigned char **, unsigned char *, const unsigned char *, unsigned int, void *)",
   "parameters" :
   [
    {
     "referenced_type" : "_ZTIP6ssl_st"
    },
    {
     "referenced_type" : "_ZTIPPh"
    },
    {
     "referenced_type" : "_ZTIPh"
    },
    {
     "referenced_type" : "_ZTIPKh"
    },
    {
     "referenced_type" : "_ZTIj"
    },
    {
     "referenced_type" : "_ZTIPv"
    }
   ],
   "referenced_type" : "_ZTIFiP6ssl_stPPhS1_PKhjPvE",
   "return_type" : "_ZTIi",
   "self_type" : "_ZTIFiP6ssl_stPPhS1_PKhjPvE",
   "source_file" : "/external/boringssl/src/include/openssl/ssl.h"
  },
  {
   "alignment" : 4,
   "linker_set_key" : "_ZTIFiP6ssl_stPhPmmPKhmE",
   "name" : "int (ssl_st *, unsigned char *, unsigned long *, unsigned long, const unsigned char *, unsigned long)",
   "parameters" :
   [
    {
     "referenced_type" : "_ZTIP6ssl_st"
    },
    {
     "referenced_type" : "_ZTIPh"
    },
    {
     "referenced_type" : "_ZTIPm"
    },
    {
     "referenced_type" : "_ZTIm"
    },
    {
     "referenced_type" : "_ZTIPKh"
    },
    {
     "referenced_type" : "_ZTIm"
    }
   ],
   "referenced_type" : "_ZTIFiP6ssl_stPhPmmPKhmE",
   "return_type" : "_ZTIi",
   "self_type" : "_ZTIFiP6ssl_stPhPmmPKhmE",
   "source_file" : "/external/boringssl/src/include/openssl/ssl.h"
  },
  {
   "alignment" : 4,
   "linker_set_key" : "_ZTIFiP6ssl_stPhS1_P17evp_cipher_ctx_stP11hmac_ctx_stiE",
   "name" : "int (ssl_st *, unsigned char *, unsigned char *, evp_cipher_ctx_st *, hmac_ctx_st *, int)",
   "parameters" :
   [
    {
     "referenced_type" : "_ZTIP6ssl_st"
    },
    {
     "referenced_type" : "_ZTIPh"
    },
    {
     "referenced_type" : "_ZTIPh"
    },
    {
     "referenced_type" : "_ZTIP17evp_cipher_ctx_st"
    },
    {
     "referenced_type" : "_ZTIP11hmac_ctx_st"
    },
    {
     "referenced_type" : "_ZTIi"
    }
   ],
   "referenced_type" : "_ZTIFiP6ssl_stPhS1_P17evp_cipher_ctx_stP11hmac_ctx_stiE",
   "return_type" : "_ZTIi",
   "self_type" : "_ZTIFiP6ssl_stPhS1_P17evp_cipher_ctx_stP11hmac_ctx_stiE",
   "source_file" : "/external/boringssl/src/include/openssl/ssl.h"
  },
  {
   "alignment" : 4,
   "linker_set_key" : "_ZTIFiP6ssl_stPiPvE",
   "name" : "int (ssl_st *, int *, void *)",
   "parameters" :
   [
    {
     "referenced_type" : "_ZTIP6ssl_st"
    },
    {
     "referenced_type" : "_ZTIPi"
    },
    {
     "referenced_type" : "_ZTIPv"
    }
   ],
   "referenced_type" : "_ZTIFiP6ssl_stPiPvE",
   "return_type" : "_ZTIi",
   "self_type" : "_ZTIFiP6ssl_stPiPvE",
   "source_file" : "/external/boringssl/src/include/openssl/ssl.h"
  },
  {
   "alignment" : 4,
   "linker_set_key" : "_ZTIFiP6ssl_stPvE",
   "name" : "int (ssl_st *, void *)",
   "parameters" :
   [
    {
     "referenced_type" : "_ZTIP6ssl_st"
    },
    {
     "referenced_type" : "_ZTIPv"
    }
   ],
   "referenced_type" : "_ZTIFiP6ssl_stPvE",
   "return_type" : "_ZTIi",
   "self_type" : "_ZTIFiP6ssl_stPvE",
   "source_file" : "/external/boringssl/src/include/openssl/ssl.h"
  },
  {
   "alignment" : 4,
   "linker_set_key" : "_ZTIFiP9ec_key_stE",
   "name" : "int (ec_key_st *)",
   "parameters" :
   [
    {
     "referenced_type" : "_ZTIP9ec_key_st"
    }
   ],
   "referenced_type" : "_ZTIFiP9ec_key_stE",
   "return_type" : "_ZTIi",
   "self_type" : "_ZTIFiP9ec_key_stE",
   "source_file" : "/external/boringssl/src/include/openssl/ec_key.h"
  },
  {
   "alignment" : 4,
   "linker_set_key" : "_ZTIFiPK13v3_ext_methodPvP6bio_stiE",
   "name" : "int (const v3_ext_method *, void *, bio_st *, int)",
   "parameters" :
   [
    {
     "referenced_type" : "_ZTIPK13v3_ext_method"
    },
    {
     "referenced_type" : "_ZTIPv"
    },
    {
     "referenced_type" : "_ZTIP6bio_st"
    },
    {
     "referenced_type" : "_ZTIi"
    }
   ],
   "referenced_type" : "_ZTIFiPK13v3_ext_methodPvP6bio_stiE",
   "return_type" : "_ZTIi",
   "self_type" : "_ZTIFiPK13v3_ext_methodPvP6bio_stiE",
   "source_file" : "/external/boringssl/src/include/openssl/x509v3.h"
  },
  {
   "alignment" : 4,
   "linker_set_key" : "_ZTIFiPK15x509_purpose_stPK7x509_stiE",
   "name" : "int (const x509_purpose_st *, const x509_st *, int)",
   "parameters" :
   [
    {
     "referenced_type" : "_ZTIPK15x509_purpose_st"
    },
    {
     "referenced_type" : "_ZTIPK7x509_st"
    },
    {
     "referenced_type" : "_ZTIi"
    }
   ],
   "referenced_type" : "_ZTIFiPK15x509_purpose_stPK7x509_stiE",
   "return_type" : "_ZTIi",
   "self_type" : "_ZTIFiPK15x509_purpose_stPK7x509_stiE",
   "source_file" : "/external/boringssl/src/include/openssl/x509v3.h"
  },
  {
   "alignment" : 4,
   "linker_set_key" : "_ZTIFiPK22ssl_early_callback_ctxE",
   "name" : "int (const ssl_early_callback_ctx *)",
   "parameters" :
   [
    {
     "referenced_type" : "_ZTIPK22ssl_early_callback_ctx"
    }
   ],
   "referenced_type" : "_ZTIFiPK22ssl_early_callback_ctxE",
   "return_type" : "_ZTIi",
   "self_type" : "_ZTIFiPK22ssl_early_callback_ctxE",
   "source_file" : "/external/boringssl/src/include/openssl/ssl.h"
  },
  {
   "alignment" : 4,
   "linker_set_key" : "_ZTIFiPKPcS1_E",
   "name" : "int (char *const *, char *const *)",
   "parameters" :
   [
    {
     "referenced_type" : "_ZTIPKPc"
    },
    {
     "referenced_type" : "_ZTIPKPc"
    }
   ],
   "referenced_type" : "_ZTIFiPKPcS1_E",
   "return_type" : "_ZTIi",
   "self_type" : "_ZTIFiPKPcS1_E",
   "source_file" : "/external/boringssl/src/include/openssl/stack.h"
  },
  {
   "alignment" : 4,
   "linker_set_key" : "_ZTIFiPKhmPhPjP9ec_key_stE",
   "name" : "int (const unsigned char *, unsigned long, unsigned char *, unsigned int *, ec_key_st *)",
   "parameters" :
   [
    {
     "referenced_type" : "_ZTIPKh"
    },
    {
     "referenced_type" : "_ZTIm"
    },
    {
     "referenced_type" : "_ZTIPh"
    },
    {
     "referenced_type" : "_ZTIPj"
    },
    {
     "referenced_type" : "_ZTIP9ec_key_st"
    }
   ],
   "referenced_type" : "_ZTIFiPKhmPhPjP9ec_key_stE",
   "return_type" : "_ZTIi",
   "self_type" : "_ZTIFiPKhmPhPjP9ec_key_stE",
   "source_file" : "/external/boringssl/src/include/openssl/ec_key.h"
  },
  {
   "alignment" : 4,
   "linker_set_key" : "_ZTIFiPP7x509_stP17x509_store_ctx_stS0_E",
   "name" : "int (x509_st **, x509_store_ctx_st *, x509_st *)",
   "parameters" :
   [
    {
     "referenced_type" : "_ZTIPP7x509_st"
    },
    {
     "referenced_type" : "_ZTIP17x509_store_ctx_st"
    },
    {
     "referenced_type" : "_ZTIP7x509_st"
    }
   ],
   "referenced_type" : "_ZTIFiPP7x509_stP17x509_store_ctx_stS0_E",
   "return_type" : "_ZTIi",
   "self_type" : "_ZTIFiPP7x509_stP17x509_store_ctx_stS0_E",
   "source_file" : "/external/boringssl/src/include/openssl/x509_vfy.h"
  },
  {
   "alignment" : 4,
   "linker_set_key" : "_ZTIFiPPK11SXNET_ID_stS2_E",
   "name" : "int (const SXNET_ID_st **, const SXNET_ID_st **)",
   "parameters" :
   [
    {
     "referenced_type" : "_ZTIPPK11SXNET_ID_st"
    },
    {
     "referenced_type" : "_ZTIPPK11SXNET_ID_st"
    }
   ],
   "referenced_type" : "_ZTIFiPPK11SXNET_ID_stS2_E",
   "return_type" : "_ZTIi",
   "self_type" : "_ZTIFiPPK11SXNET_ID_stS2_E",
   "source_file" : "/external/boringssl/src/include/openssl/x509v3.h"
  },
  {
   "alignment" : 4,
   "linker_set_key" : "_ZTIFiPPK11X509_crl_stS2_E",
   "name" : "int (const X509_crl_st **, const X509_crl_st **)",
   "parameters" :
   [
    {
     "referenced_type" : "_ZTIPPK11X509_crl_st"
    },
    {
     "referenced_type" : "_ZTIPPK11X509_crl_st"
    }
   ],
   "referenced_type" : "_ZTIFiPPK11X509_crl_stS2_E",
   "return_type" : "_ZTIi",
   "self_type" : "_ZTIFiPPK11X509_crl_stS2_E",
   "source_file" : "/external/boringssl/src/include/openssl/x509.h"
  },
  {
   "alignment" : 4,
   "linker_set_key" : "_ZTIFiPPK11ssl_comp_stS2_E",
   "name" : "int (const ssl_comp_st **, const ssl_comp_st **)",
   "parameters" :
   [
    {
     "referenced_type" : "_ZTIPPK11ssl_comp_st"
    },
    {
     "referenced_type" : "_ZTIPPK11ssl_comp_st"
    }
   ],
   "referenced_type" : "_ZTIFiPPK11ssl_comp_stS2_E",
   "return_type" : "_ZTIi",
   "self_type" : "_ZTIFiPPK11ssl_comp_stS2_E",
   "source_file" : "/external/boringssl/src/include/openssl/ssl.h"
  },
  {
   "alignment" : 4,
   "linker_set_key" : "_ZTIFiPPK12X509_info_stS2_E",
   "name" : "int (const X509_info_st **, const X509_info_st **)",
   "parameters" :
   [
    {
     "referenced_type" : "_ZTIPPK12X509_info_st"
    },
    {
     "referenced_type" : "_ZTIPPK12X509_info_st"
    }
   ],
   "referenced_type" : "_ZTIFiPPK12X509_info_stS2_E",
   "return_type" : "_ZTIi",
   "self_type" : "_ZTIFiPPK12X509_info_stS2_E",
   "source_file" : "/external/boringssl/src/include/openssl/x509.h"
  },
  {
   "alignment" : 4,
   "linker_set_key" : "_ZTIFiPPK12X509_name_stS2_E",
   "name" : "int (const X509_name_st **, const X509_name_st **)",
   "parameters" :
   [
    {
     "referenced_type" : "_ZTIPPK12X509_name_st"
    },
    {
     "referenced_type" : "_ZTIPPK12X509_name_st"
    }
   ],
   "referenced_type" : "_ZTIFiPPK12X509_name_stS2_E",
   "return_type" : "_ZTIi",
   "self_type" : "_ZTIFiPPK12X509_name_stS2_E",
   "source_file" : "/external/boringssl/src/include/openssl/x509.h"
  },
  {
   "alignment" : 4,
   "linker_set_key" : "_ZTIFiPPK12asn1_type_stS2_E",
   "name" : "int (const asn1_type_st **, const asn1_type_st **)",
   "parameters" :
   [
    {
     "referenced_type" : "_ZTIPPK12asn1_type_st"
    },
    {
     "referenced_type" : "_ZTIPPK12asn1_type_st"
    }
   ],
   "referenced_type" : "_ZTIFiPPK12asn1_type_stS2_E",
   "return_type" : "_ZTIi",
   "self_type" : "_ZTIFiPPK12asn1_type_stS2_E",
   "source_file" : "/external/boringssl/src/include/openssl/asn1.h"
  },
  {
   "alignment" : 4,
   "linker_set_key" : "_ZTIFiPPK13DIST_POINT_stS2_E",
   "name" : "int (const DIST_POINT_st **, const DIST_POINT_st **)",
   "parameters" :
   [
    {
     "referenced_type" : "_ZTIPPK13DIST_POINT_st"
    },
    {
     "referenced_type" : "_ZTIPPK13DIST_POINT_st"
    }
   ],
   "referenced_type" : "_ZTIFiPPK13DIST_POINT_stS2_E",
   "return_type" : "_ZTIi",
   "self_type" : "_ZTIFiPPK13DIST_POINT_stS2_E",
   "source_file" : "/external/boringssl/src/include/openssl/x509v3.h"
  },
  {
   "alignment" : 4,
   "linker_set_key" : "_ZTIFiPPK13POLICYINFO_stS2_E",
   "name" : "int (const POLICYINFO_st **, const POLICYINFO_st **)",
   "parameters" :
   [
    {
     "referenced_type" : "_ZTIPPK13POLICYINFO_st"
    },
    {
     "referenced_type" : "_ZTIPPK13POLICYINFO_st"
    }
   ],
   "referenced_type" : "_ZTIFiPPK13POLICYINFO_stS2_E",
   "return_type" : "_ZTIi",
   "self_type" : "_ZTIFiPPK13POLICYINFO_stS2_E",
   "source_file" : "/external/boringssl/src/include/openssl/x509v3.h"
  },
  {
   "alignment" : 4,
   "linker_set_key" : "_ZTIFiPPK13X509_algor_stS2_E",
   "name" : "int (const X509_algor_st **, const X509_algor_st **)",
   "parameters" :
   [
    {
     "referenced_type" : "_ZTIPPK13X509_algor_st"
    },
    {
     "referenced_type" : "_ZTIPPK13X509_algor_st"
    }
   ],
   "referenced_type" : "_ZTIFiPPK13X509_algor_stS2_E",
   "return_type" : "_ZTIi",
   "self_type" : "_ZTIFiPPK13X509_algor_stS2_E",
   "source_file" : "/external/boringssl/src/include/openssl/x509.h"
  },
  {
   "alignment" : 4,
   "linker_set_key" : "_ZTIFiPPK13conf_value_stS2_E",
   "name" : "int (const conf_value_st **, const conf_value_st **)",
   "parameters" :
   [
    {
     "referenced_type" : "_ZTIPPK13conf_value_st"
    },
    {
     "referenced_type" : "_ZTIPPK13conf_value_st"
    }
   ],
   "referenced_type" : "_ZTIFiPPK13conf_value_stS2_E",
   "return_type" : "_ZTIi",
   "self_type" : "_ZTIFiPPK13conf_value_stS2_E",
   "source_file" : "/external/boringssl/src/include/openssl/conf.h"
  },
  {
   "alignment" : 4,
   "linker_set_key" : "_ZTIFiPPK13ssl_cipher_stS2_E",
   "name" : "int (const ssl_cipher_st **, const ssl_cipher_st **)",
   "parameters" :
   [
    {
     "referenced_type" : "_ZTIPPK13ssl_cipher_st"
    },
    {
     "referenced_type" : "_ZTIPPK13ssl_cipher_st"
    }
   ],
   "referenced_type" : "_ZTIFiPPK13ssl_cipher_stS2_E",
   "return_type" : "_ZTIi",
   "self_type" : "_ZTIFiPPK13ssl_cipher_stS2_E",
   "source_file" : "/external/boringssl/src/include/openssl/ssl.h"
  },
  {
   "alignment" : 4,
   "linker_set_key" : "_ZTIFiPPK13v3_ext_methodS2_E",
   "name" : "int (const v3_ext_method **, const v3_ext_method **)",
   "parameters" :
   [
    {
     "referenced_type" : "_ZTIPPK13v3_ext_method"
    },
    {
     "referenced_type" : "_ZTIPPK13v3_ext_method"
    }
   ],
   "referenced_type" : "_ZTIFiPPK13v3_ext_methodS2_E",
   "return_type" : "_ZTIi",
   "self_type" : "_ZTIFiPPK13v3_ext_methodS2_E",
   "source_file" : "/external/boringssl/src/include/openssl/x509v3.h"
  },
  {
   "alignment" : 4,
   "linker_set_key" : "_ZTIFiPPK13x509_trust_stS2_E",
   "name" : "int (const x509_trust_st **, const x509_trust_st **)",
   "parameters" :
   [
    {
     "referenced_type" : "_ZTIPPK13x509_trust_st"
    },
    {
     "referenced_type" : "_ZTIPPK13x509_trust_st"
    }
   ],
   "referenced_type" : "_ZTIFiPPK13x509_trust_stS2_E",
   "return_type" : "_ZTIi",
   "self_type" : "_ZTIFiPPK13x509_trust_stS2_E",
   "source_file" : "/external/boringssl/src/include/openssl/x509.h"
  },
  {
   "alignment" : 4,
   "linker_set_key" : "_ZTIFiPPK14asn1_object_stS2_E",
   "name" : "int (const asn1_object_st **, const asn1_object_st **)",
   "parameters" :
   [
    {
     "referenced_type" : "_ZTIPPK14asn1_object_st"
    },
    {
     "referenced_type" : "_ZTIPPK14asn1_object_st"
    }
   ],
   "referenced_type" : "_ZTIFiPPK14asn1_object_stS2_E",
   "return_type" : "_ZTIi",
   "self_type" : "_ZTIFiPPK14asn1_object_stS2_E",
   "source_file" : "/external/boringssl/src/include/openssl/asn1.h"
  },
  {
   "alignment" : 4,
   "linker_set_key" : "_ZTIFiPPK14asn1_string_stS2_E",
   "name" : "int (const asn1_string_st **, const asn1_string_st **)",
   "parameters" :
   [
    {
     "referenced_type" : "_ZTIPPK14asn1_string_st"
    },
    {
     "referenced_type" : "_ZTIPPK14asn1_string_st"
    }
   ],
   "referenced_type" : "_ZTIFiPPK14asn1_string_stS2_E",
   "return_type" : "_ZTIi",
   "self_type" : "_ZTIFiPPK14asn1_string_stS2_E",
   "source_file" : "/external/boringssl/src/include/openssl/asn1.h"
  },
  {
   "alignment" : 4,
   "linker_set_key" : "_ZTIFiPPK14x509_lookup_stS2_E",
   "name" : "int (const x509_lookup_st **, const x509_lookup_st **)",
   "parameters" :
   [
    {
     "referenced_type" : "_ZTIPPK14x509_lookup_st"
    },
    {
     "referenced_type" : "_ZTIPPK14x509_lookup_st"
    }
   ],
   "referenced_type" : "_ZTIFiPPK14x509_lookup_stS2_E",
   "return_type" : "_ZTIi",
   "self_type" : "_ZTIFiPPK14x509_lookup_stS2_E",
   "source_file" : "/external/boringssl/src/include/openssl/x509_vfy.h"
  },
  {
   "alignment" : 4,
   "linker_set_key" : "_ZTIFiPPK14x509_object_stS2_E",
   "name" : "int (const x509_object_st **, const x509_object_st **)",
   "parameters" :
   [
    {
     "referenced_type" : "_ZTIPPK14x509_object_st"
    },
    {
     "referenced_type" : "_ZTIPPK14x509_object_st"
    }
   ],
   "referenced_type" : "_ZTIFiPPK14x509_object_stS2_E",
   "return_type" : "_ZTIi",
   "self_type" : "_ZTIFiPPK14x509_object_stS2_E",
   "source_file" : "/external/boringssl/src/include/openssl/x509_vfy.h"
  },
  {
   "alignment" : 4,
   "linker_set_key" : "_ZTIFiPPK15GENERAL_NAME_stS2_E",
   "name" : "int (const GENERAL_NAME_st **, const GENERAL_NAME_st **)",
   "parameters" :
   [
    {
     "referenced_type" : "_ZTIPPK15GENERAL_NAME_st"
    },
    {
     "referenced_type" : "_ZTIPPK15GENERAL_NAME_st"
    }
   ],
   "referenced_type" : "_ZTIFiPPK15GENERAL_NAME_stS2_E",
   "return_type" : "_ZTIi",
   "self_type" : "_ZTIFiPPK15GENERAL_NAME_stS2_E",
   "source_file" : "/external/boringssl/src/include/openssl/x509v3.h"
  },
  {
   "alignment" : 4,
   "linker_set_key" : "_ZTIFiPPK15x509_purpose_stS2_E",
   "name" : "int (const x509_purpose_st **, const x509_purpose_st **)",
   "parameters" :
   [
    {
     "referenced_type" : "_ZTIPPK15x509_purpose_st"
    },
    {
     "referenced_type" : "_ZTIPPK15x509_purpose_st"
    }
   ],
   "referenced_type" : "_ZTIFiPPK15x509_purpose_stS2_E",
   "return_type" : "_ZTIi",
   "self_type" : "_ZTIFiPPK15x509_purpose_stS2_E",
   "source_file" : "/external/boringssl/src/include/openssl/x509v3.h"
  },
  {
   "alignment" : 4,
   "linker_set_key" : "_ZTIFiPPK15x509_revoked_stS2_E",
   "name" : "int (const x509_revoked_st **, const x509_revoked_st **)",
   "parameters" :
   [
    {
     "referenced_type" : "_ZTIPPK15x509_revoked_st"
    },
    {
     "referenced_type" : "_ZTIPPK15x509_revoked_st"
    }
   ],
   "referenced_type" : "_ZTIFiPPK15x509_revoked_stS2_E",
   "return_type" : "_ZTIi",
   "self_type" : "_ZTIFiPPK15x509_revoked_stS2_E",
   "source_file" : "/external/boringssl/src/include/openssl/x509.h"
  },
  {
   "alignment" : 4,
   "linker_set_key" : "_ZTIFiPPK16crypto_buffer_stS2_E",
   "name" : "int (const crypto_buffer_st **, const crypto_buffer_st **)",
   "parameters" :
   [
    {
     "referenced_type" : "_ZTIPPK16crypto_buffer_st"
    },
    {
     "referenced_type" : "_ZTIPPK16crypto_buffer_st"
    }
   ],
   "referenced_type" : "_ZTIFiPPK16crypto_buffer_stS2_E",
   "return_type" : "_ZTIi",
   "self_type" : "_ZTIFiPPK16crypto_buffer_stS2_E",
   "source_file" : "/external/boringssl/src/include/openssl/pool.h"
  },
  {
   "alignment" : 4,
   "linker_set_key" : "_ZTIFiPPK17POLICYQUALINFO_stS2_E",
   "name" : "int (const POLICYQUALINFO_st **, const POLICYQUALINFO_st **)",
   "parameters" :
   [
    {
     "referenced_type" : "_ZTIPPK17POLICYQUALINFO_st"
    },
    {
     "referenced_type" : "_ZTIPPK17POLICYQUALINFO_st"
    }
   ],
   "referenced_type" : "_ZTIFiPPK17POLICYQUALINFO_stS2_E",
   "return_type" : "_ZTIi",
   "self_type" : "_ZTIFiPPK17POLICYQUALINFO_stS2_E",
   "source_file" : "/external/boringssl/src/include/openssl/x509v3.h"
  },
  {
   "alignment" : 4,
   "linker_set_key" : "_ZTIFiPPK17POLICY_MAPPING_stS2_E",
   "name" : "int (const POLICY_MAPPING_st **, const POLICY_MAPPING_st **)",
   "parameters" :
   [
    {
     "referenced_type" : "_ZTIPPK17POLICY_MAPPING_st"
    },
    {
     "referenced_type" : "_ZTIPPK17POLICY_MAPPING_st"
    }
   ],
   "referenced_type" : "_ZTIFiPPK17POLICY_MAPPING_stS2_E",
   "return_type" : "_ZTIi",
   "self_type" : "_ZTIFiPPK17POLICY_MAPPING_stS2_E",
   "source_file" : "/external/boringssl/src/include/openssl/x509v3.h"
  },
  {
   "alignment" : 4,
   "linker_set_key" : "_ZTIFiPPK17X509_extension_stS2_E",
   "name" : "int (const X509_extension_st **, const X509_extension_st **)",
   "parameters" :
   [
    {
     "referenced_type" : "_ZTIPPK17X509_extension_st"
    },
    {
     "referenced_type" : "_ZTIPPK17X509_extension_st"
    }
   ],
   "referenced_type" : "_ZTIFiPPK17X509_extension_stS2_E",
   "return_type" : "_ZTIi",
   "self_type" : "_ZTIFiPPK17X509_extension_stS2_E",
   "source_file" : "/external/boringssl/src/include/openssl/x509.h"
  },
  {
   "alignment" : 4,
   "linker_set_key" : "_ZTIFiPPK18GENERAL_SUBTREE_stS2_E",
   "name" : "int (const GENERAL_SUBTREE_st **, const GENERAL_SUBTREE_st **)",
   "parameters" :
   [
    {
     "referenced_type" : "_ZTIPPK18GENERAL_SUBTREE_st"
    },
    {
     "referenced_type" : "_ZTIPPK18GENERAL_SUBTREE_st"
    }
   ],
   "referenced_type" : "_ZTIFiPPK18GENERAL_SUBTREE_stS2_E",
   "return_type" : "_ZTIi",
   "self_type" : "_ZTIFiPPK18GENERAL_SUBTREE_stS2_E",
   "source_file" : "/external/boringssl/src/include/openssl/x509v3.h"
  },
  {
   "alignment" : 4,
   "linker_set_key" : "_ZTIFiPPK18X509_name_entry_stS2_E",
   "name" : "int (const X509_name_entry_st **, const X509_name_entry_st **)",
   "parameters" :
   [
    {
     "referenced_type" : "_ZTIPPK18X509_name_entry_st"
    },
    {
     "referenced_type" : "_ZTIPPK18X509_name_entry_st"
    }
   ],
   "referenced_type" : "_ZTIFiPPK18X509_name_entry_stS2_E",
   "return_type" : "_ZTIi",
   "self_type" : "_ZTIFiPPK18X509_name_entry_stS2_E",
   "source_file" : "/external/boringssl/src/include/openssl/x509.h"
  },
  {
   "alignment" : 4,
   "linker_set_key" : "_ZTIFiPPK18x509_attributes_stS2_E",
   "name" : "int (const x509_attributes_st **, const x509_attributes_st **)",
   "parameters" :
   [
    {
     "referenced_type" : "_ZTIPPK18x509_attributes_st"
    },
    {
     "referenced_type" : "_ZTIPPK18x509_attributes_st"
    }
   ],
   "referenced_type" : "_ZTIFiPPK18x509_attributes_stS2_E",
   "return_type" : "_ZTIi",
   "self_type" : "_ZTIFiPPK18x509_attributes_stS2_E",
   "source_file" : "/external/boringssl/src/include/openssl/x509.h"
  },
  {
   "alignment" : 4,
   "linker_set_key" : "_ZTIFiPPK19X509_POLICY_NODE_stS2_E",
   "name" : "int (const X509_POLICY_NODE_st **, const X509_POLICY_NODE_st **)",
   "parameters" :
   [
    {
     "referenced_type" : "_ZTIPPK19X509_POLICY_NODE_st"
    },
    {
     "referenced_type" : "_ZTIPPK19X509_POLICY_NODE_st"
    }
   ],
   "referenced_type" : "_ZTIFiPPK19X509_POLICY_NODE_stS2_E",
   "return_type" : "_ZTIi",
   "self_type" : "_ZTIFiPPK19X509_POLICY_NODE_stS2_E",
   "source_file" : "/external/boringssl/src/include/openssl/x509v3.h"
  },
  {
   "alignment" : 4,
   "linker_set_key" : "_ZTIFiPPK20X509_VERIFY_PARAM_stS2_E",
   "name" : "int (const X509_VERIFY_PARAM_st **, const X509_VERIFY_PARAM_st **)",
   "parameters" :
   [
    {
     "referenced_type" : "_ZTIPPK20X509_VERIFY_PARAM_st"
    },
    {
     "referenced_type" : "_ZTIPPK20X509_VERIFY_PARAM_st"
    }
   ],
   "referenced_type" : "_ZTIFiPPK20X509_VERIFY_PARAM_stS2_E",
   "return_type" : "_ZTIi",
   "self_type" : "_ZTIFiPPK20X509_VERIFY_PARAM_stS2_E",
   "source_file" : "/external/boringssl/src/include/openssl/x509_vfy.h"
  },
  {
   "alignment" : 4,
   "linker_set_key" : "_ZTIFiPPK21ACCESS_DESCRIPTION_stS2_E",
   "name" : "int (const ACCESS_DESCRIPTION_st **, const ACCESS_DESCRIPTION_st **)",
   "parameters" :
   [
    {
     "referenced_type" : "_ZTIPPK21ACCESS_DESCRIPTION_st"
    },
    {
     "referenced_type" : "_ZTIPPK21ACCESS_DESCRIPTION_st"
    }
   ],
   "referenced_type" : "_ZTIFiPPK21ACCESS_DESCRIPTION_stS2_E",
   "return_type" : "_ZTIi",
   "self_type" : "_ZTIFiPPK21ACCESS_DESCRIPTION_stS2_E",
   "source_file" : "/external/boringssl/src/include/openssl/x509v3.h"
  },
  {
   "alignment" : 4,
   "linker_set_key" : "_ZTIFiPPK21stack_st_GENERAL_NAMES2_E",
   "name" : "int (const stack_st_GENERAL_NAME **, const stack_st_GENERAL_NAME **)",
   "parameters" :
   [
    {
     "referenced_type" : "_ZTIPPK21stack_st_GENERAL_NAME"
    },
    {
     "referenced_type" : "_ZTIPPK21stack_st_GENERAL_NAME"
    }
   ],
   "referenced_type" : "_ZTIFiPPK21stack_st_GENERAL_NAMES2_E",
   "return_type" : "_ZTIi",
   "self_type" : "_ZTIFiPPK21stack_st_GENERAL_NAMES2_E",
   "source_file" : "/external/boringssl/src/include/openssl/x509v3.h"
  },
  {
   "alignment" : 4,
   "linker_set_key" : "_ZTIFiPPK26srtp_protection_profile_stS2_E",
   "name" : "int (const srtp_protection_profile_st **, const srtp_protection_profile_st **)",
   "parameters" :
   [
    {
     "referenced_type" : "_ZTIPPK26srtp_protection_profile_st"
    },
    {
     "referenced_type" : "_ZTIPPK26srtp_protection_profile_st"
    }
   ],
   "referenced_type" : "_ZTIFiPPK26srtp_protection_profile_stS2_E",
   "return_type" : "_ZTIi",
   "self_type" : "_ZTIFiPPK26srtp_protection_profile_stS2_E",
   "source_file" : "/external/boringssl/src/include/openssl/ssl.h"
  },
  {
   "alignment" : 4,
   "linker_set_key" : "_ZTIFiPPK6bio_stS2_E",
   "name" : "int (const bio_st **, const bio_st **)",
   "parameters" :
   [
    {
     "referenced_type" : "_ZTIPPK6bio_st"
    },
    {
     "referenced_type" : "_ZTIPPK6bio_st"
    }
   ],
   "referenced_type" : "_ZTIFiPPK6bio_stS2_E",
   "return_type" : "_ZTIi",
   "self_type" : "_ZTIFiPPK6bio_stS2_E",
   "source_file" : "/external/boringssl/src/include/openssl/bio.h"
  },
  {
   "alignment" : 4,
   "linker_set_key" : "_ZTIFiPPK7x509_stS2_E",
   "name" : "int (const x509_st **, const x509_st **)",
   "parameters" :
   [
    {
     "referenced_type" : "_ZTIPPK7x509_st"
    },
    {
     "referenced_type" : "_ZTIPPK7x509_st"
    }
   ],
   "referenced_type" : "_ZTIFiPPK7x509_stS2_E",
   "return_type" : "_ZTIi",
   "self_type" : "_ZTIFiPPK7x509_stS2_E",
   "source_file" : "/external/boringssl/src/include/openssl/x509.h"
  },
  {
   "alignment" : 4,
   "linker_set_key" : "_ZTIFiPPKvS1_E",
   "name" : "int (const void **, const void **)",
   "parameters" :
   [
    {
     "referenced_type" : "_ZTIPPKv"
    },
    {
     "referenced_type" : "_ZTIPPKv"
    }
   ],
   "referenced_type" : "_ZTIFiPPKvS1_E",
   "return_type" : "_ZTIi",
   "self_type" : "_ZTIFiPPKvS1_E",
   "source_file" : "/external/boringssl/src/include/openssl/stack.h"
  },
  {
   "alignment" : 4,
   "linker_set_key" : "_ZTIFiPciiPvE",
   "name" : "int (char *, int, int, void *)",
   "parameters" :
   [
    {
     "referenced_type" : "_ZTIPc"
    },
    {
     "referenced_type" : "_ZTIi"
    },
    {
     "referenced_type" : "_ZTIi"
    },
    {
     "referenced_type" : "_ZTIPv"
    }
   ],
   "referenced_type" : "_ZTIFiPciiPvE",
   "return_type" : "_ZTIi",
   "self_type" : "_ZTIFiPciiPvE",
   "source_file" : "/external/boringssl/src/include/openssl/ssl.h"
  },
  {
   "alignment" : 4,
   "linker_set_key" : "_ZTIFiPhmE",
   "name" : "int (unsigned char *, unsigned long)",
   "parameters" :
   [
    {
     "referenced_type" : "_ZTIPh"
    },
    {
     "referenced_type" : "_ZTIm"
    }
   ],
   "referenced_type" : "_ZTIFiPhmE",
   "return_type" : "_ZTIi",
   "self_type" : "_ZTIFiPhmE",
   "source_file" : "/external/boringssl/src/include/openssl/rand.h"
  },
  {
   "alignment" : 4,
   "linker_set_key" : "_ZTIFiPvPPhE",
   "name" : "int (void *, unsigned char **)",
   "parameters" :
   [
    {
     "referenced_type" : "_ZTIPv"
    },
    {
     "referenced_type" : "_ZTIPPh"
    }
   ],
   "referenced_type" : "_ZTIFiPvPPhE",
   "return_type" : "_ZTIi",
   "self_type" : "_ZTIFiPvPPhE",
   "source_file" : "/external/boringssl/src/include/openssl/x509v3.h"
  },
  {
   "alignment" : 4,
   "linker_set_key" : "_ZTIFiiP17x509_store_ctx_stE",
   "name" : "int (int, x509_store_ctx_st *)",
   "parameters" :
   [
    {
     "referenced_type" : "_ZTIi"
    },
    {
     "referenced_type" : "_ZTIP17x509_store_ctx_st"
    }
   ],
   "referenced_type" : "_ZTIFiiP17x509_store_ctx_stE",
   "return_type" : "_ZTIi",
   "self_type" : "_ZTIFiiP17x509_store_ctx_stE",
   "source_file" : "/external/boringssl/src/include/openssl/x509_vfy.h"
  },
  {
   "alignment" : 4,
   "linker_set_key" : "_ZTIFiiPKhjPhPjPK6rsa_stE",
   "name" : "int (int, const unsigned char *, unsigned int, unsigned char *, unsigned int *, const rsa_st *)",
   "parameters" :
   [
    {
     "referenced_type" : "_ZTIi"
    },
    {
     "referenced_type" : "_ZTIPKh"
    },
    {
     "referenced_type" : "_ZTIj"
    },
    {
     "referenced_type" : "_ZTIPh"
    },
    {
     "referenced_type" : "_ZTIPj"
    },
    {
     "referenced_type" : "_ZTIPK6rsa_st"
    }
   ],
   "referenced_type" : "_ZTIFiiPKhjPhPjPK6rsa_stE",
   "return_type" : "_ZTIi",
   "self_type" : "_ZTIFiiPKhjPhPjPK6rsa_stE",
   "source_file" : "/external/boringssl/src/include/openssl/rsa.h"
  },
  {
   "alignment" : 4,
   "linker_set_key" : "_ZTIFiiiP11bn_gencb_stE",
   "name" : "int (int, int, bn_gencb_st *)",
   "parameters" :
   [
    {
     "referenced_type" : "_ZTIi"
    },
    {
     "referenced_type" : "_ZTIi"
    },
    {
     "referenced_type" : "_ZTIP11bn_gencb_st"
    }
   ],
   "referenced_type" : "_ZTIFiiiP11bn_gencb_stE",
   "return_type" : "_ZTIi",
   "self_type" : "_ZTIFiiiP11bn_gencb_stE",
   "source_file" : "/external/boringssl/src/include/openssl/bn.h"
  },
  {
   "alignment" : 4,
   "linker_set_key" : "_ZTIFivE",
   "name" : "int ()",
   "referenced_type" : "_ZTIFivE",
   "return_type" : "_ZTIi",
   "self_type" : "_ZTIFivE",
   "source_file" : "/external/boringssl/src/include/openssl/rand.h"
  },
  {
   "alignment" : 4,
   "linker_set_key" : "_ZTIFjP6ssl_stPKcPcjPhjE",
   "name" : "unsigned int (ssl_st *, const char *, char *, unsigned int, unsigned char *, unsigned int)",
   "parameters" :
   [
    {
     "referenced_type" : "_ZTIP6ssl_st"
    },
    {
     "referenced_type" : "_ZTIPKc"
    },
    {
     "referenced_type" : "_ZTIPc"
    },
    {
     "referenced_type" : "_ZTIj"
    },
    {
     "referenced_type" : "_ZTIPh"
    },
    {
     "referenced_type" : "_ZTIj"
    }
   ],
   "referenced_type" : "_ZTIFjP6ssl_stPKcPcjPhjE",
   "return_type" : "_ZTIj",
   "self_type" : "_ZTIFjP6ssl_stPKcPcjPhjE",
   "source_file" : "/external/boringssl/src/include/openssl/ssl.h"
  },
  {
   "alignment" : 4,
   "linker_set_key" : "_ZTIFjP6ssl_stPKcPhjE",
   "name" : "unsigned int (ssl_st *, const char *, unsigned char *, unsigned int)",
   "parameters" :
   [
    {
     "referenced_type" : "_ZTIP6ssl_st"
    },
    {
     "referenced_type" : "_ZTIPKc"
    },
    {
     "referenced_type" : "_ZTIPh"
    },
    {
     "referenced_type" : "_ZTIj"
    }
   ],
   "referenced_type" : "_ZTIFjP6ssl_stPKcPhjE",
   "return_type" : "_ZTIj",
   "self_type" : "_ZTIFjP6ssl_stPKcPhjE",
   "source_file" : "/external/boringssl/src/include/openssl/ssl.h"
  },
  {
   "alignment" : 4,
   "linker_set_key" : "_ZTIFlP6bio_stiPFlS0_iPKcillEE",
   "name" : "long (bio_st *, int, long (*)(bio_st *, int, const char *, int, long, long))",
   "parameters" :
   [
    {
     "referenced_type" : "_ZTIP6bio_st"
    },
    {
     "referenced_type" : "_ZTIi"
    },
    {
     "referenced_type" : "_ZTIPFlP6bio_stiPKcillE"
    }
   ],
   "referenced_type" : "_ZTIFlP6bio_stiPFlS0_iPKcillEE",
   "return_type" : "_ZTIl",
   "self_type" : "_ZTIFlP6bio_stiPFlS0_iPKcillEE",
   "source_file" : "/external/boringssl/src/include/openssl/bio.h"
  },
  {
   "alignment" : 4,
   "linker_set_key" : "_ZTIFlP6bio_stiPKcillE",
   "name" : "long (bio_st *, int, const char *, int, long, long)",
   "parameters" :
   [
    {
     "referenced_type" : "_ZTIP6bio_st"
    },
    {
     "referenced_type" : "_ZTIi"
    },
    {
     "referenced_type" : "_ZTIPKc"
    },
    {
     "referenced_type" : "_ZTIi"
    },
    {
     "referenced_type" : "_ZTIl"
    },
    {
     "referenced_type" : "_ZTIl"
    }
   ],
   "referenced_type" : "_ZTIFlP6bio_stiPKcillE",
   "return_type" : "_ZTIl",
   "self_type" : "_ZTIFlP6bio_stiPKcillE",
   "source_file" : "/external/boringssl/src/include/openssl/bio.h"
  },
  {
   "alignment" : 4,
   "linker_set_key" : "_ZTIFlP6bio_stilPvE",
   "name" : "long (bio_st *, int, long, void *)",
   "parameters" :
   [
    {
     "referenced_type" : "_ZTIP6bio_st"
    },
    {
     "referenced_type" : "_ZTIi"
    },
    {
     "referenced_type" : "_ZTIl"
    },
    {
     "referenced_type" : "_ZTIPv"
    }
   ],
   "referenced_type" : "_ZTIFlP6bio_stilPvE",
   "return_type" : "_ZTIl",
   "self_type" : "_ZTIFlP6bio_stilPvE",
   "source_file" : "/external/boringssl/src/include/openssl/bio.h"
  },
  {
   "alignment" : 4,
   "linker_set_key" : "_ZTIFmP6ssl_stE",
   "name" : "unsigned long (ssl_st *)",
   "parameters" :
   [
    {
     "referenced_type" : "_ZTIP6ssl_st"
    }
   ],
   "referenced_type" : "_ZTIFmP6ssl_stE",
   "return_type" : "_ZTIm",
   "self_type" : "_ZTIFmP6ssl_stE",
   "source_file" : "/external/boringssl/src/include/openssl/ssl.h"
  },
  {
   "alignment" : 4,
   "linker_set_key" : "_ZTIFmPK6rsa_stE",
   "name" : "unsigned long (const rsa_st *)",
   "parameters" :
   [
    {
     "referenced_type" : "_ZTIPK6rsa_st"
    }
   ],
   "referenced_type" : "_ZTIFmPK6rsa_stE",
   "return_type" : "_ZTIm",
   "self_type" : "_ZTIFmPK6rsa_stE",
   "source_file" : "/external/boringssl/src/include/openssl/rsa.h"
  },
  {
   "alignment" : 4,
   "linker_set_key" : "_ZTIFmPK9ec_key_stE",
   "name" : "unsigned long (const ec_key_st *)",
   "parameters" :
   [
    {
     "referenced_type" : "_ZTIPK9ec_key_st"
    }
   ],
   "referenced_type" : "_ZTIFmPK9ec_key_stE",
   "return_type" : "_ZTIm",
   "self_type" : "_ZTIFmPK9ec_key_stE",
   "source_file" : "/external/boringssl/src/include/openssl/ec_key.h"
  },
  {
   "alignment" : 4,
   "linker_set_key" : "_ZTIFvP10ssl_ctx_stP14ssl_session_stE",
   "name" : "void (ssl_ctx_st *, ssl_session_st *)",
   "parameters" :
   [
    {
     "referenced_type" : "_ZTIP10ssl_ctx_st"
    },
    {
     "referenced_type" : "_ZTIP14ssl_session_st"
    }
   ],
   "referenced_type" : "_ZTIFvP10ssl_ctx_stP14ssl_session_stE",
   "return_type" : "_ZTIv",
   "self_type" : "_ZTIFvP10ssl_ctx_stP14ssl_session_stE",
   "source_file" : "/external/boringssl/src/include/openssl/ssl.h"
  },
  {
   "alignment" : 4,
   "linker_set_key" : "_ZTIFvP11SXNET_ID_stE",
   "name" : "void (SXNET_ID_st *)",
   "parameters" :
   [
    {
     "referenced_type" : "_ZTIP11SXNET_ID_st"
    }
   ],
   "referenced_type" : "_ZTIFvP11SXNET_ID_stE",
   "return_type" : "_ZTIv",
   "self_type" : "_ZTIFvP11SXNET_ID_stE",
   "source_file" : "/external/boringssl/src/include/openssl/x509v3.h"
  },
  {
   "alignment" : 4,
   "linker_set_key" : "_ZTIFvP11X509_crl_stE",
   "name" : "void (X509_crl_st *)",
   "parameters" :
   [
    {
     "referenced_type" : "_ZTIP11X509_crl_st"
    }
   ],
   "referenced_type" : "_ZTIFvP11X509_crl_stE",
   "return_type" : "_ZTIv",
   "self_type" : "_ZTIFvP11X509_crl_stE",
   "source_file" : "/external/boringssl/src/include/openssl/x509.h"
  },
  {
   "alignment" : 4,
   "linker_set_key" : "_ZTIFvP11ssl_comp_stE",
   "name" : "void (ssl_comp_st *)",
   "parameters" :
   [
    {
     "referenced_type" : "_ZTIP11ssl_comp_st"
    }
   ],
   "referenced_type" : "_ZTIFvP11ssl_comp_stE",
   "return_type" : "_ZTIv",
   "self_type" : "_ZTIFvP11ssl_comp_stE",
   "source_file" : "/external/boringssl/src/include/openssl/ssl.h"
  },
  {
   "alignment" : 4,
   "linker_set_key" : "_ZTIFvP12X509_info_stE",
   "name" : "void (X509_info_st *)",
   "parameters" :
   [
    {
     "referenced_type" : "_ZTIP12X509_info_st"
    }
   ],
   "referenced_type" : "_ZTIFvP12X509_info_stE",
   "return_type" : "_ZTIv",
   "self_type" : "_ZTIFvP12X509_info_stE",
   "source_file" : "/external/boringssl/src/include/openssl/x509.h"
  },
  {
   "alignment" : 4,
   "linker_set_key" : "_ZTIFvP12X509_name_stE",
   "name" : "void (X509_name_st *)",
   "parameters" :
   [
    {
     "referenced_type" : "_ZTIP12X509_name_st"
    }
   ],
   "referenced_type" : "_ZTIFvP12X509_name_stE",
   "return_type" : "_ZTIv",
   "self_type" : "_ZTIFvP12X509_name_stE",
   "source_file" : "/external/boringssl/src/include/openssl/x509.h"
  },
  {
   "alignment" : 4,
   "linker_set_key" : "_ZTIFvP12asn1_type_stE",
   "name" : "void (asn1_type_st *)",
   "parameters" :
   [
    {
     "referenced_type" : "_ZTIP12asn1_type_st"
    }
   ],
   "referenced_type" : "_ZTIFvP12asn1_type_stE",
   "return_type" : "_ZTIv",
   "self_type" : "_ZTIFvP12asn1_type_stE",
   "source_file" : "/external/boringssl/src/include/openssl/asn1.h"
  },
  {
   "alignment" : 4,
   "linker_set_key" : "_ZTIFvP13DIST_POINT_stE",
   "name" : "void (DIST_POINT_st *)",
   "parameters" :
   [
    {
     "referenced_type" : "_ZTIP13DIST_POINT_st"
    }
   ],
   "referenced_type" : "_ZTIFvP13DIST_POINT_stE",
   "return_type" : "_ZTIv",
   "self_type" : "_ZTIFvP13DIST_POINT_stE",
   "source_file" : "/external/boringssl/src/include/openssl/x509v3.h"
  },
  {
   "alignment" : 4,
   "linker_set_key" : "_ZTIFvP13POLICYINFO_stE",
   "name" : "void (POLICYINFO_st *)",
   "parameters" :
   [
    {
     "referenced_type" : "_ZTIP13POLICYINFO_st"
    }
   ],
   "referenced_type" : "_ZTIFvP13POLICYINFO_stE",
   "return_type" : "_ZTIv",
   "self_type" : "_ZTIFvP13POLICYINFO_stE",
   "source_file" : "/external/boringssl/src/include/openssl/x509v3.h"
  },
  {
   "alignment" : 4,
   "linker_set_key" : "_ZTIFvP13X509_algor_stE",
   "name" : "void (X509_algor_st *)",
   "parameters" :
   [
    {
     "referenced_type" : "_ZTIP13X509_algor_st"
    }
   ],
   "referenced_type" : "_ZTIFvP13X509_algor_stE",
   "return_type" : "_ZTIv",
   "self_type" : "_ZTIFvP13X509_algor_stE",
   "source_file" : "/external/boringssl/src/include/openssl/x509.h"
  },
  {
   "alignment" : 4,
   "linker_set_key" : "_ZTIFvP13conf_value_stE",
   "name" : "void (conf_value_st *)",
   "parameters" :
   [
    {
     "referenced_type" : "_ZTIP13conf_value_st"
    }
   ],
   "referenced_type" : "_ZTIFvP13conf_value_stE",
   "return_type" : "_ZTIv",
   "self_type" : "_ZTIFvP13conf_value_stE",
   "source_file" : "/external/boringssl/src/include/openssl/conf.h"
  },
  {
   "alignment" : 4,
   "linker_set_key" : "_ZTIFvP13v3_ext_methodE",
   "name" : "void (v3_ext_method *)",
   "parameters" :
   [
    {
     "referenced_type" : "_ZTIP13v3_ext_method"
    }
   ],
   "referenced_type" : "_ZTIFvP13v3_ext_methodE",
   "return_type" : "_ZTIv",
   "self_type" : "_ZTIFvP13v3_ext_methodE",
   "source_file" : "/external/boringssl/src/include/openssl/x509v3.h"
  },
  {
   "alignment" : 4,
   "linker_set_key" : "_ZTIFvP13x509_trust_stE",
   "name" : "void (x509_trust_st *)",
   "parameters" :
   [
    {
     "referenced_type" : "_ZTIP13x509_trust_st"
    }
   ],
   "referenced_type" : "_ZTIFvP13x509_trust_stE",
   "return_type" : "_ZTIv",
   "self_type" : "_ZTIFvP13x509_trust_stE",
   "source_file" : "/external/boringssl/src/include/openssl/x509.h"
  },
  {
   "alignment" : 4,
   "linker_set_key" : "_ZTIFvP14asn1_object_stE",
   "name" : "void (asn1_object_st *)",
   "parameters" :
   [
    {
     "referenced_type" : "_ZTIP14asn1_object_st"
    }
   ],
   "referenced_type" : "_ZTIFvP14asn1_object_stE",
   "return_type" : "_ZTIv",
   "self_type" : "_ZTIFvP14asn1_object_stE",
   "source_file" : "/external/boringssl/src/include/openssl/asn1.h"
  },
  {
   "alignment" : 4,
   "linker_set_key" : "_ZTIFvP14asn1_string_stE",
   "name" : "void (asn1_string_st *)",
   "parameters" :
   [
    {
     "referenced_type" : "_ZTIP14asn1_string_st"
    }
   ],
   "referenced_type" : "_ZTIFvP14asn1_string_stE",
   "return_type" : "_ZTIv",
   "self_type" : "_ZTIFvP14asn1_string_stE",
   "source_file" : "/external/boringssl/src/include/openssl/asn1.h"
  },
  {
   "alignment" : 4,
   "linker_set_key" : "_ZTIFvP14x509_lookup_stE",
   "name" : "void (x509_lookup_st *)",
   "parameters" :
   [
    {
     "referenced_type" : "_ZTIP14x509_lookup_st"
    }
   ],
   "referenced_type" : "_ZTIFvP14x509_lookup_stE",
   "return_type" : "_ZTIv",
   "self_type" : "_ZTIFvP14x509_lookup_stE",
   "source_file" : "/external/boringssl/src/include/openssl/x509_vfy.h"
  },
  {
   "alignment" : 4,
   "linker_set_key" : "_ZTIFvP14x509_object_stE",
   "name" : "void (x509_object_st *)",
   "parameters" :
   [
    {
     "referenced_type" : "_ZTIP14x509_object_st"
    }
   ],
   "referenced_type" : "_ZTIFvP14x509_object_stE",
   "return_type" : "_ZTIv",
   "self_type" : "_ZTIFvP14x509_object_stE",
   "source_file" : "/external/boringssl/src/include/openssl/x509_vfy.h"
  },
  {
   "alignment" : 4,
   "linker_set_key" : "_ZTIFvP15GENERAL_NAME_stE",
   "name" : "void (GENERAL_NAME_st *)",
   "parameters" :
   [
    {
     "referenced_type" : "_ZTIP15GENERAL_NAME_st"
    }
   ],
   "referenced_type" : "_ZTIFvP15GENERAL_NAME_stE",
   "return_type" : "_ZTIv",
   "self_type" : "_ZTIFvP15GENERAL_NAME_stE",
   "source_file" : "/external/boringssl/src/include/openssl/x509v3.h"
  },
  {
   "alignment" : 4,
   "linker_set_key" : "_ZTIFvP15x509_purpose_stE",
   "name" : "void (x509_purpose_st *)",
   "parameters" :
   [
    {
     "referenced_type" : "_ZTIP15x509_purpose_st"
    }
   ],
   "referenced_type" : "_ZTIFvP15x509_purpose_stE",
   "return_type" : "_ZTIv",
   "self_type" : "_ZTIFvP15x509_purpose_stE",
   "source_file" : "/external/boringssl/src/include/openssl/x509v3.h"
  },
  {
   "alignment" : 4,
   "linker_set_key" : "_ZTIFvP15x509_revoked_stE",
   "name" : "void (x509_revoked_st *)",
   "parameters" :
   [
    {
     "referenced_type" : "_ZTIP15x509_revoked_st"
    }
   ],
   "referenced_type" : "_ZTIFvP15x509_revoked_stE",
   "return_type" : "_ZTIv",
   "self_type" : "_ZTIFvP15x509_revoked_stE",
   "source_file" : "/external/boringssl/src/include/openssl/x509.h"
  },
  {
   "alignment" : 4,
   "linker_set_key" : "_ZTIFvP16crypto_buffer_stE",
   "name" : "void (crypto_buffer_st *)",
   "parameters" :
   [
    {
     "referenced_type" : "_ZTIP16crypto_buffer_st"
    }
   ],
   "referenced_type" : "_ZTIFvP16crypto_buffer_stE",
   "return_type" : "_ZTIv",
   "self_type" : "_ZTIFvP16crypto_buffer_stE",
   "source_file" : "/external/boringssl/src/include/openssl/pool.h"
  },
  {
   "alignment" : 4,
   "linker_set_key" : "_ZTIFvP17POLICYQUALINFO_stE",
   "name" : "void (POLICYQUALINFO_st *)",
   "parameters" :
   [
    {
     "referenced_type" : "_ZTIP17POLICYQUALINFO_st"
    }
   ],
   "referenced_type" : "_ZTIFvP17POLICYQUALINFO_stE",
   "return_type" : "_ZTIv",
   "self_type" : "_ZTIFvP17POLICYQUALINFO_stE",
   "source_file" : "/external/boringssl/src/include/openssl/x509v3.h"
  },
  {
   "alignment" : 4,
   "linker_set_key" : "_ZTIFvP17POLICY_MAPPING_stE",
   "name" : "void (POLICY_MAPPING_st *)",
   "parameters" :
   [
    {
     "referenced_type" : "_ZTIP17POLICY_MAPPING_st"
    }
   ],
   "referenced_type" : "_ZTIFvP17POLICY_MAPPING_stE",
   "return_type" : "_ZTIv",
   "self_type" : "_ZTIFvP17POLICY_MAPPING_stE",
   "source_file" : "/external/boringssl/src/include/openssl/x509v3.h"
  },
  {
   "alignment" : 4,
   "linker_set_key" : "_ZTIFvP17X509_extension_stE",
   "name" : "void (X509_extension_st *)",
   "parameters" :
   [
    {
     "referenced_type" : "_ZTIP17X509_extension_st"
    }
   ],
   "referenced_type" : "_ZTIFvP17X509_extension_stE",
   "return_type" : "_ZTIv",
   "self_type" : "_ZTIFvP17X509_extension_stE",
   "source_file" : "/external/boringssl/src/include/openssl/x509.h"
  },
  {
   "alignment" : 4,
   "linker_set_key" : "_ZTIFvP17evp_cipher_ctx_stE",
   "name" : "void (evp_cipher_ctx_st *)",
   "parameters" :
   [
    {
     "referenced_type" : "_ZTIP17evp_cipher_ctx_st"
    }
   ],
   "referenced_type" : "_ZTIFvP17evp_cipher_ctx_stE",
   "return_type" : "_ZTIv",
   "self_type" : "_ZTIFvP17evp_cipher_ctx_stE",
   "source_file" : "/external/boringssl/src/include/openssl/cipher.h"
  },
  {
   "alignment" : 4,
   "linker_set_key" : "_ZTIFvP18GENERAL_SUBTREE_stE",
   "name" : "void (GENERAL_SUBTREE_st *)",
   "parameters" :
   [
    {
     "referenced_type" : "_ZTIP18GENERAL_SUBTREE_st"
    }
   ],
   "referenced_type" : "_ZTIFvP18GENERAL_SUBTREE_stE",
   "return_type" : "_ZTIv",
   "self_type" : "_ZTIFvP18GENERAL_SUBTREE_stE",
   "source_file" : "/external/boringssl/src/include/openssl/x509v3.h"
  },
  {
   "alignment" : 4,
   "linker_set_key" : "_ZTIFvP18X509_name_entry_stE",
   "name" : "void (X509_name_entry_st *)",
   "parameters" :
   [
    {
     "referenced_type" : "_ZTIP18X509_name_entry_st"
    }
   ],
   "referenced_type" : "_ZTIFvP18X509_name_entry_stE",
   "return_type" : "_ZTIv",
   "self_type" : "_ZTIFvP18X509_name_entry_stE",
   "source_file" : "/external/boringssl/src/include/openssl/x509.h"
  },
  {
   "alignment" : 4,
   "linker_set_key" : "_ZTIFvP18x509_attributes_stE",
   "name" : "void (x509_attributes_st *)",
   "parameters" :
   [
    {
     "referenced_type" : "_ZTIP18x509_attributes_st"
    }
   ],
   "referenced_type" : "_ZTIFvP18x509_attributes_stE",
   "return_type" : "_ZTIv",
   "self_type" : "_ZTIFvP18x509_attributes_stE",
   "source_file" : "/external/boringssl/src/include/openssl/x509.h"
  },
  {
   "alignment" : 4,
   "linker_set_key" : "_ZTIFvP19X509_POLICY_NODE_stE",
   "name" : "void (X509_POLICY_NODE_st *)",
   "parameters" :
   [
    {
     "referenced_type" : "_ZTIP19X509_POLICY_NODE_st"
    }
   ],
   "referenced_type" : "_ZTIFvP19X509_POLICY_NODE_stE",
   "return_type" : "_ZTIv",
   "self_type" : "_ZTIFvP19X509_POLICY_NODE_stE",
   "source_file" : "/external/boringssl/src/include/openssl/x509v3.h"
  },
  {
   "alignment" : 4,
   "linker_set_key" : "_ZTIFvP20X509_VERIFY_PARAM_stE",
   "name" : "void (X509_VERIFY_PARAM_st *)",
   "parameters" :
   [
    {
     "referenced_type" : "_ZTIP20X509_VERIFY_PARAM_st"
    }
   ],
   "referenced_type" : "_ZTIFvP20X509_VERIFY_PARAM_stE",
   "return_type" : "_ZTIv",
   "self_type" : "_ZTIFvP20X509_VERIFY_PARAM_stE",
   "source_file" : "/external/boringssl/src/include/openssl/x509_vfy.h"
  },
  {
   "alignment" : 4,
   "linker_set_key" : "_ZTIFvP21ACCESS_DESCRIPTION_stE",
   "name" : "void (ACCESS_DESCRIPTION_st *)",
   "parameters" :
   [
    {
     "referenced_type" : "_ZTIP21ACCESS_DESCRIPTION_st"
    }
   ],
   "referenced_type" : "_ZTIFvP21ACCESS_DESCRIPTION_stE",
   "return_type" : "_ZTIv",
   "self_type" : "_ZTIFvP21ACCESS_DESCRIPTION_stE",
   "source_file" : "/external/boringssl/src/include/openssl/x509v3.h"
  },
  {
   "alignment" : 4,
   "linker_set_key" : "_ZTIFvP21stack_st_GENERAL_NAMEE",
   "name" : "void (stack_st_GENERAL_NAME *)",
   "parameters" :
   [
    {
     "referenced_type" : "_ZTIP21stack_st_GENERAL_NAME"
    }
   ],
   "referenced_type" : "_ZTIFvP21stack_st_GENERAL_NAMEE",
   "return_type" : "_ZTIv",
   "self_type" : "_ZTIFvP21stack_st_GENERAL_NAMEE",
   "source_file" : "/external/boringssl/src/include/openssl/x509v3.h"
  },
  {
   "alignment" : 4,
   "linker_set_key" : "_ZTIFvP6bio_stE",
   "name" : "void (bio_st *)",
   "parameters" :
   [
    {
     "referenced_type" : "_ZTIP6bio_st"
    }
   ],
   "referenced_type" : "_ZTIFvP6bio_stE",
   "return_type" : "_ZTIv",
   "self_type" : "_ZTIFvP6bio_stE",
   "source_file" : "/external/boringssl/src/include/openssl/bio.h"
  },
  {
   "alignment" : 4,
   "linker_set_key" : "_ZTIFvP6ssl_stPP11evp_pkey_stE",
   "name" : "void (ssl_st *, evp_pkey_st **)",
   "parameters" :
   [
    {
     "referenced_type" : "_ZTIP6ssl_st"
    },
    {
     "referenced_type" : "_ZTIPP11evp_pkey_st"
    }
   ],
   "referenced_type" : "_ZTIFvP6ssl_stPP11evp_pkey_stE",
   "return_type" : "_ZTIv",
   "self_type" : "_ZTIFvP6ssl_stPP11evp_pkey_stE",
   "source_file" : "/external/boringssl/src/include/openssl/ssl.h"
  },
  {
   "alignment" : 4,
   "linker_set_key" : "_ZTIFvP7x509_stE",
   "name" : "void (x509_st *)",
   "parameters" :
   [
    {
     "referenced_type" : "_ZTIP7x509_st"
    }
   ],
   "referenced_type" : "_ZTIFvP7x509_stE",
   "return_type" : "_ZTIv",
   "self_type" : "_ZTIFvP7x509_stE",
   "source_file" : "/external/boringssl/src/include/openssl/x509.h"
  },
  {
   "alignment" : 4,
   "linker_set_key" : "_ZTIFvPK13ssl_cipher_stE",
   "name" : "void (const ssl_cipher_st *)",
   "parameters" :
   [
    {
     "referenced_type" : "_ZTIPK13ssl_cipher_st"
    }
   ],
   "referenced_type" : "_ZTIFvPK13ssl_cipher_stE",
   "return_type" : "_ZTIv",
   "self_type" : "_ZTIFvPK13ssl_cipher_stE",
   "source_file" : "/external/boringssl/src/include/openssl/ssl.h"
  },
  {
   "alignment" : 4,
   "linker_set_key" : "_ZTIFvPK26srtp_protection_profile_stE",
   "name" : "void (const srtp_protection_profile_st *)",
   "parameters" :
   [
    {
     "referenced_type" : "_ZTIPK26srtp_protection_profile_st"
    }
   ],
   "referenced_type" : "_ZTIFvPK26srtp_protection_profile_stE",
   "return_type" : "_ZTIv",
   "self_type" : "_ZTIFvPK26srtp_protection_profile_stE",
   "source_file" : "/external/boringssl/src/include/openssl/ssl.h"
  },
  {
   "alignment" : 4,
   "linker_set_key" : "_ZTIFvPK6ssl_stP7timevalE",
   "name" : "void (const ssl_st *, timeval *)",
   "parameters" :
   [
    {
     "referenced_type" : "_ZTIPK6ssl_st"
    },
    {
     "referenced_type" : "_ZTIP7timeval"
    }
   ],
   "referenced_type" : "_ZTIFvPK6ssl_stP7timevalE",
   "return_type" : "_ZTIv",
   "self_type" : "_ZTIFvPK6ssl_stP7timevalE",
   "source_file" : "/external/boringssl/src/include/openssl/ssl.h"
  },
  {
   "alignment" : 4,
   "linker_set_key" : "_ZTIFvPK6ssl_stPKcE",
   "name" : "void (const ssl_st *, const char *)",
   "parameters" :
   [
    {
     "referenced_type" : "_ZTIPK6ssl_st"
    },
    {
     "referenced_type" : "_ZTIPKc"
    }
   ],
   "referenced_type" : "_ZTIFvPK6ssl_stPKcE",
   "return_type" : "_ZTIv",
   "self_type" : "_ZTIFvPK6ssl_stPKcE",
   "source_file" : "/external/boringssl/src/include/openssl/ssl.h"
  },
  {
   "alignment" : 4,
   "linker_set_key" : "_ZTIFvPK6ssl_stiiE",
   "name" : "void (const ssl_st *, int, int)",
   "parameters" :
   [
    {
     "referenced_type" : "_ZTIPK6ssl_st"
    },
    {
     "referenced_type" : "_ZTIi"
    },
    {
     "referenced_type" : "_ZTIi"
    }
   ],
   "referenced_type" : "_ZTIFvPK6ssl_stiiE",
   "return_type" : "_ZTIv",
   "self_type" : "_ZTIFvPK6ssl_stiiE",
   "source_file" : "/external/boringssl/src/include/openssl/ssl.h"
  },
  {
   "alignment" : 4,
   "linker_set_key" : "_ZTIFvPKviE",
   "name" : "void (const void *, int)",
   "parameters" :
   [
    {
     "referenced_type" : "_ZTIPKv"
    },
    {
     "referenced_type" : "_ZTIi"
    }
   ],
   "referenced_type" : "_ZTIFvPKviE",
   "return_type" : "_ZTIv",
   "self_type" : "_ZTIFvPKviE",
   "source_file" : "/external/boringssl/src/include/openssl/rand.h"
  },
  {
   "alignment" : 4,
   "linker_set_key" : "_ZTIFvPKvidE",
   "name" : "void (const void *, int, double)",
   "parameters" :
   [
    {
     "referenced_type" : "_ZTIPKv"
    },
    {
     "referenced_type" : "_ZTIi"
    },
    {
     "referenced_type" : "_ZTId"
    }
   ],
   "referenced_type" : "_ZTIFvPKvidE",
   "return_type" : "_ZTIv",
   "self_type" : "_ZTIFvPKvidE",
   "source_file" : "/external/boringssl/src/include/openssl/rand.h"
  },
  {
   "alignment" : 4,
   "linker_set_key" : "_ZTIFvPcE",
   "name" : "void (char *)",
   "parameters" :
   [
    {
     "referenced_type" : "_ZTIPc"
    }
   ],
   "referenced_type" : "_ZTIFvPcE",
   "return_type" : "_ZTIv",
   "self_type" : "_ZTIFvPcE",
   "source_file" : "/external/boringssl/src/include/openssl/stack.h"
  },
  {
   "alignment" : 4,
   "linker_set_key" : "_ZTIFvPvE",
   "name" : "void (void *)",
   "parameters" :
   [
    {
     "referenced_type" : "_ZTIPv"
    }
   ],
   "referenced_type" : "_ZTIFvPvE",
   "return_type" : "_ZTIv",
   "self_type" : "_ZTIFvPvE",
   "source_file" : "/external/boringssl/src/include/openssl/stack.h"
  },
  {
   "alignment" : 4,
   "linker_set_key" : "_ZTIFvPvP19stack_st_CONF_VALUEE",
   "name" : "void (void *, stack_st_CONF_VALUE *)",
   "parameters" :
   [
    {
     "referenced_type" : "_ZTIPv"
    },
    {
     "referenced_type" : "_ZTIP19stack_st_CONF_VALUE"
    }
   ],
   "referenced_type" : "_ZTIFvPvP19stack_st_CONF_VALUEE",
   "return_type" : "_ZTIv",
   "self_type" : "_ZTIFvPvP19stack_st_CONF_VALUEE",
   "source_file" : "/external/boringssl/src/include/openssl/x509v3.h"
  },
  {
   "alignment" : 4,
   "linker_set_key" : "_ZTIFvPvPcE",
   "name" : "void (void *, char *)",
   "parameters" :
   [
    {
     "referenced_type" : "_ZTIPv"
    },
    {
     "referenced_type" : "_ZTIPc"
    }
   ],
   "referenced_type" : "_ZTIFvPvPcE",
   "return_type" : "_ZTIv",
   "self_type" : "_ZTIFvPvPcE",
   "source_file" : "/external/boringssl/src/include/openssl/x509v3.h"
  },
  {
   "alignment" : 4,
   "linker_set_key" : "_ZTIFvPvS_P17crypto_ex_data_stilS_E",
   "name" : "void (void *, void *, crypto_ex_data_st *, int, long, void *)",
   "parameters" :
   [
    {
     "referenced_type" : "_ZTIPv"
    },
    {
     "referenced_type" : "_ZTIPv"
    },
    {
     "referenced_type" : "_ZTIP17crypto_ex_data_st"
    },
    {
     "referenced_type" : "_ZTIi"
    },
    {
     "referenced_type" : "_ZTIl"
    },
    {
     "referenced_type" : "_ZTIPv"
    }
   ],
   "referenced_type" : "_ZTIFvPvS_P17crypto_ex_data_stilS_E",
   "return_type" : "_ZTIv",
   "self_type" : "_ZTIFvPvS_P17crypto_ex_data_stilS_E",
   "source_file" : "/external/boringssl/src/include/openssl/ssl.h"
  },
  {
   "alignment" : 4,
   "linker_set_key" : "_ZTIFviiiPKvmP6ssl_stPvE",
   "name" : "void (int, int, int, const void *, unsigned long, ssl_st *, void *)",
   "parameters" :
   [
    {
     "referenced_type" : "_ZTIi"
    },
    {
     "referenced_type" : "_ZTIi"
    },
    {
     "referenced_type" : "_ZTIi"
    },
    {
     "referenced_type" : "_ZTIPKv"
    },
    {
     "referenced_type" : "_ZTIm"
    },
    {
     "referenced_type" : "_ZTIP6ssl_st"
    },
    {
     "referenced_type" : "_ZTIPv"
    }
   ],
   "referenced_type" : "_ZTIFviiiPKvmP6ssl_stPvE",
   "return_type" : "_ZTIv",
   "self_type" : "_ZTIFviiiPKvmP6ssl_stPvE",
   "source_file" : "/external/boringssl/src/include/openssl/ssl.h"
  },
  {
   "alignment" : 4,
   "linker_set_key" : "_ZTIFvvE",
   "name" : "void ()",
   "referenced_type" : "_ZTIFvvE",
   "return_type" : "_ZTIv",
   "self_type" : "_ZTIFvvE",
   "source_file" : "/external/boringssl/src/include/openssl/rand.h"
  }
 ],
 "functions" :
 [
  {
   "function_name" : "BIO_f_ssl",
   "linker_set_key" : "BIO_f_ssl",
   "return_type" : "_ZTIPK13bio_method_st",
   "source_file" : "/external/boringssl/src/include/openssl/ssl.h"
  },
  {
   "function_name" : "BIO_set_ssl",
   "linker_set_key" : "BIO_set_ssl",
   "parameters" :
   [
    {
     "referenced_type" : "_ZTIP6bio_st"
    },
    {
     "referenced_type" : "_ZTIP6ssl_st"
    },
    {
     "referenced_type" : "_ZTIi"
    }
   ],
   "return_type" : "_ZTIl",
   "source_file" : "/external/boringssl/src/include/openssl/ssl.h"
  },
  {
   "function_name" : "DTLS_client_method",
   "linker_set_key" : "DTLS_client_method",
   "return_type" : "_ZTIPK13ssl_method_st",
   "source_file" : "/external/boringssl/src/include/openssl/ssl.h"
  },
  {
   "function_name" : "DTLS_method",
   "linker_set_key" : "DTLS_method",
   "return_type" : "_ZTIPK13ssl_method_st",
   "source_file" : "/external/boringssl/src/include/openssl/ssl.h"
  },
  {
   "function_name" : "DTLS_server_method",
   "linker_set_key" : "DTLS_server_method",
   "return_type" : "_ZTIPK13ssl_method_st",
   "source_file" : "/external/boringssl/src/include/openssl/ssl.h"
  },
  {
   "function_name" : "DTLS_with_buffers_method",
   "linker_set_key" : "DTLS_with_buffers_method",
   "return_type" : "_ZTIPK13ssl_method_st",
   "source_file" : "/external/boringssl/src/include/openssl/ssl.h"
  },
  {
   "function_name" : "DTLSv1_2_client_method",
   "linker_set_key" : "DTLSv1_2_client_method",
   "return_type" : "_ZTIPK13ssl_method_st",
   "source_file" : "/external/boringssl/src/include/openssl/ssl.h"
  },
  {
   "function_name" : "DTLSv1_2_method",
   "linker_set_key" : "DTLSv1_2_method",
   "return_type" : "_ZTIPK13ssl_method_st",
   "source_file" : "/external/boringssl/src/include/openssl/ssl.h"
  },
  {
   "function_name" : "DTLSv1_2_server_method",
   "linker_set_key" : "DTLSv1_2_server_method",
   "return_type" : "_ZTIPK13ssl_method_st",
   "source_file" : "/external/boringssl/src/include/openssl/ssl.h"
  },
  {
   "function_name" : "DTLSv1_client_method",
   "linker_set_key" : "DTLSv1_client_method",
   "return_type" : "_ZTIPK13ssl_method_st",
   "source_file" : "/external/boringssl/src/include/openssl/ssl.h"
  },
  {
   "function_name" : "DTLSv1_get_timeout",
   "linker_set_key" : "DTLSv1_get_timeout",
   "parameters" :
   [
    {
     "referenced_type" : "_ZTIPK6ssl_st"
    },
    {
     "referenced_type" : "_ZTIP7timeval"
    }
   ],
   "return_type" : "_ZTIi",
   "source_file" : "/external/boringssl/src/include/openssl/ssl.h"
  },
  {
   "function_name" : "DTLSv1_handle_timeout",
   "linker_set_key" : "DTLSv1_handle_timeout",
   "parameters" :
   [
    {
     "referenced_type" : "_ZTIP6ssl_st"
    }
   ],
   "return_type" : "_ZTIi",
   "source_file" : "/external/boringssl/src/include/openssl/ssl.h"
  },
  {
   "function_name" : "DTLSv1_method",
   "linker_set_key" : "DTLSv1_method",
   "return_type" : "_ZTIPK13ssl_method_st",
   "source_file" : "/external/boringssl/src/include/openssl/ssl.h"
  },
  {
   "function_name" : "DTLSv1_server_method",
   "linker_set_key" : "DTLSv1_server_method",
   "return_type" : "_ZTIPK13ssl_method_st",
   "source_file" : "/external/boringssl/src/include/openssl/ssl.h"
  },
  {
   "function_name" : "DTLSv1_set_initial_timeout_duration",
   "linker_set_key" : "DTLSv1_set_initial_timeout_duration",
   "parameters" :
   [
    {
     "referenced_type" : "_ZTIP6ssl_st"
    },
    {
     "referenced_type" : "_ZTIj"
    }
   ],
   "return_type" : "_ZTIv",
   "source_file" : "/external/boringssl/src/include/openssl/ssl.h"
  },
  {
   "function_name" : "ERR_load_SSL_strings",
   "linker_set_key" : "ERR_load_SSL_strings",
   "return_type" : "_ZTIv",
   "source_file" : "/external/boringssl/src/include/openssl/ssl.h"
  },
  {
   "function_name" : "OPENSSL_init_ssl",
   "linker_set_key" : "OPENSSL_init_ssl",
   "parameters" :
   [
    {
     "referenced_type" : "_ZTIm"
    },
    {
     "referenced_type" : "_ZTIPK21ossl_init_settings_st"
    }
   ],
   "return_type" : "_ZTIi",
   "source_file" : "/external/boringssl/src/include/openssl/ssl.h"
  },
  {
   "function_name" : "PEM_read_SSL_SESSION",
   "linker_set_key" : "PEM_read_SSL_SESSION",
   "parameters" :
   [
    {
     "referenced_type" : "_ZTIP7__sFILE"
    },
    {
     "referenced_type" : "_ZTIPP14ssl_session_st"
    },
    {
     "referenced_type" : "_ZTIPFiPciiPvE"
    },
    {
     "referenced_type" : "_ZTIPv"
    }
   ],
   "return_type" : "_ZTIP14ssl_session_st",
   "source_file" : "/external/boringssl/src/include/openssl/ssl.h"
  },
  {
   "function_name" : "PEM_read_bio_SSL_SESSION",
   "linker_set_key" : "PEM_read_bio_SSL_SESSION",
   "parameters" :
   [
    {
     "referenced_type" : "_ZTIP6bio_st"
    },
    {
     "referenced_type" : "_ZTIPP14ssl_session_st"
    },
    {
     "referenced_type" : "_ZTIPFiPciiPvE"
    },
    {
     "referenced_type" : "_ZTIPv"
    }
   ],
   "return_type" : "_ZTIP14ssl_session_st",
   "source_file" : "/external/boringssl/src/include/openssl/ssl.h"
  },
  {
   "function_name" : "PEM_write_SSL_SESSION",
   "linker_set_key" : "PEM_write_SSL_SESSION",
   "parameters" :
   [
    {
     "referenced_type" : "_ZTIP7__sFILE"
    },
    {
     "referenced_type" : "_ZTIP14ssl_session_st"
    }
   ],
   "return_type" : "_ZTIi",
   "source_file" : "/external/boringssl/src/include/openssl/ssl.h"
  },
  {
   "function_name" : "PEM_write_bio_SSL_SESSION",
   "linker_set_key" : "PEM_write_bio_SSL_SESSION",
   "parameters" :
   [
    {
     "referenced_type" : "_ZTIP6bio_st"
    },
    {
     "referenced_type" : "_ZTIP14ssl_session_st"
    }
   ],
   "return_type" : "_ZTIi",
   "source_file" : "/external/boringssl/src/include/openssl/ssl.h"
  },
  {
   "function_name" : "SSL_CIPHER_description",
   "linker_set_key" : "SSL_CIPHER_description",
   "parameters" :
   [
    {
     "referenced_type" : "_ZTIPK13ssl_cipher_st"
    },
    {
     "referenced_type" : "_ZTIPc"
    },
    {
     "referenced_type" : "_ZTIi"
    }
   ],
   "return_type" : "_ZTIPKc",
   "source_file" : "/external/boringssl/src/include/openssl/ssl.h"
  },
  {
   "function_name" : "SSL_CIPHER_get_auth_nid",
   "linker_set_key" : "SSL_CIPHER_get_auth_nid",
   "parameters" :
   [
    {
     "referenced_type" : "_ZTIPK13ssl_cipher_st"
    }
   ],
   "return_type" : "_ZTIi",
   "source_file" : "/external/boringssl/src/include/openssl/ssl.h"
  },
  {
   "function_name" : "SSL_CIPHER_get_bits",
   "linker_set_key" : "SSL_CIPHER_get_bits",
   "parameters" :
   [
    {
     "referenced_type" : "_ZTIPK13ssl_cipher_st"
    },
    {
     "referenced_type" : "_ZTIPi"
    }
   ],
   "return_type" : "_ZTIi",
   "source_file" : "/external/boringssl/src/include/openssl/ssl.h"
  },
  {
   "function_name" : "SSL_CIPHER_get_cipher_nid",
   "linker_set_key" : "SSL_CIPHER_get_cipher_nid",
   "parameters" :
   [
    {
     "referenced_type" : "_ZTIPK13ssl_cipher_st"
    }
   ],
   "return_type" : "_ZTIi",
   "source_file" : "/external/boringssl/src/include/openssl/ssl.h"
  },
  {
   "function_name" : "SSL_CIPHER_get_digest_nid",
   "linker_set_key" : "SSL_CIPHER_get_digest_nid",
   "parameters" :
   [
    {
     "referenced_type" : "_ZTIPK13ssl_cipher_st"
    }
   ],
   "return_type" : "_ZTIi",
   "source_file" : "/external/boringssl/src/include/openssl/ssl.h"
  },
  {
   "function_name" : "SSL_CIPHER_get_id",
   "linker_set_key" : "SSL_CIPHER_get_id",
   "parameters" :
   [
    {
     "referenced_type" : "_ZTIPK13ssl_cipher_st"
    }
   ],
   "return_type" : "_ZTIj",
   "source_file" : "/external/boringssl/src/include/openssl/ssl.h"
  },
  {
   "function_name" : "SSL_CIPHER_get_kx_name",
   "linker_set_key" : "SSL_CIPHER_get_kx_name",
   "parameters" :
   [
    {
     "referenced_type" : "_ZTIPK13ssl_cipher_st"
    }
   ],
   "return_type" : "_ZTIPKc",
   "source_file" : "/external/boringssl/src/include/openssl/ssl.h"
  },
  {
   "function_name" : "SSL_CIPHER_get_kx_nid",
   "linker_set_key" : "SSL_CIPHER_get_kx_nid",
   "parameters" :
   [
    {
     "referenced_type" : "_ZTIPK13ssl_cipher_st"
    }
   ],
   "return_type" : "_ZTIi",
   "source_file" : "/external/boringssl/src/include/openssl/ssl.h"
  },
  {
   "function_name" : "SSL_CIPHER_get_max_version",
   "linker_set_key" : "SSL_CIPHER_get_max_version",
   "parameters" :
   [
    {
     "referenced_type" : "_ZTIPK13ssl_cipher_st"
    }
   ],
   "return_type" : "_ZTIt",
   "source_file" : "/external/boringssl/src/include/openssl/ssl.h"
  },
  {
   "function_name" : "SSL_CIPHER_get_min_version",
   "linker_set_key" : "SSL_CIPHER_get_min_version",
   "parameters" :
   [
    {
     "referenced_type" : "_ZTIPK13ssl_cipher_st"
    }
   ],
   "return_type" : "_ZTIt",
   "source_file" : "/external/boringssl/src/include/openssl/ssl.h"
  },
  {
   "function_name" : "SSL_CIPHER_get_name",
   "linker_set_key" : "SSL_CIPHER_get_name",
   "parameters" :
   [
    {
     "referenced_type" : "_ZTIPK13ssl_cipher_st"
    }
   ],
   "return_type" : "_ZTIPKc",
   "source_file" : "/external/boringssl/src/include/openssl/ssl.h"
  },
  {
   "function_name" : "SSL_CIPHER_get_prf_nid",
   "linker_set_key" : "SSL_CIPHER_get_prf_nid",
   "parameters" :
   [
    {
     "referenced_type" : "_ZTIPK13ssl_cipher_st"
    }
   ],
   "return_type" : "_ZTIi",
   "source_file" : "/external/boringssl/src/include/openssl/ssl.h"
  },
  {
   "function_name" : "SSL_CIPHER_get_rfc_name",
   "linker_set_key" : "SSL_CIPHER_get_rfc_name",
   "parameters" :
   [
    {
     "referenced_type" : "_ZTIPK13ssl_cipher_st"
    }
   ],
   "return_type" : "_ZTIPc",
   "source_file" : "/external/boringssl/src/include/openssl/ssl.h"
  },
  {
   "function_name" : "SSL_CIPHER_get_value",
   "linker_set_key" : "SSL_CIPHER_get_value",
   "parameters" :
   [
    {
     "referenced_type" : "_ZTIPK13ssl_cipher_st"
    }
   ],
   "return_type" : "_ZTIt",
   "source_file" : "/external/boringssl/src/include/openssl/ssl.h"
  },
  {
   "function_name" : "SSL_CIPHER_get_version",
   "linker_set_key" : "SSL_CIPHER_get_version",
   "parameters" :
   [
    {
     "referenced_type" : "_ZTIPK13ssl_cipher_st"
    }
   ],
   "return_type" : "_ZTIPKc",
   "source_file" : "/external/boringssl/src/include/openssl/ssl.h"
  },
  {
   "function_name" : "SSL_CIPHER_is_aead",
   "linker_set_key" : "SSL_CIPHER_is_aead",
   "parameters" :
   [
    {
     "referenced_type" : "_ZTIPK13ssl_cipher_st"
    }
   ],
   "return_type" : "_ZTIi",
   "source_file" : "/external/boringssl/src/include/openssl/ssl.h"
  },
  {
   "function_name" : "SSL_CIPHER_is_block_cipher",
   "linker_set_key" : "SSL_CIPHER_is_block_cipher",
   "parameters" :
   [
    {
     "referenced_type" : "_ZTIPK13ssl_cipher_st"
    }
   ],
   "return_type" : "_ZTIi",
   "source_file" : "/external/boringssl/src/include/openssl/ssl.h"
  },
  {
   "function_name" : "SSL_CIPHER_standard_name",
   "linker_set_key" : "SSL_CIPHER_standard_name",
   "parameters" :
   [
    {
     "referenced_type" : "_ZTIPK13ssl_cipher_st"
    }
   ],
   "return_type" : "_ZTIPKc",
   "source_file" : "/external/boringssl/src/include/openssl/ssl.h"
  },
  {
   "function_name" : "SSL_COMP_add_compression_method",
   "linker_set_key" : "SSL_COMP_add_compression_method",
   "parameters" :
   [
    {
     "referenced_type" : "_ZTIi"
    },
    {
     "referenced_type" : "_ZTIPv"
    }
   ],
   "return_type" : "_ZTIi",
   "source_file" : "/external/boringssl/src/include/openssl/ssl.h"
  },
  {
   "function_name" : "SSL_COMP_free_compression_methods",
   "linker_set_key" : "SSL_COMP_free_compression_methods",
   "return_type" : "_ZTIv",
   "source_file" : "/external/boringssl/src/include/openssl/ssl.h"
  },
  {
   "function_name" : "SSL_COMP_get0_name",
   "linker_set_key" : "SSL_COMP_get0_name",
   "parameters" :
   [
    {
     "referenced_type" : "_ZTIPK11ssl_comp_st"
    }
   ],
   "return_type" : "_ZTIPKc",
   "source_file" : "/external/boringssl/src/include/openssl/ssl.h"
  },
  {
   "function_name" : "SSL_COMP_get_compression_methods",
   "linker_set_key" : "SSL_COMP_get_compression_methods",
   "return_type" : "_ZTIP17stack_st_SSL_COMP",
   "source_file" : "/external/boringssl/src/include/openssl/ssl.h"
  },
  {
   "function_name" : "SSL_COMP_get_id",
   "linker_set_key" : "SSL_COMP_get_id",
   "parameters" :
   [
    {
     "referenced_type" : "_ZTIPK11ssl_comp_st"
    }
   ],
   "return_type" : "_ZTIi",
   "source_file" : "/external/boringssl/src/include/openssl/ssl.h"
  },
  {
   "function_name" : "SSL_COMP_get_name",
   "linker_set_key" : "SSL_COMP_get_name",
   "parameters" :
   [
    {
     "referenced_type" : "_ZTIPKv"
    }
   ],
   "return_type" : "_ZTIPKc",
   "source_file" : "/external/boringssl/src/include/openssl/ssl.h"
  },
  {
   "function_name" : "SSL_CTX_add0_chain_cert",
   "linker_set_key" : "SSL_CTX_add0_chain_cert",
   "parameters" :
   [
    {
     "referenced_type" : "_ZTIP10ssl_ctx_st"
    },
    {
     "referenced_type" : "_ZTIP7x509_st"
    }
   ],
   "return_type" : "_ZTIi",
   "source_file" : "/external/boringssl/src/include/openssl/ssl.h"
  },
  {
   "function_name" : "SSL_CTX_add1_chain_cert",
   "linker_set_key" : "SSL_CTX_add1_chain_cert",
   "parameters" :
   [
    {
     "referenced_type" : "_ZTIP10ssl_ctx_st"
    },
    {
     "referenced_type" : "_ZTIP7x509_st"
    }
   ],
   "return_type" : "_ZTIi",
   "source_file" : "/external/boringssl/src/include/openssl/ssl.h"
  },
  {
   "function_name" : "SSL_CTX_add_cert_compression_alg",
   "linker_set_key" : "SSL_CTX_add_cert_compression_alg",
   "parameters" :
   [
    {
     "referenced_type" : "_ZTIP10ssl_ctx_st"
    },
    {
     "referenced_type" : "_ZTIt"
    },
    {
     "referenced_type" : "_ZTIPFiP6ssl_stP6cbb_stPKhmE"
    },
    {
     "referenced_type" : "_ZTIPFiP6ssl_stPP16crypto_buffer_stmPKhmE"
    }
   ],
   "return_type" : "_ZTIi",
   "source_file" : "/external/boringssl/src/include/openssl/ssl.h"
  },
  {
   "function_name" : "SSL_CTX_add_client_CA",
   "linker_set_key" : "SSL_CTX_add_client_CA",
   "parameters" :
   [
    {
     "referenced_type" : "_ZTIP10ssl_ctx_st"
    },
    {
     "referenced_type" : "_ZTIP7x509_st"
    }
   ],
   "return_type" : "_ZTIi",
   "source_file" : "/external/boringssl/src/include/openssl/ssl.h"
  },
  {
   "function_name" : "SSL_CTX_add_extra_chain_cert",
   "linker_set_key" : "SSL_CTX_add_extra_chain_cert",
   "parameters" :
   [
    {
     "referenced_type" : "_ZTIP10ssl_ctx_st"
    },
    {
     "referenced_type" : "_ZTIP7x509_st"
    }
   ],
   "return_type" : "_ZTIi",
   "source_file" : "/external/boringssl/src/include/openssl/ssl.h"
  },
  {
   "function_name" : "SSL_CTX_add_session",
   "linker_set_key" : "SSL_CTX_add_session",
   "parameters" :
   [
    {
     "referenced_type" : "_ZTIP10ssl_ctx_st"
    },
    {
     "referenced_type" : "_ZTIP14ssl_session_st"
    }
   ],
   "return_type" : "_ZTIi",
   "source_file" : "/external/boringssl/src/include/openssl/ssl.h"
  },
  {
   "function_name" : "SSL_CTX_check_private_key",
   "linker_set_key" : "SSL_CTX_check_private_key",
   "parameters" :
   [
    {
     "referenced_type" : "_ZTIPK10ssl_ctx_st"
    }
   ],
   "return_type" : "_ZTIi",
   "source_file" : "/external/boringssl/src/include/openssl/ssl.h"
  },
  {
   "function_name" : "SSL_CTX_cipher_in_group",
   "linker_set_key" : "SSL_CTX_cipher_in_group",
   "parameters" :
   [
    {
     "referenced_type" : "_ZTIPK10ssl_ctx_st"
    },
    {
     "referenced_type" : "_ZTIm"
    }
   ],
   "return_type" : "_ZTIi",
   "source_file" : "/external/boringssl/src/include/openssl/ssl.h"
  },
  {
   "function_name" : "SSL_CTX_clear_chain_certs",
   "linker_set_key" : "SSL_CTX_clear_chain_certs",
   "parameters" :
   [
    {
     "referenced_type" : "_ZTIP10ssl_ctx_st"
    }
   ],
   "return_type" : "_ZTIi",
   "source_file" : "/external/boringssl/src/include/openssl/ssl.h"
  },
  {
   "function_name" : "SSL_CTX_clear_extra_chain_certs",
   "linker_set_key" : "SSL_CTX_clear_extra_chain_certs",
   "parameters" :
   [
    {
     "referenced_type" : "_ZTIP10ssl_ctx_st"
    }
   ],
   "return_type" : "_ZTIi",
   "source_file" : "/external/boringssl/src/include/openssl/ssl.h"
  },
  {
   "function_name" : "SSL_CTX_clear_mode",
   "linker_set_key" : "SSL_CTX_clear_mode",
   "parameters" :
   [
    {
     "referenced_type" : "_ZTIP10ssl_ctx_st"
    },
    {
     "referenced_type" : "_ZTIj"
    }
   ],
   "return_type" : "_ZTIj",
   "source_file" : "/external/boringssl/src/include/openssl/ssl.h"
  },
  {
   "function_name" : "SSL_CTX_clear_options",
   "linker_set_key" : "SSL_CTX_clear_options",
   "parameters" :
   [
    {
     "referenced_type" : "_ZTIP10ssl_ctx_st"
    },
    {
     "referenced_type" : "_ZTIj"
    }
   ],
   "return_type" : "_ZTIj",
   "source_file" : "/external/boringssl/src/include/openssl/ssl.h"
  },
  {
   "function_name" : "SSL_CTX_enable_ocsp_stapling",
   "linker_set_key" : "SSL_CTX_enable_ocsp_stapling",
   "parameters" :
   [
    {
     "referenced_type" : "_ZTIP10ssl_ctx_st"
    }
   ],
   "return_type" : "_ZTIv",
   "source_file" : "/external/boringssl/src/include/openssl/ssl.h"
  },
  {
   "function_name" : "SSL_CTX_enable_pq_experiment_signal",
   "linker_set_key" : "SSL_CTX_enable_pq_experiment_signal",
   "parameters" :
   [
    {
     "referenced_type" : "_ZTIP10ssl_ctx_st"
    }
   ],
   "return_type" : "_ZTIv",
   "source_file" : "/external/boringssl/src/include/openssl/ssl.h"
  },
  {
   "function_name" : "SSL_CTX_enable_signed_cert_timestamps",
   "linker_set_key" : "SSL_CTX_enable_signed_cert_timestamps",
   "parameters" :
   [
    {
     "referenced_type" : "_ZTIP10ssl_ctx_st"
    }
   ],
   "return_type" : "_ZTIv",
   "source_file" : "/external/boringssl/src/include/openssl/ssl.h"
  },
  {
   "function_name" : "SSL_CTX_enable_tls_channel_id",
   "linker_set_key" : "SSL_CTX_enable_tls_channel_id",
   "parameters" :
   [
    {
     "referenced_type" : "_ZTIP10ssl_ctx_st"
    }
   ],
   "return_type" : "_ZTIi",
   "source_file" : "/external/boringssl/src/include/openssl/ssl.h"
  },
  {
   "function_name" : "SSL_CTX_flush_sessions",
   "linker_set_key" : "SSL_CTX_flush_sessions",
   "parameters" :
   [
    {
     "referenced_type" : "_ZTIP10ssl_ctx_st"
    },
    {
     "referenced_type" : "_ZTIm"
    }
   ],
   "return_type" : "_ZTIv",
   "source_file" : "/external/boringssl/src/include/openssl/ssl.h"
  },
  {
   "function_name" : "SSL_CTX_free",
   "linker_set_key" : "SSL_CTX_free",
   "parameters" :
   [
    {
     "referenced_type" : "_ZTIP10ssl_ctx_st"
    }
   ],
   "return_type" : "_ZTIv",
   "source_file" : "/external/boringssl/src/include/openssl/ssl.h"
  },
  {
   "function_name" : "SSL_CTX_get0_certificate",
   "linker_set_key" : "SSL_CTX_get0_certificate",
   "parameters" :
   [
    {
     "referenced_type" : "_ZTIPK10ssl_ctx_st"
    }
   ],
   "return_type" : "_ZTIP7x509_st",
   "source_file" : "/external/boringssl/src/include/openssl/ssl.h"
  },
  {
   "function_name" : "SSL_CTX_get0_chain_certs",
   "linker_set_key" : "SSL_CTX_get0_chain_certs",
   "parameters" :
   [
    {
     "referenced_type" : "_ZTIPK10ssl_ctx_st"
    },
    {
     "referenced_type" : "_ZTIPP13stack_st_X509"
    }
   ],
   "return_type" : "_ZTIi",
   "source_file" : "/external/boringssl/src/include/openssl/ssl.h"
  },
  {
   "function_name" : "SSL_CTX_get0_param",
   "linker_set_key" : "SSL_CTX_get0_param",
   "parameters" :
   [
    {
     "referenced_type" : "_ZTIP10ssl_ctx_st"
    }
   ],
   "return_type" : "_ZTIP20X509_VERIFY_PARAM_st",
   "source_file" : "/external/boringssl/src/include/openssl/ssl.h"
  },
  {
   "function_name" : "SSL_CTX_get0_privatekey",
   "linker_set_key" : "SSL_CTX_get0_privatekey",
   "parameters" :
   [
    {
     "referenced_type" : "_ZTIPK10ssl_ctx_st"
    }
   ],
   "return_type" : "_ZTIP11evp_pkey_st",
   "source_file" : "/external/boringssl/src/include/openssl/ssl.h"
  },
  {
   "function_name" : "SSL_CTX_get_cert_store",
   "linker_set_key" : "SSL_CTX_get_cert_store",
   "parameters" :
   [
    {
     "referenced_type" : "_ZTIPK10ssl_ctx_st"
    }
   ],
   "return_type" : "_ZTIP13x509_store_st",
   "source_file" : "/external/boringssl/src/include/openssl/ssl.h"
  },
  {
   "function_name" : "SSL_CTX_get_channel_id_cb",
   "linker_set_key" : "SSL_CTX_get_channel_id_cb",
   "parameters" :
   [
    {
     "referenced_type" : "_ZTIP10ssl_ctx_st"
    }
   ],
   "return_type" : "_ZTIPFvP6ssl_stPP11evp_pkey_stE",
   "source_file" : "/external/boringssl/src/include/openssl/ssl.h"
  },
  {
   "function_name" : "SSL_CTX_get_ciphers",
   "linker_set_key" : "SSL_CTX_get_ciphers",
   "parameters" :
   [
    {
     "referenced_type" : "_ZTIPK10ssl_ctx_st"
    }
   ],
   "return_type" : "_ZTIP19stack_st_SSL_CIPHER",
   "source_file" : "/external/boringssl/src/include/openssl/ssl.h"
  },
  {
   "function_name" : "SSL_CTX_get_client_CA_list",
   "linker_set_key" : "SSL_CTX_get_client_CA_list",
   "parameters" :
   [
    {
     "referenced_type" : "_ZTIPK10ssl_ctx_st"
    }
   ],
   "return_type" : "_ZTIP18stack_st_X509_NAME",
   "source_file" : "/external/boringssl/src/include/openssl/ssl.h"
  },
  {
   "function_name" : "SSL_CTX_get_default_passwd_cb",
   "linker_set_key" : "SSL_CTX_get_default_passwd_cb",
   "parameters" :
   [
    {
     "referenced_type" : "_ZTIPK10ssl_ctx_st"
    }
   ],
   "return_type" : "_ZTIPFiPciiPvE",
   "source_file" : "/external/boringssl/src/include/openssl/ssl.h"
  },
  {
   "function_name" : "SSL_CTX_get_default_passwd_cb_userdata",
   "linker_set_key" : "SSL_CTX_get_default_passwd_cb_userdata",
   "parameters" :
   [
    {
     "referenced_type" : "_ZTIPK10ssl_ctx_st"
    }
   ],
   "return_type" : "_ZTIPv",
   "source_file" : "/external/boringssl/src/include/openssl/ssl.h"
  },
  {
   "function_name" : "SSL_CTX_get_ex_data",
   "linker_set_key" : "SSL_CTX_get_ex_data",
   "parameters" :
   [
    {
     "referenced_type" : "_ZTIPK10ssl_ctx_st"
    },
    {
     "referenced_type" : "_ZTIi"
    }
   ],
   "return_type" : "_ZTIPv",
   "source_file" : "/external/boringssl/src/include/openssl/ssl.h"
  },
  {
   "function_name" : "SSL_CTX_get_ex_new_index",
   "linker_set_key" : "SSL_CTX_get_ex_new_index",
   "parameters" :
   [
    {
     "referenced_type" : "_ZTIl"
    },
    {
     "referenced_type" : "_ZTIPv"
    },
    {
     "referenced_type" : "_ZTIPi"
    },
    {
     "referenced_type" : "_ZTIPFiP17crypto_ex_data_stPKS_PPvilS3_E"
    },
    {
     "referenced_type" : "_ZTIPFvPvS_P17crypto_ex_data_stilS_E"
    }
   ],
   "return_type" : "_ZTIi",
   "source_file" : "/external/boringssl/src/include/openssl/ssl.h"
  },
  {
   "function_name" : "SSL_CTX_get_extra_chain_certs",
   "linker_set_key" : "SSL_CTX_get_extra_chain_certs",
   "parameters" :
   [
    {
     "referenced_type" : "_ZTIPK10ssl_ctx_st"
    },
    {
     "referenced_type" : "_ZTIPP13stack_st_X509"
    }
   ],
   "return_type" : "_ZTIi",
   "source_file" : "/external/boringssl/src/include/openssl/ssl.h"
  },
  {
   "function_name" : "SSL_CTX_get_info_callback",
   "linker_set_key" : "SSL_CTX_get_info_callback",
   "parameters" :
   [
    {
     "referenced_type" : "_ZTIP10ssl_ctx_st"
    }
   ],
   "return_type" : "_ZTIPFvPK6ssl_stiiE",
   "source_file" : "/external/boringssl/src/include/openssl/ssl.h"
  },
  {
   "function_name" : "SSL_CTX_get_keylog_callback",
   "linker_set_key" : "SSL_CTX_get_keylog_callback",
   "parameters" :
   [
    {
     "referenced_type" : "_ZTIPK10ssl_ctx_st"
    }
   ],
   "return_type" : "_ZTIPFvPK6ssl_stPKcE",
   "source_file" : "/external/boringssl/src/include/openssl/ssl.h"
  },
  {
   "function_name" : "SSL_CTX_get_max_cert_list",
   "linker_set_key" : "SSL_CTX_get_max_cert_list",
   "parameters" :
   [
    {
     "referenced_type" : "_ZTIPK10ssl_ctx_st"
    }
   ],
   "return_type" : "_ZTIm",
   "source_file" : "/external/boringssl/src/include/openssl/ssl.h"
  },
  {
   "function_name" : "SSL_CTX_get_max_proto_version",
   "linker_set_key" : "SSL_CTX_get_max_proto_version",
   "parameters" :
   [
    {
     "referenced_type" : "_ZTIPK10ssl_ctx_st"
    }
   ],
   "return_type" : "_ZTIt",
   "source_file" : "/external/boringssl/src/include/openssl/ssl.h"
  },
  {
   "function_name" : "SSL_CTX_get_min_proto_version",
   "linker_set_key" : "SSL_CTX_get_min_proto_version",
   "parameters" :
   [
    {
     "referenced_type" : "_ZTIPK10ssl_ctx_st"
    }
   ],
   "return_type" : "_ZTIt",
   "source_file" : "/external/boringssl/src/include/openssl/ssl.h"
  },
  {
   "function_name" : "SSL_CTX_get_mode",
   "linker_set_key" : "SSL_CTX_get_mode",
   "parameters" :
   [
    {
     "referenced_type" : "_ZTIPK10ssl_ctx_st"
    }
   ],
   "return_type" : "_ZTIj",
   "source_file" : "/external/boringssl/src/include/openssl/ssl.h"
  },
  {
   "function_name" : "SSL_CTX_get_options",
   "linker_set_key" : "SSL_CTX_get_options",
   "parameters" :
   [
    {
     "referenced_type" : "_ZTIPK10ssl_ctx_st"
    }
   ],
   "return_type" : "_ZTIj",
   "source_file" : "/external/boringssl/src/include/openssl/ssl.h"
  },
  {
   "function_name" : "SSL_CTX_get_quiet_shutdown",
   "linker_set_key" : "SSL_CTX_get_quiet_shutdown",
   "parameters" :
   [
    {
     "referenced_type" : "_ZTIPK10ssl_ctx_st"
    }
   ],
   "return_type" : "_ZTIi",
   "source_file" : "/external/boringssl/src/include/openssl/ssl.h"
  },
  {
   "function_name" : "SSL_CTX_get_read_ahead",
   "linker_set_key" : "SSL_CTX_get_read_ahead",
   "parameters" :
   [
    {
     "referenced_type" : "_ZTIPK10ssl_ctx_st"
    }
   ],
   "return_type" : "_ZTIi",
   "source_file" : "/external/boringssl/src/include/openssl/ssl.h"
  },
  {
   "function_name" : "SSL_CTX_get_session_cache_mode",
   "linker_set_key" : "SSL_CTX_get_session_cache_mode",
   "parameters" :
   [
    {
     "referenced_type" : "_ZTIPK10ssl_ctx_st"
    }
   ],
   "return_type" : "_ZTIi",
   "source_file" : "/external/boringssl/src/include/openssl/ssl.h"
  },
  {
   "function_name" : "SSL_CTX_get_timeout",
   "linker_set_key" : "SSL_CTX_get_timeout",
   "parameters" :
   [
    {
     "referenced_type" : "_ZTIPK10ssl_ctx_st"
    }
   ],
   "return_type" : "_ZTIj",
   "source_file" : "/external/boringssl/src/include/openssl/ssl.h"
  },
  {
   "function_name" : "SSL_CTX_get_tlsext_ticket_keys",
   "linker_set_key" : "SSL_CTX_get_tlsext_ticket_keys",
   "parameters" :
   [
    {
     "referenced_type" : "_ZTIP10ssl_ctx_st"
    },
    {
     "referenced_type" : "_ZTIPv"
    },
    {
     "referenced_type" : "_ZTIm"
    }
   ],
   "return_type" : "_ZTIi",
   "source_file" : "/external/boringssl/src/include/openssl/ssl.h"
  },
  {
   "function_name" : "SSL_CTX_get_verify_callback",
   "linker_set_key" : "SSL_CTX_get_verify_callback",
   "parameters" :
   [
    {
     "referenced_type" : "_ZTIPK10ssl_ctx_st"
    }
   ],
   "return_type" : "_ZTIPFiiP17x509_store_ctx_stE",
   "source_file" : "/external/boringssl/src/include/openssl/ssl.h"
  },
  {
   "function_name" : "SSL_CTX_get_verify_depth",
   "linker_set_key" : "SSL_CTX_get_verify_depth",
   "parameters" :
   [
    {
     "referenced_type" : "_ZTIPK10ssl_ctx_st"
    }
   ],
   "return_type" : "_ZTIi",
   "source_file" : "/external/boringssl/src/include/openssl/ssl.h"
  },
  {
   "function_name" : "SSL_CTX_get_verify_mode",
   "linker_set_key" : "SSL_CTX_get_verify_mode",
   "parameters" :
   [
    {
     "referenced_type" : "_ZTIPK10ssl_ctx_st"
    }
   ],
   "return_type" : "_ZTIi",
   "source_file" : "/external/boringssl/src/include/openssl/ssl.h"
  },
  {
   "function_name" : "SSL_CTX_load_verify_locations",
   "linker_set_key" : "SSL_CTX_load_verify_locations",
   "parameters" :
   [
    {
     "referenced_type" : "_ZTIP10ssl_ctx_st"
    },
    {
     "referenced_type" : "_ZTIPKc"
    },
    {
     "referenced_type" : "_ZTIPKc"
    }
   ],
   "return_type" : "_ZTIi",
   "source_file" : "/external/boringssl/src/include/openssl/ssl.h"
  },
  {
   "function_name" : "SSL_CTX_need_tmp_RSA",
   "linker_set_key" : "SSL_CTX_need_tmp_RSA",
   "parameters" :
   [
    {
     "referenced_type" : "_ZTIPK10ssl_ctx_st"
    }
   ],
   "return_type" : "_ZTIi",
   "source_file" : "/external/boringssl/src/include/openssl/ssl.h"
  },
  {
   "function_name" : "SSL_CTX_new",
   "linker_set_key" : "SSL_CTX_new",
   "parameters" :
   [
    {
     "referenced_type" : "_ZTIPK13ssl_method_st"
    }
   ],
   "return_type" : "_ZTIP10ssl_ctx_st",
   "source_file" : "/external/boringssl/src/include/openssl/ssl.h"
  },
  {
   "function_name" : "SSL_CTX_remove_session",
   "linker_set_key" : "SSL_CTX_remove_session",
   "parameters" :
   [
    {
     "referenced_type" : "_ZTIP10ssl_ctx_st"
    },
    {
     "referenced_type" : "_ZTIP14ssl_session_st"
    }
   ],
   "return_type" : "_ZTIi",
   "source_file" : "/external/boringssl/src/include/openssl/ssl.h"
  },
  {
   "function_name" : "SSL_CTX_sess_accept",
   "linker_set_key" : "SSL_CTX_sess_accept",
   "parameters" :
   [
    {
     "referenced_type" : "_ZTIPK10ssl_ctx_st"
    }
   ],
   "return_type" : "_ZTIi",
   "source_file" : "/external/boringssl/src/include/openssl/ssl.h"
  },
  {
   "function_name" : "SSL_CTX_sess_accept_good",
   "linker_set_key" : "SSL_CTX_sess_accept_good",
   "parameters" :
   [
    {
     "referenced_type" : "_ZTIPK10ssl_ctx_st"
    }
   ],
   "return_type" : "_ZTIi",
   "source_file" : "/external/boringssl/src/include/openssl/ssl.h"
  },
  {
   "function_name" : "SSL_CTX_sess_accept_renegotiate",
   "linker_set_key" : "SSL_CTX_sess_accept_renegotiate",
   "parameters" :
   [
    {
     "referenced_type" : "_ZTIPK10ssl_ctx_st"
    }
   ],
   "return_type" : "_ZTIi",
   "source_file" : "/external/boringssl/src/include/openssl/ssl.h"
  },
  {
   "function_name" : "SSL_CTX_sess_cache_full",
   "linker_set_key" : "SSL_CTX_sess_cache_full",
   "parameters" :
   [
    {
     "referenced_type" : "_ZTIPK10ssl_ctx_st"
    }
   ],
   "return_type" : "_ZTIi",
   "source_file" : "/external/boringssl/src/include/openssl/ssl.h"
  },
  {
   "function_name" : "SSL_CTX_sess_cb_hits",
   "linker_set_key" : "SSL_CTX_sess_cb_hits",
   "parameters" :
   [
    {
     "referenced_type" : "_ZTIPK10ssl_ctx_st"
    }
   ],
   "return_type" : "_ZTIi",
   "source_file" : "/external/boringssl/src/include/openssl/ssl.h"
  },
  {
   "function_name" : "SSL_CTX_sess_connect",
   "linker_set_key" : "SSL_CTX_sess_connect",
   "parameters" :
   [
    {
     "referenced_type" : "_ZTIPK10ssl_ctx_st"
    }
   ],
   "return_type" : "_ZTIi",
   "source_file" : "/external/boringssl/src/include/openssl/ssl.h"
  },
  {
   "function_name" : "SSL_CTX_sess_connect_good",
   "linker_set_key" : "SSL_CTX_sess_connect_good",
   "parameters" :
   [
    {
     "referenced_type" : "_ZTIPK10ssl_ctx_st"
    }
   ],
   "return_type" : "_ZTIi",
   "source_file" : "/external/boringssl/src/include/openssl/ssl.h"
  },
  {
   "function_name" : "SSL_CTX_sess_connect_renegotiate",
   "linker_set_key" : "SSL_CTX_sess_connect_renegotiate",
   "parameters" :
   [
    {
     "referenced_type" : "_ZTIPK10ssl_ctx_st"
    }
   ],
   "return_type" : "_ZTIi",
   "source_file" : "/external/boringssl/src/include/openssl/ssl.h"
  },
  {
   "function_name" : "SSL_CTX_sess_get_cache_size",
   "linker_set_key" : "SSL_CTX_sess_get_cache_size",
   "parameters" :
   [
    {
     "referenced_type" : "_ZTIPK10ssl_ctx_st"
    }
   ],
   "return_type" : "_ZTIm",
   "source_file" : "/external/boringssl/src/include/openssl/ssl.h"
  },
  {
   "function_name" : "SSL_CTX_sess_get_get_cb",
   "linker_set_key" : "SSL_CTX_sess_get_get_cb",
   "parameters" :
   [
    {
     "referenced_type" : "_ZTIP10ssl_ctx_st"
    }
   ],
   "return_type" : "_ZTIPFP14ssl_session_stP6ssl_stPKhiPiE",
   "source_file" : "/external/boringssl/src/include/openssl/ssl.h"
  },
  {
   "function_name" : "SSL_CTX_sess_get_new_cb",
   "linker_set_key" : "SSL_CTX_sess_get_new_cb",
   "parameters" :
   [
    {
     "referenced_type" : "_ZTIP10ssl_ctx_st"
    }
   ],
   "return_type" : "_ZTIPFiP6ssl_stP14ssl_session_stE",
   "source_file" : "/external/boringssl/src/include/openssl/ssl.h"
  },
  {
   "function_name" : "SSL_CTX_sess_get_remove_cb",
   "linker_set_key" : "SSL_CTX_sess_get_remove_cb",
   "parameters" :
   [
    {
     "referenced_type" : "_ZTIP10ssl_ctx_st"
    }
   ],
   "return_type" : "_ZTIPFvP10ssl_ctx_stP14ssl_session_stE",
   "source_file" : "/external/boringssl/src/include/openssl/ssl.h"
  },
  {
   "function_name" : "SSL_CTX_sess_hits",
   "linker_set_key" : "SSL_CTX_sess_hits",
   "parameters" :
   [
    {
     "referenced_type" : "_ZTIPK10ssl_ctx_st"
    }
   ],
   "return_type" : "_ZTIi",
   "source_file" : "/external/boringssl/src/include/openssl/ssl.h"
  },
  {
   "function_name" : "SSL_CTX_sess_misses",
   "linker_set_key" : "SSL_CTX_sess_misses",
   "parameters" :
   [
    {
     "referenced_type" : "_ZTIPK10ssl_ctx_st"
    }
   ],
   "return_type" : "_ZTIi",
   "source_file" : "/external/boringssl/src/include/openssl/ssl.h"
  },
  {
   "function_name" : "SSL_CTX_sess_number",
   "linker_set_key" : "SSL_CTX_sess_number",
   "parameters" :
   [
    {
     "referenced_type" : "_ZTIPK10ssl_ctx_st"
    }
   ],
   "return_type" : "_ZTIm",
   "source_file" : "/external/boringssl/src/include/openssl/ssl.h"
  },
  {
   "function_name" : "SSL_CTX_sess_set_cache_size",
   "linker_set_key" : "SSL_CTX_sess_set_cache_size",
   "parameters" :
   [
    {
     "referenced_type" : "_ZTIP10ssl_ctx_st"
    },
    {
     "referenced_type" : "_ZTIm"
    }
   ],
   "return_type" : "_ZTIm",
   "source_file" : "/external/boringssl/src/include/openssl/ssl.h"
  },
  {
   "function_name" : "SSL_CTX_sess_set_get_cb",
   "linker_set_key" : "SSL_CTX_sess_set_get_cb",
   "parameters" :
   [
    {
     "referenced_type" : "_ZTIP10ssl_ctx_st"
    },
    {
     "referenced_type" : "_ZTIPFP14ssl_session_stP6ssl_stPKhiPiE"
    }
   ],
   "return_type" : "_ZTIv",
   "source_file" : "/external/boringssl/src/include/openssl/ssl.h"
  },
  {
   "function_name" : "SSL_CTX_sess_set_new_cb",
   "linker_set_key" : "SSL_CTX_sess_set_new_cb",
   "parameters" :
   [
    {
     "referenced_type" : "_ZTIP10ssl_ctx_st"
    },
    {
     "referenced_type" : "_ZTIPFiP6ssl_stP14ssl_session_stE"
    }
   ],
   "return_type" : "_ZTIv",
   "source_file" : "/external/boringssl/src/include/openssl/ssl.h"
  },
  {
   "function_name" : "SSL_CTX_sess_set_remove_cb",
   "linker_set_key" : "SSL_CTX_sess_set_remove_cb",
   "parameters" :
   [
    {
     "referenced_type" : "_ZTIP10ssl_ctx_st"
    },
    {
     "referenced_type" : "_ZTIPFvP10ssl_ctx_stP14ssl_session_stE"
    }
   ],
   "return_type" : "_ZTIv",
   "source_file" : "/external/boringssl/src/include/openssl/ssl.h"
  },
  {
   "function_name" : "SSL_CTX_sess_timeouts",
   "linker_set_key" : "SSL_CTX_sess_timeouts",
   "parameters" :
   [
    {
     "referenced_type" : "_ZTIPK10ssl_ctx_st"
    }
   ],
   "return_type" : "_ZTIi",
   "source_file" : "/external/boringssl/src/include/openssl/ssl.h"
  },
  {
   "function_name" : "SSL_CTX_set0_buffer_pool",
   "linker_set_key" : "SSL_CTX_set0_buffer_pool",
   "parameters" :
   [
    {
     "referenced_type" : "_ZTIP10ssl_ctx_st"
    },
    {
     "referenced_type" : "_ZTIP21crypto_buffer_pool_st"
    }
   ],
   "return_type" : "_ZTIv",
   "source_file" : "/external/boringssl/src/include/openssl/ssl.h"
  },
  {
   "function_name" : "SSL_CTX_set0_chain",
   "linker_set_key" : "SSL_CTX_set0_chain",
   "parameters" :
   [
    {
     "referenced_type" : "_ZTIP10ssl_ctx_st"
    },
    {
     "referenced_type" : "_ZTIP13stack_st_X509"
    }
   ],
   "return_type" : "_ZTIi",
   "source_file" : "/external/boringssl/src/include/openssl/ssl.h"
  },
  {
   "function_name" : "SSL_CTX_set0_client_CAs",
   "linker_set_key" : "SSL_CTX_set0_client_CAs",
   "parameters" :
   [
    {
     "referenced_type" : "_ZTIP10ssl_ctx_st"
    },
    {
     "referenced_type" : "_ZTIP22stack_st_CRYPTO_BUFFER"
    }
   ],
   "return_type" : "_ZTIv",
   "source_file" : "/external/boringssl/src/include/openssl/ssl.h"
  },
  {
   "function_name" : "SSL_CTX_set0_verify_cert_store",
   "linker_set_key" : "SSL_CTX_set0_verify_cert_store",
   "parameters" :
   [
    {
     "referenced_type" : "_ZTIP10ssl_ctx_st"
    },
    {
     "referenced_type" : "_ZTIP13x509_store_st"
    }
   ],
   "return_type" : "_ZTIi",
   "source_file" : "/external/boringssl/src/include/openssl/ssl.h"
  },
  {
   "function_name" : "SSL_CTX_set1_chain",
   "linker_set_key" : "SSL_CTX_set1_chain",
   "parameters" :
   [
    {
     "referenced_type" : "_ZTIP10ssl_ctx_st"
    },
    {
     "referenced_type" : "_ZTIP13stack_st_X509"
    }
   ],
   "return_type" : "_ZTIi",
   "source_file" : "/external/boringssl/src/include/openssl/ssl.h"
  },
  {
   "function_name" : "SSL_CTX_set1_curves",
   "linker_set_key" : "SSL_CTX_set1_curves",
   "parameters" :
   [
    {
     "referenced_type" : "_ZTIP10ssl_ctx_st"
    },
    {
     "referenced_type" : "_ZTIPKi"
    },
    {
     "referenced_type" : "_ZTIm"
    }
   ],
   "return_type" : "_ZTIi",
   "source_file" : "/external/boringssl/src/include/openssl/ssl.h"
  },
  {
   "function_name" : "SSL_CTX_set1_curves_list",
   "linker_set_key" : "SSL_CTX_set1_curves_list",
   "parameters" :
   [
    {
     "referenced_type" : "_ZTIP10ssl_ctx_st"
    },
    {
     "referenced_type" : "_ZTIPKc"
    }
   ],
   "return_type" : "_ZTIi",
   "source_file" : "/external/boringssl/src/include/openssl/ssl.h"
  },
  {
   "function_name" : "SSL_CTX_set1_param",
   "linker_set_key" : "SSL_CTX_set1_param",
   "parameters" :
   [
    {
     "referenced_type" : "_ZTIP10ssl_ctx_st"
    },
    {
     "referenced_type" : "_ZTIPK20X509_VERIFY_PARAM_st"
    }
   ],
   "return_type" : "_ZTIi",
   "source_file" : "/external/boringssl/src/include/openssl/ssl.h"
  },
  {
   "function_name" : "SSL_CTX_set1_sigalgs",
   "linker_set_key" : "SSL_CTX_set1_sigalgs",
   "parameters" :
   [
    {
     "referenced_type" : "_ZTIP10ssl_ctx_st"
    },
    {
     "referenced_type" : "_ZTIPKi"
    },
    {
     "referenced_type" : "_ZTIm"
    }
   ],
   "return_type" : "_ZTIi",
   "source_file" : "/external/boringssl/src/include/openssl/ssl.h"
  },
  {
   "function_name" : "SSL_CTX_set1_sigalgs_list",
   "linker_set_key" : "SSL_CTX_set1_sigalgs_list",
   "parameters" :
   [
    {
     "referenced_type" : "_ZTIP10ssl_ctx_st"
    },
    {
     "referenced_type" : "_ZTIPKc"
    }
   ],
   "return_type" : "_ZTIi",
   "source_file" : "/external/boringssl/src/include/openssl/ssl.h"
  },
  {
   "function_name" : "SSL_CTX_set1_tls_channel_id",
   "linker_set_key" : "SSL_CTX_set1_tls_channel_id",
   "parameters" :
   [
    {
     "referenced_type" : "_ZTIP10ssl_ctx_st"
    },
    {
     "referenced_type" : "_ZTIP11evp_pkey_st"
    }
   ],
   "return_type" : "_ZTIi",
   "source_file" : "/external/boringssl/src/include/openssl/ssl.h"
  },
  {
   "function_name" : "SSL_CTX_set1_verify_cert_store",
   "linker_set_key" : "SSL_CTX_set1_verify_cert_store",
   "parameters" :
   [
    {
     "referenced_type" : "_ZTIP10ssl_ctx_st"
    },
    {
     "referenced_type" : "_ZTIP13x509_store_st"
    }
   ],
   "return_type" : "_ZTIi",
   "source_file" : "/external/boringssl/src/include/openssl/ssl.h"
  },
  {
   "function_name" : "SSL_CTX_set_allow_unknown_alpn_protos",
   "linker_set_key" : "SSL_CTX_set_allow_unknown_alpn_protos",
   "parameters" :
   [
    {
     "referenced_type" : "_ZTIP10ssl_ctx_st"
    },
    {
     "referenced_type" : "_ZTIi"
    }
   ],
   "return_type" : "_ZTIv",
   "source_file" : "/external/boringssl/src/include/openssl/ssl.h"
  },
  {
   "function_name" : "SSL_CTX_set_alpn_protos",
   "linker_set_key" : "SSL_CTX_set_alpn_protos",
   "parameters" :
   [
    {
     "referenced_type" : "_ZTIP10ssl_ctx_st"
    },
    {
     "referenced_type" : "_ZTIPKh"
    },
    {
     "referenced_type" : "_ZTIj"
    }
   ],
   "return_type" : "_ZTIi",
   "source_file" : "/external/boringssl/src/include/openssl/ssl.h"
  },
  {
   "function_name" : "SSL_CTX_set_alpn_select_cb",
   "linker_set_key" : "SSL_CTX_set_alpn_select_cb",
   "parameters" :
   [
    {
     "referenced_type" : "_ZTIP10ssl_ctx_st"
    },
    {
     "referenced_type" : "_ZTIPFiP6ssl_stPPKhPhS2_jPvE"
    },
    {
     "referenced_type" : "_ZTIPv"
    }
   ],
   "return_type" : "_ZTIv",
   "source_file" : "/external/boringssl/src/include/openssl/ssl.h"
  },
  {
   "function_name" : "SSL_CTX_set_cert_cb",
   "linker_set_key" : "SSL_CTX_set_cert_cb",
   "parameters" :
   [
    {
     "referenced_type" : "_ZTIP10ssl_ctx_st"
    },
    {
     "referenced_type" : "_ZTIPFiP6ssl_stPvE"
    },
    {
     "referenced_type" : "_ZTIPv"
    }
   ],
   "return_type" : "_ZTIv",
   "source_file" : "/external/boringssl/src/include/openssl/ssl.h"
  },
  {
   "function_name" : "SSL_CTX_set_cert_store",
   "linker_set_key" : "SSL_CTX_set_cert_store",
   "parameters" :
   [
    {
     "referenced_type" : "_ZTIP10ssl_ctx_st"
    },
    {
     "referenced_type" : "_ZTIP13x509_store_st"
    }
   ],
   "return_type" : "_ZTIv",
   "source_file" : "/external/boringssl/src/include/openssl/ssl.h"
  },
  {
   "function_name" : "SSL_CTX_set_cert_verify_callback",
   "linker_set_key" : "SSL_CTX_set_cert_verify_callback",
   "parameters" :
   [
    {
     "referenced_type" : "_ZTIP10ssl_ctx_st"
    },
    {
     "referenced_type" : "_ZTIPFiP17x509_store_ctx_stPvE"
    },
    {
     "referenced_type" : "_ZTIPv"
    }
   ],
   "return_type" : "_ZTIv",
   "source_file" : "/external/boringssl/src/include/openssl/ssl.h"
  },
  {
   "function_name" : "SSL_CTX_set_chain_and_key",
   "linker_set_key" : "SSL_CTX_set_chain_and_key",
   "parameters" :
   [
    {
     "referenced_type" : "_ZTIP10ssl_ctx_st"
    },
    {
     "referenced_type" : "_ZTIPKP16crypto_buffer_st"
    },
    {
     "referenced_type" : "_ZTIm"
    },
    {
     "referenced_type" : "_ZTIP11evp_pkey_st"
    },
    {
     "referenced_type" : "_ZTIPK25ssl_private_key_method_st"
    }
   ],
   "return_type" : "_ZTIi",
   "source_file" : "/external/boringssl/src/include/openssl/ssl.h"
  },
  {
   "function_name" : "SSL_CTX_set_channel_id_cb",
   "linker_set_key" : "SSL_CTX_set_channel_id_cb",
   "parameters" :
   [
    {
     "referenced_type" : "_ZTIP10ssl_ctx_st"
    },
    {
     "referenced_type" : "_ZTIPFvP6ssl_stPP11evp_pkey_stE"
    }
   ],
   "return_type" : "_ZTIv",
   "source_file" : "/external/boringssl/src/include/openssl/ssl.h"
  },
  {
   "function_name" : "SSL_CTX_set_cipher_list",
   "linker_set_key" : "SSL_CTX_set_cipher_list",
   "parameters" :
   [
    {
     "referenced_type" : "_ZTIP10ssl_ctx_st"
    },
    {
     "referenced_type" : "_ZTIPKc"
    }
   ],
   "return_type" : "_ZTIi",
   "source_file" : "/external/boringssl/src/include/openssl/ssl.h"
  },
  {
   "function_name" : "SSL_CTX_set_client_CA_list",
   "linker_set_key" : "SSL_CTX_set_client_CA_list",
   "parameters" :
   [
    {
     "referenced_type" : "_ZTIP10ssl_ctx_st"
    },
    {
     "referenced_type" : "_ZTIP18stack_st_X509_NAME"
    }
   ],
   "return_type" : "_ZTIv",
   "source_file" : "/external/boringssl/src/include/openssl/ssl.h"
  },
  {
   "function_name" : "SSL_CTX_set_client_cert_cb",
   "linker_set_key" : "SSL_CTX_set_client_cert_cb",
   "parameters" :
   [
    {
     "referenced_type" : "_ZTIP10ssl_ctx_st"
    },
    {
     "referenced_type" : "_ZTIPFiP6ssl_stPP7x509_stPP11evp_pkey_stE"
    }
   ],
   "return_type" : "_ZTIv",
   "source_file" : "/external/boringssl/src/include/openssl/ssl.h"
  },
  {
   "function_name" : "SSL_CTX_set_current_time_cb",
   "linker_set_key" : "SSL_CTX_set_current_time_cb",
   "parameters" :
   [
    {
     "referenced_type" : "_ZTIP10ssl_ctx_st"
    },
    {
     "referenced_type" : "_ZTIPFvPK6ssl_stP7timevalE"
    }
   ],
   "return_type" : "_ZTIv",
   "source_file" : "/external/boringssl/src/include/openssl/ssl.h"
  },
  {
   "function_name" : "SSL_CTX_set_custom_verify",
   "linker_set_key" : "SSL_CTX_set_custom_verify",
   "parameters" :
   [
    {
     "referenced_type" : "_ZTIP10ssl_ctx_st"
    },
    {
     "referenced_type" : "_ZTIi"
    },
    {
     "referenced_type" : "_ZTIPF19ssl_verify_result_tP6ssl_stPhE"
    }
   ],
   "return_type" : "_ZTIv",
   "source_file" : "/external/boringssl/src/include/openssl/ssl.h"
  },
  {
   "function_name" : "SSL_CTX_set_default_passwd_cb",
   "linker_set_key" : "SSL_CTX_set_default_passwd_cb",
   "parameters" :
   [
    {
     "referenced_type" : "_ZTIP10ssl_ctx_st"
    },
    {
     "referenced_type" : "_ZTIPFiPciiPvE"
    }
   ],
   "return_type" : "_ZTIv",
   "source_file" : "/external/boringssl/src/include/openssl/ssl.h"
  },
  {
   "function_name" : "SSL_CTX_set_default_passwd_cb_userdata",
   "linker_set_key" : "SSL_CTX_set_default_passwd_cb_userdata",
   "parameters" :
   [
    {
     "referenced_type" : "_ZTIP10ssl_ctx_st"
    },
    {
     "referenced_type" : "_ZTIPv"
    }
   ],
   "return_type" : "_ZTIv",
   "source_file" : "/external/boringssl/src/include/openssl/ssl.h"
  },
  {
   "function_name" : "SSL_CTX_set_default_verify_paths",
   "linker_set_key" : "SSL_CTX_set_default_verify_paths",
   "parameters" :
   [
    {
     "referenced_type" : "_ZTIP10ssl_ctx_st"
    }
   ],
   "return_type" : "_ZTIi",
   "source_file" : "/external/boringssl/src/include/openssl/ssl.h"
  },
  {
   "function_name" : "SSL_CTX_set_dos_protection_cb",
   "linker_set_key" : "SSL_CTX_set_dos_protection_cb",
   "parameters" :
   [
    {
     "referenced_type" : "_ZTIP10ssl_ctx_st"
    },
    {
     "referenced_type" : "_ZTIPFiPK22ssl_early_callback_ctxE"
    }
   ],
   "return_type" : "_ZTIv",
   "source_file" : "/external/boringssl/src/include/openssl/ssl.h"
  },
  {
   "function_name" : "SSL_CTX_set_early_data_enabled",
   "linker_set_key" : "SSL_CTX_set_early_data_enabled",
   "parameters" :
   [
    {
     "referenced_type" : "_ZTIP10ssl_ctx_st"
    },
    {
     "referenced_type" : "_ZTIi"
    }
   ],
   "return_type" : "_ZTIv",
   "source_file" : "/external/boringssl/src/include/openssl/ssl.h"
  },
  {
   "function_name" : "SSL_CTX_set_ed25519_enabled",
   "linker_set_key" : "SSL_CTX_set_ed25519_enabled",
   "parameters" :
   [
    {
     "referenced_type" : "_ZTIP10ssl_ctx_st"
    },
    {
     "referenced_type" : "_ZTIi"
    }
   ],
   "return_type" : "_ZTIv",
   "source_file" : "/external/boringssl/src/include/openssl/ssl.h"
  },
  {
   "function_name" : "SSL_CTX_set_ex_data",
   "linker_set_key" : "SSL_CTX_set_ex_data",
   "parameters" :
   [
    {
     "referenced_type" : "_ZTIP10ssl_ctx_st"
    },
    {
     "referenced_type" : "_ZTIi"
    },
    {
     "referenced_type" : "_ZTIPv"
    }
   ],
   "return_type" : "_ZTIi",
   "source_file" : "/external/boringssl/src/include/openssl/ssl.h"
  },
  {
   "function_name" : "SSL_CTX_set_false_start_allowed_without_alpn",
   "linker_set_key" : "SSL_CTX_set_false_start_allowed_without_alpn",
   "parameters" :
   [
    {
     "referenced_type" : "_ZTIP10ssl_ctx_st"
    },
    {
     "referenced_type" : "_ZTIi"
    }
   ],
   "return_type" : "_ZTIv",
   "source_file" : "/external/boringssl/src/include/openssl/ssl.h"
  },
  {
   "function_name" : "SSL_CTX_set_grease_enabled",
   "linker_set_key" : "SSL_CTX_set_grease_enabled",
   "parameters" :
   [
    {
     "referenced_type" : "_ZTIP10ssl_ctx_st"
    },
    {
     "referenced_type" : "_ZTIi"
    }
   ],
   "return_type" : "_ZTIv",
   "source_file" : "/external/boringssl/src/include/openssl/ssl.h"
  },
  {
   "function_name" : "SSL_CTX_set_ignore_tls13_downgrade",
   "linker_set_key" : "SSL_CTX_set_ignore_tls13_downgrade",
   "parameters" :
   [
    {
     "referenced_type" : "_ZTIP10ssl_ctx_st"
    },
    {
     "referenced_type" : "_ZTIi"
    }
   ],
   "return_type" : "_ZTIv",
   "source_file" : "/external/boringssl/src/include/openssl/ssl.h"
  },
  {
   "function_name" : "SSL_CTX_set_info_callback",
   "linker_set_key" : "SSL_CTX_set_info_callback",
   "parameters" :
   [
    {
     "referenced_type" : "_ZTIP10ssl_ctx_st"
    },
    {
     "referenced_type" : "_ZTIPFvPK6ssl_stiiE"
    }
   ],
   "return_type" : "_ZTIv",
   "source_file" : "/external/boringssl/src/include/openssl/ssl.h"
  },
  {
   "function_name" : "SSL_CTX_set_keylog_callback",
   "linker_set_key" : "SSL_CTX_set_keylog_callback",
   "parameters" :
   [
    {
     "referenced_type" : "_ZTIP10ssl_ctx_st"
    },
    {
     "referenced_type" : "_ZTIPFvPK6ssl_stPKcE"
    }
   ],
   "return_type" : "_ZTIv",
   "source_file" : "/external/boringssl/src/include/openssl/ssl.h"
  },
  {
   "function_name" : "SSL_CTX_set_max_cert_list",
   "linker_set_key" : "SSL_CTX_set_max_cert_list",
   "parameters" :
   [
    {
     "referenced_type" : "_ZTIP10ssl_ctx_st"
    },
    {
     "referenced_type" : "_ZTIm"
    }
   ],
   "return_type" : "_ZTIv",
   "source_file" : "/external/boringssl/src/include/openssl/ssl.h"
  },
  {
   "function_name" : "SSL_CTX_set_max_proto_version",
   "linker_set_key" : "SSL_CTX_set_max_proto_version",
   "parameters" :
   [
    {
     "referenced_type" : "_ZTIP10ssl_ctx_st"
    },
    {
     "referenced_type" : "_ZTIt"
    }
   ],
   "return_type" : "_ZTIi",
   "source_file" : "/external/boringssl/src/include/openssl/ssl.h"
  },
  {
   "function_name" : "SSL_CTX_set_max_send_fragment",
   "linker_set_key" : "SSL_CTX_set_max_send_fragment",
   "parameters" :
   [
    {
     "referenced_type" : "_ZTIP10ssl_ctx_st"
    },
    {
     "referenced_type" : "_ZTIm"
    }
   ],
   "return_type" : "_ZTIi",
   "source_file" : "/external/boringssl/src/include/openssl/ssl.h"
  },
  {
   "function_name" : "SSL_CTX_set_min_proto_version",
   "linker_set_key" : "SSL_CTX_set_min_proto_version",
   "parameters" :
   [
    {
     "referenced_type" : "_ZTIP10ssl_ctx_st"
    },
    {
     "referenced_type" : "_ZTIt"
    }
   ],
   "return_type" : "_ZTIi",
   "source_file" : "/external/boringssl/src/include/openssl/ssl.h"
  },
  {
   "function_name" : "SSL_CTX_set_mode",
   "linker_set_key" : "SSL_CTX_set_mode",
   "parameters" :
   [
    {
     "referenced_type" : "_ZTIP10ssl_ctx_st"
    },
    {
     "referenced_type" : "_ZTIj"
    }
   ],
   "return_type" : "_ZTIj",
   "source_file" : "/external/boringssl/src/include/openssl/ssl.h"
  },
  {
   "function_name" : "SSL_CTX_set_msg_callback",
   "linker_set_key" : "SSL_CTX_set_msg_callback",
   "parameters" :
   [
    {
     "referenced_type" : "_ZTIP10ssl_ctx_st"
    },
    {
     "referenced_type" : "_ZTIPFviiiPKvmP6ssl_stPvE"
    }
   ],
   "return_type" : "_ZTIv",
   "source_file" : "/external/boringssl/src/include/openssl/ssl.h"
  },
  {
   "function_name" : "SSL_CTX_set_msg_callback_arg",
   "linker_set_key" : "SSL_CTX_set_msg_callback_arg",
   "parameters" :
   [
    {
     "referenced_type" : "_ZTIP10ssl_ctx_st"
    },
    {
     "referenced_type" : "_ZTIPv"
    }
   ],
   "return_type" : "_ZTIv",
   "source_file" : "/external/boringssl/src/include/openssl/ssl.h"
  },
  {
   "function_name" : "SSL_CTX_set_next_proto_select_cb",
   "linker_set_key" : "SSL_CTX_set_next_proto_select_cb",
   "parameters" :
   [
    {
     "referenced_type" : "_ZTIP10ssl_ctx_st"
    },
    {
     "referenced_type" : "_ZTIPFiP6ssl_stPPhS1_PKhjPvE"
    },
    {
     "referenced_type" : "_ZTIPv"
    }
   ],
   "return_type" : "_ZTIv",
   "source_file" : "/external/boringssl/src/include/openssl/ssl.h"
  },
  {
   "function_name" : "SSL_CTX_set_next_protos_advertised_cb",
   "linker_set_key" : "SSL_CTX_set_next_protos_advertised_cb",
   "parameters" :
   [
    {
     "referenced_type" : "_ZTIP10ssl_ctx_st"
    },
    {
     "referenced_type" : "_ZTIPFiP6ssl_stPPKhPjPvE"
    },
    {
     "referenced_type" : "_ZTIPv"
    }
   ],
   "return_type" : "_ZTIv",
   "source_file" : "/external/boringssl/src/include/openssl/ssl.h"
  },
  {
   "function_name" : "SSL_CTX_set_ocsp_response",
   "linker_set_key" : "SSL_CTX_set_ocsp_response",
   "parameters" :
   [
    {
     "referenced_type" : "_ZTIP10ssl_ctx_st"
    },
    {
     "referenced_type" : "_ZTIPKh"
    },
    {
     "referenced_type" : "_ZTIm"
    }
   ],
   "return_type" : "_ZTIi",
   "source_file" : "/external/boringssl/src/include/openssl/ssl.h"
  },
  {
   "function_name" : "SSL_CTX_set_options",
   "linker_set_key" : "SSL_CTX_set_options",
   "parameters" :
   [
    {
     "referenced_type" : "_ZTIP10ssl_ctx_st"
    },
    {
     "referenced_type" : "_ZTIj"
    }
   ],
   "return_type" : "_ZTIj",
   "source_file" : "/external/boringssl/src/include/openssl/ssl.h"
  },
  {
   "function_name" : "SSL_CTX_set_private_key_method",
   "linker_set_key" : "SSL_CTX_set_private_key_method",
   "parameters" :
   [
    {
     "referenced_type" : "_ZTIP10ssl_ctx_st"
    },
    {
     "referenced_type" : "_ZTIPK25ssl_private_key_method_st"
    }
   ],
   "return_type" : "_ZTIv",
   "source_file" : "/external/boringssl/src/include/openssl/ssl.h"
  },
  {
   "function_name" : "SSL_CTX_set_psk_client_callback",
   "linker_set_key" : "SSL_CTX_set_psk_client_callback",
   "parameters" :
   [
    {
     "referenced_type" : "_ZTIP10ssl_ctx_st"
    },
    {
     "referenced_type" : "_ZTIPFjP6ssl_stPKcPcjPhjE"
    }
   ],
   "return_type" : "_ZTIv",
   "source_file" : "/external/boringssl/src/include/openssl/ssl.h"
  },
  {
   "function_name" : "SSL_CTX_set_psk_server_callback",
   "linker_set_key" : "SSL_CTX_set_psk_server_callback",
   "parameters" :
   [
    {
     "referenced_type" : "_ZTIP10ssl_ctx_st"
    },
    {
     "referenced_type" : "_ZTIPFjP6ssl_stPKcPhjE"
    }
   ],
   "return_type" : "_ZTIv",
   "source_file" : "/external/boringssl/src/include/openssl/ssl.h"
  },
  {
   "function_name" : "SSL_CTX_set_purpose",
   "linker_set_key" : "SSL_CTX_set_purpose",
   "parameters" :
   [
    {
     "referenced_type" : "_ZTIP10ssl_ctx_st"
    },
    {
     "referenced_type" : "_ZTIi"
    }
   ],
   "return_type" : "_ZTIi",
   "source_file" : "/external/boringssl/src/include/openssl/ssl.h"
  },
  {
   "function_name" : "SSL_CTX_set_quic_method",
   "linker_set_key" : "SSL_CTX_set_quic_method",
   "parameters" :
   [
    {
     "referenced_type" : "_ZTIP10ssl_ctx_st"
    },
    {
     "referenced_type" : "_ZTIPK18ssl_quic_method_st"
    }
   ],
   "return_type" : "_ZTIi",
   "source_file" : "/external/boringssl/src/include/openssl/ssl.h"
  },
  {
   "function_name" : "SSL_CTX_set_quiet_shutdown",
   "linker_set_key" : "SSL_CTX_set_quiet_shutdown",
   "parameters" :
   [
    {
     "referenced_type" : "_ZTIP10ssl_ctx_st"
    },
    {
     "referenced_type" : "_ZTIi"
    }
   ],
   "return_type" : "_ZTIv",
   "source_file" : "/external/boringssl/src/include/openssl/ssl.h"
  },
  {
   "function_name" : "SSL_CTX_set_read_ahead",
   "linker_set_key" : "SSL_CTX_set_read_ahead",
   "parameters" :
   [
    {
     "referenced_type" : "_ZTIP10ssl_ctx_st"
    },
    {
     "referenced_type" : "_ZTIi"
    }
   ],
   "return_type" : "_ZTIi",
   "source_file" : "/external/boringssl/src/include/openssl/ssl.h"
  },
  {
   "function_name" : "SSL_CTX_set_retain_only_sha256_of_client_certs",
   "linker_set_key" : "SSL_CTX_set_retain_only_sha256_of_client_certs",
   "parameters" :
   [
    {
     "referenced_type" : "_ZTIP10ssl_ctx_st"
    },
    {
     "referenced_type" : "_ZTIi"
    }
   ],
   "return_type" : "_ZTIv",
   "source_file" : "/external/boringssl/src/include/openssl/ssl.h"
  },
  {
   "function_name" : "SSL_CTX_set_reverify_on_resume",
   "linker_set_key" : "SSL_CTX_set_reverify_on_resume",
   "parameters" :
   [
    {
     "referenced_type" : "_ZTIP10ssl_ctx_st"
    },
    {
     "referenced_type" : "_ZTIi"
    }
   ],
   "return_type" : "_ZTIv",
   "source_file" : "/external/boringssl/src/include/openssl/ssl.h"
  },
  {
   "function_name" : "SSL_CTX_set_rsa_pss_rsae_certs_enabled",
   "linker_set_key" : "SSL_CTX_set_rsa_pss_rsae_certs_enabled",
   "parameters" :
   [
    {
     "referenced_type" : "_ZTIP10ssl_ctx_st"
    },
    {
     "referenced_type" : "_ZTIi"
    }
   ],
   "return_type" : "_ZTIv",
   "source_file" : "/external/boringssl/src/include/openssl/ssl.h"
  },
  {
   "function_name" : "SSL_CTX_set_select_certificate_cb",
   "linker_set_key" : "SSL_CTX_set_select_certificate_cb",
   "parameters" :
   [
    {
     "referenced_type" : "_ZTIP10ssl_ctx_st"
    },
    {
     "referenced_type" : "_ZTIPF24ssl_select_cert_result_tPK22ssl_early_callback_ctxE"
    }
   ],
   "return_type" : "_ZTIv",
   "source_file" : "/external/boringssl/src/include/openssl/ssl.h"
  },
  {
   "function_name" : "SSL_CTX_set_session_cache_mode",
   "linker_set_key" : "SSL_CTX_set_session_cache_mode",
   "parameters" :
   [
    {
     "referenced_type" : "_ZTIP10ssl_ctx_st"
    },
    {
     "referenced_type" : "_ZTIi"
    }
   ],
   "return_type" : "_ZTIi",
   "source_file" : "/external/boringssl/src/include/openssl/ssl.h"
  },
  {
   "function_name" : "SSL_CTX_set_session_id_context",
   "linker_set_key" : "SSL_CTX_set_session_id_context",
   "parameters" :
   [
    {
     "referenced_type" : "_ZTIP10ssl_ctx_st"
    },
    {
     "referenced_type" : "_ZTIPKh"
    },
    {
     "referenced_type" : "_ZTIm"
    }
   ],
   "return_type" : "_ZTIi",
   "source_file" : "/external/boringssl/src/include/openssl/ssl.h"
  },
  {
   "function_name" : "SSL_CTX_set_session_psk_dhe_timeout",
   "linker_set_key" : "SSL_CTX_set_session_psk_dhe_timeout",
   "parameters" :
   [
    {
     "referenced_type" : "_ZTIP10ssl_ctx_st"
    },
    {
     "referenced_type" : "_ZTIj"
    }
   ],
   "return_type" : "_ZTIv",
   "source_file" : "/external/boringssl/src/include/openssl/ssl.h"
  },
  {
   "function_name" : "SSL_CTX_set_signed_cert_timestamp_list",
   "linker_set_key" : "SSL_CTX_set_signed_cert_timestamp_list",
   "parameters" :
   [
    {
     "referenced_type" : "_ZTIP10ssl_ctx_st"
    },
    {
     "referenced_type" : "_ZTIPKh"
    },
    {
     "referenced_type" : "_ZTIm"
    }
   ],
   "return_type" : "_ZTIi",
   "source_file" : "/external/boringssl/src/include/openssl/ssl.h"
  },
  {
   "function_name" : "SSL_CTX_set_signing_algorithm_prefs",
   "linker_set_key" : "SSL_CTX_set_signing_algorithm_prefs",
   "parameters" :
   [
    {
     "referenced_type" : "_ZTIP10ssl_ctx_st"
    },
    {
     "referenced_type" : "_ZTIPKt"
    },
    {
     "referenced_type" : "_ZTIm"
    }
   ],
   "return_type" : "_ZTIi",
   "source_file" : "/external/boringssl/src/include/openssl/ssl.h"
  },
  {
   "function_name" : "SSL_CTX_set_srtp_profiles",
   "linker_set_key" : "SSL_CTX_set_srtp_profiles",
   "parameters" :
   [
    {
     "referenced_type" : "_ZTIP10ssl_ctx_st"
    },
    {
     "referenced_type" : "_ZTIPKc"
    }
   ],
   "return_type" : "_ZTIi",
   "source_file" : "/external/boringssl/src/include/openssl/ssl.h"
  },
  {
   "function_name" : "SSL_CTX_set_strict_cipher_list",
   "linker_set_key" : "SSL_CTX_set_strict_cipher_list",
   "parameters" :
   [
    {
     "referenced_type" : "_ZTIP10ssl_ctx_st"
    },
    {
     "referenced_type" : "_ZTIPKc"
    }
   ],
   "return_type" : "_ZTIi",
   "source_file" : "/external/boringssl/src/include/openssl/ssl.h"
  },
  {
   "function_name" : "SSL_CTX_set_ticket_aead_method",
   "linker_set_key" : "SSL_CTX_set_ticket_aead_method",
   "parameters" :
   [
    {
     "referenced_type" : "_ZTIP10ssl_ctx_st"
    },
    {
     "referenced_type" : "_ZTIPK25ssl_ticket_aead_method_st"
    }
   ],
   "return_type" : "_ZTIv",
   "source_file" : "/external/boringssl/src/include/openssl/ssl.h"
  },
  {
   "function_name" : "SSL_CTX_set_timeout",
   "linker_set_key" : "SSL_CTX_set_timeout",
   "parameters" :
   [
    {
     "referenced_type" : "_ZTIP10ssl_ctx_st"
    },
    {
     "referenced_type" : "_ZTIj"
    }
   ],
   "return_type" : "_ZTIj",
   "source_file" : "/external/boringssl/src/include/openssl/ssl.h"
  },
  {
   "function_name" : "SSL_CTX_set_tls_channel_id_enabled",
   "linker_set_key" : "SSL_CTX_set_tls_channel_id_enabled",
   "parameters" :
   [
    {
     "referenced_type" : "_ZTIP10ssl_ctx_st"
    },
    {
     "referenced_type" : "_ZTIi"
    }
   ],
   "return_type" : "_ZTIv",
   "source_file" : "/external/boringssl/src/include/openssl/ssl.h"
  },
  {
   "function_name" : "SSL_CTX_set_tlsext_servername_arg",
   "linker_set_key" : "SSL_CTX_set_tlsext_servername_arg",
   "parameters" :
   [
    {
     "referenced_type" : "_ZTIP10ssl_ctx_st"
    },
    {
     "referenced_type" : "_ZTIPv"
    }
   ],
   "return_type" : "_ZTIi",
   "source_file" : "/external/boringssl/src/include/openssl/ssl.h"
  },
  {
   "function_name" : "SSL_CTX_set_tlsext_servername_callback",
   "linker_set_key" : "SSL_CTX_set_tlsext_servername_callback",
   "parameters" :
   [
    {
     "referenced_type" : "_ZTIP10ssl_ctx_st"
    },
    {
     "referenced_type" : "_ZTIPFiP6ssl_stPiPvE"
    }
   ],
   "return_type" : "_ZTIi",
   "source_file" : "/external/boringssl/src/include/openssl/ssl.h"
  },
  {
   "function_name" : "SSL_CTX_set_tlsext_status_arg",
   "linker_set_key" : "SSL_CTX_set_tlsext_status_arg",
   "parameters" :
   [
    {
     "referenced_type" : "_ZTIP10ssl_ctx_st"
    },
    {
     "referenced_type" : "_ZTIPv"
    }
   ],
   "return_type" : "_ZTIi",
   "source_file" : "/external/boringssl/src/include/openssl/ssl.h"
  },
  {
   "function_name" : "SSL_CTX_set_tlsext_status_cb",
   "linker_set_key" : "SSL_CTX_set_tlsext_status_cb",
   "parameters" :
   [
    {
     "referenced_type" : "_ZTIP10ssl_ctx_st"
    },
    {
     "referenced_type" : "_ZTIPFiP6ssl_stPvE"
    }
   ],
   "return_type" : "_ZTIi",
   "source_file" : "/external/boringssl/src/include/openssl/ssl.h"
  },
  {
   "function_name" : "SSL_CTX_set_tlsext_ticket_key_cb",
   "linker_set_key" : "SSL_CTX_set_tlsext_ticket_key_cb",
   "parameters" :
   [
    {
     "referenced_type" : "_ZTIP10ssl_ctx_st"
    },
    {
     "referenced_type" : "_ZTIPFiP6ssl_stPhS1_P17evp_cipher_ctx_stP11hmac_ctx_stiE"
    }
   ],
   "return_type" : "_ZTIi",
   "source_file" : "/external/boringssl/src/include/openssl/ssl.h"
  },
  {
   "function_name" : "SSL_CTX_set_tlsext_ticket_keys",
   "linker_set_key" : "SSL_CTX_set_tlsext_ticket_keys",
   "parameters" :
   [
    {
     "referenced_type" : "_ZTIP10ssl_ctx_st"
    },
    {
     "referenced_type" : "_ZTIPKv"
    },
    {
     "referenced_type" : "_ZTIm"
    }
   ],
   "return_type" : "_ZTIi",
   "source_file" : "/external/boringssl/src/include/openssl/ssl.h"
  },
  {
   "function_name" : "SSL_CTX_set_tlsext_use_srtp",
   "linker_set_key" : "SSL_CTX_set_tlsext_use_srtp",
   "parameters" :
   [
    {
     "referenced_type" : "_ZTIP10ssl_ctx_st"
    },
    {
     "referenced_type" : "_ZTIPKc"
    }
   ],
   "return_type" : "_ZTIi",
   "source_file" : "/external/boringssl/src/include/openssl/ssl.h"
  },
  {
   "function_name" : "SSL_CTX_set_tmp_dh",
   "linker_set_key" : "SSL_CTX_set_tmp_dh",
   "parameters" :
   [
    {
     "referenced_type" : "_ZTIP10ssl_ctx_st"
    },
    {
     "referenced_type" : "_ZTIPK5dh_st"
    }
   ],
   "return_type" : "_ZTIi",
   "source_file" : "/external/boringssl/src/include/openssl/ssl.h"
  },
  {
   "function_name" : "SSL_CTX_set_tmp_dh_callback",
   "linker_set_key" : "SSL_CTX_set_tmp_dh_callback",
   "parameters" :
   [
    {
     "referenced_type" : "_ZTIP10ssl_ctx_st"
    },
    {
     "referenced_type" : "_ZTIPFP5dh_stP6ssl_stiiE"
    }
   ],
   "return_type" : "_ZTIv",
   "source_file" : "/external/boringssl/src/include/openssl/ssl.h"
  },
  {
   "function_name" : "SSL_CTX_set_tmp_ecdh",
   "linker_set_key" : "SSL_CTX_set_tmp_ecdh",
   "parameters" :
   [
    {
     "referenced_type" : "_ZTIP10ssl_ctx_st"
    },
    {
     "referenced_type" : "_ZTIPK9ec_key_st"
    }
   ],
   "return_type" : "_ZTIi",
   "source_file" : "/external/boringssl/src/include/openssl/ssl.h"
  },
  {
   "function_name" : "SSL_CTX_set_tmp_rsa",
   "linker_set_key" : "SSL_CTX_set_tmp_rsa",
   "parameters" :
   [
    {
     "referenced_type" : "_ZTIP10ssl_ctx_st"
    },
    {
     "referenced_type" : "_ZTIPK6rsa_st"
    }
   ],
   "return_type" : "_ZTIi",
   "source_file" : "/external/boringssl/src/include/openssl/ssl.h"
  },
  {
   "function_name" : "SSL_CTX_set_tmp_rsa_callback",
   "linker_set_key" : "SSL_CTX_set_tmp_rsa_callback",
   "parameters" :
   [
    {
     "referenced_type" : "_ZTIP10ssl_ctx_st"
    },
    {
     "referenced_type" : "_ZTIPFP6rsa_stP6ssl_stiiE"
    }
   ],
   "return_type" : "_ZTIv",
   "source_file" : "/external/boringssl/src/include/openssl/ssl.h"
  },
  {
   "function_name" : "SSL_CTX_set_trust",
   "linker_set_key" : "SSL_CTX_set_trust",
   "parameters" :
   [
    {
     "referenced_type" : "_ZTIP10ssl_ctx_st"
    },
    {
     "referenced_type" : "_ZTIi"
    }
   ],
   "return_type" : "_ZTIi",
   "source_file" : "/external/boringssl/src/include/openssl/ssl.h"
  },
  {
   "function_name" : "SSL_CTX_set_verify",
   "linker_set_key" : "SSL_CTX_set_verify",
   "parameters" :
   [
    {
     "referenced_type" : "_ZTIP10ssl_ctx_st"
    },
    {
     "referenced_type" : "_ZTIi"
    },
    {
     "referenced_type" : "_ZTIPFiiP17x509_store_ctx_stE"
    }
   ],
   "return_type" : "_ZTIv",
   "source_file" : "/external/boringssl/src/include/openssl/ssl.h"
  },
  {
   "function_name" : "SSL_CTX_set_verify_algorithm_prefs",
   "linker_set_key" : "SSL_CTX_set_verify_algorithm_prefs",
   "parameters" :
   [
    {
     "referenced_type" : "_ZTIP10ssl_ctx_st"
    },
    {
     "referenced_type" : "_ZTIPKt"
    },
    {
     "referenced_type" : "_ZTIm"
    }
   ],
   "return_type" : "_ZTIi",
   "source_file" : "/external/boringssl/src/include/openssl/ssl.h"
  },
  {
   "function_name" : "SSL_CTX_set_verify_depth",
   "linker_set_key" : "SSL_CTX_set_verify_depth",
   "parameters" :
   [
    {
     "referenced_type" : "_ZTIP10ssl_ctx_st"
    },
    {
     "referenced_type" : "_ZTIi"
    }
   ],
   "return_type" : "_ZTIv",
   "source_file" : "/external/boringssl/src/include/openssl/ssl.h"
  },
  {
   "function_name" : "SSL_CTX_up_ref",
   "linker_set_key" : "SSL_CTX_up_ref",
   "parameters" :
   [
    {
     "referenced_type" : "_ZTIP10ssl_ctx_st"
    }
   ],
   "return_type" : "_ZTIi",
   "source_file" : "/external/boringssl/src/include/openssl/ssl.h"
  },
  {
   "function_name" : "SSL_CTX_use_PrivateKey",
   "linker_set_key" : "SSL_CTX_use_PrivateKey",
   "parameters" :
   [
    {
     "referenced_type" : "_ZTIP10ssl_ctx_st"
    },
    {
     "referenced_type" : "_ZTIP11evp_pkey_st"
    }
   ],
   "return_type" : "_ZTIi",
   "source_file" : "/external/boringssl/src/include/openssl/ssl.h"
  },
  {
   "function_name" : "SSL_CTX_use_PrivateKey_ASN1",
   "linker_set_key" : "SSL_CTX_use_PrivateKey_ASN1",
   "parameters" :
   [
    {
     "referenced_type" : "_ZTIi"
    },
    {
     "referenced_type" : "_ZTIP10ssl_ctx_st"
    },
    {
     "referenced_type" : "_ZTIPKh"
    },
    {
     "referenced_type" : "_ZTIm"
    }
   ],
   "return_type" : "_ZTIi",
   "source_file" : "/external/boringssl/src/include/openssl/ssl.h"
  },
  {
   "function_name" : "SSL_CTX_use_PrivateKey_file",
   "linker_set_key" : "SSL_CTX_use_PrivateKey_file",
   "parameters" :
   [
    {
     "referenced_type" : "_ZTIP10ssl_ctx_st"
    },
    {
     "referenced_type" : "_ZTIPKc"
    },
    {
     "referenced_type" : "_ZTIi"
    }
   ],
   "return_type" : "_ZTIi",
   "source_file" : "/external/boringssl/src/include/openssl/ssl.h"
  },
  {
   "function_name" : "SSL_CTX_use_RSAPrivateKey",
   "linker_set_key" : "SSL_CTX_use_RSAPrivateKey",
   "parameters" :
   [
    {
     "referenced_type" : "_ZTIP10ssl_ctx_st"
    },
    {
     "referenced_type" : "_ZTIP6rsa_st"
    }
   ],
   "return_type" : "_ZTIi",
   "source_file" : "/external/boringssl/src/include/openssl/ssl.h"
  },
  {
   "function_name" : "SSL_CTX_use_RSAPrivateKey_ASN1",
   "linker_set_key" : "SSL_CTX_use_RSAPrivateKey_ASN1",
   "parameters" :
   [
    {
     "referenced_type" : "_ZTIP10ssl_ctx_st"
    },
    {
     "referenced_type" : "_ZTIPKh"
    },
    {
     "referenced_type" : "_ZTIm"
    }
   ],
   "return_type" : "_ZTIi",
   "source_file" : "/external/boringssl/src/include/openssl/ssl.h"
  },
  {
   "function_name" : "SSL_CTX_use_RSAPrivateKey_file",
   "linker_set_key" : "SSL_CTX_use_RSAPrivateKey_file",
   "parameters" :
   [
    {
     "referenced_type" : "_ZTIP10ssl_ctx_st"
    },
    {
     "referenced_type" : "_ZTIPKc"
    },
    {
     "referenced_type" : "_ZTIi"
    }
   ],
   "return_type" : "_ZTIi",
   "source_file" : "/external/boringssl/src/include/openssl/ssl.h"
  },
  {
   "function_name" : "SSL_CTX_use_certificate",
   "linker_set_key" : "SSL_CTX_use_certificate",
   "parameters" :
   [
    {
     "referenced_type" : "_ZTIP10ssl_ctx_st"
    },
    {
     "referenced_type" : "_ZTIP7x509_st"
    }
   ],
   "return_type" : "_ZTIi",
   "source_file" : "/external/boringssl/src/include/openssl/ssl.h"
  },
  {
   "function_name" : "SSL_CTX_use_certificate_ASN1",
   "linker_set_key" : "SSL_CTX_use_certificate_ASN1",
   "parameters" :
   [
    {
     "referenced_type" : "_ZTIP10ssl_ctx_st"
    },
    {
     "referenced_type" : "_ZTIm"
    },
    {
     "referenced_type" : "_ZTIPKh"
    }
   ],
   "return_type" : "_ZTIi",
   "source_file" : "/external/boringssl/src/include/openssl/ssl.h"
  },
  {
   "function_name" : "SSL_CTX_use_certificate_chain_file",
   "linker_set_key" : "SSL_CTX_use_certificate_chain_file",
   "parameters" :
   [
    {
     "referenced_type" : "_ZTIP10ssl_ctx_st"
    },
    {
     "referenced_type" : "_ZTIPKc"
    }
   ],
   "return_type" : "_ZTIi",
   "source_file" : "/external/boringssl/src/include/openssl/ssl.h"
  },
  {
   "function_name" : "SSL_CTX_use_certificate_file",
   "linker_set_key" : "SSL_CTX_use_certificate_file",
   "parameters" :
   [
    {
     "referenced_type" : "_ZTIP10ssl_ctx_st"
    },
    {
     "referenced_type" : "_ZTIPKc"
    },
    {
     "referenced_type" : "_ZTIi"
    }
   ],
   "return_type" : "_ZTIi",
   "source_file" : "/external/boringssl/src/include/openssl/ssl.h"
  },
  {
   "function_name" : "SSL_CTX_use_psk_identity_hint",
   "linker_set_key" : "SSL_CTX_use_psk_identity_hint",
   "parameters" :
   [
    {
     "referenced_type" : "_ZTIP10ssl_ctx_st"
    },
    {
     "referenced_type" : "_ZTIPKc"
    }
   ],
   "return_type" : "_ZTIi",
   "source_file" : "/external/boringssl/src/include/openssl/ssl.h"
  },
  {
   "function_name" : "SSL_SESSION_early_data_capable",
   "linker_set_key" : "SSL_SESSION_early_data_capable",
   "parameters" :
   [
    {
     "referenced_type" : "_ZTIPK14ssl_session_st"
    }
   ],
   "return_type" : "_ZTIi",
   "source_file" : "/external/boringssl/src/include/openssl/ssl.h"
  },
  {
   "function_name" : "SSL_SESSION_free",
   "linker_set_key" : "SSL_SESSION_free",
   "parameters" :
   [
    {
     "referenced_type" : "_ZTIP14ssl_session_st"
    }
   ],
   "return_type" : "_ZTIv",
   "source_file" : "/external/boringssl/src/include/openssl/ssl.h"
  },
  {
   "function_name" : "SSL_SESSION_from_bytes",
   "linker_set_key" : "SSL_SESSION_from_bytes",
   "parameters" :
   [
    {
     "referenced_type" : "_ZTIPKh"
    },
    {
     "referenced_type" : "_ZTIm"
    },
    {
     "referenced_type" : "_ZTIPK10ssl_ctx_st"
    }
   ],
   "return_type" : "_ZTIP14ssl_session_st",
   "source_file" : "/external/boringssl/src/include/openssl/ssl.h"
  },
  {
   "function_name" : "SSL_SESSION_get0_cipher",
   "linker_set_key" : "SSL_SESSION_get0_cipher",
   "parameters" :
   [
    {
     "referenced_type" : "_ZTIPK14ssl_session_st"
    }
   ],
   "return_type" : "_ZTIPK13ssl_cipher_st",
   "source_file" : "/external/boringssl/src/include/openssl/ssl.h"
  },
  {
   "function_name" : "SSL_SESSION_get0_id_context",
   "linker_set_key" : "SSL_SESSION_get0_id_context",
   "parameters" :
   [
    {
     "referenced_type" : "_ZTIPK14ssl_session_st"
    },
    {
     "referenced_type" : "_ZTIPj"
    }
   ],
   "return_type" : "_ZTIPKh",
   "source_file" : "/external/boringssl/src/include/openssl/ssl.h"
  },
  {
   "function_name" : "SSL_SESSION_get0_ocsp_response",
   "linker_set_key" : "SSL_SESSION_get0_ocsp_response",
   "parameters" :
   [
    {
     "referenced_type" : "_ZTIPK14ssl_session_st"
    },
    {
     "referenced_type" : "_ZTIPPKh"
    },
    {
     "referenced_type" : "_ZTIPm"
    }
   ],
   "return_type" : "_ZTIv",
   "source_file" : "/external/boringssl/src/include/openssl/ssl.h"
  },
  {
   "function_name" : "SSL_SESSION_get0_peer",
   "linker_set_key" : "SSL_SESSION_get0_peer",
   "parameters" :
   [
    {
     "referenced_type" : "_ZTIPK14ssl_session_st"
    }
   ],
   "return_type" : "_ZTIP7x509_st",
   "source_file" : "/external/boringssl/src/include/openssl/ssl.h"
  },
  {
   "function_name" : "SSL_SESSION_get0_peer_certificates",
   "linker_set_key" : "SSL_SESSION_get0_peer_certificates",
   "parameters" :
   [
    {
     "referenced_type" : "_ZTIPK14ssl_session_st"
    }
   ],
   "return_type" : "_ZTIPK22stack_st_CRYPTO_BUFFER",
   "source_file" : "/external/boringssl/src/include/openssl/ssl.h"
  },
  {
   "function_name" : "SSL_SESSION_get0_peer_sha256",
   "linker_set_key" : "SSL_SESSION_get0_peer_sha256",
   "parameters" :
   [
    {
     "referenced_type" : "_ZTIPK14ssl_session_st"
    },
    {
     "referenced_type" : "_ZTIPPKh"
    },
    {
     "referenced_type" : "_ZTIPm"
    }
   ],
   "return_type" : "_ZTIv",
   "source_file" : "/external/boringssl/src/include/openssl/ssl.h"
  },
  {
   "function_name" : "SSL_SESSION_get0_signed_cert_timestamp_list",
   "linker_set_key" : "SSL_SESSION_get0_signed_cert_timestamp_list",
   "parameters" :
   [
    {
     "referenced_type" : "_ZTIPK14ssl_session_st"
    },
    {
     "referenced_type" : "_ZTIPPKh"
    },
    {
     "referenced_type" : "_ZTIPm"
    }
   ],
   "return_type" : "_ZTIv",
   "source_file" : "/external/boringssl/src/include/openssl/ssl.h"
  },
  {
   "function_name" : "SSL_SESSION_get0_ticket",
   "linker_set_key" : "SSL_SESSION_get0_ticket",
   "parameters" :
   [
    {
     "referenced_type" : "_ZTIPK14ssl_session_st"
    },
    {
     "referenced_type" : "_ZTIPPKh"
    },
    {
     "referenced_type" : "_ZTIPm"
    }
   ],
   "return_type" : "_ZTIv",
   "source_file" : "/external/boringssl/src/include/openssl/ssl.h"
  },
  {
   "function_name" : "SSL_SESSION_get_ex_data",
   "linker_set_key" : "SSL_SESSION_get_ex_data",
   "parameters" :
   [
    {
     "referenced_type" : "_ZTIPK14ssl_session_st"
    },
    {
     "referenced_type" : "_ZTIi"
    }
   ],
   "return_type" : "_ZTIPv",
   "source_file" : "/external/boringssl/src/include/openssl/ssl.h"
  },
  {
   "function_name" : "SSL_SESSION_get_ex_new_index",
   "linker_set_key" : "SSL_SESSION_get_ex_new_index",
   "parameters" :
   [
    {
     "referenced_type" : "_ZTIl"
    },
    {
     "referenced_type" : "_ZTIPv"
    },
    {
     "referenced_type" : "_ZTIPi"
    },
    {
     "referenced_type" : "_ZTIPFiP17crypto_ex_data_stPKS_PPvilS3_E"
    },
    {
     "referenced_type" : "_ZTIPFvPvS_P17crypto_ex_data_stilS_E"
    }
   ],
   "return_type" : "_ZTIi",
   "source_file" : "/external/boringssl/src/include/openssl/ssl.h"
  },
  {
   "function_name" : "SSL_SESSION_get_id",
   "linker_set_key" : "SSL_SESSION_get_id",
   "parameters" :
   [
    {
     "referenced_type" : "_ZTIPK14ssl_session_st"
    },
    {
     "referenced_type" : "_ZTIPj"
    }
   ],
   "return_type" : "_ZTIPKh",
   "source_file" : "/external/boringssl/src/include/openssl/ssl.h"
  },
  {
   "function_name" : "SSL_SESSION_get_master_key",
   "linker_set_key" : "SSL_SESSION_get_master_key",
   "parameters" :
   [
    {
     "referenced_type" : "_ZTIPK14ssl_session_st"
    },
    {
     "referenced_type" : "_ZTIPh"
    },
    {
     "referenced_type" : "_ZTIm"
    }
   ],
   "return_type" : "_ZTIm",
   "source_file" : "/external/boringssl/src/include/openssl/ssl.h"
  },
  {
   "function_name" : "SSL_SESSION_get_protocol_version",
   "linker_set_key" : "SSL_SESSION_get_protocol_version",
   "parameters" :
   [
    {
     "referenced_type" : "_ZTIPK14ssl_session_st"
    }
   ],
   "return_type" : "_ZTIt",
   "source_file" : "/external/boringssl/src/include/openssl/ssl.h"
  },
  {
   "function_name" : "SSL_SESSION_get_ticket_lifetime_hint",
   "linker_set_key" : "SSL_SESSION_get_ticket_lifetime_hint",
   "parameters" :
   [
    {
     "referenced_type" : "_ZTIPK14ssl_session_st"
    }
   ],
   "return_type" : "_ZTIj",
   "source_file" : "/external/boringssl/src/include/openssl/ssl.h"
  },
  {
   "function_name" : "SSL_SESSION_get_time",
   "linker_set_key" : "SSL_SESSION_get_time",
   "parameters" :
   [
    {
     "referenced_type" : "_ZTIPK14ssl_session_st"
    }
   ],
   "return_type" : "_ZTIm",
   "source_file" : "/external/boringssl/src/include/openssl/ssl.h"
  },
  {
   "function_name" : "SSL_SESSION_get_timeout",
   "linker_set_key" : "SSL_SESSION_get_timeout",
   "parameters" :
   [
    {
     "referenced_type" : "_ZTIPK14ssl_session_st"
    }
   ],
   "return_type" : "_ZTIj",
   "source_file" : "/external/boringssl/src/include/openssl/ssl.h"
  },
  {
   "function_name" : "SSL_SESSION_get_version",
   "linker_set_key" : "SSL_SESSION_get_version",
   "parameters" :
   [
    {
     "referenced_type" : "_ZTIPK14ssl_session_st"
    }
   ],
   "return_type" : "_ZTIPKc",
   "source_file" : "/external/boringssl/src/include/openssl/ssl.h"
  },
  {
   "function_name" : "SSL_SESSION_has_peer_sha256",
   "linker_set_key" : "SSL_SESSION_has_peer_sha256",
   "parameters" :
   [
    {
     "referenced_type" : "_ZTIPK14ssl_session_st"
    }
   ],
   "return_type" : "_ZTIi",
   "source_file" : "/external/boringssl/src/include/openssl/ssl.h"
  },
  {
   "function_name" : "SSL_SESSION_has_ticket",
   "linker_set_key" : "SSL_SESSION_has_ticket",
   "parameters" :
   [
    {
     "referenced_type" : "_ZTIPK14ssl_session_st"
    }
   ],
   "return_type" : "_ZTIi",
   "source_file" : "/external/boringssl/src/include/openssl/ssl.h"
  },
  {
   "function_name" : "SSL_SESSION_is_resumable",
   "linker_set_key" : "SSL_SESSION_is_resumable",
   "parameters" :
   [
    {
     "referenced_type" : "_ZTIPK14ssl_session_st"
    }
   ],
   "return_type" : "_ZTIi",
   "source_file" : "/external/boringssl/src/include/openssl/ssl.h"
  },
  {
   "function_name" : "SSL_SESSION_new",
   "linker_set_key" : "SSL_SESSION_new",
   "parameters" :
   [
    {
     "referenced_type" : "_ZTIPK10ssl_ctx_st"
    }
   ],
   "return_type" : "_ZTIP14ssl_session_st",
   "source_file" : "/external/boringssl/src/include/openssl/ssl.h"
  },
  {
   "function_name" : "SSL_SESSION_set1_id",
   "linker_set_key" : "SSL_SESSION_set1_id",
   "parameters" :
   [
    {
     "referenced_type" : "_ZTIP14ssl_session_st"
    },
    {
     "referenced_type" : "_ZTIPKh"
    },
    {
     "referenced_type" : "_ZTIm"
    }
   ],
   "return_type" : "_ZTIi",
   "source_file" : "/external/boringssl/src/include/openssl/ssl.h"
  },
  {
   "function_name" : "SSL_SESSION_set1_id_context",
   "linker_set_key" : "SSL_SESSION_set1_id_context",
   "parameters" :
   [
    {
     "referenced_type" : "_ZTIP14ssl_session_st"
    },
    {
     "referenced_type" : "_ZTIPKh"
    },
    {
     "referenced_type" : "_ZTIm"
    }
   ],
   "return_type" : "_ZTIi",
   "source_file" : "/external/boringssl/src/include/openssl/ssl.h"
  },
  {
   "function_name" : "SSL_SESSION_set_ex_data",
   "linker_set_key" : "SSL_SESSION_set_ex_data",
   "parameters" :
   [
    {
     "referenced_type" : "_ZTIP14ssl_session_st"
    },
    {
     "referenced_type" : "_ZTIi"
    },
    {
     "referenced_type" : "_ZTIPv"
    }
   ],
   "return_type" : "_ZTIi",
   "source_file" : "/external/boringssl/src/include/openssl/ssl.h"
  },
  {
   "function_name" : "SSL_SESSION_set_protocol_version",
   "linker_set_key" : "SSL_SESSION_set_protocol_version",
   "parameters" :
   [
    {
     "referenced_type" : "_ZTIP14ssl_session_st"
    },
    {
     "referenced_type" : "_ZTIt"
    }
   ],
   "return_type" : "_ZTIi",
   "source_file" : "/external/boringssl/src/include/openssl/ssl.h"
  },
  {
   "function_name" : "SSL_SESSION_set_ticket",
   "linker_set_key" : "SSL_SESSION_set_ticket",
   "parameters" :
   [
    {
     "referenced_type" : "_ZTIP14ssl_session_st"
    },
    {
     "referenced_type" : "_ZTIPKh"
    },
    {
     "referenced_type" : "_ZTIm"
    }
   ],
   "return_type" : "_ZTIi",
   "source_file" : "/external/boringssl/src/include/openssl/ssl.h"
  },
  {
   "function_name" : "SSL_SESSION_set_time",
   "linker_set_key" : "SSL_SESSION_set_time",
   "parameters" :
   [
    {
     "referenced_type" : "_ZTIP14ssl_session_st"
    },
    {
     "referenced_type" : "_ZTIm"
    }
   ],
   "return_type" : "_ZTIm",
   "source_file" : "/external/boringssl/src/include/openssl/ssl.h"
  },
  {
   "function_name" : "SSL_SESSION_set_timeout",
   "linker_set_key" : "SSL_SESSION_set_timeout",
   "parameters" :
   [
    {
     "referenced_type" : "_ZTIP14ssl_session_st"
    },
    {
     "referenced_type" : "_ZTIj"
    }
   ],
   "return_type" : "_ZTIj",
   "source_file" : "/external/boringssl/src/include/openssl/ssl.h"
  },
  {
   "function_name" : "SSL_SESSION_should_be_single_use",
   "linker_set_key" : "SSL_SESSION_should_be_single_use",
   "parameters" :
   [
    {
     "referenced_type" : "_ZTIPK14ssl_session_st"
    }
   ],
   "return_type" : "_ZTIi",
   "source_file" : "/external/boringssl/src/include/openssl/ssl.h"
  },
  {
   "function_name" : "SSL_SESSION_to_bytes",
   "linker_set_key" : "SSL_SESSION_to_bytes",
   "parameters" :
   [
    {
     "referenced_type" : "_ZTIPK14ssl_session_st"
    },
    {
     "referenced_type" : "_ZTIPPh"
    },
    {
     "referenced_type" : "_ZTIPm"
    }
   ],
   "return_type" : "_ZTIi",
   "source_file" : "/external/boringssl/src/include/openssl/ssl.h"
  },
  {
   "function_name" : "SSL_SESSION_to_bytes_for_ticket",
   "linker_set_key" : "SSL_SESSION_to_bytes_for_ticket",
   "parameters" :
   [
    {
     "referenced_type" : "_ZTIPK14ssl_session_st"
    },
    {
     "referenced_type" : "_ZTIPPh"
    },
    {
     "referenced_type" : "_ZTIPm"
    }
   ],
   "return_type" : "_ZTIi",
   "source_file" : "/external/boringssl/src/include/openssl/ssl.h"
  },
  {
   "function_name" : "SSL_SESSION_up_ref",
   "linker_set_key" : "SSL_SESSION_up_ref",
   "parameters" :
   [
    {
     "referenced_type" : "_ZTIP14ssl_session_st"
    }
   ],
   "return_type" : "_ZTIi",
   "source_file" : "/external/boringssl/src/include/openssl/ssl.h"
  },
  {
   "function_name" : "SSL_accept",
   "linker_set_key" : "SSL_accept",
   "parameters" :
   [
    {
     "referenced_type" : "_ZTIP6ssl_st"
    }
   ],
   "return_type" : "_ZTIi",
   "source_file" : "/external/boringssl/src/include/openssl/ssl.h"
  },
  {
   "function_name" : "SSL_add0_chain_cert",
   "linker_set_key" : "SSL_add0_chain_cert",
   "parameters" :
   [
    {
     "referenced_type" : "_ZTIP6ssl_st"
    },
    {
     "referenced_type" : "_ZTIP7x509_st"
    }
   ],
   "return_type" : "_ZTIi",
   "source_file" : "/external/boringssl/src/include/openssl/ssl.h"
  },
  {
   "function_name" : "SSL_add1_chain_cert",
   "linker_set_key" : "SSL_add1_chain_cert",
   "parameters" :
   [
    {
     "referenced_type" : "_ZTIP6ssl_st"
    },
    {
     "referenced_type" : "_ZTIP7x509_st"
    }
   ],
   "return_type" : "_ZTIi",
   "source_file" : "/external/boringssl/src/include/openssl/ssl.h"
  },
  {
   "function_name" : "SSL_add_client_CA",
   "linker_set_key" : "SSL_add_client_CA",
   "parameters" :
   [
    {
     "referenced_type" : "_ZTIP6ssl_st"
    },
    {
     "referenced_type" : "_ZTIP7x509_st"
    }
   ],
   "return_type" : "_ZTIi",
   "source_file" : "/external/boringssl/src/include/openssl/ssl.h"
  },
  {
   "function_name" : "SSL_add_file_cert_subjects_to_stack",
   "linker_set_key" : "SSL_add_file_cert_subjects_to_stack",
   "parameters" :
   [
    {
     "referenced_type" : "_ZTIP18stack_st_X509_NAME"
    },
    {
     "referenced_type" : "_ZTIPKc"
    }
   ],
   "return_type" : "_ZTIi",
   "source_file" : "/external/boringssl/src/include/openssl/ssl.h"
  },
  {
   "function_name" : "SSL_alert_desc_string",
   "linker_set_key" : "SSL_alert_desc_string",
   "parameters" :
   [
    {
     "referenced_type" : "_ZTIi"
    }
   ],
   "return_type" : "_ZTIPKc",
   "source_file" : "/external/boringssl/src/include/openssl/ssl.h"
  },
  {
   "function_name" : "SSL_alert_desc_string_long",
   "linker_set_key" : "SSL_alert_desc_string_long",
   "parameters" :
   [
    {
     "referenced_type" : "_ZTIi"
    }
   ],
   "return_type" : "_ZTIPKc",
   "source_file" : "/external/boringssl/src/include/openssl/ssl.h"
  },
  {
   "function_name" : "SSL_alert_from_verify_result",
   "linker_set_key" : "SSL_alert_from_verify_result",
   "parameters" :
   [
    {
     "referenced_type" : "_ZTIl"
    }
   ],
   "return_type" : "_ZTIi",
   "source_file" : "/external/boringssl/src/include/openssl/ssl.h"
  },
  {
   "function_name" : "SSL_alert_type_string",
   "linker_set_key" : "SSL_alert_type_string",
   "parameters" :
   [
    {
     "referenced_type" : "_ZTIi"
    }
   ],
   "return_type" : "_ZTIPKc",
   "source_file" : "/external/boringssl/src/include/openssl/ssl.h"
  },
  {
   "function_name" : "SSL_alert_type_string_long",
   "linker_set_key" : "SSL_alert_type_string_long",
   "parameters" :
   [
    {
     "referenced_type" : "_ZTIi"
    }
   ],
   "return_type" : "_ZTIPKc",
   "source_file" : "/external/boringssl/src/include/openssl/ssl.h"
  },
  {
   "function_name" : "SSL_cache_hit",
   "linker_set_key" : "SSL_cache_hit",
   "parameters" :
   [
    {
     "referenced_type" : "_ZTIP6ssl_st"
    }
   ],
   "return_type" : "_ZTIi",
   "source_file" : "/external/boringssl/src/include/openssl/ssl.h"
  },
  {
   "function_name" : "SSL_certs_clear",
   "linker_set_key" : "SSL_certs_clear",
   "parameters" :
   [
    {
     "referenced_type" : "_ZTIP6ssl_st"
    }
   ],
   "return_type" : "_ZTIv",
   "source_file" : "/external/boringssl/src/include/openssl/ssl.h"
  },
  {
   "function_name" : "SSL_check_private_key",
   "linker_set_key" : "SSL_check_private_key",
   "parameters" :
   [
    {
     "referenced_type" : "_ZTIPK6ssl_st"
    }
   ],
   "return_type" : "_ZTIi",
   "source_file" : "/external/boringssl/src/include/openssl/ssl.h"
  },
  {
   "function_name" : "SSL_clear",
   "linker_set_key" : "SSL_clear",
   "parameters" :
   [
    {
     "referenced_type" : "_ZTIP6ssl_st"
    }
   ],
   "return_type" : "_ZTIi",
   "source_file" : "/external/boringssl/src/include/openssl/ssl.h"
  },
  {
   "function_name" : "SSL_clear_chain_certs",
   "linker_set_key" : "SSL_clear_chain_certs",
   "parameters" :
   [
    {
     "referenced_type" : "_ZTIP6ssl_st"
    }
   ],
   "return_type" : "_ZTIi",
   "source_file" : "/external/boringssl/src/include/openssl/ssl.h"
  },
  {
   "function_name" : "SSL_clear_mode",
   "linker_set_key" : "SSL_clear_mode",
   "parameters" :
   [
    {
     "referenced_type" : "_ZTIP6ssl_st"
    },
    {
     "referenced_type" : "_ZTIj"
    }
   ],
   "return_type" : "_ZTIj",
   "source_file" : "/external/boringssl/src/include/openssl/ssl.h"
  },
  {
   "function_name" : "SSL_clear_options",
   "linker_set_key" : "SSL_clear_options",
   "parameters" :
   [
    {
     "referenced_type" : "_ZTIP6ssl_st"
    },
    {
     "referenced_type" : "_ZTIj"
    }
   ],
   "return_type" : "_ZTIj",
   "source_file" : "/external/boringssl/src/include/openssl/ssl.h"
  },
  {
   "function_name" : "SSL_connect",
   "linker_set_key" : "SSL_connect",
   "parameters" :
   [
    {
     "referenced_type" : "_ZTIP6ssl_st"
    }
   ],
   "return_type" : "_ZTIi",
   "source_file" : "/external/boringssl/src/include/openssl/ssl.h"
  },
  {
   "function_name" : "SSL_cutthrough_complete",
   "linker_set_key" : "SSL_cutthrough_complete",
   "parameters" :
   [
    {
     "referenced_type" : "_ZTIPK6ssl_st"
    }
   ],
   "return_type" : "_ZTIi",
   "source_file" : "/external/boringssl/src/include/openssl/ssl.h"
  },
  {
   "function_name" : "SSL_delegated_credential_used",
   "linker_set_key" : "SSL_delegated_credential_used",
   "parameters" :
   [
    {
     "referenced_type" : "_ZTIPK6ssl_st"
    }
   ],
   "return_type" : "_ZTIi",
   "source_file" : "/external/boringssl/src/include/openssl/ssl.h"
  },
  {
   "function_name" : "SSL_do_handshake",
   "linker_set_key" : "SSL_do_handshake",
   "parameters" :
   [
    {
     "referenced_type" : "_ZTIP6ssl_st"
    }
   ],
   "return_type" : "_ZTIi",
   "source_file" : "/external/boringssl/src/include/openssl/ssl.h"
  },
  {
   "function_name" : "SSL_dup_CA_list",
   "linker_set_key" : "SSL_dup_CA_list",
   "parameters" :
   [
    {
     "referenced_type" : "_ZTIP18stack_st_X509_NAME"
    }
   ],
   "return_type" : "_ZTIP18stack_st_X509_NAME",
   "source_file" : "/external/boringssl/src/include/openssl/ssl.h"
  },
  {
   "function_name" : "SSL_early_callback_ctx_extension_get",
   "linker_set_key" : "SSL_early_callback_ctx_extension_get",
   "parameters" :
   [
    {
     "referenced_type" : "_ZTIPK22ssl_early_callback_ctx"
    },
    {
     "referenced_type" : "_ZTIt"
    },
    {
     "referenced_type" : "_ZTIPPKh"
    },
    {
     "referenced_type" : "_ZTIPm"
    }
   ],
   "return_type" : "_ZTIi",
   "source_file" : "/external/boringssl/src/include/openssl/ssl.h"
  },
  {
   "function_name" : "SSL_early_data_accepted",
   "linker_set_key" : "SSL_early_data_accepted",
   "parameters" :
   [
    {
     "referenced_type" : "_ZTIPK6ssl_st"
    }
   ],
   "return_type" : "_ZTIi",
   "source_file" : "/external/boringssl/src/include/openssl/ssl.h"
  },
  {
   "function_name" : "SSL_enable_ocsp_stapling",
   "linker_set_key" : "SSL_enable_ocsp_stapling",
   "parameters" :
   [
    {
     "referenced_type" : "_ZTIP6ssl_st"
    }
   ],
   "return_type" : "_ZTIv",
   "source_file" : "/external/boringssl/src/include/openssl/ssl.h"
  },
  {
   "function_name" : "SSL_enable_signed_cert_timestamps",
   "linker_set_key" : "SSL_enable_signed_cert_timestamps",
   "parameters" :
   [
    {
     "referenced_type" : "_ZTIP6ssl_st"
    }
   ],
   "return_type" : "_ZTIv",
   "source_file" : "/external/boringssl/src/include/openssl/ssl.h"
  },
  {
   "function_name" : "SSL_enable_tls_channel_id",
   "linker_set_key" : "SSL_enable_tls_channel_id",
   "parameters" :
   [
    {
     "referenced_type" : "_ZTIP6ssl_st"
    }
   ],
   "return_type" : "_ZTIi",
   "source_file" : "/external/boringssl/src/include/openssl/ssl.h"
  },
  {
   "function_name" : "SSL_error_description",
   "linker_set_key" : "SSL_error_description",
   "parameters" :
   [
    {
     "referenced_type" : "_ZTIi"
    }
   ],
   "return_type" : "_ZTIPKc",
   "source_file" : "/external/boringssl/src/include/openssl/ssl.h"
  },
  {
   "function_name" : "SSL_export_keying_material",
   "linker_set_key" : "SSL_export_keying_material",
   "parameters" :
   [
    {
     "referenced_type" : "_ZTIP6ssl_st"
    },
    {
     "referenced_type" : "_ZTIPh"
    },
    {
     "referenced_type" : "_ZTIm"
    },
    {
     "referenced_type" : "_ZTIPKc"
    },
    {
     "referenced_type" : "_ZTIm"
    },
    {
     "referenced_type" : "_ZTIPKh"
    },
    {
     "referenced_type" : "_ZTIm"
    },
    {
     "referenced_type" : "_ZTIi"
    }
   ],
   "return_type" : "_ZTIi",
   "source_file" : "/external/boringssl/src/include/openssl/ssl.h"
  },
  {
   "function_name" : "SSL_free",
   "linker_set_key" : "SSL_free",
   "parameters" :
   [
    {
     "referenced_type" : "_ZTIP6ssl_st"
    }
   ],
   "return_type" : "_ZTIv",
   "source_file" : "/external/boringssl/src/include/openssl/ssl.h"
  },
  {
   "function_name" : "SSL_generate_key_block",
   "linker_set_key" : "SSL_generate_key_block",
   "parameters" :
   [
    {
     "referenced_type" : "_ZTIPK6ssl_st"
    },
    {
     "referenced_type" : "_ZTIPh"
    },
    {
     "referenced_type" : "_ZTIm"
    }
   ],
   "return_type" : "_ZTIi",
   "source_file" : "/external/boringssl/src/include/openssl/ssl.h"
  },
  {
   "function_name" : "SSL_get0_alpn_selected",
   "linker_set_key" : "SSL_get0_alpn_selected",
   "parameters" :
   [
    {
     "referenced_type" : "_ZTIPK6ssl_st"
    },
    {
     "referenced_type" : "_ZTIPPKh"
    },
    {
     "referenced_type" : "_ZTIPj"
    }
   ],
   "return_type" : "_ZTIv",
   "source_file" : "/external/boringssl/src/include/openssl/ssl.h"
  },
  {
   "function_name" : "SSL_get0_certificate_types",
   "linker_set_key" : "SSL_get0_certificate_types",
   "parameters" :
   [
    {
     "referenced_type" : "_ZTIPK6ssl_st"
    },
    {
     "referenced_type" : "_ZTIPPKh"
    }
   ],
   "return_type" : "_ZTIm",
   "source_file" : "/external/boringssl/src/include/openssl/ssl.h"
  },
  {
   "function_name" : "SSL_get0_chain_certs",
   "linker_set_key" : "SSL_get0_chain_certs",
   "parameters" :
   [
    {
     "referenced_type" : "_ZTIPK6ssl_st"
    },
    {
     "referenced_type" : "_ZTIPP13stack_st_X509"
    }
   ],
   "return_type" : "_ZTIi",
   "source_file" : "/external/boringssl/src/include/openssl/ssl.h"
  },
  {
   "function_name" : "SSL_get0_next_proto_negotiated",
   "linker_set_key" : "SSL_get0_next_proto_negotiated",
   "parameters" :
   [
    {
     "referenced_type" : "_ZTIPK6ssl_st"
    },
    {
     "referenced_type" : "_ZTIPPKh"
    },
    {
     "referenced_type" : "_ZTIPj"
    }
   ],
   "return_type" : "_ZTIv",
   "source_file" : "/external/boringssl/src/include/openssl/ssl.h"
  },
  {
   "function_name" : "SSL_get0_ocsp_response",
   "linker_set_key" : "SSL_get0_ocsp_response",
   "parameters" :
   [
    {
     "referenced_type" : "_ZTIPK6ssl_st"
    },
    {
     "referenced_type" : "_ZTIPPKh"
    },
    {
     "referenced_type" : "_ZTIPm"
    }
   ],
   "return_type" : "_ZTIv",
   "source_file" : "/external/boringssl/src/include/openssl/ssl.h"
  },
  {
   "function_name" : "SSL_get0_param",
   "linker_set_key" : "SSL_get0_param",
   "parameters" :
   [
    {
     "referenced_type" : "_ZTIP6ssl_st"
    }
   ],
   "return_type" : "_ZTIP20X509_VERIFY_PARAM_st",
   "source_file" : "/external/boringssl/src/include/openssl/ssl.h"
  },
  {
   "function_name" : "SSL_get0_peer_certificates",
   "linker_set_key" : "SSL_get0_peer_certificates",
   "parameters" :
   [
    {
     "referenced_type" : "_ZTIPK6ssl_st"
    }
   ],
   "return_type" : "_ZTIPK22stack_st_CRYPTO_BUFFER",
   "source_file" : "/external/boringssl/src/include/openssl/ssl.h"
  },
  {
   "function_name" : "SSL_get0_peer_verify_algorithms",
   "linker_set_key" : "SSL_get0_peer_verify_algorithms",
   "parameters" :
   [
    {
     "referenced_type" : "_ZTIPK6ssl_st"
    },
    {
     "referenced_type" : "_ZTIPPKt"
    }
   ],
   "return_type" : "_ZTIm",
   "source_file" : "/external/boringssl/src/include/openssl/ssl.h"
  },
  {
   "function_name" : "SSL_get0_server_requested_CAs",
   "linker_set_key" : "SSL_get0_server_requested_CAs",
   "parameters" :
   [
    {
     "referenced_type" : "_ZTIPK6ssl_st"
    }
   ],
   "return_type" : "_ZTIPK22stack_st_CRYPTO_BUFFER",
   "source_file" : "/external/boringssl/src/include/openssl/ssl.h"
  },
  {
   "function_name" : "SSL_get0_session_id_context",
   "linker_set_key" : "SSL_get0_session_id_context",
   "parameters" :
   [
    {
     "referenced_type" : "_ZTIPK6ssl_st"
    },
    {
     "referenced_type" : "_ZTIPm"
    }
   ],
   "return_type" : "_ZTIPKh",
   "source_file" : "/external/boringssl/src/include/openssl/ssl.h"
  },
  {
   "function_name" : "SSL_get0_signed_cert_timestamp_list",
   "linker_set_key" : "SSL_get0_signed_cert_timestamp_list",
   "parameters" :
   [
    {
     "referenced_type" : "_ZTIPK6ssl_st"
    },
    {
     "referenced_type" : "_ZTIPPKh"
    },
    {
     "referenced_type" : "_ZTIPm"
    }
   ],
   "return_type" : "_ZTIv",
   "source_file" : "/external/boringssl/src/include/openssl/ssl.h"
  },
  {
   "function_name" : "SSL_get1_session",
   "linker_set_key" : "SSL_get1_session",
   "parameters" :
   [
    {
     "referenced_type" : "_ZTIP6ssl_st"
    }
   ],
   "return_type" : "_ZTIP14ssl_session_st",
   "source_file" : "/external/boringssl/src/include/openssl/ssl.h"
  },
  {
   "function_name" : "SSL_get_SSL_CTX",
   "linker_set_key" : "SSL_get_SSL_CTX",
   "parameters" :
   [
    {
     "referenced_type" : "_ZTIPK6ssl_st"
    }
   ],
   "return_type" : "_ZTIP10ssl_ctx_st",
   "source_file" : "/external/boringssl/src/include/openssl/ssl.h"
  },
  {
   "function_name" : "SSL_get_certificate",
   "linker_set_key" : "SSL_get_certificate",
   "parameters" :
   [
    {
     "referenced_type" : "_ZTIPK6ssl_st"
    }
   ],
   "return_type" : "_ZTIP7x509_st",
   "source_file" : "/external/boringssl/src/include/openssl/ssl.h"
  },
  {
   "function_name" : "SSL_get_cipher_by_value",
   "linker_set_key" : "SSL_get_cipher_by_value",
   "parameters" :
   [
    {
     "referenced_type" : "_ZTIt"
    }
   ],
   "return_type" : "_ZTIPK13ssl_cipher_st",
   "source_file" : "/external/boringssl/src/include/openssl/ssl.h"
  },
  {
   "function_name" : "SSL_get_cipher_list",
   "linker_set_key" : "SSL_get_cipher_list",
   "parameters" :
   [
    {
     "referenced_type" : "_ZTIPK6ssl_st"
    },
    {
     "referenced_type" : "_ZTIi"
    }
   ],
   "return_type" : "_ZTIPKc",
   "source_file" : "/external/boringssl/src/include/openssl/ssl.h"
  },
  {
   "function_name" : "SSL_get_ciphers",
   "linker_set_key" : "SSL_get_ciphers",
   "parameters" :
   [
    {
     "referenced_type" : "_ZTIPK6ssl_st"
    }
   ],
   "return_type" : "_ZTIP19stack_st_SSL_CIPHER",
   "source_file" : "/external/boringssl/src/include/openssl/ssl.h"
  },
  {
   "function_name" : "SSL_get_client_CA_list",
   "linker_set_key" : "SSL_get_client_CA_list",
   "parameters" :
   [
    {
     "referenced_type" : "_ZTIPK6ssl_st"
    }
   ],
   "return_type" : "_ZTIP18stack_st_X509_NAME",
   "source_file" : "/external/boringssl/src/include/openssl/ssl.h"
  },
  {
   "function_name" : "SSL_get_client_random",
   "linker_set_key" : "SSL_get_client_random",
   "parameters" :
   [
    {
     "referenced_type" : "_ZTIPK6ssl_st"
    },
    {
     "referenced_type" : "_ZTIPh"
    },
    {
     "referenced_type" : "_ZTIm"
    }
   ],
   "return_type" : "_ZTIm",
   "source_file" : "/external/boringssl/src/include/openssl/ssl.h"
  },
  {
   "function_name" : "SSL_get_current_cipher",
   "linker_set_key" : "SSL_get_current_cipher",
   "parameters" :
   [
    {
     "referenced_type" : "_ZTIPK6ssl_st"
    }
   ],
   "return_type" : "_ZTIPK13ssl_cipher_st",
   "source_file" : "/external/boringssl/src/include/openssl/ssl.h"
  },
  {
   "function_name" : "SSL_get_current_compression",
   "linker_set_key" : "SSL_get_current_compression",
   "parameters" :
   [
    {
     "referenced_type" : "_ZTIP6ssl_st"
    }
   ],
   "return_type" : "_ZTIPKv",
   "source_file" : "/external/boringssl/src/include/openssl/ssl.h"
  },
  {
   "function_name" : "SSL_get_current_expansion",
   "linker_set_key" : "SSL_get_current_expansion",
   "parameters" :
   [
    {
     "referenced_type" : "_ZTIP6ssl_st"
    }
   ],
   "return_type" : "_ZTIPKv",
   "source_file" : "/external/boringssl/src/include/openssl/ssl.h"
  },
  {
   "function_name" : "SSL_get_curve_id",
   "linker_set_key" : "SSL_get_curve_id",
   "parameters" :
   [
    {
     "referenced_type" : "_ZTIPK6ssl_st"
    }
   ],
   "return_type" : "_ZTIt",
   "source_file" : "/external/boringssl/src/include/openssl/ssl.h"
  },
  {
   "function_name" : "SSL_get_curve_name",
   "linker_set_key" : "SSL_get_curve_name",
   "parameters" :
   [
    {
     "referenced_type" : "_ZTIt"
    }
   ],
   "return_type" : "_ZTIPKc",
   "source_file" : "/external/boringssl/src/include/openssl/ssl.h"
  },
  {
   "function_name" : "SSL_get_default_timeout",
   "linker_set_key" : "SSL_get_default_timeout",
   "parameters" :
   [
    {
     "referenced_type" : "_ZTIPK6ssl_st"
    }
   ],
   "return_type" : "_ZTIl",
   "source_file" : "/external/boringssl/src/include/openssl/ssl.h"
  },
  {
   "function_name" : "SSL_get_early_data_reason",
   "linker_set_key" : "SSL_get_early_data_reason",
   "parameters" :
   [
    {
     "referenced_type" : "_ZTIPK6ssl_st"
    }
   ],
   "return_type" : "_ZTI23ssl_early_data_reason_t",
   "source_file" : "/external/boringssl/src/include/openssl/ssl.h"
  },
  {
   "function_name" : "SSL_get_error",
   "linker_set_key" : "SSL_get_error",
   "parameters" :
   [
    {
     "referenced_type" : "_ZTIPK6ssl_st"
    },
    {
     "referenced_type" : "_ZTIi"
    }
   ],
   "return_type" : "_ZTIi",
   "source_file" : "/external/boringssl/src/include/openssl/ssl.h"
  },
  {
   "function_name" : "SSL_get_ex_data",
   "linker_set_key" : "SSL_get_ex_data",
   "parameters" :
   [
    {
     "referenced_type" : "_ZTIPK6ssl_st"
    },
    {
     "referenced_type" : "_ZTIi"
    }
   ],
   "return_type" : "_ZTIPv",
   "source_file" : "/external/boringssl/src/include/openssl/ssl.h"
  },
  {
   "function_name" : "SSL_get_ex_data_X509_STORE_CTX_idx",
   "linker_set_key" : "SSL_get_ex_data_X509_STORE_CTX_idx",
   "return_type" : "_ZTIi",
   "source_file" : "/external/boringssl/src/include/openssl/ssl.h"
  },
  {
   "function_name" : "SSL_get_ex_new_index",
   "linker_set_key" : "SSL_get_ex_new_index",
   "parameters" :
   [
    {
     "referenced_type" : "_ZTIl"
    },
    {
     "referenced_type" : "_ZTIPv"
    },
    {
     "referenced_type" : "_ZTIPi"
    },
    {
     "referenced_type" : "_ZTIPFiP17crypto_ex_data_stPKS_PPvilS3_E"
    },
    {
     "referenced_type" : "_ZTIPFvPvS_P17crypto_ex_data_stilS_E"
    }
   ],
   "return_type" : "_ZTIi",
   "source_file" : "/external/boringssl/src/include/openssl/ssl.h"
  },
  {
   "function_name" : "SSL_get_extms_support",
   "linker_set_key" : "SSL_get_extms_support",
   "parameters" :
   [
    {
     "referenced_type" : "_ZTIPK6ssl_st"
    }
   ],
   "return_type" : "_ZTIi",
   "source_file" : "/external/boringssl/src/include/openssl/ssl.h"
  },
  {
   "function_name" : "SSL_get_fd",
   "linker_set_key" : "SSL_get_fd",
   "parameters" :
   [
    {
     "referenced_type" : "_ZTIPK6ssl_st"
    }
   ],
   "return_type" : "_ZTIi",
   "source_file" : "/external/boringssl/src/include/openssl/ssl.h"
  },
  {
   "function_name" : "SSL_get_finished",
   "linker_set_key" : "SSL_get_finished",
   "parameters" :
   [
    {
     "referenced_type" : "_ZTIPK6ssl_st"
    },
    {
     "referenced_type" : "_ZTIPv"
    },
    {
     "referenced_type" : "_ZTIm"
    }
   ],
   "return_type" : "_ZTIm",
   "source_file" : "/external/boringssl/src/include/openssl/ssl.h"
  },
  {
   "function_name" : "SSL_get_info_callback",
   "linker_set_key" : "SSL_get_info_callback",
   "parameters" :
   [
    {
     "referenced_type" : "_ZTIPK6ssl_st"
    }
   ],
   "return_type" : "_ZTIPFvPK6ssl_stiiE",
   "source_file" : "/external/boringssl/src/include/openssl/ssl.h"
  },
  {
   "function_name" : "SSL_get_ivs",
   "linker_set_key" : "SSL_get_ivs",
   "parameters" :
   [
    {
     "referenced_type" : "_ZTIPK6ssl_st"
    },
    {
     "referenced_type" : "_ZTIPPKh"
    },
    {
     "referenced_type" : "_ZTIPPKh"
    },
    {
     "referenced_type" : "_ZTIPm"
    }
   ],
   "return_type" : "_ZTIi",
   "source_file" : "/external/boringssl/src/include/openssl/ssl.h"
  },
  {
   "function_name" : "SSL_get_key_block_len",
   "linker_set_key" : "SSL_get_key_block_len",
   "parameters" :
   [
    {
     "referenced_type" : "_ZTIPK6ssl_st"
    }
   ],
   "return_type" : "_ZTIm",
   "source_file" : "/external/boringssl/src/include/openssl/ssl.h"
  },
  {
   "function_name" : "SSL_get_max_cert_list",
   "linker_set_key" : "SSL_get_max_cert_list",
   "parameters" :
   [
    {
     "referenced_type" : "_ZTIPK6ssl_st"
    }
   ],
   "return_type" : "_ZTIm",
   "source_file" : "/external/boringssl/src/include/openssl/ssl.h"
  },
  {
   "function_name" : "SSL_get_max_proto_version",
   "linker_set_key" : "SSL_get_max_proto_version",
   "parameters" :
   [
    {
     "referenced_type" : "_ZTIPK6ssl_st"
    }
   ],
   "return_type" : "_ZTIt",
   "source_file" : "/external/boringssl/src/include/openssl/ssl.h"
  },
  {
   "function_name" : "SSL_get_min_proto_version",
   "linker_set_key" : "SSL_get_min_proto_version",
   "parameters" :
   [
    {
     "referenced_type" : "_ZTIPK6ssl_st"
    }
   ],
   "return_type" : "_ZTIt",
   "source_file" : "/external/boringssl/src/include/openssl/ssl.h"
  },
  {
   "function_name" : "SSL_get_mode",
   "linker_set_key" : "SSL_get_mode",
   "parameters" :
   [
    {
     "referenced_type" : "_ZTIPK6ssl_st"
    }
   ],
   "return_type" : "_ZTIj",
   "source_file" : "/external/boringssl/src/include/openssl/ssl.h"
  },
  {
   "function_name" : "SSL_get_negotiated_token_binding_param",
   "linker_set_key" : "SSL_get_negotiated_token_binding_param",
   "parameters" :
   [
    {
     "referenced_type" : "_ZTIPK6ssl_st"
    }
   ],
   "return_type" : "_ZTIh",
   "source_file" : "/external/boringssl/src/include/openssl/ssl.h"
  },
  {
   "function_name" : "SSL_get_options",
   "linker_set_key" : "SSL_get_options",
   "parameters" :
   [
    {
     "referenced_type" : "_ZTIPK6ssl_st"
    }
   ],
   "return_type" : "_ZTIj",
   "source_file" : "/external/boringssl/src/include/openssl/ssl.h"
  },
  {
   "function_name" : "SSL_get_peer_cert_chain",
   "linker_set_key" : "SSL_get_peer_cert_chain",
   "parameters" :
   [
    {
     "referenced_type" : "_ZTIPK6ssl_st"
    }
   ],
   "return_type" : "_ZTIP13stack_st_X509",
   "source_file" : "/external/boringssl/src/include/openssl/ssl.h"
  },
  {
   "function_name" : "SSL_get_peer_certificate",
   "linker_set_key" : "SSL_get_peer_certificate",
   "parameters" :
   [
    {
     "referenced_type" : "_ZTIPK6ssl_st"
    }
   ],
   "return_type" : "_ZTIP7x509_st",
   "source_file" : "/external/boringssl/src/include/openssl/ssl.h"
  },
  {
   "function_name" : "SSL_get_peer_finished",
   "linker_set_key" : "SSL_get_peer_finished",
   "parameters" :
   [
    {
     "referenced_type" : "_ZTIPK6ssl_st"
    },
    {
     "referenced_type" : "_ZTIPv"
    },
    {
     "referenced_type" : "_ZTIm"
    }
   ],
   "return_type" : "_ZTIm",
   "source_file" : "/external/boringssl/src/include/openssl/ssl.h"
  },
  {
   "function_name" : "SSL_get_peer_full_cert_chain",
   "linker_set_key" : "SSL_get_peer_full_cert_chain",
   "parameters" :
   [
    {
     "referenced_type" : "_ZTIPK6ssl_st"
    }
   ],
   "return_type" : "_ZTIP13stack_st_X509",
   "source_file" : "/external/boringssl/src/include/openssl/ssl.h"
  },
  {
   "function_name" : "SSL_get_peer_quic_transport_params",
   "linker_set_key" : "SSL_get_peer_quic_transport_params",
   "parameters" :
   [
    {
     "referenced_type" : "_ZTIPK6ssl_st"
    },
    {
     "referenced_type" : "_ZTIPPKh"
    },
    {
     "referenced_type" : "_ZTIPm"
    }
   ],
   "return_type" : "_ZTIv",
   "source_file" : "/external/boringssl/src/include/openssl/ssl.h"
  },
  {
   "function_name" : "SSL_get_peer_signature_algorithm",
   "linker_set_key" : "SSL_get_peer_signature_algorithm",
   "parameters" :
   [
    {
     "referenced_type" : "_ZTIPK6ssl_st"
    }
   ],
   "return_type" : "_ZTIt",
   "source_file" : "/external/boringssl/src/include/openssl/ssl.h"
  },
  {
   "function_name" : "SSL_get_pending_cipher",
   "linker_set_key" : "SSL_get_pending_cipher",
   "parameters" :
   [
    {
     "referenced_type" : "_ZTIPK6ssl_st"
    }
   ],
   "return_type" : "_ZTIPK13ssl_cipher_st",
   "source_file" : "/external/boringssl/src/include/openssl/ssl.h"
  },
  {
   "function_name" : "SSL_get_privatekey",
   "linker_set_key" : "SSL_get_privatekey",
   "parameters" :
   [
    {
     "referenced_type" : "_ZTIPK6ssl_st"
    }
   ],
   "return_type" : "_ZTIP11evp_pkey_st",
   "source_file" : "/external/boringssl/src/include/openssl/ssl.h"
  },
  {
   "function_name" : "SSL_get_psk_identity",
   "linker_set_key" : "SSL_get_psk_identity",
   "parameters" :
   [
    {
     "referenced_type" : "_ZTIPK6ssl_st"
    }
   ],
   "return_type" : "_ZTIPKc",
   "source_file" : "/external/boringssl/src/include/openssl/ssl.h"
  },
  {
   "function_name" : "SSL_get_psk_identity_hint",
   "linker_set_key" : "SSL_get_psk_identity_hint",
   "parameters" :
   [
    {
     "referenced_type" : "_ZTIPK6ssl_st"
    }
   ],
   "return_type" : "_ZTIPKc",
   "source_file" : "/external/boringssl/src/include/openssl/ssl.h"
  },
  {
   "function_name" : "SSL_get_quiet_shutdown",
   "linker_set_key" : "SSL_get_quiet_shutdown",
   "parameters" :
   [
    {
     "referenced_type" : "_ZTIPK6ssl_st"
    }
   ],
   "return_type" : "_ZTIi",
   "source_file" : "/external/boringssl/src/include/openssl/ssl.h"
  },
  {
   "function_name" : "SSL_get_rbio",
   "linker_set_key" : "SSL_get_rbio",
   "parameters" :
   [
    {
     "referenced_type" : "_ZTIPK6ssl_st"
    }
   ],
   "return_type" : "_ZTIP6bio_st",
   "source_file" : "/external/boringssl/src/include/openssl/ssl.h"
  },
  {
   "function_name" : "SSL_get_read_ahead",
   "linker_set_key" : "SSL_get_read_ahead",
   "parameters" :
   [
    {
     "referenced_type" : "_ZTIPK6ssl_st"
    }
   ],
   "return_type" : "_ZTIi",
   "source_file" : "/external/boringssl/src/include/openssl/ssl.h"
  },
  {
   "function_name" : "SSL_get_read_sequence",
   "linker_set_key" : "SSL_get_read_sequence",
   "parameters" :
   [
    {
     "referenced_type" : "_ZTIPK6ssl_st"
    }
   ],
   "return_type" : "_ZTIm",
   "source_file" : "/external/boringssl/src/include/openssl/ssl.h"
  },
  {
   "function_name" : "SSL_get_rfd",
   "linker_set_key" : "SSL_get_rfd",
   "parameters" :
   [
    {
     "referenced_type" : "_ZTIPK6ssl_st"
    }
   ],
   "return_type" : "_ZTIi",
   "source_file" : "/external/boringssl/src/include/openssl/ssl.h"
  },
  {
   "function_name" : "SSL_get_secure_renegotiation_support",
   "linker_set_key" : "SSL_get_secure_renegotiation_support",
   "parameters" :
   [
    {
     "referenced_type" : "_ZTIPK6ssl_st"
    }
   ],
   "return_type" : "_ZTIi",
   "source_file" : "/external/boringssl/src/include/openssl/ssl.h"
  },
  {
   "function_name" : "SSL_get_selected_srtp_profile",
   "linker_set_key" : "SSL_get_selected_srtp_profile",
   "parameters" :
   [
    {
     "referenced_type" : "_ZTIP6ssl_st"
    }
   ],
   "return_type" : "_ZTIPK26srtp_protection_profile_st",
   "source_file" : "/external/boringssl/src/include/openssl/ssl.h"
  },
  {
   "function_name" : "SSL_get_server_random",
   "linker_set_key" : "SSL_get_server_random",
   "parameters" :
   [
    {
     "referenced_type" : "_ZTIPK6ssl_st"
    },
    {
     "referenced_type" : "_ZTIPh"
    },
    {
     "referenced_type" : "_ZTIm"
    }
   ],
   "return_type" : "_ZTIm",
   "source_file" : "/external/boringssl/src/include/openssl/ssl.h"
  },
  {
   "function_name" : "SSL_get_server_tmp_key",
   "linker_set_key" : "SSL_get_server_tmp_key",
   "parameters" :
   [
    {
     "referenced_type" : "_ZTIP6ssl_st"
    },
    {
     "referenced_type" : "_ZTIPP11evp_pkey_st"
    }
   ],
   "return_type" : "_ZTIi",
   "source_file" : "/external/boringssl/src/include/openssl/ssl.h"
  },
  {
   "function_name" : "SSL_get_servername",
   "linker_set_key" : "SSL_get_servername",
   "parameters" :
   [
    {
     "referenced_type" : "_ZTIPK6ssl_st"
    },
    {
     "referenced_type" : "_ZTIKi"
    }
   ],
   "return_type" : "_ZTIPKc",
   "source_file" : "/external/boringssl/src/include/openssl/ssl.h"
  },
  {
   "function_name" : "SSL_get_servername_type",
   "linker_set_key" : "SSL_get_servername_type",
   "parameters" :
   [
    {
     "referenced_type" : "_ZTIPK6ssl_st"
    }
   ],
   "return_type" : "_ZTIi",
   "source_file" : "/external/boringssl/src/include/openssl/ssl.h"
  },
  {
   "function_name" : "SSL_get_session",
   "linker_set_key" : "SSL_get_session",
   "parameters" :
   [
    {
     "referenced_type" : "_ZTIPK6ssl_st"
    }
   ],
   "return_type" : "_ZTIP14ssl_session_st",
   "source_file" : "/external/boringssl/src/include/openssl/ssl.h"
  },
  {
   "function_name" : "SSL_get_shared_ciphers",
   "linker_set_key" : "SSL_get_shared_ciphers",
   "parameters" :
   [
    {
     "referenced_type" : "_ZTIPK6ssl_st"
    },
    {
     "referenced_type" : "_ZTIPc"
    },
    {
     "referenced_type" : "_ZTIi"
    }
   ],
   "return_type" : "_ZTIPc",
   "source_file" : "/external/boringssl/src/include/openssl/ssl.h"
  },
  {
   "function_name" : "SSL_get_shutdown",
   "linker_set_key" : "SSL_get_shutdown",
   "parameters" :
   [
    {
     "referenced_type" : "_ZTIPK6ssl_st"
    }
   ],
   "return_type" : "_ZTIi",
   "source_file" : "/external/boringssl/src/include/openssl/ssl.h"
  },
  {
   "function_name" : "SSL_get_signature_algorithm_digest",
   "linker_set_key" : "SSL_get_signature_algorithm_digest",
   "parameters" :
   [
    {
     "referenced_type" : "_ZTIt"
    }
   ],
   "return_type" : "_ZTIPK9env_md_st",
   "source_file" : "/external/boringssl/src/include/openssl/ssl.h"
  },
  {
   "function_name" : "SSL_get_signature_algorithm_key_type",
   "linker_set_key" : "SSL_get_signature_algorithm_key_type",
   "parameters" :
   [
    {
     "referenced_type" : "_ZTIt"
    }
   ],
   "return_type" : "_ZTIi",
   "source_file" : "/external/boringssl/src/include/openssl/ssl.h"
  },
  {
   "function_name" : "SSL_get_signature_algorithm_name",
   "linker_set_key" : "SSL_get_signature_algorithm_name",
   "parameters" :
   [
    {
     "referenced_type" : "_ZTIt"
    },
    {
     "referenced_type" : "_ZTIi"
    }
   ],
   "return_type" : "_ZTIPKc",
   "source_file" : "/external/boringssl/src/include/openssl/ssl.h"
  },
  {
   "function_name" : "SSL_get_srtp_profiles",
   "linker_set_key" : "SSL_get_srtp_profiles",
   "parameters" :
   [
    {
     "referenced_type" : "_ZTIP6ssl_st"
    }
   ],
   "return_type" : "_ZTIP32stack_st_SRTP_PROTECTION_PROFILE",
   "source_file" : "/external/boringssl/src/include/openssl/ssl.h"
  },
  {
   "function_name" : "SSL_get_ticket_age_skew",
   "linker_set_key" : "SSL_get_ticket_age_skew",
   "parameters" :
   [
    {
     "referenced_type" : "_ZTIPK6ssl_st"
    }
   ],
   "return_type" : "_ZTIi",
   "source_file" : "/external/boringssl/src/include/openssl/ssl.h"
  },
  {
   "function_name" : "SSL_get_tls_channel_id",
   "linker_set_key" : "SSL_get_tls_channel_id",
   "parameters" :
   [
    {
     "referenced_type" : "_ZTIP6ssl_st"
    },
    {
     "referenced_type" : "_ZTIPh"
    },
    {
     "referenced_type" : "_ZTIm"
    }
   ],
   "return_type" : "_ZTIm",
   "source_file" : "/external/boringssl/src/include/openssl/ssl.h"
  },
  {
   "function_name" : "SSL_get_tls_unique",
   "linker_set_key" : "SSL_get_tls_unique",
   "parameters" :
   [
    {
     "referenced_type" : "_ZTIPK6ssl_st"
    },
    {
     "referenced_type" : "_ZTIPh"
    },
    {
     "referenced_type" : "_ZTIPm"
    },
    {
     "referenced_type" : "_ZTIm"
    }
   ],
   "return_type" : "_ZTIi",
   "source_file" : "/external/boringssl/src/include/openssl/ssl.h"
  },
  {
   "function_name" : "SSL_get_tlsext_status_ocsp_resp",
   "linker_set_key" : "SSL_get_tlsext_status_ocsp_resp",
   "parameters" :
   [
    {
     "referenced_type" : "_ZTIPK6ssl_st"
    },
    {
     "referenced_type" : "_ZTIPPKh"
    }
   ],
   "return_type" : "_ZTIm",
   "source_file" : "/external/boringssl/src/include/openssl/ssl.h"
  },
  {
   "function_name" : "SSL_get_tlsext_status_type",
   "linker_set_key" : "SSL_get_tlsext_status_type",
   "parameters" :
   [
    {
     "referenced_type" : "_ZTIPK6ssl_st"
    }
   ],
   "return_type" : "_ZTIi",
   "source_file" : "/external/boringssl/src/include/openssl/ssl.h"
  },
  {
   "function_name" : "SSL_get_verify_callback",
   "linker_set_key" : "SSL_get_verify_callback",
   "parameters" :
   [
    {
     "referenced_type" : "_ZTIPK6ssl_st"
    }
   ],
   "return_type" : "_ZTIPFiiP17x509_store_ctx_stE",
   "source_file" : "/external/boringssl/src/include/openssl/ssl.h"
  },
  {
   "function_name" : "SSL_get_verify_depth",
   "linker_set_key" : "SSL_get_verify_depth",
   "parameters" :
   [
    {
     "referenced_type" : "_ZTIPK6ssl_st"
    }
   ],
   "return_type" : "_ZTIi",
   "source_file" : "/external/boringssl/src/include/openssl/ssl.h"
  },
  {
   "function_name" : "SSL_get_verify_mode",
   "linker_set_key" : "SSL_get_verify_mode",
   "parameters" :
   [
    {
     "referenced_type" : "_ZTIPK6ssl_st"
    }
   ],
   "return_type" : "_ZTIi",
   "source_file" : "/external/boringssl/src/include/openssl/ssl.h"
  },
  {
   "function_name" : "SSL_get_verify_result",
   "linker_set_key" : "SSL_get_verify_result",
   "parameters" :
   [
    {
     "referenced_type" : "_ZTIPK6ssl_st"
    }
   ],
   "return_type" : "_ZTIl",
   "source_file" : "/external/boringssl/src/include/openssl/ssl.h"
  },
  {
   "function_name" : "SSL_get_version",
   "linker_set_key" : "SSL_get_version",
   "parameters" :
   [
    {
     "referenced_type" : "_ZTIPK6ssl_st"
    }
   ],
   "return_type" : "_ZTIPKc",
   "source_file" : "/external/boringssl/src/include/openssl/ssl.h"
  },
  {
   "function_name" : "SSL_get_wbio",
   "linker_set_key" : "SSL_get_wbio",
   "parameters" :
   [
    {
     "referenced_type" : "_ZTIPK6ssl_st"
    }
   ],
   "return_type" : "_ZTIP6bio_st",
   "source_file" : "/external/boringssl/src/include/openssl/ssl.h"
  },
  {
   "function_name" : "SSL_get_wfd",
   "linker_set_key" : "SSL_get_wfd",
   "parameters" :
   [
    {
     "referenced_type" : "_ZTIPK6ssl_st"
    }
   ],
   "return_type" : "_ZTIi",
   "source_file" : "/external/boringssl/src/include/openssl/ssl.h"
  },
  {
   "function_name" : "SSL_get_write_sequence",
   "linker_set_key" : "SSL_get_write_sequence",
   "parameters" :
   [
    {
     "referenced_type" : "_ZTIPK6ssl_st"
    }
   ],
   "return_type" : "_ZTIm",
   "source_file" : "/external/boringssl/src/include/openssl/ssl.h"
  },
  {
   "function_name" : "SSL_in_early_data",
   "linker_set_key" : "SSL_in_early_data",
   "parameters" :
   [
    {
     "referenced_type" : "_ZTIPK6ssl_st"
    }
   ],
   "return_type" : "_ZTIi",
   "source_file" : "/external/boringssl/src/include/openssl/ssl.h"
  },
  {
   "function_name" : "SSL_in_false_start",
   "linker_set_key" : "SSL_in_false_start",
   "parameters" :
   [
    {
     "referenced_type" : "_ZTIPK6ssl_st"
    }
   ],
   "return_type" : "_ZTIi",
   "source_file" : "/external/boringssl/src/include/openssl/ssl.h"
  },
  {
   "function_name" : "SSL_in_init",
   "linker_set_key" : "SSL_in_init",
   "parameters" :
   [
    {
     "referenced_type" : "_ZTIPK6ssl_st"
    }
   ],
   "return_type" : "_ZTIi",
   "source_file" : "/external/boringssl/src/include/openssl/ssl.h"
  },
  {
   "function_name" : "SSL_is_dtls",
   "linker_set_key" : "SSL_is_dtls",
   "parameters" :
   [
    {
     "referenced_type" : "_ZTIPK6ssl_st"
    }
   ],
   "return_type" : "_ZTIi",
   "source_file" : "/external/boringssl/src/include/openssl/ssl.h"
  },
  {
   "function_name" : "SSL_is_init_finished",
   "linker_set_key" : "SSL_is_init_finished",
   "parameters" :
   [
    {
     "referenced_type" : "_ZTIPK6ssl_st"
    }
   ],
   "return_type" : "_ZTIi",
   "source_file" : "/external/boringssl/src/include/openssl/ssl.h"
  },
  {
   "function_name" : "SSL_is_server",
   "linker_set_key" : "SSL_is_server",
   "parameters" :
   [
    {
     "referenced_type" : "_ZTIPK6ssl_st"
    }
   ],
   "return_type" : "_ZTIi",
   "source_file" : "/external/boringssl/src/include/openssl/ssl.h"
  },
  {
   "function_name" : "SSL_is_signature_algorithm_rsa_pss",
   "linker_set_key" : "SSL_is_signature_algorithm_rsa_pss",
   "parameters" :
   [
    {
     "referenced_type" : "_ZTIt"
    }
   ],
   "return_type" : "_ZTIi",
   "source_file" : "/external/boringssl/src/include/openssl/ssl.h"
  },
  {
   "function_name" : "SSL_is_tls13_downgrade",
   "linker_set_key" : "SSL_is_tls13_downgrade",
   "parameters" :
   [
    {
     "referenced_type" : "_ZTIPK6ssl_st"
    }
   ],
   "return_type" : "_ZTIi",
   "source_file" : "/external/boringssl/src/include/openssl/ssl.h"
  },
  {
   "function_name" : "SSL_is_token_binding_negotiated",
   "linker_set_key" : "SSL_is_token_binding_negotiated",
   "parameters" :
   [
    {
     "referenced_type" : "_ZTIPK6ssl_st"
    }
   ],
   "return_type" : "_ZTIi",
   "source_file" : "/external/boringssl/src/include/openssl/ssl.h"
  },
  {
   "function_name" : "SSL_key_update",
   "linker_set_key" : "SSL_key_update",
   "parameters" :
   [
    {
     "referenced_type" : "_ZTIP6ssl_st"
    },
    {
     "referenced_type" : "_ZTIi"
    }
   ],
   "return_type" : "_ZTIi",
   "source_file" : "/external/boringssl/src/include/openssl/ssl.h"
  },
  {
   "function_name" : "SSL_library_init",
   "linker_set_key" : "SSL_library_init",
   "return_type" : "_ZTIi",
   "source_file" : "/external/boringssl/src/include/openssl/ssl.h"
  },
  {
   "function_name" : "SSL_load_client_CA_file",
   "linker_set_key" : "SSL_load_client_CA_file",
   "parameters" :
   [
    {
     "referenced_type" : "_ZTIPKc"
    }
   ],
   "return_type" : "_ZTIP18stack_st_X509_NAME",
   "source_file" : "/external/boringssl/src/include/openssl/ssl.h"
  },
  {
   "function_name" : "SSL_load_error_strings",
   "linker_set_key" : "SSL_load_error_strings",
   "return_type" : "_ZTIv",
   "source_file" : "/external/boringssl/src/include/openssl/ssl.h"
  },
  {
   "function_name" : "SSL_magic_pending_session_ptr",
   "linker_set_key" : "SSL_magic_pending_session_ptr",
   "return_type" : "_ZTIP14ssl_session_st",
   "source_file" : "/external/boringssl/src/include/openssl/ssl.h"
  },
  {
   "function_name" : "SSL_max_seal_overhead",
   "linker_set_key" : "SSL_max_seal_overhead",
   "parameters" :
   [
    {
     "referenced_type" : "_ZTIPK6ssl_st"
    }
   ],
   "return_type" : "_ZTIm",
   "source_file" : "/external/boringssl/src/include/openssl/ssl.h"
  },
  {
   "function_name" : "SSL_need_tmp_RSA",
   "linker_set_key" : "SSL_need_tmp_RSA",
   "parameters" :
   [
    {
     "referenced_type" : "_ZTIPK6ssl_st"
    }
   ],
   "return_type" : "_ZTIi",
   "source_file" : "/external/boringssl/src/include/openssl/ssl.h"
  },
  {
   "function_name" : "SSL_new",
   "linker_set_key" : "SSL_new",
   "parameters" :
   [
    {
     "referenced_type" : "_ZTIP10ssl_ctx_st"
    }
   ],
   "return_type" : "_ZTIP6ssl_st",
   "source_file" : "/external/boringssl/src/include/openssl/ssl.h"
  },
  {
   "function_name" : "SSL_num_renegotiations",
   "linker_set_key" : "SSL_num_renegotiations",
   "parameters" :
   [
    {
     "referenced_type" : "_ZTIPK6ssl_st"
    }
   ],
   "return_type" : "_ZTIi",
   "source_file" : "/external/boringssl/src/include/openssl/ssl.h"
  },
  {
   "function_name" : "SSL_peek",
   "linker_set_key" : "SSL_peek",
   "parameters" :
   [
    {
     "referenced_type" : "_ZTIP6ssl_st"
    },
    {
     "referenced_type" : "_ZTIPv"
    },
    {
     "referenced_type" : "_ZTIi"
    }
   ],
   "return_type" : "_ZTIi",
   "source_file" : "/external/boringssl/src/include/openssl/ssl.h"
  },
  {
   "function_name" : "SSL_pending",
   "linker_set_key" : "SSL_pending",
   "parameters" :
   [
    {
     "referenced_type" : "_ZTIPK6ssl_st"
    }
   ],
   "return_type" : "_ZTIi",
   "source_file" : "/external/boringssl/src/include/openssl/ssl.h"
  },
  {
   "function_name" : "SSL_pq_experiment_signal_seen",
   "linker_set_key" : "SSL_pq_experiment_signal_seen",
   "parameters" :
   [
    {
     "referenced_type" : "_ZTIPK6ssl_st"
    }
   ],
   "return_type" : "_ZTIi",
   "source_file" : "/external/boringssl/src/include/openssl/ssl.h"
  },
  {
   "function_name" : "SSL_process_quic_post_handshake",
   "linker_set_key" : "SSL_process_quic_post_handshake",
   "parameters" :
   [
    {
     "referenced_type" : "_ZTIP6ssl_st"
    }
   ],
   "return_type" : "_ZTIi",
   "source_file" : "/external/boringssl/src/include/openssl/ssl.h"
  },
  {
   "function_name" : "SSL_provide_quic_data",
   "linker_set_key" : "SSL_provide_quic_data",
   "parameters" :
   [
    {
     "referenced_type" : "_ZTIP6ssl_st"
    },
    {
     "referenced_type" : "_ZTI22ssl_encryption_level_t"
    },
    {
     "referenced_type" : "_ZTIPKh"
    },
    {
     "referenced_type" : "_ZTIm"
    }
   ],
   "return_type" : "_ZTIi",
   "source_file" : "/external/boringssl/src/include/openssl/ssl.h"
  },
  {
   "function_name" : "SSL_quic_max_handshake_flight_len",
   "linker_set_key" : "SSL_quic_max_handshake_flight_len",
   "parameters" :
   [
    {
     "referenced_type" : "_ZTIPK6ssl_st"
    },
    {
     "referenced_type" : "_ZTI22ssl_encryption_level_t"
    }
   ],
   "return_type" : "_ZTIm",
   "source_file" : "/external/boringssl/src/include/openssl/ssl.h"
  },
  {
   "function_name" : "SSL_quic_read_level",
   "linker_set_key" : "SSL_quic_read_level",
   "parameters" :
   [
    {
     "referenced_type" : "_ZTIPK6ssl_st"
    }
   ],
   "return_type" : "_ZTI22ssl_encryption_level_t",
   "source_file" : "/external/boringssl/src/include/openssl/ssl.h"
  },
  {
   "function_name" : "SSL_quic_write_level",
   "linker_set_key" : "SSL_quic_write_level",
   "parameters" :
   [
    {
     "referenced_type" : "_ZTIPK6ssl_st"
    }
   ],
   "return_type" : "_ZTI22ssl_encryption_level_t",
   "source_file" : "/external/boringssl/src/include/openssl/ssl.h"
  },
  {
   "function_name" : "SSL_read",
   "linker_set_key" : "SSL_read",
   "parameters" :
   [
    {
     "referenced_type" : "_ZTIP6ssl_st"
    },
    {
     "referenced_type" : "_ZTIPv"
    },
    {
     "referenced_type" : "_ZTIi"
    }
   ],
   "return_type" : "_ZTIi",
   "source_file" : "/external/boringssl/src/include/openssl/ssl.h"
  },
  {
   "function_name" : "SSL_renegotiate",
   "linker_set_key" : "SSL_renegotiate",
   "parameters" :
   [
    {
     "referenced_type" : "_ZTIP6ssl_st"
    }
   ],
   "return_type" : "_ZTIi",
   "source_file" : "/external/boringssl/src/include/openssl/ssl.h"
  },
  {
   "function_name" : "SSL_renegotiate_pending",
   "linker_set_key" : "SSL_renegotiate_pending",
   "parameters" :
   [
    {
     "referenced_type" : "_ZTIP6ssl_st"
    }
   ],
   "return_type" : "_ZTIi",
   "source_file" : "/external/boringssl/src/include/openssl/ssl.h"
  },
  {
   "function_name" : "SSL_reset_early_data_reject",
   "linker_set_key" : "SSL_reset_early_data_reject",
   "parameters" :
   [
    {
     "referenced_type" : "_ZTIP6ssl_st"
    }
   ],
   "return_type" : "_ZTIv",
   "source_file" : "/external/boringssl/src/include/openssl/ssl.h"
  },
  {
   "function_name" : "SSL_select_next_proto",
   "linker_set_key" : "SSL_select_next_proto",
   "parameters" :
   [
    {
     "referenced_type" : "_ZTIPPh"
    },
    {
     "referenced_type" : "_ZTIPh"
    },
    {
     "referenced_type" : "_ZTIPKh"
    },
    {
     "referenced_type" : "_ZTIj"
    },
    {
     "referenced_type" : "_ZTIPKh"
    },
    {
     "referenced_type" : "_ZTIj"
    }
   ],
   "return_type" : "_ZTIi",
   "source_file" : "/external/boringssl/src/include/openssl/ssl.h"
  },
  {
   "function_name" : "SSL_send_fatal_alert",
   "linker_set_key" : "SSL_send_fatal_alert",
   "parameters" :
   [
    {
     "referenced_type" : "_ZTIP6ssl_st"
    },
    {
     "referenced_type" : "_ZTIh"
    }
   ],
   "return_type" : "_ZTIi",
   "source_file" : "/external/boringssl/src/include/openssl/ssl.h"
  },
  {
   "function_name" : "SSL_session_reused",
   "linker_set_key" : "SSL_session_reused",
   "parameters" :
   [
    {
     "referenced_type" : "_ZTIPK6ssl_st"
    }
   ],
   "return_type" : "_ZTIi",
   "source_file" : "/external/boringssl/src/include/openssl/ssl.h"
  },
  {
   "function_name" : "SSL_set0_chain",
   "linker_set_key" : "SSL_set0_chain",
   "parameters" :
   [
    {
     "referenced_type" : "_ZTIP6ssl_st"
    },
    {
     "referenced_type" : "_ZTIP13stack_st_X509"
    }
   ],
   "return_type" : "_ZTIi",
   "source_file" : "/external/boringssl/src/include/openssl/ssl.h"
  },
  {
   "function_name" : "SSL_set0_client_CAs",
   "linker_set_key" : "SSL_set0_client_CAs",
   "parameters" :
   [
    {
     "referenced_type" : "_ZTIP6ssl_st"
    },
    {
     "referenced_type" : "_ZTIP22stack_st_CRYPTO_BUFFER"
    }
   ],
   "return_type" : "_ZTIv",
   "source_file" : "/external/boringssl/src/include/openssl/ssl.h"
  },
  {
   "function_name" : "SSL_set0_rbio",
   "linker_set_key" : "SSL_set0_rbio",
   "parameters" :
   [
    {
     "referenced_type" : "_ZTIP6ssl_st"
    },
    {
     "referenced_type" : "_ZTIP6bio_st"
    }
   ],
   "return_type" : "_ZTIv",
   "source_file" : "/external/boringssl/src/include/openssl/ssl.h"
  },
  {
   "function_name" : "SSL_set0_verify_cert_store",
   "linker_set_key" : "SSL_set0_verify_cert_store",
   "parameters" :
   [
    {
     "referenced_type" : "_ZTIP6ssl_st"
    },
    {
     "referenced_type" : "_ZTIP13x509_store_st"
    }
   ],
   "return_type" : "_ZTIi",
   "source_file" : "/external/boringssl/src/include/openssl/ssl.h"
  },
  {
   "function_name" : "SSL_set0_wbio",
   "linker_set_key" : "SSL_set0_wbio",
   "parameters" :
   [
    {
     "referenced_type" : "_ZTIP6ssl_st"
    },
    {
     "referenced_type" : "_ZTIP6bio_st"
    }
   ],
   "return_type" : "_ZTIv",
   "source_file" : "/external/boringssl/src/include/openssl/ssl.h"
  },
  {
   "function_name" : "SSL_set1_chain",
   "linker_set_key" : "SSL_set1_chain",
   "parameters" :
   [
    {
     "referenced_type" : "_ZTIP6ssl_st"
    },
    {
     "referenced_type" : "_ZTIP13stack_st_X509"
    }
   ],
   "return_type" : "_ZTIi",
   "source_file" : "/external/boringssl/src/include/openssl/ssl.h"
  },
  {
   "function_name" : "SSL_set1_curves",
   "linker_set_key" : "SSL_set1_curves",
   "parameters" :
   [
    {
     "referenced_type" : "_ZTIP6ssl_st"
    },
    {
     "referenced_type" : "_ZTIPKi"
    },
    {
     "referenced_type" : "_ZTIm"
    }
   ],
   "return_type" : "_ZTIi",
   "source_file" : "/external/boringssl/src/include/openssl/ssl.h"
  },
  {
   "function_name" : "SSL_set1_curves_list",
   "linker_set_key" : "SSL_set1_curves_list",
   "parameters" :
   [
    {
     "referenced_type" : "_ZTIP6ssl_st"
    },
    {
     "referenced_type" : "_ZTIPKc"
    }
   ],
   "return_type" : "_ZTIi",
   "source_file" : "/external/boringssl/src/include/openssl/ssl.h"
  },
  {
   "function_name" : "SSL_set1_delegated_credential",
   "linker_set_key" : "SSL_set1_delegated_credential",
   "parameters" :
   [
    {
     "referenced_type" : "_ZTIP6ssl_st"
    },
    {
     "referenced_type" : "_ZTIP16crypto_buffer_st"
    },
    {
     "referenced_type" : "_ZTIP11evp_pkey_st"
    },
    {
     "referenced_type" : "_ZTIPK25ssl_private_key_method_st"
    }
   ],
   "return_type" : "_ZTIi",
   "source_file" : "/external/boringssl/src/include/openssl/ssl.h"
  },
  {
   "function_name" : "SSL_set1_param",
   "linker_set_key" : "SSL_set1_param",
   "parameters" :
   [
    {
     "referenced_type" : "_ZTIP6ssl_st"
    },
    {
     "referenced_type" : "_ZTIPK20X509_VERIFY_PARAM_st"
    }
   ],
   "return_type" : "_ZTIi",
   "source_file" : "/external/boringssl/src/include/openssl/ssl.h"
  },
  {
   "function_name" : "SSL_set1_sigalgs",
   "linker_set_key" : "SSL_set1_sigalgs",
   "parameters" :
   [
    {
     "referenced_type" : "_ZTIP6ssl_st"
    },
    {
     "referenced_type" : "_ZTIPKi"
    },
    {
     "referenced_type" : "_ZTIm"
    }
   ],
   "return_type" : "_ZTIi",
   "source_file" : "/external/boringssl/src/include/openssl/ssl.h"
  },
  {
   "function_name" : "SSL_set1_sigalgs_list",
   "linker_set_key" : "SSL_set1_sigalgs_list",
   "parameters" :
   [
    {
     "referenced_type" : "_ZTIP6ssl_st"
    },
    {
     "referenced_type" : "_ZTIPKc"
    }
   ],
   "return_type" : "_ZTIi",
   "source_file" : "/external/boringssl/src/include/openssl/ssl.h"
  },
  {
   "function_name" : "SSL_set1_tls_channel_id",
   "linker_set_key" : "SSL_set1_tls_channel_id",
   "parameters" :
   [
    {
     "referenced_type" : "_ZTIP6ssl_st"
    },
    {
     "referenced_type" : "_ZTIP11evp_pkey_st"
    }
   ],
   "return_type" : "_ZTIi",
   "source_file" : "/external/boringssl/src/include/openssl/ssl.h"
  },
  {
   "function_name" : "SSL_set1_verify_cert_store",
   "linker_set_key" : "SSL_set1_verify_cert_store",
   "parameters" :
   [
    {
     "referenced_type" : "_ZTIP6ssl_st"
    },
    {
     "referenced_type" : "_ZTIP13x509_store_st"
    }
   ],
   "return_type" : "_ZTIi",
   "source_file" : "/external/boringssl/src/include/openssl/ssl.h"
  },
  {
   "function_name" : "SSL_set_SSL_CTX",
   "linker_set_key" : "SSL_set_SSL_CTX",
   "parameters" :
   [
    {
     "referenced_type" : "_ZTIP6ssl_st"
    },
    {
     "referenced_type" : "_ZTIP10ssl_ctx_st"
    }
   ],
   "return_type" : "_ZTIP10ssl_ctx_st",
   "source_file" : "/external/boringssl/src/include/openssl/ssl.h"
  },
  {
   "function_name" : "SSL_set_accept_state",
   "linker_set_key" : "SSL_set_accept_state",
   "parameters" :
   [
    {
     "referenced_type" : "_ZTIP6ssl_st"
    }
   ],
   "return_type" : "_ZTIv",
   "source_file" : "/external/boringssl/src/include/openssl/ssl.h"
  },
  {
   "function_name" : "SSL_set_alpn_protos",
   "linker_set_key" : "SSL_set_alpn_protos",
   "parameters" :
   [
    {
     "referenced_type" : "_ZTIP6ssl_st"
    },
    {
     "referenced_type" : "_ZTIPKh"
    },
    {
     "referenced_type" : "_ZTIj"
    }
   ],
   "return_type" : "_ZTIi",
   "source_file" : "/external/boringssl/src/include/openssl/ssl.h"
  },
  {
   "function_name" : "SSL_set_bio",
   "linker_set_key" : "SSL_set_bio",
   "parameters" :
   [
    {
     "referenced_type" : "_ZTIP6ssl_st"
    },
    {
     "referenced_type" : "_ZTIP6bio_st"
    },
    {
     "referenced_type" : "_ZTIP6bio_st"
    }
   ],
   "return_type" : "_ZTIv",
   "source_file" : "/external/boringssl/src/include/openssl/ssl.h"
  },
  {
   "function_name" : "SSL_set_cert_cb",
   "linker_set_key" : "SSL_set_cert_cb",
   "parameters" :
   [
    {
     "referenced_type" : "_ZTIP6ssl_st"
    },
    {
     "referenced_type" : "_ZTIPFiP6ssl_stPvE"
    },
    {
     "referenced_type" : "_ZTIPv"
    }
   ],
   "return_type" : "_ZTIv",
   "source_file" : "/external/boringssl/src/include/openssl/ssl.h"
  },
  {
   "function_name" : "SSL_set_chain_and_key",
   "linker_set_key" : "SSL_set_chain_and_key",
   "parameters" :
   [
    {
     "referenced_type" : "_ZTIP6ssl_st"
    },
    {
     "referenced_type" : "_ZTIPKP16crypto_buffer_st"
    },
    {
     "referenced_type" : "_ZTIm"
    },
    {
     "referenced_type" : "_ZTIP11evp_pkey_st"
    },
    {
     "referenced_type" : "_ZTIPK25ssl_private_key_method_st"
    }
   ],
   "return_type" : "_ZTIi",
   "source_file" : "/external/boringssl/src/include/openssl/ssl.h"
  },
  {
   "function_name" : "SSL_set_cipher_list",
   "linker_set_key" : "SSL_set_cipher_list",
   "parameters" :
   [
    {
     "referenced_type" : "_ZTIP6ssl_st"
    },
    {
     "referenced_type" : "_ZTIPKc"
    }
   ],
   "return_type" : "_ZTIi",
   "source_file" : "/external/boringssl/src/include/openssl/ssl.h"
  },
  {
   "function_name" : "SSL_set_client_CA_list",
   "linker_set_key" : "SSL_set_client_CA_list",
   "parameters" :
   [
    {
     "referenced_type" : "_ZTIP6ssl_st"
    },
    {
     "referenced_type" : "_ZTIP18stack_st_X509_NAME"
    }
   ],
   "return_type" : "_ZTIv",
   "source_file" : "/external/boringssl/src/include/openssl/ssl.h"
  },
  {
   "function_name" : "SSL_set_connect_state",
   "linker_set_key" : "SSL_set_connect_state",
   "parameters" :
   [
    {
     "referenced_type" : "_ZTIP6ssl_st"
    }
   ],
   "return_type" : "_ZTIv",
   "source_file" : "/external/boringssl/src/include/openssl/ssl.h"
  },
  {
   "function_name" : "SSL_set_custom_verify",
   "linker_set_key" : "SSL_set_custom_verify",
   "parameters" :
   [
    {
     "referenced_type" : "_ZTIP6ssl_st"
    },
    {
     "referenced_type" : "_ZTIi"
    },
    {
     "referenced_type" : "_ZTIPF19ssl_verify_result_tP6ssl_stPhE"
    }
   ],
   "return_type" : "_ZTIv",
   "source_file" : "/external/boringssl/src/include/openssl/ssl.h"
  },
  {
   "function_name" : "SSL_set_early_data_enabled",
   "linker_set_key" : "SSL_set_early_data_enabled",
   "parameters" :
   [
    {
     "referenced_type" : "_ZTIP6ssl_st"
    },
    {
     "referenced_type" : "_ZTIi"
    }
   ],
   "return_type" : "_ZTIv",
   "source_file" : "/external/boringssl/src/include/openssl/ssl.h"
  },
  {
   "function_name" : "SSL_set_enforce_rsa_key_usage",
   "linker_set_key" : "SSL_set_enforce_rsa_key_usage",
   "parameters" :
   [
    {
     "referenced_type" : "_ZTIP6ssl_st"
    },
    {
     "referenced_type" : "_ZTIi"
    }
   ],
   "return_type" : "_ZTIv",
   "source_file" : "/external/boringssl/src/include/openssl/ssl.h"
  },
  {
   "function_name" : "SSL_set_ex_data",
   "linker_set_key" : "SSL_set_ex_data",
   "parameters" :
   [
    {
     "referenced_type" : "_ZTIP6ssl_st"
    },
    {
     "referenced_type" : "_ZTIi"
    },
    {
     "referenced_type" : "_ZTIPv"
    }
   ],
   "return_type" : "_ZTIi",
   "source_file" : "/external/boringssl/src/include/openssl/ssl.h"
  },
  {
   "function_name" : "SSL_set_fd",
   "linker_set_key" : "SSL_set_fd",
   "parameters" :
   [
    {
     "referenced_type" : "_ZTIP6ssl_st"
    },
    {
     "referenced_type" : "_ZTIi"
    }
   ],
   "return_type" : "_ZTIi",
   "source_file" : "/external/boringssl/src/include/openssl/ssl.h"
  },
  {
   "function_name" : "SSL_set_ignore_tls13_downgrade",
   "linker_set_key" : "SSL_set_ignore_tls13_downgrade",
   "parameters" :
   [
    {
     "referenced_type" : "_ZTIP6ssl_st"
    },
    {
     "referenced_type" : "_ZTIi"
    }
   ],
   "return_type" : "_ZTIv",
   "source_file" : "/external/boringssl/src/include/openssl/ssl.h"
  },
  {
   "function_name" : "SSL_set_info_callback",
   "linker_set_key" : "SSL_set_info_callback",
   "parameters" :
   [
    {
     "referenced_type" : "_ZTIP6ssl_st"
    },
    {
     "referenced_type" : "_ZTIPFvPK6ssl_stiiE"
    }
   ],
   "return_type" : "_ZTIv",
   "source_file" : "/external/boringssl/src/include/openssl/ssl.h"
  },
  {
   "function_name" : "SSL_set_jdk11_workaround",
   "linker_set_key" : "SSL_set_jdk11_workaround",
   "parameters" :
   [
    {
     "referenced_type" : "_ZTIP6ssl_st"
    },
    {
     "referenced_type" : "_ZTIi"
    }
   ],
   "return_type" : "_ZTIv",
   "source_file" : "/external/boringssl/src/include/openssl/ssl.h"
  },
  {
   "function_name" : "SSL_set_max_cert_list",
   "linker_set_key" : "SSL_set_max_cert_list",
   "parameters" :
   [
    {
     "referenced_type" : "_ZTIP6ssl_st"
    },
    {
     "referenced_type" : "_ZTIm"
    }
   ],
   "return_type" : "_ZTIv",
   "source_file" : "/external/boringssl/src/include/openssl/ssl.h"
  },
  {
   "function_name" : "SSL_set_max_proto_version",
   "linker_set_key" : "SSL_set_max_proto_version",
   "parameters" :
   [
    {
     "referenced_type" : "_ZTIP6ssl_st"
    },
    {
     "referenced_type" : "_ZTIt"
    }
   ],
   "return_type" : "_ZTIi",
   "source_file" : "/external/boringssl/src/include/openssl/ssl.h"
  },
  {
   "function_name" : "SSL_set_max_send_fragment",
   "linker_set_key" : "SSL_set_max_send_fragment",
   "parameters" :
   [
    {
     "referenced_type" : "_ZTIP6ssl_st"
    },
    {
     "referenced_type" : "_ZTIm"
    }
   ],
   "return_type" : "_ZTIi",
   "source_file" : "/external/boringssl/src/include/openssl/ssl.h"
  },
  {
   "function_name" : "SSL_set_min_proto_version",
   "linker_set_key" : "SSL_set_min_proto_version",
   "parameters" :
   [
    {
     "referenced_type" : "_ZTIP6ssl_st"
    },
    {
     "referenced_type" : "_ZTIt"
    }
   ],
   "return_type" : "_ZTIi",
   "source_file" : "/external/boringssl/src/include/openssl/ssl.h"
  },
  {
   "function_name" : "SSL_set_mode",
   "linker_set_key" : "SSL_set_mode",
   "parameters" :
   [
    {
     "referenced_type" : "_ZTIP6ssl_st"
    },
    {
     "referenced_type" : "_ZTIj"
    }
   ],
   "return_type" : "_ZTIj",
   "source_file" : "/external/boringssl/src/include/openssl/ssl.h"
  },
  {
   "function_name" : "SSL_set_msg_callback",
   "linker_set_key" : "SSL_set_msg_callback",
   "parameters" :
   [
    {
     "referenced_type" : "_ZTIP6ssl_st"
    },
    {
     "referenced_type" : "_ZTIPFviiiPKvmP6ssl_stPvE"
    }
   ],
   "return_type" : "_ZTIv",
   "source_file" : "/external/boringssl/src/include/openssl/ssl.h"
  },
  {
   "function_name" : "SSL_set_msg_callback_arg",
   "linker_set_key" : "SSL_set_msg_callback_arg",
   "parameters" :
   [
    {
     "referenced_type" : "_ZTIP6ssl_st"
    },
    {
     "referenced_type" : "_ZTIPv"
    }
   ],
   "return_type" : "_ZTIv",
   "source_file" : "/external/boringssl/src/include/openssl/ssl.h"
  },
  {
   "function_name" : "SSL_set_mtu",
   "linker_set_key" : "SSL_set_mtu",
   "parameters" :
   [
    {
     "referenced_type" : "_ZTIP6ssl_st"
    },
    {
     "referenced_type" : "_ZTIj"
    }
   ],
   "return_type" : "_ZTIi",
   "source_file" : "/external/boringssl/src/include/openssl/ssl.h"
  },
  {
   "function_name" : "SSL_set_ocsp_response",
   "linker_set_key" : "SSL_set_ocsp_response",
   "parameters" :
   [
    {
     "referenced_type" : "_ZTIP6ssl_st"
    },
    {
     "referenced_type" : "_ZTIPKh"
    },
    {
     "referenced_type" : "_ZTIm"
    }
   ],
   "return_type" : "_ZTIi",
   "source_file" : "/external/boringssl/src/include/openssl/ssl.h"
  },
  {
   "function_name" : "SSL_set_options",
   "linker_set_key" : "SSL_set_options",
   "parameters" :
   [
    {
     "referenced_type" : "_ZTIP6ssl_st"
    },
    {
     "referenced_type" : "_ZTIj"
    }
   ],
   "return_type" : "_ZTIj",
   "source_file" : "/external/boringssl/src/include/openssl/ssl.h"
  },
  {
   "function_name" : "SSL_set_private_key_method",
   "linker_set_key" : "SSL_set_private_key_method",
   "parameters" :
   [
    {
     "referenced_type" : "_ZTIP6ssl_st"
    },
    {
     "referenced_type" : "_ZTIPK25ssl_private_key_method_st"
    }
   ],
   "return_type" : "_ZTIv",
   "source_file" : "/external/boringssl/src/include/openssl/ssl.h"
  },
  {
   "function_name" : "SSL_set_psk_client_callback",
   "linker_set_key" : "SSL_set_psk_client_callback",
   "parameters" :
   [
    {
     "referenced_type" : "_ZTIP6ssl_st"
    },
    {
     "referenced_type" : "_ZTIPFjP6ssl_stPKcPcjPhjE"
    }
   ],
   "return_type" : "_ZTIv",
   "source_file" : "/external/boringssl/src/include/openssl/ssl.h"
  },
  {
   "function_name" : "SSL_set_psk_server_callback",
   "linker_set_key" : "SSL_set_psk_server_callback",
   "parameters" :
   [
    {
     "referenced_type" : "_ZTIP6ssl_st"
    },
    {
     "referenced_type" : "_ZTIPFjP6ssl_stPKcPhjE"
    }
   ],
   "return_type" : "_ZTIv",
   "source_file" : "/external/boringssl/src/include/openssl/ssl.h"
  },
  {
   "function_name" : "SSL_set_purpose",
   "linker_set_key" : "SSL_set_purpose",
   "parameters" :
   [
    {
     "referenced_type" : "_ZTIP6ssl_st"
    },
    {
     "referenced_type" : "_ZTIi"
    }
   ],
   "return_type" : "_ZTIi",
   "source_file" : "/external/boringssl/src/include/openssl/ssl.h"
  },
  {
   "function_name" : "SSL_set_quic_method",
   "linker_set_key" : "SSL_set_quic_method",
   "parameters" :
   [
    {
     "referenced_type" : "_ZTIP6ssl_st"
    },
    {
     "referenced_type" : "_ZTIPK18ssl_quic_method_st"
    }
   ],
   "return_type" : "_ZTIi",
   "source_file" : "/external/boringssl/src/include/openssl/ssl.h"
  },
  {
   "function_name" : "SSL_set_quic_transport_params",
   "linker_set_key" : "SSL_set_quic_transport_params",
   "parameters" :
   [
    {
     "referenced_type" : "_ZTIP6ssl_st"
    },
    {
     "referenced_type" : "_ZTIPKh"
    },
    {
     "referenced_type" : "_ZTIm"
    }
   ],
   "return_type" : "_ZTIi",
   "source_file" : "/external/boringssl/src/include/openssl/ssl.h"
  },
  {
   "function_name" : "SSL_set_quiet_shutdown",
   "linker_set_key" : "SSL_set_quiet_shutdown",
   "parameters" :
   [
    {
     "referenced_type" : "_ZTIP6ssl_st"
    },
    {
     "referenced_type" : "_ZTIi"
    }
   ],
   "return_type" : "_ZTIv",
   "source_file" : "/external/boringssl/src/include/openssl/ssl.h"
  },
  {
   "function_name" : "SSL_set_read_ahead",
   "linker_set_key" : "SSL_set_read_ahead",
   "parameters" :
   [
    {
     "referenced_type" : "_ZTIP6ssl_st"
    },
    {
     "referenced_type" : "_ZTIi"
    }
   ],
   "return_type" : "_ZTIi",
   "source_file" : "/external/boringssl/src/include/openssl/ssl.h"
  },
  {
   "function_name" : "SSL_set_renegotiate_mode",
   "linker_set_key" : "SSL_set_renegotiate_mode",
   "parameters" :
   [
    {
     "referenced_type" : "_ZTIP6ssl_st"
    },
    {
     "referenced_type" : "_ZTI22ssl_renegotiate_mode_t"
    }
   ],
   "return_type" : "_ZTIv",
   "source_file" : "/external/boringssl/src/include/openssl/ssl.h"
  },
  {
   "function_name" : "SSL_set_retain_only_sha256_of_client_certs",
   "linker_set_key" : "SSL_set_retain_only_sha256_of_client_certs",
   "parameters" :
   [
    {
     "referenced_type" : "_ZTIP6ssl_st"
    },
    {
     "referenced_type" : "_ZTIi"
    }
   ],
   "return_type" : "_ZTIv",
   "source_file" : "/external/boringssl/src/include/openssl/ssl.h"
  },
  {
   "function_name" : "SSL_set_rfd",
   "linker_set_key" : "SSL_set_rfd",
   "parameters" :
   [
    {
     "referenced_type" : "_ZTIP6ssl_st"
    },
    {
     "referenced_type" : "_ZTIi"
    }
   ],
   "return_type" : "_ZTIi",
   "source_file" : "/external/boringssl/src/include/openssl/ssl.h"
  },
  {
   "function_name" : "SSL_set_session",
   "linker_set_key" : "SSL_set_session",
   "parameters" :
   [
    {
     "referenced_type" : "_ZTIP6ssl_st"
    },
    {
     "referenced_type" : "_ZTIP14ssl_session_st"
    }
   ],
   "return_type" : "_ZTIi",
   "source_file" : "/external/boringssl/src/include/openssl/ssl.h"
  },
  {
   "function_name" : "SSL_set_session_id_context",
   "linker_set_key" : "SSL_set_session_id_context",
   "parameters" :
   [
    {
     "referenced_type" : "_ZTIP6ssl_st"
    },
    {
     "referenced_type" : "_ZTIPKh"
    },
    {
     "referenced_type" : "_ZTIm"
    }
   ],
   "return_type" : "_ZTIi",
   "source_file" : "/external/boringssl/src/include/openssl/ssl.h"
  },
  {
   "function_name" : "SSL_set_shed_handshake_config",
   "linker_set_key" : "SSL_set_shed_handshake_config",
   "parameters" :
   [
    {
     "referenced_type" : "_ZTIP6ssl_st"
    },
    {
     "referenced_type" : "_ZTIi"
    }
   ],
   "return_type" : "_ZTIv",
   "source_file" : "/external/boringssl/src/include/openssl/ssl.h"
  },
  {
   "function_name" : "SSL_set_shutdown",
   "linker_set_key" : "SSL_set_shutdown",
   "parameters" :
   [
    {
     "referenced_type" : "_ZTIP6ssl_st"
    },
    {
     "referenced_type" : "_ZTIi"
    }
   ],
   "return_type" : "_ZTIv",
   "source_file" : "/external/boringssl/src/include/openssl/ssl.h"
  },
  {
   "function_name" : "SSL_set_signed_cert_timestamp_list",
   "linker_set_key" : "SSL_set_signed_cert_timestamp_list",
   "parameters" :
   [
    {
     "referenced_type" : "_ZTIP6ssl_st"
    },
    {
     "referenced_type" : "_ZTIPKh"
    },
    {
     "referenced_type" : "_ZTIm"
    }
   ],
   "return_type" : "_ZTIi",
   "source_file" : "/external/boringssl/src/include/openssl/ssl.h"
  },
  {
   "function_name" : "SSL_set_signing_algorithm_prefs",
   "linker_set_key" : "SSL_set_signing_algorithm_prefs",
   "parameters" :
   [
    {
     "referenced_type" : "_ZTIP6ssl_st"
    },
    {
     "referenced_type" : "_ZTIPKt"
    },
    {
     "referenced_type" : "_ZTIm"
    }
   ],
   "return_type" : "_ZTIi",
   "source_file" : "/external/boringssl/src/include/openssl/ssl.h"
  },
  {
   "function_name" : "SSL_set_srtp_profiles",
   "linker_set_key" : "SSL_set_srtp_profiles",
   "parameters" :
   [
    {
     "referenced_type" : "_ZTIP6ssl_st"
    },
    {
     "referenced_type" : "_ZTIPKc"
    }
   ],
   "return_type" : "_ZTIi",
   "source_file" : "/external/boringssl/src/include/openssl/ssl.h"
  },
  {
   "function_name" : "SSL_set_state",
   "linker_set_key" : "SSL_set_state",
   "parameters" :
   [
    {
     "referenced_type" : "_ZTIP6ssl_st"
    },
    {
     "referenced_type" : "_ZTIi"
    }
   ],
   "return_type" : "_ZTIv",
   "source_file" : "/external/boringssl/src/include/openssl/ssl.h"
  },
  {
   "function_name" : "SSL_set_strict_cipher_list",
   "linker_set_key" : "SSL_set_strict_cipher_list",
   "parameters" :
   [
    {
     "referenced_type" : "_ZTIP6ssl_st"
    },
    {
     "referenced_type" : "_ZTIPKc"
    }
   ],
   "return_type" : "_ZTIi",
   "source_file" : "/external/boringssl/src/include/openssl/ssl.h"
  },
  {
   "function_name" : "SSL_set_tls_channel_id_enabled",
   "linker_set_key" : "SSL_set_tls_channel_id_enabled",
   "parameters" :
   [
    {
     "referenced_type" : "_ZTIP6ssl_st"
    },
    {
     "referenced_type" : "_ZTIi"
    }
   ],
   "return_type" : "_ZTIv",
   "source_file" : "/external/boringssl/src/include/openssl/ssl.h"
  },
  {
   "function_name" : "SSL_set_tlsext_host_name",
   "linker_set_key" : "SSL_set_tlsext_host_name",
   "parameters" :
   [
    {
     "referenced_type" : "_ZTIP6ssl_st"
    },
    {
     "referenced_type" : "_ZTIPKc"
    }
   ],
   "return_type" : "_ZTIi",
   "source_file" : "/external/boringssl/src/include/openssl/ssl.h"
  },
  {
   "function_name" : "SSL_set_tlsext_status_ocsp_resp",
   "linker_set_key" : "SSL_set_tlsext_status_ocsp_resp",
   "parameters" :
   [
    {
     "referenced_type" : "_ZTIP6ssl_st"
    },
    {
     "referenced_type" : "_ZTIPh"
    },
    {
     "referenced_type" : "_ZTIm"
    }
   ],
   "return_type" : "_ZTIi",
   "source_file" : "/external/boringssl/src/include/openssl/ssl.h"
  },
  {
   "function_name" : "SSL_set_tlsext_status_type",
   "linker_set_key" : "SSL_set_tlsext_status_type",
   "parameters" :
   [
    {
     "referenced_type" : "_ZTIP6ssl_st"
    },
    {
     "referenced_type" : "_ZTIi"
    }
   ],
   "return_type" : "_ZTIi",
   "source_file" : "/external/boringssl/src/include/openssl/ssl.h"
  },
  {
   "function_name" : "SSL_set_tlsext_use_srtp",
   "linker_set_key" : "SSL_set_tlsext_use_srtp",
   "parameters" :
   [
    {
     "referenced_type" : "_ZTIP6ssl_st"
    },
    {
     "referenced_type" : "_ZTIPKc"
    }
   ],
   "return_type" : "_ZTIi",
   "source_file" : "/external/boringssl/src/include/openssl/ssl.h"
  },
  {
   "function_name" : "SSL_set_tmp_dh",
   "linker_set_key" : "SSL_set_tmp_dh",
   "parameters" :
   [
    {
     "referenced_type" : "_ZTIP6ssl_st"
    },
    {
     "referenced_type" : "_ZTIPK5dh_st"
    }
   ],
   "return_type" : "_ZTIi",
   "source_file" : "/external/boringssl/src/include/openssl/ssl.h"
  },
  {
   "function_name" : "SSL_set_tmp_dh_callback",
   "linker_set_key" : "SSL_set_tmp_dh_callback",
   "parameters" :
   [
    {
     "referenced_type" : "_ZTIP6ssl_st"
    },
    {
     "referenced_type" : "_ZTIPFP5dh_stP6ssl_stiiE"
    }
   ],
   "return_type" : "_ZTIv",
   "source_file" : "/external/boringssl/src/include/openssl/ssl.h"
  },
  {
   "function_name" : "SSL_set_tmp_ecdh",
   "linker_set_key" : "SSL_set_tmp_ecdh",
   "parameters" :
   [
    {
     "referenced_type" : "_ZTIP6ssl_st"
    },
    {
     "referenced_type" : "_ZTIPK9ec_key_st"
    }
   ],
   "return_type" : "_ZTIi",
   "source_file" : "/external/boringssl/src/include/openssl/ssl.h"
  },
  {
   "function_name" : "SSL_set_tmp_rsa",
   "linker_set_key" : "SSL_set_tmp_rsa",
   "parameters" :
   [
    {
     "referenced_type" : "_ZTIP6ssl_st"
    },
    {
     "referenced_type" : "_ZTIPK6rsa_st"
    }
   ],
   "return_type" : "_ZTIi",
   "source_file" : "/external/boringssl/src/include/openssl/ssl.h"
  },
  {
   "function_name" : "SSL_set_tmp_rsa_callback",
   "linker_set_key" : "SSL_set_tmp_rsa_callback",
   "parameters" :
   [
    {
     "referenced_type" : "_ZTIP6ssl_st"
    },
    {
     "referenced_type" : "_ZTIPFP6rsa_stP6ssl_stiiE"
    }
   ],
   "return_type" : "_ZTIv",
   "source_file" : "/external/boringssl/src/include/openssl/ssl.h"
  },
  {
   "function_name" : "SSL_set_token_binding_params",
   "linker_set_key" : "SSL_set_token_binding_params",
   "parameters" :
   [
    {
     "referenced_type" : "_ZTIP6ssl_st"
    },
    {
     "referenced_type" : "_ZTIPKh"
    },
    {
     "referenced_type" : "_ZTIm"
    }
   ],
   "return_type" : "_ZTIi",
   "source_file" : "/external/boringssl/src/include/openssl/ssl.h"
  },
  {
   "function_name" : "SSL_set_trust",
   "linker_set_key" : "SSL_set_trust",
   "parameters" :
   [
    {
     "referenced_type" : "_ZTIP6ssl_st"
    },
    {
     "referenced_type" : "_ZTIi"
    }
   ],
   "return_type" : "_ZTIi",
   "source_file" : "/external/boringssl/src/include/openssl/ssl.h"
  },
  {
   "function_name" : "SSL_set_verify",
   "linker_set_key" : "SSL_set_verify",
   "parameters" :
   [
    {
     "referenced_type" : "_ZTIP6ssl_st"
    },
    {
     "referenced_type" : "_ZTIi"
    },
    {
     "referenced_type" : "_ZTIPFiiP17x509_store_ctx_stE"
    }
   ],
   "return_type" : "_ZTIv",
   "source_file" : "/external/boringssl/src/include/openssl/ssl.h"
  },
  {
   "function_name" : "SSL_set_verify_depth",
   "linker_set_key" : "SSL_set_verify_depth",
   "parameters" :
   [
    {
     "referenced_type" : "_ZTIP6ssl_st"
    },
    {
     "referenced_type" : "_ZTIi"
    }
   ],
   "return_type" : "_ZTIv",
   "source_file" : "/external/boringssl/src/include/openssl/ssl.h"
  },
  {
   "function_name" : "SSL_set_verify_result",
   "linker_set_key" : "SSL_set_verify_result",
   "parameters" :
   [
    {
     "referenced_type" : "_ZTIP6ssl_st"
    },
    {
     "referenced_type" : "_ZTIl"
    }
   ],
   "return_type" : "_ZTIv",
   "source_file" : "/external/boringssl/src/include/openssl/ssl.h"
  },
  {
   "function_name" : "SSL_set_wfd",
   "linker_set_key" : "SSL_set_wfd",
   "parameters" :
   [
    {
     "referenced_type" : "_ZTIP6ssl_st"
    },
    {
     "referenced_type" : "_ZTIi"
    }
   ],
   "return_type" : "_ZTIi",
   "source_file" : "/external/boringssl/src/include/openssl/ssl.h"
  },
  {
   "function_name" : "SSL_shutdown",
   "linker_set_key" : "SSL_shutdown",
   "parameters" :
   [
    {
     "referenced_type" : "_ZTIP6ssl_st"
    }
   ],
   "return_type" : "_ZTIi",
   "source_file" : "/external/boringssl/src/include/openssl/ssl.h"
  },
  {
   "function_name" : "SSL_state",
   "linker_set_key" : "SSL_state",
   "parameters" :
   [
    {
     "referenced_type" : "_ZTIPK6ssl_st"
    }
   ],
   "return_type" : "_ZTIi",
   "source_file" : "/external/boringssl/src/include/openssl/ssl.h"
  },
  {
   "function_name" : "SSL_state_string",
   "linker_set_key" : "SSL_state_string",
   "parameters" :
   [
    {
     "referenced_type" : "_ZTIPK6ssl_st"
    }
   ],
   "return_type" : "_ZTIPKc",
   "source_file" : "/external/boringssl/src/include/openssl/ssl.h"
  },
  {
   "function_name" : "SSL_state_string_long",
   "linker_set_key" : "SSL_state_string_long",
   "parameters" :
   [
    {
     "referenced_type" : "_ZTIPK6ssl_st"
    }
   ],
   "return_type" : "_ZTIPKc",
   "source_file" : "/external/boringssl/src/include/openssl/ssl.h"
  },
  {
   "function_name" : "SSL_total_renegotiations",
   "linker_set_key" : "SSL_total_renegotiations",
   "parameters" :
   [
    {
     "referenced_type" : "_ZTIPK6ssl_st"
    }
   ],
   "return_type" : "_ZTIi",
   "source_file" : "/external/boringssl/src/include/openssl/ssl.h"
  },
  {
   "function_name" : "SSL_use_PrivateKey",
   "linker_set_key" : "SSL_use_PrivateKey",
   "parameters" :
   [
    {
     "referenced_type" : "_ZTIP6ssl_st"
    },
    {
     "referenced_type" : "_ZTIP11evp_pkey_st"
    }
   ],
   "return_type" : "_ZTIi",
   "source_file" : "/external/boringssl/src/include/openssl/ssl.h"
  },
  {
   "function_name" : "SSL_use_PrivateKey_ASN1",
   "linker_set_key" : "SSL_use_PrivateKey_ASN1",
   "parameters" :
   [
    {
     "referenced_type" : "_ZTIi"
    },
    {
     "referenced_type" : "_ZTIP6ssl_st"
    },
    {
     "referenced_type" : "_ZTIPKh"
    },
    {
     "referenced_type" : "_ZTIm"
    }
   ],
   "return_type" : "_ZTIi",
   "source_file" : "/external/boringssl/src/include/openssl/ssl.h"
  },
  {
   "function_name" : "SSL_use_PrivateKey_file",
   "linker_set_key" : "SSL_use_PrivateKey_file",
   "parameters" :
   [
    {
     "referenced_type" : "_ZTIP6ssl_st"
    },
    {
     "referenced_type" : "_ZTIPKc"
    },
    {
     "referenced_type" : "_ZTIi"
    }
   ],
   "return_type" : "_ZTIi",
   "source_file" : "/external/boringssl/src/include/openssl/ssl.h"
  },
  {
   "function_name" : "SSL_use_RSAPrivateKey",
   "linker_set_key" : "SSL_use_RSAPrivateKey",
   "parameters" :
   [
    {
     "referenced_type" : "_ZTIP6ssl_st"
    },
    {
     "referenced_type" : "_ZTIP6rsa_st"
    }
   ],
   "return_type" : "_ZTIi",
   "source_file" : "/external/boringssl/src/include/openssl/ssl.h"
  },
  {
   "function_name" : "SSL_use_RSAPrivateKey_ASN1",
   "linker_set_key" : "SSL_use_RSAPrivateKey_ASN1",
   "parameters" :
   [
    {
     "referenced_type" : "_ZTIP6ssl_st"
    },
    {
     "referenced_type" : "_ZTIPKh"
    },
    {
     "referenced_type" : "_ZTIm"
    }
   ],
   "return_type" : "_ZTIi",
   "source_file" : "/external/boringssl/src/include/openssl/ssl.h"
  },
  {
   "function_name" : "SSL_use_RSAPrivateKey_file",
   "linker_set_key" : "SSL_use_RSAPrivateKey_file",
   "parameters" :
   [
    {
     "referenced_type" : "_ZTIP6ssl_st"
    },
    {
     "referenced_type" : "_ZTIPKc"
    },
    {
     "referenced_type" : "_ZTIi"
    }
   ],
   "return_type" : "_ZTIi",
   "source_file" : "/external/boringssl/src/include/openssl/ssl.h"
  },
  {
   "function_name" : "SSL_use_certificate",
   "linker_set_key" : "SSL_use_certificate",
   "parameters" :
   [
    {
     "referenced_type" : "_ZTIP6ssl_st"
    },
    {
     "referenced_type" : "_ZTIP7x509_st"
    }
   ],
   "return_type" : "_ZTIi",
   "source_file" : "/external/boringssl/src/include/openssl/ssl.h"
  },
  {
   "function_name" : "SSL_use_certificate_ASN1",
   "linker_set_key" : "SSL_use_certificate_ASN1",
   "parameters" :
   [
    {
     "referenced_type" : "_ZTIP6ssl_st"
    },
    {
     "referenced_type" : "_ZTIPKh"
    },
    {
     "referenced_type" : "_ZTIm"
    }
   ],
   "return_type" : "_ZTIi",
   "source_file" : "/external/boringssl/src/include/openssl/ssl.h"
  },
  {
   "function_name" : "SSL_use_certificate_file",
   "linker_set_key" : "SSL_use_certificate_file",
   "parameters" :
   [
    {
     "referenced_type" : "_ZTIP6ssl_st"
    },
    {
     "referenced_type" : "_ZTIPKc"
    },
    {
     "referenced_type" : "_ZTIi"
    }
   ],
   "return_type" : "_ZTIi",
   "source_file" : "/external/boringssl/src/include/openssl/ssl.h"
  },
  {
   "function_name" : "SSL_use_psk_identity_hint",
   "linker_set_key" : "SSL_use_psk_identity_hint",
   "parameters" :
   [
    {
     "referenced_type" : "_ZTIP6ssl_st"
    },
    {
     "referenced_type" : "_ZTIPKc"
    }
   ],
   "return_type" : "_ZTIi",
   "source_file" : "/external/boringssl/src/include/openssl/ssl.h"
  },
  {
   "function_name" : "SSL_version",
   "linker_set_key" : "SSL_version",
   "parameters" :
   [
    {
     "referenced_type" : "_ZTIPK6ssl_st"
    }
   ],
   "return_type" : "_ZTIi",
   "source_file" : "/external/boringssl/src/include/openssl/ssl.h"
  },
  {
   "function_name" : "SSL_want",
   "linker_set_key" : "SSL_want",
   "parameters" :
   [
    {
     "referenced_type" : "_ZTIPK6ssl_st"
    }
   ],
   "return_type" : "_ZTIi",
   "source_file" : "/external/boringssl/src/include/openssl/ssl.h"
  },
  {
   "function_name" : "SSL_write",
   "linker_set_key" : "SSL_write",
   "parameters" :
   [
    {
     "referenced_type" : "_ZTIP6ssl_st"
    },
    {
     "referenced_type" : "_ZTIPKv"
    },
    {
     "referenced_type" : "_ZTIi"
    }
   ],
   "return_type" : "_ZTIi",
   "source_file" : "/external/boringssl/src/include/openssl/ssl.h"
  },
  {
   "function_name" : "SSLv23_client_method",
   "linker_set_key" : "SSLv23_client_method",
   "return_type" : "_ZTIPK13ssl_method_st",
   "source_file" : "/external/boringssl/src/include/openssl/ssl.h"
  },
  {
   "function_name" : "SSLv23_method",
   "linker_set_key" : "SSLv23_method",
   "return_type" : "_ZTIPK13ssl_method_st",
   "source_file" : "/external/boringssl/src/include/openssl/ssl.h"
  },
  {
   "function_name" : "SSLv23_server_method",
   "linker_set_key" : "SSLv23_server_method",
   "return_type" : "_ZTIPK13ssl_method_st",
   "source_file" : "/external/boringssl/src/include/openssl/ssl.h"
  },
  {
   "function_name" : "TLS_client_method",
   "linker_set_key" : "TLS_client_method",
   "return_type" : "_ZTIPK13ssl_method_st",
   "source_file" : "/external/boringssl/src/include/openssl/ssl.h"
  },
  {
   "function_name" : "TLS_method",
   "linker_set_key" : "TLS_method",
   "return_type" : "_ZTIPK13ssl_method_st",
   "source_file" : "/external/boringssl/src/include/openssl/ssl.h"
  },
  {
   "function_name" : "TLS_server_method",
   "linker_set_key" : "TLS_server_method",
   "return_type" : "_ZTIPK13ssl_method_st",
   "source_file" : "/external/boringssl/src/include/openssl/ssl.h"
  },
  {
   "function_name" : "TLS_with_buffers_method",
   "linker_set_key" : "TLS_with_buffers_method",
   "return_type" : "_ZTIPK13ssl_method_st",
   "source_file" : "/external/boringssl/src/include/openssl/ssl.h"
  },
  {
   "function_name" : "TLSv1_1_client_method",
   "linker_set_key" : "TLSv1_1_client_method",
   "return_type" : "_ZTIPK13ssl_method_st",
   "source_file" : "/external/boringssl/src/include/openssl/ssl.h"
  },
  {
   "function_name" : "TLSv1_1_method",
   "linker_set_key" : "TLSv1_1_method",
   "return_type" : "_ZTIPK13ssl_method_st",
   "source_file" : "/external/boringssl/src/include/openssl/ssl.h"
  },
  {
   "function_name" : "TLSv1_1_server_method",
   "linker_set_key" : "TLSv1_1_server_method",
   "return_type" : "_ZTIPK13ssl_method_st",
   "source_file" : "/external/boringssl/src/include/openssl/ssl.h"
  },
  {
   "function_name" : "TLSv1_2_client_method",
   "linker_set_key" : "TLSv1_2_client_method",
   "return_type" : "_ZTIPK13ssl_method_st",
   "source_file" : "/external/boringssl/src/include/openssl/ssl.h"
  },
  {
   "function_name" : "TLSv1_2_method",
   "linker_set_key" : "TLSv1_2_method",
   "return_type" : "_ZTIPK13ssl_method_st",
   "source_file" : "/external/boringssl/src/include/openssl/ssl.h"
  },
  {
   "function_name" : "TLSv1_2_server_method",
   "linker_set_key" : "TLSv1_2_server_method",
   "return_type" : "_ZTIPK13ssl_method_st",
   "source_file" : "/external/boringssl/src/include/openssl/ssl.h"
  },
  {
   "function_name" : "TLSv1_client_method",
   "linker_set_key" : "TLSv1_client_method",
   "return_type" : "_ZTIPK13ssl_method_st",
   "source_file" : "/external/boringssl/src/include/openssl/ssl.h"
  },
  {
   "function_name" : "TLSv1_method",
   "linker_set_key" : "TLSv1_method",
   "return_type" : "_ZTIPK13ssl_method_st",
   "source_file" : "/external/boringssl/src/include/openssl/ssl.h"
  },
  {
   "function_name" : "TLSv1_server_method",
   "linker_set_key" : "TLSv1_server_method",
   "return_type" : "_ZTIPK13ssl_method_st",
   "source_file" : "/external/boringssl/src/include/openssl/ssl.h"
  },
  {
   "function_name" : "bssl::OpenRecord",
   "linker_set_key" : "_ZN4bssl10OpenRecordEP6ssl_stPNS_4SpanIhEEPmPhS3_",
   "parameters" :
   [
    {
     "referenced_type" : "_ZTIP6ssl_st"
    },
    {
     "referenced_type" : "_ZTIPN4bssl4SpanIhEE"
    },
    {
     "referenced_type" : "_ZTIPm"
    },
    {
     "referenced_type" : "_ZTIPh"
    },
    {
     "referenced_type" : "_ZTIN4bssl4SpanIhEE"
    }
   ],
   "return_type" : "_ZTIN4bssl16OpenRecordResultE",
   "source_file" : "/external/boringssl/src/include/openssl/ssl.h"
  },
  {
   "function_name" : "bssl::SealRecord",
   "linker_set_key" : "_ZN4bssl10SealRecordEP6ssl_stNS_4SpanIhEES3_S3_NS2_IKhEE",
   "parameters" :
   [
    {
     "referenced_type" : "_ZTIP6ssl_st"
    },
    {
     "referenced_type" : "_ZTIN4bssl4SpanIhEE"
    },
    {
     "referenced_type" : "_ZTIN4bssl4SpanIhEE"
    },
    {
     "referenced_type" : "_ZTIN4bssl4SpanIhEE"
    },
    {
     "referenced_type" : "_ZTIN4bssl4SpanIKhEE"
    }
   ],
   "return_type" : "_ZTIb",
   "source_file" : "/external/boringssl/src/include/openssl/ssl.h"
  },
  {
   "function_name" : "bssl::SSL_apply_handoff",
   "linker_set_key" : "_ZN4bssl17SSL_apply_handoffEP6ssl_stNS_4SpanIKhEE",
   "parameters" :
   [
    {
     "referenced_type" : "_ZTIP6ssl_st"
    },
    {
     "referenced_type" : "_ZTIN4bssl4SpanIKhEE"
    }
   ],
   "return_type" : "_ZTIb",
   "source_file" : "/external/boringssl/src/include/openssl/ssl.h"
  },
  {
   "function_name" : "bssl::SSL_apply_handback",
   "linker_set_key" : "_ZN4bssl18SSL_apply_handbackEP6ssl_stNS_4SpanIKhEE",
   "parameters" :
   [
    {
     "referenced_type" : "_ZTIP6ssl_st"
    },
    {
     "referenced_type" : "_ZTIN4bssl4SpanIKhEE"
    }
   ],
   "return_type" : "_ZTIb",
   "source_file" : "/external/boringssl/src/include/openssl/ssl.h"
  },
  {
   "function_name" : "bssl::SSL_decline_handoff",
   "linker_set_key" : "_ZN4bssl19SSL_decline_handoffEP6ssl_st",
   "parameters" :
   [
    {
     "referenced_type" : "_ZTIP6ssl_st"
    }
   ],
   "return_type" : "_ZTIb",
   "source_file" : "/external/boringssl/src/include/openssl/ssl.h"
  },
  {
   "function_name" : "bssl::SealRecordPrefixLen",
   "linker_set_key" : "_ZN4bssl19SealRecordPrefixLenEPK6ssl_stm",
   "parameters" :
   [
    {
     "referenced_type" : "_ZTIPK6ssl_st"
    },
    {
     "referenced_type" : "_ZTIm"
    }
   ],
   "return_type" : "_ZTIm",
   "source_file" : "/external/boringssl/src/include/openssl/ssl.h"
  },
  {
   "function_name" : "bssl::SealRecordSuffixLen",
   "linker_set_key" : "_ZN4bssl19SealRecordSuffixLenEPK6ssl_stm",
   "parameters" :
   [
    {
     "referenced_type" : "_ZTIPK6ssl_st"
    },
    {
     "referenced_type" : "_ZTIm"
    }
   ],
   "return_type" : "_ZTIm",
   "source_file" : "/external/boringssl/src/include/openssl/ssl.h"
  },
  {
   "function_name" : "bssl::SSL_set_handoff_mode",
   "linker_set_key" : "_ZN4bssl20SSL_set_handoff_modeEP6ssl_stb",
   "parameters" :
   [
    {
     "referenced_type" : "_ZTIP6ssl_st"
    },
    {
     "referenced_type" : "_ZTIb"
    }
   ],
   "return_type" : "_ZTIv",
   "source_file" : "/external/boringssl/src/include/openssl/ssl.h"
  },
  {
   "function_name" : "bssl::SSL_serialize_handoff",
   "linker_set_key" : "_ZN4bssl21SSL_serialize_handoffEPK6ssl_stP6cbb_stP22ssl_early_callback_ctx",
   "parameters" :
   [
    {
     "referenced_type" : "_ZTIPK6ssl_st"
    },
    {
     "referenced_type" : "_ZTIP6cbb_st"
    },
    {
     "referenced_type" : "_ZTIP22ssl_early_callback_ctx"
    }
   ],
   "return_type" : "_ZTIb",
   "source_file" : "/external/boringssl/src/include/openssl/ssl.h"
  },
  {
   "function_name" : "bssl::SSL_serialize_handback",
   "linker_set_key" : "_ZN4bssl22SSL_serialize_handbackEPK6ssl_stP6cbb_st",
   "parameters" :
   [
    {
     "referenced_type" : "_ZTIPK6ssl_st"
    },
    {
     "referenced_type" : "_ZTIP6cbb_st"
    }
   ],
   "return_type" : "_ZTIb",
   "source_file" : "/external/boringssl/src/include/openssl/ssl.h"
  },
  {
   "function_name" : "bssl::SSL_get_traffic_secrets",
   "linker_set_key" : "_ZN4bssl23SSL_get_traffic_secretsEPK6ssl_stPNS_4SpanIKhEES6_",
   "parameters" :
   [
    {
     "referenced_type" : "_ZTIPK6ssl_st"
    },
    {
     "referenced_type" : "_ZTIPN4bssl4SpanIKhEE"
    },
    {
     "referenced_type" : "_ZTIPN4bssl4SpanIKhEE"
    }
   ],
   "return_type" : "_ZTIb",
   "source_file" : "/external/boringssl/src/include/openssl/ssl.h"
  },
  {
   "function_name" : "bssl::SSL_CTX_set_handoff_mode",
   "linker_set_key" : "_ZN4bssl24SSL_CTX_set_handoff_modeEP10ssl_ctx_stb",
   "parameters" :
   [
    {
     "referenced_type" : "_ZTIP10ssl_ctx_st"
    },
    {
     "referenced_type" : "_ZTIb"
    }
   ],
   "return_type" : "_ZTIv",
   "source_file" : "/external/boringssl/src/include/openssl/ssl.h"
  },
  {
   "function_name" : "d2i_SSL_SESSION",
   "linker_set_key" : "d2i_SSL_SESSION",
   "parameters" :
   [
    {
     "referenced_type" : "_ZTIPP14ssl_session_st"
    },
    {
     "referenced_type" : "_ZTIPPKh"
    },
    {
     "referenced_type" : "_ZTIl"
    }
   ],
   "return_type" : "_ZTIP14ssl_session_st",
   "source_file" : "/external/boringssl/src/include/openssl/ssl.h"
  },
  {
   "function_name" : "d2i_SSL_SESSION_bio",
   "linker_set_key" : "d2i_SSL_SESSION_bio",
   "parameters" :
   [
    {
     "referenced_type" : "_ZTIP6bio_st"
    },
    {
     "referenced_type" : "_ZTIPP14ssl_session_st"
    }
   ],
   "return_type" : "_ZTIP14ssl_session_st",
   "source_file" : "/external/boringssl/src/include/openssl/ssl.h"
  },
  {
   "function_name" : "i2d_SSL_SESSION",
   "linker_set_key" : "i2d_SSL_SESSION",
   "parameters" :
   [
    {
     "referenced_type" : "_ZTIP14ssl_session_st"
    },
    {
     "referenced_type" : "_ZTIPPh"
    }
   ],
   "return_type" : "_ZTIi",
   "source_file" : "/external/boringssl/src/include/openssl/ssl.h"
  },
  {
   "function_name" : "i2d_SSL_SESSION_bio",
   "linker_set_key" : "i2d_SSL_SESSION_bio",
   "parameters" :
   [
    {
     "referenced_type" : "_ZTIP6bio_st"
    },
    {
     "referenced_type" : "_ZTIPK14ssl_session_st"
    }
   ],
   "return_type" : "_ZTIi",
   "source_file" : "/external/boringssl/src/include/openssl/ssl.h"
  }
 ],
 "global_vars" : [],
 "lvalue_reference_types" :
 [
  {
   "alignment" : 8,
   "linker_set_key" : "_ZTIRA10_Kt",
   "name" : "unsigned short const (&)[10]",
   "referenced_type" : "_ZTIA10_Kt",
   "self_type" : "_ZTIRA10_Kt",
   "size" : 8,
   "source_file" : "/external/boringssl/src/include/openssl/span.h"
  },
  {
   "alignment" : 8,
   "linker_set_key" : "_ZTIRA12_Kt",
   "name" : "unsigned short const (&)[12]",
   "referenced_type" : "_ZTIA12_Kt",
   "self_type" : "_ZTIRA12_Kt",
   "size" : 8,
   "source_file" : "/external/boringssl/src/include/openssl/span.h"
  },
  {
   "alignment" : 8,
   "linker_set_key" : "_ZTIRA16_Kh",
   "name" : "unsigned char const (&)[16]",
   "referenced_type" : "_ZTIA16_Kh",
   "self_type" : "_ZTIRA16_Kh",
   "size" : 8,
   "source_file" : "/external/boringssl/src/include/openssl/span.h"
  },
  {
   "alignment" : 8,
   "linker_set_key" : "_ZTIRA1_Kh",
   "name" : "unsigned char const (&)[1]",
   "referenced_type" : "_ZTIA1_Kh",
   "self_type" : "_ZTIRA1_Kh",
   "size" : 8,
   "source_file" : "/external/boringssl/src/include/openssl/span.h"
  },
  {
   "alignment" : 8,
   "linker_set_key" : "_ZTIRA20_Kc",
   "name" : "char const (&)[20]",
   "referenced_type" : "_ZTIA20_Kc",
   "self_type" : "_ZTIRA20_Kc",
   "size" : 8,
   "source_file" : "/external/boringssl/src/include/openssl/span.h"
  },
  {
   "alignment" : 8,
   "linker_set_key" : "_ZTIRA2_Kh",
   "name" : "unsigned char const (&)[2]",
   "referenced_type" : "_ZTIA2_Kh",
   "self_type" : "_ZTIRA2_Kh",
   "size" : 8,
   "source_file" : "/external/boringssl/src/include/openssl/span.h"
  },
  {
   "alignment" : 8,
   "linker_set_key" : "_ZTIRA2_Kt",
   "name" : "unsigned short const (&)[2]",
   "referenced_type" : "_ZTIA2_Kt",
   "self_type" : "_ZTIRA2_Kt",
   "size" : 8,
   "source_file" : "/external/boringssl/src/include/openssl/span.h"
  },
  {
   "alignment" : 8,
   "linker_set_key" : "_ZTIRA32_Kh",
   "name" : "unsigned char const (&)[32]",
   "referenced_type" : "_ZTIA32_Kh",
   "self_type" : "_ZTIRA32_Kh",
   "size" : 8,
   "source_file" : "/external/boringssl/src/include/openssl/span.h"
  },
  {
   "alignment" : 8,
   "linker_set_key" : "_ZTIRA32_h",
   "name" : "unsigned char (&)[32]",
   "referenced_type" : "_ZTIA32_h",
   "self_type" : "_ZTIRA32_h",
   "size" : 8,
   "source_file" : "/external/boringssl/src/include/openssl/span.h"
  },
  {
   "alignment" : 8,
   "linker_set_key" : "_ZTIRA34_Kc",
   "name" : "char const (&)[34]",
   "referenced_type" : "_ZTIA34_Kc",
   "self_type" : "_ZTIRA34_Kc",
   "size" : 8,
   "source_file" : "/external/boringssl/src/include/openssl/span.h"
  },
  {
   "alignment" : 8,
   "linker_set_key" : "_ZTIRA3_Kt",
   "name" : "unsigned short const (&)[3]",
   "referenced_type" : "_ZTIA3_Kt",
   "self_type" : "_ZTIRA3_Kt",
   "size" : 8,
   "source_file" : "/external/boringssl/src/include/openssl/span.h"
  },
  {
   "alignment" : 8,
   "linker_set_key" : "_ZTIRA4_Kh",
   "name" : "unsigned char const (&)[4]",
   "referenced_type" : "_ZTIA4_Kh",
   "self_type" : "_ZTIRA4_Kh",
   "size" : 8,
   "source_file" : "/external/boringssl/src/include/openssl/span.h"
  },
  {
   "alignment" : 8,
   "linker_set_key" : "_ZTIRA4_Kt",
   "name" : "unsigned short const (&)[4]",
   "referenced_type" : "_ZTIA4_Kt",
   "self_type" : "_ZTIRA4_Kt",
   "size" : 8,
   "source_file" : "/external/boringssl/src/include/openssl/span.h"
  },
  {
   "alignment" : 8,
   "linker_set_key" : "_ZTIRA8_Kh",
   "name" : "unsigned char const (&)[8]",
   "referenced_type" : "_ZTIA8_Kh",
   "self_type" : "_ZTIRA8_Kh",
   "size" : 8,
   "source_file" : "/external/boringssl/src/include/openssl/span.h"
  },
  {
   "alignment" : 8,
   "linker_set_key" : "_ZTIRK6cbs_st",
   "name" : "const cbs_st &",
   "referenced_type" : "_ZTIK6cbs_st",
   "self_type" : "_ZTIRK6cbs_st",
   "size" : 8,
   "source_file" : "/external/boringssl/src/include/openssl/bytestring.h"
  },
  {
   "alignment" : 8,
   "linker_set_key" : "_ZTIRKN4bssl4SpanIhEE",
   "name" : "const bssl::Span<unsigned char> &",
   "referenced_type" : "_ZTIKN4bssl4SpanIhEE",
   "self_type" : "_ZTIRKN4bssl4SpanIhEE",
   "size" : 8,
   "source_file" : "/external/boringssl/src/include/openssl/span.h"
  },
  {
   "alignment" : 8,
   "linker_set_key" : "_ZTIRKN4bssl5ArrayIbEE",
   "name" : "const bssl::Array<bool> &",
   "referenced_type" : "_ZTIKN4bssl5ArrayIbEE",
   "self_type" : "_ZTIRKN4bssl5ArrayIbEE",
   "size" : 8,
   "source_file" : "/external/boringssl/src/include/openssl/span.h"
  },
  {
   "alignment" : 8,
   "linker_set_key" : "_ZTIRKN4bssl5ArrayIhEE",
   "name" : "const bssl::Array<unsigned char> &",
   "referenced_type" : "_ZTIKN4bssl5ArrayIhEE",
   "self_type" : "_ZTIRKN4bssl5ArrayIhEE",
   "size" : 8,
   "source_file" : "/external/boringssl/src/include/openssl/span.h"
  },
  {
   "alignment" : 8,
   "linker_set_key" : "_ZTIRKN4bssl5ArrayItEE",
   "name" : "const bssl::Array<unsigned short> &",
   "referenced_type" : "_ZTIKN4bssl5ArrayItEE",
   "self_type" : "_ZTIRKN4bssl5ArrayItEE",
   "size" : 8,
   "source_file" : "/external/boringssl/src/include/openssl/span.h"
  },
  {
   "alignment" : 8,
   "linker_set_key" : "_ZTIRKNSt3__110unique_ptrI10ssl_ctx_stN4bssl8internal7DeleterIS1_EEEE",
   "name" : "const std::unique_ptr<ssl_ctx_st, bssl::internal::Deleter<ssl_ctx_st> > &",
   "referenced_type" : "_ZTIKNSt3__110unique_ptrI10ssl_ctx_stN4bssl8internal7DeleterIS1_EEEE",
   "self_type" : "_ZTIRKNSt3__110unique_ptrI10ssl_ctx_stN4bssl8internal7DeleterIS1_EEEE",
   "size" : 8,
   "source_file" : "/external/boringssl/src/include/openssl/ssl.h"
  },
  {
   "alignment" : 8,
   "linker_set_key" : "_ZTIRKNSt3__110unique_ptrI11X509_crl_stN4bssl8internal7DeleterIS1_EEEE",
   "name" : "const std::unique_ptr<X509_crl_st, bssl::internal::Deleter<X509_crl_st> > &",
   "referenced_type" : "_ZTIKNSt3__110unique_ptrI11X509_crl_stN4bssl8internal7DeleterIS1_EEEE",
   "self_type" : "_ZTIRKNSt3__110unique_ptrI11X509_crl_stN4bssl8internal7DeleterIS1_EEEE",
   "size" : 8,
   "source_file" : "/external/boringssl/src/include/openssl/x509.h"
  },
  {
   "alignment" : 8,
   "linker_set_key" : "_ZTIRKNSt3__110unique_ptrI11evp_pkey_stN4bssl8internal7DeleterIS1_EEEE",
   "name" : "const std::unique_ptr<evp_pkey_st, bssl::internal::Deleter<evp_pkey_st> > &",
   "referenced_type" : "_ZTIKNSt3__110unique_ptrI11evp_pkey_stN4bssl8internal7DeleterIS1_EEEE",
   "self_type" : "_ZTIRKNSt3__110unique_ptrI11evp_pkey_stN4bssl8internal7DeleterIS1_EEEE",
   "size" : 8,
   "source_file" : "/external/boringssl/src/include/openssl/evp.h"
  },
  {
   "alignment" : 8,
   "linker_set_key" : "_ZTIRKNSt3__110unique_ptrI14ssl_session_stN4bssl8internal7DeleterIS1_EEEE",
   "name" : "const std::unique_ptr<ssl_session_st, bssl::internal::Deleter<ssl_session_st> > &",
   "referenced_type" : "_ZTIKNSt3__110unique_ptrI14ssl_session_stN4bssl8internal7DeleterIS1_EEEE",
   "self_type" : "_ZTIRKNSt3__110unique_ptrI14ssl_session_stN4bssl8internal7DeleterIS1_EEEE",
   "size" : 8,
   "source_file" : "/external/boringssl/src/include/openssl/ssl.h"
  },
  {
   "alignment" : 8,
   "linker_set_key" : "_ZTIRKNSt3__110unique_ptrI16crypto_buffer_stN4bssl8internal7DeleterIS1_EEEE",
   "name" : "const std::unique_ptr<crypto_buffer_st, bssl::internal::Deleter<crypto_buffer_st> > &",
   "referenced_type" : "_ZTIKNSt3__110unique_ptrI16crypto_buffer_stN4bssl8internal7DeleterIS1_EEEE",
   "self_type" : "_ZTIRKNSt3__110unique_ptrI16crypto_buffer_stN4bssl8internal7DeleterIS1_EEEE",
   "size" : 8,
   "source_file" : "/external/boringssl/src/include/openssl/pool.h"
  },
  {
   "alignment" : 8,
   "linker_set_key" : "_ZTIRKNSt3__110unique_ptrI5dh_stN4bssl8internal7DeleterIS1_EEEE",
   "name" : "const std::unique_ptr<dh_st, bssl::internal::Deleter<dh_st> > &",
   "referenced_type" : "_ZTIKNSt3__110unique_ptrI5dh_stN4bssl8internal7DeleterIS1_EEEE",
   "self_type" : "_ZTIRKNSt3__110unique_ptrI5dh_stN4bssl8internal7DeleterIS1_EEEE",
   "size" : 8,
   "source_file" : "/external/boringssl/src/include/openssl/dh.h"
  },
  {
   "alignment" : 8,
   "linker_set_key" : "_ZTIRKNSt3__110unique_ptrI6bio_stN4bssl8internal7DeleterIS1_EEEE",
   "name" : "const std::unique_ptr<bio_st, bssl::internal::Deleter<bio_st> > &",
   "referenced_type" : "_ZTIKNSt3__110unique_ptrI6bio_stN4bssl8internal7DeleterIS1_EEEE",
   "self_type" : "_ZTIRKNSt3__110unique_ptrI6bio_stN4bssl8internal7DeleterIS1_EEEE",
   "size" : 8,
   "source_file" : "/external/boringssl/src/include/openssl/bio.h"
  },
  {
   "alignment" : 8,
   "linker_set_key" : "_ZTIRKNSt3__110unique_ptrI6dsa_stN4bssl8internal7DeleterIS1_EEEE",
   "name" : "const std::unique_ptr<dsa_st, bssl::internal::Deleter<dsa_st> > &",
   "referenced_type" : "_ZTIKNSt3__110unique_ptrI6dsa_stN4bssl8internal7DeleterIS1_EEEE",
   "self_type" : "_ZTIRKNSt3__110unique_ptrI6dsa_stN4bssl8internal7DeleterIS1_EEEE",
   "size" : 8,
   "source_file" : "/external/boringssl/src/include/openssl/dsa.h"
  },
  {
   "alignment" : 8,
   "linker_set_key" : "_ZTIRKNSt3__110unique_ptrI6rsa_stN4bssl8internal7DeleterIS1_EEEE",
   "name" : "const std::unique_ptr<rsa_st, bssl::internal::Deleter<rsa_st> > &",
   "referenced_type" : "_ZTIKNSt3__110unique_ptrI6rsa_stN4bssl8internal7DeleterIS1_EEEE",
   "self_type" : "_ZTIRKNSt3__110unique_ptrI6rsa_stN4bssl8internal7DeleterIS1_EEEE",
   "size" : 8,
   "source_file" : "/external/boringssl/src/include/openssl/rsa.h"
  },
  {
   "alignment" : 8,
   "linker_set_key" : "_ZTIRKNSt3__110unique_ptrI7x509_stN4bssl8internal7DeleterIS1_EEEE",
   "name" : "const std::unique_ptr<x509_st, bssl::internal::Deleter<x509_st> > &",
   "referenced_type" : "_ZTIKNSt3__110unique_ptrI7x509_stN4bssl8internal7DeleterIS1_EEEE",
   "self_type" : "_ZTIRKNSt3__110unique_ptrI7x509_stN4bssl8internal7DeleterIS1_EEEE",
   "size" : 8,
   "source_file" : "/external/boringssl/src/include/openssl/x509.h"
  },
  {
   "alignment" : 8,
   "linker_set_key" : "_ZTIRKNSt3__110unique_ptrI9ec_key_stN4bssl8internal7DeleterIS1_EEEE",
   "name" : "const std::unique_ptr<ec_key_st, bssl::internal::Deleter<ec_key_st> > &",
   "referenced_type" : "_ZTIKNSt3__110unique_ptrI9ec_key_stN4bssl8internal7DeleterIS1_EEEE",
   "self_type" : "_ZTIRKNSt3__110unique_ptrI9ec_key_stN4bssl8internal7DeleterIS1_EEEE",
   "size" : 8,
   "source_file" : "/external/boringssl/src/include/openssl/ec_key.h"
  },
  {
   "alignment" : 8,
   "linker_set_key" : "_ZTIRKh",
   "name" : "const unsigned char &",
   "referenced_type" : "_ZTIKh",
   "self_type" : "_ZTIRKh",
   "size" : 8,
   "source_file" : "/external/boringssl/src/include/openssl/span.h"
  },
  {
   "alignment" : 8,
   "linker_set_key" : "_ZTIRKi",
   "name" : "const int &",
   "referenced_type" : "_ZTIKi",
   "self_type" : "_ZTIRKi",
   "size" : 8,
   "source_file" : "/external/boringssl/src/include/openssl/span.h"
  },
  {
   "alignment" : 8,
   "linker_set_key" : "_ZTIRKt",
   "name" : "const unsigned short &",
   "referenced_type" : "_ZTIKt",
   "self_type" : "_ZTIRKt",
   "size" : 8,
   "source_file" : "/external/boringssl/src/include/openssl/span.h"
  },
  {
   "alignment" : 8,
   "linker_set_key" : "_ZTIRN4bssl5ArrayIhEE",
   "name" : "bssl::Array<unsigned char> &",
   "referenced_type" : "_ZTIN4bssl5ArrayIhEE",
   "self_type" : "_ZTIRN4bssl5ArrayIhEE",
   "size" : 8,
   "source_file" : "/external/boringssl/src/include/openssl/span.h"
  },
  {
   "alignment" : 8,
   "linker_set_key" : "_ZTIRN4bssl8internal17StackIteratorImplI13stack_st_X509EE",
   "name" : "bssl::internal::StackIteratorImpl<stack_st_X509> &",
   "referenced_type" : "_ZTIN4bssl8internal17StackIteratorImplI13stack_st_X509EE",
   "self_type" : "_ZTIRN4bssl8internal17StackIteratorImplI13stack_st_X509EE",
   "size" : 8,
   "source_file" : "/external/boringssl/src/include/openssl/stack.h"
  },
  {
   "alignment" : 8,
   "linker_set_key" : "_ZTIRN4bssl8internal17StackIteratorImplI18stack_st_X509_NAMEEE",
   "name" : "bssl::internal::StackIteratorImpl<stack_st_X509_NAME> &",
   "referenced_type" : "_ZTIN4bssl8internal17StackIteratorImplI18stack_st_X509_NAMEEE",
   "self_type" : "_ZTIRN4bssl8internal17StackIteratorImplI18stack_st_X509_NAMEEE",
   "size" : 8,
   "source_file" : "/external/boringssl/src/include/openssl/stack.h"
  },
  {
   "alignment" : 8,
   "linker_set_key" : "_ZTIRN4bssl8internal17StackIteratorImplI19stack_st_SSL_CIPHEREE",
   "name" : "bssl::internal::StackIteratorImpl<stack_st_SSL_CIPHER> &",
   "referenced_type" : "_ZTIN4bssl8internal17StackIteratorImplI19stack_st_SSL_CIPHEREE",
   "self_type" : "_ZTIRN4bssl8internal17StackIteratorImplI19stack_st_SSL_CIPHEREE",
   "size" : 8,
   "source_file" : "/external/boringssl/src/include/openssl/stack.h"
  },
  {
   "alignment" : 8,
   "linker_set_key" : "_ZTIRN4bssl8internal17StackIteratorImplI22stack_st_CRYPTO_BUFFEREE",
   "name" : "bssl::internal::StackIteratorImpl<stack_st_CRYPTO_BUFFER> &",
   "referenced_type" : "_ZTIN4bssl8internal17StackIteratorImplI22stack_st_CRYPTO_BUFFEREE",
   "self_type" : "_ZTIRN4bssl8internal17StackIteratorImplI22stack_st_CRYPTO_BUFFEREE",
   "size" : 8,
   "source_file" : "/external/boringssl/src/include/openssl/stack.h"
  },
  {
   "alignment" : 8,
   "linker_set_key" : "_ZTIRN4bssl8internal17StackIteratorImplI32stack_st_SRTP_PROTECTION_PROFILEEE",
   "name" : "bssl::internal::StackIteratorImpl<stack_st_SRTP_PROTECTION_PROFILE> &",
   "referenced_type" : "_ZTIN4bssl8internal17StackIteratorImplI32stack_st_SRTP_PROTECTION_PROFILEEE",
   "self_type" : "_ZTIRN4bssl8internal17StackIteratorImplI32stack_st_SRTP_PROTECTION_PROFILEEE",
   "size" : 8,
   "source_file" : "/external/boringssl/src/include/openssl/stack.h"
  },
  {
   "alignment" : 8,
   "linker_set_key" : "_ZTIRh",
   "name" : "unsigned char &",
   "referenced_type" : "_ZTIh",
   "self_type" : "_ZTIRh",
   "size" : 8,
   "source_file" : "/external/boringssl/src/include/openssl/span.h"
  }
 ],
 "pointer_types" :
 [
  {
   "alignment" : 8,
   "linker_set_key" : "_ZTIP10DSA_SIG_st",
   "name" : "DSA_SIG_st *",
   "referenced_type" : "_ZTI10DSA_SIG_st",
   "self_type" : "_ZTIP10DSA_SIG_st",
   "size" : 8,
   "source_file" : "/external/boringssl/src/include/openssl/dsa.h"
  },
  {
   "alignment" : 8,
   "linker_set_key" : "_ZTIP10bignum_ctx",
   "name" : "bignum_ctx *",
   "referenced_type" : "_ZTI10bignum_ctx",
   "self_type" : "_ZTIP10bignum_ctx",
   "size" : 8,
   "source_file" : "/external/boringssl/src/include/openssl/bn.h"
  },
  {
   "alignment" : 8,
   "linker_set_key" : "_ZTIP10buf_mem_st",
   "name" : "buf_mem_st *",
   "referenced_type" : "_ZTI10buf_mem_st",
   "self_type" : "_ZTIP10buf_mem_st",
   "size" : 8,
   "source_file" : "/external/boringssl/src/include/openssl/buf.h"
  },
  {
   "alignment" : 8,
   "linker_set_key" : "_ZTIP10ssl_ctx_st",
   "name" : "ssl_ctx_st *",
   "referenced_type" : "_ZTI10ssl_ctx_st",
   "self_type" : "_ZTIP10ssl_ctx_st",
   "size" : 8,
   "source_file" : "/external/boringssl/src/include/openssl/base.h"
  },
  {
   "alignment" : 8,
   "linker_set_key" : "_ZTIP10v3_ext_ctx",
   "name" : "v3_ext_ctx *",
   "referenced_type" : "_ZTI10v3_ext_ctx",
   "self_type" : "_ZTIP10v3_ext_ctx",
   "size" : 8,
   "source_file" : "/external/boringssl/src/include/openssl/x509v3.h"
  },
  {
   "alignment" : 8,
   "linker_set_key" : "_ZTIP11SXNET_ID_st",
   "name" : "SXNET_ID_st *",
   "referenced_type" : "_ZTI11SXNET_ID_st",
   "self_type" : "_ZTIP11SXNET_ID_st",
   "size" : 8,
   "source_file" : "/external/boringssl/src/include/openssl/x509v3.h"
  },
  {
   "alignment" : 8,
   "linker_set_key" : "_ZTIP11X509_crl_st",
   "name" : "X509_crl_st *",
   "referenced_type" : "_ZTI11X509_crl_st",
   "self_type" : "_ZTIP11X509_crl_st",
   "size" : 8,
   "source_file" : "/external/boringssl/src/include/openssl/base.h"
  },
  {
   "alignment" : 8,
   "linker_set_key" : "_ZTIP11X509_req_st",
   "name" : "X509_req_st *",
   "referenced_type" : "_ZTI11X509_req_st",
   "self_type" : "_ZTIP11X509_req_st",
   "size" : 8,
   "source_file" : "/external/boringssl/src/include/openssl/x509.h"
  },
  {
   "alignment" : 8,
   "linker_set_key" : "_ZTIP11X509_sig_st",
   "name" : "X509_sig_st *",
   "referenced_type" : "_ZTI11X509_sig_st",
   "self_type" : "_ZTIP11X509_sig_st",
   "size" : 8,
   "source_file" : "/external/boringssl/src/include/openssl/x509.h"
  },
  {
   "alignment" : 8,
   "linker_set_key" : "_ZTIP11X509_val_st",
   "name" : "X509_val_st *",
   "referenced_type" : "_ZTI11X509_val_st",
   "self_type" : "_ZTIP11X509_val_st",
   "size" : 8,
   "source_file" : "/external/boringssl/src/include/openssl/x509.h"
  },
  {
   "alignment" : 8,
   "linker_set_key" : "_ZTIP11bn_gencb_st",
   "name" : "bn_gencb_st *",
   "referenced_type" : "_ZTI11bn_gencb_st",
   "self_type" : "_ZTIP11bn_gencb_st",
   "size" : 8,
   "source_file" : "/external/boringssl/src/include/openssl/bn.h"
  },
  {
   "alignment" : 8,
   "linker_set_key" : "_ZTIP11ec_group_st",
   "name" : "ec_group_st *",
   "referenced_type" : "_ZTI11ec_group_st",
   "self_type" : "_ZTIP11ec_group_st",
   "size" : 8,
   "source_file" : "/external/boringssl/src/include/openssl/ec.h"
  },
  {
   "alignment" : 8,
   "linker_set_key" : "_ZTIP11ec_point_st",
   "name" : "ec_point_st *",
   "referenced_type" : "_ZTI11ec_point_st",
   "self_type" : "_ZTIP11ec_point_st",
   "size" : 8,
   "source_file" : "/external/boringssl/src/include/openssl/ec.h"
  },
  {
   "alignment" : 8,
   "linker_set_key" : "_ZTIP11evp_pkey_st",
   "name" : "evp_pkey_st *",
   "referenced_type" : "_ZTI11evp_pkey_st",
   "self_type" : "_ZTIP11evp_pkey_st",
   "size" : 8,
   "source_file" : "/external/boringssl/src/include/openssl/base.h"
  },
  {
   "alignment" : 8,
   "linker_set_key" : "_ZTIP11hmac_ctx_st",
   "name" : "hmac_ctx_st *",
   "referenced_type" : "_ZTI11hmac_ctx_st",
   "self_type" : "_ZTIP11hmac_ctx_st",
   "size" : 8,
   "source_file" : "/external/boringssl/src/include/openssl/hmac.h"
  },
  {
   "alignment" : 8,
   "linker_set_key" : "_ZTIP11rsa_meth_st",
   "name" : "rsa_meth_st *",
   "referenced_type" : "_ZTI11rsa_meth_st",
   "self_type" : "_ZTIP11rsa_meth_st",
   "size" : 8,
   "source_file" : "/external/boringssl/src/include/openssl/rsa.h"
  },
  {
   "alignment" : 8,
   "linker_set_key" : "_ZTIP11ssl_comp_st",
   "name" : "ssl_comp_st *",
   "referenced_type" : "_ZTI11ssl_comp_st",
   "self_type" : "_ZTIP11ssl_comp_st",
   "size" : 8,
   "source_file" : "/external/boringssl/src/include/openssl/ssl.h"
  },
  {
   "alignment" : 8,
   "linker_set_key" : "_ZTIP12NOTICEREF_st",
   "name" : "NOTICEREF_st *",
   "referenced_type" : "_ZTI12NOTICEREF_st",
   "self_type" : "_ZTIP12NOTICEREF_st",
   "size" : 8,
   "source_file" : "/external/boringssl/src/include/openssl/x509v3.h"
  },
  {
   "alignment" : 8,
   "linker_set_key" : "_ZTIP12PKCS7_SIGNED",
   "name" : "PKCS7_SIGNED *",
   "referenced_type" : "_ZTI12PKCS7_SIGNED",
   "self_type" : "_ZTIP12PKCS7_SIGNED",
   "size" : 8,
   "source_file" : "/external/boringssl/src/include/openssl/pkcs7.h"
  },
  {
   "alignment" : 8,
   "linker_set_key" : "_ZTIP12X509_info_st",
   "name" : "X509_info_st *",
   "referenced_type" : "_ZTI12X509_info_st",
   "self_type" : "_ZTIP12X509_info_st",
   "size" : 8,
   "source_file" : "/external/boringssl/src/include/openssl/x509.h"
  },
  {
   "alignment" : 8,
   "linker_set_key" : "_ZTIP12X509_name_st",
   "name" : "X509_name_st *",
   "referenced_type" : "_ZTI12X509_name_st",
   "self_type" : "_ZTIP12X509_name_st",
   "size" : 8,
   "source_file" : "/external/boringssl/src/include/openssl/x509.h"
  },
  {
   "alignment" : 8,
   "linker_set_key" : "_ZTIP12asn1_type_st",
   "name" : "asn1_type_st *",
   "referenced_type" : "_ZTI12asn1_type_st",
   "self_type" : "_ZTIP12asn1_type_st",
   "size" : 8,
   "source_file" : "/external/boringssl/src/include/openssl/pkcs7.h"
  },
  {
   "alignment" : 8,
   "linker_set_key" : "_ZTIP12ecdsa_sig_st",
   "name" : "ecdsa_sig_st *",
   "referenced_type" : "_ZTI12ecdsa_sig_st",
   "self_type" : "_ZTIP12ecdsa_sig_st",
   "size" : 8,
   "source_file" : "/external/boringssl/src/include/openssl/ecdsa.h"
  },
  {
   "alignment" : 8,
   "linker_set_key" : "_ZTIP12otherName_st",
   "name" : "otherName_st *",
   "referenced_type" : "_ZTI12otherName_st",
   "self_type" : "_ZTIP12otherName_st",
   "size" : 8,
   "source_file" : "/external/boringssl/src/include/openssl/x509v3.h"
  },
  {
   "alignment" : 8,
   "linker_set_key" : "_ZTIP12stack_st_BIO",
   "name" : "stack_st_BIO *",
   "referenced_type" : "_ZTI12stack_st_BIO",
   "self_type" : "_ZTIP12stack_st_BIO",
   "size" : 8,
   "source_file" : "/external/boringssl/src/include/openssl/bio.h"
  },
  {
   "alignment" : 8,
   "linker_set_key" : "_ZTIP12x509_cinf_st",
   "name" : "x509_cinf_st *",
   "referenced_type" : "_ZTI12x509_cinf_st",
   "self_type" : "_ZTIP12x509_cinf_st",
   "size" : 8,
   "source_file" : "/external/boringssl/src/include/openssl/x509.h"
  },
  {
   "alignment" : 8,
   "linker_set_key" : "_ZTIP13ASN1_VALUE_st",
   "name" : "ASN1_VALUE_st *",
   "referenced_type" : "_ZTI13ASN1_VALUE_st",
   "self_type" : "_ZTIP13ASN1_VALUE_st",
   "size" : 8,
   "source_file" : "/external/boringssl/src/include/openssl/asn1.h"
  },
  {
   "alignment" : 8,
   "linker_set_key" : "_ZTIP13DIST_POINT_st",
   "name" : "DIST_POINT_st *",
   "referenced_type" : "_ZTI13DIST_POINT_st",
   "self_type" : "_ZTIP13DIST_POINT_st",
   "size" : 8,
   "source_file" : "/external/boringssl/src/include/openssl/x509v3.h"
  },
  {
   "alignment" : 8,
   "linker_set_key" : "_ZTIP13POLICYINFO_st",
   "name" : "POLICYINFO_st *",
   "referenced_type" : "_ZTI13POLICYINFO_st",
   "self_type" : "_ZTIP13POLICYINFO_st",
   "size" : 8,
   "source_file" : "/external/boringssl/src/include/openssl/x509v3.h"
  },
  {
   "alignment" : 8,
   "linker_set_key" : "_ZTIP13USERNOTICE_st",
   "name" : "USERNOTICE_st *",
   "referenced_type" : "_ZTI13USERNOTICE_st",
   "self_type" : "_ZTIP13USERNOTICE_st",
   "size" : 8,
   "source_file" : "/external/boringssl/src/include/openssl/x509v3.h"
  },
  {
   "alignment" : 8,
   "linker_set_key" : "_ZTIP13X509_algor_st",
   "name" : "X509_algor_st *",
   "referenced_type" : "_ZTI13X509_algor_st",
   "self_type" : "_ZTIP13X509_algor_st",
   "size" : 8,
   "source_file" : "/external/boringssl/src/include/openssl/x509.h"
  },
  {
   "alignment" : 8,
   "linker_set_key" : "_ZTIP13bio_method_st",
   "name" : "bio_method_st *",
   "referenced_type" : "_ZTI13bio_method_st",
   "self_type" : "_ZTIP13bio_method_st",
   "size" : 8,
   "source_file" : "/external/boringssl/src/include/openssl/bio.h"
  },
  {
   "alignment" : 8,
   "linker_set_key" : "_ZTIP13cbb_buffer_st",
   "name" : "cbb_buffer_st *",
   "referenced_type" : "_ZTI13cbb_buffer_st",
   "self_type" : "_ZTIP13cbb_buffer_st",
   "size" : 8,
   "source_file" : "/external/boringssl/src/include/openssl/bytestring.h"
  },
  {
   "alignment" : 8,
   "linker_set_key" : "_ZTIP13conf_value_st",
   "name" : "conf_value_st *",
   "referenced_type" : "_ZTI13conf_value_st",
   "self_type" : "_ZTIP13conf_value_st",
   "size" : 8,
   "source_file" : "/external/boringssl/src/include/openssl/conf.h"
  },
  {
   "alignment" : 8,
   "linker_set_key" : "_ZTIP13env_md_ctx_st",
   "name" : "env_md_ctx_st *",
   "referenced_type" : "_ZTI13env_md_ctx_st",
   "self_type" : "_ZTIP13env_md_ctx_st",
   "size" : 8,
   "source_file" : "/external/boringssl/src/include/openssl/digest.h"
  },
  {
   "alignment" : 8,
   "linker_set_key" : "_ZTIP13lhash_item_st",
   "name" : "lhash_item_st *",
   "referenced_type" : "_ZTI13lhash_item_st",
   "self_type" : "_ZTIP13lhash_item_st",
   "size" : 8,
   "source_file" : "/external/boringssl/src/include/openssl/lhash.h"
  },
  {
   "alignment" : 8,
   "linker_set_key" : "_ZTIP13spake2_ctx_st",
   "name" : "spake2_ctx_st *",
   "referenced_type" : "_ZTI13spake2_ctx_st",
   "self_type" : "_ZTIP13spake2_ctx_st",
   "size" : 8,
   "source_file" : "/external/boringssl/src/include/openssl/curve25519.h"
  },
  {
   "alignment" : 8,
   "linker_set_key" : "_ZTIP13stack_st_X509",
   "name" : "stack_st_X509 *",
   "referenced_type" : "_ZTI13stack_st_X509",
   "self_type" : "_ZTIP13stack_st_X509",
   "size" : 8,
   "source_file" : "/external/boringssl/src/include/openssl/pkcs7.h"
  },
  {
   "alignment" : 8,
   "linker_set_key" : "_ZTIP13stack_st_void",
   "name" : "stack_st_void *",
   "referenced_type" : "_ZTI13stack_st_void",
   "self_type" : "_ZTIP13stack_st_void",
   "size" : 8,
   "source_file" : "/external/boringssl/src/include/openssl/stack.h"
  },
  {
   "alignment" : 8,
   "linker_set_key" : "_ZTIP13v3_ext_method",
   "name" : "v3_ext_method *",
   "referenced_type" : "_ZTI13v3_ext_method",
   "self_type" : "_ZTIP13v3_ext_method",
   "size" : 8,
   "source_file" : "/external/boringssl/src/include/openssl/x509v3.h"
  },
  {
   "alignment" : 8,
   "linker_set_key" : "_ZTIP13x509_store_st",
   "name" : "x509_store_st *",
   "referenced_type" : "_ZTI13x509_store_st",
   "self_type" : "_ZTIP13x509_store_st",
   "size" : 8,
   "source_file" : "/external/boringssl/src/include/openssl/x509_vfy.h"
  },
  {
   "alignment" : 8,
   "linker_set_key" : "_ZTIP13x509_trust_st",
   "name" : "x509_trust_st *",
   "referenced_type" : "_ZTI13x509_trust_st",
   "self_type" : "_ZTIP13x509_trust_st",
   "size" : 8,
   "source_file" : "/external/boringssl/src/include/openssl/x509.h"
  },
  {
   "alignment" : 8,
   "linker_set_key" : "_ZTIP14X509_pubkey_st",
   "name" : "X509_pubkey_st *",
   "referenced_type" : "_ZTI14X509_pubkey_st",
   "self_type" : "_ZTIP14X509_pubkey_st",
   "size" : 8,
   "source_file" : "/external/boringssl/src/include/openssl/x509.h"
  },
  {
   "alignment" : 8,
   "linker_set_key" : "_ZTIP14asn1_object_st",
   "name" : "asn1_object_st *",
   "referenced_type" : "_ZTI14asn1_object_st",
   "self_type" : "_ZTIP14asn1_object_st",
   "size" : 8,
   "source_file" : "/external/boringssl/src/include/openssl/pkcs7.h"
  },
  {
   "alignment" : 8,
   "linker_set_key" : "_ZTIP14asn1_string_st",
   "name" : "asn1_string_st *",
   "referenced_type" : "_ZTI14asn1_string_st",
   "self_type" : "_ZTIP14asn1_string_st",
   "size" : 8,
   "source_file" : "/external/boringssl/src/include/openssl/pkcs7.h"
  },
  {
   "alignment" : 8,
   "linker_set_key" : "_ZTIP14bn_blinding_st",
   "name" : "bn_blinding_st *",
   "referenced_type" : "_ZTI14bn_blinding_st",
   "self_type" : "_ZTIP14bn_blinding_st",
   "size" : 8,
   "source_file" : "/external/boringssl/src/include/openssl/rsa.h"
  },
  {
   "alignment" : 8,
   "linker_set_key" : "_ZTIP14bn_mont_ctx_st",
   "name" : "bn_mont_ctx_st *",
   "referenced_type" : "_ZTI14bn_mont_ctx_st",
   "self_type" : "_ZTIP14bn_mont_ctx_st",
   "size" : 8,
   "source_file" : "/external/boringssl/src/include/openssl/bn.h"
  },
  {
   "alignment" : 8,
   "linker_set_key" : "_ZTIP14private_key_st",
   "name" : "private_key_st *",
   "referenced_type" : "_ZTI14private_key_st",
   "self_type" : "_ZTIP14private_key_st",
   "size" : 8,
   "source_file" : "/external/boringssl/src/include/openssl/x509.h"
  },
  {
   "alignment" : 8,
   "linker_set_key" : "_ZTIP14ssl_session_st",
   "name" : "ssl_session_st *",
   "referenced_type" : "_ZTI14ssl_session_st",
   "self_type" : "_ZTIP14ssl_session_st",
   "size" : 8,
   "source_file" : "/external/boringssl/src/include/openssl/base.h"
  },
  {
   "alignment" : 8,
   "linker_set_key" : "_ZTIP14x509_lookup_st",
   "name" : "x509_lookup_st *",
   "referenced_type" : "_ZTI14x509_lookup_st",
   "self_type" : "_ZTIP14x509_lookup_st",
   "size" : 8,
   "source_file" : "/external/boringssl/src/include/openssl/x509_vfy.h"
  },
  {
   "alignment" : 8,
   "linker_set_key" : "_ZTIP14x509_object_st",
   "name" : "x509_object_st *",
   "referenced_type" : "_ZTI14x509_object_st",
   "self_type" : "_ZTIP14x509_object_st",
   "size" : 8,
   "source_file" : "/external/boringssl/src/include/openssl/x509_vfy.h"
  },
  {
   "alignment" : 8,
   "linker_set_key" : "_ZTIP15EDIPartyName_st",
   "name" : "EDIPartyName_st *",
   "referenced_type" : "_ZTI15EDIPartyName_st",
   "self_type" : "_ZTIP15EDIPartyName_st",
   "size" : 8,
   "source_file" : "/external/boringssl/src/include/openssl/x509v3.h"
  },
  {
   "alignment" : 8,
   "linker_set_key" : "_ZTIP15GENERAL_NAME_st",
   "name" : "GENERAL_NAME_st *",
   "referenced_type" : "_ZTI15GENERAL_NAME_st",
   "self_type" : "_ZTIP15GENERAL_NAME_st",
   "size" : 8,
   "source_file" : "/external/boringssl/src/include/openssl/x509v3.h"
  },
  {
   "alignment" : 8,
   "linker_set_key" : "_ZTIP15PROXY_POLICY_st",
   "name" : "PROXY_POLICY_st *",
   "referenced_type" : "_ZTI15PROXY_POLICY_st",
   "self_type" : "_ZTIP15PROXY_POLICY_st",
   "size" : 8,
   "source_file" : "/external/boringssl/src/include/openssl/x509v3.h"
  },
  {
   "alignment" : 8,
   "linker_set_key" : "_ZTIP15evp_aead_ctx_st",
   "name" : "evp_aead_ctx_st *",
   "referenced_type" : "_ZTI15evp_aead_ctx_st",
   "self_type" : "_ZTIP15evp_aead_ctx_st",
   "size" : 8,
   "source_file" : "/external/boringssl/src/include/openssl/aead.h"
  },
  {
   "alignment" : 8,
   "linker_set_key" : "_ZTIP15evp_pkey_ctx_st",
   "name" : "evp_pkey_ctx_st *",
   "referenced_type" : "_ZTI15evp_pkey_ctx_st",
   "self_type" : "_ZTIP15evp_pkey_ctx_st",
   "size" : 8,
   "source_file" : "/external/boringssl/src/include/openssl/digest.h"
  },
  {
   "alignment" : 8,
   "linker_set_key" : "_ZTIP15x509_purpose_st",
   "name" : "x509_purpose_st *",
   "referenced_type" : "_ZTI15x509_purpose_st",
   "self_type" : "_ZTIP15x509_purpose_st",
   "size" : 8,
   "source_file" : "/external/boringssl/src/include/openssl/x509v3.h"
  },
  {
   "alignment" : 8,
   "linker_set_key" : "_ZTIP15x509_revoked_st",
   "name" : "x509_revoked_st *",
   "referenced_type" : "_ZTI15x509_revoked_st",
   "self_type" : "_ZTIP15x509_revoked_st",
   "size" : 8,
   "source_file" : "/external/boringssl/src/include/openssl/x509.h"
  },
  {
   "alignment" : 8,
   "linker_set_key" : "_ZTIP16Netscape_spki_st",
   "name" : "Netscape_spki_st *",
   "referenced_type" : "_ZTI16Netscape_spki_st",
   "self_type" : "_ZTIP16Netscape_spki_st",
   "size" : 8,
   "source_file" : "/external/boringssl/src/include/openssl/x509.h"
  },
  {
   "alignment" : 8,
   "linker_set_key" : "_ZTIP16X509_crl_info_st",
   "name" : "X509_crl_info_st *",
   "referenced_type" : "_ZTI16X509_crl_info_st",
   "self_type" : "_ZTIP16X509_crl_info_st",
   "size" : 8,
   "source_file" : "/external/boringssl/src/include/openssl/x509.h"
  },
  {
   "alignment" : 8,
   "linker_set_key" : "_ZTIP16X509_req_info_st",
   "name" : "X509_req_info_st *",
   "referenced_type" : "_ZTI16X509_req_info_st",
   "self_type" : "_ZTIP16X509_req_info_st",
   "size" : 8,
   "source_file" : "/external/boringssl/src/include/openssl/x509.h"
  },
  {
   "alignment" : 8,
   "linker_set_key" : "_ZTIP16crypto_buffer_st",
   "name" : "crypto_buffer_st *",
   "referenced_type" : "_ZTI16crypto_buffer_st",
   "self_type" : "_ZTIP16crypto_buffer_st",
   "size" : 8,
   "source_file" : "/external/boringssl/src/include/openssl/base.h"
  },
  {
   "alignment" : 8,
   "linker_set_key" : "_ZTIP16stack_st_SXNETID",
   "name" : "stack_st_SXNETID *",
   "referenced_type" : "_ZTI16stack_st_SXNETID",
   "self_type" : "_ZTIP16stack_st_SXNETID",
   "size" : 8,
   "source_file" : "/external/boringssl/src/include/openssl/x509v3.h"
  },
  {
   "alignment" : 8,
   "linker_set_key" : "_ZTIP16x509_cert_aux_st",
   "name" : "x509_cert_aux_st *",
   "referenced_type" : "_ZTI16x509_cert_aux_st",
   "self_type" : "_ZTIP16x509_cert_aux_st",
   "size" : 8,
   "source_file" : "/external/boringssl/src/include/openssl/x509.h"
  },
  {
   "alignment" : 8,
   "linker_set_key" : "_ZTIP17Netscape_spkac_st",
   "name" : "Netscape_spkac_st *",
   "referenced_type" : "_ZTI17Netscape_spkac_st",
   "self_type" : "_ZTIP17Netscape_spkac_st",
   "size" : 8,
   "source_file" : "/external/boringssl/src/include/openssl/x509.h"
  },
  {
   "alignment" : 8,
   "linker_set_key" : "_ZTIP17POLICYQUALINFO_st",
   "name" : "POLICYQUALINFO_st *",
   "referenced_type" : "_ZTI17POLICYQUALINFO_st",
   "self_type" : "_ZTIP17POLICYQUALINFO_st",
   "size" : 8,
   "source_file" : "/external/boringssl/src/include/openssl/x509v3.h"
  },
  {
   "alignment" : 8,
   "linker_set_key" : "_ZTIP17POLICY_MAPPING_st",
   "name" : "POLICY_MAPPING_st *",
   "referenced_type" : "_ZTI17POLICY_MAPPING_st",
   "self_type" : "_ZTIP17POLICY_MAPPING_st",
   "size" : 8,
   "source_file" : "/external/boringssl/src/include/openssl/x509v3.h"
  },
  {
   "alignment" : 8,
   "linker_set_key" : "_ZTIP17X509_extension_st",
   "name" : "X509_extension_st *",
   "referenced_type" : "_ZTI17X509_extension_st",
   "self_type" : "_ZTIP17X509_extension_st",
   "size" : 8,
   "source_file" : "/external/boringssl/src/include/openssl/x509.h"
  },
  {
   "alignment" : 8,
   "linker_set_key" : "_ZTIP17crypto_ex_data_st",
   "name" : "crypto_ex_data_st *",
   "referenced_type" : "_ZTI17crypto_ex_data_st",
   "self_type" : "_ZTIP17crypto_ex_data_st",
   "size" : 8,
   "source_file" : "/external/boringssl/src/include/openssl/ssl.h"
  },
  {
   "alignment" : 8,
   "linker_set_key" : "_ZTIP17err_save_state_st",
   "name" : "err_save_state_st *",
   "referenced_type" : "_ZTI17err_save_state_st",
   "self_type" : "_ZTIP17err_save_state_st",
   "size" : 8,
   "source_file" : "/external/boringssl/src/include/openssl/base.h"
  },
  {
   "alignment" : 8,
   "linker_set_key" : "_ZTIP17evp_cipher_ctx_st",
   "name" : "evp_cipher_ctx_st *",
   "referenced_type" : "_ZTI17evp_cipher_ctx_st",
   "self_type" : "_ZTIP17evp_cipher_ctx_st",
   "size" : 8,
   "source_file" : "/external/boringssl/src/include/openssl/cipher.h"
  },
  {
   "alignment" : 8,
   "linker_set_key" : "_ZTIP17rsa_pss_params_st",
   "name" : "rsa_pss_params_st *",
   "referenced_type" : "_ZTI17rsa_pss_params_st",
   "self_type" : "_ZTIP17rsa_pss_params_st",
   "size" : 8,
   "source_file" : "/external/boringssl/src/include/openssl/x509.h"
  },
  {
   "alignment" : 8,
   "linker_set_key" : "_ZTIP17stack_st_SSL_COMP",
   "name" : "stack_st_SSL_COMP *",
   "referenced_type" : "_ZTI17stack_st_SSL_COMP",
   "self_type" : "_ZTIP17stack_st_SSL_COMP",
   "size" : 8,
   "source_file" : "/external/boringssl/src/include/openssl/ssl.h"
  },
  {
   "alignment" : 8,
   "linker_set_key" : "_ZTIP17stack_st_X509_CRL",
   "name" : "stack_st_X509_CRL *",
   "referenced_type" : "_ZTI17stack_st_X509_CRL",
   "self_type" : "_ZTIP17stack_st_X509_CRL",
   "size" : 8,
   "source_file" : "/external/boringssl/src/include/openssl/pkcs7.h"
  },
  {
   "alignment" : 8,
   "linker_set_key" : "_ZTIP17x509_store_ctx_st",
   "name" : "x509_store_ctx_st *",
   "referenced_type" : "_ZTI17x509_store_ctx_st",
   "self_type" : "_ZTIP17x509_store_ctx_st",
   "size" : 8,
   "source_file" : "/external/boringssl/src/include/openssl/x509_vfy.h"
  },
  {
   "alignment" : 8,
   "linker_set_key" : "_ZTIP18AUTHORITY_KEYID_st",
   "name" : "AUTHORITY_KEYID_st *",
   "referenced_type" : "_ZTI18AUTHORITY_KEYID_st",
   "self_type" : "_ZTIP18AUTHORITY_KEYID_st",
   "size" : 8,
   "source_file" : "/external/boringssl/src/include/openssl/x509.h"
  },
  {
   "alignment" : 8,
   "linker_set_key" : "_ZTIP18DIST_POINT_NAME_st",
   "name" : "DIST_POINT_NAME_st *",
   "referenced_type" : "_ZTI18DIST_POINT_NAME_st",
   "self_type" : "_ZTIP18DIST_POINT_NAME_st",
   "size" : 8,
   "source_file" : "/external/boringssl/src/include/openssl/x509v3.h"
  },
  {
   "alignment" : 8,
   "linker_set_key" : "_ZTIP18GENERAL_SUBTREE_st",
   "name" : "GENERAL_SUBTREE_st *",
   "referenced_type" : "_ZTI18GENERAL_SUBTREE_st",
   "self_type" : "_ZTIP18GENERAL_SUBTREE_st",
   "size" : 8,
   "source_file" : "/external/boringssl/src/include/openssl/x509v3.h"
  },
  {
   "alignment" : 8,
   "linker_set_key" : "_ZTIP18X509_name_entry_st",
   "name" : "X509_name_entry_st *",
   "referenced_type" : "_ZTI18X509_name_entry_st",
   "self_type" : "_ZTIP18X509_name_entry_st",
   "size" : 8,
   "source_file" : "/external/boringssl/src/include/openssl/x509.h"
  },
  {
   "alignment" : 8,
   "linker_set_key" : "_ZTIP18stack_st_ASN1_TYPE",
   "name" : "stack_st_ASN1_TYPE *",
   "referenced_type" : "_ZTI18stack_st_ASN1_TYPE",
   "self_type" : "_ZTIP18stack_st_ASN1_TYPE",
   "size" : 8,
   "source_file" : "/external/boringssl/src/include/openssl/asn1.h"
  },
  {
   "alignment" : 8,
   "linker_set_key" : "_ZTIP18stack_st_X509_INFO",
   "name" : "stack_st_X509_INFO *",
   "referenced_type" : "_ZTI18stack_st_X509_INFO",
   "self_type" : "_ZTIP18stack_st_X509_INFO",
   "size" : 8,
   "source_file" : "/external/boringssl/src/include/openssl/x509.h"
  },
  {
   "alignment" : 8,
   "linker_set_key" : "_ZTIP18stack_st_X509_NAME",
   "name" : "stack_st_X509_NAME *",
   "referenced_type" : "_ZTI18stack_st_X509_NAME",
   "self_type" : "_ZTIP18stack_st_X509_NAME",
   "size" : 8,
   "source_file" : "/external/boringssl/src/include/openssl/x509.h"
  },
  {
   "alignment" : 8,
   "linker_set_key" : "_ZTIP18x509_attributes_st",
   "name" : "x509_attributes_st *",
   "referenced_type" : "_ZTI18x509_attributes_st",
   "self_type" : "_ZTIP18x509_attributes_st",
   "size" : 8,
   "source_file" : "/external/boringssl/src/include/openssl/x509.h"
  },
  {
   "alignment" : 8,
   "linker_set_key" : "_ZTIP18x509_crl_method_st",
   "name" : "x509_crl_method_st *",
   "referenced_type" : "_ZTI18x509_crl_method_st",
   "self_type" : "_ZTIP18x509_crl_method_st",
   "size" : 8,
   "source_file" : "/external/boringssl/src/include/openssl/x509.h"
  },
  {
   "alignment" : 8,
   "linker_set_key" : "_ZTIP19NAME_CONSTRAINTS_st",
   "name" : "NAME_CONSTRAINTS_st *",
   "referenced_type" : "_ZTI19NAME_CONSTRAINTS_st",
   "self_type" : "_ZTIP19NAME_CONSTRAINTS_st",
   "size" : 8,
   "source_file" : "/external/boringssl/src/include/openssl/x509.h"
  },
  {
   "alignment" : 8,
   "linker_set_key" : "_ZTIP19PKCS7_SIGN_ENVELOPE",
   "name" : "PKCS7_SIGN_ENVELOPE *",
   "referenced_type" : "_ZTI19PKCS7_SIGN_ENVELOPE",
   "self_type" : "_ZTIP19PKCS7_SIGN_ENVELOPE",
   "size" : 8,
   "source_file" : "/external/boringssl/src/include/openssl/pkcs7.h"
  },
  {
   "alignment" : 8,
   "linker_set_key" : "_ZTIP19X509_POLICY_NODE_st",
   "name" : "X509_POLICY_NODE_st *",
   "referenced_type" : "_ZTI19X509_POLICY_NODE_st",
   "self_type" : "_ZTIP19X509_POLICY_NODE_st",
   "size" : 8,
   "source_file" : "/external/boringssl/src/include/openssl/x509v3.h"
  },
  {
   "alignment" : 8,
   "linker_set_key" : "_ZTIP19X509_POLICY_TREE_st",
   "name" : "X509_POLICY_TREE_st *",
   "referenced_type" : "_ZTI19X509_POLICY_TREE_st",
   "self_type" : "_ZTIP19X509_POLICY_TREE_st",
   "size" : 8,
   "source_file" : "/external/boringssl/src/include/openssl/x509_vfy.h"
  },
  {
   "alignment" : 8,
   "linker_set_key" : "_ZTIP19stack_st_CONF_VALUE",
   "name" : "stack_st_CONF_VALUE *",
   "referenced_type" : "_ZTI19stack_st_CONF_VALUE",
   "self_type" : "_ZTIP19stack_st_CONF_VALUE",
   "size" : 8,
   "source_file" : "/external/boringssl/src/include/openssl/conf.h"
  },
  {
   "alignment" : 8,
   "linker_set_key" : "_ZTIP19stack_st_DIST_POINT",
   "name" : "stack_st_DIST_POINT *",
   "referenced_type" : "_ZTI19stack_st_DIST_POINT",
   "self_type" : "_ZTIP19stack_st_DIST_POINT",
   "size" : 8,
   "source_file" : "/external/boringssl/src/include/openssl/x509.h"
  },
  {
   "alignment" : 8,
   "linker_set_key" : "_ZTIP19stack_st_POLICYINFO",
   "name" : "stack_st_POLICYINFO *",
   "referenced_type" : "_ZTI19stack_st_POLICYINFO",
   "self_type" : "_ZTIP19stack_st_POLICYINFO",
   "size" : 8,
   "source_file" : "/external/boringssl/src/include/openssl/x509v3.h"
  },
  {
   "alignment" : 8,
   "linker_set_key" : "_ZTIP19stack_st_SSL_CIPHER",
   "name" : "stack_st_SSL_CIPHER *",
   "referenced_type" : "_ZTI19stack_st_SSL_CIPHER",
   "self_type" : "_ZTIP19stack_st_SSL_CIPHER",
   "size" : 8,
   "source_file" : "/external/boringssl/src/include/openssl/ssl.h"
  },
  {
   "alignment" : 8,
   "linker_set_key" : "_ZTIP19stack_st_X509_ALGOR",
   "name" : "stack_st_X509_ALGOR *",
   "referenced_type" : "_ZTI19stack_st_X509_ALGOR",
   "self_type" : "_ZTIP19stack_st_X509_ALGOR",
   "size" : 8,
   "source_file" : "/external/boringssl/src/include/openssl/x509.h"
  },
  {
   "alignment" : 8,
   "linker_set_key" : "_ZTIP19stack_st_X509_TRUST",
   "name" : "stack_st_X509_TRUST *",
   "referenced_type" : "_ZTI19stack_st_X509_TRUST",
   "self_type" : "_ZTIP19stack_st_X509_TRUST",
   "size" : 8,
   "source_file" : "/external/boringssl/src/include/openssl/x509.h"
  },
  {
   "alignment" : 8,
   "linker_set_key" : "_ZTIP20BASIC_CONSTRAINTS_st",
   "name" : "BASIC_CONSTRAINTS_st *",
   "referenced_type" : "_ZTI20BASIC_CONSTRAINTS_st",
   "self_type" : "_ZTIP20BASIC_CONSTRAINTS_st",
   "size" : 8,
   "source_file" : "/external/boringssl/src/include/openssl/x509v3.h"
  },
  {
   "alignment" : 8,
   "linker_set_key" : "_ZTIP20CRYPTO_dynlock_value",
   "name" : "CRYPTO_dynlock_value *",
   "referenced_type" : "_ZTI20CRYPTO_dynlock_value",
   "self_type" : "_ZTIP20CRYPTO_dynlock_value",
   "size" : 8,
   "source_file" : "/external/boringssl/src/include/openssl/thread.h"
  },
  {
   "alignment" : 8,
   "linker_set_key" : "_ZTIP20X509_POLICY_CACHE_st",
   "name" : "X509_POLICY_CACHE_st *",
   "referenced_type" : "_ZTI20X509_POLICY_CACHE_st",
   "self_type" : "_ZTIP20X509_POLICY_CACHE_st",
   "size" : 8,
   "source_file" : "/external/boringssl/src/include/openssl/x509.h"
  },
  {
   "alignment" : 8,
   "linker_set_key" : "_ZTIP20X509_VERIFY_PARAM_st",
   "name" : "X509_VERIFY_PARAM_st *",
   "referenced_type" : "_ZTI20X509_VERIFY_PARAM_st",
   "self_type" : "_ZTIP20X509_VERIFY_PARAM_st",
   "size" : 8,
   "source_file" : "/external/boringssl/src/include/openssl/x509_vfy.h"
  },
  {
   "alignment" : 8,
   "linker_set_key" : "_ZTIP20stack_st_ASN1_OBJECT",
   "name" : "stack_st_ASN1_OBJECT *",
   "referenced_type" : "_ZTI20stack_st_ASN1_OBJECT",
   "self_type" : "_ZTIP20stack_st_ASN1_OBJECT",
   "size" : 8,
   "source_file" : "/external/boringssl/src/include/openssl/asn1.h"
  },
  {
   "alignment" : 8,
   "linker_set_key" : "_ZTIP20stack_st_X509_LOOKUP",
   "name" : "stack_st_X509_LOOKUP *",
   "referenced_type" : "_ZTI20stack_st_X509_LOOKUP",
   "self_type" : "_ZTIP20stack_st_X509_LOOKUP",
   "size" : 8,
   "source_file" : "/external/boringssl/src/include/openssl/x509_vfy.h"
  },
  {
   "alignment" : 8,
   "linker_set_key" : "_ZTIP20stack_st_X509_OBJECT",
   "name" : "stack_st_X509_OBJECT *",
   "referenced_type" : "_ZTI20stack_st_X509_OBJECT",
   "self_type" : "_ZTIP20stack_st_X509_OBJECT",
   "size" : 8,
   "source_file" : "/external/boringssl/src/include/openssl/x509_vfy.h"
  },
  {
   "alignment" : 8,
   "linker_set_key" : "_ZTIP21ACCESS_DESCRIPTION_st",
   "name" : "ACCESS_DESCRIPTION_st *",
   "referenced_type" : "_ZTI21ACCESS_DESCRIPTION_st",
   "self_type" : "_ZTIP21ACCESS_DESCRIPTION_st",
   "size" : 8,
   "source_file" : "/external/boringssl/src/include/openssl/x509v3.h"
  },
  {
   "alignment" : 8,
   "linker_set_key" : "_ZTIP21ISSUING_DIST_POINT_st",
   "name" : "ISSUING_DIST_POINT_st *",
   "referenced_type" : "_ZTI21ISSUING_DIST_POINT_st",
   "self_type" : "_ZTIP21ISSUING_DIST_POINT_st",
   "size" : 8,
   "source_file" : "/external/boringssl/src/include/openssl/x509.h"
  },
  {
   "alignment" : 8,
   "linker_set_key" : "_ZTIP21crypto_buffer_pool_st",
   "name" : "crypto_buffer_pool_st *",
   "referenced_type" : "_ZTI21crypto_buffer_pool_st",
   "self_type" : "_ZTIP21crypto_buffer_pool_st",
   "size" : 8,
   "source_file" : "/external/boringssl/src/include/openssl/pool.h"
  },
  {
   "alignment" : 8,
   "linker_set_key" : "_ZTIP21stack_st_ASN1_INTEGER",
   "name" : "stack_st_ASN1_INTEGER *",
   "referenced_type" : "_ZTI21stack_st_ASN1_INTEGER",
   "self_type" : "_ZTIP21stack_st_ASN1_INTEGER",
   "size" : 8,
   "source_file" : "/external/boringssl/src/include/openssl/asn1.h"
  },
  {
   "alignment" : 8,
   "linker_set_key" : "_ZTIP21stack_st_GENERAL_NAME",
   "name" : "stack_st_GENERAL_NAME *",
   "referenced_type" : "_ZTI21stack_st_GENERAL_NAME",
   "self_type" : "_ZTIP21stack_st_GENERAL_NAME",
   "size" : 8,
   "source_file" : "/external/boringssl/src/include/openssl/x509.h"
  },
  {
   "alignment" : 8,
   "linker_set_key" : "_ZTIP21stack_st_X509_PURPOSE",
   "name" : "stack_st_X509_PURPOSE *",
   "referenced_type" : "_ZTI21stack_st_X509_PURPOSE",
   "self_type" : "_ZTIP21stack_st_X509_PURPOSE",
   "size" : 8,
   "source_file" : "/external/boringssl/src/include/openssl/x509v3.h"
  },
  {
   "alignment" : 8,
   "linker_set_key" : "_ZTIP21stack_st_X509_REVOKED",
   "name" : "stack_st_X509_REVOKED *",
   "referenced_type" : "_ZTI21stack_st_X509_REVOKED",
   "self_type" : "_ZTIP21stack_st_X509_REVOKED",
   "size" : 8,
   "source_file" : "/external/boringssl/src/include/openssl/x509.h"
  },
  {
   "alignment" : 8,
   "linker_set_key" : "_ZTIP21x509_lookup_method_st",
   "name" : "x509_lookup_method_st *",
   "referenced_type" : "_ZTI21x509_lookup_method_st",
   "self_type" : "_ZTIP21x509_lookup_method_st",
   "size" : 8,
   "source_file" : "/external/boringssl/src/include/openssl/x509_vfy.h"
  },
  {
   "alignment" : 8,
   "linker_set_key" : "_ZTIP22ssl_early_callback_ctx",
   "name" : "ssl_early_callback_ctx *",
   "referenced_type" : "_ZTI22ssl_early_callback_ctx",
   "self_type" : "_ZTIP22ssl_early_callback_ctx",
   "size" : 8,
   "source_file" : "/external/boringssl/src/include/openssl/ssl.h"
  },
  {
   "alignment" : 8,
   "linker_set_key" : "_ZTIP22stack_st_CRYPTO_BUFFER",
   "name" : "stack_st_CRYPTO_BUFFER *",
   "referenced_type" : "_ZTI22stack_st_CRYPTO_BUFFER",
   "self_type" : "_ZTIP22stack_st_CRYPTO_BUFFER",
   "size" : 8,
   "source_file" : "/external/boringssl/src/include/openssl/pool.h"
  },
  {
   "alignment" : 8,
   "linker_set_key" : "_ZTIP22stack_st_GENERAL_NAMES",
   "name" : "stack_st_GENERAL_NAMES *",
   "referenced_type" : "_ZTI22stack_st_GENERAL_NAMES",
   "self_type" : "_ZTIP22stack_st_GENERAL_NAMES",
   "size" : 8,
   "source_file" : "/external/boringssl/src/include/openssl/x509.h"
  },
  {
   "alignment" : 8,
   "linker_set_key" : "_ZTIP23X509_VERIFY_PARAM_ID_st",
   "name" : "X509_VERIFY_PARAM_ID_st *",
   "referenced_type" : "_ZTI23X509_VERIFY_PARAM_ID_st",
   "self_type" : "_ZTIP23X509_VERIFY_PARAM_ID_st",
   "size" : 8,
   "source_file" : "/external/boringssl/src/include/openssl/x509_vfy.h"
  },
  {
   "alignment" : 8,
   "linker_set_key" : "_ZTIP23stack_st_OPENSSL_STRING",
   "name" : "stack_st_OPENSSL_STRING *",
   "referenced_type" : "_ZTI23stack_st_OPENSSL_STRING",
   "self_type" : "_ZTIP23stack_st_OPENSSL_STRING",
   "size" : 8,
   "source_file" : "/external/boringssl/src/include/openssl/stack.h"
  },
  {
   "alignment" : 8,
   "linker_set_key" : "_ZTIP23stack_st_POLICYQUALINFO",
   "name" : "stack_st_POLICYQUALINFO *",
   "referenced_type" : "_ZTI23stack_st_POLICYQUALINFO",
   "self_type" : "_ZTIP23stack_st_POLICYQUALINFO",
   "size" : 8,
   "source_file" : "/external/boringssl/src/include/openssl/x509v3.h"
  },
  {
   "alignment" : 8,
   "linker_set_key" : "_ZTIP23stack_st_POLICY_MAPPING",
   "name" : "stack_st_POLICY_MAPPING *",
   "referenced_type" : "_ZTI23stack_st_POLICY_MAPPING",
   "self_type" : "_ZTIP23stack_st_POLICY_MAPPING",
   "size" : 8,
   "source_file" : "/external/boringssl/src/include/openssl/x509v3.h"
  },
  {
   "alignment" : 8,
   "linker_set_key" : "_ZTIP23stack_st_X509_ATTRIBUTE",
   "name" : "stack_st_X509_ATTRIBUTE *",
   "referenced_type" : "_ZTI23stack_st_X509_ATTRIBUTE",
   "self_type" : "_ZTIP23stack_st_X509_ATTRIBUTE",
   "size" : 8,
   "source_file" : "/external/boringssl/src/include/openssl/x509.h"
  },
  {
   "alignment" : 8,
   "linker_set_key" : "_ZTIP23stack_st_X509_EXTENSION",
   "name" : "stack_st_X509_EXTENSION *",
   "referenced_type" : "_ZTI23stack_st_X509_EXTENSION",
   "self_type" : "_ZTIP23stack_st_X509_EXTENSION",
   "size" : 8,
   "source_file" : "/external/boringssl/src/include/openssl/x509.h"
  },
  {
   "alignment" : 8,
   "linker_set_key" : "_ZTIP24stack_st_GENERAL_SUBTREE",
   "name" : "stack_st_GENERAL_SUBTREE *",
   "referenced_type" : "_ZTI24stack_st_GENERAL_SUBTREE",
   "self_type" : "_ZTIP24stack_st_GENERAL_SUBTREE",
   "size" : 8,
   "source_file" : "/external/boringssl/src/include/openssl/x509v3.h"
  },
  {
   "alignment" : 8,
   "linker_set_key" : "_ZTIP24stack_st_X509_NAME_ENTRY",
   "name" : "stack_st_X509_NAME_ENTRY *",
   "referenced_type" : "_ZTI24stack_st_X509_NAME_ENTRY",
   "self_type" : "_ZTIP24stack_st_X509_NAME_ENTRY",
   "size" : 8,
   "source_file" : "/external/boringssl/src/include/openssl/x509.h"
  },
  {
   "alignment" : 8,
   "linker_set_key" : "_ZTIP25stack_st_X509_POLICY_NODE",
   "name" : "stack_st_X509_POLICY_NODE *",
   "referenced_type" : "_ZTI25stack_st_X509_POLICY_NODE",
   "self_type" : "_ZTIP25stack_st_X509_POLICY_NODE",
   "size" : 8,
   "source_file" : "/external/boringssl/src/include/openssl/x509v3.h"
  },
  {
   "alignment" : 8,
   "linker_set_key" : "_ZTIP26stack_st_X509V3_EXT_METHOD",
   "name" : "stack_st_X509V3_EXT_METHOD *",
   "referenced_type" : "_ZTI26stack_st_X509V3_EXT_METHOD",
   "self_type" : "_ZTIP26stack_st_X509V3_EXT_METHOD",
   "size" : 8,
   "source_file" : "/external/boringssl/src/include/openssl/x509v3.h"
  },
  {
   "alignment" : 8,
   "linker_set_key" : "_ZTIP26stack_st_X509_VERIFY_PARAM",
   "name" : "stack_st_X509_VERIFY_PARAM *",
   "referenced_type" : "_ZTI26stack_st_X509_VERIFY_PARAM",
   "self_type" : "_ZTIP26stack_st_X509_VERIFY_PARAM",
   "size" : 8,
   "source_file" : "/external/boringssl/src/include/openssl/x509_vfy.h"
  },
  {
   "alignment" : 8,
   "linker_set_key" : "_ZTIP27stack_st_ACCESS_DESCRIPTION",
   "name" : "stack_st_ACCESS_DESCRIPTION *",
   "referenced_type" : "_ZTI27stack_st_ACCESS_DESCRIPTION",
   "self_type" : "_ZTIP27stack_st_ACCESS_DESCRIPTION",
   "size" : 8,
   "source_file" : "/external/boringssl/src/include/openssl/x509v3.h"
  },
  {
   "alignment" : 8,
   "linker_set_key" : "_ZTIP32stack_st_SRTP_PROTECTION_PROFILE",
   "name" : "stack_st_SRTP_PROTECTION_PROFILE *",
   "referenced_type" : "_ZTI32stack_st_SRTP_PROTECTION_PROFILE",
   "self_type" : "_ZTIP32stack_st_SRTP_PROTECTION_PROFILE",
   "size" : 8,
   "source_file" : "/external/boringssl/src/include/openssl/ssl.h"
  },
  {
   "alignment" : 8,
   "linker_set_key" : "_ZTIP5PKCS7",
   "name" : "PKCS7 *",
   "referenced_type" : "_ZTI5PKCS7",
   "self_type" : "_ZTIP5PKCS7",
   "size" : 8,
   "source_file" : "/external/boringssl/src/include/openssl/pkcs7.h"
  },
  {
   "alignment" : 8,
   "linker_set_key" : "_ZTIP5dh_st",
   "name" : "dh_st *",
   "referenced_type" : "_ZTI5dh_st",
   "self_type" : "_ZTIP5dh_st",
   "size" : 8,
   "source_file" : "/external/boringssl/src/include/openssl/base.h"
  },
  {
   "alignment" : 8,
   "linker_set_key" : "_ZTIP6bio_st",
   "name" : "bio_st *",
   "referenced_type" : "_ZTI6bio_st",
   "self_type" : "_ZTIP6bio_st",
   "size" : 8,
   "source_file" : "/external/boringssl/src/include/openssl/base.h"
  },
  {
   "alignment" : 8,
   "linker_set_key" : "_ZTIP6cbb_st",
   "name" : "cbb_st *",
   "referenced_type" : "_ZTI6cbb_st",
   "self_type" : "_ZTIP6cbb_st",
   "size" : 8,
   "source_file" : "/external/boringssl/src/include/openssl/bytestring.h"
  },
  {
   "alignment" : 8,
   "linker_set_key" : "_ZTIP6cbs_st",
   "name" : "cbs_st *",
   "referenced_type" : "_ZTI6cbs_st",
   "self_type" : "_ZTIP6cbs_st",
   "size" : 8,
   "source_file" : "/external/boringssl/src/include/openssl/bytestring.h"
  },
  {
   "alignment" : 8,
   "linker_set_key" : "_ZTIP6dsa_st",
   "name" : "dsa_st *",
   "referenced_type" : "_ZTI6dsa_st",
   "self_type" : "_ZTIP6dsa_st",
   "size" : 8,
   "source_file" : "/external/boringssl/src/include/openssl/base.h"
  },
  {
   "alignment" : 8,
   "linker_set_key" : "_ZTIP6rsa_st",
   "name" : "rsa_st *",
   "referenced_type" : "_ZTI6rsa_st",
   "self_type" : "_ZTIP6rsa_st",
   "size" : 8,
   "source_file" : "/external/boringssl/src/include/openssl/base.h"
  },
  {
   "alignment" : 8,
   "linker_set_key" : "_ZTIP6ssl_st",
   "name" : "ssl_st *",
   "referenced_type" : "_ZTI6ssl_st",
   "self_type" : "_ZTIP6ssl_st",
   "size" : 8,
   "source_file" : "/external/boringssl/src/include/openssl/ssl.h"
  },
  {
   "alignment" : 8,
   "linker_set_key" : "_ZTIP7__sFILE",
   "name" : "__sFILE *",
   "referenced_type" : "_ZTI7__sFILE",
   "self_type" : "_ZTIP7__sFILE",
   "size" : 8,
   "source_file" : "/external/boringssl/src/include/openssl/ssl.h"
  },
  {
   "alignment" : 8,
   "linker_set_key" : "_ZTIP7conf_st",
   "name" : "conf_st *",
   "referenced_type" : "_ZTI7conf_st",
   "self_type" : "_ZTIP7conf_st",
   "size" : 8,
   "source_file" : "/external/boringssl/src/include/openssl/conf.h"
  },
  {
   "alignment" : 8,
   "linker_set_key" : "_ZTIP7timeval",
   "name" : "timeval *",
   "referenced_type" : "_ZTI7timeval",
   "self_type" : "_ZTIP7timeval",
   "size" : 8,
   "source_file" : "/external/boringssl/src/include/openssl/ssl.h"
  },
  {
   "alignment" : 8,
   "linker_set_key" : "_ZTIP7x509_st",
   "name" : "x509_st *",
   "referenced_type" : "_ZTI7x509_st",
   "self_type" : "_ZTIP7x509_st",
   "size" : 8,
   "source_file" : "/external/boringssl/src/include/openssl/base.h"
  },
  {
   "alignment" : 8,
   "linker_set_key" : "_ZTIP9bignum_st",
   "name" : "bignum_st *",
   "referenced_type" : "_ZTI9bignum_st",
   "self_type" : "_ZTIP9bignum_st",
   "size" : 8,
   "source_file" : "/external/boringssl/src/include/openssl/bn.h"
  },
  {
   "alignment" : 8,
   "linker_set_key" : "_ZTIP9ec_key_st",
   "name" : "ec_key_st *",
   "referenced_type" : "_ZTI9ec_key_st",
   "self_type" : "_ZTIP9ec_key_st",
   "size" : 8,
   "source_file" : "/external/boringssl/src/include/openssl/base.h"
  },
  {
   "alignment" : 8,
   "linker_set_key" : "_ZTIP9engine_st",
   "name" : "engine_st *",
   "referenced_type" : "_ZTI9engine_st",
   "self_type" : "_ZTIP9engine_st",
   "size" : 8,
   "source_file" : "/external/boringssl/src/include/openssl/engine.h"
  },
  {
   "alignment" : 8,
   "linker_set_key" : "_ZTIPF19ssl_verify_result_tP6ssl_stPhE",
   "name" : "ssl_verify_result_t (*)(ssl_st *, unsigned char *)",
   "referenced_type" : "_ZTIF19ssl_verify_result_tP6ssl_stPhE",
   "self_type" : "_ZTIPF19ssl_verify_result_tP6ssl_stPhE",
   "size" : 8,
   "source_file" : "/external/boringssl/src/include/openssl/ssl.h"
  },
  {
   "alignment" : 8,
   "linker_set_key" : "_ZTIPF24ssl_private_key_result_tP6ssl_stPhPmmE",
   "name" : "ssl_private_key_result_t (*)(ssl_st *, unsigned char *, unsigned long *, unsigned long)",
   "referenced_type" : "_ZTIF24ssl_private_key_result_tP6ssl_stPhPmmE",
   "self_type" : "_ZTIPF24ssl_private_key_result_tP6ssl_stPhPmmE",
   "size" : 8,
   "source_file" : "/external/boringssl/src/include/openssl/ssl.h"
  },
  {
   "alignment" : 8,
   "linker_set_key" : "_ZTIPF24ssl_private_key_result_tP6ssl_stPhPmmPKhmE",
   "name" : "ssl_private_key_result_t (*)(ssl_st *, unsigned char *, unsigned long *, unsigned long, const unsigned char *, unsigned long)",
   "referenced_type" : "_ZTIF24ssl_private_key_result_tP6ssl_stPhPmmPKhmE",
   "self_type" : "_ZTIPF24ssl_private_key_result_tP6ssl_stPhPmmPKhmE",
   "size" : 8,
   "source_file" : "/external/boringssl/src/include/openssl/ssl.h"
  },
  {
   "alignment" : 8,
   "linker_set_key" : "_ZTIPF24ssl_private_key_result_tP6ssl_stPhPmmtPKhmE",
   "name" : "ssl_private_key_result_t (*)(ssl_st *, unsigned char *, unsigned long *, unsigned long, unsigned short, const unsigned char *, unsigned long)",
   "referenced_type" : "_ZTIF24ssl_private_key_result_tP6ssl_stPhPmmtPKhmE",
   "self_type" : "_ZTIPF24ssl_private_key_result_tP6ssl_stPhPmmtPKhmE",
   "size" : 8,
   "source_file" : "/external/boringssl/src/include/openssl/ssl.h"
  },
  {
   "alignment" : 8,
   "linker_set_key" : "_ZTIPF24ssl_select_cert_result_tPK22ssl_early_callback_ctxE",
   "name" : "ssl_select_cert_result_t (*)(const ssl_early_callback_ctx *)",
   "referenced_type" : "_ZTIF24ssl_select_cert_result_tPK22ssl_early_callback_ctxE",
   "self_type" : "_ZTIPF24ssl_select_cert_result_tPK22ssl_early_callback_ctxE",
   "size" : 8,
   "source_file" : "/external/boringssl/src/include/openssl/ssl.h"
  },
  {
   "alignment" : 8,
   "linker_set_key" : "_ZTIPF24ssl_ticket_aead_result_tP6ssl_stPhPmmPKhmE",
   "name" : "ssl_ticket_aead_result_t (*)(ssl_st *, unsigned char *, unsigned long *, unsigned long, const unsigned char *, unsigned long)",
   "referenced_type" : "_ZTIF24ssl_ticket_aead_result_tP6ssl_stPhPmmPKhmE",
   "self_type" : "_ZTIPF24ssl_ticket_aead_result_tP6ssl_stPhPmmPKhmE",
   "size" : 8,
   "source_file" : "/external/boringssl/src/include/openssl/ssl.h"
  },
  {
   "alignment" : 8,
   "linker_set_key" : "_ZTIPFP11SXNET_ID_stS0_E",
   "name" : "SXNET_ID_st *(*)(SXNET_ID_st *)",
   "referenced_type" : "_ZTIFP11SXNET_ID_stS0_E",
   "self_type" : "_ZTIPFP11SXNET_ID_stS0_E",
   "size" : 8,
   "source_file" : "/external/boringssl/src/include/openssl/x509v3.h"
  },
  {
   "alignment" : 8,
   "linker_set_key" : "_ZTIPFP11X509_crl_stS0_E",
   "name" : "X509_crl_st *(*)(X509_crl_st *)",
   "referenced_type" : "_ZTIFP11X509_crl_stS0_E",
   "self_type" : "_ZTIPFP11X509_crl_stS0_E",
   "size" : 8,
   "source_file" : "/external/boringssl/src/include/openssl/x509.h"
  },
  {
   "alignment" : 8,
   "linker_set_key" : "_ZTIPFP11ssl_comp_stS0_E",
   "name" : "ssl_comp_st *(*)(ssl_comp_st *)",
   "referenced_type" : "_ZTIFP11ssl_comp_stS0_E",
   "self_type" : "_ZTIPFP11ssl_comp_stS0_E",
   "size" : 8,
   "source_file" : "/external/boringssl/src/include/openssl/ssl.h"
  },
  {
   "alignment" : 8,
   "linker_set_key" : "_ZTIPFP12X509_info_stS0_E",
   "name" : "X509_info_st *(*)(X509_info_st *)",
   "referenced_type" : "_ZTIFP12X509_info_stS0_E",
   "self_type" : "_ZTIPFP12X509_info_stS0_E",
   "size" : 8,
   "source_file" : "/external/boringssl/src/include/openssl/x509.h"
  },
  {
   "alignment" : 8,
   "linker_set_key" : "_ZTIPFP12X509_name_stS0_E",
   "name" : "X509_name_st *(*)(X509_name_st *)",
   "referenced_type" : "_ZTIFP12X509_name_stS0_E",
   "self_type" : "_ZTIPFP12X509_name_stS0_E",
   "size" : 8,
   "source_file" : "/external/boringssl/src/include/openssl/x509.h"
  },
  {
   "alignment" : 8,
   "linker_set_key" : "_ZTIPFP12asn1_type_stS0_E",
   "name" : "asn1_type_st *(*)(asn1_type_st *)",
   "referenced_type" : "_ZTIFP12asn1_type_stS0_E",
   "self_type" : "_ZTIPFP12asn1_type_stS0_E",
   "size" : 8,
   "source_file" : "/external/boringssl/src/include/openssl/asn1.h"
  },
  {
   "alignment" : 8,
   "linker_set_key" : "_ZTIPFP13DIST_POINT_stS0_E",
   "name" : "DIST_POINT_st *(*)(DIST_POINT_st *)",
   "referenced_type" : "_ZTIFP13DIST_POINT_stS0_E",
   "self_type" : "_ZTIPFP13DIST_POINT_stS0_E",
   "size" : 8,
   "source_file" : "/external/boringssl/src/include/openssl/x509v3.h"
  },
  {
   "alignment" : 8,
   "linker_set_key" : "_ZTIPFP13POLICYINFO_stS0_E",
   "name" : "POLICYINFO_st *(*)(POLICYINFO_st *)",
   "referenced_type" : "_ZTIFP13POLICYINFO_stS0_E",
   "self_type" : "_ZTIPFP13POLICYINFO_stS0_E",
   "size" : 8,
   "source_file" : "/external/boringssl/src/include/openssl/x509v3.h"
  },
  {
   "alignment" : 8,
   "linker_set_key" : "_ZTIPFP13X509_algor_stS0_E",
   "name" : "X509_algor_st *(*)(X509_algor_st *)",
   "referenced_type" : "_ZTIFP13X509_algor_stS0_E",
   "self_type" : "_ZTIPFP13X509_algor_stS0_E",
   "size" : 8,
   "source_file" : "/external/boringssl/src/include/openssl/x509.h"
  },
  {
   "alignment" : 8,
   "linker_set_key" : "_ZTIPFP13conf_value_stS0_E",
   "name" : "conf_value_st *(*)(conf_value_st *)",
   "referenced_type" : "_ZTIFP13conf_value_stS0_E",
   "self_type" : "_ZTIPFP13conf_value_stS0_E",
   "size" : 8,
   "source_file" : "/external/boringssl/src/include/openssl/conf.h"
  },
  {
   "alignment" : 8,
   "linker_set_key" : "_ZTIPFP13stack_st_X509P17x509_store_ctx_stP12X509_name_stE",
   "name" : "stack_st_X509 *(*)(x509_store_ctx_st *, X509_name_st *)",
   "referenced_type" : "_ZTIFP13stack_st_X509P17x509_store_ctx_stP12X509_name_stE",
   "self_type" : "_ZTIPFP13stack_st_X509P17x509_store_ctx_stP12X509_name_stE",
   "size" : 8,
   "source_file" : "/external/boringssl/src/include/openssl/x509_vfy.h"
  },
  {
   "alignment" : 8,
   "linker_set_key" : "_ZTIPFP13v3_ext_methodS0_E",
   "name" : "v3_ext_method *(*)(v3_ext_method *)",
   "referenced_type" : "_ZTIFP13v3_ext_methodS0_E",
   "self_type" : "_ZTIPFP13v3_ext_methodS0_E",
   "size" : 8,
   "source_file" : "/external/boringssl/src/include/openssl/x509v3.h"
  },
  {
   "alignment" : 8,
   "linker_set_key" : "_ZTIPFP13x509_trust_stS0_E",
   "name" : "x509_trust_st *(*)(x509_trust_st *)",
   "referenced_type" : "_ZTIFP13x509_trust_stS0_E",
   "self_type" : "_ZTIPFP13x509_trust_stS0_E",
   "size" : 8,
   "source_file" : "/external/boringssl/src/include/openssl/x509.h"
  },
  {
   "alignment" : 8,
   "linker_set_key" : "_ZTIPFP14asn1_object_stS0_E",
   "name" : "asn1_object_st *(*)(asn1_object_st *)",
   "referenced_type" : "_ZTIFP14asn1_object_stS0_E",
   "self_type" : "_ZTIPFP14asn1_object_stS0_E",
   "size" : 8,
   "source_file" : "/external/boringssl/src/include/openssl/asn1.h"
  },
  {
   "alignment" : 8,
   "linker_set_key" : "_ZTIPFP14asn1_string_stS0_E",
   "name" : "asn1_string_st *(*)(asn1_string_st *)",
   "referenced_type" : "_ZTIFP14asn1_string_stS0_E",
   "self_type" : "_ZTIPFP14asn1_string_stS0_E",
   "size" : 8,
   "source_file" : "/external/boringssl/src/include/openssl/asn1.h"
  },
  {
   "alignment" : 8,
   "linker_set_key" : "_ZTIPFP14ssl_session_stP6ssl_stPKhiPiE",
   "name" : "ssl_session_st *(*)(ssl_st *, const unsigned char *, int, int *)",
   "referenced_type" : "_ZTIFP14ssl_session_stP6ssl_stPKhiPiE",
   "self_type" : "_ZTIPFP14ssl_session_stP6ssl_stPKhiPiE",
   "size" : 8,
   "source_file" : "/external/boringssl/src/include/openssl/ssl.h"
  },
  {
   "alignment" : 8,
   "linker_set_key" : "_ZTIPFP14x509_lookup_stS0_E",
   "name" : "x509_lookup_st *(*)(x509_lookup_st *)",
   "referenced_type" : "_ZTIFP14x509_lookup_stS0_E",
   "self_type" : "_ZTIPFP14x509_lookup_stS0_E",
   "size" : 8,
   "source_file" : "/external/boringssl/src/include/openssl/x509_vfy.h"
  },
  {
   "alignment" : 8,
   "linker_set_key" : "_ZTIPFP14x509_object_stS0_E",
   "name" : "x509_object_st *(*)(x509_object_st *)",
   "referenced_type" : "_ZTIFP14x509_object_stS0_E",
   "self_type" : "_ZTIPFP14x509_object_stS0_E",
   "size" : 8,
   "source_file" : "/external/boringssl/src/include/openssl/x509_vfy.h"
  },
  {
   "alignment" : 8,
   "linker_set_key" : "_ZTIPFP15GENERAL_NAME_stS0_E",
   "name" : "GENERAL_NAME_st *(*)(GENERAL_NAME_st *)",
   "referenced_type" : "_ZTIFP15GENERAL_NAME_stS0_E",
   "self_type" : "_ZTIPFP15GENERAL_NAME_stS0_E",
   "size" : 8,
   "source_file" : "/external/boringssl/src/include/openssl/x509v3.h"
  },
  {
   "alignment" : 8,
   "linker_set_key" : "_ZTIPFP15x509_purpose_stS0_E",
   "name" : "x509_purpose_st *(*)(x509_purpose_st *)",
   "referenced_type" : "_ZTIFP15x509_purpose_stS0_E",
   "self_type" : "_ZTIPFP15x509_purpose_stS0_E",
   "size" : 8,
   "source_file" : "/external/boringssl/src/include/openssl/x509v3.h"
  },
  {
   "alignment" : 8,
   "linker_set_key" : "_ZTIPFP15x509_revoked_stS0_E",
   "name" : "x509_revoked_st *(*)(x509_revoked_st *)",
   "referenced_type" : "_ZTIFP15x509_revoked_stS0_E",
   "self_type" : "_ZTIPFP15x509_revoked_stS0_E",
   "size" : 8,
   "source_file" : "/external/boringssl/src/include/openssl/x509.h"
  },
  {
   "alignment" : 8,
   "linker_set_key" : "_ZTIPFP16crypto_buffer_stS0_E",
   "name" : "crypto_buffer_st *(*)(crypto_buffer_st *)",
   "referenced_type" : "_ZTIFP16crypto_buffer_stS0_E",
   "self_type" : "_ZTIPFP16crypto_buffer_stS0_E",
   "size" : 8,
   "source_file" : "/external/boringssl/src/include/openssl/pool.h"
  },
  {
   "alignment" : 8,
   "linker_set_key" : "_ZTIPFP17POLICYQUALINFO_stS0_E",
   "name" : "POLICYQUALINFO_st *(*)(POLICYQUALINFO_st *)",
   "referenced_type" : "_ZTIFP17POLICYQUALINFO_stS0_E",
   "self_type" : "_ZTIPFP17POLICYQUALINFO_stS0_E",
   "size" : 8,
   "source_file" : "/external/boringssl/src/include/openssl/x509v3.h"
  },
  {
   "alignment" : 8,
   "linker_set_key" : "_ZTIPFP17POLICY_MAPPING_stS0_E",
   "name" : "POLICY_MAPPING_st *(*)(POLICY_MAPPING_st *)",
   "referenced_type" : "_ZTIFP17POLICY_MAPPING_stS0_E",
   "self_type" : "_ZTIPFP17POLICY_MAPPING_stS0_E",
   "size" : 8,
   "source_file" : "/external/boringssl/src/include/openssl/x509v3.h"
  },
  {
   "alignment" : 8,
   "linker_set_key" : "_ZTIPFP17X509_extension_stS0_E",
   "name" : "X509_extension_st *(*)(X509_extension_st *)",
   "referenced_type" : "_ZTIFP17X509_extension_stS0_E",
   "self_type" : "_ZTIPFP17X509_extension_stS0_E",
   "size" : 8,
   "source_file" : "/external/boringssl/src/include/openssl/x509.h"
  },
  {
   "alignment" : 8,
   "linker_set_key" : "_ZTIPFP17stack_st_X509_CRLP17x509_store_ctx_stP12X509_name_stE",
   "name" : "stack_st_X509_CRL *(*)(x509_store_ctx_st *, X509_name_st *)",
   "referenced_type" : "_ZTIFP17stack_st_X509_CRLP17x509_store_ctx_stP12X509_name_stE",
   "self_type" : "_ZTIPFP17stack_st_X509_CRLP17x509_store_ctx_stP12X509_name_stE",
   "size" : 8,
   "source_file" : "/external/boringssl/src/include/openssl/x509_vfy.h"
  },
  {
   "alignment" : 8,
   "linker_set_key" : "_ZTIPFP18GENERAL_SUBTREE_stS0_E",
   "name" : "GENERAL_SUBTREE_st *(*)(GENERAL_SUBTREE_st *)",
   "referenced_type" : "_ZTIFP18GENERAL_SUBTREE_stS0_E",
   "self_type" : "_ZTIPFP18GENERAL_SUBTREE_stS0_E",
   "size" : 8,
   "source_file" : "/external/boringssl/src/include/openssl/x509v3.h"
  },
  {
   "alignment" : 8,
   "linker_set_key" : "_ZTIPFP18X509_name_entry_stS0_E",
   "name" : "X509_name_entry_st *(*)(X509_name_entry_st *)",
   "referenced_type" : "_ZTIFP18X509_name_entry_stS0_E",
   "self_type" : "_ZTIPFP18X509_name_entry_stS0_E",
   "size" : 8,
   "source_file" : "/external/boringssl/src/include/openssl/x509.h"
  },
  {
   "alignment" : 8,
   "linker_set_key" : "_ZTIPFP18x509_attributes_stS0_E",
   "name" : "x509_attributes_st *(*)(x509_attributes_st *)",
   "referenced_type" : "_ZTIFP18x509_attributes_stS0_E",
   "self_type" : "_ZTIPFP18x509_attributes_stS0_E",
   "size" : 8,
   "source_file" : "/external/boringssl/src/include/openssl/x509.h"
  },
  {
   "alignment" : 8,
   "linker_set_key" : "_ZTIPFP19X509_POLICY_NODE_stS0_E",
   "name" : "X509_POLICY_NODE_st *(*)(X509_POLICY_NODE_st *)",
   "referenced_type" : "_ZTIFP19X509_POLICY_NODE_stS0_E",
   "self_type" : "_ZTIPFP19X509_POLICY_NODE_stS0_E",
   "size" : 8,
   "source_file" : "/external/boringssl/src/include/openssl/x509v3.h"
  },
  {
   "alignment" : 8,
   "linker_set_key" : "_ZTIPFP19stack_st_CONF_VALUEPK13v3_ext_methodPvS0_E",
   "name" : "stack_st_CONF_VALUE *(*)(const v3_ext_method *, void *, stack_st_CONF_VALUE *)",
   "referenced_type" : "_ZTIFP19stack_st_CONF_VALUEPK13v3_ext_methodPvS0_E",
   "self_type" : "_ZTIPFP19stack_st_CONF_VALUEPK13v3_ext_methodPvS0_E",
   "size" : 8,
   "source_file" : "/external/boringssl/src/include/openssl/x509v3.h"
  },
  {
   "alignment" : 8,
   "linker_set_key" : "_ZTIPFP19stack_st_CONF_VALUEPvPcE",
   "name" : "stack_st_CONF_VALUE *(*)(void *, char *)",
   "referenced_type" : "_ZTIFP19stack_st_CONF_VALUEPvPcE",
   "self_type" : "_ZTIPFP19stack_st_CONF_VALUEPvPcE",
   "size" : 8,
   "source_file" : "/external/boringssl/src/include/openssl/x509v3.h"
  },
  {
   "alignment" : 8,
   "linker_set_key" : "_ZTIPFP20X509_VERIFY_PARAM_stS0_E",
   "name" : "X509_VERIFY_PARAM_st *(*)(X509_VERIFY_PARAM_st *)",
   "referenced_type" : "_ZTIFP20X509_VERIFY_PARAM_stS0_E",
   "self_type" : "_ZTIPFP20X509_VERIFY_PARAM_stS0_E",
   "size" : 8,
   "source_file" : "/external/boringssl/src/include/openssl/x509_vfy.h"
  },
  {
   "alignment" : 8,
   "linker_set_key" : "_ZTIPFP21ACCESS_DESCRIPTION_stS0_E",
   "name" : "ACCESS_DESCRIPTION_st *(*)(ACCESS_DESCRIPTION_st *)",
   "referenced_type" : "_ZTIFP21ACCESS_DESCRIPTION_stS0_E",
   "self_type" : "_ZTIPFP21ACCESS_DESCRIPTION_stS0_E",
   "size" : 8,
   "source_file" : "/external/boringssl/src/include/openssl/x509v3.h"
  },
  {
   "alignment" : 8,
   "linker_set_key" : "_ZTIPFP21stack_st_GENERAL_NAMES0_E",
   "name" : "stack_st_GENERAL_NAME *(*)(stack_st_GENERAL_NAME *)",
   "referenced_type" : "_ZTIFP21stack_st_GENERAL_NAMES0_E",
   "self_type" : "_ZTIPFP21stack_st_GENERAL_NAMES0_E",
   "size" : 8,
   "source_file" : "/external/boringssl/src/include/openssl/x509v3.h"
  },
  {
   "alignment" : 8,
   "linker_set_key" : "_ZTIPFP5dh_stP6ssl_stiiE",
   "name" : "dh_st *(*)(ssl_st *, int, int)",
   "referenced_type" : "_ZTIFP5dh_stP6ssl_stiiE",
   "self_type" : "_ZTIPFP5dh_stP6ssl_stiiE",
   "size" : 8,
   "source_file" : "/external/boringssl/src/include/openssl/ssl.h"
  },
  {
   "alignment" : 8,
   "linker_set_key" : "_ZTIPFP6bio_stS0_E",
   "name" : "bio_st *(*)(bio_st *)",
   "referenced_type" : "_ZTIFP6bio_stS0_E",
   "self_type" : "_ZTIPFP6bio_stS0_E",
   "size" : 8,
   "source_file" : "/external/boringssl/src/include/openssl/bio.h"
  },
  {
   "alignment" : 8,
   "linker_set_key" : "_ZTIPFP6rsa_stP6ssl_stiiE",
   "name" : "rsa_st *(*)(ssl_st *, int, int)",
   "referenced_type" : "_ZTIFP6rsa_stP6ssl_stiiE",
   "self_type" : "_ZTIPFP6rsa_stP6ssl_stiiE",
   "size" : 8,
   "source_file" : "/external/boringssl/src/include/openssl/ssl.h"
  },
  {
   "alignment" : 8,
   "linker_set_key" : "_ZTIPFP7x509_stS0_E",
   "name" : "x509_st *(*)(x509_st *)",
   "referenced_type" : "_ZTIFP7x509_stS0_E",
   "self_type" : "_ZTIPFP7x509_stS0_E",
   "size" : 8,
   "source_file" : "/external/boringssl/src/include/openssl/x509.h"
  },
  {
   "alignment" : 8,
   "linker_set_key" : "_ZTIPFPK13ssl_cipher_stS1_E",
   "name" : "const ssl_cipher_st *(*)(const ssl_cipher_st *)",
   "referenced_type" : "_ZTIFPK13ssl_cipher_stS1_E",
   "self_type" : "_ZTIPFPK13ssl_cipher_stS1_E",
   "size" : 8,
   "source_file" : "/external/boringssl/src/include/openssl/ssl.h"
  },
  {
   "alignment" : 8,
   "linker_set_key" : "_ZTIPFPK26srtp_protection_profile_stS1_E",
   "name" : "const srtp_protection_profile_st *(*)(const srtp_protection_profile_st *)",
   "referenced_type" : "_ZTIFPK26srtp_protection_profile_stS1_E",
   "self_type" : "_ZTIPFPK26srtp_protection_profile_stS1_E",
   "size" : 8,
   "source_file" : "/external/boringssl/src/include/openssl/ssl.h"
  },
  {
   "alignment" : 8,
   "linker_set_key" : "_ZTIPFPcPK13v3_ext_methodPvE",
   "name" : "char *(*)(const v3_ext_method *, void *)",
   "referenced_type" : "_ZTIFPcPK13v3_ext_methodPvE",
   "self_type" : "_ZTIPFPcPK13v3_ext_methodPvE",
   "size" : 8,
   "source_file" : "/external/boringssl/src/include/openssl/x509v3.h"
  },
  {
   "alignment" : 8,
   "linker_set_key" : "_ZTIPFPcPvS_S_E",
   "name" : "char *(*)(void *, char *, char *)",
   "referenced_type" : "_ZTIFPcPvS_S_E",
   "self_type" : "_ZTIPFPcPvS_S_E",
   "size" : 8,
   "source_file" : "/external/boringssl/src/include/openssl/x509v3.h"
  },
  {
   "alignment" : 8,
   "linker_set_key" : "_ZTIPFPcS_E",
   "name" : "char *(*)(char *)",
   "referenced_type" : "_ZTIFPcS_E",
   "self_type" : "_ZTIPFPcS_E",
   "size" : 8,
   "source_file" : "/external/boringssl/src/include/openssl/stack.h"
  },
  {
   "alignment" : 8,
   "linker_set_key" : "_ZTIPFPvPK13v3_ext_methodP10v3_ext_ctxP19stack_st_CONF_VALUEE",
   "name" : "void *(*)(const v3_ext_method *, v3_ext_ctx *, stack_st_CONF_VALUE *)",
   "referenced_type" : "_ZTIFPvPK13v3_ext_methodP10v3_ext_ctxP19stack_st_CONF_VALUEE",
   "self_type" : "_ZTIPFPvPK13v3_ext_methodP10v3_ext_ctxP19stack_st_CONF_VALUEE",
   "size" : 8,
   "source_file" : "/external/boringssl/src/include/openssl/x509v3.h"
  },
  {
   "alignment" : 8,
   "linker_set_key" : "_ZTIPFPvPK13v3_ext_methodP10v3_ext_ctxPKcE",
   "name" : "void *(*)(const v3_ext_method *, v3_ext_ctx *, const char *)",
   "referenced_type" : "_ZTIFPvPK13v3_ext_methodP10v3_ext_ctxPKcE",
   "self_type" : "_ZTIPFPvPK13v3_ext_methodP10v3_ext_ctxPKcE",
   "size" : 8,
   "source_file" : "/external/boringssl/src/include/openssl/x509v3.h"
  },
  {
   "alignment" : 8,
   "linker_set_key" : "_ZTIPFPvS_E",
   "name" : "void *(*)(void *)",
   "referenced_type" : "_ZTIFPvS_E",
   "self_type" : "_ZTIPFPvS_E",
   "size" : 8,
   "source_file" : "/external/boringssl/src/include/openssl/stack.h"
  },
  {
   "alignment" : 8,
   "linker_set_key" : "_ZTIPFPvS_PPKhlE",
   "name" : "void *(*)(void *, const unsigned char **, long)",
   "referenced_type" : "_ZTIFPvS_PPKhlE",
   "self_type" : "_ZTIPFPvS_PPKhlE",
   "size" : 8,
   "source_file" : "/external/boringssl/src/include/openssl/x509v3.h"
  },
  {
   "alignment" : 8,
   "linker_set_key" : "_ZTIPFPvvE",
   "name" : "void *(*)()",
   "referenced_type" : "_ZTIFPvvE",
   "self_type" : "_ZTIPFPvvE",
   "size" : 8,
   "source_file" : "/external/boringssl/src/include/openssl/x509v3.h"
  },
  {
   "alignment" : 8,
   "linker_set_key" : "_ZTIPFiP13x509_trust_stP7x509_stiE",
   "name" : "int (*)(x509_trust_st *, x509_st *, int)",
   "referenced_type" : "_ZTIFiP13x509_trust_stP7x509_stiE",
   "self_type" : "_ZTIPFiP13x509_trust_stP7x509_stiE",
   "size" : 8,
   "source_file" : "/external/boringssl/src/include/openssl/x509.h"
  },
  {
   "alignment" : 8,
   "linker_set_key" : "_ZTIPFiP14x509_lookup_stE",
   "name" : "int (*)(x509_lookup_st *)",
   "referenced_type" : "_ZTIFiP14x509_lookup_stE",
   "self_type" : "_ZTIPFiP14x509_lookup_stE",
   "size" : 8,
   "source_file" : "/external/boringssl/src/include/openssl/x509_vfy.h"
  },
  {
   "alignment" : 8,
   "linker_set_key" : "_ZTIPFiP14x509_lookup_stiP12X509_name_stP14asn1_string_stP14x509_object_stE",
   "name" : "int (*)(x509_lookup_st *, int, X509_name_st *, asn1_string_st *, x509_object_st *)",
   "referenced_type" : "_ZTIFiP14x509_lookup_stiP12X509_name_stP14asn1_string_stP14x509_object_stE",
   "self_type" : "_ZTIPFiP14x509_lookup_stiP12X509_name_stP14asn1_string_stP14x509_object_stE",
   "size" : 8,
   "source_file" : "/external/boringssl/src/include/openssl/x509_vfy.h"
  },
  {
   "alignment" : 8,
   "linker_set_key" : "_ZTIPFiP14x509_lookup_stiP12X509_name_stP14x509_object_stE",
   "name" : "int (*)(x509_lookup_st *, int, X509_name_st *, x509_object_st *)",
   "referenced_type" : "_ZTIFiP14x509_lookup_stiP12X509_name_stP14x509_object_stE",
   "self_type" : "_ZTIPFiP14x509_lookup_stiP12X509_name_stP14x509_object_stE",
   "size" : 8,
   "source_file" : "/external/boringssl/src/include/openssl/x509_vfy.h"
  },
  {
   "alignment" : 8,
   "linker_set_key" : "_ZTIPFiP14x509_lookup_stiPKclPPcE",
   "name" : "int (*)(x509_lookup_st *, int, const char *, long, char **)",
   "referenced_type" : "_ZTIFiP14x509_lookup_stiPKclPPcE",
   "self_type" : "_ZTIPFiP14x509_lookup_stiPKclPPcE",
   "size" : 8,
   "source_file" : "/external/boringssl/src/include/openssl/x509_vfy.h"
  },
  {
   "alignment" : 8,
   "linker_set_key" : "_ZTIPFiP14x509_lookup_stiPciP14x509_object_stE",
   "name" : "int (*)(x509_lookup_st *, int, char *, int, x509_object_st *)",
   "referenced_type" : "_ZTIFiP14x509_lookup_stiPciP14x509_object_stE",
   "self_type" : "_ZTIPFiP14x509_lookup_stiPciP14x509_object_stE",
   "size" : 8,
   "source_file" : "/external/boringssl/src/include/openssl/x509_vfy.h"
  },
  {
   "alignment" : 8,
   "linker_set_key" : "_ZTIPFiP14x509_lookup_stiPhiP14x509_object_stE",
   "name" : "int (*)(x509_lookup_st *, int, unsigned char *, int, x509_object_st *)",
   "referenced_type" : "_ZTIFiP14x509_lookup_stiPhiP14x509_object_stE",
   "self_type" : "_ZTIPFiP14x509_lookup_stiPhiP14x509_object_stE",
   "size" : 8,
   "source_file" : "/external/boringssl/src/include/openssl/x509_vfy.h"
  },
  {
   "alignment" : 8,
   "linker_set_key" : "_ZTIPFiP17crypto_ex_data_stPKS_PPvilS3_E",
   "name" : "int (*)(crypto_ex_data_st *, const crypto_ex_data_st *, void **, int, long, void *)",
   "referenced_type" : "_ZTIFiP17crypto_ex_data_stPKS_PPvilS3_E",
   "self_type" : "_ZTIPFiP17crypto_ex_data_stPKS_PPvilS3_E",
   "size" : 8,
   "source_file" : "/external/boringssl/src/include/openssl/ssl.h"
  },
  {
   "alignment" : 8,
   "linker_set_key" : "_ZTIPFiP17evp_cipher_ctx_stPKhS2_iE",
   "name" : "int (*)(evp_cipher_ctx_st *, const unsigned char *, const unsigned char *, int)",
   "referenced_type" : "_ZTIFiP17evp_cipher_ctx_stPKhS2_iE",
   "self_type" : "_ZTIPFiP17evp_cipher_ctx_stPKhS2_iE",
   "size" : 8,
   "source_file" : "/external/boringssl/src/include/openssl/cipher.h"
  },
  {
   "alignment" : 8,
   "linker_set_key" : "_ZTIPFiP17evp_cipher_ctx_stPhPKhmE",
   "name" : "int (*)(evp_cipher_ctx_st *, unsigned char *, const unsigned char *, unsigned long)",
   "referenced_type" : "_ZTIFiP17evp_cipher_ctx_stPhPKhmE",
   "self_type" : "_ZTIPFiP17evp_cipher_ctx_stPhPKhmE",
   "size" : 8,
   "source_file" : "/external/boringssl/src/include/openssl/cipher.h"
  },
  {
   "alignment" : 8,
   "linker_set_key" : "_ZTIPFiP17evp_cipher_ctx_stiiPvE",
   "name" : "int (*)(evp_cipher_ctx_st *, int, int, void *)",
   "referenced_type" : "_ZTIFiP17evp_cipher_ctx_stiiPvE",
   "self_type" : "_ZTIPFiP17evp_cipher_ctx_stiiPvE",
   "size" : 8,
   "source_file" : "/external/boringssl/src/include/openssl/cipher.h"
  },
  {
   "alignment" : 8,
   "linker_set_key" : "_ZTIPFiP17x509_store_ctx_stE",
   "name" : "int (*)(x509_store_ctx_st *)",
   "referenced_type" : "_ZTIFiP17x509_store_ctx_stE",
   "self_type" : "_ZTIPFiP17x509_store_ctx_stE",
   "size" : 8,
   "source_file" : "/external/boringssl/src/include/openssl/x509_vfy.h"
  },
  {
   "alignment" : 8,
   "linker_set_key" : "_ZTIPFiP17x509_store_ctx_stP11X509_crl_stE",
   "name" : "int (*)(x509_store_ctx_st *, X509_crl_st *)",
   "referenced_type" : "_ZTIFiP17x509_store_ctx_stP11X509_crl_stE",
   "self_type" : "_ZTIPFiP17x509_store_ctx_stP11X509_crl_stE",
   "size" : 8,
   "source_file" : "/external/boringssl/src/include/openssl/x509_vfy.h"
  },
  {
   "alignment" : 8,
   "linker_set_key" : "_ZTIPFiP17x509_store_ctx_stP11X509_crl_stP7x509_stE",
   "name" : "int (*)(x509_store_ctx_st *, X509_crl_st *, x509_st *)",
   "referenced_type" : "_ZTIFiP17x509_store_ctx_stP11X509_crl_stP7x509_stE",
   "self_type" : "_ZTIPFiP17x509_store_ctx_stP11X509_crl_stP7x509_stE",
   "size" : 8,
   "source_file" : "/external/boringssl/src/include/openssl/x509_vfy.h"
  },
  {
   "alignment" : 8,
   "linker_set_key" : "_ZTIPFiP17x509_store_ctx_stP7x509_stS2_E",
   "name" : "int (*)(x509_store_ctx_st *, x509_st *, x509_st *)",
   "referenced_type" : "_ZTIFiP17x509_store_ctx_stP7x509_stS2_E",
   "self_type" : "_ZTIPFiP17x509_store_ctx_stP7x509_stS2_E",
   "size" : 8,
   "source_file" : "/external/boringssl/src/include/openssl/x509_vfy.h"
  },
  {
   "alignment" : 8,
   "linker_set_key" : "_ZTIPFiP17x509_store_ctx_stPP11X509_crl_stP7x509_stE",
   "name" : "int (*)(x509_store_ctx_st *, X509_crl_st **, x509_st *)",
   "referenced_type" : "_ZTIFiP17x509_store_ctx_stPP11X509_crl_stP7x509_stE",
   "self_type" : "_ZTIPFiP17x509_store_ctx_stPP11X509_crl_stP7x509_stE",
   "size" : 8,
   "source_file" : "/external/boringssl/src/include/openssl/x509_vfy.h"
  },
  {
   "alignment" : 8,
   "linker_set_key" : "_ZTIPFiP17x509_store_ctx_stPvE",
   "name" : "int (*)(x509_store_ctx_st *, void *)",
   "referenced_type" : "_ZTIFiP17x509_store_ctx_stPvE",
   "self_type" : "_ZTIPFiP17x509_store_ctx_stPvE",
   "size" : 8,
   "source_file" : "/external/boringssl/src/include/openssl/ssl.h"
  },
  {
   "alignment" : 8,
   "linker_set_key" : "_ZTIPFiP6bio_stE",
   "name" : "int (*)(bio_st *)",
   "referenced_type" : "_ZTIFiP6bio_stE",
   "self_type" : "_ZTIPFiP6bio_stE",
   "size" : 8,
   "source_file" : "/external/boringssl/src/include/openssl/bio.h"
  },
  {
   "alignment" : 8,
   "linker_set_key" : "_ZTIPFiP6bio_stPKcE",
   "name" : "int (*)(bio_st *, const char *)",
   "referenced_type" : "_ZTIFiP6bio_stPKcE",
   "self_type" : "_ZTIPFiP6bio_stPKcE",
   "size" : 8,
   "source_file" : "/external/boringssl/src/include/openssl/bio.h"
  },
  {
   "alignment" : 8,
   "linker_set_key" : "_ZTIPFiP6bio_stPKciE",
   "name" : "int (*)(bio_st *, const char *, int)",
   "referenced_type" : "_ZTIFiP6bio_stPKciE",
   "self_type" : "_ZTIPFiP6bio_stPKciE",
   "size" : 8,
   "source_file" : "/external/boringssl/src/include/openssl/bio.h"
  },
  {
   "alignment" : 8,
   "linker_set_key" : "_ZTIPFiP6bio_stPciE",
   "name" : "int (*)(bio_st *, char *, int)",
   "referenced_type" : "_ZTIFiP6bio_stPciE",
   "self_type" : "_ZTIPFiP6bio_stPciE",
   "size" : 8,
   "source_file" : "/external/boringssl/src/include/openssl/bio.h"
  },
  {
   "alignment" : 8,
   "linker_set_key" : "_ZTIPFiP6rsa_stE",
   "name" : "int (*)(rsa_st *)",
   "referenced_type" : "_ZTIFiP6rsa_stE",
   "self_type" : "_ZTIPFiP6rsa_stE",
   "size" : 8,
   "source_file" : "/external/boringssl/src/include/openssl/rsa.h"
  },
  {
   "alignment" : 8,
   "linker_set_key" : "_ZTIPFiP6rsa_stPhPKhmE",
   "name" : "int (*)(rsa_st *, unsigned char *, const unsigned char *, unsigned long)",
   "referenced_type" : "_ZTIFiP6rsa_stPhPKhmE",
   "self_type" : "_ZTIPFiP6rsa_stPhPKhmE",
   "size" : 8,
   "source_file" : "/external/boringssl/src/include/openssl/rsa.h"
  },
  {
   "alignment" : 8,
   "linker_set_key" : "_ZTIPFiP6rsa_stPmPhmPKhmiE",
   "name" : "int (*)(rsa_st *, unsigned long *, unsigned char *, unsigned long, const unsigned char *, unsigned long, int)",
   "referenced_type" : "_ZTIFiP6rsa_stPmPhmPKhmiE",
   "self_type" : "_ZTIPFiP6rsa_stPmPhmPKhmiE",
   "size" : 8,
   "source_file" : "/external/boringssl/src/include/openssl/rsa.h"
  },
  {
   "alignment" : 8,
   "linker_set_key" : "_ZTIPFiP6ssl_st22ssl_encryption_level_tPKhS3_mE",
   "name" : "int (*)(ssl_st *, ssl_encryption_level_t, const unsigned char *, const unsigned char *, unsigned long)",
   "referenced_type" : "_ZTIFiP6ssl_st22ssl_encryption_level_tPKhS3_mE",
   "self_type" : "_ZTIPFiP6ssl_st22ssl_encryption_level_tPKhS3_mE",
   "size" : 8,
   "source_file" : "/external/boringssl/src/include/openssl/ssl.h"
  },
  {
   "alignment" : 8,
   "linker_set_key" : "_ZTIPFiP6ssl_st22ssl_encryption_level_tPKhmE",
   "name" : "int (*)(ssl_st *, ssl_encryption_level_t, const unsigned char *, unsigned long)",
   "referenced_type" : "_ZTIFiP6ssl_st22ssl_encryption_level_tPKhmE",
   "self_type" : "_ZTIPFiP6ssl_st22ssl_encryption_level_tPKhmE",
   "size" : 8,
   "source_file" : "/external/boringssl/src/include/openssl/ssl.h"
  },
  {
   "alignment" : 8,
   "linker_set_key" : "_ZTIPFiP6ssl_st22ssl_encryption_level_thE",
   "name" : "int (*)(ssl_st *, ssl_encryption_level_t, unsigned char)",
   "referenced_type" : "_ZTIFiP6ssl_st22ssl_encryption_level_thE",
   "self_type" : "_ZTIPFiP6ssl_st22ssl_encryption_level_thE",
   "size" : 8,
   "source_file" : "/external/boringssl/src/include/openssl/ssl.h"
  },
  {
   "alignment" : 8,
   "linker_set_key" : "_ZTIPFiP6ssl_stE",
   "name" : "int (*)(ssl_st *)",
   "referenced_type" : "_ZTIFiP6ssl_stE",
   "self_type" : "_ZTIPFiP6ssl_stE",
   "size" : 8,
   "source_file" : "/external/boringssl/src/include/openssl/ssl.h"
  },
  {
   "alignment" : 8,
   "linker_set_key" : "_ZTIPFiP6ssl_stP14ssl_session_stE",
   "name" : "int (*)(ssl_st *, ssl_session_st *)",
   "referenced_type" : "_ZTIFiP6ssl_stP14ssl_session_stE",
   "self_type" : "_ZTIPFiP6ssl_stP14ssl_session_stE",
   "size" : 8,
   "source_file" : "/external/boringssl/src/include/openssl/ssl.h"
  },
  {
   "alignment" : 8,
   "linker_set_key" : "_ZTIPFiP6ssl_stP6cbb_stPKhmE",
   "name" : "int (*)(ssl_st *, cbb_st *, const unsigned char *, unsigned long)",
   "referenced_type" : "_ZTIFiP6ssl_stP6cbb_stPKhmE",
   "self_type" : "_ZTIPFiP6ssl_stP6cbb_stPKhmE",
   "size" : 8,
   "source_file" : "/external/boringssl/src/include/openssl/ssl.h"
  },
  {
   "alignment" : 8,
   "linker_set_key" : "_ZTIPFiP6ssl_stPP16crypto_buffer_stmPKhmE",
   "name" : "int (*)(ssl_st *, crypto_buffer_st **, unsigned long, const unsigned char *, unsigned long)",
   "referenced_type" : "_ZTIFiP6ssl_stPP16crypto_buffer_stmPKhmE",
   "self_type" : "_ZTIPFiP6ssl_stPP16crypto_buffer_stmPKhmE",
   "size" : 8,
   "source_file" : "/external/boringssl/src/include/openssl/ssl.h"
  },
  {
   "alignment" : 8,
   "linker_set_key" : "_ZTIPFiP6ssl_stPP7x509_stPP11evp_pkey_stE",
   "name" : "int (*)(ssl_st *, x509_st **, evp_pkey_st **)",
   "referenced_type" : "_ZTIFiP6ssl_stPP7x509_stPP11evp_pkey_stE",
   "self_type" : "_ZTIPFiP6ssl_stPP7x509_stPP11evp_pkey_stE",
   "size" : 8,
   "source_file" : "/external/boringssl/src/include/openssl/ssl.h"
  },
  {
   "alignment" : 8,
   "linker_set_key" : "_ZTIPFiP6ssl_stPPKhPhS2_jPvE",
   "name" : "int (*)(ssl_st *, const unsigned char **, unsigned char *, const unsigned char *, unsigned int, void *)",
   "referenced_type" : "_ZTIFiP6ssl_stPPKhPhS2_jPvE",
   "self_type" : "_ZTIPFiP6ssl_stPPKhPhS2_jPvE",
   "size" : 8,
   "source_file" : "/external/boringssl/src/include/openssl/ssl.h"
  },
  {
   "alignment" : 8,
   "linker_set_key" : "_ZTIPFiP6ssl_stPPKhPjPvE",
   "name" : "int (*)(ssl_st *, const unsigned char **, unsigned int *, void *)",
   "referenced_type" : "_ZTIFiP6ssl_stPPKhPjPvE",
   "self_type" : "_ZTIPFiP6ssl_stPPKhPjPvE",
   "size" : 8,
   "source_file" : "/external/boringssl/src/include/openssl/ssl.h"
  },
  {
   "alignment" : 8,
   "linker_set_key" : "_ZTIPFiP6ssl_stPPhS1_PKhjPvE",
   "name" : "int (*)(ssl_st *, unsigned char **, unsigned char *, const unsigned char *, unsigned int, void *)",
   "referenced_type" : "_ZTIFiP6ssl_stPPhS1_PKhjPvE",
   "self_type" : "_ZTIPFiP6ssl_stPPhS1_PKhjPvE",
   "size" : 8,
   "source_file" : "/external/boringssl/src/include/openssl/ssl.h"
  },
  {
   "alignment" : 8,
   "linker_set_key" : "_ZTIPFiP6ssl_stPhPmmPKhmE",
   "name" : "int (*)(ssl_st *, unsigned char *, unsigned long *, unsigned long, const unsigned char *, unsigned long)",
   "referenced_type" : "_ZTIFiP6ssl_stPhPmmPKhmE",
   "self_type" : "_ZTIPFiP6ssl_stPhPmmPKhmE",
   "size" : 8,
   "source_file" : "/external/boringssl/src/include/openssl/ssl.h"
  },
  {
   "alignment" : 8,
   "linker_set_key" : "_ZTIPFiP6ssl_stPhS1_P17evp_cipher_ctx_stP11hmac_ctx_stiE",
   "name" : "int (*)(ssl_st *, unsigned char *, unsigned char *, evp_cipher_ctx_st *, hmac_ctx_st *, int)",
   "referenced_type" : "_ZTIFiP6ssl_stPhS1_P17evp_cipher_ctx_stP11hmac_ctx_stiE",
   "self_type" : "_ZTIPFiP6ssl_stPhS1_P17evp_cipher_ctx_stP11hmac_ctx_stiE",
   "size" : 8,
   "source_file" : "/external/boringssl/src/include/openssl/ssl.h"
  },
  {
   "alignment" : 8,
   "linker_set_key" : "_ZTIPFiP6ssl_stPiPvE",
   "name" : "int (*)(ssl_st *, int *, void *)",
   "referenced_type" : "_ZTIFiP6ssl_stPiPvE",
   "self_type" : "_ZTIPFiP6ssl_stPiPvE",
   "size" : 8,
   "source_file" : "/external/boringssl/src/include/openssl/ssl.h"
  },
  {
   "alignment" : 8,
   "linker_set_key" : "_ZTIPFiP6ssl_stPvE",
   "name" : "int (*)(ssl_st *, void *)",
   "referenced_type" : "_ZTIFiP6ssl_stPvE",
   "self_type" : "_ZTIPFiP6ssl_stPvE",
   "size" : 8,
   "source_file" : "/external/boringssl/src/include/openssl/ssl.h"
  },
  {
   "alignment" : 8,
   "linker_set_key" : "_ZTIPFiP9ec_key_stE",
   "name" : "int (*)(ec_key_st *)",
   "referenced_type" : "_ZTIFiP9ec_key_stE",
   "self_type" : "_ZTIPFiP9ec_key_stE",
   "size" : 8,
   "source_file" : "/external/boringssl/src/include/openssl/ec_key.h"
  },
  {
   "alignment" : 8,
   "linker_set_key" : "_ZTIPFiPK13v3_ext_methodPvP6bio_stiE",
   "name" : "int (*)(const v3_ext_method *, void *, bio_st *, int)",
   "referenced_type" : "_ZTIFiPK13v3_ext_methodPvP6bio_stiE",
   "self_type" : "_ZTIPFiPK13v3_ext_methodPvP6bio_stiE",
   "size" : 8,
   "source_file" : "/external/boringssl/src/include/openssl/x509v3.h"
  },
  {
   "alignment" : 8,
   "linker_set_key" : "_ZTIPFiPK15x509_purpose_stPK7x509_stiE",
   "name" : "int (*)(const x509_purpose_st *, const x509_st *, int)",
   "referenced_type" : "_ZTIFiPK15x509_purpose_stPK7x509_stiE",
   "self_type" : "_ZTIPFiPK15x509_purpose_stPK7x509_stiE",
   "size" : 8,
   "source_file" : "/external/boringssl/src/include/openssl/x509v3.h"
  },
  {
   "alignment" : 8,
   "linker_set_key" : "_ZTIPFiPK22ssl_early_callback_ctxE",
   "name" : "int (*)(const ssl_early_callback_ctx *)",
   "referenced_type" : "_ZTIFiPK22ssl_early_callback_ctxE",
   "self_type" : "_ZTIPFiPK22ssl_early_callback_ctxE",
   "size" : 8,
   "source_file" : "/external/boringssl/src/include/openssl/ssl.h"
  },
  {
   "alignment" : 8,
   "linker_set_key" : "_ZTIPFiPKPcS1_E",
   "name" : "int (*)(char *const *, char *const *)",
   "referenced_type" : "_ZTIFiPKPcS1_E",
   "self_type" : "_ZTIPFiPKPcS1_E",
   "size" : 8,
   "source_file" : "/external/boringssl/src/include/openssl/stack.h"
  },
  {
   "alignment" : 8,
   "linker_set_key" : "_ZTIPFiPKhmPhPjP9ec_key_stE",
   "name" : "int (*)(const unsigned char *, unsigned long, unsigned char *, unsigned int *, ec_key_st *)",
   "referenced_type" : "_ZTIFiPKhmPhPjP9ec_key_stE",
   "self_type" : "_ZTIPFiPKhmPhPjP9ec_key_stE",
   "size" : 8,
   "source_file" : "/external/boringssl/src/include/openssl/ec_key.h"
  },
  {
   "alignment" : 8,
   "linker_set_key" : "_ZTIPFiPP7x509_stP17x509_store_ctx_stS0_E",
   "name" : "int (*)(x509_st **, x509_store_ctx_st *, x509_st *)",
   "referenced_type" : "_ZTIFiPP7x509_stP17x509_store_ctx_stS0_E",
   "self_type" : "_ZTIPFiPP7x509_stP17x509_store_ctx_stS0_E",
   "size" : 8,
   "source_file" : "/external/boringssl/src/include/openssl/x509_vfy.h"
  },
  {
   "alignment" : 8,
   "linker_set_key" : "_ZTIPFiPPK11SXNET_ID_stS2_E",
   "name" : "int (*)(const SXNET_ID_st **, const SXNET_ID_st **)",
   "referenced_type" : "_ZTIFiPPK11SXNET_ID_stS2_E",
   "self_type" : "_ZTIPFiPPK11SXNET_ID_stS2_E",
   "size" : 8,
   "source_file" : "/external/boringssl/src/include/openssl/x509v3.h"
  },
  {
   "alignment" : 8,
   "linker_set_key" : "_ZTIPFiPPK11X509_crl_stS2_E",
   "name" : "int (*)(const X509_crl_st **, const X509_crl_st **)",
   "referenced_type" : "_ZTIFiPPK11X509_crl_stS2_E",
   "self_type" : "_ZTIPFiPPK11X509_crl_stS2_E",
   "size" : 8,
   "source_file" : "/external/boringssl/src/include/openssl/x509.h"
  },
  {
   "alignment" : 8,
   "linker_set_key" : "_ZTIPFiPPK11ssl_comp_stS2_E",
   "name" : "int (*)(const ssl_comp_st **, const ssl_comp_st **)",
   "referenced_type" : "_ZTIFiPPK11ssl_comp_stS2_E",
   "self_type" : "_ZTIPFiPPK11ssl_comp_stS2_E",
   "size" : 8,
   "source_file" : "/external/boringssl/src/include/openssl/ssl.h"
  },
  {
   "alignment" : 8,
   "linker_set_key" : "_ZTIPFiPPK12X509_info_stS2_E",
   "name" : "int (*)(const X509_info_st **, const X509_info_st **)",
   "referenced_type" : "_ZTIFiPPK12X509_info_stS2_E",
   "self_type" : "_ZTIPFiPPK12X509_info_stS2_E",
   "size" : 8,
   "source_file" : "/external/boringssl/src/include/openssl/x509.h"
  },
  {
   "alignment" : 8,
   "linker_set_key" : "_ZTIPFiPPK12X509_name_stS2_E",
   "name" : "int (*)(const X509_name_st **, const X509_name_st **)",
   "referenced_type" : "_ZTIFiPPK12X509_name_stS2_E",
   "self_type" : "_ZTIPFiPPK12X509_name_stS2_E",
   "size" : 8,
   "source_file" : "/external/boringssl/src/include/openssl/x509.h"
  },
  {
   "alignment" : 8,
   "linker_set_key" : "_ZTIPFiPPK12asn1_type_stS2_E",
   "name" : "int (*)(const asn1_type_st **, const asn1_type_st **)",
   "referenced_type" : "_ZTIFiPPK12asn1_type_stS2_E",
   "self_type" : "_ZTIPFiPPK12asn1_type_stS2_E",
   "size" : 8,
   "source_file" : "/external/boringssl/src/include/openssl/asn1.h"
  },
  {
   "alignment" : 8,
   "linker_set_key" : "_ZTIPFiPPK13DIST_POINT_stS2_E",
   "name" : "int (*)(const DIST_POINT_st **, const DIST_POINT_st **)",
   "referenced_type" : "_ZTIFiPPK13DIST_POINT_stS2_E",
   "self_type" : "_ZTIPFiPPK13DIST_POINT_stS2_E",
   "size" : 8,
   "source_file" : "/external/boringssl/src/include/openssl/x509v3.h"
  },
  {
   "alignment" : 8,
   "linker_set_key" : "_ZTIPFiPPK13POLICYINFO_stS2_E",
   "name" : "int (*)(const POLICYINFO_st **, const POLICYINFO_st **)",
   "referenced_type" : "_ZTIFiPPK13POLICYINFO_stS2_E",
   "self_type" : "_ZTIPFiPPK13POLICYINFO_stS2_E",
   "size" : 8,
   "source_file" : "/external/boringssl/src/include/openssl/x509v3.h"
  },
  {
   "alignment" : 8,
   "linker_set_key" : "_ZTIPFiPPK13X509_algor_stS2_E",
   "name" : "int (*)(const X509_algor_st **, const X509_algor_st **)",
   "referenced_type" : "_ZTIFiPPK13X509_algor_stS2_E",
   "self_type" : "_ZTIPFiPPK13X509_algor_stS2_E",
   "size" : 8,
   "source_file" : "/external/boringssl/src/include/openssl/x509.h"
  },
  {
   "alignment" : 8,
   "linker_set_key" : "_ZTIPFiPPK13conf_value_stS2_E",
   "name" : "int (*)(const conf_value_st **, const conf_value_st **)",
   "referenced_type" : "_ZTIFiPPK13conf_value_stS2_E",
   "self_type" : "_ZTIPFiPPK13conf_value_stS2_E",
   "size" : 8,
   "source_file" : "/external/boringssl/src/include/openssl/conf.h"
  },
  {
   "alignment" : 8,
   "linker_set_key" : "_ZTIPFiPPK13ssl_cipher_stS2_E",
   "name" : "int (*)(const ssl_cipher_st **, const ssl_cipher_st **)",
   "referenced_type" : "_ZTIFiPPK13ssl_cipher_stS2_E",
   "self_type" : "_ZTIPFiPPK13ssl_cipher_stS2_E",
   "size" : 8,
   "source_file" : "/external/boringssl/src/include/openssl/ssl.h"
  },
  {
   "alignment" : 8,
   "linker_set_key" : "_ZTIPFiPPK13v3_ext_methodS2_E",
   "name" : "int (*)(const v3_ext_method **, const v3_ext_method **)",
   "referenced_type" : "_ZTIFiPPK13v3_ext_methodS2_E",
   "self_type" : "_ZTIPFiPPK13v3_ext_methodS2_E",
   "size" : 8,
   "source_file" : "/external/boringssl/src/include/openssl/x509v3.h"
  },
  {
   "alignment" : 8,
   "linker_set_key" : "_ZTIPFiPPK13x509_trust_stS2_E",
   "name" : "int (*)(const x509_trust_st **, const x509_trust_st **)",
   "referenced_type" : "_ZTIFiPPK13x509_trust_stS2_E",
   "self_type" : "_ZTIPFiPPK13x509_trust_stS2_E",
   "size" : 8,
   "source_file" : "/external/boringssl/src/include/openssl/x509.h"
  },
  {
   "alignment" : 8,
   "linker_set_key" : "_ZTIPFiPPK14asn1_object_stS2_E",
   "name" : "int (*)(const asn1_object_st **, const asn1_object_st **)",
   "referenced_type" : "_ZTIFiPPK14asn1_object_stS2_E",
   "self_type" : "_ZTIPFiPPK14asn1_object_stS2_E",
   "size" : 8,
   "source_file" : "/external/boringssl/src/include/openssl/asn1.h"
  },
  {
   "alignment" : 8,
   "linker_set_key" : "_ZTIPFiPPK14asn1_string_stS2_E",
   "name" : "int (*)(const asn1_string_st **, const asn1_string_st **)",
   "referenced_type" : "_ZTIFiPPK14asn1_string_stS2_E",
   "self_type" : "_ZTIPFiPPK14asn1_string_stS2_E",
   "size" : 8,
   "source_file" : "/external/boringssl/src/include/openssl/asn1.h"
  },
  {
   "alignment" : 8,
   "linker_set_key" : "_ZTIPFiPPK14x509_lookup_stS2_E",
   "name" : "int (*)(const x509_lookup_st **, const x509_lookup_st **)",
   "referenced_type" : "_ZTIFiPPK14x509_lookup_stS2_E",
   "self_type" : "_ZTIPFiPPK14x509_lookup_stS2_E",
   "size" : 8,
   "source_file" : "/external/boringssl/src/include/openssl/x509_vfy.h"
  },
  {
   "alignment" : 8,
   "linker_set_key" : "_ZTIPFiPPK14x509_object_stS2_E",
   "name" : "int (*)(const x509_object_st **, const x509_object_st **)",
   "referenced_type" : "_ZTIFiPPK14x509_object_stS2_E",
   "self_type" : "_ZTIPFiPPK14x509_object_stS2_E",
   "size" : 8,
   "source_file" : "/external/boringssl/src/include/openssl/x509_vfy.h"
  },
  {
   "alignment" : 8,
   "linker_set_key" : "_ZTIPFiPPK15GENERAL_NAME_stS2_E",
   "name" : "int (*)(const GENERAL_NAME_st **, const GENERAL_NAME_st **)",
   "referenced_type" : "_ZTIFiPPK15GENERAL_NAME_stS2_E",
   "self_type" : "_ZTIPFiPPK15GENERAL_NAME_stS2_E",
   "size" : 8,
   "source_file" : "/external/boringssl/src/include/openssl/x509v3.h"
  },
  {
   "alignment" : 8,
   "linker_set_key" : "_ZTIPFiPPK15x509_purpose_stS2_E",
   "name" : "int (*)(const x509_purpose_st **, const x509_purpose_st **)",
   "referenced_type" : "_ZTIFiPPK15x509_purpose_stS2_E",
   "self_type" : "_ZTIPFiPPK15x509_purpose_stS2_E",
   "size" : 8,
   "source_file" : "/external/boringssl/src/include/openssl/x509v3.h"
  },
  {
   "alignment" : 8,
   "linker_set_key" : "_ZTIPFiPPK15x509_revoked_stS2_E",
   "name" : "int (*)(const x509_revoked_st **, const x509_revoked_st **)",
   "referenced_type" : "_ZTIFiPPK15x509_revoked_stS2_E",
   "self_type" : "_ZTIPFiPPK15x509_revoked_stS2_E",
   "size" : 8,
   "source_file" : "/external/boringssl/src/include/openssl/x509.h"
  },
  {
   "alignment" : 8,
   "linker_set_key" : "_ZTIPFiPPK16crypto_buffer_stS2_E",
   "name" : "int (*)(const crypto_buffer_st **, const crypto_buffer_st **)",
   "referenced_type" : "_ZTIFiPPK16crypto_buffer_stS2_E",
   "self_type" : "_ZTIPFiPPK16crypto_buffer_stS2_E",
   "size" : 8,
   "source_file" : "/external/boringssl/src/include/openssl/pool.h"
  },
  {
   "alignment" : 8,
   "linker_set_key" : "_ZTIPFiPPK17POLICYQUALINFO_stS2_E",
   "name" : "int (*)(const POLICYQUALINFO_st **, const POLICYQUALINFO_st **)",
   "referenced_type" : "_ZTIFiPPK17POLICYQUALINFO_stS2_E",
   "self_type" : "_ZTIPFiPPK17POLICYQUALINFO_stS2_E",
   "size" : 8,
   "source_file" : "/external/boringssl/src/include/openssl/x509v3.h"
  },
  {
   "alignment" : 8,
   "linker_set_key" : "_ZTIPFiPPK17POLICY_MAPPING_stS2_E",
   "name" : "int (*)(const POLICY_MAPPING_st **, const POLICY_MAPPING_st **)",
   "referenced_type" : "_ZTIFiPPK17POLICY_MAPPING_stS2_E",
   "self_type" : "_ZTIPFiPPK17POLICY_MAPPING_stS2_E",
   "size" : 8,
   "source_file" : "/external/boringssl/src/include/openssl/x509v3.h"
  },
  {
   "alignment" : 8,
   "linker_set_key" : "_ZTIPFiPPK17X509_extension_stS2_E",
   "name" : "int (*)(const X509_extension_st **, const X509_extension_st **)",
   "referenced_type" : "_ZTIFiPPK17X509_extension_stS2_E",
   "self_type" : "_ZTIPFiPPK17X509_extension_stS2_E",
   "size" : 8,
   "source_file" : "/external/boringssl/src/include/openssl/x509.h"
  },
  {
   "alignment" : 8,
   "linker_set_key" : "_ZTIPFiPPK18GENERAL_SUBTREE_stS2_E",
   "name" : "int (*)(const GENERAL_SUBTREE_st **, const GENERAL_SUBTREE_st **)",
   "referenced_type" : "_ZTIFiPPK18GENERAL_SUBTREE_stS2_E",
   "self_type" : "_ZTIPFiPPK18GENERAL_SUBTREE_stS2_E",
   "size" : 8,
   "source_file" : "/external/boringssl/src/include/openssl/x509v3.h"
  },
  {
   "alignment" : 8,
   "linker_set_key" : "_ZTIPFiPPK18X509_name_entry_stS2_E",
   "name" : "int (*)(const X509_name_entry_st **, const X509_name_entry_st **)",
   "referenced_type" : "_ZTIFiPPK18X509_name_entry_stS2_E",
   "self_type" : "_ZTIPFiPPK18X509_name_entry_stS2_E",
   "size" : 8,
   "source_file" : "/external/boringssl/src/include/openssl/x509.h"
  },
  {
   "alignment" : 8,
   "linker_set_key" : "_ZTIPFiPPK18x509_attributes_stS2_E",
   "name" : "int (*)(const x509_attributes_st **, const x509_attributes_st **)",
   "referenced_type" : "_ZTIFiPPK18x509_attributes_stS2_E",
   "self_type" : "_ZTIPFiPPK18x509_attributes_stS2_E",
   "size" : 8,
   "source_file" : "/external/boringssl/src/include/openssl/x509.h"
  },
  {
   "alignment" : 8,
   "linker_set_key" : "_ZTIPFiPPK19X509_POLICY_NODE_stS2_E",
   "name" : "int (*)(const X509_POLICY_NODE_st **, const X509_POLICY_NODE_st **)",
   "referenced_type" : "_ZTIFiPPK19X509_POLICY_NODE_stS2_E",
   "self_type" : "_ZTIPFiPPK19X509_POLICY_NODE_stS2_E",
   "size" : 8,
   "source_file" : "/external/boringssl/src/include/openssl/x509v3.h"
  },
  {
   "alignment" : 8,
   "linker_set_key" : "_ZTIPFiPPK20X509_VERIFY_PARAM_stS2_E",
   "name" : "int (*)(const X509_VERIFY_PARAM_st **, const X509_VERIFY_PARAM_st **)",
   "referenced_type" : "_ZTIFiPPK20X509_VERIFY_PARAM_stS2_E",
   "self_type" : "_ZTIPFiPPK20X509_VERIFY_PARAM_stS2_E",
   "size" : 8,
   "source_file" : "/external/boringssl/src/include/openssl/x509_vfy.h"
  },
  {
   "alignment" : 8,
   "linker_set_key" : "_ZTIPFiPPK21ACCESS_DESCRIPTION_stS2_E",
   "name" : "int (*)(const ACCESS_DESCRIPTION_st **, const ACCESS_DESCRIPTION_st **)",
   "referenced_type" : "_ZTIFiPPK21ACCESS_DESCRIPTION_stS2_E",
   "self_type" : "_ZTIPFiPPK21ACCESS_DESCRIPTION_stS2_E",
   "size" : 8,
   "source_file" : "/external/boringssl/src/include/openssl/x509v3.h"
  },
  {
   "alignment" : 8,
   "linker_set_key" : "_ZTIPFiPPK21stack_st_GENERAL_NAMES2_E",
   "name" : "int (*)(const stack_st_GENERAL_NAME **, const stack_st_GENERAL_NAME **)",
   "referenced_type" : "_ZTIFiPPK21stack_st_GENERAL_NAMES2_E",
   "self_type" : "_ZTIPFiPPK21stack_st_GENERAL_NAMES2_E",
   "size" : 8,
   "source_file" : "/external/boringssl/src/include/openssl/x509v3.h"
  },
  {
   "alignment" : 8,
   "linker_set_key" : "_ZTIPFiPPK26srtp_protection_profile_stS2_E",
   "name" : "int (*)(const srtp_protection_profile_st **, const srtp_protection_profile_st **)",
   "referenced_type" : "_ZTIFiPPK26srtp_protection_profile_stS2_E",
   "self_type" : "_ZTIPFiPPK26srtp_protection_profile_stS2_E",
   "size" : 8,
   "source_file" : "/external/boringssl/src/include/openssl/ssl.h"
  },
  {
   "alignment" : 8,
   "linker_set_key" : "_ZTIPFiPPK6bio_stS2_E",
   "name" : "int (*)(const bio_st **, const bio_st **)",
   "referenced_type" : "_ZTIFiPPK6bio_stS2_E",
   "self_type" : "_ZTIPFiPPK6bio_stS2_E",
   "size" : 8,
   "source_file" : "/external/boringssl/src/include/openssl/bio.h"
  },
  {
   "alignment" : 8,
   "linker_set_key" : "_ZTIPFiPPK7x509_stS2_E",
   "name" : "int (*)(const x509_st **, const x509_st **)",
   "referenced_type" : "_ZTIFiPPK7x509_stS2_E",
   "self_type" : "_ZTIPFiPPK7x509_stS2_E",
   "size" : 8,
   "source_file" : "/external/boringssl/src/include/openssl/x509.h"
  },
  {
   "alignment" : 8,
   "linker_set_key" : "_ZTIPFiPPKvS1_E",
   "name" : "int (*)(const void **, const void **)",
   "referenced_type" : "_ZTIFiPPKvS1_E",
   "self_type" : "_ZTIPFiPPKvS1_E",
   "size" : 8,
   "source_file" : "/external/boringssl/src/include/openssl/stack.h"
  },
  {
   "alignment" : 8,
   "linker_set_key" : "_ZTIPFiPciiPvE",
   "name" : "int (*)(char *, int, int, void *)",
   "referenced_type" : "_ZTIFiPciiPvE",
   "self_type" : "_ZTIPFiPciiPvE",
   "size" : 8,
   "source_file" : "/external/boringssl/src/include/openssl/ssl.h"
  },
  {
   "alignment" : 8,
   "linker_set_key" : "_ZTIPFiPhmE",
   "name" : "int (*)(unsigned char *, unsigned long)",
   "referenced_type" : "_ZTIFiPhmE",
   "self_type" : "_ZTIPFiPhmE",
   "size" : 8,
   "source_file" : "/external/boringssl/src/include/openssl/rand.h"
  },
  {
   "alignment" : 8,
   "linker_set_key" : "_ZTIPFiPvPPhE",
   "name" : "int (*)(void *, unsigned char **)",
   "referenced_type" : "_ZTIFiPvPPhE",
   "self_type" : "_ZTIPFiPvPPhE",
   "size" : 8,
   "source_file" : "/external/boringssl/src/include/openssl/x509v3.h"
  },
  {
   "alignment" : 8,
   "linker_set_key" : "_ZTIPFiiP17x509_store_ctx_stE",
   "name" : "int (*)(int, x509_store_ctx_st *)",
   "referenced_type" : "_ZTIFiiP17x509_store_ctx_stE",
   "self_type" : "_ZTIPFiiP17x509_store_ctx_stE",
   "size" : 8,
   "source_file" : "/external/boringssl/src/include/openssl/x509_vfy.h"
  },
  {
   "alignment" : 8,
   "linker_set_key" : "_ZTIPFiiPKhjPhPjPK6rsa_stE",
   "name" : "int (*)(int, const unsigned char *, unsigned int, unsigned char *, unsigned int *, const rsa_st *)",
   "referenced_type" : "_ZTIFiiPKhjPhPjPK6rsa_stE",
   "self_type" : "_ZTIPFiiPKhjPhPjPK6rsa_stE",
   "size" : 8,
   "source_file" : "/external/boringssl/src/include/openssl/rsa.h"
  },
  {
   "alignment" : 8,
   "linker_set_key" : "_ZTIPFiiiP11bn_gencb_stE",
   "name" : "int (*)(int, int, bn_gencb_st *)",
   "referenced_type" : "_ZTIFiiiP11bn_gencb_stE",
   "self_type" : "_ZTIPFiiiP11bn_gencb_stE",
   "size" : 8,
   "source_file" : "/external/boringssl/src/include/openssl/bn.h"
  },
  {
   "alignment" : 8,
   "linker_set_key" : "_ZTIPFivE",
   "name" : "int (*)()",
   "referenced_type" : "_ZTIFivE",
   "self_type" : "_ZTIPFivE",
   "size" : 8,
   "source_file" : "/external/boringssl/src/include/openssl/rand.h"
  },
  {
   "alignment" : 8,
   "linker_set_key" : "_ZTIPFjP6ssl_stPKcPcjPhjE",
   "name" : "unsigned int (*)(ssl_st *, const char *, char *, unsigned int, unsigned char *, unsigned int)",
   "referenced_type" : "_ZTIFjP6ssl_stPKcPcjPhjE",
   "self_type" : "_ZTIPFjP6ssl_stPKcPcjPhjE",
   "size" : 8,
   "source_file" : "/external/boringssl/src/include/openssl/ssl.h"
  },
  {
   "alignment" : 8,
   "linker_set_key" : "_ZTIPFjP6ssl_stPKcPhjE",
   "name" : "unsigned int (*)(ssl_st *, const char *, unsigned char *, unsigned int)",
   "referenced_type" : "_ZTIFjP6ssl_stPKcPhjE",
   "self_type" : "_ZTIPFjP6ssl_stPKcPhjE",
   "size" : 8,
   "source_file" : "/external/boringssl/src/include/openssl/ssl.h"
  },
  {
   "alignment" : 8,
   "linker_set_key" : "_ZTIPFlP6bio_stiPFlS0_iPKcillEE",
   "name" : "long (*)(bio_st *, int, long (*)(bio_st *, int, const char *, int, long, long))",
   "referenced_type" : "_ZTIFlP6bio_stiPFlS0_iPKcillEE",
   "self_type" : "_ZTIPFlP6bio_stiPFlS0_iPKcillEE",
   "size" : 8,
   "source_file" : "/external/boringssl/src/include/openssl/bio.h"
  },
  {
   "alignment" : 8,
   "linker_set_key" : "_ZTIPFlP6bio_stiPKcillE",
   "name" : "long (*)(bio_st *, int, const char *, int, long, long)",
   "referenced_type" : "_ZTIFlP6bio_stiPKcillE",
   "self_type" : "_ZTIPFlP6bio_stiPKcillE",
   "size" : 8,
   "source_file" : "/external/boringssl/src/include/openssl/bio.h"
  },
  {
   "alignment" : 8,
   "linker_set_key" : "_ZTIPFlP6bio_stilPvE",
   "name" : "long (*)(bio_st *, int, long, void *)",
   "referenced_type" : "_ZTIFlP6bio_stilPvE",
   "self_type" : "_ZTIPFlP6bio_stilPvE",
   "size" : 8,
   "source_file" : "/external/boringssl/src/include/openssl/bio.h"
  },
  {
   "alignment" : 8,
   "linker_set_key" : "_ZTIPFmP6ssl_stE",
   "name" : "unsigned long (*)(ssl_st *)",
   "referenced_type" : "_ZTIFmP6ssl_stE",
   "self_type" : "_ZTIPFmP6ssl_stE",
   "size" : 8,
   "source_file" : "/external/boringssl/src/include/openssl/ssl.h"
  },
  {
   "alignment" : 8,
   "linker_set_key" : "_ZTIPFmPK6rsa_stE",
   "name" : "unsigned long (*)(const rsa_st *)",
   "referenced_type" : "_ZTIFmPK6rsa_stE",
   "self_type" : "_ZTIPFmPK6rsa_stE",
   "size" : 8,
   "source_file" : "/external/boringssl/src/include/openssl/rsa.h"
  },
  {
   "alignment" : 8,
   "linker_set_key" : "_ZTIPFmPK9ec_key_stE",
   "name" : "unsigned long (*)(const ec_key_st *)",
   "referenced_type" : "_ZTIFmPK9ec_key_stE",
   "self_type" : "_ZTIPFmPK9ec_key_stE",
   "size" : 8,
   "source_file" : "/external/boringssl/src/include/openssl/ec_key.h"
  },
  {
   "alignment" : 8,
   "linker_set_key" : "_ZTIPFvP10ssl_ctx_stP14ssl_session_stE",
   "name" : "void (*)(ssl_ctx_st *, ssl_session_st *)",
   "referenced_type" : "_ZTIFvP10ssl_ctx_stP14ssl_session_stE",
   "self_type" : "_ZTIPFvP10ssl_ctx_stP14ssl_session_stE",
   "size" : 8,
   "source_file" : "/external/boringssl/src/include/openssl/ssl.h"
  },
  {
   "alignment" : 8,
   "linker_set_key" : "_ZTIPFvP11SXNET_ID_stE",
   "name" : "void (*)(SXNET_ID_st *)",
   "referenced_type" : "_ZTIFvP11SXNET_ID_stE",
   "self_type" : "_ZTIPFvP11SXNET_ID_stE",
   "size" : 8,
   "source_file" : "/external/boringssl/src/include/openssl/x509v3.h"
  },
  {
   "alignment" : 8,
   "linker_set_key" : "_ZTIPFvP11X509_crl_stE",
   "name" : "void (*)(X509_crl_st *)",
   "referenced_type" : "_ZTIFvP11X509_crl_stE",
   "self_type" : "_ZTIPFvP11X509_crl_stE",
   "size" : 8,
   "source_file" : "/external/boringssl/src/include/openssl/x509.h"
  },
  {
   "alignment" : 8,
   "linker_set_key" : "_ZTIPFvP11ssl_comp_stE",
   "name" : "void (*)(ssl_comp_st *)",
   "referenced_type" : "_ZTIFvP11ssl_comp_stE",
   "self_type" : "_ZTIPFvP11ssl_comp_stE",
   "size" : 8,
   "source_file" : "/external/boringssl/src/include/openssl/ssl.h"
  },
  {
   "alignment" : 8,
   "linker_set_key" : "_ZTIPFvP12X509_info_stE",
   "name" : "void (*)(X509_info_st *)",
   "referenced_type" : "_ZTIFvP12X509_info_stE",
   "self_type" : "_ZTIPFvP12X509_info_stE",
   "size" : 8,
   "source_file" : "/external/boringssl/src/include/openssl/x509.h"
  },
  {
   "alignment" : 8,
   "linker_set_key" : "_ZTIPFvP12X509_name_stE",
   "name" : "void (*)(X509_name_st *)",
   "referenced_type" : "_ZTIFvP12X509_name_stE",
   "self_type" : "_ZTIPFvP12X509_name_stE",
   "size" : 8,
   "source_file" : "/external/boringssl/src/include/openssl/x509.h"
  },
  {
   "alignment" : 8,
   "linker_set_key" : "_ZTIPFvP12asn1_type_stE",
   "name" : "void (*)(asn1_type_st *)",
   "referenced_type" : "_ZTIFvP12asn1_type_stE",
   "self_type" : "_ZTIPFvP12asn1_type_stE",
   "size" : 8,
   "source_file" : "/external/boringssl/src/include/openssl/asn1.h"
  },
  {
   "alignment" : 8,
   "linker_set_key" : "_ZTIPFvP13DIST_POINT_stE",
   "name" : "void (*)(DIST_POINT_st *)",
   "referenced_type" : "_ZTIFvP13DIST_POINT_stE",
   "self_type" : "_ZTIPFvP13DIST_POINT_stE",
   "size" : 8,
   "source_file" : "/external/boringssl/src/include/openssl/x509v3.h"
  },
  {
   "alignment" : 8,
   "linker_set_key" : "_ZTIPFvP13POLICYINFO_stE",
   "name" : "void (*)(POLICYINFO_st *)",
   "referenced_type" : "_ZTIFvP13POLICYINFO_stE",
   "self_type" : "_ZTIPFvP13POLICYINFO_stE",
   "size" : 8,
   "source_file" : "/external/boringssl/src/include/openssl/x509v3.h"
  },
  {
   "alignment" : 8,
   "linker_set_key" : "_ZTIPFvP13X509_algor_stE",
   "name" : "void (*)(X509_algor_st *)",
   "referenced_type" : "_ZTIFvP13X509_algor_stE",
   "self_type" : "_ZTIPFvP13X509_algor_stE",
   "size" : 8,
   "source_file" : "/external/boringssl/src/include/openssl/x509.h"
  },
  {
   "alignment" : 8,
   "linker_set_key" : "_ZTIPFvP13conf_value_stE",
   "name" : "void (*)(conf_value_st *)",
   "referenced_type" : "_ZTIFvP13conf_value_stE",
   "self_type" : "_ZTIPFvP13conf_value_stE",
   "size" : 8,
   "source_file" : "/external/boringssl/src/include/openssl/conf.h"
  },
  {
   "alignment" : 8,
   "linker_set_key" : "_ZTIPFvP13v3_ext_methodE",
   "name" : "void (*)(v3_ext_method *)",
   "referenced_type" : "_ZTIFvP13v3_ext_methodE",
   "self_type" : "_ZTIPFvP13v3_ext_methodE",
   "size" : 8,
   "source_file" : "/external/boringssl/src/include/openssl/x509v3.h"
  },
  {
   "alignment" : 8,
   "linker_set_key" : "_ZTIPFvP13x509_trust_stE",
   "name" : "void (*)(x509_trust_st *)",
   "referenced_type" : "_ZTIFvP13x509_trust_stE",
   "self_type" : "_ZTIPFvP13x509_trust_stE",
   "size" : 8,
   "source_file" : "/external/boringssl/src/include/openssl/x509.h"
  },
  {
   "alignment" : 8,
   "linker_set_key" : "_ZTIPFvP14asn1_object_stE",
   "name" : "void (*)(asn1_object_st *)",
   "referenced_type" : "_ZTIFvP14asn1_object_stE",
   "self_type" : "_ZTIPFvP14asn1_object_stE",
   "size" : 8,
   "source_file" : "/external/boringssl/src/include/openssl/asn1.h"
  },
  {
   "alignment" : 8,
   "linker_set_key" : "_ZTIPFvP14asn1_string_stE",
   "name" : "void (*)(asn1_string_st *)",
   "referenced_type" : "_ZTIFvP14asn1_string_stE",
   "self_type" : "_ZTIPFvP14asn1_string_stE",
   "size" : 8,
   "source_file" : "/external/boringssl/src/include/openssl/asn1.h"
  },
  {
   "alignment" : 8,
   "linker_set_key" : "_ZTIPFvP14x509_lookup_stE",
   "name" : "void (*)(x509_lookup_st *)",
   "referenced_type" : "_ZTIFvP14x509_lookup_stE",
   "self_type" : "_ZTIPFvP14x509_lookup_stE",
   "size" : 8,
   "source_file" : "/external/boringssl/src/include/openssl/x509_vfy.h"
  },
  {
   "alignment" : 8,
   "linker_set_key" : "_ZTIPFvP14x509_object_stE",
   "name" : "void (*)(x509_object_st *)",
   "referenced_type" : "_ZTIFvP14x509_object_stE",
   "self_type" : "_ZTIPFvP14x509_object_stE",
   "size" : 8,
   "source_file" : "/external/boringssl/src/include/openssl/x509_vfy.h"
  },
  {
   "alignment" : 8,
   "linker_set_key" : "_ZTIPFvP15GENERAL_NAME_stE",
   "name" : "void (*)(GENERAL_NAME_st *)",
   "referenced_type" : "_ZTIFvP15GENERAL_NAME_stE",
   "self_type" : "_ZTIPFvP15GENERAL_NAME_stE",
   "size" : 8,
   "source_file" : "/external/boringssl/src/include/openssl/x509v3.h"
  },
  {
   "alignment" : 8,
   "linker_set_key" : "_ZTIPFvP15x509_purpose_stE",
   "name" : "void (*)(x509_purpose_st *)",
   "referenced_type" : "_ZTIFvP15x509_purpose_stE",
   "self_type" : "_ZTIPFvP15x509_purpose_stE",
   "size" : 8,
   "source_file" : "/external/boringssl/src/include/openssl/x509v3.h"
  },
  {
   "alignment" : 8,
   "linker_set_key" : "_ZTIPFvP15x509_revoked_stE",
   "name" : "void (*)(x509_revoked_st *)",
   "referenced_type" : "_ZTIFvP15x509_revoked_stE",
   "self_type" : "_ZTIPFvP15x509_revoked_stE",
   "size" : 8,
   "source_file" : "/external/boringssl/src/include/openssl/x509.h"
  },
  {
   "alignment" : 8,
   "linker_set_key" : "_ZTIPFvP16crypto_buffer_stE",
   "name" : "void (*)(crypto_buffer_st *)",
   "referenced_type" : "_ZTIFvP16crypto_buffer_stE",
   "self_type" : "_ZTIPFvP16crypto_buffer_stE",
   "size" : 8,
   "source_file" : "/external/boringssl/src/include/openssl/pool.h"
  },
  {
   "alignment" : 8,
   "linker_set_key" : "_ZTIPFvP17POLICYQUALINFO_stE",
   "name" : "void (*)(POLICYQUALINFO_st *)",
   "referenced_type" : "_ZTIFvP17POLICYQUALINFO_stE",
   "self_type" : "_ZTIPFvP17POLICYQUALINFO_stE",
   "size" : 8,
   "source_file" : "/external/boringssl/src/include/openssl/x509v3.h"
  },
  {
   "alignment" : 8,
   "linker_set_key" : "_ZTIPFvP17POLICY_MAPPING_stE",
   "name" : "void (*)(POLICY_MAPPING_st *)",
   "referenced_type" : "_ZTIFvP17POLICY_MAPPING_stE",
   "self_type" : "_ZTIPFvP17POLICY_MAPPING_stE",
   "size" : 8,
   "source_file" : "/external/boringssl/src/include/openssl/x509v3.h"
  },
  {
   "alignment" : 8,
   "linker_set_key" : "_ZTIPFvP17X509_extension_stE",
   "name" : "void (*)(X509_extension_st *)",
   "referenced_type" : "_ZTIFvP17X509_extension_stE",
   "self_type" : "_ZTIPFvP17X509_extension_stE",
   "size" : 8,
   "source_file" : "/external/boringssl/src/include/openssl/x509.h"
  },
  {
   "alignment" : 8,
   "linker_set_key" : "_ZTIPFvP17evp_cipher_ctx_stE",
   "name" : "void (*)(evp_cipher_ctx_st *)",
   "referenced_type" : "_ZTIFvP17evp_cipher_ctx_stE",
   "self_type" : "_ZTIPFvP17evp_cipher_ctx_stE",
   "size" : 8,
   "source_file" : "/external/boringssl/src/include/openssl/cipher.h"
  },
  {
   "alignment" : 8,
   "linker_set_key" : "_ZTIPFvP18GENERAL_SUBTREE_stE",
   "name" : "void (*)(GENERAL_SUBTREE_st *)",
   "referenced_type" : "_ZTIFvP18GENERAL_SUBTREE_stE",
   "self_type" : "_ZTIPFvP18GENERAL_SUBTREE_stE",
   "size" : 8,
   "source_file" : "/external/boringssl/src/include/openssl/x509v3.h"
  },
  {
   "alignment" : 8,
   "linker_set_key" : "_ZTIPFvP18X509_name_entry_stE",
   "name" : "void (*)(X509_name_entry_st *)",
   "referenced_type" : "_ZTIFvP18X509_name_entry_stE",
   "self_type" : "_ZTIPFvP18X509_name_entry_stE",
   "size" : 8,
   "source_file" : "/external/boringssl/src/include/openssl/x509.h"
  },
  {
   "alignment" : 8,
   "linker_set_key" : "_ZTIPFvP18x509_attributes_stE",
   "name" : "void (*)(x509_attributes_st *)",
   "referenced_type" : "_ZTIFvP18x509_attributes_stE",
   "self_type" : "_ZTIPFvP18x509_attributes_stE",
   "size" : 8,
   "source_file" : "/external/boringssl/src/include/openssl/x509.h"
  },
  {
   "alignment" : 8,
   "linker_set_key" : "_ZTIPFvP19X509_POLICY_NODE_stE",
   "name" : "void (*)(X509_POLICY_NODE_st *)",
   "referenced_type" : "_ZTIFvP19X509_POLICY_NODE_stE",
   "self_type" : "_ZTIPFvP19X509_POLICY_NODE_stE",
   "size" : 8,
   "source_file" : "/external/boringssl/src/include/openssl/x509v3.h"
  },
  {
   "alignment" : 8,
   "linker_set_key" : "_ZTIPFvP20X509_VERIFY_PARAM_stE",
   "name" : "void (*)(X509_VERIFY_PARAM_st *)",
   "referenced_type" : "_ZTIFvP20X509_VERIFY_PARAM_stE",
   "self_type" : "_ZTIPFvP20X509_VERIFY_PARAM_stE",
   "size" : 8,
   "source_file" : "/external/boringssl/src/include/openssl/x509_vfy.h"
  },
  {
   "alignment" : 8,
   "linker_set_key" : "_ZTIPFvP21ACCESS_DESCRIPTION_stE",
   "name" : "void (*)(ACCESS_DESCRIPTION_st *)",
   "referenced_type" : "_ZTIFvP21ACCESS_DESCRIPTION_stE",
   "self_type" : "_ZTIPFvP21ACCESS_DESCRIPTION_stE",
   "size" : 8,
   "source_file" : "/external/boringssl/src/include/openssl/x509v3.h"
  },
  {
   "alignment" : 8,
   "linker_set_key" : "_ZTIPFvP21stack_st_GENERAL_NAMEE",
   "name" : "void (*)(stack_st_GENERAL_NAME *)",
   "referenced_type" : "_ZTIFvP21stack_st_GENERAL_NAMEE",
   "self_type" : "_ZTIPFvP21stack_st_GENERAL_NAMEE",
   "size" : 8,
   "source_file" : "/external/boringssl/src/include/openssl/x509v3.h"
  },
  {
   "alignment" : 8,
   "linker_set_key" : "_ZTIPFvP6bio_stE",
   "name" : "void (*)(bio_st *)",
   "referenced_type" : "_ZTIFvP6bio_stE",
   "self_type" : "_ZTIPFvP6bio_stE",
   "size" : 8,
   "source_file" : "/external/boringssl/src/include/openssl/bio.h"
  },
  {
   "alignment" : 8,
   "linker_set_key" : "_ZTIPFvP6ssl_stPP11evp_pkey_stE",
   "name" : "void (*)(ssl_st *, evp_pkey_st **)",
   "referenced_type" : "_ZTIFvP6ssl_stPP11evp_pkey_stE",
   "self_type" : "_ZTIPFvP6ssl_stPP11evp_pkey_stE",
   "size" : 8,
   "source_file" : "/external/boringssl/src/include/openssl/ssl.h"
  },
  {
   "alignment" : 8,
   "linker_set_key" : "_ZTIPFvP7x509_stE",
   "name" : "void (*)(x509_st *)",
   "referenced_type" : "_ZTIFvP7x509_stE",
   "self_type" : "_ZTIPFvP7x509_stE",
   "size" : 8,
   "source_file" : "/external/boringssl/src/include/openssl/x509.h"
  },
  {
   "alignment" : 8,
   "linker_set_key" : "_ZTIPFvPK13ssl_cipher_stE",
   "name" : "void (*)(const ssl_cipher_st *)",
   "referenced_type" : "_ZTIFvPK13ssl_cipher_stE",
   "self_type" : "_ZTIPFvPK13ssl_cipher_stE",
   "size" : 8,
   "source_file" : "/external/boringssl/src/include/openssl/ssl.h"
  },
  {
   "alignment" : 8,
   "linker_set_key" : "_ZTIPFvPK26srtp_protection_profile_stE",
   "name" : "void (*)(const srtp_protection_profile_st *)",
   "referenced_type" : "_ZTIFvPK26srtp_protection_profile_stE",
   "self_type" : "_ZTIPFvPK26srtp_protection_profile_stE",
   "size" : 8,
   "source_file" : "/external/boringssl/src/include/openssl/ssl.h"
  },
  {
   "alignment" : 8,
   "linker_set_key" : "_ZTIPFvPK6ssl_stP7timevalE",
   "name" : "void (*)(const ssl_st *, timeval *)",
   "referenced_type" : "_ZTIFvPK6ssl_stP7timevalE",
   "self_type" : "_ZTIPFvPK6ssl_stP7timevalE",
   "size" : 8,
   "source_file" : "/external/boringssl/src/include/openssl/ssl.h"
  },
  {
   "alignment" : 8,
   "linker_set_key" : "_ZTIPFvPK6ssl_stPKcE",
   "name" : "void (*)(const ssl_st *, const char *)",
   "referenced_type" : "_ZTIFvPK6ssl_stPKcE",
   "self_type" : "_ZTIPFvPK6ssl_stPKcE",
   "size" : 8,
   "source_file" : "/external/boringssl/src/include/openssl/ssl.h"
  },
  {
   "alignment" : 8,
   "linker_set_key" : "_ZTIPFvPK6ssl_stiiE",
   "name" : "void (*)(const ssl_st *, int, int)",
   "referenced_type" : "_ZTIFvPK6ssl_stiiE",
   "self_type" : "_ZTIPFvPK6ssl_stiiE",
   "size" : 8,
   "source_file" : "/external/boringssl/src/include/openssl/ssl.h"
  },
  {
   "alignment" : 8,
   "linker_set_key" : "_ZTIPFvPKviE",
   "name" : "void (*)(const void *, int)",
   "referenced_type" : "_ZTIFvPKviE",
   "self_type" : "_ZTIPFvPKviE",
   "size" : 8,
   "source_file" : "/external/boringssl/src/include/openssl/rand.h"
  },
  {
   "alignment" : 8,
   "linker_set_key" : "_ZTIPFvPKvidE",
   "name" : "void (*)(const void *, int, double)",
   "referenced_type" : "_ZTIFvPKvidE",
   "self_type" : "_ZTIPFvPKvidE",
   "size" : 8,
   "source_file" : "/external/boringssl/src/include/openssl/rand.h"
  },
  {
   "alignment" : 8,
   "linker_set_key" : "_ZTIPFvPcE",
   "name" : "void (*)(char *)",
   "referenced_type" : "_ZTIFvPcE",
   "self_type" : "_ZTIPFvPcE",
   "size" : 8,
   "source_file" : "/external/boringssl/src/include/openssl/stack.h"
  },
  {
   "alignment" : 8,
   "linker_set_key" : "_ZTIPFvPvE",
   "name" : "void (*)(void *)",
   "referenced_type" : "_ZTIFvPvE",
   "self_type" : "_ZTIPFvPvE",
   "size" : 8,
   "source_file" : "/external/boringssl/src/include/openssl/stack.h"
  },
  {
   "alignment" : 8,
   "linker_set_key" : "_ZTIPFvPvP19stack_st_CONF_VALUEE",
   "name" : "void (*)(void *, stack_st_CONF_VALUE *)",
   "referenced_type" : "_ZTIFvPvP19stack_st_CONF_VALUEE",
   "self_type" : "_ZTIPFvPvP19stack_st_CONF_VALUEE",
   "size" : 8,
   "source_file" : "/external/boringssl/src/include/openssl/x509v3.h"
  },
  {
   "alignment" : 8,
   "linker_set_key" : "_ZTIPFvPvPcE",
   "name" : "void (*)(void *, char *)",
   "referenced_type" : "_ZTIFvPvPcE",
   "self_type" : "_ZTIPFvPvPcE",
   "size" : 8,
   "source_file" : "/external/boringssl/src/include/openssl/x509v3.h"
  },
  {
   "alignment" : 8,
   "linker_set_key" : "_ZTIPFvPvS_P17crypto_ex_data_stilS_E",
   "name" : "void (*)(void *, void *, crypto_ex_data_st *, int, long, void *)",
   "referenced_type" : "_ZTIFvPvS_P17crypto_ex_data_stilS_E",
   "self_type" : "_ZTIPFvPvS_P17crypto_ex_data_stilS_E",
   "size" : 8,
   "source_file" : "/external/boringssl/src/include/openssl/ssl.h"
  },
  {
   "alignment" : 8,
   "linker_set_key" : "_ZTIPFviiiPKvmP6ssl_stPvE",
   "name" : "void (*)(int, int, int, const void *, unsigned long, ssl_st *, void *)",
   "referenced_type" : "_ZTIFviiiPKvmP6ssl_stPvE",
   "self_type" : "_ZTIPFviiiPKvmP6ssl_stPvE",
   "size" : 8,
   "source_file" : "/external/boringssl/src/include/openssl/ssl.h"
  },
  {
   "alignment" : 8,
   "linker_set_key" : "_ZTIPFvvE",
   "name" : "void (*)()",
   "referenced_type" : "_ZTIFvvE",
   "self_type" : "_ZTIPFvvE",
   "size" : 8,
   "source_file" : "/external/boringssl/src/include/openssl/rand.h"
  },
  {
   "alignment" : 8,
   "linker_set_key" : "_ZTIPK10ssl_ctx_st",
   "name" : "const ssl_ctx_st *",
   "referenced_type" : "_ZTIK10ssl_ctx_st",
   "self_type" : "_ZTIPK10ssl_ctx_st",
   "size" : 8,
   "source_file" : "/external/boringssl/src/include/openssl/ssl.h"
  },
  {
   "alignment" : 8,
   "linker_set_key" : "_ZTIPK11SXNET_ID_st",
   "name" : "const SXNET_ID_st *",
   "referenced_type" : "_ZTIK11SXNET_ID_st",
   "self_type" : "_ZTIPK11SXNET_ID_st",
   "size" : 8,
   "source_file" : "/external/boringssl/src/include/openssl/x509v3.h"
  },
  {
   "alignment" : 8,
   "linker_set_key" : "_ZTIPK11X509_crl_st",
   "name" : "const X509_crl_st *",
   "referenced_type" : "_ZTIK11X509_crl_st",
   "self_type" : "_ZTIPK11X509_crl_st",
   "size" : 8,
   "source_file" : "/external/boringssl/src/include/openssl/x509.h"
  },
  {
   "alignment" : 8,
   "linker_set_key" : "_ZTIPK11evp_aead_st",
   "name" : "const evp_aead_st *",
   "referenced_type" : "_ZTIK11evp_aead_st",
   "self_type" : "_ZTIPK11evp_aead_st",
   "size" : 8,
   "source_file" : "/external/boringssl/src/include/openssl/aead.h"
  },
  {
   "alignment" : 8,
   "linker_set_key" : "_ZTIPK11ssl_comp_st",
   "name" : "const ssl_comp_st *",
   "referenced_type" : "_ZTIK11ssl_comp_st",
   "self_type" : "_ZTIPK11ssl_comp_st",
   "size" : 8,
   "source_file" : "/external/boringssl/src/include/openssl/ssl.h"
  },
  {
   "alignment" : 8,
   "linker_set_key" : "_ZTIPK12ASN1_ITEM_st",
   "name" : "const ASN1_ITEM_st *",
   "referenced_type" : "_ZTIK12ASN1_ITEM_st",
   "self_type" : "_ZTIPK12ASN1_ITEM_st",
   "size" : 8,
   "source_file" : "/external/boringssl/src/include/openssl/x509v3.h"
  },
  {
   "alignment" : 8,
   "linker_set_key" : "_ZTIPK12X509_info_st",
   "name" : "const X509_info_st *",
   "referenced_type" : "_ZTIK12X509_info_st",
   "self_type" : "_ZTIPK12X509_info_st",
   "size" : 8,
   "source_file" : "/external/boringssl/src/include/openssl/x509.h"
  },
  {
   "alignment" : 8,
   "linker_set_key" : "_ZTIPK12X509_name_st",
   "name" : "const X509_name_st *",
   "referenced_type" : "_ZTIK12X509_name_st",
   "self_type" : "_ZTIPK12X509_name_st",
   "size" : 8,
   "source_file" : "/external/boringssl/src/include/openssl/x509.h"
  },
  {
   "alignment" : 8,
   "linker_set_key" : "_ZTIPK12asn1_type_st",
   "name" : "const asn1_type_st *",
   "referenced_type" : "_ZTIK12asn1_type_st",
   "self_type" : "_ZTIPK12asn1_type_st",
   "size" : 8,
   "source_file" : "/external/boringssl/src/include/openssl/asn1.h"
  },
  {
   "alignment" : 8,
   "linker_set_key" : "_ZTIPK12stack_st_BIO",
   "name" : "const stack_st_BIO *",
   "referenced_type" : "_ZTIK12stack_st_BIO",
   "self_type" : "_ZTIPK12stack_st_BIO",
   "size" : 8,
   "source_file" : "/external/boringssl/src/include/openssl/bio.h"
  },
  {
   "alignment" : 8,
   "linker_set_key" : "_ZTIPK13DIST_POINT_st",
   "name" : "const DIST_POINT_st *",
   "referenced_type" : "_ZTIK13DIST_POINT_st",
   "self_type" : "_ZTIPK13DIST_POINT_st",
   "size" : 8,
   "source_file" : "/external/boringssl/src/include/openssl/x509v3.h"
  },
  {
   "alignment" : 8,
   "linker_set_key" : "_ZTIPK13POLICYINFO_st",
   "name" : "const POLICYINFO_st *",
   "referenced_type" : "_ZTIK13POLICYINFO_st",
   "self_type" : "_ZTIPK13POLICYINFO_st",
   "size" : 8,
   "source_file" : "/external/boringssl/src/include/openssl/x509v3.h"
  },
  {
   "alignment" : 8,
   "linker_set_key" : "_ZTIPK13X509_algor_st",
   "name" : "const X509_algor_st *",
   "referenced_type" : "_ZTIK13X509_algor_st",
   "self_type" : "_ZTIPK13X509_algor_st",
   "size" : 8,
   "source_file" : "/external/boringssl/src/include/openssl/x509.h"
  },
  {
   "alignment" : 8,
   "linker_set_key" : "_ZTIPK13bio_method_st",
   "name" : "const bio_method_st *",
   "referenced_type" : "_ZTIK13bio_method_st",
   "self_type" : "_ZTIPK13bio_method_st",
   "size" : 8,
   "source_file" : "/external/boringssl/src/include/openssl/bio.h"
  },
  {
   "alignment" : 8,
   "linker_set_key" : "_ZTIPK13conf_value_st",
   "name" : "const conf_value_st *",
   "referenced_type" : "_ZTIK13conf_value_st",
   "self_type" : "_ZTIPK13conf_value_st",
   "size" : 8,
   "source_file" : "/external/boringssl/src/include/openssl/conf.h"
  },
  {
   "alignment" : 8,
   "linker_set_key" : "_ZTIPK13env_md_ctx_st",
   "name" : "const env_md_ctx_st *",
   "referenced_type" : "_ZTIK13env_md_ctx_st",
   "self_type" : "_ZTIPK13env_md_ctx_st",
   "size" : 8,
   "source_file" : "/external/boringssl/src/include/openssl/base.h"
  },
  {
   "alignment" : 8,
   "linker_set_key" : "_ZTIPK13evp_cipher_st",
   "name" : "const evp_cipher_st *",
   "referenced_type" : "_ZTIK13evp_cipher_st",
   "self_type" : "_ZTIPK13evp_cipher_st",
   "size" : 8,
   "source_file" : "/external/boringssl/src/include/openssl/cipher.h"
  },
  {
   "alignment" : 8,
   "linker_set_key" : "_ZTIPK13ssl_cipher_st",
   "name" : "const ssl_cipher_st *",
   "referenced_type" : "_ZTIK13ssl_cipher_st",
   "self_type" : "_ZTIPK13ssl_cipher_st",
   "size" : 8,
   "source_file" : "/external/boringssl/src/include/openssl/ssl.h"
  },
  {
   "alignment" : 8,
   "linker_set_key" : "_ZTIPK13ssl_method_st",
   "name" : "const ssl_method_st *",
   "referenced_type" : "_ZTIK13ssl_method_st",
   "self_type" : "_ZTIPK13ssl_method_st",
   "size" : 8,
   "source_file" : "/external/boringssl/src/include/openssl/ssl.h"
  },
  {
   "alignment" : 8,
   "linker_set_key" : "_ZTIPK13stack_st_X509",
   "name" : "const stack_st_X509 *",
   "referenced_type" : "_ZTIK13stack_st_X509",
   "self_type" : "_ZTIPK13stack_st_X509",
   "size" : 8,
   "source_file" : "/external/boringssl/src/include/openssl/x509.h"
  },
  {
   "alignment" : 8,
   "linker_set_key" : "_ZTIPK13stack_st_void",
   "name" : "const stack_st_void *",
   "referenced_type" : "_ZTIK13stack_st_void",
   "self_type" : "_ZTIPK13stack_st_void",
   "size" : 8,
   "source_file" : "/external/boringssl/src/include/openssl/stack.h"
  },
  {
   "alignment" : 8,
   "linker_set_key" : "_ZTIPK13v3_ext_method",
   "name" : "const v3_ext_method *",
   "referenced_type" : "_ZTIK13v3_ext_method",
   "self_type" : "_ZTIPK13v3_ext_method",
   "size" : 8,
   "source_file" : "/external/boringssl/src/include/openssl/x509v3.h"
  },
  {
   "alignment" : 8,
   "linker_set_key" : "_ZTIPK13x509_trust_st",
   "name" : "const x509_trust_st *",
   "referenced_type" : "_ZTIK13x509_trust_st",
   "self_type" : "_ZTIPK13x509_trust_st",
   "size" : 8,
   "source_file" : "/external/boringssl/src/include/openssl/x509.h"
  },
  {
   "alignment" : 8,
   "linker_set_key" : "_ZTIPK14asn1_object_st",
   "name" : "const asn1_object_st *",
   "referenced_type" : "_ZTIK14asn1_object_st",
   "self_type" : "_ZTIPK14asn1_object_st",
   "size" : 8,
   "source_file" : "/external/boringssl/src/include/openssl/asn1.h"
  },
  {
   "alignment" : 8,
   "linker_set_key" : "_ZTIPK14asn1_string_st",
   "name" : "const asn1_string_st *",
   "referenced_type" : "_ZTIK14asn1_string_st",
   "self_type" : "_ZTIPK14asn1_string_st",
   "size" : 8,
   "source_file" : "/external/boringssl/src/include/openssl/asn1.h"
  },
  {
   "alignment" : 8,
   "linker_set_key" : "_ZTIPK14ssl_session_st",
   "name" : "const ssl_session_st *",
   "referenced_type" : "_ZTIK14ssl_session_st",
   "self_type" : "_ZTIPK14ssl_session_st",
   "size" : 8,
   "source_file" : "/external/boringssl/src/include/openssl/ssl.h"
  },
  {
   "alignment" : 8,
   "linker_set_key" : "_ZTIPK14x509_lookup_st",
   "name" : "const x509_lookup_st *",
   "referenced_type" : "_ZTIK14x509_lookup_st",
   "self_type" : "_ZTIPK14x509_lookup_st",
   "size" : 8,
   "source_file" : "/external/boringssl/src/include/openssl/x509_vfy.h"
  },
  {
   "alignment" : 8,
   "linker_set_key" : "_ZTIPK14x509_object_st",
   "name" : "const x509_object_st *",
   "referenced_type" : "_ZTIK14x509_object_st",
   "self_type" : "_ZTIPK14x509_object_st",
   "size" : 8,
   "source_file" : "/external/boringssl/src/include/openssl/x509_vfy.h"
  },
  {
   "alignment" : 8,
   "linker_set_key" : "_ZTIPK15GENERAL_NAME_st",
   "name" : "const GENERAL_NAME_st *",
   "referenced_type" : "_ZTIK15GENERAL_NAME_st",
   "self_type" : "_ZTIPK15GENERAL_NAME_st",
   "size" : 8,
   "source_file" : "/external/boringssl/src/include/openssl/x509v3.h"
  },
  {
   "alignment" : 8,
   "linker_set_key" : "_ZTIPK15evp_aead_ctx_st",
   "name" : "const evp_aead_ctx_st *",
   "referenced_type" : "_ZTIK15evp_aead_ctx_st",
   "self_type" : "_ZTIPK15evp_aead_ctx_st",
   "size" : 8,
   "source_file" : "/external/boringssl/src/include/openssl/base.h"
  },
  {
   "alignment" : 8,
   "linker_set_key" : "_ZTIPK15evp_md_pctx_ops",
   "name" : "const evp_md_pctx_ops *",
   "referenced_type" : "_ZTIK15evp_md_pctx_ops",
   "self_type" : "_ZTIPK15evp_md_pctx_ops",
   "size" : 8,
   "source_file" : "/external/boringssl/src/include/openssl/digest.h"
  },
  {
   "alignment" : 8,
   "linker_set_key" : "_ZTIPK15x509_purpose_st",
   "name" : "const x509_purpose_st *",
   "referenced_type" : "_ZTIK15x509_purpose_st",
   "self_type" : "_ZTIPK15x509_purpose_st",
   "size" : 8,
   "source_file" : "/external/boringssl/src/include/openssl/x509v3.h"
  },
  {
   "alignment" : 8,
   "linker_set_key" : "_ZTIPK15x509_revoked_st",
   "name" : "const x509_revoked_st *",
   "referenced_type" : "_ZTIK15x509_revoked_st",
   "self_type" : "_ZTIPK15x509_revoked_st",
   "size" : 8,
   "source_file" : "/external/boringssl/src/include/openssl/x509.h"
  },
  {
   "alignment" : 8,
   "linker_set_key" : "_ZTIPK16crypto_buffer_st",
   "name" : "const crypto_buffer_st *",
   "referenced_type" : "_ZTIK16crypto_buffer_st",
   "self_type" : "_ZTIPK16crypto_buffer_st",
   "size" : 8,
   "source_file" : "/external/boringssl/src/include/openssl/pool.h"
  },
  {
   "alignment" : 8,
   "linker_set_key" : "_ZTIPK16stack_st_SXNETID",
   "name" : "const stack_st_SXNETID *",
   "referenced_type" : "_ZTIK16stack_st_SXNETID",
   "self_type" : "_ZTIPK16stack_st_SXNETID",
   "size" : 8,
   "source_file" : "/external/boringssl/src/include/openssl/x509v3.h"
  },
  {
   "alignment" : 8,
   "linker_set_key" : "_ZTIPK17POLICYQUALINFO_st",
   "name" : "const POLICYQUALINFO_st *",
   "referenced_type" : "_ZTIK17POLICYQUALINFO_st",
   "self_type" : "_ZTIPK17POLICYQUALINFO_st",
   "size" : 8,
   "source_file" : "/external/boringssl/src/include/openssl/x509v3.h"
  },
  {
   "alignment" : 8,
   "linker_set_key" : "_ZTIPK17POLICY_MAPPING_st",
   "name" : "const POLICY_MAPPING_st *",
   "referenced_type" : "_ZTIK17POLICY_MAPPING_st",
   "self_type" : "_ZTIPK17POLICY_MAPPING_st",
   "size" : 8,
   "source_file" : "/external/boringssl/src/include/openssl/x509v3.h"
  },
  {
   "alignment" : 8,
   "linker_set_key" : "_ZTIPK17X509_extension_st",
   "name" : "const X509_extension_st *",
   "referenced_type" : "_ZTIK17X509_extension_st",
   "self_type" : "_ZTIPK17X509_extension_st",
   "size" : 8,
   "source_file" : "/external/boringssl/src/include/openssl/x509.h"
  },
  {
   "alignment" : 8,
   "linker_set_key" : "_ZTIPK17crypto_ex_data_st",
   "name" : "const crypto_ex_data_st *",
   "referenced_type" : "_ZTIK17crypto_ex_data_st",
   "self_type" : "_ZTIPK17crypto_ex_data_st",
   "size" : 8,
   "source_file" : "/external/boringssl/src/include/openssl/ssl.h"
  },
  {
   "alignment" : 8,
   "linker_set_key" : "_ZTIPK17stack_st_SSL_COMP",
   "name" : "const stack_st_SSL_COMP *",
   "referenced_type" : "_ZTIK17stack_st_SSL_COMP",
   "self_type" : "_ZTIPK17stack_st_SSL_COMP",
   "size" : 8,
   "source_file" : "/external/boringssl/src/include/openssl/ssl.h"
  },
  {
   "alignment" : 8,
   "linker_set_key" : "_ZTIPK17stack_st_X509_CRL",
   "name" : "const stack_st_X509_CRL *",
   "referenced_type" : "_ZTIK17stack_st_X509_CRL",
   "self_type" : "_ZTIPK17stack_st_X509_CRL",
   "size" : 8,
   "source_file" : "/external/boringssl/src/include/openssl/x509.h"
  },
  {
   "alignment" : 8,
   "linker_set_key" : "_ZTIPK18GENERAL_SUBTREE_st",
   "name" : "const GENERAL_SUBTREE_st *",
   "referenced_type" : "_ZTIK18GENERAL_SUBTREE_st",
   "self_type" : "_ZTIPK18GENERAL_SUBTREE_st",
   "size" : 8,
   "source_file" : "/external/boringssl/src/include/openssl/x509v3.h"
  },
  {
   "alignment" : 8,
   "linker_set_key" : "_ZTIPK18X509_name_entry_st",
   "name" : "const X509_name_entry_st *",
   "referenced_type" : "_ZTIK18X509_name_entry_st",
   "self_type" : "_ZTIPK18X509_name_entry_st",
   "size" : 8,
   "source_file" : "/external/boringssl/src/include/openssl/x509.h"
  },
  {
   "alignment" : 8,
   "linker_set_key" : "_ZTIPK18ssl_quic_method_st",
   "name" : "const ssl_quic_method_st *",
   "referenced_type" : "_ZTIK18ssl_quic_method_st",
   "self_type" : "_ZTIPK18ssl_quic_method_st",
   "size" : 8,
   "source_file" : "/external/boringssl/src/include/openssl/ssl.h"
  },
  {
   "alignment" : 8,
   "linker_set_key" : "_ZTIPK18stack_st_ASN1_TYPE",
   "name" : "const stack_st_ASN1_TYPE *",
   "referenced_type" : "_ZTIK18stack_st_ASN1_TYPE",
   "self_type" : "_ZTIPK18stack_st_ASN1_TYPE",
   "size" : 8,
   "source_file" : "/external/boringssl/src/include/openssl/asn1.h"
  },
  {
   "alignment" : 8,
   "linker_set_key" : "_ZTIPK18stack_st_X509_INFO",
   "name" : "const stack_st_X509_INFO *",
   "referenced_type" : "_ZTIK18stack_st_X509_INFO",
   "self_type" : "_ZTIPK18stack_st_X509_INFO",
   "size" : 8,
   "source_file" : "/external/boringssl/src/include/openssl/x509.h"
  },
  {
   "alignment" : 8,
   "linker_set_key" : "_ZTIPK18stack_st_X509_NAME",
   "name" : "const stack_st_X509_NAME *",
   "referenced_type" : "_ZTIK18stack_st_X509_NAME",
   "self_type" : "_ZTIPK18stack_st_X509_NAME",
   "size" : 8,
   "source_file" : "/external/boringssl/src/include/openssl/x509.h"
  },
  {
   "alignment" : 8,
   "linker_set_key" : "_ZTIPK18x509_attributes_st",
   "name" : "const x509_attributes_st *",
   "referenced_type" : "_ZTIK18x509_attributes_st",
   "self_type" : "_ZTIPK18x509_attributes_st",
   "size" : 8,
   "source_file" : "/external/boringssl/src/include/openssl/x509.h"
  },
  {
   "alignment" : 8,
   "linker_set_key" : "_ZTIPK18x509_crl_method_st",
   "name" : "const x509_crl_method_st *",
   "referenced_type" : "_ZTIK18x509_crl_method_st",
   "self_type" : "_ZTIPK18x509_crl_method_st",
   "size" : 8,
   "source_file" : "/external/boringssl/src/include/openssl/x509.h"
  },
  {
   "alignment" : 8,
   "linker_set_key" : "_ZTIPK19X509_POLICY_NODE_st",
   "name" : "const X509_POLICY_NODE_st *",
   "referenced_type" : "_ZTIK19X509_POLICY_NODE_st",
   "self_type" : "_ZTIPK19X509_POLICY_NODE_st",
   "size" : 8,
   "source_file" : "/external/boringssl/src/include/openssl/x509v3.h"
  },
  {
   "alignment" : 8,
   "linker_set_key" : "_ZTIPK19stack_st_CONF_VALUE",
   "name" : "const stack_st_CONF_VALUE *",
   "referenced_type" : "_ZTIK19stack_st_CONF_VALUE",
   "self_type" : "_ZTIPK19stack_st_CONF_VALUE",
   "size" : 8,
   "source_file" : "/external/boringssl/src/include/openssl/conf.h"
  },
  {
   "alignment" : 8,
   "linker_set_key" : "_ZTIPK19stack_st_DIST_POINT",
   "name" : "const stack_st_DIST_POINT *",
   "referenced_type" : "_ZTIK19stack_st_DIST_POINT",
   "self_type" : "_ZTIPK19stack_st_DIST_POINT",
   "size" : 8,
   "source_file" : "/external/boringssl/src/include/openssl/x509v3.h"
  },
  {
   "alignment" : 8,
   "linker_set_key" : "_ZTIPK19stack_st_POLICYINFO",
   "name" : "const stack_st_POLICYINFO *",
   "referenced_type" : "_ZTIK19stack_st_POLICYINFO",
   "self_type" : "_ZTIPK19stack_st_POLICYINFO",
   "size" : 8,
   "source_file" : "/external/boringssl/src/include/openssl/x509v3.h"
  },
  {
   "alignment" : 8,
   "linker_set_key" : "_ZTIPK19stack_st_SSL_CIPHER",
   "name" : "const stack_st_SSL_CIPHER *",
   "referenced_type" : "_ZTIK19stack_st_SSL_CIPHER",
   "self_type" : "_ZTIPK19stack_st_SSL_CIPHER",
   "size" : 8,
   "source_file" : "/external/boringssl/src/include/openssl/ssl.h"
  },
  {
   "alignment" : 8,
   "linker_set_key" : "_ZTIPK19stack_st_X509_ALGOR",
   "name" : "const stack_st_X509_ALGOR *",
   "referenced_type" : "_ZTIK19stack_st_X509_ALGOR",
   "self_type" : "_ZTIPK19stack_st_X509_ALGOR",
   "size" : 8,
   "source_file" : "/external/boringssl/src/include/openssl/x509.h"
  },
  {
   "alignment" : 8,
   "linker_set_key" : "_ZTIPK19stack_st_X509_TRUST",
   "name" : "const stack_st_X509_TRUST *",
   "referenced_type" : "_ZTIK19stack_st_X509_TRUST",
   "self_type" : "_ZTIPK19stack_st_X509_TRUST",
   "size" : 8,
   "source_file" : "/external/boringssl/src/include/openssl/x509.h"
  },
  {
   "alignment" : 8,
   "linker_set_key" : "_ZTIPK20X509_VERIFY_PARAM_st",
   "name" : "const X509_VERIFY_PARAM_st *",
   "referenced_type" : "_ZTIK20X509_VERIFY_PARAM_st",
   "self_type" : "_ZTIPK20X509_VERIFY_PARAM_st",
   "size" : 8,
   "source_file" : "/external/boringssl/src/include/openssl/x509_vfy.h"
  },
  {
   "alignment" : 8,
   "linker_set_key" : "_ZTIPK20stack_st_ASN1_OBJECT",
   "name" : "const stack_st_ASN1_OBJECT *",
   "referenced_type" : "_ZTIK20stack_st_ASN1_OBJECT",
   "self_type" : "_ZTIPK20stack_st_ASN1_OBJECT",
   "size" : 8,
   "source_file" : "/external/boringssl/src/include/openssl/asn1.h"
  },
  {
   "alignment" : 8,
   "linker_set_key" : "_ZTIPK20stack_st_X509_LOOKUP",
   "name" : "const stack_st_X509_LOOKUP *",
   "referenced_type" : "_ZTIK20stack_st_X509_LOOKUP",
   "self_type" : "_ZTIPK20stack_st_X509_LOOKUP",
   "size" : 8,
   "source_file" : "/external/boringssl/src/include/openssl/x509_vfy.h"
  },
  {
   "alignment" : 8,
   "linker_set_key" : "_ZTIPK20stack_st_X509_OBJECT",
   "name" : "const stack_st_X509_OBJECT *",
   "referenced_type" : "_ZTIK20stack_st_X509_OBJECT",
   "self_type" : "_ZTIPK20stack_st_X509_OBJECT",
   "size" : 8,
   "source_file" : "/external/boringssl/src/include/openssl/x509_vfy.h"
  },
  {
   "alignment" : 8,
   "linker_set_key" : "_ZTIPK21ACCESS_DESCRIPTION_st",
   "name" : "const ACCESS_DESCRIPTION_st *",
   "referenced_type" : "_ZTIK21ACCESS_DESCRIPTION_st",
   "self_type" : "_ZTIPK21ACCESS_DESCRIPTION_st",
   "size" : 8,
   "source_file" : "/external/boringssl/src/include/openssl/x509v3.h"
  },
  {
   "alignment" : 8,
   "linker_set_key" : "_ZTIPK21X509V3_CONF_METHOD_st",
   "name" : "const X509V3_CONF_METHOD_st *",
   "referenced_type" : "_ZTIK21X509V3_CONF_METHOD_st",
   "self_type" : "_ZTIPK21X509V3_CONF_METHOD_st",
   "size" : 8,
   "source_file" : "/external/boringssl/src/include/openssl/x509v3.h"
  },
  {
   "alignment" : 8,
   "linker_set_key" : "_ZTIPK21ossl_init_settings_st",
   "name" : "const ossl_init_settings_st *",
   "referenced_type" : "_ZTIK21ossl_init_settings_st",
   "self_type" : "_ZTIPK21ossl_init_settings_st",
   "size" : 8,
   "source_file" : "/external/boringssl/src/include/openssl/ssl.h"
  },
  {
   "alignment" : 8,
   "linker_set_key" : "_ZTIPK21stack_st_ASN1_INTEGER",
   "name" : "const stack_st_ASN1_INTEGER *",
   "referenced_type" : "_ZTIK21stack_st_ASN1_INTEGER",
   "self_type" : "_ZTIPK21stack_st_ASN1_INTEGER",
   "size" : 8,
   "source_file" : "/external/boringssl/src/include/openssl/asn1.h"
  },
  {
   "alignment" : 8,
   "linker_set_key" : "_ZTIPK21stack_st_GENERAL_NAME",
   "name" : "const stack_st_GENERAL_NAME *",
   "referenced_type" : "_ZTIK21stack_st_GENERAL_NAME",
   "self_type" : "_ZTIPK21stack_st_GENERAL_NAME",
   "size" : 8,
   "source_file" : "/external/boringssl/src/include/openssl/x509v3.h"
  },
  {
   "alignment" : 8,
   "linker_set_key" : "_ZTIPK21stack_st_X509_PURPOSE",
   "name" : "const stack_st_X509_PURPOSE *",
   "referenced_type" : "_ZTIK21stack_st_X509_PURPOSE",
   "self_type" : "_ZTIPK21stack_st_X509_PURPOSE",
   "size" : 8,
   "source_file" : "/external/boringssl/src/include/openssl/x509v3.h"
  },
  {
   "alignment" : 8,
   "linker_set_key" : "_ZTIPK21stack_st_X509_REVOKED",
   "name" : "const stack_st_X509_REVOKED *",
   "referenced_type" : "_ZTIK21stack_st_X509_REVOKED",
   "self_type" : "_ZTIPK21stack_st_X509_REVOKED",
   "size" : 8,
   "source_file" : "/external/boringssl/src/include/openssl/x509.h"
  },
  {
   "alignment" : 8,
   "linker_set_key" : "_ZTIPK22ssl_early_callback_ctx",
   "name" : "const ssl_early_callback_ctx *",
   "referenced_type" : "_ZTIK22ssl_early_callback_ctx",
   "self_type" : "_ZTIPK22ssl_early_callback_ctx",
   "size" : 8,
   "source_file" : "/external/boringssl/src/include/openssl/ssl.h"
  },
  {
   "alignment" : 8,
   "linker_set_key" : "_ZTIPK22stack_st_CRYPTO_BUFFER",
   "name" : "const stack_st_CRYPTO_BUFFER *",
   "referenced_type" : "_ZTIK22stack_st_CRYPTO_BUFFER",
   "self_type" : "_ZTIPK22stack_st_CRYPTO_BUFFER",
   "size" : 8,
   "source_file" : "/external/boringssl/src/include/openssl/pool.h"
  },
  {
   "alignment" : 8,
   "linker_set_key" : "_ZTIPK22stack_st_GENERAL_NAMES",
   "name" : "const stack_st_GENERAL_NAMES *",
   "referenced_type" : "_ZTIK22stack_st_GENERAL_NAMES",
   "self_type" : "_ZTIPK22stack_st_GENERAL_NAMES",
   "size" : 8,
   "source_file" : "/external/boringssl/src/include/openssl/x509v3.h"
  },
  {
   "alignment" : 8,
   "linker_set_key" : "_ZTIPK23evp_pkey_asn1_method_st",
   "name" : "const evp_pkey_asn1_method_st *",
   "referenced_type" : "_ZTIK23evp_pkey_asn1_method_st",
   "self_type" : "_ZTIPK23evp_pkey_asn1_method_st",
   "size" : 8,
   "source_file" : "/external/boringssl/src/include/openssl/evp.h"
  },
  {
   "alignment" : 8,
   "linker_set_key" : "_ZTIPK23stack_st_OPENSSL_STRING",
   "name" : "const stack_st_OPENSSL_STRING *",
   "referenced_type" : "_ZTIK23stack_st_OPENSSL_STRING",
   "self_type" : "_ZTIPK23stack_st_OPENSSL_STRING",
   "size" : 8,
   "source_file" : "/external/boringssl/src/include/openssl/stack.h"
  },
  {
   "alignment" : 8,
   "linker_set_key" : "_ZTIPK23stack_st_POLICYQUALINFO",
   "name" : "const stack_st_POLICYQUALINFO *",
   "referenced_type" : "_ZTIK23stack_st_POLICYQUALINFO",
   "self_type" : "_ZTIPK23stack_st_POLICYQUALINFO",
   "size" : 8,
   "source_file" : "/external/boringssl/src/include/openssl/x509v3.h"
  },
  {
   "alignment" : 8,
   "linker_set_key" : "_ZTIPK23stack_st_POLICY_MAPPING",
   "name" : "const stack_st_POLICY_MAPPING *",
   "referenced_type" : "_ZTIK23stack_st_POLICY_MAPPING",
   "self_type" : "_ZTIPK23stack_st_POLICY_MAPPING",
   "size" : 8,
   "source_file" : "/external/boringssl/src/include/openssl/x509v3.h"
  },
  {
   "alignment" : 8,
   "linker_set_key" : "_ZTIPK23stack_st_X509_ATTRIBUTE",
   "name" : "const stack_st_X509_ATTRIBUTE *",
   "referenced_type" : "_ZTIK23stack_st_X509_ATTRIBUTE",
   "self_type" : "_ZTIPK23stack_st_X509_ATTRIBUTE",
   "size" : 8,
   "source_file" : "/external/boringssl/src/include/openssl/x509.h"
  },
  {
   "alignment" : 8,
   "linker_set_key" : "_ZTIPK23stack_st_X509_EXTENSION",
   "name" : "const stack_st_X509_EXTENSION *",
   "referenced_type" : "_ZTIK23stack_st_X509_EXTENSION",
   "self_type" : "_ZTIPK23stack_st_X509_EXTENSION",
   "size" : 8,
   "source_file" : "/external/boringssl/src/include/openssl/x509.h"
  },
  {
   "alignment" : 8,
   "linker_set_key" : "_ZTIPK24stack_st_GENERAL_SUBTREE",
   "name" : "const stack_st_GENERAL_SUBTREE *",
   "referenced_type" : "_ZTIK24stack_st_GENERAL_SUBTREE",
   "self_type" : "_ZTIPK24stack_st_GENERAL_SUBTREE",
   "size" : 8,
   "source_file" : "/external/boringssl/src/include/openssl/x509v3.h"
  },
  {
   "alignment" : 8,
   "linker_set_key" : "_ZTIPK24stack_st_X509_NAME_ENTRY",
   "name" : "const stack_st_X509_NAME_ENTRY *",
   "referenced_type" : "_ZTIK24stack_st_X509_NAME_ENTRY",
   "self_type" : "_ZTIPK24stack_st_X509_NAME_ENTRY",
   "size" : 8,
   "source_file" : "/external/boringssl/src/include/openssl/x509.h"
  },
  {
   "alignment" : 8,
   "linker_set_key" : "_ZTIPK25ssl_private_key_method_st",
   "name" : "const ssl_private_key_method_st *",
   "referenced_type" : "_ZTIK25ssl_private_key_method_st",
   "self_type" : "_ZTIPK25ssl_private_key_method_st",
   "size" : 8,
   "source_file" : "/external/boringssl/src/include/openssl/ssl.h"
  },
  {
   "alignment" : 8,
   "linker_set_key" : "_ZTIPK25ssl_ticket_aead_method_st",
   "name" : "const ssl_ticket_aead_method_st *",
   "referenced_type" : "_ZTIK25ssl_ticket_aead_method_st",
   "self_type" : "_ZTIPK25ssl_ticket_aead_method_st",
   "size" : 8,
   "source_file" : "/external/boringssl/src/include/openssl/ssl.h"
  },
  {
   "alignment" : 8,
   "linker_set_key" : "_ZTIPK25stack_st_X509_POLICY_NODE",
   "name" : "const stack_st_X509_POLICY_NODE *",
   "referenced_type" : "_ZTIK25stack_st_X509_POLICY_NODE",
   "self_type" : "_ZTIPK25stack_st_X509_POLICY_NODE",
   "size" : 8,
   "source_file" : "/external/boringssl/src/include/openssl/x509v3.h"
  },
  {
   "alignment" : 8,
   "linker_set_key" : "_ZTIPK26srtp_protection_profile_st",
   "name" : "const srtp_protection_profile_st *",
   "referenced_type" : "_ZTIK26srtp_protection_profile_st",
   "self_type" : "_ZTIPK26srtp_protection_profile_st",
   "size" : 8,
   "source_file" : "/external/boringssl/src/include/openssl/ssl.h"
  },
  {
   "alignment" : 8,
   "linker_set_key" : "_ZTIPK26stack_st_X509V3_EXT_METHOD",
   "name" : "const stack_st_X509V3_EXT_METHOD *",
   "referenced_type" : "_ZTIK26stack_st_X509V3_EXT_METHOD",
   "self_type" : "_ZTIPK26stack_st_X509V3_EXT_METHOD",
   "size" : 8,
   "source_file" : "/external/boringssl/src/include/openssl/x509v3.h"
  },
  {
   "alignment" : 8,
   "linker_set_key" : "_ZTIPK26stack_st_X509_VERIFY_PARAM",
   "name" : "const stack_st_X509_VERIFY_PARAM *",
   "referenced_type" : "_ZTIK26stack_st_X509_VERIFY_PARAM",
   "self_type" : "_ZTIPK26stack_st_X509_VERIFY_PARAM",
   "size" : 8,
   "source_file" : "/external/boringssl/src/include/openssl/x509_vfy.h"
  },
  {
   "alignment" : 8,
   "linker_set_key" : "_ZTIPK27stack_st_ACCESS_DESCRIPTION",
   "name" : "const stack_st_ACCESS_DESCRIPTION *",
   "referenced_type" : "_ZTIK27stack_st_ACCESS_DESCRIPTION",
   "self_type" : "_ZTIPK27stack_st_ACCESS_DESCRIPTION",
   "size" : 8,
   "source_file" : "/external/boringssl/src/include/openssl/x509v3.h"
  },
  {
   "alignment" : 8,
   "linker_set_key" : "_ZTIPK32stack_st_SRTP_PROTECTION_PROFILE",
   "name" : "const stack_st_SRTP_PROTECTION_PROFILE *",
   "referenced_type" : "_ZTIK32stack_st_SRTP_PROTECTION_PROFILE",
   "self_type" : "_ZTIPK32stack_st_SRTP_PROTECTION_PROFILE",
   "size" : 8,
   "source_file" : "/external/boringssl/src/include/openssl/ssl.h"
  },
  {
   "alignment" : 8,
   "linker_set_key" : "_ZTIPK5dh_st",
   "name" : "const dh_st *",
   "referenced_type" : "_ZTIK5dh_st",
   "self_type" : "_ZTIPK5dh_st",
   "size" : 8,
   "source_file" : "/external/boringssl/src/include/openssl/ssl.h"
  },
  {
   "alignment" : 8,
   "linker_set_key" : "_ZTIPK6bio_st",
   "name" : "const bio_st *",
   "referenced_type" : "_ZTIK6bio_st",
   "self_type" : "_ZTIPK6bio_st",
   "size" : 8,
   "source_file" : "/external/boringssl/src/include/openssl/bio.h"
  },
  {
   "alignment" : 8,
   "linker_set_key" : "_ZTIPK6cbs_st",
   "name" : "const cbs_st *",
   "referenced_type" : "_ZTIK6cbs_st",
   "self_type" : "_ZTIPK6cbs_st",
   "size" : 8,
   "source_file" : "/external/boringssl/src/include/openssl/bytestring.h"
  },
  {
   "alignment" : 8,
   "linker_set_key" : "_ZTIPK6rsa_st",
   "name" : "const rsa_st *",
   "referenced_type" : "_ZTIK6rsa_st",
   "self_type" : "_ZTIPK6rsa_st",
   "size" : 8,
   "source_file" : "/external/boringssl/src/include/openssl/rsa.h"
  },
  {
   "alignment" : 8,
   "linker_set_key" : "_ZTIPK6ssl_st",
   "name" : "const ssl_st *",
   "referenced_type" : "_ZTIK6ssl_st",
   "self_type" : "_ZTIPK6ssl_st",
   "size" : 8,
   "source_file" : "/external/boringssl/src/include/openssl/ssl.h"
  },
  {
   "alignment" : 8,
   "linker_set_key" : "_ZTIPK7x509_st",
   "name" : "const x509_st *",
   "referenced_type" : "_ZTIK7x509_st",
   "self_type" : "_ZTIPK7x509_st",
   "size" : 8,
   "source_file" : "/external/boringssl/src/include/openssl/x509.h"
  },
  {
   "alignment" : 8,
   "linker_set_key" : "_ZTIPK9ec_key_st",
   "name" : "const ec_key_st *",
   "referenced_type" : "_ZTIK9ec_key_st",
   "self_type" : "_ZTIPK9ec_key_st",
   "size" : 8,
   "source_file" : "/external/boringssl/src/include/openssl/ec_key.h"
  },
  {
   "alignment" : 8,
   "linker_set_key" : "_ZTIPK9env_md_st",
   "name" : "const env_md_st *",
   "referenced_type" : "_ZTIK9env_md_st",
   "self_type" : "_ZTIPK9env_md_st",
   "size" : 8,
   "source_file" : "/external/boringssl/src/include/openssl/digest.h"
  },
  {
   "alignment" : 8,
   "linker_set_key" : "_ZTIPKN4bssl10NamedGroupE",
   "name" : "const bssl::NamedGroup *",
   "referenced_type" : "_ZTIKN4bssl10NamedGroupE",
   "self_type" : "_ZTIPKN4bssl10NamedGroupE",
   "size" : 8,
   "source_file" : "/external/boringssl/src/include/openssl/span.h"
  },
  {
   "alignment" : 8,
   "linker_set_key" : "_ZTIPKN4bssl4SpanIK13ssl_cipher_stEE",
   "name" : "const bssl::Span<const ssl_cipher_st> *",
   "referenced_type" : "_ZTIKN4bssl4SpanIK13ssl_cipher_stEE",
   "self_type" : "_ZTIPKN4bssl4SpanIK13ssl_cipher_stEE",
   "size" : 8,
   "source_file" : "/external/boringssl/src/include/openssl/span.h"
  },
  {
   "alignment" : 8,
   "linker_set_key" : "_ZTIPKN4bssl4SpanIKNS_10NamedGroupEEE",
   "name" : "const bssl::Span<const bssl::NamedGroup> *",
   "referenced_type" : "_ZTIKN4bssl4SpanIKNS_10NamedGroupEEE",
   "self_type" : "_ZTIPKN4bssl4SpanIKNS_10NamedGroupEEE",
   "size" : 8,
   "source_file" : "/external/boringssl/src/include/openssl/span.h"
  },
  {
   "alignment" : 8,
   "linker_set_key" : "_ZTIPKN4bssl4SpanIKbEE",
   "name" : "const bssl::Span<const bool> *",
   "referenced_type" : "_ZTIKN4bssl4SpanIKbEE",
   "self_type" : "_ZTIPKN4bssl4SpanIKbEE",
   "size" : 8,
   "source_file" : "/external/boringssl/src/include/openssl/span.h"
  },
  {
   "alignment" : 8,
   "linker_set_key" : "_ZTIPKN4bssl4SpanIKcEE",
   "name" : "const bssl::Span<const char> *",
   "referenced_type" : "_ZTIKN4bssl4SpanIKcEE",
   "self_type" : "_ZTIPKN4bssl4SpanIKcEE",
   "size" : 8,
   "source_file" : "/external/boringssl/src/include/openssl/span.h"
  },
  {
   "alignment" : 8,
   "linker_set_key" : "_ZTIPKN4bssl4SpanIKhEE",
   "name" : "const bssl::Span<const unsigned char> *",
   "referenced_type" : "_ZTIKN4bssl4SpanIKhEE",
   "self_type" : "_ZTIPKN4bssl4SpanIKhEE",
   "size" : 8,
   "source_file" : "/external/boringssl/src/include/openssl/span.h"
  },
  {
   "alignment" : 8,
   "linker_set_key" : "_ZTIPKN4bssl4SpanIKiEE",
   "name" : "const bssl::Span<const int> *",
   "referenced_type" : "_ZTIKN4bssl4SpanIKiEE",
   "self_type" : "_ZTIPKN4bssl4SpanIKiEE",
   "size" : 8,
   "source_file" : "/external/boringssl/src/include/openssl/span.h"
  },
  {
   "alignment" : 8,
   "linker_set_key" : "_ZTIPKN4bssl4SpanIKtEE",
   "name" : "const bssl::Span<const unsigned short> *",
   "referenced_type" : "_ZTIKN4bssl4SpanIKtEE",
   "self_type" : "_ZTIPKN4bssl4SpanIKtEE",
   "size" : 8,
   "source_file" : "/external/boringssl/src/include/openssl/span.h"
  },
  {
   "alignment" : 8,
   "linker_set_key" : "_ZTIPKN4bssl4SpanIhEE",
   "name" : "const bssl::Span<unsigned char> *",
   "referenced_type" : "_ZTIKN4bssl4SpanIhEE",
   "self_type" : "_ZTIPKN4bssl4SpanIhEE",
   "size" : 8,
   "source_file" : "/external/boringssl/src/include/openssl/span.h"
  },
  {
   "alignment" : 8,
   "linker_set_key" : "_ZTIPKN4bssl8internal14StackAllocatedI13env_md_ctx_stiXadL_Z15EVP_MD_CTX_initEEXadL_Z18EVP_MD_CTX_cleanupEEEE",
   "name" : "const bssl::internal::StackAllocated<env_md_ctx_st, int, &EVP_MD_CTX_init, &EVP_MD_CTX_cleanup> *",
   "referenced_type" : "_ZTIKN4bssl8internal14StackAllocatedI13env_md_ctx_stiXadL_Z15EVP_MD_CTX_initEEXadL_Z18EVP_MD_CTX_cleanupEEEE",
   "self_type" : "_ZTIPKN4bssl8internal14StackAllocatedI13env_md_ctx_stiXadL_Z15EVP_MD_CTX_initEEXadL_Z18EVP_MD_CTX_cleanupEEEE",
   "size" : 8,
   "source_file" : "/external/boringssl/src/include/openssl/base.h"
  },
  {
   "alignment" : 8,
   "linker_set_key" : "_ZTIPKN4bssl8internal14StackAllocatedI15evp_aead_ctx_stvXadL_Z17EVP_AEAD_CTX_zeroEEXadL_Z20EVP_AEAD_CTX_cleanupEEEE",
   "name" : "const bssl::internal::StackAllocated<evp_aead_ctx_st, void, &EVP_AEAD_CTX_zero, &EVP_AEAD_CTX_cleanup> *",
   "referenced_type" : "_ZTIKN4bssl8internal14StackAllocatedI15evp_aead_ctx_stvXadL_Z17EVP_AEAD_CTX_zeroEEXadL_Z20EVP_AEAD_CTX_cleanupEEEE",
   "self_type" : "_ZTIPKN4bssl8internal14StackAllocatedI15evp_aead_ctx_stvXadL_Z17EVP_AEAD_CTX_zeroEEXadL_Z20EVP_AEAD_CTX_cleanupEEEE",
   "size" : 8,
   "source_file" : "/external/boringssl/src/include/openssl/base.h"
  },
  {
   "alignment" : 8,
   "linker_set_key" : "_ZTIPKN4bssl8internal17StackIteratorImplI13stack_st_X509EE",
   "name" : "const bssl::internal::StackIteratorImpl<stack_st_X509> *",
   "referenced_type" : "_ZTIKN4bssl8internal17StackIteratorImplI13stack_st_X509EE",
   "self_type" : "_ZTIPKN4bssl8internal17StackIteratorImplI13stack_st_X509EE",
   "size" : 8,
   "source_file" : "/external/boringssl/src/include/openssl/stack.h"
  },
  {
   "alignment" : 8,
   "linker_set_key" : "_ZTIPKN4bssl8internal17StackIteratorImplI18stack_st_X509_NAMEEE",
   "name" : "const bssl::internal::StackIteratorImpl<stack_st_X509_NAME> *",
   "referenced_type" : "_ZTIKN4bssl8internal17StackIteratorImplI18stack_st_X509_NAMEEE",
   "self_type" : "_ZTIPKN4bssl8internal17StackIteratorImplI18stack_st_X509_NAMEEE",
   "size" : 8,
   "source_file" : "/external/boringssl/src/include/openssl/stack.h"
  },
  {
   "alignment" : 8,
   "linker_set_key" : "_ZTIPKN4bssl8internal17StackIteratorImplI19stack_st_SSL_CIPHEREE",
   "name" : "const bssl::internal::StackIteratorImpl<stack_st_SSL_CIPHER> *",
   "referenced_type" : "_ZTIKN4bssl8internal17StackIteratorImplI19stack_st_SSL_CIPHEREE",
   "self_type" : "_ZTIPKN4bssl8internal17StackIteratorImplI19stack_st_SSL_CIPHEREE",
   "size" : 8,
   "source_file" : "/external/boringssl/src/include/openssl/stack.h"
  },
  {
   "alignment" : 8,
   "linker_set_key" : "_ZTIPKN4bssl8internal17StackIteratorImplI22stack_st_CRYPTO_BUFFEREE",
   "name" : "const bssl::internal::StackIteratorImpl<stack_st_CRYPTO_BUFFER> *",
   "referenced_type" : "_ZTIKN4bssl8internal17StackIteratorImplI22stack_st_CRYPTO_BUFFEREE",
   "self_type" : "_ZTIPKN4bssl8internal17StackIteratorImplI22stack_st_CRYPTO_BUFFEREE",
   "size" : 8,
   "source_file" : "/external/boringssl/src/include/openssl/stack.h"
  },
  {
   "alignment" : 8,
   "linker_set_key" : "_ZTIPKN4bssl8internal17StackIteratorImplI32stack_st_SRTP_PROTECTION_PROFILEEE",
   "name" : "const bssl::internal::StackIteratorImpl<stack_st_SRTP_PROTECTION_PROFILE> *",
   "referenced_type" : "_ZTIKN4bssl8internal17StackIteratorImplI32stack_st_SRTP_PROTECTION_PROFILEEE",
   "self_type" : "_ZTIPKN4bssl8internal17StackIteratorImplI32stack_st_SRTP_PROTECTION_PROFILEEE",
   "size" : 8,
   "source_file" : "/external/boringssl/src/include/openssl/stack.h"
  },
  {
   "alignment" : 8,
   "linker_set_key" : "_ZTIPKP16crypto_buffer_st",
   "name" : "crypto_buffer_st *const *",
   "referenced_type" : "_ZTIKP16crypto_buffer_st",
   "self_type" : "_ZTIPKP16crypto_buffer_st",
   "size" : 8,
   "source_file" : "/external/boringssl/src/include/openssl/ssl.h"
  },
  {
   "alignment" : 8,
   "linker_set_key" : "_ZTIPKPc",
   "name" : "char *const *",
   "referenced_type" : "_ZTIKPc",
   "self_type" : "_ZTIPKPc",
   "size" : 8,
   "source_file" : "/external/boringssl/src/include/openssl/stack.h"
  },
  {
   "alignment" : 8,
   "linker_set_key" : "_ZTIPKb",
   "name" : "const bool *",
   "referenced_type" : "_ZTIKb",
   "self_type" : "_ZTIPKb",
   "size" : 8,
   "source_file" : "/external/boringssl/src/include/openssl/span.h"
  },
  {
   "alignment" : 8,
   "linker_set_key" : "_ZTIPKc",
   "name" : "const char *",
   "referenced_type" : "_ZTIKc",
   "self_type" : "_ZTIPKc",
   "size" : 8,
   "source_file" : "/external/boringssl/src/include/openssl/bio.h"
  },
  {
   "alignment" : 8,
   "linker_set_key" : "_ZTIPKh",
   "name" : "const unsigned char *",
   "referenced_type" : "_ZTIKh",
   "self_type" : "_ZTIPKh",
   "size" : 8,
   "source_file" : "/external/boringssl/src/include/openssl/cipher.h"
  },
  {
   "alignment" : 8,
   "linker_set_key" : "_ZTIPKi",
   "name" : "const int *",
   "referenced_type" : "_ZTIKi",
   "self_type" : "_ZTIPKi",
   "size" : 8,
   "source_file" : "/external/boringssl/src/include/openssl/span.h"
  },
  {
   "alignment" : 8,
   "linker_set_key" : "_ZTIPKt",
   "name" : "const unsigned short *",
   "referenced_type" : "_ZTIKt",
   "self_type" : "_ZTIPKt",
   "size" : 8,
   "source_file" : "/external/boringssl/src/include/openssl/span.h"
  },
  {
   "alignment" : 8,
   "linker_set_key" : "_ZTIPKv",
   "name" : "const void *",
   "referenced_type" : "_ZTIKv",
   "self_type" : "_ZTIPKv",
   "size" : 8,
   "source_file" : "/external/boringssl/src/include/openssl/stack.h"
  },
  {
   "alignment" : 8,
   "linker_set_key" : "_ZTIPN4bssl10SSL3_STATEE",
   "name" : "bssl::SSL3_STATE *",
   "referenced_type" : "_ZTIN4bssl10SSL3_STATEE",
   "self_type" : "_ZTIPN4bssl10SSL3_STATEE",
   "size" : 8,
   "source_file" : "/external/boringssl/src/include/openssl/base.h"
  },
  {
   "alignment" : 8,
   "linker_set_key" : "_ZTIPN4bssl10SSL_CONFIGE",
   "name" : "bssl::SSL_CONFIG *",
   "referenced_type" : "_ZTIN4bssl10SSL_CONFIGE",
   "self_type" : "_ZTIPN4bssl10SSL_CONFIGE",
   "size" : 8,
   "source_file" : "/external/boringssl/src/include/openssl/base.h"
  },
  {
   "alignment" : 8,
   "linker_set_key" : "_ZTIPN4bssl11BN_CTXScopeE",
   "name" : "bssl::BN_CTXScope *",
   "referenced_type" : "_ZTIN4bssl11BN_CTXScopeE",
   "self_type" : "_ZTIPN4bssl11BN_CTXScopeE",
   "size" : 8,
   "source_file" : "/external/boringssl/src/include/openssl/bn.h"
  },
  {
   "alignment" : 8,
   "linker_set_key" : "_ZTIPN4bssl11DTLS1_STATEE",
   "name" : "bssl::DTLS1_STATE *",
   "referenced_type" : "_ZTIN4bssl11DTLS1_STATEE",
   "self_type" : "_ZTIPN4bssl11DTLS1_STATEE",
   "size" : 8,
   "source_file" : "/external/boringssl/src/include/openssl/base.h"
  },
  {
   "alignment" : 8,
   "linker_set_key" : "_ZTIPN4bssl11SSLKeyShareE",
   "name" : "bssl::SSLKeyShare *",
   "referenced_type" : "_ZTIN4bssl11SSLKeyShareE",
   "self_type" : "_ZTIPN4bssl11SSLKeyShareE",
   "size" : 8,
   "source_file" : "/external/boringssl/src/include/openssl/base.h"
  },
  {
   "alignment" : 8,
   "linker_set_key" : "_ZTIPN4bssl11hm_fragmentE",
   "name" : "bssl::hm_fragment *",
   "referenced_type" : "_ZTIN4bssl11hm_fragmentE",
   "self_type" : "_ZTIPN4bssl11hm_fragmentE",
   "size" : 8,
   "source_file" : "/external/boringssl/src/include/openssl/base.h"
  },
  {
   "alignment" : 8,
   "linker_set_key" : "_ZTIPN4bssl13SSL_HANDSHAKEE",
   "name" : "bssl::SSL_HANDSHAKE *",
   "referenced_type" : "_ZTIN4bssl13SSL_HANDSHAKEE",
   "self_type" : "_ZTIPN4bssl13SSL_HANDSHAKEE",
   "size" : 8,
   "source_file" : "/external/boringssl/src/include/openssl/base.h"
  },
  {
   "alignment" : 8,
   "linker_set_key" : "_ZTIPN4bssl14SSLAEADContextE",
   "name" : "bssl::SSLAEADContext *",
   "referenced_type" : "_ZTIN4bssl14SSLAEADContextE",
   "self_type" : "_ZTIPN4bssl14SSLAEADContextE",
   "size" : 8,
   "source_file" : "/external/boringssl/src/include/openssl/base.h"
  },
  {
   "alignment" : 8,
   "linker_set_key" : "_ZTIPN4bssl23SSLCipherPreferenceListE",
   "name" : "bssl::SSLCipherPreferenceList *",
   "referenced_type" : "_ZTIN4bssl23SSLCipherPreferenceListE",
   "self_type" : "_ZTIPN4bssl23SSLCipherPreferenceListE",
   "size" : 8,
   "source_file" : "/external/boringssl/src/include/openssl/base.h"
  },
  {
   "alignment" : 8,
   "linker_set_key" : "_ZTIPN4bssl2DCE",
   "name" : "bssl::DC *",
   "referenced_type" : "_ZTIN4bssl2DCE",
   "self_type" : "_ZTIPN4bssl2DCE",
   "size" : 8,
   "source_file" : "/external/boringssl/src/include/openssl/base.h"
  },
  {
   "alignment" : 8,
   "linker_set_key" : "_ZTIPN4bssl4CERTE",
   "name" : "bssl::CERT *",
   "referenced_type" : "_ZTIN4bssl4CERTE",
   "self_type" : "_ZTIPN4bssl4CERTE",
   "size" : 8,
   "source_file" : "/external/boringssl/src/include/openssl/base.h"
  },
  {
   "alignment" : 8,
   "linker_set_key" : "_ZTIPN4bssl4SpanIK13ssl_cipher_stEE",
   "name" : "bssl::Span<const ssl_cipher_st> *",
   "referenced_type" : "_ZTIN4bssl4SpanIK13ssl_cipher_stEE",
   "self_type" : "_ZTIPN4bssl4SpanIK13ssl_cipher_stEE",
   "size" : 8,
   "source_file" : "/external/boringssl/src/include/openssl/span.h"
  },
  {
   "alignment" : 8,
   "linker_set_key" : "_ZTIPN4bssl4SpanIKNS_10NamedGroupEEE",
   "name" : "bssl::Span<const bssl::NamedGroup> *",
   "referenced_type" : "_ZTIN4bssl4SpanIKNS_10NamedGroupEEE",
   "self_type" : "_ZTIPN4bssl4SpanIKNS_10NamedGroupEEE",
   "size" : 8,
   "source_file" : "/external/boringssl/src/include/openssl/span.h"
  },
  {
   "alignment" : 8,
   "linker_set_key" : "_ZTIPN4bssl4SpanIKbEE",
   "name" : "bssl::Span<const bool> *",
   "referenced_type" : "_ZTIN4bssl4SpanIKbEE",
   "self_type" : "_ZTIPN4bssl4SpanIKbEE",
   "size" : 8,
   "source_file" : "/external/boringssl/src/include/openssl/span.h"
  },
  {
   "alignment" : 8,
   "linker_set_key" : "_ZTIPN4bssl4SpanIKcEE",
   "name" : "bssl::Span<const char> *",
   "referenced_type" : "_ZTIN4bssl4SpanIKcEE",
   "self_type" : "_ZTIPN4bssl4SpanIKcEE",
   "size" : 8,
   "source_file" : "/external/boringssl/src/include/openssl/span.h"
  },
  {
   "alignment" : 8,
   "linker_set_key" : "_ZTIPN4bssl4SpanIKhEE",
   "name" : "bssl::Span<const unsigned char> *",
   "referenced_type" : "_ZTIN4bssl4SpanIKhEE",
   "self_type" : "_ZTIPN4bssl4SpanIKhEE",
   "size" : 8,
   "source_file" : "/external/boringssl/src/include/openssl/span.h"
  },
  {
   "alignment" : 8,
   "linker_set_key" : "_ZTIPN4bssl4SpanIKiEE",
   "name" : "bssl::Span<const int> *",
   "referenced_type" : "_ZTIN4bssl4SpanIKiEE",
   "self_type" : "_ZTIPN4bssl4SpanIKiEE",
   "size" : 8,
   "source_file" : "/external/boringssl/src/include/openssl/span.h"
  },
  {
   "alignment" : 8,
   "linker_set_key" : "_ZTIPN4bssl4SpanIKtEE",
   "name" : "bssl::Span<const unsigned short> *",
   "referenced_type" : "_ZTIN4bssl4SpanIKtEE",
   "self_type" : "_ZTIPN4bssl4SpanIKtEE",
   "size" : 8,
   "source_file" : "/external/boringssl/src/include/openssl/span.h"
  },
  {
   "alignment" : 8,
   "linker_set_key" : "_ZTIPN4bssl4SpanIhEE",
   "name" : "bssl::Span<unsigned char> *",
   "referenced_type" : "_ZTIN4bssl4SpanIhEE",
   "self_type" : "_ZTIPN4bssl4SpanIhEE",
   "size" : 8,
   "source_file" : "/external/boringssl/src/include/openssl/span.h"
  },
  {
   "alignment" : 8,
   "linker_set_key" : "_ZTIPN4bssl8internal14StackAllocatedI11hmac_ctx_stvXadL_Z13HMAC_CTX_initEEXadL_Z16HMAC_CTX_cleanupEEEE",
   "name" : "bssl::internal::StackAllocated<hmac_ctx_st, void, &HMAC_CTX_init, &HMAC_CTX_cleanup> *",
   "referenced_type" : "_ZTIN4bssl8internal14StackAllocatedI11hmac_ctx_stvXadL_Z13HMAC_CTX_initEEXadL_Z16HMAC_CTX_cleanupEEEE",
   "self_type" : "_ZTIPN4bssl8internal14StackAllocatedI11hmac_ctx_stvXadL_Z13HMAC_CTX_initEEXadL_Z16HMAC_CTX_cleanupEEEE",
   "size" : 8,
   "source_file" : "/external/boringssl/src/include/openssl/base.h"
  },
  {
   "alignment" : 8,
   "linker_set_key" : "_ZTIPN4bssl8internal14StackAllocatedI13env_md_ctx_stiXadL_Z15EVP_MD_CTX_initEEXadL_Z18EVP_MD_CTX_cleanupEEEE",
   "name" : "bssl::internal::StackAllocated<env_md_ctx_st, int, &EVP_MD_CTX_init, &EVP_MD_CTX_cleanup> *",
   "referenced_type" : "_ZTIN4bssl8internal14StackAllocatedI13env_md_ctx_stiXadL_Z15EVP_MD_CTX_initEEXadL_Z18EVP_MD_CTX_cleanupEEEE",
   "self_type" : "_ZTIPN4bssl8internal14StackAllocatedI13env_md_ctx_stiXadL_Z15EVP_MD_CTX_initEEXadL_Z18EVP_MD_CTX_cleanupEEEE",
   "size" : 8,
   "source_file" : "/external/boringssl/src/include/openssl/base.h"
  },
  {
   "alignment" : 8,
   "linker_set_key" : "_ZTIPN4bssl8internal14StackAllocatedI15evp_aead_ctx_stvXadL_Z17EVP_AEAD_CTX_zeroEEXadL_Z20EVP_AEAD_CTX_cleanupEEEE",
   "name" : "bssl::internal::StackAllocated<evp_aead_ctx_st, void, &EVP_AEAD_CTX_zero, &EVP_AEAD_CTX_cleanup> *",
   "referenced_type" : "_ZTIN4bssl8internal14StackAllocatedI15evp_aead_ctx_stvXadL_Z17EVP_AEAD_CTX_zeroEEXadL_Z20EVP_AEAD_CTX_cleanupEEEE",
   "self_type" : "_ZTIPN4bssl8internal14StackAllocatedI15evp_aead_ctx_stvXadL_Z17EVP_AEAD_CTX_zeroEEXadL_Z20EVP_AEAD_CTX_cleanupEEEE",
   "size" : 8,
   "source_file" : "/external/boringssl/src/include/openssl/base.h"
  },
  {
   "alignment" : 8,
   "linker_set_key" : "_ZTIPN4bssl8internal14StackAllocatedI17evp_cipher_ctx_stiXadL_Z19EVP_CIPHER_CTX_initEEXadL_Z22EVP_CIPHER_CTX_cleanupEEEE",
   "name" : "bssl::internal::StackAllocated<evp_cipher_ctx_st, int, &EVP_CIPHER_CTX_init, &EVP_CIPHER_CTX_cleanup> *",
   "referenced_type" : "_ZTIN4bssl8internal14StackAllocatedI17evp_cipher_ctx_stiXadL_Z19EVP_CIPHER_CTX_initEEXadL_Z22EVP_CIPHER_CTX_cleanupEEEE",
   "self_type" : "_ZTIPN4bssl8internal14StackAllocatedI17evp_cipher_ctx_stiXadL_Z19EVP_CIPHER_CTX_initEEXadL_Z22EVP_CIPHER_CTX_cleanupEEEE",
   "size" : 8,
   "source_file" : "/external/boringssl/src/include/openssl/base.h"
  },
  {
   "alignment" : 8,
   "linker_set_key" : "_ZTIPN4bssl8internal14StackAllocatedI17x509_store_ctx_stvXadL_Z19X509_STORE_CTX_zeroEEXadL_Z22X509_STORE_CTX_cleanupEEEE",
   "name" : "bssl::internal::StackAllocated<x509_store_ctx_st, void, &X509_STORE_CTX_zero, &X509_STORE_CTX_cleanup> *",
   "referenced_type" : "_ZTIN4bssl8internal14StackAllocatedI17x509_store_ctx_stvXadL_Z19X509_STORE_CTX_zeroEEXadL_Z22X509_STORE_CTX_cleanupEEEE",
   "self_type" : "_ZTIPN4bssl8internal14StackAllocatedI17x509_store_ctx_stvXadL_Z19X509_STORE_CTX_zeroEEXadL_Z22X509_STORE_CTX_cleanupEEEE",
   "size" : 8,
   "source_file" : "/external/boringssl/src/include/openssl/base.h"
  },
  {
   "alignment" : 8,
   "linker_set_key" : "_ZTIPN4bssl8internal14StackAllocatedI6cbb_stvXadL_Z8CBB_zeroEEXadL_Z11CBB_cleanupEEEE",
   "name" : "bssl::internal::StackAllocated<cbb_st, void, &CBB_zero, &CBB_cleanup> *",
   "referenced_type" : "_ZTIN4bssl8internal14StackAllocatedI6cbb_stvXadL_Z8CBB_zeroEEXadL_Z11CBB_cleanupEEEE",
   "self_type" : "_ZTIPN4bssl8internal14StackAllocatedI6cbb_stvXadL_Z8CBB_zeroEEXadL_Z11CBB_cleanupEEEE",
   "size" : 8,
   "source_file" : "/external/boringssl/src/include/openssl/base.h"
  },
  {
   "alignment" : 8,
   "linker_set_key" : "_ZTIPN4bssl8internal17StackIteratorImplI13stack_st_X509EE",
   "name" : "bssl::internal::StackIteratorImpl<stack_st_X509> *",
   "referenced_type" : "_ZTIN4bssl8internal17StackIteratorImplI13stack_st_X509EE",
   "self_type" : "_ZTIPN4bssl8internal17StackIteratorImplI13stack_st_X509EE",
   "size" : 8,
   "source_file" : "/external/boringssl/src/include/openssl/stack.h"
  },
  {
   "alignment" : 8,
   "linker_set_key" : "_ZTIPN4bssl8internal17StackIteratorImplI18stack_st_X509_NAMEEE",
   "name" : "bssl::internal::StackIteratorImpl<stack_st_X509_NAME> *",
   "referenced_type" : "_ZTIN4bssl8internal17StackIteratorImplI18stack_st_X509_NAMEEE",
   "self_type" : "_ZTIPN4bssl8internal17StackIteratorImplI18stack_st_X509_NAMEEE",
   "size" : 8,
   "source_file" : "/external/boringssl/src/include/openssl/stack.h"
  },
  {
   "alignment" : 8,
   "linker_set_key" : "_ZTIPN4bssl8internal17StackIteratorImplI19stack_st_SSL_CIPHEREE",
   "name" : "bssl::internal::StackIteratorImpl<stack_st_SSL_CIPHER> *",
   "referenced_type" : "_ZTIN4bssl8internal17StackIteratorImplI19stack_st_SSL_CIPHEREE",
   "self_type" : "_ZTIPN4bssl8internal17StackIteratorImplI19stack_st_SSL_CIPHEREE",
   "size" : 8,
   "source_file" : "/external/boringssl/src/include/openssl/stack.h"
  },
  {
   "alignment" : 8,
   "linker_set_key" : "_ZTIPN4bssl8internal17StackIteratorImplI22stack_st_CRYPTO_BUFFEREE",
   "name" : "bssl::internal::StackIteratorImpl<stack_st_CRYPTO_BUFFER> *",
   "referenced_type" : "_ZTIN4bssl8internal17StackIteratorImplI22stack_st_CRYPTO_BUFFEREE",
   "self_type" : "_ZTIPN4bssl8internal17StackIteratorImplI22stack_st_CRYPTO_BUFFEREE",
   "size" : 8,
   "source_file" : "/external/boringssl/src/include/openssl/stack.h"
  },
  {
   "alignment" : 8,
   "linker_set_key" : "_ZTIPN4bssl8internal17StackIteratorImplI32stack_st_SRTP_PROTECTION_PROFILEEE",
   "name" : "bssl::internal::StackIteratorImpl<stack_st_SRTP_PROTECTION_PROFILE> *",
   "referenced_type" : "_ZTIN4bssl8internal17StackIteratorImplI32stack_st_SRTP_PROTECTION_PROFILEEE",
   "self_type" : "_ZTIPN4bssl8internal17StackIteratorImplI32stack_st_SRTP_PROTECTION_PROFILEEE",
   "size" : 8,
   "source_file" : "/external/boringssl/src/include/openssl/stack.h"
  },
  {
   "alignment" : 8,
   "linker_set_key" : "_ZTIPN4bssl8internal7DeleterI10bignum_ctxEE",
   "name" : "bssl::internal::Deleter<bignum_ctx> *",
   "referenced_type" : "_ZTIN4bssl8internal7DeleterI10bignum_ctxEE",
   "self_type" : "_ZTIPN4bssl8internal7DeleterI10bignum_ctxEE",
   "size" : 8,
   "source_file" : "/external/boringssl/src/include/openssl/base.h"
  },
  {
   "alignment" : 8,
   "linker_set_key" : "_ZTIPN4bssl8internal7DeleterI10buf_mem_stEE",
   "name" : "bssl::internal::Deleter<buf_mem_st> *",
   "referenced_type" : "_ZTIN4bssl8internal7DeleterI10buf_mem_stEE",
   "self_type" : "_ZTIPN4bssl8internal7DeleterI10buf_mem_stEE",
   "size" : 8,
   "source_file" : "/external/boringssl/src/include/openssl/base.h"
  },
  {
   "alignment" : 8,
   "linker_set_key" : "_ZTIPN4bssl8internal7DeleterI10ssl_ctx_stEE",
   "name" : "bssl::internal::Deleter<ssl_ctx_st> *",
   "referenced_type" : "_ZTIN4bssl8internal7DeleterI10ssl_ctx_stEE",
   "self_type" : "_ZTIPN4bssl8internal7DeleterI10ssl_ctx_stEE",
   "size" : 8,
   "source_file" : "/external/boringssl/src/include/openssl/base.h"
  },
  {
   "alignment" : 8,
   "linker_set_key" : "_ZTIPN4bssl8internal7DeleterI11X509_crl_stEE",
   "name" : "bssl::internal::Deleter<X509_crl_st> *",
   "referenced_type" : "_ZTIN4bssl8internal7DeleterI11X509_crl_stEE",
   "self_type" : "_ZTIPN4bssl8internal7DeleterI11X509_crl_stEE",
   "size" : 8,
   "source_file" : "/external/boringssl/src/include/openssl/base.h"
  },
  {
   "alignment" : 8,
   "linker_set_key" : "_ZTIPN4bssl8internal7DeleterI11ec_group_stEE",
   "name" : "bssl::internal::Deleter<ec_group_st> *",
   "referenced_type" : "_ZTIN4bssl8internal7DeleterI11ec_group_stEE",
   "self_type" : "_ZTIPN4bssl8internal7DeleterI11ec_group_stEE",
   "size" : 8,
   "source_file" : "/external/boringssl/src/include/openssl/base.h"
  },
  {
   "alignment" : 8,
   "linker_set_key" : "_ZTIPN4bssl8internal7DeleterI11ec_point_stEE",
   "name" : "bssl::internal::Deleter<ec_point_st> *",
   "referenced_type" : "_ZTIN4bssl8internal7DeleterI11ec_point_stEE",
   "self_type" : "_ZTIPN4bssl8internal7DeleterI11ec_point_stEE",
   "size" : 8,
   "source_file" : "/external/boringssl/src/include/openssl/base.h"
  },
  {
   "alignment" : 8,
   "linker_set_key" : "_ZTIPN4bssl8internal7DeleterI11evp_pkey_stEE",
   "name" : "bssl::internal::Deleter<evp_pkey_st> *",
   "referenced_type" : "_ZTIN4bssl8internal7DeleterI11evp_pkey_stEE",
   "self_type" : "_ZTIPN4bssl8internal7DeleterI11evp_pkey_stEE",
   "size" : 8,
   "source_file" : "/external/boringssl/src/include/openssl/base.h"
  },
  {
   "alignment" : 8,
   "linker_set_key" : "_ZTIPN4bssl8internal7DeleterI12X509_name_stEE",
   "name" : "bssl::internal::Deleter<X509_name_st> *",
   "referenced_type" : "_ZTIN4bssl8internal7DeleterI12X509_name_stEE",
   "self_type" : "_ZTIPN4bssl8internal7DeleterI12X509_name_stEE",
   "size" : 8,
   "source_file" : "/external/boringssl/src/include/openssl/base.h"
  },
  {
   "alignment" : 8,
   "linker_set_key" : "_ZTIPN4bssl8internal7DeleterI12ecdsa_sig_stEE",
   "name" : "bssl::internal::Deleter<ecdsa_sig_st> *",
   "referenced_type" : "_ZTIN4bssl8internal7DeleterI12ecdsa_sig_stEE",
   "self_type" : "_ZTIPN4bssl8internal7DeleterI12ecdsa_sig_stEE",
   "size" : 8,
   "source_file" : "/external/boringssl/src/include/openssl/base.h"
  },
  {
   "alignment" : 8,
   "linker_set_key" : "_ZTIPN4bssl8internal7DeleterI13stack_st_X509EE",
   "name" : "bssl::internal::Deleter<stack_st_X509> *",
   "referenced_type" : "_ZTIN4bssl8internal7DeleterI13stack_st_X509EE",
   "self_type" : "_ZTIPN4bssl8internal7DeleterI13stack_st_X509EE",
   "size" : 8,
   "source_file" : "/external/boringssl/src/include/openssl/base.h"
  },
  {
   "alignment" : 8,
   "linker_set_key" : "_ZTIPN4bssl8internal7DeleterI14ssl_session_stEE",
   "name" : "bssl::internal::Deleter<ssl_session_st> *",
   "referenced_type" : "_ZTIN4bssl8internal7DeleterI14ssl_session_stEE",
   "self_type" : "_ZTIPN4bssl8internal7DeleterI14ssl_session_stEE",
   "size" : 8,
   "source_file" : "/external/boringssl/src/include/openssl/base.h"
  },
  {
   "alignment" : 8,
   "linker_set_key" : "_ZTIPN4bssl8internal7DeleterI16crypto_buffer_stEE",
   "name" : "bssl::internal::Deleter<crypto_buffer_st> *",
   "referenced_type" : "_ZTIN4bssl8internal7DeleterI16crypto_buffer_stEE",
   "self_type" : "_ZTIPN4bssl8internal7DeleterI16crypto_buffer_stEE",
   "size" : 8,
   "source_file" : "/external/boringssl/src/include/openssl/base.h"
  },
  {
   "alignment" : 8,
   "linker_set_key" : "_ZTIPN4bssl8internal7DeleterI17err_save_state_stEE",
   "name" : "bssl::internal::Deleter<err_save_state_st> *",
   "referenced_type" : "_ZTIN4bssl8internal7DeleterI17err_save_state_stEE",
   "self_type" : "_ZTIPN4bssl8internal7DeleterI17err_save_state_stEE",
   "size" : 8,
   "source_file" : "/external/boringssl/src/include/openssl/base.h"
  },
  {
   "alignment" : 8,
   "linker_set_key" : "_ZTIPN4bssl8internal7DeleterI18stack_st_X509_NAMEEE",
   "name" : "bssl::internal::Deleter<stack_st_X509_NAME> *",
   "referenced_type" : "_ZTIN4bssl8internal7DeleterI18stack_st_X509_NAMEEE",
   "self_type" : "_ZTIPN4bssl8internal7DeleterI18stack_st_X509_NAMEEE",
   "size" : 8,
   "source_file" : "/external/boringssl/src/include/openssl/base.h"
  },
  {
   "alignment" : 8,
   "linker_set_key" : "_ZTIPN4bssl8internal7DeleterI19stack_st_SSL_CIPHEREE",
   "name" : "bssl::internal::Deleter<stack_st_SSL_CIPHER> *",
   "referenced_type" : "_ZTIN4bssl8internal7DeleterI19stack_st_SSL_CIPHEREE",
   "self_type" : "_ZTIPN4bssl8internal7DeleterI19stack_st_SSL_CIPHEREE",
   "size" : 8,
   "source_file" : "/external/boringssl/src/include/openssl/base.h"
  },
  {
   "alignment" : 8,
   "linker_set_key" : "_ZTIPN4bssl8internal7DeleterI22stack_st_CRYPTO_BUFFEREE",
   "name" : "bssl::internal::Deleter<stack_st_CRYPTO_BUFFER> *",
   "referenced_type" : "_ZTIN4bssl8internal7DeleterI22stack_st_CRYPTO_BUFFEREE",
   "self_type" : "_ZTIPN4bssl8internal7DeleterI22stack_st_CRYPTO_BUFFEREE",
   "size" : 8,
   "source_file" : "/external/boringssl/src/include/openssl/base.h"
  },
  {
   "alignment" : 8,
   "linker_set_key" : "_ZTIPN4bssl8internal7DeleterI32stack_st_SRTP_PROTECTION_PROFILEEE",
   "name" : "bssl::internal::Deleter<stack_st_SRTP_PROTECTION_PROFILE> *",
   "referenced_type" : "_ZTIN4bssl8internal7DeleterI32stack_st_SRTP_PROTECTION_PROFILEEE",
   "self_type" : "_ZTIPN4bssl8internal7DeleterI32stack_st_SRTP_PROTECTION_PROFILEEE",
   "size" : 8,
   "source_file" : "/external/boringssl/src/include/openssl/base.h"
  },
  {
   "alignment" : 8,
   "linker_set_key" : "_ZTIPN4bssl8internal7DeleterI5dh_stEE",
   "name" : "bssl::internal::Deleter<dh_st> *",
   "referenced_type" : "_ZTIN4bssl8internal7DeleterI5dh_stEE",
   "self_type" : "_ZTIPN4bssl8internal7DeleterI5dh_stEE",
   "size" : 8,
   "source_file" : "/external/boringssl/src/include/openssl/base.h"
  },
  {
   "alignment" : 8,
   "linker_set_key" : "_ZTIPN4bssl8internal7DeleterI6bio_stEE",
   "name" : "bssl::internal::Deleter<bio_st> *",
   "referenced_type" : "_ZTIN4bssl8internal7DeleterI6bio_stEE",
   "self_type" : "_ZTIPN4bssl8internal7DeleterI6bio_stEE",
   "size" : 8,
   "source_file" : "/external/boringssl/src/include/openssl/base.h"
  },
  {
   "alignment" : 8,
   "linker_set_key" : "_ZTIPN4bssl8internal7DeleterI6dsa_stEE",
   "name" : "bssl::internal::Deleter<dsa_st> *",
   "referenced_type" : "_ZTIN4bssl8internal7DeleterI6dsa_stEE",
   "self_type" : "_ZTIPN4bssl8internal7DeleterI6dsa_stEE",
   "size" : 8,
   "source_file" : "/external/boringssl/src/include/openssl/base.h"
  },
  {
   "alignment" : 8,
   "linker_set_key" : "_ZTIPN4bssl8internal7DeleterI6rsa_stEE",
   "name" : "bssl::internal::Deleter<rsa_st> *",
   "referenced_type" : "_ZTIN4bssl8internal7DeleterI6rsa_stEE",
   "self_type" : "_ZTIPN4bssl8internal7DeleterI6rsa_stEE",
   "size" : 8,
   "source_file" : "/external/boringssl/src/include/openssl/base.h"
  },
  {
   "alignment" : 8,
   "linker_set_key" : "_ZTIPN4bssl8internal7DeleterI6ssl_stEE",
   "name" : "bssl::internal::Deleter<ssl_st> *",
   "referenced_type" : "_ZTIN4bssl8internal7DeleterI6ssl_stEE",
   "self_type" : "_ZTIPN4bssl8internal7DeleterI6ssl_stEE",
   "size" : 8,
   "source_file" : "/external/boringssl/src/include/openssl/base.h"
  },
  {
   "alignment" : 8,
   "linker_set_key" : "_ZTIPN4bssl8internal7DeleterI7x509_stEE",
   "name" : "bssl::internal::Deleter<x509_st> *",
   "referenced_type" : "_ZTIN4bssl8internal7DeleterI7x509_stEE",
   "self_type" : "_ZTIPN4bssl8internal7DeleterI7x509_stEE",
   "size" : 8,
   "source_file" : "/external/boringssl/src/include/openssl/base.h"
  },
  {
   "alignment" : 8,
   "linker_set_key" : "_ZTIPN4bssl8internal7DeleterI9bignum_stEE",
   "name" : "bssl::internal::Deleter<bignum_st> *",
   "referenced_type" : "_ZTIN4bssl8internal7DeleterI9bignum_stEE",
   "self_type" : "_ZTIPN4bssl8internal7DeleterI9bignum_stEE",
   "size" : 8,
   "source_file" : "/external/boringssl/src/include/openssl/base.h"
  },
  {
   "alignment" : 8,
   "linker_set_key" : "_ZTIPN4bssl8internal7DeleterI9ec_key_stEE",
   "name" : "bssl::internal::Deleter<ec_key_st> *",
   "referenced_type" : "_ZTIN4bssl8internal7DeleterI9ec_key_stEE",
   "self_type" : "_ZTIPN4bssl8internal7DeleterI9ec_key_stEE",
   "size" : 8,
   "source_file" : "/external/boringssl/src/include/openssl/base.h"
  },
  {
   "alignment" : 8,
   "linker_set_key" : "_ZTIPN4bssl8internal7DeleterINS_10SSL3_STATEEEE",
   "name" : "bssl::internal::Deleter<bssl::SSL3_STATE> *",
   "referenced_type" : "_ZTIN4bssl8internal7DeleterINS_10SSL3_STATEEEE",
   "self_type" : "_ZTIPN4bssl8internal7DeleterINS_10SSL3_STATEEEE",
   "size" : 8,
   "source_file" : "/external/boringssl/src/include/openssl/base.h"
  },
  {
   "alignment" : 8,
   "linker_set_key" : "_ZTIPN4bssl8internal7DeleterINS_10SSL_CONFIGEEE",
   "name" : "bssl::internal::Deleter<bssl::SSL_CONFIG> *",
   "referenced_type" : "_ZTIN4bssl8internal7DeleterINS_10SSL_CONFIGEEE",
   "self_type" : "_ZTIPN4bssl8internal7DeleterINS_10SSL_CONFIGEEE",
   "size" : 8,
   "source_file" : "/external/boringssl/src/include/openssl/base.h"
  },
  {
   "alignment" : 8,
   "linker_set_key" : "_ZTIPN4bssl8internal7DeleterINS_11DTLS1_STATEEEE",
   "name" : "bssl::internal::Deleter<bssl::DTLS1_STATE> *",
   "referenced_type" : "_ZTIN4bssl8internal7DeleterINS_11DTLS1_STATEEEE",
   "self_type" : "_ZTIPN4bssl8internal7DeleterINS_11DTLS1_STATEEEE",
   "size" : 8,
   "source_file" : "/external/boringssl/src/include/openssl/base.h"
  },
  {
   "alignment" : 8,
   "linker_set_key" : "_ZTIPN4bssl8internal7DeleterINS_11SSLKeyShareEEE",
   "name" : "bssl::internal::Deleter<bssl::SSLKeyShare> *",
   "referenced_type" : "_ZTIN4bssl8internal7DeleterINS_11SSLKeyShareEEE",
   "self_type" : "_ZTIPN4bssl8internal7DeleterINS_11SSLKeyShareEEE",
   "size" : 8,
   "source_file" : "/external/boringssl/src/include/openssl/base.h"
  },
  {
   "alignment" : 8,
   "linker_set_key" : "_ZTIPN4bssl8internal7DeleterINS_11hm_fragmentEEE",
   "name" : "bssl::internal::Deleter<bssl::hm_fragment> *",
   "referenced_type" : "_ZTIN4bssl8internal7DeleterINS_11hm_fragmentEEE",
   "self_type" : "_ZTIPN4bssl8internal7DeleterINS_11hm_fragmentEEE",
   "size" : 8,
   "source_file" : "/external/boringssl/src/include/openssl/base.h"
  },
  {
   "alignment" : 8,
   "linker_set_key" : "_ZTIPN4bssl8internal7DeleterINS_13SSL_HANDSHAKEEEE",
   "name" : "bssl::internal::Deleter<bssl::SSL_HANDSHAKE> *",
   "referenced_type" : "_ZTIN4bssl8internal7DeleterINS_13SSL_HANDSHAKEEEE",
   "self_type" : "_ZTIPN4bssl8internal7DeleterINS_13SSL_HANDSHAKEEEE",
   "size" : 8,
   "source_file" : "/external/boringssl/src/include/openssl/base.h"
  },
  {
   "alignment" : 8,
   "linker_set_key" : "_ZTIPN4bssl8internal7DeleterINS_14SSLAEADContextEEE",
   "name" : "bssl::internal::Deleter<bssl::SSLAEADContext> *",
   "referenced_type" : "_ZTIN4bssl8internal7DeleterINS_14SSLAEADContextEEE",
   "self_type" : "_ZTIPN4bssl8internal7DeleterINS_14SSLAEADContextEEE",
   "size" : 8,
   "source_file" : "/external/boringssl/src/include/openssl/base.h"
  },
  {
   "alignment" : 8,
   "linker_set_key" : "_ZTIPN4bssl8internal7DeleterINS_23SSLCipherPreferenceListEEE",
   "name" : "bssl::internal::Deleter<bssl::SSLCipherPreferenceList> *",
   "referenced_type" : "_ZTIN4bssl8internal7DeleterINS_23SSLCipherPreferenceListEEE",
   "self_type" : "_ZTIPN4bssl8internal7DeleterINS_23SSLCipherPreferenceListEEE",
   "size" : 8,
   "source_file" : "/external/boringssl/src/include/openssl/base.h"
  },
  {
   "alignment" : 8,
   "linker_set_key" : "_ZTIPN4bssl8internal7DeleterINS_2DCEEE",
   "name" : "bssl::internal::Deleter<bssl::DC> *",
   "referenced_type" : "_ZTIN4bssl8internal7DeleterINS_2DCEEE",
   "self_type" : "_ZTIPN4bssl8internal7DeleterINS_2DCEEE",
   "size" : 8,
   "source_file" : "/external/boringssl/src/include/openssl/base.h"
  },
  {
   "alignment" : 8,
   "linker_set_key" : "_ZTIPN4bssl8internal7DeleterINS_4CERTEEE",
   "name" : "bssl::internal::Deleter<bssl::CERT> *",
   "referenced_type" : "_ZTIN4bssl8internal7DeleterINS_4CERTEEE",
   "self_type" : "_ZTIPN4bssl8internal7DeleterINS_4CERTEEE",
   "size" : 8,
   "source_file" : "/external/boringssl/src/include/openssl/base.h"
  },
  {
   "alignment" : 8,
   "linker_set_key" : "_ZTIPN4bssl8internal7DeleterINS_9TicketKeyEEE",
   "name" : "bssl::internal::Deleter<bssl::TicketKey> *",
   "referenced_type" : "_ZTIN4bssl8internal7DeleterINS_9TicketKeyEEE",
   "self_type" : "_ZTIPN4bssl8internal7DeleterINS_9TicketKeyEEE",
   "size" : 8,
   "source_file" : "/external/boringssl/src/include/openssl/base.h"
  },
  {
   "alignment" : 8,
   "linker_set_key" : "_ZTIPN4bssl8internal7DeleterIcEE",
   "name" : "bssl::internal::Deleter<char> *",
   "referenced_type" : "_ZTIN4bssl8internal7DeleterIcEE",
   "self_type" : "_ZTIPN4bssl8internal7DeleterIcEE",
   "size" : 8,
   "source_file" : "/external/boringssl/src/include/openssl/base.h"
  },
  {
   "alignment" : 8,
   "linker_set_key" : "_ZTIPN4bssl8internal7DeleterIhEE",
   "name" : "bssl::internal::Deleter<unsigned char> *",
   "referenced_type" : "_ZTIN4bssl8internal7DeleterIhEE",
   "self_type" : "_ZTIPN4bssl8internal7DeleterIhEE",
   "size" : 8,
   "source_file" : "/external/boringssl/src/include/openssl/base.h"
  },
  {
   "alignment" : 8,
   "linker_set_key" : "_ZTIPN4bssl9TicketKeyE",
   "name" : "bssl::TicketKey *",
   "referenced_type" : "_ZTIN4bssl9TicketKeyE",
   "self_type" : "_ZTIPN4bssl9TicketKeyE",
   "size" : 8,
   "source_file" : "/external/boringssl/src/include/openssl/base.h"
  },
  {
   "alignment" : 8,
   "linker_set_key" : "_ZTIPP11X509_crl_st",
   "name" : "X509_crl_st **",
   "referenced_type" : "_ZTIP11X509_crl_st",
   "self_type" : "_ZTIPP11X509_crl_st",
   "size" : 8,
   "source_file" : "/external/boringssl/src/include/openssl/x509_vfy.h"
  },
  {
   "alignment" : 8,
   "linker_set_key" : "_ZTIPP11evp_pkey_st",
   "name" : "evp_pkey_st **",
   "referenced_type" : "_ZTIP11evp_pkey_st",
   "self_type" : "_ZTIPP11evp_pkey_st",
   "size" : 8,
   "source_file" : "/external/boringssl/src/include/openssl/ssl.h"
  },
  {
   "alignment" : 8,
   "linker_set_key" : "_ZTIPP13stack_st_X509",
   "name" : "stack_st_X509 **",
