{
 "array_types" :
 [
  {
   "alignment" : 4,
   "linker_set_key" : "_ZTIA0_i",
   "name" : "int [0]",
   "referenced_type" : "_ZTIi",
   "self_type" : "_ZTIA0_i",
   "source_file" : "/system/core/libcutils/include/cutils/native_handle.h"
  },
  {
   "alignment" : 1,
   "linker_set_key" : "_ZTIA3_h",
   "name" : "unsigned char [3]",
   "referenced_type" : "_ZTIh",
   "self_type" : "_ZTIA3_h",
   "size" : 3,
   "source_file" : "/system/libhidl/base/include/hidl/HidlSupport.h"
  },
  {
   "alignment" : 1,
   "linker_set_key" : "_ZTIA5121_h",
   "name" : "unsigned char [5121]",
   "referenced_type" : "_ZTIh",
   "self_type" : "_ZTIA5121_h",
   "size" : 5121,
   "source_file" : "/system/core/liblog/include/log/log_read.h"
  },
  {
   "alignment" : 1,
   "linker_set_key" : "_ZTIA7_h",
   "name" : "unsigned char [7]",
   "referenced_type" : "_ZTIh",
   "self_type" : "_ZTIA7_h",
   "size" : 7,
   "source_file" : "/system/libhidl/base/include/hidl/HidlSupport.h"
  }
 ],
 "builtin_types" :
 [
  {
   "alignment" : 2,
   "is_integral" : true,
   "is_unsigned" : true,
   "linker_set_key" : "_ZTIDs",
   "name" : "char16_t",
   "referenced_type" : "_ZTIDs",
   "self_type" : "_ZTIDs",
   "size" : 2
  },
  {
   "alignment" : 1,
   "is_integral" : true,
   "linker_set_key" : "_ZTIa",
   "name" : "signed char",
   "referenced_type" : "_ZTIa",
   "self_type" : "_ZTIa",
   "size" : 1
  },
  {
   "alignment" : 1,
   "is_integral" : true,
   "is_unsigned" : true,
   "linker_set_key" : "_ZTIb",
   "name" : "bool",
   "referenced_type" : "_ZTIb",
   "self_type" : "_ZTIb",
   "size" : 1
  },
  {
   "alignment" : 1,
   "is_integral" : true,
   "is_unsigned" : true,
   "linker_set_key" : "_ZTIc",
   "name" : "char",
   "referenced_type" : "_ZTIc",
   "self_type" : "_ZTIc",
   "size" : 1
  },
  {
   "alignment" : 8,
   "linker_set_key" : "_ZTId",
   "name" : "double",
   "referenced_type" : "_ZTId",
   "self_type" : "_ZTId",
   "size" : 8
  },
  {
   "alignment" : 4,
   "linker_set_key" : "_ZTIf",
   "name" : "float",
   "referenced_type" : "_ZTIf",
   "self_type" : "_ZTIf",
   "size" : 4
  },
  {
   "alignment" : 1,
   "is_integral" : true,
   "is_unsigned" : true,
   "linker_set_key" : "_ZTIh",
   "name" : "unsigned char",
   "referenced_type" : "_ZTIh",
   "self_type" : "_ZTIh",
   "size" : 1
  },
  {
   "alignment" : 4,
   "is_integral" : true,
   "linker_set_key" : "_ZTIi",
   "name" : "int",
   "referenced_type" : "_ZTIi",
   "self_type" : "_ZTIi",
   "size" : 4
  },
  {
   "alignment" : 4,
   "is_integral" : true,
   "is_unsigned" : true,
   "linker_set_key" : "_ZTIj",
   "name" : "unsigned int",
   "referenced_type" : "_ZTIj",
   "self_type" : "_ZTIj",
   "size" : 4
  },
  {
   "alignment" : 8,
   "is_integral" : true,
   "linker_set_key" : "_ZTIl",
   "name" : "long",
   "referenced_type" : "_ZTIl",
   "self_type" : "_ZTIl",
   "size" : 8
  },
  {
   "alignment" : 8,
   "is_integral" : true,
   "is_unsigned" : true,
   "linker_set_key" : "_ZTIm",
   "name" : "unsigned long",
   "referenced_type" : "_ZTIm",
   "self_type" : "_ZTIm",
   "size" : 8
  },
  {
   "alignment" : 2,
   "is_integral" : true,
   "linker_set_key" : "_ZTIs",
   "name" : "short",
   "referenced_type" : "_ZTIs",
   "self_type" : "_ZTIs",
   "size" : 2
  },
  {
   "alignment" : 2,
   "is_integral" : true,
   "is_unsigned" : true,
   "linker_set_key" : "_ZTIt",
   "name" : "unsigned short",
   "referenced_type" : "_ZTIt",
   "self_type" : "_ZTIt",
   "size" : 2
  },
  {
   "linker_set_key" : "_ZTIv",
   "name" : "void",
   "referenced_type" : "_ZTIv",
   "self_type" : "_ZTIv"
  },
  {
   "alignment" : 8,
   "is_integral" : true,
   "linker_set_key" : "_ZTIx",
   "name" : "long long",
   "referenced_type" : "_ZTIx",
   "self_type" : "_ZTIx",
   "size" : 8
  },
  {
   "alignment" : 8,
   "is_integral" : true,
   "is_unsigned" : true,
   "linker_set_key" : "_ZTIy",
   "name" : "unsigned long long",
   "referenced_type" : "_ZTIy",
   "self_type" : "_ZTIy",
   "size" : 8
  }
 ],
 "elf_functions" :
 [
  {
   "binding" : "weak",
   "name" : "_ZN7android2spINS_8hardware5media10bufferpool4V2_014implementation13ClientManagerEED2Ev"
  },
  {
   "binding" : "weak",
   "name" : "_ZN7android2spINS_8hardware5media10bufferpool4V2_014implementation24ConnectionDeathRecipientEED2Ev"
  },
  {
   "binding" : "weak",
   "name" : "_ZN7android8hardware12MQDescriptorINS0_5media10bufferpool4V2_019BufferStatusMessageELNS0_8MQFlavorE1EEC2ERKNSt3__16vectorINS0_17GrantorDescriptorENS8_9allocatorISA_EEEEP13native_handlem"
  },
  {
   "binding" : "weak",
   "name" : "_ZN7android8hardware12MQDescriptorINS0_5media10bufferpool4V2_019BufferStatusMessageELNS0_8MQFlavorE1EEC2EmP13native_handlemb"
  },
  {
   "binding" : "weak",
   "name" : "_ZN7android8hardware12MQDescriptorINS0_5media10bufferpool4V2_019BufferStatusMessageELNS0_8MQFlavorE1EEaSERKS7_"
  },
  {
   "binding" : "weak",
   "name" : "_ZN7android8hardware12MQDescriptorINS0_5media10bufferpool4V2_025BufferInvalidationMessageELNS0_8MQFlavorE2EEC2ERKNSt3__16vectorINS0_17GrantorDescriptorENS8_9allocatorISA_EEEEP13native_handlem"
  },
  {
   "binding" : "weak",
   "name" : "_ZN7android8hardware12MQDescriptorINS0_5media10bufferpool4V2_025BufferInvalidationMessageELNS0_8MQFlavorE2EEC2EmP13native_handlemb"
  },
  {
   "binding" : "weak",
   "name" : "_ZN7android8hardware12MQDescriptorINS0_5media10bufferpool4V2_025BufferInvalidationMessageELNS0_8MQFlavorE2EEaSERKS7_"
  },
  {
   "binding" : "weak",
   "name" : "_ZN7android8hardware12MessageQueueINS0_5media10bufferpool4V2_019BufferStatusMessageELNS0_8MQFlavorE1EE10initMemoryEb"
  },
  {
   "binding" : "weak",
   "name" : "_ZN7android8hardware12MessageQueueINS0_5media10bufferpool4V2_019BufferStatusMessageELNS0_8MQFlavorE1EE15mapGrantorDescrEj"
  },
  {
   "binding" : "weak",
   "name" : "_ZN7android8hardware12MessageQueueINS0_5media10bufferpool4V2_019BufferStatusMessageELNS0_8MQFlavorE1EE4readEPS5_m"
  },
  {
   "binding" : "weak",
   "name" : "_ZN7android8hardware12MessageQueueINS0_5media10bufferpool4V2_019BufferStatusMessageELNS0_8MQFlavorE1EE5writeEPKS5_m"
  },
  {
   "binding" : "weak",
   "name" : "_ZN7android8hardware12MessageQueueINS0_5media10bufferpool4V2_019BufferStatusMessageELNS0_8MQFlavorE1EEC2ERKNS0_12MQDescriptorIS5_LS6_1EEEb"
  },
  {
   "binding" : "weak",
   "name" : "_ZN7android8hardware12MessageQueueINS0_5media10bufferpool4V2_019BufferStatusMessageELNS0_8MQFlavorE1EEC2Emb"
  },
  {
   "binding" : "weak",
   "name" : "_ZN7android8hardware12MessageQueueINS0_5media10bufferpool4V2_019BufferStatusMessageELNS0_8MQFlavorE1EED2Ev"
  },
  {
   "binding" : "weak",
   "name" : "_ZN7android8hardware12MessageQueueINS0_5media10bufferpool4V2_025BufferInvalidationMessageELNS0_8MQFlavorE2EE10initMemoryEb"
  },
  {
   "binding" : "weak",
   "name" : "_ZN7android8hardware12MessageQueueINS0_5media10bufferpool4V2_025BufferInvalidationMessageELNS0_8MQFlavorE2EE15mapGrantorDescrEj"
  },
  {
   "binding" : "weak",
   "name" : "_ZN7android8hardware12MessageQueueINS0_5media10bufferpool4V2_025BufferInvalidationMessageELNS0_8MQFlavorE2EE4readEPS5_m"
  },
  {
   "binding" : "weak",
   "name" : "_ZN7android8hardware12MessageQueueINS0_5media10bufferpool4V2_025BufferInvalidationMessageELNS0_8MQFlavorE2EE5writeEPKS5_m"
  },
  {
   "binding" : "weak",
   "name" : "_ZN7android8hardware12MessageQueueINS0_5media10bufferpool4V2_025BufferInvalidationMessageELNS0_8MQFlavorE2EEC2ERKNS0_12MQDescriptorIS5_LS6_2EEEb"
  },
  {
   "binding" : "weak",
   "name" : "_ZN7android8hardware12MessageQueueINS0_5media10bufferpool4V2_025BufferInvalidationMessageELNS0_8MQFlavorE2EEC2Emb"
  },
  {
   "binding" : "weak",
   "name" : "_ZN7android8hardware12MessageQueueINS0_5media10bufferpool4V2_025BufferInvalidationMessageELNS0_8MQFlavorE2EED2Ev"
  },
  {
   "name" : "_ZN7android8hardware5media10bufferpool4V2_014implementation10Connection10initializeERKNS_2spINS4_8AccessorEEEl"
  },
  {
   "name" : "_ZN7android8hardware5media10bufferpool4V2_014implementation10Connection5fetchEmjNSt3__18functionIFvNS3_12ResultStatusERKNS3_6BufferEEEE"
  },
  {
   "name" : "_ZN7android8hardware5media10bufferpool4V2_014implementation10Connection5flushEv"
  },
  {
   "name" : "_ZN7android8hardware5media10bufferpool4V2_014implementation10Connection7cleanUpEb"
  },
  {
   "name" : "_ZN7android8hardware5media10bufferpool4V2_014implementation10Connection8allocateERKNSt3__16vectorIhNS6_9allocatorIhEEEEPjPPK13native_handle"
  },
  {
   "name" : "_ZN7android8hardware5media10bufferpool4V2_014implementation10ConnectionC1Ev"
  },
  {
   "name" : "_ZN7android8hardware5media10bufferpool4V2_014implementation10ConnectionC2Ev"
  },
  {
   "name" : "_ZN7android8hardware5media10bufferpool4V2_014implementation10ConnectionD0Ev"
  },
  {
   "name" : "_ZN7android8hardware5media10bufferpool4V2_014implementation10ConnectionD1Ev"
  },
  {
   "name" : "_ZN7android8hardware5media10bufferpool4V2_014implementation10ConnectionD2Ev"
  },
  {
   "name" : "_ZN7android8hardware5media10bufferpool4V2_014implementation13ClientManager11getInstanceEv"
  },
  {
   "name" : "_ZN7android8hardware5media10bufferpool4V2_014implementation13ClientManager14registerSenderERKNS_2spINS3_14IClientManagerEEElPl"
  },
  {
   "name" : "_ZN7android8hardware5media10bufferpool4V2_014implementation13ClientManager14registerSenderERKNS_2spINS3_9IAccessorEEENSt3__18functionIFvNS3_12ResultStatusElEEE"
  },
  {
   "name" : "_ZN7android8hardware5media10bufferpool4V2_014implementation13ClientManager4Impl11getAccessorElPNS_2spINS3_9IAccessorEEE"
  },
  {
   "name" : "_ZN7android8hardware5media10bufferpool4V2_014implementation13ClientManager4Impl14registerSenderERKNS_2spINS3_14IClientManagerEEElPl"
  },
  {
   "name" : "_ZN7android8hardware5media10bufferpool4V2_014implementation13ClientManager4Impl14registerSenderERKNS_2spINS3_9IAccessorEEEPl"
  },
  {
   "name" : "_ZN7android8hardware5media10bufferpool4V2_014implementation13ClientManager4Impl5closeEl"
  },
  {
   "name" : "_ZN7android8hardware5media10bufferpool4V2_014implementation13ClientManager4Impl5flushEl"
  },
  {
   "name" : "_ZN7android8hardware5media10bufferpool4V2_014implementation13ClientManager4Impl6createERKNSt3__110shared_ptrINS4_19BufferPoolAllocatorEEEPl"
  },
  {
   "name" : "_ZN7android8hardware5media10bufferpool4V2_014implementation13ClientManager4Impl7cleanUpEb"
  },
  {
   "name" : "_ZN7android8hardware5media10bufferpool4V2_014implementation13ClientManager4Impl7receiveElmjlPP13native_handlePNSt3__110shared_ptrINS2_14BufferPoolDataEEE"
  },
  {
   "name" : "_ZN7android8hardware5media10bufferpool4V2_014implementation13ClientManager4Impl8allocateElRKNSt3__16vectorIhNS7_9allocatorIhEEEEPP13native_handlePNS7_10shared_ptrINS2_14BufferPoolDataEEE"
  },
  {
   "name" : "_ZN7android8hardware5media10bufferpool4V2_014implementation13ClientManager4Impl8postSendElRKNSt3__110shared_ptrINS2_14BufferPoolDataEEEPmPl"
  },
  {
   "name" : "_ZN7android8hardware5media10bufferpool4V2_014implementation13ClientManager4ImplC1Ev"
  },
  {
   "name" : "_ZN7android8hardware5media10bufferpool4V2_014implementation13ClientManager4ImplC2Ev"
  },
  {
   "name" : "_ZN7android8hardware5media10bufferpool4V2_014implementation13ClientManager5closeEl"
  },
  {
   "name" : "_ZN7android8hardware5media10bufferpool4V2_014implementation13ClientManager5flushEl"
  },
  {
   "name" : "_ZN7android8hardware5media10bufferpool4V2_014implementation13ClientManager6createERKNSt3__110shared_ptrINS4_19BufferPoolAllocatorEEEPl"
  },
  {
   "name" : "_ZN7android8hardware5media10bufferpool4V2_014implementation13ClientManager7cleanUpEv"
  },
  {
   "name" : "_ZN7android8hardware5media10bufferpool4V2_014implementation13ClientManager7receiveElmjlPP13native_handlePNSt3__110shared_ptrINS2_14BufferPoolDataEEE"
  },
  {
   "name" : "_ZN7android8hardware5media10bufferpool4V2_014implementation13ClientManager8allocateElRKNSt3__16vectorIhNS6_9allocatorIhEEEEPP13native_handlePNS6_10shared_ptrINS2_14BufferPoolDataEEE"
  },
  {
   "name" : "_ZN7android8hardware5media10bufferpool4V2_014implementation13ClientManager8postSendElRKNSt3__110shared_ptrINS2_14BufferPoolDataEEEPmPl"
  },
  {
   "name" : "_ZN7android8hardware5media10bufferpool4V2_014implementation13ClientManagerC1Ev"
  },
  {
   "name" : "_ZN7android8hardware5media10bufferpool4V2_014implementation13ClientManagerC2Ev"
  },
  {
   "name" : "_ZN7android8hardware5media10bufferpool4V2_014implementation13ClientManagerD0Ev"
  },
  {
   "name" : "_ZN7android8hardware5media10bufferpool4V2_014implementation13ClientManagerD1Ev"
  },
  {
   "name" : "_ZN7android8hardware5media10bufferpool4V2_014implementation13ClientManagerD2Ev"
  },
  {
   "name" : "_ZN7android8hardware5media10bufferpool4V2_014implementation14isMessageLaterEjj"
  },
  {
   "name" : "_ZN7android8hardware5media10bufferpool4V2_014implementation15getTimestampNowEv"
  },
  {
   "name" : "_ZN7android8hardware5media10bufferpool4V2_014implementation15isBufferInRangeEjjj"
  },
  {
   "name" : "_ZN7android8hardware5media10bufferpool4V2_014implementation16BufferPoolClient11getAccessorEPNS_2spINS3_9IAccessorEEE"
  },
  {
   "name" : "_ZN7android8hardware5media10bufferpool4V2_014implementation16BufferPoolClient15getConnectionIdEv"
  },
  {
   "name" : "_ZN7android8hardware5media10bufferpool4V2_014implementation16BufferPoolClient19receiveInvalidationEj"
  },
  {
   "name" : "_ZN7android8hardware5media10bufferpool4V2_014implementation16BufferPoolClient4Impl11evictCachesEb"
  },
  {
   "name" : "_ZN7android8hardware5media10bufferpool4V2_014implementation16BufferPoolClient4Impl11postReceiveEjml"
  },
  {
   "name" : "_ZN7android8hardware5media10bufferpool4V2_014implementation16BufferPoolClient4Impl12syncReleasedEj"
  },
  {
   "name" : "_ZN7android8hardware5media10bufferpool4V2_014implementation16BufferPoolClient4Impl15invalidateRangeEjj"
  },
  {
   "name" : "_ZN7android8hardware5media10bufferpool4V2_014implementation16BufferPoolClient4Impl16invalidateBufferEj"
  },
  {
   "name" : "_ZN7android8hardware5media10bufferpool4V2_014implementation16BufferPoolClient4Impl17fetchBufferHandleEmjPP13native_handle"
  },
  {
   "name" : "_ZN7android8hardware5media10bufferpool4V2_014implementation16BufferPoolClient4Impl17postBufferReleaseEj"
  },
  {
   "name" : "_ZN7android8hardware5media10bufferpool4V2_014implementation16BufferPoolClient4Impl17postReceiveResultEjmbPb"
  },
  {
   "name" : "_ZN7android8hardware5media10bufferpool4V2_014implementation16BufferPoolClient4Impl17trySyncFromRemoteEv"
  },
  {
   "name" : "_ZN7android8hardware5media10bufferpool4V2_014implementation16BufferPoolClient4Impl19receiveInvalidationEj"
  },
  {
   "name" : "_ZN7android8hardware5media10bufferpool4V2_014implementation16BufferPoolClient4Impl20allocateBufferHandleERKNSt3__16vectorIhNS7_9allocatorIhEEEEPjPP13native_handle"
  },
  {
   "name" : "_ZN7android8hardware5media10bufferpool4V2_014implementation16BufferPoolClient4Impl5flushEv"
  },
  {
   "name" : "_ZN7android8hardware5media10bufferpool4V2_014implementation16BufferPoolClient4Impl7receiveEmjlPP13native_handlePNSt3__110shared_ptrINS2_14BufferPoolDataEEE"
  },
  {
   "name" : "_ZN7android8hardware5media10bufferpool4V2_014implementation16BufferPoolClient4Impl8allocateERKNSt3__16vectorIhNS7_9allocatorIhEEEEPP13native_handlePNS7_10shared_ptrINS2_14BufferPoolDataEEE"
  },
  {
   "name" : "_ZN7android8hardware5media10bufferpool4V2_014implementation16BufferPoolClient4Impl8isActiveEPlb"
  },
  {
   "name" : "_ZN7android8hardware5media10bufferpool4V2_014implementation16BufferPoolClient4Impl8postSendEjlPmPl"
  },
  {
   "name" : "_ZN7android8hardware5media10bufferpool4V2_014implementation16BufferPoolClient4ImplC1ERKNS_2spINS3_9IAccessorEEERKNS7_INS3_9IObserverEEE"
  },
  {
   "name" : "_ZN7android8hardware5media10bufferpool4V2_014implementation16BufferPoolClient4ImplC1ERKNS_2spINS4_8AccessorEEERKNS7_INS3_9IObserverEEE"
  },
  {
   "name" : "_ZN7android8hardware5media10bufferpool4V2_014implementation16BufferPoolClient4ImplC2ERKNS_2spINS3_9IAccessorEEERKNS7_INS3_9IObserverEEE"
  },
  {
   "name" : "_ZN7android8hardware5media10bufferpool4V2_014implementation16BufferPoolClient4ImplC2ERKNS_2spINS4_8AccessorEEERKNS7_INS3_9IObserverEEE"
  },
  {
   "name" : "_ZN7android8hardware5media10bufferpool4V2_014implementation16BufferPoolClient5flushEv"
  },
  {
   "name" : "_ZN7android8hardware5media10bufferpool4V2_014implementation16BufferPoolClient7isLocalEv"
  },
  {
   "name" : "_ZN7android8hardware5media10bufferpool4V2_014implementation16BufferPoolClient7isValidEv"
  },
  {
   "name" : "_ZN7android8hardware5media10bufferpool4V2_014implementation16BufferPoolClient7receiveEmjlPP13native_handlePNSt3__110shared_ptrINS2_14BufferPoolDataEEE"
  },
  {
   "name" : "_ZN7android8hardware5media10bufferpool4V2_014implementation16BufferPoolClient8allocateERKNSt3__16vectorIhNS6_9allocatorIhEEEEPP13native_handlePNS6_10shared_ptrINS2_14BufferPoolDataEEE"
  },
  {
   "name" : "_ZN7android8hardware5media10bufferpool4V2_014implementation16BufferPoolClient8isActiveEPlb"
  },
  {
   "name" : "_ZN7android8hardware5media10bufferpool4V2_014implementation16BufferPoolClient8postSendElRKNSt3__110shared_ptrINS2_14BufferPoolDataEEEPmPl"
  },
  {
   "name" : "_ZN7android8hardware5media10bufferpool4V2_014implementation16BufferPoolClientC1ERKNS_2spINS3_9IAccessorEEERKNS6_INS3_9IObserverEEE"
  },
  {
   "name" : "_ZN7android8hardware5media10bufferpool4V2_014implementation16BufferPoolClientC1ERKNS_2spINS4_8AccessorEEERKNS6_INS3_9IObserverEEE"
  },
  {
   "name" : "_ZN7android8hardware5media10bufferpool4V2_014implementation16BufferPoolClientC2ERKNS_2spINS3_9IAccessorEEERKNS6_INS3_9IObserverEEE"
  },
  {
   "name" : "_ZN7android8hardware5media10bufferpool4V2_014implementation16BufferPoolClientC2ERKNS_2spINS4_8AccessorEEERKNS6_INS3_9IObserverEEE"
  },
  {
   "name" : "_ZN7android8hardware5media10bufferpool4V2_014implementation16BufferPoolClientD1Ev"
  },
  {
   "name" : "_ZN7android8hardware5media10bufferpool4V2_014implementation16BufferPoolClientD2Ev"
  },
  {
   "name" : "_ZN7android8hardware5media10bufferpool4V2_014implementation19BufferStatusChannel17postBufferReleaseElRNSt3__14listIjNS6_9allocatorIjEEEESB_"
  },
  {
   "name" : "_ZN7android8hardware5media10bufferpool4V2_014implementation19BufferStatusChannel23postBufferInvalidateAckEljPb"
  },
  {
   "name" : "_ZN7android8hardware5media10bufferpool4V2_014implementation19BufferStatusChannel23postBufferStatusMessageEmjNS3_12BufferStatusEllRNSt3__14listIjNS7_9allocatorIjEEEESC_"
  },
  {
   "name" : "_ZN7android8hardware5media10bufferpool4V2_014implementation19BufferStatusChannel7isValidEv"
  },
  {
   "name" : "_ZN7android8hardware5media10bufferpool4V2_014implementation19BufferStatusChannel9needsSyncEv"
  },
  {
   "name" : "_ZN7android8hardware5media10bufferpool4V2_014implementation19BufferStatusChannelC1ERKNS0_12MQDescriptorINS3_19BufferStatusMessageELNS0_8MQFlavorE1EEE"
  },
  {
   "name" : "_ZN7android8hardware5media10bufferpool4V2_014implementation19BufferStatusChannelC2ERKNS0_12MQDescriptorINS3_19BufferStatusMessageELNS0_8MQFlavorE1EEE"
  },
  {
   "name" : "_ZN7android8hardware5media10bufferpool4V2_014implementation20BufferStatusObserver22getBufferStatusChangesERNSt3__16vectorINS3_19BufferStatusMessageENS6_9allocatorIS8_EEEE"
  },
  {
   "name" : "_ZN7android8hardware5media10bufferpool4V2_014implementation20BufferStatusObserver4openElPPKNS0_12MQDescriptorINS3_19BufferStatusMessageELNS0_8MQFlavorE1EEE"
  },
  {
   "name" : "_ZN7android8hardware5media10bufferpool4V2_014implementation20BufferStatusObserver5closeEl"
  },
  {
   "name" : "_ZN7android8hardware5media10bufferpool4V2_014implementation24ConnectionDeathRecipient11serviceDiedEmRKNS_2wpINS_4hidl4base4V1_05IBaseEEE"
  },
  {
   "name" : "_ZN7android8hardware5media10bufferpool4V2_014implementation24ConnectionDeathRecipient21addCookieToConnectionEml"
  },
  {
   "name" : "_ZN7android8hardware5media10bufferpool4V2_014implementation24ConnectionDeathRecipient3addElRKNS_2spINS4_8AccessorEEE"
  },
  {
   "name" : "_ZN7android8hardware5media10bufferpool4V2_014implementation24ConnectionDeathRecipient6removeEl"
  },
  {
   "name" : "_ZN7android8hardware5media10bufferpool4V2_014implementation25BufferInvalidationChannel16postInvalidationEjjj"
  },
  {
   "name" : "_ZN7android8hardware5media10bufferpool4V2_014implementation25BufferInvalidationChannel7getDescEPPKNS0_12MQDescriptorINS3_25BufferInvalidationMessageELNS0_8MQFlavorE2EEE"
  },
  {
   "name" : "_ZN7android8hardware5media10bufferpool4V2_014implementation25BufferInvalidationChannel7isValidEv"
  },
  {
   "name" : "_ZN7android8hardware5media10bufferpool4V2_014implementation25BufferInvalidationChannelC1Ev"
  },
  {
   "name" : "_ZN7android8hardware5media10bufferpool4V2_014implementation25BufferInvalidationChannelC2Ev"
  },
  {
   "name" : "_ZN7android8hardware5media10bufferpool4V2_014implementation25ClientManagerCookieHolder9getCookieERKNS_2spINS3_14IClientManagerEEEPb"
  },
  {
   "name" : "_ZN7android8hardware5media10bufferpool4V2_014implementation25ClientManagerCookieHolderC1Ev"
  },
  {
   "name" : "_ZN7android8hardware5media10bufferpool4V2_014implementation25ClientManagerCookieHolderC2Ev"
  },
  {
   "name" : "_ZN7android8hardware5media10bufferpool4V2_014implementation26BufferInvalidationListener16getInvalidationsERNSt3__16vectorINS3_25BufferInvalidationMessageENS6_9allocatorIS8_EEEE"
  },
  {
   "name" : "_ZN7android8hardware5media10bufferpool4V2_014implementation26BufferInvalidationListener7isValidEv"
  },
  {
   "name" : "_ZN7android8hardware5media10bufferpool4V2_014implementation26BufferInvalidationListenerC1ERKNS0_12MQDescriptorINS3_25BufferInvalidationMessageELNS0_8MQFlavorE2EEE"
  },
  {
   "name" : "_ZN7android8hardware5media10bufferpool4V2_014implementation26BufferInvalidationListenerC2ERKNS0_12MQDescriptorINS3_25BufferInvalidationMessageELNS0_8MQFlavorE2EEE"
  },
  {
   "binding" : "weak",
   "name" : "_ZN7android8hardware5media10bufferpool4V2_014implementation5eraseIjlEEbPNSt3__13mapIT_NS6_3setIT0_NS6_4lessISA_EENS6_9allocatorISA_EEEENSB_IS8_EENSD_INS6_4pairIKS8_SF_EEEEEES8_SA_"
  },
  {
   "binding" : "weak",
   "name" : "_ZN7android8hardware5media10bufferpool4V2_014implementation5eraseIljEEbPNSt3__13mapIT_NS6_3setIT0_NS6_4lessISA_EENS6_9allocatorISA_EEEENSB_IS8_EENSD_INS6_4pairIKS8_SF_EEEEEES8_SA_"
  },
  {
   "binding" : "weak",
   "name" : "_ZN7android8hardware5media10bufferpool4V2_014implementation5eraseIlmEEbPNSt3__13mapIT_NS6_3setIT0_NS6_4lessISA_EENS6_9allocatorISA_EEEENSB_IS8_EENSD_INS6_4pairIKS8_SF_EEEEEES8_SA_"
  },
  {
   "binding" : "weak",
   "name" : "_ZN7android8hardware5media10bufferpool4V2_014implementation6insertIjlEEbPNSt3__13mapIT_NS6_3setIT0_NS6_4lessISA_EENS6_9allocatorISA_EEEENSB_IS8_EENSD_INS6_4pairIKS8_SF_EEEEEES8_SA_"
  },
  {
   "binding" : "weak",
   "name" : "_ZN7android8hardware5media10bufferpool4V2_014implementation6insertIljEEbPNSt3__13mapIT_NS6_3setIT0_NS6_4lessISA_EENS6_9allocatorISA_EEEENSB_IS8_EENSD_INS6_4pairIKS8_SF_EEEEEES8_SA_"
  },
  {
   "binding" : "weak",
   "name" : "_ZN7android8hardware5media10bufferpool4V2_014implementation6insertIlmEEbPNSt3__13mapIT_NS6_3setIT0_NS6_4lessISA_EENS6_9allocatorISA_EEEENSB_IS8_EENSD_INS6_4pairIKS8_SF_EEEEEES8_SA_"
  },
  {
   "name" : "_ZN7android8hardware5media10bufferpool4V2_014implementation8Accessor13createEvictorEv"
  },
  {
   "name" : "_ZN7android8hardware5media10bufferpool4V2_014implementation8Accessor17createInvalidatorEv"
  },
  {
   "name" : "_ZN7android8hardware5media10bufferpool4V2_014implementation8Accessor27getConnectionDeathRecipientEv"
  },
  {
   "name" : "_ZN7android8hardware5media10bufferpool4V2_014implementation8Accessor4Impl10BufferPool10invalidateEbjjRKNSt3__110shared_ptrIS6_EE"
  },
  {
   "name" : "_ZN7android8hardware5media10bufferpool4V2_014implementation8Accessor4Impl10BufferPool11handleCloseEl"
  },
  {
   "name" : "_ZN7android8hardware5media10bufferpool4V2_014implementation8Accessor4Impl10BufferPool12Invalidation11onHandleAckEPNSt3__13mapIlKNS_2spINS3_9IObserverEEENS9_4lessIlEENS9_9allocatorINS9_4pairIKlSE_EEEEEEPj"
  },
  {
   "name" : "_ZN7android8hardware5media10bufferpool4V2_014implementation8Accessor4Impl10BufferPool12Invalidation19onBufferInvalidatedEjRNS4_25BufferInvalidationChannelE"
  },
  {
   "name" : "_ZN7android8hardware5media10bufferpool4V2_014implementation8Accessor4Impl10BufferPool12Invalidation21onInvalidationRequestEbjjmRNS4_25BufferInvalidationChannelERKNSt3__110shared_ptrIS6_EE"
  },
  {
   "name" : "_ZN7android8hardware5media10bufferpool4V2_014implementation8Accessor4Impl10BufferPool12Invalidation5onAckElj"
  },
  {
   "name" : "_ZN7android8hardware5media10bufferpool4V2_014implementation8Accessor4Impl10BufferPool12Invalidation7onCloseEl"
  },
  {
   "name" : "_ZN7android8hardware5media10bufferpool4V2_014implementation8Accessor4Impl10BufferPool12Invalidation9onConnectElRKNS_2spINS3_9IObserverEEE"
  },
  {
   "name" : "_ZN7android8hardware5media10bufferpool4V2_014implementation8Accessor4Impl10BufferPool12addNewBufferERKNSt3__110shared_ptrINS4_20BufferPoolAllocationEEEmRKNS8_6vectorIhNS8_9allocatorIhEEEEPjPPK13native_handle"
  },
  {
   "name" : "_ZN7android8hardware5media10bufferpool4V2_014implementation8Accessor4Impl10BufferPool13getFreeBufferERKNSt3__110shared_ptrINS4_19BufferPoolAllocatorEEERKNS8_6vectorIhNS8_9allocatorIhEEEEPjPPK13native_handle"
  },
  {
   "name" : "_ZN7android8hardware5media10bufferpool4V2_014implementation8Accessor4Impl10BufferPool15handleOwnBufferElj"
  },
  {
   "name" : "_ZN7android8hardware5media10bufferpool4V2_014implementation8Accessor4Impl10BufferPool16handleTransferToERKNS3_19BufferStatusMessageE"
  },
  {
   "name" : "_ZN7android8hardware5media10bufferpool4V2_014implementation8Accessor4Impl10BufferPool18handleTransferFromERKNS3_19BufferStatusMessageE"
  },
  {
   "name" : "_ZN7android8hardware5media10bufferpool4V2_014implementation8Accessor4Impl10BufferPool19handleReleaseBufferElj"
  },
  {
   "name" : "_ZN7android8hardware5media10bufferpool4V2_014implementation8Accessor4Impl10BufferPool20handleTransferResultERKNS3_19BufferStatusMessageE"
  },
  {
   "name" : "_ZN7android8hardware5media10bufferpool4V2_014implementation8Accessor4Impl10BufferPool21processStatusMessagesEv"
  },
  {
   "name" : "_ZN7android8hardware5media10bufferpool4V2_014implementation8Accessor4Impl10BufferPool5flushERKNSt3__110shared_ptrIS6_EE"
  },
  {
   "name" : "_ZN7android8hardware5media10bufferpool4V2_014implementation8Accessor4Impl10BufferPool7cleanUpEb"
  },
  {
   "name" : "_ZN7android8hardware5media10bufferpool4V2_014implementation8Accessor4Impl10BufferPoolC1Ev"
  },
  {
   "name" : "_ZN7android8hardware5media10bufferpool4V2_014implementation8Accessor4Impl10BufferPoolC2Ev"
  },
  {
   "name" : "_ZN7android8hardware5media10bufferpool4V2_014implementation8Accessor4Impl10BufferPoolD1Ev"
  },
  {
   "name" : "_ZN7android8hardware5media10bufferpool4V2_014implementation8Accessor4Impl10BufferPoolD2Ev"
  },
  {
   "name" : "_ZN7android8hardware5media10bufferpool4V2_014implementation8Accessor4Impl13createEvictorEv"
  },
  {
   "name" : "_ZN7android8hardware5media10bufferpool4V2_014implementation8Accessor4Impl13evictorThreadERNSt3__13mapIKNS7_8weak_ptrIS6_EElNS7_10owner_lessIvEENS7_9allocatorINS7_4pairISB_lEEEEEERNS7_5mutexERNS7_18condition_variableE"
  },
  {
   "name" : "_ZN7android8hardware5media10bufferpool4V2_014implementation8Accessor4Impl15AccessorEvictor11addAccessorERKNSt3__18weak_ptrIS6_EEl"
  },
  {
   "name" : "_ZN7android8hardware5media10bufferpool4V2_014implementation8Accessor4Impl15AccessorEvictorC1Ev"
  },
  {
   "name" : "_ZN7android8hardware5media10bufferpool4V2_014implementation8Accessor4Impl15AccessorEvictorC2Ev"
  },
  {
   "name" : "_ZN7android8hardware5media10bufferpool4V2_014implementation8Accessor4Impl17createInvalidatorEv"
  },
  {
   "name" : "_ZN7android8hardware5media10bufferpool4V2_014implementation8Accessor4Impl17invalidatorThreadERNSt3__13mapIjKNS7_8weak_ptrIS6_EENS7_4lessIjEENS7_9allocatorINS7_4pairIKjSB_EEEEEERNS7_5mutexERNS7_18condition_variableERb"
  },
  {
   "name" : "_ZN7android8hardware5media10bufferpool4V2_014implementation8Accessor4Impl19AccessorInvalidator11addAccessorEjRKNSt3__18weak_ptrIS6_EE"
  },
  {
   "name" : "_ZN7android8hardware5media10bufferpool4V2_014implementation8Accessor4Impl19AccessorInvalidator11delAccessorEj"
  },
  {
   "name" : "_ZN7android8hardware5media10bufferpool4V2_014implementation8Accessor4Impl19AccessorInvalidatorC1Ev"
  },
  {
   "name" : "_ZN7android8hardware5media10bufferpool4V2_014implementation8Accessor4Impl19AccessorInvalidatorC2Ev"
  },
  {
   "name" : "_ZN7android8hardware5media10bufferpool4V2_014implementation8Accessor4Impl19handleInvalidateAckEv"
  },
  {
   "name" : "_ZN7android8hardware5media10bufferpool4V2_014implementation8Accessor4Impl21scheduleEvictIfNeededEv"
  },
  {
   "name" : "_ZN7android8hardware5media10bufferpool4V2_014implementation8Accessor4Impl5closeEl"
  },
  {
   "name" : "_ZN7android8hardware5media10bufferpool4V2_014implementation8Accessor4Impl5fetchElmjPPK13native_handle"
  },
  {
   "name" : "_ZN7android8hardware5media10bufferpool4V2_014implementation8Accessor4Impl5flushEv"
  },
  {
   "name" : "_ZN7android8hardware5media10bufferpool4V2_014implementation8Accessor4Impl7cleanUpEb"
  },
  {
   "name" : "_ZN7android8hardware5media10bufferpool4V2_014implementation8Accessor4Impl7connectERKNS_2spIS5_EERKNS7_INS3_9IObserverEEEPNS7_INS4_10ConnectionEEEPlPjPPKNS0_12MQDescriptorINS3_19BufferStatusMessageELNS0_8MQFlavorE1EEEPPKNSK_INS3_25BufferInvalidationMessageELSM_2EEE"
  },
  {
   "name" : "_ZN7android8hardware5media10bufferpool4V2_014implementation8Accessor4Impl7isValidEv"
  },
  {
   "name" : "_ZN7android8hardware5media10bufferpool4V2_014implementation8Accessor4Impl8allocateElRKNSt3__16vectorIhNS7_9allocatorIhEEEEPjPPK13native_handle"
  },
  {
   "name" : "_ZN7android8hardware5media10bufferpool4V2_014implementation8Accessor4ImplC1ERKNSt3__110shared_ptrINS4_19BufferPoolAllocatorEEE"
  },
  {
   "name" : "_ZN7android8hardware5media10bufferpool4V2_014implementation8Accessor4ImplC2ERKNSt3__110shared_ptrINS4_19BufferPoolAllocatorEEE"
  },
  {
   "name" : "_ZN7android8hardware5media10bufferpool4V2_014implementation8Accessor4ImplD1Ev"
  },
  {
   "name" : "_ZN7android8hardware5media10bufferpool4V2_014implementation8Accessor4ImplD2Ev"
  },
  {
   "name" : "_ZN7android8hardware5media10bufferpool4V2_014implementation8Accessor5closeEl"
  },
  {
   "name" : "_ZN7android8hardware5media10bufferpool4V2_014implementation8Accessor5fetchElmjPPK13native_handle"
  },
  {
   "name" : "_ZN7android8hardware5media10bufferpool4V2_014implementation8Accessor5flushEv"
  },
  {
   "name" : "_ZN7android8hardware5media10bufferpool4V2_014implementation8Accessor7cleanUpEb"
  },
  {
   "name" : "_ZN7android8hardware5media10bufferpool4V2_014implementation8Accessor7connectERKNS_2spINS3_9IObserverEEENSt3__18functionIFvNS3_12ResultStatusERKNS6_INS3_11IConnectionEEEljRKNS0_12MQDescriptorINS3_19BufferStatusMessageELNS0_8MQFlavorE1EEERKNSI_INS3_25BufferInvalidationMessageELSK_2EEEEEE"
  },
  {
   "name" : "_ZN7android8hardware5media10bufferpool4V2_014implementation8Accessor7connectERKNS_2spINS3_9IObserverEEEbPNS6_INS4_10ConnectionEEEPlPjPPKNS0_12MQDescriptorINS3_19BufferStatusMessageELNS0_8MQFlavorE1EEEPPKNSG_INS3_25BufferInvalidationMessageELSI_2EEE"
  },
  {
   "name" : "_ZN7android8hardware5media10bufferpool4V2_014implementation8Accessor7isValidEv"
  },
  {
   "name" : "_ZN7android8hardware5media10bufferpool4V2_014implementation8Accessor8allocateElRKNSt3__16vectorIhNS6_9allocatorIhEEEEPjPPK13native_handle"
  },
  {
   "name" : "_ZN7android8hardware5media10bufferpool4V2_014implementation8AccessorC1ERKNSt3__110shared_ptrINS4_19BufferPoolAllocatorEEE"
  },
  {
   "name" : "_ZN7android8hardware5media10bufferpool4V2_014implementation8AccessorC2ERKNSt3__110shared_ptrINS4_19BufferPoolAllocatorEEE"
  },
  {
   "name" : "_ZN7android8hardware5media10bufferpool4V2_014implementation8AccessorD0Ev"
  },
  {
   "name" : "_ZN7android8hardware5media10bufferpool4V2_014implementation8AccessorD1Ev"
  },
  {
   "name" : "_ZN7android8hardware5media10bufferpool4V2_014implementation8AccessorD2Ev"
  },
  {
   "name" : "_ZN7android8hardware5media10bufferpool4V2_014implementation8Observer9addClientElRKNSt3__18weak_ptrINS4_16BufferPoolClientEEE"
  },
  {
   "name" : "_ZN7android8hardware5media10bufferpool4V2_014implementation8Observer9delClientEl"
  },
  {
   "name" : "_ZN7android8hardware5media10bufferpool4V2_014implementation8Observer9onMessageElj"
  },
  {
   "name" : "_ZN7android8hardware5media10bufferpool4V2_014implementation8ObserverC1Ev"
  },
  {
   "name" : "_ZN7android8hardware5media10bufferpool4V2_014implementation8ObserverC2Ev"
  },
  {
   "name" : "_ZN7android8hardware5media10bufferpool4V2_014implementation8ObserverD0Ev"
  },
  {
   "name" : "_ZN7android8hardware5media10bufferpool4V2_014implementation8ObserverD1Ev"
  },
  {
   "name" : "_ZN7android8hardware5media10bufferpool4V2_014implementation8ObserverD2Ev"
  },
  {
   "binding" : "weak",
   "name" : "_ZNSt3__110shared_ptrIN7android8hardware5media10bufferpool14BufferPoolDataEED2Ev"
  },
  {
   "binding" : "weak",
   "name" : "_ZNSt3__110shared_ptrIN7android8hardware5media10bufferpool4V2_014implementation16BufferPoolClient4ImplEEC2IS8_EERKNS_8weak_ptrIT_EENS_9enable_ifIXsr14is_convertibleIPSC_PS8_EE5valueENS9_5__natEE4typeE"
  },
  {
   "binding" : "weak",
   "name" : "_ZNSt3__110shared_ptrIN7android8hardware5media10bufferpool4V2_014implementation16BufferPoolClient4ImplEED2Ev"
  },
  {
   "binding" : "weak",
   "name" : "_ZNSt3__113__tree_removeIPNS_16__tree_node_baseIPvEEEEvT_S5_"
  },
  {
   "binding" : "weak",
   "name" : "_ZNSt3__114__thread_proxyINS_5tupleIJNS_10unique_ptrINS_15__thread_structENS_14default_deleteIS3_EEEEPFvRNS_3mapIKNS_8weak_ptrIN7android8hardware5media10bufferpool4V2_014implementation8Accessor4ImplEEElNS_10owner_lessIvEENS_9allocatorINS_4pairISI_lEEEEEERNS_5mutexERNS_18condition_variableEENS_17reference_wrapperISP_EENSX_ISR_EENSX_IST_EEEEEEEPvS12_"
  },
  {
   "binding" : "weak",
   "name" : "_ZNSt3__114__thread_proxyINS_5tupleIJNS_10unique_ptrINS_15__thread_structENS_14default_deleteIS3_EEEEPFvRNS_3mapIjKNS_8weak_ptrIN7android8hardware5media10bufferpool4V2_014implementation8Accessor4ImplEEENS_4lessIjEENS_9allocatorINS_4pairIKjSI_EEEEEERNS_5mutexERNS_18condition_variableERbENS_17reference_wrapperISQ_EENSZ_ISS_EENSZ_ISU_EENSZ_IbEEEEEEEPvS15_"
  },
  {
   "binding" : "weak",
   "name" : "_ZNSt3__120__shared_ptr_emplaceIN7android8hardware5media10bufferpool4V2_014implementation16BufferPoolClient4ImplENS_9allocatorIS8_EEE16__on_zero_sharedEv"
  },
  {
   "binding" : "weak",
   "name" : "_ZNSt3__120__shared_ptr_emplaceIN7android8hardware5media10bufferpool4V2_014implementation16BufferPoolClient4ImplENS_9allocatorIS8_EEE21__on_zero_shared_weakEv"
  },
  {
   "binding" : "weak",
   "name" : "_ZNSt3__120__shared_ptr_emplaceIN7android8hardware5media10bufferpool4V2_014implementation16BufferPoolClientENS_9allocatorIS7_EEE16__on_zero_sharedEv"
  },
  {
   "binding" : "weak",
   "name" : "_ZNSt3__120__shared_ptr_emplaceIN7android8hardware5media10bufferpool4V2_014implementation16BufferPoolClientENS_9allocatorIS7_EEE21__on_zero_shared_weakEv"
  },
  {
   "binding" : "weak",
   "name" : "_ZNSt3__120__shared_ptr_pointerIPN7android8hardware5media10bufferpool14BufferPoolDataENS4_4V2_014implementation16BufferPoolClient4Impl17BlockPoolDataDtorENS_9allocatorIS5_EEE16__on_zero_sharedEv"
  },
  {
   "binding" : "weak",
   "name" : "_ZNSt3__120__shared_ptr_pointerIPN7android8hardware5media10bufferpool14BufferPoolDataENS4_4V2_014implementation16BufferPoolClient4Impl17BlockPoolDataDtorENS_9allocatorIS5_EEE21__on_zero_shared_weakEv"
  },
  {
   "binding" : "weak",
   "name" : "_ZNSt3__120__shared_ptr_pointerIPN7android8hardware5media10bufferpool4V2_014implementation8Accessor4ImplENS_14default_deleteIS8_EENS_9allocatorIS8_EEE16__on_zero_sharedEv"
  },
  {
   "binding" : "weak",
   "name" : "_ZNSt3__120__shared_ptr_pointerIPN7android8hardware5media10bufferpool4V2_014implementation8Accessor4ImplENS_14default_deleteIS8_EENS_9allocatorIS8_EEE21__on_zero_shared_weakEv"
  },
  {
   "binding" : "weak",
   "name" : "_ZNSt3__127__tree_balance_after_insertIPNS_16__tree_node_baseIPvEEEEvT_S5_"
  },
  {
   "binding" : "weak",
   "name" : "_ZNSt3__16__treeINS_12__value_typeIKNS_8weak_ptrIN7android8hardware5media10bufferpool4V2_014implementation8Accessor4ImplEEElEENS_19__map_value_compareISC_SD_NS_10owner_lessIvEELb1EEENS_9allocatorISD_EEE21__emplace_unique_implIJRSC_RlEEENS_4pairINS_15__tree_iteratorISD_PNS_11__tree_nodeISD_PvEElEEbEEDpOT_"
  },
  {
   "binding" : "weak",
   "name" : "_ZNSt3__16__treeINS_12__value_typeIKNS_8weak_ptrIN7android8hardware5media10bufferpool4V2_014implementation8Accessor4ImplEEElEENS_19__map_value_compareISC_SD_NS_10owner_lessIvEELb1EEENS_9allocatorISD_EEE7destroyEPNS_11__tree_nodeISD_PvEE"
  },
  {
   "binding" : "weak",
   "name" : "_ZNSt3__16__treeINS_12__value_typeIjKNS_8weak_ptrIN7android8hardware5media10bufferpool4V2_014implementation8Accessor4ImplEEEEENS_19__map_value_compareIjSD_NS_4lessIjEELb1EEENS_9allocatorISD_EEE12__find_equalIjEERPNS_16__tree_node_baseIPvEENS_21__tree_const_iteratorISD_PNS_11__tree_nodeISD_SN_EElEERPNS_15__tree_end_nodeISP_EESQ_RKT_"
  },
  {
   "binding" : "weak",
   "name" : "_ZNSt3__16__treeINS_12__value_typeIjKNS_8weak_ptrIN7android8hardware5media10bufferpool4V2_014implementation8Accessor4ImplEEEEENS_19__map_value_compareIjSD_NS_4lessIjEELb1EEENS_9allocatorISD_EEE30__emplace_hint_unique_key_argsIjJRKNS_4pairIKjSC_EEEEENS_15__tree_iteratorISD_PNS_11__tree_nodeISD_PvEElEENS_21__tree_const_iteratorISD_SV_lEERKT_DpOT0_"
  },
  {
   "binding" : "weak",
   "name" : "_ZNSt3__16__treeINS_12__value_typeIjKNS_8weak_ptrIN7android8hardware5media10bufferpool4V2_014implementation8Accessor4ImplEEEEENS_19__map_value_compareIjSD_NS_4lessIjEELb1EEENS_9allocatorISD_EEE7destroyEPNS_11__tree_nodeISD_PvEE"
  },
  {
   "binding" : "weak",
   "name" : "_ZNSt3__16__treeINS_12__value_typeIjNS_10unique_ptrIN7android8hardware5media10bufferpool4V2_014implementation14InternalBufferENS_14default_deleteIS9_EEEEEENS_19__map_value_compareIjSD_NS_4lessIjEELb1EEENS_9allocatorISD_EEE5eraseENS_21__tree_const_iteratorISD_PNS_11__tree_nodeISD_PvEElEE"
  },
  {
   "binding" : "weak",
   "name" : "_ZNSt3__16__treeINS_12__value_typeIjNS_10unique_ptrIN7android8hardware5media10bufferpool4V2_014implementation14InternalBufferENS_14default_deleteIS9_EEEEEENS_19__map_value_compareIjSD_NS_4lessIjEELb1EEENS_9allocatorISD_EEE7destroyEPNS_11__tree_nodeISD_PvEE"
  },
  {
   "binding" : "weak",
   "name" : "_ZNSt3__16__treeINS_12__value_typeIjNS_10unique_ptrIN7android8hardware5media10bufferpool4V2_014implementation16BufferPoolClient4Impl12ClientBufferENS_14default_deleteISB_EEEEEENS_19__map_value_compareIjSF_NS_4lessIjEELb1EEENS_9allocatorISF_EEE5eraseENS_21__tree_const_iteratorISF_PNS_11__tree_nodeISF_PvEElEE"
  },
  {
   "binding" : "weak",
   "name" : "_ZNSt3__16__treeINS_12__value_typeIjNS_10unique_ptrIN7android8hardware5media10bufferpool4V2_014implementation16BufferPoolClient4Impl12ClientBufferENS_14default_deleteISB_EEEEEENS_19__map_value_compareIjSF_NS_4lessIjEELb1EEENS_9allocatorISF_EEE7destroyEPNS_11__tree_nodeISF_PvEE"
  },
  {
   "binding" : "weak",
   "name" : "_ZNSt3__16__treeINS_12__value_typeIjNS_3setIlNS_4lessIlEENS_9allocatorIlEEEEEENS_19__map_value_compareIjS8_NS3_IjEELb1EEENS5_IS8_EEE25__emplace_unique_key_argsIjJNS_4pairIjS7_EEEEENSF_INS_15__tree_iteratorIS8_PNS_11__tree_nodeIS8_PvEElEEbEERKT_DpOT0_"
  },
  {
   "binding" : "weak",
   "name" : "_ZNSt3__16__treeINS_12__value_typeIjNS_3setIlNS_4lessIlEENS_9allocatorIlEEEEEENS_19__map_value_compareIjS8_NS3_IjEELb1EEENS5_IS8_EEE7destroyEPNS_11__tree_nodeIS8_PvEE"
  },
  {
   "binding" : "weak",
   "name" : "_ZNSt3__16__treeINS_12__value_typeIlKN7android2spINS2_8hardware5media10bufferpool4V2_09IObserverEEEEENS_19__map_value_compareIlSB_NS_4lessIlEELb1EEENS_9allocatorISB_EEE25__emplace_unique_key_argsIlJRKlRSA_EEENS_4pairINS_15__tree_iteratorISB_PNS_11__tree_nodeISB_PvEElEEbEERKT_DpOT0_"
  },
  {
   "binding" : "weak",
   "name" : "_ZNSt3__16__treeINS_12__value_typeIlKN7android2spINS2_8hardware5media10bufferpool4V2_09IObserverEEEEENS_19__map_value_compareIlSB_NS_4lessIlEELb1EEENS_9allocatorISB_EEE7destroyEPNS_11__tree_nodeISB_PvEE"
  },
  {
   "binding" : "weak",
   "name" : "_ZNSt3__16__treeINS_12__value_typeIlKN7android2wpINS2_8hardware5media10bufferpool4V2_014implementation8AccessorEEEEENS_19__map_value_compareIlSC_NS_4lessIlEELb1EEENS_9allocatorISC_EEE25__emplace_unique_key_argsIlJNS_4pairIlNS2_2spIS9_EEEEEEENSL_INS_15__tree_iteratorISC_PNS_11__tree_nodeISC_PvEElEEbEERKT_DpOT0_"
  },
  {
   "binding" : "weak",
   "name" : "_ZNSt3__16__treeINS_12__value_typeIlKN7android2wpINS2_8hardware5media10bufferpool4V2_014implementation8AccessorEEEEENS_19__map_value_compareIlSC_NS_4lessIlEELb1EEENS_9allocatorISC_EEE25__emplace_unique_key_argsIlJNS_4pairIlSA_EEEEENSL_INS_15__tree_iteratorISC_PNS_11__tree_nodeISC_PvEElEEbEERKT_DpOT0_"
  },
  {
   "binding" : "weak",
   "name" : "_ZNSt3__16__treeINS_12__value_typeIlKN7android2wpINS2_8hardware5media10bufferpool4V2_014implementation8AccessorEEEEENS_19__map_value_compareIlSC_NS_4lessIlEELb1EEENS_9allocatorISC_EEE7destroyEPNS_11__tree_nodeISC_PvEE"
  },
  {
   "binding" : "weak",
   "name" : "_ZNSt3__16__treeINS_12__value_typeIlKNS_10shared_ptrIN7android8hardware5media10bufferpool4V2_014implementation16BufferPoolClientEEEEENS_19__map_value_compareIlSC_NS_4lessIlEELb1EEENS_9allocatorISC_EEE5eraseENS_21__tree_const_iteratorISC_PNS_11__tree_nodeISC_PvEElEE"
  },
  {
   "binding" : "weak",
   "name" : "_ZNSt3__16__treeINS_12__value_typeIlKNS_10shared_ptrIN7android8hardware5media10bufferpool4V2_014implementation16BufferPoolClientEEEEENS_19__map_value_compareIlSC_NS_4lessIlEELb1EEENS_9allocatorISC_EEE7destroyEPNS_11__tree_nodeISC_PvEE"
  },
  {
   "binding" : "weak",
   "name" : "_ZNSt3__16__treeINS_12__value_typeIlKNS_8weak_ptrIN7android8hardware5media10bufferpool4V2_014implementation16BufferPoolClientEEEEENS_19__map_value_compareIlSC_NS_4lessIlEELb1EEENS_9allocatorISC_EEE7destroyEPNS_11__tree_nodeISC_PvEE"
  },
  {
   "binding" : "weak",
   "name" : "_ZNSt3__16__treeINS_12__value_typeIlNS_10unique_ptrIN7android8hardware12MessageQueueINS4_5media10bufferpool4V2_019BufferStatusMessageELNS4_8MQFlavorE1EEENS_14default_deleteISB_EEEEEENS_19__map_value_compareIlSF_NS_4lessIlEELb1EEENS_9allocatorISF_EEE5eraseENS_21__tree_const_iteratorISF_PNS_11__tree_nodeISF_PvEElEE"
  },
  {
   "binding" : "weak",
   "name" : "_ZNSt3__16__treeINS_12__value_typeIlNS_10unique_ptrIN7android8hardware12MessageQueueINS4_5media10bufferpool4V2_019BufferStatusMessageELNS4_8MQFlavorE1EEENS_14default_deleteISB_EEEEEENS_19__map_value_compareIlSF_NS_4lessIlEELb1EEENS_9allocatorISF_EEE7destroyEPNS_11__tree_nodeISF_PvEE"
  },
  {
   "binding" : "weak",
   "name" : "_ZNSt3__16__treeINS_12__value_typeIlNS_3setIjNS_4lessIjEENS_9allocatorIjEEEEEENS_19__map_value_compareIlS8_NS3_IlEELb1EEENS5_IS8_EEE25__emplace_unique_key_argsIlJNS_4pairIlS7_EEEEENSF_INS_15__tree_iteratorIS8_PNS_11__tree_nodeIS8_PvEElEEbEERKT_DpOT0_"
  },
  {
   "binding" : "weak",
   "name" : "_ZNSt3__16__treeINS_12__value_typeIlNS_3setIjNS_4lessIjEENS_9allocatorIjEEEEEENS_19__map_value_compareIlS8_NS3_IlEELb1EEENS5_IS8_EEE7destroyEPNS_11__tree_nodeIS8_PvEE"
  },
  {
   "binding" : "weak",
   "name" : "_ZNSt3__16__treeINS_12__value_typeIlNS_3setImNS_4lessImEENS_9allocatorImEEEEEENS_19__map_value_compareIlS8_NS3_IlEELb1EEENS5_IS8_EEE25__emplace_unique_key_argsIlJNS_4pairIlS7_EEEEENSF_INS_15__tree_iteratorIS8_PNS_11__tree_nodeIS8_PvEElEEbEERKT_DpOT0_"
  },
  {
   "binding" : "weak",
   "name" : "_ZNSt3__16__treeINS_12__value_typeIlNS_3setImNS_4lessImEENS_9allocatorImEEEEEENS_19__map_value_compareIlS8_NS3_IlEELb1EEENS5_IS8_EEE7destroyEPNS_11__tree_nodeIS8_PvEE"
  },
  {
   "binding" : "weak",
   "name" : "_ZNSt3__16__treeINS_12__value_typeIljEENS_19__map_value_compareIlS2_NS_4lessIlEELb1EEENS_9allocatorIS2_EEE7destroyEPNS_11__tree_nodeIS2_PvEE"
  },
  {
   "binding" : "weak",
   "name" : "_ZNSt3__16__treeINS_12__value_typeIlmEENS_19__map_value_compareIlS2_NS_4lessIlEELb1EEENS_9allocatorIS2_EEE7destroyEPNS_11__tree_nodeIS2_PvEE"
  },
  {
   "binding" : "weak",
   "name" : "_ZNSt3__16__treeINS_12__value_typeImNS_10unique_ptrIN7android8hardware5media10bufferpool4V2_014implementation17TransactionStatusENS_14default_deleteIS9_EEEEEENS_19__map_value_compareImSD_NS_4lessImEELb1EEENS_9allocatorISD_EEE7destroyEPNS_11__tree_nodeISD_PvEE"
  },
  {
   "binding" : "weak",
   "name" : "_ZNSt3__16__treeINS_12__value_typeImNS_3setIlNS_4lessIlEENS_9allocatorIlEEEEEENS_19__map_value_compareImS8_NS3_ImEELb1EEENS5_IS8_EEE25__emplace_unique_key_argsImJNS_4pairImS7_EEEEENSF_INS_15__tree_iteratorIS8_PNS_11__tree_nodeIS8_PvEElEEbEERKT_DpOT0_"
  },
  {
   "binding" : "weak",
   "name" : "_ZNSt3__16__treeINS_12__value_typeImNS_3setIlNS_4lessIlEENS_9allocatorIlEEEEEENS_19__map_value_compareImS8_NS3_ImEELb1EEENS5_IS8_EEE7destroyEPNS_11__tree_nodeIS8_PvEE"
  },
  {
   "binding" : "weak",
   "name" : "_ZNSt3__16__treeIiNS_4lessIiEENS_9allocatorIiEEE7destroyEPNS_11__tree_nodeIiPvEE"
  },
  {
   "binding" : "weak",
   "name" : "_ZNSt3__16__treeIjNS_4lessIjEENS_9allocatorIjEEE12__find_equalIjEERPNS_16__tree_node_baseIPvEENS_21__tree_const_iteratorIjPNS_11__tree_nodeIjS8_EElEERPNS_15__tree_end_nodeISA_EESB_RKT_"
  },
  {
   "binding" : "weak",
   "name" : "_ZNSt3__16__treeIjNS_4lessIjEENS_9allocatorIjEEE7destroyEPNS_11__tree_nodeIjPvEE"
  },
  {
   "binding" : "weak",
   "name" : "_ZNSt3__16__treeIlNS_4lessIlEENS_9allocatorIlEEE12__find_equalIlEERPNS_16__tree_node_baseIPvEENS_21__tree_const_iteratorIlPNS_11__tree_nodeIlS8_EElEERPNS_15__tree_end_nodeISA_EESB_RKT_"
  },
  {
   "binding" : "weak",
   "name" : "_ZNSt3__16__treeIlNS_4lessIlEENS_9allocatorIlEEE7destroyEPNS_11__tree_nodeIlPvEE"
  },
  {
   "binding" : "weak",
   "name" : "_ZNSt3__16__treeImNS_4lessImEENS_9allocatorImEEE12__find_equalImEERPNS_16__tree_node_baseIPvEENS_21__tree_const_iteratorImPNS_11__tree_nodeImS8_EElEERPNS_15__tree_end_nodeISA_EESB_RKT_"
  },
  {
   "binding" : "weak",
   "name" : "_ZNSt3__16__treeImNS_4lessImEENS_9allocatorImEEE7destroyEPNS_11__tree_nodeImPvEE"
  },
  {
   "binding" : "weak",
   "name" : "_ZNSt3__16vectorIN7android8hardware5media10bufferpool4V2_019BufferStatusMessageENS_9allocatorIS6_EEE21__push_back_slow_pathIRKS6_EEvOT_"
  },
  {
   "binding" : "weak",
   "name" : "_ZNSt3__16vectorIN7android8hardware5media10bufferpool4V2_025BufferInvalidationMessageENS_9allocatorIS6_EEE21__push_back_slow_pathIRKS6_EEvOT_"
  },
  {
   "binding" : "weak",
   "name" : "_ZNSt3__16vectorIN7android8hardware5media10bufferpool4V2_025BufferInvalidationMessageENS_9allocatorIS6_EEE7reserveEm"
  },
  {
   "name" : "_ZTv0_n24_N7android8hardware5media10bufferpool4V2_014implementation10ConnectionD0Ev"
  },
  {
   "name" : "_ZTv0_n24_N7android8hardware5media10bufferpool4V2_014implementation10ConnectionD1Ev"
  },
  {
   "name" : "_ZTv0_n24_N7android8hardware5media10bufferpool4V2_014implementation13ClientManagerD0Ev"
  },
  {
   "name" : "_ZTv0_n24_N7android8hardware5media10bufferpool4V2_014implementation13ClientManagerD1Ev"
  },
  {
   "name" : "_ZTv0_n24_N7android8hardware5media10bufferpool4V2_014implementation8AccessorD0Ev"
  },
  {
   "name" : "_ZTv0_n24_N7android8hardware5media10bufferpool4V2_014implementation8AccessorD1Ev"
  },
  {
   "name" : "_ZTv0_n24_N7android8hardware5media10bufferpool4V2_014implementation8ObserverD0Ev"
  },
  {
   "name" : "_ZTv0_n24_N7android8hardware5media10bufferpool4V2_014implementation8ObserverD1Ev"
  }
 ],
 "elf_objects" :
 [
  {
   "name" : "_ZN7android8hardware5media10bufferpool4V2_014implementation13ClientManager13sInstanceLockE"
  },
  {
   "name" : "_ZN7android8hardware5media10bufferpool4V2_014implementation13ClientManager9sInstanceE"
  },
  {
   "name" : "_ZN7android8hardware5media10bufferpool4V2_014implementation8Accessor4Impl10BufferPool12Invalidation9sInvSeqIdE"
  },
  {
   "name" : "_ZN7android8hardware5media10bufferpool4V2_014implementation8Accessor4Impl12sInvalidatorE"
  },
  {
   "name" : "_ZN7android8hardware5media10bufferpool4V2_014implementation8Accessor4Impl6sSeqIdE"
  },
  {
   "name" : "_ZN7android8hardware5media10bufferpool4V2_014implementation8Accessor4Impl8sEvictorE"
  },
  {
   "name" : "_ZTCN7android8hardware5media10bufferpool4V2_014implementation10ConnectionE0_NS3_11IConnectionE"
  },
  {
   "name" : "_ZTCN7android8hardware5media10bufferpool4V2_014implementation10ConnectionE0_NS_4hidl4base4V1_05IBaseE"
  },
  {
   "name" : "_ZTCN7android8hardware5media10bufferpool4V2_014implementation13ClientManagerE0_NS3_14IClientManagerE"
  },
  {
   "name" : "_ZTCN7android8hardware5media10bufferpool4V2_014implementation13ClientManagerE0_NS_4hidl4base4V1_05IBaseE"
  },
  {
   "name" : "_ZTCN7android8hardware5media10bufferpool4V2_014implementation24ConnectionDeathRecipientE0_NS0_20hidl_death_recipientE"
  },
  {
   "name" : "_ZTCN7android8hardware5media10bufferpool4V2_014implementation8AccessorE0_NS3_9IAccessorE"
  },
  {
   "name" : "_ZTCN7android8hardware5media10bufferpool4V2_014implementation8AccessorE0_NS_4hidl4base4V1_05IBaseE"
  },
  {
   "name" : "_ZTCN7android8hardware5media10bufferpool4V2_014implementation8ObserverE0_NS3_9IObserverE"
  },
  {
   "name" : "_ZTCN7android8hardware5media10bufferpool4V2_014implementation8ObserverE0_NS_4hidl4base4V1_05IBaseE"
  },
  {
   "name" : "_ZTTN7android8hardware5media10bufferpool4V2_014implementation10ConnectionE"
  },
  {
   "name" : "_ZTTN7android8hardware5media10bufferpool4V2_014implementation13ClientManagerE"
  },
  {
   "name" : "_ZTTN7android8hardware5media10bufferpool4V2_014implementation24ConnectionDeathRecipientE"
  },
  {
   "name" : "_ZTTN7android8hardware5media10bufferpool4V2_014implementation8AccessorE"
  },
  {
   "name" : "_ZTTN7android8hardware5media10bufferpool4V2_014implementation8ObserverE"
  },
  {
   "name" : "_ZTVN7android8hardware5media10bufferpool4V2_014implementation10ConnectionE"
  },
  {
   "name" : "_ZTVN7android8hardware5media10bufferpool4V2_014implementation13ClientManagerE"
  },
  {
   "name" : "_ZTVN7android8hardware5media10bufferpool4V2_014implementation24ConnectionDeathRecipientE"
  },
  {
   "name" : "_ZTVN7android8hardware5media10bufferpool4V2_014implementation8AccessorE"
  },
  {
   "name" : "_ZTVN7android8hardware5media10bufferpool4V2_014implementation8ObserverE"
  },
  {
   "binding" : "weak",
   "name" : "_ZTVNSt3__120__shared_ptr_emplaceIN7android8hardware5media10bufferpool4V2_014implementation16BufferPoolClient4ImplENS_9allocatorIS8_EEEE"
  },
  {
   "binding" : "weak",
   "name" : "_ZTVNSt3__120__shared_ptr_emplaceIN7android8hardware5media10bufferpool4V2_014implementation16BufferPoolClientENS_9allocatorIS7_EEEE"
  },
  {
   "binding" : "weak",
   "name" : "_ZTVNSt3__120__shared_ptr_pointerIPN7android8hardware5media10bufferpool14BufferPoolDataENS4_4V2_014implementation16BufferPoolClient4Impl17BlockPoolDataDtorENS_9allocatorIS5_EEEE"
  },
  {
   "binding" : "weak",
   "name" : "_ZTVNSt3__120__shared_ptr_pointerIPN7android8hardware5media10bufferpool4V2_014implementation8Accessor4ImplENS_14default_deleteIS8_EENS_9allocatorIS8_EEEE"
  }
 ],
 "enum_types" :
 [
  {
   "alignment" : 4,
   "enum_fields" :
   [
    {
     "enum_field_value" : 0,
     "name" : "ANDROID_LOG_UNKNOWN"
    },
    {
     "enum_field_value" : 1,
     "name" : "ANDROID_LOG_DEFAULT"
    },
    {
     "enum_field_value" : 2,
     "name" : "ANDROID_LOG_VERBOSE"
    },
    {
     "enum_field_value" : 3,
     "name" : "ANDROID_LOG_DEBUG"
    },
    {
     "enum_field_value" : 4,
     "name" : "ANDROID_LOG_INFO"
    },
    {
     "enum_field_value" : 5,
     "name" : "ANDROID_LOG_WARN"
    },
    {
     "enum_field_value" : 6,
     "name" : "ANDROID_LOG_ERROR"
    },
    {
     "enum_field_value" : 7,
     "name" : "ANDROID_LOG_FATAL"
    },
    {
     "enum_field_value" : 8,
     "name" : "ANDROID_LOG_SILENT"
    }
   ],
   "linker_set_key" : "_ZTI19android_LogPriority",
   "name" : "android_LogPriority",
   "referenced_type" : "_ZTI19android_LogPriority",
   "self_type" : "_ZTI19android_LogPriority",
   "size" : 4,
   "source_file" : "/system/core/liblog/include/android/log.h",
   "underlying_type" : "_ZTIj"
  },
  {
   "alignment" : 4,
   "enum_fields" :
   [
    {
     "enum_field_value" : 0,
     "name" : "SYSTEM_TIME_REALTIME"
    },
    {
     "enum_field_value" : 1,
     "name" : "SYSTEM_TIME_MONOTONIC"
    },
    {
     "enum_field_value" : 2,
     "name" : "SYSTEM_TIME_PROCESS"
    },
    {
     "enum_field_value" : 3,
     "name" : "SYSTEM_TIME_THREAD"
    },
    {
     "enum_field_value" : 4,
     "name" : "SYSTEM_TIME_BOOTTIME"
    }
   ],
   "linker_set_key" : "_ZTI21$SYSTEM_TIME_BOOTTIME",
   "name" : "(anonymous enum at system/core/libutils/include/utils/Timers.h:79:1)",
   "referenced_type" : "_ZTI21$SYSTEM_TIME_BOOTTIME",
   "self_type" : "_ZTI21$SYSTEM_TIME_BOOTTIME",
   "size" : 4,
   "source_file" : "/system/core/libutils/include/utils/Timers.h",
   "underlying_type" : "_ZTIj"
  },
  {
   "alignment" : 4,
   "enum_fields" :
   [
    {
     "enum_field_value" : 0,
     "name" : "LOG_ID_MIN"
    },
    {
     "enum_field_value" : 0,
     "name" : "LOG_ID_MAIN"
    },
    {
     "enum_field_value" : 1,
     "name" : "LOG_ID_RADIO"
    },
    {
     "enum_field_value" : 2,
     "name" : "LOG_ID_EVENTS"
    },
    {
     "enum_field_value" : 3,
     "name" : "LOG_ID_SYSTEM"
    },
    {
     "enum_field_value" : 4,
     "name" : "LOG_ID_CRASH"
    },
    {
     "enum_field_value" : 5,
     "name" : "LOG_ID_STATS"
    },
    {
     "enum_field_value" : 6,
     "name" : "LOG_ID_SECURITY"
    },
    {
     "enum_field_value" : 7,
     "name" : "LOG_ID_KERNEL"
    },
    {
     "enum_field_value" : 8,
     "name" : "LOG_ID_MAX"
    },
    {
     "enum_field_value" : 2147483647,
     "name" : "LOG_ID_DEFAULT"
    }
   ],
   "linker_set_key" : "_ZTI6log_id",
   "name" : "log_id",
   "referenced_type" : "_ZTI6log_id",
   "self_type" : "_ZTI6log_id",
   "size" : 4,
   "source_file" : "/system/core/liblog/include/android/log.h",
   "underlying_type" : "_ZTIj"
  },
  {
   "alignment" : 4,
   "enum_fields" :
   [
    {
     "enum_field_value" : 0,
     "name" : "android::OK"
    },
    {
     "enum_field_value" : 0,
     "name" : "android::NO_ERROR"
    },
    {
     "enum_field_value" : -2147483648,
     "name" : "android::UNKNOWN_ERROR"
    },
    {
     "enum_field_value" : -12,
     "name" : "android::NO_MEMORY"
    },
    {
     "enum_field_value" : -38,
     "name" : "android::INVALID_OPERATION"
    },
    {
     "enum_field_value" : -22,
     "name" : "android::BAD_VALUE"
    },
    {
     "enum_field_value" : -2147483647,
     "name" : "android::BAD_TYPE"
    },
    {
     "enum_field_value" : -2,
     "name" : "android::NAME_NOT_FOUND"
    },
    {
     "enum_field_value" : -1,
     "name" : "android::PERMISSION_DENIED"
    },
    {
     "enum_field_value" : -19,
     "name" : "android::NO_INIT"
    },
    {
     "enum_field_value" : -17,
     "name" : "android::ALREADY_EXISTS"
    },
    {
     "enum_field_value" : -32,
     "name" : "android::DEAD_OBJECT"
    },
    {
     "enum_field_value" : -2147483646,
     "name" : "android::FAILED_TRANSACTION"
    },
    {
     "enum_field_value" : -75,
     "name" : "android::BAD_INDEX"
    },
    {
     "enum_field_value" : -61,
     "name" : "android::NOT_ENOUGH_DATA"
    },
    {
     "enum_field_value" : -11,
     "name" : "android::WOULD_BLOCK"
    },
    {
     "enum_field_value" : -110,
     "name" : "android::TIMED_OUT"
    },
    {
     "enum_field_value" : -74,
     "name" : "android::UNKNOWN_TRANSACTION"
    },
    {
     "enum_field_value" : -2147483641,
     "name" : "android::FDS_NOT_ALLOWED"
    },
    {
     "enum_field_value" : -2147483640,
     "name" : "android::UNEXPECTED_NULL"
    }
   ],
   "linker_set_key" : "_ZTIN7android15$ALREADY_EXISTSE",
   "name" : "android::(anonymous enum at system/core/libutils/include/utils/Errors.h:43:1)",
   "referenced_type" : "_ZTIN7android15$ALREADY_EXISTSE",
   "self_type" : "_ZTIN7android15$ALREADY_EXISTSE",
   "size" : 4,
   "source_file" : "/system/core/libutils/include/utils/Errors.h",
   "underlying_type" : "_ZTIi"
  },
  {
   "alignment" : 4,
   "enum_fields" :
   [
    {
     "enum_field_value" : 1,
     "name" : "android::trait_trivial_copy<bool>::value"
    }
   ],
   "linker_set_key" : "_ZTIN7android18trait_trivial_copyIbE6$valueE",
   "name" : "android::trait_trivial_copy<bool>::(anonymous enum at system/core/libutils/include/utils/TypeHelpers.h:98:1)",
   "referenced_type" : "_ZTIN7android18trait_trivial_copyIbE6$valueE",
   "self_type" : "_ZTIN7android18trait_trivial_copyIbE6$valueE",
   "size" : 4,
   "source_file" : "/system/core/libutils/include/utils/TypeHelpers.h",
   "underlying_type" : "_ZTIj"
  },
  {
   "alignment" : 4,
   "enum_fields" :
   [
    {
     "enum_field_value" : 1,
     "name" : "android::trait_trivial_copy<char>::value"
    }
   ],
   "linker_set_key" : "_ZTIN7android18trait_trivial_copyIcE6$valueE",
   "name" : "android::trait_trivial_copy<char>::(anonymous enum at system/core/libutils/include/utils/TypeHelpers.h:99:1)",
   "referenced_type" : "_ZTIN7android18trait_trivial_copyIcE6$valueE",
   "self_type" : "_ZTIN7android18trait_trivial_copyIcE6$valueE",
   "size" : 4,
   "source_file" : "/system/core/libutils/include/utils/TypeHelpers.h",
   "underlying_type" : "_ZTIj"
  },
  {
   "alignment" : 4,
   "enum_fields" :
   [
    {
     "enum_field_value" : 1,
     "name" : "android::trait_trivial_copy<double>::value"
    }
   ],
   "linker_set_key" : "_ZTIN7android18trait_trivial_copyIdE6$valueE",
   "name" : "android::trait_trivial_copy<double>::(anonymous enum at system/core/libutils/include/utils/TypeHelpers.h:110:1)",
   "referenced_type" : "_ZTIN7android18trait_trivial_copyIdE6$valueE",
   "self_type" : "_ZTIN7android18trait_trivial_copyIdE6$valueE",
   "size" : 4,
   "source_file" : "/system/core/libutils/include/utils/TypeHelpers.h",
   "underlying_type" : "_ZTIj"
  },
  {
   "alignment" : 4,
   "enum_fields" :
   [
    {
     "enum_field_value" : 1,
     "name" : "android::trait_trivial_copy<float>::value"
    }
   ],
   "linker_set_key" : "_ZTIN7android18trait_trivial_copyIfE6$valueE",
   "name" : "android::trait_trivial_copy<float>::(anonymous enum at system/core/libutils/include/utils/TypeHelpers.h:109:1)",
   "referenced_type" : "_ZTIN7android18trait_trivial_copyIfE6$valueE",
   "self_type" : "_ZTIN7android18trait_trivial_copyIfE6$valueE",
   "size" : 4,
   "source_file" : "/system/core/libutils/include/utils/TypeHelpers.h",
   "underlying_type" : "_ZTIj"
  },
  {
   "alignment" : 4,
   "enum_fields" :
   [
    {
     "enum_field_value" : 1,
     "name" : "android::trait_trivial_copy<unsigned char>::value"
    }
   ],
   "linker_set_key" : "_ZTIN7android18trait_trivial_copyIhE6$valueE",
   "name" : "android::trait_trivial_copy<unsigned char>::(anonymous enum at system/core/libutils/include/utils/TypeHelpers.h:100:1)",
   "referenced_type" : "_ZTIN7android18trait_trivial_copyIhE6$valueE",
   "self_type" : "_ZTIN7android18trait_trivial_copyIhE6$valueE",
   "size" : 4,
   "source_file" : "/system/core/libutils/include/utils/TypeHelpers.h",
   "underlying_type" : "_ZTIj"
  },
  {
   "alignment" : 4,
   "enum_fields" :
   [
    {
     "enum_field_value" : 1,
     "name" : "android::trait_trivial_copy<int>::value"
    }
   ],
   "linker_set_key" : "_ZTIN7android18trait_trivial_copyIiE6$valueE",
   "name" : "android::trait_trivial_copy<int>::(anonymous enum at system/core/libutils/include/utils/TypeHelpers.h:103:1)",
   "referenced_type" : "_ZTIN7android18trait_trivial_copyIiE6$valueE",
   "self_type" : "_ZTIN7android18trait_trivial_copyIiE6$valueE",
   "size" : 4,
   "source_file" : "/system/core/libutils/include/utils/TypeHelpers.h",
   "underlying_type" : "_ZTIj"
  },
  {
   "alignment" : 4,
   "enum_fields" :
   [
    {
     "enum_field_value" : 1,
     "name" : "android::trait_trivial_copy<unsigned int>::value"
    }
   ],
   "linker_set_key" : "_ZTIN7android18trait_trivial_copyIjE6$valueE",
   "name" : "android::trait_trivial_copy<unsigned int>::(anonymous enum at system/core/libutils/include/utils/TypeHelpers.h:104:1)",
   "referenced_type" : "_ZTIN7android18trait_trivial_copyIjE6$valueE",
   "self_type" : "_ZTIN7android18trait_trivial_copyIjE6$valueE",
   "size" : 4,
   "source_file" : "/system/core/libutils/include/utils/TypeHelpers.h",
   "underlying_type" : "_ZTIj"
  },
  {
   "alignment" : 4,
   "enum_fields" :
   [
    {
     "enum_field_value" : 1,
     "name" : "android::trait_trivial_copy<long>::value"
    }
   ],
   "linker_set_key" : "_ZTIN7android18trait_trivial_copyIlE6$valueE",
   "name" : "android::trait_trivial_copy<long>::(anonymous enum at system/core/libutils/include/utils/TypeHelpers.h:105:1)",
   "referenced_type" : "_ZTIN7android18trait_trivial_copyIlE6$valueE",
   "self_type" : "_ZTIN7android18trait_trivial_copyIlE6$valueE",
   "size" : 4,
   "source_file" : "/system/core/libutils/include/utils/TypeHelpers.h",
   "underlying_type" : "_ZTIj"
  },
  {
   "alignment" : 4,
   "enum_fields" :
   [
    {
     "enum_field_value" : 1,
     "name" : "android::trait_trivial_copy<unsigned long>::value"
    }
   ],
   "linker_set_key" : "_ZTIN7android18trait_trivial_copyImE6$valueE",
   "name" : "android::trait_trivial_copy<unsigned long>::(anonymous enum at system/core/libutils/include/utils/TypeHelpers.h:106:1)",
   "referenced_type" : "_ZTIN7android18trait_trivial_copyImE6$valueE",
   "self_type" : "_ZTIN7android18trait_trivial_copyImE6$valueE",
   "size" : 4,
   "source_file" : "/system/core/libutils/include/utils/TypeHelpers.h",
   "underlying_type" : "_ZTIj"
  },
  {
   "alignment" : 4,
   "enum_fields" :
   [
    {
     "enum_field_value" : 1,
     "name" : "android::trait_trivial_copy<short>::value"
    }
   ],
   "linker_set_key" : "_ZTIN7android18trait_trivial_copyIsE6$valueE",
   "name" : "android::trait_trivial_copy<short>::(anonymous enum at system/core/libutils/include/utils/TypeHelpers.h:101:1)",
   "referenced_type" : "_ZTIN7android18trait_trivial_copyIsE6$valueE",
   "self_type" : "_ZTIN7android18trait_trivial_copyIsE6$valueE",
   "size" : 4,
   "source_file" : "/system/core/libutils/include/utils/TypeHelpers.h",
   "underlying_type" : "_ZTIj"
  },
  {
   "alignment" : 4,
   "enum_fields" :
   [
    {
     "enum_field_value" : 1,
     "name" : "android::trait_trivial_copy<unsigned short>::value"
    }
   ],
   "linker_set_key" : "_ZTIN7android18trait_trivial_copyItE6$valueE",
   "name" : "android::trait_trivial_copy<unsigned short>::(anonymous enum at system/core/libutils/include/utils/TypeHelpers.h:102:1)",
   "referenced_type" : "_ZTIN7android18trait_trivial_copyItE6$valueE",
   "self_type" : "_ZTIN7android18trait_trivial_copyItE6$valueE",
   "size" : 4,
   "source_file" : "/system/core/libutils/include/utils/TypeHelpers.h",
   "underlying_type" : "_ZTIj"
  },
  {
   "alignment" : 4,
   "enum_fields" :
   [
    {
     "enum_field_value" : 1,
     "name" : "android::trait_trivial_copy<void>::value"
    }
   ],
   "linker_set_key" : "_ZTIN7android18trait_trivial_copyIvE6$valueE",
   "name" : "android::trait_trivial_copy<void>::(anonymous enum at system/core/libutils/include/utils/TypeHelpers.h:97:1)",
   "referenced_type" : "_ZTIN7android18trait_trivial_copyIvE6$valueE",
   "self_type" : "_ZTIN7android18trait_trivial_copyIvE6$valueE",
   "size" : 4,
   "source_file" : "/system/core/libutils/include/utils/TypeHelpers.h",
   "underlying_type" : "_ZTIj"
  },
  {
   "alignment" : 4,
   "enum_fields" :
   [
    {
     "enum_field_value" : 1,
     "name" : "android::trait_trivial_copy<long long>::value"
    }
   ],
   "linker_set_key" : "_ZTIN7android18trait_trivial_copyIxE6$valueE",
   "name" : "android::trait_trivial_copy<long long>::(anonymous enum at system/core/libutils/include/utils/TypeHelpers.h:107:1)",
   "referenced_type" : "_ZTIN7android18trait_trivial_copyIxE6$valueE",
   "self_type" : "_ZTIN7android18trait_trivial_copyIxE6$valueE",
   "size" : 4,
   "source_file" : "/system/core/libutils/include/utils/TypeHelpers.h",
   "underlying_type" : "_ZTIj"
  },
  {
   "alignment" : 4,
   "enum_fields" :
   [
    {
     "enum_field_value" : 1,
     "name" : "android::trait_trivial_copy<unsigned long long>::value"
    }
   ],
   "linker_set_key" : "_ZTIN7android18trait_trivial_copyIyE6$valueE",
   "name" : "android::trait_trivial_copy<unsigned long long>::(anonymous enum at system/core/libutils/include/utils/TypeHelpers.h:108:1)",
   "referenced_type" : "_ZTIN7android18trait_trivial_copyIyE6$valueE",
   "self_type" : "_ZTIN7android18trait_trivial_copyIyE6$valueE",
   "size" : 4,
   "source_file" : "/system/core/libutils/include/utils/TypeHelpers.h",
   "underlying_type" : "_ZTIj"
  },
  {
   "alignment" : 4,
   "enum_fields" :
   [
    {
     "enum_field_value" : 1,
     "name" : "android::trait_trivial_ctor<bool>::value"
    }
   ],
   "linker_set_key" : "_ZTIN7android18trait_trivial_ctorIbE6$valueE",
   "name" : "android::trait_trivial_ctor<bool>::(anonymous enum at system/core/libutils/include/utils/TypeHelpers.h:98:1)",
   "referenced_type" : "_ZTIN7android18trait_trivial_ctorIbE6$valueE",
   "self_type" : "_ZTIN7android18trait_trivial_ctorIbE6$valueE",
   "size" : 4,
   "source_file" : "/system/core/libutils/include/utils/TypeHelpers.h",
   "underlying_type" : "_ZTIj"
  },
  {
   "alignment" : 4,
   "enum_fields" :
   [
    {
     "enum_field_value" : 1,
     "name" : "android::trait_trivial_ctor<char>::value"
    }
   ],
   "linker_set_key" : "_ZTIN7android18trait_trivial_ctorIcE6$valueE",
   "name" : "android::trait_trivial_ctor<char>::(anonymous enum at system/core/libutils/include/utils/TypeHelpers.h:99:1)",
   "referenced_type" : "_ZTIN7android18trait_trivial_ctorIcE6$valueE",
   "self_type" : "_ZTIN7android18trait_trivial_ctorIcE6$valueE",
   "size" : 4,
   "source_file" : "/system/core/libutils/include/utils/TypeHelpers.h",
   "underlying_type" : "_ZTIj"
  },
  {
   "alignment" : 4,
   "enum_fields" :
   [
    {
     "enum_field_value" : 1,
     "name" : "android::trait_trivial_ctor<double>::value"
    }
   ],
   "linker_set_key" : "_ZTIN7android18trait_trivial_ctorIdE6$valueE",
   "name" : "android::trait_trivial_ctor<double>::(anonymous enum at system/core/libutils/include/utils/TypeHelpers.h:110:1)",
   "referenced_type" : "_ZTIN7android18trait_trivial_ctorIdE6$valueE",
   "self_type" : "_ZTIN7android18trait_trivial_ctorIdE6$valueE",
   "size" : 4,
   "source_file" : "/system/core/libutils/include/utils/TypeHelpers.h",
   "underlying_type" : "_ZTIj"
  },
  {
   "alignment" : 4,
   "enum_fields" :
   [
    {
     "enum_field_value" : 1,
     "name" : "android::trait_trivial_ctor<float>::value"
    }
   ],
   "linker_set_key" : "_ZTIN7android18trait_trivial_ctorIfE6$valueE",
   "name" : "android::trait_trivial_ctor<float>::(anonymous enum at system/core/libutils/include/utils/TypeHelpers.h:109:1)",
   "referenced_type" : "_ZTIN7android18trait_trivial_ctorIfE6$valueE",
   "self_type" : "_ZTIN7android18trait_trivial_ctorIfE6$valueE",
   "size" : 4,
   "source_file" : "/system/core/libutils/include/utils/TypeHelpers.h",
   "underlying_type" : "_ZTIj"
  },
  {
   "alignment" : 4,
   "enum_fields" :
   [
    {
     "enum_field_value" : 1,
     "name" : "android::trait_trivial_ctor<unsigned char>::value"
    }
   ],
   "linker_set_key" : "_ZTIN7android18trait_trivial_ctorIhE6$valueE",
   "name" : "android::trait_trivial_ctor<unsigned char>::(anonymous enum at system/core/libutils/include/utils/TypeHelpers.h:100:1)",
   "referenced_type" : "_ZTIN7android18trait_trivial_ctorIhE6$valueE",
   "self_type" : "_ZTIN7android18trait_trivial_ctorIhE6$valueE",
   "size" : 4,
   "source_file" : "/system/core/libutils/include/utils/TypeHelpers.h",
   "underlying_type" : "_ZTIj"
  },
  {
   "alignment" : 4,
   "enum_fields" :
   [
    {
     "enum_field_value" : 1,
     "name" : "android::trait_trivial_ctor<int>::value"
    }
   ],
   "linker_set_key" : "_ZTIN7android18trait_trivial_ctorIiE6$valueE",
   "name" : "android::trait_trivial_ctor<int>::(anonymous enum at system/core/libutils/include/utils/TypeHelpers.h:103:1)",
   "referenced_type" : "_ZTIN7android18trait_trivial_ctorIiE6$valueE",
   "self_type" : "_ZTIN7android18trait_trivial_ctorIiE6$valueE",
   "size" : 4,
   "source_file" : "/system/core/libutils/include/utils/TypeHelpers.h",
   "underlying_type" : "_ZTIj"
  },
  {
   "alignment" : 4,
   "enum_fields" :
   [
    {
     "enum_field_value" : 1,
     "name" : "android::trait_trivial_ctor<unsigned int>::value"
    }
   ],
   "linker_set_key" : "_ZTIN7android18trait_trivial_ctorIjE6$valueE",
   "name" : "android::trait_trivial_ctor<unsigned int>::(anonymous enum at system/core/libutils/include/utils/TypeHelpers.h:104:1)",
   "referenced_type" : "_ZTIN7android18trait_trivial_ctorIjE6$valueE",
   "self_type" : "_ZTIN7android18trait_trivial_ctorIjE6$valueE",
   "size" : 4,
   "source_file" : "/system/core/libutils/include/utils/TypeHelpers.h",
   "underlying_type" : "_ZTIj"
  },
  {
   "alignment" : 4,
   "enum_fields" :
   [
    {
     "enum_field_value" : 1,
     "name" : "android::trait_trivial_ctor<long>::value"
    }
   ],
   "linker_set_key" : "_ZTIN7android18trait_trivial_ctorIlE6$valueE",
   "name" : "android::trait_trivial_ctor<long>::(anonymous enum at system/core/libutils/include/utils/TypeHelpers.h:105:1)",
   "referenced_type" : "_ZTIN7android18trait_trivial_ctorIlE6$valueE",
   "self_type" : "_ZTIN7android18trait_trivial_ctorIlE6$valueE",
   "size" : 4,
   "source_file" : "/system/core/libutils/include/utils/TypeHelpers.h",
   "underlying_type" : "_ZTIj"
  },
  {
   "alignment" : 4,
   "enum_fields" :
   [
    {
     "enum_field_value" : 1,
     "name" : "android::trait_trivial_ctor<unsigned long>::value"
    }
   ],
   "linker_set_key" : "_ZTIN7android18trait_trivial_ctorImE6$valueE",
   "name" : "android::trait_trivial_ctor<unsigned long>::(anonymous enum at system/core/libutils/include/utils/TypeHelpers.h:106:1)",
   "referenced_type" : "_ZTIN7android18trait_trivial_ctorImE6$valueE",
   "self_type" : "_ZTIN7android18trait_trivial_ctorImE6$valueE",
   "size" : 4,
   "source_file" : "/system/core/libutils/include/utils/TypeHelpers.h",
   "underlying_type" : "_ZTIj"
  },
  {
   "alignment" : 4,
   "enum_fields" :
   [
    {
     "enum_field_value" : 1,
     "name" : "android::trait_trivial_ctor<short>::value"
    }
   ],
   "linker_set_key" : "_ZTIN7android18trait_trivial_ctorIsE6$valueE",
   "name" : "android::trait_trivial_ctor<short>::(anonymous enum at system/core/libutils/include/utils/TypeHelpers.h:101:1)",
   "referenced_type" : "_ZTIN7android18trait_trivial_ctorIsE6$valueE",
   "self_type" : "_ZTIN7android18trait_trivial_ctorIsE6$valueE",
   "size" : 4,
   "source_file" : "/system/core/libutils/include/utils/TypeHelpers.h",
   "underlying_type" : "_ZTIj"
  },
  {
   "alignment" : 4,
   "enum_fields" :
   [
    {
     "enum_field_value" : 1,
     "name" : "android::trait_trivial_ctor<unsigned short>::value"
    }
   ],
   "linker_set_key" : "_ZTIN7android18trait_trivial_ctorItE6$valueE",
   "name" : "android::trait_trivial_ctor<unsigned short>::(anonymous enum at system/core/libutils/include/utils/TypeHelpers.h:102:1)",
   "referenced_type" : "_ZTIN7android18trait_trivial_ctorItE6$valueE",
   "self_type" : "_ZTIN7android18trait_trivial_ctorItE6$valueE",
   "size" : 4,
   "source_file" : "/system/core/libutils/include/utils/TypeHelpers.h",
   "underlying_type" : "_ZTIj"
  },
  {
   "alignment" : 4,
   "enum_fields" :
   [
    {
     "enum_field_value" : 1,
     "name" : "android::trait_trivial_ctor<void>::value"
    }
   ],
   "linker_set_key" : "_ZTIN7android18trait_trivial_ctorIvE6$valueE",
   "name" : "android::trait_trivial_ctor<void>::(anonymous enum at system/core/libutils/include/utils/TypeHelpers.h:97:1)",
   "referenced_type" : "_ZTIN7android18trait_trivial_ctorIvE6$valueE",
   "self_type" : "_ZTIN7android18trait_trivial_ctorIvE6$valueE",
   "size" : 4,
   "source_file" : "/system/core/libutils/include/utils/TypeHelpers.h",
   "underlying_type" : "_ZTIj"
  },
  {
   "alignment" : 4,
   "enum_fields" :
   [
    {
     "enum_field_value" : 1,
     "name" : "android::trait_trivial_ctor<long long>::value"
    }
   ],
   "linker_set_key" : "_ZTIN7android18trait_trivial_ctorIxE6$valueE",
   "name" : "android::trait_trivial_ctor<long long>::(anonymous enum at system/core/libutils/include/utils/TypeHelpers.h:107:1)",
   "referenced_type" : "_ZTIN7android18trait_trivial_ctorIxE6$valueE",
   "self_type" : "_ZTIN7android18trait_trivial_ctorIxE6$valueE",
   "size" : 4,
   "source_file" : "/system/core/libutils/include/utils/TypeHelpers.h",
   "underlying_type" : "_ZTIj"
  },
  {
   "alignment" : 4,
   "enum_fields" :
   [
    {
     "enum_field_value" : 1,
     "name" : "android::trait_trivial_ctor<unsigned long long>::value"
    }
   ],
   "linker_set_key" : "_ZTIN7android18trait_trivial_ctorIyE6$valueE",
   "name" : "android::trait_trivial_ctor<unsigned long long>::(anonymous enum at system/core/libutils/include/utils/TypeHelpers.h:108:1)",
   "referenced_type" : "_ZTIN7android18trait_trivial_ctorIyE6$valueE",
   "self_type" : "_ZTIN7android18trait_trivial_ctorIyE6$valueE",
   "size" : 4,
   "source_file" : "/system/core/libutils/include/utils/TypeHelpers.h",
   "underlying_type" : "_ZTIj"
  },
  {
   "alignment" : 4,
   "enum_fields" :
   [
    {
     "enum_field_value" : 1,
     "name" : "android::trait_trivial_dtor<bool>::value"
    }
   ],
   "linker_set_key" : "_ZTIN7android18trait_trivial_dtorIbE6$valueE",
   "name" : "android::trait_trivial_dtor<bool>::(anonymous enum at system/core/libutils/include/utils/TypeHelpers.h:98:1)",
   "referenced_type" : "_ZTIN7android18trait_trivial_dtorIbE6$valueE",
   "self_type" : "_ZTIN7android18trait_trivial_dtorIbE6$valueE",
   "size" : 4,
   "source_file" : "/system/core/libutils/include/utils/TypeHelpers.h",
   "underlying_type" : "_ZTIj"
  },
  {
   "alignment" : 4,
   "enum_fields" :
   [
    {
     "enum_field_value" : 1,
     "name" : "android::trait_trivial_dtor<char>::value"
    }
   ],
   "linker_set_key" : "_ZTIN7android18trait_trivial_dtorIcE6$valueE",
   "name" : "android::trait_trivial_dtor<char>::(anonymous enum at system/core/libutils/include/utils/TypeHelpers.h:99:1)",
   "referenced_type" : "_ZTIN7android18trait_trivial_dtorIcE6$valueE",
   "self_type" : "_ZTIN7android18trait_trivial_dtorIcE6$valueE",
   "size" : 4,
   "source_file" : "/system/core/libutils/include/utils/TypeHelpers.h",
   "underlying_type" : "_ZTIj"
  },
  {
   "alignment" : 4,
   "enum_fields" :
   [
    {
     "enum_field_value" : 1,
     "name" : "android::trait_trivial_dtor<double>::value"
    }
   ],
   "linker_set_key" : "_ZTIN7android18trait_trivial_dtorIdE6$valueE",
   "name" : "android::trait_trivial_dtor<double>::(anonymous enum at system/core/libutils/include/utils/TypeHelpers.h:110:1)",
   "referenced_type" : "_ZTIN7android18trait_trivial_dtorIdE6$valueE",
   "self_type" : "_ZTIN7android18trait_trivial_dtorIdE6$valueE",
   "size" : 4,
   "source_file" : "/system/core/libutils/include/utils/TypeHelpers.h",
   "underlying_type" : "_ZTIj"
  },
  {
   "alignment" : 4,
   "enum_fields" :
   [
    {
     "enum_field_value" : 1,
     "name" : "android::trait_trivial_dtor<float>::value"
    }
   ],
   "linker_set_key" : "_ZTIN7android18trait_trivial_dtorIfE6$valueE",
   "name" : "android::trait_trivial_dtor<float>::(anonymous enum at system/core/libutils/include/utils/TypeHelpers.h:109:1)",
   "referenced_type" : "_ZTIN7android18trait_trivial_dtorIfE6$valueE",
   "self_type" : "_ZTIN7android18trait_trivial_dtorIfE6$valueE",
   "size" : 4,
   "source_file" : "/system/core/libutils/include/utils/TypeHelpers.h",
   "underlying_type" : "_ZTIj"
  },
  {
   "alignment" : 4,
   "enum_fields" :
   [
    {
     "enum_field_value" : 1,
     "name" : "android::trait_trivial_dtor<unsigned char>::value"
    }
   ],
   "linker_set_key" : "_ZTIN7android18trait_trivial_dtorIhE6$valueE",
   "name" : "android::trait_trivial_dtor<unsigned char>::(anonymous enum at system/core/libutils/include/utils/TypeHelpers.h:100:1)",
   "referenced_type" : "_ZTIN7android18trait_trivial_dtorIhE6$valueE",
   "self_type" : "_ZTIN7android18trait_trivial_dtorIhE6$valueE",
   "size" : 4,
   "source_file" : "/system/core/libutils/include/utils/TypeHelpers.h",
   "underlying_type" : "_ZTIj"
  },
  {
   "alignment" : 4,
   "enum_fields" :
   [
    {
     "enum_field_value" : 1,
     "name" : "android::trait_trivial_dtor<int>::value"
    }
   ],
   "linker_set_key" : "_ZTIN7android18trait_trivial_dtorIiE6$valueE",
   "name" : "android::trait_trivial_dtor<int>::(anonymous enum at system/core/libutils/include/utils/TypeHelpers.h:103:1)",
   "referenced_type" : "_ZTIN7android18trait_trivial_dtorIiE6$valueE",
   "self_type" : "_ZTIN7android18trait_trivial_dtorIiE6$valueE",
   "size" : 4,
   "source_file" : "/system/core/libutils/include/utils/TypeHelpers.h",
   "underlying_type" : "_ZTIj"
  },
  {
   "alignment" : 4,
   "enum_fields" :
   [
    {
     "enum_field_value" : 1,
     "name" : "android::trait_trivial_dtor<unsigned int>::value"
    }
   ],
   "linker_set_key" : "_ZTIN7android18trait_trivial_dtorIjE6$valueE",
   "name" : "android::trait_trivial_dtor<unsigned int>::(anonymous enum at system/core/libutils/include/utils/TypeHelpers.h:104:1)",
   "referenced_type" : "_ZTIN7android18trait_trivial_dtorIjE6$valueE",
   "self_type" : "_ZTIN7android18trait_trivial_dtorIjE6$valueE",
   "size" : 4,
   "source_file" : "/system/core/libutils/include/utils/TypeHelpers.h",
   "underlying_type" : "_ZTIj"
  },
  {
   "alignment" : 4,
   "enum_fields" :
   [
    {
     "enum_field_value" : 1,
     "name" : "android::trait_trivial_dtor<long>::value"
    }
   ],
   "linker_set_key" : "_ZTIN7android18trait_trivial_dtorIlE6$valueE",
   "name" : "android::trait_trivial_dtor<long>::(anonymous enum at system/core/libutils/include/utils/TypeHelpers.h:105:1)",
   "referenced_type" : "_ZTIN7android18trait_trivial_dtorIlE6$valueE",
   "self_type" : "_ZTIN7android18trait_trivial_dtorIlE6$valueE",
   "size" : 4,
   "source_file" : "/system/core/libutils/include/utils/TypeHelpers.h",
   "underlying_type" : "_ZTIj"
  },
  {
   "alignment" : 4,
   "enum_fields" :
   [
    {
     "enum_field_value" : 1,
     "name" : "android::trait_trivial_dtor<unsigned long>::value"
    }
   ],
   "linker_set_key" : "_ZTIN7android18trait_trivial_dtorImE6$valueE",
   "name" : "android::trait_trivial_dtor<unsigned long>::(anonymous enum at system/core/libutils/include/utils/TypeHelpers.h:106:1)",
   "referenced_type" : "_ZTIN7android18trait_trivial_dtorImE6$valueE",
   "self_type" : "_ZTIN7android18trait_trivial_dtorImE6$valueE",
   "size" : 4,
   "source_file" : "/system/core/libutils/include/utils/TypeHelpers.h",
   "underlying_type" : "_ZTIj"
  },
  {
   "alignment" : 4,
   "enum_fields" :
   [
    {
     "enum_field_value" : 1,
     "name" : "android::trait_trivial_dtor<short>::value"
    }
   ],
   "linker_set_key" : "_ZTIN7android18trait_trivial_dtorIsE6$valueE",
   "name" : "android::trait_trivial_dtor<short>::(anonymous enum at system/core/libutils/include/utils/TypeHelpers.h:101:1)",
   "referenced_type" : "_ZTIN7android18trait_trivial_dtorIsE6$valueE",
   "self_type" : "_ZTIN7android18trait_trivial_dtorIsE6$valueE",
   "size" : 4,
   "source_file" : "/system/core/libutils/include/utils/TypeHelpers.h",
   "underlying_type" : "_ZTIj"
  },
  {
   "alignment" : 4,
   "enum_fields" :
   [
    {
     "enum_field_value" : 1,
     "name" : "android::trait_trivial_dtor<unsigned short>::value"
    }
   ],
   "linker_set_key" : "_ZTIN7android18trait_trivial_dtorItE6$valueE",
   "name" : "android::trait_trivial_dtor<unsigned short>::(anonymous enum at system/core/libutils/include/utils/TypeHelpers.h:102:1)",
   "referenced_type" : "_ZTIN7android18trait_trivial_dtorItE6$valueE",
   "self_type" : "_ZTIN7android18trait_trivial_dtorItE6$valueE",
   "size" : 4,
   "source_file" : "/system/core/libutils/include/utils/TypeHelpers.h",
   "underlying_type" : "_ZTIj"
  },
  {
   "alignment" : 4,
   "enum_fields" :
   [
    {
     "enum_field_value" : 1,
     "name" : "android::trait_trivial_dtor<void>::value"
    }
   ],
   "linker_set_key" : "_ZTIN7android18trait_trivial_dtorIvE6$valueE",
   "name" : "android::trait_trivial_dtor<void>::(anonymous enum at system/core/libutils/include/utils/TypeHelpers.h:97:1)",
   "referenced_type" : "_ZTIN7android18trait_trivial_dtorIvE6$valueE",
   "self_type" : "_ZTIN7android18trait_trivial_dtorIvE6$valueE",
   "size" : 4,
   "source_file" : "/system/core/libutils/include/utils/TypeHelpers.h",
   "underlying_type" : "_ZTIj"
  },
  {
   "alignment" : 4,
   "enum_fields" :
   [
    {
     "enum_field_value" : 1,
     "name" : "android::trait_trivial_dtor<long long>::value"
    }
   ],
   "linker_set_key" : "_ZTIN7android18trait_trivial_dtorIxE6$valueE",
   "name" : "android::trait_trivial_dtor<long long>::(anonymous enum at system/core/libutils/include/utils/TypeHelpers.h:107:1)",
   "referenced_type" : "_ZTIN7android18trait_trivial_dtorIxE6$valueE",
   "self_type" : "_ZTIN7android18trait_trivial_dtorIxE6$valueE",
   "size" : 4,
   "source_file" : "/system/core/libutils/include/utils/TypeHelpers.h",
   "underlying_type" : "_ZTIj"
  },
  {
   "alignment" : 4,
   "enum_fields" :
   [
    {
     "enum_field_value" : 1,
     "name" : "android::trait_trivial_dtor<unsigned long long>::value"
    }
   ],
   "linker_set_key" : "_ZTIN7android18trait_trivial_dtorIyE6$valueE",
   "name" : "android::trait_trivial_dtor<unsigned long long>::(anonymous enum at system/core/libutils/include/utils/TypeHelpers.h:108:1)",
   "referenced_type" : "_ZTIN7android18trait_trivial_dtorIyE6$valueE",
   "self_type" : "_ZTIN7android18trait_trivial_dtorIyE6$valueE",
   "size" : 4,
   "source_file" : "/system/core/libutils/include/utils/TypeHelpers.h",
   "underlying_type" : "_ZTIj"
  },
  {
   "alignment" : 4,
   "enum_fields" :
   [
    {
     "enum_field_value" : 1,
     "name" : "android::trait_trivial_move<android::String8>::value"
    }
   ],
   "linker_set_key" : "_ZTIN7android18trait_trivial_moveINS_7String8EE6$valueE",
   "name" : "android::trait_trivial_move<String8>::(anonymous enum at system/core/libutils/include/utils/String8.h:242:1)",
   "referenced_type" : "_ZTIN7android18trait_trivial_moveINS_7String8EE6$valueE",
   "self_type" : "_ZTIN7android18trait_trivial_moveINS_7String8EE6$valueE",
   "size" : 4,
   "source_file" : "/system/core/libutils/include/utils/String8.h",
   "underlying_type" : "_ZTIj"
  },
  {
   "alignment" : 4,
   "enum_fields" :
   [
    {
     "enum_field_value" : 1,
     "name" : "android::trait_trivial_move<android::String16>::value"
    }
   ],
   "linker_set_key" : "_ZTIN7android18trait_trivial_moveINS_8String16EE6$valueE",
   "name" : "android::trait_trivial_move<String16>::(anonymous enum at system/core/libutils/include/utils/String16.h:197:1)",
   "referenced_type" : "_ZTIN7android18trait_trivial_moveINS_8String16EE6$valueE",
   "self_type" : "_ZTIN7android18trait_trivial_moveINS_8String16EE6$valueE",
   "size" : 4,
   "source_file" : "/system/core/libutils/include/utils/String16.h",
   "underlying_type" : "_ZTIj"
  },
  {
   "alignment" : 4,
   "enum_fields" :
   [
    {
     "enum_field_value" : 1,
     "name" : "android::trait_trivial_move<bool>::value"
    }
   ],
   "linker_set_key" : "_ZTIN7android18trait_trivial_moveIbE6$valueE",
   "name" : "android::trait_trivial_move<bool>::(anonymous enum at system/core/libutils/include/utils/TypeHelpers.h:98:1)",
   "referenced_type" : "_ZTIN7android18trait_trivial_moveIbE6$valueE",
   "self_type" : "_ZTIN7android18trait_trivial_moveIbE6$valueE",
   "size" : 4,
   "source_file" : "/system/core/libutils/include/utils/TypeHelpers.h",
   "underlying_type" : "_ZTIj"
  },
  {
   "alignment" : 4,
   "enum_fields" :
   [
    {
     "enum_field_value" : 1,
     "name" : "android::trait_trivial_move<char>::value"
    }
   ],
   "linker_set_key" : "_ZTIN7android18trait_trivial_moveIcE6$valueE",
   "name" : "android::trait_trivial_move<char>::(anonymous enum at system/core/libutils/include/utils/TypeHelpers.h:99:1)",
   "referenced_type" : "_ZTIN7android18trait_trivial_moveIcE6$valueE",
   "self_type" : "_ZTIN7android18trait_trivial_moveIcE6$valueE",
   "size" : 4,
   "source_file" : "/system/core/libutils/include/utils/TypeHelpers.h",
   "underlying_type" : "_ZTIj"
  },
  {
   "alignment" : 4,
   "enum_fields" :
   [
    {
     "enum_field_value" : 1,
     "name" : "android::trait_trivial_move<double>::value"
    }
   ],
   "linker_set_key" : "_ZTIN7android18trait_trivial_moveIdE6$valueE",
   "name" : "android::trait_trivial_move<double>::(anonymous enum at system/core/libutils/include/utils/TypeHelpers.h:110:1)",
   "referenced_type" : "_ZTIN7android18trait_trivial_moveIdE6$valueE",
   "self_type" : "_ZTIN7android18trait_trivial_moveIdE6$valueE",
   "size" : 4,
   "source_file" : "/system/core/libutils/include/utils/TypeHelpers.h",
   "underlying_type" : "_ZTIj"
  },
  {
   "alignment" : 4,
   "enum_fields" :
   [
    {
     "enum_field_value" : 1,
     "name" : "android::trait_trivial_move<float>::value"
    }
   ],
   "linker_set_key" : "_ZTIN7android18trait_trivial_moveIfE6$valueE",
   "name" : "android::trait_trivial_move<float>::(anonymous enum at system/core/libutils/include/utils/TypeHelpers.h:109:1)",
   "referenced_type" : "_ZTIN7android18trait_trivial_moveIfE6$valueE",
   "self_type" : "_ZTIN7android18trait_trivial_moveIfE6$valueE",
   "size" : 4,
   "source_file" : "/system/core/libutils/include/utils/TypeHelpers.h",
   "underlying_type" : "_ZTIj"
  },
  {
   "alignment" : 4,
   "enum_fields" :
   [
    {
     "enum_field_value" : 1,
     "name" : "android::trait_trivial_move<unsigned char>::value"
    }
   ],
   "linker_set_key" : "_ZTIN7android18trait_trivial_moveIhE6$valueE",
   "name" : "android::trait_trivial_move<unsigned char>::(anonymous enum at system/core/libutils/include/utils/TypeHelpers.h:100:1)",
   "referenced_type" : "_ZTIN7android18trait_trivial_moveIhE6$valueE",
   "self_type" : "_ZTIN7android18trait_trivial_moveIhE6$valueE",
   "size" : 4,
   "source_file" : "/system/core/libutils/include/utils/TypeHelpers.h",
   "underlying_type" : "_ZTIj"
  },
  {
   "alignment" : 4,
   "enum_fields" :
   [
    {
     "enum_field_value" : 1,
     "name" : "android::trait_trivial_move<int>::value"
    }
   ],
   "linker_set_key" : "_ZTIN7android18trait_trivial_moveIiE6$valueE",
   "name" : "android::trait_trivial_move<int>::(anonymous enum at system/core/libutils/include/utils/TypeHelpers.h:103:1)",
   "referenced_type" : "_ZTIN7android18trait_trivial_moveIiE6$valueE",
   "self_type" : "_ZTIN7android18trait_trivial_moveIiE6$valueE",
   "size" : 4,
   "source_file" : "/system/core/libutils/include/utils/TypeHelpers.h",
   "underlying_type" : "_ZTIj"
  },
  {
   "alignment" : 4,
   "enum_fields" :
   [
    {
     "enum_field_value" : 1,
     "name" : "android::trait_trivial_move<unsigned int>::value"
    }
   ],
   "linker_set_key" : "_ZTIN7android18trait_trivial_moveIjE6$valueE",
   "name" : "android::trait_trivial_move<unsigned int>::(anonymous enum at system/core/libutils/include/utils/TypeHelpers.h:104:1)",
   "referenced_type" : "_ZTIN7android18trait_trivial_moveIjE6$valueE",
   "self_type" : "_ZTIN7android18trait_trivial_moveIjE6$valueE",
   "size" : 4,
   "source_file" : "/system/core/libutils/include/utils/TypeHelpers.h",
   "underlying_type" : "_ZTIj"
  },
  {
   "alignment" : 4,
   "enum_fields" :
   [
    {
     "enum_field_value" : 1,
     "name" : "android::trait_trivial_move<long>::value"
    }
   ],
   "linker_set_key" : "_ZTIN7android18trait_trivial_moveIlE6$valueE",
   "name" : "android::trait_trivial_move<long>::(anonymous enum at system/core/libutils/include/utils/TypeHelpers.h:105:1)",
   "referenced_type" : "_ZTIN7android18trait_trivial_moveIlE6$valueE",
   "self_type" : "_ZTIN7android18trait_trivial_moveIlE6$valueE",
   "size" : 4,
   "source_file" : "/system/core/libutils/include/utils/TypeHelpers.h",
   "underlying_type" : "_ZTIj"
  },
  {
   "alignment" : 4,
   "enum_fields" :
   [
    {
     "enum_field_value" : 1,
     "name" : "android::trait_trivial_move<unsigned long>::value"
    }
   ],
   "linker_set_key" : "_ZTIN7android18trait_trivial_moveImE6$valueE",
   "name" : "android::trait_trivial_move<unsigned long>::(anonymous enum at system/core/libutils/include/utils/TypeHelpers.h:106:1)",
   "referenced_type" : "_ZTIN7android18trait_trivial_moveImE6$valueE",
   "self_type" : "_ZTIN7android18trait_trivial_moveImE6$valueE",
   "size" : 4,
   "source_file" : "/system/core/libutils/include/utils/TypeHelpers.h",
   "underlying_type" : "_ZTIj"
  },
  {
   "alignment" : 4,
   "enum_fields" :
   [
    {
     "enum_field_value" : 1,
     "name" : "android::trait_trivial_move<short>::value"
    }
   ],
   "linker_set_key" : "_ZTIN7android18trait_trivial_moveIsE6$valueE",
   "name" : "android::trait_trivial_move<short>::(anonymous enum at system/core/libutils/include/utils/TypeHelpers.h:101:1)",
   "referenced_type" : "_ZTIN7android18trait_trivial_moveIsE6$valueE",
   "self_type" : "_ZTIN7android18trait_trivial_moveIsE6$valueE",
   "size" : 4,
   "source_file" : "/system/core/libutils/include/utils/TypeHelpers.h",
   "underlying_type" : "_ZTIj"
  },
  {
   "alignment" : 4,
   "enum_fields" :
   [
    {
     "enum_field_value" : 1,
     "name" : "android::trait_trivial_move<unsigned short>::value"
    }
   ],
   "linker_set_key" : "_ZTIN7android18trait_trivial_moveItE6$valueE",
   "name" : "android::trait_trivial_move<unsigned short>::(anonymous enum at system/core/libutils/include/utils/TypeHelpers.h:102:1)",
   "referenced_type" : "_ZTIN7android18trait_trivial_moveItE6$valueE",
   "self_type" : "_ZTIN7android18trait_trivial_moveItE6$valueE",
   "size" : 4,
   "source_file" : "/system/core/libutils/include/utils/TypeHelpers.h",
   "underlying_type" : "_ZTIj"
  },
  {
   "alignment" : 4,
   "enum_fields" :
   [
    {
     "enum_field_value" : 1,
     "name" : "android::trait_trivial_move<void>::value"
    }
   ],
   "linker_set_key" : "_ZTIN7android18trait_trivial_moveIvE6$valueE",
   "name" : "android::trait_trivial_move<void>::(anonymous enum at system/core/libutils/include/utils/TypeHelpers.h:97:1)",
   "referenced_type" : "_ZTIN7android18trait_trivial_moveIvE6$valueE",
   "self_type" : "_ZTIN7android18trait_trivial_moveIvE6$valueE",
   "size" : 4,
   "source_file" : "/system/core/libutils/include/utils/TypeHelpers.h",
   "underlying_type" : "_ZTIj"
  },
  {
   "alignment" : 4,
   "enum_fields" :
   [
    {
     "enum_field_value" : 1,
     "name" : "android::trait_trivial_move<long long>::value"
    }
   ],
   "linker_set_key" : "_ZTIN7android18trait_trivial_moveIxE6$valueE",
   "name" : "android::trait_trivial_move<long long>::(anonymous enum at system/core/libutils/include/utils/TypeHelpers.h:107:1)",
   "referenced_type" : "_ZTIN7android18trait_trivial_moveIxE6$valueE",
   "self_type" : "_ZTIN7android18trait_trivial_moveIxE6$valueE",
   "size" : 4,
   "source_file" : "/system/core/libutils/include/utils/TypeHelpers.h",
   "underlying_type" : "_ZTIj"
  },
  {
   "alignment" : 4,
   "enum_fields" :
   [
    {
     "enum_field_value" : 1,
     "name" : "android::trait_trivial_move<unsigned long long>::value"
    }
   ],
   "linker_set_key" : "_ZTIN7android18trait_trivial_moveIyE6$valueE",
   "name" : "android::trait_trivial_move<unsigned long long>::(anonymous enum at system/core/libutils/include/utils/TypeHelpers.h:108:1)",
   "referenced_type" : "_ZTIN7android18trait_trivial_moveIyE6$valueE",
   "self_type" : "_ZTIN7android18trait_trivial_moveIyE6$valueE",
   "size" : 4,
   "source_file" : "/system/core/libutils/include/utils/TypeHelpers.h",
   "underlying_type" : "_ZTIj"
  },
  {
   "alignment" : 4,
   "enum_fields" :
   [
    {
     "enum_field_value" : 0,
     "name" : "android::hidl::base::V1_0::DebugInfo::Architecture::UNKNOWN"
    },
    {
     "enum_field_value" : 1,
     "name" : "android::hidl::base::V1_0::DebugInfo::Architecture::IS_64BIT"
    },
    {
     "enum_field_value" : 2,
     "name" : "android::hidl::base::V1_0::DebugInfo::Architecture::IS_32BIT"
    }
   ],
   "linker_set_key" : "_ZTIN7android4hidl4base4V1_09DebugInfo12ArchitectureE",
   "name" : "android::hidl::base::V1_0::DebugInfo::Architecture",
   "referenced_type" : "_ZTIN7android4hidl4base4V1_09DebugInfo12ArchitectureE",
   "self_type" : "_ZTIN7android4hidl4base4V1_09DebugInfo12ArchitectureE",
   "size" : 4,
   "source_file" : "/out/soong/.intermediates/system/libhidl/transport/base/1.0/android.hidl.base@1.0_genc++_headers/gen/android/hidl/base/1.0/types.h",
   "underlying_type" : "_ZTIi"
  },
  {
   "access" : "protected",
   "alignment" : 4,
   "enum_fields" :
   [
    {
     "enum_field_value" : 1,
     "name" : "android::RefBase::FIRST_INC_STRONG"
    }
   ],
   "linker_set_key" : "_ZTIN7android7RefBase17$FIRST_INC_STRONGE",
   "name" : "android::RefBase::(anonymous enum at system/core/libutils/include/utils/RefBase.h:313:5)",
   "referenced_type" : "_ZTIN7android7RefBase17$FIRST_INC_STRONGE",
   "self_type" : "_ZTIN7android7RefBase17$FIRST_INC_STRONGE",
   "size" : 4,
   "source_file" : "/system/core/libutils/include/utils/RefBase.h",
   "underlying_type" : "_ZTIj"
  },
  {
   "access" : "protected",
   "alignment" : 4,
   "enum_fields" :
   [
    {
     "enum_field_value" : 0,
     "name" : "android::RefBase::OBJECT_LIFETIME_STRONG"
    },
    {
     "enum_field_value" : 1,
     "name" : "android::RefBase::OBJECT_LIFETIME_WEAK"
    },
    {
     "enum_field_value" : 1,
     "name" : "android::RefBase::OBJECT_LIFETIME_MASK"
    }
   ],
   "linker_set_key" : "_ZTIN7android7RefBase21$OBJECT_LIFETIME_MASKE",
   "name" : "android::RefBase::(anonymous enum at system/core/libutils/include/utils/RefBase.h:304:5)",
   "referenced_type" : "_ZTIN7android7RefBase21$OBJECT_LIFETIME_MASKE",
   "self_type" : "_ZTIN7android7RefBase21$OBJECT_LIFETIME_MASKE",
   "size" : 4,
   "source_file" : "/system/core/libutils/include/utils/RefBase.h",
   "underlying_type" : "_ZTIj"
  },
  {
   "alignment" : 4,
   "enum_fields" :
   [
    {
     "enum_field_value" : 0,
     "name" : "android::String8::kEmptyString"
    }
   ],
   "linker_set_key" : "_ZTIN7android7String813StaticLinkageE",
   "name" : "android::String8::StaticLinkage",
   "referenced_type" : "_ZTIN7android7String813StaticLinkageE",
   "self_type" : "_ZTIN7android7String813StaticLinkageE",
   "size" : 4,
   "source_file" : "/system/core/libutils/include/utils/String8.h",
   "underlying_type" : "_ZTIj"
  },
  {
   "alignment" : 4,
   "enum_fields" :
   [
    {
     "enum_field_value" : 0,
     "name" : "android::String16::kEmptyString"
    }
   ],
   "linker_set_key" : "_ZTIN7android8String1613StaticLinkageE",
   "name" : "android::String16::StaticLinkage",
   "referenced_type" : "_ZTIN7android8String1613StaticLinkageE",
   "self_type" : "_ZTIN7android8String1613StaticLinkageE",
   "size" : 4,
   "source_file" : "/system/core/libutils/include/utils/String16.h",
   "underlying_type" : "_ZTIj"
  },
  {
   "alignment" : 4,
   "enum_fields" :
   [
    {
     "enum_field_value" : 0,
     "name" : "android::hardware::MQDescriptor<android::hardware::media::bufferpool::V2_0::BufferStatusMessage, android::hardware::kSynchronizedReadWrite>::READPTRPOS"
    },
    {
     "enum_field_value" : 1,
     "name" : "android::hardware::MQDescriptor<android::hardware::media::bufferpool::V2_0::BufferStatusMessage, android::hardware::kSynchronizedReadWrite>::WRITEPTRPOS"
    },
    {
     "enum_field_value" : 2,
     "name" : "android::hardware::MQDescriptor<android::hardware::media::bufferpool::V2_0::BufferStatusMessage, android::hardware::kSynchronizedReadWrite>::DATAPTRPOS"
    },
    {
     "enum_field_value" : 3,
     "name" : "android::hardware::MQDescriptor<android::hardware::media::bufferpool::V2_0::BufferStatusMessage, android::hardware::kSynchronizedReadWrite>::EVFLAGWORDPOS"
    }
   ],
   "linker_set_key" : "_ZTIN7android8hardware12MQDescriptorINS0_5media10bufferpool4V2_019BufferStatusMessageELNS0_8MQFlavorE1EE11GrantorTypeE",
   "name" : "android::hardware::MQDescriptor<BufferStatusMessage, android::hardware::kSynchronizedReadWrite>::GrantorType",
   "referenced_type" : "_ZTIN7android8hardware12MQDescriptorINS0_5media10bufferpool4V2_019BufferStatusMessageELNS0_8MQFlavorE1EE11GrantorTypeE",
   "self_type" : "_ZTIN7android8hardware12MQDescriptorINS0_5media10bufferpool4V2_019BufferStatusMessageELNS0_8MQFlavorE1EE11GrantorTypeE",
   "size" : 4,
   "source_file" : "/system/libhidl/base/include/hidl/MQDescriptor.h",
   "underlying_type" : "_ZTIi"
  },
  {
   "alignment" : 4,
   "enum_fields" :
   [
    {
     "enum_field_value" : 0,
     "name" : "android::hardware::MQDescriptor<android::hardware::media::bufferpool::V2_0::BufferInvalidationMessage, android::hardware::kUnsynchronizedWrite>::READPTRPOS"
    },
    {
     "enum_field_value" : 1,
     "name" : "android::hardware::MQDescriptor<android::hardware::media::bufferpool::V2_0::BufferInvalidationMessage, android::hardware::kUnsynchronizedWrite>::WRITEPTRPOS"
    },
    {
     "enum_field_value" : 2,
     "name" : "android::hardware::MQDescriptor<android::hardware::media::bufferpool::V2_0::BufferInvalidationMessage, android::hardware::kUnsynchronizedWrite>::DATAPTRPOS"
    },
    {
     "enum_field_value" : 3,
     "name" : "android::hardware::MQDescriptor<android::hardware::media::bufferpool::V2_0::BufferInvalidationMessage, android::hardware::kUnsynchronizedWrite>::EVFLAGWORDPOS"
    }
   ],
   "linker_set_key" : "_ZTIN7android8hardware12MQDescriptorINS0_5media10bufferpool4V2_025BufferInvalidationMessageELNS0_8MQFlavorE2EE11GrantorTypeE",
   "name" : "android::hardware::MQDescriptor<BufferInvalidationMessage, android::hardware::kUnsynchronizedWrite>::GrantorType",
   "referenced_type" : "_ZTIN7android8hardware12MQDescriptorINS0_5media10bufferpool4V2_025BufferInvalidationMessageELNS0_8MQFlavorE2EE11GrantorTypeE",
   "self_type" : "_ZTIN7android8hardware12MQDescriptorINS0_5media10bufferpool4V2_025BufferInvalidationMessageELNS0_8MQFlavorE2EE11GrantorTypeE",
   "size" : 4,
   "source_file" : "/system/libhidl/base/include/hidl/MQDescriptor.h",
   "underlying_type" : "_ZTIi"
  },
  {
   "access" : "private",
   "alignment" : 4,
   "enum_fields" :
   [
    {
     "enum_field_value" : 1,
     "name" : "android::hardware::MessageQueue<android::hardware::media::bufferpool::V2_0::BufferStatusMessage, android::hardware::kSynchronizedReadWrite>::FMQ_NOT_FULL"
    },
    {
     "enum_field_value" : 2,
     "name" : "android::hardware::MessageQueue<android::hardware::media::bufferpool::V2_0::BufferStatusMessage, android::hardware::kSynchronizedReadWrite>::FMQ_NOT_EMPTY"
    }
   ],
   "linker_set_key" : "_ZTIN7android8hardware12MessageQueueINS0_5media10bufferpool4V2_019BufferStatusMessageELNS0_8MQFlavorE1EE24DefaultEventNotificationE",
   "name" : "android::hardware::MessageQueue<BufferStatusMessage, android::hardware::kSynchronizedReadWrite>::DefaultEventNotification",
   "referenced_type" : "_ZTIN7android8hardware12MessageQueueINS0_5media10bufferpool4V2_019BufferStatusMessageELNS0_8MQFlavorE1EE24DefaultEventNotificationE",
   "self_type" : "_ZTIN7android8hardware12MessageQueueINS0_5media10bufferpool4V2_019BufferStatusMessageELNS0_8MQFlavorE1EE24DefaultEventNotificationE",
   "size" : 4,
   "source_file" : "/system/libfmq/include/fmq/MessageQueue.h",
   "underlying_type" : "_ZTIj"
  },
  {
   "access" : "private",
   "alignment" : 4,
   "enum_fields" :
   [
    {
     "enum_field_value" : 1,
     "name" : "android::hardware::MessageQueue<android::hardware::media::bufferpool::V2_0::BufferInvalidationMessage, android::hardware::kUnsynchronizedWrite>::FMQ_NOT_FULL"
    },
    {
     "enum_field_value" : 2,
     "name" : "android::hardware::MessageQueue<android::hardware::media::bufferpool::V2_0::BufferInvalidationMessage, android::hardware::kUnsynchronizedWrite>::FMQ_NOT_EMPTY"
    }
   ],
   "linker_set_key" : "_ZTIN7android8hardware12MessageQueueINS0_5media10bufferpool4V2_025BufferInvalidationMessageELNS0_8MQFlavorE2EE24DefaultEventNotificationE",
   "name" : "android::hardware::MessageQueue<BufferInvalidationMessage, android::hardware::kUnsynchronizedWrite>::DefaultEventNotification",
   "referenced_type" : "_ZTIN7android8hardware12MessageQueueINS0_5media10bufferpool4V2_025BufferInvalidationMessageELNS0_8MQFlavorE2EE24DefaultEventNotificationE",
   "self_type" : "_ZTIN7android8hardware12MessageQueueINS0_5media10bufferpool4V2_025BufferInvalidationMessageELNS0_8MQFlavorE2EE24DefaultEventNotificationE",
   "size" : 4,
   "source_file" : "/system/libfmq/include/fmq/MessageQueue.h",
   "underlying_type" : "_ZTIj"
  },
  {
   "alignment" : 4,
   "enum_fields" :
   [
    {
     "enum_field_value" : 0,
     "name" : "android::hardware::HidlReturnRestriction::NONE"
    },
    {
     "enum_field_value" : 1,
     "name" : "android::hardware::HidlReturnRestriction::ERROR_IF_UNCHECKED"
    },
    {
     "enum_field_value" : 2,
     "name" : "android::hardware::HidlReturnRestriction::FATAL_IF_UNCHECKED"
    }
   ],
   "linker_set_key" : "_ZTIN7android8hardware21HidlReturnRestrictionE",
   "name" : "android::hardware::HidlReturnRestriction",
   "referenced_type" : "_ZTIN7android8hardware21HidlReturnRestrictionE",
   "self_type" : "_ZTIN7android8hardware21HidlReturnRestrictionE",
   "size" : 4,
   "source_file" : "/system/libhidl/base/include/hidl/Status.h",
   "underlying_type" : "_ZTIi"
  },
  {
   "alignment" : 4,
   "enum_fields" :
   [
    {
     "enum_field_value" : 0,
     "name" : "android::hardware::media::bufferpool::V2_0::BufferStatus::NOT_USED"
    },
    {
     "enum_field_value" : 1,
     "name" : "android::hardware::media::bufferpool::V2_0::BufferStatus::USED"
    },
    {
     "enum_field_value" : 2,
     "name" : "android::hardware::media::bufferpool::V2_0::BufferStatus::TRANSFER_TO"
    },
    {
     "enum_field_value" : 3,
     "name" : "android::hardware::media::bufferpool::V2_0::BufferStatus::TRANSFER_FROM"
    },
    {
     "enum_field_value" : 4,
     "name" : "android::hardware::media::bufferpool::V2_0::BufferStatus::TRANSFER_TIMEOUT"
    },
    {
     "enum_field_value" : 5,
     "name" : "android::hardware::media::bufferpool::V2_0::BufferStatus::TRANSFER_LOST"
    },
    {
     "enum_field_value" : 6,
     "name" : "android::hardware::media::bufferpool::V2_0::BufferStatus::TRANSFER_FETCH"
    },
    {
     "enum_field_value" : 7,
     "name" : "android::hardware::media::bufferpool::V2_0::BufferStatus::TRANSFER_OK"
    },
    {
     "enum_field_value" : 8,
     "name" : "android::hardware::media::bufferpool::V2_0::BufferStatus::TRANSFER_ERROR"
    },
    {
     "enum_field_value" : 9,
     "name" : "android::hardware::media::bufferpool::V2_0::BufferStatus::INVALIDATION_ACK"
    }
   ],
   "linker_set_key" : "_ZTIN7android8hardware5media10bufferpool4V2_012BufferStatusE",
   "name" : "android::hardware::media::bufferpool::V2_0::BufferStatus",
   "referenced_type" : "_ZTIN7android8hardware5media10bufferpool4V2_012BufferStatusE",
   "self_type" : "_ZTIN7android8hardware5media10bufferpool4V2_012BufferStatusE",
   "size" : 4,
   "source_file" : "/out/soong/.intermediates/hardware/interfaces/media/bufferpool/2.0/android.hardware.media.bufferpool@2.0_genc++_headers/gen/android/hardware/media/bufferpool/2.0/types.h",
   "underlying_type" : "_ZTIi"
  },
  {
   "alignment" : 4,
   "enum_fields" :
   [
    {
     "enum_field_value" : 0,
     "name" : "android::hardware::media::bufferpool::V2_0::ResultStatus::OK"
    },
    {
     "enum_field_value" : 1,
     "name" : "android::hardware::media::bufferpool::V2_0::ResultStatus::NO_MEMORY"
    },
    {
     "enum_field_value" : 2,
     "name" : "android::hardware::media::bufferpool::V2_0::ResultStatus::ALREADY_EXISTS"
    },
    {
     "enum_field_value" : 3,
     "name" : "android::hardware::media::bufferpool::V2_0::ResultStatus::NOT_FOUND"
    },
    {
     "enum_field_value" : 4,
     "name" : "android::hardware::media::bufferpool::V2_0::ResultStatus::CRITICAL_ERROR"
    }
   ],
   "linker_set_key" : "_ZTIN7android8hardware5media10bufferpool4V2_012ResultStatusE",
   "name" : "android::hardware::media::bufferpool::V2_0::ResultStatus",
   "referenced_type" : "_ZTIN7android8hardware5media10bufferpool4V2_012ResultStatusE",
   "self_type" : "_ZTIN7android8hardware5media10bufferpool4V2_012ResultStatusE",
   "size" : 4,
   "source_file" : "/out/soong/.intermediates/hardware/interfaces/media/bufferpool/2.0/android.hardware.media.bufferpool@2.0_genc++_headers/gen/android/hardware/media/bufferpool/2.0/types.h",
   "underlying_type" : "_ZTIi"
  },
  {
   "alignment" : 8,
   "enum_fields" :
   [
    {
     "enum_field_value" : 0,
     "name" : "android::hardware::media::bufferpool::V2_0::implementation::INVALID_CONNECTIONID"
    }
   ],
   "linker_set_key" : "_ZTIN7android8hardware5media10bufferpool4V2_014implementation21$INVALID_CONNECTIONIDE",
   "name" : "android::hardware::media::bufferpool::V2_0::implementation::(anonymous enum at frameworks/av/media/bufferpool/2.0/include/bufferpool/BufferPoolTypes.h:57:1)",
   "referenced_type" : "_ZTIN7android8hardware5media10bufferpool4V2_014implementation21$INVALID_CONNECTIONIDE",
   "self_type" : "_ZTIN7android8hardware5media10bufferpool4V2_014implementation21$INVALID_CONNECTIONIDE",
   "size" : 8,
   "source_file" : "/frameworks/av/media/bufferpool/2.0/include/bufferpool/BufferPoolTypes.h",
   "underlying_type" : "_ZTIl"
  },
  {
   "alignment" : 4,
   "enum_fields" :
   [
    {
     "enum_field_value" : 0,
     "name" : "android::hardware::Status::EX_NONE"
    },
    {
     "enum_field_value" : -1,
     "name" : "android::hardware::Status::EX_SECURITY"
    },
    {
     "enum_field_value" : -2,
     "name" : "android::hardware::Status::EX_BAD_PARCELABLE"
    },
    {
     "enum_field_value" : -3,
     "name" : "android::hardware::Status::EX_ILLEGAL_ARGUMENT"
    },
    {
     "enum_field_value" : -4,
     "name" : "android::hardware::Status::EX_NULL_POINTER"
    },
    {
     "enum_field_value" : -5,
     "name" : "android::hardware::Status::EX_ILLEGAL_STATE"
    },
    {
     "enum_field_value" : -6,
     "name" : "android::hardware::Status::EX_NETWORK_MAIN_THREAD"
    },
    {
     "enum_field_value" : -7,
     "name" : "android::hardware::Status::EX_UNSUPPORTED_OPERATION"
    },
    {
     "enum_field_value" : -128,
     "name" : "android::hardware::Status::EX_HAS_REPLY_HEADER"
    },
    {
     "enum_field_value" : -129,
     "name" : "android::hardware::Status::EX_TRANSACTION_FAILED"
    }
   ],
   "linker_set_key" : "_ZTIN7android8hardware6Status9ExceptionE",
   "name" : "android::hardware::Status::Exception",
   "referenced_type" : "_ZTIN7android8hardware6Status9ExceptionE",
   "self_type" : "_ZTIN7android8hardware6Status9ExceptionE",
   "size" : 4,
   "source_file" : "/system/libhidl/base/include/hidl/Status.h",
   "underlying_type" : "_ZTIi"
  },
  {
   "alignment" : 4,
   "enum_fields" :
   [
    {
     "enum_field_value" : 1,
     "name" : "android::hardware::IBinder::FLAG_ONEWAY"
    }
   ],
   "linker_set_key" : "_ZTIN7android8hardware7IBinder12$FLAG_ONEWAYE",
   "name" : "android::hardware::IBinder::(anonymous enum at system/libhwbinder/include/hwbinder/IBinder.h:47:5)",
   "referenced_type" : "_ZTIN7android8hardware7IBinder12$FLAG_ONEWAYE",
   "self_type" : "_ZTIN7android8hardware7IBinder12$FLAG_ONEWAYE",
   "size" : 4,
   "source_file" : "/system/libhwbinder/include/hwbinder/IBinder.h",
   "underlying_type" : "_ZTIj"
  },
  {
   "alignment" : 4,
   "enum_fields" :
   [
    {
     "enum_field_value" : 0,
     "name" : "android::hardware::details::HidlInstrumentor::SERVER_API_ENTRY"
    },
    {
     "enum_field_value" : 1,
     "name" : "android::hardware::details::HidlInstrumentor::SERVER_API_EXIT"
    },
    {
     "enum_field_value" : 2,
     "name" : "android::hardware::details::HidlInstrumentor::CLIENT_API_ENTRY"
    },
    {
     "enum_field_value" : 3,
     "name" : "android::hardware::details::HidlInstrumentor::CLIENT_API_EXIT"
    },
    {
     "enum_field_value" : 4,
     "name" : "android::hardware::details::HidlInstrumentor::SYNC_CALLBACK_ENTRY"
    },
    {
     "enum_field_value" : 5,
     "name" : "android::hardware::details::HidlInstrumentor::SYNC_CALLBACK_EXIT"
    },
    {
     "enum_field_value" : 6,
     "name" : "android::hardware::details::HidlInstrumentor::ASYNC_CALLBACK_ENTRY"
    },
    {
     "enum_field_value" : 7,
     "name" : "android::hardware::details::HidlInstrumentor::ASYNC_CALLBACK_EXIT"
    },
    {
     "enum_field_value" : 8,
     "name" : "android::hardware::details::HidlInstrumentor::PASSTHROUGH_ENTRY"
    },
    {
     "enum_field_value" : 9,
     "name" : "android::hardware::details::HidlInstrumentor::PASSTHROUGH_EXIT"
    }
   ],
   "linker_set_key" : "_ZTIN7android8hardware7details16HidlInstrumentor20InstrumentationEventE",
   "name" : "android::hardware::details::HidlInstrumentor::InstrumentationEvent",
   "referenced_type" : "_ZTIN7android8hardware7details16HidlInstrumentor20InstrumentationEventE",
   "self_type" : "_ZTIN7android8hardware7details16HidlInstrumentor20InstrumentationEventE",
   "size" : 4,
   "source_file" : "/system/libhidl/base/include/hidl/HidlInternal.h",
   "underlying_type" : "_ZTIj"
  },
  {
   "alignment" : 4,
   "enum_fields" :
   [
    {
     "enum_field_value" : 1,
     "name" : "android::hardware::kSynchronizedReadWrite"
    },
    {
     "enum_field_value" : 2,
     "name" : "android::hardware::kUnsynchronizedWrite"
    }
   ],
   "linker_set_key" : "_ZTIN7android8hardware8MQFlavorE",
   "name" : "android::hardware::MQFlavor",
   "referenced_type" : "_ZTIN7android8hardware8MQFlavorE",
   "self_type" : "_ZTIN7android8hardware8MQFlavorE",
   "size" : 4,
   "source_file" : "/system/libhidl/base/include/hidl/MQDescriptor.h",
   "underlying_type" : "_ZTIj"
  }
 ],
 "function_types" :
 [
  {
   "alignment" : 4,
   "linker_set_key" : "_ZTIFvPN7android8hardware6ParcelEPKhmPKymPvE",
   "name" : "void (android::hardware::Parcel *, const unsigned char *, unsigned long, const unsigned long long *, unsigned long, void *)",
   "parameters" :
   [
    {
     "referenced_type" : "_ZTIPN7android8hardware6ParcelE"
    },
    {
     "referenced_type" : "_ZTIPKh"
    },
    {
     "referenced_type" : "_ZTIm"
    },
    {
     "referenced_type" : "_ZTIPKy"
    },
    {
     "referenced_type" : "_ZTIm"
    },
    {
     "referenced_type" : "_ZTIPv"
    }
   ],
   "referenced_type" : "_ZTIFvPN7android8hardware6ParcelEPKhmPKymPvE",
   "return_type" : "_ZTIv",
   "self_type" : "_ZTIFvPN7android8hardware6ParcelEPKhmPKymPvE",
   "source_file" : "/system/libhwbinder/include/hwbinder/Parcel.h"
  }
 ],
 "functions" :
 [
  {
   "function_name" : "android::sp<android::hardware::media::bufferpool::V2_0::implementation::ClientManager>::~sp",
   "linker_set_key" : "_ZN7android2spINS_8hardware5media10bufferpool4V2_014implementation13ClientManagerEED2Ev",
   "parameters" :
   [
    {
     "is_this_ptr" : true,
     "referenced_type" : "_ZTIPN7android2spINS_8hardware5media10bufferpool4V2_014implementation13ClientManagerEEE"
    }
   ],
   "return_type" : "_ZTIv",
   "source_file" : "/system/core/libutils/include/utils/StrongPointer.h"
  },
  {
   "function_name" : "android::sp<android::hardware::media::bufferpool::V2_0::implementation::ConnectionDeathRecipient>::~sp",
   "linker_set_key" : "_ZN7android2spINS_8hardware5media10bufferpool4V2_014implementation24ConnectionDeathRecipientEED2Ev",
   "parameters" :
   [
    {
     "is_this_ptr" : true,
     "referenced_type" : "_ZTIPN7android2spINS_8hardware5media10bufferpool4V2_014implementation24ConnectionDeathRecipientEEE"
    }
   ],
   "return_type" : "_ZTIv",
   "source_file" : "/system/core/libutils/include/utils/StrongPointer.h"
  },
  {
   "function_name" : "android::hardware::MQDescriptor<android::hardware::media::bufferpool::V2_0::BufferStatusMessage, android::hardware::kSynchronizedReadWrite>::MQDescriptor",
   "linker_set_key" : "_ZN7android8hardware12MQDescriptorINS0_5media10bufferpool4V2_019BufferStatusMessageELNS0_8MQFlavorE1EEC2ERKNSt3__16vectorINS0_17GrantorDescriptorENS8_9allocatorISA_EEEEP13native_handlem",
   "parameters" :
   [
    {
     "is_this_ptr" : true,
     "referenced_type" : "_ZTIPN7android8hardware12MQDescriptorINS0_5media10bufferpool4V2_019BufferStatusMessageELNS0_8MQFlavorE1EEE"
    },
    {
     "referenced_type" : "_ZTIRKNSt3__16vectorIN7android8hardware17GrantorDescriptorENS_9allocatorIS3_EEEE"
    },
    {
     "referenced_type" : "_ZTIP13native_handle"
    },
    {
     "referenced_type" : "_ZTIm"
    }
   ],
   "return_type" : "_ZTIv",
   "source_file" : "/system/libhidl/base/include/hidl/MQDescriptor.h"
  },
  {
   "function_name" : "android::hardware::MQDescriptor<android::hardware::media::bufferpool::V2_0::BufferStatusMessage, android::hardware::kSynchronizedReadWrite>::MQDescriptor",
   "linker_set_key" : "_ZN7android8hardware12MQDescriptorINS0_5media10bufferpool4V2_019BufferStatusMessageELNS0_8MQFlavorE1EEC2EmP13native_handlemb",
   "parameters" :
   [
    {
     "is_this_ptr" : true,
     "referenced_type" : "_ZTIPN7android8hardware12MQDescriptorINS0_5media10bufferpool4V2_019BufferStatusMessageELNS0_8MQFlavorE1EEE"
    },
    {
     "referenced_type" : "_ZTIm"
    },
    {
     "referenced_type" : "_ZTIP13native_handle"
    },
    {
     "referenced_type" : "_ZTIm"
    },
    {
     "default_arg" : true,
     "referenced_type" : "_ZTIb"
    }
   ],
   "return_type" : "_ZTIv",
   "source_file" : "/system/libhidl/base/include/hidl/MQDescriptor.h"
  },
  {
   "function_name" : "android::hardware::MQDescriptor<android::hardware::media::bufferpool::V2_0::BufferStatusMessage, android::hardware::kSynchronizedReadWrite>::operator=",
   "linker_set_key" : "_ZN7android8hardware12MQDescriptorINS0_5media10bufferpool4V2_019BufferStatusMessageELNS0_8MQFlavorE1EEaSERKS7_",
   "parameters" :
   [
    {
     "is_this_ptr" : true,
     "referenced_type" : "_ZTIPN7android8hardware12MQDescriptorINS0_5media10bufferpool4V2_019BufferStatusMessageELNS0_8MQFlavorE1EEE"
    },
    {
     "referenced_type" : "_ZTIRKN7android8hardware12MQDescriptorINS0_5media10bufferpool4V2_019BufferStatusMessageELNS0_8MQFlavorE1EEE"
    }
   ],
   "return_type" : "_ZTIRN7android8hardware12MQDescriptorINS0_5media10bufferpool4V2_019BufferStatusMessageELNS0_8MQFlavorE1EEE",
   "source_file" : "/system/libhidl/base/include/hidl/MQDescriptor.h"
  },
  {
   "function_name" : "android::hardware::MQDescriptor<android::hardware::media::bufferpool::V2_0::BufferInvalidationMessage, android::hardware::kUnsynchronizedWrite>::MQDescriptor",
   "linker_set_key" : "_ZN7android8hardware12MQDescriptorINS0_5media10bufferpool4V2_025BufferInvalidationMessageELNS0_8MQFlavorE2EEC2ERKNSt3__16vectorINS0_17GrantorDescriptorENS8_9allocatorISA_EEEEP13native_handlem",
   "parameters" :
   [
    {
     "is_this_ptr" : true,
     "referenced_type" : "_ZTIPN7android8hardware12MQDescriptorINS0_5media10bufferpool4V2_025BufferInvalidationMessageELNS0_8MQFlavorE2EEE"
    },
    {
     "referenced_type" : "_ZTIRKNSt3__16vectorIN7android8hardware17GrantorDescriptorENS_9allocatorIS3_EEEE"
    },
    {
     "referenced_type" : "_ZTIP13native_handle"
    },
    {
     "referenced_type" : "_ZTIm"
    }
   ],
   "return_type" : "_ZTIv",
   "source_file" : "/system/libhidl/base/include/hidl/MQDescriptor.h"
  },
  {
   "function_name" : "android::hardware::MQDescriptor<android::hardware::media::bufferpool::V2_0::BufferInvalidationMessage, android::hardware::kUnsynchronizedWrite>::MQDescriptor",
   "linker_set_key" : "_ZN7android8hardware12MQDescriptorINS0_5media10bufferpool4V2_025BufferInvalidationMessageELNS0_8MQFlavorE2EEC2EmP13native_handlemb",
   "parameters" :
   [
    {
     "is_this_ptr" : true,
     "referenced_type" : "_ZTIPN7android8hardware12MQDescriptorINS0_5media10bufferpool4V2_025BufferInvalidationMessageELNS0_8MQFlavorE2EEE"
    },
    {
     "referenced_type" : "_ZTIm"
    },
    {
     "referenced_type" : "_ZTIP13native_handle"
    },
    {
     "referenced_type" : "_ZTIm"
    },
    {
     "default_arg" : true,
     "referenced_type" : "_ZTIb"
    }
   ],
   "return_type" : "_ZTIv",
   "source_file" : "/system/libhidl/base/include/hidl/MQDescriptor.h"
  },
  {
   "function_name" : "android::hardware::MQDescriptor<android::hardware::media::bufferpool::V2_0::BufferInvalidationMessage, android::hardware::kUnsynchronizedWrite>::operator=",
   "linker_set_key" : "_ZN7android8hardware12MQDescriptorINS0_5media10bufferpool4V2_025BufferInvalidationMessageELNS0_8MQFlavorE2EEaSERKS7_",
   "parameters" :
   [
    {
     "is_this_ptr" : true,
     "referenced_type" : "_ZTIPN7android8hardware12MQDescriptorINS0_5media10bufferpool4V2_025BufferInvalidationMessageELNS0_8MQFlavorE2EEE"
    },
    {
     "referenced_type" : "_ZTIRKN7android8hardware12MQDescriptorINS0_5media10bufferpool4V2_025BufferInvalidationMessageELNS0_8MQFlavorE2EEE"
    }
   ],
   "return_type" : "_ZTIRN7android8hardware12MQDescriptorINS0_5media10bufferpool4V2_025BufferInvalidationMessageELNS0_8MQFlavorE2EEE",
   "source_file" : "/system/libhidl/base/include/hidl/MQDescriptor.h"
  },
  {
   "access" : "private",
   "function_name" : "android::hardware::MessageQueue<android::hardware::media::bufferpool::V2_0::BufferStatusMessage, android::hardware::kSynchronizedReadWrite>::initMemory",
   "linker_set_key" : "_ZN7android8hardware12MessageQueueINS0_5media10bufferpool4V2_019BufferStatusMessageELNS0_8MQFlavorE1EE10initMemoryEb",
   "parameters" :
   [
    {
     "is_this_ptr" : true,
     "referenced_type" : "_ZTIPN7android8hardware12MessageQueueINS0_5media10bufferpool4V2_019BufferStatusMessageELNS0_8MQFlavorE1EEE"
    },
    {
     "referenced_type" : "_ZTIb"
    }
   ],
   "return_type" : "_ZTIv",
   "source_file" : "/system/libfmq/include/fmq/MessageQueue.h"
  },
  {
   "access" : "private",
   "function_name" : "android::hardware::MessageQueue<android::hardware::media::bufferpool::V2_0::BufferStatusMessage, android::hardware::kSynchronizedReadWrite>::mapGrantorDescr",
   "linker_set_key" : "_ZN7android8hardware12MessageQueueINS0_5media10bufferpool4V2_019BufferStatusMessageELNS0_8MQFlavorE1EE15mapGrantorDescrEj",
   "parameters" :
   [
    {
     "is_this_ptr" : true,
     "referenced_type" : "_ZTIPN7android8hardware12MessageQueueINS0_5media10bufferpool4V2_019BufferStatusMessageELNS0_8MQFlavorE1EEE"
    },
    {
     "referenced_type" : "_ZTIj"
    }
   ],
   "return_type" : "_ZTIPv",
   "source_file" : "/system/libfmq/include/fmq/MessageQueue.h"
  },
  {
   "function_name" : "android::hardware::MessageQueue<android::hardware::media::bufferpool::V2_0::BufferStatusMessage, android::hardware::kSynchronizedReadWrite>::read",
   "linker_set_key" : "_ZN7android8hardware12MessageQueueINS0_5media10bufferpool4V2_019BufferStatusMessageELNS0_8MQFlavorE1EE4readEPS5_m",
   "parameters" :
   [
    {
     "is_this_ptr" : true,
     "referenced_type" : "_ZTIPN7android8hardware12MessageQueueINS0_5media10bufferpool4V2_019BufferStatusMessageELNS0_8MQFlavorE1EEE"
    },
    {
     "referenced_type" : "_ZTIPN7android8hardware5media10bufferpool4V2_019BufferStatusMessageE"
    },
    {
     "referenced_type" : "_ZTIm"
    }
   ],
   "return_type" : "_ZTIb",
   "source_file" : "/system/libfmq/include/fmq/MessageQueue.h"
  },
  {
   "function_name" : "android::hardware::MessageQueue<android::hardware::media::bufferpool::V2_0::BufferStatusMessage, android::hardware::kSynchronizedReadWrite>::write",
   "linker_set_key" : "_ZN7android8hardware12MessageQueueINS0_5media10bufferpool4V2_019BufferStatusMessageELNS0_8MQFlavorE1EE5writeEPKS5_m",
   "parameters" :
   [
    {
     "is_this_ptr" : true,
     "referenced_type" : "_ZTIPN7android8hardware12MessageQueueINS0_5media10bufferpool4V2_019BufferStatusMessageELNS0_8MQFlavorE1EEE"
    },
    {
     "referenced_type" : "_ZTIPKN7android8hardware5media10bufferpool4V2_019BufferStatusMessageE"
    },
    {
     "referenced_type" : "_ZTIm"
    }
   ],
   "return_type" : "_ZTIb",
   "source_file" : "/system/libfmq/include/fmq/MessageQueue.h"
  },
  {
   "function_name" : "android::hardware::MessageQueue<android::hardware::media::bufferpool::V2_0::BufferStatusMessage, android::hardware::kSynchronizedReadWrite>::MessageQueue",
   "linker_set_key" : "_ZN7android8hardware12MessageQueueINS0_5media10bufferpool4V2_019BufferStatusMessageELNS0_8MQFlavorE1EEC2ERKNS0_12MQDescriptorIS5_LS6_1EEEb",
   "parameters" :
   [
    {
     "is_this_ptr" : true,
     "referenced_type" : "_ZTIPN7android8hardware12MessageQueueINS0_5media10bufferpool4V2_019BufferStatusMessageELNS0_8MQFlavorE1EEE"
    },
    {
     "referenced_type" : "_ZTIRKN7android8hardware12MQDescriptorINS0_5media10bufferpool4V2_019BufferStatusMessageELNS0_8MQFlavorE1EEE"
    },
    {
     "default_arg" : true,
     "referenced_type" : "_ZTIb"
    }
   ],
   "return_type" : "_ZTIv",
   "source_file" : "/system/libfmq/include/fmq/MessageQueue.h"
  },
  {
   "function_name" : "android::hardware::MessageQueue<android::hardware::media::bufferpool::V2_0::BufferStatusMessage, android::hardware::kSynchronizedReadWrite>::MessageQueue",
   "linker_set_key" : "_ZN7android8hardware12MessageQueueINS0_5media10bufferpool4V2_019BufferStatusMessageELNS0_8MQFlavorE1EEC2Emb",
   "parameters" :
   [
    {
     "is_this_ptr" : true,
     "referenced_type" : "_ZTIPN7android8hardware12MessageQueueINS0_5media10bufferpool4V2_019BufferStatusMessageELNS0_8MQFlavorE1EEE"
    },
    {
     "referenced_type" : "_ZTIm"
    },
    {
     "default_arg" : true,
     "referenced_type" : "_ZTIb"
    }
   ],
   "return_type" : "_ZTIv",
   "source_file" : "/system/libfmq/include/fmq/MessageQueue.h"
  },
  {
   "function_name" : "android::hardware::MessageQueue<android::hardware::media::bufferpool::V2_0::BufferStatusMessage, android::hardware::kSynchronizedReadWrite>::~MessageQueue",
   "linker_set_key" : "_ZN7android8hardware12MessageQueueINS0_5media10bufferpool4V2_019BufferStatusMessageELNS0_8MQFlavorE1EED2Ev",
   "parameters" :
   [
    {
     "is_this_ptr" : true,
     "referenced_type" : "_ZTIPN7android8hardware12MessageQueueINS0_5media10bufferpool4V2_019BufferStatusMessageELNS0_8MQFlavorE1EEE"
    }
   ],
   "return_type" : "_ZTIv",
   "source_file" : "/system/libfmq/include/fmq/MessageQueue.h"
  },
  {
   "access" : "private",
   "function_name" : "android::hardware::MessageQueue<android::hardware::media::bufferpool::V2_0::BufferInvalidationMessage, android::hardware::kUnsynchronizedWrite>::initMemory",
   "linker_set_key" : "_ZN7android8hardware12MessageQueueINS0_5media10bufferpool4V2_025BufferInvalidationMessageELNS0_8MQFlavorE2EE10initMemoryEb",
   "parameters" :
   [
    {
     "is_this_ptr" : true,
     "referenced_type" : "_ZTIPN7android8hardware12MessageQueueINS0_5media10bufferpool4V2_025BufferInvalidationMessageELNS0_8MQFlavorE2EEE"
    },
    {
     "referenced_type" : "_ZTIb"
    }
   ],
   "return_type" : "_ZTIv",
   "source_file" : "/system/libfmq/include/fmq/MessageQueue.h"
  },
  {
   "access" : "private",
   "function_name" : "android::hardware::MessageQueue<android::hardware::media::bufferpool::V2_0::BufferInvalidationMessage, android::hardware::kUnsynchronizedWrite>::mapGrantorDescr",
   "linker_set_key" : "_ZN7android8hardware12MessageQueueINS0_5media10bufferpool4V2_025BufferInvalidationMessageELNS0_8MQFlavorE2EE15mapGrantorDescrEj",
   "parameters" :
   [
    {
     "is_this_ptr" : true,
     "referenced_type" : "_ZTIPN7android8hardware12MessageQueueINS0_5media10bufferpool4V2_025BufferInvalidationMessageELNS0_8MQFlavorE2EEE"
    },
    {
     "referenced_type" : "_ZTIj"
    }
   ],
   "return_type" : "_ZTIPv",
   "source_file" : "/system/libfmq/include/fmq/MessageQueue.h"
  },
  {
   "function_name" : "android::hardware::MessageQueue<android::hardware::media::bufferpool::V2_0::BufferInvalidationMessage, android::hardware::kUnsynchronizedWrite>::read",
   "linker_set_key" : "_ZN7android8hardware12MessageQueueINS0_5media10bufferpool4V2_025BufferInvalidationMessageELNS0_8MQFlavorE2EE4readEPS5_m",
   "parameters" :
   [
    {
     "is_this_ptr" : true,
     "referenced_type" : "_ZTIPN7android8hardware12MessageQueueINS0_5media10bufferpool4V2_025BufferInvalidationMessageELNS0_8MQFlavorE2EEE"
    },
    {
     "referenced_type" : "_ZTIPN7android8hardware5media10bufferpool4V2_025BufferInvalidationMessageE"
    },
    {
     "referenced_type" : "_ZTIm"
    }
   ],
   "return_type" : "_ZTIb",
   "source_file" : "/system/libfmq/include/fmq/MessageQueue.h"
  },
  {
   "function_name" : "android::hardware::MessageQueue<android::hardware::media::bufferpool::V2_0::BufferInvalidationMessage, android::hardware::kUnsynchronizedWrite>::write",
   "linker_set_key" : "_ZN7android8hardware12MessageQueueINS0_5media10bufferpool4V2_025BufferInvalidationMessageELNS0_8MQFlavorE2EE5writeEPKS5_m",
   "parameters" :
   [
    {
     "is_this_ptr" : true,
     "referenced_type" : "_ZTIPN7android8hardware12MessageQueueINS0_5media10bufferpool4V2_025BufferInvalidationMessageELNS0_8MQFlavorE2EEE"
    },
    {
     "referenced_type" : "_ZTIPKN7android8hardware5media10bufferpool4V2_025BufferInvalidationMessageE"
    },
    {
     "referenced_type" : "_ZTIm"
    }
   ],
   "return_type" : "_ZTIb",
   "source_file" : "/system/libfmq/include/fmq/MessageQueue.h"
  },
  {
   "function_name" : "android::hardware::MessageQueue<android::hardware::media::bufferpool::V2_0::BufferInvalidationMessage, android::hardware::kUnsynchronizedWrite>::MessageQueue",
   "linker_set_key" : "_ZN7android8hardware12MessageQueueINS0_5media10bufferpool4V2_025BufferInvalidationMessageELNS0_8MQFlavorE2EEC2ERKNS0_12MQDescriptorIS5_LS6_2EEEb",
   "parameters" :
   [
    {
     "is_this_ptr" : true,
     "referenced_type" : "_ZTIPN7android8hardware12MessageQueueINS0_5media10bufferpool4V2_025BufferInvalidationMessageELNS0_8MQFlavorE2EEE"
    },
    {
     "referenced_type" : "_ZTIRKN7android8hardware12MQDescriptorINS0_5media10bufferpool4V2_025BufferInvalidationMessageELNS0_8MQFlavorE2EEE"
    },
    {
     "default_arg" : true,
     "referenced_type" : "_ZTIb"
    }
   ],
   "return_type" : "_ZTIv",
   "source_file" : "/system/libfmq/include/fmq/MessageQueue.h"
  },
  {
   "function_name" : "android::hardware::MessageQueue<android::hardware::media::bufferpool::V2_0::BufferInvalidationMessage, android::hardware::kUnsynchronizedWrite>::MessageQueue",
   "linker_set_key" : "_ZN7android8hardware12MessageQueueINS0_5media10bufferpool4V2_025BufferInvalidationMessageELNS0_8MQFlavorE2EEC2Emb",
   "parameters" :
   [
    {
     "is_this_ptr" : true,
     "referenced_type" : "_ZTIPN7android8hardware12MessageQueueINS0_5media10bufferpool4V2_025BufferInvalidationMessageELNS0_8MQFlavorE2EEE"
    },
    {
     "referenced_type" : "_ZTIm"
    },
    {
     "default_arg" : true,
     "referenced_type" : "_ZTIb"
    }
   ],
   "return_type" : "_ZTIv",
   "source_file" : "/system/libfmq/include/fmq/MessageQueue.h"
  },
  {
   "function_name" : "android::hardware::MessageQueue<android::hardware::media::bufferpool::V2_0::BufferInvalidationMessage, android::hardware::kUnsynchronizedWrite>::~MessageQueue",
   "linker_set_key" : "_ZN7android8hardware12MessageQueueINS0_5media10bufferpool4V2_025BufferInvalidationMessageELNS0_8MQFlavorE2EED2Ev",
   "parameters" :
   [
    {
     "is_this_ptr" : true,
     "referenced_type" : "_ZTIPN7android8hardware12MessageQueueINS0_5media10bufferpool4V2_025BufferInvalidationMessageELNS0_8MQFlavorE2EEE"
    }
   ],
   "return_type" : "_ZTIv",
   "source_file" : "/system/libfmq/include/fmq/MessageQueue.h"
  },
  {
   "function_name" : "android::hardware::media::bufferpool::V2_0::implementation::ClientManager::getInstance",
   "linker_set_key" : "_ZN7android8hardware5media10bufferpool4V2_014implementation13ClientManager11getInstanceEv",
   "return_type" : "_ZTIN7android2spINS_8hardware5media10bufferpool4V2_014implementation13ClientManagerEEE",
   "source_file" : "/frameworks/av/media/bufferpool/2.0/include/bufferpool/ClientManager.h"
  },
  {
   "function_name" : "android::hardware::media::bufferpool::V2_0::implementation::ClientManager::registerSender",
   "linker_set_key" : "_ZN7android8hardware5media10bufferpool4V2_014implementation13ClientManager14registerSenderERKNS_2spINS3_14IClientManagerEEElPl",
   "parameters" :
   [
    {
     "is_this_ptr" : true,
     "referenced_type" : "_ZTIPN7android8hardware5media10bufferpool4V2_014implementation13ClientManagerE"
    },
    {
     "referenced_type" : "_ZTIRKN7android2spINS_8hardware5media10bufferpool4V2_014IClientManagerEEE"
    },
    {
     "referenced_type" : "_ZTIl"
    },
    {
     "referenced_type" : "_ZTIPl"
    }
   ],
   "return_type" : "_ZTIN7android8hardware5media10bufferpool4V2_012ResultStatusE",
   "source_file" : "/frameworks/av/media/bufferpool/2.0/include/bufferpool/ClientManager.h"
  },
  {
   "function_name" : "android::hardware::media::bufferpool::V2_0::implementation::ClientManager::registerSender",
   "linker_set_key" : "_ZN7android8hardware5media10bufferpool4V2_014implementation13ClientManager14registerSenderERKNS_2spINS3_9IAccessorEEENSt3__18functionIFvNS3_12ResultStatusElEEE",
   "parameters" :
   [
    {
     "is_this_ptr" : true,
     "referenced_type" : "_ZTIPN7android8hardware5media10bufferpool4V2_014implementation13ClientManagerE"
    },
    {
     "referenced_type" : "_ZTIRKN7android2spINS_8hardware5media10bufferpool4V2_09IAccessorEEE"
    },
    {
     "referenced_type" : "_ZTINSt3__18functionIFvN7android8hardware5media10bufferpool4V2_012ResultStatusElEEE"
    }
   ],
   "return_type" : "_ZTIN7android8hardware6ReturnIvEE",
   "source_file" : "/frameworks/av/media/bufferpool/2.0/include/bufferpool/ClientManager.h"
  },
  {
   "function_name" : "android::hardware::media::bufferpool::V2_0::implementation::ClientManager::close",
   "linker_set_key" : "_ZN7android8hardware5media10bufferpool4V2_014implementation13ClientManager5closeEl",
   "parameters" :
   [
    {
     "is_this_ptr" : true,
     "referenced_type" : "_ZTIPN7android8hardware5media10bufferpool4V2_014implementation13ClientManagerE"
    },
    {
     "referenced_type" : "_ZTIl"
    }
   ],
   "return_type" : "_ZTIN7android8hardware5media10bufferpool4V2_012ResultStatusE",
   "source_file" : "/frameworks/av/media/bufferpool/2.0/include/bufferpool/ClientManager.h"
  },
  {
   "function_name" : "android::hardware::media::bufferpool::V2_0::implementation::ClientManager::flush",
   "linker_set_key" : "_ZN7android8hardware5media10bufferpool4V2_014implementation13ClientManager5flushEl",
   "parameters" :
   [
    {
     "is_this_ptr" : true,
     "referenced_type" : "_ZTIPN7android8hardware5media10bufferpool4V2_014implementation13ClientManagerE"
    },
    {
     "referenced_type" : "_ZTIl"
    }
   ],
   "return_type" : "_ZTIN7android8hardware5media10bufferpool4V2_012ResultStatusE",
   "source_file" : "/frameworks/av/media/bufferpool/2.0/include/bufferpool/ClientManager.h"
  },
  {
   "function_name" : "android::hardware::media::bufferpool::V2_0::implementation::ClientManager::create",
   "linker_set_key" : "_ZN7android8hardware5media10bufferpool4V2_014implementation13ClientManager6createERKNSt3__110shared_ptrINS4_19BufferPoolAllocatorEEEPl",
   "parameters" :
   [
    {
     "is_this_ptr" : true,
     "referenced_type" : "_ZTIPN7android8hardware5media10bufferpool4V2_014implementation13ClientManagerE"
    },
    {
     "referenced_type" : "_ZTIRKNSt3__110shared_ptrIN7android8hardware5media10bufferpool4V2_014implementation19BufferPoolAllocatorEEE"
    },
    {
     "referenced_type" : "_ZTIPl"
    }
   ],
   "return_type" : "_ZTIN7android8hardware5media10bufferpool4V2_012ResultStatusE",
   "source_file" : "/frameworks/av/media/bufferpool/2.0/include/bufferpool/ClientManager.h"
  },
  {
   "function_name" : "android::hardware::media::bufferpool::V2_0::implementation::ClientManager::cleanUp",
   "linker_set_key" : "_ZN7android8hardware5media10bufferpool4V2_014implementation13ClientManager7cleanUpEv",
   "parameters" :
   [
    {
     "is_this_ptr" : true,
     "referenced_type" : "_ZTIPN7android8hardware5media10bufferpool4V2_014implementation13ClientManagerE"
    }
   ],
   "return_type" : "_ZTIv",
   "source_file" : "/frameworks/av/media/bufferpool/2.0/include/bufferpool/ClientManager.h"
  },
  {
   "function_name" : "android::hardware::media::bufferpool::V2_0::implementation::ClientManager::receive",
   "linker_set_key" : "_ZN7android8hardware5media10bufferpool4V2_014implementation13ClientManager7receiveElmjlPP13native_handlePNSt3__110shared_ptrINS2_14BufferPoolDataEEE",
   "parameters" :
   [
    {
     "is_this_ptr" : true,
     "referenced_type" : "_ZTIPN7android8hardware5media10bufferpool4V2_014implementation13ClientManagerE"
    },
    {
     "referenced_type" : "_ZTIl"
    },
    {
     "referenced_type" : "_ZTIm"
    },
    {
     "referenced_type" : "_ZTIj"
    },
    {
     "referenced_type" : "_ZTIl"
    },
    {
     "referenced_type" : "_ZTIPP13native_handle"
    },
    {
     "referenced_type" : "_ZTIPNSt3__110shared_ptrIN7android8hardware5media10bufferpool14BufferPoolDataEEE"
    }
   ],
   "return_type" : "_ZTIN7android8hardware5media10bufferpool4V2_012ResultStatusE",
   "source_file" : "/frameworks/av/media/bufferpool/2.0/include/bufferpool/ClientManager.h"
  },
  {
   "function_name" : "android::hardware::media::bufferpool::V2_0::implementation::ClientManager::allocate",
   "linker_set_key" : "_ZN7android8hardware5media10bufferpool4V2_014implementation13ClientManager8allocateElRKNSt3__16vectorIhNS6_9allocatorIhEEEEPP13native_handlePNS6_10shared_ptrINS2_14BufferPoolDataEEE",
   "parameters" :
   [
    {
     "is_this_ptr" : true,
     "referenced_type" : "_ZTIPN7android8hardware5media10bufferpool4V2_014implementation13ClientManagerE"
    },
    {
     "referenced_type" : "_ZTIl"
    },
    {
     "referenced_type" : "_ZTIRKNSt3__16vectorIhNS_9allocatorIhEEEE"
    },
    {
     "referenced_type" : "_ZTIPP13native_handle"
    },
    {
     "referenced_type" : "_ZTIPNSt3__110shared_ptrIN7android8hardware5media10bufferpool14BufferPoolDataEEE"
    }
   ],
   "return_type" : "_ZTIN7android8hardware5media10bufferpool4V2_012ResultStatusE",
   "source_file" : "/frameworks/av/media/bufferpool/2.0/include/bufferpool/ClientManager.h"
  },
  {
   "function_name" : "android::hardware::media::bufferpool::V2_0::implementation::ClientManager::postSend",
   "linker_set_key" : "_ZN7android8hardware5media10bufferpool4V2_014implementation13ClientManager8postSendElRKNSt3__110shared_ptrINS2_14BufferPoolDataEEEPmPl",
   "parameters" :
   [
    {
     "is_this_ptr" : true,
     "referenced_type" : "_ZTIPN7android8hardware5media10bufferpool4V2_014implementation13ClientManagerE"
    },
    {
     "referenced_type" : "_ZTIl"
    },
    {
     "referenced_type" : "_ZTIRKNSt3__110shared_ptrIN7android8hardware5media10bufferpool14BufferPoolDataEEE"
    },
    {
     "referenced_type" : "_ZTIPm"
    },
    {
     "referenced_type" : "_ZTIPl"
    }
   ],
   "return_type" : "_ZTIN7android8hardware5media10bufferpool4V2_012ResultStatusE",
   "source_file" : "/frameworks/av/media/bufferpool/2.0/include/bufferpool/ClientManager.h"
  },
  {
   "access" : "private",
   "function_name" : "android::hardware::media::bufferpool::V2_0::implementation::ClientManager::ClientManager",
   "linker_set_key" : "_ZN7android8hardware5media10bufferpool4V2_014implementation13ClientManagerC1Ev",
   "parameters" :
   [
    {
     "is_this_ptr" : true,
     "referenced_type" : "_ZTIPN7android8hardware5media10bufferpool4V2_014implementation13ClientManagerE"
    }
   ],
   "return_type" : "_ZTIv",
   "source_file" : "/frameworks/av/media/bufferpool/2.0/include/bufferpool/ClientManager.h"
  },
  {
   "access" : "private",
   "function_name" : "android::hardware::media::bufferpool::V2_0::implementation::ClientManager::ClientManager",
   "linker_set_key" : "_ZN7android8hardware5media10bufferpool4V2_014implementation13ClientManagerC2Ev",
   "parameters" :
   [
    {
     "is_this_ptr" : true,
     "referenced_type" : "_ZTIPN7android8hardware5media10bufferpool4V2_014implementation13ClientManagerE"
    }
   ],
   "return_type" : "_ZTIv",
   "source_file" : "/frameworks/av/media/bufferpool/2.0/include/bufferpool/ClientManager.h"
  },
  {
   "function_name" : "android::hardware::media::bufferpool::V2_0::implementation::ClientManager::~ClientManager",
   "linker_set_key" : "_ZN7android8hardware5media10bufferpool4V2_014implementation13ClientManagerD0Ev",
   "parameters" :
   [
    {
     "is_this_ptr" : true,
     "referenced_type" : "_ZTIPN7android8hardware5media10bufferpool4V2_014implementation13ClientManagerE"
    }
   ],
   "return_type" : "_ZTIv",
   "source_file" : "/frameworks/av/media/bufferpool/2.0/include/bufferpool/ClientManager.h"
  },
  {
   "function_name" : "android::hardware::media::bufferpool::V2_0::implementation::ClientManager::~ClientManager",
   "linker_set_key" : "_ZN7android8hardware5media10bufferpool4V2_014implementation13ClientManagerD1Ev",
   "parameters" :
   [
    {
     "is_this_ptr" : true,
     "referenced_type" : "_ZTIPN7android8hardware5media10bufferpool4V2_014implementation13ClientManagerE"
    }
   ],
   "return_type" : "_ZTIv",
   "source_file" : "/frameworks/av/media/bufferpool/2.0/include/bufferpool/ClientManager.h"
  },
  {
   "function_name" : "android::hardware::media::bufferpool::V2_0::implementation::ClientManager::~ClientManager",
   "linker_set_key" : "_ZN7android8hardware5media10bufferpool4V2_014implementation13ClientManagerD2Ev",
   "parameters" :
   [
    {
     "is_this_ptr" : true,
     "referenced_type" : "_ZTIPN7android8hardware5media10bufferpool4V2_014implementation13ClientManagerE"
    }
   ],
   "return_type" : "_ZTIv",
   "source_file" : "/frameworks/av/media/bufferpool/2.0/include/bufferpool/ClientManager.h"
  }
 ],
 "global_vars" :
 [
  {
   "access" : "private",
   "linker_set_key" : "_ZN7android8hardware5media10bufferpool4V2_014implementation13ClientManager13sInstanceLockE",
   "name" : "android::hardware::media::bufferpool::V2_0::implementation::ClientManager::sInstanceLock",
   "referenced_type" : "_ZTINSt3__15mutexE",
   "source_file" : "/frameworks/av/media/bufferpool/2.0/include/bufferpool/ClientManager.h"
  },
  {
   "access" : "private",
   "linker_set_key" : "_ZN7android8hardware5media10bufferpool4V2_014implementation13ClientManager9sInstanceE",
   "name" : "android::hardware::media::bufferpool::V2_0::implementation::ClientManager::sInstance",
   "referenced_type" : "_ZTIN7android2spINS_8hardware5media10bufferpool4V2_014implementation13ClientManagerEEE",
   "source_file" : "/frameworks/av/media/bufferpool/2.0/include/bufferpool/ClientManager.h"
  }
 ],
 "lvalue_reference_types" :
 [
  {
   "alignment" : 8,
   "linker_set_key" : "_ZTIRK7log_msg",
   "name" : "const log_msg &",
   "referenced_type" : "_ZTIK7log_msg",
   "self_type" : "_ZTIRK7log_msg",
   "size" : 8,
   "source_file" : "/system/core/liblog/include/log/log_read.h"
  },
  {
   "alignment" : 8,
   "linker_set_key" : "_ZTIRKN7android2spINS_4hidl4base4V1_05IBaseEEE",
   "name" : "const android::sp<android::hidl::base::V1_0::IBase> &",
   "referenced_type" : "_ZTIKN7android2spINS_4hidl4base4V1_05IBaseEEE",
   "self_type" : "_ZTIRKN7android2spINS_4hidl4base4V1_05IBaseEEE",
   "size" : 8,
   "source_file" : "/system/core/libutils/include/utils/StrongPointer.h"
  },
  {
   "alignment" : 8,
   "linker_set_key" : "_ZTIRKN7android2spINS_8hardware20hidl_death_recipientEEE",
   "name" : "const android::sp<android::hardware::hidl_death_recipient> &",
   "referenced_type" : "_ZTIKN7android2spINS_8hardware20hidl_death_recipientEEE",
   "self_type" : "_ZTIRKN7android2spINS_8hardware20hidl_death_recipientEEE",
   "size" : 8,
   "source_file" : "/system/libhidl/base/include/hidl/HidlSupport.h"
  },
  {
   "alignment" : 8,
   "linker_set_key" : "_ZTIRKN7android2spINS_8hardware5media10bufferpool4V2_011IConnectionEEE",
   "name" : "const android::sp<android::hardware::media::bufferpool::V2_0::IConnection> &",
   "referenced_type" : "_ZTIKN7android2spINS_8hardware5media10bufferpool4V2_011IConnectionEEE",
   "self_type" : "_ZTIRKN7android2spINS_8hardware5media10bufferpool4V2_011IConnectionEEE",
   "size" : 8,
   "source_file" : "/system/core/libutils/include/utils/StrongPointer.h"
  },
  {
   "alignment" : 8,
   "linker_set_key" : "_ZTIRKN7android2spINS_8hardware5media10bufferpool4V2_014IClientManagerEEE",
   "name" : "const android::sp<android::hardware::media::bufferpool::V2_0::IClientManager> &",
   "referenced_type" : "_ZTIKN7android2spINS_8hardware5media10bufferpool4V2_014IClientManagerEEE",
   "self_type" : "_ZTIRKN7android2spINS_8hardware5media10bufferpool4V2_014IClientManagerEEE",
   "size" : 8,
   "source_file" : "/system/core/libutils/include/utils/RefBase.h"
  },
  {
   "alignment" : 8,
   "linker_set_key" : "_ZTIRKN7android2spINS_8hardware5media10bufferpool4V2_014implementation10ConnectionEEE",
   "name" : "const android::sp<android::hardware::media::bufferpool::V2_0::implementation::Connection> &",
   "referenced_type" : "_ZTIKN7android2spINS_8hardware5media10bufferpool4V2_014implementation10ConnectionEEE",
   "self_type" : "_ZTIRKN7android2spINS_8hardware5media10bufferpool4V2_014implementation10ConnectionEEE",
   "size" : 8,
   "source_file" : "/system/core/libutils/include/utils/StrongPointer.h"
  },
  {
   "alignment" : 8,
   "linker_set_key" : "_ZTIRKN7android2spINS_8hardware5media10bufferpool4V2_014implementation13ClientManagerEEE",
   "name" : "const android::sp<android::hardware::media::bufferpool::V2_0::implementation::ClientManager> &",
   "referenced_type" : "_ZTIKN7android2spINS_8hardware5media10bufferpool4V2_014implementation13ClientManagerEEE",
   "self_type" : "_ZTIRKN7android2spINS_8hardware5media10bufferpool4V2_014implementation13ClientManagerEEE",
   "size" : 8,
   "source_file" : "/system/core/libutils/include/utils/StrongPointer.h"
  },
  {
   "alignment" : 8,
   "linker_set_key" : "_ZTIRKN7android2spINS_8hardware5media10bufferpool4V2_014implementation24ConnectionDeathRecipientEEE",
   "name" : "const android::sp<android::hardware::media::bufferpool::V2_0::implementation::ConnectionDeathRecipient> &",
   "referenced_type" : "_ZTIKN7android2spINS_8hardware5media10bufferpool4V2_014implementation24ConnectionDeathRecipientEEE",
   "self_type" : "_ZTIRKN7android2spINS_8hardware5media10bufferpool4V2_014implementation24ConnectionDeathRecipientEEE",
   "size" : 8,
   "source_file" : "/system/core/libutils/include/utils/StrongPointer.h"
  },
  {
   "alignment" : 8,
   "linker_set_key" : "_ZTIRKN7android2spINS_8hardware5media10bufferpool4V2_014implementation8AccessorEEE",
   "name" : "const android::sp<android::hardware::media::bufferpool::V2_0::implementation::Accessor> &",
   "referenced_type" : "_ZTIKN7android2spINS_8hardware5media10bufferpool4V2_014implementation8AccessorEEE",
   "self_type" : "_ZTIRKN7android2spINS_8hardware5media10bufferpool4V2_014implementation8AccessorEEE",
   "size" : 8,
   "source_file" : "/system/core/libutils/include/utils/RefBase.h"
  },
  {
   "alignment" : 8,
   "linker_set_key" : "_ZTIRKN7android2spINS_8hardware5media10bufferpool4V2_014implementation8ObserverEEE",
   "name" : "const android::sp<android::hardware::media::bufferpool::V2_0::implementation::Observer> &",
   "referenced_type" : "_ZTIKN7android2spINS_8hardware5media10bufferpool4V2_014implementation8ObserverEEE",
   "self_type" : "_ZTIRKN7android2spINS_8hardware5media10bufferpool4V2_014implementation8ObserverEEE",
   "size" : 8,
   "source_file" : "/system/core/libutils/include/utils/StrongPointer.h"
  },
  {
   "alignment" : 8,
   "linker_set_key" : "_ZTIRKN7android2spINS_8hardware5media10bufferpool4V2_09IAccessorEEE",
   "name" : "const android::sp<android::hardware::media::bufferpool::V2_0::IAccessor> &",
   "referenced_type" : "_ZTIKN7android2spINS_8hardware5media10bufferpool4V2_09IAccessorEEE",
   "self_type" : "_ZTIRKN7android2spINS_8hardware5media10bufferpool4V2_09IAccessorEEE",
   "size" : 8,
   "source_file" : "/system/core/libutils/include/utils/StrongPointer.h"
  },
  {
   "alignment" : 8,
   "linker_set_key" : "_ZTIRKN7android2spINS_8hardware5media10bufferpool4V2_09IObserverEEE",
   "name" : "const android::sp<android::hardware::media::bufferpool::V2_0::IObserver> &",
   "referenced_type" : "_ZTIKN7android2spINS_8hardware5media10bufferpool4V2_09IObserverEEE",
   "self_type" : "_ZTIRKN7android2spINS_8hardware5media10bufferpool4V2_09IObserverEEE",
   "size" : 8,
   "source_file" : "/system/core/libutils/include/utils/StrongPointer.h"
  },
  {
   "alignment" : 8,
   "linker_set_key" : "_ZTIRKN7android2wpINS_8hardware5media10bufferpool4V2_014IClientManagerEEE",
   "name" : "const android::wp<android::hardware::media::bufferpool::V2_0::IClientManager> &",
   "referenced_type" : "_ZTIKN7android2wpINS_8hardware5media10bufferpool4V2_014IClientManagerEEE",
   "self_type" : "_ZTIRKN7android2wpINS_8hardware5media10bufferpool4V2_014IClientManagerEEE",
   "size" : 8,
   "source_file" : "/system/core/libutils/include/utils/RefBase.h"
  },
  {
   "alignment" : 8,
   "linker_set_key" : "_ZTIRKN7android2wpINS_8hardware5media10bufferpool4V2_014implementation8AccessorEEE",
   "name" : "const android::wp<android::hardware::media::bufferpool::V2_0::implementation::Accessor> &",
   "referenced_type" : "_ZTIKN7android2wpINS_8hardware5media10bufferpool4V2_014implementation8AccessorEEE",
   "self_type" : "_ZTIRKN7android2wpINS_8hardware5media10bufferpool4V2_014implementation8AccessorEEE",
   "size" : 8,
   "source_file" : "/system/core/libutils/include/utils/RefBase.h"
  },
  {
   "alignment" : 8,
   "linker_set_key" : "_ZTIRKN7android2wpINS_8hardware5media10bufferpool4V2_09IAccessorEEE",
   "name" : "const android::wp<android::hardware::media::bufferpool::V2_0::IAccessor> &",
   "referenced_type" : "_ZTIKN7android2wpINS_8hardware5media10bufferpool4V2_09IAccessorEEE",
   "self_type" : "_ZTIRKN7android2wpINS_8hardware5media10bufferpool4V2_09IAccessorEEE",
   "size" : 8,
   "source_file" : "/system/core/libutils/include/utils/RefBase.h"
  },
  {
   "alignment" : 8,
   "linker_set_key" : "_ZTIRKN7android7String8E",
   "name" : "const android::String8 &",
   "referenced_type" : "_ZTIKN7android7String8E",
   "self_type" : "_ZTIRKN7android7String8E",
   "size" : 8,
   "source_file" : "/system/core/libutils/include/utils/String8.h"
  },
  {
   "alignment" : 8,
   "linker_set_key" : "_ZTIRKN7android8String16E",
   "name" : "const android::String16 &",
   "referenced_type" : "_ZTIKN7android8String16E",
   "self_type" : "_ZTIRKN7android8String16E",
   "size" : 8,
   "source_file" : "/system/core/libutils/include/utils/String16.h"
  },
  {
   "alignment" : 8,
   "linker_set_key" : "_ZTIRKN7android8hardware11hidl_handleE",
   "name" : "const android::hardware::hidl_handle &",
   "referenced_type" : "_ZTIKN7android8hardware11hidl_handleE",
   "self_type" : "_ZTIRKN7android8hardware11hidl_handleE",
   "size" : 8,
   "source_file" : "/system/libhidl/base/include/hidl/HidlSupport.h"
  },
  {
   "alignment" : 8,
   "linker_set_key" : "_ZTIRKN7android8hardware11hidl_memoryE",
   "name" : "const android::hardware::hidl_memory &",
   "referenced_type" : "_ZTIKN7android8hardware11hidl_memoryE",
   "self_type" : "_ZTIRKN7android8hardware11hidl_memoryE",
   "size" : 8,
   "source_file" : "/system/libhidl/base/include/hidl/HidlSupport.h"
  },
  {
   "alignment" : 8,
   "linker_set_key" : "_ZTIRKN7android8hardware11hidl_stringE",
   "name" : "const android::hardware::hidl_string &",
   "referenced_type" : "_ZTIKN7android8hardware11hidl_stringE",
   "self_type" : "_ZTIRKN7android8hardware11hidl_stringE",
   "size" : 8,
   "source_file" : "/system/libhidl/base/include/hidl/HidlSupport.h"
  },
  {
   "alignment" : 8,
   "linker_set_key" : "_ZTIRKN7android8hardware12MQDescriptorINS0_5media10bufferpool4V2_019BufferStatusMessageELNS0_8MQFlavorE1EEE",
   "name" : "const android::hardware::MQDescriptor<android::hardware::media::bufferpool::V2_0::BufferStatusMessage, android::hardware::kSynchronizedReadWrite> &",
   "referenced_type" : "_ZTIKN7android8hardware12MQDescriptorINS0_5media10bufferpool4V2_019BufferStatusMessageELNS0_8MQFlavorE1EEE",
   "self_type" : "_ZTIRKN7android8hardware12MQDescriptorINS0_5media10bufferpool4V2_019BufferStatusMessageELNS0_8MQFlavorE1EEE",
   "size" : 8,
   "source_file" : "/system/libhidl/base/include/hidl/MQDescriptor.h"
  },
  {
   "alignment" : 8,
   "linker_set_key" : "_ZTIRKN7android8hardware12MQDescriptorINS0_5media10bufferpool4V2_025BufferInvalidationMessageELNS0_8MQFlavorE2EEE",
   "name" : "const android::hardware::MQDescriptor<android::hardware::media::bufferpool::V2_0::BufferInvalidationMessage, android::hardware::kUnsynchronizedWrite> &",
   "referenced_type" : "_ZTIKN7android8hardware12MQDescriptorINS0_5media10bufferpool4V2_025BufferInvalidationMessageELNS0_8MQFlavorE2EEE",
   "self_type" : "_ZTIRKN7android8hardware12MQDescriptorINS0_5media10bufferpool4V2_025BufferInvalidationMessageELNS0_8MQFlavorE2EEE",
   "size" : 8,
   "source_file" : "/system/libhidl/base/include/hidl/MQDescriptor.h"
  },
  {
   "alignment" : 8,
   "linker_set_key" : "_ZTIRKN7android8hardware12MessageQueueINS0_5media10bufferpool4V2_019BufferStatusMessageELNS0_8MQFlavorE1EE14MemTransactionE",
   "name" : "const android::hardware::MessageQueue<BufferStatusMessage, android::hardware::kSynchronizedReadWrite>::MemTransaction &",
   "referenced_type" : "_ZTIKN7android8hardware12MessageQueueINS0_5media10bufferpool4V2_019BufferStatusMessageELNS0_8MQFlavorE1EE14MemTransactionE",
   "self_type" : "_ZTIRKN7android8hardware12MessageQueueINS0_5media10bufferpool4V2_019BufferStatusMessageELNS0_8MQFlavorE1EE14MemTransactionE",
   "size" : 8,
   "source_file" : "/system/libfmq/include/fmq/MessageQueue.h"
  },
  {
   "alignment" : 8,
   "linker_set_key" : "_ZTIRKN7android8hardware12MessageQueueINS0_5media10bufferpool4V2_019BufferStatusMessageELNS0_8MQFlavorE1EE9MemRegionE",
   "name" : "const android::hardware::MessageQueue<BufferStatusMessage, android::hardware::kSynchronizedReadWrite>::MemRegion &",
   "referenced_type" : "_ZTIKN7android8hardware12MessageQueueINS0_5media10bufferpool4V2_019BufferStatusMessageELNS0_8MQFlavorE1EE9MemRegionE",
   "self_type" : "_ZTIRKN7android8hardware12MessageQueueINS0_5media10bufferpool4V2_019BufferStatusMessageELNS0_8MQFlavorE1EE9MemRegionE",
   "size" : 8,
   "source_file" : "/system/libfmq/include/fmq/MessageQueue.h"
  },
  {
   "alignment" : 8,
   "linker_set_key" : "_ZTIRKN7android8hardware12MessageQueueINS0_5media10bufferpool4V2_025BufferInvalidationMessageELNS0_8MQFlavorE2EE14MemTransactionE",
   "name" : "const android::hardware::MessageQueue<BufferInvalidationMessage, android::hardware::kUnsynchronizedWrite>::MemTransaction &",
   "referenced_type" : "_ZTIKN7android8hardware12MessageQueueINS0_5media10bufferpool4V2_025BufferInvalidationMessageELNS0_8MQFlavorE2EE14MemTransactionE",
   "self_type" : "_ZTIRKN7android8hardware12MessageQueueINS0_5media10bufferpool4V2_025BufferInvalidationMessageELNS0_8MQFlavorE2EE14MemTransactionE",
   "size" : 8,
   "source_file" : "/system/libfmq/include/fmq/MessageQueue.h"
  },
  {
   "alignment" : 8,
   "linker_set_key" : "_ZTIRKN7android8hardware12MessageQueueINS0_5media10bufferpool4V2_025BufferInvalidationMessageELNS0_8MQFlavorE2EE9MemRegionE",
   "name" : "const android::hardware::MessageQueue<BufferInvalidationMessage, android::hardware::kUnsynchronizedWrite>::MemRegion &",
   "referenced_type" : "_ZTIKN7android8hardware12MessageQueueINS0_5media10bufferpool4V2_025BufferInvalidationMessageELNS0_8MQFlavorE2EE9MemRegionE",
   "self_type" : "_ZTIRKN7android8hardware12MessageQueueINS0_5media10bufferpool4V2_025BufferInvalidationMessageELNS0_8MQFlavorE2EE9MemRegionE",
   "size" : 8,
   "source_file" : "/system/libfmq/include/fmq/MessageQueue.h"
  },
  {
   "alignment" : 8,
   "linker_set_key" : "_ZTIRKN7android8hardware12hidl_versionE",
   "name" : "const android::hardware::hidl_version &",
   "referenced_type" : "_ZTIKN7android8hardware12hidl_versionE",
   "self_type" : "_ZTIRKN7android8hardware12hidl_versionE",
   "size" : 8,
   "source_file" : "/system/libhidl/base/include/hidl/HidlSupport.h"
  },
  {
   "alignment" : 8,
   "linker_set_key" : "_ZTIRKN7android8hardware17GrantorDescriptorE",
   "name" : "const android::hardware::GrantorDescriptor &",
   "referenced_type" : "_ZTIKN7android8hardware17GrantorDescriptorE",
   "self_type" : "_ZTIRKN7android8hardware17GrantorDescriptorE",
   "size" : 8,
   "source_file" : "/system/libhidl/base/include/hidl/HidlInternal.h"
  },
  {
   "alignment" : 8,
   "linker_set_key" : "_ZTIRKN7android8hardware6ParcelE",
   "name" : "const android::hardware::Parcel &",
   "referenced_type" : "_ZTIKN7android8hardware6ParcelE",
   "self_type" : "_ZTIRKN7android8hardware6ParcelE",
   "size" : 8,
   "source_file" : "/system/libhwbinder/include/hwbinder/Parcel.h"
  },
  {
   "alignment" : 8,
   "linker_set_key" : "_ZTIRKN7android8hardware6StatusE",
   "name" : "const android::hardware::Status &",
   "referenced_type" : "_ZTIKN7android8hardware6StatusE",
   "self_type" : "_ZTIRKN7android8hardware6StatusE",
   "size" : 8,
   "source_file" : "/system/libhidl/base/include/hidl/Status.h"
  },
  {
   "linker_set_key" : "_ZTIRKN7android8hardware8hidl_vec4iterIXTL0__EEE",
   "name" : "const iter<is_const> &",
   "referenced_type" : "_ZTIKN7android8hardware8hidl_vec4iterIXTL0__EEE",
   "self_type" : "_ZTIRKN7android8hardware8hidl_vec4iterIXTL0__EEE",
   "source_file" : "/system/libhidl/base/include/hidl/HidlSupport.h"
  },
  {
   "alignment" : 8,
   "linker_set_key" : "_ZTIRKN7android8hardware8hidl_vecINS0_17GrantorDescriptorEEE",
   "name" : "const android::hardware::hidl_vec<android::hardware::GrantorDescriptor> &",
   "referenced_type" : "_ZTIKN7android8hardware8hidl_vecINS0_17GrantorDescriptorEEE",
   "self_type" : "_ZTIRKN7android8hardware8hidl_vecINS0_17GrantorDescriptorEEE",
   "size" : 8,
   "source_file" : "/system/libhidl/base/include/hidl/HidlSupport.h"
  },
  {
   "alignment" : 8,
   "linker_set_key" : "_ZTIRKNSt3__110shared_ptrIN7android8hardware5media10bufferpool14BufferPoolDataEEE",
   "name" : "const std::shared_ptr<android::hardware::media::bufferpool::BufferPoolData> &",
   "referenced_type" : "_ZTIKNSt3__110shared_ptrIN7android8hardware5media10bufferpool14BufferPoolDataEEE",
   "self_type" : "_ZTIRKNSt3__110shared_ptrIN7android8hardware5media10bufferpool14BufferPoolDataEEE",
   "size" : 8,
   "source_file" : "/frameworks/av/media/bufferpool/2.0/include/bufferpool/ClientManager.h"
  },
  {
   "alignment" : 8,
   "linker_set_key" : "_ZTIRKNSt3__110shared_ptrIN7android8hardware5media10bufferpool4V2_014implementation19BufferPoolAllocatorEEE",
   "name" : "const std::shared_ptr<android::hardware::media::bufferpool::V2_0::implementation::BufferPoolAllocator> &",
   "referenced_type" : "_ZTIKNSt3__110shared_ptrIN7android8hardware5media10bufferpool4V2_014implementation19BufferPoolAllocatorEEE",
   "self_type" : "_ZTIRKNSt3__110shared_ptrIN7android8hardware5media10bufferpool4V2_014implementation19BufferPoolAllocatorEEE",
   "size" : 8,
   "source_file" : "/frameworks/av/media/bufferpool/2.0/include/bufferpool/ClientManager.h"
  },
  {
   "alignment" : 8,
   "linker_set_key" : "_ZTIRKNSt3__16vectorIN7android8hardware17GrantorDescriptorENS_9allocatorIS3_EEEE",
   "name" : "const std::vector<android::hardware::GrantorDescriptor, std::allocator<android::hardware::GrantorDescriptor> > &",
   "referenced_type" : "_ZTIKNSt3__16vectorIN7android8hardware17GrantorDescriptorENS_9allocatorIS3_EEEE",
   "self_type" : "_ZTIRKNSt3__16vectorIN7android8hardware17GrantorDescriptorENS_9allocatorIS3_EEEE",
   "size" : 8,
   "source_file" : "/system/libhidl/base/include/hidl/MQDescriptor.h"
  },
  {
   "alignment" : 8,
   "linker_set_key" : "_ZTIRKNSt3__16vectorINS_8functionIFvN7android8hardware7details16HidlInstrumentor20InstrumentationEventEPKcS8_S8_S8_PNS0_IPvNS_9allocatorIS9_EEEEEEENSA_ISF_EEEE",
   "name" : "const std::vector<std::function<void (InstrumentationEvent, const char *, const char *, const char *, const char *, vector<void *, allocator<void *> > *)>, std::allocator<std::function<void (InstrumentationEvent, const char *, const char *, const char *, const char *, vector<void *, allocator<void *> > *)> > > &",
   "referenced_type" : "_ZTIKNSt3__16vectorINS_8functionIFvN7android8hardware7details16HidlInstrumentor20InstrumentationEventEPKcS8_S8_S8_PNS0_IPvNS_9allocatorIS9_EEEEEEENSA_ISF_EEEE",
   "self_type" : "_ZTIRKNSt3__16vectorINS_8functionIFvN7android8hardware7details16HidlInstrumentor20InstrumentationEventEPKcS8_S8_S8_PNS0_IPvNS_9allocatorIS9_EEEEEEENSA_ISF_EEEE",
   "size" : 8,
   "source_file" : "/system/libhidl/base/include/hidl/HidlInternal.h"
  },
  {
   "alignment" : 8,
   "linker_set_key" : "_ZTIRKNSt3__16vectorIhNS_9allocatorIhEEEE",
   "name" : "const std::vector<unsigned char, std::allocator<unsigned char> > &",
   "referenced_type" : "_ZTIKNSt3__16vectorIhNS_9allocatorIhEEEE",
   "self_type" : "_ZTIRKNSt3__16vectorIhNS_9allocatorIhEEEE",
   "size" : 8,
   "source_file" : "/frameworks/av/media/bufferpool/2.0/include/bufferpool/ClientManager.h"
  },
  {
   "alignment" : 8,
   "linker_set_key" : "_ZTIRKa",
   "name" : "const signed char &",
   "referenced_type" : "_ZTIKa",
   "self_type" : "_ZTIRKa",
   "size" : 8,
   "source_file" : "/system/core/libutils/include/utils/TypeHelpers.h"
  },
  {
   "alignment" : 8,
   "linker_set_key" : "_ZTIRKb",
   "name" : "const bool &",
   "referenced_type" : "_ZTIKb",
   "self_type" : "_ZTIRKb",
   "size" : 8,
   "source_file" : "/system/core/libutils/include/utils/TypeHelpers.h"
  },
  {
   "alignment" : 8,
   "linker_set_key" : "_ZTIRKd",
   "name" : "const double &",
   "referenced_type" : "_ZTIKd",
   "self_type" : "_ZTIRKd",
   "size" : 8,
   "source_file" : "/system/core/libutils/include/utils/TypeHelpers.h"
  },
  {
   "alignment" : 8,
   "linker_set_key" : "_ZTIRKf",
   "name" : "const float &",
   "referenced_type" : "_ZTIKf",
   "self_type" : "_ZTIRKf",
   "size" : 8,
   "source_file" : "/system/core/libutils/include/utils/TypeHelpers.h"
  },
  {
   "alignment" : 8,
   "linker_set_key" : "_ZTIRKh",
   "name" : "const unsigned char &",
   "referenced_type" : "_ZTIKh",
   "self_type" : "_ZTIRKh",
   "size" : 8,
   "source_file" : "/system/core/libutils/include/utils/TypeHelpers.h"
  },
  {
   "alignment" : 8,
   "linker_set_key" : "_ZTIRKi",
   "name" : "const int &",
   "referenced_type" : "_ZTIKi",
   "self_type" : "_ZTIRKi",
   "size" : 8,
   "source_file" : "/system/core/libutils/include/utils/TypeHelpers.h"
  },
  {
   "alignment" : 8,
   "linker_set_key" : "_ZTIRKj",
   "name" : "const unsigned int &",
   "referenced_type" : "_ZTIKj",
   "self_type" : "_ZTIRKj",
   "size" : 8,
   "source_file" : "/system/core/libutils/include/utils/TypeHelpers.h"
  },
  {
   "alignment" : 8,
   "linker_set_key" : "_ZTIRKl",
   "name" : "const long &",
   "referenced_type" : "_ZTIKl",
   "self_type" : "_ZTIRKl",
   "size" : 8,
   "source_file" : "/system/core/libutils/include/utils/TypeHelpers.h"
  },
  {
   "alignment" : 8,
   "linker_set_key" : "_ZTIRKm",
   "name" : "const unsigned long &",
   "referenced_type" : "_ZTIKm",
   "self_type" : "_ZTIRKm",
   "size" : 8,
   "source_file" : "/system/core/libutils/include/utils/TypeHelpers.h"
  },
  {
   "alignment" : 8,
   "linker_set_key" : "_ZTIRKs",
   "name" : "const short &",
   "referenced_type" : "_ZTIKs",
   "self_type" : "_ZTIRKs",
   "size" : 8,
   "source_file" : "/system/core/libutils/include/utils/TypeHelpers.h"
  },
  {
   "alignment" : 8,
   "linker_set_key" : "_ZTIRKt",
   "name" : "const unsigned short &",
   "referenced_type" : "_ZTIKt",
   "self_type" : "_ZTIRKt",
   "size" : 8,
   "source_file" : "/system/core/libutils/include/utils/TypeHelpers.h"
  },
  {
   "alignment" : 8,
   "linker_set_key" : "_ZTIRN7android2spINS_8hardware5media10bufferpool4V2_011IConnectionEEE",
   "name" : "android::sp<android::hardware::media::bufferpool::V2_0::IConnection> &",
   "referenced_type" : "_ZTIN7android2spINS_8hardware5media10bufferpool4V2_011IConnectionEEE",
   "self_type" : "_ZTIRN7android2spINS_8hardware5media10bufferpool4V2_011IConnectionEEE",
   "size" : 8,
   "source_file" : "/system/core/libutils/include/utils/StrongPointer.h"
  },
  {
   "alignment" : 8,
   "linker_set_key" : "_ZTIRN7android2spINS_8hardware5media10bufferpool4V2_014implementation10ConnectionEEE",
   "name" : "android::sp<android::hardware::media::bufferpool::V2_0::implementation::Connection> &",
   "referenced_type" : "_ZTIN7android2spINS_8hardware5media10bufferpool4V2_014implementation10ConnectionEEE",
   "self_type" : "_ZTIRN7android2spINS_8hardware5media10bufferpool4V2_014implementation10ConnectionEEE",
   "size" : 8,
   "source_file" : "/system/core/libutils/include/utils/StrongPointer.h"
  },
  {
   "alignment" : 8,
   "linker_set_key" : "_ZTIRN7android2spINS_8hardware5media10bufferpool4V2_014implementation13ClientManagerEEE",
   "name" : "android::sp<android::hardware::media::bufferpool::V2_0::implementation::ClientManager> &",
   "referenced_type" : "_ZTIN7android2spINS_8hardware5media10bufferpool4V2_014implementation13ClientManagerEEE",
   "self_type" : "_ZTIRN7android2spINS_8hardware5media10bufferpool4V2_014implementation13ClientManagerEEE",
   "size" : 8,
   "source_file" : "/system/core/libutils/include/utils/StrongPointer.h"
  },
  {
   "alignment" : 8,
   "linker_set_key" : "_ZTIRN7android2spINS_8hardware5media10bufferpool4V2_014implementation8AccessorEEE",
   "name" : "android::sp<android::hardware::media::bufferpool::V2_0::implementation::Accessor> &",
   "referenced_type" : "_ZTIN7android2spINS_8hardware5media10bufferpool4V2_014implementation8AccessorEEE",
   "self_type" : "_ZTIRN7android2spINS_8hardware5media10bufferpool4V2_014implementation8AccessorEEE",
   "size" : 8,
   "source_file" : "/system/core/libutils/include/utils/StrongPointer.h"
  },
  {
   "alignment" : 8,
   "linker_set_key" : "_ZTIRN7android2spINS_8hardware5media10bufferpool4V2_09IAccessorEEE",
   "name" : "android::sp<android::hardware::media::bufferpool::V2_0::IAccessor> &",
   "referenced_type" : "_ZTIN7android2spINS_8hardware5media10bufferpool4V2_09IAccessorEEE",
   "self_type" : "_ZTIRN7android2spINS_8hardware5media10bufferpool4V2_09IAccessorEEE",
   "size" : 8,
   "source_file" : "/system/core/libutils/include/utils/StrongPointer.h"
  },
  {
   "alignment" : 8,
   "linker_set_key" : "_ZTIRN7android7String8E",
   "name" : "android::String8 &",
   "referenced_type" : "_ZTIN7android7String8E",
   "self_type" : "_ZTIRN7android7String8E",
   "size" : 8,
   "source_file" : "/system/core/libutils/include/utils/String8.h"
  },
  {
   "alignment" : 8,
   "linker_set_key" : "_ZTIRN7android8String16E",
   "name" : "android::String16 &",
   "referenced_type" : "_ZTIN7android8String16E",
   "self_type" : "_ZTIRN7android8String16E",
   "size" : 8,
   "source_file" : "/system/core/libutils/include/utils/String16.h"
  },
  {
   "alignment" : 8,
   "linker_set_key" : "_ZTIRN7android8hardware10TextOutputE",
   "name" : "android::hardware::TextOutput &",
   "referenced_type" : "_ZTIN7android8hardware10TextOutputE",
   "self_type" : "_ZTIRN7android8hardware10TextOutputE",
   "size" : 8,
   "source_file" : "/system/libhwbinder/include/hwbinder/Parcel.h"
  },
  {
   "alignment" : 8,
   "linker_set_key" : "_ZTIRN7android8hardware11hidl_memoryE",
   "name" : "android::hardware::hidl_memory &",
   "referenced_type" : "_ZTIN7android8hardware11hidl_memoryE",
   "self_type" : "_ZTIRN7android8hardware11hidl_memoryE",
   "size" : 8,
   "source_file" : "/system/libhidl/base/include/hidl/HidlSupport.h"
  },
  {
   "alignment" : 8,
   "linker_set_key" : "_ZTIRN7android8hardware12MQDescriptorINS0_5media10bufferpool4V2_019BufferStatusMessageELNS0_8MQFlavorE1EEE",
   "name" : "android::hardware::MQDescriptor<android::hardware::media::bufferpool::V2_0::BufferStatusMessage, android::hardware::kSynchronizedReadWrite> &",
   "referenced_type" : "_ZTIN7android8hardware12MQDescriptorINS0_5media10bufferpool4V2_019BufferStatusMessageELNS0_8MQFlavorE1EEE",
   "self_type" : "_ZTIRN7android8hardware12MQDescriptorINS0_5media10bufferpool4V2_019BufferStatusMessageELNS0_8MQFlavorE1EEE",
   "size" : 8,
   "source_file" : "/system/libhidl/base/include/hidl/MQDescriptor.h"
  },
  {
   "alignment" : 8,
   "linker_set_key" : "_ZTIRN7android8hardware12MQDescriptorINS0_5media10bufferpool4V2_025BufferInvalidationMessageELNS0_8MQFlavorE2EEE",
   "name" : "android::hardware::MQDescriptor<android::hardware::media::bufferpool::V2_0::BufferInvalidationMessage, android::hardware::kUnsynchronizedWrite> &",
   "referenced_type" : "_ZTIN7android8hardware12MQDescriptorINS0_5media10bufferpool4V2_025BufferInvalidationMessageELNS0_8MQFlavorE2EEE",
   "self_type" : "_ZTIRN7android8hardware12MQDescriptorINS0_5media10bufferpool4V2_025BufferInvalidationMessageELNS0_8MQFlavorE2EEE",
   "size" : 8,
   "source_file" : "/system/libhidl/base/include/hidl/MQDescriptor.h"
  },
  {
   "alignment" : 8,
   "linker_set_key" : "_ZTIRN7android8hardware12MessageQueueINS0_5media10bufferpool4V2_019BufferStatusMessageELNS0_8MQFlavorE1EE14MemTransactionE",
   "name" : "android::hardware::MessageQueue<BufferStatusMessage, android::hardware::kSynchronizedReadWrite>::MemTransaction &",
   "referenced_type" : "_ZTIN7android8hardware12MessageQueueINS0_5media10bufferpool4V2_019BufferStatusMessageELNS0_8MQFlavorE1EE14MemTransactionE",
   "self_type" : "_ZTIRN7android8hardware12MessageQueueINS0_5media10bufferpool4V2_019BufferStatusMessageELNS0_8MQFlavorE1EE14MemTransactionE",
   "size" : 8,
   "source_file" : "/system/libfmq/include/fmq/MessageQueue.h"
  },
  {
   "alignment" : 8,
   "linker_set_key" : "_ZTIRN7android8hardware12MessageQueueINS0_5media10bufferpool4V2_019BufferStatusMessageELNS0_8MQFlavorE1EE9MemRegionE",
   "name" : "android::hardware::MessageQueue<BufferStatusMessage, android::hardware::kSynchronizedReadWrite>::MemRegion &",
   "referenced_type" : "_ZTIN7android8hardware12MessageQueueINS0_5media10bufferpool4V2_019BufferStatusMessageELNS0_8MQFlavorE1EE9MemRegionE",
   "self_type" : "_ZTIRN7android8hardware12MessageQueueINS0_5media10bufferpool4V2_019BufferStatusMessageELNS0_8MQFlavorE1EE9MemRegionE",
   "size" : 8,
   "source_file" : "/system/libfmq/include/fmq/MessageQueue.h"
  },
  {
   "alignment" : 8,
   "linker_set_key" : "_ZTIRN7android8hardware12MessageQueueINS0_5media10bufferpool4V2_025BufferInvalidationMessageELNS0_8MQFlavorE2EE14MemTransactionE",
   "name" : "android::hardware::MessageQueue<BufferInvalidationMessage, android::hardware::kUnsynchronizedWrite>::MemTransaction &",
   "referenced_type" : "_ZTIN7android8hardware12MessageQueueINS0_5media10bufferpool4V2_025BufferInvalidationMessageELNS0_8MQFlavorE2EE14MemTransactionE",
   "self_type" : "_ZTIRN7android8hardware12MessageQueueINS0_5media10bufferpool4V2_025BufferInvalidationMessageELNS0_8MQFlavorE2EE14MemTransactionE",
   "size" : 8,
   "source_file" : "/system/libfmq/include/fmq/MessageQueue.h"
  },
  {
   "alignment" : 8,
   "linker_set_key" : "_ZTIRN7android8hardware12MessageQueueINS0_5media10bufferpool4V2_025BufferInvalidationMessageELNS0_8MQFlavorE2EE9MemRegionE",
   "name" : "android::hardware::MessageQueue<BufferInvalidationMessage, android::hardware::kUnsynchronizedWrite>::MemRegion &",
   "referenced_type" : "_ZTIN7android8hardware12MessageQueueINS0_5media10bufferpool4V2_025BufferInvalidationMessageELNS0_8MQFlavorE2EE9MemRegionE",
   "self_type" : "_ZTIRN7android8hardware12MessageQueueINS0_5media10bufferpool4V2_025BufferInvalidationMessageELNS0_8MQFlavorE2EE9MemRegionE",
   "size" : 8,
   "source_file" : "/system/libfmq/include/fmq/MessageQueue.h"
  },
  {
   "alignment" : 8,
   "linker_set_key" : "_ZTIRN7android8hardware17GrantorDescriptorE",
   "name" : "android::hardware::GrantorDescriptor &",
   "referenced_type" : "_ZTIN7android8hardware17GrantorDescriptorE",
   "self_type" : "_ZTIRN7android8hardware17GrantorDescriptorE",
   "size" : 8,
   "source_file" : "/system/libhidl/base/include/hidl/HidlInternal.h"
  },
  {
   "alignment" : 8,
   "linker_set_key" : "_ZTIRN7android8hardware6ReturnIbEE",
   "name" : "android::hardware::Return<bool> &",
   "referenced_type" : "_ZTIN7android8hardware6ReturnIbEE",
   "self_type" : "_ZTIRN7android8hardware6ReturnIbEE",
   "size" : 8,
   "source_file" : "/system/libhidl/base/include/hidl/Status.h"
  },
  {
   "alignment" : 8,
   "linker_set_key" : "_ZTIRN7android8hardware6ReturnIvEE",
   "name" : "android::hardware::Return<void> &",
   "referenced_type" : "_ZTIN7android8hardware6ReturnIvEE",
   "self_type" : "_ZTIRN7android8hardware6ReturnIvEE",
   "size" : 8,
   "source_file" : "/system/libhidl/base/include/hidl/Status.h"
  },
  {
   "alignment" : 8,
   "linker_set_key" : "_ZTIRN7android8hardware6StatusE",
   "name" : "android::hardware::Status &",
   "referenced_type" : "_ZTIN7android8hardware6StatusE",
   "self_type" : "_ZTIRN7android8hardware6StatusE",
   "size" : 8,
   "source_file" : "/system/libhidl/base/include/hidl/Status.h"
  },
  {
   "alignment" : 8,
   "linker_set_key" : "_ZTIRN7android8hardware7details12hidl_pointerI13native_handleEE",
   "name" : "android::hardware::details::hidl_pointer<native_handle> &",
   "referenced_type" : "_ZTIN7android8hardware7details12hidl_pointerI13native_handleEE",
   "self_type" : "_ZTIRN7android8hardware7details12hidl_pointerI13native_handleEE",
   "size" : 8,
   "source_file" : "/system/libhidl/base/include/hidl/HidlInternal.h"
  },
  {
   "alignment" : 8,
   "linker_set_key" : "_ZTIRN7android8hardware7details12hidl_pointerINS0_17GrantorDescriptorEEE",
   "name" : "android::hardware::details::hidl_pointer<android::hardware::GrantorDescriptor> &",
   "referenced_type" : "_ZTIN7android8hardware7details12hidl_pointerINS0_17GrantorDescriptorEEE",
   "self_type" : "_ZTIRN7android8hardware7details12hidl_pointerINS0_17GrantorDescriptorEEE",
   "size" : 8,
   "source_file" : "/system/libhidl/base/include/hidl/HidlInternal.h"
  },
  {
   "alignment" : 8,
   "linker_set_key" : "_ZTIRN7android8hardware8hidl_vecINS0_17GrantorDescriptorEEE",
   "name" : "android::hardware::hidl_vec<android::hardware::GrantorDescriptor> &",
   "referenced_type" : "_ZTIN7android8hardware8hidl_vecINS0_17GrantorDescriptorEEE",
   "self_type" : "_ZTIRN7android8hardware8hidl_vecINS0_17GrantorDescriptorEEE",
   "size" : 8,
   "source_file" : "/system/libhidl/base/include/hidl/HidlSupport.h"
  },
  {
   "alignment" : 8,
   "linker_set_key" : "_ZTIRi",
   "name" : "int &",
   "referenced_type" : "_ZTIi",
   "self_type" : "_ZTIRi",
   "size" : 8,
   "source_file" : "/out/soong/.intermediates/hardware/interfaces/media/bufferpool/2.0/android.hardware.media.bufferpool@2.0_genc++_headers/gen/android/hardware/media/bufferpool/2.0/types.h"
  },
  {
   "alignment" : 8,
   "linker_set_key" : "_ZTIRm",
   "name" : "unsigned long &",
   "referenced_type" : "_ZTIm",
   "self_type" : "_ZTIRm",
   "size" : 8,
   "source_file" : "/system/libfmq/include/fmq/MessageQueue.h"
  }
 ],
 "pointer_types" :
 [
  {
   "alignment" : 8,
   "linker_set_key" : "_ZTIP13native_handle",
   "name" : "native_handle *",
   "referenced_type" : "_ZTI13native_handle",
   "self_type" : "_ZTIP13native_handle",
   "size" : 8,
   "source_file" : "/system/libhidl/base/include/hidl/HidlInternal.h"
  },
  {
   "alignment" : 8,
   "linker_set_key" : "_ZTIP7log_msg",
   "name" : "log_msg *",
   "referenced_type" : "_ZTI7log_msg",
   "self_type" : "_ZTIP7log_msg",
   "size" : 8,
   "source_file" : "/system/core/liblog/include/log/log_read.h"
  },
  {
   "alignment" : 8,
   "linker_set_key" : "_ZTIPFvPN7android8hardware6ParcelEPKhmPKymPvE",
   "name" : "void (*)(android::hardware::Parcel *, const unsigned char *, unsigned long, const unsigned long long *, unsigned long, void *)",
   "referenced_type" : "_ZTIFvPN7android8hardware6ParcelEPKhmPKymPvE",
   "self_type" : "_ZTIPFvPN7android8hardware6ParcelEPKhmPKymPvE",
   "size" : 8,
   "source_file" : "/system/libhwbinder/include/hwbinder/Parcel.h"
  },
  {
   "alignment" : 8,
   "linker_set_key" : "_ZTIPK13native_handle",
   "name" : "const native_handle *",
   "referenced_type" : "_ZTIK13native_handle",
   "self_type" : "_ZTIPK13native_handle",
   "size" : 8,
   "source_file" : "/system/libhidl/base/include/hidl/HidlInternal.h"
  },
  {
   "alignment" : 8,
   "linker_set_key" : "_ZTIPK7log_msg",
   "name" : "const log_msg *",
   "referenced_type" : "_ZTIK7log_msg",
   "self_type" : "_ZTIPK7log_msg",
   "size" : 8,
   "source_file" : "/system/core/liblog/include/log/log_read.h"
  },
  {
   "alignment" : 8,
   "linker_set_key" : "_ZTIPKDs",
   "name" : "const char16_t *",
   "referenced_type" : "_ZTIKDs",
   "self_type" : "_ZTIPKDs",
   "size" : 8,
   "source_file" : "/system/core/libutils/include/utils/String16.h"
  },
  {
   "alignment" : 8,
   "linker_set_key" : "_ZTIPKN7android12NativeHandleE",
   "name" : "const android::NativeHandle *",
   "referenced_type" : "_ZTIKN7android12NativeHandleE",
   "self_type" : "_ZTIPKN7android12NativeHandleE",
   "size" : 8,
   "source_file" : "/system/core/libutils/include/utils/NativeHandle.h"
  },
  {
   "alignment" : 8,
   "linker_set_key" : "_ZTIPKN7android2spINS_4hidl4base4V1_05IBaseEEE",
   "name" : "const android::sp<android::hidl::base::V1_0::IBase> *",
   "referenced_type" : "_ZTIKN7android2spINS_4hidl4base4V1_05IBaseEEE",
   "self_type" : "_ZTIPKN7android2spINS_4hidl4base4V1_05IBaseEEE",
   "size" : 8,
   "source_file" : "/system/core/libutils/include/utils/StrongPointer.h"
  },
  {
   "alignment" : 8,
   "linker_set_key" : "_ZTIPKN7android2spINS_4hidl7manager4V1_020IServiceNotificationEEE",
   "name" : "const android::sp<android::hidl::manager::V1_0::IServiceNotification> *",
   "referenced_type" : "_ZTIKN7android2spINS_4hidl7manager4V1_020IServiceNotificationEEE",
   "self_type" : "_ZTIPKN7android2spINS_4hidl7manager4V1_020IServiceNotificationEEE",
   "size" : 8,
   "source_file" : "/system/core/libutils/include/utils/StrongPointer.h"
  },
  {
   "alignment" : 8,
   "linker_set_key" : "_ZTIPKN7android2spINS_8hardware20hidl_death_recipientEEE",
   "name" : "const android::sp<android::hardware::hidl_death_recipient> *",
   "referenced_type" : "_ZTIKN7android2spINS_8hardware20hidl_death_recipientEEE",
   "self_type" : "_ZTIPKN7android2spINS_8hardware20hidl_death_recipientEEE",
   "size" : 8,
   "source_file" : "/system/core/libutils/include/utils/StrongPointer.h"
  },
  {
   "alignment" : 8,
   "linker_set_key" : "_ZTIPKN7android2spINS_8hardware5media10bufferpool4V2_011IConnectionEEE",
   "name" : "const android::sp<android::hardware::media::bufferpool::V2_0::IConnection> *",
   "referenced_type" : "_ZTIKN7android2spINS_8hardware5media10bufferpool4V2_011IConnectionEEE",
   "self_type" : "_ZTIPKN7android2spINS_8hardware5media10bufferpool4V2_011IConnectionEEE",
   "size" : 8,
   "source_file" : "/system/core/libutils/include/utils/StrongPointer.h"
  },
  {
   "alignment" : 8,
   "linker_set_key" : "_ZTIPKN7android2spINS_8hardware5media10bufferpool4V2_014IClientManagerEEE",
   "name" : "const android::sp<android::hardware::media::bufferpool::V2_0::IClientManager> *",
   "referenced_type" : "_ZTIKN7android2spINS_8hardware5media10bufferpool4V2_014IClientManagerEEE",
   "self_type" : "_ZTIPKN7android2spINS_8hardware5media10bufferpool4V2_014IClientManagerEEE",
   "size" : 8,
   "source_file" : "/system/core/libutils/include/utils/StrongPointer.h"
  },
  {
   "alignment" : 8,
   "linker_set_key" : "_ZTIPKN7android2spINS_8hardware5media10bufferpool4V2_014implementation10ConnectionEEE",
   "name" : "const android::sp<android::hardware::media::bufferpool::V2_0::implementation::Connection> *",
   "referenced_type" : "_ZTIKN7android2spINS_8hardware5media10bufferpool4V2_014implementation10ConnectionEEE",
   "self_type" : "_ZTIPKN7android2spINS_8hardware5media10bufferpool4V2_014implementation10ConnectionEEE",
   "size" : 8,
   "source_file" : "/system/core/libutils/include/utils/StrongPointer.h"
  },
  {
   "alignment" : 8,
   "linker_set_key" : "_ZTIPKN7android2spINS_8hardware5media10bufferpool4V2_014implementation13ClientManagerEEE",
   "name" : "const android::sp<android::hardware::media::bufferpool::V2_0::implementation::ClientManager> *",
   "referenced_type" : "_ZTIKN7android2spINS_8hardware5media10bufferpool4V2_014implementation13ClientManagerEEE",
   "self_type" : "_ZTIPKN7android2spINS_8hardware5media10bufferpool4V2_014implementation13ClientManagerEEE",
   "size" : 8,
   "source_file" : "/system/core/libutils/include/utils/StrongPointer.h"
  },
  {
   "alignment" : 8,
   "linker_set_key" : "_ZTIPKN7android2spINS_8hardware5media10bufferpool4V2_014implementation24ConnectionDeathRecipientEEE",
   "name" : "const android::sp<android::hardware::media::bufferpool::V2_0::implementation::ConnectionDeathRecipient> *",
   "referenced_type" : "_ZTIKN7android2spINS_8hardware5media10bufferpool4V2_014implementation24ConnectionDeathRecipientEEE",
   "self_type" : "_ZTIPKN7android2spINS_8hardware5media10bufferpool4V2_014implementation24ConnectionDeathRecipientEEE",
   "size" : 8,
   "source_file" : "/system/core/libutils/include/utils/StrongPointer.h"
  },
  {
   "alignment" : 8,
   "linker_set_key" : "_ZTIPKN7android2spINS_8hardware5media10bufferpool4V2_014implementation8AccessorEEE",
   "name" : "const android::sp<android::hardware::media::bufferpool::V2_0::implementation::Accessor> *",
   "referenced_type" : "_ZTIKN7android2spINS_8hardware5media10bufferpool4V2_014implementation8AccessorEEE",
   "self_type" : "_ZTIPKN7android2spINS_8hardware5media10bufferpool4V2_014implementation8AccessorEEE",
   "size" : 8,
   "source_file" : "/system/core/libutils/include/utils/StrongPointer.h"
  },
  {
   "alignment" : 8,
   "linker_set_key" : "_ZTIPKN7android2spINS_8hardware5media10bufferpool4V2_014implementation8ObserverEEE",
   "name" : "const android::sp<android::hardware::media::bufferpool::V2_0::implementation::Observer> *",
   "referenced_type" : "_ZTIKN7android2spINS_8hardware5media10bufferpool4V2_014implementation8ObserverEEE",
   "self_type" : "_ZTIPKN7android2spINS_8hardware5media10bufferpool4V2_014implementation8ObserverEEE",
   "size" : 8,
   "source_file" : "/system/core/libutils/include/utils/StrongPointer.h"
  },
  {
   "alignment" : 8,
   "linker_set_key" : "_ZTIPKN7android2spINS_8hardware5media10bufferpool4V2_09IAccessorEEE",
   "name" : "const android::sp<android::hardware::media::bufferpool::V2_0::IAccessor> *",
   "referenced_type" : "_ZTIKN7android2spINS_8hardware5media10bufferpool4V2_09IAccessorEEE",
   "self_type" : "_ZTIPKN7android2spINS_8hardware5media10bufferpool4V2_09IAccessorEEE",
   "size" : 8,
   "source_file" : "/system/core/libutils/include/utils/StrongPointer.h"
  },
  {
   "alignment" : 8,
   "linker_set_key" : "_ZTIPKN7android2spINS_8hardware5media10bufferpool4V2_09IObserverEEE",
   "name" : "const android::sp<android::hardware::media::bufferpool::V2_0::IObserver> *",
   "referenced_type" : "_ZTIKN7android2spINS_8hardware5media10bufferpool4V2_09IObserverEEE",
   "self_type" : "_ZTIPKN7android2spINS_8hardware5media10bufferpool4V2_09IObserverEEE",
   "size" : 8,
   "source_file" : "/system/core/libutils/include/utils/StrongPointer.h"
  },
  {
   "alignment" : 8,
   "linker_set_key" : "_ZTIPKN7android2wpINS_8hardware5media10bufferpool4V2_014IClientManagerEEE",
   "name" : "const android::wp<android::hardware::media::bufferpool::V2_0::IClientManager> *",
   "referenced_type" : "_ZTIKN7android2wpINS_8hardware5media10bufferpool4V2_014IClientManagerEEE",
   "self_type" : "_ZTIPKN7android2wpINS_8hardware5media10bufferpool4V2_014IClientManagerEEE",
   "size" : 8,
   "source_file" : "/system/core/libutils/include/utils/RefBase.h"
  },
  {
   "alignment" : 8,
   "linker_set_key" : "_ZTIPKN7android2wpINS_8hardware5media10bufferpool4V2_014implementation8AccessorEEE",
   "name" : "const android::wp<android::hardware::media::bufferpool::V2_0::implementation::Accessor> *",
   "referenced_type" : "_ZTIKN7android2wpINS_8hardware5media10bufferpool4V2_014implementation8AccessorEEE",
   "self_type" : "_ZTIPKN7android2wpINS_8hardware5media10bufferpool4V2_014implementation8AccessorEEE",
   "size" : 8,
   "source_file" : "/system/core/libutils/include/utils/RefBase.h"
  },
  {
   "alignment" : 8,
   "linker_set_key" : "_ZTIPKN7android2wpINS_8hardware5media10bufferpool4V2_09IAccessorEEE",
   "name" : "const android::wp<android::hardware::media::bufferpool::V2_0::IAccessor> *",
   "referenced_type" : "_ZTIKN7android2wpINS_8hardware5media10bufferpool4V2_09IAccessorEEE",
   "self_type" : "_ZTIPKN7android2wpINS_8hardware5media10bufferpool4V2_09IAccessorEEE",
   "size" : 8,
   "source_file" : "/system/core/libutils/include/utils/RefBase.h"
  },
  {
   "alignment" : 8,
   "linker_set_key" : "_ZTIPKN7android4hidl4base4V1_05IBaseE",
   "name" : "const android::hidl::base::V1_0::IBase *",
   "referenced_type" : "_ZTIKN7android4hidl4base4V1_05IBaseE",
   "self_type" : "_ZTIPKN7android4hidl4base4V1_05IBaseE",
   "size" : 8,
   "source_file" : "/out/soong/.intermediates/system/libhidl/transport/base/1.0/android.hidl.base@1.0_genc++_headers/gen/android/hidl/base/1.0/IBase.h"
  },
  {
   "alignment" : 8,
   "linker_set_key" : "_ZTIPKN7android4hidl7manager4V1_020IServiceNotificationE",
   "name" : "const android::hidl::manager::V1_0::IServiceNotification *",
   "referenced_type" : "_ZTIKN7android4hidl7manager4V1_020IServiceNotificationE",
   "self_type" : "_ZTIPKN7android4hidl7manager4V1_020IServiceNotificationE",
   "size" : 8,
   "source_file" : "/out/soong/.intermediates/system/libhidl/transport/manager/1.0/android.hidl.manager@1.0_genc++_headers/gen/android/hidl/manager/1.0/IServiceNotification.h"
  },
  {
   "alignment" : 8,
   "linker_set_key" : "_ZTIPKN7android7RefBaseE",
   "name" : "const android::RefBase *",
   "referenced_type" : "_ZTIKN7android7RefBaseE",
   "self_type" : "_ZTIPKN7android7RefBaseE",
   "size" : 8,
   "source_file" : "/system/core/libutils/include/utils/RefBase.h"
  },
  {
   "alignment" : 8,
   "linker_set_key" : "_ZTIPKN7android7String8E",
   "name" : "const android::String8 *",
   "referenced_type" : "_ZTIKN7android7String8E",
   "self_type" : "_ZTIPKN7android7String8E",
   "size" : 8,
   "source_file" : "/system/core/libutils/include/utils/String8.h"
  },
  {
   "alignment" : 8,
   "linker_set_key" : "_ZTIPKN7android8String16E",
   "name" : "const android::String16 *",
   "referenced_type" : "_ZTIKN7android8String16E",
   "self_type" : "_ZTIPKN7android8String16E",
   "size" : 8,
   "source_file" : "/system/core/libutils/include/utils/String16.h"
  },
  {
   "alignment" : 8,
   "linker_set_key" : "_ZTIPKN7android8hardware11BpHwRefBaseE",
   "name" : "const android::hardware::BpHwRefBase *",
   "referenced_type" : "_ZTIKN7android8hardware11BpHwRefBaseE",
   "self_type" : "_ZTIPKN7android8hardware11BpHwRefBaseE",
   "size" : 8,
   "source_file" : "/system/libhwbinder/include/hwbinder/Binder.h"
  },
  {
   "alignment" : 8,
   "linker_set_key" : "_ZTIPKN7android8hardware11hidl_memoryE",
   "name" : "const android::hardware::hidl_memory *",
   "referenced_type" : "_ZTIKN7android8hardware11hidl_memoryE",
   "self_type" : "_ZTIPKN7android8hardware11hidl_memoryE",
   "size" : 8,
   "source_file" : "/system/libhidl/base/include/hidl/HidlSupport.h"
  },
  {
   "alignment" : 8,
   "linker_set_key" : "_ZTIPKN7android8hardware12MQDescriptorINS0_5media10bufferpool4V2_019BufferStatusMessageELNS0_8MQFlavorE1EEE",
   "name" : "const android::hardware::MQDescriptor<android::hardware::media::bufferpool::V2_0::BufferStatusMessage, android::hardware::kSynchronizedReadWrite> *",
   "referenced_type" : "_ZTIKN7android8hardware12MQDescriptorINS0_5media10bufferpool4V2_019BufferStatusMessageELNS0_8MQFlavorE1EEE",
   "self_type" : "_ZTIPKN7android8hardware12MQDescriptorINS0_5media10bufferpool4V2_019BufferStatusMessageELNS0_8MQFlavorE1EEE",
   "size" : 8,
   "source_file" : "/system/libhidl/base/include/hidl/MQDescriptor.h"
  },
  {
   "alignment" : 8,
   "linker_set_key" : "_ZTIPKN7android8hardware12MQDescriptorINS0_5media10bufferpool4V2_025BufferInvalidationMessageELNS0_8MQFlavorE2EEE",
   "name" : "const android::hardware::MQDescriptor<android::hardware::media::bufferpool::V2_0::BufferInvalidationMessage, android::hardware::kUnsynchronizedWrite> *",
   "referenced_type" : "_ZTIKN7android8hardware12MQDescriptorINS0_5media10bufferpool4V2_025BufferInvalidationMessageELNS0_8MQFlavorE2EEE",
   "self_type" : "_ZTIPKN7android8hardware12MQDescriptorINS0_5media10bufferpool4V2_025BufferInvalidationMessageELNS0_8MQFlavorE2EEE",
   "size" : 8,
   "source_file" : "/system/libhidl/base/include/hidl/MQDescriptor.h"
  },
  {
   "alignment" : 8,
   "linker_set_key" : "_ZTIPKN7android8hardware12MessageQueueINS0_5media10bufferpool4V2_019BufferStatusMessageELNS0_8MQFlavorE1EE9MemRegionE",
   "name" : "const android::hardware::MessageQueue<BufferStatusMessage, android::hardware::kSynchronizedReadWrite>::MemRegion *",
   "referenced_type" : "_ZTIKN7android8hardware12MessageQueueINS0_5media10bufferpool4V2_019BufferStatusMessageELNS0_8MQFlavorE1EE9MemRegionE",
   "self_type" : "_ZTIPKN7android8hardware12MessageQueueINS0_5media10bufferpool4V2_019BufferStatusMessageELNS0_8MQFlavorE1EE9MemRegionE",
   "size" : 8,
   "source_file" : "/system/libfmq/include/fmq/MessageQueue.h"
  },
  {
   "alignment" : 8,
   "linker_set_key" : "_ZTIPKN7android8hardware12MessageQueueINS0_5media10bufferpool4V2_019BufferStatusMessageELNS0_8MQFlavorE1EEE",
   "name" : "const android::hardware::MessageQueue<android::hardware::media::bufferpool::V2_0::BufferStatusMessage, android::hardware::kSynchronizedReadWrite> *",
   "referenced_type" : "_ZTIKN7android8hardware12MessageQueueINS0_5media10bufferpool4V2_019BufferStatusMessageELNS0_8MQFlavorE1EEE",
   "self_type" : "_ZTIPKN7android8hardware12MessageQueueINS0_5media10bufferpool4V2_019BufferStatusMessageELNS0_8MQFlavorE1EEE",
   "size" : 8,
   "source_file" : "/system/libfmq/include/fmq/MessageQueue.h"
  },
  {
   "alignment" : 8,
   "linker_set_key" : "_ZTIPKN7android8hardware12MessageQueueINS0_5media10bufferpool4V2_025BufferInvalidationMessageELNS0_8MQFlavorE2EE9MemRegionE",
   "name" : "const android::hardware::MessageQueue<BufferInvalidationMessage, android::hardware::kUnsynchronizedWrite>::MemRegion *",
   "referenced_type" : "_ZTIKN7android8hardware12MessageQueueINS0_5media10bufferpool4V2_025BufferInvalidationMessageELNS0_8MQFlavorE2EE9MemRegionE",
   "self_type" : "_ZTIPKN7android8hardware12MessageQueueINS0_5media10bufferpool4V2_025BufferInvalidationMessageELNS0_8MQFlavorE2EE9MemRegionE",
   "size" : 8,
   "source_file" : "/system/libfmq/include/fmq/MessageQueue.h"
  },
  {
   "alignment" : 8,
   "linker_set_key" : "_ZTIPKN7android8hardware12MessageQueueINS0_5media10bufferpool4V2_025BufferInvalidationMessageELNS0_8MQFlavorE2EEE",
   "name" : "const android::hardware::MessageQueue<android::hardware::media::bufferpool::V2_0::BufferInvalidationMessage, android::hardware::kUnsynchronizedWrite> *",
   "referenced_type" : "_ZTIKN7android8hardware12MessageQueueINS0_5media10bufferpool4V2_025BufferInvalidationMessageELNS0_8MQFlavorE2EEE",
   "self_type" : "_ZTIPKN7android8hardware12MessageQueueINS0_5media10bufferpool4V2_025BufferInvalidationMessageELNS0_8MQFlavorE2EEE",
   "size" : 8,
   "source_file" : "/system/libfmq/include/fmq/MessageQueue.h"
  },
  {
   "alignment" : 8,
   "linker_set_key" : "_ZTIPKN7android8hardware12hidl_versionE",
   "name" : "const android::hardware::hidl_version *",
   "referenced_type" : "_ZTIKN7android8hardware12hidl_versionE",
   "self_type" : "_ZTIPKN7android8hardware12hidl_versionE",
   "size" : 8,
   "source_file" : "/system/libhidl/base/include/hidl/HidlSupport.h"
  },
  {
   "alignment" : 8,
   "linker_set_key" : "_ZTIPKN7android8hardware5media10bufferpool4V2_011IConnectionE",
   "name" : "const android::hardware::media::bufferpool::V2_0::IConnection *",
   "referenced_type" : "_ZTIKN7android8hardware5media10bufferpool4V2_011IConnectionE",
   "self_type" : "_ZTIPKN7android8hardware5media10bufferpool4V2_011IConnectionE",
   "size" : 8,
   "source_file" : "/out/soong/.intermediates/hardware/interfaces/media/bufferpool/2.0/android.hardware.media.bufferpool@2.0_genc++_headers/gen/android/hardware/media/bufferpool/2.0/IConnection.h"
  },
  {
   "alignment" : 8,
   "linker_set_key" : "_ZTIPKN7android8hardware5media10bufferpool4V2_014IClientManagerE",
   "name" : "const android::hardware::media::bufferpool::V2_0::IClientManager *",
   "referenced_type" : "_ZTIKN7android8hardware5media10bufferpool4V2_014IClientManagerE",
   "self_type" : "_ZTIPKN7android8hardware5media10bufferpool4V2_014IClientManagerE",
   "size" : 8,
   "source_file" : "/out/soong/.intermediates/hardware/interfaces/media/bufferpool/2.0/android.hardware.media.bufferpool@2.0_genc++_headers/gen/android/hardware/media/bufferpool/2.0/IClientManager.h"
  },
  {
   "alignment" : 8,
   "linker_set_key" : "_ZTIPKN7android8hardware5media10bufferpool4V2_019BufferStatusMessageE",
   "name" : "const android::hardware::media::bufferpool::V2_0::BufferStatusMessage *",
   "referenced_type" : "_ZTIKN7android8hardware5media10bufferpool4V2_019BufferStatusMessageE",
   "self_type" : "_ZTIPKN7android8hardware5media10bufferpool4V2_019BufferStatusMessageE",
   "size" : 8,
   "source_file" : "/system/libfmq/include/fmq/MessageQueue.h"
  },
  {
   "alignment" : 8,
   "linker_set_key" : "_ZTIPKN7android8hardware5media10bufferpool4V2_025BufferInvalidationMessageE",
   "name" : "const android::hardware::media::bufferpool::V2_0::BufferInvalidationMessage *",
   "referenced_type" : "_ZTIKN7android8hardware5media10bufferpool4V2_025BufferInvalidationMessageE",
   "self_type" : "_ZTIPKN7android8hardware5media10bufferpool4V2_025BufferInvalidationMessageE",
   "size" : 8,
   "source_file" : "/system/libfmq/include/fmq/MessageQueue.h"
  },
  {
   "alignment" : 8,
   "linker_set_key" : "_ZTIPKN7android8hardware5media10bufferpool4V2_09IAccessorE",
   "name" : "const android::hardware::media::bufferpool::V2_0::IAccessor *",
   "referenced_type" : "_ZTIKN7android8hardware5media10bufferpool4V2_09IAccessorE",
   "self_type" : "_ZTIPKN7android8hardware5media10bufferpool4V2_09IAccessorE",
   "size" : 8,
   "source_file" : "/out/soong/.intermediates/hardware/interfaces/media/bufferpool/2.0/android.hardware.media.bufferpool@2.0_genc++_headers/gen/android/hardware/media/bufferpool/2.0/IAccessor.h"
  },
  {
   "alignment" : 8,
   "linker_set_key" : "_ZTIPKN7android8hardware5media10bufferpool4V2_09IObserverE",
   "name" : "const android::hardware::media::bufferpool::V2_0::IObserver *",
   "referenced_type" : "_ZTIKN7android8hardware5media10bufferpool4V2_09IObserverE",
   "self_type" : "_ZTIPKN7android8hardware5media10bufferpool4V2_09IObserverE",
   "size" : 8,
   "source_file" : "/out/soong/.intermediates/hardware/interfaces/media/bufferpool/2.0/android.hardware.media.bufferpool@2.0_genc++_headers/gen/android/hardware/media/bufferpool/2.0/IObserver.h"
  },
  {
   "alignment" : 8,
   "linker_set_key" : "_ZTIPKN7android8hardware6StatusE",
   "name" : "const android::hardware::Status *",
   "referenced_type" : "_ZTIKN7android8hardware6StatusE",
   "self_type" : "_ZTIPKN7android8hardware6StatusE",
   "size" : 8,
   "source_file" : "/system/libhidl/base/include/hidl/Status.h"
  },
  {
   "alignment" : 8,
   "linker_set_key" : "_ZTIPKN7android8hardware7details12hidl_pointerI13native_handleEE",
   "name" : "const android::hardware::details::hidl_pointer<native_handle> *",
   "referenced_type" : "_ZTIKN7android8hardware7details12hidl_pointerI13native_handleEE",
   "self_type" : "_ZTIPKN7android8hardware7details12hidl_pointerI13native_handleEE",
   "size" : 8,
   "source_file" : "/system/libhidl/base/include/hidl/HidlInternal.h"
  },
  {
   "alignment" : 8,
   "linker_set_key" : "_ZTIPKN7android8hardware7details12hidl_pointerINS0_17GrantorDescriptorEEE",
   "name" : "const android::hardware::details::hidl_pointer<android::hardware::GrantorDescriptor> *",
   "referenced_type" : "_ZTIKN7android8hardware7details12hidl_pointerINS0_17GrantorDescriptorEEE",
   "self_type" : "_ZTIPKN7android8hardware7details12hidl_pointerINS0_17GrantorDescriptorEEE",
   "size" : 8,
   "source_file" : "/system/libhidl/base/include/hidl/HidlInternal.h"
  },
  {
   "alignment" : 8,
   "linker_set_key" : "_ZTIPKN7android8hardware7details13return_statusE",
   "name" : "const android::hardware::details::return_status *",
   "referenced_type" : "_ZTIKN7android8hardware7details13return_statusE",
   "self_type" : "_ZTIPKN7android8hardware7details13return_statusE",
   "size" : 8,
   "source_file" : "/system/libhidl/base/include/hidl/Status.h"
  },
  {
   "alignment" : 8,
   "linker_set_key" : "_ZTIPKN7android8hardware8hidl_vecINS0_17GrantorDescriptorEEE",
   "name" : "const android::hardware::hidl_vec<android::hardware::GrantorDescriptor> *",
   "referenced_type" : "_ZTIKN7android8hardware8hidl_vecINS0_17GrantorDescriptorEEE",
   "self_type" : "_ZTIPKN7android8hardware8hidl_vecINS0_17GrantorDescriptorEEE",
   "size" : 8,
   "source_file" : "/system/libhidl/base/include/hidl/HidlSupport.h"
  },
  {
   "alignment" : 8,
   "linker_set_key" : "_ZTIPKc",
   "name" : "const char *",
   "referenced_type" : "_ZTIKc",
   "self_type" : "_ZTIPKc",
   "size" : 8,
   "source_file" : "/system/libhidl/base/include/hidl/HidlInternal.h"
  },
  {
   "alignment" : 8,
   "linker_set_key" : "_ZTIPKh",
   "name" : "const unsigned char *",
   "referenced_type" : "_ZTIKh",
   "self_type" : "_ZTIPKh",
   "size" : 8,
   "source_file" : "/system/libhwbinder/include/hwbinder/Parcel.h"
  },
  {
   "alignment" : 8,
   "linker_set_key" : "_ZTIPKv",
   "name" : "const void *",
   "referenced_type" : "_ZTIKv",
   "self_type" : "_ZTIPKv",
   "size" : 8,
   "source_file" : "/system/core/libutils/include/utils/StrongPointer.h"
  },
  {
   "alignment" : 8,
   "linker_set_key" : "_ZTIPKy",
   "name" : "const unsigned long long *",
   "referenced_type" : "_ZTIKy",
   "self_type" : "_ZTIPKy",
   "size" : 8,
   "source_file" : "/system/libhwbinder/include/hwbinder/Parcel.h"
  },
  {
   "alignment" : 8,
   "linker_set_key" : "_ZTIPN7android16ReferenceRenamerE",
   "name" : "android::ReferenceRenamer *",
   "referenced_type" : "_ZTIN7android16ReferenceRenamerE",
   "self_type" : "_ZTIPN7android16ReferenceRenamerE",
   "size" : 8,
   "source_file" : "/system/core/libutils/include/utils/RefBase.h"
  },
  {
   "alignment" : 8,
   "linker_set_key" : "_ZTIPN7android19VirtualLightRefBaseE",
   "name" : "android::VirtualLightRefBase *",
   "referenced_type" : "_ZTIN7android19VirtualLightRefBaseE",
   "self_type" : "_ZTIPN7android19VirtualLightRefBaseE",
   "size" : 8,
   "source_file" : "/system/core/libutils/include/utils/LightRefBase.h"
  },
  {
   "alignment" : 8,
   "linker_set_key" : "_ZTIPN7android2spINS_4hidl4base4V1_05IBaseEEE",
   "name" : "android::sp<android::hidl::base::V1_0::IBase> *",
   "referenced_type" : "_ZTIN7android2spINS_4hidl4base4V1_05IBaseEEE",
   "self_type" : "_ZTIPN7android2spINS_4hidl4base4V1_05IBaseEEE",
   "size" : 8,
   "source_file" : "/system/core/libutils/include/utils/StrongPointer.h"
  },
  {
   "alignment" : 8,
   "linker_set_key" : "_ZTIPN7android2spINS_4hidl7manager4V1_020IServiceNotificationEEE",
   "name" : "android::sp<android::hidl::manager::V1_0::IServiceNotification> *",
   "referenced_type" : "_ZTIN7android2spINS_4hidl7manager4V1_020IServiceNotificationEEE",
   "self_type" : "_ZTIPN7android2spINS_4hidl7manager4V1_020IServiceNotificationEEE",
   "size" : 8,
   "source_file" : "/system/core/libutils/include/utils/StrongPointer.h"
  },
  {
   "alignment" : 8,
   "linker_set_key" : "_ZTIPN7android2spINS_8hardware20hidl_death_recipientEEE",
   "name" : "android::sp<android::hardware::hidl_death_recipient> *",
   "referenced_type" : "_ZTIN7android2spINS_8hardware20hidl_death_recipientEEE",
   "self_type" : "_ZTIPN7android2spINS_8hardware20hidl_death_recipientEEE",
   "size" : 8,
   "source_file" : "/system/core/libutils/include/utils/StrongPointer.h"
  },
  {
   "alignment" : 8,
   "linker_set_key" : "_ZTIPN7android2spINS_8hardware5media10bufferpool4V2_011IConnectionEEE",
   "name" : "android::sp<android::hardware::media::bufferpool::V2_0::IConnection> *",
   "referenced_type" : "_ZTIN7android2spINS_8hardware5media10bufferpool4V2_011IConnectionEEE",
   "self_type" : "_ZTIPN7android2spINS_8hardware5media10bufferpool4V2_011IConnectionEEE",
   "size" : 8,
   "source_file" : "/system/core/libutils/include/utils/StrongPointer.h"
  },
  {
   "alignment" : 8,
   "linker_set_key" : "_ZTIPN7android2spINS_8hardware5media10bufferpool4V2_014IClientManagerEEE",
   "name" : "android::sp<android::hardware::media::bufferpool::V2_0::IClientManager> *",
   "referenced_type" : "_ZTIN7android2spINS_8hardware5media10bufferpool4V2_014IClientManagerEEE",
   "self_type" : "_ZTIPN7android2spINS_8hardware5media10bufferpool4V2_014IClientManagerEEE",
   "size" : 8,
   "source_file" : "/system/core/libutils/include/utils/StrongPointer.h"
  },
  {
   "alignment" : 8,
   "linker_set_key" : "_ZTIPN7android2spINS_8hardware5media10bufferpool4V2_014implementation10ConnectionEEE",
   "name" : "android::sp<android::hardware::media::bufferpool::V2_0::implementation::Connection> *",
   "referenced_type" : "_ZTIN7android2spINS_8hardware5media10bufferpool4V2_014implementation10ConnectionEEE",
   "self_type" : "_ZTIPN7android2spINS_8hardware5media10bufferpool4V2_014implementation10ConnectionEEE",
   "size" : 8,
   "source_file" : "/system/core/libutils/include/utils/StrongPointer.h"
  },
  {
   "alignment" : 8,
   "linker_set_key" : "_ZTIPN7android2spINS_8hardware5media10bufferpool4V2_014implementation13ClientManagerEEE",
   "name" : "android::sp<android::hardware::media::bufferpool::V2_0::implementation::ClientManager> *",
   "referenced_type" : "_ZTIN7android2spINS_8hardware5media10bufferpool4V2_014implementation13ClientManagerEEE",
   "self_type" : "_ZTIPN7android2spINS_8hardware5media10bufferpool4V2_014implementation13ClientManagerEEE",
   "size" : 8,
   "source_file" : "/system/core/libutils/include/utils/StrongPointer.h"
  },
  {
   "alignment" : 8,
   "linker_set_key" : "_ZTIPN7android2spINS_8hardware5media10bufferpool4V2_014implementation24ConnectionDeathRecipientEEE",
   "name" : "android::sp<android::hardware::media::bufferpool::V2_0::implementation::ConnectionDeathRecipient> *",
   "referenced_type" : "_ZTIN7android2spINS_8hardware5media10bufferpool4V2_014implementation24ConnectionDeathRecipientEEE",
   "self_type" : "_ZTIPN7android2spINS_8hardware5media10bufferpool4V2_014implementation24ConnectionDeathRecipientEEE",
   "size" : 8,
   "source_file" : "/system/core/libutils/include/utils/StrongPointer.h"
  },
  {
   "alignment" : 8,
   "linker_set_key" : "_ZTIPN7android2spINS_8hardware5media10bufferpool4V2_014implementation8AccessorEEE",
   "name" : "android::sp<android::hardware::media::bufferpool::V2_0::implementation::Accessor> *",
   "referenced_type" : "_ZTIN7android2spINS_8hardware5media10bufferpool4V2_014implementation8AccessorEEE",
   "self_type" : "_ZTIPN7android2spINS_8hardware5media10bufferpool4V2_014implementation8AccessorEEE",
   "size" : 8,
   "source_file" : "/system/core/libutils/include/utils/StrongPointer.h"
  },
  {
   "alignment" : 8,
   "linker_set_key" : "_ZTIPN7android2spINS_8hardware5media10bufferpool4V2_014implementation8ObserverEEE",
   "name" : "android::sp<android::hardware::media::bufferpool::V2_0::implementation::Observer> *",
   "referenced_type" : "_ZTIN7android2spINS_8hardware5media10bufferpool4V2_014implementation8ObserverEEE",
   "self_type" : "_ZTIPN7android2spINS_8hardware5media10bufferpool4V2_014implementation8ObserverEEE",
   "size" : 8,
   "source_file" : "/system/core/libutils/include/utils/StrongPointer.h"
  },
  {
   "alignment" : 8,
   "linker_set_key" : "_ZTIPN7android2spINS_8hardware5media10bufferpool4V2_09IAccessorEEE",
   "name" : "android::sp<android::hardware::media::bufferpool::V2_0::IAccessor> *",
   "referenced_type" : "_ZTIN7android2spINS_8hardware5media10bufferpool4V2_09IAccessorEEE",
   "self_type" : "_ZTIPN7android2spINS_8hardware5media10bufferpool4V2_09IAccessorEEE",
   "size" : 8,
   "source_file" : "/system/core/libutils/include/utils/StrongPointer.h"
  },
  {
   "alignment" : 8,
   "linker_set_key" : "_ZTIPN7android2spINS_8hardware5media10bufferpool4V2_09IObserverEEE",
   "name" : "android::sp<android::hardware::media::bufferpool::V2_0::IObserver> *",
   "referenced_type" : "_ZTIN7android2spINS_8hardware5media10bufferpool4V2_09IObserverEEE",
   "self_type" : "_ZTIPN7android2spINS_8hardware5media10bufferpool4V2_09IObserverEEE",
   "size" : 8,
   "source_file" : "/system/core/libutils/include/utils/StrongPointer.h"
  },
  {
   "alignment" : 8,
   "linker_set_key" : "_ZTIPN7android2wpINS_8hardware5media10bufferpool4V2_014IClientManagerEEE",
   "name" : "android::wp<android::hardware::media::bufferpool::V2_0::IClientManager> *",
   "referenced_type" : "_ZTIN7android2wpINS_8hardware5media10bufferpool4V2_014IClientManagerEEE",
   "self_type" : "_ZTIPN7android2wpINS_8hardware5media10bufferpool4V2_014IClientManagerEEE",
   "size" : 8,
   "source_file" : "/system/core/libutils/include/utils/RefBase.h"
  },
  {
   "alignment" : 8,
   "linker_set_key" : "_ZTIPN7android2wpINS_8hardware5media10bufferpool4V2_014implementation8AccessorEEE",
   "name" : "android::wp<android::hardware::media::bufferpool::V2_0::implementation::Accessor> *",
   "referenced_type" : "_ZTIN7android2wpINS_8hardware5media10bufferpool4V2_014implementation8AccessorEEE",
   "self_type" : "_ZTIPN7android2wpINS_8hardware5media10bufferpool4V2_014implementation8AccessorEEE",
   "size" : 8,
   "source_file" : "/system/core/libutils/include/utils/RefBase.h"
  },
  {
   "alignment" : 8,
   "linker_set_key" : "_ZTIPN7android2wpINS_8hardware5media10bufferpool4V2_09IAccessorEEE",
   "name" : "android::wp<android::hardware::media::bufferpool::V2_0::IAccessor> *",
   "referenced_type" : "_ZTIN7android2wpINS_8hardware5media10bufferpool4V2_09IAccessorEEE",
   "self_type" : "_ZTIPN7android2wpINS_8hardware5media10bufferpool4V2_09IAccessorEEE",
   "size" : 8,
   "source_file" : "/system/core/libutils/include/utils/RefBase.h"
  },
  {
   "alignment" : 8,
   "linker_set_key" : "_ZTIPN7android4hidl4base4V1_05IBaseE",
   "name" : "android::hidl::base::V1_0::IBase *",
   "referenced_type" : "_ZTIN7android4hidl4base4V1_05IBaseE",
   "self_type" : "_ZTIPN7android4hidl4base4V1_05IBaseE",
   "size" : 8,
   "source_file" : "/system/core/libutils/include/utils/StrongPointer.h"
  },
  {
   "alignment" : 8,
   "linker_set_key" : "_ZTIPN7android4hidl4base4V1_08BnHwBaseE",
   "name" : "android::hidl::base::V1_0::BnHwBase *",
   "referenced_type" : "_ZTIN7android4hidl4base4V1_08BnHwBaseE",
   "self_type" : "_ZTIPN7android4hidl4base4V1_08BnHwBaseE",
   "size" : 8,
   "source_file" : "/out/soong/.intermediates/system/libhidl/transport/base/1.0/android.hidl.base@1.0_genc++_headers/gen/android/hidl/base/1.0/BnHwBase.h"
  },
  {
   "alignment" : 8,
   "linker_set_key" : "_ZTIPN7android4hidl7manager4V1_020IServiceNotificationE",
   "name" : "android::hidl::manager::V1_0::IServiceNotification *",
   "referenced_type" : "_ZTIN7android4hidl7manager4V1_020IServiceNotificationE",
   "self_type" : "_ZTIPN7android4hidl7manager4V1_020IServiceNotificationE",
   "size" : 8,
   "source_file" : "/system/core/libutils/include/utils/StrongPointer.h"
  },
  {
   "alignment" : 8,
   "linker_set_key" : "_ZTIPN7android7RefBase12weakref_implE",
   "name" : "android::RefBase::weakref_impl *",
   "referenced_type" : "_ZTIN7android7RefBase12weakref_implE",
   "self_type" : "_ZTIPN7android7RefBase12weakref_implE",
   "size" : 8,
   "source_file" : "/system/core/libutils/include/utils/RefBase.h"
  },
  {
   "alignment" : 8,
   "linker_set_key" : "_ZTIPN7android7RefBase12weakref_typeE",
   "name" : "android::RefBase::weakref_type *",
   "referenced_type" : "_ZTIN7android7RefBase12weakref_typeE",
   "self_type" : "_ZTIPN7android7RefBase12weakref_typeE",
   "size" : 8,
   "source_file" : "/system/core/libutils/include/utils/RefBase.h"
  },
  {
   "alignment" : 8,
   "linker_set_key" : "_ZTIPN7android7RefBaseE",
   "name" : "android::RefBase *",
   "referenced_type" : "_ZTIN7android7RefBaseE",
   "self_type" : "_ZTIPN7android7RefBaseE",
   "size" : 8,
   "source_file" : "/system/core/libutils/include/utils/RefBase.h"
  },
  {
   "alignment" : 8,
   "linker_set_key" : "_ZTIPN7android7String8E",
   "name" : "android::String8 *",
   "referenced_type" : "_ZTIN7android7String8E",
   "self_type" : "_ZTIPN7android7String8E",
   "size" : 8,
   "source_file" : "/system/core/libutils/include/utils/String8.h"
  },
  {
   "alignment" : 8,
   "linker_set_key" : "_ZTIPN7android8String16E",
   "name" : "android::String16 *",
   "referenced_type" : "_ZTIN7android8String16E",
   "self_type" : "_ZTIPN7android8String16E",
   "size" : 8,
   "source_file" : "/system/core/libutils/include/utils/String16.h"
  },
  {
   "alignment" : 8,
   "linker_set_key" : "_ZTIPN7android8hardware11hidl_memoryE",
   "name" : "android::hardware::hidl_memory *",
   "referenced_type" : "_ZTIN7android8hardware11hidl_memoryE",
   "self_type" : "_ZTIPN7android8hardware11hidl_memoryE",
   "size" : 8,
   "source_file" : "/system/libhidl/base/include/hidl/HidlSupport.h"
  },
  {
   "alignment" : 8,
   "linker_set_key" : "_ZTIPN7android8hardware12MQDescriptorINS0_5media10bufferpool4V2_019BufferStatusMessageELNS0_8MQFlavorE1EEE",
   "name" : "android::hardware::MQDescriptor<android::hardware::media::bufferpool::V2_0::BufferStatusMessage, android::hardware::kSynchronizedReadWrite> *",
   "referenced_type" : "_ZTIN7android8hardware12MQDescriptorINS0_5media10bufferpool4V2_019BufferStatusMessageELNS0_8MQFlavorE1EEE",
   "self_type" : "_ZTIPN7android8hardware12MQDescriptorINS0_5media10bufferpool4V2_019BufferStatusMessageELNS0_8MQFlavorE1EEE",
   "size" : 8,
   "source_file" : "/system/libhidl/base/include/hidl/MQDescriptor.h"
  },
  {
   "alignment" : 8,
   "linker_set_key" : "_ZTIPN7android8hardware12MQDescriptorINS0_5media10bufferpool4V2_025BufferInvalidationMessageELNS0_8MQFlavorE2EEE",
   "name" : "android::hardware::MQDescriptor<android::hardware::media::bufferpool::V2_0::BufferInvalidationMessage, android::hardware::kUnsynchronizedWrite> *",
   "referenced_type" : "_ZTIN7android8hardware12MQDescriptorINS0_5media10bufferpool4V2_025BufferInvalidationMessageELNS0_8MQFlavorE2EEE",
   "self_type" : "_ZTIPN7android8hardware12MQDescriptorINS0_5media10bufferpool4V2_025BufferInvalidationMessageELNS0_8MQFlavorE2EEE",
   "size" : 8,
   "source_file" : "/system/libhidl/base/include/hidl/MQDescriptor.h"
  },
  {
   "alignment" : 8,
   "linker_set_key" : "_ZTIPN7android8hardware12MessageQueueINS0_5media10bufferpool4V2_019BufferStatusMessageELNS0_8MQFlavorE1EE14MemTransactionE",
   "name" : "android::hardware::MessageQueue<BufferStatusMessage, android::hardware::kSynchronizedReadWrite>::MemTransaction *",
   "referenced_type" : "_ZTIN7android8hardware12MessageQueueINS0_5media10bufferpool4V2_019BufferStatusMessageELNS0_8MQFlavorE1EE14MemTransactionE",
   "self_type" : "_ZTIPN7android8hardware12MessageQueueINS0_5media10bufferpool4V2_019BufferStatusMessageELNS0_8MQFlavorE1EE14MemTransactionE",
   "size" : 8,
   "source_file" : "/system/libfmq/include/fmq/MessageQueue.h"
  },
  {
   "alignment" : 8,
   "linker_set_key" : "_ZTIPN7android8hardware12MessageQueueINS0_5media10bufferpool4V2_019BufferStatusMessageELNS0_8MQFlavorE1EE9MemRegionE",
   "name" : "android::hardware::MessageQueue<BufferStatusMessage, android::hardware::kSynchronizedReadWrite>::MemRegion *",
   "referenced_type" : "_ZTIN7android8hardware12MessageQueueINS0_5media10bufferpool4V2_019BufferStatusMessageELNS0_8MQFlavorE1EE9MemRegionE",
   "self_type" : "_ZTIPN7android8hardware12MessageQueueINS0_5media10bufferpool4V2_019BufferStatusMessageELNS0_8MQFlavorE1EE9MemRegionE",
   "size" : 8,
   "source_file" : "/system/libfmq/include/fmq/MessageQueue.h"
  },
  {
   "alignment" : 8,
   "linker_set_key" : "_ZTIPN7android8hardware12MessageQueueINS0_5media10bufferpool4V2_019BufferStatusMessageELNS0_8MQFlavorE1EEE",
   "name" : "android::hardware::MessageQueue<android::hardware::media::bufferpool::V2_0::BufferStatusMessage, android::hardware::kSynchronizedReadWrite> *",
   "referenced_type" : "_ZTIN7android8hardware12MessageQueueINS0_5media10bufferpool4V2_019BufferStatusMessageELNS0_8MQFlavorE1EEE",
   "self_type" : "_ZTIPN7android8hardware12MessageQueueINS0_5media10bufferpool4V2_019BufferStatusMessageELNS0_8MQFlavorE1EEE",
   "size" : 8,
   "source_file" : "/system/libfmq/include/fmq/MessageQueue.h"
  },
  {
   "alignment" : 8,
   "linker_set_key" : "_ZTIPN7android8hardware12MessageQueueINS0_5media10bufferpool4V2_025BufferInvalidationMessageELNS0_8MQFlavorE2EE14MemTransactionE",
   "name" : "android::hardware::MessageQueue<BufferInvalidationMessage, android::hardware::kUnsynchronizedWrite>::MemTransaction *",
   "referenced_type" : "_ZTIN7android8hardware12MessageQueueINS0_5media10bufferpool4V2_025BufferInvalidationMessageELNS0_8MQFlavorE2EE14MemTransactionE",
   "self_type" : "_ZTIPN7android8hardware12MessageQueueINS0_5media10bufferpool4V2_025BufferInvalidationMessageELNS0_8MQFlavorE2EE14MemTransactionE",
   "size" : 8,
   "source_file" : "/system/libfmq/include/fmq/MessageQueue.h"
  },
  {
   "alignment" : 8,
   "linker_set_key" : "_ZTIPN7android8hardware12MessageQueueINS0_5media10bufferpool4V2_025BufferInvalidationMessageELNS0_8MQFlavorE2EE9MemRegionE",
   "name" : "android::hardware::MessageQueue<BufferInvalidationMessage, android::hardware::kUnsynchronizedWrite>::MemRegion *",
   "referenced_type" : "_ZTIN7android8hardware12MessageQueueINS0_5media10bufferpool4V2_025BufferInvalidationMessageELNS0_8MQFlavorE2EE9MemRegionE",
   "self_type" : "_ZTIPN7android8hardware12MessageQueueINS0_5media10bufferpool4V2_025BufferInvalidationMessageELNS0_8MQFlavorE2EE9MemRegionE",
   "size" : 8,
   "source_file" : "/system/libfmq/include/fmq/MessageQueue.h"
  },
  {
   "alignment" : 8,
   "linker_set_key" : "_ZTIPN7android8hardware12MessageQueueINS0_5media10bufferpool4V2_025BufferInvalidationMessageELNS0_8MQFlavorE2EEE",
   "name" : "android::hardware::MessageQueue<android::hardware::media::bufferpool::V2_0::BufferInvalidationMessage, android::hardware::kUnsynchronizedWrite> *",
   "referenced_type" : "_ZTIN7android8hardware12MessageQueueINS0_5media10bufferpool4V2_025BufferInvalidationMessageELNS0_8MQFlavorE2EEE",
   "self_type" : "_ZTIPN7android8hardware12MessageQueueINS0_5media10bufferpool4V2_025BufferInvalidationMessageELNS0_8MQFlavorE2EEE",
   "size" : 8,
   "source_file" : "/system/libfmq/include/fmq/MessageQueue.h"
  },
  {
   "alignment" : 8,
   "linker_set_key" : "_ZTIPN7android8hardware12hidl_versionE",
   "name" : "android::hardware::hidl_version *",
   "referenced_type" : "_ZTIN7android8hardware12hidl_versionE",
   "self_type" : "_ZTIPN7android8hardware12hidl_versionE",
   "size" : 8,
   "source_file" : "/system/libhidl/base/include/hidl/HidlSupport.h"
  },
  {
   "alignment" : 8,
   "linker_set_key" : "_ZTIPN7android8hardware17GrantorDescriptorE",
   "name" : "android::hardware::GrantorDescriptor *",
   "referenced_type" : "_ZTIN7android8hardware17GrantorDescriptorE",
   "self_type" : "_ZTIPN7android8hardware17GrantorDescriptorE",
   "size" : 8,
   "source_file" : "/system/libhidl/base/include/hidl/HidlInternal.h"
  },
  {
   "alignment" : 8,
   "linker_set_key" : "_ZTIPN7android8hardware20hidl_death_recipientE",
   "name" : "android::hardware::hidl_death_recipient *",
   "referenced_type" : "_ZTIN7android8hardware20hidl_death_recipientE",
   "self_type" : "_ZTIPN7android8hardware20hidl_death_recipientE",
   "size" : 8,
   "source_file" : "/system/core/libutils/include/utils/StrongPointer.h"
  },
  {
   "alignment" : 8,
   "linker_set_key" : "_ZTIPN7android8hardware5media10bufferpool14BufferPoolDataE",
   "name" : "android::hardware::media::bufferpool::BufferPoolData *",
   "referenced_type" : "_ZTIN7android8hardware5media10bufferpool14BufferPoolDataE",
   "self_type" : "_ZTIPN7android8hardware5media10bufferpool14BufferPoolDataE",
   "size" : 8,
   "source_file" : "/frameworks/av/media/bufferpool/2.0/include/bufferpool/BufferPoolTypes.h"
  },
  {
   "alignment" : 8,
   "linker_set_key" : "_ZTIPN7android8hardware5media10bufferpool4V2_011IConnectionE",
   "name" : "android::hardware::media::bufferpool::V2_0::IConnection *",
   "referenced_type" : "_ZTIN7android8hardware5media10bufferpool4V2_011IConnectionE",
   "self_type" : "_ZTIPN7android8hardware5media10bufferpool4V2_011IConnectionE",
   "size" : 8,
   "source_file" : "/system/core/libutils/include/utils/StrongPointer.h"
  },
  {
   "alignment" : 8,
   "linker_set_key" : "_ZTIPN7android8hardware5media10bufferpool4V2_014IClientManagerE",
   "name" : "android::hardware::media::bufferpool::V2_0::IClientManager *",
   "referenced_type" : "_ZTIN7android8hardware5media10bufferpool4V2_014IClientManagerE",
   "self_type" : "_ZTIPN7android8hardware5media10bufferpool4V2_014IClientManagerE",
   "size" : 8,
   "source_file" : "/system/core/libutils/include/utils/RefBase.h"
  },
  {
   "alignment" : 8,
   "linker_set_key" : "_ZTIPN7android8hardware5media10bufferpool4V2_014implementation10ConnectionE",
   "name" : "android::hardware::media::bufferpool::V2_0::implementation::Connection *",
   "referenced_type" : "_ZTIN7android8hardware5media10bufferpool4V2_014implementation10ConnectionE",
   "self_type" : "_ZTIPN7android8hardware5media10bufferpool4V2_014implementation10ConnectionE",
   "size" : 8,
   "source_file" : "/system/core/libutils/include/utils/StrongPointer.h"
  },
  {
   "alignment" : 8,
   "linker_set_key" : "_ZTIPN7android8hardware5media10bufferpool4V2_014implementation13ClientManagerE",
   "name" : "android::hardware::media::bufferpool::V2_0::implementation::ClientManager *",
   "referenced_type" : "_ZTIN7android8hardware5media10bufferpool4V2_014implementation13ClientManagerE",
   "self_type" : "_ZTIPN7android8hardware5media10bufferpool4V2_014implementation13ClientManagerE",
   "size" : 8,
   "source_file" : "/system/core/libutils/include/utils/StrongPointer.h"
  },
  {
   "alignment" : 8,
   "linker_set_key" : "_ZTIPN7android8hardware5media10bufferpool4V2_014implementation19BufferPoolAllocatorE",
   "name" : "android::hardware::media::bufferpool::V2_0::implementation::BufferPoolAllocator *",
   "referenced_type" : "_ZTIN7android8hardware5media10bufferpool4V2_014implementation19BufferPoolAllocatorE",
   "self_type" : "_ZTIPN7android8hardware5media10bufferpool4V2_014implementation19BufferPoolAllocatorE",
   "size" : 8,
   "source_file" : "/frameworks/av/media/bufferpool/2.0/include/bufferpool/BufferPoolTypes.h"
  },
  {
   "alignment" : 8,
   "linker_set_key" : "_ZTIPN7android8hardware5media10bufferpool4V2_014implementation20BufferPoolAllocationE",
   "name" : "android::hardware::media::bufferpool::V2_0::implementation::BufferPoolAllocation *",
   "referenced_type" : "_ZTIN7android8hardware5media10bufferpool4V2_014implementation20BufferPoolAllocationE",
   "self_type" : "_ZTIPN7android8hardware5media10bufferpool4V2_014implementation20BufferPoolAllocationE",
   "size" : 8,
   "source_file" : "/frameworks/av/media/bufferpool/2.0/include/bufferpool/BufferPoolTypes.h"
  },
  {
   "alignment" : 8,
   "linker_set_key" : "_ZTIPN7android8hardware5media10bufferpool4V2_014implementation24ConnectionDeathRecipientE",
   "name" : "android::hardware::media::bufferpool::V2_0::implementation::ConnectionDeathRecipient *",
   "referenced_type" : "_ZTIN7android8hardware5media10bufferpool4V2_014implementation24ConnectionDeathRecipientE",
   "self_type" : "_ZTIPN7android8hardware5media10bufferpool4V2_014implementation24ConnectionDeathRecipientE",
   "size" : 8,
   "source_file" : "/system/core/libutils/include/utils/StrongPointer.h"
  },
  {
   "alignment" : 8,
   "linker_set_key" : "_ZTIPN7android8hardware5media10bufferpool4V2_014implementation8AccessorE",
   "name" : "android::hardware::media::bufferpool::V2_0::implementation::Accessor *",
   "referenced_type" : "_ZTIN7android8hardware5media10bufferpool4V2_014implementation8AccessorE",
   "self_type" : "_ZTIPN7android8hardware5media10bufferpool4V2_014implementation8AccessorE",
   "size" : 8,
   "source_file" : "/system/core/libutils/include/utils/RefBase.h"
  },
  {
   "alignment" : 8,
   "linker_set_key" : "_ZTIPN7android8hardware5media10bufferpool4V2_014implementation8ObserverE",
   "name" : "android::hardware::media::bufferpool::V2_0::implementation::Observer *",
   "referenced_type" : "_ZTIN7android8hardware5media10bufferpool4V2_014implementation8ObserverE",
   "self_type" : "_ZTIPN7android8hardware5media10bufferpool4V2_014implementation8ObserverE",
   "size" : 8,
   "source_file" : "/system/core/libutils/include/utils/StrongPointer.h"
  },
  {
   "alignment" : 8,
   "linker_set_key" : "_ZTIPN7android8hardware5media10bufferpool4V2_019BufferStatusMessageE",
   "name" : "android::hardware::media::bufferpool::V2_0::BufferStatusMessage *",
   "referenced_type" : "_ZTIN7android8hardware5media10bufferpool4V2_019BufferStatusMessageE",
   "self_type" : "_ZTIPN7android8hardware5media10bufferpool4V2_019BufferStatusMessageE",
   "size" : 8,
   "source_file" : "/system/libfmq/include/fmq/MessageQueue.h"
  },
  {
   "alignment" : 8,
   "linker_set_key" : "_ZTIPN7android8hardware5media10bufferpool4V2_025BufferInvalidationMessageE",
   "name" : "android::hardware::media::bufferpool::V2_0::BufferInvalidationMessage *",
   "referenced_type" : "_ZTIN7android8hardware5media10bufferpool4V2_025BufferInvalidationMessageE",
   "self_type" : "_ZTIPN7android8hardware5media10bufferpool4V2_025BufferInvalidationMessageE",
   "size" : 8,
   "source_file" : "/system/libfmq/include/fmq/MessageQueue.h"
  },
  {
   "alignment" : 8,
   "linker_set_key" : "_ZTIPN7android8hardware5media10bufferpool4V2_09IAccessorE",
   "name" : "android::hardware::media::bufferpool::V2_0::IAccessor *",
   "referenced_type" : "_ZTIN7android8hardware5media10bufferpool4V2_09IAccessorE",
   "self_type" : "_ZTIPN7android8hardware5media10bufferpool4V2_09IAccessorE",
   "size" : 8,
   "source_file" : "/system/core/libutils/include/utils/StrongPointer.h"
  },
  {
   "alignment" : 8,
   "linker_set_key" : "_ZTIPN7android8hardware5media10bufferpool4V2_09IObserverE",
   "name" : "android::hardware::media::bufferpool::V2_0::IObserver *",
   "referenced_type" : "_ZTIN7android8hardware5media10bufferpool4V2_09IObserverE",
   "self_type" : "_ZTIPN7android8hardware5media10bufferpool4V2_09IObserverE",
   "size" : 8,
   "source_file" : "/system/core/libutils/include/utils/StrongPointer.h"
  },
  {
   "alignment" : 8,
   "linker_set_key" : "_ZTIPN7android8hardware6ParcelE",
   "name" : "android::hardware::Parcel *",
   "referenced_type" : "_ZTIN7android8hardware6ParcelE",
   "self_type" : "_ZTIPN7android8hardware6ParcelE",
   "size" : 8,
   "source_file" : "/system/libhwbinder/include/hwbinder/Parcel.h"
  },
  {
   "alignment" : 8,
   "linker_set_key" : "_ZTIPN7android8hardware6ReturnIbEE",
   "name" : "android::hardware::Return<bool> *",
   "referenced_type" : "_ZTIN7android8hardware6ReturnIbEE",
   "self_type" : "_ZTIPN7android8hardware6ReturnIbEE",
   "size" : 8,
   "source_file" : "/system/libhidl/base/include/hidl/Status.h"
  },
  {
   "alignment" : 8,
   "linker_set_key" : "_ZTIPN7android8hardware6ReturnIvEE",
   "name" : "android::hardware::Return<void> *",
   "referenced_type" : "_ZTIN7android8hardware6ReturnIvEE",
   "self_type" : "_ZTIPN7android8hardware6ReturnIvEE",
   "size" : 8,
   "source_file" : "/system/libhidl/base/include/hidl/Status.h"
  },
  {
   "alignment" : 8,
   "linker_set_key" : "_ZTIPN7android8hardware6StatusE",
   "name" : "android::hardware::Status *",
   "referenced_type" : "_ZTIN7android8hardware6StatusE",
   "self_type" : "_ZTIPN7android8hardware6StatusE",
   "size" : 8,
   "source_file" : "/system/libhidl/base/include/hidl/Status.h"
  },
  {
   "alignment" : 8,
   "linker_set_key" : "_ZTIPN7android8hardware7IBinderE",
   "name" : "android::hardware::IBinder *",
   "referenced_type" : "_ZTIN7android8hardware7IBinderE",
   "self_type" : "_ZTIPN7android8hardware7IBinderE",
   "size" : 8,
   "source_file" : "/system/core/libutils/include/utils/StrongPointer.h"
  },
  {
   "alignment" : 8,
   "linker_set_key" : "_ZTIPN7android8hardware7details12hidl_pointerI13native_handleEE",
   "name" : "android::hardware::details::hidl_pointer<native_handle> *",
   "referenced_type" : "_ZTIN7android8hardware7details12hidl_pointerI13native_handleEE",
   "self_type" : "_ZTIPN7android8hardware7details12hidl_pointerI13native_handleEE",
   "size" : 8,
   "source_file" : "/system/libhidl/base/include/hidl/HidlInternal.h"
  },
  {
   "alignment" : 8,
   "linker_set_key" : "_ZTIPN7android8hardware7details12hidl_pointerINS0_17GrantorDescriptorEEE",
   "name" : "android::hardware::details::hidl_pointer<android::hardware::GrantorDescriptor> *",
   "referenced_type" : "_ZTIN7android8hardware7details12hidl_pointerINS0_17GrantorDescriptorEEE",
   "self_type" : "_ZTIPN7android8hardware7details12hidl_pointerINS0_17GrantorDescriptorEEE",
   "size" : 8,
   "source_file" : "/system/libhidl/base/include/hidl/HidlInternal.h"
  },
  {
   "alignment" : 8,
   "linker_set_key" : "_ZTIPN7android8hardware7details13return_statusE",
   "name" : "android::hardware::details::return_status *",
   "referenced_type" : "_ZTIN7android8hardware7details13return_statusE",
   "self_type" : "_ZTIPN7android8hardware7details13return_statusE",
   "size" : 8,
   "source_file" : "/system/libhidl/base/include/hidl/Status.h"
  },
  {
   "alignment" : 8,
   "linker_set_key" : "_ZTIPN7android8hardware7details16HidlInstrumentorE",
   "name" : "android::hardware::details::HidlInstrumentor *",
   "referenced_type" : "_ZTIN7android8hardware7details16HidlInstrumentorE",
   "self_type" : "_ZTIPN7android8hardware7details16HidlInstrumentorE",
   "size" : 8,
   "source_file" : "/system/libhidl/base/include/hidl/HidlInternal.h"
  },
  {
   "alignment" : 8,
   "linker_set_key" : "_ZTIPN7android8hardware8hidl_vecINS0_17GrantorDescriptorEEE",
   "name" : "android::hardware::hidl_vec<android::hardware::GrantorDescriptor> *",
   "referenced_type" : "_ZTIN7android8hardware8hidl_vecINS0_17GrantorDescriptorEEE",
   "self_type" : "_ZTIPN7android8hardware8hidl_vecINS0_17GrantorDescriptorEEE",
   "size" : 8,
   "source_file" : "/system/libhidl/base/include/hidl/HidlSupport.h"
  },
  {
   "alignment" : 8,
   "linker_set_key" : "_ZTIPN7android8hardware9EventFlagE",
   "name" : "android::hardware::EventFlag *",
   "referenced_type" : "_ZTIN7android8hardware9EventFlagE",
   "self_type" : "_ZTIPN7android8hardware9EventFlagE",
   "size" : 8,
   "source_file" : "/system/libfmq/include/fmq/MessageQueue.h"
  },
  {
   "alignment" : 8,
   "linker_set_key" : "_ZTIPNSt3__110shared_ptrIN7android8hardware5media10bufferpool14BufferPoolDataEEE",
   "name" : "std::shared_ptr<android::hardware::media::bufferpool::BufferPoolData> *",
   "referenced_type" : "_ZTINSt3__110shared_ptrIN7android8hardware5media10bufferpool14BufferPoolDataEEE",
   "self_type" : "_ZTIPNSt3__110shared_ptrIN7android8hardware5media10bufferpool14BufferPoolDataEEE",
   "size" : 8,
   "source_file" : "/frameworks/av/media/bufferpool/2.0/include/bufferpool/ClientManager.h"
  },
  {
   "alignment" : 8,
   "linker_set_key" : "_ZTIPNSt3__16atomicIjEE",
   "name" : "std::atomic<unsigned int> *",
   "referenced_type" : "_ZTINSt3__16atomicIjEE",
   "self_type" : "_ZTIPNSt3__16atomicIjEE",
   "size" : 8,
   "source_file" : "/system/libfmq/include/fmq/EventFlag.h"
  },
  {
   "alignment" : 8,
   "linker_set_key" : "_ZTIPNSt3__16atomicImEE",
   "name" : "std::atomic<unsigned long> *",
   "referenced_type" : "_ZTINSt3__16atomicImEE",
   "self_type" : "_ZTIPNSt3__16atomicImEE",
   "size" : 8,
   "source_file" : "/system/libfmq/include/fmq/MessageQueue.h"
  },
  {
   "alignment" : 8,
   "linker_set_key" : "_ZTIPP13native_handle",
   "name" : "native_handle **",
   "referenced_type" : "_ZTIP13native_handle",
   "self_type" : "_ZTIPP13native_handle",
   "size" : 8,
   "source_file" : "/frameworks/av/media/bufferpool/2.0/include/bufferpool/ClientManager.h"
  },
  {
   "alignment" : 8,
   "linker_set_key" : "_ZTIPPN7android8hardware5media10bufferpool4V2_019BufferStatusMessageE",
   "name" : "android::hardware::media::bufferpool::V2_0::BufferStatusMessage **",
   "referenced_type" : "_ZTIPN7android8hardware5media10bufferpool4V2_019BufferStatusMessageE",
   "self_type" : "_ZTIPPN7android8hardware5media10bufferpool4V2_019BufferStatusMessageE",
   "size" : 8,
   "source_file" : "/system/libfmq/include/fmq/MessageQueue.h"
  },
  {
   "alignment" : 8,
   "linker_set_key" : "_ZTIPPN7android8hardware5media10bufferpool4V2_025BufferInvalidationMessageE",
   "name" : "android::hardware::media::bufferpool::V2_0::BufferInvalidationMessage **",
   "referenced_type" : "_ZTIPN7android8hardware5media10bufferpool4V2_025BufferInvalidationMessageE",
   "self_type" : "_ZTIPPN7android8hardware5media10bufferpool4V2_025BufferInvalidationMessageE",
   "size" : 8,
   "source_file" : "/system/libfmq/include/fmq/MessageQueue.h"
  },
  {
   "alignment" : 8,
   "linker_set_key" : "_ZTIPc",
   "name" : "char *",
   "referenced_type" : "_ZTIc",
   "self_type" : "_ZTIPc",
   "size" : 8,
   "source_file" : "/system/core/liblog/include/log/log_read.h"
  },
  {
   "alignment" : 8,
   "linker_set_key" : "_ZTIPh",
   "name" : "unsigned char *",
   "referenced_type" : "_ZTIh",
   "self_type" : "_ZTIPh",
   "size" : 8,
   "source_file" : "/system/libfmq/include/fmq/MessageQueue.h"
  },
  {
   "alignment" : 8,
   "linker_set_key" : "_ZTIPl",
   "name" : "long *",
   "referenced_type" : "_ZTIl",
   "self_type" : "_ZTIPl",
   "size" : 8,
   "source_file" : "/frameworks/av/media/bufferpool/2.0/include/bufferpool/ClientManager.h"
  },
  {
   "alignment" : 8,
   "linker_set_key" : "_ZTIPm",
   "name" : "unsigned long *",
   "referenced_type" : "_ZTIm",
   "self_type" : "_ZTIPm",
   "size" : 8,
   "source_file" : "/frameworks/av/media/bufferpool/2.0/include/bufferpool/ClientManager.h"
  },
  {
   "alignment" : 8,
   "linker_set_key" : "_ZTIPv",
   "name" : "void *",
   "referenced_type" : "_ZTIv",
   "self_type" : "_ZTIPv",
   "size" : 8,
   "source_file" : "/system/libfmq/include/fmq/MessageQueue.h"
  },
  {
   "alignment" : 8,
   "linker_set_key" : "_ZTIPy",
   "name" : "unsigned long long *",
   "referenced_type" : "_ZTIy",
   "self_type" : "_ZTIPy",
   "size" : 8,
   "source_file" : "/system/libhwbinder/include/hwbinder/Parcel.h"
  }
 ],
 "qualified_types" :
 [
  {
   "alignment" : 4,
   "is_const" : true,
   "linker_set_key" : "_ZTIK13native_handle",
   "name" : "const native_handle",
   "referenced_type" : "_ZTI13native_handle",
   "self_type" : "_ZTIK13native_handle",
   "size" : 12,
   "source_file" : "/system/libhidl/base/include/hidl/HidlInternal.h"
  },
  {
   "alignment" : 4,
   "is_const" : true,
   "linker_set_key" : "_ZTIK7log_msg",
   "name" : "const log_msg",
   "referenced_type" : "_ZTI7log_msg",
   "self_type" : "_ZTIK7log_msg",
   "size" : 5124,
   "source_file" : "/system/core/liblog/include/log/log_read.h"
  },
  {
   "alignment" : 2,
   "is_const" : true,
   "linker_set_key" : "_ZTIKDs",
   "name" : "const char16_t",
   "referenced_type" : "_ZTIDs",
   "self_type" : "_ZTIKDs",
   "size" : 2,
   "source_file" : "/system/core/libutils/include/utils/String16.h"
  },
  {
   "alignment" : 8,
   "is_const" : true,
   "linker_set_key" : "_ZTIKN7android12NativeHandleE",
   "name" : "const android::NativeHandle",
   "referenced_type" : "_ZTIN7android12NativeHandleE",
   "self_type" : "_ZTIKN7android12NativeHandleE",
   "size" : 24,
   "source_file" : "/system/core/libutils/include/utils/NativeHandle.h"
  },
  {
   "alignment" : 8,
   "is_const" : true,
   "linker_set_key" : "_ZTIKN7android2spINS_4hidl4base4V1_05IBaseEEE",
   "name" : "const android::sp<android::hidl::base::V1_0::IBase>",
   "referenced_type" : "_ZTIN7android2spINS_4hidl4base4V1_05IBaseEEE",
   "self_type" : "_ZTIKN7android2spINS_4hidl4base4V1_05IBaseEEE",
   "size" : 8,
   "source_file" : "/system/core/libutils/include/utils/StrongPointer.h"
  },
  {
   "alignment" : 8,
   "is_const" : true,
   "linker_set_key" : "_ZTIKN7android2spINS_4hidl7manager4V1_020IServiceNotificationEEE",
   "name" : "const android::sp<android::hidl::manager::V1_0::IServiceNotification>",
   "referenced_type" : "_ZTIN7android2spINS_4hidl7manager4V1_020IServiceNotificationEEE",
   "self_type" : "_ZTIKN7android2spINS_4hidl7manager4V1_020IServiceNotificationEEE",
   "size" : 8,
   "source_file" : "/system/core/libutils/include/utils/StrongPointer.h"
  },
  {
   "alignment" : 8,
   "is_const" : true,
   "linker_set_key" : "_ZTIKN7android2spINS_8hardware20hidl_death_recipientEEE",
   "name" : "const android::sp<android::hardware::hidl_death_recipient>",
   "referenced_type" : "_ZTIN7android2spINS_8hardware20hidl_death_recipientEEE",
   "self_type" : "_ZTIKN7android2spINS_8hardware20hidl_death_recipientEEE",
   "size" : 8,
   "source_file" : "/system/core/libutils/include/utils/StrongPointer.h"
  },
  {
   "alignment" : 8,
   "is_const" : true,
   "linker_set_key" : "_ZTIKN7android2spINS_8hardware5media10bufferpool4V2_011IConnectionEEE",
   "name" : "const android::sp<android::hardware::media::bufferpool::V2_0::IConnection>",
   "referenced_type" : "_ZTIN7android2spINS_8hardware5media10bufferpool4V2_011IConnectionEEE",
   "self_type" : "_ZTIKN7android2spINS_8hardware5media10bufferpool4V2_011IConnectionEEE",
   "size" : 8,
   "source_file" : "/system/core/libutils/include/utils/StrongPointer.h"
  },
  {
   "alignment" : 8,
   "is_const" : true,
   "linker_set_key" : "_ZTIKN7android2spINS_8hardware5media10bufferpool4V2_014IClientManagerEEE",
   "name" : "const android::sp<android::hardware::media::bufferpool::V2_0::IClientManager>",
   "referenced_type" : "_ZTIN7android2spINS_8hardware5media10bufferpool4V2_014IClientManagerEEE",
   "self_type" : "_ZTIKN7android2spINS_8hardware5media10bufferpool4V2_014IClientManagerEEE",
   "size" : 8,
   "source_file" : "/system/core/libutils/include/utils/RefBase.h"
  },
  {
   "alignment" : 8,
   "is_const" : true,
   "linker_set_key" : "_ZTIKN7android2spINS_8hardware5media10bufferpool4V2_014implementation10ConnectionEEE",
   "name" : "const android::sp<android::hardware::media::bufferpool::V2_0::implementation::Connection>",
   "referenced_type" : "_ZTIN7android2spINS_8hardware5media10bufferpool4V2_014implementation10ConnectionEEE",
   "self_type" : "_ZTIKN7android2spINS_8hardware5media10bufferpool4V2_014implementation10ConnectionEEE",
   "size" : 8,
   "source_file" : "/system/core/libutils/include/utils/StrongPointer.h"
  },
  {
   "alignment" : 8,
   "is_const" : true,
   "linker_set_key" : "_ZTIKN7android2spINS_8hardware5media10bufferpool4V2_014implementation13ClientManagerEEE",
   "name" : "const android::sp<android::hardware::media::bufferpool::V2_0::implementation::ClientManager>",
   "referenced_type" : "_ZTIN7android2spINS_8hardware5media10bufferpool4V2_014implementation13ClientManagerEEE",
   "self_type" : "_ZTIKN7android2spINS_8hardware5media10bufferpool4V2_014implementation13ClientManagerEEE",
   "size" : 8,
   "source_file" : "/system/core/libutils/include/utils/StrongPointer.h"
  },
  {
   "alignment" : 8,
   "is_const" : true,
   "linker_set_key" : "_ZTIKN7android2spINS_8hardware5media10bufferpool4V2_014implementation24ConnectionDeathRecipientEEE",
   "name" : "const android::sp<android::hardware::media::bufferpool::V2_0::implementation::ConnectionDeathRecipient>",
   "referenced_type" : "_ZTIN7android2spINS_8hardware5media10bufferpool4V2_014implementation24ConnectionDeathRecipientEEE",
   "self_type" : "_ZTIKN7android2spINS_8hardware5media10bufferpool4V2_014implementation24ConnectionDeathRecipientEEE",
   "size" : 8,
   "source_file" : "/system/core/libutils/include/utils/StrongPointer.h"
  },
  {
   "alignment" : 8,
   "is_const" : true,
   "linker_set_key" : "_ZTIKN7android2spINS_8hardware5media10bufferpool4V2_014implementation8AccessorEEE",
   "name" : "const android::sp<android::hardware::media::bufferpool::V2_0::implementation::Accessor>",
   "referenced_type" : "_ZTIN7android2spINS_8hardware5media10bufferpool4V2_014implementation8AccessorEEE",
   "self_type" : "_ZTIKN7android2spINS_8hardware5media10bufferpool4V2_014implementation8AccessorEEE",
   "size" : 8,
   "source_file" : "/system/core/libutils/include/utils/RefBase.h"
  },
  {
   "alignment" : 8,
   "is_const" : true,
   "linker_set_key" : "_ZTIKN7android2spINS_8hardware5media10bufferpool4V2_014implementation8ObserverEEE",
   "name" : "const android::sp<android::hardware::media::bufferpool::V2_0::implementation::Observer>",
   "referenced_type" : "_ZTIN7android2spINS_8hardware5media10bufferpool4V2_014implementation8ObserverEEE",
   "self_type" : "_ZTIKN7android2spINS_8hardware5media10bufferpool4V2_014implementation8ObserverEEE",
   "size" : 8,
   "source_file" : "/system/core/libutils/include/utils/StrongPointer.h"
  },
  {
   "alignment" : 8,
   "is_const" : true,
   "linker_set_key" : "_ZTIKN7android2spINS_8hardware5media10bufferpool4V2_09IAccessorEEE",
   "name" : "const android::sp<android::hardware::media::bufferpool::V2_0::IAccessor>",
   "referenced_type" : "_ZTIN7android2spINS_8hardware5media10bufferpool4V2_09IAccessorEEE",
   "self_type" : "_ZTIKN7android2spINS_8hardware5media10bufferpool4V2_09IAccessorEEE",
   "size" : 8,
   "source_file" : "/system/core/libutils/include/utils/StrongPointer.h"
  },
  {
   "alignment" : 8,
   "is_const" : true,
   "linker_set_key" : "_ZTIKN7android2spINS_8hardware5media10bufferpool4V2_09IObserverEEE",
   "name" : "const android::sp<android::hardware::media::bufferpool::V2_0::IObserver>",
   "referenced_type" : "_ZTIN7android2spINS_8hardware5media10bufferpool4V2_09IObserverEEE",
   "self_type" : "_ZTIKN7android2spINS_8hardware5media10bufferpool4V2_09IObserverEEE",
   "size" : 8,
   "source_file" : "/system/core/libutils/include/utils/StrongPointer.h"
  },
  {
   "alignment" : 8,
   "is_const" : true,
   "linker_set_key" : "_ZTIKN7android2wpINS_8hardware5media10bufferpool4V2_014IClientManagerEEE",
   "name" : "const android::wp<android::hardware::media::bufferpool::V2_0::IClientManager>",
   "referenced_type" : "_ZTIN7android2wpINS_8hardware5media10bufferpool4V2_014IClientManagerEEE",
   "self_type" : "_ZTIKN7android2wpINS_8hardware5media10bufferpool4V2_014IClientManagerEEE",
   "size" : 16,
   "source_file" : "/system/core/libutils/include/utils/RefBase.h"
  },
  {
   "alignment" : 8,
   "is_const" : true,
   "linker_set_key" : "_ZTIKN7android2wpINS_8hardware5media10bufferpool4V2_014implementation8AccessorEEE",
   "name" : "const android::wp<android::hardware::media::bufferpool::V2_0::implementation::Accessor>",
   "referenced_type" : "_ZTIN7android2wpINS_8hardware5media10bufferpool4V2_014implementation8AccessorEEE",
   "self_type" : "_ZTIKN7android2wpINS_8hardware5media10bufferpool4V2_014implementation8AccessorEEE",
   "size" : 16,
   "source_file" : "/system/core/libutils/include/utils/RefBase.h"
  },
  {
   "alignment" : 8,
   "is_const" : true,
   "linker_set_key" : "_ZTIKN7android2wpINS_8hardware5media10bufferpool4V2_09IAccessorEEE",
   "name" : "const android::wp<android::hardware::media::bufferpool::V2_0::IAccessor>",
   "referenced_type" : "_ZTIN7android2wpINS_8hardware5media10bufferpool4V2_09IAccessorEEE",
   "self_type" : "_ZTIKN7android2wpINS_8hardware5media10bufferpool4V2_09IAccessorEEE",
   "size" : 16,
   "source_file" : "/system/core/libutils/include/utils/RefBase.h"
  },
  {
   "alignment" : 8,
   "is_const" : true,
   "linker_set_key" : "_ZTIKN7android4hidl4base4V1_05IBaseE",
   "name" : "const android::hidl::base::V1_0::IBase",
   "referenced_type" : "_ZTIN7android4hidl4base4V1_05IBaseE",
   "self_type" : "_ZTIKN7android4hidl4base4V1_05IBaseE",
   "size" : 24,
   "source_file" : "/out/soong/.intermediates/system/libhidl/transport/base/1.0/android.hidl.base@1.0_genc++_headers/gen/android/hidl/base/1.0/IBase.h"
  },
  {
   "alignment" : 4,
   "is_const" : true,
   "linker_set_key" : "_ZTIKN7android4hidl4base4V1_09DebugInfo12ArchitectureE",
   "name" : "const android::hidl::base::V1_0::DebugInfo::Architecture",
   "referenced_type" : "_ZTIN7android4hidl4base4V1_09DebugInfo12ArchitectureE",
   "self_type" : "_ZTIKN7android4hidl4base4V1_09DebugInfo12ArchitectureE",
   "size" : 4,
   "source_file" : "/out/soong/.intermediates/system/libhidl/transport/base/1.0/android.hidl.base@1.0_genc++_headers/gen/android/hidl/base/1.0/types.h"
  },
  {
   "alignment" : 8,
   "is_const" : true,
   "linker_set_key" : "_ZTIKN7android4hidl7manager4V1_020IServiceNotificationE",
   "name" : "const android::hidl::manager::V1_0::IServiceNotification",
   "referenced_type" : "_ZTIN7android4hidl7manager4V1_020IServiceNotificationE",
   "self_type" : "_ZTIKN7android4hidl7manager4V1_020IServiceNotificationE",
   "size" : 24,
   "source_file" : "/out/soong/.intermediates/system/libhidl/transport/manager/1.0/android.hidl.manager@1.0_genc++_headers/gen/android/hidl/manager/1.0/IServiceNotification.h"
  },
  {
   "alignment" : 8,
   "is_const" : true,
   "linker_set_key" : "_ZTIKN7android7RefBaseE",
   "name" : "const android::RefBase",
   "referenced_type" : "_ZTIN7android7RefBaseE",
   "self_type" : "_ZTIKN7android7RefBaseE",
   "size" : 16,
   "source_file" : "/system/core/libutils/include/utils/RefBase.h"
  },
  {
   "alignment" : 8,
   "is_const" : true,
   "linker_set_key" : "_ZTIKN7android7String8E",
   "name" : "const android::String8",
   "referenced_type" : "_ZTIN7android7String8E",
   "self_type" : "_ZTIKN7android7String8E",
   "size" : 8,
   "source_file" : "/system/core/libutils/include/utils/String8.h"
  },
  {
   "alignment" : 8,
   "is_const" : true,
   "linker_set_key" : "_ZTIKN7android8String16E",
   "name" : "const android::String16",
   "referenced_type" : "_ZTIN7android8String16E",
   "self_type" : "_ZTIKN7android8String16E",
   "size" : 8,
   "source_file" : "/system/core/libutils/include/utils/String16.h"
  },
  {
   "alignment" : 8,
   "is_const" : true,
   "linker_set_key" : "_ZTIKN7android8hardware11BpHwRefBaseE",
   "name" : "const android::hardware::BpHwRefBase",
   "referenced_type" : "_ZTIN7android8hardware11BpHwRefBaseE",
   "self_type" : "_ZTIKN7android8hardware11BpHwRefBaseE",
   "size" : 48,
   "source_file" : "/system/libhwbinder/include/hwbinder/Binder.h"
  },
  {
   "alignment" : 8,
   "is_const" : true,
   "linker_set_key" : "_ZTIKN7android8hardware11hidl_handleE",
   "name" : "const android::hardware::hidl_handle",
   "referenced_type" : "_ZTIN7android8hardware11hidl_handleE",
   "self_type" : "_ZTIKN7android8hardware11hidl_handleE",
   "size" : 16,
   "source_file" : "/system/libhidl/base/include/hidl/HidlSupport.h"
  },
  {
   "alignment" : 8,
   "is_const" : true,
   "linker_set_key" : "_ZTIKN7android8hardware11hidl_memoryE",
   "name" : "const android::hardware::hidl_memory",
   "referenced_type" : "_ZTIN7android8hardware11hidl_memoryE",
   "self_type" : "_ZTIKN7android8hardware11hidl_memoryE",
   "size" : 40,
   "source_file" : "/system/libhidl/base/include/hidl/HidlSupport.h"
  },
  {
   "alignment" : 8,
   "is_const" : true,
   "linker_set_key" : "_ZTIKN7android8hardware11hidl_stringE",
   "name" : "const android::hardware::hidl_string",
   "referenced_type" : "_ZTIN7android8hardware11hidl_stringE",
   "self_type" : "_ZTIKN7android8hardware11hidl_stringE",
   "size" : 16,
   "source_file" : "/system/libhidl/base/include/hidl/HidlSupport.h"
  },
  {
   "alignment" : 8,
   "is_const" : true,
   "linker_set_key" : "_ZTIKN7android8hardware12MQDescriptorINS0_5media10bufferpool4V2_019BufferStatusMessageELNS0_8MQFlavorE1EEE",
   "name" : "const android::hardware::MQDescriptor<android::hardware::media::bufferpool::V2_0::BufferStatusMessage, android::hardware::kSynchronizedReadWrite>",
   "referenced_type" : "_ZTIN7android8hardware12MQDescriptorINS0_5media10bufferpool4V2_019BufferStatusMessageELNS0_8MQFlavorE1EEE",
   "self_type" : "_ZTIKN7android8hardware12MQDescriptorINS0_5media10bufferpool4V2_019BufferStatusMessageELNS0_8MQFlavorE1EEE",
   "size" : 32,
   "source_file" : "/system/libhidl/base/include/hidl/MQDescriptor.h"
  },
  {
   "alignment" : 8,
   "is_const" : true,
   "linker_set_key" : "_ZTIKN7android8hardware12MQDescriptorINS0_5media10bufferpool4V2_025BufferInvalidationMessageELNS0_8MQFlavorE2EEE",
   "name" : "const android::hardware::MQDescriptor<android::hardware::media::bufferpool::V2_0::BufferInvalidationMessage, android::hardware::kUnsynchronizedWrite>",
   "referenced_type" : "_ZTIN7android8hardware12MQDescriptorINS0_5media10bufferpool4V2_025BufferInvalidationMessageELNS0_8MQFlavorE2EEE",
   "self_type" : "_ZTIKN7android8hardware12MQDescriptorINS0_5media10bufferpool4V2_025BufferInvalidationMessageELNS0_8MQFlavorE2EEE",
   "size" : 32,
   "source_file" : "/system/libhidl/base/include/hidl/MQDescriptor.h"
  },
  {
   "alignment" : 8,
   "is_const" : true,
   "linker_set_key" : "_ZTIKN7android8hardware12MessageQueueINS0_5media10bufferpool4V2_019BufferStatusMessageELNS0_8MQFlavorE1EE14MemTransactionE",
   "name" : "const android::hardware::MessageQueue<BufferStatusMessage, android::hardware::kSynchronizedReadWrite>::MemTransaction",
   "referenced_type" : "_ZTIN7android8hardware12MessageQueueINS0_5media10bufferpool4V2_019BufferStatusMessageELNS0_8MQFlavorE1EE14MemTransactionE",
   "self_type" : "_ZTIKN7android8hardware12MessageQueueINS0_5media10bufferpool4V2_019BufferStatusMessageELNS0_8MQFlavorE1EE14MemTransactionE",
   "size" : 32,
   "source_file" : "/system/libfmq/include/fmq/MessageQueue.h"
  },
  {
   "alignment" : 8,
   "is_const" : true,
   "linker_set_key" : "_ZTIKN7android8hardware12MessageQueueINS0_5media10bufferpool4V2_019BufferStatusMessageELNS0_8MQFlavorE1EE9MemRegionE",
   "name" : "const android::hardware::MessageQueue<BufferStatusMessage, android::hardware::kSynchronizedReadWrite>::MemRegion",
   "referenced_type" : "_ZTIN7android8hardware12MessageQueueINS0_5media10bufferpool4V2_019BufferStatusMessageELNS0_8MQFlavorE1EE9MemRegionE",
   "self_type" : "_ZTIKN7android8hardware12MessageQueueINS0_5media10bufferpool4V2_019BufferStatusMessageELNS0_8MQFlavorE1EE9MemRegionE",
   "size" : 16,
   "source_file" : "/system/libfmq/include/fmq/MessageQueue.h"
  },
  {
   "alignment" : 8,
   "is_const" : true,
   "linker_set_key" : "_ZTIKN7android8hardware12MessageQueueINS0_5media10bufferpool4V2_019BufferStatusMessageELNS0_8MQFlavorE1EEE",
   "name" : "const android::hardware::MessageQueue<android::hardware::media::bufferpool::V2_0::BufferStatusMessage, android::hardware::kSynchronizedReadWrite>",
   "referenced_type" : "_ZTIN7android8hardware12MessageQueueINS0_5media10bufferpool4V2_019BufferStatusMessageELNS0_8MQFlavorE1EEE",
   "self_type" : "_ZTIKN7android8hardware12MessageQueueINS0_5media10bufferpool4V2_019BufferStatusMessageELNS0_8MQFlavorE1EEE",
   "size" : 48,
   "source_file" : "/system/libfmq/include/fmq/MessageQueue.h"
  },
  {
   "alignment" : 8,
   "is_const" : true,
   "linker_set_key" : "_ZTIKN7android8hardware12MessageQueueINS0_5media10bufferpool4V2_025BufferInvalidationMessageELNS0_8MQFlavorE2EE14MemTransactionE",
   "name" : "const android::hardware::MessageQueue<BufferInvalidationMessage, android::hardware::kUnsynchronizedWrite>::MemTransaction",
   "referenced_type" : "_ZTIN7android8hardware12MessageQueueINS0_5media10bufferpool4V2_025BufferInvalidationMessageELNS0_8MQFlavorE2EE14MemTransactionE",
   "self_type" : "_ZTIKN7android8hardware12MessageQueueINS0_5media10bufferpool4V2_025BufferInvalidationMessageELNS0_8MQFlavorE2EE14MemTransactionE",
   "size" : 32,
   "source_file" : "/system/libfmq/include/fmq/MessageQueue.h"
  },
  {
   "alignment" : 8,
   "is_const" : true,
   "linker_set_key" : "_ZTIKN7android8hardware12MessageQueueINS0_5media10bufferpool4V2_025BufferInvalidationMessageELNS0_8MQFlavorE2EE9MemRegionE",
   "name" : "const android::hardware::MessageQueue<BufferInvalidationMessage, android::hardware::kUnsynchronizedWrite>::MemRegion",
   "referenced_type" : "_ZTIN7android8hardware12MessageQueueINS0_5media10bufferpool4V2_025BufferInvalidationMessageELNS0_8MQFlavorE2EE9MemRegionE",
   "self_type" : "_ZTIKN7android8hardware12MessageQueueINS0_5media10bufferpool4V2_025BufferInvalidationMessageELNS0_8MQFlavorE2EE9MemRegionE",
   "size" : 16,
   "source_file" : "/system/libfmq/include/fmq/MessageQueue.h"
  },
  {
   "alignment" : 8,
   "is_const" : true,
   "linker_set_key" : "_ZTIKN7android8hardware12MessageQueueINS0_5media10bufferpool4V2_025BufferInvalidationMessageELNS0_8MQFlavorE2EEE",
   "name" : "const android::hardware::MessageQueue<android::hardware::media::bufferpool::V2_0::BufferInvalidationMessage, android::hardware::kUnsynchronizedWrite>",
   "referenced_type" : "_ZTIN7android8hardware12MessageQueueINS0_5media10bufferpool4V2_025BufferInvalidationMessageELNS0_8MQFlavorE2EEE",
   "self_type" : "_ZTIKN7android8hardware12MessageQueueINS0_5media10bufferpool4V2_025BufferInvalidationMessageELNS0_8MQFlavorE2EEE",
   "size" : 48,
   "source_file" : "/system/libfmq/include/fmq/MessageQueue.h"
  },
  {
   "alignment" : 2,
   "is_const" : true,
   "linker_set_key" : "_ZTIKN7android8hardware12hidl_versionE",
   "name" : "const android::hardware::hidl_version",
   "referenced_type" : "_ZTIN7android8hardware12hidl_versionE",
   "self_type" : "_ZTIKN7android8hardware12hidl_versionE",
   "size" : 4,
   "source_file" : "/system/libhidl/base/include/hidl/HidlSupport.h"
  },
  {
   "alignment" : 8,
   "is_const" : true,
   "linker_set_key" : "_ZTIKN7android8hardware17GrantorDescriptorE",
   "name" : "const android::hardware::GrantorDescriptor",
   "referenced_type" : "_ZTIN7android8hardware17GrantorDescriptorE",
   "self_type" : "_ZTIKN7android8hardware17GrantorDescriptorE",
   "size" : 24,
   "source_file" : "/system/libhidl/base/include/hidl/HidlInternal.h"
  },
  {
   "alignment" : 8,
   "is_const" : true,
   "linker_set_key" : "_ZTIKN7android8hardware5media10bufferpool4V2_011IConnectionE",
   "name" : "const android::hardware::media::bufferpool::V2_0::IConnection",
   "referenced_type" : "_ZTIN7android8hardware5media10bufferpool4V2_011IConnectionE",
   "self_type" : "_ZTIKN7android8hardware5media10bufferpool4V2_011IConnectionE",
   "size" : 24,
   "source_file" : "/out/soong/.intermediates/hardware/interfaces/media/bufferpool/2.0/android.hardware.media.bufferpool@2.0_genc++_headers/gen/android/hardware/media/bufferpool/2.0/IConnection.h"
  },
  {
   "alignment" : 4,
   "is_const" : true,
   "linker_set_key" : "_ZTIKN7android8hardware5media10bufferpool4V2_012BufferStatusE",
   "name" : "const android::hardware::media::bufferpool::V2_0::BufferStatus",
   "referenced_type" : "_ZTIN7android8hardware5media10bufferpool4V2_012BufferStatusE",
   "self_type" : "_ZTIKN7android8hardware5media10bufferpool4V2_012BufferStatusE",
   "size" : 4,
   "source_file" : "/out/soong/.intermediates/hardware/interfaces/media/bufferpool/2.0/android.hardware.media.bufferpool@2.0_genc++_headers/gen/android/hardware/media/bufferpool/2.0/types.h"
  },
  {
   "alignment" : 4,
   "is_const" : true,
   "linker_set_key" : "_ZTIKN7android8hardware5media10bufferpool4V2_012ResultStatusE",
   "name" : "const android::hardware::media::bufferpool::V2_0::ResultStatus",
   "referenced_type" : "_ZTIN7android8hardware5media10bufferpool4V2_012ResultStatusE",
   "self_type" : "_ZTIKN7android8hardware5media10bufferpool4V2_012ResultStatusE",
   "size" : 4,
   "source_file" : "/out/soong/.intermediates/hardware/interfaces/media/bufferpool/2.0/android.hardware.media.bufferpool@2.0_genc++_headers/gen/android/hardware/media/bufferpool/2.0/types.h"
  },
  {
   "alignment" : 8,
   "is_const" : true,
   "linker_set_key" : "_ZTIKN7android8hardware5media10bufferpool4V2_014IClientManagerE",
   "name" : "const android::hardware::media::bufferpool::V2_0::IClientManager",
   "referenced_type" : "_ZTIN7android8hardware5media10bufferpool4V2_014IClientManagerE",
   "self_type" : "_ZTIKN7android8hardware5media10bufferpool4V2_014IClientManagerE",
   "size" : 24,
   "source_file" : "/out/soong/.intermediates/hardware/interfaces/media/bufferpool/2.0/android.hardware.media.bufferpool@2.0_genc++_headers/gen/android/hardware/media/bufferpool/2.0/IClientManager.h"
  },
  {
   "alignment" : 8,
   "is_const" : true,
   "linker_set_key" : "_ZTIKN7android8hardware5media10bufferpool4V2_019BufferStatusMessageE",
   "name" : "const android::hardware::media::bufferpool::V2_0::BufferStatusMessage",
   "referenced_type" : "_ZTIN7android8hardware5media10bufferpool4V2_019BufferStatusMessageE",
   "self_type" : "_ZTIKN7android8hardware5media10bufferpool4V2_019BufferStatusMessageE",
   "size" : 40,
   "source_file" : "/system/libfmq/include/fmq/MessageQueue.h"
  },
  {
   "alignment" : 4,
   "is_const" : true,
   "linker_set_key" : "_ZTIKN7android8hardware5media10bufferpool4V2_025BufferInvalidationMessageE",
   "name" : "const android::hardware::media::bufferpool::V2_0::BufferInvalidationMessage",
   "referenced_type" : "_ZTIN7android8hardware5media10bufferpool4V2_025BufferInvalidationMessageE",
   "self_type" : "_ZTIKN7android8hardware5media10bufferpool4V2_025BufferInvalidationMessageE",
   "size" : 12,
   "source_file" : "/system/libfmq/include/fmq/MessageQueue.h"
  },
  {
   "alignment" : 8,
   "is_const" : true,
   "linker_set_key" : "_ZTIKN7android8hardware5media10bufferpool4V2_09IAccessorE",
   "name" : "const android::hardware::media::bufferpool::V2_0::IAccessor",
   "referenced_type" : "_ZTIN7android8hardware5media10bufferpool4V2_09IAccessorE",
   "self_type" : "_ZTIKN7android8hardware5media10bufferpool4V2_09IAccessorE",
   "size" : 24,
   "source_file" : "/out/soong/.intermediates/hardware/interfaces/media/bufferpool/2.0/android.hardware.media.bufferpool@2.0_genc++_headers/gen/android/hardware/media/bufferpool/2.0/IAccessor.h"
  },
  {
   "alignment" : 8,
   "is_const" : true,
   "linker_set_key" : "_ZTIKN7android8hardware5media10bufferpool4V2_09IObserverE",
   "name" : "const android::hardware::media::bufferpool::V2_0::IObserver",
   "referenced_type" : "_ZTIN7android8hardware5media10bufferpool4V2_09IObserverE",
   "self_type" : "_ZTIKN7android8hardware5media10bufferpool4V2_09IObserverE",
   "size" : 24,
   "source_file" : "/out/soong/.intermediates/hardware/interfaces/media/bufferpool/2.0/android.hardware.media.bufferpool@2.0_genc++_headers/gen/android/hardware/media/bufferpool/2.0/IObserver.h"
  },
  {
   "alignment" : 8,
   "is_const" : true,
   "linker_set_key" : "_ZTIKN7android8hardware6ParcelE",
   "name" : "const android::hardware::Parcel",
   "referenced_type" : "_ZTIN7android8hardware6ParcelE",
   "self_type" : "_ZTIKN7android8hardware6ParcelE",
   "size" : 136,
   "source_file" : "/system/libhwbinder/include/hwbinder/Parcel.h"
  },
  {
   "alignment" : 8,
   "is_const" : true,
   "linker_set_key" : "_ZTIKN7android8hardware6StatusE",
   "name" : "const android::hardware::Status",
   "referenced_type" : "_ZTIN7android8hardware6StatusE",
   "self_type" : "_ZTIKN7android8hardware6StatusE",
   "size" : 32,
   "source_file" : "/system/libhidl/base/include/hidl/Status.h"
  },
  {
   "alignment" : 8,
   "is_const" : true,
   "linker_set_key" : "_ZTIKN7android8hardware7details12hidl_pointerI13native_handleEE",
   "name" : "const android::hardware::details::hidl_pointer<native_handle>",
   "referenced_type" : "_ZTIN7android8hardware7details12hidl_pointerI13native_handleEE",
   "self_type" : "_ZTIKN7android8hardware7details12hidl_pointerI13native_handleEE",
   "size" : 8,
   "source_file" : "/system/libhidl/base/include/hidl/HidlInternal.h"
  },
  {
   "alignment" : 8,
   "is_const" : true,
   "linker_set_key" : "_ZTIKN7android8hardware7details12hidl_pointerINS0_17GrantorDescriptorEEE",
   "name" : "const android::hardware::details::hidl_pointer<android::hardware::GrantorDescriptor>",
   "referenced_type" : "_ZTIN7android8hardware7details12hidl_pointerINS0_17GrantorDescriptorEEE",
   "self_type" : "_ZTIKN7android8hardware7details12hidl_pointerINS0_17GrantorDescriptorEEE",
   "size" : 8,
   "source_file" : "/system/libhidl/base/include/hidl/HidlInternal.h"
  },
  {
   "alignment" : 8,
   "is_const" : true,
   "linker_set_key" : "_ZTIKN7android8hardware7details13return_statusE",
   "name" : "const android::hardware::details::return_status",
   "referenced_type" : "_ZTIN7android8hardware7details13return_statusE",
   "self_type" : "_ZTIKN7android8hardware7details13return_statusE",
   "size" : 40,
   "source_file" : "/system/libhidl/base/include/hidl/Status.h"
  },
  {
   "is_const" : true,
   "linker_set_key" : "_ZTIKN7android8hardware8hidl_vec4iterIXTL0__EEE",
   "name" : "const iter<is_const>",
   "referenced_type" : "_ZTIN7android8hardware8hidl_vec4iterIXTL0__EEE",
   "self_type" : "_ZTIKN7android8hardware8hidl_vec4iterIXTL0__EEE",
   "source_file" : "/system/libhidl/base/include/hidl/HidlSupport.h"
  },
  {
   "alignment" : 8,
   "is_const" : true,
   "linker_set_key" : "_ZTIKN7android8hardware8hidl_vecINS0_17GrantorDescriptorEEE",
   "name" : "const android::hardware::hidl_vec<android::hardware::GrantorDescriptor>",
   "referenced_type" : "_ZTIN7android8hardware8hidl_vecINS0_17GrantorDescriptorEEE",
   "self_type" : "_ZTIKN7android8hardware8hidl_vecINS0_17GrantorDescriptorEEE",
   "size" : 16,
   "source_file" : "/system/libhidl/base/include/hidl/HidlSupport.h"
  },
  {
   "alignment" : 8,
   "is_const" : true,
   "linker_set_key" : "_ZTIKNSt3__110shared_ptrIN7android8hardware5media10bufferpool14BufferPoolDataEEE",
   "name" : "const std::shared_ptr<android::hardware::media::bufferpool::BufferPoolData>",
   "referenced_type" : "_ZTINSt3__110shared_ptrIN7android8hardware5media10bufferpool14BufferPoolDataEEE",
   "self_type" : "_ZTIKNSt3__110shared_ptrIN7android8hardware5media10bufferpool14BufferPoolDataEEE",
   "size" : 16,
   "source_file" : "/frameworks/av/media/bufferpool/2.0/include/bufferpool/ClientManager.h"
  },
  {
   "alignment" : 8,
   "is_const" : true,
   "linker_set_key" : "_ZTIKNSt3__110shared_ptrIN7android8hardware5media10bufferpool4V2_014implementation19BufferPoolAllocatorEEE",
   "name" : "const std::shared_ptr<android::hardware::media::bufferpool::V2_0::implementation::BufferPoolAllocator>",
   "referenced_type" : "_ZTINSt3__110shared_ptrIN7android8hardware5media10bufferpool4V2_014implementation19BufferPoolAllocatorEEE",
   "self_type" : "_ZTIKNSt3__110shared_ptrIN7android8hardware5media10bufferpool4V2_014implementation19BufferPoolAllocatorEEE",
   "size" : 16,
   "source_file" : "/frameworks/av/media/bufferpool/2.0/include/bufferpool/ClientManager.h"
  },
  {
   "alignment" : 8,
   "is_const" : true,
   "linker_set_key" : "_ZTIKNSt3__110unique_ptrIN7android8hardware5media10bufferpool4V2_014implementation13ClientManager4ImplENS_14default_deleteIS8_EEEE",
   "name" : "const std::unique_ptr<android::hardware::media::bufferpool::V2_0::implementation::ClientManager::Impl, std::default_delete<android::hardware::media::bufferpool::V2_0::implementation::ClientManager::Impl> >",
   "referenced_type" : "_ZTINSt3__110unique_ptrIN7android8hardware5media10bufferpool4V2_014implementation13ClientManager4ImplENS_14default_deleteIS8_EEEE",
   "self_type" : "_ZTIKNSt3__110unique_ptrIN7android8hardware5media10bufferpool4V2_014implementation13ClientManager4ImplENS_14default_deleteIS8_EEEE",
   "size" : 8,
   "source_file" : "/frameworks/av/media/bufferpool/2.0/include/bufferpool/ClientManager.h"
  },
  {
   "alignment" : 4,
   "is_const" : true,
   "linker_set_key" : "_ZTIKNSt3__15arrayIN7android4hidl4base4V1_09DebugInfo12ArchitectureELm3EEE",
   "name" : "const std::array<android::hidl::base::V1_0::DebugInfo::Architecture, 3>",
   "referenced_type" : "_ZTINSt3__15arrayIN7android4hidl4base4V1_09DebugInfo12ArchitectureELm3EEE",
   "self_type" : "_ZTIKNSt3__15arrayIN7android4hidl4base4V1_09DebugInfo12ArchitectureELm3EEE",
   "size" : 12,
   "source_file" : "/out/soong/.intermediates/system/libhidl/transport/base/1.0/android.hidl.base@1.0_genc++_headers/gen/android/hidl/base/1.0/types.h"
  },
  {
   "alignment" : 4,
   "is_const" : true,
   "linker_set_key" : "_ZTIKNSt3__15arrayIN7android8hardware5media10bufferpool4V2_012BufferStatusELm10EEE",
   "name" : "const std::array<android::hardware::media::bufferpool::V2_0::BufferStatus, 10>",
   "referenced_type" : "_ZTINSt3__15arrayIN7android8hardware5media10bufferpool4V2_012BufferStatusELm10EEE",
   "self_type" : "_ZTIKNSt3__15arrayIN7android8hardware5media10bufferpool4V2_012BufferStatusELm10EEE",
   "size" : 40,
   "source_file" : "/out/soong/.intermediates/hardware/interfaces/media/bufferpool/2.0/android.hardware.media.bufferpool@2.0_genc++_headers/gen/android/hardware/media/bufferpool/2.0/types.h"
  },
  {
   "alignment" : 4,
   "is_const" : true,
   "linker_set_key" : "_ZTIKNSt3__15arrayIN7android8hardware5media10bufferpool4V2_012ResultStatusELm5EEE",
   "name" : "const std::array<android::hardware::media::bufferpool::V2_0::ResultStatus, 5>",
   "referenced_type" : "_ZTINSt3__15arrayIN7android8hardware5media10bufferpool4V2_012ResultStatusELm5EEE",
   "self_type" : "_ZTIKNSt3__15arrayIN7android8hardware5media10bufferpool4V2_012ResultStatusELm5EEE",
   "size" : 20,
   "source_file" : "/out/soong/.intermediates/hardware/interfaces/media/bufferpool/2.0/android.hardware.media.bufferpool@2.0_genc++_headers/gen/android/hardware/media/bufferpool/2.0/types.h"
  },
  {
   "alignment" : 8,
   "is_const" : true,
   "linker_set_key" : "_ZTIKNSt3__16vectorIN7android8hardware17GrantorDescriptorENS_9allocatorIS3_EEEE",
   "name" : "const std::vector<android::hardware::GrantorDescriptor, std::allocator<android::hardware::GrantorDescriptor> >",
   "referenced_type" : "_ZTINSt3__16vectorIN7android8hardware17GrantorDescriptorENS_9allocatorIS3_EEEE",
   "self_type" : "_ZTIKNSt3__16vectorIN7android8hardware17GrantorDescriptorENS_9allocatorIS3_EEEE",
   "size" : 24,
   "source_file" : "/system/libhidl/base/include/hidl/MQDescriptor.h"
  },
  {
   "alignment" : 8,
   "is_const" : true,
   "linker_set_key" : "_ZTIKNSt3__16vectorINS_8functionIFvN7android8hardware7details16HidlInstrumentor20InstrumentationEventEPKcS8_S8_S8_PNS0_IPvNS_9allocatorIS9_EEEEEEENSA_ISF_EEEE",
   "name" : "const std::vector<std::function<void (InstrumentationEvent, const char *, const char *, const char *, const char *, vector<void *, allocator<void *> > *)>, std::allocator<std::function<void (InstrumentationEvent, const char *, const char *, const char *, const char *, vector<void *, allocator<void *> > *)> > >",
   "referenced_type" : "_ZTINSt3__16vectorINS_8functionIFvN7android8hardware7details16HidlInstrumentor20InstrumentationEventEPKcS8_S8_S8_PNS0_IPvNS_9allocatorIS9_EEEEEEENSA_ISF_EEEE",
   "self_type" : "_ZTIKNSt3__16vectorINS_8functionIFvN7android8hardware7details16HidlInstrumentor20InstrumentationEventEPKcS8_S8_S8_PNS0_IPvNS_9allocatorIS9_EEEEEEENSA_ISF_EEEE",
   "size" : 24,
   "source_file" : "/system/libhidl/base/include/hidl/HidlInternal.h"
  },
  {
   "is_const" : true,
   "linker_set_key" : "_ZTIKNSt3__16vectorIhNS_9allocatorIhEEEE",
   "name" : "const std::vector<unsigned char, std::allocator<unsigned char> >",
   "referenced_type" : "_ZTINSt3__16vectorIhNS_9allocatorIhEEEE",
   "self_type" : "_ZTIKNSt3__16vectorIhNS_9allocatorIhEEEE",
   "source_file" : "/frameworks/av/media/bufferpool/2.0/include/bufferpool/ClientManager.h"
  },
  {
   "alignment" : 8,
   "is_const" : true,
   "linker_set_key" : "_ZTIKPN7android7RefBase12weakref_implE",
   "name" : "android::RefBase::weakref_impl *const",
   "referenced_type" : "_ZTIPN7android7RefBase12weakref_implE",
   "self_type" : "_ZTIKPN7android7RefBase12weakref_implE",
   "size" : 8,
   "source_file" : "/system/core/libutils/include/utils/RefBase.h"
  },
  {
   "alignment" : 8,
   "is_const" : true,
   "linker_set_key" : "_ZTIKPN7android8hardware7IBinderE",
   "name" : "android::hardware::IBinder *const",
   "referenced_type" : "_ZTIPN7android8hardware7IBinderE",
   "self_type" : "_ZTIKPN7android8hardware7IBinderE",
   "size" : 8,
   "source_file" : "/system/libhwbinder/include/hwbinder/Binder.h"
  },
  {
   "alignment" : 1,
   "is_const" : true,
   "linker_set_key" : "_ZTIKa",
   "name" : "const signed char",
   "referenced_type" : "_ZTIa",
   "self_type" : "_ZTIKa",
   "size" : 1,
   "source_file" : "/system/core/libutils/include/utils/TypeHelpers.h"
  },
  {
   "alignment" : 1,
   "is_const" : true,
   "linker_set_key" : "_ZTIKb",
   "name" : "const bool",
   "referenced_type" : "_ZTIb",
   "self_type" : "_ZTIKb",
   "size" : 1,
   "source_file" : "/system/core/libutils/include/utils/TypeHelpers.h"
  },
  {
   "alignment" : 1,
   "is_const" : true,
   "linker_set_key" : "_ZTIKc",
   "name" : "const char",
   "referenced_type" : "_ZTIc",
   "self_type" : "_ZTIKc",
   "size" : 1,
   "source_file" : "/system/libhidl/base/include/hidl/HidlInternal.h"
  },
  {
   "alignment" : 8,
   "is_const" : true,
   "linker_set_key" : "_ZTIKd",
   "name" : "const double",
   "referenced_type" : "_ZTId",
   "self_type" : "_ZTIKd",
   "size" : 8,
   "source_file" : "/system/core/libutils/include/utils/TypeHelpers.h"
  },
  {
   "alignment" : 4,
   "is_const" : true,
   "linker_set_key" : "_ZTIKf",
   "name" : "const float",
   "referenced_type" : "_ZTIf",
   "self_type" : "_ZTIKf",
   "size" : 4,
   "source_file" : "/system/core/libutils/include/utils/TypeHelpers.h"
  },
  {
   "alignment" : 1,
   "is_const" : true,
   "linker_set_key" : "_ZTIKh",
   "name" : "const unsigned char",
   "referenced_type" : "_ZTIh",
   "self_type" : "_ZTIKh",
   "size" : 1,
   "source_file" : "/system/core/libutils/include/utils/TypeHelpers.h"
  },
  {
   "alignment" : 4,
   "is_const" : true,
   "linker_set_key" : "_ZTIKi",
   "name" : "const int",
   "referenced_type" : "_ZTIi",
   "self_type" : "_ZTIKi",
   "size" : 4,
   "source_file" : "/system/core/libutils/include/utils/StrongPointer.h"
  },
  {
   "alignment" : 4,
   "is_const" : true,
   "linker_set_key" : "_ZTIKj",
   "name" : "const unsigned int",
   "referenced_type" : "_ZTIj",
   "self_type" : "_ZTIKj",
   "size" : 4,
   "source_file" : "/system/core/libutils/include/utils/TypeHelpers.h"
  },
  {
   "alignment" : 8,
   "is_const" : true,
   "linker_set_key" : "_ZTIKl",
   "name" : "const long",
   "referenced_type" : "_ZTIl",
   "self_type" : "_ZTIKl",
   "size" : 8,
   "source_file" : "/system/core/libutils/include/utils/TypeHelpers.h"
  },
  {
   "alignment" : 8,
   "is_const" : true,
   "linker_set_key" : "_ZTIKm",
   "name" : "const unsigned long",
   "referenced_type" : "_ZTIm",
   "self_type" : "_ZTIKm",
   "size" : 8,
   "source_file" : "/system/core/libutils/include/utils/StrongPointer.h"
  },
  {
   "alignment" : 2,
   "is_const" : true,
   "linker_set_key" : "_ZTIKs",
   "name" : "const short",
   "referenced_type" : "_ZTIs",
   "self_type" : "_ZTIKs",
   "size" : 2,
   "source_file" : "/system/core/libutils/include/utils/TypeHelpers.h"
  },
  {
   "alignment" : 2,
   "is_const" : true,
   "linker_set_key" : "_ZTIKt",
   "name" : "const unsigned short",
   "referenced_type" : "_ZTIt",
   "self_type" : "_ZTIKt",
   "size" : 2,
   "source_file" : "/system/core/libutils/include/utils/TypeHelpers.h"
  },
  {
   "is_const" : true,
   "linker_set_key" : "_ZTIKv",
   "name" : "const void",
   "referenced_type" : "_ZTIv",
   "self_type" : "_ZTIKv",
   "source_file" : "/system/core/libutils/include/utils/StrongPointer.h"
  },
  {
   "alignment" : 8,
   "is_const" : true,
   "linker_set_key" : "_ZTIKy",
   "name" : "const unsigned long long",
   "referenced_type" : "_ZTIy",
   "self_type" : "_ZTIKy",
   "size" : 8,
   "source_file" : "/system/libhwbinder/include/hwbinder/Parcel.h"
  }
 ],
 "record_types" :
 [
  {
   "alignment" : 4,
   "fields" :
   [
    {
     "field_name" : "len",
     "referenced_type" : "_ZTIt"
    },
    {
     "field_name" : "hdr_size",
     "field_offset" : 16,
     "referenced_type" : "_ZTIt"
    },
    {
     "field_name" : "pid",
     "field_offset" : 32,
     "referenced_type" : "_ZTIi"
    },
    {
     "field_name" : "tid",
     "field_offset" : 64,
     "referenced_type" : "_ZTIj"
    },
    {
     "field_name" : "sec",
     "field_offset" : 96,
     "referenced_type" : "_ZTIj"
    },
    {
     "field_name" : "nsec",
     "field_offset" : 128,
     "referenced_type" : "_ZTIj"
    },
    {
     "field_name" : "lid",
     "field_offset" : 160,
     "referenced_type" : "_ZTIj"
    },
    {
     "field_name" : "uid",
     "field_offset" : 192,
     "referenced_type" : "_ZTIj"
    }
   ],
   "linker_set_key" : "_ZTI12logger_entry",
   "name" : "logger_entry",
   "referenced_type" : "_ZTI12logger_entry",
   "self_type" : "_ZTI12logger_entry",
   "size" : 28,
   "source_file" : "/system/core/liblog/include/log/log_read.h"
  },
  {
   "alignment" : 4,
   "fields" :
   [
    {
     "field_name" : "version",
     "referenced_type" : "_ZTIi"
    },
    {
     "field_name" : "numFds",
     "field_offset" : 32,
     "referenced_type" : "_ZTIi"
    },
    {
     "field_name" : "numInts",
     "field_offset" : 64,
     "referenced_type" : "_ZTIi"
    },
    {
     "field_name" : "data",
     "field_offset" : 96,
     "referenced_type" : "_ZTIA0_i"
    }
   ],
   "linker_set_key" : "_ZTI13native_handle",
   "name" : "native_handle",
   "referenced_type" : "_ZTI13native_handle",
   "self_type" : "_ZTI13native_handle",
   "size" : 12,
   "source_file" : "/system/core/libcutils/include/cutils/native_handle.h"
  },
  {
   "alignment" : 8,
   "fields" :
   [
    {
     "field_name" : "struct_size",
     "referenced_type" : "_ZTIm"
    },
    {
     "field_name" : "buffer_id",
     "field_offset" : 64,
     "referenced_type" : "_ZTIi"
    },
    {
     "field_name" : "priority",
     "field_offset" : 96,
     "referenced_type" : "_ZTIi"
    },
    {
     "field_name" : "tag",
     "field_offset" : 128,
     "referenced_type" : "_ZTIPKc"
    },
    {
     "field_name" : "file",
     "field_offset" : 192,
     "referenced_type" : "_ZTIPKc"
    },
    {
     "field_name" : "line",
     "field_offset" : 256,
     "referenced_type" : "_ZTIj"
    },
    {
     "field_name" : "message",
     "field_offset" : 320,
     "referenced_type" : "_ZTIPKc"
    }
   ],
   "linker_set_key" : "_ZTI21__android_log_message",
   "name" : "__android_log_message",
   "referenced_type" : "_ZTI21__android_log_message",
   "self_type" : "_ZTI21__android_log_message",
   "size" : 48,
   "source_file" : "/system/core/liblog/include/android/log.h"
  },
  {
   "alignment" : 4,
   "fields" :
   [
    {
     "referenced_type" : "_ZTIN7log_msgUt_E"
    }
   ],
   "linker_set_key" : "_ZTI7log_msg",
   "name" : "log_msg",
   "referenced_type" : "_ZTI7log_msg",
   "self_type" : "_ZTI7log_msg",
   "size" : 5124,
   "source_file" : "/system/core/liblog/include/log/log_read.h"
  },
  {
   "alignment" : 1,
   "fields" :
   [
    {
     "field_name" : "tv_sec",
     "referenced_type" : "_ZTIj"
    },
    {
     "field_name" : "tv_nsec",
     "field_offset" : 32,
     "referenced_type" : "_ZTIj"
    }
   ],
   "linker_set_key" : "_ZTI8log_time",
   "name" : "log_time",
   "referenced_type" : "_ZTI8log_time",
   "self_type" : "_ZTI8log_time",
   "size" : 8,
   "source_file" : "/system/core/liblog/include_vndk/log/log_time.h"
  },
  {
   "alignment" : 4,
   "fields" :
   [
    {
     "access" : "private",
     "field_name" : "mCount",
     "referenced_type" : "_ZTINSt3__16atomicIiEE"
    }
   ],
   "linker_set_key" : "_ZTIN7android12LightRefBaseINS_12NativeHandleEEE",
   "name" : "android::LightRefBase<android::NativeHandle>",
   "record_kind" : "class",
   "referenced_type" : "_ZTIN7android12LightRefBaseINS_12NativeHandleEEE",
   "self_type" : "_ZTIN7android12LightRefBaseINS_12NativeHandleEEE",
   "size" : 4,
   "source_file" : "/system/core/libutils/include/utils/LightRefBase.h",
   "template_args" : [ "_ZTIN7android12NativeHandleE" ]
  },
  {
   "alignment" : 4,
   "fields" :
   [
    {
     "access" : "private",
     "field_name" : "mCount",
     "referenced_type" : "_ZTINSt3__16atomicIiEE"
    }
   ],
   "linker_set_key" : "_ZTIN7android12LightRefBaseINS_19VirtualLightRefBaseEEE",
   "name" : "android::LightRefBase<android::VirtualLightRefBase>",
   "record_kind" : "class",
   "referenced_type" : "_ZTIN7android12LightRefBaseINS_19VirtualLightRefBaseEEE",
   "self_type" : "_ZTIN7android12LightRefBaseINS_19VirtualLightRefBaseEEE",
   "size" : 4,
   "source_file" : "/system/core/libutils/include/utils/LightRefBase.h",
   "template_args" : [ "_ZTIN7android19VirtualLightRefBaseE" ]
  },
  {
   "alignment" : 8,
   "base_specifiers" :
   [
    {
     "referenced_type" : "_ZTIN7android12LightRefBaseINS_12NativeHandleEEE"
    }
   ],
   "fields" :
   [
    {
     "access" : "private",
     "field_name" : "mHandle",
     "field_offset" : 64,
     "referenced_type" : "_ZTIP13native_handle"
    },
    {
     "access" : "private",
     "field_name" : "mOwnsHandle",
     "field_offset" : 128,
     "referenced_type" : "_ZTIb"
    }
   ],
   "linker_set_key" : "_ZTIN7android12NativeHandleE",
   "name" : "android::NativeHandle",
   "record_kind" : "class",
   "referenced_type" : "_ZTIN7android12NativeHandleE",
   "self_type" : "_ZTIN7android12NativeHandleE",
   "size" : 24,
   "source_file" : "/system/core/libutils/include/utils/NativeHandle.h"
  },
  {
   "alignment" : 1,
   "linker_set_key" : "_ZTIN7android14ReferenceMoverE",
   "name" : "android::ReferenceMover",
   "record_kind" : "class",
   "referenced_type" : "_ZTIN7android14ReferenceMoverE",
   "self_type" : "_ZTIN7android14ReferenceMoverE",
   "size" : 1,
   "source_file" : "/system/core/libutils/include/utils/RefBase.h"
  },
  {
   "alignment" : 8,
   "linker_set_key" : "_ZTIN7android16ReferenceRenamerE",
   "name" : "android::ReferenceRenamer",
   "record_kind" : "class",
   "referenced_type" : "_ZTIN7android16ReferenceRenamerE",
   "self_type" : "_ZTIN7android16ReferenceRenamerE",
   "size" : 8,
   "source_file" : "/system/core/libutils/include/utils/RefBase.h",
   "vtable_components" :
   [
    {
     "kind" : "offset_to_top"
    },
    {
     "kind" : "rtti",
     "mangled_component_name" : "_ZTIN7android16ReferenceRenamerE"
    },
    {
     "is_pure" : true,
     "mangled_component_name" : "_ZNK7android16ReferenceRenamerclEm"
    }
   ]
  },
  {
   "alignment" : 1,
   "linker_set_key" : "_ZTIN7android18trait_trivial_copyIbEE",
   "name" : "android::trait_trivial_copy<bool>",
   "referenced_type" : "_ZTIN7android18trait_trivial_copyIbEE",
   "self_type" : "_ZTIN7android18trait_trivial_copyIbEE",
   "size" : 1,
   "source_file" : "/system/core/libutils/include/utils/TypeHelpers.h",
   "template_args" : [ "_ZTIb" ]
  },
  {
   "alignment" : 1,
   "linker_set_key" : "_ZTIN7android18trait_trivial_copyIcEE",
   "name" : "android::trait_trivial_copy<char>",
   "referenced_type" : "_ZTIN7android18trait_trivial_copyIcEE",
   "self_type" : "_ZTIN7android18trait_trivial_copyIcEE",
   "size" : 1,
   "source_file" : "/system/core/libutils/include/utils/TypeHelpers.h",
   "template_args" : [ "_ZTIc" ]
  },
  {
   "alignment" : 1,
   "linker_set_key" : "_ZTIN7android18trait_trivial_copyIdEE",
   "name" : "android::trait_trivial_copy<double>",
   "referenced_type" : "_ZTIN7android18trait_trivial_copyIdEE",
   "self_type" : "_ZTIN7android18trait_trivial_copyIdEE",
   "size" : 1,
   "source_file" : "/system/core/libutils/include/utils/TypeHelpers.h",
   "template_args" : [ "_ZTId" ]
  },
  {
   "alignment" : 1,
   "linker_set_key" : "_ZTIN7android18trait_trivial_copyIfEE",
   "name" : "android::trait_trivial_copy<float>",
   "referenced_type" : "_ZTIN7android18trait_trivial_copyIfEE",
   "self_type" : "_ZTIN7android18trait_trivial_copyIfEE",
   "size" : 1,
   "source_file" : "/system/core/libutils/include/utils/TypeHelpers.h",
   "template_args" : [ "_ZTIf" ]
  },
  {
   "alignment" : 1,
   "linker_set_key" : "_ZTIN7android18trait_trivial_copyIhEE",
   "name" : "android::trait_trivial_copy<unsigned char>",
   "referenced_type" : "_ZTIN7android18trait_trivial_copyIhEE",
   "self_type" : "_ZTIN7android18trait_trivial_copyIhEE",
   "size" : 1,
   "source_file" : "/system/core/libutils/include/utils/TypeHelpers.h",
   "template_args" : [ "_ZTIh" ]
  },
  {
   "alignment" : 1,
   "linker_set_key" : "_ZTIN7android18trait_trivial_copyIiEE",
   "name" : "android::trait_trivial_copy<int>",
   "referenced_type" : "_ZTIN7android18trait_trivial_copyIiEE",
   "self_type" : "_ZTIN7android18trait_trivial_copyIiEE",
   "size" : 1,
   "source_file" : "/system/core/libutils/include/utils/TypeHelpers.h",
   "template_args" : [ "_ZTIi" ]
  },
  {
   "alignment" : 1,
   "linker_set_key" : "_ZTIN7android18trait_trivial_copyIjEE",
   "name" : "android::trait_trivial_copy<unsigned int>",
   "referenced_type" : "_ZTIN7android18trait_trivial_copyIjEE",
   "self_type" : "_ZTIN7android18trait_trivial_copyIjEE",
   "size" : 1,
   "source_file" : "/system/core/libutils/include/utils/TypeHelpers.h",
   "template_args" : [ "_ZTIj" ]
  },
  {
   "alignment" : 1,
   "linker_set_key" : "_ZTIN7android18trait_trivial_copyIlEE",
   "name" : "android::trait_trivial_copy<long>",
   "referenced_type" : "_ZTIN7android18trait_trivial_copyIlEE",
   "self_type" : "_ZTIN7android18trait_trivial_copyIlEE",
   "size" : 1,
   "source_file" : "/system/core/libutils/include/utils/TypeHelpers.h",
   "template_args" : [ "_ZTIl" ]
  },
  {
   "alignment" : 1,
   "linker_set_key" : "_ZTIN7android18trait_trivial_copyImEE",
   "name" : "android::trait_trivial_copy<unsigned long>",
   "referenced_type" : "_ZTIN7android18trait_trivial_copyImEE",
   "self_type" : "_ZTIN7android18trait_trivial_copyImEE",
   "size" : 1,
   "source_file" : "/system/core/libutils/include/utils/TypeHelpers.h",
   "template_args" : [ "_ZTIm" ]
  },
  {
   "alignment" : 1,
   "linker_set_key" : "_ZTIN7android18trait_trivial_copyIsEE",
   "name" : "android::trait_trivial_copy<short>",
   "referenced_type" : "_ZTIN7android18trait_trivial_copyIsEE",
   "self_type" : "_ZTIN7android18trait_trivial_copyIsEE",
   "size" : 1,
   "source_file" : "/system/core/libutils/include/utils/TypeHelpers.h",
   "template_args" : [ "_ZTIs" ]
  },
  {
   "alignment" : 1,
   "linker_set_key" : "_ZTIN7android18trait_trivial_copyItEE",
   "name" : "android::trait_trivial_copy<unsigned short>",
   "referenced_type" : "_ZTIN7android18trait_trivial_copyItEE",
   "self_type" : "_ZTIN7android18trait_trivial_copyItEE",
   "size" : 1,
   "source_file" : "/system/core/libutils/include/utils/TypeHelpers.h",
   "template_args" : [ "_ZTIt" ]
  },
  {
   "alignment" : 1,
   "linker_set_key" : "_ZTIN7android18trait_trivial_copyIvEE",
   "name" : "android::trait_trivial_copy<void>",
   "referenced_type" : "_ZTIN7android18trait_trivial_copyIvEE",
   "self_type" : "_ZTIN7android18trait_trivial_copyIvEE",
   "size" : 1,
   "source_file" : "/system/core/libutils/include/utils/TypeHelpers.h",
   "template_args" : [ "_ZTIv" ]
  },
  {
   "alignment" : 1,
   "linker_set_key" : "_ZTIN7android18trait_trivial_copyIxEE",
   "name" : "android::trait_trivial_copy<long long>",
   "referenced_type" : "_ZTIN7android18trait_trivial_copyIxEE",
   "self_type" : "_ZTIN7android18trait_trivial_copyIxEE",
   "size" : 1,
   "source_file" : "/system/core/libutils/include/utils/TypeHelpers.h",
   "template_args" : [ "_ZTIx" ]
  },
  {
   "alignment" : 1,
   "linker_set_key" : "_ZTIN7android18trait_trivial_copyIyEE",
   "name" : "android::trait_trivial_copy<unsigned long long>",
   "referenced_type" : "_ZTIN7android18trait_trivial_copyIyEE",
   "self_type" : "_ZTIN7android18trait_trivial_copyIyEE",
   "size" : 1,
   "source_file" : "/system/core/libutils/include/utils/TypeHelpers.h",
   "template_args" : [ "_ZTIy" ]
  },
  {
   "alignment" : 1,
   "linker_set_key" : "_ZTIN7android18trait_trivial_ctorIbEE",
   "name" : "android::trait_trivial_ctor<bool>",
   "referenced_type" : "_ZTIN7android18trait_trivial_ctorIbEE",
   "self_type" : "_ZTIN7android18trait_trivial_ctorIbEE",
   "size" : 1,
   "source_file" : "/system/core/libutils/include/utils/TypeHelpers.h",
   "template_args" : [ "_ZTIb" ]
  },
  {
   "alignment" : 1,
   "linker_set_key" : "_ZTIN7android18trait_trivial_ctorIcEE",
   "name" : "android::trait_trivial_ctor<char>",
   "referenced_type" : "_ZTIN7android18trait_trivial_ctorIcEE",
   "self_type" : "_ZTIN7android18trait_trivial_ctorIcEE",
   "size" : 1,
   "source_file" : "/system/core/libutils/include/utils/TypeHelpers.h",
   "template_args" : [ "_ZTIc" ]
  },
  {
   "alignment" : 1,
   "linker_set_key" : "_ZTIN7android18trait_trivial_ctorIdEE",
   "name" : "android::trait_trivial_ctor<double>",
   "referenced_type" : "_ZTIN7android18trait_trivial_ctorIdEE",
   "self_type" : "_ZTIN7android18trait_trivial_ctorIdEE",
   "size" : 1,
   "source_file" : "/system/core/libutils/include/utils/TypeHelpers.h",
   "template_args" : [ "_ZTId" ]
  },
  {
   "alignment" : 1,
   "linker_set_key" : "_ZTIN7android18trait_trivial_ctorIfEE",
   "name" : "android::trait_trivial_ctor<float>",
   "referenced_type" : "_ZTIN7android18trait_trivial_ctorIfEE",
   "self_type" : "_ZTIN7android18trait_trivial_ctorIfEE",
   "size" : 1,
   "source_file" : "/system/core/libutils/include/utils/TypeHelpers.h",
   "template_args" : [ "_ZTIf" ]
  },
  {
   "alignment" : 1,
   "linker_set_key" : "_ZTIN7android18trait_trivial_ctorIhEE",
   "name" : "android::trait_trivial_ctor<unsigned char>",
   "referenced_type" : "_ZTIN7android18trait_trivial_ctorIhEE",
   "self_type" : "_ZTIN7android18trait_trivial_ctorIhEE",
   "size" : 1,
   "source_file" : "/system/core/libutils/include/utils/TypeHelpers.h",
   "template_args" : [ "_ZTIh" ]
  },
  {
   "alignment" : 1,
   "linker_set_key" : "_ZTIN7android18trait_trivial_ctorIiEE",
   "name" : "android::trait_trivial_ctor<int>",
   "referenced_type" : "_ZTIN7android18trait_trivial_ctorIiEE",
   "self_type" : "_ZTIN7android18trait_trivial_ctorIiEE",
   "size" : 1,
   "source_file" : "/system/core/libutils/include/utils/TypeHelpers.h",
   "template_args" : [ "_ZTIi" ]
  },
  {
   "alignment" : 1,
   "linker_set_key" : "_ZTIN7android18trait_trivial_ctorIjEE",
   "name" : "android::trait_trivial_ctor<unsigned int>",
   "referenced_type" : "_ZTIN7android18trait_trivial_ctorIjEE",
   "self_type" : "_ZTIN7android18trait_trivial_ctorIjEE",
   "size" : 1,
   "source_file" : "/system/core/libutils/include/utils/TypeHelpers.h",
   "template_args" : [ "_ZTIj" ]
  },
  {
   "alignment" : 1,
   "linker_set_key" : "_ZTIN7android18trait_trivial_ctorIlEE",
   "name" : "android::trait_trivial_ctor<long>",
   "referenced_type" : "_ZTIN7android18trait_trivial_ctorIlEE",
   "self_type" : "_ZTIN7android18trait_trivial_ctorIlEE",
   "size" : 1,
   "source_file" : "/system/core/libutils/include/utils/TypeHelpers.h",
   "template_args" : [ "_ZTIl" ]
  },
  {
   "alignment" : 1,
   "linker_set_key" : "_ZTIN7android18trait_trivial_ctorImEE",
   "name" : "android::trait_trivial_ctor<unsigned long>",
   "referenced_type" : "_ZTIN7android18trait_trivial_ctorImEE",
   "self_type" : "_ZTIN7android18trait_trivial_ctorImEE",
   "size" : 1,
   "source_file" : "/system/core/libutils/include/utils/TypeHelpers.h",
   "template_args" : [ "_ZTIm" ]
  },
  {
   "alignment" : 1,
   "linker_set_key" : "_ZTIN7android18trait_trivial_ctorIsEE",
   "name" : "android::trait_trivial_ctor<short>",
   "referenced_type" : "_ZTIN7android18trait_trivial_ctorIsEE",
   "self_type" : "_ZTIN7android18trait_trivial_ctorIsEE",
   "size" : 1,
   "source_file" : "/system/core/libutils/include/utils/TypeHelpers.h",
   "template_args" : [ "_ZTIs" ]
  },
  {
   "alignment" : 1,
   "linker_set_key" : "_ZTIN7android18trait_trivial_ctorItEE",
   "name" : "android::trait_trivial_ctor<unsigned short>",
   "referenced_type" : "_ZTIN7android18trait_trivial_ctorItEE",
   "self_type" : "_ZTIN7android18trait_trivial_ctorItEE",
   "size" : 1,
   "source_file" : "/system/core/libutils/include/utils/TypeHelpers.h",
   "template_args" : [ "_ZTIt" ]
  },
  {
   "alignment" : 1,
   "linker_set_key" : "_ZTIN7android18trait_trivial_ctorIvEE",
   "name" : "android::trait_trivial_ctor<void>",
   "referenced_type" : "_ZTIN7android18trait_trivial_ctorIvEE",
   "self_type" : "_ZTIN7android18trait_trivial_ctorIvEE",
   "size" : 1,
   "source_file" : "/system/core/libutils/include/utils/TypeHelpers.h",
   "template_args" : [ "_ZTIv" ]
  },
  {
   "alignment" : 1,
   "linker_set_key" : "_ZTIN7android18trait_trivial_ctorIxEE",
   "name" : "android::trait_trivial_ctor<long long>",
   "referenced_type" : "_ZTIN7android18trait_trivial_ctorIxEE",
   "self_type" : "_ZTIN7android18trait_trivial_ctorIxEE",
   "size" : 1,
   "source_file" : "/system/core/libutils/include/utils/TypeHelpers.h",
   "template_args" : [ "_ZTIx" ]
  },
  {
   "alignment" : 1,
   "linker_set_key" : "_ZTIN7android18trait_trivial_ctorIyEE",
   "name" : "android::trait_trivial_ctor<unsigned long long>",
   "referenced_type" : "_ZTIN7android18trait_trivial_ctorIyEE",
   "self_type" : "_ZTIN7android18trait_trivial_ctorIyEE",
   "size" : 1,
   "source_file" : "/system/core/libutils/include/utils/TypeHelpers.h",
   "template_args" : [ "_ZTIy" ]
  },
  {
   "alignment" : 1,
   "linker_set_key" : "_ZTIN7android18trait_trivial_dtorIbEE",
   "name" : "android::trait_trivial_dtor<bool>",
   "referenced_type" : "_ZTIN7android18trait_trivial_dtorIbEE",
   "self_type" : "_ZTIN7android18trait_trivial_dtorIbEE",
   "size" : 1,
   "source_file" : "/system/core/libutils/include/utils/TypeHelpers.h",
   "template_args" : [ "_ZTIb" ]
  },
  {
   "alignment" : 1,
   "linker_set_key" : "_ZTIN7android18trait_trivial_dtorIcEE",
   "name" : "android::trait_trivial_dtor<char>",
   "referenced_type" : "_ZTIN7android18trait_trivial_dtorIcEE",
   "self_type" : "_ZTIN7android18trait_trivial_dtorIcEE",
   "size" : 1,
   "source_file" : "/system/core/libutils/include/utils/TypeHelpers.h",
   "template_args" : [ "_ZTIc" ]
  },
  {
   "alignment" : 1,
   "linker_set_key" : "_ZTIN7android18trait_trivial_dtorIdEE",
   "name" : "android::trait_trivial_dtor<double>",
   "referenced_type" : "_ZTIN7android18trait_trivial_dtorIdEE",
   "self_type" : "_ZTIN7android18trait_trivial_dtorIdEE",
   "size" : 1,
   "source_file" : "/system/core/libutils/include/utils/TypeHelpers.h",
   "template_args" : [ "_ZTId" ]
  },
  {
   "alignment" : 1,
   "linker_set_key" : "_ZTIN7android18trait_trivial_dtorIfEE",
   "name" : "android::trait_trivial_dtor<float>",
   "referenced_type" : "_ZTIN7android18trait_trivial_dtorIfEE",
   "self_type" : "_ZTIN7android18trait_trivial_dtorIfEE",
   "size" : 1,
   "source_file" : "/system/core/libutils/include/utils/TypeHelpers.h",
   "template_args" : [ "_ZTIf" ]
  },
  {
   "alignment" : 1,
   "linker_set_key" : "_ZTIN7android18trait_trivial_dtorIhEE",
   "name" : "android::trait_trivial_dtor<unsigned char>",
   "referenced_type" : "_ZTIN7android18trait_trivial_dtorIhEE",
   "self_type" : "_ZTIN7android18trait_trivial_dtorIhEE",
   "size" : 1,
   "source_file" : "/system/core/libutils/include/utils/TypeHelpers.h",
   "template_args" : [ "_ZTIh" ]
  },
  {
   "alignment" : 1,
   "linker_set_key" : "_ZTIN7android18trait_trivial_dtorIiEE",
   "name" : "android::trait_trivial_dtor<int>",
   "referenced_type" : "_ZTIN7android18trait_trivial_dtorIiEE",
   "self_type" : "_ZTIN7android18trait_trivial_dtorIiEE",
   "size" : 1,
   "source_file" : "/system/core/libutils/include/utils/TypeHelpers.h",
   "template_args" : [ "_ZTIi" ]
  },
  {
   "alignment" : 1,
   "linker_set_key" : "_ZTIN7android18trait_trivial_dtorIjEE",
   "name" : "android::trait_trivial_dtor<unsigned int>",
   "referenced_type" : "_ZTIN7android18trait_trivial_dtorIjEE",
   "self_type" : "_ZTIN7android18trait_trivial_dtorIjEE",
   "size" : 1,
   "source_file" : "/system/core/libutils/include/utils/TypeHelpers.h",
   "template_args" : [ "_ZTIj" ]
  },
  {
   "alignment" : 1,
   "linker_set_key" : "_ZTIN7android18trait_trivial_dtorIlEE",
   "name" : "android::trait_trivial_dtor<long>",
   "referenced_type" : "_ZTIN7android18trait_trivial_dtorIlEE",
   "self_type" : "_ZTIN7android18trait_trivial_dtorIlEE",
   "size" : 1,
   "source_file" : "/system/core/libutils/include/utils/TypeHelpers.h",
   "template_args" : [ "_ZTIl" ]
  },
  {
   "alignment" : 1,
   "linker_set_key" : "_ZTIN7android18trait_trivial_dtorImEE",
   "name" : "android::trait_trivial_dtor<unsigned long>",
   "referenced_type" : "_ZTIN7android18trait_trivial_dtorImEE",
   "self_type" : "_ZTIN7android18trait_trivial_dtorImEE",
   "size" : 1,
   "source_file" : "/system/core/libutils/include/utils/TypeHelpers.h",
   "template_args" : [ "_ZTIm" ]
  },
  {
   "alignment" : 1,
   "linker_set_key" : "_ZTIN7android18trait_trivial_dtorIsEE",
   "name" : "android::trait_trivial_dtor<short>",
   "referenced_type" : "_ZTIN7android18trait_trivial_dtorIsEE",
   "self_type" : "_ZTIN7android18trait_trivial_dtorIsEE",
   "size" : 1,
   "source_file" : "/system/core/libutils/include/utils/TypeHelpers.h",
   "template_args" : [ "_ZTIs" ]
  },
  {
   "alignment" : 1,
   "linker_set_key" : "_ZTIN7android18trait_trivial_dtorItEE",
   "name" : "android::trait_trivial_dtor<unsigned short>",
   "referenced_type" : "_ZTIN7android18trait_trivial_dtorItEE",
   "self_type" : "_ZTIN7android18trait_trivial_dtorItEE",
   "size" : 1,
   "source_file" : "/system/core/libutils/include/utils/TypeHelpers.h",
   "template_args" : [ "_ZTIt" ]
  },
  {
   "alignment" : 1,
   "linker_set_key" : "_ZTIN7android18trait_trivial_dtorIvEE",
   "name" : "android::trait_trivial_dtor<void>",
   "referenced_type" : "_ZTIN7android18trait_trivial_dtorIvEE",
   "self_type" : "_ZTIN7android18trait_trivial_dtorIvEE",
   "size" : 1,
   "source_file" : "/system/core/libutils/include/utils/TypeHelpers.h",
   "template_args" : [ "_ZTIv" ]
  },
  {
   "alignment" : 1,
   "linker_set_key" : "_ZTIN7android18trait_trivial_dtorIxEE",
   "name" : "android::trait_trivial_dtor<long long>",
   "referenced_type" : "_ZTIN7android18trait_trivial_dtorIxEE",
   "self_type" : "_ZTIN7android18trait_trivial_dtorIxEE",
   "size" : 1,
   "source_file" : "/system/core/libutils/include/utils/TypeHelpers.h",
   "template_args" : [ "_ZTIx" ]
  },
  {
   "alignment" : 1,
   "linker_set_key" : "_ZTIN7android18trait_trivial_dtorIyEE",
   "name" : "android::trait_trivial_dtor<unsigned long long>",
   "referenced_type" : "_ZTIN7android18trait_trivial_dtorIyEE",
   "self_type" : "_ZTIN7android18trait_trivial_dtorIyEE",
   "size" : 1,
   "source_file" : "/system/core/libutils/include/utils/TypeHelpers.h",
   "template_args" : [ "_ZTIy" ]
  },
  {
   "alignment" : 1,
   "linker_set_key" : "_ZTIN7android18trait_trivial_moveINS_7String8EEE",
   "name" : "android::trait_trivial_move<android::String8>",
   "referenced_type" : "_ZTIN7android18trait_trivial_moveINS_7String8EEE",
   "self_type" : "_ZTIN7android18trait_trivial_moveINS_7String8EEE",
   "size" : 1,
   "source_file" : "/system/core/libutils/include/utils/String8.h",
   "template_args" : [ "_ZTIN7android7String8E" ]
  },
  {
   "alignment" : 1,
   "linker_set_key" : "_ZTIN7android18trait_trivial_moveINS_8String16EEE",
   "name" : "android::trait_trivial_move<android::String16>",
   "referenced_type" : "_ZTIN7android18trait_trivial_moveINS_8String16EEE",
   "self_type" : "_ZTIN7android18trait_trivial_moveINS_8String16EEE",
   "size" : 1,
   "source_file" : "/system/core/libutils/include/utils/String16.h",
   "template_args" : [ "_ZTIN7android8String16E" ]
  },
  {
   "alignment" : 1,
   "linker_set_key" : "_ZTIN7android18trait_trivial_moveIbEE",
   "name" : "android::trait_trivial_move<bool>",
   "referenced_type" : "_ZTIN7android18trait_trivial_moveIbEE",
   "self_type" : "_ZTIN7android18trait_trivial_moveIbEE",
   "size" : 1,
   "source_file" : "/system/core/libutils/include/utils/TypeHelpers.h",
   "template_args" : [ "_ZTIb" ]
  },
  {
   "alignment" : 1,
   "linker_set_key" : "_ZTIN7android18trait_trivial_moveIcEE",
   "name" : "android::trait_trivial_move<char>",
   "referenced_type" : "_ZTIN7android18trait_trivial_moveIcEE",
   "self_type" : "_ZTIN7android18trait_trivial_moveIcEE",
   "size" : 1,
   "source_file" : "/system/core/libutils/include/utils/TypeHelpers.h",
   "template_args" : [ "_ZTIc" ]
  },
  {
   "alignment" : 1,
   "linker_set_key" : "_ZTIN7android18trait_trivial_moveIdEE",
   "name" : "android::trait_trivial_move<double>",
   "referenced_type" : "_ZTIN7android18trait_trivial_moveIdEE",
   "self_type" : "_ZTIN7android18trait_trivial_moveIdEE",
   "size" : 1,
   "source_file" : "/system/core/libutils/include/utils/TypeHelpers.h",
   "template_args" : [ "_ZTId" ]
  },
  {
   "alignment" : 1,
   "linker_set_key" : "_ZTIN7android18trait_trivial_moveIfEE",
   "name" : "android::trait_trivial_move<float>",
   "referenced_type" : "_ZTIN7android18trait_trivial_moveIfEE",
   "self_type" : "_ZTIN7android18trait_trivial_moveIfEE",
   "size" : 1,
   "source_file" : "/system/core/libutils/include/utils/TypeHelpers.h",
   "template_args" : [ "_ZTIf" ]
  },
  {
   "alignment" : 1,
   "linker_set_key" : "_ZTIN7android18trait_trivial_moveIhEE",
   "name" : "android::trait_trivial_move<unsigned char>",
   "referenced_type" : "_ZTIN7android18trait_trivial_moveIhEE",
   "self_type" : "_ZTIN7android18trait_trivial_moveIhEE",
   "size" : 1,
   "source_file" : "/system/core/libutils/include/utils/TypeHelpers.h",
   "template_args" : [ "_ZTIh" ]
  },
  {
   "alignment" : 1,
   "linker_set_key" : "_ZTIN7android18trait_trivial_moveIiEE",
   "name" : "android::trait_trivial_move<int>",
   "referenced_type" : "_ZTIN7android18trait_trivial_moveIiEE",
   "self_type" : "_ZTIN7android18trait_trivial_moveIiEE",
   "size" : 1,
   "source_file" : "/system/core/libutils/include/utils/TypeHelpers.h",
   "template_args" : [ "_ZTIi" ]
  },
  {
   "alignment" : 1,
   "linker_set_key" : "_ZTIN7android18trait_trivial_moveIjEE",
   "name" : "android::trait_trivial_move<unsigned int>",
   "referenced_type" : "_ZTIN7android18trait_trivial_moveIjEE",
   "self_type" : "_ZTIN7android18trait_trivial_moveIjEE",
   "size" : 1,
   "source_file" : "/system/core/libutils/include/utils/TypeHelpers.h",
   "template_args" : [ "_ZTIj" ]
  },
  {
   "alignment" : 1,
   "linker_set_key" : "_ZTIN7android18trait_trivial_moveIlEE",
   "name" : "android::trait_trivial_move<long>",
   "referenced_type" : "_ZTIN7android18trait_trivial_moveIlEE",
   "self_type" : "_ZTIN7android18trait_trivial_moveIlEE",
   "size" : 1,
   "source_file" : "/system/core/libutils/include/utils/TypeHelpers.h",
   "template_args" : [ "_ZTIl" ]
  },
  {
   "alignment" : 1,
   "linker_set_key" : "_ZTIN7android18trait_trivial_moveImEE",
   "name" : "android::trait_trivial_move<unsigned long>",
   "referenced_type" : "_ZTIN7android18trait_trivial_moveImEE",
   "self_type" : "_ZTIN7android18trait_trivial_moveImEE",
   "size" : 1,
   "source_file" : "/system/core/libutils/include/utils/TypeHelpers.h",
   "template_args" : [ "_ZTIm" ]
  },
  {
   "alignment" : 1,
   "linker_set_key" : "_ZTIN7android18trait_trivial_moveIsEE",
   "name" : "android::trait_trivial_move<short>",
   "referenced_type" : "_ZTIN7android18trait_trivial_moveIsEE",
   "self_type" : "_ZTIN7android18trait_trivial_moveIsEE",
   "size" : 1,
   "source_file" : "/system/core/libutils/include/utils/TypeHelpers.h",
   "template_args" : [ "_ZTIs" ]
  },
  {
   "alignment" : 1,
   "linker_set_key" : "_ZTIN7android18trait_trivial_moveItEE",
   "name" : "android::trait_trivial_move<unsigned short>",
   "referenced_type" : "_ZTIN7android18trait_trivial_moveItEE",
   "self_type" : "_ZTIN7android18trait_trivial_moveItEE",
   "size" : 1,
   "source_file" : "/system/core/libutils/include/utils/TypeHelpers.h",
   "template_args" : [ "_ZTIt" ]
  },
  {
   "alignment" : 1,
   "linker_set_key" : "_ZTIN7android18trait_trivial_moveIvEE",
   "name" : "android::trait_trivial_move<void>",
   "referenced_type" : "_ZTIN7android18trait_trivial_moveIvEE",
   "self_type" : "_ZTIN7android18trait_trivial_moveIvEE",
   "size" : 1,
   "source_file" : "/system/core/libutils/include/utils/TypeHelpers.h",
   "template_args" : [ "_ZTIv" ]
  },
  {
   "alignment" : 1,
   "linker_set_key" : "_ZTIN7android18trait_trivial_moveIxEE",
   "name" : "android::trait_trivial_move<long long>",
   "referenced_type" : "_ZTIN7android18trait_trivial_moveIxEE",
   "self_type" : "_ZTIN7android18trait_trivial_moveIxEE",
   "size" : 1,
   "source_file" : "/system/core/libutils/include/utils/TypeHelpers.h",
   "template_args" : [ "_ZTIx" ]
  },
  {
   "alignment" : 1,
   "linker_set_key" : "_ZTIN7android18trait_trivial_moveIyEE",
   "name" : "android::trait_trivial_move<unsigned long long>",
   "referenced_type" : "_ZTIN7android18trait_trivial_moveIyEE",
   "self_type" : "_ZTIN7android18trait_trivial_moveIyEE",
   "size" : 1,
   "source_file" : "/system/core/libutils/include/utils/TypeHelpers.h",
   "template_args" : [ "_ZTIy" ]
  },
  {
   "alignment" : 8,
   "base_specifiers" :
   [
    {
     "referenced_type" : "_ZTIN7android12LightRefBaseINS_19VirtualLightRefBaseEEE"
    }
   ],
   "linker_set_key" : "_ZTIN7android19VirtualLightRefBaseE",
   "name" : "android::VirtualLightRefBase",
   "record_kind" : "class",
   "referenced_type" : "_ZTIN7android19VirtualLightRefBaseE",
   "self_type" : "_ZTIN7android19VirtualLightRefBaseE",
   "size" : 16,
   "source_file" : "/system/core/libutils/include/utils/LightRefBase.h",
   "vtable_components" :
   [
    {
     "kind" : "offset_to_top"
    },
    {
     "kind" : "rtti",
     "mangled_component_name" : "_ZTIN7android19VirtualLightRefBaseE"
    },
    {
     "kind" : "complete_dtor_pointer",
     "mangled_component_name" : "_ZN7android19VirtualLightRefBaseD1Ev"
    },
    {
     "kind" : "deleting_dtor_pointer",
     "mangled_component_name" : "_ZN7android19VirtualLightRefBaseD0Ev"
    }
   ]
  },
  {
   "alignment" : 8,
   "fields" :
   [
    {
     "access" : "private",
     "field_name" : "m_ptr",
     "referenced_type" : "_ZTIPN7android4hidl4base4V1_05IBaseE"
    }
   ],
   "linker_set_key" : "_ZTIN7android2spINS_4hidl4base4V1_05IBaseEEE",
   "name" : "android::sp<android::hidl::base::V1_0::IBase>",
   "record_kind" : "class",
   "referenced_type" : "_ZTIN7android2spINS_4hidl4base4V1_05IBaseEEE",
   "self_type" : "_ZTIN7android2spINS_4hidl4base4V1_05IBaseEEE",
   "size" : 8,
   "source_file" : "/system/core/libutils/include/utils/StrongPointer.h",
   "template_args" : [ "_ZTIN7android4hidl4base4V1_05IBaseE" ]
  },
  {
   "alignment" : 8,
   "fields" :
   [
    {
     "access" : "private",
     "field_name" : "m_ptr",
     "referenced_type" : "_ZTIPN7android4hidl7manager4V1_020IServiceNotificationE"
    }
   ],
   "linker_set_key" : "_ZTIN7android2spINS_4hidl7manager4V1_020IServiceNotificationEEE",
   "name" : "android::sp<android::hidl::manager::V1_0::IServiceNotification>",
   "record_kind" : "class",
   "referenced_type" : "_ZTIN7android2spINS_4hidl7manager4V1_020IServiceNotificationEEE",
   "self_type" : "_ZTIN7android2spINS_4hidl7manager4V1_020IServiceNotificationEEE",
   "size" : 8,
   "source_file" : "/system/core/libutils/include/utils/StrongPointer.h",
   "template_args" : [ "_ZTIN7android4hidl7manager4V1_020IServiceNotificationE" ]
  },
  {
   "alignment" : 8,
   "fields" :
   [
    {
     "access" : "private",
     "field_name" : "m_ptr",
     "referenced_type" : "_ZTIPN7android8hardware20hidl_death_recipientE"
    }
   ],
   "linker_set_key" : "_ZTIN7android2spINS_8hardware20hidl_death_recipientEEE",
   "name" : "android::sp<android::hardware::hidl_death_recipient>",
   "record_kind" : "class",
   "referenced_type" : "_ZTIN7android2spINS_8hardware20hidl_death_recipientEEE",
   "self_type" : "_ZTIN7android2spINS_8hardware20hidl_death_recipientEEE",
   "size" : 8,
   "source_file" : "/system/core/libutils/include/utils/StrongPointer.h",
   "template_args" : [ "_ZTIN7android8hardware20hidl_death_recipientE" ]
  },
  {
   "alignment" : 8,
   "fields" :
   [
    {
     "access" : "private",
     "field_name" : "m_ptr",
     "referenced_type" : "_ZTIPN7android8hardware5media10bufferpool4V2_011IConnectionE"
    }
   ],
   "linker_set_key" : "_ZTIN7android2spINS_8hardware5media10bufferpool4V2_011IConnectionEEE",
   "name" : "android::sp<android::hardware::media::bufferpool::V2_0::IConnection>",
   "record_kind" : "class",
   "referenced_type" : "_ZTIN7android2spINS_8hardware5media10bufferpool4V2_011IConnectionEEE",
   "self_type" : "_ZTIN7android2spINS_8hardware5media10bufferpool4V2_011IConnectionEEE",
   "size" : 8,
   "source_file" : "/system/core/libutils/include/utils/StrongPointer.h",
   "template_args" : [ "_ZTIN7android8hardware5media10bufferpool4V2_011IConnectionE" ]
  },
  {
   "alignment" : 8,
   "fields" :
   [
    {
     "access" : "private",
     "field_name" : "m_ptr",
     "referenced_type" : "_ZTIPN7android8hardware5media10bufferpool4V2_014IClientManagerE"
    }
   ],
   "linker_set_key" : "_ZTIN7android2spINS_8hardware5media10bufferpool4V2_014IClientManagerEEE",
   "name" : "android::sp<android::hardware::media::bufferpool::V2_0::IClientManager>",
   "record_kind" : "class",
   "referenced_type" : "_ZTIN7android2spINS_8hardware5media10bufferpool4V2_014IClientManagerEEE",
   "self_type" : "_ZTIN7android2spINS_8hardware5media10bufferpool4V2_014IClientManagerEEE",
   "size" : 8,
   "source_file" : "/system/core/libutils/include/utils/StrongPointer.h",
   "template_args" : [ "_ZTIN7android8hardware5media10bufferpool4V2_014IClientManagerE" ]
  },
  {
   "alignment" : 8,
   "fields" :
   [
    {
     "access" : "private",
     "field_name" : "m_ptr",
     "referenced_type" : "_ZTIPN7android8hardware5media10bufferpool4V2_014implementation10ConnectionE"
    }
   ],
   "linker_set_key" : "_ZTIN7android2spINS_8hardware5media10bufferpool4V2_014implementation10ConnectionEEE",
   "name" : "android::sp<android::hardware::media::bufferpool::V2_0::implementation::Connection>",
   "record_kind" : "class",
   "referenced_type" : "_ZTIN7android2spINS_8hardware5media10bufferpool4V2_014implementation10ConnectionEEE",
   "self_type" : "_ZTIN7android2spINS_8hardware5media10bufferpool4V2_014implementation10ConnectionEEE",
   "size" : 8,
   "source_file" : "/system/core/libutils/include/utils/StrongPointer.h",
   "template_args" :
   [
    "_ZTIN7android8hardware5media10bufferpool4V2_014implementation10ConnectionE"
   ]
  },
  {
   "alignment" : 8,
   "fields" :
   [
    {
     "access" : "private",
     "field_name" : "m_ptr",
     "referenced_type" : "_ZTIPN7android8hardware5media10bufferpool4V2_014implementation13ClientManagerE"
    }
   ],
   "linker_set_key" : "_ZTIN7android2spINS_8hardware5media10bufferpool4V2_014implementation13ClientManagerEEE",
   "name" : "android::sp<android::hardware::media::bufferpool::V2_0::implementation::ClientManager>",
   "record_kind" : "class",
   "referenced_type" : "_ZTIN7android2spINS_8hardware5media10bufferpool4V2_014implementation13ClientManagerEEE",
   "self_type" : "_ZTIN7android2spINS_8hardware5media10bufferpool4V2_014implementation13ClientManagerEEE",
   "size" : 8,
   "source_file" : "/system/core/libutils/include/utils/StrongPointer.h",
   "template_args" :
   [
    "_ZTIN7android8hardware5media10bufferpool4V2_014implementation13ClientManagerE"
   ]
  },
  {
   "alignment" : 8,
   "fields" :
   [
    {
     "access" : "private",
     "field_name" : "m_ptr",
     "referenced_type" : "_ZTIPN7android8hardware5media10bufferpool4V2_014implementation24ConnectionDeathRecipientE"
    }
   ],
   "linker_set_key" : "_ZTIN7android2spINS_8hardware5media10bufferpool4V2_014implementation24ConnectionDeathRecipientEEE",
   "name" : "android::sp<android::hardware::media::bufferpool::V2_0::implementation::ConnectionDeathRecipient>",
   "record_kind" : "class",
   "referenced_type" : "_ZTIN7android2spINS_8hardware5media10bufferpool4V2_014implementation24ConnectionDeathRecipientEEE",
   "self_type" : "_ZTIN7android2spINS_8hardware5media10bufferpool4V2_014implementation24ConnectionDeathRecipientEEE",
   "size" : 8,
   "source_file" : "/system/core/libutils/include/utils/StrongPointer.h",
   "template_args" :
   [
    "_ZTIN7android8hardware5media10bufferpool4V2_014implementation24ConnectionDeathRecipientE"
   ]
  },
  {
   "alignment" : 8,
   "fields" :
   [
    {
     "access" : "private",
     "field_name" : "m_ptr",
     "referenced_type" : "_ZTIPN7android8hardware5media10bufferpool4V2_014implementation8AccessorE"
    }
   ],
   "linker_set_key" : "_ZTIN7android2spINS_8hardware5media10bufferpool4V2_014implementation8AccessorEEE",
   "name" : "android::sp<android::hardware::media::bufferpool::V2_0::implementation::Accessor>",
   "record_kind" : "class",
   "referenced_type" : "_ZTIN7android2spINS_8hardware5media10bufferpool4V2_014implementation8AccessorEEE",
   "self_type" : "_ZTIN7android2spINS_8hardware5media10bufferpool4V2_014implementation8AccessorEEE",
   "size" : 8,
   "source_file" : "/system/core/libutils/include/utils/StrongPointer.h",
   "template_args" :
   [
    "_ZTIN7android8hardware5media10bufferpool4V2_014implementation8AccessorE"
   ]
  },
  {
   "alignment" : 8,
   "fields" :
   [
    {
     "access" : "private",
     "field_name" : "m_ptr",
     "referenced_type" : "_ZTIPN7android8hardware5media10bufferpool4V2_014implementation8ObserverE"
    }
   ],
   "linker_set_key" : "_ZTIN7android2spINS_8hardware5media10bufferpool4V2_014implementation8ObserverEEE",
   "name" : "android::sp<android::hardware::media::bufferpool::V2_0::implementation::Observer>",
   "record_kind" : "class",
   "referenced_type" : "_ZTIN7android2spINS_8hardware5media10bufferpool4V2_014implementation8ObserverEEE",
   "self_type" : "_ZTIN7android2spINS_8hardware5media10bufferpool4V2_014implementation8ObserverEEE",
   "size" : 8,
   "source_file" : "/system/core/libutils/include/utils/StrongPointer.h",
   "template_args" :
   [
    "_ZTIN7android8hardware5media10bufferpool4V2_014implementation8ObserverE"
   ]
  },
  {
   "alignment" : 8,
   "fields" :
   [
    {
     "access" : "private",
     "field_name" : "m_ptr",
     "referenced_type" : "_ZTIPN7android8hardware5media10bufferpool4V2_09IAccessorE"
    }
   ],
   "linker_set_key" : "_ZTIN7android2spINS_8hardware5media10bufferpool4V2_09IAccessorEEE",
   "name" : "android::sp<android::hardware::media::bufferpool::V2_0::IAccessor>",
   "record_kind" : "class",
   "referenced_type" : "_ZTIN7android2spINS_8hardware5media10bufferpool4V2_09IAccessorEEE",
   "self_type" : "_ZTIN7android2spINS_8hardware5media10bufferpool4V2_09IAccessorEEE",
   "size" : 8,
   "source_file" : "/system/core/libutils/include/utils/StrongPointer.h",
   "template_args" : [ "_ZTIN7android8hardware5media10bufferpool4V2_09IAccessorE" ]
  },
  {
   "alignment" : 8,
   "fields" :
   [
    {
     "access" : "private",
     "field_name" : "m_ptr",
     "referenced_type" : "_ZTIPN7android8hardware5media10bufferpool4V2_09IObserverE"
    }
   ],
   "linker_set_key" : "_ZTIN7android2spINS_8hardware5media10bufferpool4V2_09IObserverEEE",
   "name" : "android::sp<android::hardware::media::bufferpool::V2_0::IObserver>",
   "record_kind" : "class",
   "referenced_type" : "_ZTIN7android2spINS_8hardware5media10bufferpool4V2_09IObserverEEE",
   "self_type" : "_ZTIN7android2spINS_8hardware5media10bufferpool4V2_09IObserverEEE",
   "size" : 8,
   "source_file" : "/system/core/libutils/include/utils/StrongPointer.h",
   "template_args" : [ "_ZTIN7android8hardware5media10bufferpool4V2_09IObserverE" ]
  },
  {
   "alignment" : 8,
   "fields" :
   [
    {
     "access" : "private",
     "field_name" : "m_ptr",
     "referenced_type" : "_ZTIPN7android8hardware7IBinderE"
    }
   ],
   "linker_set_key" : "_ZTIN7android2spINS_8hardware7IBinderEEE",
   "name" : "android::sp<android::hardware::IBinder>",
   "record_kind" : "class",
   "referenced_type" : "_ZTIN7android2spINS_8hardware7IBinderEEE",
   "self_type" : "_ZTIN7android2spINS_8hardware7IBinderEEE",
   "size" : 8,
   "source_file" : "/system/core/libutils/include/utils/StrongPointer.h",
   "template_args" : [ "_ZTIN7android8hardware7IBinderE" ]
  },
  {
   "alignment" : 8,
   "fields" :
   [
    {
     "access" : "private",
     "field_name" : "m_ptr",
     "referenced_type" : "_ZTIPN7android4hidl4base4V1_05IBaseE"
    },
    {
     "access" : "private",
     "field_name" : "m_refs",
     "field_offset" : 64,
     "referenced_type" : "_ZTIPN7android7RefBase12weakref_typeE"
    }
   ],
   "linker_set_key" : "_ZTIN7android2wpINS_4hidl4base4V1_05IBaseEEE",
   "name" : "android::wp<android::hidl::base::V1_0::IBase>",
   "record_kind" : "class",
   "referenced_type" : "_ZTIN7android2wpINS_4hidl4base4V1_05IBaseEEE",
   "self_type" : "_ZTIN7android2wpINS_4hidl4base4V1_05IBaseEEE",
   "size" : 16,
   "source_file" : "/system/core/libutils/include/utils/RefBase.h",
   "template_args" : [ "_ZTIN7android4hidl4base4V1_05IBaseE" ]
  },
  {
   "alignment" : 8,
   "fields" :
   [
    {
     "access" : "private",
     "field_name" : "m_ptr",
     "referenced_type" : "_ZTIPN7android8hardware20hidl_death_recipientE"
    },
    {
     "access" : "private",
     "field_name" : "m_refs",
     "field_offset" : 64,
     "referenced_type" : "_ZTIPN7android7RefBase12weakref_typeE"
    }
   ],
   "linker_set_key" : "_ZTIN7android2wpINS_8hardware20hidl_death_recipientEEE",
   "name" : "android::wp<android::hardware::hidl_death_recipient>",
   "record_kind" : "class",
   "referenced_type" : "_ZTIN7android2wpINS_8hardware20hidl_death_recipientEEE",
   "self_type" : "_ZTIN7android2wpINS_8hardware20hidl_death_recipientEEE",
   "size" : 16,
   "source_file" : "/system/core/libutils/include/utils/RefBase.h",
   "template_args" : [ "_ZTIN7android8hardware20hidl_death_recipientE" ]
  },
  {
   "alignment" : 8,
   "fields" :
   [
    {
     "access" : "private",
     "field_name" : "m_ptr",
     "referenced_type" : "_ZTIPN7android8hardware5media10bufferpool4V2_014IClientManagerE"
    },
    {
     "access" : "private",
     "field_name" : "m_refs",
     "field_offset" : 64,
     "referenced_type" : "_ZTIPN7android7RefBase12weakref_typeE"
    }
   ],
   "linker_set_key" : "_ZTIN7android2wpINS_8hardware5media10bufferpool4V2_014IClientManagerEEE",
   "name" : "android::wp<android::hardware::media::bufferpool::V2_0::IClientManager>",
   "record_kind" : "class",
   "referenced_type" : "_ZTIN7android2wpINS_8hardware5media10bufferpool4V2_014IClientManagerEEE",
   "self_type" : "_ZTIN7android2wpINS_8hardware5media10bufferpool4V2_014IClientManagerEEE",
   "size" : 16,
   "source_file" : "/system/core/libutils/include/utils/RefBase.h",
   "template_args" : [ "_ZTIN7android8hardware5media10bufferpool4V2_014IClientManagerE" ]
  },
  {
   "alignment" : 8,
   "fields" :
   [
    {
     "access" : "private",
     "field_name" : "m_ptr",
     "referenced_type" : "_ZTIPN7android8hardware5media10bufferpool4V2_014implementation8AccessorE"
    },
    {
     "access" : "private",
     "field_name" : "m_refs",
     "field_offset" : 64,
     "referenced_type" : "_ZTIPN7android7RefBase12weakref_typeE"
    }
   ],
   "linker_set_key" : "_ZTIN7android2wpINS_8hardware5media10bufferpool4V2_014implementation8AccessorEEE",
   "name" : "android::wp<android::hardware::media::bufferpool::V2_0::implementation::Accessor>",
   "record_kind" : "class",
   "referenced_type" : "_ZTIN7android2wpINS_8hardware5media10bufferpool4V2_014implementation8AccessorEEE",
   "self_type" : "_ZTIN7android2wpINS_8hardware5media10bufferpool4V2_014implementation8AccessorEEE",
   "size" : 16,
   "source_file" : "/system/core/libutils/include/utils/RefBase.h",
   "template_args" :
   [
    "_ZTIN7android8hardware5media10bufferpool4V2_014implementation8AccessorE"
   ]
  },
  {
   "alignment" : 8,
   "fields" :
   [
    {
     "access" : "private",
     "field_name" : "m_ptr",
     "referenced_type" : "_ZTIPN7android8hardware5media10bufferpool4V2_09IAccessorE"
    },
    {
     "access" : "private",
     "field_name" : "m_refs",
     "field_offset" : 64,
     "referenced_type" : "_ZTIPN7android7RefBase12weakref_typeE"
    }
   ],
   "linker_set_key" : "_ZTIN7android2wpINS_8hardware5media10bufferpool4V2_09IAccessorEEE",
   "name" : "android::wp<android::hardware::media::bufferpool::V2_0::IAccessor>",
   "record_kind" : "class",
   "referenced_type" : "_ZTIN7android2wpINS_8hardware5media10bufferpool4V2_09IAccessorEEE",
   "self_type" : "_ZTIN7android2wpINS_8hardware5media10bufferpool4V2_09IAccessorEEE",
   "size" : 16,
   "source_file" : "/system/core/libutils/include/utils/RefBase.h",
   "template_args" : [ "_ZTIN7android8hardware5media10bufferpool4V2_09IAccessorE" ]
  },
  {
   "alignment" : 8,
   "base_specifiers" :
   [
    {
     "is_virtual" : true,
     "referenced_type" : "_ZTIN7android7RefBaseE"
    }
   ],
   "linker_set_key" : "_ZTIN7android4hidl4base4V1_05IBaseE",
   "name" : "android::hidl::base::V1_0::IBase",
   "referenced_type" : "_ZTIN7android4hidl4base4V1_05IBaseE",
   "self_type" : "_ZTIN7android4hidl4base4V1_05IBaseE",
   "size" : 24,
   "source_file" : "/out/soong/.intermediates/system/libhidl/transport/base/1.0/android.hidl.base@1.0_genc++_headers/gen/android/hidl/base/1.0/IBase.h",
   "vtable_components" :
   [
    {
     "component_value" : 8,
     "kind" : "vbase_offset"
    },
    {
     "kind" : "offset_to_top"
    },
    {
     "kind" : "rtti",
     "mangled_component_name" : "_ZTIN7android4hidl4base4V1_05IBaseE"
    },
    {
     "mangled_component_name" : "_ZNK7android4hidl4base4V1_05IBase8isRemoteEv"
    },
    {
     "mangled_component_name" : "_ZN7android4hidl4base4V1_05IBase14interfaceChainENSt3__18functionIFvRKNS_8hardware8hidl_vecINS6_11hidl_stringEEEEEE"
    },
    {
     "mangled_component_name" : "_ZN7android4hidl4base4V1_05IBase5debugERKNS_8hardware11hidl_handleERKNS4_8hidl_vecINS4_11hidl_stringEEE"
    },
    {
     "mangled_component_name" : "_ZN7android4hidl4base4V1_05IBase19interfaceDescriptorENSt3__18functionIFvRKNS_8hardware11hidl_stringEEEE"
    },
    {
     "mangled_component_name" : "_ZN7android4hidl4base4V1_05IBase12getHashChainENSt3__18functionIFvRKNS_8hardware8hidl_vecINS6_10hidl_arrayIhLm32EJEEEEEEEE"
    },
    {
     "mangled_component_name" : "_ZN7android4hidl4base4V1_05IBase21setHALInstrumentationEv"
    },
    {
     "mangled_component_name" : "_ZN7android4hidl4base4V1_05IBase11linkToDeathERKNS_2spINS_8hardware20hidl_death_recipientEEEm"
    },
    {
     "mangled_component_name" : "_ZN7android4hidl4base4V1_05IBase4pingEv"
    },
    {
     "mangled_component_name" : "_ZN7android4hidl4base4V1_05IBase12getDebugInfoENSt3__18functionIFvRKNS2_9DebugInfoEEEE"
    },
    {
     "mangled_component_name" : "_ZN7android4hidl4base4V1_05IBase21notifySyspropsChangedEv"
    },
    {
     "mangled_component_name" : "_ZN7android4hidl4base4V1_05IBase13unlinkToDeathERKNS_2spINS_8hardware20hidl_death_recipientEEE"
    },
    {
     "kind" : "complete_dtor_pointer",
     "mangled_component_name" : "_ZN7android4hidl4base4V1_05IBaseD1Ev"
    },
    {
     "kind" : "deleting_dtor_pointer",
     "mangled_component_name" : "_ZN7android4hidl4base4V1_05IBaseD0Ev"
    },
    {
     "kind" : "vcall_offset"
    },
    {
     "kind" : "vcall_offset"
    },
    {
     "kind" : "vcall_offset"
    },
    {
     "kind" : "vcall_offset"
    },
    {
     "component_value" : -8,
     "kind" : "vcall_offset"
    },
    {
     "component_value" : -8,
     "kind" : "offset_to_top"
    },
    {
     "kind" : "rtti",
     "mangled_component_name" : "_ZTIN7android4hidl4base4V1_05IBaseE"
    },
    {
     "kind" : "complete_dtor_pointer",
     "mangled_component_name" : "_ZTv0_n24_N7android4hidl4base4V1_05IBaseD1Ev"
    },
    {
     "kind" : "deleting_dtor_pointer",
     "mangled_component_name" : "_ZTv0_n24_N7android4hidl4base4V1_05IBaseD0Ev"
    },
    {
     "mangled_component_name" : "_ZN7android7RefBase10onFirstRefEv"
    },
    {
     "mangled_component_name" : "_ZN7android7RefBase15onLastStrongRefEPKv"
    },
    {
     "mangled_component_name" : "_ZN7android7RefBase20onIncStrongAttemptedEjPKv"
    },
    {
     "mangled_component_name" : "_ZN7android7RefBase13onLastWeakRefEPKv"
    }
   ]
  },
  {
   "alignment" : 8,
   "base_specifiers" :
   [
    {
     "referenced_type" : "_ZTIN7android8hardware9BHwBinderE"
    },
    {
     "referenced_type" : "_ZTIN7android8hardware7details16HidlInstrumentorE"
    }
   ],
   "fields" :
   [
    {
     "access" : "private",
     "field_name" : "_hidl_mImpl",
     "field_offset" : 960,
     "referenced_type" : "_ZTIN7android2spINS_4hidl4base4V1_05IBaseEEE"
    }
   ],
   "linker_set_key" : "_ZTIN7android4hidl4base4V1_08BnHwBaseE",
   "name" : "android::hidl::base::V1_0::BnHwBase",
   "referenced_type" : "_ZTIN7android4hidl4base4V1_08BnHwBaseE",
   "self_type" : "_ZTIN7android4hidl4base4V1_08BnHwBaseE",
   "size" : 144,
   "source_file" : "/out/soong/.intermediates/system/libhidl/transport/base/1.0/android.hidl.base@1.0_genc++_headers/gen/android/hidl/base/1.0/BnHwBase.h",
   "vtable_components" :
   [
    {
     "component_value" : 128,
     "kind" : "vbase_offset"
    },
    {
     "kind" : "offset_to_top"
    },
    {
     "kind" : "rtti",
     "mangled_component_name" : "_ZTIN7android4hidl4base4V1_08BnHwBaseE"
    },
    {
     "mangled_component_name" : "_ZN7android8hardware9BHwBinder8transactEjRKNS0_6ParcelEPS2_jNSt3__18functionIFvRS2_EEE"
    },
    {
     "mangled_component_name" : "_ZN7android8hardware9BHwBinder11linkToDeathERKNS_2spINS0_7IBinder14DeathRecipientEEEPvj"
    },
    {
     "mangled_component_name" : "_ZN7android8hardware9BHwBinder13unlinkToDeathERKNS_2wpINS0_7IBinder14DeathRecipientEEEPvjPS5_"
    },
    {
     "mangled_component_name" : "_ZNK7android4hidl4base4V1_08BnHwBase13checkSubclassEPKv"
    },
    {
     "mangled_component_name" : "_ZN7android8hardware9BHwBinder12attachObjectEPKvPvS4_PFvS3_S4_S4_E"
    },
    {
     "mangled_component_name" : "_ZNK7android8hardware9BHwBinder10findObjectEPKv"
    },
    {
     "mangled_component_name" : "_ZN7android8hardware9BHwBinder12detachObjectEPKv"
    },
    {
     "mangled_component_name" : "_ZN7android8hardware9BHwBinder11localBinderEv"
    },
    {
     "mangled_component_name" : "_ZN7android8hardware7IBinder12remoteBinderEv"
    },
    {
     "kind" : "complete_dtor_pointer",
     "mangled_component_name" : "_ZN7android4hidl4base4V1_08BnHwBaseD1Ev"
    },
    {
     "kind" : "deleting_dtor_pointer",
     "mangled_component_name" : "_ZN7android4hidl4base4V1_08BnHwBaseD0Ev"
    },
    {
     "mangled_component_name" : "_ZN7android4hidl4base4V1_08BnHwBase10onTransactEjRKNS_8hardware6ParcelEPS5_jNSt3__18functionIFvRS5_EEE"
    },
    {
     "component_value" : -32,
     "kind" : "offset_to_top"
    },
    {
     "kind" : "rtti",
     "mangled_component_name" : "_ZTIN7android4hidl4base4V1_08BnHwBaseE"
    },
    {
     "kind" : "complete_dtor_pointer",
     "mangled_component_name" : "_ZThn32_N7android4hidl4base4V1_08BnHwBaseD1Ev"
    },
    {
     "kind" : "deleting_dtor_pointer",
     "mangled_component_name" : "_ZThn32_N7android4hidl4base4V1_08BnHwBaseD0Ev"
    },
    {
     "kind" : "vcall_offset"
    },
    {
     "kind" : "vcall_offset"
    },
    {
     "kind" : "vcall_offset"
    },
    {
     "kind" : "vcall_offset"
    },
    {
     "component_value" : -128,
     "kind" : "vcall_offset"
    },
    {
     "component_value" : -128,
     "kind" : "offset_to_top"
    },
    {
     "kind" : "rtti",
     "mangled_component_name" : "_ZTIN7android4hidl4base4V1_08BnHwBaseE"
    },
    {
     "kind" : "complete_dtor_pointer",
     "mangled_component_name" : "_ZTv0_n24_N7android4hidl4base4V1_08BnHwBaseD1Ev"
    },
    {
     "kind" : "deleting_dtor_pointer",
     "mangled_component_name" : "_ZTv0_n24_N7android4hidl4base4V1_08BnHwBaseD0Ev"
    },
    {
     "mangled_component_name" : "_ZN7android7RefBase10onFirstRefEv"
    },
    {
     "mangled_component_name" : "_ZN7android7RefBase15onLastStrongRefEPKv"
    },
    {
     "mangled_component_name" : "_ZN7android7RefBase20onIncStrongAttemptedEjPKv"
    },
    {
     "mangled_component_name" : "_ZN7android7RefBase13onLastWeakRefEPKv"
    }
   ]
  },
  {
   "alignment" : 8,
   "fields" :
   [
    {
     "field_name" : "pid",
     "referenced_type" : "_ZTIi"
    },
    {
     "field_name" : "ptr",
     "field_offset" : 64,
     "referenced_type" : "_ZTIm"
    },
    {
     "field_name" : "arch",
     "field_offset" : 128,
     "referenced_type" : "_ZTIN7android4hidl4base4V1_09DebugInfo12ArchitectureE"
    }
   ],
   "linker_set_key" : "_ZTIN7android4hidl4base4V1_09DebugInfoE",
   "name" : "android::hidl::base::V1_0::DebugInfo",
   "referenced_type" : "_ZTIN7android4hidl4base4V1_09DebugInfoE",
   "self_type" : "_ZTIN7android4hidl4base4V1_09DebugInfoE",
   "size" : 24,
   "source_file" : "/out/soong/.intermediates/system/libhidl/transport/base/1.0/android.hidl.base@1.0_genc++_headers/gen/android/hidl/base/1.0/types.h"
  },
  {
   "alignment" : 8,
   "base_specifiers" :
   [
    {
     "referenced_type" : "_ZTIN7android4hidl4base4V1_05IBaseE"
    }
   ],
   "linker_set_key" : "_ZTIN7android4hidl7manager4V1_020IServiceNotificationE",
   "name" : "android::hidl::manager::V1_0::IServiceNotification",
   "referenced_type" : "_ZTIN7android4hidl7manager4V1_020IServiceNotificationE",
   "self_type" : "_ZTIN7android4hidl7manager4V1_020IServiceNotificationE",
   "size" : 24,
   "source_file" : "/out/soong/.intermediates/system/libhidl/transport/manager/1.0/android.hidl.manager@1.0_genc++_headers/gen/android/hidl/manager/1.0/IServiceNotification.h",
   "vtable_components" :
   [
    {
     "component_value" : 8,
     "kind" : "vbase_offset"
    },
    {
     "kind" : "offset_to_top"
    },
    {
     "kind" : "rtti",
     "mangled_component_name" : "_ZTIN7android4hidl7manager4V1_020IServiceNotificationE"
    },
    {
     "mangled_component_name" : "_ZNK7android4hidl7manager4V1_020IServiceNotification8isRemoteEv"
    },
    {
     "mangled_component_name" : "_ZN7android4hidl7manager4V1_020IServiceNotification14interfaceChainENSt3__18functionIFvRKNS_8hardware8hidl_vecINS6_11hidl_stringEEEEEE"
    },
    {
     "mangled_component_name" : "_ZN7android4hidl7manager4V1_020IServiceNotification5debugERKNS_8hardware11hidl_handleERKNS4_8hidl_vecINS4_11hidl_stringEEE"
    },
    {
     "mangled_component_name" : "_ZN7android4hidl7manager4V1_020IServiceNotification19interfaceDescriptorENSt3__18functionIFvRKNS_8hardware11hidl_stringEEEE"
    },
    {
     "mangled_component_name" : "_ZN7android4hidl7manager4V1_020IServiceNotification12getHashChainENSt3__18functionIFvRKNS_8hardware8hidl_vecINS6_10hidl_arrayIhLm32EJEEEEEEEE"
    },
    {
     "mangled_component_name" : "_ZN7android4hidl7manager4V1_020IServiceNotification21setHALInstrumentationEv"
    },
    {
     "mangled_component_name" : "_ZN7android4hidl7manager4V1_020IServiceNotification11linkToDeathERKNS_2spINS_8hardware20hidl_death_recipientEEEm"
    },
    {
     "mangled_component_name" : "_ZN7android4hidl7manager4V1_020IServiceNotification4pingEv"
    },
    {
     "mangled_component_name" : "_ZN7android4hidl7manager4V1_020IServiceNotification12getDebugInfoENSt3__18functionIFvRKNS0_4base4V1_09DebugInfoEEEE"
    },
    {
     "mangled_component_name" : "_ZN7android4hidl7manager4V1_020IServiceNotification21notifySyspropsChangedEv"
    },
    {
     "mangled_component_name" : "_ZN7android4hidl7manager4V1_020IServiceNotification13unlinkToDeathERKNS_2spINS_8hardware20hidl_death_recipientEEE"
    },
    {
     "kind" : "complete_dtor_pointer",
     "mangled_component_name" : "_ZN7android4hidl7manager4V1_020IServiceNotificationD1Ev"
    },
    {
     "kind" : "deleting_dtor_pointer",
     "mangled_component_name" : "_ZN7android4hidl7manager4V1_020IServiceNotificationD0Ev"
    },
    {
     "is_pure" : true,
     "mangled_component_name" : "_ZN7android4hidl7manager4V1_020IServiceNotification14onRegistrationERKNS_8hardware11hidl_stringES7_b"
    },
    {
     "kind" : "vcall_offset"
    },
    {
     "kind" : "vcall_offset"
    },
    {
     "kind" : "vcall_offset"
    },
    {
     "kind" : "vcall_offset"
    },
    {
     "component_value" : -8,
     "kind" : "vcall_offset"
    },
    {
     "component_value" : -8,
     "kind" : "offset_to_top"
    },
    {
     "kind" : "rtti",
     "mangled_component_name" : "_ZTIN7android4hidl7manager4V1_020IServiceNotificationE"
    },
    {
     "kind" : "complete_dtor_pointer",
     "mangled_component_name" : "_ZTv0_n24_N7android4hidl7manager4V1_020IServiceNotificationD1Ev"
    },
    {
     "kind" : "deleting_dtor_pointer",
     "mangled_component_name" : "_ZTv0_n24_N7android4hidl7manager4V1_020IServiceNotificationD0Ev"
    },
    {
     "mangled_component_name" : "_ZN7android7RefBase10onFirstRefEv"
    },
    {
     "mangled_component_name" : "_ZN7android7RefBase15onLastStrongRefEPKv"
    },
    {
     "mangled_component_name" : "_ZN7android7RefBase20onIncStrongAttemptedEjPKv"
    },
    {
     "mangled_component_name" : "_ZN7android7RefBase13onLastWeakRefEPKv"
    }
   ]
  },
  {
   "alignment" : 1,
   "linker_set_key" : "_ZTIN7android7RefBase12weakref_typeE",
   "name" : "android::RefBase::weakref_type",
   "record_kind" : "class",
   "referenced_type" : "_ZTIN7android7RefBase12weakref_typeE",
   "self_type" : "_ZTIN7android7RefBase12weakref_typeE",
   "size" : 1,
   "source_file" : "/system/core/libutils/include/utils/RefBase.h"
  },
  {
   "alignment" : 8,
   "fields" :
   [
    {
     "access" : "private",
     "field_name" : "mRefs",
     "field_offset" : 64,
     "referenced_type" : "_ZTIKPN7android7RefBase12weakref_implE"
    }
   ],
   "linker_set_key" : "_ZTIN7android7RefBaseE",
   "name" : "android::RefBase",
   "record_kind" : "class",
   "referenced_type" : "_ZTIN7android7RefBaseE",
   "self_type" : "_ZTIN7android7RefBaseE",
   "size" : 16,
   "source_file" : "/system/core/libutils/include/utils/RefBase.h",
   "vtable_components" :
   [
    {
     "kind" : "offset_to_top"
    },
    {
     "kind" : "rtti",
     "mangled_component_name" : "_ZTIN7android7RefBaseE"
    },
    {
     "kind" : "complete_dtor_pointer",
     "mangled_component_name" : "_ZN7android7RefBaseD1Ev"
    },
    {
     "kind" : "deleting_dtor_pointer",
     "mangled_component_name" : "_ZN7android7RefBaseD0Ev"
    },
    {
     "mangled_component_name" : "_ZN7android7RefBase10onFirstRefEv"
    },
    {
     "mangled_component_name" : "_ZN7android7RefBase15onLastStrongRefEPKv"
    },
    {
     "mangled_component_name" : "_ZN7android7RefBase20onIncStrongAttemptedEjPKv"
    },
    {
     "mangled_component_name" : "_ZN7android7RefBase13onLastWeakRefEPKv"
    }
   ]
  },
  {
   "alignment" : 8,
   "fields" :
   [
    {
     "access" : "private",
     "field_name" : "mString",
     "referenced_type" : "_ZTIPKc"
    }
   ],
   "linker_set_key" : "_ZTIN7android7String8E",
   "name" : "android::String8",
   "record_kind" : "class",
   "referenced_type" : "_ZTIN7android7String8E",
   "self_type" : "_ZTIN7android7String8E",
   "size" : 8,
   "source_file" : "/system/core/libutils/include/utils/String8.h"
  },
  {
   "alignment" : 8,
   "fields" :
   [
    {
     "access" : "private",
     "field_name" : "mString",
     "referenced_type" : "_ZTIPKDs"
    }
   ],
   "linker_set_key" : "_ZTIN7android8String16E",
   "name" : "android::String16",
   "record_kind" : "class",
   "referenced_type" : "_ZTIN7android8String16E",
   "self_type" : "_ZTIN7android8String16E",
   "size" : 8,
   "source_file" : "/system/core/libutils/include/utils/String16.h"
  },
  {
   "alignment" : 8,
   "base_specifiers" :
   [
    {
     "is_virtual" : true,
     "referenced_type" : "_ZTIN7android8hardware11hidl_memoryE"
    },
    {
     "is_virtual" : true,
     "referenced_type" : "_ZTIN7android7RefBaseE"
    }
   ],
   "linker_set_key" : "_ZTIN7android8hardware10HidlMemoryE",
   "name" : "android::hardware::HidlMemory",
   "record_kind" : "class",
   "referenced_type" : "_ZTIN7android8hardware10HidlMemoryE",
   "self_type" : "_ZTIN7android8hardware10HidlMemoryE",
   "size" : 64,
   "source_file" : "/system/libhidl/base/include/hidl/HidlSupport.h",
   "vtable_components" :
   [
    {
     "component_value" : 48,
     "kind" : "vbase_offset"
    },
    {
     "component_value" : 8,
     "kind" : "vbase_offset"
    },
    {
     "kind" : "offset_to_top"
    },
    {
     "kind" : "rtti",
     "mangled_component_name" : "_ZTIN7android8hardware10HidlMemoryE"
    },
    {
     "kind" : "complete_dtor_pointer",
     "mangled_component_name" : "_ZN7android8hardware10HidlMemoryD1Ev"
    },
    {
     "kind" : "deleting_dtor_pointer",
     "mangled_component_name" : "_ZN7android8hardware10HidlMemoryD0Ev"
    },
    {
     "kind" : "vcall_offset"
    },
    {
     "kind" : "vcall_offset"
    },
    {
     "kind" : "vcall_offset"
    },
    {
     "kind" : "vcall_offset"
    },
    {
     "component_value" : -48,
     "kind" : "vcall_offset"
    },
    {
     "component_value" : -48,
     "kind" : "offset_to_top"
    },
    {
     "kind" : "rtti",
     "mangled_component_name" : "_ZTIN7android8hardware10HidlMemoryE"
    },
    {
     "kind" : "complete_dtor_pointer",
     "mangled_component_name" : "_ZTv0_n24_N7android8hardware10HidlMemoryD1Ev"
    },
    {
     "kind" : "deleting_dtor_pointer",
     "mangled_component_name" : "_ZTv0_n24_N7android8hardware10HidlMemoryD0Ev"
    },
    {
     "mangled_component_name" : "_ZN7android7RefBase10onFirstRefEv"
    },
    {
     "mangled_component_name" : "_ZN7android7RefBase15onLastStrongRefEPKv"
    },
    {
     "mangled_component_name" : "_ZN7android7RefBase20onIncStrongAttemptedEjPKv"
    },
    {
     "mangled_component_name" : "_ZN7android7RefBase13onLastWeakRefEPKv"
    }
   ]
  },
  {
   "alignment" : 8,
   "base_specifiers" :
   [
    {
     "is_virtual" : true,
     "referenced_type" : "_ZTIN7android7RefBaseE"
    }
   ],
   "linker_set_key" : "_ZTIN7android8hardware10IInterfaceE",
   "name" : "android::hardware::IInterface",
   "record_kind" : "class",
   "referenced_type" : "_ZTIN7android8hardware10IInterfaceE",
   "self_type" : "_ZTIN7android8hardware10IInterfaceE",
   "size" : 24,
   "source_file" : "/system/libhwbinder/include/hwbinder/IInterface.h",
   "vtable_components" :
   [
    {
     "component_value" : 8,
     "kind" : "vbase_offset"
    },
    {
     "kind" : "offset_to_top"
    },
    {
     "kind" : "rtti",
     "mangled_component_name" : "_ZTIN7android8hardware10IInterfaceE"
    },
    {
     "kind" : "complete_dtor_pointer",
     "mangled_component_name" : "_ZN7android8hardware10IInterfaceD1Ev"
    },
    {
     "kind" : "deleting_dtor_pointer",
     "mangled_component_name" : "_ZN7android8hardware10IInterfaceD0Ev"
    },
    {
     "is_pure" : true,
     "mangled_component_name" : "_ZN7android8hardware10IInterface10onAsBinderEv"
    },
    {
     "kind" : "vcall_offset"
    },
    {
     "kind" : "vcall_offset"
    },
    {
     "kind" : "vcall_offset"
    },
    {
     "kind" : "vcall_offset"
    },
    {
     "component_value" : -8,
     "kind" : "vcall_offset"
    },
    {
     "component_value" : -8,
     "kind" : "offset_to_top"
    },
    {
     "kind" : "rtti",
     "mangled_component_name" : "_ZTIN7android8hardware10IInterfaceE"
    },
    {
     "kind" : "complete_dtor_pointer",
     "mangled_component_name" : "_ZTv0_n24_N7android8hardware10IInterfaceD1Ev"
    },
    {
     "kind" : "deleting_dtor_pointer",
     "mangled_component_name" : "_ZTv0_n24_N7android8hardware10IInterfaceD0Ev"
    },
    {
     "mangled_component_name" : "_ZN7android7RefBase10onFirstRefEv"
    },
    {
     "mangled_component_name" : "_ZN7android7RefBase15onLastStrongRefEPKv"
    },
    {
     "mangled_component_name" : "_ZN7android7RefBase20onIncStrongAttemptedEjPKv"
    },
    {
     "mangled_component_name" : "_ZN7android7RefBase13onLastWeakRefEPKv"
    }
   ]
  },
  {
   "alignment" : 8,
   "base_specifiers" :
   [
    {
     "is_virtual" : true,
     "referenced_type" : "_ZTIN7android7RefBaseE"
    }
   ],
   "fields" :
   [
    {
     "access" : "private",
     "field_name" : "mRemote",
     "field_offset" : 64,
     "referenced_type" : "_ZTIKPN7android8hardware7IBinderE"
    },
    {
     "access" : "private",
     "field_name" : "mRefs",
     "field_offset" : 128,
     "referenced_type" : "_ZTIPN7android7RefBase12weakref_typeE"
    },
    {
     "access" : "private",
     "field_name" : "mState",
     "field_offset" : 192,
     "referenced_type" : "_ZTINSt3__16atomicIiEE"
    }
   ],
   "linker_set_key" : "_ZTIN7android8hardware11BpHwRefBaseE",
   "name" : "android::hardware::BpHwRefBase",
   "record_kind" : "class",
   "referenced_type" : "_ZTIN7android8hardware11BpHwRefBaseE",
   "self_type" : "_ZTIN7android8hardware11BpHwRefBaseE",
   "size" : 48,
   "source_file" : "/system/libhwbinder/include/hwbinder/Binder.h",
   "vtable_components" :
   [
    {
     "component_value" : 32,
     "kind" : "vbase_offset"
    },
    {
     "kind" : "offset_to_top"
    },
    {
     "kind" : "rtti",
     "mangled_component_name" : "_ZTIN7android8hardware11BpHwRefBaseE"
    },
    {
     "kind" : "complete_dtor_pointer",
     "mangled_component_name" : "_ZN7android8hardware11BpHwRefBaseD1Ev"
    },
    {
     "kind" : "deleting_dtor_pointer",
     "mangled_component_name" : "_ZN7android8hardware11BpHwRefBaseD0Ev"
    },
    {
     "mangled_component_name" : "_ZN7android8hardware11BpHwRefBase10onFirstRefEv"
    },
    {
     "mangled_component_name" : "_ZN7android8hardware11BpHwRefBase15onLastStrongRefEPKv"
    },
    {
     "mangled_component_name" : "_ZN7android8hardware11BpHwRefBase20onIncStrongAttemptedEjPKv"
    },
    {
     "kind" : "vcall_offset"
    },
    {
     "component_value" : -32,
     "kind" : "vcall_offset"
    },
    {
     "component_value" : -32,
     "kind" : "vcall_offset"
    },
    {
     "component_value" : -32,
     "kind" : "vcall_offset"
    },
    {
     "component_value" : -32,
     "kind" : "vcall_offset"
    },
    {
     "component_value" : -32,
     "kind" : "offset_to_top"
    },
    {
     "kind" : "rtti",
     "mangled_component_name" : "_ZTIN7android8hardware11BpHwRefBaseE"
    },
    {
     "kind" : "complete_dtor_pointer",
     "mangled_component_name" : "_ZTv0_n24_N7android8hardware11BpHwRefBaseD1Ev"
    },
    {
     "kind" : "deleting_dtor_pointer",
     "mangled_component_name" : "_ZTv0_n24_N7android8hardware11BpHwRefBaseD0Ev"
    },
    {
     "mangled_component_name" : "_ZTv0_n32_N7android8hardware11BpHwRefBase10onFirstRefEv"
    },
    {
     "mangled_component_name" : "_ZTv0_n40_N7android8hardware11BpHwRefBase15onLastStrongRefEPKv"
    },
    {
     "mangled_component_name" : "_ZTv0_n48_N7android8hardware11BpHwRefBase20onIncStrongAttemptedEjPKv"
    },
    {
     "mangled_component_name" : "_ZN7android7RefBase13onLastWeakRefEPKv"
    }
   ]
  },
  {
   "alignment" : 8,
   "fields" :
   [
    {
     "access" : "private",
     "field_name" : "mHandle",
     "referenced_type" : "_ZTIN7android8hardware7details12hidl_pointerIK13native_handleEE"
    },
    {
     "access" : "private",
     "field_name" : "mOwnsHandle",
     "field_offset" : 64,
     "referenced_type" : "_ZTIb"
    },
    {
     "access" : "private",
     "field_name" : "mPad",
     "field_offset" : 72,
     "referenced_type" : "_ZTIA7_h"
    }
   ],
   "linker_set_key" : "_ZTIN7android8hardware11hidl_handleE",
   "name" : "android::hardware::hidl_handle",
   "referenced_type" : "_ZTIN7android8hardware11hidl_handleE",
   "self_type" : "_ZTIN7android8hardware11hidl_handleE",
   "size" : 16,
   "source_file" : "/system/libhidl/base/include/hidl/HidlSupport.h"
  },
  {
   "alignment" : 8,
   "fields" :
   [
    {
     "access" : "private",
     "field_name" : "mHandle",
     "referenced_type" : "_ZTIN7android8hardware11hidl_handleE"
    },
    {
     "access" : "private",
     "field_name" : "mSize",
     "field_offset" : 128,
     "referenced_type" : "_ZTIm"
    },
    {
     "access" : "private",
     "field_name" : "mName",
     "field_offset" : 192,
     "referenced_type" : "_ZTIN7android8hardware11hidl_stringE"
    }
   ],
   "linker_set_key" : "_ZTIN7android8hardware11hidl_memoryE",
   "name" : "android::hardware::hidl_memory",
   "referenced_type" : "_ZTIN7android8hardware11hidl_memoryE",
   "self_type" : "_ZTIN7android8hardware11hidl_memoryE",
   "size" : 40,
   "source_file" : "/system/libhidl/base/include/hidl/HidlSupport.h"
  },
  {
   "alignment" : 8,
   "fields" :
   [
    {
     "access" : "private",
     "field_name" : "mBuffer",
     "referenced_type" : "_ZTIN7android8hardware7details12hidl_pointerIKcEE"
    },
    {
     "access" : "private",
     "field_name" : "mSize",
     "field_offset" : 64,
     "referenced_type" : "_ZTIj"
    },
    {
     "access" : "private",
     "field_name" : "mOwnsBuffer",
     "field_offset" : 96,
     "referenced_type" : "_ZTIb"
    },
    {
     "access" : "private",
     "field_name" : "mPad",
     "field_offset" : 104,
     "referenced_type" : "_ZTIA3_h"
    }
   ],
   "linker_set_key" : "_ZTIN7android8hardware11hidl_stringE",
   "name" : "android::hardware::hidl_string",
   "referenced_type" : "_ZTIN7android8hardware11hidl_stringE",
   "self_type" : "_ZTIN7android8hardware11hidl_stringE",
   "size" : 16,
   "source_file" : "/system/libhidl/base/include/hidl/HidlSupport.h"
  },
  {
   "alignment" : 8,
   "fields" :
   [
    {
     "access" : "private",
     "field_name" : "mGrantors",
     "referenced_type" : "_ZTIN7android8hardware8hidl_vecINS0_17GrantorDescriptorEEE"
    },
    {
     "access" : "private",
     "field_name" : "mHandle",
     "field_offset" : 128,
     "referenced_type" : "_ZTIN7android8hardware7details12hidl_pointerI13native_handleEE"
    },
    {
     "access" : "private",
     "field_name" : "mQuantum",
     "field_offset" : 192,
     "referenced_type" : "_ZTIj"
    },
    {
     "access" : "private",
     "field_name" : "mFlags",
     "field_offset" : 224,
     "referenced_type" : "_ZTIj"
    }
   ],
   "linker_set_key" : "_ZTIN7android8hardware12MQDescriptorINS0_5media10bufferpool4V2_019BufferStatusMessageELNS0_8MQFlavorE1EEE",
   "name" : "android::hardware::MQDescriptor<android::hardware::media::bufferpool::V2_0::BufferStatusMessage, android::hardware::kSynchronizedReadWrite>",
   "referenced_type" : "_ZTIN7android8hardware12MQDescriptorINS0_5media10bufferpool4V2_019BufferStatusMessageELNS0_8MQFlavorE1EEE",
   "self_type" : "_ZTIN7android8hardware12MQDescriptorINS0_5media10bufferpool4V2_019BufferStatusMessageELNS0_8MQFlavorE1EEE",
   "size" : 32,
   "source_file" : "/system/libhidl/base/include/hidl/MQDescriptor.h",
   "template_args" : [ "_ZTIN7android8hardware5media10bufferpool4V2_019BufferStatusMessageE" ]
  },
  {
   "alignment" : 8,
   "fields" :
   [
    {
     "access" : "private",
     "field_name" : "mGrantors",
     "referenced_type" : "_ZTIN7android8hardware8hidl_vecINS0_17GrantorDescriptorEEE"
    },
    {
     "access" : "private",
     "field_name" : "mHandle",
     "field_offset" : 128,
     "referenced_type" : "_ZTIN7android8hardware7details12hidl_pointerI13native_handleEE"
    },
    {
     "access" : "private",
     "field_name" : "mQuantum",
     "field_offset" : 192,
     "referenced_type" : "_ZTIj"
    },
    {
     "access" : "private",
     "field_name" : "mFlags",
     "field_offset" : 224,
     "referenced_type" : "_ZTIj"
    }
   ],
   "linker_set_key" : "_ZTIN7android8hardware12MQDescriptorINS0_5media10bufferpool4V2_025BufferInvalidationMessageELNS0_8MQFlavorE2EEE",
   "name" : "android::hardware::MQDescriptor<android::hardware::media::bufferpool::V2_0::BufferInvalidationMessage, android::hardware::kUnsynchronizedWrite>",
   "referenced_type" : "_ZTIN7android8hardware12MQDescriptorINS0_5media10bufferpool4V2_025BufferInvalidationMessageELNS0_8MQFlavorE2EEE",
   "self_type" : "_ZTIN7android8hardware12MQDescriptorINS0_5media10bufferpool4V2_025BufferInvalidationMessageELNS0_8MQFlavorE2EEE",
   "size" : 32,
   "source_file" : "/system/libhidl/base/include/hidl/MQDescriptor.h",
   "template_args" :
   [
    "_ZTIN7android8hardware5media10bufferpool4V2_025BufferInvalidationMessageE"
   ]
  },
  {
   "alignment" : 8,
   "fields" :
   [
    {
     "access" : "private",
     "field_name" : "first",
     "referenced_type" : "_ZTIN7android8hardware12MessageQueueINS0_5media10bufferpool4V2_019BufferStatusMessageELNS0_8MQFlavorE1EE9MemRegionE"
    },
    {
     "access" : "private",
     "field_name" : "second",
     "field_offset" : 128,
     "referenced_type" : "_ZTIN7android8hardware12MessageQueueINS0_5media10bufferpool4V2_019BufferStatusMessageELNS0_8MQFlavorE1EE9MemRegionE"
    }
   ],
   "linker_set_key" : "_ZTIN7android8hardware12MessageQueueINS0_5media10bufferpool4V2_019BufferStatusMessageELNS0_8MQFlavorE1EE14MemTransactionE",
   "name" : "android::hardware::MessageQueue<BufferStatusMessage, android::hardware::kSynchronizedReadWrite>::MemTransaction",
   "referenced_type" : "_ZTIN7android8hardware12MessageQueueINS0_5media10bufferpool4V2_019BufferStatusMessageELNS0_8MQFlavorE1EE14MemTransactionE",
   "self_type" : "_ZTIN7android8hardware12MessageQueueINS0_5media10bufferpool4V2_019BufferStatusMessageELNS0_8MQFlavorE1EE14MemTransactionE",
   "size" : 32,
   "source_file" : "/system/libfmq/include/fmq/MessageQueue.h"
  },
  {
   "alignment" : 8,
   "fields" :
   [
    {
     "access" : "private",
     "field_name" : "address",
     "referenced_type" : "_ZTIPN7android8hardware5media10bufferpool4V2_019BufferStatusMessageE"
    },
    {
     "access" : "private",
     "field_name" : "length",
     "field_offset" : 64,
     "referenced_type" : "_ZTIm"
    }
   ],
   "linker_set_key" : "_ZTIN7android8hardware12MessageQueueINS0_5media10bufferpool4V2_019BufferStatusMessageELNS0_8MQFlavorE1EE9MemRegionE",
   "name" : "android::hardware::MessageQueue<BufferStatusMessage, android::hardware::kSynchronizedReadWrite>::MemRegion",
   "referenced_type" : "_ZTIN7android8hardware12MessageQueueINS0_5media10bufferpool4V2_019BufferStatusMessageELNS0_8MQFlavorE1EE9MemRegionE",
   "self_type" : "_ZTIN7android8hardware12MessageQueueINS0_5media10bufferpool4V2_019BufferStatusMessageELNS0_8MQFlavorE1EE9MemRegionE",
   "size" : 16,
   "source_file" : "/system/libfmq/include/fmq/MessageQueue.h"
  },
  {
   "alignment" : 8,
   "fields" :
   [
    {
     "access" : "private",
     "field_name" : "mDesc",
     "referenced_type" : "_ZTINSt3__110unique_ptrIN7android8hardware12MQDescriptorINS2_5media10bufferpool4V2_019BufferStatusMessageELNS2_8MQFlavorE1EEENS_14default_deleteIS9_EEEE"
    },
    {
     "access" : "private",
     "field_name" : "mRing",
     "field_offset" : 64,
     "referenced_type" : "_ZTIPh"
    },
    {
     "access" : "private",
     "field_name" : "mReadPtr",
     "field_offset" : 128,
     "referenced_type" : "_ZTIPNSt3__16atomicImEE"
    },
    {
     "access" : "private",
     "field_name" : "mWritePtr",
     "field_offset" : 192,
     "referenced_type" : "_ZTIPNSt3__16atomicImEE"
    },
    {
     "access" : "private",
     "field_name" : "mEvFlagWord",
     "field_offset" : 256,
     "referenced_type" : "_ZTIPNSt3__16atomicIjEE"
    },
    {
     "access" : "private",
     "field_name" : "mEventFlag",
     "field_offset" : 320,
     "referenced_type" : "_ZTIPN7android8hardware9EventFlagE"
    }
   ],
   "linker_set_key" : "_ZTIN7android8hardware12MessageQueueINS0_5media10bufferpool4V2_019BufferStatusMessageELNS0_8MQFlavorE1EEE",
   "name" : "android::hardware::MessageQueue<android::hardware::media::bufferpool::V2_0::BufferStatusMessage, android::hardware::kSynchronizedReadWrite>",
   "referenced_type" : "_ZTIN7android8hardware12MessageQueueINS0_5media10bufferpool4V2_019BufferStatusMessageELNS0_8MQFlavorE1EEE",
   "self_type" : "_ZTIN7android8hardware12MessageQueueINS0_5media10bufferpool4V2_019BufferStatusMessageELNS0_8MQFlavorE1EEE",
   "size" : 48,
   "source_file" : "/system/libfmq/include/fmq/MessageQueue.h",
   "template_args" : [ "_ZTIN7android8hardware5media10bufferpool4V2_019BufferStatusMessageE" ]
  },
  {
   "alignment" : 8,
   "fields" :
   [
    {
     "access" : "private",
     "field_name" : "first",
     "referenced_type" : "_ZTIN7android8hardware12MessageQueueINS0_5media10bufferpool4V2_025BufferInvalidationMessageELNS0_8MQFlavorE2EE9MemRegionE"
    },
    {
     "access" : "private",
     "field_name" : "second",
     "field_offset" : 128,
     "referenced_type" : "_ZTIN7android8hardware12MessageQueueINS0_5media10bufferpool4V2_025BufferInvalidationMessageELNS0_8MQFlavorE2EE9MemRegionE"
    }
   ],
   "linker_set_key" : "_ZTIN7android8hardware12MessageQueueINS0_5media10bufferpool4V2_025BufferInvalidationMessageELNS0_8MQFlavorE2EE14MemTransactionE",
   "name" : "android::hardware::MessageQueue<BufferInvalidationMessage, android::hardware::kUnsynchronizedWrite>::MemTransaction",
   "referenced_type" : "_ZTIN7android8hardware12MessageQueueINS0_5media10bufferpool4V2_025BufferInvalidationMessageELNS0_8MQFlavorE2EE14MemTransactionE",
   "self_type" : "_ZTIN7android8hardware12MessageQueueINS0_5media10bufferpool4V2_025BufferInvalidationMessageELNS0_8MQFlavorE2EE14MemTransactionE",
   "size" : 32,
   "source_file" : "/system/libfmq/include/fmq/MessageQueue.h"
  },
  {
   "alignment" : 8,
   "fields" :
   [
    {
     "access" : "private",
     "field_name" : "address",
     "referenced_type" : "_ZTIPN7android8hardware5media10bufferpool4V2_025BufferInvalidationMessageE"
    },
    {
     "access" : "private",
     "field_name" : "length",
     "field_offset" : 64,
     "referenced_type" : "_ZTIm"
    }
   ],
   "linker_set_key" : "_ZTIN7android8hardware12MessageQueueINS0_5media10bufferpool4V2_025BufferInvalidationMessageELNS0_8MQFlavorE2EE9MemRegionE",
   "name" : "android::hardware::MessageQueue<BufferInvalidationMessage, android::hardware::kUnsynchronizedWrite>::MemRegion",
   "referenced_type" : "_ZTIN7android8hardware12MessageQueueINS0_5media10bufferpool4V2_025BufferInvalidationMessageELNS0_8MQFlavorE2EE9MemRegionE",
   "self_type" : "_ZTIN7android8hardware12MessageQueueINS0_5media10bufferpool4V2_025BufferInvalidationMessageELNS0_8MQFlavorE2EE9MemRegionE",
   "size" : 16,
   "source_file" : "/system/libfmq/include/fmq/MessageQueue.h"
  },
  {
   "alignment" : 8,
   "fields" :
   [
    {
     "access" : "private",
     "field_name" : "mDesc",
     "referenced_type" : "_ZTINSt3__110unique_ptrIN7android8hardware12MQDescriptorINS2_5media10bufferpool4V2_025BufferInvalidationMessageELNS2_8MQFlavorE2EEENS_14default_deleteIS9_EEEE"
    },
    {
     "access" : "private",
     "field_name" : "mRing",
     "field_offset" : 64,
     "referenced_type" : "_ZTIPh"
    },
    {
     "access" : "private",
     "field_name" : "mReadPtr",
     "field_offset" : 128,
     "referenced_type" : "_ZTIPNSt3__16atomicImEE"
    },
    {
     "access" : "private",
     "field_name" : "mWritePtr",
     "field_offset" : 192,
     "referenced_type" : "_ZTIPNSt3__16atomicImEE"
    },
    {
     "access" : "private",
     "field_name" : "mEvFlagWord",
     "field_offset" : 256,
     "referenced_type" : "_ZTIPNSt3__16atomicIjEE"
    },
    {
     "access" : "private",
     "field_name" : "mEventFlag",
     "field_offset" : 320,
     "referenced_type" : "_ZTIPN7android8hardware9EventFlagE"
    }
   ],
   "linker_set_key" : "_ZTIN7android8hardware12MessageQueueINS0_5media10bufferpool4V2_025BufferInvalidationMessageELNS0_8MQFlavorE2EEE",
   "name" : "android::hardware::MessageQueue<android::hardware::media::bufferpool::V2_0::BufferInvalidationMessage, android::hardware::kUnsynchronizedWrite>",
   "referenced_type" : "_ZTIN7android8hardware12MessageQueueINS0_5media10bufferpool4V2_025BufferInvalidationMessageELNS0_8MQFlavorE2EEE",
   "self_type" : "_ZTIN7android8hardware12MessageQueueINS0_5media10bufferpool4V2_025BufferInvalidationMessageELNS0_8MQFlavorE2EEE",
   "size" : 48,
   "source_file" : "/system/libfmq/include/fmq/MessageQueue.h",
   "template_args" :
   [
    "_ZTIN7android8hardware5media10bufferpool4V2_025BufferInvalidationMessageE"
   ]
  },
  {
   "alignment" : 2,
   "fields" :
   [
    {
     "access" : "private",
     "field_name" : "mMajor",
     "referenced_type" : "_ZTIt"
    },
    {
     "access" : "private",
     "field_name" : "mMinor",
     "field_offset" : 16,
     "referenced_type" : "_ZTIt"
    }
   ],
   "linker_set_key" : "_ZTIN7android8hardware12hidl_versionE",
   "name" : "android::hardware::hidl_version",
   "referenced_type" : "_ZTIN7android8hardware12hidl_versionE",
   "self_type" : "_ZTIN7android8hardware12hidl_versionE",
   "size" : 4,
   "source_file" : "/system/libhidl/base/include/hidl/HidlSupport.h"
  },
  {
   "alignment" : 8,
   "fields" :
   [
    {
     "field_name" : "flags",
     "referenced_type" : "_ZTIj"
    },
    {
     "field_name" : "fdIndex",
     "field_offset" : 32,
     "referenced_type" : "_ZTIj"
    },
    {
     "field_name" : "offset",
     "field_offset" : 64,
     "referenced_type" : "_ZTIj"
    },
    {
     "field_name" : "extent",
     "field_offset" : 128,
     "referenced_type" : "_ZTIm"
    }
   ],
   "linker_set_key" : "_ZTIN7android8hardware17GrantorDescriptorE",
   "name" : "android::hardware::GrantorDescriptor",
   "referenced_type" : "_ZTIN7android8hardware17GrantorDescriptorE",
   "self_type" : "_ZTIN7android8hardware17GrantorDescriptorE",
   "size" : 24,
   "source_file" : "/system/libhidl/base/include/hidl/MQDescriptor.h"
  },
  {
   "alignment" : 8,
   "base_specifiers" :
   [
    {
     "is_virtual" : true,
     "referenced_type" : "_ZTIN7android7RefBaseE"
    }
   ],
   "linker_set_key" : "_ZTIN7android8hardware20hidl_death_recipientE",
   "name" : "android::hardware::hidl_death_recipient",
   "referenced_type" : "_ZTIN7android8hardware20hidl_death_recipientE",
   "self_type" : "_ZTIN7android8hardware20hidl_death_recipientE",
   "size" : 24,
   "source_file" : "/system/libhidl/base/include/hidl/HidlSupport.h",
   "vtable_components" :
   [
    {
     "component_value" : 8,
     "kind" : "vbase_offset"
    },
    {
     "kind" : "offset_to_top"
    },
    {
     "kind" : "rtti",
     "mangled_component_name" : "_ZTIN7android8hardware20hidl_death_recipientE"
    },
    {
     "is_pure" : true,
     "mangled_component_name" : "_ZN7android8hardware20hidl_death_recipient11serviceDiedEmRKNS_2wpINS_4hidl4base4V1_05IBaseEEE"
    },
    {
     "kind" : "complete_dtor_pointer",
     "mangled_component_name" : "_ZN7android8hardware20hidl_death_recipientD1Ev"
    },
    {
     "kind" : "deleting_dtor_pointer",
     "mangled_component_name" : "_ZN7android8hardware20hidl_death_recipientD0Ev"
    },
    {
     "kind" : "vcall_offset"
    },
    {
     "kind" : "vcall_offset"
    },
    {
     "kind" : "vcall_offset"
    },
    {
     "kind" : "vcall_offset"
    },
    {
     "component_value" : -8,
     "kind" : "vcall_offset"
    },
    {
     "component_value" : -8,
     "kind" : "offset_to_top"
    },
    {
     "kind" : "rtti",
     "mangled_component_name" : "_ZTIN7android8hardware20hidl_death_recipientE"
    },
    {
     "kind" : "complete_dtor_pointer",
     "mangled_component_name" : "_ZTv0_n24_N7android8hardware20hidl_death_recipientD1Ev"
    },
    {
     "kind" : "deleting_dtor_pointer",
     "mangled_component_name" : "_ZTv0_n24_N7android8hardware20hidl_death_recipientD0Ev"
    },
    {
     "mangled_component_name" : "_ZN7android7RefBase10onFirstRefEv"
    },
    {
     "mangled_component_name" : "_ZN7android7RefBase15onLastStrongRefEPKv"
    },
    {
     "mangled_component_name" : "_ZN7android7RefBase20onIncStrongAttemptedEjPKv"
    },
    {
     "mangled_component_name" : "_ZN7android7RefBase13onLastWeakRefEPKv"
    }
   ]
  },
  {
   "alignment" : 8,
   "base_specifiers" :
   [
    {
     "referenced_type" : "_ZTIN7android8hardware7IBinder14DeathRecipientE"
    }
   ],
   "fields" :
   [
    {
     "access" : "private",
     "field_name" : "mRecipient",
     "field_offset" : 64,
     "referenced_type" : "_ZTIN7android2wpINS_8hardware20hidl_death_recipientEEE"
    },
    {
     "access" : "private",
     "field_name" : "mCookie",
     "field_offset" : 192,
     "referenced_type" : "_ZTIm"
    },
    {
     "access" : "private",
     "field_name" : "mBase",
     "field_offset" : 256,
     "referenced_type" : "_ZTIN7android2wpINS_4hidl4base4V1_05IBaseEEE"
    }
   ],
   "linker_set_key" : "_ZTIN7android8hardware27hidl_binder_death_recipientE",
   "name" : "android::hardware::hidl_binder_death_recipient",
   "referenced_type" : "_ZTIN7android8hardware27hidl_binder_death_recipientE",
   "self_type" : "_ZTIN7android8hardware27hidl_binder_death_recipientE",
   "size" : 64,
   "source_file" : "/system/libhidl/transport/include/hidl/HidlBinderSupport.h",
   "vtable_components" :
   [
    {
     "component_value" : 48,
     "kind" : "vbase_offset"
    },
    {
     "kind" : "offset_to_top"
    },
    {
     "kind" : "rtti",
     "mangled_component_name" : "_ZTIN7android8hardware27hidl_binder_death_recipientE"
    },
    {
     "mangled_component_name" : "_ZN7android8hardware27hidl_binder_death_recipient10binderDiedERKNS_2wpINS0_7IBinderEEE"
    },
    {
     "kind" : "complete_dtor_pointer",
     "mangled_component_name" : "_ZN7android8hardware27hidl_binder_death_recipientD1Ev"
    },
    {
     "kind" : "deleting_dtor_pointer",
     "mangled_component_name" : "_ZN7android8hardware27hidl_binder_death_recipientD0Ev"
    },
    {
     "kind" : "vcall_offset"
    },
    {
     "kind" : "vcall_offset"
    },
    {
     "kind" : "vcall_offset"
    },
    {
     "kind" : "vcall_offset"
    },
    {
     "component_value" : -48,
     "kind" : "vcall_offset"
    },
    {
     "component_value" : -48,
     "kind" : "offset_to_top"
    },
    {
     "kind" : "rtti",
     "mangled_component_name" : "_ZTIN7android8hardware27hidl_binder_death_recipientE"
    },
    {
     "kind" : "complete_dtor_pointer",
     "mangled_component_name" : "_ZTv0_n24_N7android8hardware27hidl_binder_death_recipientD1Ev"
    },
    {
     "kind" : "deleting_dtor_pointer",
     "mangled_component_name" : "_ZTv0_n24_N7android8hardware27hidl_binder_death_recipientD0Ev"
    },
    {
     "mangled_component_name" : "_ZN7android7RefBase10onFirstRefEv"
    },
    {
     "mangled_component_name" : "_ZN7android7RefBase15onLastStrongRefEPKv"
    },
    {
     "mangled_component_name" : "_ZN7android7RefBase20onIncStrongAttemptedEjPKv"
    },
    {
     "mangled_component_name" : "_ZN7android7RefBase13onLastWeakRefEPKv"
    }
   ]
  },
  {
   "alignment" : 8,
   "fields" :
   [
    {
     "field_name" : "mConnectionId",
     "referenced_type" : "_ZTIl"
    },
    {
     "field_name" : "mId",
     "field_offset" : 64,
     "referenced_type" : "_ZTIj"
    }
   ],
   "linker_set_key" : "_ZTIN7android8hardware5media10bufferpool14BufferPoolDataE",
   "name" : "android::hardware::media::bufferpool::BufferPoolData",
   "referenced_type" : "_ZTIN7android8hardware5media10bufferpool14BufferPoolDataE",
   "self_type" : "_ZTIN7android8hardware5media10bufferpool14BufferPoolDataE",
   "size" : 16,
   "source_file" : "/frameworks/av/media/bufferpool/2.0/include/bufferpool/BufferPoolTypes.h"
  },
  {
   "alignment" : 8,
   "base_specifiers" :
   [
    {
     "referenced_type" : "_ZTIN7android4hidl4base4V1_05IBaseE"
    }
   ],
   "linker_set_key" : "_ZTIN7android8hardware5media10bufferpool4V2_011IConnectionE",
   "name" : "android::hardware::media::bufferpool::V2_0::IConnection",
   "referenced_type" : "_ZTIN7android8hardware5media10bufferpool4V2_011IConnectionE",
   "self_type" : "_ZTIN7android8hardware5media10bufferpool4V2_011IConnectionE",
   "size" : 24,
   "source_file" : "/out/soong/.intermediates/hardware/interfaces/media/bufferpool/2.0/android.hardware.media.bufferpool@2.0_genc++_headers/gen/android/hardware/media/bufferpool/2.0/IConnection.h",
   "vtable_components" :
   [
    {
     "component_value" : 8,
     "kind" : "vbase_offset"
    },
    {
     "kind" : "offset_to_top"
    },
    {
     "kind" : "rtti",
     "mangled_component_name" : "_ZTIN7android8hardware5media10bufferpool4V2_011IConnectionE"
    },
    {
     "mangled_component_name" : "_ZNK7android8hardware5media10bufferpool4V2_011IConnection8isRemoteEv"
    },
    {
     "mangled_component_name" : "_ZN7android8hardware5media10bufferpool4V2_011IConnection14interfaceChainENSt3__18functionIFvRKNS0_8hidl_vecINS0_11hidl_stringEEEEEE"
    },
    {
     "mangled_component_name" : "_ZN7android8hardware5media10bufferpool4V2_011IConnection5debugERKNS0_11hidl_handleERKNS0_8hidl_vecINS0_11hidl_stringEEE"
    },
    {
     "mangled_component_name" : "_ZN7android8hardware5media10bufferpool4V2_011IConnection19interfaceDescriptorENSt3__18functionIFvRKNS0_11hidl_stringEEEE"
    },
    {
     "mangled_component_name" : "_ZN7android8hardware5media10bufferpool4V2_011IConnection12getHashChainENSt3__18functionIFvRKNS0_8hidl_vecINS0_10hidl_arrayIhLm32EJEEEEEEEE"
    },
    {
     "mangled_component_name" : "_ZN7android8hardware5media10bufferpool4V2_011IConnection21setHALInstrumentationEv"
    },
    {
     "mangled_component_name" : "_ZN7android8hardware5media10bufferpool4V2_011IConnection11linkToDeathERKNS_2spINS0_20hidl_death_recipientEEEm"
    },
    {
     "mangled_component_name" : "_ZN7android8hardware5media10bufferpool4V2_011IConnection4pingEv"
    },
    {
     "mangled_component_name" : "_ZN7android8hardware5media10bufferpool4V2_011IConnection12getDebugInfoENSt3__18functionIFvRKNS_4hidl4base4V1_09DebugInfoEEEE"
    },
    {
     "mangled_component_name" : "_ZN7android8hardware5media10bufferpool4V2_011IConnection21notifySyspropsChangedEv"
    },
    {
     "mangled_component_name" : "_ZN7android8hardware5media10bufferpool4V2_011IConnection13unlinkToDeathERKNS_2spINS0_20hidl_death_recipientEEE"
    },
    {
     "kind" : "complete_dtor_pointer",
     "mangled_component_name" : "_ZN7android8hardware5media10bufferpool4V2_011IConnectionD1Ev"
    },
    {
     "kind" : "deleting_dtor_pointer",
     "mangled_component_name" : "_ZN7android8hardware5media10bufferpool4V2_011IConnectionD0Ev"
    },
    {
     "is_pure" : true,
     "mangled_component_name" : "_ZN7android8hardware5media10bufferpool4V2_011IConnection5fetchEmjNSt3__18functionIFvNS3_12ResultStatusERKNS3_6BufferEEEE"
    },
    {
     "kind" : "vcall_offset"
    },
    {
     "kind" : "vcall_offset"
    },
    {
     "kind" : "vcall_offset"
    },
    {
     "kind" : "vcall_offset"
    },
    {
     "component_value" : -8,
     "kind" : "vcall_offset"
    },
    {
     "component_value" : -8,
     "kind" : "offset_to_top"
    },
    {
     "kind" : "rtti",
     "mangled_component_name" : "_ZTIN7android8hardware5media10bufferpool4V2_011IConnectionE"
    },
    {
     "kind" : "complete_dtor_pointer",
     "mangled_component_name" : "_ZTv0_n24_N7android8hardware5media10bufferpool4V2_011IConnectionD1Ev"
    },
    {
     "kind" : "deleting_dtor_pointer",
     "mangled_component_name" : "_ZTv0_n24_N7android8hardware5media10bufferpool4V2_011IConnectionD0Ev"
    },
    {
     "mangled_component_name" : "_ZN7android7RefBase10onFirstRefEv"
    },
    {
     "mangled_component_name" : "_ZN7android7RefBase15onLastStrongRefEPKv"
    },
    {
     "mangled_component_name" : "_ZN7android7RefBase20onIncStrongAttemptedEjPKv"
    },
    {
     "mangled_component_name" : "_ZN7android7RefBase13onLastWeakRefEPKv"
    }
   ]
  },
  {
   "alignment" : 8,
   "base_specifiers" :
   [
    {
     "referenced_type" : "_ZTIN7android4hidl4base4V1_05IBaseE"
    }
   ],
   "linker_set_key" : "_ZTIN7android8hardware5media10bufferpool4V2_014IClientManagerE",
   "name" : "android::hardware::media::bufferpool::V2_0::IClientManager",
   "referenced_type" : "_ZTIN7android8hardware5media10bufferpool4V2_014IClientManagerE",
   "self_type" : "_ZTIN7android8hardware5media10bufferpool4V2_014IClientManagerE",
   "size" : 24,
   "source_file" : "/out/soong/.intermediates/hardware/interfaces/media/bufferpool/2.0/android.hardware.media.bufferpool@2.0_genc++_headers/gen/android/hardware/media/bufferpool/2.0/IClientManager.h",
   "vtable_components" :
   [
    {
     "component_value" : 8,
     "kind" : "vbase_offset"
    },
    {
     "kind" : "offset_to_top"
    },
    {
     "kind" : "rtti",
     "mangled_component_name" : "_ZTIN7android8hardware5media10bufferpool4V2_014IClientManagerE"
    },
    {
     "mangled_component_name" : "_ZNK7android8hardware5media10bufferpool4V2_014IClientManager8isRemoteEv"
    },
    {
     "mangled_component_name" : "_ZN7android8hardware5media10bufferpool4V2_014IClientManager14interfaceChainENSt3__18functionIFvRKNS0_8hidl_vecINS0_11hidl_stringEEEEEE"
    },
    {
     "mangled_component_name" : "_ZN7android8hardware5media10bufferpool4V2_014IClientManager5debugERKNS0_11hidl_handleERKNS0_8hidl_vecINS0_11hidl_stringEEE"
    },
    {
     "mangled_component_name" : "_ZN7android8hardware5media10bufferpool4V2_014IClientManager19interfaceDescriptorENSt3__18functionIFvRKNS0_11hidl_stringEEEE"
    },
    {
     "mangled_component_name" : "_ZN7android8hardware5media10bufferpool4V2_014IClientManager12getHashChainENSt3__18functionIFvRKNS0_8hidl_vecINS0_10hidl_arrayIhLm32EJEEEEEEEE"
    },
    {
     "mangled_component_name" : "_ZN7android8hardware5media10bufferpool4V2_014IClientManager21setHALInstrumentationEv"
    },
    {
     "mangled_component_name" : "_ZN7android8hardware5media10bufferpool4V2_014IClientManager11linkToDeathERKNS_2spINS0_20hidl_death_recipientEEEm"
    },
    {
     "mangled_component_name" : "_ZN7android8hardware5media10bufferpool4V2_014IClientManager4pingEv"
    },
    {
     "mangled_component_name" : "_ZN7android8hardware5media10bufferpool4V2_014IClientManager12getDebugInfoENSt3__18functionIFvRKNS_4hidl4base4V1_09DebugInfoEEEE"
    },
    {
     "mangled_component_name" : "_ZN7android8hardware5media10bufferpool4V2_014IClientManager21notifySyspropsChangedEv"
    },
    {
     "mangled_component_name" : "_ZN7android8hardware5media10bufferpool4V2_014IClientManager13unlinkToDeathERKNS_2spINS0_20hidl_death_recipientEEE"
    },
    {
     "kind" : "complete_dtor_pointer",
     "mangled_component_name" : "_ZN7android8hardware5media10bufferpool4V2_014IClientManagerD1Ev"
    },
    {
     "kind" : "deleting_dtor_pointer",
     "mangled_component_name" : "_ZN7android8hardware5media10bufferpool4V2_014IClientManagerD0Ev"
    },
    {
     "is_pure" : true,
     "mangled_component_name" : "_ZN7android8hardware5media10bufferpool4V2_014IClientManager14registerSenderERKNS_2spINS3_9IAccessorEEENSt3__18functionIFvNS3_12ResultStatusElEEE"
    },
    {
     "kind" : "vcall_offset"
    },
    {
     "kind" : "vcall_offset"
    },
    {
     "kind" : "vcall_offset"
    },
    {
     "kind" : "vcall_offset"
    },
    {
     "component_value" : -8,
     "kind" : "vcall_offset"
    },
    {
     "component_value" : -8,
     "kind" : "offset_to_top"
    },
    {
     "kind" : "rtti",
     "mangled_component_name" : "_ZTIN7android8hardware5media10bufferpool4V2_014IClientManagerE"
    },
    {
     "kind" : "complete_dtor_pointer",
     "mangled_component_name" : "_ZTv0_n24_N7android8hardware5media10bufferpool4V2_014IClientManagerD1Ev"
    },
    {
     "kind" : "deleting_dtor_pointer",
     "mangled_component_name" : "_ZTv0_n24_N7android8hardware5media10bufferpool4V2_014IClientManagerD0Ev"
    },
    {
     "mangled_component_name" : "_ZN7android7RefBase10onFirstRefEv"
    },
    {
     "mangled_component_name" : "_ZN7android7RefBase15onLastStrongRefEPKv"
    },
    {
     "mangled_component_name" : "_ZN7android7RefBase20onIncStrongAttemptedEjPKv"
    },
    {
     "mangled_component_name" : "_ZN7android7RefBase13onLastWeakRefEPKv"
    }
   ]
  },
  {
   "alignment" : 8,
   "base_specifiers" :
   [
    {
     "referenced_type" : "_ZTIN7android8hardware5media10bufferpool4V2_014IClientManagerE"
    }
   ],
   "fields" :
   [
    {
     "access" : "private",
     "field_name" : "mImpl",
     "field_offset" : 64,
     "referenced_type" : "_ZTIKNSt3__110unique_ptrIN7android8hardware5media10bufferpool4V2_014implementation13ClientManager4ImplENS_14default_deleteIS8_EEEE"
    }
   ],
   "linker_set_key" : "_ZTIN7android8hardware5media10bufferpool4V2_014implementation13ClientManagerE",
   "name" : "android::hardware::media::bufferpool::V2_0::implementation::ClientManager",
   "referenced_type" : "_ZTIN7android8hardware5media10bufferpool4V2_014implementation13ClientManagerE",
   "self_type" : "_ZTIN7android8hardware5media10bufferpool4V2_014implementation13ClientManagerE",
   "size" : 32,
   "source_file" : "/frameworks/av/media/bufferpool/2.0/include/bufferpool/ClientManager.h",
   "vtable_components" :
   [
    {
     "component_value" : 16,
     "kind" : "vbase_offset"
    },
    {
     "kind" : "offset_to_top"
    },
    {
     "kind" : "rtti",
     "mangled_component_name" : "_ZTIN7android8hardware5media10bufferpool4V2_014implementation13ClientManagerE"
    },
    {
     "mangled_component_name" : "_ZNK7android8hardware5media10bufferpool4V2_014IClientManager8isRemoteEv"
    },
    {
     "mangled_component_name" : "_ZN7android8hardware5media10bufferpool4V2_014IClientManager14interfaceChainENSt3__18functionIFvRKNS0_8hidl_vecINS0_11hidl_stringEEEEEE"
    },
    {
     "mangled_component_name" : "_ZN7android8hardware5media10bufferpool4V2_014IClientManager5debugERKNS0_11hidl_handleERKNS0_8hidl_vecINS0_11hidl_stringEEE"
    },
    {
     "mangled_component_name" : "_ZN7android8hardware5media10bufferpool4V2_014IClientManager19interfaceDescriptorENSt3__18functionIFvRKNS0_11hidl_stringEEEE"
    },
    {
     "mangled_component_name" : "_ZN7android8hardware5media10bufferpool4V2_014IClientManager12getHashChainENSt3__18functionIFvRKNS0_8hidl_vecINS0_10hidl_arrayIhLm32EJEEEEEEEE"
    },
    {
     "mangled_component_name" : "_ZN7android8hardware5media10bufferpool4V2_014IClientManager21setHALInstrumentationEv"
    },
    {
     "mangled_component_name" : "_ZN7android8hardware5media10bufferpool4V2_014IClientManager11linkToDeathERKNS_2spINS0_20hidl_death_recipientEEEm"
    },
    {
     "mangled_component_name" : "_ZN7android8hardware5media10bufferpool4V2_014IClientManager4pingEv"
    },
    {
     "mangled_component_name" : "_ZN7android8hardware5media10bufferpool4V2_014IClientManager12getDebugInfoENSt3__18functionIFvRKNS_4hidl4base4V1_09DebugInfoEEEE"
    },
    {
     "mangled_component_name" : "_ZN7android8hardware5media10bufferpool4V2_014IClientManager21notifySyspropsChangedEv"
    },
    {
     "mangled_component_name" : "_ZN7android8hardware5media10bufferpool4V2_014IClientManager13unlinkToDeathERKNS_2spINS0_20hidl_death_recipientEEE"
    },
    {
     "kind" : "complete_dtor_pointer",
     "mangled_component_name" : "_ZN7android8hardware5media10bufferpool4V2_014implementation13ClientManagerD1Ev"
    },
    {
     "kind" : "deleting_dtor_pointer",
     "mangled_component_name" : "_ZN7android8hardware5media10bufferpool4V2_014implementation13ClientManagerD0Ev"
    },
    {
     "mangled_component_name" : "_ZN7android8hardware5media10bufferpool4V2_014implementation13ClientManager14registerSenderERKNS_2spINS3_9IAccessorEEENSt3__18functionIFvNS3_12ResultStatusElEEE"
    },
    {
     "kind" : "vcall_offset"
    },
    {
     "kind" : "vcall_offset"
    },
    {
     "kind" : "vcall_offset"
    },
    {
     "kind" : "vcall_offset"
    },
    {
     "component_value" : -16,
     "kind" : "vcall_offset"
    },
    {
     "component_value" : -16,
     "kind" : "offset_to_top"
    },
    {
     "kind" : "rtti",
     "mangled_component_name" : "_ZTIN7android8hardware5media10bufferpool4V2_014implementation13ClientManagerE"
    },
    {
     "kind" : "complete_dtor_pointer",
     "mangled_component_name" : "_ZTv0_n24_N7android8hardware5media10bufferpool4V2_014implementation13ClientManagerD1Ev"
    },
    {
     "kind" : "deleting_dtor_pointer",
     "mangled_component_name" : "_ZTv0_n24_N7android8hardware5media10bufferpool4V2_014implementation13ClientManagerD0Ev"
    },
    {
     "mangled_component_name" : "_ZN7android7RefBase10onFirstRefEv"
    },
    {
     "mangled_component_name" : "_ZN7android7RefBase15onLastStrongRefEPKv"
    },
    {
     "mangled_component_name" : "_ZN7android7RefBase20onIncStrongAttemptedEjPKv"
    },
    {
     "mangled_component_name" : "_ZN7android7RefBase13onLastWeakRefEPKv"
    }
   ]
  },
  {
   "alignment" : 8,
   "linker_set_key" : "_ZTIN7android8hardware5media10bufferpool4V2_014implementation19BufferPoolAllocatorE",
   "name" : "android::hardware::media::bufferpool::V2_0::implementation::BufferPoolAllocator",
   "record_kind" : "class",
   "referenced_type" : "_ZTIN7android8hardware5media10bufferpool4V2_014implementation19BufferPoolAllocatorE",
   "self_type" : "_ZTIN7android8hardware5media10bufferpool4V2_014implementation19BufferPoolAllocatorE",
   "size" : 8,
   "source_file" : "/frameworks/av/media/bufferpool/2.0/include/bufferpool/BufferPoolTypes.h",
   "vtable_components" :
   [
    {
     "kind" : "offset_to_top"
    },
    {
     "kind" : "rtti",
     "mangled_component_name" : "_ZTIN7android8hardware5media10bufferpool4V2_014implementation19BufferPoolAllocatorE"
    },
    {
     "is_pure" : true,
     "mangled_component_name" : "_ZN7android8hardware5media10bufferpool4V2_014implementation19BufferPoolAllocator8allocateERKNSt3__16vectorIhNS6_9allocatorIhEEEEPNS6_10shared_ptrINS4_20BufferPoolAllocationEEEPm"
    },
    {
     "is_pure" : true,
     "mangled_component_name" : "_ZN7android8hardware5media10bufferpool4V2_014implementation19BufferPoolAllocator10compatibleERKNSt3__16vectorIhNS6_9allocatorIhEEEESC_"
    },
    {
     "kind" : "complete_dtor_pointer",
     "mangled_component_name" : "_ZN7android8hardware5media10bufferpool4V2_014implementation19BufferPoolAllocatorD1Ev"
    },
    {
     "kind" : "deleting_dtor_pointer",
     "mangled_component_name" : "_ZN7android8hardware5media10bufferpool4V2_014implementation19BufferPoolAllocatorD0Ev"
    }
   ]
  },
  {
   "alignment" : 8,
   "fields" :
   [
    {
     "field_name" : "mHandle",
     "referenced_type" : "_ZTIPK13native_handle"
    }
   ],
   "linker_set_key" : "_ZTIN7android8hardware5media10bufferpool4V2_014implementation20BufferPoolAllocationE",
   "name" : "android::hardware::media::bufferpool::V2_0::implementation::BufferPoolAllocation",
   "referenced_type" : "_ZTIN7android8hardware5media10bufferpool4V2_014implementation20BufferPoolAllocationE",
   "self_type" : "_ZTIN7android8hardware5media10bufferpool4V2_014implementation20BufferPoolAllocationE",
   "size" : 8,
   "source_file" : "/frameworks/av/media/bufferpool/2.0/include/bufferpool/BufferPoolTypes.h"
  },
  {
   "alignment" : 8,
   "fields" :
   [
    {
     "field_name" : "transactionId",
     "referenced_type" : "_ZTIm"
    },
    {
     "field_name" : "bufferId",
     "field_offset" : 64,
     "referenced_type" : "_ZTIj"
    },
    {
     "field_name" : "newStatus",
     "field_offset" : 96,
     "referenced_type" : "_ZTIN7android8hardware5media10bufferpool4V2_012BufferStatusE"
    },
    {
     "field_name" : "connectionId",
     "field_offset" : 128,
     "referenced_type" : "_ZTIl"
    },
    {
     "field_name" : "targetConnectionId",
     "field_offset" : 192,
     "referenced_type" : "_ZTIl"
    },
    {
     "field_name" : "timestampUs",
     "field_offset" : 256,
     "referenced_type" : "_ZTIl"
    }
   ],
   "linker_set_key" : "_ZTIN7android8hardware5media10bufferpool4V2_019BufferStatusMessageE",
   "name" : "android::hardware::media::bufferpool::V2_0::BufferStatusMessage",
   "referenced_type" : "_ZTIN7android8hardware5media10bufferpool4V2_019BufferStatusMessageE",
   "self_type" : "_ZTIN7android8hardware5media10bufferpool4V2_019BufferStatusMessageE",
   "size" : 40,
   "source_file" : "/out/soong/.intermediates/hardware/interfaces/media/bufferpool/2.0/android.hardware.media.bufferpool@2.0_genc++_headers/gen/android/hardware/media/bufferpool/2.0/types.h"
  },
  {
   "alignment" : 4,
   "fields" :
   [
    {
     "field_name" : "messageId",
     "referenced_type" : "_ZTIj"
    },
    {
     "field_name" : "fromBufferId",
     "field_offset" : 32,
     "referenced_type" : "_ZTIj"
    },
    {
     "field_name" : "toBufferId",
     "field_offset" : 64,
     "referenced_type" : "_ZTIj"
    }
   ],
   "linker_set_key" : "_ZTIN7android8hardware5media10bufferpool4V2_025BufferInvalidationMessageE",
   "name" : "android::hardware::media::bufferpool::V2_0::BufferInvalidationMessage",
   "referenced_type" : "_ZTIN7android8hardware5media10bufferpool4V2_025BufferInvalidationMessageE",
   "self_type" : "_ZTIN7android8hardware5media10bufferpool4V2_025BufferInvalidationMessageE",
   "size" : 12,
   "source_file" : "/out/soong/.intermediates/hardware/interfaces/media/bufferpool/2.0/android.hardware.media.bufferpool@2.0_genc++_headers/gen/android/hardware/media/bufferpool/2.0/types.h"
  },
  {
   "alignment" : 8,
   "fields" :
   [
    {
     "field_name" : "id",
     "referenced_type" : "_ZTIj"
    },
    {
     "field_name" : "buffer",
     "field_offset" : 64,
     "referenced_type" : "_ZTIN7android8hardware11hidl_handleE"
    }
   ],
   "linker_set_key" : "_ZTIN7android8hardware5media10bufferpool4V2_06BufferE",
   "name" : "android::hardware::media::bufferpool::V2_0::Buffer",
   "referenced_type" : "_ZTIN7android8hardware5media10bufferpool4V2_06BufferE",
   "self_type" : "_ZTIN7android8hardware5media10bufferpool4V2_06BufferE",
   "size" : 24,
   "source_file" : "/out/soong/.intermediates/hardware/interfaces/media/bufferpool/2.0/android.hardware.media.bufferpool@2.0_genc++_headers/gen/android/hardware/media/bufferpool/2.0/types.h"
  },
  {
   "alignment" : 8,
   "base_specifiers" :
   [
    {
     "referenced_type" : "_ZTIN7android4hidl4base4V1_05IBaseE"
    }
   ],
   "linker_set_key" : "_ZTIN7android8hardware5media10bufferpool4V2_09IAccessorE",
   "name" : "android::hardware::media::bufferpool::V2_0::IAccessor",
   "referenced_type" : "_ZTIN7android8hardware5media10bufferpool4V2_09IAccessorE",
   "self_type" : "_ZTIN7android8hardware5media10bufferpool4V2_09IAccessorE",
   "size" : 24,
   "source_file" : "/out/soong/.intermediates/hardware/interfaces/media/bufferpool/2.0/android.hardware.media.bufferpool@2.0_genc++_headers/gen/android/hardware/media/bufferpool/2.0/IAccessor.h",
   "vtable_components" :
   [
    {
     "component_value" : 8,
     "kind" : "vbase_offset"
    },
    {
     "kind" : "offset_to_top"
    },
    {
     "kind" : "rtti",
     "mangled_component_name" : "_ZTIN7android8hardware5media10bufferpool4V2_09IAccessorE"
    },
    {
     "mangled_component_name" : "_ZNK7android8hardware5media10bufferpool4V2_09IAccessor8isRemoteEv"
    },
    {
     "mangled_component_name" : "_ZN7android8hardware5media10bufferpool4V2_09IAccessor14interfaceChainENSt3__18functionIFvRKNS0_8hidl_vecINS0_11hidl_stringEEEEEE"
    },
    {
     "mangled_component_name" : "_ZN7android8hardware5media10bufferpool4V2_09IAccessor5debugERKNS0_11hidl_handleERKNS0_8hidl_vecINS0_11hidl_stringEEE"
    },
    {
     "mangled_component_name" : "_ZN7android8hardware5media10bufferpool4V2_09IAccessor19interfaceDescriptorENSt3__18functionIFvRKNS0_11hidl_stringEEEE"
    },
    {
     "mangled_component_name" : "_ZN7android8hardware5media10bufferpool4V2_09IAccessor12getHashChainENSt3__18functionIFvRKNS0_8hidl_vecINS0_10hidl_arrayIhLm32EJEEEEEEEE"
    },
    {
     "mangled_component_name" : "_ZN7android8hardware5media10bufferpool4V2_09IAccessor21setHALInstrumentationEv"
    },
    {
     "mangled_component_name" : "_ZN7android8hardware5media10bufferpool4V2_09IAccessor11linkToDeathERKNS_2spINS0_20hidl_death_recipientEEEm"
    },
    {
     "mangled_component_name" : "_ZN7android8hardware5media10bufferpool4V2_09IAccessor4pingEv"
    },
    {
     "mangled_component_name" : "_ZN7android8hardware5media10bufferpool4V2_09IAccessor12getDebugInfoENSt3__18functionIFvRKNS_4hidl4base4V1_09DebugInfoEEEE"
    },
    {
     "mangled_component_name" : "_ZN7android8hardware5media10bufferpool4V2_09IAccessor21notifySyspropsChangedEv"
    },
    {
     "mangled_component_name" : "_ZN7android8hardware5media10bufferpool4V2_09IAccessor13unlinkToDeathERKNS_2spINS0_20hidl_death_recipientEEE"
    },
    {
     "kind" : "complete_dtor_pointer",
     "mangled_component_name" : "_ZN7android8hardware5media10bufferpool4V2_09IAccessorD1Ev"
    },
    {
     "kind" : "deleting_dtor_pointer",
     "mangled_component_name" : "_ZN7android8hardware5media10bufferpool4V2_09IAccessorD0Ev"
    },
    {
     "is_pure" : true,
     "mangled_component_name" : "_ZN7android8hardware5media10bufferpool4V2_09IAccessor7connectERKNS_2spINS3_9IObserverEEENSt3__18functionIFvNS3_12ResultStatusERKNS5_INS3_11IConnectionEEEljRKNS0_12MQDescriptorINS3_19BufferStatusMessageELNS0_8MQFlavorE1EEERKNSH_INS3_25BufferInvalidationMessageELSJ_2EEEEEE"
    },
    {
     "kind" : "vcall_offset"
    },
    {
     "kind" : "vcall_offset"
    },
    {
     "kind" : "vcall_offset"
    },
    {
     "kind" : "vcall_offset"
    },
    {
     "component_value" : -8,
     "kind" : "vcall_offset"
    },
    {
     "component_value" : -8,
     "kind" : "offset_to_top"
    },
    {
     "kind" : "rtti",
     "mangled_component_name" : "_ZTIN7android8hardware5media10bufferpool4V2_09IAccessorE"
    },
    {
     "kind" : "complete_dtor_pointer",
     "mangled_component_name" : "_ZTv0_n24_N7android8hardware5media10bufferpool4V2_09IAccessorD1Ev"
    },
    {
     "kind" : "deleting_dtor_pointer",
     "mangled_component_name" : "_ZTv0_n24_N7android8hardware5media10bufferpool4V2_09IAccessorD0Ev"
    },
    {
     "mangled_component_name" : "_ZN7android7RefBase10onFirstRefEv"
    },
    {
     "mangled_component_name" : "_ZN7android7RefBase15onLastStrongRefEPKv"
    },
    {
     "mangled_component_name" : "_ZN7android7RefBase20onIncStrongAttemptedEjPKv"
    },
    {
     "mangled_component_name" : "_ZN7android7RefBase13onLastWeakRefEPKv"
    }
   ]
  },
  {
   "alignment" : 8,
   "base_specifiers" :
   [
    {
     "referenced_type" : "_ZTIN7android4hidl4base4V1_05IBaseE"
    }
   ],
   "linker_set_key" : "_ZTIN7android8hardware5media10bufferpool4V2_09IObserverE",
   "name" : "android::hardware::media::bufferpool::V2_0::IObserver",
   "referenced_type" : "_ZTIN7android8hardware5media10bufferpool4V2_09IObserverE",
   "self_type" : "_ZTIN7android8hardware5media10bufferpool4V2_09IObserverE",
   "size" : 24,
   "source_file" : "/out/soong/.intermediates/hardware/interfaces/media/bufferpool/2.0/android.hardware.media.bufferpool@2.0_genc++_headers/gen/android/hardware/media/bufferpool/2.0/IObserver.h",
   "vtable_components" :
   [
    {
     "component_value" : 8,
     "kind" : "vbase_offset"
    },
    {
     "kind" : "offset_to_top"
    },
    {
     "kind" : "rtti",
     "mangled_component_name" : "_ZTIN7android8hardware5media10bufferpool4V2_09IObserverE"
    },
    {
     "mangled_component_name" : "_ZNK7android8hardware5media10bufferpool4V2_09IObserver8isRemoteEv"
    },
    {
     "mangled_component_name" : "_ZN7android8hardware5media10bufferpool4V2_09IObserver14interfaceChainENSt3__18functionIFvRKNS0_8hidl_vecINS0_11hidl_stringEEEEEE"
    },
    {
     "mangled_component_name" : "_ZN7android8hardware5media10bufferpool4V2_09IObserver5debugERKNS0_11hidl_handleERKNS0_8hidl_vecINS0_11hidl_stringEEE"
    },
    {
     "mangled_component_name" : "_ZN7android8hardware5media10bufferpool4V2_09IObserver19interfaceDescriptorENSt3__18functionIFvRKNS0_11hidl_stringEEEE"
    },
    {
     "mangled_component_name" : "_ZN7android8hardware5media10bufferpool4V2_09IObserver12getHashChainENSt3__18functionIFvRKNS0_8hidl_vecINS0_10hidl_arrayIhLm32EJEEEEEEEE"
    },
    {
     "mangled_component_name" : "_ZN7android8hardware5media10bufferpool4V2_09IObserver21setHALInstrumentationEv"
    },
    {
     "mangled_component_name" : "_ZN7android8hardware5media10bufferpool4V2_09IObserver11linkToDeathERKNS_2spINS0_20hidl_death_recipientEEEm"
    },
    {
     "mangled_component_name" : "_ZN7android8hardware5media10bufferpool4V2_09IObserver4pingEv"
    },
    {
     "mangled_component_name" : "_ZN7android8hardware5media10bufferpool4V2_09IObserver12getDebugInfoENSt3__18functionIFvRKNS_4hidl4base4V1_09DebugInfoEEEE"
    },
    {
     "mangled_component_name" : "_ZN7android8hardware5media10bufferpool4V2_09IObserver21notifySyspropsChangedEv"
    },
    {
     "mangled_component_name" : "_ZN7android8hardware5media10bufferpool4V2_09IObserver13unlinkToDeathERKNS_2spINS0_20hidl_death_recipientEEE"
    },
    {
     "kind" : "complete_dtor_pointer",
     "mangled_component_name" : "_ZN7android8hardware5media10bufferpool4V2_09IObserverD1Ev"
    },
    {
     "kind" : "deleting_dtor_pointer",
     "mangled_component_name" : "_ZN7android8hardware5media10bufferpool4V2_09IObserverD0Ev"
    },
    {
     "is_pure" : true,
     "mangled_component_name" : "_ZN7android8hardware5media10bufferpool4V2_09IObserver9onMessageElj"
    },
    {
     "kind" : "vcall_offset"
    },
    {
     "kind" : "vcall_offset"
    },
    {
     "kind" : "vcall_offset"
    },
    {
     "kind" : "vcall_offset"
    },
    {
     "component_value" : -8,
     "kind" : "vcall_offset"
    },
    {
     "component_value" : -8,
     "kind" : "offset_to_top"
    },
    {
     "kind" : "rtti",
     "mangled_component_name" : "_ZTIN7android8hardware5media10bufferpool4V2_09IObserverE"
    },
    {
     "kind" : "complete_dtor_pointer",
     "mangled_component_name" : "_ZTv0_n24_N7android8hardware5media10bufferpool4V2_09IObserverD1Ev"
    },
    {
     "kind" : "deleting_dtor_pointer",
     "mangled_component_name" : "_ZTv0_n24_N7android8hardware5media10bufferpool4V2_09IObserverD0Ev"
    },
    {
     "mangled_component_name" : "_ZN7android7RefBase10onFirstRefEv"
    },
    {
     "mangled_component_name" : "_ZN7android7RefBase15onLastStrongRefEPKv"
    },
    {
     "mangled_component_name" : "_ZN7android7RefBase20onIncStrongAttemptedEjPKv"
    },
    {
     "mangled_component_name" : "_ZN7android7RefBase13onLastWeakRefEPKv"
    }
   ]
  },
  {
   "access" : "private",
   "alignment" : 8,
   "fields" :
   [
    {
     "field_name" : "index",
     "referenced_type" : "_ZTIm"
    },
    {
     "field_name" : "buffer",
     "field_offset" : 64,
     "referenced_type" : "_ZTIy"
    },
    {
     "field_name" : "bufend",
     "field_offset" : 128,
     "referenced_type" : "_ZTIy"
    }
   ],
   "linker_set_key" : "_ZTIN7android8hardware6Parcel10BufferInfoE",
   "name" : "android::hardware::Parcel::BufferInfo",
   "referenced_type" : "_ZTIN7android8hardware6Parcel10BufferInfoE",
   "self_type" : "_ZTIN7android8hardware6Parcel10BufferInfoE",
   "size" : 24,
   "source_file" : "/system/libhwbinder/include/hwbinder/Parcel.h"
  },
  {
   "alignment" : 8,
   "fields" :
   [
    {
     "access" : "private",
     "field_name" : "mBufCachePos",
     "referenced_type" : "_ZTIm"
    },
    {
     "access" : "private",
     "field_name" : "mBufCache",
     "field_offset" : 64,
     "referenced_type" : "_ZTINSt3__16vectorIN7android8hardware6Parcel10BufferInfoENS_9allocatorIS4_EEEE"
    },
    {
     "access" : "private",
     "field_name" : "mError",
     "field_offset" : 256,
     "referenced_type" : "_ZTIi"
    },
    {
     "access" : "private",
     "field_name" : "mData",
     "field_offset" : 320,
     "referenced_type" : "_ZTIPh"
    },
    {
     "access" : "private",
     "field_name" : "mDataSize",
     "field_offset" : 384,
     "referenced_type" : "_ZTIm"
    },
    {
     "access" : "private",
     "field_name" : "mDataCapacity",
     "field_offset" : 448,
     "referenced_type" : "_ZTIm"
    },
    {
     "access" : "private",
     "field_name" : "mDataPos",
     "field_offset" : 512,
     "referenced_type" : "_ZTIm"
    },
    {
     "access" : "private",
     "field_name" : "mObjects",
     "field_offset" : 576,
     "referenced_type" : "_ZTIPy"
    },
    {
     "access" : "private",
     "field_name" : "mObjectsSize",
     "field_offset" : 640,
     "referenced_type" : "_ZTIm"
    },
    {
     "access" : "private",
     "field_name" : "mObjectsCapacity",
     "field_offset" : 704,
     "referenced_type" : "_ZTIm"
    },
    {
     "access" : "private",
     "field_name" : "mNextObjectHint",
     "field_offset" : 768,
     "referenced_type" : "_ZTIm"
    },
    {
     "access" : "private",
     "field_name" : "mNumRef",
     "field_offset" : 832,
     "referenced_type" : "_ZTIm"
    },
    {
     "access" : "private",
     "field_name" : "mFdsKnown",
     "field_offset" : 896,
     "referenced_type" : "_ZTIb"
    },
    {
     "access" : "private",
     "field_name" : "mHasFds",
     "field_offset" : 904,
     "referenced_type" : "_ZTIb"
    },
    {
     "access" : "private",
     "field_name" : "mAllowFds",
     "field_offset" : 912,
     "referenced_type" : "_ZTIb"
    },
    {
     "access" : "private",
     "field_name" : "mOwner",
     "field_offset" : 960,
     "referenced_type" : "_ZTIPFvPN7android8hardware6ParcelEPKhmPKymPvE"
    },
    {
     "access" : "private",
     "field_name" : "mOwnerCookie",
     "field_offset" : 1024,
     "referenced_type" : "_ZTIPv"
    }
   ],
   "linker_set_key" : "_ZTIN7android8hardware6ParcelE",
   "name" : "android::hardware::Parcel",
   "record_kind" : "class",
   "referenced_type" : "_ZTIN7android8hardware6ParcelE",
   "self_type" : "_ZTIN7android8hardware6ParcelE",
   "size" : 136,
   "source_file" : "/system/libhwbinder/include/hwbinder/Parcel.h"
  },
  {
   "alignment" : 8,
   "base_specifiers" :
   [
    {
     "referenced_type" : "_ZTIN7android8hardware7details13return_statusE"
    }
   ],
   "fields" :
   [
    {
     "access" : "private",
     "field_name" : "mVal",
     "field_offset" : 264,
     "referenced_type" : "_ZTIb"
    }
   ],
   "linker_set_key" : "_ZTIN7android8hardware6ReturnIbEE",
   "name" : "android::hardware::Return<bool>",
   "record_kind" : "class",
   "referenced_type" : "_ZTIN7android8hardware6ReturnIbEE",
   "self_type" : "_ZTIN7android8hardware6ReturnIbEE",
   "size" : 40,
   "source_file" : "/system/libhidl/base/include/hidl/Status.h",
   "template_args" : [ "_ZTIb" ]
  },
  {
   "alignment" : 8,
   "base_specifiers" :
   [
    {
     "referenced_type" : "_ZTIN7android8hardware7details13return_statusE"
    }
   ],
   "linker_set_key" : "_ZTIN7android8hardware6ReturnIvEE",
   "name" : "android::hardware::Return<void>",
   "record_kind" : "class",
   "referenced_type" : "_ZTIN7android8hardware6ReturnIvEE",
   "self_type" : "_ZTIN7android8hardware6ReturnIvEE",
   "size" : 40,
   "source_file" : "/system/libhidl/base/include/hidl/Status.h",
   "template_args" : [ "_ZTIv" ]
  },
  {
   "alignment" : 8,
   "fields" :
   [
    {
     "access" : "private",
     "field_name" : "mException",
     "referenced_type" : "_ZTIi"
    },
    {
     "access" : "private",
     "field_name" : "mErrorCode",
     "field_offset" : 32,
     "referenced_type" : "_ZTIi"
    },
    {
     "access" : "private",
     "field_name" : "mMessage",
     "field_offset" : 64,
     "referenced_type" : "_ZTINSt3__112basic_stringIcNS_11char_traitsIcEENS_9allocatorIcEEEE"
    }
   ],
   "linker_set_key" : "_ZTIN7android8hardware6StatusE",
   "name" : "android::hardware::Status",
   "record_kind" : "class",
   "referenced_type" : "_ZTIN7android8hardware6StatusE",
   "self_type" : "_ZTIN7android8hardware6StatusE",
   "size" : 32,
   "source_file" : "/system/libhidl/base/include/hidl/Status.h"
  },
  {
   "alignment" : 8,
   "base_specifiers" :
   [
    {
     "is_virtual" : true,
     "referenced_type" : "_ZTIN7android7RefBaseE"
    }
   ],
   "linker_set_key" : "_ZTIN7android8hardware7IBinder14DeathRecipientE",
   "name" : "android::hardware::IBinder::DeathRecipient",
   "record_kind" : "class",
   "referenced_type" : "_ZTIN7android8hardware7IBinder14DeathRecipientE",
   "self_type" : "_ZTIN7android8hardware7IBinder14DeathRecipientE",
   "size" : 24,
   "source_file" : "/system/libhwbinder/include/hwbinder/IBinder.h",
   "vtable_components" :
   [
    {
     "component_value" : 8,
     "kind" : "vbase_offset"
    },
    {
     "kind" : "offset_to_top"
    },
    {
     "kind" : "rtti",
     "mangled_component_name" : "_ZTIN7android8hardware7IBinder14DeathRecipientE"
    },
    {
     "is_pure" : true,
     "mangled_component_name" : "_ZN7android8hardware7IBinder14DeathRecipient10binderDiedERKNS_2wpIS1_EE"
    },
    {
     "kind" : "complete_dtor_pointer",
     "mangled_component_name" : "_ZN7android8hardware7IBinder14DeathRecipientD1Ev"
    },
    {
     "kind" : "deleting_dtor_pointer",
     "mangled_component_name" : "_ZN7android8hardware7IBinder14DeathRecipientD0Ev"
    },
    {
     "kind" : "vcall_offset"
    },
    {
     "kind" : "vcall_offset"
    },
    {
     "kind" : "vcall_offset"
    },
    {
     "kind" : "vcall_offset"
    },
    {
     "component_value" : -8,
     "kind" : "vcall_offset"
    },
    {
     "component_value" : -8,
     "kind" : "offset_to_top"
    },
    {
     "kind" : "rtti",
     "mangled_component_name" : "_ZTIN7android8hardware7IBinder14DeathRecipientE"
    },
    {
     "kind" : "complete_dtor_pointer",
     "mangled_component_name" : "_ZTv0_n24_N7android8hardware7IBinder14DeathRecipientD1Ev"
    },
    {
     "kind" : "deleting_dtor_pointer",
     "mangled_component_name" : "_ZTv0_n24_N7android8hardware7IBinder14DeathRecipientD0Ev"
    },
    {
     "mangled_component_name" : "_ZN7android7RefBase10onFirstRefEv"
    },
    {
     "mangled_component_name" : "_ZN7android7RefBase15onLastStrongRefEPKv"
    },
    {
     "mangled_component_name" : "_ZN7android7RefBase20onIncStrongAttemptedEjPKv"
    },
    {
     "mangled_component_name" : "_ZN7android7RefBase13onLastWeakRefEPKv"
    }
   ]
  },
  {
   "alignment" : 8,
   "base_specifiers" :
   [
    {
     "is_virtual" : true,
     "referenced_type" : "_ZTIN7android7RefBaseE"
    }
   ],
   "linker_set_key" : "_ZTIN7android8hardware7IBinderE",
   "name" : "android::hardware::IBinder",
   "record_kind" : "class",
   "referenced_type" : "_ZTIN7android8hardware7IBinderE",
   "self_type" : "_ZTIN7android8hardware7IBinderE",
   "size" : 24,
   "source_file" : "/system/libhwbinder/include/hwbinder/IBinder.h",
   "vtable_components" :
   [
    {
     "component_value" : 8,
     "kind" : "vbase_offset"
    },
    {
     "kind" : "offset_to_top"
    },
    {
     "kind" : "rtti",
     "mangled_component_name" : "_ZTIN7android8hardware7IBinderE"
    },
    {
     "is_pure" : true,
     "mangled_component_name" : "_ZN7android8hardware7IBinder8transactEjRKNS0_6ParcelEPS2_jNSt3__18functionIFvRS2_EEE"
    },
    {
     "is_pure" : true,
     "mangled_component_name" : "_ZN7android8hardware7IBinder11linkToDeathERKNS_2spINS1_14DeathRecipientEEEPvj"
    },
    {
     "is_pure" : true,
     "mangled_component_name" : "_ZN7android8hardware7IBinder13unlinkToDeathERKNS_2wpINS1_14DeathRecipientEEEPvjPS4_"
    },
    {
     "mangled_component_name" : "_ZNK7android8hardware7IBinder13checkSubclassEPKv"
    },
    {
     "is_pure" : true,
     "mangled_component_name" : "_ZN7android8hardware7IBinder12attachObjectEPKvPvS4_PFvS3_S4_S4_E"
    },
    {
     "is_pure" : true,
     "mangled_component_name" : "_ZNK7android8hardware7IBinder10findObjectEPKv"
    },
    {
     "is_pure" : true,
     "mangled_component_name" : "_ZN7android8hardware7IBinder12detachObjectEPKv"
    },
    {
     "mangled_component_name" : "_ZN7android8hardware7IBinder11localBinderEv"
    },
    {
     "mangled_component_name" : "_ZN7android8hardware7IBinder12remoteBinderEv"
    },
    {
     "kind" : "complete_dtor_pointer",
     "mangled_component_name" : "_ZN7android8hardware7IBinderD1Ev"
    },
    {
     "kind" : "deleting_dtor_pointer",
     "mangled_component_name" : "_ZN7android8hardware7IBinderD0Ev"
    },
    {
     "kind" : "vcall_offset"
    },
    {
     "kind" : "vcall_offset"
    },
    {
     "kind" : "vcall_offset"
    },
    {
     "kind" : "vcall_offset"
    },
    {
     "component_value" : -8,
     "kind" : "vcall_offset"
    },
    {
     "component_value" : -8,
     "kind" : "offset_to_top"
    },
    {
     "kind" : "rtti",
     "mangled_component_name" : "_ZTIN7android8hardware7IBinderE"
    },
    {
     "kind" : "complete_dtor_pointer",
     "mangled_component_name" : "_ZTv0_n24_N7android8hardware7IBinderD1Ev"
    },
    {
     "kind" : "deleting_dtor_pointer",
     "mangled_component_name" : "_ZTv0_n24_N7android8hardware7IBinderD0Ev"
    },
    {
     "mangled_component_name" : "_ZN7android7RefBase10onFirstRefEv"
    },
    {
     "mangled_component_name" : "_ZN7android7RefBase15onLastStrongRefEPKv"
    },
    {
     "mangled_component_name" : "_ZN7android7RefBase20onIncStrongAttemptedEjPKv"
    },
    {
     "mangled_component_name" : "_ZN7android7RefBase13onLastWeakRefEPKv"
    }
   ]
  },
  {
   "alignment" : 8,
   "fields" :
   [
    {
     "access" : "private",
     "referenced_type" : "_ZTIN7android8hardware7details12hidl_pointerI13native_handleEUt_E"
    }
   ],
   "linker_set_key" : "_ZTIN7android8hardware7details12hidl_pointerI13native_handleEE",
   "name" : "android::hardware::details::hidl_pointer<native_handle>",
   "referenced_type" : "_ZTIN7android8hardware7details12hidl_pointerI13native_handleEE",
   "self_type" : "_ZTIN7android8hardware7details12hidl_pointerI13native_handleEE",
   "size" : 8,
   "source_file" : "/system/libhidl/base/include/hidl/HidlInternal.h",
   "template_args" : [ "_ZTI13native_handle" ]
  },
  {
   "access" : "private",
   "alignment" : 8,
   "fields" :
   [
    {
     "field_name" : "mPointer",
     "referenced_type" : "_ZTIP13native_handle"
    },
    {
     "field_name" : "_pad",
     "referenced_type" : "_ZTIm"
    }
   ],
   "is_anonymous" : true,
   "linker_set_key" : "_ZTIN7android8hardware7details12hidl_pointerI13native_handleEUt_E",
   "name" : "android::hardware::details::hidl_pointer<native_handle>::(anonymous union at system/libhidl/base/include/hidl/HidlInternal.h:110:5)",
   "record_kind" : "union",
   "referenced_type" : "_ZTIN7android8hardware7details12hidl_pointerI13native_handleEUt_E",
   "self_type" : "_ZTIN7android8hardware7details12hidl_pointerI13native_handleEUt_E",
   "size" : 8,
   "source_file" : "/system/libhidl/base/include/hidl/HidlInternal.h"
  },
  {
   "alignment" : 8,
   "fields" :
   [
    {
     "access" : "private",
     "referenced_type" : "_ZTIN7android8hardware7details12hidl_pointerIK13native_handleEUt_E"
    }
   ],
   "linker_set_key" : "_ZTIN7android8hardware7details12hidl_pointerIK13native_handleEE",
   "name" : "android::hardware::details::hidl_pointer<const native_handle>",
   "referenced_type" : "_ZTIN7android8hardware7details12hidl_pointerIK13native_handleEE",
   "self_type" : "_ZTIN7android8hardware7details12hidl_pointerIK13native_handleEE",
   "size" : 8,
   "source_file" : "/system/libhidl/base/include/hidl/HidlInternal.h",
   "template_args" : [ "_ZTIK13native_handle" ]
  },
  {
   "access" : "private",
   "alignment" : 8,
   "fields" :
   [
    {
     "field_name" : "mPointer",
     "referenced_type" : "_ZTIPK13native_handle"
    },
    {
     "field_name" : "_pad",
     "referenced_type" : "_ZTIm"
    }
   ],
   "is_anonymous" : true,
   "linker_set_key" : "_ZTIN7android8hardware7details12hidl_pointerIK13native_handleEUt_E",
   "name" : "android::hardware::details::hidl_pointer<const native_handle>::(anonymous union at system/libhidl/base/include/hidl/HidlInternal.h:110:5)",
   "record_kind" : "union",
   "referenced_type" : "_ZTIN7android8hardware7details12hidl_pointerIK13native_handleEUt_E",
   "self_type" : "_ZTIN7android8hardware7details12hidl_pointerIK13native_handleEUt_E",
   "size" : 8,
   "source_file" : "/system/libhidl/base/include/hidl/HidlInternal.h"
  },
  {
   "alignment" : 8,
   "fields" :
   [
    {
     "access" : "private",
     "referenced_type" : "_ZTIN7android8hardware7details12hidl_pointerIKcEUt_E"
    }
   ],
   "linker_set_key" : "_ZTIN7android8hardware7details12hidl_pointerIKcEE",
   "name" : "android::hardware::details::hidl_pointer<const char>",
   "referenced_type" : "_ZTIN7android8hardware7details12hidl_pointerIKcEE",
   "self_type" : "_ZTIN7android8hardware7details12hidl_pointerIKcEE",
   "size" : 8,
   "source_file" : "/system/libhidl/base/include/hidl/HidlInternal.h",
   "template_args" : [ "_ZTIKc" ]
  },
  {
   "access" : "private",
   "alignment" : 8,
   "fields" :
   [
    {
     "field_name" : "mPointer",
     "referenced_type" : "_ZTIPKc"
    },
    {
     "field_name" : "_pad",
     "referenced_type" : "_ZTIm"
    }
   ],
   "is_anonymous" : true,
   "linker_set_key" : "_ZTIN7android8hardware7details12hidl_pointerIKcEUt_E",
   "name" : "android::hardware::details::hidl_pointer<const char>::(anonymous union at system/libhidl/base/include/hidl/HidlInternal.h:110:5)",
   "record_kind" : "union",
   "referenced_type" : "_ZTIN7android8hardware7details12hidl_pointerIKcEUt_E",
   "self_type" : "_ZTIN7android8hardware7details12hidl_pointerIKcEUt_E",
   "size" : 8,
   "source_file" : "/system/libhidl/base/include/hidl/HidlInternal.h"
  },
  {
   "alignment" : 8,
   "fields" :
   [
    {
     "access" : "private",
     "referenced_type" : "_ZTIN7android8hardware7details12hidl_pointerINS0_17GrantorDescriptorEEUt_E"
    }
   ],
   "linker_set_key" : "_ZTIN7android8hardware7details12hidl_pointerINS0_17GrantorDescriptorEEE",
   "name" : "android::hardware::details::hidl_pointer<android::hardware::GrantorDescriptor>",
   "referenced_type" : "_ZTIN7android8hardware7details12hidl_pointerINS0_17GrantorDescriptorEEE",
   "self_type" : "_ZTIN7android8hardware7details12hidl_pointerINS0_17GrantorDescriptorEEE",
   "size" : 8,
   "source_file" : "/system/libhidl/base/include/hidl/HidlInternal.h",
   "template_args" : [ "_ZTIN7android8hardware17GrantorDescriptorE" ]
  },
  {
   "access" : "private",
   "alignment" : 8,
   "fields" :
   [
    {
     "field_name" : "mPointer",
     "referenced_type" : "_ZTIPN7android8hardware17GrantorDescriptorE"
    },
    {
     "field_name" : "_pad",
     "referenced_type" : "_ZTIm"
    }
   ],
   "is_anonymous" : true,
   "linker_set_key" : "_ZTIN7android8hardware7details12hidl_pointerINS0_17GrantorDescriptorEEUt_E",
   "name" : "android::hardware::details::hidl_pointer<GrantorDescriptor>::(anonymous union at system/libhidl/base/include/hidl/HidlInternal.h:110:5)",
   "record_kind" : "union",
   "referenced_type" : "_ZTIN7android8hardware7details12hidl_pointerINS0_17GrantorDescriptorEEUt_E",
   "self_type" : "_ZTIN7android8hardware7details12hidl_pointerINS0_17GrantorDescriptorEEUt_E",
   "size" : 8,
   "source_file" : "/system/libhidl/base/include/hidl/HidlInternal.h"
  },
  {
   "alignment" : 8,
   "fields" :
   [
    {
     "access" : "private",
     "field_name" : "mStatus",
     "referenced_type" : "_ZTIN7android8hardware6StatusE"
    },
    {
     "access" : "private",
     "field_name" : "mCheckedStatus",
     "field_offset" : 256,
     "referenced_type" : "_ZTIb"
    }
   ],
   "linker_set_key" : "_ZTIN7android8hardware7details13return_statusE",
   "name" : "android::hardware::details::return_status",
   "record_kind" : "class",
   "referenced_type" : "_ZTIN7android8hardware7details13return_statusE",
   "self_type" : "_ZTIN7android8hardware7details13return_statusE",
   "size" : 40,
   "source_file" : "/system/libhidl/base/include/hidl/Status.h"
  },
  {
   "alignment" : 8,
   "fields" :
   [
    {
     "access" : "protected",
     "field_name" : "mInstrumentationCallbacks",
     "field_offset" : 64,
     "referenced_type" : "_ZTINSt3__16vectorINS_8functionIFvN7android8hardware7details16HidlInstrumentor20InstrumentationEventEPKcS8_S8_S8_PNS0_IPvNS_9allocatorIS9_EEEEEEENSA_ISF_EEEE"
    },
    {
     "access" : "protected",
     "field_name" : "mEnableInstrumentation",
     "field_offset" : 256,
     "referenced_type" : "_ZTIb"
    },
    {
     "access" : "protected",
     "field_name" : "mInstrumentationLibPackage",
     "field_offset" : 320,
     "referenced_type" : "_ZTINSt3__112basic_stringIcNS_11char_traitsIcEENS_9allocatorIcEEEE"
    },
    {
     "access" : "protected",
     "field_name" : "mInterfaceName",
     "field_offset" : 512,
     "referenced_type" : "_ZTINSt3__112basic_stringIcNS_11char_traitsIcEENS_9allocatorIcEEEE"
    }
   ],
   "linker_set_key" : "_ZTIN7android8hardware7details16HidlInstrumentorE",
   "name" : "android::hardware::details::HidlInstrumentor",
   "referenced_type" : "_ZTIN7android8hardware7details16HidlInstrumentorE",
   "self_type" : "_ZTIN7android8hardware7details16HidlInstrumentorE",
   "size" : 88,
   "source_file" : "/system/libhidl/base/include/hidl/HidlInternal.h",
   "vtable_components" :
   [
    {
     "kind" : "offset_to_top"
    },
    {
     "kind" : "rtti",
     "mangled_component_name" : "_ZTIN7android8hardware7details16HidlInstrumentorE"
    },
    {
     "kind" : "complete_dtor_pointer",
     "mangled_component_name" : "_ZN7android8hardware7details16HidlInstrumentorD1Ev"
    },
    {
     "kind" : "deleting_dtor_pointer",
     "mangled_component_name" : "_ZN7android8hardware7details16HidlInstrumentorD0Ev"
    }
   ]
  },
  {
   "alignment" : 1,
   "linker_set_key" : "_ZTIN7android8hardware7details5i_tagE",
   "name" : "android::hardware::details::i_tag",
   "referenced_type" : "_ZTIN7android8hardware7details5i_tagE",
   "self_type" : "_ZTIN7android8hardware7details5i_tagE",
   "size" : 1,
   "source_file" : "/system/libhidl/base/include/hidl/HidlInternal.h"
  },
  {
   "alignment" : 1,
   "linker_set_key" : "_ZTIN7android8hardware7details6bs_tagE",
   "name" : "android::hardware::details::bs_tag",
   "referenced_type" : "_ZTIN7android8hardware7details6bs_tagE",
   "self_type" : "_ZTIN7android8hardware7details6bs_tagE",
   "size" : 1,
   "source_file" : "/system/libhidl/base/include/hidl/HidlInternal.h"
  },
  {
   "alignment" : 1,
   "linker_set_key" : "_ZTIN7android8hardware7details8bnhw_tagE",
   "name" : "android::hardware::details::bnhw_tag",
   "referenced_type" : "_ZTIN7android8hardware7details8bnhw_tagE",
   "self_type" : "_ZTIN7android8hardware7details8bnhw_tagE",
   "size" : 1,
   "source_file" : "/system/libhidl/base/include/hidl/HidlInternal.h"
  },
  {
   "alignment" : 1,
   "linker_set_key" : "_ZTIN7android8hardware7details8bphw_tagE",
   "name" : "android::hardware::details::bphw_tag",
   "referenced_type" : "_ZTIN7android8hardware7details8bphw_tagE",
   "self_type" : "_ZTIN7android8hardware7details8bphw_tagE",
   "size" : 1,
   "source_file" : "/system/libhidl/base/include/hidl/HidlInternal.h"
  },
  {
   "alignment" : 8,
   "fields" :
   [
    {
     "access" : "private",
     "field_name" : "mBuffer",
     "referenced_type" : "_ZTIN7android8hardware7details12hidl_pointerINS0_17GrantorDescriptorEEE"
    },
    {
     "access" : "private",
     "field_name" : "mSize",
     "field_offset" : 64,
     "referenced_type" : "_ZTIj"
    },
    {
     "access" : "private",
     "field_name" : "mOwnsBuffer",
     "field_offset" : 96,
     "referenced_type" : "_ZTIb"
    },
    {
     "access" : "private",
     "field_name" : "mPad",
     "field_offset" : 104,
     "referenced_type" : "_ZTIA3_h"
    }
   ],
   "linker_set_key" : "_ZTIN7android8hardware8hidl_vecINS0_17GrantorDescriptorEEE",
   "name" : "android::hardware::hidl_vec<android::hardware::GrantorDescriptor>",
   "referenced_type" : "_ZTIN7android8hardware8hidl_vecINS0_17GrantorDescriptorEEE",
   "self_type" : "_ZTIN7android8hardware8hidl_vecINS0_17GrantorDescriptorEEE",
   "size" : 16,
   "source_file" : "/system/libhidl/base/include/hidl/HidlSupport.h",
   "template_args" : [ "_ZTIN7android8hardware17GrantorDescriptorE" ]
  },
  {
   "alignment" : 8,
   "base_specifiers" :
   [
    {
     "referenced_type" : "_ZTIN7android8hardware7IBinderE"
    }
   ],
   "fields" :
   [
    {
     "access" : "protected",
     "field_name" : "mSchedPolicy",
     "field_offset" : 64,
     "referenced_type" : "_ZTIi"
    },
    {
     "access" : "protected",
     "field_name" : "mSchedPriority",
     "field_offset" : 96,
     "referenced_type" : "_ZTIi"
    },
    {
     "access" : "private",
     "field_name" : "mExtras",
     "field_offset" : 128,
     "referenced_type" : "_ZTINSt3__16atomicIPN7android8hardware9BHwBinder6ExtrasEEE"
    },
    {
     "access" : "private",
     "field_name" : "mReserved0",
     "field_offset" : 192,
     "referenced_type" : "_ZTIPv"
    }
   ],
   "linker_set_key" : "_ZTIN7android8hardware9BHwBinderE",
   "name" : "android::hardware::BHwBinder",
   "record_kind" : "class",
   "referenced_type" : "_ZTIN7android8hardware9BHwBinderE",
   "self_type" : "_ZTIN7android8hardware9BHwBinderE",
   "size" : 48,
   "source_file" : "/system/libhwbinder/include/hwbinder/Binder.h",
   "vtable_components" :
   [
    {
     "component_value" : 32,
     "kind" : "vbase_offset"
    },
    {
     "kind" : "offset_to_top"
    },
    {
     "kind" : "rtti",
     "mangled_component_name" : "_ZTIN7android8hardware9BHwBinderE"
    },
    {
     "mangled_component_name" : "_ZN7android8hardware9BHwBinder8transactEjRKNS0_6ParcelEPS2_jNSt3__18functionIFvRS2_EEE"
    },
    {
     "mangled_component_name" : "_ZN7android8hardware9BHwBinder11linkToDeathERKNS_2spINS0_7IBinder14DeathRecipientEEEPvj"
    },
    {
     "mangled_component_name" : "_ZN7android8hardware9BHwBinder13unlinkToDeathERKNS_2wpINS0_7IBinder14DeathRecipientEEEPvjPS5_"
    },
    {
     "mangled_component_name" : "_ZNK7android8hardware7IBinder13checkSubclassEPKv"
    },
    {
     "mangled_component_name" : "_ZN7android8hardware9BHwBinder12attachObjectEPKvPvS4_PFvS3_S4_S4_E"
    },
    {
     "mangled_component_name" : "_ZNK7android8hardware9BHwBinder10findObjectEPKv"
    },
    {
     "mangled_component_name" : "_ZN7android8hardware9BHwBinder12detachObjectEPKv"
    },
    {
     "mangled_component_name" : "_ZN7android8hardware9BHwBinder11localBinderEv"
    },
    {
     "mangled_component_name" : "_ZN7android8hardware7IBinder12remoteBinderEv"
    },
    {
     "kind" : "complete_dtor_pointer",
     "mangled_component_name" : "_ZN7android8hardware9BHwBinderD1Ev"
    },
    {
     "kind" : "deleting_dtor_pointer",
     "mangled_component_name" : "_ZN7android8hardware9BHwBinderD0Ev"
    },
    {
     "mangled_component_name" : "_ZN7android8hardware9BHwBinder10onTransactEjRKNS0_6ParcelEPS2_jNSt3__18functionIFvRS2_EEE"
    },
    {
     "kind" : "vcall_offset"
    },
    {
     "kind" : "vcall_offset"
    },
    {
     "kind" : "vcall_offset"
    },
    {
     "kind" : "vcall_offset"
    },
    {
     "component_value" : -32,
     "kind" : "vcall_offset"
    },
    {
     "component_value" : -32,
     "kind" : "offset_to_top"
    },
    {
     "kind" : "rtti",
     "mangled_component_name" : "_ZTIN7android8hardware9BHwBinderE"
    },
    {
     "kind" : "complete_dtor_pointer",
     "mangled_component_name" : "_ZTv0_n24_N7android8hardware9BHwBinderD1Ev"
    },
    {
     "kind" : "deleting_dtor_pointer",
     "mangled_component_name" : "_ZTv0_n24_N7android8hardware9BHwBinderD0Ev"
    },
    {
     "mangled_component_name" : "_ZN7android7RefBase10onFirstRefEv"
    },
    {
     "mangled_component_name" : "_ZN7android7RefBase15onLastStrongRefEPKv"
    },
    {
     "mangled_component_name" : "_ZN7android7RefBase20onIncStrongAttemptedEjPKv"
    },
    {
     "mangled_component_name" : "_ZN7android7RefBase13onLastWeakRefEPKv"
    }
   ]
  },
  {
   "alignment" : 8,
   "fields" :
   [
    {
     "access" : "private",
     "field_name" : "mEfWordNeedsUnmapping",
     "referenced_type" : "_ZTIb"
    },
    {
     "access" : "private",
     "field_name" : "mEfWordPtr",
     "field_offset" : 64,
     "referenced_type" : "_ZTIPNSt3__16atomicIjEE"
    }
   ],
   "linker_set_key" : "_ZTIN7android8hardware9EventFlagE",
   "name" : "android::hardware::EventFlag",
   "referenced_type" : "_ZTIN7android8hardware9EventFlagE",
   "self_type" : "_ZTIN7android8hardware9EventFlagE",
   "size" : 16,
   "source_file" : "/system/libfmq/include/fmq/EventFlag.h"
  },
  {
   "alignment" : 4,
   "fields" :
   [
    {
     "field_name" : "sched_policy",
     "referenced_type" : "_ZTIi"
    },
    {
     "field_name" : "prio",
     "field_offset" : 32,
     "referenced_type" : "_ZTIi"
    }
   ],
   "linker_set_key" : "_ZTIN7android8hardware9SchedPrioE",
   "name" : "android::hardware::SchedPrio",
   "referenced_type" : "_ZTIN7android8hardware9SchedPrioE",
   "self_type" : "_ZTIN7android8hardware9SchedPrioE",
   "size" : 8,
   "source_file" : "/system/libhidl/transport/include/hidl/HidlTransportSupport.h"
  },
  {
   "alignment" : 4,
   "fields" :
   [
    {
     "field_name" : "buf",
     "referenced_type" : "_ZTIA5121_h"
    },
    {
     "field_name" : "entry",
     "referenced_type" : "_ZTI12logger_entry"
    }
   ],
   "is_anonymous" : true,
   "linker_set_key" : "_ZTIN7log_msgUt_E",
   "name" : "log_msg::(anonymous union at system/core/liblog/include_vndk/log/log_read.h:77:3)",
   "record_kind" : "union",
   "referenced_type" : "_ZTIN7log_msgUt_E",
   "self_type" : "_ZTIN7log_msgUt_E",
   "size" : 5124,
   "source_file" : "/system/core/liblog/include/log/log_read.h"
  }
 ],
 "rvalue_reference_types" :
 [
  {
   "alignment" : 8,
   "linker_set_key" : "_ZTION7android2spINS_8hardware5media10bufferpool4V2_014IClientManagerEEE",
   "name" : "android::sp<android::hardware::media::bufferpool::V2_0::IClientManager> &&",
   "referenced_type" : "_ZTIN7android2spINS_8hardware5media10bufferpool4V2_014IClientManagerEEE",
   "self_type" : "_ZTION7android2spINS_8hardware5media10bufferpool4V2_014IClientManagerEEE",
   "size" : 8,
   "source_file" : "/system/core/libutils/include/utils/StrongPointer.h"
  },
  {
   "alignment" : 8,
   "linker_set_key" : "_ZTION7android2spINS_8hardware5media10bufferpool4V2_014implementation8AccessorEEE",
   "name" : "android::sp<android::hardware::media::bufferpool::V2_0::implementation::Accessor> &&",
   "referenced_type" : "_ZTIN7android2spINS_8hardware5media10bufferpool4V2_014implementation8AccessorEEE",
   "self_type" : "_ZTION7android2spINS_8hardware5media10bufferpool4V2_014implementation8AccessorEEE",
   "size" : 8,
   "source_file" : "/system/core/libutils/include/utils/StrongPointer.h"
  },
  {
   "alignment" : 8,
   "linker_set_key" : "_ZTION7android2spINS_8hardware5media10bufferpool4V2_09IAccessorEEE",
   "name" : "android::sp<android::hardware::media::bufferpool::V2_0::IAccessor> &&",
   "referenced_type" : "_ZTIN7android2spINS_8hardware5media10bufferpool4V2_09IAccessorEEE",
   "self_type" : "_ZTION7android2spINS_8hardware5media10bufferpool4V2_09IAccessorEEE",
   "size" : 8,
   "source_file" : "/system/core/libutils/include/utils/StrongPointer.h"
  },
  {
   "alignment" : 8,
   "linker_set_key" : "_ZTION7android2spINS_8hardware5media10bufferpool4V2_09IObserverEEE",
   "name" : "android::sp<android::hardware::media::bufferpool::V2_0::IObserver> &&",
   "referenced_type" : "_ZTIN7android2spINS_8hardware5media10bufferpool4V2_09IObserverEEE",
   "self_type" : "_ZTION7android2spINS_8hardware5media10bufferpool4V2_09IObserverEEE",
   "size" : 8,
   "source_file" : "/system/core/libutils/include/utils/StrongPointer.h"
  },
  {
   "alignment" : 8,
   "linker_set_key" : "_ZTION7android8hardware11hidl_handleE",
   "name" : "android::hardware::hidl_handle &&",
   "referenced_type" : "_ZTIN7android8hardware11hidl_handleE",
   "self_type" : "_ZTION7android8hardware11hidl_handleE",
   "size" : 8,
   "source_file" : "/system/libhidl/base/include/hidl/HidlSupport.h"
  },
  {
   "alignment" : 8,
   "linker_set_key" : "_ZTION7android8hardware11hidl_memoryE",
   "name" : "android::hardware::hidl_memory &&",
   "referenced_type" : "_ZTIN7android8hardware11hidl_memoryE",
   "self_type" : "_ZTION7android8hardware11hidl_memoryE",
   "size" : 8,
   "source_file" : "/system/libhidl/base/include/hidl/HidlSupport.h"
  },
  {
   "alignment" : 8,
   "linker_set_key" : "_ZTION7android8hardware6ReturnIbEE",
   "name" : "android::hardware::Return<bool> &&",
   "referenced_type" : "_ZTIN7android8hardware6ReturnIbEE",
   "self_type" : "_ZTION7android8hardware6ReturnIbEE",
   "size" : 8,
   "source_file" : "/system/libhidl/base/include/hidl/Status.h"
  },
  {
   "alignment" : 8,
   "linker_set_key" : "_ZTION7android8hardware6ReturnIvEE",
   "name" : "android::hardware::Return<void> &&",
   "referenced_type" : "_ZTIN7android8hardware6ReturnIvEE",
   "self_type" : "_ZTION7android8hardware6ReturnIvEE",
   "size" : 8,
   "source_file" : "/system/libhidl/base/include/hidl/Status.h"
  },
  {
   "alignment" : 8,
   "linker_set_key" : "_ZTION7android8hardware6StatusE",
   "name" : "android::hardware::Status &&",
   "referenced_type" : "_ZTIN7android8hardware6StatusE",
   "self_type" : "_ZTION7android8hardware6StatusE",
   "size" : 8,
   "source_file" : "/system/libhidl/base/include/hidl/Status.h"
  },
  {
   "alignment" : 8,
   "linker_set_key" : "_ZTION7android8hardware7details13return_statusE",
   "name" : "android::hardware::details::return_status &&",
   "referenced_type" : "_ZTIN7android8hardware7details13return_statusE",
   "self_type" : "_ZTION7android8hardware7details13return_statusE",
   "size" : 8,
   "source_file" : "/system/libhidl/base/include/hidl/Status.h"
  }
 ]
}
