{
 "array_types" :
 [
  {
   "alignment" : 1,
   "linker_set_key" : "_ZTIA120_c",
   "name" : "char [120]",
   "referenced_type" : "_ZTIc",
   "self_type" : "_ZTIA120_c",
   "size" : 120,
   "source_file" : "/system/core/libunwindstack/include/unwindstack/UcontextArm64.h"
  },
  {
   "alignment" : 4,
   "linker_set_key" : "_ZTIA16_j",
   "name" : "unsigned int [16]",
   "referenced_type" : "_ZTIj",
   "self_type" : "_ZTIA16_j",
   "size" : 64,
   "source_file" : "/system/core/libunwindstack/include/unwindstack/UcontextArm.h"
  },
  {
   "alignment" : 4,
   "linker_set_key" : "_ZTIA18_j",
   "name" : "unsigned int [18]",
   "referenced_type" : "_ZTIj",
   "self_type" : "_ZTIA18_j",
   "size" : 72,
   "source_file" : "/system/core/libunwindstack/include/unwindstack/UserArm.h"
  },
  {
   "alignment" : 8,
   "linker_set_key" : "_ZTIA2_m",
   "name" : "unsigned long [2]",
   "referenced_type" : "_ZTIm",
   "self_type" : "_ZTIA2_m",
   "size" : 16,
   "source_file" : "/system/core/libunwindstack/include/unwindstack/DwarfLocation.h"
  },
  {
   "alignment" : 8,
   "linker_set_key" : "_ZTIA31_m",
   "name" : "unsigned long [31]",
   "referenced_type" : "_ZTIm",
   "self_type" : "_ZTIA31_m",
   "size" : 248,
   "source_file" : "/system/core/libunwindstack/include/unwindstack/UserArm64.h"
  },
  {
   "alignment" : 8,
   "linker_set_key" : "_ZTIA32_m",
   "name" : "unsigned long [32]",
   "referenced_type" : "_ZTIm",
   "self_type" : "_ZTIA32_m",
   "size" : 256,
   "source_file" : "/system/core/libunwindstack/include/unwindstack/UcontextMips.h"
  },
  {
   "alignment" : 8,
   "linker_set_key" : "_ZTIA34_m",
   "name" : "unsigned long [34]",
   "referenced_type" : "_ZTIm",
   "self_type" : "_ZTIA34_m",
   "size" : 272,
   "source_file" : "/system/core/libunwindstack/include/unwindstack/UcontextArm64.h"
  },
  {
   "alignment" : 4,
   "linker_set_key" : "_ZTIA45_j",
   "name" : "unsigned int [45]",
   "referenced_type" : "_ZTIj",
   "self_type" : "_ZTIA45_j",
   "size" : 180,
   "source_file" : "/system/core/libunwindstack/include/unwindstack/UserMips.h"
  },
  {
   "alignment" : 8,
   "linker_set_key" : "_ZTIA45_m",
   "name" : "unsigned long [45]",
   "referenced_type" : "_ZTIm",
   "self_type" : "_ZTIA45_m",
   "size" : 360,
   "source_file" : "/system/core/libunwindstack/include/unwindstack/UserMips64.h"
  }
 ],
 "builtin_types" :
 [
  {
   "alignment" : 1,
   "is_integral" : true,
   "is_unsigned" : true,
   "linker_set_key" : "_ZTIb",
   "name" : "bool",
   "referenced_type" : "_ZTIb",
   "self_type" : "_ZTIb",
   "size" : 1
  },
  {
   "alignment" : 1,
   "is_integral" : true,
   "is_unsigned" : true,
   "linker_set_key" : "_ZTIc",
   "name" : "char",
   "referenced_type" : "_ZTIc",
   "self_type" : "_ZTIc",
   "size" : 1
  },
  {
   "alignment" : 1,
   "is_integral" : true,
   "is_unsigned" : true,
   "linker_set_key" : "_ZTIh",
   "name" : "unsigned char",
   "referenced_type" : "_ZTIh",
   "self_type" : "_ZTIh",
   "size" : 1
  },
  {
   "alignment" : 4,
   "is_integral" : true,
   "linker_set_key" : "_ZTIi",
   "name" : "int",
   "referenced_type" : "_ZTIi",
   "self_type" : "_ZTIi",
   "size" : 4
  },
  {
   "alignment" : 4,
   "is_integral" : true,
   "is_unsigned" : true,
   "linker_set_key" : "_ZTIj",
   "name" : "unsigned int",
   "referenced_type" : "_ZTIj",
   "self_type" : "_ZTIj",
   "size" : 4
  },
  {
   "alignment" : 8,
   "is_integral" : true,
   "linker_set_key" : "_ZTIl",
   "name" : "long",
   "referenced_type" : "_ZTIl",
   "self_type" : "_ZTIl",
   "size" : 8
  },
  {
   "alignment" : 8,
   "is_integral" : true,
   "is_unsigned" : true,
   "linker_set_key" : "_ZTIm",
   "name" : "unsigned long",
   "referenced_type" : "_ZTIm",
   "self_type" : "_ZTIm",
   "size" : 8
  },
  {
   "alignment" : 2,
   "is_integral" : true,
   "linker_set_key" : "_ZTIs",
   "name" : "short",
   "referenced_type" : "_ZTIs",
   "self_type" : "_ZTIs",
   "size" : 2
  },
  {
   "alignment" : 2,
   "is_integral" : true,
   "is_unsigned" : true,
   "linker_set_key" : "_ZTIt",
   "name" : "unsigned short",
   "referenced_type" : "_ZTIt",
   "self_type" : "_ZTIt",
   "size" : 2
  },
  {
   "linker_set_key" : "_ZTIv",
   "name" : "void",
   "referenced_type" : "_ZTIv",
   "self_type" : "_ZTIv"
  }
 ],
 "elf_functions" :
 [
  {
   "name" : "_ZN11unwindstack10BufferMaps5ParseEv"
  },
  {
   "name" : "_ZN11unwindstack10RegsMips6415GetPcAdjustmentEmPNS_3ElfE"
  },
  {
   "name" : "_ZN11unwindstack10RegsMips6416IterateRegistersENSt3__18functionIFvPKcmEEE"
  },
  {
   "name" : "_ZN11unwindstack10RegsMips6418CreateFromUcontextEPv"
  },
  {
   "name" : "_ZN11unwindstack10RegsMips6419StepIfSignalHandlerEmPNS_3ElfEPNS_6MemoryE"
  },
  {
   "name" : "_ZN11unwindstack10RegsMips6422SetPcFromReturnAddressEPNS_6MemoryE"
  },
  {
   "name" : "_ZN11unwindstack10RegsMips642pcEv"
  },
  {
   "name" : "_ZN11unwindstack10RegsMips642spEv"
  },
  {
   "name" : "_ZN11unwindstack10RegsMips644ArchEv"
  },
  {
   "name" : "_ZN11unwindstack10RegsMips644ReadEPv"
  },
  {
   "name" : "_ZN11unwindstack10RegsMips645CloneEv"
  },
  {
   "name" : "_ZN11unwindstack10RegsMips646set_pcEm"
  },
  {
   "name" : "_ZN11unwindstack10RegsMips646set_spEm"
  },
  {
   "name" : "_ZN11unwindstack10RegsMips64C1Ev"
  },
  {
   "name" : "_ZN11unwindstack10RegsMips64C2Ev"
  },
  {
   "name" : "_ZN11unwindstack10RegsX86_6415GetPcAdjustmentEmPNS_3ElfE"
  },
  {
   "name" : "_ZN11unwindstack10RegsX86_6415SetFromUcontextEPNS_17x86_64_ucontext_tE"
  },
  {
   "name" : "_ZN11unwindstack10RegsX86_6416IterateRegistersENSt3__18functionIFvPKcmEEE"
  },
  {
   "name" : "_ZN11unwindstack10RegsX86_6418CreateFromUcontextEPv"
  },
  {
   "name" : "_ZN11unwindstack10RegsX86_6419StepIfSignalHandlerEmPNS_3ElfEPNS_6MemoryE"
  },
  {
   "name" : "_ZN11unwindstack10RegsX86_6422SetPcFromReturnAddressEPNS_6MemoryE"
  },
  {
   "name" : "_ZN11unwindstack10RegsX86_642pcEv"
  },
  {
   "name" : "_ZN11unwindstack10RegsX86_642spEv"
  },
  {
   "name" : "_ZN11unwindstack10RegsX86_644ArchEv"
  },
  {
   "name" : "_ZN11unwindstack10RegsX86_644ReadEPv"
  },
  {
   "name" : "_ZN11unwindstack10RegsX86_645CloneEv"
  },
  {
   "name" : "_ZN11unwindstack10RegsX86_646set_pcEm"
  },
  {
   "name" : "_ZN11unwindstack10RegsX86_646set_spEm"
  },
  {
   "name" : "_ZN11unwindstack10RegsX86_64C1Ev"
  },
  {
   "name" : "_ZN11unwindstack10RegsX86_64C2Ev"
  },
  {
   "binding" : "weak",
   "name" : "_ZN11unwindstack11DwarfMemory10ReadSignedIaEEbPm"
  },
  {
   "binding" : "weak",
   "name" : "_ZN11unwindstack11DwarfMemory10ReadSignedIiEEbPm"
  },
  {
   "binding" : "weak",
   "name" : "_ZN11unwindstack11DwarfMemory10ReadSignedIlEEbPm"
  },
  {
   "binding" : "weak",
   "name" : "_ZN11unwindstack11DwarfMemory10ReadSignedIsEEbPm"
  },
  {
   "name" : "_ZN11unwindstack11DwarfMemory11ReadSLEB128EPl"
  },
  {
   "name" : "_ZN11unwindstack11DwarfMemory11ReadULEB128EPm"
  },
  {
   "binding" : "weak",
   "name" : "_ZN11unwindstack11DwarfMemory14GetEncodedSizeIjEEmh"
  },
  {
   "binding" : "weak",
   "name" : "_ZN11unwindstack11DwarfMemory14GetEncodedSizeImEEmh"
  },
  {
   "binding" : "weak",
   "name" : "_ZN11unwindstack11DwarfMemory16ReadEncodedValueIjEEbhPm"
  },
  {
   "binding" : "weak",
   "name" : "_ZN11unwindstack11DwarfMemory16ReadEncodedValueImEEbhPm"
  },
  {
   "name" : "_ZN11unwindstack11DwarfMemory18AdjustEncodedValueEhPm"
  },
  {
   "name" : "_ZN11unwindstack11DwarfMemory9ReadBytesEPvm"
  },
  {
   "name" : "_ZN11unwindstack11MemoryCache4ReadEmPvm"
  },
  {
   "name" : "_ZN11unwindstack11MemoryLocal4ReadEmPvm"
  },
  {
   "name" : "_ZN11unwindstack11MemoryRange4ReadEmPvm"
  },
  {
   "name" : "_ZN11unwindstack11MemoryRangeC1ERKNSt3__110shared_ptrINS_6MemoryEEEmmm"
  },
  {
   "name" : "_ZN11unwindstack11MemoryRangeC2ERKNSt3__110shared_ptrINS_6MemoryEEEmmm"
  },
  {
   "binding" : "weak",
   "name" : "_ZN11unwindstack12DwarfEhFrameIjEC1EPNS_6MemoryE"
  },
  {
   "binding" : "weak",
   "name" : "_ZN11unwindstack12DwarfEhFrameIjEC2EPNS_6MemoryE"
  },
  {
   "binding" : "weak",
   "name" : "_ZN11unwindstack12DwarfEhFrameImEC1EPNS_6MemoryE"
  },
  {
   "binding" : "weak",
   "name" : "_ZN11unwindstack12DwarfEhFrameImEC2EPNS_6MemoryE"
  },
  {
   "name" : "_ZN11unwindstack12DwarfSection4StepEmPNS_4RegsEPNS_6MemoryEPb"
  },
  {
   "name" : "_ZN11unwindstack12DwarfSectionC2EPNS_6MemoryE"
  },
  {
   "binding" : "weak",
   "name" : "_ZN11unwindstack12ElfInterface11GetLoadBiasI9elf32_hdr10elf32_phdrEElPNS_6MemoryE"
  },
  {
   "binding" : "weak",
   "name" : "_ZN11unwindstack12ElfInterface11GetLoadBiasI9elf64_hdr10elf64_phdrEElPNS_6MemoryE"
  },
  {
   "binding" : "weak",
   "name" : "_ZN11unwindstack12ElfInterface11ReadBuildIDI10elf32_noteEENSt3__112basic_stringIcNS3_11char_traitsIcEENS3_9allocatorIcEEEEv"
  },
  {
   "binding" : "weak",
   "name" : "_ZN11unwindstack12ElfInterface11ReadBuildIDI10elf64_noteEENSt3__112basic_stringIcNS3_11char_traitsIcEENS3_9allocatorIcEEEEv"
  },
  {
   "binding" : "weak",
   "name" : "_ZN11unwindstack12ElfInterface14ReadAllHeadersI9elf32_hdr10elf32_phdr10elf32_shdrEEbPl"
  },
  {
   "binding" : "weak",
   "name" : "_ZN11unwindstack12ElfInterface14ReadAllHeadersI9elf64_hdr10elf64_phdr10elf64_shdrEEbPl"
  },
  {
   "binding" : "weak",
   "name" : "_ZN11unwindstack12ElfInterface18ReadProgramHeadersI9elf32_hdr10elf32_phdrEEvRKT_Pl"
  },
  {
   "binding" : "weak",
   "name" : "_ZN11unwindstack12ElfInterface18ReadProgramHeadersI9elf64_hdr10elf64_phdrEEvRKT_Pl"
  },
  {
   "binding" : "weak",
   "name" : "_ZN11unwindstack12ElfInterface18ReadSectionHeadersI9elf32_hdr10elf32_shdrEEvRKT_"
  },
  {
   "binding" : "weak",
   "name" : "_ZN11unwindstack12ElfInterface18ReadSectionHeadersI9elf64_hdr10elf64_shdrEEvRKT_"
  },
  {
   "binding" : "weak",
   "name" : "_ZN11unwindstack12ElfInterface21GetSonameWithTemplateI7dynamicEENSt3__112basic_stringIcNS3_11char_traitsIcEENS3_9allocatorIcEEEEv"
  },
  {
   "binding" : "weak",
   "name" : "_ZN11unwindstack12ElfInterface21GetSonameWithTemplateI9Elf64_DynEENSt3__112basic_stringIcNS3_11char_traitsIcEENS3_9allocatorIcEEEEv"
  },
  {
   "binding" : "weak",
   "name" : "_ZN11unwindstack12ElfInterface21ReadBuildIDFromMemoryI9elf32_hdr10elf32_shdr10elf32_noteEENSt3__112basic_stringIcNS5_11char_traitsIcEENS5_9allocatorIcEEEEPNS_6MemoryE"
  },
  {
   "binding" : "weak",
   "name" : "_ZN11unwindstack12ElfInterface21ReadBuildIDFromMemoryI9elf64_hdr10elf64_shdr10elf64_noteEENSt3__112basic_stringIcNS5_11char_traitsIcEENS5_9allocatorIcEEEEPNS_6MemoryE"
  },
  {
   "binding" : "weak",
   "name" : "_ZN11unwindstack12ElfInterface22GetMaxSizeWithTemplateI9elf32_hdrEEvPNS_6MemoryEPm"
  },
  {
   "binding" : "weak",
   "name" : "_ZN11unwindstack12ElfInterface22GetMaxSizeWithTemplateI9elf64_hdrEEvPNS_6MemoryEPm"
  },
  {
   "binding" : "weak",
   "name" : "_ZN11unwindstack12ElfInterface23InitHeadersWithTemplateIjEEvv"
  },
  {
   "binding" : "weak",
   "name" : "_ZN11unwindstack12ElfInterface23InitHeadersWithTemplateImEEvv"
  },
  {
   "name" : "_ZN11unwindstack12ElfInterface24CreateGnuDebugdataMemoryEv"
  },
  {
   "binding" : "weak",
   "name" : "_ZN11unwindstack12ElfInterface27GetFunctionNameWithTemplateI9elf32_symEEbmPNSt3__112basic_stringIcNS3_11char_traitsIcEENS3_9allocatorIcEEEEPm"
  },
  {
   "binding" : "weak",
   "name" : "_ZN11unwindstack12ElfInterface27GetFunctionNameWithTemplateI9elf64_symEEbmPNSt3__112basic_stringIcNS3_11char_traitsIcEENS3_9allocatorIcEEEEPm"
  },
  {
   "binding" : "weak",
   "name" : "_ZN11unwindstack12ElfInterface29GetGlobalVariableWithTemplateI9elf32_symEEbRKNSt3__112basic_stringIcNS3_11char_traitsIcEENS3_9allocatorIcEEEEPm"
  },
  {
   "binding" : "weak",
   "name" : "_ZN11unwindstack12ElfInterface29GetGlobalVariableWithTemplateI9elf64_symEEbRKNSt3__112basic_stringIcNS3_11char_traitsIcEENS3_9allocatorIcEEEEPm"
  },
  {
   "name" : "_ZN11unwindstack12ElfInterface4StepEmPNS_4RegsEPNS_6MemoryEPb"
  },
  {
   "name" : "_ZN11unwindstack12ElfInterface9IsValidPcEm"
  },
  {
   "name" : "_ZN11unwindstack12ElfInterfaceD0Ev"
  },
  {
   "name" : "_ZN11unwindstack12ElfInterfaceD1Ev"
  },
  {
   "name" : "_ZN11unwindstack12ElfInterfaceD2Ev"
  },
  {
   "name" : "_ZN11unwindstack12MemoryBuffer4ReadEmPvm"
  },
  {
   "name" : "_ZN11unwindstack12MemoryBuffer6GetPtrEm"
  },
  {
   "name" : "_ZN11unwindstack12MemoryRanges4ReadEmPvm"
  },
  {
   "name" : "_ZN11unwindstack12MemoryRanges6InsertEPNS_11MemoryRangeE"
  },
  {
   "name" : "_ZN11unwindstack12MemoryRemote4ReadEmPvm"
  },
  {
   "name" : "_ZN11unwindstack13LocalUnwinder10GetMapInfoEm"
  },
  {
   "name" : "_ZN11unwindstack13LocalUnwinder17ShouldSkipLibraryERKNSt3__112basic_stringIcNS1_11char_traitsIcEENS1_9allocatorIcEEEE"
  },
  {
   "name" : "_ZN11unwindstack13LocalUnwinder4InitEv"
  },
  {
   "name" : "_ZN11unwindstack13LocalUnwinder6UnwindEPNSt3__16vectorINS_14LocalFrameDataENS1_9allocatorIS3_EEEEm"
  },
  {
   "name" : "_ZN11unwindstack13MemoryOffline4InitERKNSt3__112basic_stringIcNS1_11char_traitsIcEENS1_9allocatorIcEEEEm"
  },
  {
   "name" : "_ZN11unwindstack13MemoryOffline4ReadEmPvm"
  },
  {
   "name" : "_ZN11unwindstack13log_to_stdoutEb"
  },
  {
   "binding" : "weak",
   "name" : "_ZN11unwindstack14GetBuildIDInfoI9elf32_hdr10elf32_shdrEEbPNS_6MemoryEPmS5_"
  },
  {
   "binding" : "weak",
   "name" : "_ZN11unwindstack14GetBuildIDInfoI9elf64_hdr10elf64_shdrEEbPNS_6MemoryEPmS5_"
  },
  {
   "binding" : "weak",
   "name" : "_ZN11unwindstack15DwarfDebugFrameIjEC1EPNS_6MemoryE"
  },
  {
   "binding" : "weak",
   "name" : "_ZN11unwindstack15DwarfDebugFrameIjEC2EPNS_6MemoryE"
  },
  {
   "binding" : "weak",
   "name" : "_ZN11unwindstack15DwarfDebugFrameImEC1EPNS_6MemoryE"
  },
  {
   "binding" : "weak",
   "name" : "_ZN11unwindstack15DwarfDebugFrameImEC2EPNS_6MemoryE"
  },
  {
   "name" : "_ZN11unwindstack15ElfInterfaceArm13GetPrel31AddrEjPj"
  },
  {
   "name" : "_ZN11unwindstack15ElfInterfaceArm15GetFunctionNameEmPNSt3__112basic_stringIcNS1_11char_traitsIcEENS1_9allocatorIcEEEEPm"
  },
  {
   "name" : "_ZN11unwindstack15ElfInterfaceArm17HandleUnknownTypeEjmm"
  },
  {
   "name" : "_ZN11unwindstack15ElfInterfaceArm4InitEPl"
  },
  {
   "name" : "_ZN11unwindstack15ElfInterfaceArm4StepEmPNS_4RegsEPNS_6MemoryEPb"
  },
  {
   "name" : "_ZN11unwindstack15ElfInterfaceArm9FindEntryEjPm"
  },
  {
   "name" : "_ZN11unwindstack15ElfInterfaceArm9StepExidxEmPNS_4RegsEPNS_6MemoryEPb"
  },
  {
   "name" : "_ZN11unwindstack15UnwinderFromPid4InitENS_8ArchEnumE"
  },
  {
   "binding" : "weak",
   "name" : "_ZN11unwindstack16DwarfSectionImplIjE12EvalRegisterEPKNS_13DwarfLocationEjPjPv"
  },
  {
   "binding" : "weak",
   "name" : "_ZN11unwindstack16DwarfSectionImplIjE12GetFdeFromPcEm"
  },
  {
   "binding" : "weak",
   "name" : "_ZN11unwindstack16DwarfSectionImplIjE14EvalExpressionERKNS_13DwarfLocationEPNS_6MemoryEPjPNS_8RegsInfoIjEEPb"
  },
  {
   "binding" : "weak",
   "name" : "_ZN11unwindstack16DwarfSectionImplIjE15FillInCieHeaderEPNS_8DwarfCieE"
  },
  {
   "binding" : "weak",
   "name" : "_ZN11unwindstack16DwarfSectionImplIjE15FillInFdeHeaderEPNS_8DwarfFdeE"
  },
  {
   "binding" : "weak",
   "name" : "_ZN11unwindstack16DwarfSectionImplIjE15GetNextCieOrFdeEPPKNS_8DwarfFdeE"
  },
  {
   "binding" : "weak",
   "name" : "_ZN11unwindstack16DwarfSectionImplIjE16GetCieFromOffsetEm"
  },
  {
   "binding" : "weak",
   "name" : "_ZN11unwindstack16DwarfSectionImplIjE16GetFdeFromOffsetEm"
  },
  {
   "binding" : "weak",
   "name" : "_ZN11unwindstack16DwarfSectionImplIjE18GetCfaLocationInfoEmPKNS_8DwarfFdeEPNS_14DwarfLocationsE"
  },
  {
   "binding" : "weak",
   "name" : "_ZN11unwindstack16DwarfSectionImplIjE3LogEhmPKNS_8DwarfFdeE"
  },
  {
   "binding" : "weak",
   "name" : "_ZN11unwindstack16DwarfSectionImplIjE4EvalEPKNS_8DwarfCieEPNS_6MemoryERKNS_14DwarfLocationsEPNS_4RegsEPb"
  },
  {
   "binding" : "weak",
   "name" : "_ZN11unwindstack16DwarfSectionImplIjE4InitEmml"
  },
  {
   "binding" : "weak",
   "name" : "_ZN11unwindstack16DwarfSectionImplIjE7GetFdesEPNSt3__16vectorIPKNS_8DwarfFdeENS2_9allocatorIS6_EEEE"
  },
  {
   "binding" : "weak",
   "name" : "_ZN11unwindstack16DwarfSectionImplIjE9FillInCieEPNS_8DwarfCieE"
  },
  {
   "binding" : "weak",
   "name" : "_ZN11unwindstack16DwarfSectionImplIjE9FillInFdeEPNS_8DwarfFdeE"
  },
  {
   "binding" : "weak",
   "name" : "_ZN11unwindstack16DwarfSectionImplIjE9InsertFdeEPKNS_8DwarfFdeE"
  },
  {
   "binding" : "weak",
   "name" : "_ZN11unwindstack16DwarfSectionImplIjEC2EPNS_6MemoryE"
  },
  {
   "binding" : "weak",
   "name" : "_ZN11unwindstack16DwarfSectionImplImE12EvalRegisterEPKNS_13DwarfLocationEjPmPv"
  },
  {
   "binding" : "weak",
   "name" : "_ZN11unwindstack16DwarfSectionImplImE12GetFdeFromPcEm"
  },
  {
   "binding" : "weak",
   "name" : "_ZN11unwindstack16DwarfSectionImplImE14EvalExpressionERKNS_13DwarfLocationEPNS_6MemoryEPmPNS_8RegsInfoImEEPb"
  },
  {
   "binding" : "weak",
   "name" : "_ZN11unwindstack16DwarfSectionImplImE15FillInCieHeaderEPNS_8DwarfCieE"
  },
  {
   "binding" : "weak",
   "name" : "_ZN11unwindstack16DwarfSectionImplImE15FillInFdeHeaderEPNS_8DwarfFdeE"
  },
  {
   "binding" : "weak",
   "name" : "_ZN11unwindstack16DwarfSectionImplImE15GetNextCieOrFdeEPPKNS_8DwarfFdeE"
  },
  {
   "binding" : "weak",
   "name" : "_ZN11unwindstack16DwarfSectionImplImE16GetCieFromOffsetEm"
  },
  {
   "binding" : "weak",
   "name" : "_ZN11unwindstack16DwarfSectionImplImE16GetFdeFromOffsetEm"
  },
  {
   "binding" : "weak",
   "name" : "_ZN11unwindstack16DwarfSectionImplImE18GetCfaLocationInfoEmPKNS_8DwarfFdeEPNS_14DwarfLocationsE"
  },
  {
   "binding" : "weak",
   "name" : "_ZN11unwindstack16DwarfSectionImplImE3LogEhmPKNS_8DwarfFdeE"
  },
  {
   "binding" : "weak",
   "name" : "_ZN11unwindstack16DwarfSectionImplImE4EvalEPKNS_8DwarfCieEPNS_6MemoryERKNS_14DwarfLocationsEPNS_4RegsEPb"
  },
  {
   "binding" : "weak",
   "name" : "_ZN11unwindstack16DwarfSectionImplImE4InitEmml"
  },
  {
   "binding" : "weak",
   "name" : "_ZN11unwindstack16DwarfSectionImplImE7GetFdesEPNSt3__16vectorIPKNS_8DwarfFdeENS2_9allocatorIS6_EEEE"
  },
  {
   "binding" : "weak",
   "name" : "_ZN11unwindstack16DwarfSectionImplImE9FillInCieEPNS_8DwarfCieE"
  },
  {
   "binding" : "weak",
   "name" : "_ZN11unwindstack16DwarfSectionImplImE9FillInFdeEPNS_8DwarfFdeE"
  },
  {
   "binding" : "weak",
   "name" : "_ZN11unwindstack16DwarfSectionImplImE9InsertFdeEPKNS_8DwarfFdeE"
  },
  {
   "binding" : "weak",
   "name" : "_ZN11unwindstack16DwarfSectionImplImEC2EPNS_6MemoryE"
  },
  {
   "name" : "_ZN11unwindstack18LocalUpdatableMaps7ReparseEv"
  },
  {
   "name" : "_ZN11unwindstack18MemoryFileAtOffset4InitERKNSt3__112basic_stringIcNS1_11char_traitsIcEENS1_9allocatorIcEEEEmm"
  },
  {
   "name" : "_ZN11unwindstack18MemoryFileAtOffset4ReadEmPvm"
  },
  {
   "name" : "_ZN11unwindstack18MemoryFileAtOffset5ClearEv"
  },
  {
   "name" : "_ZN11unwindstack18MemoryFileAtOffsetD0Ev"
  },
  {
   "name" : "_ZN11unwindstack18MemoryFileAtOffsetD1Ev"
  },
  {
   "name" : "_ZN11unwindstack18MemoryFileAtOffsetD2Ev"
  },
  {
   "name" : "_ZN11unwindstack18MemoryOfflineParts4ReadEmPvm"
  },
  {
   "name" : "_ZN11unwindstack18MemoryOfflinePartsD0Ev"
  },
  {
   "name" : "_ZN11unwindstack18MemoryOfflinePartsD1Ev"
  },
  {
   "name" : "_ZN11unwindstack18MemoryOfflinePartsD2Ev"
  },
  {
   "binding" : "weak",
   "name" : "_ZN11unwindstack19DwarfEhFrameWithHdrIjE11EhFrameInitEmml"
  },
  {
   "binding" : "weak",
   "name" : "_ZN11unwindstack19DwarfEhFrameWithHdrIjE12GetFdeFromPcEm"
  },
  {
   "binding" : "weak",
   "name" : "_ZN11unwindstack19DwarfEhFrameWithHdrIjE18GetFdeOffsetFromPcEmPm"
  },
  {
   "binding" : "weak",
   "name" : "_ZN11unwindstack19DwarfEhFrameWithHdrIjE19GetFdeInfoFromIndexEm"
  },
  {
   "binding" : "weak",
   "name" : "_ZN11unwindstack19DwarfEhFrameWithHdrIjE4InitEmml"
  },
  {
   "binding" : "weak",
   "name" : "_ZN11unwindstack19DwarfEhFrameWithHdrIjE7GetFdesEPNSt3__16vectorIPKNS_8DwarfFdeENS2_9allocatorIS6_EEEE"
  },
  {
   "binding" : "weak",
   "name" : "_ZN11unwindstack19DwarfEhFrameWithHdrIjEC1EPNS_6MemoryE"
  },
  {
   "binding" : "weak",
   "name" : "_ZN11unwindstack19DwarfEhFrameWithHdrIjEC2EPNS_6MemoryE"
  },
  {
   "binding" : "weak",
   "name" : "_ZN11unwindstack19DwarfEhFrameWithHdrImE11EhFrameInitEmml"
  },
  {
   "binding" : "weak",
   "name" : "_ZN11unwindstack19DwarfEhFrameWithHdrImE12GetFdeFromPcEm"
  },
  {
   "binding" : "weak",
   "name" : "_ZN11unwindstack19DwarfEhFrameWithHdrImE18GetFdeOffsetFromPcEmPm"
  },
  {
   "binding" : "weak",
   "name" : "_ZN11unwindstack19DwarfEhFrameWithHdrImE19GetFdeInfoFromIndexEm"
  },
  {
   "binding" : "weak",
   "name" : "_ZN11unwindstack19DwarfEhFrameWithHdrImE4InitEmml"
  },
  {
   "binding" : "weak",
   "name" : "_ZN11unwindstack19DwarfEhFrameWithHdrImE7GetFdesEPNSt3__16vectorIPKNS_8DwarfFdeENS2_9allocatorIS6_EEEE"
  },
  {
   "binding" : "weak",
   "name" : "_ZN11unwindstack19DwarfEhFrameWithHdrImEC1EPNS_6MemoryE"
  },
  {
   "binding" : "weak",
   "name" : "_ZN11unwindstack19DwarfEhFrameWithHdrImEC2EPNS_6MemoryE"
  },
  {
   "name" : "_ZN11unwindstack19MemoryOfflineBuffer4ReadEmPvm"
  },
  {
   "name" : "_ZN11unwindstack19MemoryOfflineBuffer5ResetEPKhmm"
  },
  {
   "name" : "_ZN11unwindstack19MemoryOfflineBufferC1EPKhmm"
  },
  {
   "name" : "_ZN11unwindstack19MemoryOfflineBufferC2EPKhmm"
  },
  {
   "name" : "_ZN11unwindstack3Elf10GetBuildIDEPNS_6MemoryE"
  },
  {
   "name" : "_ZN11unwindstack3Elf10GetBuildIDEv"
  },
  {
   "name" : "_ZN11unwindstack3Elf10InvalidateEv"
  },
  {
   "name" : "_ZN11unwindstack3Elf10IsValidElfEPNS_6MemoryE"
  },
  {
   "name" : "_ZN11unwindstack3Elf11CacheUnlockEv"
  },
  {
   "name" : "_ZN11unwindstack3Elf11GetLoadBiasEPNS_6MemoryE"
  },
  {
   "name" : "_ZN11unwindstack3Elf12GetLastErrorEPNS_9ErrorDataE"
  },
  {
   "name" : "_ZN11unwindstack3Elf15GetFunctionNameEmPNSt3__112basic_stringIcNS1_11char_traitsIcEENS1_9allocatorIcEEEEPm"
  },
  {
   "name" : "_ZN11unwindstack3Elf16GetLastErrorCodeEv"
  },
  {
   "name" : "_ZN11unwindstack3Elf16InitGnuDebugdataEv"
  },
  {
   "name" : "_ZN11unwindstack3Elf17SetCachingEnabledEb"
  },
  {
   "name" : "_ZN11unwindstack3Elf19GetLastErrorAddressEv"
  },
  {
   "name" : "_ZN11unwindstack3Elf19StepIfSignalHandlerEmPNS_4RegsEPNS_6MemoryE"
  },
  {
   "name" : "_ZN11unwindstack3Elf22CacheAfterCreateMemoryEPNS_7MapInfoE"
  },
  {
   "name" : "_ZN11unwindstack3Elf23GetGlobalVariableOffsetERKNSt3__112basic_stringIcNS1_11char_traitsIcEENS1_9allocatorIcEEEEPm"
  },
  {
   "name" : "_ZN11unwindstack3Elf25CreateInterfaceFromMemoryEPNS_6MemoryE"
  },
  {
   "name" : "_ZN11unwindstack3Elf4InitEv"
  },
  {
   "name" : "_ZN11unwindstack3Elf4StepEmPNS_4RegsEPNS_6MemoryEPb"
  },
  {
   "name" : "_ZN11unwindstack3Elf7GetInfoEPNS_6MemoryEPm"
  },
  {
   "name" : "_ZN11unwindstack3Elf8CacheAddEPNS_7MapInfoE"
  },
  {
   "name" : "_ZN11unwindstack3Elf8CacheGetEPNS_7MapInfoE"
  },
  {
   "name" : "_ZN11unwindstack3Elf8GetRelPcEmPKNS_7MapInfoE"
  },
  {
   "name" : "_ZN11unwindstack3Elf9CacheLockEv"
  },
  {
   "name" : "_ZN11unwindstack3Elf9GetSonameEv"
  },
  {
   "name" : "_ZN11unwindstack3Elf9IsValidPcEm"
  },
  {
   "name" : "_ZN11unwindstack3logEhPKcz"
  },
  {
   "name" : "_ZN11unwindstack4Maps3AddEmmmmRKNSt3__112basic_stringIcNS1_11char_traitsIcEENS1_9allocatorIcEEEEm"
  },
  {
   "name" : "_ZN11unwindstack4Maps4FindEm"
  },
  {
   "name" : "_ZN11unwindstack4Maps4SortEv"
  },
  {
   "name" : "_ZN11unwindstack4Maps5ParseEv"
  },
  {
   "name" : "_ZN11unwindstack4Regs11CurrentArchEv"
  },
  {
   "name" : "_ZN11unwindstack4Regs15CreateFromLocalEv"
  },
  {
   "name" : "_ZN11unwindstack4Regs18CreateFromUcontextENS_8ArchEnumEPv"
  },
  {
   "name" : "_ZN11unwindstack4Regs9RemoteGetEi"
  },
  {
   "name" : "_ZN11unwindstack6Global10SearchableERKNSt3__112basic_stringIcNS1_11char_traitsIcEENS1_9allocatorIcEEEE"
  },
  {
   "name" : "_ZN11unwindstack6Global19FindAndReadVariableEPNS_4MapsEPKc"
  },
  {
   "name" : "_ZN11unwindstack6Global7SetArchENS_8ArchEnumE"
  },
  {
   "name" : "_ZN11unwindstack6GlobalC2ERNSt3__110shared_ptrINS_6MemoryEEE"
  },
  {
   "name" : "_ZN11unwindstack6GlobalC2ERNSt3__110shared_ptrINS_6MemoryEEERNS1_6vectorINS1_12basic_stringIcNS1_11char_traitsIcEENS1_9allocatorIcEEEENSA_ISC_EEEE"
  },
  {
   "name" : "_ZN11unwindstack6Memory10ReadStringEmPNSt3__112basic_stringIcNS1_11char_traitsIcEENS1_9allocatorIcEEEEm"
  },
  {
   "name" : "_ZN11unwindstack6Memory16CreateFileMemoryERKNSt3__112basic_stringIcNS1_11char_traitsIcEENS1_9allocatorIcEEEEm"
  },
  {
   "name" : "_ZN11unwindstack6Memory19CreateOfflineMemoryEPKhmm"
  },
  {
   "name" : "_ZN11unwindstack6Memory19CreateProcessMemoryEi"
  },
  {
   "name" : "_ZN11unwindstack6Memory25CreateProcessMemoryCachedEi"
  },
  {
   "name" : "_ZN11unwindstack6Memory9ReadFullyEmPvm"
  },
  {
   "binding" : "weak",
   "name" : "_ZN11unwindstack7DwarfOpIjE10GetLogInfoEmmPNSt3__16vectorINS2_12basic_stringIcNS2_11char_traitsIcEENS2_9allocatorIcEEEENS7_IS9_EEEE"
  },
  {
   "binding" : "weak",
   "name" : "_ZN11unwindstack7DwarfOpIjE10dex_pc_setEv"
  },
  {
   "binding" : "weak",
   "name" : "_ZN11unwindstack7DwarfOpIjE10last_errorEv"
  },
  {
   "binding" : "weak",
   "name" : "_ZN11unwindstack7DwarfOpIjE11is_registerEv"
  },
  {
   "binding" : "weak",
   "name" : "_ZN11unwindstack7DwarfOpIjE12OperandsSizeEv"
  },
  {
   "binding" : "weak",
   "name" : "_ZN11unwindstack7DwarfOpIjE13LastErrorCodeEv"
  },
  {
   "binding" : "weak",
   "name" : "_ZN11unwindstack7DwarfOpIjE13op_deref_sizeEv"
  },
  {
   "binding" : "weak",
   "name" : "_ZN11unwindstack7DwarfOpIjE13set_regs_infoEPNS_8RegsInfoIjEE"
  },
  {
   "binding" : "weak",
   "name" : "_ZN11unwindstack7DwarfOpIjE14op_plus_uconstEv"
  },
  {
   "binding" : "weak",
   "name" : "_ZN11unwindstack7DwarfOpIjE14regular_memoryEv"
  },
  {
   "binding" : "weak",
   "name" : "_ZN11unwindstack7DwarfOpIjE16LastErrorAddressEv"
  },
  {
   "binding" : "weak",
   "name" : "_ZN11unwindstack7DwarfOpIjE18bool_to_dwarf_boolEb"
  },
  {
   "binding" : "weak",
   "name" : "_ZN11unwindstack7DwarfOpIjE18op_not_implementedEv"
  },
  {
   "binding" : "weak",
   "name" : "_ZN11unwindstack7DwarfOpIjE4EvalEmm"
  },
  {
   "binding" : "weak",
   "name" : "_ZN11unwindstack7DwarfOpIjE5op_eqEv"
  },
  {
   "binding" : "weak",
   "name" : "_ZN11unwindstack7DwarfOpIjE5op_geEv"
  },
  {
   "binding" : "weak",
   "name" : "_ZN11unwindstack7DwarfOpIjE5op_gtEv"
  },
  {
   "binding" : "weak",
   "name" : "_ZN11unwindstack7DwarfOpIjE5op_leEv"
  },
  {
   "binding" : "weak",
   "name" : "_ZN11unwindstack7DwarfOpIjE5op_ltEv"
  },
  {
   "binding" : "weak",
   "name" : "_ZN11unwindstack7DwarfOpIjE5op_neEv"
  },
  {
   "binding" : "weak",
   "name" : "_ZN11unwindstack7DwarfOpIjE5op_orEv"
  },
  {
   "binding" : "weak",
   "name" : "_ZN11unwindstack7DwarfOpIjE6DecodeEv"
  },
  {
   "binding" : "weak",
   "name" : "_ZN11unwindstack7DwarfOpIjE6cur_opEv"
  },
  {
   "binding" : "weak",
   "name" : "_ZN11unwindstack7DwarfOpIjE6op_absEv"
  },
  {
   "binding" : "weak",
   "name" : "_ZN11unwindstack7DwarfOpIjE6op_andEv"
  },
  {
   "binding" : "weak",
   "name" : "_ZN11unwindstack7DwarfOpIjE6op_braEv"
  },
  {
   "binding" : "weak",
   "name" : "_ZN11unwindstack7DwarfOpIjE6op_divEv"
  },
  {
   "binding" : "weak",
   "name" : "_ZN11unwindstack7DwarfOpIjE6op_dupEv"
  },
  {
   "binding" : "weak",
   "name" : "_ZN11unwindstack7DwarfOpIjE6op_litEv"
  },
  {
   "binding" : "weak",
   "name" : "_ZN11unwindstack7DwarfOpIjE6op_modEv"
  },
  {
   "binding" : "weak",
   "name" : "_ZN11unwindstack7DwarfOpIjE6op_mulEv"
  },
  {
   "binding" : "weak",
   "name" : "_ZN11unwindstack7DwarfOpIjE6op_negEv"
  },
  {
   "binding" : "weak",
   "name" : "_ZN11unwindstack7DwarfOpIjE6op_nopEv"
  },
  {
   "binding" : "weak",
   "name" : "_ZN11unwindstack7DwarfOpIjE6op_notEv"
  },
  {
   "binding" : "weak",
   "name" : "_ZN11unwindstack7DwarfOpIjE6op_regEv"
  },
  {
   "binding" : "weak",
   "name" : "_ZN11unwindstack7DwarfOpIjE6op_rotEv"
  },
  {
   "binding" : "weak",
   "name" : "_ZN11unwindstack7DwarfOpIjE6op_shlEv"
  },
  {
   "binding" : "weak",
   "name" : "_ZN11unwindstack7DwarfOpIjE6op_shrEv"
  },
  {
   "binding" : "weak",
   "name" : "_ZN11unwindstack7DwarfOpIjE6op_xorEv"
  },
  {
   "binding" : "weak",
   "name" : "_ZN11unwindstack7DwarfOpIjE7StackAtEm"
  },
  {
   "binding" : "weak",
   "name" : "_ZN11unwindstack7DwarfOpIjE7op_bregEv"
  },
  {
   "binding" : "weak",
   "name" : "_ZN11unwindstack7DwarfOpIjE7op_dropEv"
  },
  {
   "binding" : "weak",
   "name" : "_ZN11unwindstack7DwarfOpIjE7op_overEv"
  },
  {
   "binding" : "weak",
   "name" : "_ZN11unwindstack7DwarfOpIjE7op_pickEv"
  },
  {
   "binding" : "weak",
   "name" : "_ZN11unwindstack7DwarfOpIjE7op_plusEv"
  },
  {
   "binding" : "weak",
   "name" : "_ZN11unwindstack7DwarfOpIjE7op_pushEv"
  },
  {
   "binding" : "weak",
   "name" : "_ZN11unwindstack7DwarfOpIjE7op_regxEv"
  },
  {
   "binding" : "weak",
   "name" : "_ZN11unwindstack7DwarfOpIjE7op_shraEv"
  },
  {
   "binding" : "weak",
   "name" : "_ZN11unwindstack7DwarfOpIjE7op_skipEv"
  },
  {
   "binding" : "weak",
   "name" : "_ZN11unwindstack7DwarfOpIjE7op_swapEv"
  },
  {
   "binding" : "weak",
   "name" : "_ZN11unwindstack7DwarfOpIjE8StackPopEv"
  },
  {
   "binding" : "weak",
   "name" : "_ZN11unwindstack7DwarfOpIjE8op_bregxEv"
  },
  {
   "binding" : "weak",
   "name" : "_ZN11unwindstack7DwarfOpIjE8op_derefEv"
  },
  {
   "binding" : "weak",
   "name" : "_ZN11unwindstack7DwarfOpIjE8op_minusEv"
  },
  {
   "binding" : "weak",
   "name" : "_ZN11unwindstack7DwarfOpIjE9OperandAtEm"
  },
  {
   "binding" : "weak",
   "name" : "_ZN11unwindstack7DwarfOpIjE9StackSizeEv"
  },
  {
   "binding" : "weak",
   "name" : "_ZN11unwindstack7DwarfOpIjEC1EPNS_11DwarfMemoryEPNS_6MemoryE"
  },
  {
   "binding" : "weak",
   "name" : "_ZN11unwindstack7DwarfOpIjEC2EPNS_11DwarfMemoryEPNS_6MemoryE"
  },
  {
   "binding" : "weak",
   "name" : "_ZN11unwindstack7DwarfOpImE10GetLogInfoEmmPNSt3__16vectorINS2_12basic_stringIcNS2_11char_traitsIcEENS2_9allocatorIcEEEENS7_IS9_EEEE"
  },
  {
   "binding" : "weak",
   "name" : "_ZN11unwindstack7DwarfOpImE10dex_pc_setEv"
  },
  {
   "binding" : "weak",
   "name" : "_ZN11unwindstack7DwarfOpImE10last_errorEv"
  },
  {
   "binding" : "weak",
   "name" : "_ZN11unwindstack7DwarfOpImE11is_registerEv"
  },
  {
   "binding" : "weak",
   "name" : "_ZN11unwindstack7DwarfOpImE12OperandsSizeEv"
  },
  {
   "binding" : "weak",
   "name" : "_ZN11unwindstack7DwarfOpImE13LastErrorCodeEv"
  },
  {
   "binding" : "weak",
   "name" : "_ZN11unwindstack7DwarfOpImE13op_deref_sizeEv"
  },
  {
   "binding" : "weak",
   "name" : "_ZN11unwindstack7DwarfOpImE13set_regs_infoEPNS_8RegsInfoImEE"
  },
  {
   "binding" : "weak",
   "name" : "_ZN11unwindstack7DwarfOpImE14op_plus_uconstEv"
  },
  {
   "binding" : "weak",
   "name" : "_ZN11unwindstack7DwarfOpImE14regular_memoryEv"
  },
  {
   "binding" : "weak",
   "name" : "_ZN11unwindstack7DwarfOpImE16LastErrorAddressEv"
  },
  {
   "binding" : "weak",
   "name" : "_ZN11unwindstack7DwarfOpImE18bool_to_dwarf_boolEb"
  },
  {
   "binding" : "weak",
   "name" : "_ZN11unwindstack7DwarfOpImE18op_not_implementedEv"
  },
  {
   "binding" : "weak",
   "name" : "_ZN11unwindstack7DwarfOpImE4EvalEmm"
  },
  {
   "binding" : "weak",
   "name" : "_ZN11unwindstack7DwarfOpImE5op_eqEv"
  },
  {
   "binding" : "weak",
   "name" : "_ZN11unwindstack7DwarfOpImE5op_geEv"
  },
  {
   "binding" : "weak",
   "name" : "_ZN11unwindstack7DwarfOpImE5op_gtEv"
  },
  {
   "binding" : "weak",
   "name" : "_ZN11unwindstack7DwarfOpImE5op_leEv"
  },
  {
   "binding" : "weak",
   "name" : "_ZN11unwindstack7DwarfOpImE5op_ltEv"
  },
  {
   "binding" : "weak",
   "name" : "_ZN11unwindstack7DwarfOpImE5op_neEv"
  },
  {
   "binding" : "weak",
   "name" : "_ZN11unwindstack7DwarfOpImE5op_orEv"
  },
  {
   "binding" : "weak",
   "name" : "_ZN11unwindstack7DwarfOpImE6DecodeEv"
  },
  {
   "binding" : "weak",
   "name" : "_ZN11unwindstack7DwarfOpImE6cur_opEv"
  },
  {
   "binding" : "weak",
   "name" : "_ZN11unwindstack7DwarfOpImE6op_absEv"
  },
  {
   "binding" : "weak",
   "name" : "_ZN11unwindstack7DwarfOpImE6op_andEv"
  },
  {
   "binding" : "weak",
   "name" : "_ZN11unwindstack7DwarfOpImE6op_braEv"
  },
  {
   "binding" : "weak",
   "name" : "_ZN11unwindstack7DwarfOpImE6op_divEv"
  },
  {
   "binding" : "weak",
   "name" : "_ZN11unwindstack7DwarfOpImE6op_dupEv"
  },
  {
   "binding" : "weak",
   "name" : "_ZN11unwindstack7DwarfOpImE6op_litEv"
  },
  {
   "binding" : "weak",
   "name" : "_ZN11unwindstack7DwarfOpImE6op_modEv"
  },
  {
   "binding" : "weak",
   "name" : "_ZN11unwindstack7DwarfOpImE6op_mulEv"
  },
  {
   "binding" : "weak",
   "name" : "_ZN11unwindstack7DwarfOpImE6op_negEv"
  },
  {
   "binding" : "weak",
   "name" : "_ZN11unwindstack7DwarfOpImE6op_nopEv"
  },
  {
   "binding" : "weak",
   "name" : "_ZN11unwindstack7DwarfOpImE6op_notEv"
  },
  {
   "binding" : "weak",
   "name" : "_ZN11unwindstack7DwarfOpImE6op_regEv"
  },
  {
   "binding" : "weak",
   "name" : "_ZN11unwindstack7DwarfOpImE6op_rotEv"
  },
  {
   "binding" : "weak",
   "name" : "_ZN11unwindstack7DwarfOpImE6op_shlEv"
  },
  {
   "binding" : "weak",
   "name" : "_ZN11unwindstack7DwarfOpImE6op_shrEv"
  },
  {
   "binding" : "weak",
   "name" : "_ZN11unwindstack7DwarfOpImE6op_xorEv"
  },
  {
   "binding" : "weak",
   "name" : "_ZN11unwindstack7DwarfOpImE7StackAtEm"
  },
  {
   "binding" : "weak",
   "name" : "_ZN11unwindstack7DwarfOpImE7op_bregEv"
  },
  {
   "binding" : "weak",
   "name" : "_ZN11unwindstack7DwarfOpImE7op_dropEv"
  },
  {
   "binding" : "weak",
   "name" : "_ZN11unwindstack7DwarfOpImE7op_overEv"
  },
  {
   "binding" : "weak",
   "name" : "_ZN11unwindstack7DwarfOpImE7op_pickEv"
  },
  {
   "binding" : "weak",
   "name" : "_ZN11unwindstack7DwarfOpImE7op_plusEv"
  },
  {
   "binding" : "weak",
   "name" : "_ZN11unwindstack7DwarfOpImE7op_pushEv"
  },
  {
   "binding" : "weak",
   "name" : "_ZN11unwindstack7DwarfOpImE7op_regxEv"
  },
  {
   "binding" : "weak",
   "name" : "_ZN11unwindstack7DwarfOpImE7op_shraEv"
  },
  {
   "binding" : "weak",
   "name" : "_ZN11unwindstack7DwarfOpImE7op_skipEv"
  },
  {
   "binding" : "weak",
   "name" : "_ZN11unwindstack7DwarfOpImE7op_swapEv"
  },
  {
   "binding" : "weak",
   "name" : "_ZN11unwindstack7DwarfOpImE8StackPopEv"
  },
  {
   "binding" : "weak",
   "name" : "_ZN11unwindstack7DwarfOpImE8op_bregxEv"
  },
  {
   "binding" : "weak",
   "name" : "_ZN11unwindstack7DwarfOpImE8op_derefEv"
  },
  {
   "binding" : "weak",
   "name" : "_ZN11unwindstack7DwarfOpImE8op_minusEv"
  },
  {
   "binding" : "weak",
   "name" : "_ZN11unwindstack7DwarfOpImE9OperandAtEm"
  },
  {
   "binding" : "weak",
   "name" : "_ZN11unwindstack7DwarfOpImE9StackSizeEv"
  },
  {
   "binding" : "weak",
   "name" : "_ZN11unwindstack7DwarfOpImEC1EPNS_11DwarfMemoryEPNS_6MemoryE"
  },
  {
   "binding" : "weak",
   "name" : "_ZN11unwindstack7DwarfOpImEC2EPNS_11DwarfMemoryEPNS_6MemoryE"
  },
  {
   "name" : "_ZN11unwindstack7MapInfo10GetBuildIDEv"
  },
  {
   "name" : "_ZN11unwindstack7MapInfo11GetLoadBiasERKNSt3__110shared_ptrINS_6MemoryEEE"
  },
  {
   "name" : "_ZN11unwindstack7MapInfo12CreateMemoryERKNSt3__110shared_ptrINS_6MemoryEEE"
  },
  {
   "name" : "_ZN11unwindstack7MapInfo13GetFileMemoryEv"
  },
  {
   "name" : "_ZN11unwindstack7MapInfo15GetFunctionNameEmPNSt3__112basic_stringIcNS1_11char_traitsIcEENS1_9allocatorIcEEEEPm"
  },
  {
   "name" : "_ZN11unwindstack7MapInfo19GetPrintableBuildIDEv"
  },
  {
   "name" : "_ZN11unwindstack7MapInfo37InitFileMemoryFromPreviousReadOnlyMapEPNS_18MemoryFileAtOffsetE"
  },
  {
   "name" : "_ZN11unwindstack7MapInfo6GetElfERKNSt3__110shared_ptrINS_6MemoryEEENS_8ArchEnumE"
  },
  {
   "name" : "_ZN11unwindstack7MapInfoD1Ev"
  },
  {
   "name" : "_ZN11unwindstack7MapInfoD2Ev"
  },
  {
   "name" : "_ZN11unwindstack7RegsArm15GetPcAdjustmentEmPNS_3ElfE"
  },
  {
   "name" : "_ZN11unwindstack7RegsArm16IterateRegistersENSt3__18functionIFvPKcmEEE"
  },
  {
   "name" : "_ZN11unwindstack7RegsArm18CreateFromUcontextEPv"
  },
  {
   "name" : "_ZN11unwindstack7RegsArm19StepIfSignalHandlerEmPNS_3ElfEPNS_6MemoryE"
  },
  {
   "name" : "_ZN11unwindstack7RegsArm22SetPcFromReturnAddressEPNS_6MemoryE"
  },
  {
   "name" : "_ZN11unwindstack7RegsArm2pcEv"
  },
  {
   "name" : "_ZN11unwindstack7RegsArm2spEv"
  },
  {
   "name" : "_ZN11unwindstack7RegsArm4ArchEv"
  },
  {
   "name" : "_ZN11unwindstack7RegsArm4ReadEPv"
  },
  {
   "name" : "_ZN11unwindstack7RegsArm5CloneEv"
  },
  {
   "name" : "_ZN11unwindstack7RegsArm6set_pcEm"
  },
  {
   "name" : "_ZN11unwindstack7RegsArm6set_spEm"
  },
  {
   "name" : "_ZN11unwindstack7RegsArmC1Ev"
  },
  {
   "name" : "_ZN11unwindstack7RegsArmC2Ev"
  },
  {
   "name" : "_ZN11unwindstack7RegsX8615GetPcAdjustmentEmPNS_3ElfE"
  },
  {
   "name" : "_ZN11unwindstack7RegsX8615SetFromUcontextEPNS_14x86_ucontext_tE"
  },
  {
   "name" : "_ZN11unwindstack7RegsX8616IterateRegistersENSt3__18functionIFvPKcmEEE"
  },
  {
   "name" : "_ZN11unwindstack7RegsX8618CreateFromUcontextEPv"
  },
  {
   "name" : "_ZN11unwindstack7RegsX8619StepIfSignalHandlerEmPNS_3ElfEPNS_6MemoryE"
  },
  {
   "name" : "_ZN11unwindstack7RegsX8622SetPcFromReturnAddressEPNS_6MemoryE"
  },
  {
   "name" : "_ZN11unwindstack7RegsX862pcEv"
  },
  {
   "name" : "_ZN11unwindstack7RegsX862spEv"
  },
  {
   "name" : "_ZN11unwindstack7RegsX864ArchEv"
  },
  {
   "name" : "_ZN11unwindstack7RegsX864ReadEPv"
  },
  {
   "name" : "_ZN11unwindstack7RegsX865CloneEv"
  },
  {
   "name" : "_ZN11unwindstack7RegsX866set_pcEm"
  },
  {
   "name" : "_ZN11unwindstack7RegsX866set_spEm"
  },
  {
   "name" : "_ZN11unwindstack7RegsX86C1Ev"
  },
  {
   "name" : "_ZN11unwindstack7RegsX86C2Ev"
  },
  {
   "name" : "_ZN11unwindstack7Symbols16GetInfoFromCacheEm"
  },
  {
   "binding" : "weak",
   "name" : "_ZN11unwindstack7Symbols7GetNameI9elf32_symEEbmPNS_6MemoryEPNSt3__112basic_stringIcNS5_11char_traitsIcEENS5_9allocatorIcEEEEPm"
  },
  {
   "binding" : "weak",
   "name" : "_ZN11unwindstack7Symbols7GetNameI9elf64_symEEbmPNS_6MemoryEPNSt3__112basic_stringIcNS5_11char_traitsIcEENS5_9allocatorIcEEEEPm"
  },
  {
   "binding" : "weak",
   "name" : "_ZN11unwindstack7Symbols9GetGlobalI9elf32_symEEbPNS_6MemoryERKNSt3__112basic_stringIcNS5_11char_traitsIcEENS5_9allocatorIcEEEEPm"
  },
  {
   "binding" : "weak",
   "name" : "_ZN11unwindstack7Symbols9GetGlobalI9elf64_symEEbPNS_6MemoryERKNSt3__112basic_stringIcNS5_11char_traitsIcEENS5_9allocatorIcEEEEPm"
  },
  {
   "name" : "_ZN11unwindstack7SymbolsC1Emmmmm"
  },
  {
   "name" : "_ZN11unwindstack7SymbolsC2Emmmmm"
  },
  {
   "name" : "_ZN11unwindstack8ArmExidx10LogRawDataEv"
  },
  {
   "name" : "_ZN11unwindstack8ArmExidx16ExtractEntryDataEj"
  },
  {
   "name" : "_ZN11unwindstack8ArmExidx4EvalEv"
  },
  {
   "name" : "_ZN11unwindstack8ArmExidx6DecodeEv"
  },
  {
   "name" : "_ZN11unwindstack8ArmExidx8LogByRegEv"
  },
  {
   "name" : "_ZN11unwindstack8DexFiles10GetDexFileEmPNS_7MapInfoE"
  },
  {
   "name" : "_ZN11unwindstack8DexFiles11ProcessArchEv"
  },
  {
   "name" : "_ZN11unwindstack8DexFiles11ReadEntry32Ev"
  },
  {
   "name" : "_ZN11unwindstack8DexFiles11ReadEntry64Ev"
  },
  {
   "name" : "_ZN11unwindstack8DexFiles14ReadEntryPtr32Em"
  },
  {
   "name" : "_ZN11unwindstack8DexFiles14ReadEntryPtr64Em"
  },
  {
   "name" : "_ZN11unwindstack8DexFiles16ReadVariableDataEm"
  },
  {
   "name" : "_ZN11unwindstack8DexFiles20GetMethodInformationEPNS_4MapsEPNS_7MapInfoEmPNSt3__112basic_stringIcNS5_11char_traitsIcEENS5_9allocatorIcEEEEPm"
  },
  {
   "name" : "_ZN11unwindstack8DexFiles4InitEPNS_4MapsE"
  },
  {
   "name" : "_ZN11unwindstack8DexFiles7GetAddrEmPm"
  },
  {
   "name" : "_ZN11unwindstack8DexFilesC1ERNSt3__110shared_ptrINS_6MemoryEEE"
  },
  {
   "name" : "_ZN11unwindstack8DexFilesC1ERNSt3__110shared_ptrINS_6MemoryEEERNS1_6vectorINS1_12basic_stringIcNS1_11char_traitsIcEENS1_9allocatorIcEEEENSA_ISC_EEEE"
  },
  {
   "name" : "_ZN11unwindstack8DexFilesC2ERNSt3__110shared_ptrINS_6MemoryEEE"
  },
  {
   "name" : "_ZN11unwindstack8DexFilesC2ERNSt3__110shared_ptrINS_6MemoryEEERNS1_6vectorINS1_12basic_stringIcNS1_11char_traitsIcEENS1_9allocatorIcEEEENSA_ISC_EEEE"
  },
  {
   "name" : "_ZN11unwindstack8DexFilesD0Ev"
  },
  {
   "name" : "_ZN11unwindstack8DexFilesD1Ev"
  },
  {
   "name" : "_ZN11unwindstack8DexFilesD2Ev"
  },
  {
   "binding" : "weak",
   "name" : "_ZN11unwindstack8DwarfCfaIjE10cfa_offsetEPNS_14DwarfLocationsE"
  },
  {
   "binding" : "weak",
   "name" : "_ZN11unwindstack8DwarfCfaIjE10last_errorEv"
  },
  {
   "binding" : "weak",
   "name" : "_ZN11unwindstack8DwarfCfaIjE11cfa_def_cfaEPNS_14DwarfLocationsE"
  },
  {
   "binding" : "weak",
   "name" : "_ZN11unwindstack8DwarfCfaIjE11cfa_restoreEPNS_14DwarfLocationsE"
  },
  {
   "binding" : "weak",
   "name" : "_ZN11unwindstack8DwarfCfaIjE11cfa_set_locEPNS_14DwarfLocationsE"
  },
  {
   "binding" : "weak",
   "name" : "_ZN11unwindstack8DwarfCfaIjE12cfa_registerEPNS_14DwarfLocationsE"
  },
  {
   "binding" : "weak",
   "name" : "_ZN11unwindstack8DwarfCfaIjE13LastErrorCodeEv"
  },
  {
   "binding" : "weak",
   "name" : "_ZN11unwindstack8DwarfCfaIjE13cfa_undefinedEPNS_14DwarfLocationsE"
  },
  {
   "binding" : "weak",
   "name" : "_ZN11unwindstack8DwarfCfaIjE14LogInstructionEjmhPm"
  },
  {
   "binding" : "weak",
   "name" : "_ZN11unwindstack8DwarfCfaIjE14cfa_def_cfa_sfEPNS_14DwarfLocationsE"
  },
  {
   "binding" : "weak",
   "name" : "_ZN11unwindstack8DwarfCfaIjE14cfa_expressionEPNS_14DwarfLocationsE"
  },
  {
   "binding" : "weak",
   "name" : "_ZN11unwindstack8DwarfCfaIjE14cfa_same_valueEPNS_14DwarfLocationsE"
  },
  {
   "binding" : "weak",
   "name" : "_ZN11unwindstack8DwarfCfaIjE14cfa_val_offsetEPNS_14DwarfLocationsE"
  },
  {
   "binding" : "weak",
   "name" : "_ZN11unwindstack8DwarfCfaIjE15GetLocationInfoEmmmPNS_14DwarfLocationsE"
  },
  {
   "binding" : "weak",
   "name" : "_ZN11unwindstack8DwarfCfaIjE15cfa_advance_locEPNS_14DwarfLocationsE"
  },
  {
   "binding" : "weak",
   "name" : "_ZN11unwindstack8DwarfCfaIjE16GetOperandStringEhmPm"
  },
  {
   "binding" : "weak",
   "name" : "_ZN11unwindstack8DwarfCfaIjE16LastErrorAddressEv"
  },
  {
   "binding" : "weak",
   "name" : "_ZN11unwindstack8DwarfCfaIjE16set_cie_loc_regsEPKNS_14DwarfLocationsE"
  },
  {
   "binding" : "weak",
   "name" : "_ZN11unwindstack8DwarfCfaIjE17cfa_restore_stateEPNS_14DwarfLocationsE"
  },
  {
   "binding" : "weak",
   "name" : "_ZN11unwindstack8DwarfCfaIjE17cfa_val_offset_sfEPNS_14DwarfLocationsE"
  },
  {
   "binding" : "weak",
   "name" : "_ZN11unwindstack8DwarfCfaIjE18cfa_def_cfa_offsetEPNS_14DwarfLocationsE"
  },
  {
   "binding" : "weak",
   "name" : "_ZN11unwindstack8DwarfCfaIjE18cfa_remember_stateEPNS_14DwarfLocationsE"
  },
  {
   "binding" : "weak",
   "name" : "_ZN11unwindstack8DwarfCfaIjE18cfa_val_expressionEPNS_14DwarfLocationsE"
  },
  {
   "binding" : "weak",
   "name" : "_ZN11unwindstack8DwarfCfaIjE20cfa_def_cfa_registerEPNS_14DwarfLocationsE"
  },
  {
   "binding" : "weak",
   "name" : "_ZN11unwindstack8DwarfCfaIjE21cfa_def_cfa_offset_sfEPNS_14DwarfLocationsE"
  },
  {
   "binding" : "weak",
   "name" : "_ZN11unwindstack8DwarfCfaIjE22cfa_def_cfa_expressionEPNS_14DwarfLocationsE"
  },
  {
   "binding" : "weak",
   "name" : "_ZN11unwindstack8DwarfCfaIjE22cfa_offset_extended_sfEPNS_14DwarfLocationsE"
  },
  {
   "binding" : "weak",
   "name" : "_ZN11unwindstack8DwarfCfaIjE23LogOffsetRegisterStringEjmh"
  },
  {
   "binding" : "weak",
   "name" : "_ZN11unwindstack8DwarfCfaIjE32cfa_gnu_negative_offset_extendedEPNS_14DwarfLocationsE"
  },
  {
   "binding" : "weak",
   "name" : "_ZN11unwindstack8DwarfCfaIjE3LogEjmmm"
  },
  {
   "binding" : "weak",
   "name" : "_ZN11unwindstack8DwarfCfaIjE6cur_pcEv"
  },
  {
   "binding" : "weak",
   "name" : "_ZN11unwindstack8DwarfCfaIjE7cfa_nopEPNS_14DwarfLocationsE"
  },
  {
   "binding" : "weak",
   "name" : "_ZN11unwindstack8DwarfCfaIjEC1EPNS_11DwarfMemoryEPKNS_8DwarfFdeE"
  },
  {
   "binding" : "weak",
   "name" : "_ZN11unwindstack8DwarfCfaIjEC2EPNS_11DwarfMemoryEPKNS_8DwarfFdeE"
  },
  {
   "binding" : "weak",
   "name" : "_ZN11unwindstack8DwarfCfaImE10cfa_offsetEPNS_14DwarfLocationsE"
  },
  {
   "binding" : "weak",
   "name" : "_ZN11unwindstack8DwarfCfaImE10last_errorEv"
  },
  {
   "binding" : "weak",
   "name" : "_ZN11unwindstack8DwarfCfaImE11cfa_def_cfaEPNS_14DwarfLocationsE"
  },
  {
   "binding" : "weak",
   "name" : "_ZN11unwindstack8DwarfCfaImE11cfa_restoreEPNS_14DwarfLocationsE"
  },
  {
   "binding" : "weak",
   "name" : "_ZN11unwindstack8DwarfCfaImE11cfa_set_locEPNS_14DwarfLocationsE"
  },
  {
   "binding" : "weak",
   "name" : "_ZN11unwindstack8DwarfCfaImE12cfa_registerEPNS_14DwarfLocationsE"
  },
  {
   "binding" : "weak",
   "name" : "_ZN11unwindstack8DwarfCfaImE13LastErrorCodeEv"
  },
  {
   "binding" : "weak",
   "name" : "_ZN11unwindstack8DwarfCfaImE13cfa_undefinedEPNS_14DwarfLocationsE"
  },
  {
   "binding" : "weak",
   "name" : "_ZN11unwindstack8DwarfCfaImE14LogInstructionEjmhPm"
  },
  {
   "binding" : "weak",
   "name" : "_ZN11unwindstack8DwarfCfaImE14cfa_def_cfa_sfEPNS_14DwarfLocationsE"
  },
  {
   "binding" : "weak",
   "name" : "_ZN11unwindstack8DwarfCfaImE14cfa_expressionEPNS_14DwarfLocationsE"
  },
  {
   "binding" : "weak",
   "name" : "_ZN11unwindstack8DwarfCfaImE14cfa_same_valueEPNS_14DwarfLocationsE"
  },
  {
   "binding" : "weak",
   "name" : "_ZN11unwindstack8DwarfCfaImE14cfa_val_offsetEPNS_14DwarfLocationsE"
  },
  {
   "binding" : "weak",
   "name" : "_ZN11unwindstack8DwarfCfaImE15GetLocationInfoEmmmPNS_14DwarfLocationsE"
  },
  {
   "binding" : "weak",
   "name" : "_ZN11unwindstack8DwarfCfaImE15cfa_advance_locEPNS_14DwarfLocationsE"
  },
  {
   "binding" : "weak",
   "name" : "_ZN11unwindstack8DwarfCfaImE16GetOperandStringEhmPm"
  },
  {
   "binding" : "weak",
   "name" : "_ZN11unwindstack8DwarfCfaImE16LastErrorAddressEv"
  },
  {
   "binding" : "weak",
   "name" : "_ZN11unwindstack8DwarfCfaImE16set_cie_loc_regsEPKNS_14DwarfLocationsE"
  },
  {
   "binding" : "weak",
   "name" : "_ZN11unwindstack8DwarfCfaImE17cfa_restore_stateEPNS_14DwarfLocationsE"
  },
  {
   "binding" : "weak",
   "name" : "_ZN11unwindstack8DwarfCfaImE17cfa_val_offset_sfEPNS_14DwarfLocationsE"
  },
  {
   "binding" : "weak",
   "name" : "_ZN11unwindstack8DwarfCfaImE18cfa_def_cfa_offsetEPNS_14DwarfLocationsE"
  },
  {
   "binding" : "weak",
   "name" : "_ZN11unwindstack8DwarfCfaImE18cfa_remember_stateEPNS_14DwarfLocationsE"
  },
  {
   "binding" : "weak",
   "name" : "_ZN11unwindstack8DwarfCfaImE18cfa_val_expressionEPNS_14DwarfLocationsE"
  },
  {
   "binding" : "weak",
   "name" : "_ZN11unwindstack8DwarfCfaImE20cfa_def_cfa_registerEPNS_14DwarfLocationsE"
  },
  {
   "binding" : "weak",
   "name" : "_ZN11unwindstack8DwarfCfaImE21cfa_def_cfa_offset_sfEPNS_14DwarfLocationsE"
  },
  {
   "binding" : "weak",
   "name" : "_ZN11unwindstack8DwarfCfaImE22cfa_def_cfa_expressionEPNS_14DwarfLocationsE"
  },
  {
   "binding" : "weak",
   "name" : "_ZN11unwindstack8DwarfCfaImE22cfa_offset_extended_sfEPNS_14DwarfLocationsE"
  },
  {
   "binding" : "weak",
   "name" : "_ZN11unwindstack8DwarfCfaImE23LogOffsetRegisterStringEjmh"
  },
  {
   "binding" : "weak",
   "name" : "_ZN11unwindstack8DwarfCfaImE32cfa_gnu_negative_offset_extendedEPNS_14DwarfLocationsE"
  },
  {
   "binding" : "weak",
   "name" : "_ZN11unwindstack8DwarfCfaImE3LogEjmmm"
  },
  {
   "binding" : "weak",
   "name" : "_ZN11unwindstack8DwarfCfaImE6cur_pcEv"
  },
  {
   "binding" : "weak",
   "name" : "_ZN11unwindstack8DwarfCfaImE7cfa_nopEPNS_14DwarfLocationsE"
  },
  {
   "binding" : "weak",
   "name" : "_ZN11unwindstack8DwarfCfaImEC1EPNS_11DwarfMemoryEPKNS_8DwarfFdeE"
  },
  {
   "binding" : "weak",
   "name" : "_ZN11unwindstack8DwarfCfaImEC2EPNS_11DwarfMemoryEPKNS_8DwarfFdeE"
  },
  {
   "name" : "_ZN11unwindstack8JitDebug11ProcessArchEv"
  },
  {
   "name" : "_ZN11unwindstack8JitDebug11ReadEntry64EPmS1_"
  },
  {
   "name" : "_ZN11unwindstack8JitDebug14ReadEntry32PadEPmS1_"
  },
  {
   "name" : "_ZN11unwindstack8JitDebug15ReadEntry32PackEPmS1_"
  },
  {
   "name" : "_ZN11unwindstack8JitDebug16ReadDescriptor32Em"
  },
  {
   "name" : "_ZN11unwindstack8JitDebug16ReadDescriptor64Em"
  },
  {
   "name" : "_ZN11unwindstack8JitDebug16ReadVariableDataEm"
  },
  {
   "name" : "_ZN11unwindstack8JitDebug4InitEPNS_4MapsE"
  },
  {
   "name" : "_ZN11unwindstack8JitDebug6GetElfEPNS_4MapsEm"
  },
  {
   "name" : "_ZN11unwindstack8JitDebugC1ERNSt3__110shared_ptrINS_6MemoryEEE"
  },
  {
   "name" : "_ZN11unwindstack8JitDebugC1ERNSt3__110shared_ptrINS_6MemoryEEERNS1_6vectorINS1_12basic_stringIcNS1_11char_traitsIcEENS1_9allocatorIcEEEENSA_ISC_EEEE"
  },
  {
   "name" : "_ZN11unwindstack8JitDebugC2ERNSt3__110shared_ptrINS_6MemoryEEE"
  },
  {
   "name" : "_ZN11unwindstack8JitDebugC2ERNSt3__110shared_ptrINS_6MemoryEEERNS1_6vectorINS1_12basic_stringIcNS1_11char_traitsIcEENS1_9allocatorIcEEEENSA_ISC_EEEE"
  },
  {
   "name" : "_ZN11unwindstack8JitDebugD0Ev"
  },
  {
   "name" : "_ZN11unwindstack8JitDebugD1Ev"
  },
  {
   "name" : "_ZN11unwindstack8JitDebugD2Ev"
  },
  {
   "name" : "_ZN11unwindstack8RegsMips15GetPcAdjustmentEmPNS_3ElfE"
  },
  {
   "name" : "_ZN11unwindstack8RegsMips16IterateRegistersENSt3__18functionIFvPKcmEEE"
  },
  {
   "name" : "_ZN11unwindstack8RegsMips18CreateFromUcontextEPv"
  },
  {
   "name" : "_ZN11unwindstack8RegsMips19StepIfSignalHandlerEmPNS_3ElfEPNS_6MemoryE"
  },
  {
   "name" : "_ZN11unwindstack8RegsMips22SetPcFromReturnAddressEPNS_6MemoryE"
  },
  {
   "name" : "_ZN11unwindstack8RegsMips2pcEv"
  },
  {
   "name" : "_ZN11unwindstack8RegsMips2spEv"
  },
  {
   "name" : "_ZN11unwindstack8RegsMips4ArchEv"
  },
  {
   "name" : "_ZN11unwindstack8RegsMips4ReadEPv"
  },
  {
   "name" : "_ZN11unwindstack8RegsMips5CloneEv"
  },
  {
   "name" : "_ZN11unwindstack8RegsMips6set_pcEm"
  },
  {
   "name" : "_ZN11unwindstack8RegsMips6set_spEm"
  },
  {
   "name" : "_ZN11unwindstack8RegsMipsC1Ev"
  },
  {
   "name" : "_ZN11unwindstack8RegsMipsC2Ev"
  },
  {
   "name" : "_ZN11unwindstack8Unwinder11FillInFrameEPNS_7MapInfoEPNS_3ElfEmm"
  },
  {
   "name" : "_ZN11unwindstack8Unwinder11SetDexFilesEPNS_8DexFilesENS_8ArchEnumE"
  },
  {
   "name" : "_ZN11unwindstack8Unwinder11SetJitDebugEPNS_8JitDebugENS_8ArchEnumE"
  },
  {
   "name" : "_ZN11unwindstack8Unwinder14FillInDexFrameEv"
  },
  {
   "name" : "_ZN11unwindstack8Unwinder6UnwindEPKNSt3__16vectorINS1_12basic_stringIcNS1_11char_traitsIcEENS1_9allocatorIcEEEENS6_IS8_EEEESC_"
  },
  {
   "name" : "_ZN11unwindstack9RegsArm6415GetPcAdjustmentEmPNS_3ElfE"
  },
  {
   "name" : "_ZN11unwindstack9RegsArm6416IterateRegistersENSt3__18functionIFvPKcmEEE"
  },
  {
   "name" : "_ZN11unwindstack9RegsArm6418CreateFromUcontextEPv"
  },
  {
   "name" : "_ZN11unwindstack9RegsArm6419StepIfSignalHandlerEmPNS_3ElfEPNS_6MemoryE"
  },
  {
   "name" : "_ZN11unwindstack9RegsArm6422SetPcFromReturnAddressEPNS_6MemoryE"
  },
  {
   "name" : "_ZN11unwindstack9RegsArm642pcEv"
  },
  {
   "name" : "_ZN11unwindstack9RegsArm642spEv"
  },
  {
   "name" : "_ZN11unwindstack9RegsArm644ArchEv"
  },
  {
   "name" : "_ZN11unwindstack9RegsArm644ReadEPv"
  },
  {
   "name" : "_ZN11unwindstack9RegsArm645CloneEv"
  },
  {
   "name" : "_ZN11unwindstack9RegsArm646set_pcEm"
  },
  {
   "name" : "_ZN11unwindstack9RegsArm646set_spEm"
  },
  {
   "name" : "_ZN11unwindstack9RegsArm64C1Ev"
  },
  {
   "name" : "_ZN11unwindstack9RegsArm64C2Ev"
  },
  {
   "binding" : "weak",
   "name" : "_ZN7android8procinfo18ReadMapFileContentINSt3__18functionIFvmmtmmPKcEEEEEbPcRKT_"
  },
  {
   "name" : "_ZNK11unwindstack10RemoteMaps11GetMapsFileEv"
  },
  {
   "name" : "_ZNK11unwindstack18LocalUpdatableMaps11GetMapsFileEv"
  },
  {
   "name" : "_ZNK11unwindstack8Unwinder11FormatFrameERKNS_9FrameDataE"
  },
  {
   "name" : "_ZNK11unwindstack8Unwinder11FormatFrameEm"
  },
  {
   "binding" : "weak",
   "name" : "_ZNSt3__112__deque_baseIN11unwindstack14DwarfLocationsENS_9allocatorIS2_EEE5clearEv"
  },
  {
   "binding" : "weak",
   "name" : "_ZNSt3__112__hash_tableINS_17__hash_value_typeINS_12basic_stringIcNS_11char_traitsIcEENS_9allocatorIcEEEENS_4pairINS_10shared_ptrIN11unwindstack3ElfEEEbEEEENS_22__unordered_map_hasherIS7_SE_NS_4hashIS7_EELb1EEENS_21__unordered_map_equalIS7_SE_NS_8equal_toIS7_EELb1EEENS5_ISE_EEE25__emplace_unique_key_argsIS7_JRKNS_21piecewise_construct_tENS_5tupleIJOS7_EEENST_IJEEEEEENS8_INS_15__hash_iteratorIPNS_11__hash_nodeISE_PvEEEEbEERKT_DpOT0_"
  },
  {
   "binding" : "weak",
   "name" : "_ZNSt3__112__hash_tableINS_17__hash_value_typeINS_12basic_stringIcNS_11char_traitsIcEENS_9allocatorIcEEEENS_4pairINS_10shared_ptrIN11unwindstack3ElfEEEbEEEENS_22__unordered_map_hasherIS7_SE_NS_4hashIS7_EELb1EEENS_21__unordered_map_equalIS7_SE_NS_8equal_toIS7_EELb1EEENS5_ISE_EEE25__emplace_unique_key_argsIS7_JRKNS_21piecewise_construct_tENS_5tupleIJRKS7_EEENST_IJEEEEEENS8_INS_15__hash_iteratorIPNS_11__hash_nodeISE_PvEEEEbEERKT_DpOT0_"
  },
  {
   "binding" : "weak",
   "name" : "_ZNSt3__112__hash_tableINS_17__hash_value_typeINS_12basic_stringIcNS_11char_traitsIcEENS_9allocatorIcEEEENS_4pairINS_10shared_ptrIN11unwindstack3ElfEEEbEEEENS_22__unordered_map_hasherIS7_SE_NS_4hashIS7_EELb1EEENS_21__unordered_map_equalIS7_SE_NS_8equal_toIS7_EELb1EEENS5_ISE_EEE4findIS7_EENS_15__hash_iteratorIPNS_11__hash_nodeISE_PvEEEERKT_"
  },
  {
   "binding" : "weak",
   "name" : "_ZNSt3__112__hash_tableINS_17__hash_value_typeINS_12basic_stringIcNS_11char_traitsIcEENS_9allocatorIcEEEENS_4pairINS_10shared_ptrIN11unwindstack3ElfEEEbEEEENS_22__unordered_map_hasherIS7_SE_NS_4hashIS7_EELb1EEENS_21__unordered_map_equalIS7_SE_NS_8equal_toIS7_EELb1EEENS5_ISE_EEE6rehashEm"
  },
  {
   "binding" : "weak",
   "name" : "_ZNSt3__112__hash_tableINS_17__hash_value_typeINS_12basic_stringIcNS_11char_traitsIcEENS_9allocatorIcEEEENS_4pairINS_10shared_ptrIN11unwindstack3ElfEEEbEEEENS_22__unordered_map_hasherIS7_SE_NS_4hashIS7_EELb1EEENS_21__unordered_map_equalIS7_SE_NS_8equal_toIS7_EELb1EEENS5_ISE_EEE8__rehashEm"
  },
  {
   "binding" : "weak",
   "name" : "_ZNSt3__112__hash_tableINS_17__hash_value_typeINS_12basic_stringIcNS_11char_traitsIcEENS_9allocatorIcEEEENS_4pairINS_10shared_ptrIN11unwindstack3ElfEEEbEEEENS_22__unordered_map_hasherIS7_SE_NS_4hashIS7_EELb1EEENS_21__unordered_map_equalIS7_SE_NS_8equal_toIS7_EELb1EEENS5_ISE_EEED2Ev"
  },
  {
   "binding" : "weak",
   "name" : "_ZNSt3__112__hash_tableINS_17__hash_value_typeIjN11unwindstack13DwarfLocationEEENS_22__unordered_map_hasherIjS4_NS_4hashIjEELb1EEENS_21__unordered_map_equalIjS4_NS_8equal_toIjEELb1EEENS_9allocatorIS4_EEE14__assign_multiINS_21__hash_const_iteratorIPNS_11__hash_nodeIS4_PvEEEEEEvT_SN_"
  },
  {
   "binding" : "weak",
   "name" : "_ZNSt3__112__hash_tableINS_17__hash_value_typeIjN11unwindstack13DwarfLocationEEENS_22__unordered_map_hasherIjS4_NS_4hashIjEELb1EEENS_21__unordered_map_equalIjS4_NS_8equal_toIjEELb1EEENS_9allocatorIS4_EEE14__erase_uniqueIjEEmRKT_"
  },
  {
   "binding" : "weak",
   "name" : "_ZNSt3__112__hash_tableINS_17__hash_value_typeIjN11unwindstack13DwarfLocationEEENS_22__unordered_map_hasherIjS4_NS_4hashIjEELb1EEENS_21__unordered_map_equalIjS4_NS_8equal_toIjEELb1EEENS_9allocatorIS4_EEE25__emplace_unique_key_argsIjJRKNS_21piecewise_construct_tENS_5tupleIJOjEEENSK_IJEEEEEENS_4pairINS_15__hash_iteratorIPNS_11__hash_nodeIS4_PvEEEEbEERKT_DpOT0_"
  },
  {
   "binding" : "weak",
   "name" : "_ZNSt3__112__hash_tableINS_17__hash_value_typeIjN11unwindstack13DwarfLocationEEENS_22__unordered_map_hasherIjS4_NS_4hashIjEELb1EEENS_21__unordered_map_equalIjS4_NS_8equal_toIjEELb1EEENS_9allocatorIS4_EEE25__emplace_unique_key_argsIjJRKNS_21piecewise_construct_tENS_5tupleIJRKjEEENSK_IJEEEEEENS_4pairINS_15__hash_iteratorIPNS_11__hash_nodeIS4_PvEEEEbEERKT_DpOT0_"
  },
  {
   "binding" : "weak",
   "name" : "_ZNSt3__112__hash_tableINS_17__hash_value_typeIjN11unwindstack13DwarfLocationEEENS_22__unordered_map_hasherIjS4_NS_4hashIjEELb1EEENS_21__unordered_map_equalIjS4_NS_8equal_toIjEELb1EEENS_9allocatorIS4_EEE25__emplace_unique_key_argsIjJRKNS_4pairIKjS3_EEEEENSH_INS_15__hash_iteratorIPNS_11__hash_nodeIS4_PvEEEEbEERKT_DpOT0_"
  },
  {
   "binding" : "weak",
   "name" : "_ZNSt3__112__hash_tableINS_17__hash_value_typeIjN11unwindstack13DwarfLocationEEENS_22__unordered_map_hasherIjS4_NS_4hashIjEELb1EEENS_21__unordered_map_equalIjS4_NS_8equal_toIjEELb1EEENS_9allocatorIS4_EEE6rehashEm"
  },
  {
   "binding" : "weak",
   "name" : "_ZNSt3__112__hash_tableINS_17__hash_value_typeIjN11unwindstack13DwarfLocationEEENS_22__unordered_map_hasherIjS4_NS_4hashIjEELb1EEENS_21__unordered_map_equalIjS4_NS_8equal_toIjEELb1EEENS_9allocatorIS4_EEE6removeENS_21__hash_const_iteratorIPNS_11__hash_nodeIS4_PvEEEE"
  },
  {
   "binding" : "weak",
   "name" : "_ZNSt3__112__hash_tableINS_17__hash_value_typeIjN11unwindstack13DwarfLocationEEENS_22__unordered_map_hasherIjS4_NS_4hashIjEELb1EEENS_21__unordered_map_equalIjS4_NS_8equal_toIjEELb1EEENS_9allocatorIS4_EEE8__rehashEm"
  },
  {
   "binding" : "weak",
   "name" : "_ZNSt3__112__hash_tableINS_17__hash_value_typeImA4096_hEENS_22__unordered_map_hasherImS3_NS_4hashImEELb1EEENS_21__unordered_map_equalImS3_NS_8equal_toImEELb1EEENS_9allocatorIS3_EEE14__erase_uniqueImEEmRKT_"
  },
  {
   "binding" : "weak",
   "name" : "_ZNSt3__112__hash_tableINS_17__hash_value_typeImA4096_hEENS_22__unordered_map_hasherImS3_NS_4hashImEELb1EEENS_21__unordered_map_equalImS3_NS_8equal_toImEELb1EEENS_9allocatorIS3_EEE25__emplace_unique_key_argsImJRKNS_21piecewise_construct_tENS_5tupleIJRKmEEENSJ_IJEEEEEENS_4pairINS_15__hash_iteratorIPNS_11__hash_nodeIS3_PvEEEEbEERKT_DpOT0_"
  },
  {
   "binding" : "weak",
   "name" : "_ZNSt3__112__hash_tableINS_17__hash_value_typeImA4096_hEENS_22__unordered_map_hasherImS3_NS_4hashImEELb1EEENS_21__unordered_map_equalImS3_NS_8equal_toImEELb1EEENS_9allocatorIS3_EEE6rehashEm"
  },
  {
   "binding" : "weak",
   "name" : "_ZNSt3__112__hash_tableINS_17__hash_value_typeImA4096_hEENS_22__unordered_map_hasherImS3_NS_4hashImEELb1EEENS_21__unordered_map_equalImS3_NS_8equal_toImEELb1EEENS_9allocatorIS3_EEE6removeENS_21__hash_const_iteratorIPNS_11__hash_nodeIS3_PvEEEE"
  },
  {
   "binding" : "weak",
   "name" : "_ZNSt3__112__hash_tableINS_17__hash_value_typeImA4096_hEENS_22__unordered_map_hasherImS3_NS_4hashImEELb1EEENS_21__unordered_map_equalImS3_NS_8equal_toImEELb1EEENS_9allocatorIS3_EEE8__rehashEm"
  },
  {
   "binding" : "weak",
   "name" : "_ZNSt3__112__hash_tableINS_17__hash_value_typeImN11unwindstack14DwarfLocationsEEENS_22__unordered_map_hasherImS4_NS_4hashImEELb1EEENS_21__unordered_map_equalImS4_NS_8equal_toImEELb1EEENS_9allocatorIS4_EEE25__emplace_unique_key_argsImJRKNS_21piecewise_construct_tENS_5tupleIJRKmEEENSK_IJEEEEEENS_4pairINS_15__hash_iteratorIPNS_11__hash_nodeIS4_PvEEEEbEERKT_DpOT0_"
  },
  {
   "binding" : "weak",
   "name" : "_ZNSt3__112__hash_tableINS_17__hash_value_typeImN11unwindstack14DwarfLocationsEEENS_22__unordered_map_hasherImS4_NS_4hashImEELb1EEENS_21__unordered_map_equalImS4_NS_8equal_toImEELb1EEENS_9allocatorIS4_EEE6rehashEm"
  },
  {
   "binding" : "weak",
   "name" : "_ZNSt3__112__hash_tableINS_17__hash_value_typeImN11unwindstack14DwarfLocationsEEENS_22__unordered_map_hasherImS4_NS_4hashImEELb1EEENS_21__unordered_map_equalImS4_NS_8equal_toImEELb1EEENS_9allocatorIS4_EEE8__rehashEm"
  },
  {
   "binding" : "weak",
   "name" : "_ZNSt3__112__hash_tableINS_17__hash_value_typeImN11unwindstack19DwarfEhFrameWithHdrIjE7FdeInfoEEENS_22__unordered_map_hasherImS6_NS_4hashImEELb1EEENS_21__unordered_map_equalImS6_NS_8equal_toImEELb1EEENS_9allocatorIS6_EEE14__erase_uniqueImEEmRKT_"
  },
  {
   "binding" : "weak",
   "name" : "_ZNSt3__112__hash_tableINS_17__hash_value_typeImN11unwindstack19DwarfEhFrameWithHdrIjE7FdeInfoEEENS_22__unordered_map_hasherImS6_NS_4hashImEELb1EEENS_21__unordered_map_equalImS6_NS_8equal_toImEELb1EEENS_9allocatorIS6_EEE25__emplace_unique_key_argsImJRKNS_21piecewise_construct_tENS_5tupleIJRKmEEENSM_IJEEEEEENS_4pairINS_15__hash_iteratorIPNS_11__hash_nodeIS6_PvEEEEbEERKT_DpOT0_"
  },
  {
   "binding" : "weak",
   "name" : "_ZNSt3__112__hash_tableINS_17__hash_value_typeImN11unwindstack19DwarfEhFrameWithHdrIjE7FdeInfoEEENS_22__unordered_map_hasherImS6_NS_4hashImEELb1EEENS_21__unordered_map_equalImS6_NS_8equal_toImEELb1EEENS_9allocatorIS6_EEE6rehashEm"
  },
  {
   "binding" : "weak",
   "name" : "_ZNSt3__112__hash_tableINS_17__hash_value_typeImN11unwindstack19DwarfEhFrameWithHdrIjE7FdeInfoEEENS_22__unordered_map_hasherImS6_NS_4hashImEELb1EEENS_21__unordered_map_equalImS6_NS_8equal_toImEELb1EEENS_9allocatorIS6_EEE6removeENS_21__hash_const_iteratorIPNS_11__hash_nodeIS6_PvEEEE"
  },
  {
   "binding" : "weak",
   "name" : "_ZNSt3__112__hash_tableINS_17__hash_value_typeImN11unwindstack19DwarfEhFrameWithHdrIjE7FdeInfoEEENS_22__unordered_map_hasherImS6_NS_4hashImEELb1EEENS_21__unordered_map_equalImS6_NS_8equal_toImEELb1EEENS_9allocatorIS6_EEE8__rehashEm"
  },
  {
   "binding" : "weak",
   "name" : "_ZNSt3__112__hash_tableINS_17__hash_value_typeImN11unwindstack19DwarfEhFrameWithHdrImE7FdeInfoEEENS_22__unordered_map_hasherImS6_NS_4hashImEELb1EEENS_21__unordered_map_equalImS6_NS_8equal_toImEELb1EEENS_9allocatorIS6_EEE14__erase_uniqueImEEmRKT_"
  },
  {
   "binding" : "weak",
   "name" : "_ZNSt3__112__hash_tableINS_17__hash_value_typeImN11unwindstack19DwarfEhFrameWithHdrImE7FdeInfoEEENS_22__unordered_map_hasherImS6_NS_4hashImEELb1EEENS_21__unordered_map_equalImS6_NS_8equal_toImEELb1EEENS_9allocatorIS6_EEE25__emplace_unique_key_argsImJRKNS_21piecewise_construct_tENS_5tupleIJRKmEEENSM_IJEEEEEENS_4pairINS_15__hash_iteratorIPNS_11__hash_nodeIS6_PvEEEEbEERKT_DpOT0_"
  },
  {
   "binding" : "weak",
   "name" : "_ZNSt3__112__hash_tableINS_17__hash_value_typeImN11unwindstack19DwarfEhFrameWithHdrImE7FdeInfoEEENS_22__unordered_map_hasherImS6_NS_4hashImEELb1EEENS_21__unordered_map_equalImS6_NS_8equal_toImEELb1EEENS_9allocatorIS6_EEE6rehashEm"
  },
  {
   "binding" : "weak",
   "name" : "_ZNSt3__112__hash_tableINS_17__hash_value_typeImN11unwindstack19DwarfEhFrameWithHdrImE7FdeInfoEEENS_22__unordered_map_hasherImS6_NS_4hashImEELb1EEENS_21__unordered_map_equalImS6_NS_8equal_toImEELb1EEENS_9allocatorIS6_EEE6removeENS_21__hash_const_iteratorIPNS_11__hash_nodeIS6_PvEEEE"
  },
  {
   "binding" : "weak",
   "name" : "_ZNSt3__112__hash_tableINS_17__hash_value_typeImN11unwindstack19DwarfEhFrameWithHdrImE7FdeInfoEEENS_22__unordered_map_hasherImS6_NS_4hashImEELb1EEENS_21__unordered_map_equalImS6_NS_8equal_toImEELb1EEENS_9allocatorIS6_EEE8__rehashEm"
  },
  {
   "binding" : "weak",
   "name" : "_ZNSt3__112__hash_tableINS_17__hash_value_typeImN11unwindstack8DwarfCieEEENS_22__unordered_map_hasherImS4_NS_4hashImEELb1EEENS_21__unordered_map_equalImS4_NS_8equal_toImEELb1EEENS_9allocatorIS4_EEE14__erase_uniqueImEEmRKT_"
  },
  {
   "binding" : "weak",
   "name" : "_ZNSt3__112__hash_tableINS_17__hash_value_typeImN11unwindstack8DwarfCieEEENS_22__unordered_map_hasherImS4_NS_4hashImEELb1EEENS_21__unordered_map_equalImS4_NS_8equal_toImEELb1EEENS_9allocatorIS4_EEE25__emplace_unique_key_argsImJRKNS_21piecewise_construct_tENS_5tupleIJRKmEEENSK_IJEEEEEENS_4pairINS_15__hash_iteratorIPNS_11__hash_nodeIS4_PvEEEEbEERKT_DpOT0_"
  },
  {
   "binding" : "weak",
   "name" : "_ZNSt3__112__hash_tableINS_17__hash_value_typeImN11unwindstack8DwarfCieEEENS_22__unordered_map_hasherImS4_NS_4hashImEELb1EEENS_21__unordered_map_equalImS4_NS_8equal_toImEELb1EEENS_9allocatorIS4_EEE6rehashEm"
  },
  {
   "binding" : "weak",
   "name" : "_ZNSt3__112__hash_tableINS_17__hash_value_typeImN11unwindstack8DwarfCieEEENS_22__unordered_map_hasherImS4_NS_4hashImEELb1EEENS_21__unordered_map_equalImS4_NS_8equal_toImEELb1EEENS_9allocatorIS4_EEE6removeENS_21__hash_const_iteratorIPNS_11__hash_nodeIS4_PvEEEE"
  },
  {
   "binding" : "weak",
   "name" : "_ZNSt3__112__hash_tableINS_17__hash_value_typeImN11unwindstack8DwarfCieEEENS_22__unordered_map_hasherImS4_NS_4hashImEELb1EEENS_21__unordered_map_equalImS4_NS_8equal_toImEELb1EEENS_9allocatorIS4_EEE8__rehashEm"
  },
  {
   "binding" : "weak",
   "name" : "_ZNSt3__112__hash_tableINS_17__hash_value_typeImN11unwindstack8DwarfFdeEEENS_22__unordered_map_hasherImS4_NS_4hashImEELb1EEENS_21__unordered_map_equalImS4_NS_8equal_toImEELb1EEENS_9allocatorIS4_EEE14__erase_uniqueImEEmRKT_"
  },
  {
   "binding" : "weak",
   "name" : "_ZNSt3__112__hash_tableINS_17__hash_value_typeImN11unwindstack8DwarfFdeEEENS_22__unordered_map_hasherImS4_NS_4hashImEELb1EEENS_21__unordered_map_equalImS4_NS_8equal_toImEELb1EEENS_9allocatorIS4_EEE25__emplace_unique_key_argsImJRKNS_21piecewise_construct_tENS_5tupleIJRKmEEENSK_IJEEEEEENS_4pairINS_15__hash_iteratorIPNS_11__hash_nodeIS4_PvEEEEbEERKT_DpOT0_"
  },
  {
   "binding" : "weak",
   "name" : "_ZNSt3__112__hash_tableINS_17__hash_value_typeImN11unwindstack8DwarfFdeEEENS_22__unordered_map_hasherImS4_NS_4hashImEELb1EEENS_21__unordered_map_equalImS4_NS_8equal_toImEELb1EEENS_9allocatorIS4_EEE6rehashEm"
  },
  {
   "binding" : "weak",
   "name" : "_ZNSt3__112__hash_tableINS_17__hash_value_typeImN11unwindstack8DwarfFdeEEENS_22__unordered_map_hasherImS4_NS_4hashImEELb1EEENS_21__unordered_map_equalImS4_NS_8equal_toImEELb1EEENS_9allocatorIS4_EEE6removeENS_21__hash_const_iteratorIPNS_11__hash_nodeIS4_PvEEEE"
  },
  {
   "binding" : "weak",
   "name" : "_ZNSt3__112__hash_tableINS_17__hash_value_typeImN11unwindstack8DwarfFdeEEENS_22__unordered_map_hasherImS4_NS_4hashImEELb1EEENS_21__unordered_map_equalImS4_NS_8equal_toImEELb1EEENS_9allocatorIS4_EEE8__rehashEm"
  },
  {
   "binding" : "weak",
   "name" : "_ZNSt3__112__hash_tableINS_17__hash_value_typeImN11unwindstack8LoadInfoEEENS_22__unordered_map_hasherImS4_NS_4hashImEELb1EEENS_21__unordered_map_equalImS4_NS_8equal_toImEELb1EEENS_9allocatorIS4_EEE25__emplace_unique_key_argsImJRKNS_21piecewise_construct_tENS_5tupleIJOmEEENSK_IJEEEEEENS_4pairINS_15__hash_iteratorIPNS_11__hash_nodeIS4_PvEEEEbEERKT_DpOT0_"
  },
  {
   "binding" : "weak",
   "name" : "_ZNSt3__112__hash_tableINS_17__hash_value_typeImN11unwindstack8LoadInfoEEENS_22__unordered_map_hasherImS4_NS_4hashImEELb1EEENS_21__unordered_map_equalImS4_NS_8equal_toImEELb1EEENS_9allocatorIS4_EEE6rehashEm"
  },
  {
   "binding" : "weak",
   "name" : "_ZNSt3__112__hash_tableINS_17__hash_value_typeImN11unwindstack8LoadInfoEEENS_22__unordered_map_hasherImS4_NS_4hashImEELb1EEENS_21__unordered_map_equalImS4_NS_8equal_toImEELb1EEENS_9allocatorIS4_EEE8__rehashEm"
  },
  {
   "binding" : "weak",
   "name" : "_ZNSt3__112__hash_tableINS_17__hash_value_typeImjEENS_22__unordered_map_hasherImS2_NS_4hashImEELb1EEENS_21__unordered_map_equalImS2_NS_8equal_toImEELb1EEENS_9allocatorIS2_EEE25__emplace_unique_key_argsImJRKNS_21piecewise_construct_tENS_5tupleIJRKmEEENSI_IJEEEEEENS_4pairINS_15__hash_iteratorIPNS_11__hash_nodeIS2_PvEEEEbEERKT_DpOT0_"
  },
  {
   "binding" : "weak",
   "name" : "_ZNSt3__112__hash_tableINS_17__hash_value_typeImjEENS_22__unordered_map_hasherImS2_NS_4hashImEELb1EEENS_21__unordered_map_equalImS2_NS_8equal_toImEELb1EEENS_9allocatorIS2_EEE6rehashEm"
  },
  {
   "binding" : "weak",
   "name" : "_ZNSt3__112__hash_tableINS_17__hash_value_typeImjEENS_22__unordered_map_hasherImS2_NS_4hashImEELb1EEENS_21__unordered_map_equalImS2_NS_8equal_toImEELb1EEENS_9allocatorIS2_EEE8__rehashEm"
  },
  {
   "binding" : "weak",
   "name" : "_ZNSt3__114__split_bufferIPN11unwindstack14DwarfLocationsENS_9allocatorIS3_EEE10push_frontEOS3_"
  },
  {
   "binding" : "weak",
   "name" : "_ZNSt3__114__split_bufferIPN11unwindstack14DwarfLocationsENS_9allocatorIS3_EEE9push_backEOS3_"
  },
  {
   "binding" : "weak",
   "name" : "_ZNSt3__114__split_bufferIPN11unwindstack14DwarfLocationsERNS_9allocatorIS3_EEE10push_frontERKS3_"
  },
  {
   "binding" : "weak",
   "name" : "_ZNSt3__114__split_bufferIPN11unwindstack14DwarfLocationsERNS_9allocatorIS3_EEE9push_backEOS3_"
  },
  {
   "binding" : "weak",
   "name" : "_ZNSt3__114__split_bufferIPhNS_9allocatorIS1_EEE10push_frontEOS1_"
  },
  {
   "binding" : "weak",
   "name" : "_ZNSt3__114__split_bufferIPhNS_9allocatorIS1_EEE9push_backEOS1_"
  },
  {
   "binding" : "weak",
   "name" : "_ZNSt3__114__split_bufferIPhRNS_9allocatorIS1_EEE10push_frontERKS1_"
  },
  {
   "binding" : "weak",
   "name" : "_ZNSt3__114__split_bufferIPhRNS_9allocatorIS1_EEE9push_backEOS1_"
  },
  {
   "binding" : "weak",
   "name" : "_ZNSt3__114__split_bufferIPjNS_9allocatorIS1_EEE10push_frontEOS1_"
  },
  {
   "binding" : "weak",
   "name" : "_ZNSt3__114__split_bufferIPjNS_9allocatorIS1_EEE10push_frontERKS1_"
  },
  {
   "binding" : "weak",
   "name" : "_ZNSt3__114__split_bufferIPjNS_9allocatorIS1_EEE9push_backEOS1_"
  },
  {
   "binding" : "weak",
   "name" : "_ZNSt3__114__split_bufferIPjRNS_9allocatorIS1_EEE9push_backEOS1_"
  },
  {
   "binding" : "weak",
   "name" : "_ZNSt3__114__split_bufferIPmNS_9allocatorIS1_EEE10push_frontEOS1_"
  },
  {
   "binding" : "weak",
   "name" : "_ZNSt3__114__split_bufferIPmNS_9allocatorIS1_EEE10push_frontERKS1_"
  },
  {
   "binding" : "weak",
   "name" : "_ZNSt3__114__split_bufferIPmNS_9allocatorIS1_EEE9push_backEOS1_"
  },
  {
   "binding" : "weak",
   "name" : "_ZNSt3__114__split_bufferIPmRNS_9allocatorIS1_EEE9push_backEOS1_"
  },
  {
   "binding" : "weak",
   "name" : "_ZNSt3__118__insertion_sort_3IRZN11unwindstack7Symbols7GetNameI9elf32_symEEbmPNS1_6MemoryEPNS_12basic_stringIcNS_11char_traitsIcEENS_9allocatorIcEEEEPmEUlRKNS2_4InfoESH_E_PSF_EEvT0_SL_T_"
  },
  {
   "binding" : "weak",
   "name" : "_ZNSt3__118__insertion_sort_3IRZN11unwindstack7Symbols7GetNameI9elf64_symEEbmPNS1_6MemoryEPNS_12basic_stringIcNS_11char_traitsIcEENS_9allocatorIcEEEEPmEUlRKNS2_4InfoESH_E_PSF_EEvT0_SL_T_"
  },
  {
   "binding" : "weak",
   "name" : "_ZNSt3__120__shared_ptr_emplaceIN11unwindstack18MemoryFileAtOffsetENS_9allocatorIS2_EEE16__on_zero_sharedEv"
  },
  {
   "binding" : "weak",
   "name" : "_ZNSt3__120__shared_ptr_emplaceIN11unwindstack18MemoryFileAtOffsetENS_9allocatorIS2_EEE21__on_zero_shared_weakEv"
  },
  {
   "binding" : "weak",
   "name" : "_ZNSt3__120__shared_ptr_pointerIPN11unwindstack11MemoryCacheENS_14default_deleteIS2_EENS_9allocatorIS2_EEE16__on_zero_sharedEv"
  },
  {
   "binding" : "weak",
   "name" : "_ZNSt3__120__shared_ptr_pointerIPN11unwindstack11MemoryCacheENS_14default_deleteIS2_EENS_9allocatorIS2_EEE21__on_zero_shared_weakEv"
  },
  {
   "binding" : "weak",
   "name" : "_ZNSt3__120__shared_ptr_pointerIPN11unwindstack11MemoryLocalENS_14default_deleteIS2_EENS_9allocatorIS2_EEE16__on_zero_sharedEv"
  },
  {
   "binding" : "weak",
   "name" : "_ZNSt3__120__shared_ptr_pointerIPN11unwindstack11MemoryLocalENS_14default_deleteIS2_EENS_9allocatorIS2_EEE21__on_zero_shared_weakEv"
  },
  {
   "binding" : "weak",
   "name" : "_ZNSt3__120__shared_ptr_pointerIPN11unwindstack12MemoryRemoteENS_14default_deleteIS2_EENS_9allocatorIS2_EEE16__on_zero_sharedEv"
  },
  {
   "binding" : "weak",
   "name" : "_ZNSt3__120__shared_ptr_pointerIPN11unwindstack12MemoryRemoteENS_14default_deleteIS2_EENS_9allocatorIS2_EEE21__on_zero_shared_weakEv"
  },
  {
   "binding" : "weak",
   "name" : "_ZNSt3__120__shared_ptr_pointerIPN11unwindstack19MemoryOfflineBufferENS_14default_deleteIS2_EENS_9allocatorIS2_EEE16__on_zero_sharedEv"
  },
  {
   "binding" : "weak",
   "name" : "_ZNSt3__120__shared_ptr_pointerIPN11unwindstack19MemoryOfflineBufferENS_14default_deleteIS2_EENS_9allocatorIS2_EEE21__on_zero_shared_weakEv"
  },
  {
   "binding" : "weak",
   "name" : "_ZNSt3__120__shared_ptr_pointerIPN11unwindstack3ElfENS_14default_deleteIS2_EENS_9allocatorIS2_EEE16__on_zero_sharedEv"
  },
  {
   "binding" : "weak",
   "name" : "_ZNSt3__120__shared_ptr_pointerIPN11unwindstack3ElfENS_14default_deleteIS2_EENS_9allocatorIS2_EEE21__on_zero_shared_weakEv"
  },
  {
   "binding" : "weak",
   "name" : "_ZNSt3__127__insertion_sort_incompleteIRZN11unwindstack7Symbols7GetNameI9elf32_symEEbmPNS1_6MemoryEPNS_12basic_stringIcNS_11char_traitsIcEENS_9allocatorIcEEEEPmEUlRKNS2_4InfoESH_E_PSF_EEbT0_SL_T_"
  },
  {
   "binding" : "weak",
   "name" : "_ZNSt3__127__insertion_sort_incompleteIRZN11unwindstack7Symbols7GetNameI9elf64_symEEbmPNS1_6MemoryEPNS_12basic_stringIcNS_11char_traitsIcEENS_9allocatorIcEEEEPmEUlRKNS2_4InfoESH_E_PSF_EEbT0_SL_T_"
  },
  {
   "binding" : "weak",
   "name" : "_ZNSt3__127__tree_balance_after_insertIPNS_16__tree_node_baseIPvEEEEvT_S5_"
  },
  {
   "binding" : "weak",
   "name" : "_ZNSt3__15dequeIN11unwindstack14DwarfLocationsENS_9allocatorIS2_EEE19__add_back_capacityEv"
  },
  {
   "binding" : "weak",
   "name" : "_ZNSt3__15dequeIN11unwindstack14DwarfLocationsENS_9allocatorIS2_EEE8pop_backEv"
  },
  {
   "binding" : "weak",
   "name" : "_ZNSt3__15dequeIN11unwindstack14DwarfLocationsENS_9allocatorIS2_EEE9push_backERKS2_"
  },
  {
   "binding" : "weak",
   "name" : "_ZNSt3__15dequeIhNS_9allocatorIhEEE19__add_back_capacityEv"
  },
  {
   "binding" : "weak",
   "name" : "_ZNSt3__15dequeIhNS_9allocatorIhEEE9push_backEOh"
  },
  {
   "binding" : "weak",
   "name" : "_ZNSt3__15dequeIhNS_9allocatorIhEEE9push_backERKh"
  },
  {
   "binding" : "weak",
   "name" : "_ZNSt3__15dequeIjNS_9allocatorIjEEE20__add_front_capacityEv"
  },
  {
   "binding" : "weak",
   "name" : "_ZNSt3__15dequeImNS_9allocatorImEEE20__add_front_capacityEv"
  },
  {
   "binding" : "weak",
   "name" : "_ZNSt3__16__sortIRZN11unwindstack7Symbols7GetNameI9elf32_symEEbmPNS1_6MemoryEPNS_12basic_stringIcNS_11char_traitsIcEENS_9allocatorIcEEEEPmEUlRKNS2_4InfoESH_E_PSF_EEvT0_SL_T_"
  },
  {
   "binding" : "weak",
   "name" : "_ZNSt3__16__sortIRZN11unwindstack7Symbols7GetNameI9elf64_symEEbmPNS1_6MemoryEPNS_12basic_stringIcNS_11char_traitsIcEENS_9allocatorIcEEEEPmEUlRKNS2_4InfoESH_E_PSF_EEvT0_SL_T_"
  },
  {
   "binding" : "weak",
   "name" : "_ZNSt3__16__treeINS_12__value_typeIhiEENS_19__map_value_compareIhS2_NS_4lessIhEELb1EEENS_9allocatorIS2_EEE7destroyEPNS_11__tree_nodeIS2_PvEE"
  },
  {
   "binding" : "weak",
   "name" : "_ZNSt3__16__treeINS_12__value_typeImN11unwindstack14DwarfLocationsEEENS_19__map_value_compareImS4_NS_4lessImEELb1EEENS_9allocatorIS4_EEE25__emplace_unique_key_argsImJRmS3_EEENS_4pairINS_15__tree_iteratorIS4_PNS_11__tree_nodeIS4_PvEElEEbEERKT_DpOT0_"
  },
  {
   "binding" : "weak",
   "name" : "_ZNSt3__16__treeINS_12__value_typeImN11unwindstack14DwarfLocationsEEENS_19__map_value_compareImS4_NS_4lessImEELb1EEENS_9allocatorIS4_EEE7destroyEPNS_11__tree_nodeIS4_PvEE"
  },
  {
   "binding" : "weak",
   "name" : "_ZNSt3__16__treeINS_12__value_typeImNS_10unique_ptrIN11unwindstack11MemoryRangeENS_14default_deleteIS4_EEEEEENS_19__map_value_compareImS8_NS_4lessImEELb1EEENS_9allocatorIS8_EEE7destroyEPNS_11__tree_nodeIS8_PvEE"
  },
  {
   "binding" : "weak",
   "name" : "_ZNSt3__16__treeINS_12__value_typeImNS_4pairImPKN11unwindstack8DwarfFdeEEEEENS_19__map_value_compareImS8_NS_4lessImEELb1EEENS_9allocatorIS8_EEE7destroyEPNS_11__tree_nodeIS8_PvEE"
  },
  {
   "binding" : "weak",
   "name" : "_ZNSt3__16vectorIN11unwindstack14LocalFrameDataENS_9allocatorIS2_EEE24__emplace_back_slow_pathIJRPNS1_7MapInfoEmmRA1_KciEEEvDpOT_"
  },
  {
   "binding" : "weak",
   "name" : "_ZNSt3__16vectorIN11unwindstack14LocalFrameDataENS_9allocatorIS2_EEE24__emplace_back_slow_pathIJRPNS1_7MapInfoEmmRNS_12basic_stringIcNS_11char_traitsIcEENS3_IcEEEERmEEEvDpOT_"
  },
  {
   "binding" : "weak",
   "name" : "_ZNSt3__16vectorIN11unwindstack7Symbols4InfoENS_9allocatorIS3_EEE24__emplace_back_slow_pathIJRmS8_mEEEvDpOT_"
  },
  {
   "binding" : "weak",
   "name" : "_ZNSt3__16vectorIN11unwindstack9FrameDataENS_9allocatorIS2_EEE8__appendEm"
  },
  {
   "binding" : "weak",
   "name" : "_ZNSt3__16vectorINS_10unique_ptrIN11unwindstack7MapInfoENS_14default_deleteIS3_EEEENS_9allocatorIS6_EEE24__emplace_back_slow_pathIJPS3_EEEvDpOT_"
  },
  {
   "binding" : "weak",
   "name" : "_ZNSt3__16vectorINS_10unique_ptrIN11unwindstack7MapInfoENS_14default_deleteIS3_EEEENS_9allocatorIS6_EEE24__emplace_back_slow_pathIJS6_EEEvDpOT_"
  },
  {
   "binding" : "weak",
   "name" : "_ZNSt3__16vectorINS_10unique_ptrIN11unwindstack7MapInfoENS_14default_deleteIS3_EEEENS_9allocatorIS6_EEE8__appendEm"
  },
  {
   "binding" : "weak",
   "name" : "_ZNSt3__16vectorINS_12basic_stringIcNS_11char_traitsIcEENS_9allocatorIcEEEENS4_IS6_EEE21__push_back_slow_pathIS6_EEvOT_"
  },
  {
   "binding" : "weak",
   "name" : "_ZNSt3__16vectorINS_4pairImmEENS_9allocatorIS2_EEE21__push_back_slow_pathIS2_EEvOT_"
  },
  {
   "binding" : "weak",
   "name" : "_ZNSt3__16vectorIPKN11unwindstack8DwarfFdeENS_9allocatorIS4_EEE21__push_back_slow_pathIRKS4_EEvOT_"
  },
  {
   "binding" : "weak",
   "name" : "_ZNSt3__16vectorIPKN11unwindstack8DwarfFdeENS_9allocatorIS4_EEE21__push_back_slow_pathIS4_EEvOT_"
  },
  {
   "binding" : "weak",
   "name" : "_ZNSt3__16vectorIPN11unwindstack3ElfENS_9allocatorIS3_EEE21__push_back_slow_pathIRKS3_EEvOT_"
  },
  {
   "binding" : "weak",
   "name" : "_ZNSt3__16vectorIPN11unwindstack7SymbolsENS_9allocatorIS3_EEE21__push_back_slow_pathIS3_EEvOT_"
  },
  {
   "binding" : "weak",
   "name" : "_ZNSt3__16vectorIcNS_9allocatorIcEEE21__push_back_slow_pathIRKcEEvOT_"
  },
  {
   "binding" : "weak",
   "name" : "_ZNSt3__16vectorIjNS_9allocatorIjEEE21__push_back_slow_pathIjEEvOT_"
  },
  {
   "binding" : "weak",
   "name" : "_ZNSt3__16vectorImNS_9allocatorImEEE21__push_back_slow_pathIRKmEEvOT_"
  },
  {
   "binding" : "weak",
   "name" : "_ZNSt3__16vectorImNS_9allocatorImEEE21__push_back_slow_pathImEEvOT_"
  },
  {
   "binding" : "weak",
   "name" : "_ZNSt3__17__sort4IRZN11unwindstack7Symbols7GetNameI9elf32_symEEbmPNS1_6MemoryEPNS_12basic_stringIcNS_11char_traitsIcEENS_9allocatorIcEEEEPmEUlRKNS2_4InfoESH_E_PSF_EEjT0_SL_SL_SL_T_"
  },
  {
   "binding" : "weak",
   "name" : "_ZNSt3__17__sort4IRZN11unwindstack7Symbols7GetNameI9elf64_symEEbmPNS1_6MemoryEPNS_12basic_stringIcNS_11char_traitsIcEENS_9allocatorIcEEEEPmEUlRKNS2_4InfoESH_E_PSF_EEjT0_SL_SL_SL_T_"
  },
  {
   "binding" : "weak",
   "name" : "_ZNSt3__1plIcNS_11char_traitsIcEENS_9allocatorIcEEEENS_12basic_stringIT_T0_T1_EERKS9_S6_"
  },
  {
   "binding" : "weak",
   "name" : "_ZNSt3__1plIcNS_11char_traitsIcEENS_9allocatorIcEEEENS_12basic_stringIT_T0_T1_EES6_RKS9_"
  },
  {
   "name" : "__cxa_demangle"
  }
 ],
 "elf_objects" :
 [
  {
   "name" : "_ZN11unwindstack12DwarfCfaInfo6kTableE"
  },
  {
   "name" : "_ZN11unwindstack3Elf11cache_lock_E"
  },
  {
   "name" : "_ZN11unwindstack3Elf14cache_enabled_E"
  },
  {
   "name" : "_ZN11unwindstack3Elf6cache_E"
  },
  {
   "binding" : "weak",
   "name" : "_ZN11unwindstack7DwarfOpIjE17kOpHandleFuncListE"
  },
  {
   "binding" : "weak",
   "name" : "_ZN11unwindstack7DwarfOpImE17kOpHandleFuncListE"
  },
  {
   "binding" : "weak",
   "name" : "_ZN11unwindstack8DwarfCfaIjE14kCallbackTableE"
  },
  {
   "binding" : "weak",
   "name" : "_ZN11unwindstack8DwarfCfaImE14kCallbackTableE"
  },
  {
   "name" : "_ZTVN11unwindstack10BufferMapsE"
  },
  {
   "name" : "_ZTVN11unwindstack10RegsMips64E"
  },
  {
   "name" : "_ZTVN11unwindstack10RegsX86_64E"
  },
  {
   "name" : "_ZTVN11unwindstack10RemoteMapsE"
  },
  {
   "binding" : "weak",
   "name" : "_ZTVN11unwindstack11DwarfMemoryE"
  },
  {
   "name" : "_ZTVN11unwindstack11MemoryCacheE"
  },
  {
   "name" : "_ZTVN11unwindstack11MemoryLocalE"
  },
  {
   "name" : "_ZTVN11unwindstack11MemoryRangeE"
  },
  {
   "binding" : "weak",
   "name" : "_ZTVN11unwindstack12DwarfEhFrameIjEE"
  },
  {
   "binding" : "weak",
   "name" : "_ZTVN11unwindstack12DwarfEhFrameImEE"
  },
  {
   "binding" : "weak",
   "name" : "_ZTVN11unwindstack12DwarfSectionE"
  },
  {
   "name" : "_ZTVN11unwindstack12ElfInterfaceE"
  },
  {
   "name" : "_ZTVN11unwindstack12MemoryBufferE"
  },
  {
   "name" : "_ZTVN11unwindstack12MemoryRangesE"
  },
  {
   "name" : "_ZTVN11unwindstack12MemoryRemoteE"
  },
  {
   "name" : "_ZTVN11unwindstack13MemoryOfflineE"
  },
  {
   "binding" : "weak",
   "name" : "_ZTVN11unwindstack14ElfInterface32E"
  },
  {
   "binding" : "weak",
   "name" : "_ZTVN11unwindstack14ElfInterface64E"
  },
  {
   "binding" : "weak",
   "name" : "_ZTVN11unwindstack15DwarfDebugFrameIjEE"
  },
  {
   "binding" : "weak",
   "name" : "_ZTVN11unwindstack15DwarfDebugFrameImEE"
  },
  {
   "name" : "_ZTVN11unwindstack15ElfInterfaceArmE"
  },
  {
   "binding" : "weak",
   "name" : "_ZTVN11unwindstack16DwarfSectionImplIjEE"
  },
  {
   "binding" : "weak",
   "name" : "_ZTVN11unwindstack16DwarfSectionImplImEE"
  },
  {
   "name" : "_ZTVN11unwindstack18LocalUpdatableMapsE"
  },
  {
   "name" : "_ZTVN11unwindstack18MemoryFileAtOffsetE"
  },
  {
   "name" : "_ZTVN11unwindstack18MemoryOfflinePartsE"
  },
  {
   "binding" : "weak",
   "name" : "_ZTVN11unwindstack19DwarfEhFrameWithHdrIjEE"
  },
  {
   "binding" : "weak",
   "name" : "_ZTVN11unwindstack19DwarfEhFrameWithHdrImEE"
  },
  {
   "name" : "_ZTVN11unwindstack19MemoryOfflineBufferE"
  },
  {
   "binding" : "weak",
   "name" : "_ZTVN11unwindstack3ElfE"
  },
  {
   "name" : "_ZTVN11unwindstack4MapsE"
  },
  {
   "binding" : "weak",
   "name" : "_ZTVN11unwindstack6GlobalE"
  },
  {
   "name" : "_ZTVN11unwindstack6MemoryE"
  },
  {
   "binding" : "weak",
   "name" : "_ZTVN11unwindstack7DwarfOpIjEE"
  },
  {
   "binding" : "weak",
   "name" : "_ZTVN11unwindstack7DwarfOpImEE"
  },
  {
   "name" : "_ZTVN11unwindstack7RegsArmE"
  },
  {
   "name" : "_ZTVN11unwindstack7RegsX86E"
  },
  {
   "binding" : "weak",
   "name" : "_ZTVN11unwindstack7SymbolsE"
  },
  {
   "binding" : "weak",
   "name" : "_ZTVN11unwindstack8ArmExidxE"
  },
  {
   "name" : "_ZTVN11unwindstack8DexFilesE"
  },
  {
   "binding" : "weak",
   "name" : "_ZTVN11unwindstack8DwarfCfaIjEE"
  },
  {
   "binding" : "weak",
   "name" : "_ZTVN11unwindstack8DwarfCfaImEE"
  },
  {
   "name" : "_ZTVN11unwindstack8JitDebugE"
  },
  {
   "binding" : "weak",
   "name" : "_ZTVN11unwindstack8RegsImplIjEE"
  },
  {
   "binding" : "weak",
   "name" : "_ZTVN11unwindstack8RegsImplImEE"
  },
  {
   "name" : "_ZTVN11unwindstack8RegsMipsE"
  },
  {
   "binding" : "weak",
   "name" : "_ZTVN11unwindstack9LocalMapsE"
  },
  {
   "name" : "_ZTVN11unwindstack9RegsArm64E"
  },
  {
   "binding" : "weak",
   "name" : "_ZTVNSt3__120__shared_ptr_emplaceIN11unwindstack18MemoryFileAtOffsetENS_9allocatorIS2_EEEE"
  },
  {
   "binding" : "weak",
   "name" : "_ZTVNSt3__120__shared_ptr_pointerIPN11unwindstack11MemoryCacheENS_14default_deleteIS2_EENS_9allocatorIS2_EEEE"
  },
  {
   "binding" : "weak",
   "name" : "_ZTVNSt3__120__shared_ptr_pointerIPN11unwindstack11MemoryLocalENS_14default_deleteIS2_EENS_9allocatorIS2_EEEE"
  },
  {
   "binding" : "weak",
   "name" : "_ZTVNSt3__120__shared_ptr_pointerIPN11unwindstack12MemoryRemoteENS_14default_deleteIS2_EENS_9allocatorIS2_EEEE"
  },
  {
   "binding" : "weak",
   "name" : "_ZTVNSt3__120__shared_ptr_pointerIPN11unwindstack19MemoryOfflineBufferENS_14default_deleteIS2_EENS_9allocatorIS2_EEEE"
  },
  {
   "binding" : "weak",
   "name" : "_ZTVNSt3__120__shared_ptr_pointerIPN11unwindstack3ElfENS_14default_deleteIS2_EENS_9allocatorIS2_EEEE"
  }
 ],
 "enum_types" :
 [
  {
   "alignment" : 2,
   "enum_fields" :
   [
    {
     "enum_field_value" : 6,
     "name" : "unwindstack::MIPS32_EF_R0"
    },
    {
     "enum_field_value" : 40,
     "name" : "unwindstack::MIPS32_EF_CP0_EPC"
    }
   ],
   "linker_set_key" : "_ZTIN11unwindstack13Mips32UserRegE",
   "name" : "unwindstack::Mips32UserReg",
   "referenced_type" : "_ZTIN11unwindstack13Mips32UserRegE",
   "self_type" : "_ZTIN11unwindstack13Mips32UserRegE",
   "size" : 2,
   "source_file" : "/system/core/libunwindstack/include/unwindstack/UserMips.h",
   "underlying_type" : "_ZTIt"
  },
  {
   "alignment" : 2,
   "enum_fields" :
   [
    {
     "enum_field_value" : 0,
     "name" : "unwindstack::MIPS64_EF_R0"
    },
    {
     "enum_field_value" : 34,
     "name" : "unwindstack::MIPS64_EF_CP0_EPC"
    }
   ],
   "linker_set_key" : "_ZTIN11unwindstack13Mips64UserRegE",
   "name" : "unwindstack::Mips64UserReg",
   "referenced_type" : "_ZTIN11unwindstack13Mips64UserRegE",
   "self_type" : "_ZTIN11unwindstack13Mips64UserRegE",
   "size" : 2,
   "source_file" : "/system/core/libunwindstack/include/unwindstack/UserMips64.h",
   "underlying_type" : "_ZTIt"
  },
  {
   "alignment" : 1,
   "enum_fields" :
   [
    {
     "enum_field_value" : 0,
     "name" : "unwindstack::DWARF_ERROR_NONE"
    },
    {
     "enum_field_value" : 1,
     "name" : "unwindstack::DWARF_ERROR_MEMORY_INVALID"
    },
    {
     "enum_field_value" : 2,
     "name" : "unwindstack::DWARF_ERROR_ILLEGAL_VALUE"
    },
    {
     "enum_field_value" : 3,
     "name" : "unwindstack::DWARF_ERROR_ILLEGAL_STATE"
    },
    {
     "enum_field_value" : 4,
     "name" : "unwindstack::DWARF_ERROR_STACK_INDEX_NOT_VALID"
    },
    {
     "enum_field_value" : 5,
     "name" : "unwindstack::DWARF_ERROR_NOT_IMPLEMENTED"
    },
    {
     "enum_field_value" : 6,
     "name" : "unwindstack::DWARF_ERROR_TOO_MANY_ITERATIONS"
    },
    {
     "enum_field_value" : 7,
     "name" : "unwindstack::DWARF_ERROR_CFA_NOT_DEFINED"
    },
    {
     "enum_field_value" : 8,
     "name" : "unwindstack::DWARF_ERROR_UNSUPPORTED_VERSION"
    },
    {
     "enum_field_value" : 9,
     "name" : "unwindstack::DWARF_ERROR_NO_FDES"
    }
   ],
   "linker_set_key" : "_ZTIN11unwindstack14DwarfErrorCodeE",
   "name" : "unwindstack::DwarfErrorCode",
   "referenced_type" : "_ZTIN11unwindstack14DwarfErrorCodeE",
   "self_type" : "_ZTIN11unwindstack14DwarfErrorCodeE",
   "size" : 1,
   "source_file" : "/system/core/libunwindstack/include/unwindstack/DwarfError.h",
   "underlying_type" : "_ZTIh"
  },
  {
   "alignment" : 1,
   "enum_fields" :
   [
    {
     "enum_field_value" : 0,
     "name" : "unwindstack::SONAME_UNKNOWN"
    },
    {
     "enum_field_value" : 1,
     "name" : "unwindstack::SONAME_VALID"
    },
    {
     "enum_field_value" : 2,
     "name" : "unwindstack::SONAME_INVALID"
    }
   ],
   "linker_set_key" : "_ZTIN11unwindstack15$SONAME_INVALIDE",
   "name" : "unwindstack::(anonymous enum at system/core/libunwindstack/include/unwindstack/ElfInterface.h:44:1)",
   "referenced_type" : "_ZTIN11unwindstack15$SONAME_INVALIDE",
   "self_type" : "_ZTIN11unwindstack15$SONAME_INVALIDE",
   "size" : 1,
   "source_file" : "/system/core/libunwindstack/include/unwindstack/ElfInterface.h",
   "underlying_type" : "_ZTIh"
  },
  {
   "alignment" : 1,
   "enum_fields" :
   [
    {
     "enum_field_value" : 0,
     "name" : "unwindstack::DWARF_LOCATION_INVALID"
    },
    {
     "enum_field_value" : 1,
     "name" : "unwindstack::DWARF_LOCATION_UNDEFINED"
    },
    {
     "enum_field_value" : 2,
     "name" : "unwindstack::DWARF_LOCATION_OFFSET"
    },
    {
     "enum_field_value" : 3,
     "name" : "unwindstack::DWARF_LOCATION_VAL_OFFSET"
    },
    {
     "enum_field_value" : 4,
     "name" : "unwindstack::DWARF_LOCATION_REGISTER"
    },
    {
     "enum_field_value" : 5,
     "name" : "unwindstack::DWARF_LOCATION_EXPRESSION"
    },
    {
     "enum_field_value" : 6,
     "name" : "unwindstack::DWARF_LOCATION_VAL_EXPRESSION"
    }
   ],
   "linker_set_key" : "_ZTIN11unwindstack17DwarfLocationEnumE",
   "name" : "unwindstack::DwarfLocationEnum",
   "referenced_type" : "_ZTIN11unwindstack17DwarfLocationEnumE",
   "self_type" : "_ZTIN11unwindstack17DwarfLocationEnumE",
   "size" : 1,
   "source_file" : "/system/core/libunwindstack/include/unwindstack/DwarfLocation.h",
   "underlying_type" : "_ZTIh"
  },
  {
   "alignment" : 1,
   "enum_fields" :
   [
    {
     "enum_field_value" : 0,
     "name" : "unwindstack::Regs::LOCATION_UNKNOWN"
    },
    {
     "enum_field_value" : 1,
     "name" : "unwindstack::Regs::LOCATION_REGISTER"
    },
    {
     "enum_field_value" : 2,
     "name" : "unwindstack::Regs::LOCATION_SP_OFFSET"
    }
   ],
   "linker_set_key" : "_ZTIN11unwindstack4Regs12LocationEnumE",
   "name" : "unwindstack::Regs::LocationEnum",
   "referenced_type" : "_ZTIN11unwindstack4Regs12LocationEnumE",
   "self_type" : "_ZTIN11unwindstack4Regs12LocationEnumE",
   "size" : 1,
   "source_file" : "/system/core/libunwindstack/include/unwindstack/Regs.h",
   "underlying_type" : "_ZTIh"
  },
  {
   "alignment" : 2,
   "enum_fields" :
   [
    {
     "enum_field_value" : 0,
     "name" : "unwindstack::ARM_REG_R0"
    },
    {
     "enum_field_value" : 1,
     "name" : "unwindstack::ARM_REG_R1"
    },
    {
     "enum_field_value" : 2,
     "name" : "unwindstack::ARM_REG_R2"
    },
    {
     "enum_field_value" : 3,
     "name" : "unwindstack::ARM_REG_R3"
    },
    {
     "enum_field_value" : 4,
     "name" : "unwindstack::ARM_REG_R4"
    },
    {
     "enum_field_value" : 5,
     "name" : "unwindstack::ARM_REG_R5"
    },
    {
     "enum_field_value" : 6,
     "name" : "unwindstack::ARM_REG_R6"
    },
    {
     "enum_field_value" : 7,
     "name" : "unwindstack::ARM_REG_R7"
    },
    {
     "enum_field_value" : 8,
     "name" : "unwindstack::ARM_REG_R8"
    },
    {
     "enum_field_value" : 9,
     "name" : "unwindstack::ARM_REG_R9"
    },
    {
     "enum_field_value" : 10,
     "name" : "unwindstack::ARM_REG_R10"
    },
    {
     "enum_field_value" : 11,
     "name" : "unwindstack::ARM_REG_R11"
    },
    {
     "enum_field_value" : 12,
     "name" : "unwindstack::ARM_REG_R12"
    },
    {
     "enum_field_value" : 13,
     "name" : "unwindstack::ARM_REG_R13"
    },
    {
     "enum_field_value" : 14,
     "name" : "unwindstack::ARM_REG_R14"
    },
    {
     "enum_field_value" : 15,
     "name" : "unwindstack::ARM_REG_R15"
    },
    {
     "enum_field_value" : 16,
     "name" : "unwindstack::ARM_REG_LAST"
    },
    {
     "enum_field_value" : 13,
     "name" : "unwindstack::ARM_REG_SP"
    },
    {
     "enum_field_value" : 14,
     "name" : "unwindstack::ARM_REG_LR"
    },
    {
     "enum_field_value" : 15,
     "name" : "unwindstack::ARM_REG_PC"
    }
   ],
   "linker_set_key" : "_ZTIN11unwindstack6ArmRegE",
   "name" : "unwindstack::ArmReg",
   "referenced_type" : "_ZTIN11unwindstack6ArmRegE",
   "self_type" : "_ZTIN11unwindstack6ArmRegE",
   "size" : 2,
   "source_file" : "/system/core/libunwindstack/include/unwindstack/MachineArm.h",
   "underlying_type" : "_ZTIt"
  },
  {
   "alignment" : 2,
   "enum_fields" :
   [
    {
     "enum_field_value" : 0,
     "name" : "unwindstack::X86_REG_EAX"
    },
    {
     "enum_field_value" : 1,
     "name" : "unwindstack::X86_REG_ECX"
    },
    {
     "enum_field_value" : 2,
     "name" : "unwindstack::X86_REG_EDX"
    },
    {
     "enum_field_value" : 3,
     "name" : "unwindstack::X86_REG_EBX"
    },
    {
     "enum_field_value" : 4,
     "name" : "unwindstack::X86_REG_ESP"
    },
    {
     "enum_field_value" : 5,
     "name" : "unwindstack::X86_REG_EBP"
    },
    {
     "enum_field_value" : 6,
     "name" : "unwindstack::X86_REG_ESI"
    },
    {
     "enum_field_value" : 7,
     "name" : "unwindstack::X86_REG_EDI"
    },
    {
     "enum_field_value" : 8,
     "name" : "unwindstack::X86_REG_EIP"
    },
    {
     "enum_field_value" : 9,
     "name" : "unwindstack::X86_REG_EFL"
    },
    {
     "enum_field_value" : 10,
     "name" : "unwindstack::X86_REG_CS"
    },
    {
     "enum_field_value" : 11,
     "name" : "unwindstack::X86_REG_SS"
    },
    {
     "enum_field_value" : 12,
     "name" : "unwindstack::X86_REG_DS"
    },
    {
     "enum_field_value" : 13,
     "name" : "unwindstack::X86_REG_ES"
    },
    {
     "enum_field_value" : 14,
     "name" : "unwindstack::X86_REG_FS"
    },
    {
     "enum_field_value" : 15,
     "name" : "unwindstack::X86_REG_GS"
    },
    {
     "enum_field_value" : 16,
     "name" : "unwindstack::X86_REG_LAST"
    },
    {
     "enum_field_value" : 4,
     "name" : "unwindstack::X86_REG_SP"
    },
    {
     "enum_field_value" : 8,
     "name" : "unwindstack::X86_REG_PC"
    }
   ],
   "linker_set_key" : "_ZTIN11unwindstack6X86RegE",
   "name" : "unwindstack::X86Reg",
   "referenced_type" : "_ZTIN11unwindstack6X86RegE",
   "self_type" : "_ZTIN11unwindstack6X86RegE",
   "size" : 2,
   "source_file" : "/system/core/libunwindstack/include/unwindstack/MachineX86.h",
   "underlying_type" : "_ZTIt"
  },
  {
   "alignment" : 2,
   "enum_fields" :
   [
    {
     "enum_field_value" : 0,
     "name" : "unwindstack::MIPS_REG_R0"
    },
    {
     "enum_field_value" : 1,
     "name" : "unwindstack::MIPS_REG_R1"
    },
    {
     "enum_field_value" : 2,
     "name" : "unwindstack::MIPS_REG_R2"
    },
    {
     "enum_field_value" : 3,
     "name" : "unwindstack::MIPS_REG_R3"
    },
    {
     "enum_field_value" : 4,
     "name" : "unwindstack::MIPS_REG_R4"
    },
    {
     "enum_field_value" : 5,
     "name" : "unwindstack::MIPS_REG_R5"
    },
    {
     "enum_field_value" : 6,
     "name" : "unwindstack::MIPS_REG_R6"
    },
    {
     "enum_field_value" : 7,
     "name" : "unwindstack::MIPS_REG_R7"
    },
    {
     "enum_field_value" : 8,
     "name" : "unwindstack::MIPS_REG_R8"
    },
    {
     "enum_field_value" : 9,
     "name" : "unwindstack::MIPS_REG_R9"
    },
    {
     "enum_field_value" : 10,
     "name" : "unwindstack::MIPS_REG_R10"
    },
    {
     "enum_field_value" : 11,
     "name" : "unwindstack::MIPS_REG_R11"
    },
    {
     "enum_field_value" : 12,
     "name" : "unwindstack::MIPS_REG_R12"
    },
    {
     "enum_field_value" : 13,
     "name" : "unwindstack::MIPS_REG_R13"
    },
    {
     "enum_field_value" : 14,
     "name" : "unwindstack::MIPS_REG_R14"
    },
    {
     "enum_field_value" : 15,
     "name" : "unwindstack::MIPS_REG_R15"
    },
    {
     "enum_field_value" : 16,
     "name" : "unwindstack::MIPS_REG_R16"
    },
    {
     "enum_field_value" : 17,
     "name" : "unwindstack::MIPS_REG_R17"
    },
    {
     "enum_field_value" : 18,
     "name" : "unwindstack::MIPS_REG_R18"
    },
    {
     "enum_field_value" : 19,
     "name" : "unwindstack::MIPS_REG_R19"
    },
    {
     "enum_field_value" : 20,
     "name" : "unwindstack::MIPS_REG_R20"
    },
    {
     "enum_field_value" : 21,
     "name" : "unwindstack::MIPS_REG_R21"
    },
    {
     "enum_field_value" : 22,
     "name" : "unwindstack::MIPS_REG_R22"
    },
    {
     "enum_field_value" : 23,
     "name" : "unwindstack::MIPS_REG_R23"
    },
    {
     "enum_field_value" : 24,
     "name" : "unwindstack::MIPS_REG_R24"
    },
    {
     "enum_field_value" : 25,
     "name" : "unwindstack::MIPS_REG_R25"
    },
    {
     "enum_field_value" : 26,
     "name" : "unwindstack::MIPS_REG_R26"
    },
    {
     "enum_field_value" : 27,
     "name" : "unwindstack::MIPS_REG_R27"
    },
    {
     "enum_field_value" : 28,
     "name" : "unwindstack::MIPS_REG_R28"
    },
    {
     "enum_field_value" : 29,
     "name" : "unwindstack::MIPS_REG_R29"
    },
    {
     "enum_field_value" : 30,
     "name" : "unwindstack::MIPS_REG_R30"
    },
    {
     "enum_field_value" : 31,
     "name" : "unwindstack::MIPS_REG_R31"
    },
    {
     "enum_field_value" : 32,
     "name" : "unwindstack::MIPS_REG_PC"
    },
    {
     "enum_field_value" : 33,
     "name" : "unwindstack::MIPS_REG_LAST"
    },
    {
     "enum_field_value" : 29,
     "name" : "unwindstack::MIPS_REG_SP"
    },
    {
     "enum_field_value" : 31,
     "name" : "unwindstack::MIPS_REG_RA"
    }
   ],
   "linker_set_key" : "_ZTIN11unwindstack7MipsRegE",
   "name" : "unwindstack::MipsReg",
   "referenced_type" : "_ZTIN11unwindstack7MipsRegE",
   "self_type" : "_ZTIN11unwindstack7MipsRegE",
   "size" : 2,
   "source_file" : "/system/core/libunwindstack/include/unwindstack/MachineMips.h",
   "underlying_type" : "_ZTIt"
  },
  {
   "alignment" : 1,
   "enum_fields" :
   [
    {
     "enum_field_value" : 0,
     "name" : "unwindstack::ARCH_UNKNOWN"
    },
    {
     "enum_field_value" : 1,
     "name" : "unwindstack::ARCH_ARM"
    },
    {
     "enum_field_value" : 2,
     "name" : "unwindstack::ARCH_ARM64"
    },
    {
     "enum_field_value" : 3,
     "name" : "unwindstack::ARCH_X86"
    },
    {
     "enum_field_value" : 4,
     "name" : "unwindstack::ARCH_X86_64"
    },
    {
     "enum_field_value" : 5,
     "name" : "unwindstack::ARCH_MIPS"
    },
    {
     "enum_field_value" : 6,
     "name" : "unwindstack::ARCH_MIPS64"
    }
   ],
   "linker_set_key" : "_ZTIN11unwindstack8ArchEnumE",
   "name" : "unwindstack::ArchEnum",
   "referenced_type" : "_ZTIN11unwindstack8ArchEnumE",
   "self_type" : "_ZTIN11unwindstack8ArchEnumE",
   "size" : 1,
   "source_file" : "/system/core/libunwindstack/include/unwindstack/Elf.h",
   "underlying_type" : "_ZTIh"
  },
  {
   "alignment" : 2,
   "enum_fields" :
   [
    {
     "enum_field_value" : 0,
     "name" : "unwindstack::ARM64_REG_R0"
    },
    {
     "enum_field_value" : 1,
     "name" : "unwindstack::ARM64_REG_R1"
    },
    {
     "enum_field_value" : 2,
     "name" : "unwindstack::ARM64_REG_R2"
    },
    {
     "enum_field_value" : 3,
     "name" : "unwindstack::ARM64_REG_R3"
    },
    {
     "enum_field_value" : 4,
     "name" : "unwindstack::ARM64_REG_R4"
    },
    {
     "enum_field_value" : 5,
     "name" : "unwindstack::ARM64_REG_R5"
    },
    {
     "enum_field_value" : 6,
     "name" : "unwindstack::ARM64_REG_R6"
    },
    {
     "enum_field_value" : 7,
     "name" : "unwindstack::ARM64_REG_R7"
    },
    {
     "enum_field_value" : 8,
     "name" : "unwindstack::ARM64_REG_R8"
    },
    {
     "enum_field_value" : 9,
     "name" : "unwindstack::ARM64_REG_R9"
    },
    {
     "enum_field_value" : 10,
     "name" : "unwindstack::ARM64_REG_R10"
    },
    {
     "enum_field_value" : 11,
     "name" : "unwindstack::ARM64_REG_R11"
    },
    {
     "enum_field_value" : 12,
     "name" : "unwindstack::ARM64_REG_R12"
    },
    {
     "enum_field_value" : 13,
     "name" : "unwindstack::ARM64_REG_R13"
    },
    {
     "enum_field_value" : 14,
     "name" : "unwindstack::ARM64_REG_R14"
    },
    {
     "enum_field_value" : 15,
     "name" : "unwindstack::ARM64_REG_R15"
    },
    {
     "enum_field_value" : 16,
     "name" : "unwindstack::ARM64_REG_R16"
    },
    {
     "enum_field_value" : 17,
     "name" : "unwindstack::ARM64_REG_R17"
    },
    {
     "enum_field_value" : 18,
     "name" : "unwindstack::ARM64_REG_R18"
    },
    {
     "enum_field_value" : 19,
     "name" : "unwindstack::ARM64_REG_R19"
    },
    {
     "enum_field_value" : 20,
     "name" : "unwindstack::ARM64_REG_R20"
    },
    {
     "enum_field_value" : 21,
     "name" : "unwindstack::ARM64_REG_R21"
    },
    {
     "enum_field_value" : 22,
     "name" : "unwindstack::ARM64_REG_R22"
    },
    {
     "enum_field_value" : 23,
     "name" : "unwindstack::ARM64_REG_R23"
    },
    {
     "enum_field_value" : 24,
     "name" : "unwindstack::ARM64_REG_R24"
    },
    {
     "enum_field_value" : 25,
     "name" : "unwindstack::ARM64_REG_R25"
    },
    {
     "enum_field_value" : 26,
     "name" : "unwindstack::ARM64_REG_R26"
    },
    {
     "enum_field_value" : 27,
     "name" : "unwindstack::ARM64_REG_R27"
    },
    {
     "enum_field_value" : 28,
     "name" : "unwindstack::ARM64_REG_R28"
    },
    {
     "enum_field_value" : 29,
     "name" : "unwindstack::ARM64_REG_R29"
    },
    {
     "enum_field_value" : 30,
     "name" : "unwindstack::ARM64_REG_R30"
    },
    {
     "enum_field_value" : 31,
     "name" : "unwindstack::ARM64_REG_R31"
    },
    {
     "enum_field_value" : 32,
     "name" : "unwindstack::ARM64_REG_PC"
    },
    {
     "enum_field_value" : 33,
     "name" : "unwindstack::ARM64_REG_PSTATE"
    },
    {
     "enum_field_value" : 34,
     "name" : "unwindstack::ARM64_REG_LAST"
    },
    {
     "enum_field_value" : 31,
     "name" : "unwindstack::ARM64_REG_SP"
    },
    {
     "enum_field_value" : 30,
     "name" : "unwindstack::ARM64_REG_LR"
    }
   ],
   "linker_set_key" : "_ZTIN11unwindstack8Arm64RegE",
   "name" : "unwindstack::Arm64Reg",
   "referenced_type" : "_ZTIN11unwindstack8Arm64RegE",
   "self_type" : "_ZTIN11unwindstack8Arm64RegE",
   "size" : 2,
   "source_file" : "/system/core/libunwindstack/include/unwindstack/MachineArm64.h",
   "underlying_type" : "_ZTIt"
  },
  {
   "alignment" : 1,
   "enum_fields" :
   [
    {
     "enum_field_value" : 0,
     "name" : "unwindstack::ERROR_NONE"
    },
    {
     "enum_field_value" : 1,
     "name" : "unwindstack::ERROR_MEMORY_INVALID"
    },
    {
     "enum_field_value" : 2,
     "name" : "unwindstack::ERROR_UNWIND_INFO"
    },
    {
     "enum_field_value" : 3,
     "name" : "unwindstack::ERROR_UNSUPPORTED"
    },
    {
     "enum_field_value" : 4,
     "name" : "unwindstack::ERROR_INVALID_MAP"
    },
    {
     "enum_field_value" : 5,
     "name" : "unwindstack::ERROR_MAX_FRAMES_EXCEEDED"
    },
    {
     "enum_field_value" : 6,
     "name" : "unwindstack::ERROR_REPEATED_FRAME"
    },
    {
     "enum_field_value" : 7,
     "name" : "unwindstack::ERROR_INVALID_ELF"
    }
   ],
   "linker_set_key" : "_ZTIN11unwindstack9ErrorCodeE",
   "name" : "unwindstack::ErrorCode",
   "referenced_type" : "_ZTIN11unwindstack9ErrorCodeE",
   "self_type" : "_ZTIN11unwindstack9ErrorCodeE",
   "size" : 1,
   "source_file" : "/system/core/libunwindstack/include/unwindstack/Error.h",
   "underlying_type" : "_ZTIh"
  },
  {
   "alignment" : 2,
   "enum_fields" :
   [
    {
     "enum_field_value" : 0,
     "name" : "unwindstack::MIPS64_REG_R0"
    },
    {
     "enum_field_value" : 1,
     "name" : "unwindstack::MIPS64_REG_R1"
    },
    {
     "enum_field_value" : 2,
     "name" : "unwindstack::MIPS64_REG_R2"
    },
    {
     "enum_field_value" : 3,
     "name" : "unwindstack::MIPS64_REG_R3"
    },
    {
     "enum_field_value" : 4,
     "name" : "unwindstack::MIPS64_REG_R4"
    },
    {
     "enum_field_value" : 5,
     "name" : "unwindstack::MIPS64_REG_R5"
    },
    {
     "enum_field_value" : 6,
     "name" : "unwindstack::MIPS64_REG_R6"
    },
    {
     "enum_field_value" : 7,
     "name" : "unwindstack::MIPS64_REG_R7"
    },
    {
     "enum_field_value" : 8,
     "name" : "unwindstack::MIPS64_REG_R8"
    },
    {
     "enum_field_value" : 9,
     "name" : "unwindstack::MIPS64_REG_R9"
    },
    {
     "enum_field_value" : 10,
     "name" : "unwindstack::MIPS64_REG_R10"
    },
    {
     "enum_field_value" : 11,
     "name" : "unwindstack::MIPS64_REG_R11"
    },
    {
     "enum_field_value" : 12,
     "name" : "unwindstack::MIPS64_REG_R12"
    },
    {
     "enum_field_value" : 13,
     "name" : "unwindstack::MIPS64_REG_R13"
    },
    {
     "enum_field_value" : 14,
     "name" : "unwindstack::MIPS64_REG_R14"
    },
    {
     "enum_field_value" : 15,
     "name" : "unwindstack::MIPS64_REG_R15"
    },
    {
     "enum_field_value" : 16,
     "name" : "unwindstack::MIPS64_REG_R16"
    },
    {
     "enum_field_value" : 17,
     "name" : "unwindstack::MIPS64_REG_R17"
    },
    {
     "enum_field_value" : 18,
     "name" : "unwindstack::MIPS64_REG_R18"
    },
    {
     "enum_field_value" : 19,
     "name" : "unwindstack::MIPS64_REG_R19"
    },
    {
     "enum_field_value" : 20,
     "name" : "unwindstack::MIPS64_REG_R20"
    },
    {
     "enum_field_value" : 21,
     "name" : "unwindstack::MIPS64_REG_R21"
    },
    {
     "enum_field_value" : 22,
     "name" : "unwindstack::MIPS64_REG_R22"
    },
    {
     "enum_field_value" : 23,
     "name" : "unwindstack::MIPS64_REG_R23"
    },
    {
     "enum_field_value" : 24,
     "name" : "unwindstack::MIPS64_REG_R24"
    },
    {
     "enum_field_value" : 25,
     "name" : "unwindstack::MIPS64_REG_R25"
    },
    {
     "enum_field_value" : 26,
     "name" : "unwindstack::MIPS64_REG_R26"
    },
    {
     "enum_field_value" : 27,
     "name" : "unwindstack::MIPS64_REG_R27"
    },
    {
     "enum_field_value" : 28,
     "name" : "unwindstack::MIPS64_REG_R28"
    },
    {
     "enum_field_value" : 29,
     "name" : "unwindstack::MIPS64_REG_R29"
    },
    {
     "enum_field_value" : 30,
     "name" : "unwindstack::MIPS64_REG_R30"
    },
    {
     "enum_field_value" : 31,
     "name" : "unwindstack::MIPS64_REG_R31"
    },
    {
     "enum_field_value" : 32,
     "name" : "unwindstack::MIPS64_REG_PC"
    },
    {
     "enum_field_value" : 33,
     "name" : "unwindstack::MIPS64_REG_LAST"
    },
    {
     "enum_field_value" : 29,
     "name" : "unwindstack::MIPS64_REG_SP"
    },
    {
     "enum_field_value" : 31,
     "name" : "unwindstack::MIPS64_REG_RA"
    }
   ],
   "linker_set_key" : "_ZTIN11unwindstack9Mips64RegE",
   "name" : "unwindstack::Mips64Reg",
   "referenced_type" : "_ZTIN11unwindstack9Mips64RegE",
   "self_type" : "_ZTIN11unwindstack9Mips64RegE",
   "size" : 2,
   "source_file" : "/system/core/libunwindstack/include/unwindstack/MachineMips64.h",
   "underlying_type" : "_ZTIt"
  },
  {
   "alignment" : 2,
   "enum_fields" :
   [
    {
     "enum_field_value" : 0,
     "name" : "unwindstack::X86_64_REG_RAX"
    },
    {
     "enum_field_value" : 1,
     "name" : "unwindstack::X86_64_REG_RDX"
    },
    {
     "enum_field_value" : 2,
     "name" : "unwindstack::X86_64_REG_RCX"
    },
    {
     "enum_field_value" : 3,
     "name" : "unwindstack::X86_64_REG_RBX"
    },
    {
     "enum_field_value" : 4,
     "name" : "unwindstack::X86_64_REG_RSI"
    },
    {
     "enum_field_value" : 5,
     "name" : "unwindstack::X86_64_REG_RDI"
    },
    {
     "enum_field_value" : 6,
     "name" : "unwindstack::X86_64_REG_RBP"
    },
    {
     "enum_field_value" : 7,
     "name" : "unwindstack::X86_64_REG_RSP"
    },
    {
     "enum_field_value" : 8,
     "name" : "unwindstack::X86_64_REG_R8"
    },
    {
     "enum_field_value" : 9,
     "name" : "unwindstack::X86_64_REG_R9"
    },
    {
     "enum_field_value" : 10,
     "name" : "unwindstack::X86_64_REG_R10"
    },
    {
     "enum_field_value" : 11,
     "name" : "unwindstack::X86_64_REG_R11"
    },
    {
     "enum_field_value" : 12,
     "name" : "unwindstack::X86_64_REG_R12"
    },
    {
     "enum_field_value" : 13,
     "name" : "unwindstack::X86_64_REG_R13"
    },
    {
     "enum_field_value" : 14,
     "name" : "unwindstack::X86_64_REG_R14"
    },
    {
     "enum_field_value" : 15,
     "name" : "unwindstack::X86_64_REG_R15"
    },
    {
     "enum_field_value" : 16,
     "name" : "unwindstack::X86_64_REG_RIP"
    },
    {
     "enum_field_value" : 17,
     "name" : "unwindstack::X86_64_REG_LAST"
    },
    {
     "enum_field_value" : 7,
     "name" : "unwindstack::X86_64_REG_SP"
    },
    {
     "enum_field_value" : 16,
     "name" : "unwindstack::X86_64_REG_PC"
    }
   ],
   "linker_set_key" : "_ZTIN11unwindstack9X86_64RegE",
   "name" : "unwindstack::X86_64Reg",
   "referenced_type" : "_ZTIN11unwindstack9X86_64RegE",
   "self_type" : "_ZTIN11unwindstack9X86_64RegE",
   "size" : 2,
   "source_file" : "/system/core/libunwindstack/include/unwindstack/MachineX86_64.h",
   "underlying_type" : "_ZTIt"
  }
 ],
 "function_types" : [],
 "functions" :
 [
  {
   "function_name" : "unwindstack::BufferMaps::Parse",
   "linker_set_key" : "_ZN11unwindstack10BufferMaps5ParseEv",
   "parameters" :
   [
    {
     "is_this_ptr" : true,
     "referenced_type" : "_ZTIPN11unwindstack10BufferMapsE"
    }
   ],
   "return_type" : "_ZTIb",
   "source_file" : "/system/core/libunwindstack/include/unwindstack/Maps.h"
  },
  {
   "function_name" : "unwindstack::RegsMips64::GetPcAdjustment",
   "linker_set_key" : "_ZN11unwindstack10RegsMips6415GetPcAdjustmentEmPNS_3ElfE",
   "parameters" :
   [
    {
     "is_this_ptr" : true,
     "referenced_type" : "_ZTIPN11unwindstack10RegsMips64E"
    },
    {
     "referenced_type" : "_ZTIm"
    },
    {
     "referenced_type" : "_ZTIPN11unwindstack3ElfE"
    }
   ],
   "return_type" : "_ZTIm",
   "source_file" : "/system/core/libunwindstack/include/unwindstack/RegsMips64.h"
  },
  {
   "function_name" : "unwindstack::RegsMips64::IterateRegisters",
   "linker_set_key" : "_ZN11unwindstack10RegsMips6416IterateRegistersENSt3__18functionIFvPKcmEEE",
   "parameters" :
   [
    {
     "is_this_ptr" : true,
     "referenced_type" : "_ZTIPN11unwindstack10RegsMips64E"
    },
    {
     "referenced_type" : "_ZTINSt3__18functionIFvPKcmEEE"
    }
   ],
   "return_type" : "_ZTIv",
   "source_file" : "/system/core/libunwindstack/include/unwindstack/RegsMips64.h"
  },
  {
   "function_name" : "unwindstack::RegsMips64::CreateFromUcontext",
   "linker_set_key" : "_ZN11unwindstack10RegsMips6418CreateFromUcontextEPv",
   "parameters" :
   [
    {
     "referenced_type" : "_ZTIPv"
    }
   ],
   "return_type" : "_ZTIPN11unwindstack4RegsE",
   "source_file" : "/system/core/libunwindstack/include/unwindstack/RegsMips64.h"
  },
  {
   "function_name" : "unwindstack::RegsMips64::StepIfSignalHandler",
   "linker_set_key" : "_ZN11unwindstack10RegsMips6419StepIfSignalHandlerEmPNS_3ElfEPNS_6MemoryE",
   "parameters" :
   [
    {
     "is_this_ptr" : true,
     "referenced_type" : "_ZTIPN11unwindstack10RegsMips64E"
    },
    {
     "referenced_type" : "_ZTIm"
    },
    {
     "referenced_type" : "_ZTIPN11unwindstack3ElfE"
    },
    {
     "referenced_type" : "_ZTIPN11unwindstack6MemoryE"
    }
   ],
   "return_type" : "_ZTIb",
   "source_file" : "/system/core/libunwindstack/include/unwindstack/RegsMips64.h"
  },
  {
   "function_name" : "unwindstack::RegsMips64::SetPcFromReturnAddress",
   "linker_set_key" : "_ZN11unwindstack10RegsMips6422SetPcFromReturnAddressEPNS_6MemoryE",
   "parameters" :
   [
    {
     "is_this_ptr" : true,
     "referenced_type" : "_ZTIPN11unwindstack10RegsMips64E"
    },
    {
     "referenced_type" : "_ZTIPN11unwindstack6MemoryE"
    }
   ],
   "return_type" : "_ZTIb",
   "source_file" : "/system/core/libunwindstack/include/unwindstack/RegsMips64.h"
  },
  {
   "function_name" : "unwindstack::RegsMips64::pc",
   "linker_set_key" : "_ZN11unwindstack10RegsMips642pcEv",
   "parameters" :
   [
    {
     "is_this_ptr" : true,
     "referenced_type" : "_ZTIPN11unwindstack10RegsMips64E"
    }
   ],
   "return_type" : "_ZTIm",
   "source_file" : "/system/core/libunwindstack/include/unwindstack/RegsMips64.h"
  },
  {
   "function_name" : "unwindstack::RegsMips64::sp",
   "linker_set_key" : "_ZN11unwindstack10RegsMips642spEv",
   "parameters" :
   [
    {
     "is_this_ptr" : true,
     "referenced_type" : "_ZTIPN11unwindstack10RegsMips64E"
    }
   ],
   "return_type" : "_ZTIm",
   "source_file" : "/system/core/libunwindstack/include/unwindstack/RegsMips64.h"
  },
  {
   "function_name" : "unwindstack::RegsMips64::Arch",
   "linker_set_key" : "_ZN11unwindstack10RegsMips644ArchEv",
   "parameters" :
   [
    {
     "is_this_ptr" : true,
     "referenced_type" : "_ZTIPN11unwindstack10RegsMips64E"
    }
   ],
   "return_type" : "_ZTIN11unwindstack8ArchEnumE",
   "source_file" : "/system/core/libunwindstack/include/unwindstack/RegsMips64.h"
  },
  {
   "function_name" : "unwindstack::RegsMips64::Read",
   "linker_set_key" : "_ZN11unwindstack10RegsMips644ReadEPv",
   "parameters" :
   [
    {
     "referenced_type" : "_ZTIPv"
    }
   ],
   "return_type" : "_ZTIPN11unwindstack4RegsE",
   "source_file" : "/system/core/libunwindstack/include/unwindstack/RegsMips64.h"
  },
  {
   "function_name" : "unwindstack::RegsMips64::Clone",
   "linker_set_key" : "_ZN11unwindstack10RegsMips645CloneEv",
   "parameters" :
   [
    {
     "is_this_ptr" : true,
     "referenced_type" : "_ZTIPN11unwindstack10RegsMips64E"
    }
   ],
   "return_type" : "_ZTIPN11unwindstack4RegsE",
   "source_file" : "/system/core/libunwindstack/include/unwindstack/RegsMips64.h"
  },
  {
   "function_name" : "unwindstack::RegsMips64::set_pc",
   "linker_set_key" : "_ZN11unwindstack10RegsMips646set_pcEm",
   "parameters" :
   [
    {
     "is_this_ptr" : true,
     "referenced_type" : "_ZTIPN11unwindstack10RegsMips64E"
    },
    {
     "referenced_type" : "_ZTIm"
    }
   ],
   "return_type" : "_ZTIv",
   "source_file" : "/system/core/libunwindstack/include/unwindstack/RegsMips64.h"
  },
  {
   "function_name" : "unwindstack::RegsMips64::set_sp",
   "linker_set_key" : "_ZN11unwindstack10RegsMips646set_spEm",
   "parameters" :
   [
    {
     "is_this_ptr" : true,
     "referenced_type" : "_ZTIPN11unwindstack10RegsMips64E"
    },
    {
     "referenced_type" : "_ZTIm"
    }
   ],
   "return_type" : "_ZTIv",
   "source_file" : "/system/core/libunwindstack/include/unwindstack/RegsMips64.h"
  },
  {
   "function_name" : "unwindstack::RegsMips64::RegsMips64",
   "linker_set_key" : "_ZN11unwindstack10RegsMips64C1Ev",
   "parameters" :
   [
    {
     "is_this_ptr" : true,
     "referenced_type" : "_ZTIPN11unwindstack10RegsMips64E"
    }
   ],
   "return_type" : "_ZTIv",
   "source_file" : "/system/core/libunwindstack/include/unwindstack/RegsMips64.h"
  },
  {
   "function_name" : "unwindstack::RegsMips64::RegsMips64",
   "linker_set_key" : "_ZN11unwindstack10RegsMips64C2Ev",
   "parameters" :
   [
    {
     "is_this_ptr" : true,
     "referenced_type" : "_ZTIPN11unwindstack10RegsMips64E"
    }
   ],
   "return_type" : "_ZTIv",
   "source_file" : "/system/core/libunwindstack/include/unwindstack/RegsMips64.h"
  },
  {
   "function_name" : "unwindstack::RegsX86_64::GetPcAdjustment",
   "linker_set_key" : "_ZN11unwindstack10RegsX86_6415GetPcAdjustmentEmPNS_3ElfE",
   "parameters" :
   [
    {
     "is_this_ptr" : true,
     "referenced_type" : "_ZTIPN11unwindstack10RegsX86_64E"
    },
    {
     "referenced_type" : "_ZTIm"
    },
    {
     "referenced_type" : "_ZTIPN11unwindstack3ElfE"
    }
   ],
   "return_type" : "_ZTIm",
   "source_file" : "/system/core/libunwindstack/include/unwindstack/RegsX86_64.h"
  },
  {
   "function_name" : "unwindstack::RegsX86_64::SetFromUcontext",
   "linker_set_key" : "_ZN11unwindstack10RegsX86_6415SetFromUcontextEPNS_17x86_64_ucontext_tE",
   "parameters" :
   [
    {
     "is_this_ptr" : true,
     "referenced_type" : "_ZTIPN11unwindstack10RegsX86_64E"
    },
    {
     "referenced_type" : "_ZTIPN11unwindstack17x86_64_ucontext_tE"
    }
   ],
   "return_type" : "_ZTIv",
   "source_file" : "/system/core/libunwindstack/include/unwindstack/RegsX86_64.h"
  },
  {
   "function_name" : "unwindstack::RegsX86_64::IterateRegisters",
   "linker_set_key" : "_ZN11unwindstack10RegsX86_6416IterateRegistersENSt3__18functionIFvPKcmEEE",
   "parameters" :
   [
    {
     "is_this_ptr" : true,
     "referenced_type" : "_ZTIPN11unwindstack10RegsX86_64E"
    },
    {
     "referenced_type" : "_ZTINSt3__18functionIFvPKcmEEE"
    }
   ],
   "return_type" : "_ZTIv",
   "source_file" : "/system/core/libunwindstack/include/unwindstack/RegsX86_64.h"
  },
  {
   "function_name" : "unwindstack::RegsX86_64::CreateFromUcontext",
   "linker_set_key" : "_ZN11unwindstack10RegsX86_6418CreateFromUcontextEPv",
   "parameters" :
   [
    {
     "referenced_type" : "_ZTIPv"
    }
   ],
   "return_type" : "_ZTIPN11unwindstack4RegsE",
   "source_file" : "/system/core/libunwindstack/include/unwindstack/RegsX86_64.h"
  },
  {
   "function_name" : "unwindstack::RegsX86_64::StepIfSignalHandler",
   "linker_set_key" : "_ZN11unwindstack10RegsX86_6419StepIfSignalHandlerEmPNS_3ElfEPNS_6MemoryE",
   "parameters" :
   [
    {
     "is_this_ptr" : true,
     "referenced_type" : "_ZTIPN11unwindstack10RegsX86_64E"
    },
    {
     "referenced_type" : "_ZTIm"
    },
    {
     "referenced_type" : "_ZTIPN11unwindstack3ElfE"
    },
    {
     "referenced_type" : "_ZTIPN11unwindstack6MemoryE"
    }
   ],
   "return_type" : "_ZTIb",
   "source_file" : "/system/core/libunwindstack/include/unwindstack/RegsX86_64.h"
  },
  {
   "function_name" : "unwindstack::RegsX86_64::SetPcFromReturnAddress",
   "linker_set_key" : "_ZN11unwindstack10RegsX86_6422SetPcFromReturnAddressEPNS_6MemoryE",
   "parameters" :
   [
    {
     "is_this_ptr" : true,
     "referenced_type" : "_ZTIPN11unwindstack10RegsX86_64E"
    },
    {
     "referenced_type" : "_ZTIPN11unwindstack6MemoryE"
    }
   ],
   "return_type" : "_ZTIb",
   "source_file" : "/system/core/libunwindstack/include/unwindstack/RegsX86_64.h"
  },
  {
   "function_name" : "unwindstack::RegsX86_64::pc",
   "linker_set_key" : "_ZN11unwindstack10RegsX86_642pcEv",
   "parameters" :
   [
    {
     "is_this_ptr" : true,
     "referenced_type" : "_ZTIPN11unwindstack10RegsX86_64E"
    }
   ],
   "return_type" : "_ZTIm",
   "source_file" : "/system/core/libunwindstack/include/unwindstack/RegsX86_64.h"
  },
  {
   "function_name" : "unwindstack::RegsX86_64::sp",
   "linker_set_key" : "_ZN11unwindstack10RegsX86_642spEv",
   "parameters" :
   [
    {
     "is_this_ptr" : true,
     "referenced_type" : "_ZTIPN11unwindstack10RegsX86_64E"
    }
   ],
   "return_type" : "_ZTIm",
   "source_file" : "/system/core/libunwindstack/include/unwindstack/RegsX86_64.h"
  },
  {
   "function_name" : "unwindstack::RegsX86_64::Arch",
   "linker_set_key" : "_ZN11unwindstack10RegsX86_644ArchEv",
   "parameters" :
   [
    {
     "is_this_ptr" : true,
     "referenced_type" : "_ZTIPN11unwindstack10RegsX86_64E"
    }
   ],
   "return_type" : "_ZTIN11unwindstack8ArchEnumE",
   "source_file" : "/system/core/libunwindstack/include/unwindstack/RegsX86_64.h"
  },
  {
   "function_name" : "unwindstack::RegsX86_64::Read",
   "linker_set_key" : "_ZN11unwindstack10RegsX86_644ReadEPv",
   "parameters" :
   [
    {
     "referenced_type" : "_ZTIPv"
    }
   ],
   "return_type" : "_ZTIPN11unwindstack4RegsE",
   "source_file" : "/system/core/libunwindstack/include/unwindstack/RegsX86_64.h"
  },
  {
   "function_name" : "unwindstack::RegsX86_64::Clone",
   "linker_set_key" : "_ZN11unwindstack10RegsX86_645CloneEv",
   "parameters" :
   [
    {
     "is_this_ptr" : true,
     "referenced_type" : "_ZTIPN11unwindstack10RegsX86_64E"
    }
   ],
   "return_type" : "_ZTIPN11unwindstack4RegsE",
   "source_file" : "/system/core/libunwindstack/include/unwindstack/RegsX86_64.h"
  },
  {
   "function_name" : "unwindstack::RegsX86_64::set_pc",
   "linker_set_key" : "_ZN11unwindstack10RegsX86_646set_pcEm",
   "parameters" :
   [
    {
     "is_this_ptr" : true,
     "referenced_type" : "_ZTIPN11unwindstack10RegsX86_64E"
    },
    {
     "referenced_type" : "_ZTIm"
    }
   ],
   "return_type" : "_ZTIv",
   "source_file" : "/system/core/libunwindstack/include/unwindstack/RegsX86_64.h"
  },
  {
   "function_name" : "unwindstack::RegsX86_64::set_sp",
   "linker_set_key" : "_ZN11unwindstack10RegsX86_646set_spEm",
   "parameters" :
   [
    {
     "is_this_ptr" : true,
     "referenced_type" : "_ZTIPN11unwindstack10RegsX86_64E"
    },
    {
     "referenced_type" : "_ZTIm"
    }
   ],
   "return_type" : "_ZTIv",
   "source_file" : "/system/core/libunwindstack/include/unwindstack/RegsX86_64.h"
  },
  {
   "function_name" : "unwindstack::RegsX86_64::RegsX86_64",
   "linker_set_key" : "_ZN11unwindstack10RegsX86_64C1Ev",
   "parameters" :
   [
    {
     "is_this_ptr" : true,
     "referenced_type" : "_ZTIPN11unwindstack10RegsX86_64E"
    }
   ],
   "return_type" : "_ZTIv",
   "source_file" : "/system/core/libunwindstack/include/unwindstack/RegsX86_64.h"
  },
  {
   "function_name" : "unwindstack::RegsX86_64::RegsX86_64",
   "linker_set_key" : "_ZN11unwindstack10RegsX86_64C2Ev",
   "parameters" :
   [
    {
     "is_this_ptr" : true,
     "referenced_type" : "_ZTIPN11unwindstack10RegsX86_64E"
    }
   ],
   "return_type" : "_ZTIv",
   "source_file" : "/system/core/libunwindstack/include/unwindstack/RegsX86_64.h"
  },
  {
   "function_name" : "unwindstack::DwarfMemory::ReadSLEB128",
   "linker_set_key" : "_ZN11unwindstack11DwarfMemory11ReadSLEB128EPl",
   "parameters" :
   [
    {
     "is_this_ptr" : true,
     "referenced_type" : "_ZTIPN11unwindstack11DwarfMemoryE"
    },
    {
     "referenced_type" : "_ZTIPl"
    }
   ],
   "return_type" : "_ZTIb",
   "source_file" : "/system/core/libunwindstack/include/unwindstack/DwarfMemory.h"
  },
  {
   "function_name" : "unwindstack::DwarfMemory::ReadULEB128",
   "linker_set_key" : "_ZN11unwindstack11DwarfMemory11ReadULEB128EPm",
   "parameters" :
   [
    {
     "is_this_ptr" : true,
     "referenced_type" : "_ZTIPN11unwindstack11DwarfMemoryE"
    },
    {
     "referenced_type" : "_ZTIPm"
    }
   ],
   "return_type" : "_ZTIb",
   "source_file" : "/system/core/libunwindstack/include/unwindstack/DwarfMemory.h"
  },
  {
   "function_name" : "unwindstack::DwarfMemory::AdjustEncodedValue",
   "linker_set_key" : "_ZN11unwindstack11DwarfMemory18AdjustEncodedValueEhPm",
   "parameters" :
   [
    {
     "is_this_ptr" : true,
     "referenced_type" : "_ZTIPN11unwindstack11DwarfMemoryE"
    },
    {
     "referenced_type" : "_ZTIh"
    },
    {
     "referenced_type" : "_ZTIPm"
    }
   ],
   "return_type" : "_ZTIb",
   "source_file" : "/system/core/libunwindstack/include/unwindstack/DwarfMemory.h"
  },
  {
   "function_name" : "unwindstack::DwarfMemory::ReadBytes",
   "linker_set_key" : "_ZN11unwindstack11DwarfMemory9ReadBytesEPvm",
   "parameters" :
   [
    {
     "is_this_ptr" : true,
     "referenced_type" : "_ZTIPN11unwindstack11DwarfMemoryE"
    },
    {
     "referenced_type" : "_ZTIPv"
    },
    {
     "referenced_type" : "_ZTIm"
    }
   ],
   "return_type" : "_ZTIb",
   "source_file" : "/system/core/libunwindstack/include/unwindstack/DwarfMemory.h"
  },
  {
   "function_name" : "unwindstack::DwarfSection::Step",
   "linker_set_key" : "_ZN11unwindstack12DwarfSection4StepEmPNS_4RegsEPNS_6MemoryEPb",
   "parameters" :
   [
    {
     "is_this_ptr" : true,
     "referenced_type" : "_ZTIPN11unwindstack12DwarfSectionE"
    },
    {
     "referenced_type" : "_ZTIm"
    },
    {
     "referenced_type" : "_ZTIPN11unwindstack4RegsE"
    },
    {
     "referenced_type" : "_ZTIPN11unwindstack6MemoryE"
    },
    {
     "referenced_type" : "_ZTIPb"
    }
   ],
   "return_type" : "_ZTIb",
   "source_file" : "/system/core/libunwindstack/include/unwindstack/DwarfSection.h"
  },
  {
   "function_name" : "unwindstack::DwarfSection::DwarfSection",
   "linker_set_key" : "_ZN11unwindstack12DwarfSectionC2EPNS_6MemoryE",
   "parameters" :
   [
    {
     "is_this_ptr" : true,
     "referenced_type" : "_ZTIPN11unwindstack12DwarfSectionE"
    },
    {
     "referenced_type" : "_ZTIPN11unwindstack6MemoryE"
    }
   ],
   "return_type" : "_ZTIv",
   "source_file" : "/system/core/libunwindstack/include/unwindstack/DwarfSection.h"
  },
  {
   "access" : "protected",
   "function_name" : "unwindstack::ElfInterface::ReadBuildID",
   "linker_set_key" : "_ZN11unwindstack12ElfInterface11ReadBuildIDI10elf32_noteEENSt3__112basic_stringIcNS3_11char_traitsIcEENS3_9allocatorIcEEEEv",
   "parameters" :
   [
    {
     "is_this_ptr" : true,
     "referenced_type" : "_ZTIPN11unwindstack12ElfInterfaceE"
    }
   ],
   "return_type" : "_ZTINSt3__112basic_stringIcNS_11char_traitsIcEENS_9allocatorIcEEEE",
   "source_file" : "/system/core/libunwindstack/include/unwindstack/ElfInterface.h",
   "template_args" : [ "_ZTI10elf32_note" ]
  },
  {
   "access" : "protected",
   "function_name" : "unwindstack::ElfInterface::ReadBuildID",
   "linker_set_key" : "_ZN11unwindstack12ElfInterface11ReadBuildIDI10elf64_noteEENSt3__112basic_stringIcNS3_11char_traitsIcEENS3_9allocatorIcEEEEv",
   "parameters" :
   [
    {
     "is_this_ptr" : true,
     "referenced_type" : "_ZTIPN11unwindstack12ElfInterfaceE"
    }
   ],
   "return_type" : "_ZTINSt3__112basic_stringIcNS_11char_traitsIcEENS_9allocatorIcEEEE",
   "source_file" : "/system/core/libunwindstack/include/unwindstack/ElfInterface.h",
   "template_args" : [ "_ZTI10elf64_note" ]
  },
  {
   "access" : "protected",
   "function_name" : "unwindstack::ElfInterface::ReadAllHeaders",
   "linker_set_key" : "_ZN11unwindstack12ElfInterface14ReadAllHeadersI9elf32_hdr10elf32_phdr10elf32_shdrEEbPl",
   "parameters" :
   [
    {
     "is_this_ptr" : true,
     "referenced_type" : "_ZTIPN11unwindstack12ElfInterfaceE"
    },
    {
     "referenced_type" : "_ZTIPl"
    }
   ],
   "return_type" : "_ZTIb",
   "source_file" : "/system/core/libunwindstack/include/unwindstack/ElfInterface.h",
   "template_args" : [ "_ZTI9elf32_hdr", "_ZTI10elf32_phdr", "_ZTI10elf32_shdr" ]
  },
  {
   "access" : "protected",
   "function_name" : "unwindstack::ElfInterface::ReadAllHeaders",
   "linker_set_key" : "_ZN11unwindstack12ElfInterface14ReadAllHeadersI9elf64_hdr10elf64_phdr10elf64_shdrEEbPl",
   "parameters" :
   [
    {
     "is_this_ptr" : true,
     "referenced_type" : "_ZTIPN11unwindstack12ElfInterfaceE"
    },
    {
     "referenced_type" : "_ZTIPl"
    }
   ],
   "return_type" : "_ZTIb",
   "source_file" : "/system/core/libunwindstack/include/unwindstack/ElfInterface.h",
   "template_args" : [ "_ZTI9elf64_hdr", "_ZTI10elf64_phdr", "_ZTI10elf64_shdr" ]
  },
  {
   "access" : "protected",
   "function_name" : "unwindstack::ElfInterface::ReadProgramHeaders",
   "linker_set_key" : "_ZN11unwindstack12ElfInterface18ReadProgramHeadersI9elf32_hdr10elf32_phdrEEvRKT_Pl",
   "parameters" :
   [
    {
     "is_this_ptr" : true,
     "referenced_type" : "_ZTIPN11unwindstack12ElfInterfaceE"
    },
    {
     "referenced_type" : "_ZTIRK9elf32_hdr"
    },
    {
     "referenced_type" : "_ZTIPl"
    }
   ],
   "return_type" : "_ZTIv",
   "source_file" : "/system/core/libunwindstack/include/unwindstack/ElfInterface.h",
   "template_args" : [ "_ZTI9elf32_hdr", "_ZTI10elf32_phdr" ]
  },
  {
   "access" : "protected",
   "function_name" : "unwindstack::ElfInterface::ReadProgramHeaders",
   "linker_set_key" : "_ZN11unwindstack12ElfInterface18ReadProgramHeadersI9elf64_hdr10elf64_phdrEEvRKT_Pl",
   "parameters" :
   [
    {
     "is_this_ptr" : true,
     "referenced_type" : "_ZTIPN11unwindstack12ElfInterfaceE"
    },
    {
     "referenced_type" : "_ZTIRK9elf64_hdr"
    },
    {
     "referenced_type" : "_ZTIPl"
    }
   ],
   "return_type" : "_ZTIv",
   "source_file" : "/system/core/libunwindstack/include/unwindstack/ElfInterface.h",
   "template_args" : [ "_ZTI9elf64_hdr", "_ZTI10elf64_phdr" ]
  },
  {
   "access" : "protected",
   "function_name" : "unwindstack::ElfInterface::ReadSectionHeaders",
   "linker_set_key" : "_ZN11unwindstack12ElfInterface18ReadSectionHeadersI9elf32_hdr10elf32_shdrEEvRKT_",
   "parameters" :
   [
    {
     "is_this_ptr" : true,
     "referenced_type" : "_ZTIPN11unwindstack12ElfInterfaceE"
    },
    {
     "referenced_type" : "_ZTIRK9elf32_hdr"
    }
   ],
   "return_type" : "_ZTIv",
   "source_file" : "/system/core/libunwindstack/include/unwindstack/ElfInterface.h",
   "template_args" : [ "_ZTI9elf32_hdr", "_ZTI10elf32_shdr" ]
  },
  {
   "access" : "protected",
   "function_name" : "unwindstack::ElfInterface::ReadSectionHeaders",
   "linker_set_key" : "_ZN11unwindstack12ElfInterface18ReadSectionHeadersI9elf64_hdr10elf64_shdrEEvRKT_",
   "parameters" :
   [
    {
     "is_this_ptr" : true,
     "referenced_type" : "_ZTIPN11unwindstack12ElfInterfaceE"
    },
    {
     "referenced_type" : "_ZTIRK9elf64_hdr"
    }
   ],
   "return_type" : "_ZTIv",
   "source_file" : "/system/core/libunwindstack/include/unwindstack/ElfInterface.h",
   "template_args" : [ "_ZTI9elf64_hdr", "_ZTI10elf64_shdr" ]
  },
  {
   "access" : "protected",
   "function_name" : "unwindstack::ElfInterface::GetSonameWithTemplate",
   "linker_set_key" : "_ZN11unwindstack12ElfInterface21GetSonameWithTemplateI7dynamicEENSt3__112basic_stringIcNS3_11char_traitsIcEENS3_9allocatorIcEEEEv",
   "parameters" :
   [
    {
     "is_this_ptr" : true,
     "referenced_type" : "_ZTIPN11unwindstack12ElfInterfaceE"
    }
   ],
   "return_type" : "_ZTINSt3__112basic_stringIcNS_11char_traitsIcEENS_9allocatorIcEEEE",
   "source_file" : "/system/core/libunwindstack/include/unwindstack/ElfInterface.h",
   "template_args" : [ "_ZTI7dynamic" ]
  },
  {
   "access" : "protected",
   "function_name" : "unwindstack::ElfInterface::GetSonameWithTemplate",
   "linker_set_key" : "_ZN11unwindstack12ElfInterface21GetSonameWithTemplateI9Elf64_DynEENSt3__112basic_stringIcNS3_11char_traitsIcEENS3_9allocatorIcEEEEv",
   "parameters" :
   [
    {
     "is_this_ptr" : true,
     "referenced_type" : "_ZTIPN11unwindstack12ElfInterfaceE"
    }
   ],
   "return_type" : "_ZTINSt3__112basic_stringIcNS_11char_traitsIcEENS_9allocatorIcEEEE",
   "source_file" : "/system/core/libunwindstack/include/unwindstack/ElfInterface.h",
   "template_args" : [ "_ZTI9Elf64_Dyn" ]
  },
  {
   "access" : "protected",
   "function_name" : "unwindstack::ElfInterface::GetMaxSizeWithTemplate",
   "linker_set_key" : "_ZN11unwindstack12ElfInterface22GetMaxSizeWithTemplateI9elf32_hdrEEvPNS_6MemoryEPm",
   "parameters" :
   [
    {
     "referenced_type" : "_ZTIPN11unwindstack6MemoryE"
    },
    {
     "referenced_type" : "_ZTIPm"
    }
   ],
   "return_type" : "_ZTIv",
   "source_file" : "/system/core/libunwindstack/include/unwindstack/ElfInterface.h",
   "template_args" : [ "_ZTI9elf32_hdr" ]
  },
  {
   "access" : "protected",
   "function_name" : "unwindstack::ElfInterface::GetMaxSizeWithTemplate",
   "linker_set_key" : "_ZN11unwindstack12ElfInterface22GetMaxSizeWithTemplateI9elf64_hdrEEvPNS_6MemoryEPm",
   "parameters" :
   [
    {
     "referenced_type" : "_ZTIPN11unwindstack6MemoryE"
    },
    {
     "referenced_type" : "_ZTIPm"
    }
   ],
   "return_type" : "_ZTIv",
   "source_file" : "/system/core/libunwindstack/include/unwindstack/ElfInterface.h",
   "template_args" : [ "_ZTI9elf64_hdr" ]
  },
  {
   "access" : "protected",
   "function_name" : "unwindstack::ElfInterface::InitHeadersWithTemplate",
   "linker_set_key" : "_ZN11unwindstack12ElfInterface23InitHeadersWithTemplateIjEEvv",
   "parameters" :
   [
    {
     "is_this_ptr" : true,
     "referenced_type" : "_ZTIPN11unwindstack12ElfInterfaceE"
    }
   ],
   "return_type" : "_ZTIv",
   "source_file" : "/system/core/libunwindstack/include/unwindstack/ElfInterface.h",
   "template_args" : [ "_ZTIj" ]
  },
  {
   "access" : "protected",
   "function_name" : "unwindstack::ElfInterface::InitHeadersWithTemplate",
   "linker_set_key" : "_ZN11unwindstack12ElfInterface23InitHeadersWithTemplateImEEvv",
   "parameters" :
   [
    {
     "is_this_ptr" : true,
     "referenced_type" : "_ZTIPN11unwindstack12ElfInterfaceE"
    }
   ],
   "return_type" : "_ZTIv",
   "source_file" : "/system/core/libunwindstack/include/unwindstack/ElfInterface.h",
   "template_args" : [ "_ZTIm" ]
  },
  {
   "function_name" : "unwindstack::ElfInterface::CreateGnuDebugdataMemory",
   "linker_set_key" : "_ZN11unwindstack12ElfInterface24CreateGnuDebugdataMemoryEv",
   "parameters" :
   [
    {
     "is_this_ptr" : true,
     "referenced_type" : "_ZTIPN11unwindstack12ElfInterfaceE"
    }
   ],
   "return_type" : "_ZTIPN11unwindstack6MemoryE",
   "source_file" : "/system/core/libunwindstack/include/unwindstack/ElfInterface.h"
  },
  {
   "access" : "protected",
   "function_name" : "unwindstack::ElfInterface::GetFunctionNameWithTemplate",
   "linker_set_key" : "_ZN11unwindstack12ElfInterface27GetFunctionNameWithTemplateI9elf32_symEEbmPNSt3__112basic_stringIcNS3_11char_traitsIcEENS3_9allocatorIcEEEEPm",
   "parameters" :
   [
    {
     "is_this_ptr" : true,
     "referenced_type" : "_ZTIPN11unwindstack12ElfInterfaceE"
    },
    {
     "referenced_type" : "_ZTIm"
    },
    {
     "referenced_type" : "_ZTIPNSt3__112basic_stringIcNS_11char_traitsIcEENS_9allocatorIcEEEE"
    },
    {
     "referenced_type" : "_ZTIPm"
    }
   ],
   "return_type" : "_ZTIb",
   "source_file" : "/system/core/libunwindstack/include/unwindstack/ElfInterface.h",
   "template_args" : [ "_ZTI9elf32_sym" ]
  },
  {
   "access" : "protected",
   "function_name" : "unwindstack::ElfInterface::GetFunctionNameWithTemplate",
   "linker_set_key" : "_ZN11unwindstack12ElfInterface27GetFunctionNameWithTemplateI9elf64_symEEbmPNSt3__112basic_stringIcNS3_11char_traitsIcEENS3_9allocatorIcEEEEPm",
   "parameters" :
   [
    {
     "is_this_ptr" : true,
     "referenced_type" : "_ZTIPN11unwindstack12ElfInterfaceE"
    },
    {
     "referenced_type" : "_ZTIm"
    },
    {
     "referenced_type" : "_ZTIPNSt3__112basic_stringIcNS_11char_traitsIcEENS_9allocatorIcEEEE"
    },
    {
     "referenced_type" : "_ZTIPm"
    }
   ],
   "return_type" : "_ZTIb",
   "source_file" : "/system/core/libunwindstack/include/unwindstack/ElfInterface.h",
   "template_args" : [ "_ZTI9elf64_sym" ]
  },
  {
   "access" : "protected",
   "function_name" : "unwindstack::ElfInterface::GetGlobalVariableWithTemplate",
   "linker_set_key" : "_ZN11unwindstack12ElfInterface29GetGlobalVariableWithTemplateI9elf32_symEEbRKNSt3__112basic_stringIcNS3_11char_traitsIcEENS3_9allocatorIcEEEEPm",
   "parameters" :
   [
    {
     "is_this_ptr" : true,
     "referenced_type" : "_ZTIPN11unwindstack12ElfInterfaceE"
    },
    {
     "referenced_type" : "_ZTIRKNSt3__112basic_stringIcNS_11char_traitsIcEENS_9allocatorIcEEEE"
    },
    {
     "referenced_type" : "_ZTIPm"
    }
   ],
   "return_type" : "_ZTIb",
   "source_file" : "/system/core/libunwindstack/include/unwindstack/ElfInterface.h",
   "template_args" : [ "_ZTI9elf32_sym" ]
  },
  {
   "access" : "protected",
   "function_name" : "unwindstack::ElfInterface::GetGlobalVariableWithTemplate",
   "linker_set_key" : "_ZN11unwindstack12ElfInterface29GetGlobalVariableWithTemplateI9elf64_symEEbRKNSt3__112basic_stringIcNS3_11char_traitsIcEENS3_9allocatorIcEEEEPm",
   "parameters" :
   [
    {
     "is_this_ptr" : true,
     "referenced_type" : "_ZTIPN11unwindstack12ElfInterfaceE"
    },
    {
     "referenced_type" : "_ZTIRKNSt3__112basic_stringIcNS_11char_traitsIcEENS_9allocatorIcEEEE"
    },
    {
     "referenced_type" : "_ZTIPm"
    }
   ],
   "return_type" : "_ZTIb",
   "source_file" : "/system/core/libunwindstack/include/unwindstack/ElfInterface.h",
   "template_args" : [ "_ZTI9elf64_sym" ]
  },
  {
   "function_name" : "unwindstack::ElfInterface::Step",
   "linker_set_key" : "_ZN11unwindstack12ElfInterface4StepEmPNS_4RegsEPNS_6MemoryEPb",
   "parameters" :
   [
    {
     "is_this_ptr" : true,
     "referenced_type" : "_ZTIPN11unwindstack12ElfInterfaceE"
    },
    {
     "referenced_type" : "_ZTIm"
    },
    {
     "referenced_type" : "_ZTIPN11unwindstack4RegsE"
    },
    {
     "referenced_type" : "_ZTIPN11unwindstack6MemoryE"
    },
    {
     "referenced_type" : "_ZTIPb"
    }
   ],
   "return_type" : "_ZTIb",
   "source_file" : "/system/core/libunwindstack/include/unwindstack/ElfInterface.h"
  },
  {
   "function_name" : "unwindstack::ElfInterface::IsValidPc",
   "linker_set_key" : "_ZN11unwindstack12ElfInterface9IsValidPcEm",
   "parameters" :
   [
    {
     "is_this_ptr" : true,
     "referenced_type" : "_ZTIPN11unwindstack12ElfInterfaceE"
    },
    {
     "referenced_type" : "_ZTIm"
    }
   ],
   "return_type" : "_ZTIb",
   "source_file" : "/system/core/libunwindstack/include/unwindstack/ElfInterface.h"
  },
  {
   "function_name" : "unwindstack::ElfInterface::~ElfInterface",
   "linker_set_key" : "_ZN11unwindstack12ElfInterfaceD0Ev",
   "parameters" :
   [
    {
     "is_this_ptr" : true,
     "referenced_type" : "_ZTIPN11unwindstack12ElfInterfaceE"
    }
   ],
   "return_type" : "_ZTIv",
   "source_file" : "/system/core/libunwindstack/include/unwindstack/ElfInterface.h"
  },
  {
   "function_name" : "unwindstack::ElfInterface::~ElfInterface",
   "linker_set_key" : "_ZN11unwindstack12ElfInterfaceD1Ev",
   "parameters" :
   [
    {
     "is_this_ptr" : true,
     "referenced_type" : "_ZTIPN11unwindstack12ElfInterfaceE"
    }
   ],
   "return_type" : "_ZTIv",
   "source_file" : "/system/core/libunwindstack/include/unwindstack/ElfInterface.h"
  },
  {
   "function_name" : "unwindstack::ElfInterface::~ElfInterface",
   "linker_set_key" : "_ZN11unwindstack12ElfInterfaceD2Ev",
   "parameters" :
   [
    {
     "is_this_ptr" : true,
     "referenced_type" : "_ZTIPN11unwindstack12ElfInterfaceE"
    }
   ],
   "return_type" : "_ZTIv",
   "source_file" : "/system/core/libunwindstack/include/unwindstack/ElfInterface.h"
  },
  {
   "function_name" : "unwindstack::LocalUnwinder::GetMapInfo",
   "linker_set_key" : "_ZN11unwindstack13LocalUnwinder10GetMapInfoEm",
   "parameters" :
   [
    {
     "is_this_ptr" : true,
     "referenced_type" : "_ZTIPN11unwindstack13LocalUnwinderE"
    },
    {
     "referenced_type" : "_ZTIm"
    }
   ],
   "return_type" : "_ZTIPN11unwindstack7MapInfoE",
   "source_file" : "/system/core/libunwindstack/include/unwindstack/LocalUnwinder.h"
  },
  {
   "function_name" : "unwindstack::LocalUnwinder::ShouldSkipLibrary",
   "linker_set_key" : "_ZN11unwindstack13LocalUnwinder17ShouldSkipLibraryERKNSt3__112basic_stringIcNS1_11char_traitsIcEENS1_9allocatorIcEEEE",
   "parameters" :
   [
    {
     "is_this_ptr" : true,
     "referenced_type" : "_ZTIPN11unwindstack13LocalUnwinderE"
    },
    {
     "referenced_type" : "_ZTIRKNSt3__112basic_stringIcNS_11char_traitsIcEENS_9allocatorIcEEEE"
    }
   ],
   "return_type" : "_ZTIb",
   "source_file" : "/system/core/libunwindstack/include/unwindstack/LocalUnwinder.h"
  },
  {
   "function_name" : "unwindstack::LocalUnwinder::Init",
   "linker_set_key" : "_ZN11unwindstack13LocalUnwinder4InitEv",
   "parameters" :
   [
    {
     "is_this_ptr" : true,
     "referenced_type" : "_ZTIPN11unwindstack13LocalUnwinderE"
    }
   ],
   "return_type" : "_ZTIb",
   "source_file" : "/system/core/libunwindstack/include/unwindstack/LocalUnwinder.h"
  },
  {
   "function_name" : "unwindstack::LocalUnwinder::Unwind",
   "linker_set_key" : "_ZN11unwindstack13LocalUnwinder6UnwindEPNSt3__16vectorINS_14LocalFrameDataENS1_9allocatorIS3_EEEEm",
   "parameters" :
   [
    {
     "is_this_ptr" : true,
     "referenced_type" : "_ZTIPN11unwindstack13LocalUnwinderE"
    },
    {
     "referenced_type" : "_ZTIPNSt3__16vectorIN11unwindstack14LocalFrameDataENS_9allocatorIS2_EEEE"
    },
    {
     "referenced_type" : "_ZTIm"
    }
   ],
   "return_type" : "_ZTIb",
   "source_file" : "/system/core/libunwindstack/include/unwindstack/LocalUnwinder.h"
  },
  {
   "function_name" : "unwindstack::log_to_stdout",
   "linker_set_key" : "_ZN11unwindstack13log_to_stdoutEb",
   "parameters" :
   [
    {
     "referenced_type" : "_ZTIb"
    }
   ],
   "return_type" : "_ZTIv",
   "source_file" : "/system/core/libunwindstack/include/unwindstack/Log.h"
  },
  {
   "function_name" : "unwindstack::UnwinderFromPid::Init",
   "linker_set_key" : "_ZN11unwindstack15UnwinderFromPid4InitENS_8ArchEnumE",
   "parameters" :
   [
    {
     "is_this_ptr" : true,
     "referenced_type" : "_ZTIPN11unwindstack15UnwinderFromPidE"
    },
    {
     "referenced_type" : "_ZTIN11unwindstack8ArchEnumE"
    }
   ],
   "return_type" : "_ZTIb",
   "source_file" : "/system/core/libunwindstack/include/unwindstack/Unwinder.h"
  },
  {
   "function_name" : "unwindstack::DwarfSectionImpl<unsigned int>::DwarfSectionImpl",
   "linker_set_key" : "_ZN11unwindstack16DwarfSectionImplIjEC2EPNS_6MemoryE",
   "parameters" :
   [
    {
     "is_this_ptr" : true,
     "referenced_type" : "_ZTIPN11unwindstack16DwarfSectionImplIjEE"
    },
    {
     "referenced_type" : "_ZTIPN11unwindstack6MemoryE"
    }
   ],
   "return_type" : "_ZTIv",
   "source_file" : "/system/core/libunwindstack/include/unwindstack/DwarfSection.h"
  },
  {
   "function_name" : "unwindstack::DwarfSectionImpl<unsigned long>::DwarfSectionImpl",
   "linker_set_key" : "_ZN11unwindstack16DwarfSectionImplImEC2EPNS_6MemoryE",
   "parameters" :
   [
    {
     "is_this_ptr" : true,
     "referenced_type" : "_ZTIPN11unwindstack16DwarfSectionImplImEE"
    },
    {
     "referenced_type" : "_ZTIPN11unwindstack6MemoryE"
    }
   ],
   "return_type" : "_ZTIv",
   "source_file" : "/system/core/libunwindstack/include/unwindstack/DwarfSection.h"
  },
  {
   "function_name" : "unwindstack::LocalUpdatableMaps::Reparse",
   "linker_set_key" : "_ZN11unwindstack18LocalUpdatableMaps7ReparseEv",
   "parameters" :
   [
    {
     "is_this_ptr" : true,
     "referenced_type" : "_ZTIPN11unwindstack18LocalUpdatableMapsE"
    }
   ],
   "return_type" : "_ZTIb",
   "source_file" : "/system/core/libunwindstack/include/unwindstack/Maps.h"
  },
  {
   "function_name" : "unwindstack::Elf::GetBuildID",
   "linker_set_key" : "_ZN11unwindstack3Elf10GetBuildIDEPNS_6MemoryE",
   "parameters" :
   [
    {
     "referenced_type" : "_ZTIPN11unwindstack6MemoryE"
    }
   ],
   "return_type" : "_ZTINSt3__112basic_stringIcNS_11char_traitsIcEENS_9allocatorIcEEEE",
   "source_file" : "/system/core/libunwindstack/include/unwindstack/Elf.h"
  },
  {
   "function_name" : "unwindstack::Elf::GetBuildID",
   "linker_set_key" : "_ZN11unwindstack3Elf10GetBuildIDEv",
   "parameters" :
   [
    {
     "is_this_ptr" : true,
     "referenced_type" : "_ZTIPN11unwindstack3ElfE"
    }
   ],
   "return_type" : "_ZTINSt3__112basic_stringIcNS_11char_traitsIcEENS_9allocatorIcEEEE",
   "source_file" : "/system/core/libunwindstack/include/unwindstack/Elf.h"
  },
  {
   "function_name" : "unwindstack::Elf::Invalidate",
   "linker_set_key" : "_ZN11unwindstack3Elf10InvalidateEv",
   "parameters" :
   [
    {
     "is_this_ptr" : true,
     "referenced_type" : "_ZTIPN11unwindstack3ElfE"
    }
   ],
   "return_type" : "_ZTIv",
   "source_file" : "/system/core/libunwindstack/include/unwindstack/Elf.h"
  },
  {
   "function_name" : "unwindstack::Elf::IsValidElf",
   "linker_set_key" : "_ZN11unwindstack3Elf10IsValidElfEPNS_6MemoryE",
   "parameters" :
   [
    {
     "referenced_type" : "_ZTIPN11unwindstack6MemoryE"
    }
   ],
   "return_type" : "_ZTIb",
   "source_file" : "/system/core/libunwindstack/include/unwindstack/Elf.h"
  },
  {
   "function_name" : "unwindstack::Elf::CacheUnlock",
   "linker_set_key" : "_ZN11unwindstack3Elf11CacheUnlockEv",
   "return_type" : "_ZTIv",
   "source_file" : "/system/core/libunwindstack/include/unwindstack/Elf.h"
  },
  {
   "function_name" : "unwindstack::Elf::GetLoadBias",
   "linker_set_key" : "_ZN11unwindstack3Elf11GetLoadBiasEPNS_6MemoryE",
   "parameters" :
   [
    {
     "referenced_type" : "_ZTIPN11unwindstack6MemoryE"
    }
   ],
   "return_type" : "_ZTIl",
   "source_file" : "/system/core/libunwindstack/include/unwindstack/Elf.h"
  },
  {
   "function_name" : "unwindstack::Elf::GetLastError",
   "linker_set_key" : "_ZN11unwindstack3Elf12GetLastErrorEPNS_9ErrorDataE",
   "parameters" :
   [
    {
     "is_this_ptr" : true,
     "referenced_type" : "_ZTIPN11unwindstack3ElfE"
    },
    {
     "referenced_type" : "_ZTIPN11unwindstack9ErrorDataE"
    }
   ],
   "return_type" : "_ZTIv",
   "source_file" : "/system/core/libunwindstack/include/unwindstack/Elf.h"
  },
  {
   "function_name" : "unwindstack::Elf::GetFunctionName",
   "linker_set_key" : "_ZN11unwindstack3Elf15GetFunctionNameEmPNSt3__112basic_stringIcNS1_11char_traitsIcEENS1_9allocatorIcEEEEPm",
   "parameters" :
   [
    {
     "is_this_ptr" : true,
     "referenced_type" : "_ZTIPN11unwindstack3ElfE"
    },
    {
     "referenced_type" : "_ZTIm"
    },
    {
     "referenced_type" : "_ZTIPNSt3__112basic_stringIcNS_11char_traitsIcEENS_9allocatorIcEEEE"
    },
    {
     "referenced_type" : "_ZTIPm"
    }
   ],
   "return_type" : "_ZTIb",
   "source_file" : "/system/core/libunwindstack/include/unwindstack/Elf.h"
  },
  {
   "function_name" : "unwindstack::Elf::GetLastErrorCode",
   "linker_set_key" : "_ZN11unwindstack3Elf16GetLastErrorCodeEv",
   "parameters" :
   [
    {
     "is_this_ptr" : true,
     "referenced_type" : "_ZTIPN11unwindstack3ElfE"
    }
   ],
   "return_type" : "_ZTIN11unwindstack9ErrorCodeE",
   "source_file" : "/system/core/libunwindstack/include/unwindstack/Elf.h"
  },
  {
   "function_name" : "unwindstack::Elf::InitGnuDebugdata",
   "linker_set_key" : "_ZN11unwindstack3Elf16InitGnuDebugdataEv",
   "parameters" :
   [
    {
     "is_this_ptr" : true,
     "referenced_type" : "_ZTIPN11unwindstack3ElfE"
    }
   ],
   "return_type" : "_ZTIv",
   "source_file" : "/system/core/libunwindstack/include/unwindstack/Elf.h"
  },
  {
   "function_name" : "unwindstack::Elf::SetCachingEnabled",
   "linker_set_key" : "_ZN11unwindstack3Elf17SetCachingEnabledEb",
   "parameters" :
   [
    {
     "referenced_type" : "_ZTIb"
    }
   ],
   "return_type" : "_ZTIv",
   "source_file" : "/system/core/libunwindstack/include/unwindstack/Elf.h"
  },
  {
   "function_name" : "unwindstack::Elf::GetLastErrorAddress",
   "linker_set_key" : "_ZN11unwindstack3Elf19GetLastErrorAddressEv",
   "parameters" :
   [
    {
     "is_this_ptr" : true,
     "referenced_type" : "_ZTIPN11unwindstack3ElfE"
    }
   ],
   "return_type" : "_ZTIm",
   "source_file" : "/system/core/libunwindstack/include/unwindstack/Elf.h"
  },
  {
   "function_name" : "unwindstack::Elf::StepIfSignalHandler",
   "linker_set_key" : "_ZN11unwindstack3Elf19StepIfSignalHandlerEmPNS_4RegsEPNS_6MemoryE",
   "parameters" :
   [
    {
     "is_this_ptr" : true,
     "referenced_type" : "_ZTIPN11unwindstack3ElfE"
    },
    {
     "referenced_type" : "_ZTIm"
    },
    {
     "referenced_type" : "_ZTIPN11unwindstack4RegsE"
    },
    {
     "referenced_type" : "_ZTIPN11unwindstack6MemoryE"
    }
   ],
   "return_type" : "_ZTIb",
   "source_file" : "/system/core/libunwindstack/include/unwindstack/Elf.h"
  },
  {
   "function_name" : "unwindstack::Elf::CacheAfterCreateMemory",
   "linker_set_key" : "_ZN11unwindstack3Elf22CacheAfterCreateMemoryEPNS_7MapInfoE",
   "parameters" :
   [
    {
     "referenced_type" : "_ZTIPN11unwindstack7MapInfoE"
    }
   ],
   "return_type" : "_ZTIb",
   "source_file" : "/system/core/libunwindstack/include/unwindstack/Elf.h"
  },
  {
   "function_name" : "unwindstack::Elf::GetGlobalVariableOffset",
   "linker_set_key" : "_ZN11unwindstack3Elf23GetGlobalVariableOffsetERKNSt3__112basic_stringIcNS1_11char_traitsIcEENS1_9allocatorIcEEEEPm",
   "parameters" :
   [
    {
     "is_this_ptr" : true,
     "referenced_type" : "_ZTIPN11unwindstack3ElfE"
    },
    {
     "referenced_type" : "_ZTIRKNSt3__112basic_stringIcNS_11char_traitsIcEENS_9allocatorIcEEEE"
    },
    {
     "referenced_type" : "_ZTIPm"
    }
   ],
   "return_type" : "_ZTIb",
   "source_file" : "/system/core/libunwindstack/include/unwindstack/Elf.h"
  },
  {
   "function_name" : "unwindstack::Elf::CreateInterfaceFromMemory",
   "linker_set_key" : "_ZN11unwindstack3Elf25CreateInterfaceFromMemoryEPNS_6MemoryE",
   "parameters" :
   [
    {
     "is_this_ptr" : true,
     "referenced_type" : "_ZTIPN11unwindstack3ElfE"
    },
    {
     "referenced_type" : "_ZTIPN11unwindstack6MemoryE"
    }
   ],
   "return_type" : "_ZTIPN11unwindstack12ElfInterfaceE",
   "source_file" : "/system/core/libunwindstack/include/unwindstack/Elf.h"
  },
  {
   "function_name" : "unwindstack::Elf::Init",
   "linker_set_key" : "_ZN11unwindstack3Elf4InitEv",
   "parameters" :
   [
    {
     "is_this_ptr" : true,
     "referenced_type" : "_ZTIPN11unwindstack3ElfE"
    }
   ],
   "return_type" : "_ZTIb",
   "source_file" : "/system/core/libunwindstack/include/unwindstack/Elf.h"
  },
  {
   "function_name" : "unwindstack::Elf::Step",
   "linker_set_key" : "_ZN11unwindstack3Elf4StepEmPNS_4RegsEPNS_6MemoryEPb",
   "parameters" :
   [
    {
     "is_this_ptr" : true,
     "referenced_type" : "_ZTIPN11unwindstack3ElfE"
    },
    {
     "referenced_type" : "_ZTIm"
    },
    {
     "referenced_type" : "_ZTIPN11unwindstack4RegsE"
    },
    {
     "referenced_type" : "_ZTIPN11unwindstack6MemoryE"
    },
    {
     "referenced_type" : "_ZTIPb"
    }
   ],
   "return_type" : "_ZTIb",
   "source_file" : "/system/core/libunwindstack/include/unwindstack/Elf.h"
  },
  {
   "function_name" : "unwindstack::Elf::GetInfo",
   "linker_set_key" : "_ZN11unwindstack3Elf7GetInfoEPNS_6MemoryEPm",
   "parameters" :
   [
    {
     "referenced_type" : "_ZTIPN11unwindstack6MemoryE"
    },
    {
     "referenced_type" : "_ZTIPm"
    }
   ],
   "return_type" : "_ZTIb",
   "source_file" : "/system/core/libunwindstack/include/unwindstack/Elf.h"
  },
  {
   "function_name" : "unwindstack::Elf::CacheAdd",
   "linker_set_key" : "_ZN11unwindstack3Elf8CacheAddEPNS_7MapInfoE",
   "parameters" :
   [
    {
     "referenced_type" : "_ZTIPN11unwindstack7MapInfoE"
    }
   ],
   "return_type" : "_ZTIv",
   "source_file" : "/system/core/libunwindstack/include/unwindstack/Elf.h"
  },
  {
   "function_name" : "unwindstack::Elf::CacheGet",
   "linker_set_key" : "_ZN11unwindstack3Elf8CacheGetEPNS_7MapInfoE",
   "parameters" :
   [
    {
     "referenced_type" : "_ZTIPN11unwindstack7MapInfoE"
    }
   ],
   "return_type" : "_ZTIb",
   "source_file" : "/system/core/libunwindstack/include/unwindstack/Elf.h"
  },
  {
   "function_name" : "unwindstack::Elf::GetRelPc",
   "linker_set_key" : "_ZN11unwindstack3Elf8GetRelPcEmPKNS_7MapInfoE",
   "parameters" :
   [
    {
     "is_this_ptr" : true,
     "referenced_type" : "_ZTIPN11unwindstack3ElfE"
    },
    {
     "referenced_type" : "_ZTIm"
    },
    {
     "referenced_type" : "_ZTIPKN11unwindstack7MapInfoE"
    }
   ],
   "return_type" : "_ZTIm",
   "source_file" : "/system/core/libunwindstack/include/unwindstack/Elf.h"
  },
  {
   "function_name" : "unwindstack::Elf::CacheLock",
   "linker_set_key" : "_ZN11unwindstack3Elf9CacheLockEv",
   "return_type" : "_ZTIv",
   "source_file" : "/system/core/libunwindstack/include/unwindstack/Elf.h"
  },
  {
   "function_name" : "unwindstack::Elf::GetSoname",
   "linker_set_key" : "_ZN11unwindstack3Elf9GetSonameEv",
   "parameters" :
   [
    {
     "is_this_ptr" : true,
     "referenced_type" : "_ZTIPN11unwindstack3ElfE"
    }
   ],
   "return_type" : "_ZTINSt3__112basic_stringIcNS_11char_traitsIcEENS_9allocatorIcEEEE",
   "source_file" : "/system/core/libunwindstack/include/unwindstack/Elf.h"
  },
  {
   "function_name" : "unwindstack::Elf::IsValidPc",
   "linker_set_key" : "_ZN11unwindstack3Elf9IsValidPcEm",
   "parameters" :
   [
    {
     "is_this_ptr" : true,
     "referenced_type" : "_ZTIPN11unwindstack3ElfE"
    },
    {
     "referenced_type" : "_ZTIm"
    }
   ],
   "return_type" : "_ZTIb",
   "source_file" : "/system/core/libunwindstack/include/unwindstack/Elf.h"
  },
  {
   "function_name" : "unwindstack::log",
   "linker_set_key" : "_ZN11unwindstack3logEhPKcz",
   "parameters" :
   [
    {
     "referenced_type" : "_ZTIh"
    },
    {
     "referenced_type" : "_ZTIPKc"
    }
   ],
   "return_type" : "_ZTIv",
   "source_file" : "/system/core/libunwindstack/include/unwindstack/Log.h"
  },
  {
   "function_name" : "unwindstack::Maps::Add",
   "linker_set_key" : "_ZN11unwindstack4Maps3AddEmmmmRKNSt3__112basic_stringIcNS1_11char_traitsIcEENS1_9allocatorIcEEEEm",
   "parameters" :
   [
    {
     "is_this_ptr" : true,
     "referenced_type" : "_ZTIPN11unwindstack4MapsE"
    },
    {
     "referenced_type" : "_ZTIm"
    },
    {
     "referenced_type" : "_ZTIm"
    },
    {
     "referenced_type" : "_ZTIm"
    },
    {
     "referenced_type" : "_ZTIm"
    },
    {
     "referenced_type" : "_ZTIRKNSt3__112basic_stringIcNS_11char_traitsIcEENS_9allocatorIcEEEE"
    },
    {
     "referenced_type" : "_ZTIm"
    }
   ],
   "return_type" : "_ZTIv",
   "source_file" : "/system/core/libunwindstack/include/unwindstack/Maps.h"
  },
  {
   "function_name" : "unwindstack::Maps::Find",
   "linker_set_key" : "_ZN11unwindstack4Maps4FindEm",
   "parameters" :
   [
    {
     "is_this_ptr" : true,
     "referenced_type" : "_ZTIPN11unwindstack4MapsE"
    },
    {
     "referenced_type" : "_ZTIm"
    }
   ],
   "return_type" : "_ZTIPN11unwindstack7MapInfoE",
   "source_file" : "/system/core/libunwindstack/include/unwindstack/Maps.h"
  },
  {
   "function_name" : "unwindstack::Maps::Sort",
   "linker_set_key" : "_ZN11unwindstack4Maps4SortEv",
   "parameters" :
   [
    {
     "is_this_ptr" : true,
     "referenced_type" : "_ZTIPN11unwindstack4MapsE"
    }
   ],
   "return_type" : "_ZTIv",
   "source_file" : "/system/core/libunwindstack/include/unwindstack/Maps.h"
  },
  {
   "function_name" : "unwindstack::Maps::Parse",
   "linker_set_key" : "_ZN11unwindstack4Maps5ParseEv",
   "parameters" :
   [
    {
     "is_this_ptr" : true,
     "referenced_type" : "_ZTIPN11unwindstack4MapsE"
    }
   ],
   "return_type" : "_ZTIb",
   "source_file" : "/system/core/libunwindstack/include/unwindstack/Maps.h"
  },
  {
   "function_name" : "unwindstack::Regs::CurrentArch",
   "linker_set_key" : "_ZN11unwindstack4Regs11CurrentArchEv",
   "return_type" : "_ZTIN11unwindstack8ArchEnumE",
   "source_file" : "/system/core/libunwindstack/include/unwindstack/Regs.h"
  },
  {
   "function_name" : "unwindstack::Regs::CreateFromLocal",
   "linker_set_key" : "_ZN11unwindstack4Regs15CreateFromLocalEv",
   "return_type" : "_ZTIPN11unwindstack4RegsE",
   "source_file" : "/system/core/libunwindstack/include/unwindstack/Regs.h"
  },
  {
   "function_name" : "unwindstack::Regs::CreateFromUcontext",
   "linker_set_key" : "_ZN11unwindstack4Regs18CreateFromUcontextENS_8ArchEnumEPv",
   "parameters" :
   [
    {
     "referenced_type" : "_ZTIN11unwindstack8ArchEnumE"
    },
    {
     "referenced_type" : "_ZTIPv"
    }
   ],
   "return_type" : "_ZTIPN11unwindstack4RegsE",
   "source_file" : "/system/core/libunwindstack/include/unwindstack/Regs.h"
  },
  {
   "function_name" : "unwindstack::Regs::RemoteGet",
   "linker_set_key" : "_ZN11unwindstack4Regs9RemoteGetEi",
   "parameters" :
   [
    {
     "referenced_type" : "_ZTIi"
    }
   ],
   "return_type" : "_ZTIPN11unwindstack4RegsE",
   "source_file" : "/system/core/libunwindstack/include/unwindstack/Regs.h"
  },
  {
   "access" : "protected",
   "function_name" : "unwindstack::Global::Searchable",
   "linker_set_key" : "_ZN11unwindstack6Global10SearchableERKNSt3__112basic_stringIcNS1_11char_traitsIcEENS1_9allocatorIcEEEE",
   "parameters" :
   [
    {
     "is_this_ptr" : true,
     "referenced_type" : "_ZTIPN11unwindstack6GlobalE"
    },
    {
     "referenced_type" : "_ZTIRKNSt3__112basic_stringIcNS_11char_traitsIcEENS_9allocatorIcEEEE"
    }
   ],
   "return_type" : "_ZTIb",
   "source_file" : "/system/core/libunwindstack/include/unwindstack/Global.h"
  },
  {
   "access" : "protected",
   "function_name" : "unwindstack::Global::FindAndReadVariable",
   "linker_set_key" : "_ZN11unwindstack6Global19FindAndReadVariableEPNS_4MapsEPKc",
   "parameters" :
   [
    {
     "is_this_ptr" : true,
     "referenced_type" : "_ZTIPN11unwindstack6GlobalE"
    },
    {
     "referenced_type" : "_ZTIPN11unwindstack4MapsE"
    },
    {
     "referenced_type" : "_ZTIPKc"
    }
   ],
   "return_type" : "_ZTIv",
   "source_file" : "/system/core/libunwindstack/include/unwindstack/Global.h"
  },
  {
   "function_name" : "unwindstack::Global::SetArch",
   "linker_set_key" : "_ZN11unwindstack6Global7SetArchENS_8ArchEnumE",
   "parameters" :
   [
    {
     "is_this_ptr" : true,
     "referenced_type" : "_ZTIPN11unwindstack6GlobalE"
    },
    {
     "referenced_type" : "_ZTIN11unwindstack8ArchEnumE"
    }
   ],
   "return_type" : "_ZTIv",
   "source_file" : "/system/core/libunwindstack/include/unwindstack/Global.h"
  },
  {
   "function_name" : "unwindstack::Global::Global",
   "linker_set_key" : "_ZN11unwindstack6GlobalC2ERNSt3__110shared_ptrINS_6MemoryEEE",
   "parameters" :
   [
    {
     "is_this_ptr" : true,
     "referenced_type" : "_ZTIPN11unwindstack6GlobalE"
    },
    {
     "referenced_type" : "_ZTIRNSt3__110shared_ptrIN11unwindstack6MemoryEEE"
    }
   ],
   "return_type" : "_ZTIv",
   "source_file" : "/system/core/libunwindstack/include/unwindstack/Global.h"
  },
  {
   "function_name" : "unwindstack::Global::Global",
   "linker_set_key" : "_ZN11unwindstack6GlobalC2ERNSt3__110shared_ptrINS_6MemoryEEERNS1_6vectorINS1_12basic_stringIcNS1_11char_traitsIcEENS1_9allocatorIcEEEENSA_ISC_EEEE",
   "parameters" :
   [
    {
     "is_this_ptr" : true,
     "referenced_type" : "_ZTIPN11unwindstack6GlobalE"
    },
    {
     "referenced_type" : "_ZTIRNSt3__110shared_ptrIN11unwindstack6MemoryEEE"
    },
    {
     "referenced_type" : "_ZTIRNSt3__16vectorINS_12basic_stringIcNS_11char_traitsIcEENS_9allocatorIcEEEENS4_IS6_EEEE"
    }
   ],
   "return_type" : "_ZTIv",
   "source_file" : "/system/core/libunwindstack/include/unwindstack/Global.h"
  },
  {
   "function_name" : "unwindstack::Memory::ReadString",
   "linker_set_key" : "_ZN11unwindstack6Memory10ReadStringEmPNSt3__112basic_stringIcNS1_11char_traitsIcEENS1_9allocatorIcEEEEm",
   "parameters" :
   [
    {
     "is_this_ptr" : true,
     "referenced_type" : "_ZTIPN11unwindstack6MemoryE"
    },
    {
     "referenced_type" : "_ZTIm"
    },
    {
     "referenced_type" : "_ZTIPNSt3__112basic_stringIcNS_11char_traitsIcEENS_9allocatorIcEEEE"
    },
    {
     "default_arg" : true,
     "referenced_type" : "_ZTIm"
    }
   ],
   "return_type" : "_ZTIb",
   "source_file" : "/system/core/libunwindstack/include/unwindstack/Memory.h"
  },
  {
   "function_name" : "unwindstack::Memory::CreateFileMemory",
   "linker_set_key" : "_ZN11unwindstack6Memory16CreateFileMemoryERKNSt3__112basic_stringIcNS1_11char_traitsIcEENS1_9allocatorIcEEEEm",
   "parameters" :
   [
    {
     "referenced_type" : "_ZTIRKNSt3__112basic_stringIcNS_11char_traitsIcEENS_9allocatorIcEEEE"
    },
    {
     "referenced_type" : "_ZTIm"
    }
   ],
   "return_type" : "_ZTINSt3__110unique_ptrIN11unwindstack6MemoryENS_14default_deleteIS2_EEEE",
   "source_file" : "/system/core/libunwindstack/include/unwindstack/Memory.h"
  },
  {
   "function_name" : "unwindstack::Memory::CreateOfflineMemory",
   "linker_set_key" : "_ZN11unwindstack6Memory19CreateOfflineMemoryEPKhmm",
   "parameters" :
   [
    {
     "referenced_type" : "_ZTIPKh"
    },
    {
     "referenced_type" : "_ZTIm"
    },
    {
     "referenced_type" : "_ZTIm"
    }
   ],
   "return_type" : "_ZTINSt3__110shared_ptrIN11unwindstack6MemoryEEE",
   "source_file" : "/system/core/libunwindstack/include/unwindstack/Memory.h"
  },
  {
   "function_name" : "unwindstack::Memory::CreateProcessMemory",
   "linker_set_key" : "_ZN11unwindstack6Memory19CreateProcessMemoryEi",
   "parameters" :
   [
    {
     "referenced_type" : "_ZTIi"
    }
   ],
   "return_type" : "_ZTINSt3__110shared_ptrIN11unwindstack6MemoryEEE",
   "source_file" : "/system/core/libunwindstack/include/unwindstack/Memory.h"
  },
  {
   "function_name" : "unwindstack::Memory::CreateProcessMemoryCached",
   "linker_set_key" : "_ZN11unwindstack6Memory25CreateProcessMemoryCachedEi",
   "parameters" :
   [
    {
     "referenced_type" : "_ZTIi"
    }
   ],
   "return_type" : "_ZTINSt3__110shared_ptrIN11unwindstack6MemoryEEE",
   "source_file" : "/system/core/libunwindstack/include/unwindstack/Memory.h"
  },
  {
   "function_name" : "unwindstack::Memory::ReadFully",
   "linker_set_key" : "_ZN11unwindstack6Memory9ReadFullyEmPvm",
   "parameters" :
   [
    {
     "is_this_ptr" : true,
     "referenced_type" : "_ZTIPN11unwindstack6MemoryE"
    },
    {
     "referenced_type" : "_ZTIm"
    },
    {
     "referenced_type" : "_ZTIPv"
    },
    {
     "referenced_type" : "_ZTIm"
    }
   ],
   "return_type" : "_ZTIb",
   "source_file" : "/system/core/libunwindstack/include/unwindstack/Memory.h"
  },
  {
   "function_name" : "unwindstack::MapInfo::GetBuildID",
   "linker_set_key" : "_ZN11unwindstack7MapInfo10GetBuildIDEv",
   "parameters" :
   [
    {
     "is_this_ptr" : true,
     "referenced_type" : "_ZTIPN11unwindstack7MapInfoE"
    }
   ],
   "return_type" : "_ZTINSt3__112basic_stringIcNS_11char_traitsIcEENS_9allocatorIcEEEE",
   "source_file" : "/system/core/libunwindstack/include/unwindstack/MapInfo.h"
  },
  {
   "function_name" : "unwindstack::MapInfo::GetLoadBias",
   "linker_set_key" : "_ZN11unwindstack7MapInfo11GetLoadBiasERKNSt3__110shared_ptrINS_6MemoryEEE",
   "parameters" :
   [
    {
     "is_this_ptr" : true,
     "referenced_type" : "_ZTIPN11unwindstack7MapInfoE"
    },
    {
     "referenced_type" : "_ZTIRKNSt3__110shared_ptrIN11unwindstack6MemoryEEE"
    }
   ],
   "return_type" : "_ZTIm",
   "source_file" : "/system/core/libunwindstack/include/unwindstack/MapInfo.h"
  },
  {
   "function_name" : "unwindstack::MapInfo::CreateMemory",
   "linker_set_key" : "_ZN11unwindstack7MapInfo12CreateMemoryERKNSt3__110shared_ptrINS_6MemoryEEE",
   "parameters" :
   [
    {
     "is_this_ptr" : true,
     "referenced_type" : "_ZTIPN11unwindstack7MapInfoE"
    },
    {
     "referenced_type" : "_ZTIRKNSt3__110shared_ptrIN11unwindstack6MemoryEEE"
    }
   ],
   "return_type" : "_ZTIPN11unwindstack6MemoryE",
   "source_file" : "/system/core/libunwindstack/include/unwindstack/MapInfo.h"
  },
  {
   "access" : "private",
   "function_name" : "unwindstack::MapInfo::GetFileMemory",
   "linker_set_key" : "_ZN11unwindstack7MapInfo13GetFileMemoryEv",
   "parameters" :
   [
    {
     "is_this_ptr" : true,
     "referenced_type" : "_ZTIPN11unwindstack7MapInfoE"
    }
   ],
   "return_type" : "_ZTIPN11unwindstack6MemoryE",
   "source_file" : "/system/core/libunwindstack/include/unwindstack/MapInfo.h"
  },
  {
   "function_name" : "unwindstack::MapInfo::GetFunctionName",
   "linker_set_key" : "_ZN11unwindstack7MapInfo15GetFunctionNameEmPNSt3__112basic_stringIcNS1_11char_traitsIcEENS1_9allocatorIcEEEEPm",
   "parameters" :
   [
    {
     "is_this_ptr" : true,
     "referenced_type" : "_ZTIPN11unwindstack7MapInfoE"
    },
    {
     "referenced_type" : "_ZTIm"
    },
    {
     "referenced_type" : "_ZTIPNSt3__112basic_stringIcNS_11char_traitsIcEENS_9allocatorIcEEEE"
    },
    {
     "referenced_type" : "_ZTIPm"
    }
   ],
   "return_type" : "_ZTIb",
   "source_file" : "/system/core/libunwindstack/include/unwindstack/MapInfo.h"
  },
  {
   "function_name" : "unwindstack::MapInfo::GetPrintableBuildID",
   "linker_set_key" : "_ZN11unwindstack7MapInfo19GetPrintableBuildIDEv",
   "parameters" :
   [
    {
     "is_this_ptr" : true,
     "referenced_type" : "_ZTIPN11unwindstack7MapInfoE"
    }
   ],
   "return_type" : "_ZTINSt3__112basic_stringIcNS_11char_traitsIcEENS_9allocatorIcEEEE",
   "source_file" : "/system/core/libunwindstack/include/unwindstack/MapInfo.h"
  },
  {
   "access" : "private",
   "function_name" : "unwindstack::MapInfo::InitFileMemoryFromPreviousReadOnlyMap",
   "linker_set_key" : "_ZN11unwindstack7MapInfo37InitFileMemoryFromPreviousReadOnlyMapEPNS_18MemoryFileAtOffsetE",
   "parameters" :
   [
    {
     "is_this_ptr" : true,
     "referenced_type" : "_ZTIPN11unwindstack7MapInfoE"
    },
    {
     "referenced_type" : "_ZTIPN11unwindstack18MemoryFileAtOffsetE"
    }
   ],
   "return_type" : "_ZTIb",
   "source_file" : "/system/core/libunwindstack/include/unwindstack/MapInfo.h"
  },
  {
   "function_name" : "unwindstack::MapInfo::GetElf",
   "linker_set_key" : "_ZN11unwindstack7MapInfo6GetElfERKNSt3__110shared_ptrINS_6MemoryEEENS_8ArchEnumE",
   "parameters" :
   [
    {
     "is_this_ptr" : true,
     "referenced_type" : "_ZTIPN11unwindstack7MapInfoE"
    },
    {
     "referenced_type" : "_ZTIRKNSt3__110shared_ptrIN11unwindstack6MemoryEEE"
    },
    {
     "referenced_type" : "_ZTIN11unwindstack8ArchEnumE"
    }
   ],
   "return_type" : "_ZTIPN11unwindstack3ElfE",
   "source_file" : "/system/core/libunwindstack/include/unwindstack/MapInfo.h"
  },
  {
   "function_name" : "unwindstack::MapInfo::~MapInfo",
   "linker_set_key" : "_ZN11unwindstack7MapInfoD1Ev",
   "parameters" :
   [
    {
     "is_this_ptr" : true,
     "referenced_type" : "_ZTIPN11unwindstack7MapInfoE"
    }
   ],
   "return_type" : "_ZTIv",
   "source_file" : "/system/core/libunwindstack/include/unwindstack/MapInfo.h"
  },
  {
   "function_name" : "unwindstack::MapInfo::~MapInfo",
   "linker_set_key" : "_ZN11unwindstack7MapInfoD2Ev",
   "parameters" :
   [
    {
     "is_this_ptr" : true,
     "referenced_type" : "_ZTIPN11unwindstack7MapInfoE"
    }
   ],
   "return_type" : "_ZTIv",
   "source_file" : "/system/core/libunwindstack/include/unwindstack/MapInfo.h"
  },
  {
   "function_name" : "unwindstack::RegsArm::GetPcAdjustment",
   "linker_set_key" : "_ZN11unwindstack7RegsArm15GetPcAdjustmentEmPNS_3ElfE",
   "parameters" :
   [
    {
     "is_this_ptr" : true,
     "referenced_type" : "_ZTIPN11unwindstack7RegsArmE"
    },
    {
     "referenced_type" : "_ZTIm"
    },
    {
     "referenced_type" : "_ZTIPN11unwindstack3ElfE"
    }
   ],
   "return_type" : "_ZTIm",
   "source_file" : "/system/core/libunwindstack/include/unwindstack/RegsArm.h"
  },
  {
   "function_name" : "unwindstack::RegsArm::IterateRegisters",
   "linker_set_key" : "_ZN11unwindstack7RegsArm16IterateRegistersENSt3__18functionIFvPKcmEEE",
   "parameters" :
   [
    {
     "is_this_ptr" : true,
     "referenced_type" : "_ZTIPN11unwindstack7RegsArmE"
    },
    {
     "referenced_type" : "_ZTINSt3__18functionIFvPKcmEEE"
    }
   ],
   "return_type" : "_ZTIv",
   "source_file" : "/system/core/libunwindstack/include/unwindstack/RegsArm.h"
  },
  {
   "function_name" : "unwindstack::RegsArm::CreateFromUcontext",
   "linker_set_key" : "_ZN11unwindstack7RegsArm18CreateFromUcontextEPv",
   "parameters" :
   [
    {
     "referenced_type" : "_ZTIPv"
    }
   ],
   "return_type" : "_ZTIPN11unwindstack4RegsE",
   "source_file" : "/system/core/libunwindstack/include/unwindstack/RegsArm.h"
  },
  {
   "function_name" : "unwindstack::RegsArm::StepIfSignalHandler",
   "linker_set_key" : "_ZN11unwindstack7RegsArm19StepIfSignalHandlerEmPNS_3ElfEPNS_6MemoryE",
   "parameters" :
   [
    {
     "is_this_ptr" : true,
     "referenced_type" : "_ZTIPN11unwindstack7RegsArmE"
    },
    {
     "referenced_type" : "_ZTIm"
    },
    {
     "referenced_type" : "_ZTIPN11unwindstack3ElfE"
    },
    {
     "referenced_type" : "_ZTIPN11unwindstack6MemoryE"
    }
   ],
   "return_type" : "_ZTIb",
   "source_file" : "/system/core/libunwindstack/include/unwindstack/RegsArm.h"
  },
  {
   "function_name" : "unwindstack::RegsArm::SetPcFromReturnAddress",
   "linker_set_key" : "_ZN11unwindstack7RegsArm22SetPcFromReturnAddressEPNS_6MemoryE",
   "parameters" :
   [
    {
     "is_this_ptr" : true,
     "referenced_type" : "_ZTIPN11unwindstack7RegsArmE"
    },
    {
     "referenced_type" : "_ZTIPN11unwindstack6MemoryE"
    }
   ],
   "return_type" : "_ZTIb",
   "source_file" : "/system/core/libunwindstack/include/unwindstack/RegsArm.h"
  },
  {
   "function_name" : "unwindstack::RegsArm::pc",
   "linker_set_key" : "_ZN11unwindstack7RegsArm2pcEv",
   "parameters" :
   [
    {
     "is_this_ptr" : true,
     "referenced_type" : "_ZTIPN11unwindstack7RegsArmE"
    }
   ],
   "return_type" : "_ZTIm",
   "source_file" : "/system/core/libunwindstack/include/unwindstack/RegsArm.h"
  },
  {
   "function_name" : "unwindstack::RegsArm::sp",
   "linker_set_key" : "_ZN11unwindstack7RegsArm2spEv",
   "parameters" :
   [
    {
     "is_this_ptr" : true,
     "referenced_type" : "_ZTIPN11unwindstack7RegsArmE"
    }
   ],
   "return_type" : "_ZTIm",
   "source_file" : "/system/core/libunwindstack/include/unwindstack/RegsArm.h"
  },
  {
   "function_name" : "unwindstack::RegsArm::Arch",
   "linker_set_key" : "_ZN11unwindstack7RegsArm4ArchEv",
   "parameters" :
   [
    {
     "is_this_ptr" : true,
     "referenced_type" : "_ZTIPN11unwindstack7RegsArmE"
    }
   ],
   "return_type" : "_ZTIN11unwindstack8ArchEnumE",
   "source_file" : "/system/core/libunwindstack/include/unwindstack/RegsArm.h"
  },
  {
   "function_name" : "unwindstack::RegsArm::Read",
   "linker_set_key" : "_ZN11unwindstack7RegsArm4ReadEPv",
   "parameters" :
   [
    {
     "referenced_type" : "_ZTIPv"
    }
   ],
   "return_type" : "_ZTIPN11unwindstack4RegsE",
   "source_file" : "/system/core/libunwindstack/include/unwindstack/RegsArm.h"
  },
  {
   "function_name" : "unwindstack::RegsArm::Clone",
   "linker_set_key" : "_ZN11unwindstack7RegsArm5CloneEv",
   "parameters" :
   [
    {
     "is_this_ptr" : true,
     "referenced_type" : "_ZTIPN11unwindstack7RegsArmE"
    }
   ],
   "return_type" : "_ZTIPN11unwindstack4RegsE",
   "source_file" : "/system/core/libunwindstack/include/unwindstack/RegsArm.h"
  },
  {
   "function_name" : "unwindstack::RegsArm::set_pc",
   "linker_set_key" : "_ZN11unwindstack7RegsArm6set_pcEm",
   "parameters" :
   [
    {
     "is_this_ptr" : true,
     "referenced_type" : "_ZTIPN11unwindstack7RegsArmE"
    },
    {
     "referenced_type" : "_ZTIm"
    }
   ],
   "return_type" : "_ZTIv",
   "source_file" : "/system/core/libunwindstack/include/unwindstack/RegsArm.h"
  },
  {
   "function_name" : "unwindstack::RegsArm::set_sp",
   "linker_set_key" : "_ZN11unwindstack7RegsArm6set_spEm",
   "parameters" :
   [
    {
     "is_this_ptr" : true,
     "referenced_type" : "_ZTIPN11unwindstack7RegsArmE"
    },
    {
     "referenced_type" : "_ZTIm"
    }
   ],
   "return_type" : "_ZTIv",
   "source_file" : "/system/core/libunwindstack/include/unwindstack/RegsArm.h"
  },
  {
   "function_name" : "unwindstack::RegsArm::RegsArm",
   "linker_set_key" : "_ZN11unwindstack7RegsArmC1Ev",
   "parameters" :
   [
    {
     "is_this_ptr" : true,
     "referenced_type" : "_ZTIPN11unwindstack7RegsArmE"
    }
   ],
   "return_type" : "_ZTIv",
   "source_file" : "/system/core/libunwindstack/include/unwindstack/RegsArm.h"
  },
  {
   "function_name" : "unwindstack::RegsArm::RegsArm",
   "linker_set_key" : "_ZN11unwindstack7RegsArmC2Ev",
   "parameters" :
   [
    {
     "is_this_ptr" : true,
     "referenced_type" : "_ZTIPN11unwindstack7RegsArmE"
    }
   ],
   "return_type" : "_ZTIv",
   "source_file" : "/system/core/libunwindstack/include/unwindstack/RegsArm.h"
  },
  {
   "function_name" : "unwindstack::RegsX86::GetPcAdjustment",
   "linker_set_key" : "_ZN11unwindstack7RegsX8615GetPcAdjustmentEmPNS_3ElfE",
   "parameters" :
   [
    {
     "is_this_ptr" : true,
     "referenced_type" : "_ZTIPN11unwindstack7RegsX86E"
    },
    {
     "referenced_type" : "_ZTIm"
    },
    {
     "referenced_type" : "_ZTIPN11unwindstack3ElfE"
    }
   ],
   "return_type" : "_ZTIm",
   "source_file" : "/system/core/libunwindstack/include/unwindstack/RegsX86.h"
  },
  {
   "function_name" : "unwindstack::RegsX86::SetFromUcontext",
   "linker_set_key" : "_ZN11unwindstack7RegsX8615SetFromUcontextEPNS_14x86_ucontext_tE",
   "parameters" :
   [
    {
     "is_this_ptr" : true,
     "referenced_type" : "_ZTIPN11unwindstack7RegsX86E"
    },
    {
     "referenced_type" : "_ZTIPN11unwindstack14x86_ucontext_tE"
    }
   ],
   "return_type" : "_ZTIv",
   "source_file" : "/system/core/libunwindstack/include/unwindstack/RegsX86.h"
  },
  {
   "function_name" : "unwindstack::RegsX86::IterateRegisters",
   "linker_set_key" : "_ZN11unwindstack7RegsX8616IterateRegistersENSt3__18functionIFvPKcmEEE",
   "parameters" :
   [
    {
     "is_this_ptr" : true,
     "referenced_type" : "_ZTIPN11unwindstack7RegsX86E"
    },
    {
     "referenced_type" : "_ZTINSt3__18functionIFvPKcmEEE"
    }
   ],
   "return_type" : "_ZTIv",
   "source_file" : "/system/core/libunwindstack/include/unwindstack/RegsX86.h"
  },
  {
   "function_name" : "unwindstack::RegsX86::CreateFromUcontext",
   "linker_set_key" : "_ZN11unwindstack7RegsX8618CreateFromUcontextEPv",
   "parameters" :
   [
    {
     "referenced_type" : "_ZTIPv"
    }
   ],
   "return_type" : "_ZTIPN11unwindstack4RegsE",
   "source_file" : "/system/core/libunwindstack/include/unwindstack/RegsX86.h"
  },
  {
   "function_name" : "unwindstack::RegsX86::StepIfSignalHandler",
   "linker_set_key" : "_ZN11unwindstack7RegsX8619StepIfSignalHandlerEmPNS_3ElfEPNS_6MemoryE",
   "parameters" :
   [
    {
     "is_this_ptr" : true,
     "referenced_type" : "_ZTIPN11unwindstack7RegsX86E"
    },
    {
     "referenced_type" : "_ZTIm"
    },
    {
     "referenced_type" : "_ZTIPN11unwindstack3ElfE"
    },
    {
     "referenced_type" : "_ZTIPN11unwindstack6MemoryE"
    }
   ],
   "return_type" : "_ZTIb",
   "source_file" : "/system/core/libunwindstack/include/unwindstack/RegsX86.h"
  },
  {
   "function_name" : "unwindstack::RegsX86::SetPcFromReturnAddress",
   "linker_set_key" : "_ZN11unwindstack7RegsX8622SetPcFromReturnAddressEPNS_6MemoryE",
   "parameters" :
   [
    {
     "is_this_ptr" : true,
     "referenced_type" : "_ZTIPN11unwindstack7RegsX86E"
    },
    {
     "referenced_type" : "_ZTIPN11unwindstack6MemoryE"
    }
   ],
   "return_type" : "_ZTIb",
   "source_file" : "/system/core/libunwindstack/include/unwindstack/RegsX86.h"
  },
  {
   "function_name" : "unwindstack::RegsX86::pc",
   "linker_set_key" : "_ZN11unwindstack7RegsX862pcEv",
   "parameters" :
   [
    {
     "is_this_ptr" : true,
     "referenced_type" : "_ZTIPN11unwindstack7RegsX86E"
    }
   ],
   "return_type" : "_ZTIm",
   "source_file" : "/system/core/libunwindstack/include/unwindstack/RegsX86.h"
  },
  {
   "function_name" : "unwindstack::RegsX86::sp",
   "linker_set_key" : "_ZN11unwindstack7RegsX862spEv",
   "parameters" :
   [
    {
     "is_this_ptr" : true,
     "referenced_type" : "_ZTIPN11unwindstack7RegsX86E"
    }
   ],
   "return_type" : "_ZTIm",
   "source_file" : "/system/core/libunwindstack/include/unwindstack/RegsX86.h"
  },
  {
   "function_name" : "unwindstack::RegsX86::Arch",
   "linker_set_key" : "_ZN11unwindstack7RegsX864ArchEv",
   "parameters" :
   [
    {
     "is_this_ptr" : true,
     "referenced_type" : "_ZTIPN11unwindstack7RegsX86E"
    }
   ],
   "return_type" : "_ZTIN11unwindstack8ArchEnumE",
   "source_file" : "/system/core/libunwindstack/include/unwindstack/RegsX86.h"
  },
  {
   "function_name" : "unwindstack::RegsX86::Read",
   "linker_set_key" : "_ZN11unwindstack7RegsX864ReadEPv",
   "parameters" :
   [
    {
     "referenced_type" : "_ZTIPv"
    }
   ],
   "return_type" : "_ZTIPN11unwindstack4RegsE",
   "source_file" : "/system/core/libunwindstack/include/unwindstack/RegsX86.h"
  },
  {
   "function_name" : "unwindstack::RegsX86::Clone",
   "linker_set_key" : "_ZN11unwindstack7RegsX865CloneEv",
   "parameters" :
   [
    {
     "is_this_ptr" : true,
     "referenced_type" : "_ZTIPN11unwindstack7RegsX86E"
    }
   ],
   "return_type" : "_ZTIPN11unwindstack4RegsE",
   "source_file" : "/system/core/libunwindstack/include/unwindstack/RegsX86.h"
  },
  {
   "function_name" : "unwindstack::RegsX86::set_pc",
   "linker_set_key" : "_ZN11unwindstack7RegsX866set_pcEm",
   "parameters" :
   [
    {
     "is_this_ptr" : true,
     "referenced_type" : "_ZTIPN11unwindstack7RegsX86E"
    },
    {
     "referenced_type" : "_ZTIm"
    }
   ],
   "return_type" : "_ZTIv",
   "source_file" : "/system/core/libunwindstack/include/unwindstack/RegsX86.h"
  },
  {
   "function_name" : "unwindstack::RegsX86::set_sp",
   "linker_set_key" : "_ZN11unwindstack7RegsX866set_spEm",
   "parameters" :
   [
    {
     "is_this_ptr" : true,
     "referenced_type" : "_ZTIPN11unwindstack7RegsX86E"
    },
    {
     "referenced_type" : "_ZTIm"
    }
   ],
   "return_type" : "_ZTIv",
   "source_file" : "/system/core/libunwindstack/include/unwindstack/RegsX86.h"
  },
  {
   "function_name" : "unwindstack::RegsX86::RegsX86",
   "linker_set_key" : "_ZN11unwindstack7RegsX86C1Ev",
   "parameters" :
   [
    {
     "is_this_ptr" : true,
     "referenced_type" : "_ZTIPN11unwindstack7RegsX86E"
    }
   ],
   "return_type" : "_ZTIv",
   "source_file" : "/system/core/libunwindstack/include/unwindstack/RegsX86.h"
  },
  {
   "function_name" : "unwindstack::RegsX86::RegsX86",
   "linker_set_key" : "_ZN11unwindstack7RegsX86C2Ev",
   "parameters" :
   [
    {
     "is_this_ptr" : true,
     "referenced_type" : "_ZTIPN11unwindstack7RegsX86E"
    }
   ],
   "return_type" : "_ZTIv",
   "source_file" : "/system/core/libunwindstack/include/unwindstack/RegsX86.h"
  },
  {
   "function_name" : "unwindstack::DexFiles::GetDexFile",
   "linker_set_key" : "_ZN11unwindstack8DexFiles10GetDexFileEmPNS_7MapInfoE",
   "parameters" :
   [
    {
     "is_this_ptr" : true,
     "referenced_type" : "_ZTIPN11unwindstack8DexFilesE"
    },
    {
     "referenced_type" : "_ZTIm"
    },
    {
     "referenced_type" : "_ZTIPN11unwindstack7MapInfoE"
    }
   ],
   "return_type" : "_ZTIPN11unwindstack7DexFileE",
   "source_file" : "/system/core/libunwindstack/include/unwindstack/DexFiles.h"
  },
  {
   "access" : "private",
   "function_name" : "unwindstack::DexFiles::ProcessArch",
   "linker_set_key" : "_ZN11unwindstack8DexFiles11ProcessArchEv",
   "parameters" :
   [
    {
     "is_this_ptr" : true,
     "referenced_type" : "_ZTIPN11unwindstack8DexFilesE"
    }
   ],
   "return_type" : "_ZTIv",
   "source_file" : "/system/core/libunwindstack/include/unwindstack/DexFiles.h"
  },
  {
   "access" : "private",
   "function_name" : "unwindstack::DexFiles::ReadEntry32",
   "linker_set_key" : "_ZN11unwindstack8DexFiles11ReadEntry32Ev",
   "parameters" :
   [
    {
     "is_this_ptr" : true,
     "referenced_type" : "_ZTIPN11unwindstack8DexFilesE"
    }
   ],
   "return_type" : "_ZTIb",
   "source_file" : "/system/core/libunwindstack/include/unwindstack/DexFiles.h"
  },
  {
   "access" : "private",
   "function_name" : "unwindstack::DexFiles::ReadEntry64",
   "linker_set_key" : "_ZN11unwindstack8DexFiles11ReadEntry64Ev",
   "parameters" :
   [
    {
     "is_this_ptr" : true,
     "referenced_type" : "_ZTIPN11unwindstack8DexFilesE"
    }
   ],
   "return_type" : "_ZTIb",
   "source_file" : "/system/core/libunwindstack/include/unwindstack/DexFiles.h"
  },
  {
   "access" : "private",
   "function_name" : "unwindstack::DexFiles::ReadEntryPtr32",
   "linker_set_key" : "_ZN11unwindstack8DexFiles14ReadEntryPtr32Em",
   "parameters" :
   [
    {
     "is_this_ptr" : true,
     "referenced_type" : "_ZTIPN11unwindstack8DexFilesE"
    },
    {
     "referenced_type" : "_ZTIm"
    }
   ],
   "return_type" : "_ZTIm",
   "source_file" : "/system/core/libunwindstack/include/unwindstack/DexFiles.h"
  },
  {
   "access" : "private",
   "function_name" : "unwindstack::DexFiles::ReadEntryPtr64",
   "linker_set_key" : "_ZN11unwindstack8DexFiles14ReadEntryPtr64Em",
   "parameters" :
   [
    {
     "is_this_ptr" : true,
     "referenced_type" : "_ZTIPN11unwindstack8DexFilesE"
    },
    {
     "referenced_type" : "_ZTIm"
    }
   ],
   "return_type" : "_ZTIm",
   "source_file" : "/system/core/libunwindstack/include/unwindstack/DexFiles.h"
  },
  {
   "access" : "private",
   "function_name" : "unwindstack::DexFiles::ReadVariableData",
   "linker_set_key" : "_ZN11unwindstack8DexFiles16ReadVariableDataEm",
   "parameters" :
   [
    {
     "is_this_ptr" : true,
     "referenced_type" : "_ZTIPN11unwindstack8DexFilesE"
    },
    {
     "referenced_type" : "_ZTIm"
    }
   ],
   "return_type" : "_ZTIb",
   "source_file" : "/system/core/libunwindstack/include/unwindstack/DexFiles.h"
  },
  {
   "function_name" : "unwindstack::DexFiles::GetMethodInformation",
   "linker_set_key" : "_ZN11unwindstack8DexFiles20GetMethodInformationEPNS_4MapsEPNS_7MapInfoEmPNSt3__112basic_stringIcNS5_11char_traitsIcEENS5_9allocatorIcEEEEPm",
   "parameters" :
   [
    {
     "is_this_ptr" : true,
     "referenced_type" : "_ZTIPN11unwindstack8DexFilesE"
    },
    {
     "referenced_type" : "_ZTIPN11unwindstack4MapsE"
    },
    {
     "referenced_type" : "_ZTIPN11unwindstack7MapInfoE"
    },
    {
     "referenced_type" : "_ZTIm"
    },
    {
     "referenced_type" : "_ZTIPNSt3__112basic_stringIcNS_11char_traitsIcEENS_9allocatorIcEEEE"
    },
    {
     "referenced_type" : "_ZTIPm"
    }
   ],
   "return_type" : "_ZTIv",
   "source_file" : "/system/core/libunwindstack/include/unwindstack/DexFiles.h"
  },
  {
   "access" : "private",
   "function_name" : "unwindstack::DexFiles::Init",
   "linker_set_key" : "_ZN11unwindstack8DexFiles4InitEPNS_4MapsE",
   "parameters" :
   [
    {
     "is_this_ptr" : true,
     "referenced_type" : "_ZTIPN11unwindstack8DexFilesE"
    },
    {
     "referenced_type" : "_ZTIPN11unwindstack4MapsE"
    }
   ],
   "return_type" : "_ZTIv",
   "source_file" : "/system/core/libunwindstack/include/unwindstack/DexFiles.h"
  },
  {
   "access" : "private",
   "function_name" : "unwindstack::DexFiles::GetAddr",
   "linker_set_key" : "_ZN11unwindstack8DexFiles7GetAddrEmPm",
   "parameters" :
   [
    {
     "is_this_ptr" : true,
     "referenced_type" : "_ZTIPN11unwindstack8DexFilesE"
    },
    {
     "referenced_type" : "_ZTIm"
    },
    {
     "referenced_type" : "_ZTIPm"
    }
   ],
   "return_type" : "_ZTIb",
   "source_file" : "/system/core/libunwindstack/include/unwindstack/DexFiles.h"
  },
  {
   "function_name" : "unwindstack::DexFiles::DexFiles",
   "linker_set_key" : "_ZN11unwindstack8DexFilesC1ERNSt3__110shared_ptrINS_6MemoryEEE",
   "parameters" :
   [
    {
     "is_this_ptr" : true,
     "referenced_type" : "_ZTIPN11unwindstack8DexFilesE"
    },
    {
     "referenced_type" : "_ZTIRNSt3__110shared_ptrIN11unwindstack6MemoryEEE"
    }
   ],
   "return_type" : "_ZTIv",
   "source_file" : "/system/core/libunwindstack/include/unwindstack/DexFiles.h"
  },
  {
   "function_name" : "unwindstack::DexFiles::DexFiles",
   "linker_set_key" : "_ZN11unwindstack8DexFilesC1ERNSt3__110shared_ptrINS_6MemoryEEERNS1_6vectorINS1_12basic_stringIcNS1_11char_traitsIcEENS1_9allocatorIcEEEENSA_ISC_EEEE",
   "parameters" :
   [
    {
     "is_this_ptr" : true,
     "referenced_type" : "_ZTIPN11unwindstack8DexFilesE"
    },
    {
     "referenced_type" : "_ZTIRNSt3__110shared_ptrIN11unwindstack6MemoryEEE"
    },
    {
     "referenced_type" : "_ZTIRNSt3__16vectorINS_12basic_stringIcNS_11char_traitsIcEENS_9allocatorIcEEEENS4_IS6_EEEE"
    }
   ],
   "return_type" : "_ZTIv",
   "source_file" : "/system/core/libunwindstack/include/unwindstack/DexFiles.h"
  },
  {
   "function_name" : "unwindstack::DexFiles::DexFiles",
   "linker_set_key" : "_ZN11unwindstack8DexFilesC2ERNSt3__110shared_ptrINS_6MemoryEEE",
   "parameters" :
   [
    {
     "is_this_ptr" : true,
     "referenced_type" : "_ZTIPN11unwindstack8DexFilesE"
    },
    {
     "referenced_type" : "_ZTIRNSt3__110shared_ptrIN11unwindstack6MemoryEEE"
    }
   ],
   "return_type" : "_ZTIv",
   "source_file" : "/system/core/libunwindstack/include/unwindstack/DexFiles.h"
  },
  {
   "function_name" : "unwindstack::DexFiles::DexFiles",
   "linker_set_key" : "_ZN11unwindstack8DexFilesC2ERNSt3__110shared_ptrINS_6MemoryEEERNS1_6vectorINS1_12basic_stringIcNS1_11char_traitsIcEENS1_9allocatorIcEEEENSA_ISC_EEEE",
   "parameters" :
   [
    {
     "is_this_ptr" : true,
     "referenced_type" : "_ZTIPN11unwindstack8DexFilesE"
    },
    {
     "referenced_type" : "_ZTIRNSt3__110shared_ptrIN11unwindstack6MemoryEEE"
    },
    {
     "referenced_type" : "_ZTIRNSt3__16vectorINS_12basic_stringIcNS_11char_traitsIcEENS_9allocatorIcEEEENS4_IS6_EEEE"
    }
   ],
   "return_type" : "_ZTIv",
   "source_file" : "/system/core/libunwindstack/include/unwindstack/DexFiles.h"
  },
  {
   "function_name" : "unwindstack::DexFiles::~DexFiles",
   "linker_set_key" : "_ZN11unwindstack8DexFilesD0Ev",
   "parameters" :
   [
    {
     "is_this_ptr" : true,
     "referenced_type" : "_ZTIPN11unwindstack8DexFilesE"
    }
   ],
   "return_type" : "_ZTIv",
   "source_file" : "/system/core/libunwindstack/include/unwindstack/DexFiles.h"
  },
  {
   "function_name" : "unwindstack::DexFiles::~DexFiles",
   "linker_set_key" : "_ZN11unwindstack8DexFilesD1Ev",
   "parameters" :
   [
    {
     "is_this_ptr" : true,
     "referenced_type" : "_ZTIPN11unwindstack8DexFilesE"
    }
   ],
   "return_type" : "_ZTIv",
   "source_file" : "/system/core/libunwindstack/include/unwindstack/DexFiles.h"
  },
  {
   "function_name" : "unwindstack::DexFiles::~DexFiles",
   "linker_set_key" : "_ZN11unwindstack8DexFilesD2Ev",
   "parameters" :
   [
    {
     "is_this_ptr" : true,
     "referenced_type" : "_ZTIPN11unwindstack8DexFilesE"
    }
   ],
   "return_type" : "_ZTIv",
   "source_file" : "/system/core/libunwindstack/include/unwindstack/DexFiles.h"
  },
  {
   "access" : "private",
   "function_name" : "unwindstack::JitDebug::ProcessArch",
   "linker_set_key" : "_ZN11unwindstack8JitDebug11ProcessArchEv",
   "parameters" :
   [
    {
     "is_this_ptr" : true,
     "referenced_type" : "_ZTIPN11unwindstack8JitDebugE"
    }
   ],
   "return_type" : "_ZTIv",
   "source_file" : "/system/core/libunwindstack/include/unwindstack/JitDebug.h"
  },
  {
   "access" : "private",
   "function_name" : "unwindstack::JitDebug::ReadEntry64",
   "linker_set_key" : "_ZN11unwindstack8JitDebug11ReadEntry64EPmS1_",
   "parameters" :
   [
    {
     "is_this_ptr" : true,
     "referenced_type" : "_ZTIPN11unwindstack8JitDebugE"
    },
    {
     "referenced_type" : "_ZTIPm"
    },
    {
     "referenced_type" : "_ZTIPm"
    }
   ],
   "return_type" : "_ZTIm",
   "source_file" : "/system/core/libunwindstack/include/unwindstack/JitDebug.h"
  },
  {
   "access" : "private",
   "function_name" : "unwindstack::JitDebug::ReadEntry32Pad",
   "linker_set_key" : "_ZN11unwindstack8JitDebug14ReadEntry32PadEPmS1_",
   "parameters" :
   [
    {
     "is_this_ptr" : true,
     "referenced_type" : "_ZTIPN11unwindstack8JitDebugE"
    },
    {
     "referenced_type" : "_ZTIPm"
    },
    {
     "referenced_type" : "_ZTIPm"
    }
   ],
   "return_type" : "_ZTIm",
   "source_file" : "/system/core/libunwindstack/include/unwindstack/JitDebug.h"
  },
  {
   "access" : "private",
   "function_name" : "unwindstack::JitDebug::ReadEntry32Pack",
   "linker_set_key" : "_ZN11unwindstack8JitDebug15ReadEntry32PackEPmS1_",
   "parameters" :
   [
    {
     "is_this_ptr" : true,
     "referenced_type" : "_ZTIPN11unwindstack8JitDebugE"
    },
    {
     "referenced_type" : "_ZTIPm"
    },
    {
     "referenced_type" : "_ZTIPm"
    }
   ],
   "return_type" : "_ZTIm",
   "source_file" : "/system/core/libunwindstack/include/unwindstack/JitDebug.h"
  },
  {
   "access" : "private",
   "function_name" : "unwindstack::JitDebug::ReadDescriptor32",
   "linker_set_key" : "_ZN11unwindstack8JitDebug16ReadDescriptor32Em",
   "parameters" :
   [
    {
     "is_this_ptr" : true,
     "referenced_type" : "_ZTIPN11unwindstack8JitDebugE"
    },
    {
     "referenced_type" : "_ZTIm"
    }
   ],
   "return_type" : "_ZTIm",
   "source_file" : "/system/core/libunwindstack/include/unwindstack/JitDebug.h"
  },
  {
   "access" : "private",
   "function_name" : "unwindstack::JitDebug::ReadDescriptor64",
   "linker_set_key" : "_ZN11unwindstack8JitDebug16ReadDescriptor64Em",
   "parameters" :
   [
    {
     "is_this_ptr" : true,
     "referenced_type" : "_ZTIPN11unwindstack8JitDebugE"
    },
    {
     "referenced_type" : "_ZTIm"
    }
   ],
   "return_type" : "_ZTIm",
   "source_file" : "/system/core/libunwindstack/include/unwindstack/JitDebug.h"
  },
  {
   "access" : "private",
   "function_name" : "unwindstack::JitDebug::ReadVariableData",
   "linker_set_key" : "_ZN11unwindstack8JitDebug16ReadVariableDataEm",
   "parameters" :
   [
    {
     "is_this_ptr" : true,
     "referenced_type" : "_ZTIPN11unwindstack8JitDebugE"
    },
    {
     "referenced_type" : "_ZTIm"
    }
   ],
   "return_type" : "_ZTIb",
   "source_file" : "/system/core/libunwindstack/include/unwindstack/JitDebug.h"
  },
  {
   "access" : "private",
   "function_name" : "unwindstack::JitDebug::Init",
   "linker_set_key" : "_ZN11unwindstack8JitDebug4InitEPNS_4MapsE",
   "parameters" :
   [
    {
     "is_this_ptr" : true,
     "referenced_type" : "_ZTIPN11unwindstack8JitDebugE"
    },
    {
     "referenced_type" : "_ZTIPN11unwindstack4MapsE"
    }
   ],
   "return_type" : "_ZTIv",
   "source_file" : "/system/core/libunwindstack/include/unwindstack/JitDebug.h"
  },
  {
   "function_name" : "unwindstack::JitDebug::GetElf",
   "linker_set_key" : "_ZN11unwindstack8JitDebug6GetElfEPNS_4MapsEm",
   "parameters" :
   [
    {
     "is_this_ptr" : true,
     "referenced_type" : "_ZTIPN11unwindstack8JitDebugE"
    },
    {
     "referenced_type" : "_ZTIPN11unwindstack4MapsE"
    },
    {
     "referenced_type" : "_ZTIm"
    }
   ],
   "return_type" : "_ZTIPN11unwindstack3ElfE",
   "source_file" : "/system/core/libunwindstack/include/unwindstack/JitDebug.h"
  },
  {
   "function_name" : "unwindstack::JitDebug::JitDebug",
   "linker_set_key" : "_ZN11unwindstack8JitDebugC1ERNSt3__110shared_ptrINS_6MemoryEEE",
   "parameters" :
   [
    {
     "is_this_ptr" : true,
     "referenced_type" : "_ZTIPN11unwindstack8JitDebugE"
    },
    {
     "referenced_type" : "_ZTIRNSt3__110shared_ptrIN11unwindstack6MemoryEEE"
    }
   ],
   "return_type" : "_ZTIv",
   "source_file" : "/system/core/libunwindstack/include/unwindstack/JitDebug.h"
  },
  {
   "function_name" : "unwindstack::JitDebug::JitDebug",
   "linker_set_key" : "_ZN11unwindstack8JitDebugC1ERNSt3__110shared_ptrINS_6MemoryEEERNS1_6vectorINS1_12basic_stringIcNS1_11char_traitsIcEENS1_9allocatorIcEEEENSA_ISC_EEEE",
   "parameters" :
   [
    {
     "is_this_ptr" : true,
     "referenced_type" : "_ZTIPN11unwindstack8JitDebugE"
    },
    {
     "referenced_type" : "_ZTIRNSt3__110shared_ptrIN11unwindstack6MemoryEEE"
    },
    {
     "referenced_type" : "_ZTIRNSt3__16vectorINS_12basic_stringIcNS_11char_traitsIcEENS_9allocatorIcEEEENS4_IS6_EEEE"
    }
   ],
   "return_type" : "_ZTIv",
   "source_file" : "/system/core/libunwindstack/include/unwindstack/JitDebug.h"
  },
  {
   "function_name" : "unwindstack::JitDebug::JitDebug",
   "linker_set_key" : "_ZN11unwindstack8JitDebugC2ERNSt3__110shared_ptrINS_6MemoryEEE",
   "parameters" :
   [
    {
     "is_this_ptr" : true,
     "referenced_type" : "_ZTIPN11unwindstack8JitDebugE"
    },
    {
     "referenced_type" : "_ZTIRNSt3__110shared_ptrIN11unwindstack6MemoryEEE"
    }
   ],
   "return_type" : "_ZTIv",
   "source_file" : "/system/core/libunwindstack/include/unwindstack/JitDebug.h"
  },
  {
   "function_name" : "unwindstack::JitDebug::JitDebug",
   "linker_set_key" : "_ZN11unwindstack8JitDebugC2ERNSt3__110shared_ptrINS_6MemoryEEERNS1_6vectorINS1_12basic_stringIcNS1_11char_traitsIcEENS1_9allocatorIcEEEENSA_ISC_EEEE",
   "parameters" :
   [
    {
     "is_this_ptr" : true,
     "referenced_type" : "_ZTIPN11unwindstack8JitDebugE"
    },
    {
     "referenced_type" : "_ZTIRNSt3__110shared_ptrIN11unwindstack6MemoryEEE"
    },
    {
     "referenced_type" : "_ZTIRNSt3__16vectorINS_12basic_stringIcNS_11char_traitsIcEENS_9allocatorIcEEEENS4_IS6_EEEE"
    }
   ],
   "return_type" : "_ZTIv",
   "source_file" : "/system/core/libunwindstack/include/unwindstack/JitDebug.h"
  },
  {
   "function_name" : "unwindstack::JitDebug::~JitDebug",
   "linker_set_key" : "_ZN11unwindstack8JitDebugD0Ev",
   "parameters" :
   [
    {
     "is_this_ptr" : true,
     "referenced_type" : "_ZTIPN11unwindstack8JitDebugE"
    }
   ],
   "return_type" : "_ZTIv",
   "source_file" : "/system/core/libunwindstack/include/unwindstack/JitDebug.h"
  },
  {
   "function_name" : "unwindstack::JitDebug::~JitDebug",
   "linker_set_key" : "_ZN11unwindstack8JitDebugD1Ev",
   "parameters" :
   [
    {
     "is_this_ptr" : true,
     "referenced_type" : "_ZTIPN11unwindstack8JitDebugE"
    }
   ],
   "return_type" : "_ZTIv",
   "source_file" : "/system/core/libunwindstack/include/unwindstack/JitDebug.h"
  },
  {
   "function_name" : "unwindstack::JitDebug::~JitDebug",
   "linker_set_key" : "_ZN11unwindstack8JitDebugD2Ev",
   "parameters" :
   [
    {
     "is_this_ptr" : true,
     "referenced_type" : "_ZTIPN11unwindstack8JitDebugE"
    }
   ],
   "return_type" : "_ZTIv",
   "source_file" : "/system/core/libunwindstack/include/unwindstack/JitDebug.h"
  },
  {
   "function_name" : "unwindstack::RegsMips::GetPcAdjustment",
   "linker_set_key" : "_ZN11unwindstack8RegsMips15GetPcAdjustmentEmPNS_3ElfE",
   "parameters" :
   [
    {
     "is_this_ptr" : true,
     "referenced_type" : "_ZTIPN11unwindstack8RegsMipsE"
    },
    {
     "referenced_type" : "_ZTIm"
    },
    {
     "referenced_type" : "_ZTIPN11unwindstack3ElfE"
    }
   ],
   "return_type" : "_ZTIm",
   "source_file" : "/system/core/libunwindstack/include/unwindstack/RegsMips.h"
  },
  {
   "function_name" : "unwindstack::RegsMips::IterateRegisters",
   "linker_set_key" : "_ZN11unwindstack8RegsMips16IterateRegistersENSt3__18functionIFvPKcmEEE",
   "parameters" :
   [
    {
     "is_this_ptr" : true,
     "referenced_type" : "_ZTIPN11unwindstack8RegsMipsE"
    },
    {
     "referenced_type" : "_ZTINSt3__18functionIFvPKcmEEE"
    }
   ],
   "return_type" : "_ZTIv",
   "source_file" : "/system/core/libunwindstack/include/unwindstack/RegsMips.h"
  },
  {
   "function_name" : "unwindstack::RegsMips::CreateFromUcontext",
   "linker_set_key" : "_ZN11unwindstack8RegsMips18CreateFromUcontextEPv",
   "parameters" :
   [
    {
     "referenced_type" : "_ZTIPv"
    }
   ],
   "return_type" : "_ZTIPN11unwindstack4RegsE",
   "source_file" : "/system/core/libunwindstack/include/unwindstack/RegsMips.h"
  },
  {
   "function_name" : "unwindstack::RegsMips::StepIfSignalHandler",
   "linker_set_key" : "_ZN11unwindstack8RegsMips19StepIfSignalHandlerEmPNS_3ElfEPNS_6MemoryE",
   "parameters" :
   [
    {
     "is_this_ptr" : true,
     "referenced_type" : "_ZTIPN11unwindstack8RegsMipsE"
    },
    {
     "referenced_type" : "_ZTIm"
    },
    {
     "referenced_type" : "_ZTIPN11unwindstack3ElfE"
    },
    {
     "referenced_type" : "_ZTIPN11unwindstack6MemoryE"
    }
   ],
   "return_type" : "_ZTIb",
   "source_file" : "/system/core/libunwindstack/include/unwindstack/RegsMips.h"
  },
  {
   "function_name" : "unwindstack::RegsMips::SetPcFromReturnAddress",
   "linker_set_key" : "_ZN11unwindstack8RegsMips22SetPcFromReturnAddressEPNS_6MemoryE",
   "parameters" :
   [
    {
     "is_this_ptr" : true,
     "referenced_type" : "_ZTIPN11unwindstack8RegsMipsE"
    },
    {
     "referenced_type" : "_ZTIPN11unwindstack6MemoryE"
    }
   ],
   "return_type" : "_ZTIb",
   "source_file" : "/system/core/libunwindstack/include/unwindstack/RegsMips.h"
  },
  {
   "function_name" : "unwindstack::RegsMips::pc",
   "linker_set_key" : "_ZN11unwindstack8RegsMips2pcEv",
   "parameters" :
   [
    {
     "is_this_ptr" : true,
     "referenced_type" : "_ZTIPN11unwindstack8RegsMipsE"
    }
   ],
   "return_type" : "_ZTIm",
   "source_file" : "/system/core/libunwindstack/include/unwindstack/RegsMips.h"
  },
  {
   "function_name" : "unwindstack::RegsMips::sp",
   "linker_set_key" : "_ZN11unwindstack8RegsMips2spEv",
   "parameters" :
   [
    {
     "is_this_ptr" : true,
     "referenced_type" : "_ZTIPN11unwindstack8RegsMipsE"
    }
   ],
   "return_type" : "_ZTIm",
   "source_file" : "/system/core/libunwindstack/include/unwindstack/RegsMips.h"
  },
  {
   "function_name" : "unwindstack::RegsMips::Arch",
   "linker_set_key" : "_ZN11unwindstack8RegsMips4ArchEv",
   "parameters" :
   [
    {
     "is_this_ptr" : true,
     "referenced_type" : "_ZTIPN11unwindstack8RegsMipsE"
    }
   ],
   "return_type" : "_ZTIN11unwindstack8ArchEnumE",
   "source_file" : "/system/core/libunwindstack/include/unwindstack/RegsMips.h"
  },
  {
   "function_name" : "unwindstack::RegsMips::Read",
   "linker_set_key" : "_ZN11unwindstack8RegsMips4ReadEPv",
   "parameters" :
   [
    {
     "referenced_type" : "_ZTIPv"
    }
   ],
   "return_type" : "_ZTIPN11unwindstack4RegsE",
   "source_file" : "/system/core/libunwindstack/include/unwindstack/RegsMips.h"
  },
  {
   "function_name" : "unwindstack::RegsMips::Clone",
   "linker_set_key" : "_ZN11unwindstack8RegsMips5CloneEv",
   "parameters" :
   [
    {
     "is_this_ptr" : true,
     "referenced_type" : "_ZTIPN11unwindstack8RegsMipsE"
    }
   ],
   "return_type" : "_ZTIPN11unwindstack4RegsE",
   "source_file" : "/system/core/libunwindstack/include/unwindstack/RegsMips.h"
  },
  {
   "function_name" : "unwindstack::RegsMips::set_pc",
   "linker_set_key" : "_ZN11unwindstack8RegsMips6set_pcEm",
   "parameters" :
   [
    {
     "is_this_ptr" : true,
     "referenced_type" : "_ZTIPN11unwindstack8RegsMipsE"
    },
    {
     "referenced_type" : "_ZTIm"
    }
   ],
   "return_type" : "_ZTIv",
   "source_file" : "/system/core/libunwindstack/include/unwindstack/RegsMips.h"
  },
  {
   "function_name" : "unwindstack::RegsMips::set_sp",
   "linker_set_key" : "_ZN11unwindstack8RegsMips6set_spEm",
   "parameters" :
   [
    {
     "is_this_ptr" : true,
     "referenced_type" : "_ZTIPN11unwindstack8RegsMipsE"
    },
    {
     "referenced_type" : "_ZTIm"
    }
   ],
   "return_type" : "_ZTIv",
   "source_file" : "/system/core/libunwindstack/include/unwindstack/RegsMips.h"
  },
  {
   "function_name" : "unwindstack::RegsMips::RegsMips",
   "linker_set_key" : "_ZN11unwindstack8RegsMipsC1Ev",
   "parameters" :
   [
    {
     "is_this_ptr" : true,
     "referenced_type" : "_ZTIPN11unwindstack8RegsMipsE"
    }
   ],
   "return_type" : "_ZTIv",
   "source_file" : "/system/core/libunwindstack/include/unwindstack/RegsMips.h"
  },
  {
   "function_name" : "unwindstack::RegsMips::RegsMips",
   "linker_set_key" : "_ZN11unwindstack8RegsMipsC2Ev",
   "parameters" :
   [
    {
     "is_this_ptr" : true,
     "referenced_type" : "_ZTIPN11unwindstack8RegsMipsE"
    }
   ],
   "return_type" : "_ZTIv",
   "source_file" : "/system/core/libunwindstack/include/unwindstack/RegsMips.h"
  },
  {
   "access" : "protected",
   "function_name" : "unwindstack::Unwinder::FillInFrame",
   "linker_set_key" : "_ZN11unwindstack8Unwinder11FillInFrameEPNS_7MapInfoEPNS_3ElfEmm",
   "parameters" :
   [
    {
     "is_this_ptr" : true,
     "referenced_type" : "_ZTIPN11unwindstack8UnwinderE"
    },
    {
     "referenced_type" : "_ZTIPN11unwindstack7MapInfoE"
    },
    {
     "referenced_type" : "_ZTIPN11unwindstack3ElfE"
    },
    {
     "referenced_type" : "_ZTIm"
    },
    {
     "referenced_type" : "_ZTIm"
    }
   ],
   "return_type" : "_ZTIPN11unwindstack9FrameDataE",
   "source_file" : "/system/core/libunwindstack/include/unwindstack/Unwinder.h"
  },
  {
   "function_name" : "unwindstack::Unwinder::SetDexFiles",
   "linker_set_key" : "_ZN11unwindstack8Unwinder11SetDexFilesEPNS_8DexFilesENS_8ArchEnumE",
   "parameters" :
   [
    {
     "is_this_ptr" : true,
     "referenced_type" : "_ZTIPN11unwindstack8UnwinderE"
    },
    {
     "referenced_type" : "_ZTIPN11unwindstack8DexFilesE"
    },
    {
     "referenced_type" : "_ZTIN11unwindstack8ArchEnumE"
    }
   ],
   "return_type" : "_ZTIv",
   "source_file" : "/system/core/libunwindstack/include/unwindstack/Unwinder.h"
  },
  {
   "function_name" : "unwindstack::Unwinder::SetJitDebug",
   "linker_set_key" : "_ZN11unwindstack8Unwinder11SetJitDebugEPNS_8JitDebugENS_8ArchEnumE",
   "parameters" :
   [
    {
     "is_this_ptr" : true,
     "referenced_type" : "_ZTIPN11unwindstack8UnwinderE"
    },
    {
     "referenced_type" : "_ZTIPN11unwindstack8JitDebugE"
    },
    {
     "referenced_type" : "_ZTIN11unwindstack8ArchEnumE"
    }
   ],
   "return_type" : "_ZTIv",
   "source_file" : "/system/core/libunwindstack/include/unwindstack/Unwinder.h"
  },
  {
   "access" : "protected",
   "function_name" : "unwindstack::Unwinder::FillInDexFrame",
   "linker_set_key" : "_ZN11unwindstack8Unwinder14FillInDexFrameEv",
   "parameters" :
   [
    {
     "is_this_ptr" : true,
     "referenced_type" : "_ZTIPN11unwindstack8UnwinderE"
    }
   ],
   "return_type" : "_ZTIv",
   "source_file" : "/system/core/libunwindstack/include/unwindstack/Unwinder.h"
  },
  {
   "function_name" : "unwindstack::Unwinder::Unwind",
   "linker_set_key" : "_ZN11unwindstack8Unwinder6UnwindEPKNSt3__16vectorINS1_12basic_stringIcNS1_11char_traitsIcEENS1_9allocatorIcEEEENS6_IS8_EEEESC_",
   "parameters" :
   [
    {
     "is_this_ptr" : true,
     "referenced_type" : "_ZTIPN11unwindstack8UnwinderE"
    },
    {
     "default_arg" : true,
     "referenced_type" : "_ZTIPKNSt3__16vectorINS_12basic_stringIcNS_11char_traitsIcEENS_9allocatorIcEEEENS4_IS6_EEEE"
    },
    {
     "default_arg" : true,
     "referenced_type" : "_ZTIPKNSt3__16vectorINS_12basic_stringIcNS_11char_traitsIcEENS_9allocatorIcEEEENS4_IS6_EEEE"
    }
   ],
   "return_type" : "_ZTIv",
   "source_file" : "/system/core/libunwindstack/include/unwindstack/Unwinder.h"
  },
  {
   "function_name" : "unwindstack::RegsArm64::GetPcAdjustment",
   "linker_set_key" : "_ZN11unwindstack9RegsArm6415GetPcAdjustmentEmPNS_3ElfE",
   "parameters" :
   [
    {
     "is_this_ptr" : true,
     "referenced_type" : "_ZTIPN11unwindstack9RegsArm64E"
    },
    {
     "referenced_type" : "_ZTIm"
    },
    {
     "referenced_type" : "_ZTIPN11unwindstack3ElfE"
    }
   ],
   "return_type" : "_ZTIm",
   "source_file" : "/system/core/libunwindstack/include/unwindstack/RegsArm64.h"
  },
  {
   "function_name" : "unwindstack::RegsArm64::IterateRegisters",
   "linker_set_key" : "_ZN11unwindstack9RegsArm6416IterateRegistersENSt3__18functionIFvPKcmEEE",
   "parameters" :
   [
    {
     "is_this_ptr" : true,
     "referenced_type" : "_ZTIPN11unwindstack9RegsArm64E"
    },
    {
     "referenced_type" : "_ZTINSt3__18functionIFvPKcmEEE"
    }
   ],
   "return_type" : "_ZTIv",
   "source_file" : "/system/core/libunwindstack/include/unwindstack/RegsArm64.h"
  },
  {
   "function_name" : "unwindstack::RegsArm64::CreateFromUcontext",
   "linker_set_key" : "_ZN11unwindstack9RegsArm6418CreateFromUcontextEPv",
   "parameters" :
   [
    {
     "referenced_type" : "_ZTIPv"
    }
   ],
   "return_type" : "_ZTIPN11unwindstack4RegsE",
   "source_file" : "/system/core/libunwindstack/include/unwindstack/RegsArm64.h"
  },
  {
   "function_name" : "unwindstack::RegsArm64::StepIfSignalHandler",
   "linker_set_key" : "_ZN11unwindstack9RegsArm6419StepIfSignalHandlerEmPNS_3ElfEPNS_6MemoryE",
   "parameters" :
   [
    {
     "is_this_ptr" : true,
     "referenced_type" : "_ZTIPN11unwindstack9RegsArm64E"
    },
    {
     "referenced_type" : "_ZTIm"
    },
    {
     "referenced_type" : "_ZTIPN11unwindstack3ElfE"
    },
    {
     "referenced_type" : "_ZTIPN11unwindstack6MemoryE"
    }
   ],
   "return_type" : "_ZTIb",
   "source_file" : "/system/core/libunwindstack/include/unwindstack/RegsArm64.h"
  },
  {
   "function_name" : "unwindstack::RegsArm64::SetPcFromReturnAddress",
   "linker_set_key" : "_ZN11unwindstack9RegsArm6422SetPcFromReturnAddressEPNS_6MemoryE",
   "parameters" :
   [
    {
     "is_this_ptr" : true,
     "referenced_type" : "_ZTIPN11unwindstack9RegsArm64E"
    },
    {
     "referenced_type" : "_ZTIPN11unwindstack6MemoryE"
    }
   ],
   "return_type" : "_ZTIb",
   "source_file" : "/system/core/libunwindstack/include/unwindstack/RegsArm64.h"
  },
  {
   "function_name" : "unwindstack::RegsArm64::pc",
   "linker_set_key" : "_ZN11unwindstack9RegsArm642pcEv",
   "parameters" :
   [
    {
     "is_this_ptr" : true,
     "referenced_type" : "_ZTIPN11unwindstack9RegsArm64E"
    }
   ],
   "return_type" : "_ZTIm",
   "source_file" : "/system/core/libunwindstack/include/unwindstack/RegsArm64.h"
  },
  {
   "function_name" : "unwindstack::RegsArm64::sp",
   "linker_set_key" : "_ZN11unwindstack9RegsArm642spEv",
   "parameters" :
   [
    {
     "is_this_ptr" : true,
     "referenced_type" : "_ZTIPN11unwindstack9RegsArm64E"
    }
   ],
   "return_type" : "_ZTIm",
   "source_file" : "/system/core/libunwindstack/include/unwindstack/RegsArm64.h"
  },
  {
   "function_name" : "unwindstack::RegsArm64::Arch",
   "linker_set_key" : "_ZN11unwindstack9RegsArm644ArchEv",
   "parameters" :
   [
    {
     "is_this_ptr" : true,
     "referenced_type" : "_ZTIPN11unwindstack9RegsArm64E"
    }
   ],
   "return_type" : "_ZTIN11unwindstack8ArchEnumE",
   "source_file" : "/system/core/libunwindstack/include/unwindstack/RegsArm64.h"
  },
  {
   "function_name" : "unwindstack::RegsArm64::Read",
   "linker_set_key" : "_ZN11unwindstack9RegsArm644ReadEPv",
   "parameters" :
   [
    {
     "referenced_type" : "_ZTIPv"
    }
   ],
   "return_type" : "_ZTIPN11unwindstack4RegsE",
   "source_file" : "/system/core/libunwindstack/include/unwindstack/RegsArm64.h"
  },
  {
   "function_name" : "unwindstack::RegsArm64::Clone",
   "linker_set_key" : "_ZN11unwindstack9RegsArm645CloneEv",
   "parameters" :
   [
    {
     "is_this_ptr" : true,
     "referenced_type" : "_ZTIPN11unwindstack9RegsArm64E"
    }
   ],
   "return_type" : "_ZTIPN11unwindstack4RegsE",
   "source_file" : "/system/core/libunwindstack/include/unwindstack/RegsArm64.h"
  },
  {
   "function_name" : "unwindstack::RegsArm64::set_pc",
   "linker_set_key" : "_ZN11unwindstack9RegsArm646set_pcEm",
   "parameters" :
   [
    {
     "is_this_ptr" : true,
     "referenced_type" : "_ZTIPN11unwindstack9RegsArm64E"
    },
    {
     "referenced_type" : "_ZTIm"
    }
   ],
   "return_type" : "_ZTIv",
   "source_file" : "/system/core/libunwindstack/include/unwindstack/RegsArm64.h"
  },
  {
   "function_name" : "unwindstack::RegsArm64::set_sp",
   "linker_set_key" : "_ZN11unwindstack9RegsArm646set_spEm",
   "parameters" :
   [
    {
     "is_this_ptr" : true,
     "referenced_type" : "_ZTIPN11unwindstack9RegsArm64E"
    },
    {
     "referenced_type" : "_ZTIm"
    }
   ],
   "return_type" : "_ZTIv",
   "source_file" : "/system/core/libunwindstack/include/unwindstack/RegsArm64.h"
  },
  {
   "function_name" : "unwindstack::RegsArm64::RegsArm64",
   "linker_set_key" : "_ZN11unwindstack9RegsArm64C1Ev",
   "parameters" :
   [
    {
     "is_this_ptr" : true,
     "referenced_type" : "_ZTIPN11unwindstack9RegsArm64E"
    }
   ],
   "return_type" : "_ZTIv",
   "source_file" : "/system/core/libunwindstack/include/unwindstack/RegsArm64.h"
  },
  {
   "function_name" : "unwindstack::RegsArm64::RegsArm64",
   "linker_set_key" : "_ZN11unwindstack9RegsArm64C2Ev",
   "parameters" :
   [
    {
     "is_this_ptr" : true,
     "referenced_type" : "_ZTIPN11unwindstack9RegsArm64E"
    }
   ],
   "return_type" : "_ZTIv",
   "source_file" : "/system/core/libunwindstack/include/unwindstack/RegsArm64.h"
  },
  {
   "function_name" : "unwindstack::RemoteMaps::GetMapsFile",
   "linker_set_key" : "_ZNK11unwindstack10RemoteMaps11GetMapsFileEv",
   "parameters" :
   [
    {
     "is_this_ptr" : true,
     "referenced_type" : "_ZTIPKN11unwindstack10RemoteMapsE"
    }
   ],
   "return_type" : "_ZTIKNSt3__112basic_stringIcNS_11char_traitsIcEENS_9allocatorIcEEEE",
   "source_file" : "/system/core/libunwindstack/include/unwindstack/Maps.h"
  },
  {
   "function_name" : "unwindstack::LocalUpdatableMaps::GetMapsFile",
   "linker_set_key" : "_ZNK11unwindstack18LocalUpdatableMaps11GetMapsFileEv",
   "parameters" :
   [
    {
     "is_this_ptr" : true,
     "referenced_type" : "_ZTIPKN11unwindstack18LocalUpdatableMapsE"
    }
   ],
   "return_type" : "_ZTIKNSt3__112basic_stringIcNS_11char_traitsIcEENS_9allocatorIcEEEE",
   "source_file" : "/system/core/libunwindstack/include/unwindstack/Maps.h"
  },
  {
   "function_name" : "unwindstack::Unwinder::FormatFrame",
   "linker_set_key" : "_ZNK11unwindstack8Unwinder11FormatFrameERKNS_9FrameDataE",
   "parameters" :
   [
    {
     "is_this_ptr" : true,
     "referenced_type" : "_ZTIPKN11unwindstack8UnwinderE"
    },
    {
     "referenced_type" : "_ZTIRKN11unwindstack9FrameDataE"
    }
   ],
   "return_type" : "_ZTINSt3__112basic_stringIcNS_11char_traitsIcEENS_9allocatorIcEEEE",
   "source_file" : "/system/core/libunwindstack/include/unwindstack/Unwinder.h"
  },
  {
   "function_name" : "unwindstack::Unwinder::FormatFrame",
   "linker_set_key" : "_ZNK11unwindstack8Unwinder11FormatFrameEm",
   "parameters" :
   [
    {
     "is_this_ptr" : true,
     "referenced_type" : "_ZTIPKN11unwindstack8UnwinderE"
    },
    {
     "referenced_type" : "_ZTIm"
    }
   ],
   "return_type" : "_ZTINSt3__112basic_stringIcNS_11char_traitsIcEENS_9allocatorIcEEEE",
   "source_file" : "/system/core/libunwindstack/include/unwindstack/Unwinder.h"
  }
 ],
 "global_vars" :
 [
  {
   "access" : "protected",
   "linker_set_key" : "_ZN11unwindstack3Elf11cache_lock_E",
   "name" : "unwindstack::Elf::cache_lock_",
   "referenced_type" : "_ZTIPNSt3__15mutexE",
   "source_file" : "/system/core/libunwindstack/include/unwindstack/Elf.h"
  },
  {
   "access" : "protected",
   "linker_set_key" : "_ZN11unwindstack3Elf14cache_enabled_E",
   "name" : "unwindstack::Elf::cache_enabled_",
   "referenced_type" : "_ZTIb",
   "source_file" : "/system/core/libunwindstack/include/unwindstack/Elf.h"
  },
  {
   "access" : "protected",
   "linker_set_key" : "_ZN11unwindstack3Elf6cache_E",
   "name" : "unwindstack::Elf::cache_",
   "referenced_type" : "_ZTIPNSt3__113unordered_mapINS_12basic_stringIcNS_11char_traitsIcEENS_9allocatorIcEEEENS_4pairINS_10shared_ptrIN11unwindstack3ElfEEEbEENS_4hashIS6_EENS_8equal_toIS6_EENS4_INS7_IKS6_SC_EEEEEE",
   "source_file" : "/system/core/libunwindstack/include/unwindstack/Elf.h"
  }
 ],
 "lvalue_reference_types" :
 [
  {
   "alignment" : 8,
   "linker_set_key" : "_ZTIRK9elf32_hdr",
   "name" : "const elf32_hdr &",
   "referenced_type" : "_ZTIK9elf32_hdr",
   "self_type" : "_ZTIRK9elf32_hdr",
   "size" : 8,
   "source_file" : "/system/core/libunwindstack/include/unwindstack/ElfInterface.h"
  },
  {
   "alignment" : 8,
   "linker_set_key" : "_ZTIRK9elf64_hdr",
   "name" : "const elf64_hdr &",
   "referenced_type" : "_ZTIK9elf64_hdr",
   "self_type" : "_ZTIRK9elf64_hdr",
   "size" : 8,
   "source_file" : "/system/core/libunwindstack/include/unwindstack/ElfInterface.h"
  },
  {
   "alignment" : 8,
   "linker_set_key" : "_ZTIRKN11unwindstack12DwarfSection8iteratorE",
   "name" : "const unwindstack::DwarfSection::iterator &",
   "referenced_type" : "_ZTIKN11unwindstack12DwarfSection8iteratorE",
   "self_type" : "_ZTIRKN11unwindstack12DwarfSection8iteratorE",
   "size" : 8,
   "source_file" : "/system/core/libunwindstack/include/unwindstack/DwarfSection.h"
  },
  {
   "alignment" : 8,
   "linker_set_key" : "_ZTIRKN11unwindstack4Regs8LocationE",
   "name" : "const unwindstack::Regs::Location &",
   "referenced_type" : "_ZTIKN11unwindstack4Regs8LocationE",
   "self_type" : "_ZTIRKN11unwindstack4Regs8LocationE",
   "size" : 8,
   "source_file" : "/system/core/libunwindstack/include/unwindstack/Regs.h"
  },
  {
   "alignment" : 8,
   "linker_set_key" : "_ZTIRKN11unwindstack9ErrorDataE",
   "name" : "const unwindstack::ErrorData &",
   "referenced_type" : "_ZTIKN11unwindstack9ErrorDataE",
   "self_type" : "_ZTIRKN11unwindstack9ErrorDataE",
   "size" : 8,
   "source_file" : "/system/core/libunwindstack/include/unwindstack/ElfInterface.h"
  },
  {
   "alignment" : 8,
   "linker_set_key" : "_ZTIRKN11unwindstack9FrameDataE",
   "name" : "const unwindstack::FrameData &",
   "referenced_type" : "_ZTIKN11unwindstack9FrameDataE",
   "self_type" : "_ZTIRKN11unwindstack9FrameDataE",
   "size" : 8,
   "source_file" : "/system/core/libunwindstack/include/unwindstack/Unwinder.h"
  },
  {
   "alignment" : 8,
   "linker_set_key" : "_ZTIRKNSt3__110shared_ptrIN11unwindstack6MemoryEEE",
   "name" : "const std::shared_ptr<unwindstack::Memory> &",
   "referenced_type" : "_ZTIKNSt3__110shared_ptrIN11unwindstack6MemoryEEE",
   "self_type" : "_ZTIRKNSt3__110shared_ptrIN11unwindstack6MemoryEEE",
   "size" : 8,
   "source_file" : "/system/core/libunwindstack/include/unwindstack/MapInfo.h"
  },
  {
   "alignment" : 8,
   "linker_set_key" : "_ZTIRKNSt3__112basic_stringIcNS_11char_traitsIcEENS_9allocatorIcEEEE",
   "name" : "const std::basic_string<char, std::char_traits<char>, std::allocator<char> > &",
   "referenced_type" : "_ZTIKNSt3__112basic_stringIcNS_11char_traitsIcEENS_9allocatorIcEEEE",
   "self_type" : "_ZTIRKNSt3__112basic_stringIcNS_11char_traitsIcEENS_9allocatorIcEEEE",
   "size" : 8,
   "source_file" : "/system/core/libunwindstack/include/unwindstack/ElfInterface.h"
  },
  {
   "alignment" : 8,
   "linker_set_key" : "_ZTIRKNSt3__113unordered_mapImN11unwindstack8LoadInfoENS_4hashImEENS_8equal_toImEENS_9allocatorINS_4pairIKmS2_EEEEEE",
   "name" : "const std::unordered_map<unsigned long, unwindstack::LoadInfo, std::hash<unsigned long>, std::equal_to<unsigned long>, std::allocator<std::pair<const unsigned long, unwindstack::LoadInfo> > > &",
   "referenced_type" : "_ZTIKNSt3__113unordered_mapImN11unwindstack8LoadInfoENS_4hashImEENS_8equal_toImEENS_9allocatorINS_4pairIKmS2_EEEEEE",
   "self_type" : "_ZTIRKNSt3__113unordered_mapImN11unwindstack8LoadInfoENS_4hashImEENS_8equal_toImEENS_9allocatorINS_4pairIKmS2_EEEEEE",
   "size" : 8,
   "source_file" : "/system/core/libunwindstack/include/unwindstack/ElfInterface.h"
  },
  {
   "alignment" : 8,
   "linker_set_key" : "_ZTIRKNSt3__16vectorIN11unwindstack9FrameDataENS_9allocatorIS2_EEEE",
   "name" : "const std::vector<unwindstack::FrameData, std::allocator<unwindstack::FrameData> > &",
   "referenced_type" : "_ZTIKNSt3__16vectorIN11unwindstack9FrameDataENS_9allocatorIS2_EEEE",
   "self_type" : "_ZTIRKNSt3__16vectorIN11unwindstack9FrameDataENS_9allocatorIS2_EEEE",
   "size" : 8,
   "source_file" : "/system/core/libunwindstack/include/unwindstack/Unwinder.h"
  },
  {
   "alignment" : 8,
   "linker_set_key" : "_ZTIRKNSt3__16vectorINS_12basic_stringIcNS_11char_traitsIcEENS_9allocatorIcEEEENS4_IS6_EEEE",
   "name" : "const std::vector<std::basic_string<char, std::char_traits<char>, std::allocator<char> >, std::allocator<std::basic_string<char, std::char_traits<char>, std::allocator<char> > > > &",
   "referenced_type" : "_ZTIKNSt3__16vectorINS_12basic_stringIcNS_11char_traitsIcEENS_9allocatorIcEEEENS4_IS6_EEEE",
   "self_type" : "_ZTIRKNSt3__16vectorINS_12basic_stringIcNS_11char_traitsIcEENS_9allocatorIcEEEENS4_IS6_EEEE",
   "size" : 8,
   "source_file" : "/system/core/libunwindstack/include/unwindstack/LocalUnwinder.h"
  },
  {
   "alignment" : 8,
   "linker_set_key" : "_ZTIRN11unwindstack12DwarfSection8iteratorE",
   "name" : "unwindstack::DwarfSection::iterator &",
   "referenced_type" : "_ZTIN11unwindstack12DwarfSection8iteratorE",
   "self_type" : "_ZTIRN11unwindstack12DwarfSection8iteratorE",
   "size" : 8,
   "source_file" : "/system/core/libunwindstack/include/unwindstack/DwarfSection.h"
  },
  {
   "alignment" : 8,
   "linker_set_key" : "_ZTIRN11unwindstack4MapsE",
   "name" : "unwindstack::Maps &",
   "referenced_type" : "_ZTIN11unwindstack4MapsE",
   "self_type" : "_ZTIRN11unwindstack4MapsE",
   "size" : 8,
   "source_file" : "/system/core/libunwindstack/include/unwindstack/Maps.h"
  },
  {
   "alignment" : 8,
   "linker_set_key" : "_ZTIRNSt3__110shared_ptrIN11unwindstack6MemoryEEE",
   "name" : "std::shared_ptr<unwindstack::Memory> &",
   "referenced_type" : "_ZTINSt3__110shared_ptrIN11unwindstack6MemoryEEE",
   "self_type" : "_ZTIRNSt3__110shared_ptrIN11unwindstack6MemoryEEE",
   "size" : 8,
   "source_file" : "/system/core/libunwindstack/include/unwindstack/DexFiles.h"
  },
  {
   "alignment" : 8,
   "linker_set_key" : "_ZTIRNSt3__16vectorINS_12basic_stringIcNS_11char_traitsIcEENS_9allocatorIcEEEENS4_IS6_EEEE",
   "name" : "std::vector<std::basic_string<char, std::char_traits<char>, std::allocator<char> >, std::allocator<std::basic_string<char, std::char_traits<char>, std::allocator<char> > > > &",
   "referenced_type" : "_ZTINSt3__16vectorINS_12basic_stringIcNS_11char_traitsIcEENS_9allocatorIcEEEENS4_IS6_EEEE",
   "self_type" : "_ZTIRNSt3__16vectorINS_12basic_stringIcNS_11char_traitsIcEENS_9allocatorIcEEEENS4_IS6_EEEE",
   "size" : 8,
   "source_file" : "/system/core/libunwindstack/include/unwindstack/DexFiles.h"
  },
  {
   "alignment" : 8,
   "linker_set_key" : "_ZTIRj",
   "name" : "unsigned int &",
   "referenced_type" : "_ZTIj",
   "self_type" : "_ZTIRj",
   "size" : 8,
   "source_file" : "/system/core/libunwindstack/include/unwindstack/Regs.h"
  },
  {
   "alignment" : 8,
   "linker_set_key" : "_ZTIRm",
   "name" : "unsigned long &",
   "referenced_type" : "_ZTIm",
   "self_type" : "_ZTIRm",
   "size" : 8,
   "source_file" : "/system/core/libunwindstack/include/unwindstack/Regs.h"
  }
 ],
 "pointer_types" :
 [
  {
   "alignment" : 8,
   "linker_set_key" : "_ZTIPKN11unwindstack10RemoteMapsE",
   "name" : "const unwindstack::RemoteMaps *",
   "referenced_type" : "_ZTIKN11unwindstack10RemoteMapsE",
   "self_type" : "_ZTIPKN11unwindstack10RemoteMapsE",
   "size" : 8,
   "source_file" : "/system/core/libunwindstack/include/unwindstack/Maps.h"
  },
  {
   "alignment" : 8,
   "linker_set_key" : "_ZTIPKN11unwindstack18LocalUpdatableMapsE",
   "name" : "const unwindstack::LocalUpdatableMaps *",
   "referenced_type" : "_ZTIKN11unwindstack18LocalUpdatableMapsE",
   "self_type" : "_ZTIPKN11unwindstack18LocalUpdatableMapsE",
   "size" : 8,
   "source_file" : "/system/core/libunwindstack/include/unwindstack/Maps.h"
  },
  {
   "alignment" : 8,
   "linker_set_key" : "_ZTIPKN11unwindstack4MapsE",
   "name" : "const unwindstack::Maps *",
   "referenced_type" : "_ZTIKN11unwindstack4MapsE",
   "self_type" : "_ZTIPKN11unwindstack4MapsE",
   "size" : 8,
   "source_file" : "/system/core/libunwindstack/include/unwindstack/Maps.h"
  },
  {
   "alignment" : 8,
   "linker_set_key" : "_ZTIPKN11unwindstack7MapInfoE",
   "name" : "const unwindstack::MapInfo *",
   "referenced_type" : "_ZTIKN11unwindstack7MapInfoE",
   "self_type" : "_ZTIPKN11unwindstack7MapInfoE",
   "size" : 8,
   "source_file" : "/system/core/libunwindstack/include/unwindstack/Elf.h"
  },
  {
   "alignment" : 8,
   "linker_set_key" : "_ZTIPKN11unwindstack8DwarfCieE",
   "name" : "const unwindstack::DwarfCie *",
   "referenced_type" : "_ZTIKN11unwindstack8DwarfCieE",
   "self_type" : "_ZTIPKN11unwindstack8DwarfCieE",
   "size" : 8,
   "source_file" : "/system/core/libunwindstack/include/unwindstack/DwarfLocation.h"
  },
  {
   "alignment" : 8,
   "linker_set_key" : "_ZTIPKN11unwindstack8DwarfFdeE",
   "name" : "const unwindstack::DwarfFde *",
   "referenced_type" : "_ZTIKN11unwindstack8DwarfFdeE",
   "self_type" : "_ZTIPKN11unwindstack8DwarfFdeE",
   "size" : 8,
   "source_file" : "/system/core/libunwindstack/include/unwindstack/DwarfSection.h"
  },
  {
   "alignment" : 8,
   "linker_set_key" : "_ZTIPKN11unwindstack8FileMapsE",
   "name" : "const unwindstack::FileMaps *",
   "referenced_type" : "_ZTIKN11unwindstack8FileMapsE",
   "self_type" : "_ZTIPKN11unwindstack8FileMapsE",
   "size" : 8,
   "source_file" : "/system/core/libunwindstack/include/unwindstack/Maps.h"
  },
  {
   "alignment" : 8,
   "linker_set_key" : "_ZTIPKN11unwindstack8UnwinderE",
   "name" : "const unwindstack::Unwinder *",
   "referenced_type" : "_ZTIKN11unwindstack8UnwinderE",
   "self_type" : "_ZTIPKN11unwindstack8UnwinderE",
   "size" : 8,
   "source_file" : "/system/core/libunwindstack/include/unwindstack/Unwinder.h"
  },
  {
   "alignment" : 8,
   "linker_set_key" : "_ZTIPKNSt3__16vectorINS_12basic_stringIcNS_11char_traitsIcEENS_9allocatorIcEEEENS4_IS6_EEEE",
   "name" : "const std::vector<std::basic_string<char, std::char_traits<char>, std::allocator<char> >, std::allocator<std::basic_string<char, std::char_traits<char>, std::allocator<char> > > > *",
   "referenced_type" : "_ZTIKNSt3__16vectorINS_12basic_stringIcNS_11char_traitsIcEENS_9allocatorIcEEEENS4_IS6_EEEE",
   "self_type" : "_ZTIPKNSt3__16vectorINS_12basic_stringIcNS_11char_traitsIcEENS_9allocatorIcEEEENS4_IS6_EEEE",
   "size" : 8,
   "source_file" : "/system/core/libunwindstack/include/unwindstack/Unwinder.h"
  },
  {
   "alignment" : 8,
   "linker_set_key" : "_ZTIPKc",
   "name" : "const char *",
   "referenced_type" : "_ZTIKc",
   "self_type" : "_ZTIPKc",
   "size" : 8,
   "source_file" : "/system/core/libunwindstack/include/unwindstack/MapInfo.h"
  },
  {
   "alignment" : 8,
   "linker_set_key" : "_ZTIPKh",
   "name" : "const unsigned char *",
   "referenced_type" : "_ZTIKh",
   "self_type" : "_ZTIPKh",
   "size" : 8,
   "source_file" : "/system/core/libunwindstack/include/unwindstack/Memory.h"
  },
  {
   "alignment" : 8,
   "linker_set_key" : "_ZTIPN11unwindstack10BufferMapsE",
   "name" : "unwindstack::BufferMaps *",
   "referenced_type" : "_ZTIN11unwindstack10BufferMapsE",
   "self_type" : "_ZTIPN11unwindstack10BufferMapsE",
   "size" : 8,
   "source_file" : "/system/core/libunwindstack/include/unwindstack/Maps.h"
  },
  {
   "alignment" : 8,
   "linker_set_key" : "_ZTIPN11unwindstack10RegsMips64E",
   "name" : "unwindstack::RegsMips64 *",
   "referenced_type" : "_ZTIN11unwindstack10RegsMips64E",
   "self_type" : "_ZTIPN11unwindstack10RegsMips64E",
   "size" : 8,
   "source_file" : "/system/core/libunwindstack/include/unwindstack/RegsMips64.h"
  },
  {
   "alignment" : 8,
   "linker_set_key" : "_ZTIPN11unwindstack10RegsX86_64E",
   "name" : "unwindstack::RegsX86_64 *",
   "referenced_type" : "_ZTIN11unwindstack10RegsX86_64E",
   "self_type" : "_ZTIPN11unwindstack10RegsX86_64E",
   "size" : 8,
   "source_file" : "/system/core/libunwindstack/include/unwindstack/RegsX86_64.h"
  },
  {
   "alignment" : 8,
   "linker_set_key" : "_ZTIPN11unwindstack10RemoteMapsE",
   "name" : "unwindstack::RemoteMaps *",
   "referenced_type" : "_ZTIN11unwindstack10RemoteMapsE",
   "self_type" : "_ZTIPN11unwindstack10RemoteMapsE",
   "size" : 8,
   "source_file" : "/system/core/libunwindstack/include/unwindstack/Maps.h"
  },
  {
   "alignment" : 8,
   "linker_set_key" : "_ZTIPN11unwindstack11DwarfMemoryE",
   "name" : "unwindstack::DwarfMemory *",
   "referenced_type" : "_ZTIN11unwindstack11DwarfMemoryE",
   "self_type" : "_ZTIPN11unwindstack11DwarfMemoryE",
   "size" : 8,
   "source_file" : "/system/core/libunwindstack/include/unwindstack/DwarfMemory.h"
  },
  {
   "alignment" : 8,
   "linker_set_key" : "_ZTIPN11unwindstack12DwarfSection8iteratorE",
   "name" : "unwindstack::DwarfSection::iterator *",
   "referenced_type" : "_ZTIN11unwindstack12DwarfSection8iteratorE",
   "self_type" : "_ZTIPN11unwindstack12DwarfSection8iteratorE",
   "size" : 8,
   "source_file" : "/system/core/libunwindstack/include/unwindstack/DwarfSection.h"
  },
  {
   "alignment" : 8,
   "linker_set_key" : "_ZTIPN11unwindstack12DwarfSectionE",
   "name" : "unwindstack::DwarfSection *",
   "referenced_type" : "_ZTIN11unwindstack12DwarfSectionE",
   "self_type" : "_ZTIPN11unwindstack12DwarfSectionE",
   "size" : 8,
   "source_file" : "/system/core/libunwindstack/include/unwindstack/DwarfSection.h"
  },
  {
   "alignment" : 8,
   "linker_set_key" : "_ZTIPN11unwindstack12ElfInterfaceE",
   "name" : "unwindstack::ElfInterface *",
   "referenced_type" : "_ZTIN11unwindstack12ElfInterfaceE",
   "self_type" : "_ZTIPN11unwindstack12ElfInterfaceE",
   "size" : 8,
   "source_file" : "/system/core/libunwindstack/include/unwindstack/ElfInterface.h"
  },
  {
   "alignment" : 8,
   "linker_set_key" : "_ZTIPN11unwindstack13LocalUnwinderE",
   "name" : "unwindstack::LocalUnwinder *",
   "referenced_type" : "_ZTIN11unwindstack13LocalUnwinderE",
   "self_type" : "_ZTIPN11unwindstack13LocalUnwinderE",
   "size" : 8,
   "source_file" : "/system/core/libunwindstack/include/unwindstack/LocalUnwinder.h"
  },
  {
   "alignment" : 8,
   "linker_set_key" : "_ZTIPN11unwindstack14ElfInterface32E",
   "name" : "unwindstack::ElfInterface32 *",
   "referenced_type" : "_ZTIN11unwindstack14ElfInterface32E",
   "self_type" : "_ZTIPN11unwindstack14ElfInterface32E",
   "size" : 8,
   "source_file" : "/system/core/libunwindstack/include/unwindstack/ElfInterface.h"
  },
  {
   "alignment" : 8,
   "linker_set_key" : "_ZTIPN11unwindstack14ElfInterface64E",
   "name" : "unwindstack::ElfInterface64 *",
   "referenced_type" : "_ZTIN11unwindstack14ElfInterface64E",
   "self_type" : "_ZTIPN11unwindstack14ElfInterface64E",
   "size" : 8,
   "source_file" : "/system/core/libunwindstack/include/unwindstack/ElfInterface.h"
  },
  {
   "alignment" : 8,
   "linker_set_key" : "_ZTIPN11unwindstack14LocalFrameDataE",
   "name" : "unwindstack::LocalFrameData *",
   "referenced_type" : "_ZTIN11unwindstack14LocalFrameDataE",
   "self_type" : "_ZTIPN11unwindstack14LocalFrameDataE",
   "size" : 8,
   "source_file" : "/system/core/libunwindstack/include/unwindstack/LocalUnwinder.h"
  },
  {
   "alignment" : 8,
   "linker_set_key" : "_ZTIPN11unwindstack14x86_ucontext_tE",
   "name" : "unwindstack::x86_ucontext_t *",
   "referenced_type" : "_ZTIN11unwindstack14x86_ucontext_tE",
   "self_type" : "_ZTIPN11unwindstack14x86_ucontext_tE",
   "size" : 8,
   "source_file" : "/system/core/libunwindstack/include/unwindstack/RegsX86.h"
  },
  {
   "alignment" : 8,
   "linker_set_key" : "_ZTIPN11unwindstack15UnwinderFromPidE",
   "name" : "unwindstack::UnwinderFromPid *",
   "referenced_type" : "_ZTIN11unwindstack15UnwinderFromPidE",
   "self_type" : "_ZTIPN11unwindstack15UnwinderFromPidE",
   "size" : 8,
   "source_file" : "/system/core/libunwindstack/include/unwindstack/Unwinder.h"
  },
  {
   "alignment" : 8,
   "linker_set_key" : "_ZTIPN11unwindstack16DwarfSectionImplIjEE",
   "name" : "unwindstack::DwarfSectionImpl<unsigned int> *",
   "referenced_type" : "_ZTIN11unwindstack16DwarfSectionImplIjEE",
   "self_type" : "_ZTIPN11unwindstack16DwarfSectionImplIjEE",
   "size" : 8,
   "source_file" : "/system/core/libunwindstack/include/unwindstack/DwarfSection.h"
  },
  {
   "alignment" : 8,
   "linker_set_key" : "_ZTIPN11unwindstack16DwarfSectionImplImEE",
   "name" : "unwindstack::DwarfSectionImpl<unsigned long> *",
   "referenced_type" : "_ZTIN11unwindstack16DwarfSectionImplImEE",
   "self_type" : "_ZTIPN11unwindstack16DwarfSectionImplImEE",
   "size" : 8,
   "source_file" : "/system/core/libunwindstack/include/unwindstack/DwarfSection.h"
  },
  {
   "alignment" : 8,
   "linker_set_key" : "_ZTIPN11unwindstack17x86_64_ucontext_tE",
   "name" : "unwindstack::x86_64_ucontext_t *",
   "referenced_type" : "_ZTIN11unwindstack17x86_64_ucontext_tE",
   "self_type" : "_ZTIPN11unwindstack17x86_64_ucontext_tE",
   "size" : 8,
   "source_file" : "/system/core/libunwindstack/include/unwindstack/RegsX86_64.h"
  },
  {
   "alignment" : 8,
   "linker_set_key" : "_ZTIPN11unwindstack18LocalUpdatableMapsE",
   "name" : "unwindstack::LocalUpdatableMaps *",
   "referenced_type" : "_ZTIN11unwindstack18LocalUpdatableMapsE",
   "self_type" : "_ZTIPN11unwindstack18LocalUpdatableMapsE",
   "size" : 8,
   "source_file" : "/system/core/libunwindstack/include/unwindstack/Maps.h"
  },
  {
   "alignment" : 8,
   "linker_set_key" : "_ZTIPN11unwindstack18MemoryFileAtOffsetE",
   "name" : "unwindstack::MemoryFileAtOffset *",
   "referenced_type" : "_ZTIN11unwindstack18MemoryFileAtOffsetE",
   "self_type" : "_ZTIPN11unwindstack18MemoryFileAtOffsetE",
   "size" : 8,
   "source_file" : "/system/core/libunwindstack/include/unwindstack/MapInfo.h"
  },
  {
   "alignment" : 8,
   "linker_set_key" : "_ZTIPN11unwindstack3ElfE",
   "name" : "unwindstack::Elf *",
   "referenced_type" : "_ZTIN11unwindstack3ElfE",
   "self_type" : "_ZTIPN11unwindstack3ElfE",
   "size" : 8,
   "source_file" : "/system/core/libunwindstack/include/unwindstack/Elf.h"
  },
  {
   "alignment" : 8,
   "linker_set_key" : "_ZTIPN11unwindstack4MapsE",
   "name" : "unwindstack::Maps *",
   "referenced_type" : "_ZTIN11unwindstack4MapsE",
   "self_type" : "_ZTIPN11unwindstack4MapsE",
   "size" : 8,
   "source_file" : "/system/core/libunwindstack/include/unwindstack/DexFiles.h"
  },
  {
   "alignment" : 8,
   "linker_set_key" : "_ZTIPN11unwindstack4Regs8LocationE",
   "name" : "unwindstack::Regs::Location *",
   "referenced_type" : "_ZTIN11unwindstack4Regs8LocationE",
   "self_type" : "_ZTIPN11unwindstack4Regs8LocationE",
   "size" : 8,
   "source_file" : "/system/core/libunwindstack/include/unwindstack/Regs.h"
  },
  {
   "alignment" : 8,
   "linker_set_key" : "_ZTIPN11unwindstack4RegsE",
   "name" : "unwindstack::Regs *",
   "referenced_type" : "_ZTIN11unwindstack4RegsE",
   "self_type" : "_ZTIPN11unwindstack4RegsE",
   "size" : 8,
   "source_file" : "/system/core/libunwindstack/include/unwindstack/Regs.h"
  },
  {
   "alignment" : 8,
   "linker_set_key" : "_ZTIPN11unwindstack6GlobalE",
   "name" : "unwindstack::Global *",
   "referenced_type" : "_ZTIN11unwindstack6GlobalE",
   "self_type" : "_ZTIPN11unwindstack6GlobalE",
   "size" : 8,
   "source_file" : "/system/core/libunwindstack/include/unwindstack/Global.h"
  },
  {
   "alignment" : 8,
   "linker_set_key" : "_ZTIPN11unwindstack6MemoryE",
   "name" : "unwindstack::Memory *",
   "referenced_type" : "_ZTIN11unwindstack6MemoryE",
   "self_type" : "_ZTIPN11unwindstack6MemoryE",
   "size" : 8,
   "source_file" : "/system/core/libunwindstack/include/unwindstack/Memory.h"
  },
  {
   "alignment" : 8,
   "linker_set_key" : "_ZTIPN11unwindstack7DexFileE",
   "name" : "unwindstack::DexFile *",
   "referenced_type" : "_ZTIN11unwindstack7DexFileE",
   "self_type" : "_ZTIPN11unwindstack7DexFileE",
   "size" : 8,
   "source_file" : "/system/core/libunwindstack/include/unwindstack/DexFiles.h"
  },
  {
   "alignment" : 8,
   "linker_set_key" : "_ZTIPN11unwindstack7MapInfoE",
   "name" : "unwindstack::MapInfo *",
   "referenced_type" : "_ZTIN11unwindstack7MapInfoE",
   "self_type" : "_ZTIPN11unwindstack7MapInfoE",
   "size" : 8,
   "source_file" : "/system/core/libunwindstack/include/unwindstack/DexFiles.h"
  },
  {
   "alignment" : 8,
   "linker_set_key" : "_ZTIPN11unwindstack7RegsArmE",
   "name" : "unwindstack::RegsArm *",
   "referenced_type" : "_ZTIN11unwindstack7RegsArmE",
   "self_type" : "_ZTIPN11unwindstack7RegsArmE",
   "size" : 8,
   "source_file" : "/system/core/libunwindstack/include/unwindstack/RegsArm.h"
  },
  {
   "alignment" : 8,
   "linker_set_key" : "_ZTIPN11unwindstack7RegsX86E",
   "name" : "unwindstack::RegsX86 *",
   "referenced_type" : "_ZTIN11unwindstack7RegsX86E",
   "self_type" : "_ZTIPN11unwindstack7RegsX86E",
   "size" : 8,
   "source_file" : "/system/core/libunwindstack/include/unwindstack/RegsX86.h"
  },
  {
   "alignment" : 8,
   "linker_set_key" : "_ZTIPN11unwindstack8DexFilesE",
   "name" : "unwindstack::DexFiles *",
   "referenced_type" : "_ZTIN11unwindstack8DexFilesE",
   "self_type" : "_ZTIPN11unwindstack8DexFilesE",
   "size" : 8,
   "source_file" : "/system/core/libunwindstack/include/unwindstack/DexFiles.h"
  },
  {
   "alignment" : 8,
   "linker_set_key" : "_ZTIPN11unwindstack8FileMapsE",
   "name" : "unwindstack::FileMaps *",
   "referenced_type" : "_ZTIN11unwindstack8FileMapsE",
   "self_type" : "_ZTIPN11unwindstack8FileMapsE",
   "size" : 8,
   "source_file" : "/system/core/libunwindstack/include/unwindstack/Maps.h"
  },
  {
   "alignment" : 8,
   "linker_set_key" : "_ZTIPN11unwindstack8JitDebugE",
   "name" : "unwindstack::JitDebug *",
   "referenced_type" : "_ZTIN11unwindstack8JitDebugE",
   "self_type" : "_ZTIPN11unwindstack8JitDebugE",
   "size" : 8,
   "source_file" : "/system/core/libunwindstack/include/unwindstack/JitDebug.h"
  },
  {
   "alignment" : 8,
   "linker_set_key" : "_ZTIPN11unwindstack8RegsImplIjEE",
   "name" : "unwindstack::RegsImpl<unsigned int> *",
   "referenced_type" : "_ZTIN11unwindstack8RegsImplIjEE",
   "self_type" : "_ZTIPN11unwindstack8RegsImplIjEE",
   "size" : 8,
   "source_file" : "/system/core/libunwindstack/include/unwindstack/Regs.h"
  },
  {
   "alignment" : 8,
   "linker_set_key" : "_ZTIPN11unwindstack8RegsImplImEE",
   "name" : "unwindstack::RegsImpl<unsigned long> *",
   "referenced_type" : "_ZTIN11unwindstack8RegsImplImEE",
   "self_type" : "_ZTIPN11unwindstack8RegsImplImEE",
   "size" : 8,
   "source_file" : "/system/core/libunwindstack/include/unwindstack/Regs.h"
  },
  {
   "alignment" : 8,
   "linker_set_key" : "_ZTIPN11unwindstack8RegsMipsE",
   "name" : "unwindstack::RegsMips *",
   "referenced_type" : "_ZTIN11unwindstack8RegsMipsE",
   "self_type" : "_ZTIPN11unwindstack8RegsMipsE",
   "size" : 8,
   "source_file" : "/system/core/libunwindstack/include/unwindstack/RegsMips.h"
  },
  {
   "alignment" : 8,
   "linker_set_key" : "_ZTIPN11unwindstack8UnwinderE",
   "name" : "unwindstack::Unwinder *",
   "referenced_type" : "_ZTIN11unwindstack8UnwinderE",
   "self_type" : "_ZTIPN11unwindstack8UnwinderE",
   "size" : 8,
   "source_file" : "/system/core/libunwindstack/include/unwindstack/Unwinder.h"
  },
  {
   "alignment" : 8,
   "linker_set_key" : "_ZTIPN11unwindstack9ErrorDataE",
   "name" : "unwindstack::ErrorData *",
   "referenced_type" : "_ZTIN11unwindstack9ErrorDataE",
   "self_type" : "_ZTIPN11unwindstack9ErrorDataE",
   "size" : 8,
   "source_file" : "/system/core/libunwindstack/include/unwindstack/Elf.h"
  },
  {
   "alignment" : 8,
   "linker_set_key" : "_ZTIPN11unwindstack9FrameDataE",
   "name" : "unwindstack::FrameData *",
   "referenced_type" : "_ZTIN11unwindstack9FrameDataE",
   "self_type" : "_ZTIPN11unwindstack9FrameDataE",
   "size" : 8,
   "source_file" : "/system/core/libunwindstack/include/unwindstack/Unwinder.h"
  },
  {
   "alignment" : 8,
   "linker_set_key" : "_ZTIPN11unwindstack9LocalMapsE",
   "name" : "unwindstack::LocalMaps *",
   "referenced_type" : "_ZTIN11unwindstack9LocalMapsE",
   "self_type" : "_ZTIPN11unwindstack9LocalMapsE",
   "size" : 8,
   "source_file" : "/system/core/libunwindstack/include/unwindstack/Maps.h"
  },
  {
   "alignment" : 8,
   "linker_set_key" : "_ZTIPN11unwindstack9RegsArm64E",
   "name" : "unwindstack::RegsArm64 *",
   "referenced_type" : "_ZTIN11unwindstack9RegsArm64E",
   "self_type" : "_ZTIPN11unwindstack9RegsArm64E",
   "size" : 8,
   "source_file" : "/system/core/libunwindstack/include/unwindstack/RegsArm64.h"
  },
  {
   "alignment" : 8,
   "linker_set_key" : "_ZTIPNSt3__112basic_stringIcNS_11char_traitsIcEENS_9allocatorIcEEEE",
   "name" : "std::basic_string<char, std::char_traits<char>, std::allocator<char> > *",
   "referenced_type" : "_ZTINSt3__112basic_stringIcNS_11char_traitsIcEENS_9allocatorIcEEEE",
   "self_type" : "_ZTIPNSt3__112basic_stringIcNS_11char_traitsIcEENS_9allocatorIcEEEE",
   "size" : 8,
   "source_file" : "/system/core/libunwindstack/include/unwindstack/ElfInterface.h"
  },
  {
   "alignment" : 8,
   "linker_set_key" : "_ZTIPNSt3__113unordered_mapINS_12basic_stringIcNS_11char_traitsIcEENS_9allocatorIcEEEENS_4pairINS_10shared_ptrIN11unwindstack3ElfEEEbEENS_4hashIS6_EENS_8equal_toIS6_EENS4_INS7_IKS6_SC_EEEEEE",
   "name" : "std::unordered_map<std::basic_string<char, std::char_traits<char>, std::allocator<char> >, std::pair<std::shared_ptr<unwindstack::Elf>, bool>, std::hash<std::basic_string<char, std::char_traits<char>, std::allocator<char> > >, std::equal_to<std::basic_string<char, std::char_traits<char>, std::allocator<char> > >, std::allocator<std::pair<const std::basic_string<char, std::char_traits<char>, std::allocator<char> >, std::pair<std::shared_ptr<unwindstack::Elf>, bool> > > > *",
   "referenced_type" : "_ZTINSt3__113unordered_mapINS_12basic_stringIcNS_11char_traitsIcEENS_9allocatorIcEEEENS_4pairINS_10shared_ptrIN11unwindstack3ElfEEEbEENS_4hashIS6_EENS_8equal_toIS6_EENS4_INS7_IKS6_SC_EEEEEE",
   "self_type" : "_ZTIPNSt3__113unordered_mapINS_12basic_stringIcNS_11char_traitsIcEENS_9allocatorIcEEEENS_4pairINS_10shared_ptrIN11unwindstack3ElfEEEbEENS_4hashIS6_EENS_8equal_toIS6_EENS4_INS7_IKS6_SC_EEEEEE",
   "size" : 8,
   "source_file" : "/system/core/libunwindstack/include/unwindstack/Elf.h"
  },
  {
   "alignment" : 8,
   "linker_set_key" : "_ZTIPNSt3__15mutexE",
   "name" : "std::mutex *",
   "referenced_type" : "_ZTINSt3__15mutexE",
   "self_type" : "_ZTIPNSt3__15mutexE",
   "size" : 8,
   "source_file" : "/system/core/libunwindstack/include/unwindstack/Elf.h"
  },
  {
   "alignment" : 8,
   "linker_set_key" : "_ZTIPNSt3__16vectorIN11unwindstack14LocalFrameDataENS_9allocatorIS2_EEEE",
   "name" : "std::vector<unwindstack::LocalFrameData, std::allocator<unwindstack::LocalFrameData> > *",
   "referenced_type" : "_ZTINSt3__16vectorIN11unwindstack14LocalFrameDataENS_9allocatorIS2_EEEE",
   "self_type" : "_ZTIPNSt3__16vectorIN11unwindstack14LocalFrameDataENS_9allocatorIS2_EEEE",
   "size" : 8,
   "source_file" : "/system/core/libunwindstack/include/unwindstack/LocalUnwinder.h"
  },
  {
   "alignment" : 8,
   "linker_set_key" : "_ZTIPb",
   "name" : "bool *",
   "referenced_type" : "_ZTIb",
   "self_type" : "_ZTIPb",
   "size" : 8,
   "source_file" : "/system/core/libunwindstack/include/unwindstack/DwarfSection.h"
  },
  {
   "alignment" : 8,
   "linker_set_key" : "_ZTIPj",
   "name" : "unsigned int *",
   "referenced_type" : "_ZTIj",
   "self_type" : "_ZTIPj",
   "size" : 8,
   "source_file" : "/system/core/libunwindstack/include/unwindstack/Memory.h"
  },
  {
   "alignment" : 8,
   "linker_set_key" : "_ZTIPl",
   "name" : "long *",
   "referenced_type" : "_ZTIl",
   "self_type" : "_ZTIPl",
   "size" : 8,
   "source_file" : "/system/core/libunwindstack/include/unwindstack/ElfInterface.h"
  },
  {
   "alignment" : 8,
   "linker_set_key" : "_ZTIPm",
   "name" : "unsigned long *",
   "referenced_type" : "_ZTIm",
   "self_type" : "_ZTIPm",
   "size" : 8,
   "source_file" : "/system/core/libunwindstack/include/unwindstack/Memory.h"
  },
  {
   "alignment" : 8,
   "linker_set_key" : "_ZTIPv",
   "name" : "void *",
   "referenced_type" : "_ZTIv",
   "self_type" : "_ZTIPv",
   "size" : 8,
   "source_file" : "/system/core/libunwindstack/include/unwindstack/DwarfMemory.h"
  }
 ],
 "qualified_types" :
 [
  {
   "alignment" : 4,
   "is_const" : true,
   "linker_set_key" : "_ZTIK9elf32_hdr",
   "name" : "const elf32_hdr",
   "referenced_type" : "_ZTI9elf32_hdr",
   "self_type" : "_ZTIK9elf32_hdr",
   "size" : 52,
   "source_file" : "/system/core/libunwindstack/include/unwindstack/ElfInterface.h"
  },
  {
   "alignment" : 8,
   "is_const" : true,
   "linker_set_key" : "_ZTIK9elf64_hdr",
   "name" : "const elf64_hdr",
   "referenced_type" : "_ZTI9elf64_hdr",
   "self_type" : "_ZTIK9elf64_hdr",
   "size" : 64,
   "source_file" : "/system/core/libunwindstack/include/unwindstack/ElfInterface.h"
  },
  {
   "alignment" : 8,
   "is_const" : true,
   "linker_set_key" : "_ZTIKN11unwindstack10RemoteMapsE",
   "name" : "const unwindstack::RemoteMaps",
   "referenced_type" : "_ZTIN11unwindstack10RemoteMapsE",
   "self_type" : "_ZTIKN11unwindstack10RemoteMapsE",
   "size" : 40,
   "source_file" : "/system/core/libunwindstack/include/unwindstack/Maps.h"
  },
  {
   "alignment" : 8,
   "is_const" : true,
   "linker_set_key" : "_ZTIKN11unwindstack12DwarfSection8iteratorE",
   "name" : "const unwindstack::DwarfSection::iterator",
   "referenced_type" : "_ZTIN11unwindstack12DwarfSection8iteratorE",
   "self_type" : "_ZTIKN11unwindstack12DwarfSection8iteratorE",
   "size" : 32,
   "source_file" : "/system/core/libunwindstack/include/unwindstack/DwarfSection.h"
  },
  {
   "alignment" : 8,
   "is_const" : true,
   "linker_set_key" : "_ZTIKN11unwindstack18LocalUpdatableMapsE",
   "name" : "const unwindstack::LocalUpdatableMaps",
   "referenced_type" : "_ZTIN11unwindstack18LocalUpdatableMapsE",
   "self_type" : "_ZTIKN11unwindstack18LocalUpdatableMapsE",
   "size" : 56,
   "source_file" : "/system/core/libunwindstack/include/unwindstack/Maps.h"
  },
  {
   "alignment" : 8,
   "is_const" : true,
   "linker_set_key" : "_ZTIKN11unwindstack4MapsE",
   "name" : "const unwindstack::Maps",
   "referenced_type" : "_ZTIN11unwindstack4MapsE",
   "self_type" : "_ZTIKN11unwindstack4MapsE",
   "size" : 32,
   "source_file" : "/system/core/libunwindstack/include/unwindstack/Maps.h"
  },
  {
   "alignment" : 2,
   "is_const" : true,
   "linker_set_key" : "_ZTIKN11unwindstack4Regs8LocationE",
   "name" : "const unwindstack::Regs::Location",
   "referenced_type" : "_ZTIN11unwindstack4Regs8LocationE",
   "self_type" : "_ZTIKN11unwindstack4Regs8LocationE",
   "size" : 4,
   "source_file" : "/system/core/libunwindstack/include/unwindstack/Regs.h"
  },
  {
   "alignment" : 8,
   "is_const" : true,
   "linker_set_key" : "_ZTIKN11unwindstack7MapInfoE",
   "name" : "const unwindstack::MapInfo",
   "referenced_type" : "_ZTIN11unwindstack7MapInfoE",
   "self_type" : "_ZTIKN11unwindstack7MapInfoE",
   "size" : 168,
   "source_file" : "/system/core/libunwindstack/include/unwindstack/Elf.h"
  },
  {
   "alignment" : 8,
   "is_const" : true,
   "linker_set_key" : "_ZTIKN11unwindstack8DwarfCieE",
   "name" : "const unwindstack::DwarfCie",
   "referenced_type" : "_ZTIN11unwindstack8DwarfCieE",
   "self_type" : "_ZTIKN11unwindstack8DwarfCieE",
   "size" : 80,
   "source_file" : "/system/core/libunwindstack/include/unwindstack/DwarfLocation.h"
  },
  {
   "alignment" : 8,
   "is_const" : true,
   "linker_set_key" : "_ZTIKN11unwindstack8DwarfFdeE",
   "name" : "const unwindstack::DwarfFde",
   "referenced_type" : "_ZTIN11unwindstack8DwarfFdeE",
   "self_type" : "_ZTIKN11unwindstack8DwarfFdeE",
   "size" : 56,
   "source_file" : "/system/core/libunwindstack/include/unwindstack/DwarfSection.h"
  },
  {
   "alignment" : 8,
   "is_const" : true,
   "linker_set_key" : "_ZTIKN11unwindstack8FileMapsE",
   "name" : "const unwindstack::FileMaps",
   "referenced_type" : "_ZTIN11unwindstack8FileMapsE",
   "self_type" : "_ZTIKN11unwindstack8FileMapsE",
   "size" : 56,
   "source_file" : "/system/core/libunwindstack/include/unwindstack/Maps.h"
  },
  {
   "alignment" : 8,
   "is_const" : true,
   "linker_set_key" : "_ZTIKN11unwindstack8UnwinderE",
   "name" : "const unwindstack::Unwinder",
   "referenced_type" : "_ZTIN11unwindstack8UnwinderE",
   "self_type" : "_ZTIKN11unwindstack8UnwinderE",
   "size" : 112,
   "source_file" : "/system/core/libunwindstack/include/unwindstack/Unwinder.h"
  },
  {
   "alignment" : 8,
   "is_const" : true,
   "linker_set_key" : "_ZTIKN11unwindstack9ErrorDataE",
   "name" : "const unwindstack::ErrorData",
   "referenced_type" : "_ZTIN11unwindstack9ErrorDataE",
   "self_type" : "_ZTIKN11unwindstack9ErrorDataE",
   "size" : 16,
   "source_file" : "/system/core/libunwindstack/include/unwindstack/ElfInterface.h"
  },
  {
   "alignment" : 8,
   "is_const" : true,
   "linker_set_key" : "_ZTIKN11unwindstack9FrameDataE",
   "name" : "const unwindstack::FrameData",
   "referenced_type" : "_ZTIN11unwindstack9FrameDataE",
   "self_type" : "_ZTIKN11unwindstack9FrameDataE",
   "size" : 136,
   "source_file" : "/system/core/libunwindstack/include/unwindstack/Unwinder.h"
  },
  {
   "alignment" : 8,
   "is_const" : true,
   "linker_set_key" : "_ZTIKNSt3__110shared_ptrIN11unwindstack6MemoryEEE",
   "name" : "const std::shared_ptr<unwindstack::Memory>",
   "referenced_type" : "_ZTINSt3__110shared_ptrIN11unwindstack6MemoryEEE",
   "self_type" : "_ZTIKNSt3__110shared_ptrIN11unwindstack6MemoryEEE",
   "size" : 16,
   "source_file" : "/system/core/libunwindstack/include/unwindstack/MapInfo.h"
  },
  {
   "alignment" : 8,
   "is_const" : true,
   "linker_set_key" : "_ZTIKNSt3__112basic_stringIcNS_11char_traitsIcEENS_9allocatorIcEEEE",
   "name" : "const std::basic_string<char, std::char_traits<char>, std::allocator<char> >",
   "referenced_type" : "_ZTINSt3__112basic_stringIcNS_11char_traitsIcEENS_9allocatorIcEEEE",
   "self_type" : "_ZTIKNSt3__112basic_stringIcNS_11char_traitsIcEENS_9allocatorIcEEEE",
   "size" : 24,
   "source_file" : "/system/core/libunwindstack/include/unwindstack/ElfInterface.h"
  },
  {
   "alignment" : 8,
   "is_const" : true,
   "linker_set_key" : "_ZTIKNSt3__113unordered_mapImN11unwindstack8LoadInfoENS_4hashImEENS_8equal_toImEENS_9allocatorINS_4pairIKmS2_EEEEEE",
   "name" : "const std::unordered_map<unsigned long, unwindstack::LoadInfo, std::hash<unsigned long>, std::equal_to<unsigned long>, std::allocator<std::pair<const unsigned long, unwindstack::LoadInfo> > >",
   "referenced_type" : "_ZTINSt3__113unordered_mapImN11unwindstack8LoadInfoENS_4hashImEENS_8equal_toImEENS_9allocatorINS_4pairIKmS2_EEEEEE",
   "self_type" : "_ZTIKNSt3__113unordered_mapImN11unwindstack8LoadInfoENS_4hashImEENS_8equal_toImEENS_9allocatorINS_4pairIKmS2_EEEEEE",
   "size" : 40,
   "source_file" : "/system/core/libunwindstack/include/unwindstack/ElfInterface.h"
  },
  {
   "alignment" : 8,
   "is_const" : true,
   "linker_set_key" : "_ZTIKNSt3__16vectorIN11unwindstack9FrameDataENS_9allocatorIS2_EEEE",
   "name" : "const std::vector<unwindstack::FrameData, std::allocator<unwindstack::FrameData> >",
   "referenced_type" : "_ZTINSt3__16vectorIN11unwindstack9FrameDataENS_9allocatorIS2_EEEE",
   "self_type" : "_ZTIKNSt3__16vectorIN11unwindstack9FrameDataENS_9allocatorIS2_EEEE",
   "size" : 24,
   "source_file" : "/system/core/libunwindstack/include/unwindstack/Unwinder.h"
  },
  {
   "alignment" : 8,
   "is_const" : true,
   "linker_set_key" : "_ZTIKNSt3__16vectorINS_12basic_stringIcNS_11char_traitsIcEENS_9allocatorIcEEEENS4_IS6_EEEE",
   "name" : "const std::vector<std::basic_string<char, std::char_traits<char>, std::allocator<char> >, std::allocator<std::basic_string<char, std::char_traits<char>, std::allocator<char> > > >",
   "referenced_type" : "_ZTINSt3__16vectorINS_12basic_stringIcNS_11char_traitsIcEENS_9allocatorIcEEEENS4_IS6_EEEE",
   "self_type" : "_ZTIKNSt3__16vectorINS_12basic_stringIcNS_11char_traitsIcEENS_9allocatorIcEEEENS4_IS6_EEEE",
   "size" : 24,
   "source_file" : "/system/core/libunwindstack/include/unwindstack/Unwinder.h"
  },
  {
   "alignment" : 1,
   "is_const" : true,
   "linker_set_key" : "_ZTIKc",
   "name" : "const char",
   "referenced_type" : "_ZTIc",
   "self_type" : "_ZTIKc",
   "size" : 1,
   "source_file" : "/system/core/libunwindstack/include/unwindstack/MapInfo.h"
  },
  {
   "alignment" : 1,
   "is_const" : true,
   "linker_set_key" : "_ZTIKh",
   "name" : "const unsigned char",
   "referenced_type" : "_ZTIh",
   "self_type" : "_ZTIKh",
   "size" : 1,
   "source_file" : "/system/core/libunwindstack/include/unwindstack/Memory.h"
  },
  {
   "alignment" : 4,
   "is_const" : true,
   "linker_set_key" : "_ZTIKi",
   "name" : "const int",
   "referenced_type" : "_ZTIi",
   "self_type" : "_ZTIKi",
   "size" : 4,
   "source_file" : "/system/core/libunwindstack/include/unwindstack/Maps.h"
  },
  {
   "alignment" : 2,
   "is_const" : true,
   "linker_set_key" : "_ZTIKt",
   "name" : "const unsigned short",
   "referenced_type" : "_ZTIt",
   "self_type" : "_ZTIKt",
   "size" : 2,
   "source_file" : "/system/core/libunwindstack/include/unwindstack/DwarfStructs.h"
  }
 ],
 "record_types" :
 [
  {
   "alignment" : 8,
   "base_specifiers" :
   [
    {
     "referenced_type" : "_ZTIN11unwindstack4MapsE"
    }
   ],
   "fields" :
   [
    {
     "access" : "private",
     "field_name" : "buffer_",
     "field_offset" : 256,
     "referenced_type" : "_ZTIPKc"
    }
   ],
   "linker_set_key" : "_ZTIN11unwindstack10BufferMapsE",
   "name" : "unwindstack::BufferMaps",
   "record_kind" : "class",
   "referenced_type" : "_ZTIN11unwindstack10BufferMapsE",
   "self_type" : "_ZTIN11unwindstack10BufferMapsE",
   "size" : 40,
   "source_file" : "/system/core/libunwindstack/include/unwindstack/Maps.h",
   "vtable_components" :
   [
    {
     "kind" : "offset_to_top"
    },
    {
     "kind" : "rtti",
     "mangled_component_name" : "_ZTIN11unwindstack10BufferMapsE"
    },
    {
     "kind" : "complete_dtor_pointer",
     "mangled_component_name" : "_ZN11unwindstack10BufferMapsD1Ev"
    },
    {
     "kind" : "deleting_dtor_pointer",
     "mangled_component_name" : "_ZN11unwindstack10BufferMapsD0Ev"
    },
    {
     "mangled_component_name" : "_ZN11unwindstack10BufferMaps5ParseEv"
    },
    {
     "mangled_component_name" : "_ZNK11unwindstack4Maps11GetMapsFileEv"
    }
   ]
  },
  {
   "alignment" : 8,
   "base_specifiers" :
   [
    {
     "referenced_type" : "_ZTIN11unwindstack8RegsImplImEE"
    }
   ],
   "linker_set_key" : "_ZTIN11unwindstack10RegsMips64E",
   "name" : "unwindstack::RegsMips64",
   "record_kind" : "class",
   "referenced_type" : "_ZTIN11unwindstack10RegsMips64E",
   "self_type" : "_ZTIN11unwindstack10RegsMips64E",
   "size" : 48,
   "source_file" : "/system/core/libunwindstack/include/unwindstack/RegsMips64.h",
   "vtable_components" :
   [
    {
     "kind" : "offset_to_top"
    },
    {
     "kind" : "rtti",
     "mangled_component_name" : "_ZTIN11unwindstack10RegsMips64E"
    },
    {
     "kind" : "complete_dtor_pointer",
     "mangled_component_name" : "_ZN11unwindstack10RegsMips64D1Ev"
    },
    {
     "kind" : "deleting_dtor_pointer",
     "mangled_component_name" : "_ZN11unwindstack10RegsMips64D0Ev"
    },
    {
     "mangled_component_name" : "_ZN11unwindstack10RegsMips644ArchEv"
    },
    {
     "mangled_component_name" : "_ZN11unwindstack8RegsImplImE7Is32BitEv"
    },
    {
     "mangled_component_name" : "_ZN11unwindstack8RegsImplImE7RawDataEv"
    },
    {
     "mangled_component_name" : "_ZN11unwindstack10RegsMips642pcEv"
    },
    {
     "mangled_component_name" : "_ZN11unwindstack10RegsMips642spEv"
    },
    {
     "mangled_component_name" : "_ZN11unwindstack10RegsMips646set_pcEm"
    },
    {
     "mangled_component_name" : "_ZN11unwindstack10RegsMips646set_spEm"
    },
    {
     "mangled_component_name" : "_ZN11unwindstack10RegsMips6415GetPcAdjustmentEmPNS_3ElfE"
    },
    {
     "mangled_component_name" : "_ZN11unwindstack10RegsMips6419StepIfSignalHandlerEmPNS_3ElfEPNS_6MemoryE"
    },
    {
     "mangled_component_name" : "_ZN11unwindstack10RegsMips6422SetPcFromReturnAddressEPNS_6MemoryE"
    },
    {
     "mangled_component_name" : "_ZN11unwindstack10RegsMips6416IterateRegistersENSt3__18functionIFvPKcmEEE"
    },
    {
     "mangled_component_name" : "_ZN11unwindstack10RegsMips645CloneEv"
    }
   ]
  },
  {
   "alignment" : 8,
   "base_specifiers" :
   [
    {
     "referenced_type" : "_ZTIN11unwindstack8RegsImplImEE"
    }
   ],
   "linker_set_key" : "_ZTIN11unwindstack10RegsX86_64E",
   "name" : "unwindstack::RegsX86_64",
   "record_kind" : "class",
   "referenced_type" : "_ZTIN11unwindstack10RegsX86_64E",
   "self_type" : "_ZTIN11unwindstack10RegsX86_64E",
   "size" : 48,
   "source_file" : "/system/core/libunwindstack/include/unwindstack/RegsX86_64.h",
   "vtable_components" :
   [
    {
     "kind" : "offset_to_top"
    },
    {
     "kind" : "rtti",
     "mangled_component_name" : "_ZTIN11unwindstack10RegsX86_64E"
    },
    {
     "kind" : "complete_dtor_pointer",
     "mangled_component_name" : "_ZN11unwindstack10RegsX86_64D1Ev"
    },
    {
     "kind" : "deleting_dtor_pointer",
     "mangled_component_name" : "_ZN11unwindstack10RegsX86_64D0Ev"
    },
    {
     "mangled_component_name" : "_ZN11unwindstack10RegsX86_644ArchEv"
    },
    {
     "mangled_component_name" : "_ZN11unwindstack8RegsImplImE7Is32BitEv"
    },
    {
     "mangled_component_name" : "_ZN11unwindstack8RegsImplImE7RawDataEv"
    },
    {
     "mangled_component_name" : "_ZN11unwindstack10RegsX86_642pcEv"
    },
    {
     "mangled_component_name" : "_ZN11unwindstack10RegsX86_642spEv"
    },
    {
     "mangled_component_name" : "_ZN11unwindstack10RegsX86_646set_pcEm"
    },
    {
     "mangled_component_name" : "_ZN11unwindstack10RegsX86_646set_spEm"
    },
    {
     "mangled_component_name" : "_ZN11unwindstack10RegsX86_6415GetPcAdjustmentEmPNS_3ElfE"
    },
    {
     "mangled_component_name" : "_ZN11unwindstack10RegsX86_6419StepIfSignalHandlerEmPNS_3ElfEPNS_6MemoryE"
    },
    {
     "mangled_component_name" : "_ZN11unwindstack10RegsX86_6422SetPcFromReturnAddressEPNS_6MemoryE"
    },
    {
     "mangled_component_name" : "_ZN11unwindstack10RegsX86_6416IterateRegistersENSt3__18functionIFvPKcmEEE"
    },
    {
     "mangled_component_name" : "_ZN11unwindstack10RegsX86_645CloneEv"
    }
   ]
  },
  {
   "alignment" : 8,
   "base_specifiers" :
   [
    {
     "referenced_type" : "_ZTIN11unwindstack4MapsE"
    }
   ],
   "fields" :
   [
    {
     "access" : "private",
     "field_name" : "pid_",
     "field_offset" : 256,
     "referenced_type" : "_ZTIi"
    }
   ],
   "linker_set_key" : "_ZTIN11unwindstack10RemoteMapsE",
   "name" : "unwindstack::RemoteMaps",
   "record_kind" : "class",
   "referenced_type" : "_ZTIN11unwindstack10RemoteMapsE",
   "self_type" : "_ZTIN11unwindstack10RemoteMapsE",
   "size" : 40,
   "source_file" : "/system/core/libunwindstack/include/unwindstack/Maps.h",
   "vtable_components" :
   [
    {
     "kind" : "offset_to_top"
    },
    {
     "kind" : "rtti",
     "mangled_component_name" : "_ZTIN11unwindstack10RemoteMapsE"
    },
    {
     "kind" : "complete_dtor_pointer",
     "mangled_component_name" : "_ZN11unwindstack10RemoteMapsD1Ev"
    },
    {
     "kind" : "deleting_dtor_pointer",
     "mangled_component_name" : "_ZN11unwindstack10RemoteMapsD0Ev"
    },
    {
     "mangled_component_name" : "_ZN11unwindstack4Maps5ParseEv"
    },
    {
     "mangled_component_name" : "_ZNK11unwindstack10RemoteMaps11GetMapsFileEv"
    }
   ]
  },
  {
   "alignment" : 8,
   "fields" :
   [
    {
     "access" : "private",
     "field_name" : "memory_",
     "field_offset" : 64,
     "referenced_type" : "_ZTIPN11unwindstack6MemoryE"
    },
    {
     "access" : "private",
     "field_name" : "cur_offset_",
     "field_offset" : 128,
     "referenced_type" : "_ZTIm"
    },
    {
     "access" : "private",
     "field_name" : "pc_offset_",
     "field_offset" : 192,
     "referenced_type" : "_ZTIl"
    },
    {
     "access" : "private",
     "field_name" : "data_offset_",
     "field_offset" : 256,
     "referenced_type" : "_ZTIm"
    },
    {
     "access" : "private",
     "field_name" : "func_offset_",
     "field_offset" : 320,
     "referenced_type" : "_ZTIm"
    },
    {
     "access" : "private",
     "field_name" : "text_offset_",
     "field_offset" : 384,
     "referenced_type" : "_ZTIm"
    }
   ],
   "linker_set_key" : "_ZTIN11unwindstack11DwarfMemoryE",
   "name" : "unwindstack::DwarfMemory",
   "record_kind" : "class",
   "referenced_type" : "_ZTIN11unwindstack11DwarfMemoryE",
   "self_type" : "_ZTIN11unwindstack11DwarfMemoryE",
   "size" : 56,
   "source_file" : "/system/core/libunwindstack/include/unwindstack/DwarfMemory.h",
   "vtable_components" :
   [
    {
     "kind" : "offset_to_top"
    },
    {
     "kind" : "rtti",
     "mangled_component_name" : "_ZTIN11unwindstack11DwarfMemoryE"
    },
    {
     "kind" : "complete_dtor_pointer",
     "mangled_component_name" : "_ZN11unwindstack11DwarfMemoryD1Ev"
    },
    {
     "kind" : "deleting_dtor_pointer",
     "mangled_component_name" : "_ZN11unwindstack11DwarfMemoryD0Ev"
    }
   ]
  },
  {
   "alignment" : 4,
   "fields" :
   [
    {
     "field_name" : "ss_sp",
     "referenced_type" : "_ZTIj"
    },
    {
     "field_name" : "ss_flags",
     "field_offset" : 32,
     "referenced_type" : "_ZTIi"
    },
    {
     "field_name" : "ss_size",
     "field_offset" : 64,
     "referenced_type" : "_ZTIj"
    }
   ],
   "linker_set_key" : "_ZTIN11unwindstack11arm_stack_tE",
   "name" : "unwindstack::arm_stack_t",
   "referenced_type" : "_ZTIN11unwindstack11arm_stack_tE",
   "self_type" : "_ZTIN11unwindstack11arm_stack_tE",
   "size" : 12,
   "source_file" : "/system/core/libunwindstack/include/unwindstack/UcontextArm.h"
  },
  {
   "alignment" : 4,
   "fields" :
   [
    {
     "field_name" : "ss_sp",
     "referenced_type" : "_ZTIj"
    },
    {
     "field_name" : "ss_flags",
     "field_offset" : 32,
     "referenced_type" : "_ZTIi"
    },
    {
     "field_name" : "ss_size",
     "field_offset" : 64,
     "referenced_type" : "_ZTIj"
    }
   ],
   "linker_set_key" : "_ZTIN11unwindstack11x86_stack_tE",
   "name" : "unwindstack::x86_stack_t",
   "referenced_type" : "_ZTIN11unwindstack11x86_stack_tE",
   "self_type" : "_ZTIN11unwindstack11x86_stack_tE",
   "size" : 12,
   "source_file" : "/system/core/libunwindstack/include/unwindstack/UcontextX86.h"
  },
  {
   "alignment" : 8,
   "base_specifiers" :
   [
    {
     "referenced_type" : "_ZTINSt3__18iteratorINS_26bidirectional_iterator_tagEPN11unwindstack8DwarfFdeElPS4_RS4_EE"
    }
   ],
   "fields" :
   [
    {
     "access" : "private",
     "field_name" : "fdes_",
     "referenced_type" : "_ZTINSt3__16vectorIPKN11unwindstack8DwarfFdeENS_9allocatorIS4_EEEE"
    },
    {
     "access" : "private",
     "field_name" : "index_",
     "field_offset" : 192,
     "referenced_type" : "_ZTIm"
    }
   ],
   "linker_set_key" : "_ZTIN11unwindstack12DwarfSection8iteratorE",
   "name" : "unwindstack::DwarfSection::iterator",
   "record_kind" : "class",
   "referenced_type" : "_ZTIN11unwindstack12DwarfSection8iteratorE",
   "self_type" : "_ZTIN11unwindstack12DwarfSection8iteratorE",
   "size" : 32,
   "source_file" : "/system/core/libunwindstack/include/unwindstack/DwarfSection.h"
  },
  {
   "alignment" : 8,
   "fields" :
   [
    {
     "access" : "protected",
     "field_name" : "memory_",
     "field_offset" : 64,
     "referenced_type" : "_ZTIN11unwindstack11DwarfMemoryE"
    },
    {
     "access" : "protected",
     "field_name" : "last_error_",
     "field_offset" : 512,
     "referenced_type" : "_ZTIN11unwindstack14DwarfErrorDataE"
    },
    {
     "access" : "protected",
     "field_name" : "cie32_value_",
     "field_offset" : 640,
     "referenced_type" : "_ZTIj"
    },
    {
     "access" : "protected",
     "field_name" : "cie64_value_",
     "field_offset" : 704,
     "referenced_type" : "_ZTIm"
    },
    {
     "access" : "protected",
     "field_name" : "fde_entries_",
     "field_offset" : 768,
     "referenced_type" : "_ZTINSt3__113unordered_mapImN11unwindstack8DwarfFdeENS_4hashImEENS_8equal_toImEENS_9allocatorINS_4pairIKmS2_EEEEEE"
    },
    {
     "access" : "protected",
     "field_name" : "cie_entries_",
     "field_offset" : 1088,
     "referenced_type" : "_ZTINSt3__113unordered_mapImN11unwindstack8DwarfCieENS_4hashImEENS_8equal_toImEENS_9allocatorINS_4pairIKmS2_EEEEEE"
    },
    {
     "access" : "protected",
     "field_name" : "cie_loc_regs_",
     "field_offset" : 1408,
     "referenced_type" : "_ZTINSt3__113unordered_mapImN11unwindstack14DwarfLocationsENS_4hashImEENS_8equal_toImEENS_9allocatorINS_4pairIKmS2_EEEEEE"
    },
    {
     "access" : "protected",
     "field_name" : "loc_regs_",
     "field_offset" : 1728,
     "referenced_type" : "_ZTINSt3__13mapImN11unwindstack14DwarfLocationsENS_4lessImEENS_9allocatorINS_4pairIKmS2_EEEEEE"
    }
   ],
   "linker_set_key" : "_ZTIN11unwindstack12DwarfSectionE",
   "name" : "unwindstack::DwarfSection",
   "record_kind" : "class",
   "referenced_type" : "_ZTIN11unwindstack12DwarfSectionE",
   "self_type" : "_ZTIN11unwindstack12DwarfSectionE",
   "size" : 240,
   "source_file" : "/system/core/libunwindstack/include/unwindstack/DwarfSection.h",
   "vtable_components" :
   [
    {
     "kind" : "offset_to_top"
    },
    {
     "kind" : "rtti",
     "mangled_component_name" : "_ZTIN11unwindstack12DwarfSectionE"
    },
    {
     "kind" : "complete_dtor_pointer",
     "mangled_component_name" : "_ZN11unwindstack12DwarfSectionD1Ev"
    },
    {
     "kind" : "deleting_dtor_pointer",
     "mangled_component_name" : "_ZN11unwindstack12DwarfSectionD0Ev"
    },
    {
     "is_pure" : true,
     "mangled_component_name" : "_ZN11unwindstack12DwarfSection4InitEmml"
    },
    {
     "is_pure" : true,
     "mangled_component_name" : "_ZN11unwindstack12DwarfSection4EvalEPKNS_8DwarfCieEPNS_6MemoryERKNS_14DwarfLocationsEPNS_4RegsEPb"
    },
    {
     "is_pure" : true,
     "mangled_component_name" : "_ZN11unwindstack12DwarfSection3LogEhmPKNS_8DwarfFdeE"
    },
    {
     "is_pure" : true,
     "mangled_component_name" : "_ZN11unwindstack12DwarfSection7GetFdesEPNSt3__16vectorIPKNS_8DwarfFdeENS1_9allocatorIS5_EEEE"
    },
    {
     "is_pure" : true,
     "mangled_component_name" : "_ZN11unwindstack12DwarfSection12GetFdeFromPcEm"
    },
    {
     "is_pure" : true,
     "mangled_component_name" : "_ZN11unwindstack12DwarfSection18GetCfaLocationInfoEmPKNS_8DwarfFdeEPNS_14DwarfLocationsE"
    },
    {
     "is_pure" : true,
     "mangled_component_name" : "_ZN11unwindstack12DwarfSection21GetCieOffsetFromFde32Ej"
    },
    {
     "is_pure" : true,
     "mangled_component_name" : "_ZN11unwindstack12DwarfSection21GetCieOffsetFromFde64Em"
    },
    {
     "is_pure" : true,
     "mangled_component_name" : "_ZN11unwindstack12DwarfSection15AdjustPcFromFdeEm"
    }
   ]
  },
  {
   "alignment" : 8,
   "fields" :
   [
    {
     "access" : "protected",
     "field_name" : "memory_",
     "field_offset" : 64,
     "referenced_type" : "_ZTIPN11unwindstack6MemoryE"
    },
    {
     "access" : "protected",
     "field_name" : "pt_loads_",
     "field_offset" : 128,
     "referenced_type" : "_ZTINSt3__113unordered_mapImN11unwindstack8LoadInfoENS_4hashImEENS_8equal_toImEENS_9allocatorINS_4pairIKmS2_EEEEEE"
    },
    {
     "access" : "protected",
     "field_name" : "dynamic_offset_",
     "field_offset" : 448,
     "referenced_type" : "_ZTIm"
    },
    {
     "access" : "protected",
     "field_name" : "dynamic_vaddr_start_",
     "field_offset" : 512,
     "referenced_type" : "_ZTIm"
    },
    {
     "access" : "protected",
     "field_name" : "dynamic_vaddr_end_",
     "field_offset" : 576,
     "referenced_type" : "_ZTIm"
    },
    {
     "access" : "protected",
     "field_name" : "data_offset_",
     "field_offset" : 640,
     "referenced_type" : "_ZTIm"
    },
    {
     "access" : "protected",
     "field_name" : "data_vaddr_start_",
     "field_offset" : 704,
     "referenced_type" : "_ZTIm"
    },
    {
     "access" : "protected",
     "field_name" : "data_vaddr_end_",
     "field_offset" : 768,
     "referenced_type" : "_ZTIm"
    },
    {
     "access" : "protected",
     "field_name" : "eh_frame_hdr_offset_",
     "field_offset" : 832,
     "referenced_type" : "_ZTIm"
    },
    {
     "access" : "protected",
     "field_name" : "eh_frame_hdr_section_bias_",
     "field_offset" : 896,
     "referenced_type" : "_ZTIl"
    },
    {
     "access" : "protected",
     "field_name" : "eh_frame_hdr_size_",
     "field_offset" : 960,
     "referenced_type" : "_ZTIm"
    },
    {
     "access" : "protected",
     "field_name" : "eh_frame_offset_",
     "field_offset" : 1024,
     "referenced_type" : "_ZTIm"
    },
    {
     "access" : "protected",
     "field_name" : "eh_frame_section_bias_",
     "field_offset" : 1088,
     "referenced_type" : "_ZTIl"
    },
    {
     "access" : "protected",
     "field_name" : "eh_frame_size_",
     "field_offset" : 1152,
     "referenced_type" : "_ZTIm"
    },
    {
     "access" : "protected",
     "field_name" : "debug_frame_offset_",
     "field_offset" : 1216,
     "referenced_type" : "_ZTIm"
    },
    {
     "access" : "protected",
     "field_name" : "debug_frame_section_bias_",
     "field_offset" : 1280,
     "referenced_type" : "_ZTIl"
    },
    {
     "access" : "protected",
     "field_name" : "debug_frame_size_",
     "field_offset" : 1344,
     "referenced_type" : "_ZTIm"
    },
    {
     "access" : "protected",
     "field_name" : "gnu_debugdata_offset_",
     "field_offset" : 1408,
     "referenced_type" : "_ZTIm"
    },
    {
     "access" : "protected",
     "field_name" : "gnu_debugdata_size_",
     "field_offset" : 1472,
     "referenced_type" : "_ZTIm"
    },
    {
     "access" : "protected",
     "field_name" : "gnu_build_id_offset_",
     "field_offset" : 1536,
     "referenced_type" : "_ZTIm"
    },
    {
     "access" : "protected",
     "field_name" : "gnu_build_id_size_",
     "field_offset" : 1600,
     "referenced_type" : "_ZTIm"
    },
    {
     "access" : "protected",
     "field_name" : "soname_type_",
     "field_offset" : 1664,
     "referenced_type" : "_ZTIh"
    },
    {
     "access" : "protected",
     "field_name" : "soname_",
     "field_offset" : 1728,
     "referenced_type" : "_ZTINSt3__112basic_stringIcNS_11char_traitsIcEENS_9allocatorIcEEEE"
    },
    {
     "access" : "protected",
     "field_name" : "last_error_",
     "field_offset" : 1920,
     "referenced_type" : "_ZTIN11unwindstack9ErrorDataE"
    },
    {
     "access" : "protected",
     "field_name" : "eh_frame_",
     "field_offset" : 2048,
     "referenced_type" : "_ZTINSt3__110unique_ptrIN11unwindstack12DwarfSectionENS_14default_deleteIS2_EEEE"
    },
    {
     "access" : "protected",
     "field_name" : "debug_frame_",
     "field_offset" : 2112,
     "referenced_type" : "_ZTINSt3__110unique_ptrIN11unwindstack12DwarfSectionENS_14default_deleteIS2_EEEE"
    },
    {
     "access" : "protected",
     "field_name" : "gnu_debugdata_interface_",
     "field_offset" : 2176,
     "referenced_type" : "_ZTIPN11unwindstack12ElfInterfaceE"
    },
    {
     "access" : "protected",
     "field_name" : "symbols_",
     "field_offset" : 2240,
     "referenced_type" : "_ZTINSt3__16vectorIPN11unwindstack7SymbolsENS_9allocatorIS3_EEEE"
    },
    {
     "access" : "protected",
     "field_name" : "strtabs_",
     "field_offset" : 2432,
     "referenced_type" : "_ZTINSt3__16vectorINS_4pairImmEENS_9allocatorIS2_EEEE"
    }
   ],
   "linker_set_key" : "_ZTIN11unwindstack12ElfInterfaceE",
   "name" : "unwindstack::ElfInterface",
   "record_kind" : "class",
   "referenced_type" : "_ZTIN11unwindstack12ElfInterfaceE",
   "self_type" : "_ZTIN11unwindstack12ElfInterfaceE",
   "size" : 328,
   "source_file" : "/system/core/libunwindstack/include/unwindstack/ElfInterface.h",
   "vtable_components" :
   [
    {
     "kind" : "offset_to_top"
    },
    {
     "kind" : "rtti",
     "mangled_component_name" : "_ZTIN11unwindstack12ElfInterfaceE"
    },
    {
     "kind" : "complete_dtor_pointer",
     "mangled_component_name" : "_ZN11unwindstack12ElfInterfaceD1Ev"
    },
    {
     "kind" : "deleting_dtor_pointer",
     "mangled_component_name" : "_ZN11unwindstack12ElfInterfaceD0Ev"
    },
    {
     "is_pure" : true,
     "mangled_component_name" : "_ZN11unwindstack12ElfInterface4InitEPl"
    },
    {
     "is_pure" : true,
     "mangled_component_name" : "_ZN11unwindstack12ElfInterface11InitHeadersEv"
    },
    {
     "is_pure" : true,
     "mangled_component_name" : "_ZN11unwindstack12ElfInterface9GetSonameEv"
    },
    {
     "is_pure" : true,
     "mangled_component_name" : "_ZN11unwindstack12ElfInterface15GetFunctionNameEmPNSt3__112basic_stringIcNS1_11char_traitsIcEENS1_9allocatorIcEEEEPm"
    },
    {
     "is_pure" : true,
     "mangled_component_name" : "_ZN11unwindstack12ElfInterface17GetGlobalVariableERKNSt3__112basic_stringIcNS1_11char_traitsIcEENS1_9allocatorIcEEEEPm"
    },
    {
     "is_pure" : true,
     "mangled_component_name" : "_ZN11unwindstack12ElfInterface10GetBuildIDEv"
    },
    {
     "mangled_component_name" : "_ZN11unwindstack12ElfInterface4StepEmPNS_4RegsEPNS_6MemoryEPb"
    },
    {
     "mangled_component_name" : "_ZN11unwindstack12ElfInterface9IsValidPcEm"
    },
    {
     "mangled_component_name" : "_ZN11unwindstack12ElfInterface17HandleUnknownTypeEjmm"
    }
   ]
  },
  {
   "alignment" : 4,
   "fields" :
   [
    {
     "field_name" : "ss_sp",
     "referenced_type" : "_ZTIj"
    },
    {
     "field_name" : "ss_size",
     "field_offset" : 32,
     "referenced_type" : "_ZTIj"
    },
    {
     "field_name" : "ss_flags",
     "field_offset" : 64,
     "referenced_type" : "_ZTIi"
    }
   ],
   "linker_set_key" : "_ZTIN11unwindstack12mips_stack_tE",
   "name" : "unwindstack::mips_stack_t",
   "referenced_type" : "_ZTIN11unwindstack12mips_stack_tE",
   "self_type" : "_ZTIN11unwindstack12mips_stack_tE",
   "size" : 12,
   "source_file" : "/system/core/libunwindstack/include/unwindstack/UcontextMips.h"
  },
  {
   "alignment" : 8,
   "fields" :
   [
    {
     "field_name" : "type",
     "referenced_type" : "_ZTIN11unwindstack17DwarfLocationEnumE"
    },
    {
     "field_name" : "values",
     "field_offset" : 64,
     "referenced_type" : "_ZTIA2_m"
    }
   ],
   "linker_set_key" : "_ZTIN11unwindstack13DwarfLocationE",
   "name" : "unwindstack::DwarfLocation",
   "referenced_type" : "_ZTIN11unwindstack13DwarfLocationE",
   "self_type" : "_ZTIN11unwindstack13DwarfLocationE",
   "size" : 24,
   "source_file" : "/system/core/libunwindstack/include/unwindstack/DwarfLocation.h"
  },
  {
   "alignment" : 8,
   "fields" :
   [
    {
     "access" : "private",
     "field_name" : "maps_rwlock_",
     "referenced_type" : "_ZTI16pthread_rwlock_t"
    },
    {
     "access" : "private",
     "field_name" : "maps_",
     "field_offset" : 448,
     "referenced_type" : "_ZTINSt3__110unique_ptrIN11unwindstack18LocalUpdatableMapsENS_14default_deleteIS2_EEEE"
    },
    {
     "access" : "private",
     "field_name" : "process_memory_",
     "field_offset" : 512,
     "referenced_type" : "_ZTINSt3__110shared_ptrIN11unwindstack6MemoryEEE"
    },
    {
     "access" : "private",
     "field_name" : "skip_libraries_",
     "field_offset" : 640,
     "referenced_type" : "_ZTINSt3__16vectorINS_12basic_stringIcNS_11char_traitsIcEENS_9allocatorIcEEEENS4_IS6_EEEE"
    },
    {
     "access" : "private",
     "field_name" : "last_error_",
     "field_offset" : 832,
     "referenced_type" : "_ZTIN11unwindstack9ErrorDataE"
    }
   ],
   "linker_set_key" : "_ZTIN11unwindstack13LocalUnwinderE",
   "name" : "unwindstack::LocalUnwinder",
   "record_kind" : "class",
   "referenced_type" : "_ZTIN11unwindstack13LocalUnwinderE",
   "self_type" : "_ZTIN11unwindstack13LocalUnwinderE",
   "size" : 120,
   "source_file" : "/system/core/libunwindstack/include/unwindstack/LocalUnwinder.h"
  },
  {
   "alignment" : 8,
   "fields" :
   [
    {
     "field_name" : "ss_sp",
     "referenced_type" : "_ZTIm"
    },
    {
     "field_name" : "ss_flags",
     "field_offset" : 64,
     "referenced_type" : "_ZTIi"
    },
    {
     "field_name" : "ss_size",
     "field_offset" : 128,
     "referenced_type" : "_ZTIm"
    }
   ],
   "linker_set_key" : "_ZTIN11unwindstack13arm64_stack_tE",
   "name" : "unwindstack::arm64_stack_t",
   "referenced_type" : "_ZTIN11unwindstack13arm64_stack_tE",
   "self_type" : "_ZTIN11unwindstack13arm64_stack_tE",
   "size" : 24,
   "source_file" : "/system/core/libunwindstack/include/unwindstack/UcontextArm64.h"
  },
  {
   "alignment" : 4,
   "fields" :
   [
    {
     "field_name" : "regs",
     "referenced_type" : "_ZTIA18_j"
    }
   ],
   "linker_set_key" : "_ZTIN11unwindstack13arm_user_regsE",
   "name" : "unwindstack::arm_user_regs",
   "referenced_type" : "_ZTIN11unwindstack13arm_user_regsE",
   "self_type" : "_ZTIN11unwindstack13arm_user_regsE",
   "size" : 72,
   "source_file" : "/system/core/libunwindstack/include/unwindstack/UserArm.h"
  },
  {
   "alignment" : 4,
   "fields" :
   [
    {
     "field_name" : "ebx",
     "referenced_type" : "_ZTIj"
    },
    {
     "field_name" : "ecx",
     "field_offset" : 32,
     "referenced_type" : "_ZTIj"
    },
    {
     "field_name" : "edx",
     "field_offset" : 64,
     "referenced_type" : "_ZTIj"
    },
    {
     "field_name" : "esi",
     "field_offset" : 96,
     "referenced_type" : "_ZTIj"
    },
    {
     "field_name" : "edi",
     "field_offset" : 128,
     "referenced_type" : "_ZTIj"
    },
    {
     "field_name" : "ebp",
     "field_offset" : 160,
     "referenced_type" : "_ZTIj"
    },
    {
     "field_name" : "eax",
     "field_offset" : 192,
     "referenced_type" : "_ZTIj"
    },
    {
     "field_name" : "xds",
     "field_offset" : 224,
     "referenced_type" : "_ZTIj"
    },
    {
     "field_name" : "xes",
     "field_offset" : 256,
     "referenced_type" : "_ZTIj"
    },
    {
     "field_name" : "xfs",
     "field_offset" : 288,
     "referenced_type" : "_ZTIj"
    },
    {
     "field_name" : "xgs",
     "field_offset" : 320,
     "referenced_type" : "_ZTIj"
    },
    {
     "field_name" : "orig_eax",
     "field_offset" : 352,
     "referenced_type" : "_ZTIj"
    },
    {
     "field_name" : "eip",
     "field_offset" : 384,
     "referenced_type" : "_ZTIj"
    },
    {
     "field_name" : "xcs",
     "field_offset" : 416,
     "referenced_type" : "_ZTIj"
    },
    {
     "field_name" : "eflags",
     "field_offset" : 448,
     "referenced_type" : "_ZTIj"
    },
    {
     "field_name" : "esp",
     "field_offset" : 480,
     "referenced_type" : "_ZTIj"
    },
    {
     "field_name" : "xss",
     "field_offset" : 512,
     "referenced_type" : "_ZTIj"
    }
   ],
   "linker_set_key" : "_ZTIN11unwindstack13x86_user_regsE",
   "name" : "unwindstack::x86_user_regs",
   "referenced_type" : "_ZTIN11unwindstack13x86_user_regsE",
   "self_type" : "_ZTIN11unwindstack13x86_user_regsE",
   "size" : 68,
   "source_file" : "/system/core/libunwindstack/include/unwindstack/UserX86.h"
  },
  {
   "alignment" : 8,
   "fields" :
   [
    {
     "field_name" : "code",
     "referenced_type" : "_ZTIN11unwindstack14DwarfErrorCodeE"
    },
    {
     "field_name" : "address",
     "field_offset" : 64,
     "referenced_type" : "_ZTIm"
    }
   ],
   "linker_set_key" : "_ZTIN11unwindstack14DwarfErrorDataE",
   "name" : "unwindstack::DwarfErrorData",
   "referenced_type" : "_ZTIN11unwindstack14DwarfErrorDataE",
   "self_type" : "_ZTIN11unwindstack14DwarfErrorDataE",
   "size" : 16,
   "source_file" : "/system/core/libunwindstack/include/unwindstack/DwarfError.h"
  },
  {
   "alignment" : 8,
   "base_specifiers" :
   [
    {
     "referenced_type" : "_ZTINSt3__113unordered_mapIjN11unwindstack13DwarfLocationENS_4hashIjEENS_8equal_toIjEENS_9allocatorINS_4pairIKjS2_EEEEEE"
    }
   ],
   "fields" :
   [
    {
     "field_name" : "cie",
     "field_offset" : 320,
     "referenced_type" : "_ZTIPKN11unwindstack8DwarfCieE"
    },
    {
     "field_name" : "pc_start",
     "field_offset" : 384,
     "referenced_type" : "_ZTIm"
    },
    {
     "field_name" : "pc_end",
     "field_offset" : 448,
     "referenced_type" : "_ZTIm"
    }
   ],
   "linker_set_key" : "_ZTIN11unwindstack14DwarfLocationsE",
   "name" : "unwindstack::DwarfLocations",
   "referenced_type" : "_ZTIN11unwindstack14DwarfLocationsE",
   "self_type" : "_ZTIN11unwindstack14DwarfLocationsE",
   "size" : 64,
   "source_file" : "/system/core/libunwindstack/include/unwindstack/DwarfLocation.h"
  },
  {
   "alignment" : 8,
   "base_specifiers" :
   [
    {
     "referenced_type" : "_ZTIN11unwindstack12ElfInterfaceE"
    }
   ],
   "linker_set_key" : "_ZTIN11unwindstack14ElfInterface32E",
   "name" : "unwindstack::ElfInterface32",
   "record_kind" : "class",
   "referenced_type" : "_ZTIN11unwindstack14ElfInterface32E",
   "self_type" : "_ZTIN11unwindstack14ElfInterface32E",
   "size" : 328,
   "source_file" : "/system/core/libunwindstack/include/unwindstack/ElfInterface.h",
   "vtable_components" :
   [
    {
     "kind" : "offset_to_top"
    },
    {
     "kind" : "rtti",
     "mangled_component_name" : "_ZTIN11unwindstack14ElfInterface32E"
    },
    {
     "kind" : "complete_dtor_pointer",
     "mangled_component_name" : "_ZN11unwindstack14ElfInterface32D1Ev"
    },
    {
     "kind" : "deleting_dtor_pointer",
     "mangled_component_name" : "_ZN11unwindstack14ElfInterface32D0Ev"
    },
    {
     "mangled_component_name" : "_ZN11unwindstack14ElfInterface324InitEPl"
    },
    {
     "mangled_component_name" : "_ZN11unwindstack14ElfInterface3211InitHeadersEv"
    },
    {
     "mangled_component_name" : "_ZN11unwindstack14ElfInterface329GetSonameEv"
    },
    {
     "mangled_component_name" : "_ZN11unwindstack14ElfInterface3215GetFunctionNameEmPNSt3__112basic_stringIcNS1_11char_traitsIcEENS1_9allocatorIcEEEEPm"
    },
    {
     "mangled_component_name" : "_ZN11unwindstack14ElfInterface3217GetGlobalVariableERKNSt3__112basic_stringIcNS1_11char_traitsIcEENS1_9allocatorIcEEEEPm"
    },
    {
     "mangled_component_name" : "_ZN11unwindstack14ElfInterface3210GetBuildIDEv"
    },
    {
     "mangled_component_name" : "_ZN11unwindstack12ElfInterface4StepEmPNS_4RegsEPNS_6MemoryEPb"
    },
    {
     "mangled_component_name" : "_ZN11unwindstack12ElfInterface9IsValidPcEm"
    },
    {
     "mangled_component_name" : "_ZN11unwindstack12ElfInterface17HandleUnknownTypeEjmm"
    }
   ]
  },
  {
   "alignment" : 8,
   "base_specifiers" :
   [
    {
     "referenced_type" : "_ZTIN11unwindstack12ElfInterfaceE"
    }
   ],
   "linker_set_key" : "_ZTIN11unwindstack14ElfInterface64E",
   "name" : "unwindstack::ElfInterface64",
   "record_kind" : "class",
   "referenced_type" : "_ZTIN11unwindstack14ElfInterface64E",
   "self_type" : "_ZTIN11unwindstack14ElfInterface64E",
   "size" : 328,
   "source_file" : "/system/core/libunwindstack/include/unwindstack/ElfInterface.h",
   "vtable_components" :
   [
    {
     "kind" : "offset_to_top"
    },
    {
     "kind" : "rtti",
     "mangled_component_name" : "_ZTIN11unwindstack14ElfInterface64E"
    },
    {
     "kind" : "complete_dtor_pointer",
     "mangled_component_name" : "_ZN11unwindstack14ElfInterface64D1Ev"
    },
    {
     "kind" : "deleting_dtor_pointer",
     "mangled_component_name" : "_ZN11unwindstack14ElfInterface64D0Ev"
    },
    {
     "mangled_component_name" : "_ZN11unwindstack14ElfInterface644InitEPl"
    },
    {
     "mangled_component_name" : "_ZN11unwindstack14ElfInterface6411InitHeadersEv"
    },
    {
     "mangled_component_name" : "_ZN11unwindstack14ElfInterface649GetSonameEv"
    },
    {
     "mangled_component_name" : "_ZN11unwindstack14ElfInterface6415GetFunctionNameEmPNSt3__112basic_stringIcNS1_11char_traitsIcEENS1_9allocatorIcEEEEPm"
    },
    {
     "mangled_component_name" : "_ZN11unwindstack14ElfInterface6417GetGlobalVariableERKNSt3__112basic_stringIcNS1_11char_traitsIcEENS1_9allocatorIcEEEEPm"
    },
    {
     "mangled_component_name" : "_ZN11unwindstack14ElfInterface6410GetBuildIDEv"
    },
    {
     "mangled_component_name" : "_ZN11unwindstack12ElfInterface4StepEmPNS_4RegsEPNS_6MemoryEPb"
    },
    {
     "mangled_component_name" : "_ZN11unwindstack12ElfInterface9IsValidPcEm"
    },
    {
     "mangled_component_name" : "_ZN11unwindstack12ElfInterface17HandleUnknownTypeEjmm"
    }
   ]
  },
  {
   "alignment" : 8,
   "fields" :
   [
    {
     "field_name" : "map_info",
     "referenced_type" : "_ZTIPN11unwindstack7MapInfoE"
    },
    {
     "field_name" : "pc",
     "field_offset" : 64,
     "referenced_type" : "_ZTIm"
    },
    {
     "field_name" : "rel_pc",
     "field_offset" : 128,
     "referenced_type" : "_ZTIm"
    },
    {
     "field_name" : "function_name",
     "field_offset" : 192,
     "referenced_type" : "_ZTINSt3__112basic_stringIcNS_11char_traitsIcEENS_9allocatorIcEEEE"
    },
    {
     "field_name" : "function_offset",
     "field_offset" : 384,
     "referenced_type" : "_ZTIm"
    }
   ],
   "linker_set_key" : "_ZTIN11unwindstack14LocalFrameDataE",
   "name" : "unwindstack::LocalFrameData",
   "referenced_type" : "_ZTIN11unwindstack14LocalFrameDataE",
   "self_type" : "_ZTIN11unwindstack14LocalFrameDataE",
   "size" : 56,
   "source_file" : "/system/core/libunwindstack/include/unwindstack/LocalUnwinder.h"
  },
  {
   "alignment" : 8,
   "fields" :
   [
    {
     "field_name" : "sig",
     "referenced_type" : "_ZTIm"
    }
   ],
   "linker_set_key" : "_ZTIN11unwindstack14arm64_sigset_tE",
   "name" : "unwindstack::arm64_sigset_t",
   "referenced_type" : "_ZTIN11unwindstack14arm64_sigset_tE",
   "self_type" : "_ZTIN11unwindstack14arm64_sigset_tE",
   "size" : 8,
   "source_file" : "/system/core/libunwindstack/include/unwindstack/UcontextArm64.h"
  },
  {
   "alignment" : 4,
   "fields" :
   [
    {
     "field_name" : "trap_no",
     "referenced_type" : "_ZTIj"
    },
    {
     "field_name" : "error_code",
     "field_offset" : 32,
     "referenced_type" : "_ZTIj"
    },
    {
     "field_name" : "oldmask",
     "field_offset" : 64,
     "referenced_type" : "_ZTIj"
    },
    {
     "field_name" : "regs",
     "field_offset" : 96,
     "referenced_type" : "_ZTIA16_j"
    },
    {
     "field_name" : "cpsr",
     "field_offset" : 608,
     "referenced_type" : "_ZTIj"
    },
    {
     "field_name" : "fault_address",
     "field_offset" : 640,
     "referenced_type" : "_ZTIj"
    }
   ],
   "linker_set_key" : "_ZTIN11unwindstack14arm_mcontext_tE",
   "name" : "unwindstack::arm_mcontext_t",
   "referenced_type" : "_ZTIN11unwindstack14arm_mcontext_tE",
   "self_type" : "_ZTIN11unwindstack14arm_mcontext_tE",
   "size" : 84,
   "source_file" : "/system/core/libunwindstack/include/unwindstack/UcontextArm.h"
  },
  {
   "alignment" : 4,
   "fields" :
   [
    {
     "field_name" : "uc_flags",
     "referenced_type" : "_ZTIj"
    },
    {
     "field_name" : "uc_link",
     "field_offset" : 32,
     "referenced_type" : "_ZTIj"
    },
    {
     "field_name" : "uc_stack",
     "field_offset" : 64,
     "referenced_type" : "_ZTIN11unwindstack11arm_stack_tE"
    },
    {
     "field_name" : "uc_mcontext",
     "field_offset" : 160,
     "referenced_type" : "_ZTIN11unwindstack14arm_mcontext_tE"
    }
   ],
   "linker_set_key" : "_ZTIN11unwindstack14arm_ucontext_tE",
   "name" : "unwindstack::arm_ucontext_t",
   "referenced_type" : "_ZTIN11unwindstack14arm_ucontext_tE",
   "self_type" : "_ZTIN11unwindstack14arm_ucontext_tE",
   "size" : 104,
   "source_file" : "/system/core/libunwindstack/include/unwindstack/UcontextArm.h"
  },
  {
   "alignment" : 8,
   "fields" :
   [
    {
     "field_name" : "ss_sp",
     "referenced_type" : "_ZTIm"
    },
    {
     "field_name" : "ss_size",
     "field_offset" : 64,
     "referenced_type" : "_ZTIm"
    },
    {
     "field_name" : "ss_flags",
     "field_offset" : 128,
     "referenced_type" : "_ZTIi"
    }
   ],
   "linker_set_key" : "_ZTIN11unwindstack14mips64_stack_tE",
   "name" : "unwindstack::mips64_stack_t",
   "referenced_type" : "_ZTIN11unwindstack14mips64_stack_tE",
   "self_type" : "_ZTIN11unwindstack14mips64_stack_tE",
   "size" : 24,
   "source_file" : "/system/core/libunwindstack/include/unwindstack/UcontextMips64.h"
  },
  {
   "alignment" : 4,
   "fields" :
   [
    {
     "field_name" : "regs",
     "referenced_type" : "_ZTIA45_j"
    }
   ],
   "linker_set_key" : "_ZTIN11unwindstack14mips_user_regsE",
   "name" : "unwindstack::mips_user_regs",
   "referenced_type" : "_ZTIN11unwindstack14mips_user_regsE",
   "self_type" : "_ZTIN11unwindstack14mips_user_regsE",
   "size" : 180,
   "source_file" : "/system/core/libunwindstack/include/unwindstack/UserMips.h"
  },
  {
   "alignment" : 8,
   "fields" :
   [
    {
     "field_name" : "ss_sp",
     "referenced_type" : "_ZTIm"
    },
    {
     "field_name" : "ss_flags",
     "field_offset" : 64,
     "referenced_type" : "_ZTIi"
    },
    {
     "field_name" : "pad",
     "field_offset" : 96,
     "referenced_type" : "_ZTIi"
    },
    {
     "field_name" : "ss_size",
     "field_offset" : 128,
     "referenced_type" : "_ZTIm"
    }
   ],
   "linker_set_key" : "_ZTIN11unwindstack14x86_64_stack_tE",
   "name" : "unwindstack::x86_64_stack_t",
   "referenced_type" : "_ZTIN11unwindstack14x86_64_stack_tE",
   "self_type" : "_ZTIN11unwindstack14x86_64_stack_tE",
   "size" : 24,
   "source_file" : "/system/core/libunwindstack/include/unwindstack/UcontextX86_64.h"
  },
  {
   "alignment" : 4,
   "fields" :
   [
    {
     "field_name" : "gs",
     "referenced_type" : "_ZTIj"
    },
    {
     "field_name" : "fs",
     "field_offset" : 32,
     "referenced_type" : "_ZTIj"
    },
    {
     "field_name" : "es",
     "field_offset" : 64,
     "referenced_type" : "_ZTIj"
    },
    {
     "field_name" : "ds",
     "field_offset" : 96,
     "referenced_type" : "_ZTIj"
    },
    {
     "field_name" : "edi",
     "field_offset" : 128,
     "referenced_type" : "_ZTIj"
    },
    {
     "field_name" : "esi",
     "field_offset" : 160,
     "referenced_type" : "_ZTIj"
    },
    {
     "field_name" : "ebp",
     "field_offset" : 192,
     "referenced_type" : "_ZTIj"
    },
    {
     "field_name" : "esp",
     "field_offset" : 224,
     "referenced_type" : "_ZTIj"
    },
    {
     "field_name" : "ebx",
     "field_offset" : 256,
     "referenced_type" : "_ZTIj"
    },
    {
     "field_name" : "edx",
     "field_offset" : 288,
     "referenced_type" : "_ZTIj"
    },
    {
     "field_name" : "ecx",
     "field_offset" : 320,
     "referenced_type" : "_ZTIj"
    },
    {
     "field_name" : "eax",
     "field_offset" : 352,
     "referenced_type" : "_ZTIj"
    },
    {
     "field_name" : "trapno",
     "field_offset" : 384,
     "referenced_type" : "_ZTIj"
    },
    {
     "field_name" : "err",
     "field_offset" : 416,
     "referenced_type" : "_ZTIj"
    },
    {
     "field_name" : "eip",
     "field_offset" : 448,
     "referenced_type" : "_ZTIj"
    },
    {
     "field_name" : "cs",
     "field_offset" : 480,
     "referenced_type" : "_ZTIj"
    },
    {
     "field_name" : "efl",
     "field_offset" : 512,
     "referenced_type" : "_ZTIj"
    },
    {
     "field_name" : "uesp",
     "field_offset" : 544,
     "referenced_type" : "_ZTIj"
    },
    {
     "field_name" : "ss",
     "field_offset" : 576,
     "referenced_type" : "_ZTIj"
    }
   ],
   "linker_set_key" : "_ZTIN11unwindstack14x86_mcontext_tE",
   "name" : "unwindstack::x86_mcontext_t",
   "referenced_type" : "_ZTIN11unwindstack14x86_mcontext_tE",
   "self_type" : "_ZTIN11unwindstack14x86_mcontext_tE",
   "size" : 76,
   "source_file" : "/system/core/libunwindstack/include/unwindstack/UcontextX86.h"
  },
  {
   "alignment" : 4,
   "fields" :
   [
    {
     "field_name" : "uc_flags",
     "referenced_type" : "_ZTIj"
    },
    {
     "field_name" : "uc_link",
     "field_offset" : 32,
     "referenced_type" : "_ZTIj"
    },
    {
     "field_name" : "uc_stack",
     "field_offset" : 64,
     "referenced_type" : "_ZTIN11unwindstack11x86_stack_tE"
    },
    {
     "field_name" : "uc_mcontext",
     "field_offset" : 160,
     "referenced_type" : "_ZTIN11unwindstack14x86_mcontext_tE"
    }
   ],
   "linker_set_key" : "_ZTIN11unwindstack14x86_ucontext_tE",
   "name" : "unwindstack::x86_ucontext_t",
   "referenced_type" : "_ZTIN11unwindstack14x86_ucontext_tE",
   "self_type" : "_ZTIN11unwindstack14x86_ucontext_tE",
   "size" : 96,
   "source_file" : "/system/core/libunwindstack/include/unwindstack/UcontextX86.h"
  },
  {
   "alignment" : 8,
   "base_specifiers" :
   [
    {
     "referenced_type" : "_ZTIN11unwindstack8UnwinderE"
    }
   ],
   "fields" :
   [
    {
     "access" : "private",
     "field_name" : "pid_",
     "field_offset" : 896,
     "referenced_type" : "_ZTIi"
    },
    {
     "access" : "private",
     "field_name" : "maps_ptr_",
     "field_offset" : 960,
     "referenced_type" : "_ZTINSt3__110unique_ptrIN11unwindstack4MapsENS_14default_deleteIS2_EEEE"
    },
    {
     "access" : "private",
     "field_name" : "jit_debug_ptr_",
     "field_offset" : 1024,
     "referenced_type" : "_ZTINSt3__110unique_ptrIN11unwindstack8JitDebugENS_14default_deleteIS2_EEEE"
    },
    {
     "access" : "private",
     "field_name" : "dex_files_ptr_",
     "field_offset" : 1088,
     "referenced_type" : "_ZTINSt3__110unique_ptrIN11unwindstack8DexFilesENS_14default_deleteIS2_EEEE"
    }
   ],
   "linker_set_key" : "_ZTIN11unwindstack15UnwinderFromPidE",
   "name" : "unwindstack::UnwinderFromPid",
   "record_kind" : "class",
   "referenced_type" : "_ZTIN11unwindstack15UnwinderFromPidE",
   "self_type" : "_ZTIN11unwindstack15UnwinderFromPidE",
   "size" : 144,
   "source_file" : "/system/core/libunwindstack/include/unwindstack/Unwinder.h",
   "vtable_components" :
   [
    {
     "kind" : "offset_to_top"
    },
    {
     "kind" : "rtti",
     "mangled_component_name" : "_ZTIN11unwindstack15UnwinderFromPidE"
    },
    {
     "kind" : "complete_dtor_pointer",
     "mangled_component_name" : "_ZN11unwindstack15UnwinderFromPidD1Ev"
    },
    {
     "kind" : "deleting_dtor_pointer",
     "mangled_component_name" : "_ZN11unwindstack15UnwinderFromPidD0Ev"
    }
   ]
  },
  {
   "alignment" : 8,
   "fields" :
   [
    {
     "field_name" : "regs",
     "referenced_type" : "_ZTIA31_m"
    },
    {
     "field_name" : "sp",
     "field_offset" : 1984,
     "referenced_type" : "_ZTIm"
    },
    {
     "field_name" : "pc",
     "field_offset" : 2048,
     "referenced_type" : "_ZTIm"
    },
    {
     "field_name" : "pstate",
     "field_offset" : 2112,
     "referenced_type" : "_ZTIm"
    }
   ],
   "linker_set_key" : "_ZTIN11unwindstack15arm64_user_regsE",
   "name" : "unwindstack::arm64_user_regs",
   "referenced_type" : "_ZTIN11unwindstack15arm64_user_regsE",
   "self_type" : "_ZTIN11unwindstack15arm64_user_regsE",
   "size" : 272,
   "source_file" : "/system/core/libunwindstack/include/unwindstack/UserArm64.h"
  },
  {
   "alignment" : 8,
   "fields" :
   [
    {
     "field_name" : "sc_regmask",
     "referenced_type" : "_ZTIj"
    },
    {
     "field_name" : "sc_status",
     "field_offset" : 32,
     "referenced_type" : "_ZTIj"
    },
    {
     "field_name" : "sc_pc",
     "field_offset" : 64,
     "referenced_type" : "_ZTIm"
    },
    {
     "field_name" : "sc_regs",
     "field_offset" : 128,
     "referenced_type" : "_ZTIA32_m"
    }
   ],
   "linker_set_key" : "_ZTIN11unwindstack15mips_mcontext_tE",
   "name" : "unwindstack::mips_mcontext_t",
   "referenced_type" : "_ZTIN11unwindstack15mips_mcontext_tE",
   "self_type" : "_ZTIN11unwindstack15mips_mcontext_tE",
   "size" : 272,
   "source_file" : "/system/core/libunwindstack/include/unwindstack/UcontextMips.h"
  },
  {
   "alignment" : 8,
   "fields" :
   [
    {
     "field_name" : "uc_flags",
     "referenced_type" : "_ZTIj"
    },
    {
     "field_name" : "uc_link",
     "field_offset" : 32,
     "referenced_type" : "_ZTIj"
    },
    {
     "field_name" : "uc_stack",
     "field_offset" : 64,
     "referenced_type" : "_ZTIN11unwindstack12mips_stack_tE"
    },
    {
     "field_name" : "uc_mcontext",
     "field_offset" : 192,
     "referenced_type" : "_ZTIN11unwindstack15mips_mcontext_tE"
    }
   ],
   "linker_set_key" : "_ZTIN11unwindstack15mips_ucontext_tE",
   "name" : "unwindstack::mips_ucontext_t",
   "referenced_type" : "_ZTIN11unwindstack15mips_ucontext_tE",
   "self_type" : "_ZTIN11unwindstack15mips_ucontext_tE",
   "size" : 296,
   "source_file" : "/system/core/libunwindstack/include/unwindstack/UcontextMips.h"
  },
  {
   "alignment" : 8,
   "base_specifiers" :
   [
    {
     "referenced_type" : "_ZTIN11unwindstack12DwarfSectionE"
    }
   ],
   "fields" :
   [
    {
     "access" : "protected",
     "field_name" : "section_bias_",
     "field_offset" : 1920,
     "referenced_type" : "_ZTIl"
    },
    {
     "access" : "protected",
     "field_name" : "entries_offset_",
     "field_offset" : 1984,
     "referenced_type" : "_ZTIm"
    },
    {
     "access" : "protected",
     "field_name" : "entries_end_",
     "field_offset" : 2048,
     "referenced_type" : "_ZTIm"
    },
    {
     "access" : "protected",
     "field_name" : "next_entries_offset_",
     "field_offset" : 2112,
     "referenced_type" : "_ZTIm"
    },
    {
     "access" : "protected",
     "field_name" : "pc_offset_",
     "field_offset" : 2176,
     "referenced_type" : "_ZTIm"
    },
    {
     "access" : "protected",
     "field_name" : "fdes_",
     "field_offset" : 2240,
     "referenced_type" : "_ZTINSt3__13mapImNS_4pairImPKN11unwindstack8DwarfFdeEEENS_4lessImEENS_9allocatorINS1_IKmS6_EEEEEE"
    }
   ],
   "linker_set_key" : "_ZTIN11unwindstack16DwarfSectionImplIjEE",
   "name" : "unwindstack::DwarfSectionImpl<unsigned int>",
   "record_kind" : "class",
   "referenced_type" : "_ZTIN11unwindstack16DwarfSectionImplIjEE",
   "self_type" : "_ZTIN11unwindstack16DwarfSectionImplIjEE",
   "size" : 304,
   "source_file" : "/system/core/libunwindstack/include/unwindstack/DwarfSection.h",
   "template_args" : [ "_ZTIj" ],
   "vtable_components" :
   [
    {
     "kind" : "offset_to_top"
    },
    {
     "kind" : "rtti",
     "mangled_component_name" : "_ZTIN11unwindstack16DwarfSectionImplIjEE"
    },
    {
     "kind" : "complete_dtor_pointer",
     "mangled_component_name" : "_ZN11unwindstack16DwarfSectionImplIjED1Ev"
    },
    {
     "kind" : "deleting_dtor_pointer",
     "mangled_component_name" : "_ZN11unwindstack16DwarfSectionImplIjED0Ev"
    },
    {
     "mangled_component_name" : "_ZN11unwindstack16DwarfSectionImplIjE4InitEmml"
    },
    {
     "mangled_component_name" : "_ZN11unwindstack16DwarfSectionImplIjE4EvalEPKNS_8DwarfCieEPNS_6MemoryERKNS_14DwarfLocationsEPNS_4RegsEPb"
    },
    {
     "mangled_component_name" : "_ZN11unwindstack16DwarfSectionImplIjE3LogEhmPKNS_8DwarfFdeE"
    },
    {
     "mangled_component_name" : "_ZN11unwindstack16DwarfSectionImplIjE7GetFdesEPNSt3__16vectorIPKNS_8DwarfFdeENS2_9allocatorIS6_EEEE"
    },
    {
     "mangled_component_name" : "_ZN11unwindstack16DwarfSectionImplIjE12GetFdeFromPcEm"
    },
    {
     "mangled_component_name" : "_ZN11unwindstack16DwarfSectionImplIjE18GetCfaLocationInfoEmPKNS_8DwarfFdeEPNS_14DwarfLocationsE"
    },
    {
     "is_pure" : true,
     "mangled_component_name" : "_ZN11unwindstack12DwarfSection21GetCieOffsetFromFde32Ej"
    },
    {
     "is_pure" : true,
     "mangled_component_name" : "_ZN11unwindstack12DwarfSection21GetCieOffsetFromFde64Em"
    },
    {
     "is_pure" : true,
     "mangled_component_name" : "_ZN11unwindstack12DwarfSection15AdjustPcFromFdeEm"
    }
   ]
  },
  {
   "alignment" : 8,
   "base_specifiers" :
   [
    {
     "referenced_type" : "_ZTIN11unwindstack12DwarfSectionE"
    }
   ],
   "fields" :
   [
    {
     "access" : "protected",
     "field_name" : "section_bias_",
     "field_offset" : 1920,
     "referenced_type" : "_ZTIl"
    },
    {
     "access" : "protected",
     "field_name" : "entries_offset_",
     "field_offset" : 1984,
     "referenced_type" : "_ZTIm"
    },
    {
     "access" : "protected",
     "field_name" : "entries_end_",
     "field_offset" : 2048,
     "referenced_type" : "_ZTIm"
    },
    {
     "access" : "protected",
     "field_name" : "next_entries_offset_",
     "field_offset" : 2112,
     "referenced_type" : "_ZTIm"
    },
    {
     "access" : "protected",
     "field_name" : "pc_offset_",
     "field_offset" : 2176,
     "referenced_type" : "_ZTIm"
    },
    {
     "access" : "protected",
     "field_name" : "fdes_",
     "field_offset" : 2240,
     "referenced_type" : "_ZTINSt3__13mapImNS_4pairImPKN11unwindstack8DwarfFdeEEENS_4lessImEENS_9allocatorINS1_IKmS6_EEEEEE"
    }
   ],
   "linker_set_key" : "_ZTIN11unwindstack16DwarfSectionImplImEE",
   "name" : "unwindstack::DwarfSectionImpl<unsigned long>",
   "record_kind" : "class",
   "referenced_type" : "_ZTIN11unwindstack16DwarfSectionImplImEE",
   "self_type" : "_ZTIN11unwindstack16DwarfSectionImplImEE",
   "size" : 304,
   "source_file" : "/system/core/libunwindstack/include/unwindstack/DwarfSection.h",
   "template_args" : [ "_ZTIm" ],
   "vtable_components" :
   [
    {
     "kind" : "offset_to_top"
    },
    {
     "kind" : "rtti",
     "mangled_component_name" : "_ZTIN11unwindstack16DwarfSectionImplImEE"
    },
    {
     "kind" : "complete_dtor_pointer",
     "mangled_component_name" : "_ZN11unwindstack16DwarfSectionImplImED1Ev"
    },
    {
     "kind" : "deleting_dtor_pointer",
     "mangled_component_name" : "_ZN11unwindstack16DwarfSectionImplImED0Ev"
    },
    {
     "mangled_component_name" : "_ZN11unwindstack16DwarfSectionImplImE4InitEmml"
    },
    {
     "mangled_component_name" : "_ZN11unwindstack16DwarfSectionImplImE4EvalEPKNS_8DwarfCieEPNS_6MemoryERKNS_14DwarfLocationsEPNS_4RegsEPb"
    },
    {
     "mangled_component_name" : "_ZN11unwindstack16DwarfSectionImplImE3LogEhmPKNS_8DwarfFdeE"
    },
    {
     "mangled_component_name" : "_ZN11unwindstack16DwarfSectionImplImE7GetFdesEPNSt3__16vectorIPKNS_8DwarfFdeENS2_9allocatorIS6_EEEE"
    },
    {
     "mangled_component_name" : "_ZN11unwindstack16DwarfSectionImplImE12GetFdeFromPcEm"
    },
    {
     "mangled_component_name" : "_ZN11unwindstack16DwarfSectionImplImE18GetCfaLocationInfoEmPKNS_8DwarfFdeEPNS_14DwarfLocationsE"
    },
    {
     "is_pure" : true,
     "mangled_component_name" : "_ZN11unwindstack12DwarfSection21GetCieOffsetFromFde32Ej"
    },
    {
     "is_pure" : true,
     "mangled_component_name" : "_ZN11unwindstack12DwarfSection21GetCieOffsetFromFde64Em"
    },
    {
     "is_pure" : true,
     "mangled_component_name" : "_ZN11unwindstack12DwarfSection15AdjustPcFromFdeEm"
    }
   ]
  },
  {
   "alignment" : 8,
   "fields" :
   [
    {
     "field_name" : "fault_address",
     "referenced_type" : "_ZTIm"
    },
    {
     "field_name" : "regs",
     "field_offset" : 64,
     "referenced_type" : "_ZTIA34_m"
    },
    {
     "field_name" : "pstate",
     "field_offset" : 2240,
     "referenced_type" : "_ZTIm"
    }
   ],
   "linker_set_key" : "_ZTIN11unwindstack16arm64_mcontext_tE",
   "name" : "unwindstack::arm64_mcontext_t",
   "referenced_type" : "_ZTIN11unwindstack16arm64_mcontext_tE",
   "self_type" : "_ZTIN11unwindstack16arm64_mcontext_tE",
   "size" : 288,
   "source_file" : "/system/core/libunwindstack/include/unwindstack/UcontextArm64.h"
  },
  {
   "alignment" : 16,
   "fields" :
   [
    {
     "field_name" : "uc_flags",
     "referenced_type" : "_ZTIm"
    },
    {
     "field_name" : "uc_link",
     "field_offset" : 64,
     "referenced_type" : "_ZTIm"
    },
    {
     "field_name" : "uc_stack",
     "field_offset" : 128,
     "referenced_type" : "_ZTIN11unwindstack13arm64_stack_tE"
    },
    {
     "field_name" : "uc_sigmask",
     "field_offset" : 320,
     "referenced_type" : "_ZTIN11unwindstack14arm64_sigset_tE"
    },
    {
     "field_name" : "__padding",
     "field_offset" : 384,
     "referenced_type" : "_ZTIA120_c"
    },
    {
     "field_name" : "uc_mcontext",
     "field_offset" : 1408,
     "referenced_type" : "_ZTIN11unwindstack16arm64_mcontext_tE"
    }
   ],
   "linker_set_key" : "_ZTIN11unwindstack16arm64_ucontext_tE",
   "name" : "unwindstack::arm64_ucontext_t",
   "referenced_type" : "_ZTIN11unwindstack16arm64_ucontext_tE",
   "self_type" : "_ZTIN11unwindstack16arm64_ucontext_tE",
   "size" : 464,
   "source_file" : "/system/core/libunwindstack/include/unwindstack/UcontextArm64.h"
  },
  {
   "alignment" : 8,
   "fields" :
   [
    {
     "field_name" : "regs",
     "referenced_type" : "_ZTIA45_m"
    }
   ],
   "linker_set_key" : "_ZTIN11unwindstack16mips64_user_regsE",
   "name" : "unwindstack::mips64_user_regs",
   "referenced_type" : "_ZTIN11unwindstack16mips64_user_regsE",
   "self_type" : "_ZTIN11unwindstack16mips64_user_regsE",
   "size" : 360,
   "source_file" : "/system/core/libunwindstack/include/unwindstack/UserMips64.h"
  },
  {
   "alignment" : 8,
   "fields" :
   [
    {
     "field_name" : "r15",
     "referenced_type" : "_ZTIm"
    },
    {
     "field_name" : "r14",
     "field_offset" : 64,
     "referenced_type" : "_ZTIm"
    },
    {
     "field_name" : "r13",
     "field_offset" : 128,
     "referenced_type" : "_ZTIm"
    },
    {
     "field_name" : "r12",
     "field_offset" : 192,
     "referenced_type" : "_ZTIm"
    },
    {
     "field_name" : "rbp",
     "field_offset" : 256,
     "referenced_type" : "_ZTIm"
    },
    {
     "field_name" : "rbx",
     "field_offset" : 320,
     "referenced_type" : "_ZTIm"
    },
    {
     "field_name" : "r11",
     "field_offset" : 384,
     "referenced_type" : "_ZTIm"
    },
    {
     "field_name" : "r10",
     "field_offset" : 448,
     "referenced_type" : "_ZTIm"
    },
    {
     "field_name" : "r9",
     "field_offset" : 512,
     "referenced_type" : "_ZTIm"
    },
    {
     "field_name" : "r8",
     "field_offset" : 576,
     "referenced_type" : "_ZTIm"
    },
    {
     "field_name" : "rax",
     "field_offset" : 640,
     "referenced_type" : "_ZTIm"
    },
    {
     "field_name" : "rcx",
     "field_offset" : 704,
     "referenced_type" : "_ZTIm"
    },
    {
     "field_name" : "rdx",
     "field_offset" : 768,
     "referenced_type" : "_ZTIm"
    },
    {
     "field_name" : "rsi",
     "field_offset" : 832,
     "referenced_type" : "_ZTIm"
    },
    {
     "field_name" : "rdi",
     "field_offset" : 896,
     "referenced_type" : "_ZTIm"
    },
    {
     "field_name" : "orig_rax",
     "field_offset" : 960,
     "referenced_type" : "_ZTIm"
    },
    {
     "field_name" : "rip",
     "field_offset" : 1024,
     "referenced_type" : "_ZTIm"
    },
    {
     "field_name" : "cs",
     "field_offset" : 1088,
     "referenced_type" : "_ZTIm"
    },
    {
     "field_name" : "eflags",
     "field_offset" : 1152,
     "referenced_type" : "_ZTIm"
    },
    {
     "field_name" : "rsp",
     "field_offset" : 1216,
     "referenced_type" : "_ZTIm"
    },
    {
     "field_name" : "ss",
     "field_offset" : 1280,
     "referenced_type" : "_ZTIm"
    },
    {
     "field_name" : "fs_base",
     "field_offset" : 1344,
     "referenced_type" : "_ZTIm"
    },
    {
     "field_name" : "gs_base",
     "field_offset" : 1408,
     "referenced_type" : "_ZTIm"
    },
    {
     "field_name" : "ds",
     "field_offset" : 1472,
     "referenced_type" : "_ZTIm"
    },
    {
     "field_name" : "es",
     "field_offset" : 1536,
     "referenced_type" : "_ZTIm"
    },
    {
     "field_name" : "fs",
     "field_offset" : 1600,
     "referenced_type" : "_ZTIm"
    },
    {
     "field_name" : "gs",
     "field_offset" : 1664,
     "referenced_type" : "_ZTIm"
    }
   ],
   "linker_set_key" : "_ZTIN11unwindstack16x86_64_user_regsE",
   "name" : "unwindstack::x86_64_user_regs",
   "referenced_type" : "_ZTIN11unwindstack16x86_64_user_regsE",
   "self_type" : "_ZTIN11unwindstack16x86_64_user_regsE",
   "size" : 216,
   "source_file" : "/system/core/libunwindstack/include/unwindstack/UserX86_64.h"
  },
  {
   "alignment" : 8,
   "fields" :
   [
    {
     "field_name" : "sc_regs",
     "referenced_type" : "_ZTIA32_m"
    },
    {
     "field_name" : "sc_fpregs",
     "field_offset" : 2048,
     "referenced_type" : "_ZTIA32_m"
    },
    {
     "field_name" : "sc_mdhi",
     "field_offset" : 4096,
     "referenced_type" : "_ZTIm"
    },
    {
     "field_name" : "sc_hi1",
     "field_offset" : 4160,
     "referenced_type" : "_ZTIm"
    },
    {
     "field_name" : "sc_hi2",
     "field_offset" : 4224,
     "referenced_type" : "_ZTIm"
    },
    {
     "field_name" : "sc_hi3",
     "field_offset" : 4288,
     "referenced_type" : "_ZTIm"
    },
    {
     "field_name" : "sc_mdlo",
     "field_offset" : 4352,
     "referenced_type" : "_ZTIm"
    },
    {
     "field_name" : "sc_lo1",
     "field_offset" : 4416,
     "referenced_type" : "_ZTIm"
    },
    {
     "field_name" : "sc_lo2",
     "field_offset" : 4480,
     "referenced_type" : "_ZTIm"
    },
    {
     "field_name" : "sc_lo3",
     "field_offset" : 4544,
     "referenced_type" : "_ZTIm"
    },
    {
     "field_name" : "sc_pc",
     "field_offset" : 4608,
     "referenced_type" : "_ZTIm"
    }
   ],
   "linker_set_key" : "_ZTIN11unwindstack17mips64_mcontext_tE",
   "name" : "unwindstack::mips64_mcontext_t",
   "referenced_type" : "_ZTIN11unwindstack17mips64_mcontext_tE",
   "self_type" : "_ZTIN11unwindstack17mips64_mcontext_tE",
   "size" : 584,
   "source_file" : "/system/core/libunwindstack/include/unwindstack/UcontextMips64.h"
  },
  {
   "alignment" : 8,
   "fields" :
   [
    {
     "field_name" : "uc_flags",
     "referenced_type" : "_ZTIm"
    },
    {
     "field_name" : "uc_link",
     "field_offset" : 64,
     "referenced_type" : "_ZTIm"
    },
    {
     "field_name" : "uc_stack",
     "field_offset" : 128,
     "referenced_type" : "_ZTIN11unwindstack14mips64_stack_tE"
    },
    {
     "field_name" : "uc_mcontext",
     "field_offset" : 320,
     "referenced_type" : "_ZTIN11unwindstack17mips64_mcontext_tE"
    }
   ],
   "linker_set_key" : "_ZTIN11unwindstack17mips64_ucontext_tE",
   "name" : "unwindstack::mips64_ucontext_t",
   "referenced_type" : "_ZTIN11unwindstack17mips64_ucontext_tE",
   "self_type" : "_ZTIN11unwindstack17mips64_ucontext_tE",
   "size" : 624,
   "source_file" : "/system/core/libunwindstack/include/unwindstack/UcontextMips64.h"
  },
  {
   "alignment" : 8,
   "fields" :
   [
    {
     "field_name" : "r8",
     "referenced_type" : "_ZTIm"
    },
    {
     "field_name" : "r9",
     "field_offset" : 64,
     "referenced_type" : "_ZTIm"
    },
    {
     "field_name" : "r10",
     "field_offset" : 128,
     "referenced_type" : "_ZTIm"
    },
    {
     "field_name" : "r11",
     "field_offset" : 192,
     "referenced_type" : "_ZTIm"
    },
    {
     "field_name" : "r12",
     "field_offset" : 256,
     "referenced_type" : "_ZTIm"
    },
    {
     "field_name" : "r13",
     "field_offset" : 320,
     "referenced_type" : "_ZTIm"
    },
    {
     "field_name" : "r14",
     "field_offset" : 384,
     "referenced_type" : "_ZTIm"
    },
    {
     "field_name" : "r15",
     "field_offset" : 448,
     "referenced_type" : "_ZTIm"
    },
    {
     "field_name" : "rdi",
     "field_offset" : 512,
     "referenced_type" : "_ZTIm"
    },
    {
     "field_name" : "rsi",
     "field_offset" : 576,
     "referenced_type" : "_ZTIm"
    },
    {
     "field_name" : "rbp",
     "field_offset" : 640,
     "referenced_type" : "_ZTIm"
    },
    {
     "field_name" : "rbx",
     "field_offset" : 704,
     "referenced_type" : "_ZTIm"
    },
    {
     "field_name" : "rdx",
     "field_offset" : 768,
     "referenced_type" : "_ZTIm"
    },
    {
     "field_name" : "rax",
     "field_offset" : 832,
     "referenced_type" : "_ZTIm"
    },
    {
     "field_name" : "rcx",
     "field_offset" : 896,
     "referenced_type" : "_ZTIm"
    },
    {
     "field_name" : "rsp",
     "field_offset" : 960,
     "referenced_type" : "_ZTIm"
    },
    {
     "field_name" : "rip",
     "field_offset" : 1024,
     "referenced_type" : "_ZTIm"
    },
    {
     "field_name" : "efl",
     "field_offset" : 1088,
     "referenced_type" : "_ZTIm"
    },
    {
     "field_name" : "csgsfs",
     "field_offset" : 1152,
     "referenced_type" : "_ZTIm"
    },
    {
     "field_name" : "err",
     "field_offset" : 1216,
     "referenced_type" : "_ZTIm"
    },
    {
     "field_name" : "trapno",
     "field_offset" : 1280,
     "referenced_type" : "_ZTIm"
    },
    {
     "field_name" : "oldmask",
     "field_offset" : 1344,
     "referenced_type" : "_ZTIm"
    },
    {
     "field_name" : "cr2",
     "field_offset" : 1408,
     "referenced_type" : "_ZTIm"
    }
   ],
   "linker_set_key" : "_ZTIN11unwindstack17x86_64_mcontext_tE",
   "name" : "unwindstack::x86_64_mcontext_t",
   "referenced_type" : "_ZTIN11unwindstack17x86_64_mcontext_tE",
   "self_type" : "_ZTIN11unwindstack17x86_64_mcontext_tE",
   "size" : 184,
   "source_file" : "/system/core/libunwindstack/include/unwindstack/UcontextX86_64.h"
  },
  {
   "alignment" : 8,
   "fields" :
   [
    {
     "field_name" : "uc_flags",
     "referenced_type" : "_ZTIm"
    },
    {
     "field_name" : "uc_link",
     "field_offset" : 64,
     "referenced_type" : "_ZTIm"
    },
    {
     "field_name" : "uc_stack",
     "field_offset" : 128,
     "referenced_type" : "_ZTIN11unwindstack14x86_64_stack_tE"
    },
    {
     "field_name" : "uc_mcontext",
     "field_offset" : 320,
     "referenced_type" : "_ZTIN11unwindstack17x86_64_mcontext_tE"
    }
   ],
   "linker_set_key" : "_ZTIN11unwindstack17x86_64_ucontext_tE",
   "name" : "unwindstack::x86_64_ucontext_t",
   "referenced_type" : "_ZTIN11unwindstack17x86_64_ucontext_tE",
   "self_type" : "_ZTIN11unwindstack17x86_64_ucontext_tE",
   "size" : 224,
   "source_file" : "/system/core/libunwindstack/include/unwindstack/UcontextX86_64.h"
  },
  {
   "alignment" : 8,
   "base_specifiers" :
   [
    {
     "referenced_type" : "_ZTIN11unwindstack4MapsE"
    }
   ],
   "fields" :
   [
    {
     "access" : "protected",
     "field_name" : "saved_maps_",
     "field_offset" : 256,
     "referenced_type" : "_ZTINSt3__16vectorINS_10unique_ptrIN11unwindstack7MapInfoENS_14default_deleteIS3_EEEENS_9allocatorIS6_EEEE"
    }
   ],
   "linker_set_key" : "_ZTIN11unwindstack18LocalUpdatableMapsE",
   "name" : "unwindstack::LocalUpdatableMaps",
   "record_kind" : "class",
   "referenced_type" : "_ZTIN11unwindstack18LocalUpdatableMapsE",
   "self_type" : "_ZTIN11unwindstack18LocalUpdatableMapsE",
   "size" : 56,
   "source_file" : "/system/core/libunwindstack/include/unwindstack/Maps.h",
   "vtable_components" :
   [
    {
     "kind" : "offset_to_top"
    },
    {
     "kind" : "rtti",
     "mangled_component_name" : "_ZTIN11unwindstack18LocalUpdatableMapsE"
    },
    {
     "kind" : "complete_dtor_pointer",
     "mangled_component_name" : "_ZN11unwindstack18LocalUpdatableMapsD1Ev"
    },
    {
     "kind" : "deleting_dtor_pointer",
     "mangled_component_name" : "_ZN11unwindstack18LocalUpdatableMapsD0Ev"
    },
    {
     "mangled_component_name" : "_ZN11unwindstack4Maps5ParseEv"
    },
    {
     "mangled_component_name" : "_ZNK11unwindstack18LocalUpdatableMaps11GetMapsFileEv"
    }
   ]
  },
  {
   "alignment" : 8,
   "fields" :
   [
    {
     "access" : "protected",
     "field_name" : "valid_",
     "field_offset" : 64,
     "referenced_type" : "_ZTIb"
    },
    {
     "access" : "protected",
     "field_name" : "load_bias_",
     "field_offset" : 128,
     "referenced_type" : "_ZTIl"
    },
    {
     "access" : "protected",
     "field_name" : "interface_",
     "field_offset" : 192,
     "referenced_type" : "_ZTINSt3__110unique_ptrIN11unwindstack12ElfInterfaceENS_14default_deleteIS2_EEEE"
    },
    {
     "access" : "protected",
     "field_name" : "memory_",
     "field_offset" : 256,
     "referenced_type" : "_ZTINSt3__110unique_ptrIN11unwindstack6MemoryENS_14default_deleteIS2_EEEE"
    },
    {
     "access" : "protected",
     "field_name" : "machine_type_",
     "field_offset" : 320,
     "referenced_type" : "_ZTIj"
    },
    {
     "access" : "protected",
     "field_name" : "class_type_",
     "field_offset" : 352,
     "referenced_type" : "_ZTIh"
    },
    {
     "access" : "protected",
     "field_name" : "arch_",
     "field_offset" : 360,
     "referenced_type" : "_ZTIN11unwindstack8ArchEnumE"
    },
    {
     "access" : "protected",
     "field_name" : "lock_",
     "field_offset" : 384,
     "referenced_type" : "_ZTINSt3__15mutexE"
    },
    {
     "access" : "protected",
     "field_name" : "gnu_debugdata_memory_",
     "field_offset" : 704,
     "referenced_type" : "_ZTINSt3__110unique_ptrIN11unwindstack6MemoryENS_14default_deleteIS2_EEEE"
    },
    {
     "access" : "protected",
     "field_name" : "gnu_debugdata_interface_",
     "field_offset" : 768,
     "referenced_type" : "_ZTINSt3__110unique_ptrIN11unwindstack12ElfInterfaceENS_14default_deleteIS2_EEEE"
    }
   ],
   "linker_set_key" : "_ZTIN11unwindstack3ElfE",
   "name" : "unwindstack::Elf",
   "record_kind" : "class",
   "referenced_type" : "_ZTIN11unwindstack3ElfE",
   "self_type" : "_ZTIN11unwindstack3ElfE",
   "size" : 104,
   "source_file" : "/system/core/libunwindstack/include/unwindstack/Elf.h",
   "vtable_components" :
   [
    {
     "kind" : "offset_to_top"
    },
    {
     "kind" : "rtti",
     "mangled_component_name" : "_ZTIN11unwindstack3ElfE"
    },
    {
     "kind" : "complete_dtor_pointer",
     "mangled_component_name" : "_ZN11unwindstack3ElfD1Ev"
    },
    {
     "kind" : "deleting_dtor_pointer",
     "mangled_component_name" : "_ZN11unwindstack3ElfD0Ev"
    }
   ]
  },
  {
   "alignment" : 8,
   "fields" :
   [
    {
     "access" : "protected",
     "field_name" : "maps_",
     "field_offset" : 64,
     "referenced_type" : "_ZTINSt3__16vectorINS_10unique_ptrIN11unwindstack7MapInfoENS_14default_deleteIS3_EEEENS_9allocatorIS6_EEEE"
    }
   ],
   "linker_set_key" : "_ZTIN11unwindstack4MapsE",
   "name" : "unwindstack::Maps",
   "record_kind" : "class",
   "referenced_type" : "_ZTIN11unwindstack4MapsE",
   "self_type" : "_ZTIN11unwindstack4MapsE",
   "size" : 32,
   "source_file" : "/system/core/libunwindstack/include/unwindstack/Maps.h",
   "vtable_components" :
   [
    {
     "kind" : "offset_to_top"
    },
    {
     "kind" : "rtti",
     "mangled_component_name" : "_ZTIN11unwindstack4MapsE"
    },
    {
     "kind" : "complete_dtor_pointer",
     "mangled_component_name" : "_ZN11unwindstack4MapsD1Ev"
    },
    {
     "kind" : "deleting_dtor_pointer",
     "mangled_component_name" : "_ZN11unwindstack4MapsD0Ev"
    },
    {
     "mangled_component_name" : "_ZN11unwindstack4Maps5ParseEv"
    },
    {
     "mangled_component_name" : "_ZNK11unwindstack4Maps11GetMapsFileEv"
    }
   ]
  },
  {
   "alignment" : 2,
   "fields" :
   [
    {
     "field_name" : "type",
     "referenced_type" : "_ZTIN11unwindstack4Regs12LocationEnumE"
    },
    {
     "field_name" : "value",
     "field_offset" : 16,
     "referenced_type" : "_ZTIs"
    }
   ],
   "linker_set_key" : "_ZTIN11unwindstack4Regs8LocationE",
   "name" : "unwindstack::Regs::Location",
   "referenced_type" : "_ZTIN11unwindstack4Regs8LocationE",
   "self_type" : "_ZTIN11unwindstack4Regs8LocationE",
   "size" : 4,
   "source_file" : "/system/core/libunwindstack/include/unwindstack/Regs.h"
  },
  {
   "alignment" : 8,
   "fields" :
   [
    {
     "access" : "protected",
     "field_name" : "total_regs_",
     "field_offset" : 64,
     "referenced_type" : "_ZTIt"
    },
    {
     "access" : "protected",
     "field_name" : "return_loc_",
     "field_offset" : 80,
     "referenced_type" : "_ZTIN11unwindstack4Regs8LocationE"
    },
    {
     "access" : "protected",
     "field_name" : "dex_pc_",
     "field_offset" : 128,
     "referenced_type" : "_ZTIm"
    }
   ],
   "linker_set_key" : "_ZTIN11unwindstack4RegsE",
   "name" : "unwindstack::Regs",
   "record_kind" : "class",
   "referenced_type" : "_ZTIN11unwindstack4RegsE",
   "self_type" : "_ZTIN11unwindstack4RegsE",
   "size" : 24,
   "source_file" : "/system/core/libunwindstack/include/unwindstack/Regs.h",
   "vtable_components" :
   [
    {
     "kind" : "offset_to_top"
    },
    {
     "kind" : "rtti",
     "mangled_component_name" : "_ZTIN11unwindstack4RegsE"
    },
    {
     "kind" : "complete_dtor_pointer",
     "mangled_component_name" : "_ZN11unwindstack4RegsD1Ev"
    },
    {
     "kind" : "deleting_dtor_pointer",
     "mangled_component_name" : "_ZN11unwindstack4RegsD0Ev"
    },
    {
     "is_pure" : true,
     "mangled_component_name" : "_ZN11unwindstack4Regs4ArchEv"
    },
    {
     "is_pure" : true,
     "mangled_component_name" : "_ZN11unwindstack4Regs7Is32BitEv"
    },
    {
     "is_pure" : true,
     "mangled_component_name" : "_ZN11unwindstack4Regs7RawDataEv"
    },
    {
     "is_pure" : true,
     "mangled_component_name" : "_ZN11unwindstack4Regs2pcEv"
    },
    {
     "is_pure" : true,
     "mangled_component_name" : "_ZN11unwindstack4Regs2spEv"
    },
    {
     "is_pure" : true,
     "mangled_component_name" : "_ZN11unwindstack4Regs6set_pcEm"
    },
    {
     "is_pure" : true,
     "mangled_component_name" : "_ZN11unwindstack4Regs6set_spEm"
    },
    {
     "is_pure" : true,
     "mangled_component_name" : "_ZN11unwindstack4Regs15GetPcAdjustmentEmPNS_3ElfE"
    },
    {
     "is_pure" : true,
     "mangled_component_name" : "_ZN11unwindstack4Regs19StepIfSignalHandlerEmPNS_3ElfEPNS_6MemoryE"
    },
    {
     "is_pure" : true,
     "mangled_component_name" : "_ZN11unwindstack4Regs22SetPcFromReturnAddressEPNS_6MemoryE"
    },
    {
     "is_pure" : true,
     "mangled_component_name" : "_ZN11unwindstack4Regs16IterateRegistersENSt3__18functionIFvPKcmEEE"
    },
    {
     "is_pure" : true,
     "mangled_component_name" : "_ZN11unwindstack4Regs5CloneEv"
    }
   ]
  },
  {
   "alignment" : 8,
   "fields" :
   [
    {
     "access" : "protected",
     "field_name" : "arch_",
     "field_offset" : 64,
     "referenced_type" : "_ZTIN11unwindstack8ArchEnumE"
    },
    {
     "access" : "protected",
     "field_name" : "memory_",
     "field_offset" : 128,
     "referenced_type" : "_ZTINSt3__110shared_ptrIN11unwindstack6MemoryEEE"
    },
    {
     "access" : "protected",
     "field_name" : "search_libs_",
     "field_offset" : 256,
     "referenced_type" : "_ZTINSt3__16vectorINS_12basic_stringIcNS_11char_traitsIcEENS_9allocatorIcEEEENS4_IS6_EEEE"
    }
   ],
   "linker_set_key" : "_ZTIN11unwindstack6GlobalE",
   "name" : "unwindstack::Global",
   "record_kind" : "class",
   "referenced_type" : "_ZTIN11unwindstack6GlobalE",
   "self_type" : "_ZTIN11unwindstack6GlobalE",
   "size" : 56,
   "source_file" : "/system/core/libunwindstack/include/unwindstack/Global.h",
   "vtable_components" :
   [
    {
     "kind" : "offset_to_top"
    },
    {
     "kind" : "rtti",
     "mangled_component_name" : "_ZTIN11unwindstack6GlobalE"
    },
    {
     "kind" : "complete_dtor_pointer",
     "mangled_component_name" : "_ZN11unwindstack6GlobalD1Ev"
    },
    {
     "kind" : "deleting_dtor_pointer",
     "mangled_component_name" : "_ZN11unwindstack6GlobalD0Ev"
    },
    {
     "is_pure" : true,
     "mangled_component_name" : "_ZN11unwindstack6Global16ReadVariableDataEm"
    },
    {
     "is_pure" : true,
     "mangled_component_name" : "_ZN11unwindstack6Global11ProcessArchEv"
    }
   ]
  },
  {
   "alignment" : 8,
   "linker_set_key" : "_ZTIN11unwindstack6MemoryE",
   "name" : "unwindstack::Memory",
   "record_kind" : "class",
   "referenced_type" : "_ZTIN11unwindstack6MemoryE",
   "self_type" : "_ZTIN11unwindstack6MemoryE",
   "size" : 8,
   "source_file" : "/system/core/libunwindstack/include/unwindstack/Memory.h",
   "vtable_components" :
   [
    {
     "kind" : "offset_to_top"
    },
    {
     "kind" : "rtti",
     "mangled_component_name" : "_ZTIN11unwindstack6MemoryE"
    },
    {
     "kind" : "complete_dtor_pointer",
     "mangled_component_name" : "_ZN11unwindstack6MemoryD1Ev"
    },
    {
     "kind" : "deleting_dtor_pointer",
     "mangled_component_name" : "_ZN11unwindstack6MemoryD0Ev"
    },
    {
     "mangled_component_name" : "_ZN11unwindstack6Memory10ReadStringEmPNSt3__112basic_stringIcNS1_11char_traitsIcEENS1_9allocatorIcEEEEm"
    },
    {
     "mangled_component_name" : "_ZN11unwindstack6Memory5ClearEv"
    },
    {
     "is_pure" : true,
     "mangled_component_name" : "_ZN11unwindstack6Memory4ReadEmPvm"
    }
   ]
  },
  {
   "alignment" : 8,
   "fields" :
   [
    {
     "field_name" : "start",
     "referenced_type" : "_ZTIm"
    },
    {
     "field_name" : "end",
     "field_offset" : 64,
     "referenced_type" : "_ZTIm"
    },
    {
     "field_name" : "offset",
     "field_offset" : 128,
     "referenced_type" : "_ZTIm"
    },
    {
     "field_name" : "flags",
     "field_offset" : 192,
     "referenced_type" : "_ZTIt"
    },
    {
     "field_name" : "name",
     "field_offset" : 256,
     "referenced_type" : "_ZTINSt3__112basic_stringIcNS_11char_traitsIcEENS_9allocatorIcEEEE"
    },
    {
     "field_name" : "elf",
     "field_offset" : 448,
     "referenced_type" : "_ZTINSt3__110shared_ptrIN11unwindstack3ElfEEE"
    },
    {
     "field_name" : "elf_offset",
     "field_offset" : 576,
     "referenced_type" : "_ZTIm"
    },
    {
     "field_name" : "elf_start_offset",
     "field_offset" : 640,
     "referenced_type" : "_ZTIm"
    },
    {
     "field_name" : "prev_map",
     "field_offset" : 704,
     "referenced_type" : "_ZTIPN11unwindstack7MapInfoE"
    },
    {
     "field_name" : "prev_real_map",
     "field_offset" : 768,
     "referenced_type" : "_ZTIPN11unwindstack7MapInfoE"
    },
    {
     "field_name" : "load_bias",
     "field_offset" : 832,
     "referenced_type" : "_ZTINSt3__16atomicIlEE"
    },
    {
     "field_name" : "build_id",
     "field_offset" : 896,
     "referenced_type" : "_ZTINSt3__16atomicImEE"
    },
    {
     "field_name" : "memory_backed_elf",
     "field_offset" : 960,
     "referenced_type" : "_ZTIb"
    },
    {
     "access" : "private",
     "field_name" : "mutex_",
     "field_offset" : 992,
     "referenced_type" : "_ZTINSt3__15mutexE"
    }
   ],
   "linker_set_key" : "_ZTIN11unwindstack7MapInfoE",
   "name" : "unwindstack::MapInfo",
   "referenced_type" : "_ZTIN11unwindstack7MapInfoE",
   "self_type" : "_ZTIN11unwindstack7MapInfoE",
   "size" : 168,
   "source_file" : "/system/core/libunwindstack/include/unwindstack/MapInfo.h"
  },
  {
   "alignment" : 8,
   "base_specifiers" :
   [
    {
     "referenced_type" : "_ZTIN11unwindstack8RegsImplIjEE"
    }
   ],
   "linker_set_key" : "_ZTIN11unwindstack7RegsArmE",
   "name" : "unwindstack::RegsArm",
   "record_kind" : "class",
   "referenced_type" : "_ZTIN11unwindstack7RegsArmE",
   "self_type" : "_ZTIN11unwindstack7RegsArmE",
   "size" : 48,
   "source_file" : "/system/core/libunwindstack/include/unwindstack/RegsArm.h",
   "vtable_components" :
   [
    {
     "kind" : "offset_to_top"
    },
    {
     "kind" : "rtti",
     "mangled_component_name" : "_ZTIN11unwindstack7RegsArmE"
    },
    {
     "kind" : "complete_dtor_pointer",
     "mangled_component_name" : "_ZN11unwindstack7RegsArmD1Ev"
    },
    {
     "kind" : "deleting_dtor_pointer",
     "mangled_component_name" : "_ZN11unwindstack7RegsArmD0Ev"
    },
    {
     "mangled_component_name" : "_ZN11unwindstack7RegsArm4ArchEv"
    },
    {
     "mangled_component_name" : "_ZN11unwindstack8RegsImplIjE7Is32BitEv"
    },
    {
     "mangled_component_name" : "_ZN11unwindstack8RegsImplIjE7RawDataEv"
    },
    {
     "mangled_component_name" : "_ZN11unwindstack7RegsArm2pcEv"
    },
    {
     "mangled_component_name" : "_ZN11unwindstack7RegsArm2spEv"
    },
    {
     "mangled_component_name" : "_ZN11unwindstack7RegsArm6set_pcEm"
    },
    {
     "mangled_component_name" : "_ZN11unwindstack7RegsArm6set_spEm"
    },
    {
     "mangled_component_name" : "_ZN11unwindstack7RegsArm15GetPcAdjustmentEmPNS_3ElfE"
    },
    {
     "mangled_component_name" : "_ZN11unwindstack7RegsArm19StepIfSignalHandlerEmPNS_3ElfEPNS_6MemoryE"
    },
    {
     "mangled_component_name" : "_ZN11unwindstack7RegsArm22SetPcFromReturnAddressEPNS_6MemoryE"
    },
    {
     "mangled_component_name" : "_ZN11unwindstack7RegsArm16IterateRegistersENSt3__18functionIFvPKcmEEE"
    },
    {
     "mangled_component_name" : "_ZN11unwindstack7RegsArm5CloneEv"
    }
   ]
  },
  {
   "alignment" : 8,
   "base_specifiers" :
   [
    {
     "referenced_type" : "_ZTIN11unwindstack8RegsImplIjEE"
    }
   ],
   "linker_set_key" : "_ZTIN11unwindstack7RegsX86E",
   "name" : "unwindstack::RegsX86",
   "record_kind" : "class",
   "referenced_type" : "_ZTIN11unwindstack7RegsX86E",
   "self_type" : "_ZTIN11unwindstack7RegsX86E",
   "size" : 48,
   "source_file" : "/system/core/libunwindstack/include/unwindstack/RegsX86.h",
   "vtable_components" :
   [
    {
     "kind" : "offset_to_top"
    },
    {
     "kind" : "rtti",
     "mangled_component_name" : "_ZTIN11unwindstack7RegsX86E"
    },
    {
     "kind" : "complete_dtor_pointer",
     "mangled_component_name" : "_ZN11unwindstack7RegsX86D1Ev"
    },
    {
     "kind" : "deleting_dtor_pointer",
     "mangled_component_name" : "_ZN11unwindstack7RegsX86D0Ev"
    },
    {
     "mangled_component_name" : "_ZN11unwindstack7RegsX864ArchEv"
    },
    {
     "mangled_component_name" : "_ZN11unwindstack8RegsImplIjE7Is32BitEv"
    },
    {
     "mangled_component_name" : "_ZN11unwindstack8RegsImplIjE7RawDataEv"
    },
    {
     "mangled_component_name" : "_ZN11unwindstack7RegsX862pcEv"
    },
    {
     "mangled_component_name" : "_ZN11unwindstack7RegsX862spEv"
    },
    {
     "mangled_component_name" : "_ZN11unwindstack7RegsX866set_pcEm"
    },
    {
     "mangled_component_name" : "_ZN11unwindstack7RegsX866set_spEm"
    },
    {
     "mangled_component_name" : "_ZN11unwindstack7RegsX8615GetPcAdjustmentEmPNS_3ElfE"
    },
    {
     "mangled_component_name" : "_ZN11unwindstack7RegsX8619StepIfSignalHandlerEmPNS_3ElfEPNS_6MemoryE"
    },
    {
     "mangled_component_name" : "_ZN11unwindstack7RegsX8622SetPcFromReturnAddressEPNS_6MemoryE"
    },
    {
     "mangled_component_name" : "_ZN11unwindstack7RegsX8616IterateRegistersENSt3__18functionIFvPKcmEEE"
    },
    {
     "mangled_component_name" : "_ZN11unwindstack7RegsX865CloneEv"
    }
   ]
  },
  {
   "alignment" : 8,
   "base_specifiers" :
   [
    {
     "referenced_type" : "_ZTIN11unwindstack6GlobalE"
    }
   ],
   "fields" :
   [
    {
     "access" : "private",
     "field_name" : "lock_",
     "field_offset" : 448,
     "referenced_type" : "_ZTINSt3__15mutexE"
    },
    {
     "access" : "private",
     "field_name" : "initialized_",
     "field_offset" : 768,
     "referenced_type" : "_ZTIb"
    },
    {
     "access" : "private",
     "field_name" : "files_",
     "field_offset" : 832,
     "referenced_type" : "_ZTINSt3__113unordered_mapImNS_10unique_ptrIN11unwindstack7DexFileENS_14default_deleteIS3_EEEENS_4hashImEENS_8equal_toImEENS_9allocatorINS_4pairIKmS6_EEEEEE"
    },
    {
     "access" : "private",
     "field_name" : "entry_addr_",
     "field_offset" : 1152,
     "referenced_type" : "_ZTIm"
    },
    {
     "access" : "private",
     "field_name" : "read_entry_ptr_func_",
     "field_offset" : 1216,
     "referenced_type" : "_ZTIMN11unwindstack8DexFilesEFmmE"
    },
    {
     "access" : "private",
     "field_name" : "read_entry_func_",
     "field_offset" : 1344,
     "referenced_type" : "_ZTIMN11unwindstack8DexFilesEFbvE"
    },
    {
     "access" : "private",
     "field_name" : "addrs_",
     "field_offset" : 1472,
     "referenced_type" : "_ZTINSt3__16vectorImNS_9allocatorImEEEE"
    }
   ],
   "linker_set_key" : "_ZTIN11unwindstack8DexFilesE",
   "name" : "unwindstack::DexFiles",
   "record_kind" : "class",
   "referenced_type" : "_ZTIN11unwindstack8DexFilesE",
   "self_type" : "_ZTIN11unwindstack8DexFilesE",
   "size" : 208,
   "source_file" : "/system/core/libunwindstack/include/unwindstack/DexFiles.h",
   "vtable_components" :
   [
    {
     "kind" : "offset_to_top"
    },
    {
     "kind" : "rtti",
     "mangled_component_name" : "_ZTIN11unwindstack8DexFilesE"
    },
    {
     "kind" : "complete_dtor_pointer",
     "mangled_component_name" : "_ZN11unwindstack8DexFilesD1Ev"
    },
    {
     "kind" : "deleting_dtor_pointer",
     "mangled_component_name" : "_ZN11unwindstack8DexFilesD0Ev"
    },
    {
     "mangled_component_name" : "_ZN11unwindstack8DexFiles16ReadVariableDataEm"
    },
    {
     "mangled_component_name" : "_ZN11unwindstack8DexFiles11ProcessArchEv"
    }
   ]
  },
  {
   "alignment" : 8,
   "fields" :
   [
    {
     "field_name" : "version",
     "referenced_type" : "_ZTIh"
    },
    {
     "field_name" : "fde_address_encoding",
     "field_offset" : 8,
     "referenced_type" : "_ZTIh"
    },
    {
     "field_name" : "lsda_encoding",
     "field_offset" : 16,
     "referenced_type" : "_ZTIh"
    },
    {
     "field_name" : "segment_size",
     "field_offset" : 24,
     "referenced_type" : "_ZTIh"
    },
    {
     "field_name" : "augmentation_string",
     "field_offset" : 64,
     "referenced_type" : "_ZTINSt3__16vectorIcNS_9allocatorIcEEEE"
    },
    {
     "field_name" : "personality_handler",
     "field_offset" : 256,
     "referenced_type" : "_ZTIm"
    },
    {
     "field_name" : "cfa_instructions_offset",
     "field_offset" : 320,
     "referenced_type" : "_ZTIm"
    },
    {
     "field_name" : "cfa_instructions_end",
     "field_offset" : 384,
     "referenced_type" : "_ZTIm"
    },
    {
     "field_name" : "code_alignment_factor",
     "field_offset" : 448,
     "referenced_type" : "_ZTIm"
    },
    {
     "field_name" : "data_alignment_factor",
     "field_offset" : 512,
     "referenced_type" : "_ZTIl"
    },
    {
     "field_name" : "return_address_register",
     "field_offset" : 576,
     "referenced_type" : "_ZTIm"
    }
   ],
   "linker_set_key" : "_ZTIN11unwindstack8DwarfCieE",
   "name" : "unwindstack::DwarfCie",
   "referenced_type" : "_ZTIN11unwindstack8DwarfCieE",
   "self_type" : "_ZTIN11unwindstack8DwarfCieE",
   "size" : 80,
   "source_file" : "/system/core/libunwindstack/include/unwindstack/DwarfStructs.h"
  },
  {
   "alignment" : 8,
   "fields" :
   [
    {
     "field_name" : "cie_offset",
     "referenced_type" : "_ZTIm"
    },
    {
     "field_name" : "cfa_instructions_offset",
     "field_offset" : 64,
     "referenced_type" : "_ZTIm"
    },
    {
     "field_name" : "cfa_instructions_end",
     "field_offset" : 128,
     "referenced_type" : "_ZTIm"
    },
    {
     "field_name" : "pc_start",
     "field_offset" : 192,
     "referenced_type" : "_ZTIm"
    },
    {
     "field_name" : "pc_end",
     "field_offset" : 256,
     "referenced_type" : "_ZTIm"
    },
    {
     "field_name" : "lsda_address",
     "field_offset" : 320,
     "referenced_type" : "_ZTIm"
    },
    {
     "field_name" : "cie",
     "field_offset" : 384,
     "referenced_type" : "_ZTIPKN11unwindstack8DwarfCieE"
    }
   ],
   "linker_set_key" : "_ZTIN11unwindstack8DwarfFdeE",
   "name" : "unwindstack::DwarfFde",
   "referenced_type" : "_ZTIN11unwindstack8DwarfFdeE",
   "self_type" : "_ZTIN11unwindstack8DwarfFdeE",
   "size" : 56,
   "source_file" : "/system/core/libunwindstack/include/unwindstack/DwarfStructs.h"
  },
  {
   "alignment" : 8,
   "base_specifiers" :
   [
    {
     "referenced_type" : "_ZTIN11unwindstack4MapsE"
    }
   ],
   "fields" :
   [
    {
     "access" : "protected",
     "field_name" : "file_",
     "field_offset" : 256,
     "referenced_type" : "_ZTIKNSt3__112basic_stringIcNS_11char_traitsIcEENS_9allocatorIcEEEE"
    }
   ],
   "linker_set_key" : "_ZTIN11unwindstack8FileMapsE",
   "name" : "unwindstack::FileMaps",
   "record_kind" : "class",
   "referenced_type" : "_ZTIN11unwindstack8FileMapsE",
   "self_type" : "_ZTIN11unwindstack8FileMapsE",
   "size" : 56,
   "source_file" : "/system/core/libunwindstack/include/unwindstack/Maps.h",
   "vtable_components" :
   [
    {
     "kind" : "offset_to_top"
    },
    {
     "kind" : "rtti",
     "mangled_component_name" : "_ZTIN11unwindstack8FileMapsE"
    },
    {
     "kind" : "complete_dtor_pointer",
     "mangled_component_name" : "_ZN11unwindstack8FileMapsD1Ev"
    },
    {
     "kind" : "deleting_dtor_pointer",
     "mangled_component_name" : "_ZN11unwindstack8FileMapsD0Ev"
    },
    {
     "mangled_component_name" : "_ZN11unwindstack4Maps5ParseEv"
    },
    {
     "mangled_component_name" : "_ZNK11unwindstack8FileMaps11GetMapsFileEv"
    }
   ]
  },
  {
   "alignment" : 8,
   "base_specifiers" :
   [
    {
     "referenced_type" : "_ZTIN11unwindstack6GlobalE"
    }
   ],
   "fields" :
   [
    {
     "access" : "private",
     "field_name" : "read_descriptor_func_",
     "field_offset" : 448,
     "referenced_type" : "_ZTIMN11unwindstack8JitDebugEFmmE"
    },
    {
     "access" : "private",
     "field_name" : "read_entry_func_",
     "field_offset" : 576,
     "referenced_type" : "_ZTIMN11unwindstack8JitDebugEFmPmS1_E"
    },
    {
     "access" : "private",
     "field_name" : "entry_addr_",
     "field_offset" : 704,
     "referenced_type" : "_ZTIm"
    },
    {
     "access" : "private",
     "field_name" : "initialized_",
     "field_offset" : 768,
     "referenced_type" : "_ZTIb"
    },
    {
     "access" : "private",
     "field_name" : "elf_list_",
     "field_offset" : 832,
     "referenced_type" : "_ZTINSt3__16vectorIPN11unwindstack3ElfENS_9allocatorIS3_EEEE"
    },
    {
     "access" : "private",
     "field_name" : "lock_",
     "field_offset" : 1024,
     "referenced_type" : "_ZTINSt3__15mutexE"
    }
   ],
   "linker_set_key" : "_ZTIN11unwindstack8JitDebugE",
   "name" : "unwindstack::JitDebug",
   "record_kind" : "class",
   "referenced_type" : "_ZTIN11unwindstack8JitDebugE",
   "self_type" : "_ZTIN11unwindstack8JitDebugE",
   "size" : 168,
   "source_file" : "/system/core/libunwindstack/include/unwindstack/JitDebug.h",
   "vtable_components" :
   [
    {
     "kind" : "offset_to_top"
    },
    {
     "kind" : "rtti",
     "mangled_component_name" : "_ZTIN11unwindstack8JitDebugE"
    },
    {
     "kind" : "complete_dtor_pointer",
     "mangled_component_name" : "_ZN11unwindstack8JitDebugD1Ev"
    },
    {
     "kind" : "deleting_dtor_pointer",
     "mangled_component_name" : "_ZN11unwindstack8JitDebugD0Ev"
    },
    {
     "mangled_component_name" : "_ZN11unwindstack8JitDebug16ReadVariableDataEm"
    },
    {
     "mangled_component_name" : "_ZN11unwindstack8JitDebug11ProcessArchEv"
    }
   ]
  },
  {
   "alignment" : 8,
   "fields" :
   [
    {
     "field_name" : "offset",
     "referenced_type" : "_ZTIm"
    },
    {
     "field_name" : "table_offset",
     "field_offset" : 64,
     "referenced_type" : "_ZTIm"
    },
    {
     "field_name" : "table_size",
     "field_offset" : 128,
     "referenced_type" : "_ZTIm"
    }
   ],
   "linker_set_key" : "_ZTIN11unwindstack8LoadInfoE",
   "name" : "unwindstack::LoadInfo",
   "referenced_type" : "_ZTIN11unwindstack8LoadInfoE",
   "self_type" : "_ZTIN11unwindstack8LoadInfoE",
   "size" : 24,
   "source_file" : "/system/core/libunwindstack/include/unwindstack/ElfInterface.h"
  },
  {
   "alignment" : 8,
   "base_specifiers" :
   [
    {
     "referenced_type" : "_ZTIN11unwindstack4RegsE"
    }
   ],
   "fields" :
   [
    {
     "access" : "protected",
     "field_name" : "regs_",
     "field_offset" : 192,
     "referenced_type" : "_ZTINSt3__16vectorIjNS_9allocatorIjEEEE"
    }
   ],
   "linker_set_key" : "_ZTIN11unwindstack8RegsImplIjEE",
   "name" : "unwindstack::RegsImpl<unsigned int>",
   "record_kind" : "class",
   "referenced_type" : "_ZTIN11unwindstack8RegsImplIjEE",
   "self_type" : "_ZTIN11unwindstack8RegsImplIjEE",
   "size" : 48,
   "source_file" : "/system/core/libunwindstack/include/unwindstack/Regs.h",
   "template_args" : [ "_ZTIj" ],
   "vtable_components" :
   [
    {
     "kind" : "offset_to_top"
    },
    {
     "kind" : "rtti",
     "mangled_component_name" : "_ZTIN11unwindstack8RegsImplIjEE"
    },
    {
     "kind" : "complete_dtor_pointer",
     "mangled_component_name" : "_ZN11unwindstack8RegsImplIjED1Ev"
    },
    {
     "kind" : "deleting_dtor_pointer",
     "mangled_component_name" : "_ZN11unwindstack8RegsImplIjED0Ev"
    },
    {
     "is_pure" : true,
     "mangled_component_name" : "_ZN11unwindstack4Regs4ArchEv"
    },
    {
     "mangled_component_name" : "_ZN11unwindstack8RegsImplIjE7Is32BitEv"
    },
    {
     "mangled_component_name" : "_ZN11unwindstack8RegsImplIjE7RawDataEv"
    },
    {
     "is_pure" : true,
     "mangled_component_name" : "_ZN11unwindstack4Regs2pcEv"
    },
    {
     "is_pure" : true,
     "mangled_component_name" : "_ZN11unwindstack4Regs2spEv"
    },
    {
     "is_pure" : true,
     "mangled_component_name" : "_ZN11unwindstack4Regs6set_pcEm"
    },
    {
     "is_pure" : true,
     "mangled_component_name" : "_ZN11unwindstack4Regs6set_spEm"
    },
    {
     "is_pure" : true,
     "mangled_component_name" : "_ZN11unwindstack4Regs15GetPcAdjustmentEmPNS_3ElfE"
    },
    {
     "is_pure" : true,
     "mangled_component_name" : "_ZN11unwindstack4Regs19StepIfSignalHandlerEmPNS_3ElfEPNS_6MemoryE"
    },
    {
     "is_pure" : true,
     "mangled_component_name" : "_ZN11unwindstack4Regs22SetPcFromReturnAddressEPNS_6MemoryE"
    },
    {
     "mangled_component_name" : "_ZN11unwindstack8RegsImplIjE16IterateRegistersENSt3__18functionIFvPKcmEEE"
    },
    {
     "is_pure" : true,
     "mangled_component_name" : "_ZN11unwindstack4Regs5CloneEv"
    }
   ]
  },
  {
   "alignment" : 8,
   "base_specifiers" :
   [
    {
     "referenced_type" : "_ZTIN11unwindstack4RegsE"
    }
   ],
   "fields" :
   [
    {
     "access" : "protected",
     "field_name" : "regs_",
     "field_offset" : 192,
     "referenced_type" : "_ZTINSt3__16vectorImNS_9allocatorImEEEE"
    }
   ],
   "linker_set_key" : "_ZTIN11unwindstack8RegsImplImEE",
   "name" : "unwindstack::RegsImpl<unsigned long>",
   "record_kind" : "class",
   "referenced_type" : "_ZTIN11unwindstack8RegsImplImEE",
   "self_type" : "_ZTIN11unwindstack8RegsImplImEE",
   "size" : 48,
   "source_file" : "/system/core/libunwindstack/include/unwindstack/Regs.h",
   "template_args" : [ "_ZTIm" ],
   "vtable_components" :
   [
    {
     "kind" : "offset_to_top"
    },
    {
     "kind" : "rtti",
     "mangled_component_name" : "_ZTIN11unwindstack8RegsImplImEE"
    },
    {
     "kind" : "complete_dtor_pointer",
     "mangled_component_name" : "_ZN11unwindstack8RegsImplImED1Ev"
    },
    {
     "kind" : "deleting_dtor_pointer",
     "mangled_component_name" : "_ZN11unwindstack8RegsImplImED0Ev"
    },
    {
     "is_pure" : true,
     "mangled_component_name" : "_ZN11unwindstack4Regs4ArchEv"
    },
    {
     "mangled_component_name" : "_ZN11unwindstack8RegsImplImE7Is32BitEv"
    },
    {
     "mangled_component_name" : "_ZN11unwindstack8RegsImplImE7RawDataEv"
    },
    {
     "is_pure" : true,
     "mangled_component_name" : "_ZN11unwindstack4Regs2pcEv"
    },
    {
     "is_pure" : true,
     "mangled_component_name" : "_ZN11unwindstack4Regs2spEv"
    },
    {
     "is_pure" : true,
     "mangled_component_name" : "_ZN11unwindstack4Regs6set_pcEm"
    },
    {
     "is_pure" : true,
     "mangled_component_name" : "_ZN11unwindstack4Regs6set_spEm"
    },
    {
     "is_pure" : true,
     "mangled_component_name" : "_ZN11unwindstack4Regs15GetPcAdjustmentEmPNS_3ElfE"
    },
    {
     "is_pure" : true,
     "mangled_component_name" : "_ZN11unwindstack4Regs19StepIfSignalHandlerEmPNS_3ElfEPNS_6MemoryE"
    },
    {
     "is_pure" : true,
     "mangled_component_name" : "_ZN11unwindstack4Regs22SetPcFromReturnAddressEPNS_6MemoryE"
    },
    {
     "mangled_component_name" : "_ZN11unwindstack8RegsImplImE16IterateRegistersENSt3__18functionIFvPKcmEEE"
    },
    {
     "is_pure" : true,
     "mangled_component_name" : "_ZN11unwindstack4Regs5CloneEv"
    }
   ]
  },
  {
   "alignment" : 8,
   "base_specifiers" :
   [
    {
     "referenced_type" : "_ZTIN11unwindstack8RegsImplIjEE"
    }
   ],
   "linker_set_key" : "_ZTIN11unwindstack8RegsMipsE",
   "name" : "unwindstack::RegsMips",
   "record_kind" : "class",
   "referenced_type" : "_ZTIN11unwindstack8RegsMipsE",
   "self_type" : "_ZTIN11unwindstack8RegsMipsE",
   "size" : 48,
   "source_file" : "/system/core/libunwindstack/include/unwindstack/RegsMips.h",
   "vtable_components" :
   [
    {
     "kind" : "offset_to_top"
    },
    {
     "kind" : "rtti",
     "mangled_component_name" : "_ZTIN11unwindstack8RegsMipsE"
    },
    {
     "kind" : "complete_dtor_pointer",
     "mangled_component_name" : "_ZN11unwindstack8RegsMipsD1Ev"
    },
    {
     "kind" : "deleting_dtor_pointer",
     "mangled_component_name" : "_ZN11unwindstack8RegsMipsD0Ev"
    },
    {
     "mangled_component_name" : "_ZN11unwindstack8RegsMips4ArchEv"
    },
    {
     "mangled_component_name" : "_ZN11unwindstack8RegsImplIjE7Is32BitEv"
    },
    {
     "mangled_component_name" : "_ZN11unwindstack8RegsImplIjE7RawDataEv"
    },
    {
     "mangled_component_name" : "_ZN11unwindstack8RegsMips2pcEv"
    },
    {
     "mangled_component_name" : "_ZN11unwindstack8RegsMips2spEv"
    },
    {
     "mangled_component_name" : "_ZN11unwindstack8RegsMips6set_pcEm"
    },
    {
     "mangled_component_name" : "_ZN11unwindstack8RegsMips6set_spEm"
    },
    {
     "mangled_component_name" : "_ZN11unwindstack8RegsMips15GetPcAdjustmentEmPNS_3ElfE"
    },
    {
     "mangled_component_name" : "_ZN11unwindstack8RegsMips19StepIfSignalHandlerEmPNS_3ElfEPNS_6MemoryE"
    },
    {
     "mangled_component_name" : "_ZN11unwindstack8RegsMips22SetPcFromReturnAddressEPNS_6MemoryE"
    },
    {
     "mangled_component_name" : "_ZN11unwindstack8RegsMips16IterateRegistersENSt3__18functionIFvPKcmEEE"
    },
    {
     "mangled_component_name" : "_ZN11unwindstack8RegsMips5CloneEv"
    }
   ]
  },
  {
   "alignment" : 8,
   "fields" :
   [
    {
     "access" : "protected",
     "field_name" : "max_frames_",
     "field_offset" : 64,
     "referenced_type" : "_ZTIm"
    },
    {
     "access" : "protected",
     "field_name" : "maps_",
     "field_offset" : 128,
     "referenced_type" : "_ZTIPN11unwindstack4MapsE"
    },
    {
     "access" : "protected",
     "field_name" : "regs_",
     "field_offset" : 192,
     "referenced_type" : "_ZTIPN11unwindstack4RegsE"
    },
    {
     "access" : "protected",
     "field_name" : "frames_",
     "field_offset" : 256,
     "referenced_type" : "_ZTINSt3__16vectorIN11unwindstack9FrameDataENS_9allocatorIS2_EEEE"
    },
    {
     "access" : "protected",
     "field_name" : "process_memory_",
     "field_offset" : 448,
     "referenced_type" : "_ZTINSt3__110shared_ptrIN11unwindstack6MemoryEEE"
    },
    {
     "access" : "protected",
     "field_name" : "jit_debug_",
     "field_offset" : 576,
     "referenced_type" : "_ZTIPN11unwindstack8JitDebugE"
    },
    {
     "access" : "protected",
     "field_name" : "dex_files_",
     "field_offset" : 640,
     "referenced_type" : "_ZTIPN11unwindstack8DexFilesE"
    },
    {
     "access" : "protected",
     "field_name" : "resolve_names_",
     "field_offset" : 704,
     "referenced_type" : "_ZTIb"
    },
    {
     "access" : "protected",
     "field_name" : "embedded_soname_",
     "field_offset" : 712,
     "referenced_type" : "_ZTIb"
    },
    {
     "access" : "protected",
     "field_name" : "display_build_id_",
     "field_offset" : 720,
     "referenced_type" : "_ZTIb"
    },
    {
     "access" : "protected",
     "field_name" : "elf_from_memory_not_file_",
     "field_offset" : 728,
     "referenced_type" : "_ZTIb"
    },
    {
     "access" : "protected",
     "field_name" : "last_error_",
     "field_offset" : 768,
     "referenced_type" : "_ZTIN11unwindstack9ErrorDataE"
    }
   ],
   "linker_set_key" : "_ZTIN11unwindstack8UnwinderE",
   "name" : "unwindstack::Unwinder",
   "record_kind" : "class",
   "referenced_type" : "_ZTIN11unwindstack8UnwinderE",
   "self_type" : "_ZTIN11unwindstack8UnwinderE",
   "size" : 112,
   "source_file" : "/system/core/libunwindstack/include/unwindstack/Unwinder.h",
   "vtable_components" :
   [
    {
     "kind" : "offset_to_top"
    },
    {
     "kind" : "rtti",
     "mangled_component_name" : "_ZTIN11unwindstack8UnwinderE"
    },
    {
     "kind" : "complete_dtor_pointer",
     "mangled_component_name" : "_ZN11unwindstack8UnwinderD1Ev"
    },
    {
     "kind" : "deleting_dtor_pointer",
     "mangled_component_name" : "_ZN11unwindstack8UnwinderD0Ev"
    }
   ]
  },
  {
   "alignment" : 8,
   "fields" :
   [
    {
     "field_name" : "code",
     "referenced_type" : "_ZTIN11unwindstack9ErrorCodeE"
    },
    {
     "field_name" : "address",
     "field_offset" : 64,
     "referenced_type" : "_ZTIm"
    }
   ],
   "linker_set_key" : "_ZTIN11unwindstack9ErrorDataE",
   "name" : "unwindstack::ErrorData",
   "referenced_type" : "_ZTIN11unwindstack9ErrorDataE",
   "self_type" : "_ZTIN11unwindstack9ErrorDataE",
   "size" : 16,
   "source_file" : "/system/core/libunwindstack/include/unwindstack/Error.h"
  },
  {
   "alignment" : 8,
   "fields" :
   [
    {
     "field_name" : "num",
     "referenced_type" : "_ZTIm"
    },
    {
     "field_name" : "rel_pc",
     "field_offset" : 64,
     "referenced_type" : "_ZTIm"
    },
    {
     "field_name" : "pc",
     "field_offset" : 128,
     "referenced_type" : "_ZTIm"
    },
    {
     "field_name" : "sp",
     "field_offset" : 192,
     "referenced_type" : "_ZTIm"
    },
    {
     "field_name" : "function_name",
     "field_offset" : 256,
     "referenced_type" : "_ZTINSt3__112basic_stringIcNS_11char_traitsIcEENS_9allocatorIcEEEE"
    },
    {
     "field_name" : "function_offset",
     "field_offset" : 448,
     "referenced_type" : "_ZTIm"
    },
    {
     "field_name" : "map_name",
     "field_offset" : 512,
     "referenced_type" : "_ZTINSt3__112basic_stringIcNS_11char_traitsIcEENS_9allocatorIcEEEE"
    },
    {
     "field_name" : "map_elf_start_offset",
     "field_offset" : 704,
     "referenced_type" : "_ZTIm"
    },
    {
     "field_name" : "map_exact_offset",
     "field_offset" : 768,
     "referenced_type" : "_ZTIm"
    },
    {
     "field_name" : "map_start",
     "field_offset" : 832,
     "referenced_type" : "_ZTIm"
    },
    {
     "field_name" : "map_end",
     "field_offset" : 896,
     "referenced_type" : "_ZTIm"
    },
    {
     "field_name" : "map_load_bias",
     "field_offset" : 960,
     "referenced_type" : "_ZTIm"
    },
    {
     "field_name" : "map_flags",
     "field_offset" : 1024,
     "referenced_type" : "_ZTIi"
    }
   ],
   "linker_set_key" : "_ZTIN11unwindstack9FrameDataE",
   "name" : "unwindstack::FrameData",
   "referenced_type" : "_ZTIN11unwindstack9FrameDataE",
   "self_type" : "_ZTIN11unwindstack9FrameDataE",
   "size" : 136,
   "source_file" : "/system/core/libunwindstack/include/unwindstack/Unwinder.h"
  },
  {
   "alignment" : 8,
   "base_specifiers" :
   [
    {
     "referenced_type" : "_ZTIN11unwindstack10RemoteMapsE"
    }
   ],
   "linker_set_key" : "_ZTIN11unwindstack9LocalMapsE",
   "name" : "unwindstack::LocalMaps",
   "record_kind" : "class",
   "referenced_type" : "_ZTIN11unwindstack9LocalMapsE",
   "self_type" : "_ZTIN11unwindstack9LocalMapsE",
   "size" : 40,
   "source_file" : "/system/core/libunwindstack/include/unwindstack/Maps.h",
   "vtable_components" :
   [
    {
     "kind" : "offset_to_top"
    },
    {
     "kind" : "rtti",
     "mangled_component_name" : "_ZTIN11unwindstack9LocalMapsE"
    },
    {
     "kind" : "complete_dtor_pointer",
     "mangled_component_name" : "_ZN11unwindstack9LocalMapsD1Ev"
    },
    {
     "kind" : "deleting_dtor_pointer",
     "mangled_component_name" : "_ZN11unwindstack9LocalMapsD0Ev"
    },
    {
     "mangled_component_name" : "_ZN11unwindstack4Maps5ParseEv"
    },
    {
     "mangled_component_name" : "_ZNK11unwindstack10RemoteMaps11GetMapsFileEv"
    }
   ]
  },
  {
   "alignment" : 8,
   "base_specifiers" :
   [
    {
     "referenced_type" : "_ZTIN11unwindstack8RegsImplImEE"
    }
   ],
   "linker_set_key" : "_ZTIN11unwindstack9RegsArm64E",
   "name" : "unwindstack::RegsArm64",
   "record_kind" : "class",
   "referenced_type" : "_ZTIN11unwindstack9RegsArm64E",
   "self_type" : "_ZTIN11unwindstack9RegsArm64E",
   "size" : 48,
   "source_file" : "/system/core/libunwindstack/include/unwindstack/RegsArm64.h",
   "vtable_components" :
   [
    {
     "kind" : "offset_to_top"
    },
    {
     "kind" : "rtti",
     "mangled_component_name" : "_ZTIN11unwindstack9RegsArm64E"
    },
    {
     "kind" : "complete_dtor_pointer",
     "mangled_component_name" : "_ZN11unwindstack9RegsArm64D1Ev"
    },
    {
     "kind" : "deleting_dtor_pointer",
     "mangled_component_name" : "_ZN11unwindstack9RegsArm64D0Ev"
    },
    {
     "mangled_component_name" : "_ZN11unwindstack9RegsArm644ArchEv"
    },
    {
     "mangled_component_name" : "_ZN11unwindstack8RegsImplImE7Is32BitEv"
    },
    {
     "mangled_component_name" : "_ZN11unwindstack8RegsImplImE7RawDataEv"
    },
    {
     "mangled_component_name" : "_ZN11unwindstack9RegsArm642pcEv"
    },
    {
     "mangled_component_name" : "_ZN11unwindstack9RegsArm642spEv"
    },
    {
     "mangled_component_name" : "_ZN11unwindstack9RegsArm646set_pcEm"
    },
    {
     "mangled_component_name" : "_ZN11unwindstack9RegsArm646set_spEm"
    },
    {
     "mangled_component_name" : "_ZN11unwindstack9RegsArm6415GetPcAdjustmentEmPNS_3ElfE"
    },
    {
     "mangled_component_name" : "_ZN11unwindstack9RegsArm6419StepIfSignalHandlerEmPNS_3ElfEPNS_6MemoryE"
    },
    {
     "mangled_component_name" : "_ZN11unwindstack9RegsArm6422SetPcFromReturnAddressEPNS_6MemoryE"
    },
    {
     "mangled_component_name" : "_ZN11unwindstack9RegsArm6416IterateRegistersENSt3__18functionIFvPKcmEEE"
    },
    {
     "mangled_component_name" : "_ZN11unwindstack9RegsArm645CloneEv"
    }
   ]
  }
 ],
 "rvalue_reference_types" :
 [
  {
   "alignment" : 8,
   "linker_set_key" : "_ZTION11unwindstack4MapsE",
   "name" : "unwindstack::Maps &&",
   "referenced_type" : "_ZTIN11unwindstack4MapsE",
   "self_type" : "_ZTION11unwindstack4MapsE",
   "size" : 8,
   "source_file" : "/system/core/libunwindstack/include/unwindstack/Maps.h"
  }
 ]
}
