{
 "array_types" :
 [
  {
   "alignment" : 4,
   "linker_set_key" : "_ZTIA0_i",
   "name" : "int [0]",
   "referenced_type" : "_ZTIi",
   "self_type" : "_ZTIA0_i",
   "source_file" : "/system/core/libcutils/include/cutils/native_handle.h"
  }
 ],
 "builtin_types" :
 [
  {
   "alignment" : 1,
   "is_integral" : true,
   "linker_set_key" : "_ZTIc",
   "name" : "char",
   "referenced_type" : "_ZTIc",
   "self_type" : "_ZTIc",
   "size" : 1
  },
  {
   "alignment" : 4,
   "is_integral" : true,
   "linker_set_key" : "_ZTIi",
   "name" : "int",
   "referenced_type" : "_ZTIi",
   "self_type" : "_ZTIi",
   "size" : 4
  },
  {
   "alignment" : 4,
   "is_integral" : true,
   "is_unsigned" : true,
   "linker_set_key" : "_ZTIj",
   "name" : "unsigned int",
   "referenced_type" : "_ZTIj",
   "self_type" : "_ZTIj",
   "size" : 4
  },
  {
   "linker_set_key" : "_ZTIv",
   "name" : "void",
   "referenced_type" : "_ZTIv",
   "self_type" : "_ZTIv"
  },
  {
   "alignment" : 4,
   "is_integral" : true,
   "is_unsigned" : true,
   "linker_set_key" : "_ZTIy",
   "name" : "unsigned long long",
   "referenced_type" : "_ZTIy",
   "self_type" : "_ZTIy",
   "size" : 8
  }
 ],
 "elf_functions" :
 [
  {
   "name" : "_ZN7android8wakelock8WakeLock12WakeLockImplC1ERKNSt3__112basic_stringIcNS3_11char_traitsIcEENS3_9allocatorIcEEEE"
  },
  {
   "name" : "_ZN7android8wakelock8WakeLock12WakeLockImplC2ERKNSt3__112basic_stringIcNS3_11char_traitsIcEENS3_9allocatorIcEEEE"
  },
  {
   "name" : "_ZN7android8wakelock8WakeLock12WakeLockImplD1Ev"
  },
  {
   "name" : "_ZN7android8wakelock8WakeLock12WakeLockImplD2Ev"
  },
  {
   "name" : "_ZN7android8wakelock8WakeLockC1ERKNSt3__112basic_stringIcNS2_11char_traitsIcEENS2_9allocatorIcEEEE"
  },
  {
   "name" : "_ZN7android8wakelock8WakeLockC2ERKNSt3__112basic_stringIcNS2_11char_traitsIcEENS2_9allocatorIcEEEE"
  },
  {
   "name" : "_ZN7android8wakelock8WakeLockD1Ev"
  },
  {
   "name" : "_ZN7android8wakelock8WakeLockD2Ev"
  },
  {
   "binding" : "weak",
   "name" : "_ZNSt3__112__hash_tableINS_17__hash_value_typeINS_12basic_stringIcNS_11char_traitsIcEENS_9allocatorIcEEEEN7android2spINS8_6system7suspend4V1_09IWakeLockEEEEENS_22__unordered_map_hasherIS7_SF_NS_4hashIS7_EELb1EEENS_21__unordered_map_equalIS7_SF_NS_8equal_toIS7_EELb1EEENS5_ISF_EEE25__emplace_unique_key_argsIS7_JRKNS_21piecewise_construct_tENS_5tupleIJOS7_EEENSU_IJEEEEEENS_4pairINS_15__hash_iteratorIPNS_11__hash_nodeISF_PvEEEEbEERKT_DpOT0_"
  },
  {
   "binding" : "weak",
   "name" : "_ZNSt3__112__hash_tableINS_17__hash_value_typeINS_12basic_stringIcNS_11char_traitsIcEENS_9allocatorIcEEEEN7android2spINS8_6system7suspend4V1_09IWakeLockEEEEENS_22__unordered_map_hasherIS7_SF_NS_4hashIS7_EELb1EEENS_21__unordered_map_equalIS7_SF_NS_8equal_toIS7_EELb1EEENS5_ISF_EEE6rehashEj"
  },
  {
   "binding" : "weak",
   "name" : "_ZNSt3__112__hash_tableINS_17__hash_value_typeINS_12basic_stringIcNS_11char_traitsIcEENS_9allocatorIcEEEEN7android2spINS8_6system7suspend4V1_09IWakeLockEEEEENS_22__unordered_map_hasherIS7_SF_NS_4hashIS7_EELb1EEENS_21__unordered_map_equalIS7_SF_NS_8equal_toIS7_EELb1EEENS5_ISF_EEE8__rehashEj"
  },
  {
   "binding" : "weak",
   "name" : "_ZNSt3__124__put_character_sequenceIcNS_11char_traitsIcEEEERNS_13basic_ostreamIT_T0_EES7_PKS4_j"
  },
  {
   "binding" : "weak",
   "name" : "_ZNSt3__1lsIcNS_11char_traitsIcEENS_9allocatorIcEEEERNS_13basic_ostreamIT_T0_EES9_RKNS_12basic_stringIS6_S7_T1_EE"
  },
  {
   "name" : "acquire_wake_lock"
  },
  {
   "name" : "release_wake_lock"
  },
  {
   "name" : "uevent_add_native_handler"
  },
  {
   "name" : "uevent_get_fd"
  },
  {
   "name" : "uevent_init"
  },
  {
   "name" : "uevent_next_event"
  },
  {
   "name" : "uevent_remove_native_handler"
  }
 ],
 "elf_objects" :
 [
  {
   "name" : "uevent_handler_list"
  },
  {
   "name" : "uevent_handler_list_lock"
  }
 ],
 "enum_types" :
 [
  {
   "alignment" : 4,
   "enum_fields" :
   [
    {
     "enum_field_value" : 1,
     "name" : "PARTIAL_WAKE_LOCK"
    },
    {
     "enum_field_value" : 2,
     "name" : "FULL_WAKE_LOCK"
    }
   ],
   "linker_set_key" : "_ZTI15$FULL_WAKE_LOCK",
   "name" : "(anonymous enum at hardware/libhardware_legacy/include/hardware_legacy/power.h:26:1)",
   "referenced_type" : "_ZTI15$FULL_WAKE_LOCK",
   "self_type" : "_ZTI15$FULL_WAKE_LOCK",
   "size" : 4,
   "source_file" : "/hardware/libhardware_legacy/include/hardware_legacy/power.h",
   "underlying_type" : "_ZTIj"
  }
 ],
 "function_types" :
 [
  {
   "alignment" : 4,
   "linker_set_key" : "_ZTIFvPvPKciE",
   "name" : "void (void *, const char *, int)",
   "parameters" :
   [
    {
     "referenced_type" : "_ZTIPv"
    },
    {
     "referenced_type" : "_ZTIPKc"
    },
    {
     "referenced_type" : "_ZTIi"
    }
   ],
   "referenced_type" : "_ZTIFvPvPKciE",
   "return_type" : "_ZTIv",
   "self_type" : "_ZTIFvPvPKciE",
   "source_file" : "/hardware/libhardware_legacy/include/hardware_legacy/uevent.h"
  }
 ],
 "functions" :
 [
  {
   "function_name" : "android::wakelock::WakeLock::WakeLock",
   "linker_set_key" : "_ZN7android8wakelock8WakeLockC1ERKNSt3__112basic_stringIcNS2_11char_traitsIcEENS2_9allocatorIcEEEE",
   "parameters" :
   [
    {
     "is_this_ptr" : true,
     "referenced_type" : "_ZTIPN7android8wakelock8WakeLockE"
    },
    {
     "referenced_type" : "_ZTIRKNSt3__112basic_stringIcNS_11char_traitsIcEENS_9allocatorIcEEEE"
    }
   ],
   "return_type" : "_ZTIv",
   "source_file" : "/hardware/libhardware_legacy/include/wakelock/wakelock.h"
  },
  {
   "function_name" : "android::wakelock::WakeLock::WakeLock",
   "linker_set_key" : "_ZN7android8wakelock8WakeLockC2ERKNSt3__112basic_stringIcNS2_11char_traitsIcEENS2_9allocatorIcEEEE",
   "parameters" :
   [
    {
     "is_this_ptr" : true,
     "referenced_type" : "_ZTIPN7android8wakelock8WakeLockE"
    },
    {
     "referenced_type" : "_ZTIRKNSt3__112basic_stringIcNS_11char_traitsIcEENS_9allocatorIcEEEE"
    }
   ],
   "return_type" : "_ZTIv",
   "source_file" : "/hardware/libhardware_legacy/include/wakelock/wakelock.h"
  },
  {
   "function_name" : "android::wakelock::WakeLock::~WakeLock",
   "linker_set_key" : "_ZN7android8wakelock8WakeLockD1Ev",
   "parameters" :
   [
    {
     "is_this_ptr" : true,
     "referenced_type" : "_ZTIPN7android8wakelock8WakeLockE"
    }
   ],
   "return_type" : "_ZTIv",
   "source_file" : "/hardware/libhardware_legacy/include/wakelock/wakelock.h"
  },
  {
   "function_name" : "android::wakelock::WakeLock::~WakeLock",
   "linker_set_key" : "_ZN7android8wakelock8WakeLockD2Ev",
   "parameters" :
   [
    {
     "is_this_ptr" : true,
     "referenced_type" : "_ZTIPN7android8wakelock8WakeLockE"
    }
   ],
   "return_type" : "_ZTIv",
   "source_file" : "/hardware/libhardware_legacy/include/wakelock/wakelock.h"
  },
  {
   "function_name" : "acquire_wake_lock",
   "linker_set_key" : "acquire_wake_lock",
   "parameters" :
   [
    {
     "referenced_type" : "_ZTIi"
    },
    {
     "referenced_type" : "_ZTIPKc"
    }
   ],
   "return_type" : "_ZTIi",
   "source_file" : "/hardware/libhardware_legacy/include/hardware_legacy/power.h"
  },
  {
   "function_name" : "release_wake_lock",
   "linker_set_key" : "release_wake_lock",
   "parameters" :
   [
    {
     "referenced_type" : "_ZTIPKc"
    }
   ],
   "return_type" : "_ZTIi",
   "source_file" : "/hardware/libhardware_legacy/include/hardware_legacy/power.h"
  },
  {
   "function_name" : "uevent_add_native_handler",
   "linker_set_key" : "uevent_add_native_handler",
   "parameters" :
   [
    {
     "referenced_type" : "_ZTIPFvPvPKciE"
    },
    {
     "referenced_type" : "_ZTIPv"
    }
   ],
   "return_type" : "_ZTIi",
   "source_file" : "/hardware/libhardware_legacy/include/hardware_legacy/uevent.h"
  },
  {
   "function_name" : "uevent_get_fd",
   "linker_set_key" : "uevent_get_fd",
   "return_type" : "_ZTIi",
   "source_file" : "/hardware/libhardware_legacy/include/hardware_legacy/uevent.h"
  },
  {
   "function_name" : "uevent_init",
   "linker_set_key" : "uevent_init",
   "return_type" : "_ZTIi",
   "source_file" : "/hardware/libhardware_legacy/include/hardware_legacy/uevent.h"
  },
  {
   "function_name" : "uevent_next_event",
   "linker_set_key" : "uevent_next_event",
   "parameters" :
   [
    {
     "referenced_type" : "_ZTIPc"
    },
    {
     "referenced_type" : "_ZTIi"
    }
   ],
   "return_type" : "_ZTIi",
   "source_file" : "/hardware/libhardware_legacy/include/hardware_legacy/uevent.h"
  },
  {
   "function_name" : "uevent_remove_native_handler",
   "linker_set_key" : "uevent_remove_native_handler",
   "parameters" :
   [
    {
     "referenced_type" : "_ZTIPFvPvPKciE"
    }
   ],
   "return_type" : "_ZTIi",
   "source_file" : "/hardware/libhardware_legacy/include/hardware_legacy/uevent.h"
  }
 ],
 "global_vars" : [],
 "lvalue_reference_types" :
 [
  {
   "alignment" : 4,
   "linker_set_key" : "_ZTIRKNSt3__112basic_stringIcNS_11char_traitsIcEENS_9allocatorIcEEEE",
   "name" : "const std::basic_string<char, std::char_traits<char>, std::allocator<char> > &",
   "referenced_type" : "_ZTIKNSt3__112basic_stringIcNS_11char_traitsIcEENS_9allocatorIcEEEE",
   "self_type" : "_ZTIRKNSt3__112basic_stringIcNS_11char_traitsIcEENS_9allocatorIcEEEE",
   "size" : 4,
   "source_file" : "/hardware/libhardware_legacy/include/wakelock/wakelock.h"
  }
 ],
 "pointer_types" :
 [
  {
   "alignment" : 4,
   "linker_set_key" : "_ZTIPFvPvPKciE",
   "name" : "void (*)(void *, const char *, int)",
   "referenced_type" : "_ZTIFvPvPKciE",
   "self_type" : "_ZTIPFvPvPKciE",
   "size" : 4,
   "source_file" : "/hardware/libhardware_legacy/include/hardware_legacy/uevent.h"
  },
  {
   "alignment" : 4,
   "linker_set_key" : "_ZTIPKc",
   "name" : "const char *",
   "referenced_type" : "_ZTIKc",
   "self_type" : "_ZTIPKc",
   "size" : 4,
   "source_file" : "/hardware/libhardware_legacy/include/hardware_legacy/power.h"
  },
  {
   "alignment" : 4,
   "linker_set_key" : "_ZTIPN7android8wakelock8WakeLockE",
   "name" : "android::wakelock::WakeLock *",
   "referenced_type" : "_ZTIN7android8wakelock8WakeLockE",
   "self_type" : "_ZTIPN7android8wakelock8WakeLockE",
   "size" : 4,
   "source_file" : "/hardware/libhardware_legacy/include/wakelock/wakelock.h"
  },
  {
   "alignment" : 4,
   "linker_set_key" : "_ZTIPc",
   "name" : "char *",
   "referenced_type" : "_ZTIc",
   "self_type" : "_ZTIPc",
   "size" : 4,
   "source_file" : "/hardware/libhardware_legacy/include/hardware_legacy/uevent.h"
  },
  {
   "alignment" : 4,
   "linker_set_key" : "_ZTIPv",
   "name" : "void *",
   "referenced_type" : "_ZTIv",
   "self_type" : "_ZTIPv",
   "size" : 4,
   "source_file" : "/hardware/libhardware_legacy/include/hardware_legacy/uevent.h"
  }
 ],
 "qualified_types" :
 [
  {
   "alignment" : 4,
   "is_const" : true,
   "linker_set_key" : "_ZTIKNSt3__112basic_stringIcNS_11char_traitsIcEENS_9allocatorIcEEEE",
   "name" : "const std::basic_string<char, std::char_traits<char>, std::allocator<char> >",
   "referenced_type" : "_ZTINSt3__112basic_stringIcNS_11char_traitsIcEENS_9allocatorIcEEEE",
   "self_type" : "_ZTIKNSt3__112basic_stringIcNS_11char_traitsIcEENS_9allocatorIcEEEE",
   "size" : 12,
   "source_file" : "/hardware/libhardware_legacy/include/wakelock/wakelock.h"
  },
  {
   "alignment" : 1,
   "is_const" : true,
   "linker_set_key" : "_ZTIKc",
   "name" : "const char",
   "referenced_type" : "_ZTIc",
   "self_type" : "_ZTIKc",
   "size" : 1,
   "source_file" : "/hardware/libhardware_legacy/include/hardware_legacy/power.h"
  }
 ],
 "record_types" :
 [
  {
   "alignment" : 4,
   "fields" :
   [
    {
     "field_name" : "version",
     "referenced_type" : "_ZTIi"
    },
    {
     "field_name" : "numFds",
     "field_offset" : 32,
     "referenced_type" : "_ZTIi"
    },
    {
     "field_name" : "numInts",
     "field_offset" : 64,
     "referenced_type" : "_ZTIi"
    },
    {
     "field_name" : "data",
     "field_offset" : 96,
     "referenced_type" : "_ZTIA0_i"
    }
   ],
   "linker_set_key" : "_ZTI13native_handle",
   "name" : "native_handle",
   "referenced_type" : "_ZTI13native_handle",
   "self_type" : "_ZTI13native_handle",
   "size" : 12,
   "source_file" : "/system/core/libcutils/include/cutils/native_handle.h"
  },
  {
   "alignment" : 4,
   "fields" :
   [
    {
     "access" : "private",
     "field_name" : "mImpl",
     "referenced_type" : "_ZTINSt3__110unique_ptrIN7android8wakelock8WakeLock12WakeLockImplENS_14default_deleteIS4_EEEE"
    }
   ],
   "linker_set_key" : "_ZTIN7android8wakelock8WakeLockE",
   "name" : "android::wakelock::WakeLock",
   "record_kind" : "class",
   "referenced_type" : "_ZTIN7android8wakelock8WakeLockE",
   "self_type" : "_ZTIN7android8wakelock8WakeLockE",
   "size" : 4,
   "source_file" : "/hardware/libhardware_legacy/include/wakelock/wakelock.h"
  }
 ],
 "rvalue_reference_types" : []
}
