{
 "record_types":[
  {
   "vtable_components":[
    {
     "kind":"vbase_offset",
     "component_value":4
    },
    {
     "kind":"offset_to_top"
    },
    {
     "kind":"rtti",
     "mangled_component_name":"_ZTIN7android8hardware13tetheroffload7control4V1_025ITetheringOffloadCallbackE"
    },
    {
     "mangled_component_name":"_ZNK7android8hardware13tetheroffload7control4V1_025ITetheringOffloadCallback8isRemoteEv"
    },
    {
     "mangled_component_name":"_ZN7android8hardware13tetheroffload7control4V1_025ITetheringOffloadCallback14interfaceChainENSt3__18functionIFvRKNS0_8hidl_vecINS0_11hidl_stringEEEEEE"
    },
    {
     "mangled_component_name":"_ZN7android8hardware13tetheroffload7control4V1_025ITetheringOffloadCallback5debugERKNS0_11hidl_handleERKNS0_8hidl_vecINS0_11hidl_stringEEE"
    },
    {
     "mangled_component_name":"_ZN7android8hardware13tetheroffload7control4V1_025ITetheringOffloadCallback19interfaceDescriptorENSt3__18functionIFvRKNS0_11hidl_stringEEEE"
    },
    {
     "mangled_component_name":"_ZN7android8hardware13tetheroffload7control4V1_025ITetheringOffloadCallback12getHashChainENSt3__18functionIFvRKNS0_8hidl_vecINS0_10hidl_arrayIhLj32EJEEEEEEEE"
    },
    {
     "mangled_component_name":"_ZN7android8hardware13tetheroffload7control4V1_025ITetheringOffloadCallback21setHALInstrumentationEv"
    },
    {
     "mangled_component_name":"_ZN7android8hardware13tetheroffload7control4V1_025ITetheringOffloadCallback11linkToDeathERKNS_2spINS0_20hidl_death_recipientEEEy"
    },
    {
     "mangled_component_name":"_ZN7android8hardware13tetheroffload7control4V1_025ITetheringOffloadCallback4pingEv"
    },
    {
     "mangled_component_name":"_ZN7android8hardware13tetheroffload7control4V1_025ITetheringOffloadCallback12getDebugInfoENSt3__18functionIFvRKNS_4hidl4base4V1_09DebugInfoEEEE"
    },
    {
     "mangled_component_name":"_ZN7android8hardware13tetheroffload7control4V1_025ITetheringOffloadCallback21notifySyspropsChangedEv"
    },
    {
     "mangled_component_name":"_ZN7android8hardware13tetheroffload7control4V1_025ITetheringOffloadCallback13unlinkToDeathERKNS_2spINS0_20hidl_death_recipientEEE"
    },
    {
     "kind":"complete_dtor_pointer",
     "mangled_component_name":"_ZN7android8hardware13tetheroffload7control4V1_025ITetheringOffloadCallbackD1Ev"
    },
    {
     "kind":"deleting_dtor_pointer",
     "mangled_component_name":"_ZN7android8hardware13tetheroffload7control4V1_025ITetheringOffloadCallbackD0Ev"
    },
    {
     "is_pure":true,
     "mangled_component_name":"_ZN7android8hardware13tetheroffload7control4V1_025ITetheringOffloadCallback7onEventENS3_20OffloadCallbackEventE"
    },
    {
     "is_pure":true,
     "mangled_component_name":"_ZN7android8hardware13tetheroffload7control4V1_025ITetheringOffloadCallback13updateTimeoutERKNS3_16NatTimeoutUpdateE"
    },
    {
     "kind":"vcall_offset"
    },
    {
     "kind":"vcall_offset"
    },
    {
     "kind":"vcall_offset"
    },
    {
     "kind":"vcall_offset"
    },
    {
     "kind":"vcall_offset",
     "component_value":-4
    },
    {
     "kind":"offset_to_top",
     "component_value":-4
    },
    {
     "kind":"rtti",
     "mangled_component_name":"_ZTIN7android8hardware13tetheroffload7control4V1_025ITetheringOffloadCallbackE"
    },
    {
     "kind":"complete_dtor_pointer",
     "mangled_component_name":"_ZTv0_n12_N7android8hardware13tetheroffload7control4V1_025ITetheringOffloadCallbackD1Ev"
    },
    {
     "kind":"deleting_dtor_pointer",
     "mangled_component_name":"_ZTv0_n12_N7android8hardware13tetheroffload7control4V1_025ITetheringOffloadCallbackD0Ev"
    },
    {
     "mangled_component_name":"_ZN7android7RefBase10onFirstRefEv"
    },
    {
     "mangled_component_name":"_ZN7android7RefBase15onLastStrongRefEPKv"
    },
    {
     "mangled_component_name":"_ZN7android7RefBase20onIncStrongAttemptedEjPKv"
    },
    {
     "mangled_component_name":"_ZN7android7RefBase13onLastWeakRefEPKv"
    }
   ],
   "unique_id":"_ZTSN7android8hardware13tetheroffload7control4V1_025ITetheringOffloadCallbackE"
  },
  {
   "vtable_components":[
    {
     "kind":"vbase_offset",
     "component_value":84
    },
    {
     "kind":"offset_to_top"
    },
    {
     "kind":"rtti",
     "mangled_component_name":"_ZTIN7android8hardware13tetheroffload7control4V1_028BpHwTetheringOffloadCallbackE"
    },
    {
     "mangled_component_name":"_ZNK7android8hardware13tetheroffload7control4V1_028BpHwTetheringOffloadCallback8isRemoteEv"
    },
    {
     "mangled_component_name":"_ZN7android8hardware13tetheroffload7control4V1_028BpHwTetheringOffloadCallback14interfaceChainENSt3__18functionIFvRKNS0_8hidl_vecINS0_11hidl_stringEEEEEE"
    },
    {
     "mangled_component_name":"_ZN7android8hardware13tetheroffload7control4V1_028BpHwTetheringOffloadCallback5debugERKNS0_11hidl_handleERKNS0_8hidl_vecINS0_11hidl_stringEEE"
    },
    {
     "mangled_component_name":"_ZN7android8hardware13tetheroffload7control4V1_028BpHwTetheringOffloadCallback19interfaceDescriptorENSt3__18functionIFvRKNS0_11hidl_stringEEEE"
    },
    {
     "mangled_component_name":"_ZN7android8hardware13tetheroffload7control4V1_028BpHwTetheringOffloadCallback12getHashChainENSt3__18functionIFvRKNS0_8hidl_vecINS0_10hidl_arrayIhLj32EJEEEEEEEE"
    },
    {
     "mangled_component_name":"_ZN7android8hardware13tetheroffload7control4V1_028BpHwTetheringOffloadCallback21setHALInstrumentationEv"
    },
    {
     "mangled_component_name":"_ZN7android8hardware13tetheroffload7control4V1_028BpHwTetheringOffloadCallback11linkToDeathERKNS_2spINS0_20hidl_death_recipientEEEy"
    },
    {
     "mangled_component_name":"_ZN7android8hardware13tetheroffload7control4V1_028BpHwTetheringOffloadCallback4pingEv"
    },
    {
     "mangled_component_name":"_ZN7android8hardware13tetheroffload7control4V1_028BpHwTetheringOffloadCallback12getDebugInfoENSt3__18functionIFvRKNS_4hidl4base4V1_09DebugInfoEEEE"
    },
    {
     "mangled_component_name":"_ZN7android8hardware13tetheroffload7control4V1_028BpHwTetheringOffloadCallback21notifySyspropsChangedEv"
    },
    {
     "mangled_component_name":"_ZN7android8hardware13tetheroffload7control4V1_028BpHwTetheringOffloadCallback13unlinkToDeathERKNS_2spINS0_20hidl_death_recipientEEE"
    },
    {
     "kind":"complete_dtor_pointer",
     "mangled_component_name":"_ZN7android8hardware13tetheroffload7control4V1_028BpHwTetheringOffloadCallbackD1Ev"
    },
    {
     "kind":"deleting_dtor_pointer",
     "mangled_component_name":"_ZN7android8hardware13tetheroffload7control4V1_028BpHwTetheringOffloadCallbackD0Ev"
    },
    {
     "mangled_component_name":"_ZN7android8hardware13tetheroffload7control4V1_028BpHwTetheringOffloadCallback7onEventENS3_20OffloadCallbackEventE"
    },
    {
     "mangled_component_name":"_ZN7android8hardware13tetheroffload7control4V1_028BpHwTetheringOffloadCallback13updateTimeoutERKNS3_16NatTimeoutUpdateE"
    },
    {
     "mangled_component_name":"_ZN7android8hardware11BpInterfaceINS0_13tetheroffload7control4V1_025ITetheringOffloadCallbackEE10onAsBinderEv"
    },
    {
     "kind":"vbase_offset",
     "component_value":80
    },
    {
     "kind":"offset_to_top",
     "component_value":-4
    },
    {
     "kind":"rtti",
     "mangled_component_name":"_ZTIN7android8hardware13tetheroffload7control4V1_028BpHwTetheringOffloadCallbackE"
    },
    {
     "kind":"complete_dtor_pointer",
     "mangled_component_name":"_ZThn4_N7android8hardware13tetheroffload7control4V1_028BpHwTetheringOffloadCallbackD1Ev"
    },
    {
     "kind":"deleting_dtor_pointer",
     "mangled_component_name":"_ZThn4_N7android8hardware13tetheroffload7control4V1_028BpHwTetheringOffloadCallbackD0Ev"
    },
    {
     "mangled_component_name":"_ZThn4_N7android8hardware11BpInterfaceINS0_13tetheroffload7control4V1_025ITetheringOffloadCallbackEE10onAsBinderEv"
    },
    {
     "kind":"vbase_offset",
     "component_value":76
    },
    {
     "kind":"offset_to_top",
     "component_value":-8
    },
    {
     "kind":"rtti",
     "mangled_component_name":"_ZTIN7android8hardware13tetheroffload7control4V1_028BpHwTetheringOffloadCallbackE"
    },
    {
     "kind":"complete_dtor_pointer",
     "mangled_component_name":"_ZThn8_N7android8hardware13tetheroffload7control4V1_028BpHwTetheringOffloadCallbackD1Ev"
    },
    {
     "kind":"deleting_dtor_pointer",
     "mangled_component_name":"_ZThn8_N7android8hardware13tetheroffload7control4V1_028BpHwTetheringOffloadCallbackD0Ev"
    },
    {
     "mangled_component_name":"_ZN7android8hardware11BpHwRefBase10onFirstRefEv"
    },
    {
     "mangled_component_name":"_ZN7android8hardware11BpHwRefBase15onLastStrongRefEPKv"
    },
    {
     "mangled_component_name":"_ZN7android8hardware11BpHwRefBase20onIncStrongAttemptedEjPKv"
    },
    {
     "kind":"offset_to_top",
     "component_value":-24
    },
    {
     "kind":"rtti",
     "mangled_component_name":"_ZTIN7android8hardware13tetheroffload7control4V1_028BpHwTetheringOffloadCallbackE"
    },
    {
     "kind":"complete_dtor_pointer",
     "mangled_component_name":"_ZThn24_N7android8hardware13tetheroffload7control4V1_028BpHwTetheringOffloadCallbackD1Ev"
    },
    {
     "kind":"deleting_dtor_pointer",
     "mangled_component_name":"_ZThn24_N7android8hardware13tetheroffload7control4V1_028BpHwTetheringOffloadCallbackD0Ev"
    },
    {
     "kind":"vcall_offset"
    },
    {
     "kind":"vcall_offset",
     "component_value":-76
    },
    {
     "kind":"vcall_offset",
     "component_value":-76
    },
    {
     "kind":"vcall_offset",
     "component_value":-76
    },
    {
     "kind":"vcall_offset",
     "component_value":-84
    },
    {
     "kind":"offset_to_top",
     "component_value":-84
    },
    {
     "kind":"rtti",
     "mangled_component_name":"_ZTIN7android8hardware13tetheroffload7control4V1_028BpHwTetheringOffloadCallbackE"
    },
    {
     "kind":"complete_dtor_pointer",
     "mangled_component_name":"_ZTv0_n12_N7android8hardware13tetheroffload7control4V1_028BpHwTetheringOffloadCallbackD1Ev"
    },
    {
     "kind":"deleting_dtor_pointer",
     "mangled_component_name":"_ZTv0_n12_N7android8hardware13tetheroffload7control4V1_028BpHwTetheringOffloadCallbackD0Ev"
    },
    {
     "mangled_component_name":"_ZTv0_n16_N7android8hardware11BpHwRefBase10onFirstRefEv"
    },
    {
     "mangled_component_name":"_ZTv0_n20_N7android8hardware11BpHwRefBase15onLastStrongRefEPKv"
    },
    {
     "mangled_component_name":"_ZTv0_n24_N7android8hardware11BpHwRefBase20onIncStrongAttemptedEjPKv"
    },
    {
     "mangled_component_name":"_ZN7android7RefBase13onLastWeakRefEPKv"
    }
   ],
   "unique_id":"_ZTSN7android8hardware13tetheroffload7control4V1_028BpHwTetheringOffloadCallbackE"
  },
  {
   "vtable_components":[
    {
     "kind":"vbase_offset",
     "component_value":4
    },
    {
     "kind":"offset_to_top"
    },
    {
     "kind":"rtti",
     "mangled_component_name":"_ZTIN7android8hardware13tetheroffload7control4V1_015IOffloadControlE"
    },
    {
     "mangled_component_name":"_ZNK7android8hardware13tetheroffload7control4V1_015IOffloadControl8isRemoteEv"
    },
    {
     "mangled_component_name":"_ZN7android8hardware13tetheroffload7control4V1_015IOffloadControl14interfaceChainENSt3__18functionIFvRKNS0_8hidl_vecINS0_11hidl_stringEEEEEE"
    },
    {
     "mangled_component_name":"_ZN7android8hardware13tetheroffload7control4V1_015IOffloadControl5debugERKNS0_11hidl_handleERKNS0_8hidl_vecINS0_11hidl_stringEEE"
    },
    {
     "mangled_component_name":"_ZN7android8hardware13tetheroffload7control4V1_015IOffloadControl19interfaceDescriptorENSt3__18functionIFvRKNS0_11hidl_stringEEEE"
    },
    {
     "mangled_component_name":"_ZN7android8hardware13tetheroffload7control4V1_015IOffloadControl12getHashChainENSt3__18functionIFvRKNS0_8hidl_vecINS0_10hidl_arrayIhLj32EJEEEEEEEE"
    },
    {
     "mangled_component_name":"_ZN7android8hardware13tetheroffload7control4V1_015IOffloadControl21setHALInstrumentationEv"
    },
    {
     "mangled_component_name":"_ZN7android8hardware13tetheroffload7control4V1_015IOffloadControl11linkToDeathERKNS_2spINS0_20hidl_death_recipientEEEy"
    },
    {
     "mangled_component_name":"_ZN7android8hardware13tetheroffload7control4V1_015IOffloadControl4pingEv"
    },
    {
     "mangled_component_name":"_ZN7android8hardware13tetheroffload7control4V1_015IOffloadControl12getDebugInfoENSt3__18functionIFvRKNS_4hidl4base4V1_09DebugInfoEEEE"
    },
    {
     "mangled_component_name":"_ZN7android8hardware13tetheroffload7control4V1_015IOffloadControl21notifySyspropsChangedEv"
    },
    {
     "mangled_component_name":"_ZN7android8hardware13tetheroffload7control4V1_015IOffloadControl13unlinkToDeathERKNS_2spINS0_20hidl_death_recipientEEE"
    },
    {
     "kind":"complete_dtor_pointer",
     "mangled_component_name":"_ZN7android8hardware13tetheroffload7control4V1_015IOffloadControlD1Ev"
    },
    {
     "kind":"deleting_dtor_pointer",
     "mangled_component_name":"_ZN7android8hardware13tetheroffload7control4V1_015IOffloadControlD0Ev"
    },
    {
     "is_pure":true,
     "mangled_component_name":"_ZN7android8hardware13tetheroffload7control4V1_015IOffloadControl11initOffloadERKNS_2spINS3_25ITetheringOffloadCallbackEEENSt3__18functionIFvbRKNS0_11hidl_stringEEEE"
    },
    {
     "is_pure":true,
     "mangled_component_name":"_ZN7android8hardware13tetheroffload7control4V1_015IOffloadControl11stopOffloadENSt3__18functionIFvbRKNS0_11hidl_stringEEEE"
    },
    {
     "is_pure":true,
     "mangled_component_name":"_ZN7android8hardware13tetheroffload7control4V1_015IOffloadControl16setLocalPrefixesERKNS0_8hidl_vecINS0_11hidl_stringEEENSt3__18functionIFvbRKS6_EEE"
    },
    {
     "is_pure":true,
     "mangled_component_name":"_ZN7android8hardware13tetheroffload7control4V1_015IOffloadControl17getForwardedStatsERKNS0_11hidl_stringENSt3__18functionIFvyyEEE"
    },
    {
     "is_pure":true,
     "mangled_component_name":"_ZN7android8hardware13tetheroffload7control4V1_015IOffloadControl12setDataLimitERKNS0_11hidl_stringEyNSt3__18functionIFvbS7_EEE"
    },
    {
     "is_pure":true,
     "mangled_component_name":"_ZN7android8hardware13tetheroffload7control4V1_015IOffloadControl21setUpstreamParametersERKNS0_11hidl_stringES7_S7_RKNS0_8hidl_vecIS5_EENSt3__18functionIFvbS7_EEE"
    },
    {
     "is_pure":true,
     "mangled_component_name":"_ZN7android8hardware13tetheroffload7control4V1_015IOffloadControl13addDownstreamERKNS0_11hidl_stringES7_NSt3__18functionIFvbS7_EEE"
    },
    {
     "is_pure":true,
     "mangled_component_name":"_ZN7android8hardware13tetheroffload7control4V1_015IOffloadControl16removeDownstreamERKNS0_11hidl_stringES7_NSt3__18functionIFvbS7_EEE"
    },
    {
     "kind":"vcall_offset"
    },
    {
     "kind":"vcall_offset"
    },
    {
     "kind":"vcall_offset"
    },
    {
     "kind":"vcall_offset"
    },
    {
     "kind":"vcall_offset",
     "component_value":-4
    },
    {
     "kind":"offset_to_top",
     "component_value":-4
    },
    {
     "kind":"rtti",
     "mangled_component_name":"_ZTIN7android8hardware13tetheroffload7control4V1_015IOffloadControlE"
    },
    {
     "kind":"complete_dtor_pointer",
     "mangled_component_name":"_ZTv0_n12_N7android8hardware13tetheroffload7control4V1_015IOffloadControlD1Ev"
    },
    {
     "kind":"deleting_dtor_pointer",
     "mangled_component_name":"_ZTv0_n12_N7android8hardware13tetheroffload7control4V1_015IOffloadControlD0Ev"
    },
    {
     "mangled_component_name":"_ZN7android7RefBase10onFirstRefEv"
    },
    {
     "mangled_component_name":"_ZN7android7RefBase15onLastStrongRefEPKv"
    },
    {
     "mangled_component_name":"_ZN7android7RefBase20onIncStrongAttemptedEjPKv"
    },
    {
     "mangled_component_name":"_ZN7android7RefBase13onLastWeakRefEPKv"
    }
   ],
   "unique_id":"_ZTSN7android8hardware13tetheroffload7control4V1_015IOffloadControlE"
  },
  {
   "vtable_components":[
    {
     "kind":"vbase_offset",
     "component_value":72
    },
    {
     "kind":"offset_to_top"
    },
    {
     "kind":"rtti",
     "mangled_component_name":"_ZTIN7android8hardware13tetheroffload7control4V1_018BnHwOffloadControlE"
    },
    {
     "mangled_component_name":"_ZN7android8hardware9BHwBinder8transactEjRKNS0_6ParcelEPS2_jNSt3__18functionIFvRS2_EEE"
    },
    {
     "mangled_component_name":"_ZN7android8hardware9BHwBinder11linkToDeathERKNS_2spINS0_7IBinder14DeathRecipientEEEPvj"
    },
    {
     "mangled_component_name":"_ZN7android8hardware9BHwBinder13unlinkToDeathERKNS_2wpINS0_7IBinder14DeathRecipientEEEPvjPS5_"
    },
    {
     "mangled_component_name":"_ZNK7android8hardware7IBinder13checkSubclassEPKv"
    },
    {
     "mangled_component_name":"_ZN7android8hardware9BHwBinder12attachObjectEPKvPvS4_PFvS3_S4_S4_E"
    },
    {
     "mangled_component_name":"_ZNK7android8hardware9BHwBinder10findObjectEPKv"
    },
    {
     "mangled_component_name":"_ZN7android8hardware9BHwBinder12detachObjectEPKv"
    },
    {
     "mangled_component_name":"_ZN7android8hardware9BHwBinder11localBinderEv"
    },
    {
     "mangled_component_name":"_ZN7android8hardware7IBinder12remoteBinderEv"
    },
    {
     "kind":"complete_dtor_pointer",
     "mangled_component_name":"_ZN7android8hardware13tetheroffload7control4V1_018BnHwOffloadControlD1Ev"
    },
    {
     "kind":"deleting_dtor_pointer",
     "mangled_component_name":"_ZN7android8hardware13tetheroffload7control4V1_018BnHwOffloadControlD0Ev"
    },
    {
     "mangled_component_name":"_ZN7android8hardware13tetheroffload7control4V1_018BnHwOffloadControl10onTransactEjRKNS0_6ParcelEPS5_jNSt3__18functionIFvRS5_EEE"
    },
    {
     "kind":"offset_to_top",
     "component_value":-20
    },
    {
     "kind":"rtti",
     "mangled_component_name":"_ZTIN7android8hardware13tetheroffload7control4V1_018BnHwOffloadControlE"
    },
    {
     "kind":"complete_dtor_pointer",
     "mangled_component_name":"_ZThn20_N7android8hardware13tetheroffload7control4V1_018BnHwOffloadControlD1Ev"
    },
    {
     "kind":"deleting_dtor_pointer",
     "mangled_component_name":"_ZThn20_N7android8hardware13tetheroffload7control4V1_018BnHwOffloadControlD0Ev"
    },
    {
     "kind":"vcall_offset"
    },
    {
     "kind":"vcall_offset"
    },
    {
     "kind":"vcall_offset"
    },
    {
     "kind":"vcall_offset"
    },
    {
     "kind":"vcall_offset",
     "component_value":-72
    },
    {
     "kind":"offset_to_top",
     "component_value":-72
    },
    {
     "kind":"rtti",
     "mangled_component_name":"_ZTIN7android8hardware13tetheroffload7control4V1_018BnHwOffloadControlE"
    },
    {
     "kind":"complete_dtor_pointer",
     "mangled_component_name":"_ZTv0_n12_N7android8hardware13tetheroffload7control4V1_018BnHwOffloadControlD1Ev"
    },
    {
     "kind":"deleting_dtor_pointer",
     "mangled_component_name":"_ZTv0_n12_N7android8hardware13tetheroffload7control4V1_018BnHwOffloadControlD0Ev"
    },
    {
     "mangled_component_name":"_ZN7android7RefBase10onFirstRefEv"
    },
    {
     "mangled_component_name":"_ZN7android7RefBase15onLastStrongRefEPKv"
    },
    {
     "mangled_component_name":"_ZN7android7RefBase20onIncStrongAttemptedEjPKv"
    },
    {
     "mangled_component_name":"_ZN7android7RefBase13onLastWeakRefEPKv"
    }
   ],
   "unique_id":"_ZTSN7android8hardware13tetheroffload7control4V1_018BnHwOffloadControlE"
  },
  {
   "vtable_components":[
    {
     "kind":"vbase_offset",
     "component_value":72
    },
    {
     "kind":"offset_to_top"
    },
    {
     "kind":"rtti",
     "mangled_component_name":"_ZTIN7android8hardware13tetheroffload7control4V1_028BnHwTetheringOffloadCallbackE"
    },
    {
     "mangled_component_name":"_ZN7android8hardware9BHwBinder8transactEjRKNS0_6ParcelEPS2_jNSt3__18functionIFvRS2_EEE"
    },
    {
     "mangled_component_name":"_ZN7android8hardware9BHwBinder11linkToDeathERKNS_2spINS0_7IBinder14DeathRecipientEEEPvj"
    },
    {
     "mangled_component_name":"_ZN7android8hardware9BHwBinder13unlinkToDeathERKNS_2wpINS0_7IBinder14DeathRecipientEEEPvjPS5_"
    },
    {
     "mangled_component_name":"_ZNK7android8hardware7IBinder13checkSubclassEPKv"
    },
    {
     "mangled_component_name":"_ZN7android8hardware9BHwBinder12attachObjectEPKvPvS4_PFvS3_S4_S4_E"
    },
    {
     "mangled_component_name":"_ZNK7android8hardware9BHwBinder10findObjectEPKv"
    },
    {
     "mangled_component_name":"_ZN7android8hardware9BHwBinder12detachObjectEPKv"
    },
    {
     "mangled_component_name":"_ZN7android8hardware9BHwBinder11localBinderEv"
    },
    {
     "mangled_component_name":"_ZN7android8hardware7IBinder12remoteBinderEv"
    },
    {
     "kind":"complete_dtor_pointer",
     "mangled_component_name":"_ZN7android8hardware13tetheroffload7control4V1_028BnHwTetheringOffloadCallbackD1Ev"
    },
    {
     "kind":"deleting_dtor_pointer",
     "mangled_component_name":"_ZN7android8hardware13tetheroffload7control4V1_028BnHwTetheringOffloadCallbackD0Ev"
    },
    {
     "mangled_component_name":"_ZN7android8hardware13tetheroffload7control4V1_028BnHwTetheringOffloadCallback10onTransactEjRKNS0_6ParcelEPS5_jNSt3__18functionIFvRS5_EEE"
    },
    {
     "kind":"offset_to_top",
     "component_value":-20
    },
    {
     "kind":"rtti",
     "mangled_component_name":"_ZTIN7android8hardware13tetheroffload7control4V1_028BnHwTetheringOffloadCallbackE"
    },
    {
     "kind":"complete_dtor_pointer",
     "mangled_component_name":"_ZThn20_N7android8hardware13tetheroffload7control4V1_028BnHwTetheringOffloadCallbackD1Ev"
    },
    {
     "kind":"deleting_dtor_pointer",
     "mangled_component_name":"_ZThn20_N7android8hardware13tetheroffload7control4V1_028BnHwTetheringOffloadCallbackD0Ev"
    },
    {
     "kind":"vcall_offset"
    },
    {
     "kind":"vcall_offset"
    },
    {
     "kind":"vcall_offset"
    },
    {
     "kind":"vcall_offset"
    },
    {
     "kind":"vcall_offset",
     "component_value":-72
    },
    {
     "kind":"offset_to_top",
     "component_value":-72
    },
    {
     "kind":"rtti",
     "mangled_component_name":"_ZTIN7android8hardware13tetheroffload7control4V1_028BnHwTetheringOffloadCallbackE"
    },
    {
     "kind":"complete_dtor_pointer",
     "mangled_component_name":"_ZTv0_n12_N7android8hardware13tetheroffload7control4V1_028BnHwTetheringOffloadCallbackD1Ev"
    },
    {
     "kind":"deleting_dtor_pointer",
     "mangled_component_name":"_ZTv0_n12_N7android8hardware13tetheroffload7control4V1_028BnHwTetheringOffloadCallbackD0Ev"
    },
    {
     "mangled_component_name":"_ZN7android7RefBase10onFirstRefEv"
    },
    {
     "mangled_component_name":"_ZN7android7RefBase15onLastStrongRefEPKv"
    },
    {
     "mangled_component_name":"_ZN7android7RefBase20onIncStrongAttemptedEjPKv"
    },
    {
     "mangled_component_name":"_ZN7android7RefBase13onLastWeakRefEPKv"
    }
   ],
   "unique_id":"_ZTSN7android8hardware13tetheroffload7control4V1_028BnHwTetheringOffloadCallbackE"
  },
  {
   "vtable_components":[
    {
     "kind":"vbase_offset",
     "component_value":84
    },
    {
     "kind":"offset_to_top"
    },
    {
     "kind":"rtti",
     "mangled_component_name":"_ZTIN7android8hardware13tetheroffload7control4V1_018BpHwOffloadControlE"
    },
    {
     "mangled_component_name":"_ZNK7android8hardware13tetheroffload7control4V1_018BpHwOffloadControl8isRemoteEv"
    },
    {
     "mangled_component_name":"_ZN7android8hardware13tetheroffload7control4V1_018BpHwOffloadControl14interfaceChainENSt3__18functionIFvRKNS0_8hidl_vecINS0_11hidl_stringEEEEEE"
    },
    {
     "mangled_component_name":"_ZN7android8hardware13tetheroffload7control4V1_018BpHwOffloadControl5debugERKNS0_11hidl_handleERKNS0_8hidl_vecINS0_11hidl_stringEEE"
    },
    {
     "mangled_component_name":"_ZN7android8hardware13tetheroffload7control4V1_018BpHwOffloadControl19interfaceDescriptorENSt3__18functionIFvRKNS0_11hidl_stringEEEE"
    },
    {
     "mangled_component_name":"_ZN7android8hardware13tetheroffload7control4V1_018BpHwOffloadControl12getHashChainENSt3__18functionIFvRKNS0_8hidl_vecINS0_10hidl_arrayIhLj32EJEEEEEEEE"
    },
    {
     "mangled_component_name":"_ZN7android8hardware13tetheroffload7control4V1_018BpHwOffloadControl21setHALInstrumentationEv"
    },
    {
     "mangled_component_name":"_ZN7android8hardware13tetheroffload7control4V1_018BpHwOffloadControl11linkToDeathERKNS_2spINS0_20hidl_death_recipientEEEy"
    },
    {
     "mangled_component_name":"_ZN7android8hardware13tetheroffload7control4V1_018BpHwOffloadControl4pingEv"
    },
    {
     "mangled_component_name":"_ZN7android8hardware13tetheroffload7control4V1_018BpHwOffloadControl12getDebugInfoENSt3__18functionIFvRKNS_4hidl4base4V1_09DebugInfoEEEE"
    },
    {
     "mangled_component_name":"_ZN7android8hardware13tetheroffload7control4V1_018BpHwOffloadControl21notifySyspropsChangedEv"
    },
    {
     "mangled_component_name":"_ZN7android8hardware13tetheroffload7control4V1_018BpHwOffloadControl13unlinkToDeathERKNS_2spINS0_20hidl_death_recipientEEE"
    },
    {
     "kind":"complete_dtor_pointer",
     "mangled_component_name":"_ZN7android8hardware13tetheroffload7control4V1_018BpHwOffloadControlD1Ev"
    },
    {
     "kind":"deleting_dtor_pointer",
     "mangled_component_name":"_ZN7android8hardware13tetheroffload7control4V1_018BpHwOffloadControlD0Ev"
    },
    {
     "mangled_component_name":"_ZN7android8hardware13tetheroffload7control4V1_018BpHwOffloadControl11initOffloadERKNS_2spINS3_25ITetheringOffloadCallbackEEENSt3__18functionIFvbRKNS0_11hidl_stringEEEE"
    },
    {
     "mangled_component_name":"_ZN7android8hardware13tetheroffload7control4V1_018BpHwOffloadControl11stopOffloadENSt3__18functionIFvbRKNS0_11hidl_stringEEEE"
    },
    {
     "mangled_component_name":"_ZN7android8hardware13tetheroffload7control4V1_018BpHwOffloadControl16setLocalPrefixesERKNS0_8hidl_vecINS0_11hidl_stringEEENSt3__18functionIFvbRKS6_EEE"
    },
    {
     "mangled_component_name":"_ZN7android8hardware13tetheroffload7control4V1_018BpHwOffloadControl17getForwardedStatsERKNS0_11hidl_stringENSt3__18functionIFvyyEEE"
    },
    {
     "mangled_component_name":"_ZN7android8hardware13tetheroffload7control4V1_018BpHwOffloadControl12setDataLimitERKNS0_11hidl_stringEyNSt3__18functionIFvbS7_EEE"
    },
    {
     "mangled_component_name":"_ZN7android8hardware13tetheroffload7control4V1_018BpHwOffloadControl21setUpstreamParametersERKNS0_11hidl_stringES7_S7_RKNS0_8hidl_vecIS5_EENSt3__18functionIFvbS7_EEE"
    },
    {
     "mangled_component_name":"_ZN7android8hardware13tetheroffload7control4V1_018BpHwOffloadControl13addDownstreamERKNS0_11hidl_stringES7_NSt3__18functionIFvbS7_EEE"
    },
    {
     "mangled_component_name":"_ZN7android8hardware13tetheroffload7control4V1_018BpHwOffloadControl16removeDownstreamERKNS0_11hidl_stringES7_NSt3__18functionIFvbS7_EEE"
    },
    {
     "mangled_component_name":"_ZN7android8hardware11BpInterfaceINS0_13tetheroffload7control4V1_015IOffloadControlEE10onAsBinderEv"
    },
    {
     "kind":"vbase_offset",
     "component_value":80
    },
    {
     "kind":"offset_to_top",
     "component_value":-4
    },
    {
     "kind":"rtti",
     "mangled_component_name":"_ZTIN7android8hardware13tetheroffload7control4V1_018BpHwOffloadControlE"
    },
    {
     "kind":"complete_dtor_pointer",
     "mangled_component_name":"_ZThn4_N7android8hardware13tetheroffload7control4V1_018BpHwOffloadControlD1Ev"
    },
    {
     "kind":"deleting_dtor_pointer",
     "mangled_component_name":"_ZThn4_N7android8hardware13tetheroffload7control4V1_018BpHwOffloadControlD0Ev"
    },
    {
     "mangled_component_name":"_ZThn4_N7android8hardware11BpInterfaceINS0_13tetheroffload7control4V1_015IOffloadControlEE10onAsBinderEv"
    },
    {
     "kind":"vbase_offset",
     "component_value":76
    },
    {
     "kind":"offset_to_top",
     "component_value":-8
    },
    {
     "kind":"rtti",
     "mangled_component_name":"_ZTIN7android8hardware13tetheroffload7control4V1_018BpHwOffloadControlE"
    },
    {
     "kind":"complete_dtor_pointer",
     "mangled_component_name":"_ZThn8_N7android8hardware13tetheroffload7control4V1_018BpHwOffloadControlD1Ev"
    },
    {
     "kind":"deleting_dtor_pointer",
     "mangled_component_name":"_ZThn8_N7android8hardware13tetheroffload7control4V1_018BpHwOffloadControlD0Ev"
    },
    {
     "mangled_component_name":"_ZN7android8hardware11BpHwRefBase10onFirstRefEv"
    },
    {
     "mangled_component_name":"_ZN7android8hardware11BpHwRefBase15onLastStrongRefEPKv"
    },
    {
     "mangled_component_name":"_ZN7android8hardware11BpHwRefBase20onIncStrongAttemptedEjPKv"
    },
    {
     "kind":"offset_to_top",
     "component_value":-24
    },
    {
     "kind":"rtti",
     "mangled_component_name":"_ZTIN7android8hardware13tetheroffload7control4V1_018BpHwOffloadControlE"
    },
    {
     "kind":"complete_dtor_pointer",
     "mangled_component_name":"_ZThn24_N7android8hardware13tetheroffload7control4V1_018BpHwOffloadControlD1Ev"
    },
    {
     "kind":"deleting_dtor_pointer",
     "mangled_component_name":"_ZThn24_N7android8hardware13tetheroffload7control4V1_018BpHwOffloadControlD0Ev"
    },
    {
     "kind":"vcall_offset"
    },
    {
     "kind":"vcall_offset",
     "component_value":-76
    },
    {
     "kind":"vcall_offset",
     "component_value":-76
    },
    {
     "kind":"vcall_offset",
     "component_value":-76
    },
    {
     "kind":"vcall_offset",
     "component_value":-84
    },
    {
     "kind":"offset_to_top",
     "component_value":-84
    },
    {
     "kind":"rtti",
     "mangled_component_name":"_ZTIN7android8hardware13tetheroffload7control4V1_018BpHwOffloadControlE"
    },
    {
     "kind":"complete_dtor_pointer",
     "mangled_component_name":"_ZTv0_n12_N7android8hardware13tetheroffload7control4V1_018BpHwOffloadControlD1Ev"
    },
    {
     "kind":"deleting_dtor_pointer",
     "mangled_component_name":"_ZTv0_n12_N7android8hardware13tetheroffload7control4V1_018BpHwOffloadControlD0Ev"
    },
    {
     "mangled_component_name":"_ZTv0_n16_N7android8hardware11BpHwRefBase10onFirstRefEv"
    },
    {
     "mangled_component_name":"_ZTv0_n20_N7android8hardware11BpHwRefBase15onLastStrongRefEPKv"
    },
    {
     "mangled_component_name":"_ZTv0_n24_N7android8hardware11BpHwRefBase20onIncStrongAttemptedEjPKv"
    },
    {
     "mangled_component_name":"_ZN7android7RefBase13onLastWeakRefEPKv"
    }
   ],
   "unique_id":"_ZTSN7android8hardware13tetheroffload7control4V1_018BpHwOffloadControlE"
  },
  {
   "vtable_components":[
    {
     "kind":"vbase_offset",
     "component_value":60
    },
    {
     "kind":"offset_to_top"
    },
    {
     "kind":"rtti",
     "mangled_component_name":"_ZTIN7android8hardware13tetheroffload7control4V1_016BsOffloadControlE"
    },
    {
     "mangled_component_name":"_ZNK7android8hardware13tetheroffload7control4V1_015IOffloadControl8isRemoteEv"
    },
    {
     "mangled_component_name":"_ZN7android8hardware13tetheroffload7control4V1_016BsOffloadControl14interfaceChainENSt3__18functionIFvRKNS0_8hidl_vecINS0_11hidl_stringEEEEEE"
    },
    {
     "mangled_component_name":"_ZN7android8hardware13tetheroffload7control4V1_016BsOffloadControl5debugERKNS0_11hidl_handleERKNS0_8hidl_vecINS0_11hidl_stringEEE"
    },
    {
     "mangled_component_name":"_ZN7android8hardware13tetheroffload7control4V1_016BsOffloadControl19interfaceDescriptorENSt3__18functionIFvRKNS0_11hidl_stringEEEE"
    },
    {
     "mangled_component_name":"_ZN7android8hardware13tetheroffload7control4V1_016BsOffloadControl12getHashChainENSt3__18functionIFvRKNS0_8hidl_vecINS0_10hidl_arrayIhLj32EJEEEEEEEE"
    },
    {
     "mangled_component_name":"_ZN7android8hardware13tetheroffload7control4V1_016BsOffloadControl21setHALInstrumentationEv"
    },
    {
     "mangled_component_name":"_ZN7android8hardware13tetheroffload7control4V1_016BsOffloadControl11linkToDeathERKNS_2spINS0_20hidl_death_recipientEEEy"
    },
    {
     "mangled_component_name":"_ZN7android8hardware13tetheroffload7control4V1_016BsOffloadControl4pingEv"
    },
    {
     "mangled_component_name":"_ZN7android8hardware13tetheroffload7control4V1_016BsOffloadControl12getDebugInfoENSt3__18functionIFvRKNS_4hidl4base4V1_09DebugInfoEEEE"
    },
    {
     "mangled_component_name":"_ZN7android8hardware13tetheroffload7control4V1_016BsOffloadControl21notifySyspropsChangedEv"
    },
    {
     "mangled_component_name":"_ZN7android8hardware13tetheroffload7control4V1_016BsOffloadControl13unlinkToDeathERKNS_2spINS0_20hidl_death_recipientEEE"
    },
    {
     "kind":"complete_dtor_pointer",
     "mangled_component_name":"_ZN7android8hardware13tetheroffload7control4V1_016BsOffloadControlD1Ev"
    },
    {
     "kind":"deleting_dtor_pointer",
     "mangled_component_name":"_ZN7android8hardware13tetheroffload7control4V1_016BsOffloadControlD0Ev"
    },
    {
     "mangled_component_name":"_ZN7android8hardware13tetheroffload7control4V1_016BsOffloadControl11initOffloadERKNS_2spINS3_25ITetheringOffloadCallbackEEENSt3__18functionIFvbRKNS0_11hidl_stringEEEE"
    },
    {
     "mangled_component_name":"_ZN7android8hardware13tetheroffload7control4V1_016BsOffloadControl11stopOffloadENSt3__18functionIFvbRKNS0_11hidl_stringEEEE"
    },
    {
     "mangled_component_name":"_ZN7android8hardware13tetheroffload7control4V1_016BsOffloadControl16setLocalPrefixesERKNS0_8hidl_vecINS0_11hidl_stringEEENSt3__18functionIFvbRKS6_EEE"
    },
    {
     "mangled_component_name":"_ZN7android8hardware13tetheroffload7control4V1_016BsOffloadControl17getForwardedStatsERKNS0_11hidl_stringENSt3__18functionIFvyyEEE"
    },
    {
     "mangled_component_name":"_ZN7android8hardware13tetheroffload7control4V1_016BsOffloadControl12setDataLimitERKNS0_11hidl_stringEyNSt3__18functionIFvbS7_EEE"
    },
    {
     "mangled_component_name":"_ZN7android8hardware13tetheroffload7control4V1_016BsOffloadControl21setUpstreamParametersERKNS0_11hidl_stringES7_S7_RKNS0_8hidl_vecIS5_EENSt3__18functionIFvbS7_EEE"
    },
    {
     "mangled_component_name":"_ZN7android8hardware13tetheroffload7control4V1_016BsOffloadControl13addDownstreamERKNS0_11hidl_stringES7_NSt3__18functionIFvbS7_EEE"
    },
    {
     "mangled_component_name":"_ZN7android8hardware13tetheroffload7control4V1_016BsOffloadControl16removeDownstreamERKNS0_11hidl_stringES7_NSt3__18functionIFvbS7_EEE"
    },
    {
     "kind":"offset_to_top",
     "component_value":-4
    },
    {
     "kind":"rtti",
     "mangled_component_name":"_ZTIN7android8hardware13tetheroffload7control4V1_016BsOffloadControlE"
    },
    {
     "kind":"complete_dtor_pointer",
     "mangled_component_name":"_ZThn4_N7android8hardware13tetheroffload7control4V1_016BsOffloadControlD1Ev"
    },
    {
     "kind":"deleting_dtor_pointer",
     "mangled_component_name":"_ZThn4_N7android8hardware13tetheroffload7control4V1_016BsOffloadControlD0Ev"
    },
    {
     "kind":"vcall_offset"
    },
    {
     "kind":"vcall_offset"
    },
    {
     "kind":"vcall_offset"
    },
    {
     "kind":"vcall_offset"
    },
    {
     "kind":"vcall_offset",
     "component_value":-60
    },
    {
     "kind":"offset_to_top",
     "component_value":-60
    },
    {
     "kind":"rtti",
     "mangled_component_name":"_ZTIN7android8hardware13tetheroffload7control4V1_016BsOffloadControlE"
    },
    {
     "kind":"complete_dtor_pointer",
     "mangled_component_name":"_ZTv0_n12_N7android8hardware13tetheroffload7control4V1_016BsOffloadControlD1Ev"
    },
    {
     "kind":"deleting_dtor_pointer",
     "mangled_component_name":"_ZTv0_n12_N7android8hardware13tetheroffload7control4V1_016BsOffloadControlD0Ev"
    },
    {
     "mangled_component_name":"_ZN7android7RefBase10onFirstRefEv"
    },
    {
     "mangled_component_name":"_ZN7android7RefBase15onLastStrongRefEPKv"
    },
    {
     "mangled_component_name":"_ZN7android7RefBase20onIncStrongAttemptedEjPKv"
    },
    {
     "mangled_component_name":"_ZN7android7RefBase13onLastWeakRefEPKv"
    }
   ],
   "unique_id":"_ZTSN7android8hardware13tetheroffload7control4V1_016BsOffloadControlE"
  },
  {
   "vtable_components":[
    {
     "kind":"vbase_offset",
     "component_value":60
    },
    {
     "kind":"offset_to_top"
    },
    {
     "kind":"rtti",
     "mangled_component_name":"_ZTIN7android8hardware13tetheroffload7control4V1_026BsTetheringOffloadCallbackE"
    },
    {
     "mangled_component_name":"_ZNK7android8hardware13tetheroffload7control4V1_025ITetheringOffloadCallback8isRemoteEv"
    },
    {
     "mangled_component_name":"_ZN7android8hardware13tetheroffload7control4V1_026BsTetheringOffloadCallback14interfaceChainENSt3__18functionIFvRKNS0_8hidl_vecINS0_11hidl_stringEEEEEE"
    },
    {
     "mangled_component_name":"_ZN7android8hardware13tetheroffload7control4V1_026BsTetheringOffloadCallback5debugERKNS0_11hidl_handleERKNS0_8hidl_vecINS0_11hidl_stringEEE"
    },
    {
     "mangled_component_name":"_ZN7android8hardware13tetheroffload7control4V1_026BsTetheringOffloadCallback19interfaceDescriptorENSt3__18functionIFvRKNS0_11hidl_stringEEEE"
    },
    {
     "mangled_component_name":"_ZN7android8hardware13tetheroffload7control4V1_026BsTetheringOffloadCallback12getHashChainENSt3__18functionIFvRKNS0_8hidl_vecINS0_10hidl_arrayIhLj32EJEEEEEEEE"
    },
    {
     "mangled_component_name":"_ZN7android8hardware13tetheroffload7control4V1_026BsTetheringOffloadCallback21setHALInstrumentationEv"
    },
    {
     "mangled_component_name":"_ZN7android8hardware13tetheroffload7control4V1_026BsTetheringOffloadCallback11linkToDeathERKNS_2spINS0_20hidl_death_recipientEEEy"
    },
    {
     "mangled_component_name":"_ZN7android8hardware13tetheroffload7control4V1_026BsTetheringOffloadCallback4pingEv"
    },
    {
     "mangled_component_name":"_ZN7android8hardware13tetheroffload7control4V1_026BsTetheringOffloadCallback12getDebugInfoENSt3__18functionIFvRKNS_4hidl4base4V1_09DebugInfoEEEE"
    },
    {
     "mangled_component_name":"_ZN7android8hardware13tetheroffload7control4V1_026BsTetheringOffloadCallback21notifySyspropsChangedEv"
    },
    {
     "mangled_component_name":"_ZN7android8hardware13tetheroffload7control4V1_026BsTetheringOffloadCallback13unlinkToDeathERKNS_2spINS0_20hidl_death_recipientEEE"
    },
    {
     "kind":"complete_dtor_pointer",
     "mangled_component_name":"_ZN7android8hardware13tetheroffload7control4V1_026BsTetheringOffloadCallbackD1Ev"
    },
    {
     "kind":"deleting_dtor_pointer",
     "mangled_component_name":"_ZN7android8hardware13tetheroffload7control4V1_026BsTetheringOffloadCallbackD0Ev"
    },
    {
     "mangled_component_name":"_ZN7android8hardware13tetheroffload7control4V1_026BsTetheringOffloadCallback7onEventENS3_20OffloadCallbackEventE"
    },
    {
     "mangled_component_name":"_ZN7android8hardware13tetheroffload7control4V1_026BsTetheringOffloadCallback13updateTimeoutERKNS3_16NatTimeoutUpdateE"
    },
    {
     "kind":"offset_to_top",
     "component_value":-4
    },
    {
     "kind":"rtti",
     "mangled_component_name":"_ZTIN7android8hardware13tetheroffload7control4V1_026BsTetheringOffloadCallbackE"
    },
    {
     "kind":"complete_dtor_pointer",
     "mangled_component_name":"_ZThn4_N7android8hardware13tetheroffload7control4V1_026BsTetheringOffloadCallbackD1Ev"
    },
    {
     "kind":"deleting_dtor_pointer",
     "mangled_component_name":"_ZThn4_N7android8hardware13tetheroffload7control4V1_026BsTetheringOffloadCallbackD0Ev"
    },
    {
     "kind":"vcall_offset"
    },
    {
     "kind":"vcall_offset"
    },
    {
     "kind":"vcall_offset"
    },
    {
     "kind":"vcall_offset"
    },
    {
     "kind":"vcall_offset",
     "component_value":-60
    },
    {
     "kind":"offset_to_top",
     "component_value":-60
    },
    {
     "kind":"rtti",
     "mangled_component_name":"_ZTIN7android8hardware13tetheroffload7control4V1_026BsTetheringOffloadCallbackE"
    },
    {
     "kind":"complete_dtor_pointer",
     "mangled_component_name":"_ZTv0_n12_N7android8hardware13tetheroffload7control4V1_026BsTetheringOffloadCallbackD1Ev"
    },
    {
     "kind":"deleting_dtor_pointer",
     "mangled_component_name":"_ZTv0_n12_N7android8hardware13tetheroffload7control4V1_026BsTetheringOffloadCallbackD0Ev"
    },
    {
     "mangled_component_name":"_ZN7android7RefBase10onFirstRefEv"
    },
    {
     "mangled_component_name":"_ZN7android7RefBase15onLastStrongRefEPKv"
    },
    {
     "mangled_component_name":"_ZN7android7RefBase20onIncStrongAttemptedEjPKv"
    },
    {
     "mangled_component_name":"_ZN7android7RefBase13onLastWeakRefEPKv"
    }
   ],
   "unique_id":"_ZTSN7android8hardware13tetheroffload7control4V1_026BsTetheringOffloadCallbackE"
  }
 ],
 "elf_functions":[
  {
   "binding":"weak",
   "name":"_ZN7android8hardware10fromBinderINS0_13tetheroffload7control4V1_025ITetheringOffloadCallbackENS4_28BpHwTetheringOffloadCallbackENS4_28BnHwTetheringOffloadCallbackEEENS_2spIT_EERKNS8_INS0_7IBinderEEE"
  },
  {
   "name":"_ZN7android8hardware13tetheroffload7control4V1_015IOffloadControl10getServiceERKNSt3__112basic_stringIcNS5_11char_traitsIcEENS5_9allocatorIcEEEEb"
  },
  {
   "name":"_ZN7android8hardware13tetheroffload7control4V1_015IOffloadControl11linkToDeathERKNS_2spINS0_20hidl_death_recipientEEEy"
  },
  {
   "name":"_ZN7android8hardware13tetheroffload7control4V1_015IOffloadControl12getDebugInfoENSt3__18functionIFvRKNS_4hidl4base4V1_09DebugInfoEEEE"
  },
  {
   "name":"_ZN7android8hardware13tetheroffload7control4V1_015IOffloadControl12getHashChainENSt3__18functionIFvRKNS0_8hidl_vecINS0_10hidl_arrayIhLj32EJEEEEEEEE"
  },
  {
   "name":"_ZN7android8hardware13tetheroffload7control4V1_015IOffloadControl13tryGetServiceERKNSt3__112basic_stringIcNS5_11char_traitsIcEENS5_9allocatorIcEEEEb"
  },
  {
   "name":"_ZN7android8hardware13tetheroffload7control4V1_015IOffloadControl13unlinkToDeathERKNS_2spINS0_20hidl_death_recipientEEE"
  },
  {
   "name":"_ZN7android8hardware13tetheroffload7control4V1_015IOffloadControl14interfaceChainENSt3__18functionIFvRKNS0_8hidl_vecINS0_11hidl_stringEEEEEE"
  },
  {
   "name":"_ZN7android8hardware13tetheroffload7control4V1_015IOffloadControl17registerAsServiceERKNSt3__112basic_stringIcNS5_11char_traitsIcEENS5_9allocatorIcEEEE"
  },
  {
   "name":"_ZN7android8hardware13tetheroffload7control4V1_015IOffloadControl19interfaceDescriptorENSt3__18functionIFvRKNS0_11hidl_stringEEEE"
  },
  {
   "name":"_ZN7android8hardware13tetheroffload7control4V1_015IOffloadControl21notifySyspropsChangedEv"
  },
  {
   "name":"_ZN7android8hardware13tetheroffload7control4V1_015IOffloadControl21setHALInstrumentationEv"
  },
  {
   "name":"_ZN7android8hardware13tetheroffload7control4V1_015IOffloadControl24registerForNotificationsERKNSt3__112basic_stringIcNS5_11char_traitsIcEENS5_9allocatorIcEEEERKNS_2spINS_4hidl7manager4V1_020IServiceNotificationEEE"
  },
  {
   "name":"_ZN7android8hardware13tetheroffload7control4V1_015IOffloadControl4pingEv"
  },
  {
   "name":"_ZN7android8hardware13tetheroffload7control4V1_015IOffloadControl5debugERKNS0_11hidl_handleERKNS0_8hidl_vecINS0_11hidl_stringEEE"
  },
  {
   "name":"_ZN7android8hardware13tetheroffload7control4V1_015IOffloadControl8castFromERKNS_2spINS_4hidl4base4V1_05IBaseEEEb"
  },
  {
   "name":"_ZN7android8hardware13tetheroffload7control4V1_015IOffloadControl8castFromERKNS_2spIS4_EEb"
  },
  {
   "name":"_ZN7android8hardware13tetheroffload7control4V1_016BsOffloadControl13addOnewayTaskENSt3__18functionIFvvEEE"
  },
  {
   "name":"_ZN7android8hardware13tetheroffload7control4V1_016BsOffloadControlC1ENS_2spINS3_15IOffloadControlEEE"
  },
  {
   "name":"_ZN7android8hardware13tetheroffload7control4V1_016BsOffloadControlC2ENS_2spINS3_15IOffloadControlEEE"
  },
  {
   "name":"_ZN7android8hardware13tetheroffload7control4V1_018BnHwOffloadControl10onTransactEjRKNS0_6ParcelEPS5_jNSt3__18functionIFvRS5_EEE"
  },
  {
   "name":"_ZN7android8hardware13tetheroffload7control4V1_018BnHwOffloadControl12getDebugInfoENSt3__18functionIFvRKNS_4hidl4base4V1_09DebugInfoEEEE"
  },
  {
   "name":"_ZN7android8hardware13tetheroffload7control4V1_018BnHwOffloadControl17_hidl_initOffloadEPNS_4hidl4base4V1_08BnHwBaseERKNS0_6ParcelEPSA_NSt3__18functionIFvRSA_EEE"
  },
  {
   "name":"_ZN7android8hardware13tetheroffload7control4V1_018BnHwOffloadControl17_hidl_stopOffloadEPNS_4hidl4base4V1_08BnHwBaseERKNS0_6ParcelEPSA_NSt3__18functionIFvRSA_EEE"
  },
  {
   "name":"_ZN7android8hardware13tetheroffload7control4V1_018BnHwOffloadControl18_hidl_setDataLimitEPNS_4hidl4base4V1_08BnHwBaseERKNS0_6ParcelEPSA_NSt3__18functionIFvRSA_EEE"
  },
  {
   "name":"_ZN7android8hardware13tetheroffload7control4V1_018BnHwOffloadControl19_hidl_addDownstreamEPNS_4hidl4base4V1_08BnHwBaseERKNS0_6ParcelEPSA_NSt3__18functionIFvRSA_EEE"
  },
  {
   "name":"_ZN7android8hardware13tetheroffload7control4V1_018BnHwOffloadControl22_hidl_removeDownstreamEPNS_4hidl4base4V1_08BnHwBaseERKNS0_6ParcelEPSA_NSt3__18functionIFvRSA_EEE"
  },
  {
   "name":"_ZN7android8hardware13tetheroffload7control4V1_018BnHwOffloadControl22_hidl_setLocalPrefixesEPNS_4hidl4base4V1_08BnHwBaseERKNS0_6ParcelEPSA_NSt3__18functionIFvRSA_EEE"
  },
  {
   "name":"_ZN7android8hardware13tetheroffload7control4V1_018BnHwOffloadControl23_hidl_getForwardedStatsEPNS_4hidl4base4V1_08BnHwBaseERKNS0_6ParcelEPSA_NSt3__18functionIFvRSA_EEE"
  },
  {
   "name":"_ZN7android8hardware13tetheroffload7control4V1_018BnHwOffloadControl27_hidl_setUpstreamParametersEPNS_4hidl4base4V1_08BnHwBaseERKNS0_6ParcelEPSA_NSt3__18functionIFvRSA_EEE"
  },
  {
   "name":"_ZN7android8hardware13tetheroffload7control4V1_018BnHwOffloadControl4pingEv"
  },
  {
   "name":"_ZN7android8hardware13tetheroffload7control4V1_018BnHwOffloadControlC1ERKNS_2spINS3_15IOffloadControlEEE"
  },
  {
   "name":"_ZN7android8hardware13tetheroffload7control4V1_018BnHwOffloadControlC2ERKNS_2spINS3_15IOffloadControlEEE"
  },
  {
   "name":"_ZN7android8hardware13tetheroffload7control4V1_018BnHwOffloadControlD0Ev"
  },
  {
   "name":"_ZN7android8hardware13tetheroffload7control4V1_018BnHwOffloadControlD1Ev"
  },
  {
   "name":"_ZN7android8hardware13tetheroffload7control4V1_018BnHwOffloadControlD2Ev"
  },
  {
   "name":"_ZN7android8hardware13tetheroffload7control4V1_018BpHwOffloadControl11initOffloadERKNS_2spINS3_25ITetheringOffloadCallbackEEENSt3__18functionIFvbRKNS0_11hidl_stringEEEE"
  },
  {
   "name":"_ZN7android8hardware13tetheroffload7control4V1_018BpHwOffloadControl11linkToDeathERKNS_2spINS0_20hidl_death_recipientEEEy"
  },
  {
   "name":"_ZN7android8hardware13tetheroffload7control4V1_018BpHwOffloadControl11stopOffloadENSt3__18functionIFvbRKNS0_11hidl_stringEEEE"
  },
  {
   "name":"_ZN7android8hardware13tetheroffload7control4V1_018BpHwOffloadControl12getDebugInfoENSt3__18functionIFvRKNS_4hidl4base4V1_09DebugInfoEEEE"
  },
  {
   "name":"_ZN7android8hardware13tetheroffload7control4V1_018BpHwOffloadControl12getHashChainENSt3__18functionIFvRKNS0_8hidl_vecINS0_10hidl_arrayIhLj32EJEEEEEEEE"
  },
  {
   "name":"_ZN7android8hardware13tetheroffload7control4V1_018BpHwOffloadControl12setDataLimitERKNS0_11hidl_stringEyNSt3__18functionIFvbS7_EEE"
  },
  {
   "name":"_ZN7android8hardware13tetheroffload7control4V1_018BpHwOffloadControl13addDownstreamERKNS0_11hidl_stringES7_NSt3__18functionIFvbS7_EEE"
  },
  {
   "name":"_ZN7android8hardware13tetheroffload7control4V1_018BpHwOffloadControl13unlinkToDeathERKNS_2spINS0_20hidl_death_recipientEEE"
  },
  {
   "name":"_ZN7android8hardware13tetheroffload7control4V1_018BpHwOffloadControl14interfaceChainENSt3__18functionIFvRKNS0_8hidl_vecINS0_11hidl_stringEEEEEE"
  },
  {
   "name":"_ZN7android8hardware13tetheroffload7control4V1_018BpHwOffloadControl16removeDownstreamERKNS0_11hidl_stringES7_NSt3__18functionIFvbS7_EEE"
  },
  {
   "name":"_ZN7android8hardware13tetheroffload7control4V1_018BpHwOffloadControl16setLocalPrefixesERKNS0_8hidl_vecINS0_11hidl_stringEEENSt3__18functionIFvbRKS6_EEE"
  },
  {
   "name":"_ZN7android8hardware13tetheroffload7control4V1_018BpHwOffloadControl17_hidl_initOffloadEPNS0_10IInterfaceEPNS0_7details16HidlInstrumentorERKNS_2spINS3_25ITetheringOffloadCallbackEEENSt3__18functionIFvbRKNS0_11hidl_stringEEEE"
  },
  {
   "name":"_ZN7android8hardware13tetheroffload7control4V1_018BpHwOffloadControl17_hidl_stopOffloadEPNS0_10IInterfaceEPNS0_7details16HidlInstrumentorENSt3__18functionIFvbRKNS0_11hidl_stringEEEE"
  },
  {
   "name":"_ZN7android8hardware13tetheroffload7control4V1_018BpHwOffloadControl17getForwardedStatsERKNS0_11hidl_stringENSt3__18functionIFvyyEEE"
  },
  {
   "name":"_ZN7android8hardware13tetheroffload7control4V1_018BpHwOffloadControl18_hidl_setDataLimitEPNS0_10IInterfaceEPNS0_7details16HidlInstrumentorERKNS0_11hidl_stringEyNSt3__18functionIFvbSC_EEE"
  },
  {
   "name":"_ZN7android8hardware13tetheroffload7control4V1_018BpHwOffloadControl19_hidl_addDownstreamEPNS0_10IInterfaceEPNS0_7details16HidlInstrumentorERKNS0_11hidl_stringESC_NSt3__18functionIFvbSC_EEE"
  },
  {
   "name":"_ZN7android8hardware13tetheroffload7control4V1_018BpHwOffloadControl19interfaceDescriptorENSt3__18functionIFvRKNS0_11hidl_stringEEEE"
  },
  {
   "name":"_ZN7android8hardware13tetheroffload7control4V1_018BpHwOffloadControl21notifySyspropsChangedEv"
  },
  {
   "name":"_ZN7android8hardware13tetheroffload7control4V1_018BpHwOffloadControl21setHALInstrumentationEv"
  },
  {
   "name":"_ZN7android8hardware13tetheroffload7control4V1_018BpHwOffloadControl21setUpstreamParametersERKNS0_11hidl_stringES7_S7_RKNS0_8hidl_vecIS5_EENSt3__18functionIFvbS7_EEE"
  },
  {
   "name":"_ZN7android8hardware13tetheroffload7control4V1_018BpHwOffloadControl22_hidl_removeDownstreamEPNS0_10IInterfaceEPNS0_7details16HidlInstrumentorERKNS0_11hidl_stringESC_NSt3__18functionIFvbSC_EEE"
  },
  {
   "name":"_ZN7android8hardware13tetheroffload7control4V1_018BpHwOffloadControl22_hidl_setLocalPrefixesEPNS0_10IInterfaceEPNS0_7details16HidlInstrumentorERKNS0_8hidl_vecINS0_11hidl_stringEEENSt3__18functionIFvbRKSB_EEE"
  },
  {
   "name":"_ZN7android8hardware13tetheroffload7control4V1_018BpHwOffloadControl23_hidl_getForwardedStatsEPNS0_10IInterfaceEPNS0_7details16HidlInstrumentorERKNS0_11hidl_stringENSt3__18functionIFvyyEEE"
  },
  {
   "name":"_ZN7android8hardware13tetheroffload7control4V1_018BpHwOffloadControl27_hidl_setUpstreamParametersEPNS0_10IInterfaceEPNS0_7details16HidlInstrumentorERKNS0_11hidl_stringESC_SC_RKNS0_8hidl_vecISA_EENSt3__18functionIFvbSC_EEE"
  },
  {
   "name":"_ZN7android8hardware13tetheroffload7control4V1_018BpHwOffloadControl4pingEv"
  },
  {
   "name":"_ZN7android8hardware13tetheroffload7control4V1_018BpHwOffloadControl5debugERKNS0_11hidl_handleERKNS0_8hidl_vecINS0_11hidl_stringEEE"
  },
  {
   "name":"_ZN7android8hardware13tetheroffload7control4V1_018BpHwOffloadControlC1ERKNS_2spINS0_7IBinderEEE"
  },
  {
   "name":"_ZN7android8hardware13tetheroffload7control4V1_018BpHwOffloadControlC2ERKNS_2spINS0_7IBinderEEE"
  },
  {
   "name":"_ZN7android8hardware13tetheroffload7control4V1_021writeEmbeddedToParcelERKNS3_16IPv4AddrPortPairEPNS0_6ParcelEjj"
  },
  {
   "name":"_ZN7android8hardware13tetheroffload7control4V1_021writeEmbeddedToParcelERKNS3_16NatTimeoutUpdateEPNS0_6ParcelEjj"
  },
  {
   "name":"_ZN7android8hardware13tetheroffload7control4V1_022readEmbeddedFromParcelERKNS3_16IPv4AddrPortPairERKNS0_6ParcelEjj"
  },
  {
   "name":"_ZN7android8hardware13tetheroffload7control4V1_022readEmbeddedFromParcelERKNS3_16NatTimeoutUpdateERKNS0_6ParcelEjj"
  },
  {
   "name":"_ZN7android8hardware13tetheroffload7control4V1_025ITetheringOffloadCallback10getServiceERKNSt3__112basic_stringIcNS5_11char_traitsIcEENS5_9allocatorIcEEEEb"
  },
  {
   "name":"_ZN7android8hardware13tetheroffload7control4V1_025ITetheringOffloadCallback11linkToDeathERKNS_2spINS0_20hidl_death_recipientEEEy"
  },
  {
   "name":"_ZN7android8hardware13tetheroffload7control4V1_025ITetheringOffloadCallback12getDebugInfoENSt3__18functionIFvRKNS_4hidl4base4V1_09DebugInfoEEEE"
  },
  {
   "name":"_ZN7android8hardware13tetheroffload7control4V1_025ITetheringOffloadCallback12getHashChainENSt3__18functionIFvRKNS0_8hidl_vecINS0_10hidl_arrayIhLj32EJEEEEEEEE"
  },
  {
   "name":"_ZN7android8hardware13tetheroffload7control4V1_025ITetheringOffloadCallback13tryGetServiceERKNSt3__112basic_stringIcNS5_11char_traitsIcEENS5_9allocatorIcEEEEb"
  },
  {
   "name":"_ZN7android8hardware13tetheroffload7control4V1_025ITetheringOffloadCallback13unlinkToDeathERKNS_2spINS0_20hidl_death_recipientEEE"
  },
  {
   "name":"_ZN7android8hardware13tetheroffload7control4V1_025ITetheringOffloadCallback14interfaceChainENSt3__18functionIFvRKNS0_8hidl_vecINS0_11hidl_stringEEEEEE"
  },
  {
   "name":"_ZN7android8hardware13tetheroffload7control4V1_025ITetheringOffloadCallback17registerAsServiceERKNSt3__112basic_stringIcNS5_11char_traitsIcEENS5_9allocatorIcEEEE"
  },
  {
   "name":"_ZN7android8hardware13tetheroffload7control4V1_025ITetheringOffloadCallback19interfaceDescriptorENSt3__18functionIFvRKNS0_11hidl_stringEEEE"
  },
  {
   "name":"_ZN7android8hardware13tetheroffload7control4V1_025ITetheringOffloadCallback21notifySyspropsChangedEv"
  },
  {
   "name":"_ZN7android8hardware13tetheroffload7control4V1_025ITetheringOffloadCallback21setHALInstrumentationEv"
  },
  {
   "name":"_ZN7android8hardware13tetheroffload7control4V1_025ITetheringOffloadCallback24registerForNotificationsERKNSt3__112basic_stringIcNS5_11char_traitsIcEENS5_9allocatorIcEEEERKNS_2spINS_4hidl7manager4V1_020IServiceNotificationEEE"
  },
  {
   "name":"_ZN7android8hardware13tetheroffload7control4V1_025ITetheringOffloadCallback4pingEv"
  },
  {
   "name":"_ZN7android8hardware13tetheroffload7control4V1_025ITetheringOffloadCallback5debugERKNS0_11hidl_handleERKNS0_8hidl_vecINS0_11hidl_stringEEE"
  },
  {
   "name":"_ZN7android8hardware13tetheroffload7control4V1_025ITetheringOffloadCallback8castFromERKNS_2spINS_4hidl4base4V1_05IBaseEEEb"
  },
  {
   "name":"_ZN7android8hardware13tetheroffload7control4V1_025ITetheringOffloadCallback8castFromERKNS_2spIS4_EEb"
  },
  {
   "name":"_ZN7android8hardware13tetheroffload7control4V1_026BsTetheringOffloadCallback13addOnewayTaskENSt3__18functionIFvvEEE"
  },
  {
   "name":"_ZN7android8hardware13tetheroffload7control4V1_026BsTetheringOffloadCallbackC1ENS_2spINS3_25ITetheringOffloadCallbackEEE"
  },
  {
   "name":"_ZN7android8hardware13tetheroffload7control4V1_026BsTetheringOffloadCallbackC2ENS_2spINS3_25ITetheringOffloadCallbackEEE"
  },
  {
   "name":"_ZN7android8hardware13tetheroffload7control4V1_028BnHwTetheringOffloadCallback10onTransactEjRKNS0_6ParcelEPS5_jNSt3__18functionIFvRS5_EEE"
  },
  {
   "name":"_ZN7android8hardware13tetheroffload7control4V1_028BnHwTetheringOffloadCallback12getDebugInfoENSt3__18functionIFvRKNS_4hidl4base4V1_09DebugInfoEEEE"
  },
  {
   "name":"_ZN7android8hardware13tetheroffload7control4V1_028BnHwTetheringOffloadCallback13_hidl_onEventEPNS_4hidl4base4V1_08BnHwBaseERKNS0_6ParcelEPSA_NSt3__18functionIFvRSA_EEE"
  },
  {
   "name":"_ZN7android8hardware13tetheroffload7control4V1_028BnHwTetheringOffloadCallback19_hidl_updateTimeoutEPNS_4hidl4base4V1_08BnHwBaseERKNS0_6ParcelEPSA_NSt3__18functionIFvRSA_EEE"
  },
  {
   "name":"_ZN7android8hardware13tetheroffload7control4V1_028BnHwTetheringOffloadCallback4pingEv"
  },
  {
   "name":"_ZN7android8hardware13tetheroffload7control4V1_028BnHwTetheringOffloadCallbackC1ERKNS_2spINS3_25ITetheringOffloadCallbackEEE"
  },
  {
   "name":"_ZN7android8hardware13tetheroffload7control4V1_028BnHwTetheringOffloadCallbackC2ERKNS_2spINS3_25ITetheringOffloadCallbackEEE"
  },
  {
   "name":"_ZN7android8hardware13tetheroffload7control4V1_028BnHwTetheringOffloadCallbackD0Ev"
  },
  {
   "name":"_ZN7android8hardware13tetheroffload7control4V1_028BnHwTetheringOffloadCallbackD1Ev"
  },
  {
   "name":"_ZN7android8hardware13tetheroffload7control4V1_028BnHwTetheringOffloadCallbackD2Ev"
  },
  {
   "name":"_ZN7android8hardware13tetheroffload7control4V1_028BpHwTetheringOffloadCallback11linkToDeathERKNS_2spINS0_20hidl_death_recipientEEEy"
  },
  {
   "name":"_ZN7android8hardware13tetheroffload7control4V1_028BpHwTetheringOffloadCallback12getDebugInfoENSt3__18functionIFvRKNS_4hidl4base4V1_09DebugInfoEEEE"
  },
  {
   "name":"_ZN7android8hardware13tetheroffload7control4V1_028BpHwTetheringOffloadCallback12getHashChainENSt3__18functionIFvRKNS0_8hidl_vecINS0_10hidl_arrayIhLj32EJEEEEEEEE"
  },
  {
   "name":"_ZN7android8hardware13tetheroffload7control4V1_028BpHwTetheringOffloadCallback13_hidl_onEventEPNS0_10IInterfaceEPNS0_7details16HidlInstrumentorENS3_20OffloadCallbackEventE"
  },
  {
   "name":"_ZN7android8hardware13tetheroffload7control4V1_028BpHwTetheringOffloadCallback13unlinkToDeathERKNS_2spINS0_20hidl_death_recipientEEE"
  },
  {
   "name":"_ZN7android8hardware13tetheroffload7control4V1_028BpHwTetheringOffloadCallback13updateTimeoutERKNS3_16NatTimeoutUpdateE"
  },
  {
   "name":"_ZN7android8hardware13tetheroffload7control4V1_028BpHwTetheringOffloadCallback14interfaceChainENSt3__18functionIFvRKNS0_8hidl_vecINS0_11hidl_stringEEEEEE"
  },
  {
   "name":"_ZN7android8hardware13tetheroffload7control4V1_028BpHwTetheringOffloadCallback19_hidl_updateTimeoutEPNS0_10IInterfaceEPNS0_7details16HidlInstrumentorERKNS3_16NatTimeoutUpdateE"
  },
  {
   "name":"_ZN7android8hardware13tetheroffload7control4V1_028BpHwTetheringOffloadCallback19interfaceDescriptorENSt3__18functionIFvRKNS0_11hidl_stringEEEE"
  },
  {
   "name":"_ZN7android8hardware13tetheroffload7control4V1_028BpHwTetheringOffloadCallback21notifySyspropsChangedEv"
  },
  {
   "name":"_ZN7android8hardware13tetheroffload7control4V1_028BpHwTetheringOffloadCallback21setHALInstrumentationEv"
  },
  {
   "name":"_ZN7android8hardware13tetheroffload7control4V1_028BpHwTetheringOffloadCallback4pingEv"
  },
  {
   "name":"_ZN7android8hardware13tetheroffload7control4V1_028BpHwTetheringOffloadCallback5debugERKNS0_11hidl_handleERKNS0_8hidl_vecINS0_11hidl_stringEEE"
  },
  {
   "name":"_ZN7android8hardware13tetheroffload7control4V1_028BpHwTetheringOffloadCallback7onEventENS3_20OffloadCallbackEventE"
  },
  {
   "name":"_ZN7android8hardware13tetheroffload7control4V1_028BpHwTetheringOffloadCallbackC1ERKNS_2spINS0_7IBinderEEE"
  },
  {
   "name":"_ZN7android8hardware13tetheroffload7control4V1_028BpHwTetheringOffloadCallbackC2ERKNS_2spINS0_7IBinderEEE"
  },
  {
   "binding":"weak",
   "name":"_ZN7android8hardware7details13castInterfaceINS0_13tetheroffload7control4V1_015IOffloadControlENS_4hidl4base4V1_05IBaseENS5_18BpHwOffloadControlEEENS0_6ReturnINS_2spIT_EEEENSD_IT0_EEPKcb"
  },
  {
   "binding":"weak",
   "name":"_ZN7android8hardware7details13castInterfaceINS0_13tetheroffload7control4V1_025ITetheringOffloadCallbackENS_4hidl4base4V1_05IBaseENS5_28BpHwTetheringOffloadCallbackEEENS0_6ReturnINS_2spIT_EEEENSD_IT0_EEPKcb"
  },
  {
   "binding":"weak",
   "name":"_ZN7android8hardware7details15wrapPassthroughINS0_13tetheroffload7control4V1_025ITetheringOffloadCallbackEvEENS_2spIT_EES9_"
  },
  {
   "binding":"weak",
   "name":"_ZN7android8hardware7details18getServiceInternalINS0_13tetheroffload7control4V1_018BpHwOffloadControlENS5_15IOffloadControlEvvEENS_2spIT0_EERKNSt3__112basic_stringIcNSB_11char_traitsIcEENSB_9allocatorIcEEEEbb"
  },
  {
   "binding":"weak",
   "name":"_ZN7android8hardware7details18getServiceInternalINS0_13tetheroffload7control4V1_028BpHwTetheringOffloadCallbackENS5_25ITetheringOffloadCallbackEvvEENS_2spIT0_EERKNSt3__112basic_stringIcNSB_11char_traitsIcEENSB_9allocatorIcEEEEbb"
  },
  {
   "binding":"weak",
   "name":"_ZN7android8hardware8toBinderINS0_13tetheroffload7control4V1_025ITetheringOffloadCallbackEvEENS_2spINS0_7IBinderEEENS6_IT_EE"
  },
  {
   "binding":"weak",
   "name":"_ZN7android8hardware8toBinderINS_4hidl4base4V1_05IBaseEvEENS_2spINS0_7IBinderEEENS6_IT_EE"
  },
  {
   "name":"_ZThn20_N7android8hardware13tetheroffload7control4V1_018BnHwOffloadControlD0Ev"
  },
  {
   "name":"_ZThn20_N7android8hardware13tetheroffload7control4V1_018BnHwOffloadControlD1Ev"
  },
  {
   "name":"_ZThn20_N7android8hardware13tetheroffload7control4V1_028BnHwTetheringOffloadCallbackD0Ev"
  },
  {
   "name":"_ZThn20_N7android8hardware13tetheroffload7control4V1_028BnHwTetheringOffloadCallbackD1Ev"
  },
  {
   "name":"_ZTv0_n12_N7android8hardware13tetheroffload7control4V1_018BnHwOffloadControlD0Ev"
  },
  {
   "name":"_ZTv0_n12_N7android8hardware13tetheroffload7control4V1_018BnHwOffloadControlD1Ev"
  },
  {
   "name":"_ZTv0_n12_N7android8hardware13tetheroffload7control4V1_028BnHwTetheringOffloadCallbackD0Ev"
  },
  {
   "name":"_ZTv0_n12_N7android8hardware13tetheroffload7control4V1_028BnHwTetheringOffloadCallbackD1Ev"
  }
 ],
 "elf_objects":[
  {
   "name":"_ZN7android8hardware13tetheroffload7control4V1_015IOffloadControl10descriptorE"
  },
  {
   "name":"_ZN7android8hardware13tetheroffload7control4V1_025ITetheringOffloadCallback10descriptorE"
  },
  {
   "name":"_ZTTN7android8hardware13tetheroffload7control4V1_015IOffloadControlE"
  },
  {
   "name":"_ZTTN7android8hardware13tetheroffload7control4V1_018BnHwOffloadControlE"
  },
  {
   "name":"_ZTTN7android8hardware13tetheroffload7control4V1_018BpHwOffloadControlE"
  },
  {
   "name":"_ZTTN7android8hardware13tetheroffload7control4V1_025ITetheringOffloadCallbackE"
  },
  {
   "name":"_ZTTN7android8hardware13tetheroffload7control4V1_028BnHwTetheringOffloadCallbackE"
  },
  {
   "name":"_ZTTN7android8hardware13tetheroffload7control4V1_028BpHwTetheringOffloadCallbackE"
  },
  {
   "name":"_ZTVN7android8hardware13tetheroffload7control4V1_015IOffloadControlE"
  },
  {
   "binding":"weak",
   "name":"_ZTVN7android8hardware13tetheroffload7control4V1_016BsOffloadControlE"
  },
  {
   "name":"_ZTVN7android8hardware13tetheroffload7control4V1_018BnHwOffloadControlE"
  },
  {
   "name":"_ZTVN7android8hardware13tetheroffload7control4V1_018BpHwOffloadControlE"
  },
  {
   "name":"_ZTVN7android8hardware13tetheroffload7control4V1_025ITetheringOffloadCallbackE"
  },
  {
   "binding":"weak",
   "name":"_ZTVN7android8hardware13tetheroffload7control4V1_026BsTetheringOffloadCallbackE"
  },
  {
   "name":"_ZTVN7android8hardware13tetheroffload7control4V1_028BnHwTetheringOffloadCallbackE"
  },
  {
   "name":"_ZTVN7android8hardware13tetheroffload7control4V1_028BpHwTetheringOffloadCallbackE"
  }
 ]
}