{
 "record_types":[
  {
   "vtable_components":[
    {
     "kind":"vbase_offset",
     "component_value":72
    },
    {
     "kind":"offset_to_top"
    },
    {
     "kind":"rtti",
     "mangled_component_name":"_ZTIN7android8hardware14broadcastradio4V2_018BnHwBroadcastRadioE"
    },
    {
     "mangled_component_name":"_ZN7android8hardware9BHwBinder8transactEjRKNS0_6ParcelEPS2_jNSt3__18functionIFvRS2_EEE"
    },
    {
     "mangled_component_name":"_ZN7android8hardware9BHwBinder11linkToDeathERKNS_2spINS0_7IBinder14DeathRecipientEEEPvj"
    },
    {
     "mangled_component_name":"_ZN7android8hardware9BHwBinder13unlinkToDeathERKNS_2wpINS0_7IBinder14DeathRecipientEEEPvjPS5_"
    },
    {
     "mangled_component_name":"_ZNK7android8hardware7IBinder13checkSubclassEPKv"
    },
    {
     "mangled_component_name":"_ZN7android8hardware9BHwBinder12attachObjectEPKvPvS4_PFvS3_S4_S4_E"
    },
    {
     "mangled_component_name":"_ZNK7android8hardware9BHwBinder10findObjectEPKv"
    },
    {
     "mangled_component_name":"_ZN7android8hardware9BHwBinder12detachObjectEPKv"
    },
    {
     "mangled_component_name":"_ZN7android8hardware9BHwBinder11localBinderEv"
    },
    {
     "mangled_component_name":"_ZN7android8hardware7IBinder12remoteBinderEv"
    },
    {
     "kind":"complete_dtor_pointer",
     "mangled_component_name":"_ZN7android8hardware14broadcastradio4V2_018BnHwBroadcastRadioD1Ev"
    },
    {
     "kind":"deleting_dtor_pointer",
     "mangled_component_name":"_ZN7android8hardware14broadcastradio4V2_018BnHwBroadcastRadioD0Ev"
    },
    {
     "mangled_component_name":"_ZN7android8hardware14broadcastradio4V2_018BnHwBroadcastRadio10onTransactEjRKNS0_6ParcelEPS4_jNSt3__18functionIFvRS4_EEE"
    },
    {
     "kind":"offset_to_top",
     "component_value":-20
    },
    {
     "kind":"rtti",
     "mangled_component_name":"_ZTIN7android8hardware14broadcastradio4V2_018BnHwBroadcastRadioE"
    },
    {
     "kind":"complete_dtor_pointer",
     "mangled_component_name":"_ZThn20_N7android8hardware14broadcastradio4V2_018BnHwBroadcastRadioD1Ev"
    },
    {
     "kind":"deleting_dtor_pointer",
     "mangled_component_name":"_ZThn20_N7android8hardware14broadcastradio4V2_018BnHwBroadcastRadioD0Ev"
    },
    {
     "kind":"vcall_offset"
    },
    {
     "kind":"vcall_offset"
    },
    {
     "kind":"vcall_offset"
    },
    {
     "kind":"vcall_offset"
    },
    {
     "kind":"vcall_offset",
     "component_value":-72
    },
    {
     "kind":"offset_to_top",
     "component_value":-72
    },
    {
     "kind":"rtti",
     "mangled_component_name":"_ZTIN7android8hardware14broadcastradio4V2_018BnHwBroadcastRadioE"
    },
    {
     "kind":"complete_dtor_pointer",
     "mangled_component_name":"_ZTv0_n12_N7android8hardware14broadcastradio4V2_018BnHwBroadcastRadioD1Ev"
    },
    {
     "kind":"deleting_dtor_pointer",
     "mangled_component_name":"_ZTv0_n12_N7android8hardware14broadcastradio4V2_018BnHwBroadcastRadioD0Ev"
    },
    {
     "mangled_component_name":"_ZN7android7RefBase10onFirstRefEv"
    },
    {
     "mangled_component_name":"_ZN7android7RefBase15onLastStrongRefEPKv"
    },
    {
     "mangled_component_name":"_ZN7android7RefBase20onIncStrongAttemptedEjPKv"
    },
    {
     "mangled_component_name":"_ZN7android7RefBase13onLastWeakRefEPKv"
    }
   ],
   "unique_id":"_ZTSN7android8hardware14broadcastradio4V2_018BnHwBroadcastRadioE"
  },
  {
   "vtable_components":[
    {
     "kind":"vbase_offset",
     "component_value":60
    },
    {
     "kind":"offset_to_top"
    },
    {
     "kind":"rtti",
     "mangled_component_name":"_ZTIN7android8hardware14broadcastradio4V2_016BsBroadcastRadioE"
    },
    {
     "mangled_component_name":"_ZNK7android8hardware14broadcastradio4V2_015IBroadcastRadio8isRemoteEv"
    },
    {
     "mangled_component_name":"_ZN7android8hardware14broadcastradio4V2_016BsBroadcastRadio14interfaceChainENSt3__18functionIFvRKNS0_8hidl_vecINS0_11hidl_stringEEEEEE"
    },
    {
     "mangled_component_name":"_ZN7android8hardware14broadcastradio4V2_016BsBroadcastRadio5debugERKNS0_11hidl_handleERKNS0_8hidl_vecINS0_11hidl_stringEEE"
    },
    {
     "mangled_component_name":"_ZN7android8hardware14broadcastradio4V2_016BsBroadcastRadio19interfaceDescriptorENSt3__18functionIFvRKNS0_11hidl_stringEEEE"
    },
    {
     "mangled_component_name":"_ZN7android8hardware14broadcastradio4V2_016BsBroadcastRadio12getHashChainENSt3__18functionIFvRKNS0_8hidl_vecINS0_10hidl_arrayIhLj32EJEEEEEEEE"
    },
    {
     "mangled_component_name":"_ZN7android8hardware14broadcastradio4V2_016BsBroadcastRadio21setHALInstrumentationEv"
    },
    {
     "mangled_component_name":"_ZN7android8hardware14broadcastradio4V2_016BsBroadcastRadio11linkToDeathERKNS_2spINS0_20hidl_death_recipientEEEy"
    },
    {
     "mangled_component_name":"_ZN7android8hardware14broadcastradio4V2_016BsBroadcastRadio4pingEv"
    },
    {
     "mangled_component_name":"_ZN7android8hardware14broadcastradio4V2_016BsBroadcastRadio12getDebugInfoENSt3__18functionIFvRKNS_4hidl4base4V1_09DebugInfoEEEE"
    },
    {
     "mangled_component_name":"_ZN7android8hardware14broadcastradio4V2_016BsBroadcastRadio21notifySyspropsChangedEv"
    },
    {
     "mangled_component_name":"_ZN7android8hardware14broadcastradio4V2_016BsBroadcastRadio13unlinkToDeathERKNS_2spINS0_20hidl_death_recipientEEE"
    },
    {
     "kind":"complete_dtor_pointer",
     "mangled_component_name":"_ZN7android8hardware14broadcastradio4V2_016BsBroadcastRadioD1Ev"
    },
    {
     "kind":"deleting_dtor_pointer",
     "mangled_component_name":"_ZN7android8hardware14broadcastradio4V2_016BsBroadcastRadioD0Ev"
    },
    {
     "mangled_component_name":"_ZN7android8hardware14broadcastradio4V2_016BsBroadcastRadio13getPropertiesENSt3__18functionIFvRKNS2_10PropertiesEEEE"
    },
    {
     "mangled_component_name":"_ZN7android8hardware14broadcastradio4V2_016BsBroadcastRadio19getAmFmRegionConfigEbNSt3__18functionIFvNS2_6ResultERKNS2_16AmFmRegionConfigEEEE"
    },
    {
     "mangled_component_name":"_ZN7android8hardware14broadcastradio4V2_016BsBroadcastRadio18getDabRegionConfigENSt3__18functionIFvNS2_6ResultERKNS0_8hidl_vecINS2_13DabTableEntryEEEEEE"
    },
    {
     "mangled_component_name":"_ZN7android8hardware14broadcastradio4V2_016BsBroadcastRadio11openSessionERKNS_2spINS2_14ITunerCallbackEEENSt3__18functionIFvNS2_6ResultERKNS4_INS2_13ITunerSessionEEEEEE"
    },
    {
     "mangled_component_name":"_ZN7android8hardware14broadcastradio4V2_016BsBroadcastRadio8getImageEjNSt3__18functionIFvRKNS0_8hidl_vecIhEEEEE"
    },
    {
     "mangled_component_name":"_ZN7android8hardware14broadcastradio4V2_016BsBroadcastRadio28registerAnnouncementListenerERKNS0_8hidl_vecINS2_16AnnouncementTypeEEERKNS_2spINS2_21IAnnouncementListenerEEENSt3__18functionIFvNS2_6ResultERKNS9_INS2_12ICloseHandleEEEEEE"
    },
    {
     "kind":"offset_to_top",
     "component_value":-4
    },
    {
     "kind":"rtti",
     "mangled_component_name":"_ZTIN7android8hardware14broadcastradio4V2_016BsBroadcastRadioE"
    },
    {
     "kind":"complete_dtor_pointer",
     "mangled_component_name":"_ZThn4_N7android8hardware14broadcastradio4V2_016BsBroadcastRadioD1Ev"
    },
    {
     "kind":"deleting_dtor_pointer",
     "mangled_component_name":"_ZThn4_N7android8hardware14broadcastradio4V2_016BsBroadcastRadioD0Ev"
    },
    {
     "kind":"vcall_offset"
    },
    {
     "kind":"vcall_offset"
    },
    {
     "kind":"vcall_offset"
    },
    {
     "kind":"vcall_offset"
    },
    {
     "kind":"vcall_offset",
     "component_value":-60
    },
    {
     "kind":"offset_to_top",
     "component_value":-60
    },
    {
     "kind":"rtti",
     "mangled_component_name":"_ZTIN7android8hardware14broadcastradio4V2_016BsBroadcastRadioE"
    },
    {
     "kind":"complete_dtor_pointer",
     "mangled_component_name":"_ZTv0_n12_N7android8hardware14broadcastradio4V2_016BsBroadcastRadioD1Ev"
    },
    {
     "kind":"deleting_dtor_pointer",
     "mangled_component_name":"_ZTv0_n12_N7android8hardware14broadcastradio4V2_016BsBroadcastRadioD0Ev"
    },
    {
     "mangled_component_name":"_ZN7android7RefBase10onFirstRefEv"
    },
    {
     "mangled_component_name":"_ZN7android7RefBase15onLastStrongRefEPKv"
    },
    {
     "mangled_component_name":"_ZN7android7RefBase20onIncStrongAttemptedEjPKv"
    },
    {
     "mangled_component_name":"_ZN7android7RefBase13onLastWeakRefEPKv"
    }
   ],
   "unique_id":"_ZTSN7android8hardware14broadcastradio4V2_016BsBroadcastRadioE"
  },
  {
   "vtable_components":[
    {
     "kind":"vbase_offset",
     "component_value":72
    },
    {
     "kind":"offset_to_top"
    },
    {
     "kind":"rtti",
     "mangled_component_name":"_ZTIN7android8hardware14broadcastradio4V2_016BnHwTunerSessionE"
    },
    {
     "mangled_component_name":"_ZN7android8hardware9BHwBinder8transactEjRKNS0_6ParcelEPS2_jNSt3__18functionIFvRS2_EEE"
    },
    {
     "mangled_component_name":"_ZN7android8hardware9BHwBinder11linkToDeathERKNS_2spINS0_7IBinder14DeathRecipientEEEPvj"
    },
    {
     "mangled_component_name":"_ZN7android8hardware9BHwBinder13unlinkToDeathERKNS_2wpINS0_7IBinder14DeathRecipientEEEPvjPS5_"
    },
    {
     "mangled_component_name":"_ZNK7android8hardware7IBinder13checkSubclassEPKv"
    },
    {
     "mangled_component_name":"_ZN7android8hardware9BHwBinder12attachObjectEPKvPvS4_PFvS3_S4_S4_E"
    },
    {
     "mangled_component_name":"_ZNK7android8hardware9BHwBinder10findObjectEPKv"
    },
    {
     "mangled_component_name":"_ZN7android8hardware9BHwBinder12detachObjectEPKv"
    },
    {
     "mangled_component_name":"_ZN7android8hardware9BHwBinder11localBinderEv"
    },
    {
     "mangled_component_name":"_ZN7android8hardware7IBinder12remoteBinderEv"
    },
    {
     "kind":"complete_dtor_pointer",
     "mangled_component_name":"_ZN7android8hardware14broadcastradio4V2_016BnHwTunerSessionD1Ev"
    },
    {
     "kind":"deleting_dtor_pointer",
     "mangled_component_name":"_ZN7android8hardware14broadcastradio4V2_016BnHwTunerSessionD0Ev"
    },
    {
     "mangled_component_name":"_ZN7android8hardware14broadcastradio4V2_016BnHwTunerSession10onTransactEjRKNS0_6ParcelEPS4_jNSt3__18functionIFvRS4_EEE"
    },
    {
     "kind":"offset_to_top",
     "component_value":-20
    },
    {
     "kind":"rtti",
     "mangled_component_name":"_ZTIN7android8hardware14broadcastradio4V2_016BnHwTunerSessionE"
    },
    {
     "kind":"complete_dtor_pointer",
     "mangled_component_name":"_ZThn20_N7android8hardware14broadcastradio4V2_016BnHwTunerSessionD1Ev"
    },
    {
     "kind":"deleting_dtor_pointer",
     "mangled_component_name":"_ZThn20_N7android8hardware14broadcastradio4V2_016BnHwTunerSessionD0Ev"
    },
    {
     "kind":"vcall_offset"
    },
    {
     "kind":"vcall_offset"
    },
    {
     "kind":"vcall_offset"
    },
    {
     "kind":"vcall_offset"
    },
    {
     "kind":"vcall_offset",
     "component_value":-72
    },
    {
     "kind":"offset_to_top",
     "component_value":-72
    },
    {
     "kind":"rtti",
     "mangled_component_name":"_ZTIN7android8hardware14broadcastradio4V2_016BnHwTunerSessionE"
    },
    {
     "kind":"complete_dtor_pointer",
     "mangled_component_name":"_ZTv0_n12_N7android8hardware14broadcastradio4V2_016BnHwTunerSessionD1Ev"
    },
    {
     "kind":"deleting_dtor_pointer",
     "mangled_component_name":"_ZTv0_n12_N7android8hardware14broadcastradio4V2_016BnHwTunerSessionD0Ev"
    },
    {
     "mangled_component_name":"_ZN7android7RefBase10onFirstRefEv"
    },
    {
     "mangled_component_name":"_ZN7android7RefBase15onLastStrongRefEPKv"
    },
    {
     "mangled_component_name":"_ZN7android7RefBase20onIncStrongAttemptedEjPKv"
    },
    {
     "mangled_component_name":"_ZN7android7RefBase13onLastWeakRefEPKv"
    }
   ],
   "unique_id":"_ZTSN7android8hardware14broadcastradio4V2_016BnHwTunerSessionE"
  },
  {
   "vtable_components":[
    {
     "kind":"vbase_offset",
     "component_value":4
    },
    {
     "kind":"offset_to_top"
    },
    {
     "kind":"rtti",
     "mangled_component_name":"_ZTIN7android8hardware14broadcastradio4V2_013ITunerSessionE"
    },
    {
     "mangled_component_name":"_ZNK7android8hardware14broadcastradio4V2_013ITunerSession8isRemoteEv"
    },
    {
     "mangled_component_name":"_ZN7android8hardware14broadcastradio4V2_013ITunerSession14interfaceChainENSt3__18functionIFvRKNS0_8hidl_vecINS0_11hidl_stringEEEEEE"
    },
    {
     "mangled_component_name":"_ZN7android8hardware14broadcastradio4V2_013ITunerSession5debugERKNS0_11hidl_handleERKNS0_8hidl_vecINS0_11hidl_stringEEE"
    },
    {
     "mangled_component_name":"_ZN7android8hardware14broadcastradio4V2_013ITunerSession19interfaceDescriptorENSt3__18functionIFvRKNS0_11hidl_stringEEEE"
    },
    {
     "mangled_component_name":"_ZN7android8hardware14broadcastradio4V2_013ITunerSession12getHashChainENSt3__18functionIFvRKNS0_8hidl_vecINS0_10hidl_arrayIhLj32EJEEEEEEEE"
    },
    {
     "mangled_component_name":"_ZN7android8hardware14broadcastradio4V2_013ITunerSession21setHALInstrumentationEv"
    },
    {
     "mangled_component_name":"_ZN7android8hardware14broadcastradio4V2_013ITunerSession11linkToDeathERKNS_2spINS0_20hidl_death_recipientEEEy"
    },
    {
     "mangled_component_name":"_ZN7android8hardware14broadcastradio4V2_013ITunerSession4pingEv"
    },
    {
     "mangled_component_name":"_ZN7android8hardware14broadcastradio4V2_013ITunerSession12getDebugInfoENSt3__18functionIFvRKNS_4hidl4base4V1_09DebugInfoEEEE"
    },
    {
     "mangled_component_name":"_ZN7android8hardware14broadcastradio4V2_013ITunerSession21notifySyspropsChangedEv"
    },
    {
     "mangled_component_name":"_ZN7android8hardware14broadcastradio4V2_013ITunerSession13unlinkToDeathERKNS_2spINS0_20hidl_death_recipientEEE"
    },
    {
     "kind":"complete_dtor_pointer",
     "mangled_component_name":"_ZN7android8hardware14broadcastradio4V2_013ITunerSessionD1Ev"
    },
    {
     "kind":"deleting_dtor_pointer",
     "mangled_component_name":"_ZN7android8hardware14broadcastradio4V2_013ITunerSessionD0Ev"
    },
    {
     "is_pure":true,
     "mangled_component_name":"_ZN7android8hardware14broadcastradio4V2_013ITunerSession4tuneERKNS2_15ProgramSelectorE"
    },
    {
     "is_pure":true,
     "mangled_component_name":"_ZN7android8hardware14broadcastradio4V2_013ITunerSession4scanEbb"
    },
    {
     "is_pure":true,
     "mangled_component_name":"_ZN7android8hardware14broadcastradio4V2_013ITunerSession4stepEb"
    },
    {
     "is_pure":true,
     "mangled_component_name":"_ZN7android8hardware14broadcastradio4V2_013ITunerSession6cancelEv"
    },
    {
     "is_pure":true,
     "mangled_component_name":"_ZN7android8hardware14broadcastradio4V2_013ITunerSession23startProgramListUpdatesERKNS2_13ProgramFilterE"
    },
    {
     "is_pure":true,
     "mangled_component_name":"_ZN7android8hardware14broadcastradio4V2_013ITunerSession22stopProgramListUpdatesEv"
    },
    {
     "is_pure":true,
     "mangled_component_name":"_ZN7android8hardware14broadcastradio4V2_013ITunerSession15isConfigFlagSetENS2_10ConfigFlagENSt3__18functionIFvNS2_6ResultEbEEE"
    },
    {
     "is_pure":true,
     "mangled_component_name":"_ZN7android8hardware14broadcastradio4V2_013ITunerSession13setConfigFlagENS2_10ConfigFlagEb"
    },
    {
     "is_pure":true,
     "mangled_component_name":"_ZN7android8hardware14broadcastradio4V2_013ITunerSession13setParametersERKNS0_8hidl_vecINS2_14VendorKeyValueEEENSt3__18functionIFvS8_EEE"
    },
    {
     "is_pure":true,
     "mangled_component_name":"_ZN7android8hardware14broadcastradio4V2_013ITunerSession13getParametersERKNS0_8hidl_vecINS0_11hidl_stringEEENSt3__18functionIFvRKNS4_INS2_14VendorKeyValueEEEEEE"
    },
    {
     "is_pure":true,
     "mangled_component_name":"_ZN7android8hardware14broadcastradio4V2_013ITunerSession5closeEv"
    },
    {
     "kind":"vcall_offset"
    },
    {
     "kind":"vcall_offset"
    },
    {
     "kind":"vcall_offset"
    },
    {
     "kind":"vcall_offset"
    },
    {
     "kind":"vcall_offset",
     "component_value":-4
    },
    {
     "kind":"offset_to_top",
     "component_value":-4
    },
    {
     "kind":"rtti",
     "mangled_component_name":"_ZTIN7android8hardware14broadcastradio4V2_013ITunerSessionE"
    },
    {
     "kind":"complete_dtor_pointer",
     "mangled_component_name":"_ZTv0_n12_N7android8hardware14broadcastradio4V2_013ITunerSessionD1Ev"
    },
    {
     "kind":"deleting_dtor_pointer",
     "mangled_component_name":"_ZTv0_n12_N7android8hardware14broadcastradio4V2_013ITunerSessionD0Ev"
    },
    {
     "mangled_component_name":"_ZN7android7RefBase10onFirstRefEv"
    },
    {
     "mangled_component_name":"_ZN7android7RefBase15onLastStrongRefEPKv"
    },
    {
     "mangled_component_name":"_ZN7android7RefBase20onIncStrongAttemptedEjPKv"
    },
    {
     "mangled_component_name":"_ZN7android7RefBase13onLastWeakRefEPKv"
    }
   ],
   "unique_id":"_ZTSN7android8hardware14broadcastradio4V2_013ITunerSessionE"
  },
  {
   "vtable_components":[
    {
     "kind":"vbase_offset",
     "component_value":72
    },
    {
     "kind":"offset_to_top"
    },
    {
     "kind":"rtti",
     "mangled_component_name":"_ZTIN7android8hardware14broadcastradio4V2_015BnHwCloseHandleE"
    },
    {
     "mangled_component_name":"_ZN7android8hardware9BHwBinder8transactEjRKNS0_6ParcelEPS2_jNSt3__18functionIFvRS2_EEE"
    },
    {
     "mangled_component_name":"_ZN7android8hardware9BHwBinder11linkToDeathERKNS_2spINS0_7IBinder14DeathRecipientEEEPvj"
    },
    {
     "mangled_component_name":"_ZN7android8hardware9BHwBinder13unlinkToDeathERKNS_2wpINS0_7IBinder14DeathRecipientEEEPvjPS5_"
    },
    {
     "mangled_component_name":"_ZNK7android8hardware7IBinder13checkSubclassEPKv"
    },
    {
     "mangled_component_name":"_ZN7android8hardware9BHwBinder12attachObjectEPKvPvS4_PFvS3_S4_S4_E"
    },
    {
     "mangled_component_name":"_ZNK7android8hardware9BHwBinder10findObjectEPKv"
    },
    {
     "mangled_component_name":"_ZN7android8hardware9BHwBinder12detachObjectEPKv"
    },
    {
     "mangled_component_name":"_ZN7android8hardware9BHwBinder11localBinderEv"
    },
    {
     "mangled_component_name":"_ZN7android8hardware7IBinder12remoteBinderEv"
    },
    {
     "kind":"complete_dtor_pointer",
     "mangled_component_name":"_ZN7android8hardware14broadcastradio4V2_015BnHwCloseHandleD1Ev"
    },
    {
     "kind":"deleting_dtor_pointer",
     "mangled_component_name":"_ZN7android8hardware14broadcastradio4V2_015BnHwCloseHandleD0Ev"
    },
    {
     "mangled_component_name":"_ZN7android8hardware14broadcastradio4V2_015BnHwCloseHandle10onTransactEjRKNS0_6ParcelEPS4_jNSt3__18functionIFvRS4_EEE"
    },
    {
     "kind":"offset_to_top",
     "component_value":-20
    },
    {
     "kind":"rtti",
     "mangled_component_name":"_ZTIN7android8hardware14broadcastradio4V2_015BnHwCloseHandleE"
    },
    {
     "kind":"complete_dtor_pointer",
     "mangled_component_name":"_ZThn20_N7android8hardware14broadcastradio4V2_015BnHwCloseHandleD1Ev"
    },
    {
     "kind":"deleting_dtor_pointer",
     "mangled_component_name":"_ZThn20_N7android8hardware14broadcastradio4V2_015BnHwCloseHandleD0Ev"
    },
    {
     "kind":"vcall_offset"
    },
    {
     "kind":"vcall_offset"
    },
    {
     "kind":"vcall_offset"
    },
    {
     "kind":"vcall_offset"
    },
    {
     "kind":"vcall_offset",
     "component_value":-72
    },
    {
     "kind":"offset_to_top",
     "component_value":-72
    },
    {
     "kind":"rtti",
     "mangled_component_name":"_ZTIN7android8hardware14broadcastradio4V2_015BnHwCloseHandleE"
    },
    {
     "kind":"complete_dtor_pointer",
     "mangled_component_name":"_ZTv0_n12_N7android8hardware14broadcastradio4V2_015BnHwCloseHandleD1Ev"
    },
    {
     "kind":"deleting_dtor_pointer",
     "mangled_component_name":"_ZTv0_n12_N7android8hardware14broadcastradio4V2_015BnHwCloseHandleD0Ev"
    },
    {
     "mangled_component_name":"_ZN7android7RefBase10onFirstRefEv"
    },
    {
     "mangled_component_name":"_ZN7android7RefBase15onLastStrongRefEPKv"
    },
    {
     "mangled_component_name":"_ZN7android7RefBase20onIncStrongAttemptedEjPKv"
    },
    {
     "mangled_component_name":"_ZN7android7RefBase13onLastWeakRefEPKv"
    }
   ],
   "unique_id":"_ZTSN7android8hardware14broadcastradio4V2_015BnHwCloseHandleE"
  },
  {
   "vtable_components":[
    {
     "kind":"vbase_offset",
     "component_value":4
    },
    {
     "kind":"offset_to_top"
    },
    {
     "kind":"rtti",
     "mangled_component_name":"_ZTIN7android8hardware14broadcastradio4V2_012ICloseHandleE"
    },
    {
     "mangled_component_name":"_ZNK7android8hardware14broadcastradio4V2_012ICloseHandle8isRemoteEv"
    },
    {
     "mangled_component_name":"_ZN7android8hardware14broadcastradio4V2_012ICloseHandle14interfaceChainENSt3__18functionIFvRKNS0_8hidl_vecINS0_11hidl_stringEEEEEE"
    },
    {
     "mangled_component_name":"_ZN7android8hardware14broadcastradio4V2_012ICloseHandle5debugERKNS0_11hidl_handleERKNS0_8hidl_vecINS0_11hidl_stringEEE"
    },
    {
     "mangled_component_name":"_ZN7android8hardware14broadcastradio4V2_012ICloseHandle19interfaceDescriptorENSt3__18functionIFvRKNS0_11hidl_stringEEEE"
    },
    {
     "mangled_component_name":"_ZN7android8hardware14broadcastradio4V2_012ICloseHandle12getHashChainENSt3__18functionIFvRKNS0_8hidl_vecINS0_10hidl_arrayIhLj32EJEEEEEEEE"
    },
    {
     "mangled_component_name":"_ZN7android8hardware14broadcastradio4V2_012ICloseHandle21setHALInstrumentationEv"
    },
    {
     "mangled_component_name":"_ZN7android8hardware14broadcastradio4V2_012ICloseHandle11linkToDeathERKNS_2spINS0_20hidl_death_recipientEEEy"
    },
    {
     "mangled_component_name":"_ZN7android8hardware14broadcastradio4V2_012ICloseHandle4pingEv"
    },
    {
     "mangled_component_name":"_ZN7android8hardware14broadcastradio4V2_012ICloseHandle12getDebugInfoENSt3__18functionIFvRKNS_4hidl4base4V1_09DebugInfoEEEE"
    },
    {
     "mangled_component_name":"_ZN7android8hardware14broadcastradio4V2_012ICloseHandle21notifySyspropsChangedEv"
    },
    {
     "mangled_component_name":"_ZN7android8hardware14broadcastradio4V2_012ICloseHandle13unlinkToDeathERKNS_2spINS0_20hidl_death_recipientEEE"
    },
    {
     "kind":"complete_dtor_pointer",
     "mangled_component_name":"_ZN7android8hardware14broadcastradio4V2_012ICloseHandleD1Ev"
    },
    {
     "kind":"deleting_dtor_pointer",
     "mangled_component_name":"_ZN7android8hardware14broadcastradio4V2_012ICloseHandleD0Ev"
    },
    {
     "is_pure":true,
     "mangled_component_name":"_ZN7android8hardware14broadcastradio4V2_012ICloseHandle5closeEv"
    },
    {
     "kind":"vcall_offset"
    },
    {
     "kind":"vcall_offset"
    },
    {
     "kind":"vcall_offset"
    },
    {
     "kind":"vcall_offset"
    },
    {
     "kind":"vcall_offset",
     "component_value":-4
    },
    {
     "kind":"offset_to_top",
     "component_value":-4
    },
    {
     "kind":"rtti",
     "mangled_component_name":"_ZTIN7android8hardware14broadcastradio4V2_012ICloseHandleE"
    },
    {
     "kind":"complete_dtor_pointer",
     "mangled_component_name":"_ZTv0_n12_N7android8hardware14broadcastradio4V2_012ICloseHandleD1Ev"
    },
    {
     "kind":"deleting_dtor_pointer",
     "mangled_component_name":"_ZTv0_n12_N7android8hardware14broadcastradio4V2_012ICloseHandleD0Ev"
    },
    {
     "mangled_component_name":"_ZN7android7RefBase10onFirstRefEv"
    },
    {
     "mangled_component_name":"_ZN7android7RefBase15onLastStrongRefEPKv"
    },
    {
     "mangled_component_name":"_ZN7android7RefBase20onIncStrongAttemptedEjPKv"
    },
    {
     "mangled_component_name":"_ZN7android7RefBase13onLastWeakRefEPKv"
    }
   ],
   "unique_id":"_ZTSN7android8hardware14broadcastradio4V2_012ICloseHandleE"
  },
  {
   "vtable_components":[
    {
     "kind":"vbase_offset",
     "component_value":72
    },
    {
     "kind":"offset_to_top"
    },
    {
     "kind":"rtti",
     "mangled_component_name":"_ZTIN7android8hardware14broadcastradio4V2_017BnHwTunerCallbackE"
    },
    {
     "mangled_component_name":"_ZN7android8hardware9BHwBinder8transactEjRKNS0_6ParcelEPS2_jNSt3__18functionIFvRS2_EEE"
    },
    {
     "mangled_component_name":"_ZN7android8hardware9BHwBinder11linkToDeathERKNS_2spINS0_7IBinder14DeathRecipientEEEPvj"
    },
    {
     "mangled_component_name":"_ZN7android8hardware9BHwBinder13unlinkToDeathERKNS_2wpINS0_7IBinder14DeathRecipientEEEPvjPS5_"
    },
    {
     "mangled_component_name":"_ZNK7android8hardware7IBinder13checkSubclassEPKv"
    },
    {
     "mangled_component_name":"_ZN7android8hardware9BHwBinder12attachObjectEPKvPvS4_PFvS3_S4_S4_E"
    },
    {
     "mangled_component_name":"_ZNK7android8hardware9BHwBinder10findObjectEPKv"
    },
    {
     "mangled_component_name":"_ZN7android8hardware9BHwBinder12detachObjectEPKv"
    },
    {
     "mangled_component_name":"_ZN7android8hardware9BHwBinder11localBinderEv"
    },
    {
     "mangled_component_name":"_ZN7android8hardware7IBinder12remoteBinderEv"
    },
    {
     "kind":"complete_dtor_pointer",
     "mangled_component_name":"_ZN7android8hardware14broadcastradio4V2_017BnHwTunerCallbackD1Ev"
    },
    {
     "kind":"deleting_dtor_pointer",
     "mangled_component_name":"_ZN7android8hardware14broadcastradio4V2_017BnHwTunerCallbackD0Ev"
    },
    {
     "mangled_component_name":"_ZN7android8hardware14broadcastradio4V2_017BnHwTunerCallback10onTransactEjRKNS0_6ParcelEPS4_jNSt3__18functionIFvRS4_EEE"
    },
    {
     "kind":"offset_to_top",
     "component_value":-20
    },
    {
     "kind":"rtti",
     "mangled_component_name":"_ZTIN7android8hardware14broadcastradio4V2_017BnHwTunerCallbackE"
    },
    {
     "kind":"complete_dtor_pointer",
     "mangled_component_name":"_ZThn20_N7android8hardware14broadcastradio4V2_017BnHwTunerCallbackD1Ev"
    },
    {
     "kind":"deleting_dtor_pointer",
     "mangled_component_name":"_ZThn20_N7android8hardware14broadcastradio4V2_017BnHwTunerCallbackD0Ev"
    },
    {
     "kind":"vcall_offset"
    },
    {
     "kind":"vcall_offset"
    },
    {
     "kind":"vcall_offset"
    },
    {
     "kind":"vcall_offset"
    },
    {
     "kind":"vcall_offset",
     "component_value":-72
    },
    {
     "kind":"offset_to_top",
     "component_value":-72
    },
    {
     "kind":"rtti",
     "mangled_component_name":"_ZTIN7android8hardware14broadcastradio4V2_017BnHwTunerCallbackE"
    },
    {
     "kind":"complete_dtor_pointer",
     "mangled_component_name":"_ZTv0_n12_N7android8hardware14broadcastradio4V2_017BnHwTunerCallbackD1Ev"
    },
    {
     "kind":"deleting_dtor_pointer",
     "mangled_component_name":"_ZTv0_n12_N7android8hardware14broadcastradio4V2_017BnHwTunerCallbackD0Ev"
    },
    {
     "mangled_component_name":"_ZN7android7RefBase10onFirstRefEv"
    },
    {
     "mangled_component_name":"_ZN7android7RefBase15onLastStrongRefEPKv"
    },
    {
     "mangled_component_name":"_ZN7android7RefBase20onIncStrongAttemptedEjPKv"
    },
    {
     "mangled_component_name":"_ZN7android7RefBase13onLastWeakRefEPKv"
    }
   ],
   "unique_id":"_ZTSN7android8hardware14broadcastradio4V2_017BnHwTunerCallbackE"
  },
  {
   "vtable_components":[
    {
     "kind":"vbase_offset",
     "component_value":4
    },
    {
     "kind":"offset_to_top"
    },
    {
     "kind":"rtti",
     "mangled_component_name":"_ZTIN7android8hardware14broadcastradio4V2_014ITunerCallbackE"
    },
    {
     "mangled_component_name":"_ZNK7android8hardware14broadcastradio4V2_014ITunerCallback8isRemoteEv"
    },
    {
     "mangled_component_name":"_ZN7android8hardware14broadcastradio4V2_014ITunerCallback14interfaceChainENSt3__18functionIFvRKNS0_8hidl_vecINS0_11hidl_stringEEEEEE"
    },
    {
     "mangled_component_name":"_ZN7android8hardware14broadcastradio4V2_014ITunerCallback5debugERKNS0_11hidl_handleERKNS0_8hidl_vecINS0_11hidl_stringEEE"
    },
    {
     "mangled_component_name":"_ZN7android8hardware14broadcastradio4V2_014ITunerCallback19interfaceDescriptorENSt3__18functionIFvRKNS0_11hidl_stringEEEE"
    },
    {
     "mangled_component_name":"_ZN7android8hardware14broadcastradio4V2_014ITunerCallback12getHashChainENSt3__18functionIFvRKNS0_8hidl_vecINS0_10hidl_arrayIhLj32EJEEEEEEEE"
    },
    {
     "mangled_component_name":"_ZN7android8hardware14broadcastradio4V2_014ITunerCallback21setHALInstrumentationEv"
    },
    {
     "mangled_component_name":"_ZN7android8hardware14broadcastradio4V2_014ITunerCallback11linkToDeathERKNS_2spINS0_20hidl_death_recipientEEEy"
    },
    {
     "mangled_component_name":"_ZN7android8hardware14broadcastradio4V2_014ITunerCallback4pingEv"
    },
    {
     "mangled_component_name":"_ZN7android8hardware14broadcastradio4V2_014ITunerCallback12getDebugInfoENSt3__18functionIFvRKNS_4hidl4base4V1_09DebugInfoEEEE"
    },
    {
     "mangled_component_name":"_ZN7android8hardware14broadcastradio4V2_014ITunerCallback21notifySyspropsChangedEv"
    },
    {
     "mangled_component_name":"_ZN7android8hardware14broadcastradio4V2_014ITunerCallback13unlinkToDeathERKNS_2spINS0_20hidl_death_recipientEEE"
    },
    {
     "kind":"complete_dtor_pointer",
     "mangled_component_name":"_ZN7android8hardware14broadcastradio4V2_014ITunerCallbackD1Ev"
    },
    {
     "kind":"deleting_dtor_pointer",
     "mangled_component_name":"_ZN7android8hardware14broadcastradio4V2_014ITunerCallbackD0Ev"
    },
    {
     "is_pure":true,
     "mangled_component_name":"_ZN7android8hardware14broadcastradio4V2_014ITunerCallback12onTuneFailedENS2_6ResultERKNS2_15ProgramSelectorE"
    },
    {
     "is_pure":true,
     "mangled_component_name":"_ZN7android8hardware14broadcastradio4V2_014ITunerCallback27onCurrentProgramInfoChangedERKNS2_11ProgramInfoE"
    },
    {
     "is_pure":true,
     "mangled_component_name":"_ZN7android8hardware14broadcastradio4V2_014ITunerCallback20onProgramListUpdatedERKNS2_16ProgramListChunkE"
    },
    {
     "is_pure":true,
     "mangled_component_name":"_ZN7android8hardware14broadcastradio4V2_014ITunerCallback20onAntennaStateChangeEb"
    },
    {
     "is_pure":true,
     "mangled_component_name":"_ZN7android8hardware14broadcastradio4V2_014ITunerCallback19onParametersUpdatedERKNS0_8hidl_vecINS2_14VendorKeyValueEEE"
    },
    {
     "kind":"vcall_offset"
    },
    {
     "kind":"vcall_offset"
    },
    {
     "kind":"vcall_offset"
    },
    {
     "kind":"vcall_offset"
    },
    {
     "kind":"vcall_offset",
     "component_value":-4
    },
    {
     "kind":"offset_to_top",
     "component_value":-4
    },
    {
     "kind":"rtti",
     "mangled_component_name":"_ZTIN7android8hardware14broadcastradio4V2_014ITunerCallbackE"
    },
    {
     "kind":"complete_dtor_pointer",
     "mangled_component_name":"_ZTv0_n12_N7android8hardware14broadcastradio4V2_014ITunerCallbackD1Ev"
    },
    {
     "kind":"deleting_dtor_pointer",
     "mangled_component_name":"_ZTv0_n12_N7android8hardware14broadcastradio4V2_014ITunerCallbackD0Ev"
    },
    {
     "mangled_component_name":"_ZN7android7RefBase10onFirstRefEv"
    },
    {
     "mangled_component_name":"_ZN7android7RefBase15onLastStrongRefEPKv"
    },
    {
     "mangled_component_name":"_ZN7android7RefBase20onIncStrongAttemptedEjPKv"
    },
    {
     "mangled_component_name":"_ZN7android7RefBase13onLastWeakRefEPKv"
    }
   ],
   "unique_id":"_ZTSN7android8hardware14broadcastradio4V2_014ITunerCallbackE"
  },
  {
   "vtable_components":[
    {
     "kind":"vbase_offset",
     "component_value":84
    },
    {
     "kind":"offset_to_top"
    },
    {
     "kind":"rtti",
     "mangled_component_name":"_ZTIN7android8hardware14broadcastradio4V2_015BpHwCloseHandleE"
    },
    {
     "mangled_component_name":"_ZNK7android8hardware14broadcastradio4V2_015BpHwCloseHandle8isRemoteEv"
    },
    {
     "mangled_component_name":"_ZN7android8hardware14broadcastradio4V2_015BpHwCloseHandle14interfaceChainENSt3__18functionIFvRKNS0_8hidl_vecINS0_11hidl_stringEEEEEE"
    },
    {
     "mangled_component_name":"_ZN7android8hardware14broadcastradio4V2_015BpHwCloseHandle5debugERKNS0_11hidl_handleERKNS0_8hidl_vecINS0_11hidl_stringEEE"
    },
    {
     "mangled_component_name":"_ZN7android8hardware14broadcastradio4V2_015BpHwCloseHandle19interfaceDescriptorENSt3__18functionIFvRKNS0_11hidl_stringEEEE"
    },
    {
     "mangled_component_name":"_ZN7android8hardware14broadcastradio4V2_015BpHwCloseHandle12getHashChainENSt3__18functionIFvRKNS0_8hidl_vecINS0_10hidl_arrayIhLj32EJEEEEEEEE"
    },
    {
     "mangled_component_name":"_ZN7android8hardware14broadcastradio4V2_015BpHwCloseHandle21setHALInstrumentationEv"
    },
    {
     "mangled_component_name":"_ZN7android8hardware14broadcastradio4V2_015BpHwCloseHandle11linkToDeathERKNS_2spINS0_20hidl_death_recipientEEEy"
    },
    {
     "mangled_component_name":"_ZN7android8hardware14broadcastradio4V2_015BpHwCloseHandle4pingEv"
    },
    {
     "mangled_component_name":"_ZN7android8hardware14broadcastradio4V2_015BpHwCloseHandle12getDebugInfoENSt3__18functionIFvRKNS_4hidl4base4V1_09DebugInfoEEEE"
    },
    {
     "mangled_component_name":"_ZN7android8hardware14broadcastradio4V2_015BpHwCloseHandle21notifySyspropsChangedEv"
    },
    {
     "mangled_component_name":"_ZN7android8hardware14broadcastradio4V2_015BpHwCloseHandle13unlinkToDeathERKNS_2spINS0_20hidl_death_recipientEEE"
    },
    {
     "kind":"complete_dtor_pointer",
     "mangled_component_name":"_ZN7android8hardware14broadcastradio4V2_015BpHwCloseHandleD1Ev"
    },
    {
     "kind":"deleting_dtor_pointer",
     "mangled_component_name":"_ZN7android8hardware14broadcastradio4V2_015BpHwCloseHandleD0Ev"
    },
    {
     "mangled_component_name":"_ZN7android8hardware14broadcastradio4V2_015BpHwCloseHandle5closeEv"
    },
    {
     "mangled_component_name":"_ZN7android8hardware11BpInterfaceINS0_14broadcastradio4V2_012ICloseHandleEE10onAsBinderEv"
    },
    {
     "kind":"vbase_offset",
     "component_value":80
    },
    {
     "kind":"offset_to_top",
     "component_value":-4
    },
    {
     "kind":"rtti",
     "mangled_component_name":"_ZTIN7android8hardware14broadcastradio4V2_015BpHwCloseHandleE"
    },
    {
     "kind":"complete_dtor_pointer",
     "mangled_component_name":"_ZThn4_N7android8hardware14broadcastradio4V2_015BpHwCloseHandleD1Ev"
    },
    {
     "kind":"deleting_dtor_pointer",
     "mangled_component_name":"_ZThn4_N7android8hardware14broadcastradio4V2_015BpHwCloseHandleD0Ev"
    },
    {
     "mangled_component_name":"_ZThn4_N7android8hardware11BpInterfaceINS0_14broadcastradio4V2_012ICloseHandleEE10onAsBinderEv"
    },
    {
     "kind":"vbase_offset",
     "component_value":76
    },
    {
     "kind":"offset_to_top",
     "component_value":-8
    },
    {
     "kind":"rtti",
     "mangled_component_name":"_ZTIN7android8hardware14broadcastradio4V2_015BpHwCloseHandleE"
    },
    {
     "kind":"complete_dtor_pointer",
     "mangled_component_name":"_ZThn8_N7android8hardware14broadcastradio4V2_015BpHwCloseHandleD1Ev"
    },
    {
     "kind":"deleting_dtor_pointer",
     "mangled_component_name":"_ZThn8_N7android8hardware14broadcastradio4V2_015BpHwCloseHandleD0Ev"
    },
    {
     "mangled_component_name":"_ZN7android8hardware11BpHwRefBase10onFirstRefEv"
    },
    {
     "mangled_component_name":"_ZN7android8hardware11BpHwRefBase15onLastStrongRefEPKv"
    },
    {
     "mangled_component_name":"_ZN7android8hardware11BpHwRefBase20onIncStrongAttemptedEjPKv"
    },
    {
     "kind":"offset_to_top",
     "component_value":-24
    },
    {
     "kind":"rtti",
     "mangled_component_name":"_ZTIN7android8hardware14broadcastradio4V2_015BpHwCloseHandleE"
    },
    {
     "kind":"complete_dtor_pointer",
     "mangled_component_name":"_ZThn24_N7android8hardware14broadcastradio4V2_015BpHwCloseHandleD1Ev"
    },
    {
     "kind":"deleting_dtor_pointer",
     "mangled_component_name":"_ZThn24_N7android8hardware14broadcastradio4V2_015BpHwCloseHandleD0Ev"
    },
    {
     "kind":"vcall_offset"
    },
    {
     "kind":"vcall_offset",
     "component_value":-76
    },
    {
     "kind":"vcall_offset",
     "component_value":-76
    },
    {
     "kind":"vcall_offset",
     "component_value":-76
    },
    {
     "kind":"vcall_offset",
     "component_value":-84
    },
    {
     "kind":"offset_to_top",
     "component_value":-84
    },
    {
     "kind":"rtti",
     "mangled_component_name":"_ZTIN7android8hardware14broadcastradio4V2_015BpHwCloseHandleE"
    },
    {
     "kind":"complete_dtor_pointer",
     "mangled_component_name":"_ZTv0_n12_N7android8hardware14broadcastradio4V2_015BpHwCloseHandleD1Ev"
    },
    {
     "kind":"deleting_dtor_pointer",
     "mangled_component_name":"_ZTv0_n12_N7android8hardware14broadcastradio4V2_015BpHwCloseHandleD0Ev"
    },
    {
     "mangled_component_name":"_ZTv0_n16_N7android8hardware11BpHwRefBase10onFirstRefEv"
    },
    {
     "mangled_component_name":"_ZTv0_n20_N7android8hardware11BpHwRefBase15onLastStrongRefEPKv"
    },
    {
     "mangled_component_name":"_ZTv0_n24_N7android8hardware11BpHwRefBase20onIncStrongAttemptedEjPKv"
    },
    {
     "mangled_component_name":"_ZN7android7RefBase13onLastWeakRefEPKv"
    }
   ],
   "unique_id":"_ZTSN7android8hardware14broadcastradio4V2_015BpHwCloseHandleE"
  },
  {
   "vtable_components":[
    {
     "kind":"vbase_offset",
     "component_value":84
    },
    {
     "kind":"offset_to_top"
    },
    {
     "kind":"rtti",
     "mangled_component_name":"_ZTIN7android8hardware14broadcastradio4V2_017BpHwTunerCallbackE"
    },
    {
     "mangled_component_name":"_ZNK7android8hardware14broadcastradio4V2_017BpHwTunerCallback8isRemoteEv"
    },
    {
     "mangled_component_name":"_ZN7android8hardware14broadcastradio4V2_017BpHwTunerCallback14interfaceChainENSt3__18functionIFvRKNS0_8hidl_vecINS0_11hidl_stringEEEEEE"
    },
    {
     "mangled_component_name":"_ZN7android8hardware14broadcastradio4V2_017BpHwTunerCallback5debugERKNS0_11hidl_handleERKNS0_8hidl_vecINS0_11hidl_stringEEE"
    },
    {
     "mangled_component_name":"_ZN7android8hardware14broadcastradio4V2_017BpHwTunerCallback19interfaceDescriptorENSt3__18functionIFvRKNS0_11hidl_stringEEEE"
    },
    {
     "mangled_component_name":"_ZN7android8hardware14broadcastradio4V2_017BpHwTunerCallback12getHashChainENSt3__18functionIFvRKNS0_8hidl_vecINS0_10hidl_arrayIhLj32EJEEEEEEEE"
    },
    {
     "mangled_component_name":"_ZN7android8hardware14broadcastradio4V2_017BpHwTunerCallback21setHALInstrumentationEv"
    },
    {
     "mangled_component_name":"_ZN7android8hardware14broadcastradio4V2_017BpHwTunerCallback11linkToDeathERKNS_2spINS0_20hidl_death_recipientEEEy"
    },
    {
     "mangled_component_name":"_ZN7android8hardware14broadcastradio4V2_017BpHwTunerCallback4pingEv"
    },
    {
     "mangled_component_name":"_ZN7android8hardware14broadcastradio4V2_017BpHwTunerCallback12getDebugInfoENSt3__18functionIFvRKNS_4hidl4base4V1_09DebugInfoEEEE"
    },
    {
     "mangled_component_name":"_ZN7android8hardware14broadcastradio4V2_017BpHwTunerCallback21notifySyspropsChangedEv"
    },
    {
     "mangled_component_name":"_ZN7android8hardware14broadcastradio4V2_017BpHwTunerCallback13unlinkToDeathERKNS_2spINS0_20hidl_death_recipientEEE"
    },
    {
     "kind":"complete_dtor_pointer",
     "mangled_component_name":"_ZN7android8hardware14broadcastradio4V2_017BpHwTunerCallbackD1Ev"
    },
    {
     "kind":"deleting_dtor_pointer",
     "mangled_component_name":"_ZN7android8hardware14broadcastradio4V2_017BpHwTunerCallbackD0Ev"
    },
    {
     "mangled_component_name":"_ZN7android8hardware14broadcastradio4V2_017BpHwTunerCallback12onTuneFailedENS2_6ResultERKNS2_15ProgramSelectorE"
    },
    {
     "mangled_component_name":"_ZN7android8hardware14broadcastradio4V2_017BpHwTunerCallback27onCurrentProgramInfoChangedERKNS2_11ProgramInfoE"
    },
    {
     "mangled_component_name":"_ZN7android8hardware14broadcastradio4V2_017BpHwTunerCallback20onProgramListUpdatedERKNS2_16ProgramListChunkE"
    },
    {
     "mangled_component_name":"_ZN7android8hardware14broadcastradio4V2_017BpHwTunerCallback20onAntennaStateChangeEb"
    },
    {
     "mangled_component_name":"_ZN7android8hardware14broadcastradio4V2_017BpHwTunerCallback19onParametersUpdatedERKNS0_8hidl_vecINS2_14VendorKeyValueEEE"
    },
    {
     "mangled_component_name":"_ZN7android8hardware11BpInterfaceINS0_14broadcastradio4V2_014ITunerCallbackEE10onAsBinderEv"
    },
    {
     "kind":"vbase_offset",
     "component_value":80
    },
    {
     "kind":"offset_to_top",
     "component_value":-4
    },
    {
     "kind":"rtti",
     "mangled_component_name":"_ZTIN7android8hardware14broadcastradio4V2_017BpHwTunerCallbackE"
    },
    {
     "kind":"complete_dtor_pointer",
     "mangled_component_name":"_ZThn4_N7android8hardware14broadcastradio4V2_017BpHwTunerCallbackD1Ev"
    },
    {
     "kind":"deleting_dtor_pointer",
     "mangled_component_name":"_ZThn4_N7android8hardware14broadcastradio4V2_017BpHwTunerCallbackD0Ev"
    },
    {
     "mangled_component_name":"_ZThn4_N7android8hardware11BpInterfaceINS0_14broadcastradio4V2_014ITunerCallbackEE10onAsBinderEv"
    },
    {
     "kind":"vbase_offset",
     "component_value":76
    },
    {
     "kind":"offset_to_top",
     "component_value":-8
    },
    {
     "kind":"rtti",
     "mangled_component_name":"_ZTIN7android8hardware14broadcastradio4V2_017BpHwTunerCallbackE"
    },
    {
     "kind":"complete_dtor_pointer",
     "mangled_component_name":"_ZThn8_N7android8hardware14broadcastradio4V2_017BpHwTunerCallbackD1Ev"
    },
    {
     "kind":"deleting_dtor_pointer",
     "mangled_component_name":"_ZThn8_N7android8hardware14broadcastradio4V2_017BpHwTunerCallbackD0Ev"
    },
    {
     "mangled_component_name":"_ZN7android8hardware11BpHwRefBase10onFirstRefEv"
    },
    {
     "mangled_component_name":"_ZN7android8hardware11BpHwRefBase15onLastStrongRefEPKv"
    },
    {
     "mangled_component_name":"_ZN7android8hardware11BpHwRefBase20onIncStrongAttemptedEjPKv"
    },
    {
     "kind":"offset_to_top",
     "component_value":-24
    },
    {
     "kind":"rtti",
     "mangled_component_name":"_ZTIN7android8hardware14broadcastradio4V2_017BpHwTunerCallbackE"
    },
    {
     "kind":"complete_dtor_pointer",
     "mangled_component_name":"_ZThn24_N7android8hardware14broadcastradio4V2_017BpHwTunerCallbackD1Ev"
    },
    {
     "kind":"deleting_dtor_pointer",
     "mangled_component_name":"_ZThn24_N7android8hardware14broadcastradio4V2_017BpHwTunerCallbackD0Ev"
    },
    {
     "kind":"vcall_offset"
    },
    {
     "kind":"vcall_offset",
     "component_value":-76
    },
    {
     "kind":"vcall_offset",
     "component_value":-76
    },
    {
     "kind":"vcall_offset",
     "component_value":-76
    },
    {
     "kind":"vcall_offset",
     "component_value":-84
    },
    {
     "kind":"offset_to_top",
     "component_value":-84
    },
    {
     "kind":"rtti",
     "mangled_component_name":"_ZTIN7android8hardware14broadcastradio4V2_017BpHwTunerCallbackE"
    },
    {
     "kind":"complete_dtor_pointer",
     "mangled_component_name":"_ZTv0_n12_N7android8hardware14broadcastradio4V2_017BpHwTunerCallbackD1Ev"
    },
    {
     "kind":"deleting_dtor_pointer",
     "mangled_component_name":"_ZTv0_n12_N7android8hardware14broadcastradio4V2_017BpHwTunerCallbackD0Ev"
    },
    {
     "mangled_component_name":"_ZTv0_n16_N7android8hardware11BpHwRefBase10onFirstRefEv"
    },
    {
     "mangled_component_name":"_ZTv0_n20_N7android8hardware11BpHwRefBase15onLastStrongRefEPKv"
    },
    {
     "mangled_component_name":"_ZTv0_n24_N7android8hardware11BpHwRefBase20onIncStrongAttemptedEjPKv"
    },
    {
     "mangled_component_name":"_ZN7android7RefBase13onLastWeakRefEPKv"
    }
   ],
   "unique_id":"_ZTSN7android8hardware14broadcastradio4V2_017BpHwTunerCallbackE"
  },
  {
   "vtable_components":[
    {
     "kind":"vbase_offset",
     "component_value":84
    },
    {
     "kind":"offset_to_top"
    },
    {
     "kind":"rtti",
     "mangled_component_name":"_ZTIN7android8hardware14broadcastradio4V2_016BpHwTunerSessionE"
    },
    {
     "mangled_component_name":"_ZNK7android8hardware14broadcastradio4V2_016BpHwTunerSession8isRemoteEv"
    },
    {
     "mangled_component_name":"_ZN7android8hardware14broadcastradio4V2_016BpHwTunerSession14interfaceChainENSt3__18functionIFvRKNS0_8hidl_vecINS0_11hidl_stringEEEEEE"
    },
    {
     "mangled_component_name":"_ZN7android8hardware14broadcastradio4V2_016BpHwTunerSession5debugERKNS0_11hidl_handleERKNS0_8hidl_vecINS0_11hidl_stringEEE"
    },
    {
     "mangled_component_name":"_ZN7android8hardware14broadcastradio4V2_016BpHwTunerSession19interfaceDescriptorENSt3__18functionIFvRKNS0_11hidl_stringEEEE"
    },
    {
     "mangled_component_name":"_ZN7android8hardware14broadcastradio4V2_016BpHwTunerSession12getHashChainENSt3__18functionIFvRKNS0_8hidl_vecINS0_10hidl_arrayIhLj32EJEEEEEEEE"
    },
    {
     "mangled_component_name":"_ZN7android8hardware14broadcastradio4V2_016BpHwTunerSession21setHALInstrumentationEv"
    },
    {
     "mangled_component_name":"_ZN7android8hardware14broadcastradio4V2_016BpHwTunerSession11linkToDeathERKNS_2spINS0_20hidl_death_recipientEEEy"
    },
    {
     "mangled_component_name":"_ZN7android8hardware14broadcastradio4V2_016BpHwTunerSession4pingEv"
    },
    {
     "mangled_component_name":"_ZN7android8hardware14broadcastradio4V2_016BpHwTunerSession12getDebugInfoENSt3__18functionIFvRKNS_4hidl4base4V1_09DebugInfoEEEE"
    },
    {
     "mangled_component_name":"_ZN7android8hardware14broadcastradio4V2_016BpHwTunerSession21notifySyspropsChangedEv"
    },
    {
     "mangled_component_name":"_ZN7android8hardware14broadcastradio4V2_016BpHwTunerSession13unlinkToDeathERKNS_2spINS0_20hidl_death_recipientEEE"
    },
    {
     "kind":"complete_dtor_pointer",
     "mangled_component_name":"_ZN7android8hardware14broadcastradio4V2_016BpHwTunerSessionD1Ev"
    },
    {
     "kind":"deleting_dtor_pointer",
     "mangled_component_name":"_ZN7android8hardware14broadcastradio4V2_016BpHwTunerSessionD0Ev"
    },
    {
     "mangled_component_name":"_ZN7android8hardware14broadcastradio4V2_016BpHwTunerSession4tuneERKNS2_15ProgramSelectorE"
    },
    {
     "mangled_component_name":"_ZN7android8hardware14broadcastradio4V2_016BpHwTunerSession4scanEbb"
    },
    {
     "mangled_component_name":"_ZN7android8hardware14broadcastradio4V2_016BpHwTunerSession4stepEb"
    },
    {
     "mangled_component_name":"_ZN7android8hardware14broadcastradio4V2_016BpHwTunerSession6cancelEv"
    },
    {
     "mangled_component_name":"_ZN7android8hardware14broadcastradio4V2_016BpHwTunerSession23startProgramListUpdatesERKNS2_13ProgramFilterE"
    },
    {
     "mangled_component_name":"_ZN7android8hardware14broadcastradio4V2_016BpHwTunerSession22stopProgramListUpdatesEv"
    },
    {
     "mangled_component_name":"_ZN7android8hardware14broadcastradio4V2_016BpHwTunerSession15isConfigFlagSetENS2_10ConfigFlagENSt3__18functionIFvNS2_6ResultEbEEE"
    },
    {
     "mangled_component_name":"_ZN7android8hardware14broadcastradio4V2_016BpHwTunerSession13setConfigFlagENS2_10ConfigFlagEb"
    },
    {
     "mangled_component_name":"_ZN7android8hardware14broadcastradio4V2_016BpHwTunerSession13setParametersERKNS0_8hidl_vecINS2_14VendorKeyValueEEENSt3__18functionIFvS8_EEE"
    },
    {
     "mangled_component_name":"_ZN7android8hardware14broadcastradio4V2_016BpHwTunerSession13getParametersERKNS0_8hidl_vecINS0_11hidl_stringEEENSt3__18functionIFvRKNS4_INS2_14VendorKeyValueEEEEEE"
    },
    {
     "mangled_component_name":"_ZN7android8hardware14broadcastradio4V2_016BpHwTunerSession5closeEv"
    },
    {
     "mangled_component_name":"_ZN7android8hardware11BpInterfaceINS0_14broadcastradio4V2_013ITunerSessionEE10onAsBinderEv"
    },
    {
     "kind":"vbase_offset",
     "component_value":80
    },
    {
     "kind":"offset_to_top",
     "component_value":-4
    },
    {
     "kind":"rtti",
     "mangled_component_name":"_ZTIN7android8hardware14broadcastradio4V2_016BpHwTunerSessionE"
    },
    {
     "kind":"complete_dtor_pointer",
     "mangled_component_name":"_ZThn4_N7android8hardware14broadcastradio4V2_016BpHwTunerSessionD1Ev"
    },
    {
     "kind":"deleting_dtor_pointer",
     "mangled_component_name":"_ZThn4_N7android8hardware14broadcastradio4V2_016BpHwTunerSessionD0Ev"
    },
    {
     "mangled_component_name":"_ZThn4_N7android8hardware11BpInterfaceINS0_14broadcastradio4V2_013ITunerSessionEE10onAsBinderEv"
    },
    {
     "kind":"vbase_offset",
     "component_value":76
    },
    {
     "kind":"offset_to_top",
     "component_value":-8
    },
    {
     "kind":"rtti",
     "mangled_component_name":"_ZTIN7android8hardware14broadcastradio4V2_016BpHwTunerSessionE"
    },
    {
     "kind":"complete_dtor_pointer",
     "mangled_component_name":"_ZThn8_N7android8hardware14broadcastradio4V2_016BpHwTunerSessionD1Ev"
    },
    {
     "kind":"deleting_dtor_pointer",
     "mangled_component_name":"_ZThn8_N7android8hardware14broadcastradio4V2_016BpHwTunerSessionD0Ev"
    },
    {
     "mangled_component_name":"_ZN7android8hardware11BpHwRefBase10onFirstRefEv"
    },
    {
     "mangled_component_name":"_ZN7android8hardware11BpHwRefBase15onLastStrongRefEPKv"
    },
    {
     "mangled_component_name":"_ZN7android8hardware11BpHwRefBase20onIncStrongAttemptedEjPKv"
    },
    {
     "kind":"offset_to_top",
     "component_value":-24
    },
    {
     "kind":"rtti",
     "mangled_component_name":"_ZTIN7android8hardware14broadcastradio4V2_016BpHwTunerSessionE"
    },
    {
     "kind":"complete_dtor_pointer",
     "mangled_component_name":"_ZThn24_N7android8hardware14broadcastradio4V2_016BpHwTunerSessionD1Ev"
    },
    {
     "kind":"deleting_dtor_pointer",
     "mangled_component_name":"_ZThn24_N7android8hardware14broadcastradio4V2_016BpHwTunerSessionD0Ev"
    },
    {
     "kind":"vcall_offset"
    },
    {
     "kind":"vcall_offset",
     "component_value":-76
    },
    {
     "kind":"vcall_offset",
     "component_value":-76
    },
    {
     "kind":"vcall_offset",
     "component_value":-76
    },
    {
     "kind":"vcall_offset",
     "component_value":-84
    },
    {
     "kind":"offset_to_top",
     "component_value":-84
    },
    {
     "kind":"rtti",
     "mangled_component_name":"_ZTIN7android8hardware14broadcastradio4V2_016BpHwTunerSessionE"
    },
    {
     "kind":"complete_dtor_pointer",
     "mangled_component_name":"_ZTv0_n12_N7android8hardware14broadcastradio4V2_016BpHwTunerSessionD1Ev"
    },
    {
     "kind":"deleting_dtor_pointer",
     "mangled_component_name":"_ZTv0_n12_N7android8hardware14broadcastradio4V2_016BpHwTunerSessionD0Ev"
    },
    {
     "mangled_component_name":"_ZTv0_n16_N7android8hardware11BpHwRefBase10onFirstRefEv"
    },
    {
     "mangled_component_name":"_ZTv0_n20_N7android8hardware11BpHwRefBase15onLastStrongRefEPKv"
    },
    {
     "mangled_component_name":"_ZTv0_n24_N7android8hardware11BpHwRefBase20onIncStrongAttemptedEjPKv"
    },
    {
     "mangled_component_name":"_ZN7android7RefBase13onLastWeakRefEPKv"
    }
   ],
   "unique_id":"_ZTSN7android8hardware14broadcastradio4V2_016BpHwTunerSessionE"
  },
  {
   "vtable_components":[
    {
     "kind":"vbase_offset",
     "component_value":84
    },
    {
     "kind":"offset_to_top"
    },
    {
     "kind":"rtti",
     "mangled_component_name":"_ZTIN7android8hardware14broadcastradio4V2_018BpHwBroadcastRadioE"
    },
    {
     "mangled_component_name":"_ZNK7android8hardware14broadcastradio4V2_018BpHwBroadcastRadio8isRemoteEv"
    },
    {
     "mangled_component_name":"_ZN7android8hardware14broadcastradio4V2_018BpHwBroadcastRadio14interfaceChainENSt3__18functionIFvRKNS0_8hidl_vecINS0_11hidl_stringEEEEEE"
    },
    {
     "mangled_component_name":"_ZN7android8hardware14broadcastradio4V2_018BpHwBroadcastRadio5debugERKNS0_11hidl_handleERKNS0_8hidl_vecINS0_11hidl_stringEEE"
    },
    {
     "mangled_component_name":"_ZN7android8hardware14broadcastradio4V2_018BpHwBroadcastRadio19interfaceDescriptorENSt3__18functionIFvRKNS0_11hidl_stringEEEE"
    },
    {
     "mangled_component_name":"_ZN7android8hardware14broadcastradio4V2_018BpHwBroadcastRadio12getHashChainENSt3__18functionIFvRKNS0_8hidl_vecINS0_10hidl_arrayIhLj32EJEEEEEEEE"
    },
    {
     "mangled_component_name":"_ZN7android8hardware14broadcastradio4V2_018BpHwBroadcastRadio21setHALInstrumentationEv"
    },
    {
     "mangled_component_name":"_ZN7android8hardware14broadcastradio4V2_018BpHwBroadcastRadio11linkToDeathERKNS_2spINS0_20hidl_death_recipientEEEy"
    },
    {
     "mangled_component_name":"_ZN7android8hardware14broadcastradio4V2_018BpHwBroadcastRadio4pingEv"
    },
    {
     "mangled_component_name":"_ZN7android8hardware14broadcastradio4V2_018BpHwBroadcastRadio12getDebugInfoENSt3__18functionIFvRKNS_4hidl4base4V1_09DebugInfoEEEE"
    },
    {
     "mangled_component_name":"_ZN7android8hardware14broadcastradio4V2_018BpHwBroadcastRadio21notifySyspropsChangedEv"
    },
    {
     "mangled_component_name":"_ZN7android8hardware14broadcastradio4V2_018BpHwBroadcastRadio13unlinkToDeathERKNS_2spINS0_20hidl_death_recipientEEE"
    },
    {
     "kind":"complete_dtor_pointer",
     "mangled_component_name":"_ZN7android8hardware14broadcastradio4V2_018BpHwBroadcastRadioD1Ev"
    },
    {
     "kind":"deleting_dtor_pointer",
     "mangled_component_name":"_ZN7android8hardware14broadcastradio4V2_018BpHwBroadcastRadioD0Ev"
    },
    {
     "mangled_component_name":"_ZN7android8hardware14broadcastradio4V2_018BpHwBroadcastRadio13getPropertiesENSt3__18functionIFvRKNS2_10PropertiesEEEE"
    },
    {
     "mangled_component_name":"_ZN7android8hardware14broadcastradio4V2_018BpHwBroadcastRadio19getAmFmRegionConfigEbNSt3__18functionIFvNS2_6ResultERKNS2_16AmFmRegionConfigEEEE"
    },
    {
     "mangled_component_name":"_ZN7android8hardware14broadcastradio4V2_018BpHwBroadcastRadio18getDabRegionConfigENSt3__18functionIFvNS2_6ResultERKNS0_8hidl_vecINS2_13DabTableEntryEEEEEE"
    },
    {
     "mangled_component_name":"_ZN7android8hardware14broadcastradio4V2_018BpHwBroadcastRadio11openSessionERKNS_2spINS2_14ITunerCallbackEEENSt3__18functionIFvNS2_6ResultERKNS4_INS2_13ITunerSessionEEEEEE"
    },
    {
     "mangled_component_name":"_ZN7android8hardware14broadcastradio4V2_018BpHwBroadcastRadio8getImageEjNSt3__18functionIFvRKNS0_8hidl_vecIhEEEEE"
    },
    {
     "mangled_component_name":"_ZN7android8hardware14broadcastradio4V2_018BpHwBroadcastRadio28registerAnnouncementListenerERKNS0_8hidl_vecINS2_16AnnouncementTypeEEERKNS_2spINS2_21IAnnouncementListenerEEENSt3__18functionIFvNS2_6ResultERKNS9_INS2_12ICloseHandleEEEEEE"
    },
    {
     "mangled_component_name":"_ZN7android8hardware11BpInterfaceINS0_14broadcastradio4V2_015IBroadcastRadioEE10onAsBinderEv"
    },
    {
     "kind":"vbase_offset",
     "component_value":80
    },
    {
     "kind":"offset_to_top",
     "component_value":-4
    },
    {
     "kind":"rtti",
     "mangled_component_name":"_ZTIN7android8hardware14broadcastradio4V2_018BpHwBroadcastRadioE"
    },
    {
     "kind":"complete_dtor_pointer",
     "mangled_component_name":"_ZThn4_N7android8hardware14broadcastradio4V2_018BpHwBroadcastRadioD1Ev"
    },
    {
     "kind":"deleting_dtor_pointer",
     "mangled_component_name":"_ZThn4_N7android8hardware14broadcastradio4V2_018BpHwBroadcastRadioD0Ev"
    },
    {
     "mangled_component_name":"_ZThn4_N7android8hardware11BpInterfaceINS0_14broadcastradio4V2_015IBroadcastRadioEE10onAsBinderEv"
    },
    {
     "kind":"vbase_offset",
     "component_value":76
    },
    {
     "kind":"offset_to_top",
     "component_value":-8
    },
    {
     "kind":"rtti",
     "mangled_component_name":"_ZTIN7android8hardware14broadcastradio4V2_018BpHwBroadcastRadioE"
    },
    {
     "kind":"complete_dtor_pointer",
     "mangled_component_name":"_ZThn8_N7android8hardware14broadcastradio4V2_018BpHwBroadcastRadioD1Ev"
    },
    {
     "kind":"deleting_dtor_pointer",
     "mangled_component_name":"_ZThn8_N7android8hardware14broadcastradio4V2_018BpHwBroadcastRadioD0Ev"
    },
    {
     "mangled_component_name":"_ZN7android8hardware11BpHwRefBase10onFirstRefEv"
    },
    {
     "mangled_component_name":"_ZN7android8hardware11BpHwRefBase15onLastStrongRefEPKv"
    },
    {
     "mangled_component_name":"_ZN7android8hardware11BpHwRefBase20onIncStrongAttemptedEjPKv"
    },
    {
     "kind":"offset_to_top",
     "component_value":-24
    },
    {
     "kind":"rtti",
     "mangled_component_name":"_ZTIN7android8hardware14broadcastradio4V2_018BpHwBroadcastRadioE"
    },
    {
     "kind":"complete_dtor_pointer",
     "mangled_component_name":"_ZThn24_N7android8hardware14broadcastradio4V2_018BpHwBroadcastRadioD1Ev"
    },
    {
     "kind":"deleting_dtor_pointer",
     "mangled_component_name":"_ZThn24_N7android8hardware14broadcastradio4V2_018BpHwBroadcastRadioD0Ev"
    },
    {
     "kind":"vcall_offset"
    },
    {
     "kind":"vcall_offset",
     "component_value":-76
    },
    {
     "kind":"vcall_offset",
     "component_value":-76
    },
    {
     "kind":"vcall_offset",
     "component_value":-76
    },
    {
     "kind":"vcall_offset",
     "component_value":-84
    },
    {
     "kind":"offset_to_top",
     "component_value":-84
    },
    {
     "kind":"rtti",
     "mangled_component_name":"_ZTIN7android8hardware14broadcastradio4V2_018BpHwBroadcastRadioE"
    },
    {
     "kind":"complete_dtor_pointer",
     "mangled_component_name":"_ZTv0_n12_N7android8hardware14broadcastradio4V2_018BpHwBroadcastRadioD1Ev"
    },
    {
     "kind":"deleting_dtor_pointer",
     "mangled_component_name":"_ZTv0_n12_N7android8hardware14broadcastradio4V2_018BpHwBroadcastRadioD0Ev"
    },
    {
     "mangled_component_name":"_ZTv0_n16_N7android8hardware11BpHwRefBase10onFirstRefEv"
    },
    {
     "mangled_component_name":"_ZTv0_n20_N7android8hardware11BpHwRefBase15onLastStrongRefEPKv"
    },
    {
     "mangled_component_name":"_ZTv0_n24_N7android8hardware11BpHwRefBase20onIncStrongAttemptedEjPKv"
    },
    {
     "mangled_component_name":"_ZN7android7RefBase13onLastWeakRefEPKv"
    }
   ],
   "unique_id":"_ZTSN7android8hardware14broadcastradio4V2_018BpHwBroadcastRadioE"
  },
  {
   "vtable_components":[
    {
     "kind":"vbase_offset",
     "component_value":60
    },
    {
     "kind":"offset_to_top"
    },
    {
     "kind":"rtti",
     "mangled_component_name":"_ZTIN7android8hardware14broadcastradio4V2_022BsAnnouncementListenerE"
    },
    {
     "mangled_component_name":"_ZNK7android8hardware14broadcastradio4V2_021IAnnouncementListener8isRemoteEv"
    },
    {
     "mangled_component_name":"_ZN7android8hardware14broadcastradio4V2_022BsAnnouncementListener14interfaceChainENSt3__18functionIFvRKNS0_8hidl_vecINS0_11hidl_stringEEEEEE"
    },
    {
     "mangled_component_name":"_ZN7android8hardware14broadcastradio4V2_022BsAnnouncementListener5debugERKNS0_11hidl_handleERKNS0_8hidl_vecINS0_11hidl_stringEEE"
    },
    {
     "mangled_component_name":"_ZN7android8hardware14broadcastradio4V2_022BsAnnouncementListener19interfaceDescriptorENSt3__18functionIFvRKNS0_11hidl_stringEEEE"
    },
    {
     "mangled_component_name":"_ZN7android8hardware14broadcastradio4V2_022BsAnnouncementListener12getHashChainENSt3__18functionIFvRKNS0_8hidl_vecINS0_10hidl_arrayIhLj32EJEEEEEEEE"
    },
    {
     "mangled_component_name":"_ZN7android8hardware14broadcastradio4V2_022BsAnnouncementListener21setHALInstrumentationEv"
    },
    {
     "mangled_component_name":"_ZN7android8hardware14broadcastradio4V2_022BsAnnouncementListener11linkToDeathERKNS_2spINS0_20hidl_death_recipientEEEy"
    },
    {
     "mangled_component_name":"_ZN7android8hardware14broadcastradio4V2_022BsAnnouncementListener4pingEv"
    },
    {
     "mangled_component_name":"_ZN7android8hardware14broadcastradio4V2_022BsAnnouncementListener12getDebugInfoENSt3__18functionIFvRKNS_4hidl4base4V1_09DebugInfoEEEE"
    },
    {
     "mangled_component_name":"_ZN7android8hardware14broadcastradio4V2_022BsAnnouncementListener21notifySyspropsChangedEv"
    },
    {
     "mangled_component_name":"_ZN7android8hardware14broadcastradio4V2_022BsAnnouncementListener13unlinkToDeathERKNS_2spINS0_20hidl_death_recipientEEE"
    },
    {
     "kind":"complete_dtor_pointer",
     "mangled_component_name":"_ZN7android8hardware14broadcastradio4V2_022BsAnnouncementListenerD1Ev"
    },
    {
     "kind":"deleting_dtor_pointer",
     "mangled_component_name":"_ZN7android8hardware14broadcastradio4V2_022BsAnnouncementListenerD0Ev"
    },
    {
     "mangled_component_name":"_ZN7android8hardware14broadcastradio4V2_022BsAnnouncementListener13onListUpdatedERKNS0_8hidl_vecINS2_12AnnouncementEEE"
    },
    {
     "kind":"offset_to_top",
     "component_value":-4
    },
    {
     "kind":"rtti",
     "mangled_component_name":"_ZTIN7android8hardware14broadcastradio4V2_022BsAnnouncementListenerE"
    },
    {
     "kind":"complete_dtor_pointer",
     "mangled_component_name":"_ZThn4_N7android8hardware14broadcastradio4V2_022BsAnnouncementListenerD1Ev"
    },
    {
     "kind":"deleting_dtor_pointer",
     "mangled_component_name":"_ZThn4_N7android8hardware14broadcastradio4V2_022BsAnnouncementListenerD0Ev"
    },
    {
     "kind":"vcall_offset"
    },
    {
     "kind":"vcall_offset"
    },
    {
     "kind":"vcall_offset"
    },
    {
     "kind":"vcall_offset"
    },
    {
     "kind":"vcall_offset",
     "component_value":-60
    },
    {
     "kind":"offset_to_top",
     "component_value":-60
    },
    {
     "kind":"rtti",
     "mangled_component_name":"_ZTIN7android8hardware14broadcastradio4V2_022BsAnnouncementListenerE"
    },
    {
     "kind":"complete_dtor_pointer",
     "mangled_component_name":"_ZTv0_n12_N7android8hardware14broadcastradio4V2_022BsAnnouncementListenerD1Ev"
    },
    {
     "kind":"deleting_dtor_pointer",
     "mangled_component_name":"_ZTv0_n12_N7android8hardware14broadcastradio4V2_022BsAnnouncementListenerD0Ev"
    },
    {
     "mangled_component_name":"_ZN7android7RefBase10onFirstRefEv"
    },
    {
     "mangled_component_name":"_ZN7android7RefBase15onLastStrongRefEPKv"
    },
    {
     "mangled_component_name":"_ZN7android7RefBase20onIncStrongAttemptedEjPKv"
    },
    {
     "mangled_component_name":"_ZN7android7RefBase13onLastWeakRefEPKv"
    }
   ],
   "unique_id":"_ZTSN7android8hardware14broadcastradio4V2_022BsAnnouncementListenerE"
  },
  {
   "vtable_components":[
    {
     "kind":"vbase_offset",
     "component_value":60
    },
    {
     "kind":"offset_to_top"
    },
    {
     "kind":"rtti",
     "mangled_component_name":"_ZTIN7android8hardware14broadcastradio4V2_013BsCloseHandleE"
    },
    {
     "mangled_component_name":"_ZNK7android8hardware14broadcastradio4V2_012ICloseHandle8isRemoteEv"
    },
    {
     "mangled_component_name":"_ZN7android8hardware14broadcastradio4V2_013BsCloseHandle14interfaceChainENSt3__18functionIFvRKNS0_8hidl_vecINS0_11hidl_stringEEEEEE"
    },
    {
     "mangled_component_name":"_ZN7android8hardware14broadcastradio4V2_013BsCloseHandle5debugERKNS0_11hidl_handleERKNS0_8hidl_vecINS0_11hidl_stringEEE"
    },
    {
     "mangled_component_name":"_ZN7android8hardware14broadcastradio4V2_013BsCloseHandle19interfaceDescriptorENSt3__18functionIFvRKNS0_11hidl_stringEEEE"
    },
    {
     "mangled_component_name":"_ZN7android8hardware14broadcastradio4V2_013BsCloseHandle12getHashChainENSt3__18functionIFvRKNS0_8hidl_vecINS0_10hidl_arrayIhLj32EJEEEEEEEE"
    },
    {
     "mangled_component_name":"_ZN7android8hardware14broadcastradio4V2_013BsCloseHandle21setHALInstrumentationEv"
    },
    {
     "mangled_component_name":"_ZN7android8hardware14broadcastradio4V2_013BsCloseHandle11linkToDeathERKNS_2spINS0_20hidl_death_recipientEEEy"
    },
    {
     "mangled_component_name":"_ZN7android8hardware14broadcastradio4V2_013BsCloseHandle4pingEv"
    },
    {
     "mangled_component_name":"_ZN7android8hardware14broadcastradio4V2_013BsCloseHandle12getDebugInfoENSt3__18functionIFvRKNS_4hidl4base4V1_09DebugInfoEEEE"
    },
    {
     "mangled_component_name":"_ZN7android8hardware14broadcastradio4V2_013BsCloseHandle21notifySyspropsChangedEv"
    },
    {
     "mangled_component_name":"_ZN7android8hardware14broadcastradio4V2_013BsCloseHandle13unlinkToDeathERKNS_2spINS0_20hidl_death_recipientEEE"
    },
    {
     "kind":"complete_dtor_pointer",
     "mangled_component_name":"_ZN7android8hardware14broadcastradio4V2_013BsCloseHandleD1Ev"
    },
    {
     "kind":"deleting_dtor_pointer",
     "mangled_component_name":"_ZN7android8hardware14broadcastradio4V2_013BsCloseHandleD0Ev"
    },
    {
     "mangled_component_name":"_ZN7android8hardware14broadcastradio4V2_013BsCloseHandle5closeEv"
    },
    {
     "kind":"offset_to_top",
     "component_value":-4
    },
    {
     "kind":"rtti",
     "mangled_component_name":"_ZTIN7android8hardware14broadcastradio4V2_013BsCloseHandleE"
    },
    {
     "kind":"complete_dtor_pointer",
     "mangled_component_name":"_ZThn4_N7android8hardware14broadcastradio4V2_013BsCloseHandleD1Ev"
    },
    {
     "kind":"deleting_dtor_pointer",
     "mangled_component_name":"_ZThn4_N7android8hardware14broadcastradio4V2_013BsCloseHandleD0Ev"
    },
    {
     "kind":"vcall_offset"
    },
    {
     "kind":"vcall_offset"
    },
    {
     "kind":"vcall_offset"
    },
    {
     "kind":"vcall_offset"
    },
    {
     "kind":"vcall_offset",
     "component_value":-60
    },
    {
     "kind":"offset_to_top",
     "component_value":-60
    },
    {
     "kind":"rtti",
     "mangled_component_name":"_ZTIN7android8hardware14broadcastradio4V2_013BsCloseHandleE"
    },
    {
     "kind":"complete_dtor_pointer",
     "mangled_component_name":"_ZTv0_n12_N7android8hardware14broadcastradio4V2_013BsCloseHandleD1Ev"
    },
    {
     "kind":"deleting_dtor_pointer",
     "mangled_component_name":"_ZTv0_n12_N7android8hardware14broadcastradio4V2_013BsCloseHandleD0Ev"
    },
    {
     "mangled_component_name":"_ZN7android7RefBase10onFirstRefEv"
    },
    {
     "mangled_component_name":"_ZN7android7RefBase15onLastStrongRefEPKv"
    },
    {
     "mangled_component_name":"_ZN7android7RefBase20onIncStrongAttemptedEjPKv"
    },
    {
     "mangled_component_name":"_ZN7android7RefBase13onLastWeakRefEPKv"
    }
   ],
   "unique_id":"_ZTSN7android8hardware14broadcastradio4V2_013BsCloseHandleE"
  },
  {
   "vtable_components":[
    {
     "kind":"vbase_offset",
     "component_value":84
    },
    {
     "kind":"offset_to_top"
    },
    {
     "kind":"rtti",
     "mangled_component_name":"_ZTIN7android8hardware14broadcastradio4V2_024BpHwAnnouncementListenerE"
    },
    {
     "mangled_component_name":"_ZNK7android8hardware14broadcastradio4V2_024BpHwAnnouncementListener8isRemoteEv"
    },
    {
     "mangled_component_name":"_ZN7android8hardware14broadcastradio4V2_024BpHwAnnouncementListener14interfaceChainENSt3__18functionIFvRKNS0_8hidl_vecINS0_11hidl_stringEEEEEE"
    },
    {
     "mangled_component_name":"_ZN7android8hardware14broadcastradio4V2_024BpHwAnnouncementListener5debugERKNS0_11hidl_handleERKNS0_8hidl_vecINS0_11hidl_stringEEE"
    },
    {
     "mangled_component_name":"_ZN7android8hardware14broadcastradio4V2_024BpHwAnnouncementListener19interfaceDescriptorENSt3__18functionIFvRKNS0_11hidl_stringEEEE"
    },
    {
     "mangled_component_name":"_ZN7android8hardware14broadcastradio4V2_024BpHwAnnouncementListener12getHashChainENSt3__18functionIFvRKNS0_8hidl_vecINS0_10hidl_arrayIhLj32EJEEEEEEEE"
    },
    {
     "mangled_component_name":"_ZN7android8hardware14broadcastradio4V2_024BpHwAnnouncementListener21setHALInstrumentationEv"
    },
    {
     "mangled_component_name":"_ZN7android8hardware14broadcastradio4V2_024BpHwAnnouncementListener11linkToDeathERKNS_2spINS0_20hidl_death_recipientEEEy"
    },
    {
     "mangled_component_name":"_ZN7android8hardware14broadcastradio4V2_024BpHwAnnouncementListener4pingEv"
    },
    {
     "mangled_component_name":"_ZN7android8hardware14broadcastradio4V2_024BpHwAnnouncementListener12getDebugInfoENSt3__18functionIFvRKNS_4hidl4base4V1_09DebugInfoEEEE"
    },
    {
     "mangled_component_name":"_ZN7android8hardware14broadcastradio4V2_024BpHwAnnouncementListener21notifySyspropsChangedEv"
    },
    {
     "mangled_component_name":"_ZN7android8hardware14broadcastradio4V2_024BpHwAnnouncementListener13unlinkToDeathERKNS_2spINS0_20hidl_death_recipientEEE"
    },
    {
     "kind":"complete_dtor_pointer",
     "mangled_component_name":"_ZN7android8hardware14broadcastradio4V2_024BpHwAnnouncementListenerD1Ev"
    },
    {
     "kind":"deleting_dtor_pointer",
     "mangled_component_name":"_ZN7android8hardware14broadcastradio4V2_024BpHwAnnouncementListenerD0Ev"
    },
    {
     "mangled_component_name":"_ZN7android8hardware14broadcastradio4V2_024BpHwAnnouncementListener13onListUpdatedERKNS0_8hidl_vecINS2_12AnnouncementEEE"
    },
    {
     "mangled_component_name":"_ZN7android8hardware11BpInterfaceINS0_14broadcastradio4V2_021IAnnouncementListenerEE10onAsBinderEv"
    },
    {
     "kind":"vbase_offset",
     "component_value":80
    },
    {
     "kind":"offset_to_top",
     "component_value":-4
    },
    {
     "kind":"rtti",
     "mangled_component_name":"_ZTIN7android8hardware14broadcastradio4V2_024BpHwAnnouncementListenerE"
    },
    {
     "kind":"complete_dtor_pointer",
     "mangled_component_name":"_ZThn4_N7android8hardware14broadcastradio4V2_024BpHwAnnouncementListenerD1Ev"
    },
    {
     "kind":"deleting_dtor_pointer",
     "mangled_component_name":"_ZThn4_N7android8hardware14broadcastradio4V2_024BpHwAnnouncementListenerD0Ev"
    },
    {
     "mangled_component_name":"_ZThn4_N7android8hardware11BpInterfaceINS0_14broadcastradio4V2_021IAnnouncementListenerEE10onAsBinderEv"
    },
    {
     "kind":"vbase_offset",
     "component_value":76
    },
    {
     "kind":"offset_to_top",
     "component_value":-8
    },
    {
     "kind":"rtti",
     "mangled_component_name":"_ZTIN7android8hardware14broadcastradio4V2_024BpHwAnnouncementListenerE"
    },
    {
     "kind":"complete_dtor_pointer",
     "mangled_component_name":"_ZThn8_N7android8hardware14broadcastradio4V2_024BpHwAnnouncementListenerD1Ev"
    },
    {
     "kind":"deleting_dtor_pointer",
     "mangled_component_name":"_ZThn8_N7android8hardware14broadcastradio4V2_024BpHwAnnouncementListenerD0Ev"
    },
    {
     "mangled_component_name":"_ZN7android8hardware11BpHwRefBase10onFirstRefEv"
    },
    {
     "mangled_component_name":"_ZN7android8hardware11BpHwRefBase15onLastStrongRefEPKv"
    },
    {
     "mangled_component_name":"_ZN7android8hardware11BpHwRefBase20onIncStrongAttemptedEjPKv"
    },
    {
     "kind":"offset_to_top",
     "component_value":-24
    },
    {
     "kind":"rtti",
     "mangled_component_name":"_ZTIN7android8hardware14broadcastradio4V2_024BpHwAnnouncementListenerE"
    },
    {
     "kind":"complete_dtor_pointer",
     "mangled_component_name":"_ZThn24_N7android8hardware14broadcastradio4V2_024BpHwAnnouncementListenerD1Ev"
    },
    {
     "kind":"deleting_dtor_pointer",
     "mangled_component_name":"_ZThn24_N7android8hardware14broadcastradio4V2_024BpHwAnnouncementListenerD0Ev"
    },
    {
     "kind":"vcall_offset"
    },
    {
     "kind":"vcall_offset",
     "component_value":-76
    },
    {
     "kind":"vcall_offset",
     "component_value":-76
    },
    {
     "kind":"vcall_offset",
     "component_value":-76
    },
    {
     "kind":"vcall_offset",
     "component_value":-84
    },
    {
     "kind":"offset_to_top",
     "component_value":-84
    },
    {
     "kind":"rtti",
     "mangled_component_name":"_ZTIN7android8hardware14broadcastradio4V2_024BpHwAnnouncementListenerE"
    },
    {
     "kind":"complete_dtor_pointer",
     "mangled_component_name":"_ZTv0_n12_N7android8hardware14broadcastradio4V2_024BpHwAnnouncementListenerD1Ev"
    },
    {
     "kind":"deleting_dtor_pointer",
     "mangled_component_name":"_ZTv0_n12_N7android8hardware14broadcastradio4V2_024BpHwAnnouncementListenerD0Ev"
    },
    {
     "mangled_component_name":"_ZTv0_n16_N7android8hardware11BpHwRefBase10onFirstRefEv"
    },
    {
     "mangled_component_name":"_ZTv0_n20_N7android8hardware11BpHwRefBase15onLastStrongRefEPKv"
    },
    {
     "mangled_component_name":"_ZTv0_n24_N7android8hardware11BpHwRefBase20onIncStrongAttemptedEjPKv"
    },
    {
     "mangled_component_name":"_ZN7android7RefBase13onLastWeakRefEPKv"
    }
   ],
   "unique_id":"_ZTSN7android8hardware14broadcastradio4V2_024BpHwAnnouncementListenerE"
  },
  {
   "vtable_components":[
    {
     "kind":"vbase_offset",
     "component_value":60
    },
    {
     "kind":"offset_to_top"
    },
    {
     "kind":"rtti",
     "mangled_component_name":"_ZTIN7android8hardware14broadcastradio4V2_015BsTunerCallbackE"
    },
    {
     "mangled_component_name":"_ZNK7android8hardware14broadcastradio4V2_014ITunerCallback8isRemoteEv"
    },
    {
     "mangled_component_name":"_ZN7android8hardware14broadcastradio4V2_015BsTunerCallback14interfaceChainENSt3__18functionIFvRKNS0_8hidl_vecINS0_11hidl_stringEEEEEE"
    },
    {
     "mangled_component_name":"_ZN7android8hardware14broadcastradio4V2_015BsTunerCallback5debugERKNS0_11hidl_handleERKNS0_8hidl_vecINS0_11hidl_stringEEE"
    },
    {
     "mangled_component_name":"_ZN7android8hardware14broadcastradio4V2_015BsTunerCallback19interfaceDescriptorENSt3__18functionIFvRKNS0_11hidl_stringEEEE"
    },
    {
     "mangled_component_name":"_ZN7android8hardware14broadcastradio4V2_015BsTunerCallback12getHashChainENSt3__18functionIFvRKNS0_8hidl_vecINS0_10hidl_arrayIhLj32EJEEEEEEEE"
    },
    {
     "mangled_component_name":"_ZN7android8hardware14broadcastradio4V2_015BsTunerCallback21setHALInstrumentationEv"
    },
    {
     "mangled_component_name":"_ZN7android8hardware14broadcastradio4V2_015BsTunerCallback11linkToDeathERKNS_2spINS0_20hidl_death_recipientEEEy"
    },
    {
     "mangled_component_name":"_ZN7android8hardware14broadcastradio4V2_015BsTunerCallback4pingEv"
    },
    {
     "mangled_component_name":"_ZN7android8hardware14broadcastradio4V2_015BsTunerCallback12getDebugInfoENSt3__18functionIFvRKNS_4hidl4base4V1_09DebugInfoEEEE"
    },
    {
     "mangled_component_name":"_ZN7android8hardware14broadcastradio4V2_015BsTunerCallback21notifySyspropsChangedEv"
    },
    {
     "mangled_component_name":"_ZN7android8hardware14broadcastradio4V2_015BsTunerCallback13unlinkToDeathERKNS_2spINS0_20hidl_death_recipientEEE"
    },
    {
     "kind":"complete_dtor_pointer",
     "mangled_component_name":"_ZN7android8hardware14broadcastradio4V2_015BsTunerCallbackD1Ev"
    },
    {
     "kind":"deleting_dtor_pointer",
     "mangled_component_name":"_ZN7android8hardware14broadcastradio4V2_015BsTunerCallbackD0Ev"
    },
    {
     "mangled_component_name":"_ZN7android8hardware14broadcastradio4V2_015BsTunerCallback12onTuneFailedENS2_6ResultERKNS2_15ProgramSelectorE"
    },
    {
     "mangled_component_name":"_ZN7android8hardware14broadcastradio4V2_015BsTunerCallback27onCurrentProgramInfoChangedERKNS2_11ProgramInfoE"
    },
    {
     "mangled_component_name":"_ZN7android8hardware14broadcastradio4V2_015BsTunerCallback20onProgramListUpdatedERKNS2_16ProgramListChunkE"
    },
    {
     "mangled_component_name":"_ZN7android8hardware14broadcastradio4V2_015BsTunerCallback20onAntennaStateChangeEb"
    },
    {
     "mangled_component_name":"_ZN7android8hardware14broadcastradio4V2_015BsTunerCallback19onParametersUpdatedERKNS0_8hidl_vecINS2_14VendorKeyValueEEE"
    },
    {
     "kind":"offset_to_top",
     "component_value":-4
    },
    {
     "kind":"rtti",
     "mangled_component_name":"_ZTIN7android8hardware14broadcastradio4V2_015BsTunerCallbackE"
    },
    {
     "kind":"complete_dtor_pointer",
     "mangled_component_name":"_ZThn4_N7android8hardware14broadcastradio4V2_015BsTunerCallbackD1Ev"
    },
    {
     "kind":"deleting_dtor_pointer",
     "mangled_component_name":"_ZThn4_N7android8hardware14broadcastradio4V2_015BsTunerCallbackD0Ev"
    },
    {
     "kind":"vcall_offset"
    },
    {
     "kind":"vcall_offset"
    },
    {
     "kind":"vcall_offset"
    },
    {
     "kind":"vcall_offset"
    },
    {
     "kind":"vcall_offset",
     "component_value":-60
    },
    {
     "kind":"offset_to_top",
     "component_value":-60
    },
    {
     "kind":"rtti",
     "mangled_component_name":"_ZTIN7android8hardware14broadcastradio4V2_015BsTunerCallbackE"
    },
    {
     "kind":"complete_dtor_pointer",
     "mangled_component_name":"_ZTv0_n12_N7android8hardware14broadcastradio4V2_015BsTunerCallbackD1Ev"
    },
    {
     "kind":"deleting_dtor_pointer",
     "mangled_component_name":"_ZTv0_n12_N7android8hardware14broadcastradio4V2_015BsTunerCallbackD0Ev"
    },
    {
     "mangled_component_name":"_ZN7android7RefBase10onFirstRefEv"
    },
    {
     "mangled_component_name":"_ZN7android7RefBase15onLastStrongRefEPKv"
    },
    {
     "mangled_component_name":"_ZN7android7RefBase20onIncStrongAttemptedEjPKv"
    },
    {
     "mangled_component_name":"_ZN7android7RefBase13onLastWeakRefEPKv"
    }
   ],
   "unique_id":"_ZTSN7android8hardware14broadcastradio4V2_015BsTunerCallbackE"
  },
  {
   "vtable_components":[
    {
     "kind":"vbase_offset",
     "component_value":60
    },
    {
     "kind":"offset_to_top"
    },
    {
     "kind":"rtti",
     "mangled_component_name":"_ZTIN7android8hardware14broadcastradio4V2_014BsTunerSessionE"
    },
    {
     "mangled_component_name":"_ZNK7android8hardware14broadcastradio4V2_013ITunerSession8isRemoteEv"
    },
    {
     "mangled_component_name":"_ZN7android8hardware14broadcastradio4V2_014BsTunerSession14interfaceChainENSt3__18functionIFvRKNS0_8hidl_vecINS0_11hidl_stringEEEEEE"
    },
    {
     "mangled_component_name":"_ZN7android8hardware14broadcastradio4V2_014BsTunerSession5debugERKNS0_11hidl_handleERKNS0_8hidl_vecINS0_11hidl_stringEEE"
    },
    {
     "mangled_component_name":"_ZN7android8hardware14broadcastradio4V2_014BsTunerSession19interfaceDescriptorENSt3__18functionIFvRKNS0_11hidl_stringEEEE"
    },
    {
     "mangled_component_name":"_ZN7android8hardware14broadcastradio4V2_014BsTunerSession12getHashChainENSt3__18functionIFvRKNS0_8hidl_vecINS0_10hidl_arrayIhLj32EJEEEEEEEE"
    },
    {
     "mangled_component_name":"_ZN7android8hardware14broadcastradio4V2_014BsTunerSession21setHALInstrumentationEv"
    },
    {
     "mangled_component_name":"_ZN7android8hardware14broadcastradio4V2_014BsTunerSession11linkToDeathERKNS_2spINS0_20hidl_death_recipientEEEy"
    },
    {
     "mangled_component_name":"_ZN7android8hardware14broadcastradio4V2_014BsTunerSession4pingEv"
    },
    {
     "mangled_component_name":"_ZN7android8hardware14broadcastradio4V2_014BsTunerSession12getDebugInfoENSt3__18functionIFvRKNS_4hidl4base4V1_09DebugInfoEEEE"
    },
    {
     "mangled_component_name":"_ZN7android8hardware14broadcastradio4V2_014BsTunerSession21notifySyspropsChangedEv"
    },
    {
     "mangled_component_name":"_ZN7android8hardware14broadcastradio4V2_014BsTunerSession13unlinkToDeathERKNS_2spINS0_20hidl_death_recipientEEE"
    },
    {
     "kind":"complete_dtor_pointer",
     "mangled_component_name":"_ZN7android8hardware14broadcastradio4V2_014BsTunerSessionD1Ev"
    },
    {
     "kind":"deleting_dtor_pointer",
     "mangled_component_name":"_ZN7android8hardware14broadcastradio4V2_014BsTunerSessionD0Ev"
    },
    {
     "mangled_component_name":"_ZN7android8hardware14broadcastradio4V2_014BsTunerSession4tuneERKNS2_15ProgramSelectorE"
    },
    {
     "mangled_component_name":"_ZN7android8hardware14broadcastradio4V2_014BsTunerSession4scanEbb"
    },
    {
     "mangled_component_name":"_ZN7android8hardware14broadcastradio4V2_014BsTunerSession4stepEb"
    },
    {
     "mangled_component_name":"_ZN7android8hardware14broadcastradio4V2_014BsTunerSession6cancelEv"
    },
    {
     "mangled_component_name":"_ZN7android8hardware14broadcastradio4V2_014BsTunerSession23startProgramListUpdatesERKNS2_13ProgramFilterE"
    },
    {
     "mangled_component_name":"_ZN7android8hardware14broadcastradio4V2_014BsTunerSession22stopProgramListUpdatesEv"
    },
    {
     "mangled_component_name":"_ZN7android8hardware14broadcastradio4V2_014BsTunerSession15isConfigFlagSetENS2_10ConfigFlagENSt3__18functionIFvNS2_6ResultEbEEE"
    },
    {
     "mangled_component_name":"_ZN7android8hardware14broadcastradio4V2_014BsTunerSession13setConfigFlagENS2_10ConfigFlagEb"
    },
    {
     "mangled_component_name":"_ZN7android8hardware14broadcastradio4V2_014BsTunerSession13setParametersERKNS0_8hidl_vecINS2_14VendorKeyValueEEENSt3__18functionIFvS8_EEE"
    },
    {
     "mangled_component_name":"_ZN7android8hardware14broadcastradio4V2_014BsTunerSession13getParametersERKNS0_8hidl_vecINS0_11hidl_stringEEENSt3__18functionIFvRKNS4_INS2_14VendorKeyValueEEEEEE"
    },
    {
     "mangled_component_name":"_ZN7android8hardware14broadcastradio4V2_014BsTunerSession5closeEv"
    },
    {
     "kind":"offset_to_top",
     "component_value":-4
    },
    {
     "kind":"rtti",
     "mangled_component_name":"_ZTIN7android8hardware14broadcastradio4V2_014BsTunerSessionE"
    },
    {
     "kind":"complete_dtor_pointer",
     "mangled_component_name":"_ZThn4_N7android8hardware14broadcastradio4V2_014BsTunerSessionD1Ev"
    },
    {
     "kind":"deleting_dtor_pointer",
     "mangled_component_name":"_ZThn4_N7android8hardware14broadcastradio4V2_014BsTunerSessionD0Ev"
    },
    {
     "kind":"vcall_offset"
    },
    {
     "kind":"vcall_offset"
    },
    {
     "kind":"vcall_offset"
    },
    {
     "kind":"vcall_offset"
    },
    {
     "kind":"vcall_offset",
     "component_value":-60
    },
    {
     "kind":"offset_to_top",
     "component_value":-60
    },
    {
     "kind":"rtti",
     "mangled_component_name":"_ZTIN7android8hardware14broadcastradio4V2_014BsTunerSessionE"
    },
    {
     "kind":"complete_dtor_pointer",
     "mangled_component_name":"_ZTv0_n12_N7android8hardware14broadcastradio4V2_014BsTunerSessionD1Ev"
    },
    {
     "kind":"deleting_dtor_pointer",
     "mangled_component_name":"_ZTv0_n12_N7android8hardware14broadcastradio4V2_014BsTunerSessionD0Ev"
    },
    {
     "mangled_component_name":"_ZN7android7RefBase10onFirstRefEv"
    },
    {
     "mangled_component_name":"_ZN7android7RefBase15onLastStrongRefEPKv"
    },
    {
     "mangled_component_name":"_ZN7android7RefBase20onIncStrongAttemptedEjPKv"
    },
    {
     "mangled_component_name":"_ZN7android7RefBase13onLastWeakRefEPKv"
    }
   ],
   "unique_id":"_ZTSN7android8hardware14broadcastradio4V2_014BsTunerSessionE"
  },
  {
   "vtable_components":[
    {
     "kind":"vbase_offset",
     "component_value":4
    },
    {
     "kind":"offset_to_top"
    },
    {
     "kind":"rtti",
     "mangled_component_name":"_ZTIN7android8hardware14broadcastradio4V2_015IBroadcastRadioE"
    },
    {
     "mangled_component_name":"_ZNK7android8hardware14broadcastradio4V2_015IBroadcastRadio8isRemoteEv"
    },
    {
     "mangled_component_name":"_ZN7android8hardware14broadcastradio4V2_015IBroadcastRadio14interfaceChainENSt3__18functionIFvRKNS0_8hidl_vecINS0_11hidl_stringEEEEEE"
    },
    {
     "mangled_component_name":"_ZN7android8hardware14broadcastradio4V2_015IBroadcastRadio5debugERKNS0_11hidl_handleERKNS0_8hidl_vecINS0_11hidl_stringEEE"
    },
    {
     "mangled_component_name":"_ZN7android8hardware14broadcastradio4V2_015IBroadcastRadio19interfaceDescriptorENSt3__18functionIFvRKNS0_11hidl_stringEEEE"
    },
    {
     "mangled_component_name":"_ZN7android8hardware14broadcastradio4V2_015IBroadcastRadio12getHashChainENSt3__18functionIFvRKNS0_8hidl_vecINS0_10hidl_arrayIhLj32EJEEEEEEEE"
    },
    {
     "mangled_component_name":"_ZN7android8hardware14broadcastradio4V2_015IBroadcastRadio21setHALInstrumentationEv"
    },
    {
     "mangled_component_name":"_ZN7android8hardware14broadcastradio4V2_015IBroadcastRadio11linkToDeathERKNS_2spINS0_20hidl_death_recipientEEEy"
    },
    {
     "mangled_component_name":"_ZN7android8hardware14broadcastradio4V2_015IBroadcastRadio4pingEv"
    },
    {
     "mangled_component_name":"_ZN7android8hardware14broadcastradio4V2_015IBroadcastRadio12getDebugInfoENSt3__18functionIFvRKNS_4hidl4base4V1_09DebugInfoEEEE"
    },
    {
     "mangled_component_name":"_ZN7android8hardware14broadcastradio4V2_015IBroadcastRadio21notifySyspropsChangedEv"
    },
    {
     "mangled_component_name":"_ZN7android8hardware14broadcastradio4V2_015IBroadcastRadio13unlinkToDeathERKNS_2spINS0_20hidl_death_recipientEEE"
    },
    {
     "kind":"complete_dtor_pointer",
     "mangled_component_name":"_ZN7android8hardware14broadcastradio4V2_015IBroadcastRadioD1Ev"
    },
    {
     "kind":"deleting_dtor_pointer",
     "mangled_component_name":"_ZN7android8hardware14broadcastradio4V2_015IBroadcastRadioD0Ev"
    },
    {
     "is_pure":true,
     "mangled_component_name":"_ZN7android8hardware14broadcastradio4V2_015IBroadcastRadio13getPropertiesENSt3__18functionIFvRKNS2_10PropertiesEEEE"
    },
    {
     "is_pure":true,
     "mangled_component_name":"_ZN7android8hardware14broadcastradio4V2_015IBroadcastRadio19getAmFmRegionConfigEbNSt3__18functionIFvNS2_6ResultERKNS2_16AmFmRegionConfigEEEE"
    },
    {
     "is_pure":true,
     "mangled_component_name":"_ZN7android8hardware14broadcastradio4V2_015IBroadcastRadio18getDabRegionConfigENSt3__18functionIFvNS2_6ResultERKNS0_8hidl_vecINS2_13DabTableEntryEEEEEE"
    },
    {
     "is_pure":true,
     "mangled_component_name":"_ZN7android8hardware14broadcastradio4V2_015IBroadcastRadio11openSessionERKNS_2spINS2_14ITunerCallbackEEENSt3__18functionIFvNS2_6ResultERKNS4_INS2_13ITunerSessionEEEEEE"
    },
    {
     "is_pure":true,
     "mangled_component_name":"_ZN7android8hardware14broadcastradio4V2_015IBroadcastRadio8getImageEjNSt3__18functionIFvRKNS0_8hidl_vecIhEEEEE"
    },
    {
     "is_pure":true,
     "mangled_component_name":"_ZN7android8hardware14broadcastradio4V2_015IBroadcastRadio28registerAnnouncementListenerERKNS0_8hidl_vecINS2_16AnnouncementTypeEEERKNS_2spINS2_21IAnnouncementListenerEEENSt3__18functionIFvNS2_6ResultERKNS9_INS2_12ICloseHandleEEEEEE"
    },
    {
     "kind":"vcall_offset"
    },
    {
     "kind":"vcall_offset"
    },
    {
     "kind":"vcall_offset"
    },
    {
     "kind":"vcall_offset"
    },
    {
     "kind":"vcall_offset",
     "component_value":-4
    },
    {
     "kind":"offset_to_top",
     "component_value":-4
    },
    {
     "kind":"rtti",
     "mangled_component_name":"_ZTIN7android8hardware14broadcastradio4V2_015IBroadcastRadioE"
    },
    {
     "kind":"complete_dtor_pointer",
     "mangled_component_name":"_ZTv0_n12_N7android8hardware14broadcastradio4V2_015IBroadcastRadioD1Ev"
    },
    {
     "kind":"deleting_dtor_pointer",
     "mangled_component_name":"_ZTv0_n12_N7android8hardware14broadcastradio4V2_015IBroadcastRadioD0Ev"
    },
    {
     "mangled_component_name":"_ZN7android7RefBase10onFirstRefEv"
    },
    {
     "mangled_component_name":"_ZN7android7RefBase15onLastStrongRefEPKv"
    },
    {
     "mangled_component_name":"_ZN7android7RefBase20onIncStrongAttemptedEjPKv"
    },
    {
     "mangled_component_name":"_ZN7android7RefBase13onLastWeakRefEPKv"
    }
   ],
   "unique_id":"_ZTSN7android8hardware14broadcastradio4V2_015IBroadcastRadioE"
  },
  {
   "vtable_components":[
    {
     "kind":"vbase_offset",
     "component_value":72
    },
    {
     "kind":"offset_to_top"
    },
    {
     "kind":"rtti",
     "mangled_component_name":"_ZTIN7android8hardware14broadcastradio4V2_024BnHwAnnouncementListenerE"
    },
    {
     "mangled_component_name":"_ZN7android8hardware9BHwBinder8transactEjRKNS0_6ParcelEPS2_jNSt3__18functionIFvRS2_EEE"
    },
    {
     "mangled_component_name":"_ZN7android8hardware9BHwBinder11linkToDeathERKNS_2spINS0_7IBinder14DeathRecipientEEEPvj"
    },
    {
     "mangled_component_name":"_ZN7android8hardware9BHwBinder13unlinkToDeathERKNS_2wpINS0_7IBinder14DeathRecipientEEEPvjPS5_"
    },
    {
     "mangled_component_name":"_ZNK7android8hardware7IBinder13checkSubclassEPKv"
    },
    {
     "mangled_component_name":"_ZN7android8hardware9BHwBinder12attachObjectEPKvPvS4_PFvS3_S4_S4_E"
    },
    {
     "mangled_component_name":"_ZNK7android8hardware9BHwBinder10findObjectEPKv"
    },
    {
     "mangled_component_name":"_ZN7android8hardware9BHwBinder12detachObjectEPKv"
    },
    {
     "mangled_component_name":"_ZN7android8hardware9BHwBinder11localBinderEv"
    },
    {
     "mangled_component_name":"_ZN7android8hardware7IBinder12remoteBinderEv"
    },
    {
     "kind":"complete_dtor_pointer",
     "mangled_component_name":"_ZN7android8hardware14broadcastradio4V2_024BnHwAnnouncementListenerD1Ev"
    },
    {
     "kind":"deleting_dtor_pointer",
     "mangled_component_name":"_ZN7android8hardware14broadcastradio4V2_024BnHwAnnouncementListenerD0Ev"
    },
    {
     "mangled_component_name":"_ZN7android8hardware14broadcastradio4V2_024BnHwAnnouncementListener10onTransactEjRKNS0_6ParcelEPS4_jNSt3__18functionIFvRS4_EEE"
    },
    {
     "kind":"offset_to_top",
     "component_value":-20
    },
    {
     "kind":"rtti",
     "mangled_component_name":"_ZTIN7android8hardware14broadcastradio4V2_024BnHwAnnouncementListenerE"
    },
    {
     "kind":"complete_dtor_pointer",
     "mangled_component_name":"_ZThn20_N7android8hardware14broadcastradio4V2_024BnHwAnnouncementListenerD1Ev"
    },
    {
     "kind":"deleting_dtor_pointer",
     "mangled_component_name":"_ZThn20_N7android8hardware14broadcastradio4V2_024BnHwAnnouncementListenerD0Ev"
    },
    {
     "kind":"vcall_offset"
    },
    {
     "kind":"vcall_offset"
    },
    {
     "kind":"vcall_offset"
    },
    {
     "kind":"vcall_offset"
    },
    {
     "kind":"vcall_offset",
     "component_value":-72
    },
    {
     "kind":"offset_to_top",
     "component_value":-72
    },
    {
     "kind":"rtti",
     "mangled_component_name":"_ZTIN7android8hardware14broadcastradio4V2_024BnHwAnnouncementListenerE"
    },
    {
     "kind":"complete_dtor_pointer",
     "mangled_component_name":"_ZTv0_n12_N7android8hardware14broadcastradio4V2_024BnHwAnnouncementListenerD1Ev"
    },
    {
     "kind":"deleting_dtor_pointer",
     "mangled_component_name":"_ZTv0_n12_N7android8hardware14broadcastradio4V2_024BnHwAnnouncementListenerD0Ev"
    },
    {
     "mangled_component_name":"_ZN7android7RefBase10onFirstRefEv"
    },
    {
     "mangled_component_name":"_ZN7android7RefBase15onLastStrongRefEPKv"
    },
    {
     "mangled_component_name":"_ZN7android7RefBase20onIncStrongAttemptedEjPKv"
    },
    {
     "mangled_component_name":"_ZN7android7RefBase13onLastWeakRefEPKv"
    }
   ],
   "unique_id":"_ZTSN7android8hardware14broadcastradio4V2_024BnHwAnnouncementListenerE"
  },
  {
   "vtable_components":[
    {
     "kind":"vbase_offset",
     "component_value":4
    },
    {
     "kind":"offset_to_top"
    },
    {
     "kind":"rtti",
     "mangled_component_name":"_ZTIN7android8hardware14broadcastradio4V2_021IAnnouncementListenerE"
    },
    {
     "mangled_component_name":"_ZNK7android8hardware14broadcastradio4V2_021IAnnouncementListener8isRemoteEv"
    },
    {
     "mangled_component_name":"_ZN7android8hardware14broadcastradio4V2_021IAnnouncementListener14interfaceChainENSt3__18functionIFvRKNS0_8hidl_vecINS0_11hidl_stringEEEEEE"
    },
    {
     "mangled_component_name":"_ZN7android8hardware14broadcastradio4V2_021IAnnouncementListener5debugERKNS0_11hidl_handleERKNS0_8hidl_vecINS0_11hidl_stringEEE"
    },
    {
     "mangled_component_name":"_ZN7android8hardware14broadcastradio4V2_021IAnnouncementListener19interfaceDescriptorENSt3__18functionIFvRKNS0_11hidl_stringEEEE"
    },
    {
     "mangled_component_name":"_ZN7android8hardware14broadcastradio4V2_021IAnnouncementListener12getHashChainENSt3__18functionIFvRKNS0_8hidl_vecINS0_10hidl_arrayIhLj32EJEEEEEEEE"
    },
    {
     "mangled_component_name":"_ZN7android8hardware14broadcastradio4V2_021IAnnouncementListener21setHALInstrumentationEv"
    },
    {
     "mangled_component_name":"_ZN7android8hardware14broadcastradio4V2_021IAnnouncementListener11linkToDeathERKNS_2spINS0_20hidl_death_recipientEEEy"
    },
    {
     "mangled_component_name":"_ZN7android8hardware14broadcastradio4V2_021IAnnouncementListener4pingEv"
    },
    {
     "mangled_component_name":"_ZN7android8hardware14broadcastradio4V2_021IAnnouncementListener12getDebugInfoENSt3__18functionIFvRKNS_4hidl4base4V1_09DebugInfoEEEE"
    },
    {
     "mangled_component_name":"_ZN7android8hardware14broadcastradio4V2_021IAnnouncementListener21notifySyspropsChangedEv"
    },
    {
     "mangled_component_name":"_ZN7android8hardware14broadcastradio4V2_021IAnnouncementListener13unlinkToDeathERKNS_2spINS0_20hidl_death_recipientEEE"
    },
    {
     "kind":"complete_dtor_pointer",
     "mangled_component_name":"_ZN7android8hardware14broadcastradio4V2_021IAnnouncementListenerD1Ev"
    },
    {
     "kind":"deleting_dtor_pointer",
     "mangled_component_name":"_ZN7android8hardware14broadcastradio4V2_021IAnnouncementListenerD0Ev"
    },
    {
     "is_pure":true,
     "mangled_component_name":"_ZN7android8hardware14broadcastradio4V2_021IAnnouncementListener13onListUpdatedERKNS0_8hidl_vecINS2_12AnnouncementEEE"
    },
    {
     "kind":"vcall_offset"
    },
    {
     "kind":"vcall_offset"
    },
    {
     "kind":"vcall_offset"
    },
    {
     "kind":"vcall_offset"
    },
    {
     "kind":"vcall_offset",
     "component_value":-4
    },
    {
     "kind":"offset_to_top",
     "component_value":-4
    },
    {
     "kind":"rtti",
     "mangled_component_name":"_ZTIN7android8hardware14broadcastradio4V2_021IAnnouncementListenerE"
    },
    {
     "kind":"complete_dtor_pointer",
     "mangled_component_name":"_ZTv0_n12_N7android8hardware14broadcastradio4V2_021IAnnouncementListenerD1Ev"
    },
    {
     "kind":"deleting_dtor_pointer",
     "mangled_component_name":"_ZTv0_n12_N7android8hardware14broadcastradio4V2_021IAnnouncementListenerD0Ev"
    },
    {
     "mangled_component_name":"_ZN7android7RefBase10onFirstRefEv"
    },
    {
     "mangled_component_name":"_ZN7android7RefBase15onLastStrongRefEPKv"
    },
    {
     "mangled_component_name":"_ZN7android7RefBase20onIncStrongAttemptedEjPKv"
    },
    {
     "mangled_component_name":"_ZN7android7RefBase13onLastWeakRefEPKv"
    }
   ],
   "unique_id":"_ZTSN7android8hardware14broadcastradio4V2_021IAnnouncementListenerE"
  }
 ],
 "elf_functions":[
  {
   "binding":"weak",
   "name":"_ZN7android8hardware10fromBinderINS0_14broadcastradio4V2_012ICloseHandleENS3_15BpHwCloseHandleENS3_15BnHwCloseHandleEEENS_2spIT_EERKNS7_INS0_7IBinderEEE"
  },
  {
   "binding":"weak",
   "name":"_ZN7android8hardware10fromBinderINS0_14broadcastradio4V2_013ITunerSessionENS3_16BpHwTunerSessionENS3_16BnHwTunerSessionEEENS_2spIT_EERKNS7_INS0_7IBinderEEE"
  },
  {
   "binding":"weak",
   "name":"_ZN7android8hardware10fromBinderINS0_14broadcastradio4V2_014ITunerCallbackENS3_17BpHwTunerCallbackENS3_17BnHwTunerCallbackEEENS_2spIT_EERKNS7_INS0_7IBinderEEE"
  },
  {
   "binding":"weak",
   "name":"_ZN7android8hardware10fromBinderINS0_14broadcastradio4V2_021IAnnouncementListenerENS3_24BpHwAnnouncementListenerENS3_24BnHwAnnouncementListenerEEENS_2spIT_EERKNS7_INS0_7IBinderEEE"
  },
  {
   "name":"_ZN7android8hardware14broadcastradio4V2_012ICloseHandle10getServiceERKNSt3__112basic_stringIcNS4_11char_traitsIcEENS4_9allocatorIcEEEEb"
  },
  {
   "name":"_ZN7android8hardware14broadcastradio4V2_012ICloseHandle11linkToDeathERKNS_2spINS0_20hidl_death_recipientEEEy"
  },
  {
   "name":"_ZN7android8hardware14broadcastradio4V2_012ICloseHandle12getDebugInfoENSt3__18functionIFvRKNS_4hidl4base4V1_09DebugInfoEEEE"
  },
  {
   "name":"_ZN7android8hardware14broadcastradio4V2_012ICloseHandle12getHashChainENSt3__18functionIFvRKNS0_8hidl_vecINS0_10hidl_arrayIhLj32EJEEEEEEEE"
  },
  {
   "name":"_ZN7android8hardware14broadcastradio4V2_012ICloseHandle13tryGetServiceERKNSt3__112basic_stringIcNS4_11char_traitsIcEENS4_9allocatorIcEEEEb"
  },
  {
   "name":"_ZN7android8hardware14broadcastradio4V2_012ICloseHandle13unlinkToDeathERKNS_2spINS0_20hidl_death_recipientEEE"
  },
  {
   "name":"_ZN7android8hardware14broadcastradio4V2_012ICloseHandle14interfaceChainENSt3__18functionIFvRKNS0_8hidl_vecINS0_11hidl_stringEEEEEE"
  },
  {
   "name":"_ZN7android8hardware14broadcastradio4V2_012ICloseHandle17registerAsServiceERKNSt3__112basic_stringIcNS4_11char_traitsIcEENS4_9allocatorIcEEEE"
  },
  {
   "name":"_ZN7android8hardware14broadcastradio4V2_012ICloseHandle19interfaceDescriptorENSt3__18functionIFvRKNS0_11hidl_stringEEEE"
  },
  {
   "name":"_ZN7android8hardware14broadcastradio4V2_012ICloseHandle21notifySyspropsChangedEv"
  },
  {
   "name":"_ZN7android8hardware14broadcastradio4V2_012ICloseHandle21setHALInstrumentationEv"
  },
  {
   "name":"_ZN7android8hardware14broadcastradio4V2_012ICloseHandle24registerForNotificationsERKNSt3__112basic_stringIcNS4_11char_traitsIcEENS4_9allocatorIcEEEERKNS_2spINS_4hidl7manager4V1_020IServiceNotificationEEE"
  },
  {
   "name":"_ZN7android8hardware14broadcastradio4V2_012ICloseHandle4pingEv"
  },
  {
   "name":"_ZN7android8hardware14broadcastradio4V2_012ICloseHandle5debugERKNS0_11hidl_handleERKNS0_8hidl_vecINS0_11hidl_stringEEE"
  },
  {
   "name":"_ZN7android8hardware14broadcastradio4V2_012ICloseHandle8castFromERKNS_2spINS_4hidl4base4V1_05IBaseEEEb"
  },
  {
   "name":"_ZN7android8hardware14broadcastradio4V2_012ICloseHandle8castFromERKNS_2spIS3_EEb"
  },
  {
   "name":"_ZN7android8hardware14broadcastradio4V2_013BsCloseHandle13addOnewayTaskENSt3__18functionIFvvEEE"
  },
  {
   "name":"_ZN7android8hardware14broadcastradio4V2_013BsCloseHandleC1ENS_2spINS2_12ICloseHandleEEE"
  },
  {
   "name":"_ZN7android8hardware14broadcastradio4V2_013BsCloseHandleC2ENS_2spINS2_12ICloseHandleEEE"
  },
  {
   "name":"_ZN7android8hardware14broadcastradio4V2_013ITunerSession10getServiceERKNSt3__112basic_stringIcNS4_11char_traitsIcEENS4_9allocatorIcEEEEb"
  },
  {
   "name":"_ZN7android8hardware14broadcastradio4V2_013ITunerSession11linkToDeathERKNS_2spINS0_20hidl_death_recipientEEEy"
  },
  {
   "name":"_ZN7android8hardware14broadcastradio4V2_013ITunerSession12getDebugInfoENSt3__18functionIFvRKNS_4hidl4base4V1_09DebugInfoEEEE"
  },
  {
   "name":"_ZN7android8hardware14broadcastradio4V2_013ITunerSession12getHashChainENSt3__18functionIFvRKNS0_8hidl_vecINS0_10hidl_arrayIhLj32EJEEEEEEEE"
  },
  {
   "name":"_ZN7android8hardware14broadcastradio4V2_013ITunerSession13tryGetServiceERKNSt3__112basic_stringIcNS4_11char_traitsIcEENS4_9allocatorIcEEEEb"
  },
  {
   "name":"_ZN7android8hardware14broadcastradio4V2_013ITunerSession13unlinkToDeathERKNS_2spINS0_20hidl_death_recipientEEE"
  },
  {
   "name":"_ZN7android8hardware14broadcastradio4V2_013ITunerSession14interfaceChainENSt3__18functionIFvRKNS0_8hidl_vecINS0_11hidl_stringEEEEEE"
  },
  {
   "name":"_ZN7android8hardware14broadcastradio4V2_013ITunerSession17registerAsServiceERKNSt3__112basic_stringIcNS4_11char_traitsIcEENS4_9allocatorIcEEEE"
  },
  {
   "name":"_ZN7android8hardware14broadcastradio4V2_013ITunerSession19interfaceDescriptorENSt3__18functionIFvRKNS0_11hidl_stringEEEE"
  },
  {
   "name":"_ZN7android8hardware14broadcastradio4V2_013ITunerSession21notifySyspropsChangedEv"
  },
  {
   "name":"_ZN7android8hardware14broadcastradio4V2_013ITunerSession21setHALInstrumentationEv"
  },
  {
   "name":"_ZN7android8hardware14broadcastradio4V2_013ITunerSession24registerForNotificationsERKNSt3__112basic_stringIcNS4_11char_traitsIcEENS4_9allocatorIcEEEERKNS_2spINS_4hidl7manager4V1_020IServiceNotificationEEE"
  },
  {
   "name":"_ZN7android8hardware14broadcastradio4V2_013ITunerSession4pingEv"
  },
  {
   "name":"_ZN7android8hardware14broadcastradio4V2_013ITunerSession5debugERKNS0_11hidl_handleERKNS0_8hidl_vecINS0_11hidl_stringEEE"
  },
  {
   "name":"_ZN7android8hardware14broadcastradio4V2_013ITunerSession8castFromERKNS_2spINS_4hidl4base4V1_05IBaseEEEb"
  },
  {
   "name":"_ZN7android8hardware14broadcastradio4V2_013ITunerSession8castFromERKNS_2spIS3_EEb"
  },
  {
   "name":"_ZN7android8hardware14broadcastradio4V2_014BsTunerSession13addOnewayTaskENSt3__18functionIFvvEEE"
  },
  {
   "name":"_ZN7android8hardware14broadcastradio4V2_014BsTunerSessionC1ENS_2spINS2_13ITunerSessionEEE"
  },
  {
   "name":"_ZN7android8hardware14broadcastradio4V2_014BsTunerSessionC2ENS_2spINS2_13ITunerSessionEEE"
  },
  {
   "name":"_ZN7android8hardware14broadcastradio4V2_014ITunerCallback10getServiceERKNSt3__112basic_stringIcNS4_11char_traitsIcEENS4_9allocatorIcEEEEb"
  },
  {
   "name":"_ZN7android8hardware14broadcastradio4V2_014ITunerCallback11linkToDeathERKNS_2spINS0_20hidl_death_recipientEEEy"
  },
  {
   "name":"_ZN7android8hardware14broadcastradio4V2_014ITunerCallback12getDebugInfoENSt3__18functionIFvRKNS_4hidl4base4V1_09DebugInfoEEEE"
  },
  {
   "name":"_ZN7android8hardware14broadcastradio4V2_014ITunerCallback12getHashChainENSt3__18functionIFvRKNS0_8hidl_vecINS0_10hidl_arrayIhLj32EJEEEEEEEE"
  },
  {
   "name":"_ZN7android8hardware14broadcastradio4V2_014ITunerCallback13tryGetServiceERKNSt3__112basic_stringIcNS4_11char_traitsIcEENS4_9allocatorIcEEEEb"
  },
  {
   "name":"_ZN7android8hardware14broadcastradio4V2_014ITunerCallback13unlinkToDeathERKNS_2spINS0_20hidl_death_recipientEEE"
  },
  {
   "name":"_ZN7android8hardware14broadcastradio4V2_014ITunerCallback14interfaceChainENSt3__18functionIFvRKNS0_8hidl_vecINS0_11hidl_stringEEEEEE"
  },
  {
   "name":"_ZN7android8hardware14broadcastradio4V2_014ITunerCallback17registerAsServiceERKNSt3__112basic_stringIcNS4_11char_traitsIcEENS4_9allocatorIcEEEE"
  },
  {
   "name":"_ZN7android8hardware14broadcastradio4V2_014ITunerCallback19interfaceDescriptorENSt3__18functionIFvRKNS0_11hidl_stringEEEE"
  },
  {
   "name":"_ZN7android8hardware14broadcastradio4V2_014ITunerCallback21notifySyspropsChangedEv"
  },
  {
   "name":"_ZN7android8hardware14broadcastradio4V2_014ITunerCallback21setHALInstrumentationEv"
  },
  {
   "name":"_ZN7android8hardware14broadcastradio4V2_014ITunerCallback24registerForNotificationsERKNSt3__112basic_stringIcNS4_11char_traitsIcEENS4_9allocatorIcEEEERKNS_2spINS_4hidl7manager4V1_020IServiceNotificationEEE"
  },
  {
   "name":"_ZN7android8hardware14broadcastradio4V2_014ITunerCallback4pingEv"
  },
  {
   "name":"_ZN7android8hardware14broadcastradio4V2_014ITunerCallback5debugERKNS0_11hidl_handleERKNS0_8hidl_vecINS0_11hidl_stringEEE"
  },
  {
   "name":"_ZN7android8hardware14broadcastradio4V2_014ITunerCallback8castFromERKNS_2spINS_4hidl4base4V1_05IBaseEEEb"
  },
  {
   "name":"_ZN7android8hardware14broadcastradio4V2_014ITunerCallback8castFromERKNS_2spIS3_EEb"
  },
  {
   "name":"_ZN7android8hardware14broadcastradio4V2_015BnHwCloseHandle10onTransactEjRKNS0_6ParcelEPS4_jNSt3__18functionIFvRS4_EEE"
  },
  {
   "name":"_ZN7android8hardware14broadcastradio4V2_015BnHwCloseHandle11_hidl_closeEPNS_4hidl4base4V1_08BnHwBaseERKNS0_6ParcelEPS9_NSt3__18functionIFvRS9_EEE"
  },
  {
   "name":"_ZN7android8hardware14broadcastradio4V2_015BnHwCloseHandle12getDebugInfoENSt3__18functionIFvRKNS_4hidl4base4V1_09DebugInfoEEEE"
  },
  {
   "name":"_ZN7android8hardware14broadcastradio4V2_015BnHwCloseHandle4pingEv"
  },
  {
   "name":"_ZN7android8hardware14broadcastradio4V2_015BnHwCloseHandleC1ERKNS_2spINS2_12ICloseHandleEEE"
  },
  {
   "name":"_ZN7android8hardware14broadcastradio4V2_015BnHwCloseHandleC2ERKNS_2spINS2_12ICloseHandleEEE"
  },
  {
   "name":"_ZN7android8hardware14broadcastradio4V2_015BnHwCloseHandleD0Ev"
  },
  {
   "name":"_ZN7android8hardware14broadcastradio4V2_015BnHwCloseHandleD1Ev"
  },
  {
   "name":"_ZN7android8hardware14broadcastradio4V2_015BnHwCloseHandleD2Ev"
  },
  {
   "name":"_ZN7android8hardware14broadcastradio4V2_015BpHwCloseHandle11_hidl_closeEPNS0_10IInterfaceEPNS0_7details16HidlInstrumentorE"
  },
  {
   "name":"_ZN7android8hardware14broadcastradio4V2_015BpHwCloseHandle11linkToDeathERKNS_2spINS0_20hidl_death_recipientEEEy"
  },
  {
   "name":"_ZN7android8hardware14broadcastradio4V2_015BpHwCloseHandle12getDebugInfoENSt3__18functionIFvRKNS_4hidl4base4V1_09DebugInfoEEEE"
  },
  {
   "name":"_ZN7android8hardware14broadcastradio4V2_015BpHwCloseHandle12getHashChainENSt3__18functionIFvRKNS0_8hidl_vecINS0_10hidl_arrayIhLj32EJEEEEEEEE"
  },
  {
   "name":"_ZN7android8hardware14broadcastradio4V2_015BpHwCloseHandle13unlinkToDeathERKNS_2spINS0_20hidl_death_recipientEEE"
  },
  {
   "name":"_ZN7android8hardware14broadcastradio4V2_015BpHwCloseHandle14interfaceChainENSt3__18functionIFvRKNS0_8hidl_vecINS0_11hidl_stringEEEEEE"
  },
  {
   "name":"_ZN7android8hardware14broadcastradio4V2_015BpHwCloseHandle19interfaceDescriptorENSt3__18functionIFvRKNS0_11hidl_stringEEEE"
  },
  {
   "name":"_ZN7android8hardware14broadcastradio4V2_015BpHwCloseHandle21notifySyspropsChangedEv"
  },
  {
   "name":"_ZN7android8hardware14broadcastradio4V2_015BpHwCloseHandle21setHALInstrumentationEv"
  },
  {
   "name":"_ZN7android8hardware14broadcastradio4V2_015BpHwCloseHandle4pingEv"
  },
  {
   "name":"_ZN7android8hardware14broadcastradio4V2_015BpHwCloseHandle5closeEv"
  },
  {
   "name":"_ZN7android8hardware14broadcastradio4V2_015BpHwCloseHandle5debugERKNS0_11hidl_handleERKNS0_8hidl_vecINS0_11hidl_stringEEE"
  },
  {
   "name":"_ZN7android8hardware14broadcastradio4V2_015BpHwCloseHandleC1ERKNS_2spINS0_7IBinderEEE"
  },
  {
   "name":"_ZN7android8hardware14broadcastradio4V2_015BpHwCloseHandleC2ERKNS_2spINS0_7IBinderEEE"
  },
  {
   "name":"_ZN7android8hardware14broadcastradio4V2_015BsTunerCallback13addOnewayTaskENSt3__18functionIFvvEEE"
  },
  {
   "name":"_ZN7android8hardware14broadcastradio4V2_015BsTunerCallbackC1ENS_2spINS2_14ITunerCallbackEEE"
  },
  {
   "name":"_ZN7android8hardware14broadcastradio4V2_015BsTunerCallbackC2ENS_2spINS2_14ITunerCallbackEEE"
  },
  {
   "name":"_ZN7android8hardware14broadcastradio4V2_015IBroadcastRadio10getServiceERKNSt3__112basic_stringIcNS4_11char_traitsIcEENS4_9allocatorIcEEEEb"
  },
  {
   "name":"_ZN7android8hardware14broadcastradio4V2_015IBroadcastRadio11linkToDeathERKNS_2spINS0_20hidl_death_recipientEEEy"
  },
  {
   "name":"_ZN7android8hardware14broadcastradio4V2_015IBroadcastRadio12getDebugInfoENSt3__18functionIFvRKNS_4hidl4base4V1_09DebugInfoEEEE"
  },
  {
   "name":"_ZN7android8hardware14broadcastradio4V2_015IBroadcastRadio12getHashChainENSt3__18functionIFvRKNS0_8hidl_vecINS0_10hidl_arrayIhLj32EJEEEEEEEE"
  },
  {
   "name":"_ZN7android8hardware14broadcastradio4V2_015IBroadcastRadio13tryGetServiceERKNSt3__112basic_stringIcNS4_11char_traitsIcEENS4_9allocatorIcEEEEb"
  },
  {
   "name":"_ZN7android8hardware14broadcastradio4V2_015IBroadcastRadio13unlinkToDeathERKNS_2spINS0_20hidl_death_recipientEEE"
  },
  {
   "name":"_ZN7android8hardware14broadcastradio4V2_015IBroadcastRadio14interfaceChainENSt3__18functionIFvRKNS0_8hidl_vecINS0_11hidl_stringEEEEEE"
  },
  {
   "name":"_ZN7android8hardware14broadcastradio4V2_015IBroadcastRadio17registerAsServiceERKNSt3__112basic_stringIcNS4_11char_traitsIcEENS4_9allocatorIcEEEE"
  },
  {
   "name":"_ZN7android8hardware14broadcastradio4V2_015IBroadcastRadio19interfaceDescriptorENSt3__18functionIFvRKNS0_11hidl_stringEEEE"
  },
  {
   "name":"_ZN7android8hardware14broadcastradio4V2_015IBroadcastRadio21notifySyspropsChangedEv"
  },
  {
   "name":"_ZN7android8hardware14broadcastradio4V2_015IBroadcastRadio21setHALInstrumentationEv"
  },
  {
   "name":"_ZN7android8hardware14broadcastradio4V2_015IBroadcastRadio24registerForNotificationsERKNSt3__112basic_stringIcNS4_11char_traitsIcEENS4_9allocatorIcEEEERKNS_2spINS_4hidl7manager4V1_020IServiceNotificationEEE"
  },
  {
   "name":"_ZN7android8hardware14broadcastradio4V2_015IBroadcastRadio4pingEv"
  },
  {
   "name":"_ZN7android8hardware14broadcastradio4V2_015IBroadcastRadio5debugERKNS0_11hidl_handleERKNS0_8hidl_vecINS0_11hidl_stringEEE"
  },
  {
   "name":"_ZN7android8hardware14broadcastradio4V2_015IBroadcastRadio8castFromERKNS_2spINS_4hidl4base4V1_05IBaseEEEb"
  },
  {
   "name":"_ZN7android8hardware14broadcastradio4V2_015IBroadcastRadio8castFromERKNS_2spIS3_EEb"
  },
  {
   "name":"_ZN7android8hardware14broadcastradio4V2_016BnHwTunerSession10_hidl_scanEPNS_4hidl4base4V1_08BnHwBaseERKNS0_6ParcelEPS9_NSt3__18functionIFvRS9_EEE"
  },
  {
   "name":"_ZN7android8hardware14broadcastradio4V2_016BnHwTunerSession10_hidl_stepEPNS_4hidl4base4V1_08BnHwBaseERKNS0_6ParcelEPS9_NSt3__18functionIFvRS9_EEE"
  },
  {
   "name":"_ZN7android8hardware14broadcastradio4V2_016BnHwTunerSession10_hidl_tuneEPNS_4hidl4base4V1_08BnHwBaseERKNS0_6ParcelEPS9_NSt3__18functionIFvRS9_EEE"
  },
  {
   "name":"_ZN7android8hardware14broadcastradio4V2_016BnHwTunerSession10onTransactEjRKNS0_6ParcelEPS4_jNSt3__18functionIFvRS4_EEE"
  },
  {
   "name":"_ZN7android8hardware14broadcastradio4V2_016BnHwTunerSession11_hidl_closeEPNS_4hidl4base4V1_08BnHwBaseERKNS0_6ParcelEPS9_NSt3__18functionIFvRS9_EEE"
  },
  {
   "name":"_ZN7android8hardware14broadcastradio4V2_016BnHwTunerSession12_hidl_cancelEPNS_4hidl4base4V1_08BnHwBaseERKNS0_6ParcelEPS9_NSt3__18functionIFvRS9_EEE"
  },
  {
   "name":"_ZN7android8hardware14broadcastradio4V2_016BnHwTunerSession12getDebugInfoENSt3__18functionIFvRKNS_4hidl4base4V1_09DebugInfoEEEE"
  },
  {
   "name":"_ZN7android8hardware14broadcastradio4V2_016BnHwTunerSession19_hidl_getParametersEPNS_4hidl4base4V1_08BnHwBaseERKNS0_6ParcelEPS9_NSt3__18functionIFvRS9_EEE"
  },
  {
   "name":"_ZN7android8hardware14broadcastradio4V2_016BnHwTunerSession19_hidl_setConfigFlagEPNS_4hidl4base4V1_08BnHwBaseERKNS0_6ParcelEPS9_NSt3__18functionIFvRS9_EEE"
  },
  {
   "name":"_ZN7android8hardware14broadcastradio4V2_016BnHwTunerSession19_hidl_setParametersEPNS_4hidl4base4V1_08BnHwBaseERKNS0_6ParcelEPS9_NSt3__18functionIFvRS9_EEE"
  },
  {
   "name":"_ZN7android8hardware14broadcastradio4V2_016BnHwTunerSession21_hidl_isConfigFlagSetEPNS_4hidl4base4V1_08BnHwBaseERKNS0_6ParcelEPS9_NSt3__18functionIFvRS9_EEE"
  },
  {
   "name":"_ZN7android8hardware14broadcastradio4V2_016BnHwTunerSession28_hidl_stopProgramListUpdatesEPNS_4hidl4base4V1_08BnHwBaseERKNS0_6ParcelEPS9_NSt3__18functionIFvRS9_EEE"
  },
  {
   "name":"_ZN7android8hardware14broadcastradio4V2_016BnHwTunerSession29_hidl_startProgramListUpdatesEPNS_4hidl4base4V1_08BnHwBaseERKNS0_6ParcelEPS9_NSt3__18functionIFvRS9_EEE"
  },
  {
   "name":"_ZN7android8hardware14broadcastradio4V2_016BnHwTunerSession4pingEv"
  },
  {
   "name":"_ZN7android8hardware14broadcastradio4V2_016BnHwTunerSessionC1ERKNS_2spINS2_13ITunerSessionEEE"
  },
  {
   "name":"_ZN7android8hardware14broadcastradio4V2_016BnHwTunerSessionC2ERKNS_2spINS2_13ITunerSessionEEE"
  },
  {
   "name":"_ZN7android8hardware14broadcastradio4V2_016BnHwTunerSessionD0Ev"
  },
  {
   "name":"_ZN7android8hardware14broadcastradio4V2_016BnHwTunerSessionD1Ev"
  },
  {
   "name":"_ZN7android8hardware14broadcastradio4V2_016BnHwTunerSessionD2Ev"
  },
  {
   "name":"_ZN7android8hardware14broadcastradio4V2_016BpHwTunerSession10_hidl_scanEPNS0_10IInterfaceEPNS0_7details16HidlInstrumentorEbb"
  },
  {
   "name":"_ZN7android8hardware14broadcastradio4V2_016BpHwTunerSession10_hidl_stepEPNS0_10IInterfaceEPNS0_7details16HidlInstrumentorEb"
  },
  {
   "name":"_ZN7android8hardware14broadcastradio4V2_016BpHwTunerSession10_hidl_tuneEPNS0_10IInterfaceEPNS0_7details16HidlInstrumentorERKNS2_15ProgramSelectorE"
  },
  {
   "name":"_ZN7android8hardware14broadcastradio4V2_016BpHwTunerSession11_hidl_closeEPNS0_10IInterfaceEPNS0_7details16HidlInstrumentorE"
  },
  {
   "name":"_ZN7android8hardware14broadcastradio4V2_016BpHwTunerSession11linkToDeathERKNS_2spINS0_20hidl_death_recipientEEEy"
  },
  {
   "name":"_ZN7android8hardware14broadcastradio4V2_016BpHwTunerSession12_hidl_cancelEPNS0_10IInterfaceEPNS0_7details16HidlInstrumentorE"
  },
  {
   "name":"_ZN7android8hardware14broadcastradio4V2_016BpHwTunerSession12getDebugInfoENSt3__18functionIFvRKNS_4hidl4base4V1_09DebugInfoEEEE"
  },
  {
   "name":"_ZN7android8hardware14broadcastradio4V2_016BpHwTunerSession12getHashChainENSt3__18functionIFvRKNS0_8hidl_vecINS0_10hidl_arrayIhLj32EJEEEEEEEE"
  },
  {
   "name":"_ZN7android8hardware14broadcastradio4V2_016BpHwTunerSession13getParametersERKNS0_8hidl_vecINS0_11hidl_stringEEENSt3__18functionIFvRKNS4_INS2_14VendorKeyValueEEEEEE"
  },
  {
   "name":"_ZN7android8hardware14broadcastradio4V2_016BpHwTunerSession13setConfigFlagENS2_10ConfigFlagEb"
  },
  {
   "name":"_ZN7android8hardware14broadcastradio4V2_016BpHwTunerSession13setParametersERKNS0_8hidl_vecINS2_14VendorKeyValueEEENSt3__18functionIFvS8_EEE"
  },
  {
   "name":"_ZN7android8hardware14broadcastradio4V2_016BpHwTunerSession13unlinkToDeathERKNS_2spINS0_20hidl_death_recipientEEE"
  },
  {
   "name":"_ZN7android8hardware14broadcastradio4V2_016BpHwTunerSession14interfaceChainENSt3__18functionIFvRKNS0_8hidl_vecINS0_11hidl_stringEEEEEE"
  },
  {
   "name":"_ZN7android8hardware14broadcastradio4V2_016BpHwTunerSession15isConfigFlagSetENS2_10ConfigFlagENSt3__18functionIFvNS2_6ResultEbEEE"
  },
  {
   "name":"_ZN7android8hardware14broadcastradio4V2_016BpHwTunerSession19_hidl_getParametersEPNS0_10IInterfaceEPNS0_7details16HidlInstrumentorERKNS0_8hidl_vecINS0_11hidl_stringEEENSt3__18functionIFvRKNS9_INS2_14VendorKeyValueEEEEEE"
  },
  {
   "name":"_ZN7android8hardware14broadcastradio4V2_016BpHwTunerSession19_hidl_setConfigFlagEPNS0_10IInterfaceEPNS0_7details16HidlInstrumentorENS2_10ConfigFlagEb"
  },
  {
   "name":"_ZN7android8hardware14broadcastradio4V2_016BpHwTunerSession19_hidl_setParametersEPNS0_10IInterfaceEPNS0_7details16HidlInstrumentorERKNS0_8hidl_vecINS2_14VendorKeyValueEEENSt3__18functionIFvSD_EEE"
  },
  {
   "name":"_ZN7android8hardware14broadcastradio4V2_016BpHwTunerSession19interfaceDescriptorENSt3__18functionIFvRKNS0_11hidl_stringEEEE"
  },
  {
   "name":"_ZN7android8hardware14broadcastradio4V2_016BpHwTunerSession21_hidl_isConfigFlagSetEPNS0_10IInterfaceEPNS0_7details16HidlInstrumentorENS2_10ConfigFlagENSt3__18functionIFvNS2_6ResultEbEEE"
  },
  {
   "name":"_ZN7android8hardware14broadcastradio4V2_016BpHwTunerSession21notifySyspropsChangedEv"
  },
  {
   "name":"_ZN7android8hardware14broadcastradio4V2_016BpHwTunerSession21setHALInstrumentationEv"
  },
  {
   "name":"_ZN7android8hardware14broadcastradio4V2_016BpHwTunerSession22stopProgramListUpdatesEv"
  },
  {
   "name":"_ZN7android8hardware14broadcastradio4V2_016BpHwTunerSession23startProgramListUpdatesERKNS2_13ProgramFilterE"
  },
  {
   "name":"_ZN7android8hardware14broadcastradio4V2_016BpHwTunerSession28_hidl_stopProgramListUpdatesEPNS0_10IInterfaceEPNS0_7details16HidlInstrumentorE"
  },
  {
   "name":"_ZN7android8hardware14broadcastradio4V2_016BpHwTunerSession29_hidl_startProgramListUpdatesEPNS0_10IInterfaceEPNS0_7details16HidlInstrumentorERKNS2_13ProgramFilterE"
  },
  {
   "name":"_ZN7android8hardware14broadcastradio4V2_016BpHwTunerSession4pingEv"
  },
  {
   "name":"_ZN7android8hardware14broadcastradio4V2_016BpHwTunerSession4scanEbb"
  },
  {
   "name":"_ZN7android8hardware14broadcastradio4V2_016BpHwTunerSession4stepEb"
  },
  {
   "name":"_ZN7android8hardware14broadcastradio4V2_016BpHwTunerSession4tuneERKNS2_15ProgramSelectorE"
  },
  {
   "name":"_ZN7android8hardware14broadcastradio4V2_016BpHwTunerSession5closeEv"
  },
  {
   "name":"_ZN7android8hardware14broadcastradio4V2_016BpHwTunerSession5debugERKNS0_11hidl_handleERKNS0_8hidl_vecINS0_11hidl_stringEEE"
  },
  {
   "name":"_ZN7android8hardware14broadcastradio4V2_016BpHwTunerSession6cancelEv"
  },
  {
   "name":"_ZN7android8hardware14broadcastradio4V2_016BpHwTunerSessionC1ERKNS_2spINS0_7IBinderEEE"
  },
  {
   "name":"_ZN7android8hardware14broadcastradio4V2_016BpHwTunerSessionC2ERKNS_2spINS0_7IBinderEEE"
  },
  {
   "name":"_ZN7android8hardware14broadcastradio4V2_016BsBroadcastRadio13addOnewayTaskENSt3__18functionIFvvEEE"
  },
  {
   "name":"_ZN7android8hardware14broadcastradio4V2_016BsBroadcastRadioC1ENS_2spINS2_15IBroadcastRadioEEE"
  },
  {
   "name":"_ZN7android8hardware14broadcastradio4V2_016BsBroadcastRadioC2ENS_2spINS2_15IBroadcastRadioEEE"
  },
  {
   "name":"_ZN7android8hardware14broadcastradio4V2_017BnHwTunerCallback10onTransactEjRKNS0_6ParcelEPS4_jNSt3__18functionIFvRS4_EEE"
  },
  {
   "name":"_ZN7android8hardware14broadcastradio4V2_017BnHwTunerCallback12getDebugInfoENSt3__18functionIFvRKNS_4hidl4base4V1_09DebugInfoEEEE"
  },
  {
   "name":"_ZN7android8hardware14broadcastradio4V2_017BnHwTunerCallback18_hidl_onTuneFailedEPNS_4hidl4base4V1_08BnHwBaseERKNS0_6ParcelEPS9_NSt3__18functionIFvRS9_EEE"
  },
  {
   "name":"_ZN7android8hardware14broadcastradio4V2_017BnHwTunerCallback25_hidl_onParametersUpdatedEPNS_4hidl4base4V1_08BnHwBaseERKNS0_6ParcelEPS9_NSt3__18functionIFvRS9_EEE"
  },
  {
   "name":"_ZN7android8hardware14broadcastradio4V2_017BnHwTunerCallback26_hidl_onAntennaStateChangeEPNS_4hidl4base4V1_08BnHwBaseERKNS0_6ParcelEPS9_NSt3__18functionIFvRS9_EEE"
  },
  {
   "name":"_ZN7android8hardware14broadcastradio4V2_017BnHwTunerCallback26_hidl_onProgramListUpdatedEPNS_4hidl4base4V1_08BnHwBaseERKNS0_6ParcelEPS9_NSt3__18functionIFvRS9_EEE"
  },
  {
   "name":"_ZN7android8hardware14broadcastradio4V2_017BnHwTunerCallback33_hidl_onCurrentProgramInfoChangedEPNS_4hidl4base4V1_08BnHwBaseERKNS0_6ParcelEPS9_NSt3__18functionIFvRS9_EEE"
  },
  {
   "name":"_ZN7android8hardware14broadcastradio4V2_017BnHwTunerCallback4pingEv"
  },
  {
   "name":"_ZN7android8hardware14broadcastradio4V2_017BnHwTunerCallbackC1ERKNS_2spINS2_14ITunerCallbackEEE"
  },
  {
   "name":"_ZN7android8hardware14broadcastradio4V2_017BnHwTunerCallbackC2ERKNS_2spINS2_14ITunerCallbackEEE"
  },
  {
   "name":"_ZN7android8hardware14broadcastradio4V2_017BnHwTunerCallbackD0Ev"
  },
  {
   "name":"_ZN7android8hardware14broadcastradio4V2_017BnHwTunerCallbackD1Ev"
  },
  {
   "name":"_ZN7android8hardware14broadcastradio4V2_017BnHwTunerCallbackD2Ev"
  },
  {
   "name":"_ZN7android8hardware14broadcastradio4V2_017BpHwTunerCallback11linkToDeathERKNS_2spINS0_20hidl_death_recipientEEEy"
  },
  {
   "name":"_ZN7android8hardware14broadcastradio4V2_017BpHwTunerCallback12getDebugInfoENSt3__18functionIFvRKNS_4hidl4base4V1_09DebugInfoEEEE"
  },
  {
   "name":"_ZN7android8hardware14broadcastradio4V2_017BpHwTunerCallback12getHashChainENSt3__18functionIFvRKNS0_8hidl_vecINS0_10hidl_arrayIhLj32EJEEEEEEEE"
  },
  {
   "name":"_ZN7android8hardware14broadcastradio4V2_017BpHwTunerCallback12onTuneFailedENS2_6ResultERKNS2_15ProgramSelectorE"
  },
  {
   "name":"_ZN7android8hardware14broadcastradio4V2_017BpHwTunerCallback13unlinkToDeathERKNS_2spINS0_20hidl_death_recipientEEE"
  },
  {
   "name":"_ZN7android8hardware14broadcastradio4V2_017BpHwTunerCallback14interfaceChainENSt3__18functionIFvRKNS0_8hidl_vecINS0_11hidl_stringEEEEEE"
  },
  {
   "name":"_ZN7android8hardware14broadcastradio4V2_017BpHwTunerCallback18_hidl_onTuneFailedEPNS0_10IInterfaceEPNS0_7details16HidlInstrumentorENS2_6ResultERKNS2_15ProgramSelectorE"
  },
  {
   "name":"_ZN7android8hardware14broadcastradio4V2_017BpHwTunerCallback19interfaceDescriptorENSt3__18functionIFvRKNS0_11hidl_stringEEEE"
  },
  {
   "name":"_ZN7android8hardware14broadcastradio4V2_017BpHwTunerCallback19onParametersUpdatedERKNS0_8hidl_vecINS2_14VendorKeyValueEEE"
  },
  {
   "name":"_ZN7android8hardware14broadcastradio4V2_017BpHwTunerCallback20onAntennaStateChangeEb"
  },
  {
   "name":"_ZN7android8hardware14broadcastradio4V2_017BpHwTunerCallback20onProgramListUpdatedERKNS2_16ProgramListChunkE"
  },
  {
   "name":"_ZN7android8hardware14broadcastradio4V2_017BpHwTunerCallback21notifySyspropsChangedEv"
  },
  {
   "name":"_ZN7android8hardware14broadcastradio4V2_017BpHwTunerCallback21setHALInstrumentationEv"
  },
  {
   "name":"_ZN7android8hardware14broadcastradio4V2_017BpHwTunerCallback25_hidl_onParametersUpdatedEPNS0_10IInterfaceEPNS0_7details16HidlInstrumentorERKNS0_8hidl_vecINS2_14VendorKeyValueEEE"
  },
  {
   "name":"_ZN7android8hardware14broadcastradio4V2_017BpHwTunerCallback26_hidl_onAntennaStateChangeEPNS0_10IInterfaceEPNS0_7details16HidlInstrumentorEb"
  },
  {
   "name":"_ZN7android8hardware14broadcastradio4V2_017BpHwTunerCallback26_hidl_onProgramListUpdatedEPNS0_10IInterfaceEPNS0_7details16HidlInstrumentorERKNS2_16ProgramListChunkE"
  },
  {
   "name":"_ZN7android8hardware14broadcastradio4V2_017BpHwTunerCallback27onCurrentProgramInfoChangedERKNS2_11ProgramInfoE"
  },
  {
   "name":"_ZN7android8hardware14broadcastradio4V2_017BpHwTunerCallback33_hidl_onCurrentProgramInfoChangedEPNS0_10IInterfaceEPNS0_7details16HidlInstrumentorERKNS2_11ProgramInfoE"
  },
  {
   "name":"_ZN7android8hardware14broadcastradio4V2_017BpHwTunerCallback4pingEv"
  },
  {
   "name":"_ZN7android8hardware14broadcastradio4V2_017BpHwTunerCallback5debugERKNS0_11hidl_handleERKNS0_8hidl_vecINS0_11hidl_stringEEE"
  },
  {
   "name":"_ZN7android8hardware14broadcastradio4V2_017BpHwTunerCallbackC1ERKNS_2spINS0_7IBinderEEE"
  },
  {
   "name":"_ZN7android8hardware14broadcastradio4V2_017BpHwTunerCallbackC2ERKNS_2spINS0_7IBinderEEE"
  },
  {
   "name":"_ZN7android8hardware14broadcastradio4V2_018BnHwBroadcastRadio10onTransactEjRKNS0_6ParcelEPS4_jNSt3__18functionIFvRS4_EEE"
  },
  {
   "name":"_ZN7android8hardware14broadcastradio4V2_018BnHwBroadcastRadio12getDebugInfoENSt3__18functionIFvRKNS_4hidl4base4V1_09DebugInfoEEEE"
  },
  {
   "name":"_ZN7android8hardware14broadcastradio4V2_018BnHwBroadcastRadio14_hidl_getImageEPNS_4hidl4base4V1_08BnHwBaseERKNS0_6ParcelEPS9_NSt3__18functionIFvRS9_EEE"
  },
  {
   "name":"_ZN7android8hardware14broadcastradio4V2_018BnHwBroadcastRadio17_hidl_openSessionEPNS_4hidl4base4V1_08BnHwBaseERKNS0_6ParcelEPS9_NSt3__18functionIFvRS9_EEE"
  },
  {
   "name":"_ZN7android8hardware14broadcastradio4V2_018BnHwBroadcastRadio19_hidl_getPropertiesEPNS_4hidl4base4V1_08BnHwBaseERKNS0_6ParcelEPS9_NSt3__18functionIFvRS9_EEE"
  },
  {
   "name":"_ZN7android8hardware14broadcastradio4V2_018BnHwBroadcastRadio24_hidl_getDabRegionConfigEPNS_4hidl4base4V1_08BnHwBaseERKNS0_6ParcelEPS9_NSt3__18functionIFvRS9_EEE"
  },
  {
   "name":"_ZN7android8hardware14broadcastradio4V2_018BnHwBroadcastRadio25_hidl_getAmFmRegionConfigEPNS_4hidl4base4V1_08BnHwBaseERKNS0_6ParcelEPS9_NSt3__18functionIFvRS9_EEE"
  },
  {
   "name":"_ZN7android8hardware14broadcastradio4V2_018BnHwBroadcastRadio34_hidl_registerAnnouncementListenerEPNS_4hidl4base4V1_08BnHwBaseERKNS0_6ParcelEPS9_NSt3__18functionIFvRS9_EEE"
  },
  {
   "name":"_ZN7android8hardware14broadcastradio4V2_018BnHwBroadcastRadio4pingEv"
  },
  {
   "name":"_ZN7android8hardware14broadcastradio4V2_018BnHwBroadcastRadioC1ERKNS_2spINS2_15IBroadcastRadioEEE"
  },
  {
   "name":"_ZN7android8hardware14broadcastradio4V2_018BnHwBroadcastRadioC2ERKNS_2spINS2_15IBroadcastRadioEEE"
  },
  {
   "name":"_ZN7android8hardware14broadcastradio4V2_018BnHwBroadcastRadioD0Ev"
  },
  {
   "name":"_ZN7android8hardware14broadcastradio4V2_018BnHwBroadcastRadioD1Ev"
  },
  {
   "name":"_ZN7android8hardware14broadcastradio4V2_018BnHwBroadcastRadioD2Ev"
  },
  {
   "name":"_ZN7android8hardware14broadcastradio4V2_018BpHwBroadcastRadio11linkToDeathERKNS_2spINS0_20hidl_death_recipientEEEy"
  },
  {
   "name":"_ZN7android8hardware14broadcastradio4V2_018BpHwBroadcastRadio11openSessionERKNS_2spINS2_14ITunerCallbackEEENSt3__18functionIFvNS2_6ResultERKNS4_INS2_13ITunerSessionEEEEEE"
  },
  {
   "name":"_ZN7android8hardware14broadcastradio4V2_018BpHwBroadcastRadio12getDebugInfoENSt3__18functionIFvRKNS_4hidl4base4V1_09DebugInfoEEEE"
  },
  {
   "name":"_ZN7android8hardware14broadcastradio4V2_018BpHwBroadcastRadio12getHashChainENSt3__18functionIFvRKNS0_8hidl_vecINS0_10hidl_arrayIhLj32EJEEEEEEEE"
  },
  {
   "name":"_ZN7android8hardware14broadcastradio4V2_018BpHwBroadcastRadio13getPropertiesENSt3__18functionIFvRKNS2_10PropertiesEEEE"
  },
  {
   "name":"_ZN7android8hardware14broadcastradio4V2_018BpHwBroadcastRadio13unlinkToDeathERKNS_2spINS0_20hidl_death_recipientEEE"
  },
  {
   "name":"_ZN7android8hardware14broadcastradio4V2_018BpHwBroadcastRadio14_hidl_getImageEPNS0_10IInterfaceEPNS0_7details16HidlInstrumentorEjNSt3__18functionIFvRKNS0_8hidl_vecIhEEEEE"
  },
  {
   "name":"_ZN7android8hardware14broadcastradio4V2_018BpHwBroadcastRadio14interfaceChainENSt3__18functionIFvRKNS0_8hidl_vecINS0_11hidl_stringEEEEEE"
  },
  {
   "name":"_ZN7android8hardware14broadcastradio4V2_018BpHwBroadcastRadio17_hidl_openSessionEPNS0_10IInterfaceEPNS0_7details16HidlInstrumentorERKNS_2spINS2_14ITunerCallbackEEENSt3__18functionIFvNS2_6ResultERKNS9_INS2_13ITunerSessionEEEEEE"
  },
  {
   "name":"_ZN7android8hardware14broadcastradio4V2_018BpHwBroadcastRadio18getDabRegionConfigENSt3__18functionIFvNS2_6ResultERKNS0_8hidl_vecINS2_13DabTableEntryEEEEEE"
  },
  {
   "name":"_ZN7android8hardware14broadcastradio4V2_018BpHwBroadcastRadio19_hidl_getPropertiesEPNS0_10IInterfaceEPNS0_7details16HidlInstrumentorENSt3__18functionIFvRKNS2_10PropertiesEEEE"
  },
  {
   "name":"_ZN7android8hardware14broadcastradio4V2_018BpHwBroadcastRadio19getAmFmRegionConfigEbNSt3__18functionIFvNS2_6ResultERKNS2_16AmFmRegionConfigEEEE"
  },
  {
   "name":"_ZN7android8hardware14broadcastradio4V2_018BpHwBroadcastRadio19interfaceDescriptorENSt3__18functionIFvRKNS0_11hidl_stringEEEE"
  },
  {
   "name":"_ZN7android8hardware14broadcastradio4V2_018BpHwBroadcastRadio21notifySyspropsChangedEv"
  },
  {
   "name":"_ZN7android8hardware14broadcastradio4V2_018BpHwBroadcastRadio21setHALInstrumentationEv"
  },
  {
   "name":"_ZN7android8hardware14broadcastradio4V2_018BpHwBroadcastRadio24_hidl_getDabRegionConfigEPNS0_10IInterfaceEPNS0_7details16HidlInstrumentorENSt3__18functionIFvNS2_6ResultERKNS0_8hidl_vecINS2_13DabTableEntryEEEEEE"
  },
  {
   "name":"_ZN7android8hardware14broadcastradio4V2_018BpHwBroadcastRadio25_hidl_getAmFmRegionConfigEPNS0_10IInterfaceEPNS0_7details16HidlInstrumentorEbNSt3__18functionIFvNS2_6ResultERKNS2_16AmFmRegionConfigEEEE"
  },
  {
   "name":"_ZN7android8hardware14broadcastradio4V2_018BpHwBroadcastRadio28registerAnnouncementListenerERKNS0_8hidl_vecINS2_16AnnouncementTypeEEERKNS_2spINS2_21IAnnouncementListenerEEENSt3__18functionIFvNS2_6ResultERKNS9_INS2_12ICloseHandleEEEEEE"
  },
  {
   "name":"_ZN7android8hardware14broadcastradio4V2_018BpHwBroadcastRadio34_hidl_registerAnnouncementListenerEPNS0_10IInterfaceEPNS0_7details16HidlInstrumentorERKNS0_8hidl_vecINS2_16AnnouncementTypeEEERKNS_2spINS2_21IAnnouncementListenerEEENSt3__18functionIFvNS2_6ResultERKNSE_INS2_12ICloseHandleEEEEEE"
  },
  {
   "name":"_ZN7android8hardware14broadcastradio4V2_018BpHwBroadcastRadio4pingEv"
  },
  {
   "name":"_ZN7android8hardware14broadcastradio4V2_018BpHwBroadcastRadio5debugERKNS0_11hidl_handleERKNS0_8hidl_vecINS0_11hidl_stringEEE"
  },
  {
   "name":"_ZN7android8hardware14broadcastradio4V2_018BpHwBroadcastRadio8getImageEjNSt3__18functionIFvRKNS0_8hidl_vecIhEEEEE"
  },
  {
   "name":"_ZN7android8hardware14broadcastradio4V2_018BpHwBroadcastRadioC1ERKNS_2spINS0_7IBinderEEE"
  },
  {
   "name":"_ZN7android8hardware14broadcastradio4V2_018BpHwBroadcastRadioC2ERKNS_2spINS0_7IBinderEEE"
  },
  {
   "name":"_ZN7android8hardware14broadcastradio4V2_021IAnnouncementListener10getServiceERKNSt3__112basic_stringIcNS4_11char_traitsIcEENS4_9allocatorIcEEEEb"
  },
  {
   "name":"_ZN7android8hardware14broadcastradio4V2_021IAnnouncementListener11linkToDeathERKNS_2spINS0_20hidl_death_recipientEEEy"
  },
  {
   "name":"_ZN7android8hardware14broadcastradio4V2_021IAnnouncementListener12getDebugInfoENSt3__18functionIFvRKNS_4hidl4base4V1_09DebugInfoEEEE"
  },
  {
   "name":"_ZN7android8hardware14broadcastradio4V2_021IAnnouncementListener12getHashChainENSt3__18functionIFvRKNS0_8hidl_vecINS0_10hidl_arrayIhLj32EJEEEEEEEE"
  },
  {
   "name":"_ZN7android8hardware14broadcastradio4V2_021IAnnouncementListener13tryGetServiceERKNSt3__112basic_stringIcNS4_11char_traitsIcEENS4_9allocatorIcEEEEb"
  },
  {
   "name":"_ZN7android8hardware14broadcastradio4V2_021IAnnouncementListener13unlinkToDeathERKNS_2spINS0_20hidl_death_recipientEEE"
  },
  {
   "name":"_ZN7android8hardware14broadcastradio4V2_021IAnnouncementListener14interfaceChainENSt3__18functionIFvRKNS0_8hidl_vecINS0_11hidl_stringEEEEEE"
  },
  {
   "name":"_ZN7android8hardware14broadcastradio4V2_021IAnnouncementListener17registerAsServiceERKNSt3__112basic_stringIcNS4_11char_traitsIcEENS4_9allocatorIcEEEE"
  },
  {
   "name":"_ZN7android8hardware14broadcastradio4V2_021IAnnouncementListener19interfaceDescriptorENSt3__18functionIFvRKNS0_11hidl_stringEEEE"
  },
  {
   "name":"_ZN7android8hardware14broadcastradio4V2_021IAnnouncementListener21notifySyspropsChangedEv"
  },
  {
   "name":"_ZN7android8hardware14broadcastradio4V2_021IAnnouncementListener21setHALInstrumentationEv"
  },
  {
   "name":"_ZN7android8hardware14broadcastradio4V2_021IAnnouncementListener24registerForNotificationsERKNSt3__112basic_stringIcNS4_11char_traitsIcEENS4_9allocatorIcEEEERKNS_2spINS_4hidl7manager4V1_020IServiceNotificationEEE"
  },
  {
   "name":"_ZN7android8hardware14broadcastradio4V2_021IAnnouncementListener4pingEv"
  },
  {
   "name":"_ZN7android8hardware14broadcastradio4V2_021IAnnouncementListener5debugERKNS0_11hidl_handleERKNS0_8hidl_vecINS0_11hidl_stringEEE"
  },
  {
   "name":"_ZN7android8hardware14broadcastradio4V2_021IAnnouncementListener8castFromERKNS_2spINS_4hidl4base4V1_05IBaseEEEb"
  },
  {
   "name":"_ZN7android8hardware14broadcastradio4V2_021IAnnouncementListener8castFromERKNS_2spIS3_EEb"
  },
  {
   "name":"_ZN7android8hardware14broadcastradio4V2_021writeEmbeddedToParcelERKNS2_10PropertiesEPNS0_6ParcelEjj"
  },
  {
   "name":"_ZN7android8hardware14broadcastradio4V2_021writeEmbeddedToParcelERKNS2_11ProgramInfoEPNS0_6ParcelEjj"
  },
  {
   "name":"_ZN7android8hardware14broadcastradio4V2_021writeEmbeddedToParcelERKNS2_12AnnouncementEPNS0_6ParcelEjj"
  },
  {
   "name":"_ZN7android8hardware14broadcastradio4V2_021writeEmbeddedToParcelERKNS2_13DabTableEntryEPNS0_6ParcelEjj"
  },
  {
   "name":"_ZN7android8hardware14broadcastradio4V2_021writeEmbeddedToParcelERKNS2_13ProgramFilterEPNS0_6ParcelEjj"
  },
  {
   "name":"_ZN7android8hardware14broadcastradio4V2_021writeEmbeddedToParcelERKNS2_14VendorKeyValueEPNS0_6ParcelEjj"
  },
  {
   "name":"_ZN7android8hardware14broadcastradio4V2_021writeEmbeddedToParcelERKNS2_15ProgramSelectorEPNS0_6ParcelEjj"
  },
  {
   "name":"_ZN7android8hardware14broadcastradio4V2_021writeEmbeddedToParcelERKNS2_16AmFmRegionConfigEPNS0_6ParcelEjj"
  },
  {
   "name":"_ZN7android8hardware14broadcastradio4V2_021writeEmbeddedToParcelERKNS2_16ProgramListChunkEPNS0_6ParcelEjj"
  },
  {
   "name":"_ZN7android8hardware14broadcastradio4V2_021writeEmbeddedToParcelERKNS2_8MetadataEPNS0_6ParcelEjj"
  },
  {
   "name":"_ZN7android8hardware14broadcastradio4V2_022BsAnnouncementListener13addOnewayTaskENSt3__18functionIFvvEEE"
  },
  {
   "name":"_ZN7android8hardware14broadcastradio4V2_022BsAnnouncementListenerC1ENS_2spINS2_21IAnnouncementListenerEEE"
  },
  {
   "name":"_ZN7android8hardware14broadcastradio4V2_022BsAnnouncementListenerC2ENS_2spINS2_21IAnnouncementListenerEEE"
  },
  {
   "name":"_ZN7android8hardware14broadcastradio4V2_022readEmbeddedFromParcelERKNS2_10PropertiesERKNS0_6ParcelEjj"
  },
  {
   "name":"_ZN7android8hardware14broadcastradio4V2_022readEmbeddedFromParcelERKNS2_11ProgramInfoERKNS0_6ParcelEjj"
  },
  {
   "name":"_ZN7android8hardware14broadcastradio4V2_022readEmbeddedFromParcelERKNS2_12AnnouncementERKNS0_6ParcelEjj"
  },
  {
   "name":"_ZN7android8hardware14broadcastradio4V2_022readEmbeddedFromParcelERKNS2_13DabTableEntryERKNS0_6ParcelEjj"
  },
  {
   "name":"_ZN7android8hardware14broadcastradio4V2_022readEmbeddedFromParcelERKNS2_13ProgramFilterERKNS0_6ParcelEjj"
  },
  {
   "name":"_ZN7android8hardware14broadcastradio4V2_022readEmbeddedFromParcelERKNS2_14VendorKeyValueERKNS0_6ParcelEjj"
  },
  {
   "name":"_ZN7android8hardware14broadcastradio4V2_022readEmbeddedFromParcelERKNS2_15ProgramSelectorERKNS0_6ParcelEjj"
  },
  {
   "name":"_ZN7android8hardware14broadcastradio4V2_022readEmbeddedFromParcelERKNS2_16AmFmRegionConfigERKNS0_6ParcelEjj"
  },
  {
   "name":"_ZN7android8hardware14broadcastradio4V2_022readEmbeddedFromParcelERKNS2_16ProgramListChunkERKNS0_6ParcelEjj"
  },
  {
   "name":"_ZN7android8hardware14broadcastradio4V2_022readEmbeddedFromParcelERKNS2_8MetadataERKNS0_6ParcelEjj"
  },
  {
   "name":"_ZN7android8hardware14broadcastradio4V2_024BnHwAnnouncementListener10onTransactEjRKNS0_6ParcelEPS4_jNSt3__18functionIFvRS4_EEE"
  },
  {
   "name":"_ZN7android8hardware14broadcastradio4V2_024BnHwAnnouncementListener12getDebugInfoENSt3__18functionIFvRKNS_4hidl4base4V1_09DebugInfoEEEE"
  },
  {
   "name":"_ZN7android8hardware14broadcastradio4V2_024BnHwAnnouncementListener19_hidl_onListUpdatedEPNS_4hidl4base4V1_08BnHwBaseERKNS0_6ParcelEPS9_NSt3__18functionIFvRS9_EEE"
  },
  {
   "name":"_ZN7android8hardware14broadcastradio4V2_024BnHwAnnouncementListener4pingEv"
  },
  {
   "name":"_ZN7android8hardware14broadcastradio4V2_024BnHwAnnouncementListenerC1ERKNS_2spINS2_21IAnnouncementListenerEEE"
  },
  {
   "name":"_ZN7android8hardware14broadcastradio4V2_024BnHwAnnouncementListenerC2ERKNS_2spINS2_21IAnnouncementListenerEEE"
  },
  {
   "name":"_ZN7android8hardware14broadcastradio4V2_024BnHwAnnouncementListenerD0Ev"
  },
  {
   "name":"_ZN7android8hardware14broadcastradio4V2_024BnHwAnnouncementListenerD1Ev"
  },
  {
   "name":"_ZN7android8hardware14broadcastradio4V2_024BnHwAnnouncementListenerD2Ev"
  },
  {
   "name":"_ZN7android8hardware14broadcastradio4V2_024BpHwAnnouncementListener11linkToDeathERKNS_2spINS0_20hidl_death_recipientEEEy"
  },
  {
   "name":"_ZN7android8hardware14broadcastradio4V2_024BpHwAnnouncementListener12getDebugInfoENSt3__18functionIFvRKNS_4hidl4base4V1_09DebugInfoEEEE"
  },
  {
   "name":"_ZN7android8hardware14broadcastradio4V2_024BpHwAnnouncementListener12getHashChainENSt3__18functionIFvRKNS0_8hidl_vecINS0_10hidl_arrayIhLj32EJEEEEEEEE"
  },
  {
   "name":"_ZN7android8hardware14broadcastradio4V2_024BpHwAnnouncementListener13onListUpdatedERKNS0_8hidl_vecINS2_12AnnouncementEEE"
  },
  {
   "name":"_ZN7android8hardware14broadcastradio4V2_024BpHwAnnouncementListener13unlinkToDeathERKNS_2spINS0_20hidl_death_recipientEEE"
  },
  {
   "name":"_ZN7android8hardware14broadcastradio4V2_024BpHwAnnouncementListener14interfaceChainENSt3__18functionIFvRKNS0_8hidl_vecINS0_11hidl_stringEEEEEE"
  },
  {
   "name":"_ZN7android8hardware14broadcastradio4V2_024BpHwAnnouncementListener19_hidl_onListUpdatedEPNS0_10IInterfaceEPNS0_7details16HidlInstrumentorERKNS0_8hidl_vecINS2_12AnnouncementEEE"
  },
  {
   "name":"_ZN7android8hardware14broadcastradio4V2_024BpHwAnnouncementListener19interfaceDescriptorENSt3__18functionIFvRKNS0_11hidl_stringEEEE"
  },
  {
   "name":"_ZN7android8hardware14broadcastradio4V2_024BpHwAnnouncementListener21notifySyspropsChangedEv"
  },
  {
   "name":"_ZN7android8hardware14broadcastradio4V2_024BpHwAnnouncementListener21setHALInstrumentationEv"
  },
  {
   "name":"_ZN7android8hardware14broadcastradio4V2_024BpHwAnnouncementListener4pingEv"
  },
  {
   "name":"_ZN7android8hardware14broadcastradio4V2_024BpHwAnnouncementListener5debugERKNS0_11hidl_handleERKNS0_8hidl_vecINS0_11hidl_stringEEE"
  },
  {
   "name":"_ZN7android8hardware14broadcastradio4V2_024BpHwAnnouncementListenerC1ERKNS_2spINS0_7IBinderEEE"
  },
  {
   "name":"_ZN7android8hardware14broadcastradio4V2_024BpHwAnnouncementListenerC2ERKNS_2spINS0_7IBinderEEE"
  },
  {
   "binding":"weak",
   "name":"_ZN7android8hardware7details13castInterfaceINS0_14broadcastradio4V2_012ICloseHandleENS_4hidl4base4V1_05IBaseENS4_15BpHwCloseHandleEEENS0_6ReturnINS_2spIT_EEEENSC_IT0_EEPKcb"
  },
  {
   "binding":"weak",
   "name":"_ZN7android8hardware7details13castInterfaceINS0_14broadcastradio4V2_013ITunerSessionENS_4hidl4base4V1_05IBaseENS4_16BpHwTunerSessionEEENS0_6ReturnINS_2spIT_EEEENSC_IT0_EEPKcb"
  },
  {
   "binding":"weak",
   "name":"_ZN7android8hardware7details13castInterfaceINS0_14broadcastradio4V2_014ITunerCallbackENS_4hidl4base4V1_05IBaseENS4_17BpHwTunerCallbackEEENS0_6ReturnINS_2spIT_EEEENSC_IT0_EEPKcb"
  },
  {
   "binding":"weak",
   "name":"_ZN7android8hardware7details13castInterfaceINS0_14broadcastradio4V2_015IBroadcastRadioENS_4hidl4base4V1_05IBaseENS4_18BpHwBroadcastRadioEEENS0_6ReturnINS_2spIT_EEEENSC_IT0_EEPKcb"
  },
  {
   "binding":"weak",
   "name":"_ZN7android8hardware7details13castInterfaceINS0_14broadcastradio4V2_021IAnnouncementListenerENS_4hidl4base4V1_05IBaseENS4_24BpHwAnnouncementListenerEEENS0_6ReturnINS_2spIT_EEEENSC_IT0_EEPKcb"
  },
  {
   "binding":"weak",
   "name":"_ZN7android8hardware7details15wrapPassthroughINS0_14broadcastradio4V2_012ICloseHandleEvEENS_2spIT_EES8_"
  },
  {
   "binding":"weak",
   "name":"_ZN7android8hardware7details15wrapPassthroughINS0_14broadcastradio4V2_013ITunerSessionEvEENS_2spIT_EES8_"
  },
  {
   "binding":"weak",
   "name":"_ZN7android8hardware7details15wrapPassthroughINS0_14broadcastradio4V2_014ITunerCallbackEvEENS_2spIT_EES8_"
  },
  {
   "binding":"weak",
   "name":"_ZN7android8hardware7details15wrapPassthroughINS0_14broadcastradio4V2_021IAnnouncementListenerEvEENS_2spIT_EES8_"
  },
  {
   "binding":"weak",
   "name":"_ZN7android8hardware7details18getServiceInternalINS0_14broadcastradio4V2_015BpHwCloseHandleENS4_12ICloseHandleEvvEENS_2spIT0_EERKNSt3__112basic_stringIcNSA_11char_traitsIcEENSA_9allocatorIcEEEEbb"
  },
  {
   "binding":"weak",
   "name":"_ZN7android8hardware7details18getServiceInternalINS0_14broadcastradio4V2_016BpHwTunerSessionENS4_13ITunerSessionEvvEENS_2spIT0_EERKNSt3__112basic_stringIcNSA_11char_traitsIcEENSA_9allocatorIcEEEEbb"
  },
  {
   "binding":"weak",
   "name":"_ZN7android8hardware7details18getServiceInternalINS0_14broadcastradio4V2_017BpHwTunerCallbackENS4_14ITunerCallbackEvvEENS_2spIT0_EERKNSt3__112basic_stringIcNSA_11char_traitsIcEENSA_9allocatorIcEEEEbb"
  },
  {
   "binding":"weak",
   "name":"_ZN7android8hardware7details18getServiceInternalINS0_14broadcastradio4V2_018BpHwBroadcastRadioENS4_15IBroadcastRadioEvvEENS_2spIT0_EERKNSt3__112basic_stringIcNSA_11char_traitsIcEENSA_9allocatorIcEEEEbb"
  },
  {
   "binding":"weak",
   "name":"_ZN7android8hardware7details18getServiceInternalINS0_14broadcastradio4V2_024BpHwAnnouncementListenerENS4_21IAnnouncementListenerEvvEENS_2spIT0_EERKNSt3__112basic_stringIcNSA_11char_traitsIcEENSA_9allocatorIcEEEEbb"
  },
  {
   "binding":"weak",
   "name":"_ZN7android8hardware8toBinderINS0_14broadcastradio4V2_012ICloseHandleEvEENS_2spINS0_7IBinderEEENS5_IT_EE"
  },
  {
   "binding":"weak",
   "name":"_ZN7android8hardware8toBinderINS0_14broadcastradio4V2_013ITunerSessionEvEENS_2spINS0_7IBinderEEENS5_IT_EE"
  },
  {
   "binding":"weak",
   "name":"_ZN7android8hardware8toBinderINS0_14broadcastradio4V2_014ITunerCallbackEvEENS_2spINS0_7IBinderEEENS5_IT_EE"
  },
  {
   "binding":"weak",
   "name":"_ZN7android8hardware8toBinderINS0_14broadcastradio4V2_021IAnnouncementListenerEvEENS_2spINS0_7IBinderEEENS5_IT_EE"
  },
  {
   "binding":"weak",
   "name":"_ZN7android8hardware8toBinderINS_4hidl4base4V1_05IBaseEvEENS_2spINS0_7IBinderEEENS6_IT_EE"
  },
  {
   "name":"_ZThn20_N7android8hardware14broadcastradio4V2_015BnHwCloseHandleD0Ev"
  },
  {
   "name":"_ZThn20_N7android8hardware14broadcastradio4V2_015BnHwCloseHandleD1Ev"
  },
  {
   "name":"_ZThn20_N7android8hardware14broadcastradio4V2_016BnHwTunerSessionD0Ev"
  },
  {
   "name":"_ZThn20_N7android8hardware14broadcastradio4V2_016BnHwTunerSessionD1Ev"
  },
  {
   "name":"_ZThn20_N7android8hardware14broadcastradio4V2_017BnHwTunerCallbackD0Ev"
  },
  {
   "name":"_ZThn20_N7android8hardware14broadcastradio4V2_017BnHwTunerCallbackD1Ev"
  },
  {
   "name":"_ZThn20_N7android8hardware14broadcastradio4V2_018BnHwBroadcastRadioD0Ev"
  },
  {
   "name":"_ZThn20_N7android8hardware14broadcastradio4V2_018BnHwBroadcastRadioD1Ev"
  },
  {
   "name":"_ZThn20_N7android8hardware14broadcastradio4V2_024BnHwAnnouncementListenerD0Ev"
  },
  {
   "name":"_ZThn20_N7android8hardware14broadcastradio4V2_024BnHwAnnouncementListenerD1Ev"
  },
  {
   "name":"_ZTv0_n12_N7android8hardware14broadcastradio4V2_015BnHwCloseHandleD0Ev"
  },
  {
   "name":"_ZTv0_n12_N7android8hardware14broadcastradio4V2_015BnHwCloseHandleD1Ev"
  },
  {
   "name":"_ZTv0_n12_N7android8hardware14broadcastradio4V2_016BnHwTunerSessionD0Ev"
  },
  {
   "name":"_ZTv0_n12_N7android8hardware14broadcastradio4V2_016BnHwTunerSessionD1Ev"
  },
  {
   "name":"_ZTv0_n12_N7android8hardware14broadcastradio4V2_017BnHwTunerCallbackD0Ev"
  },
  {
   "name":"_ZTv0_n12_N7android8hardware14broadcastradio4V2_017BnHwTunerCallbackD1Ev"
  },
  {
   "name":"_ZTv0_n12_N7android8hardware14broadcastradio4V2_018BnHwBroadcastRadioD0Ev"
  },
  {
   "name":"_ZTv0_n12_N7android8hardware14broadcastradio4V2_018BnHwBroadcastRadioD1Ev"
  },
  {
   "name":"_ZTv0_n12_N7android8hardware14broadcastradio4V2_024BnHwAnnouncementListenerD0Ev"
  },
  {
   "name":"_ZTv0_n12_N7android8hardware14broadcastradio4V2_024BnHwAnnouncementListenerD1Ev"
  }
 ],
 "elf_objects":[
  {
   "name":"_ZN7android8hardware14broadcastradio4V2_012ICloseHandle10descriptorE"
  },
  {
   "name":"_ZN7android8hardware14broadcastradio4V2_013ITunerSession10descriptorE"
  },
  {
   "name":"_ZN7android8hardware14broadcastradio4V2_014ITunerCallback10descriptorE"
  },
  {
   "name":"_ZN7android8hardware14broadcastradio4V2_015IBroadcastRadio10descriptorE"
  },
  {
   "name":"_ZN7android8hardware14broadcastradio4V2_021IAnnouncementListener10descriptorE"
  },
  {
   "name":"_ZTTN7android8hardware14broadcastradio4V2_012ICloseHandleE"
  },
  {
   "name":"_ZTTN7android8hardware14broadcastradio4V2_013ITunerSessionE"
  },
  {
   "name":"_ZTTN7android8hardware14broadcastradio4V2_014ITunerCallbackE"
  },
  {
   "name":"_ZTTN7android8hardware14broadcastradio4V2_015BnHwCloseHandleE"
  },
  {
   "name":"_ZTTN7android8hardware14broadcastradio4V2_015BpHwCloseHandleE"
  },
  {
   "name":"_ZTTN7android8hardware14broadcastradio4V2_015IBroadcastRadioE"
  },
  {
   "name":"_ZTTN7android8hardware14broadcastradio4V2_016BnHwTunerSessionE"
  },
  {
   "name":"_ZTTN7android8hardware14broadcastradio4V2_016BpHwTunerSessionE"
  },
  {
   "name":"_ZTTN7android8hardware14broadcastradio4V2_017BnHwTunerCallbackE"
  },
  {
   "name":"_ZTTN7android8hardware14broadcastradio4V2_017BpHwTunerCallbackE"
  },
  {
   "name":"_ZTTN7android8hardware14broadcastradio4V2_018BnHwBroadcastRadioE"
  },
  {
   "name":"_ZTTN7android8hardware14broadcastradio4V2_018BpHwBroadcastRadioE"
  },
  {
   "name":"_ZTTN7android8hardware14broadcastradio4V2_021IAnnouncementListenerE"
  },
  {
   "name":"_ZTTN7android8hardware14broadcastradio4V2_024BnHwAnnouncementListenerE"
  },
  {
   "name":"_ZTTN7android8hardware14broadcastradio4V2_024BpHwAnnouncementListenerE"
  },
  {
   "name":"_ZTVN7android8hardware14broadcastradio4V2_012ICloseHandleE"
  },
  {
   "binding":"weak",
   "name":"_ZTVN7android8hardware14broadcastradio4V2_013BsCloseHandleE"
  },
  {
   "name":"_ZTVN7android8hardware14broadcastradio4V2_013ITunerSessionE"
  },
  {
   "binding":"weak",
   "name":"_ZTVN7android8hardware14broadcastradio4V2_014BsTunerSessionE"
  },
  {
   "name":"_ZTVN7android8hardware14broadcastradio4V2_014ITunerCallbackE"
  },
  {
   "name":"_ZTVN7android8hardware14broadcastradio4V2_015BnHwCloseHandleE"
  },
  {
   "name":"_ZTVN7android8hardware14broadcastradio4V2_015BpHwCloseHandleE"
  },
  {
   "binding":"weak",
   "name":"_ZTVN7android8hardware14broadcastradio4V2_015BsTunerCallbackE"
  },
  {
   "name":"_ZTVN7android8hardware14broadcastradio4V2_015IBroadcastRadioE"
  },
  {
   "name":"_ZTVN7android8hardware14broadcastradio4V2_016BnHwTunerSessionE"
  },
  {
   "name":"_ZTVN7android8hardware14broadcastradio4V2_016BpHwTunerSessionE"
  },
  {
   "binding":"weak",
   "name":"_ZTVN7android8hardware14broadcastradio4V2_016BsBroadcastRadioE"
  },
  {
   "name":"_ZTVN7android8hardware14broadcastradio4V2_017BnHwTunerCallbackE"
  },
  {
   "name":"_ZTVN7android8hardware14broadcastradio4V2_017BpHwTunerCallbackE"
  },
  {
   "name":"_ZTVN7android8hardware14broadcastradio4V2_018BnHwBroadcastRadioE"
  },
  {
   "name":"_ZTVN7android8hardware14broadcastradio4V2_018BpHwBroadcastRadioE"
  },
  {
   "name":"_ZTVN7android8hardware14broadcastradio4V2_021IAnnouncementListenerE"
  },
  {
   "binding":"weak",
   "name":"_ZTVN7android8hardware14broadcastradio4V2_022BsAnnouncementListenerE"
  },
  {
   "name":"_ZTVN7android8hardware14broadcastradio4V2_024BnHwAnnouncementListenerE"
  },
  {
   "name":"_ZTVN7android8hardware14broadcastradio4V2_024BpHwAnnouncementListenerE"
  }
 ]
}