{
 "record_types":[
  {
   "vtable_components":[
    {
     "kind":"vbase_offset",
     "component_value":4
    },
    {
     "kind":"offset_to_top"
    },
    {
     "kind":"rtti",
     "mangled_component_name":"_ZTIN7android8hardware8graphics8composer4V2_117IComposerCallbackE"
    },
    {
     "mangled_component_name":"_ZNK7android8hardware8graphics8composer4V2_117IComposerCallback8isRemoteEv"
    },
    {
     "mangled_component_name":"_ZN7android8hardware8graphics8composer4V2_117IComposerCallback14interfaceChainENSt3__18functionIFvRKNS0_8hidl_vecINS0_11hidl_stringEEEEEE"
    },
    {
     "mangled_component_name":"_ZN7android8hardware8graphics8composer4V2_117IComposerCallback5debugERKNS0_11hidl_handleERKNS0_8hidl_vecINS0_11hidl_stringEEE"
    },
    {
     "mangled_component_name":"_ZN7android8hardware8graphics8composer4V2_117IComposerCallback19interfaceDescriptorENSt3__18functionIFvRKNS0_11hidl_stringEEEE"
    },
    {
     "mangled_component_name":"_ZN7android8hardware8graphics8composer4V2_117IComposerCallback12getHashChainENSt3__18functionIFvRKNS0_8hidl_vecINS0_10hidl_arrayIhLj32EJEEEEEEEE"
    },
    {
     "mangled_component_name":"_ZN7android8hardware8graphics8composer4V2_117IComposerCallback21setHALInstrumentationEv"
    },
    {
     "mangled_component_name":"_ZN7android8hardware8graphics8composer4V2_117IComposerCallback11linkToDeathERKNS_2spINS0_20hidl_death_recipientEEEy"
    },
    {
     "mangled_component_name":"_ZN7android8hardware8graphics8composer4V2_117IComposerCallback4pingEv"
    },
    {
     "mangled_component_name":"_ZN7android8hardware8graphics8composer4V2_117IComposerCallback12getDebugInfoENSt3__18functionIFvRKNS_4hidl4base4V1_09DebugInfoEEEE"
    },
    {
     "mangled_component_name":"_ZN7android8hardware8graphics8composer4V2_117IComposerCallback21notifySyspropsChangedEv"
    },
    {
     "mangled_component_name":"_ZN7android8hardware8graphics8composer4V2_117IComposerCallback13unlinkToDeathERKNS_2spINS0_20hidl_death_recipientEEE"
    },
    {
     "kind":"complete_dtor_pointer",
     "mangled_component_name":"_ZN7android8hardware8graphics8composer4V2_117IComposerCallbackD1Ev"
    },
    {
     "kind":"deleting_dtor_pointer",
     "mangled_component_name":"_ZN7android8hardware8graphics8composer4V2_117IComposerCallbackD0Ev"
    },
    {
     "is_pure":true,
     "mangled_component_name":"_ZN7android8hardware8graphics8composer4V2_117IComposerCallback9onHotplugEyNS4_10ConnectionE"
    },
    {
     "is_pure":true,
     "mangled_component_name":"_ZN7android8hardware8graphics8composer4V2_117IComposerCallback9onRefreshEy"
    },
    {
     "is_pure":true,
     "mangled_component_name":"_ZN7android8hardware8graphics8composer4V2_117IComposerCallback7onVsyncEyx"
    },
    {
     "kind":"vcall_offset"
    },
    {
     "kind":"vcall_offset"
    },
    {
     "kind":"vcall_offset"
    },
    {
     "kind":"vcall_offset"
    },
    {
     "kind":"vcall_offset",
     "component_value":-4
    },
    {
     "kind":"offset_to_top",
     "component_value":-4
    },
    {
     "kind":"rtti",
     "mangled_component_name":"_ZTIN7android8hardware8graphics8composer4V2_117IComposerCallbackE"
    },
    {
     "kind":"complete_dtor_pointer",
     "mangled_component_name":"_ZTv0_n12_N7android8hardware8graphics8composer4V2_117IComposerCallbackD1Ev"
    },
    {
     "kind":"deleting_dtor_pointer",
     "mangled_component_name":"_ZTv0_n12_N7android8hardware8graphics8composer4V2_117IComposerCallbackD0Ev"
    },
    {
     "mangled_component_name":"_ZN7android7RefBase10onFirstRefEv"
    },
    {
     "mangled_component_name":"_ZN7android7RefBase15onLastStrongRefEPKv"
    },
    {
     "mangled_component_name":"_ZN7android7RefBase20onIncStrongAttemptedEjPKv"
    },
    {
     "mangled_component_name":"_ZN7android7RefBase13onLastWeakRefEPKv"
    }
   ],
   "unique_id":"_ZTSN7android8hardware8graphics8composer4V2_117IComposerCallbackE"
  },
  {
   "vtable_components":[
    {
     "kind":"vbase_offset",
     "component_value":84
    },
    {
     "kind":"offset_to_top"
    },
    {
     "kind":"rtti",
     "mangled_component_name":"_ZTIN7android8hardware8graphics8composer4V2_118BpHwComposerClientE"
    },
    {
     "mangled_component_name":"_ZNK7android8hardware8graphics8composer4V2_118BpHwComposerClient8isRemoteEv"
    },
    {
     "mangled_component_name":"_ZN7android8hardware8graphics8composer4V2_118BpHwComposerClient14interfaceChainENSt3__18functionIFvRKNS0_8hidl_vecINS0_11hidl_stringEEEEEE"
    },
    {
     "mangled_component_name":"_ZN7android8hardware8graphics8composer4V2_118BpHwComposerClient5debugERKNS0_11hidl_handleERKNS0_8hidl_vecINS0_11hidl_stringEEE"
    },
    {
     "mangled_component_name":"_ZN7android8hardware8graphics8composer4V2_118BpHwComposerClient19interfaceDescriptorENSt3__18functionIFvRKNS0_11hidl_stringEEEE"
    },
    {
     "mangled_component_name":"_ZN7android8hardware8graphics8composer4V2_118BpHwComposerClient12getHashChainENSt3__18functionIFvRKNS0_8hidl_vecINS0_10hidl_arrayIhLj32EJEEEEEEEE"
    },
    {
     "mangled_component_name":"_ZN7android8hardware8graphics8composer4V2_118BpHwComposerClient21setHALInstrumentationEv"
    },
    {
     "mangled_component_name":"_ZN7android8hardware8graphics8composer4V2_118BpHwComposerClient11linkToDeathERKNS_2spINS0_20hidl_death_recipientEEEy"
    },
    {
     "mangled_component_name":"_ZN7android8hardware8graphics8composer4V2_118BpHwComposerClient4pingEv"
    },
    {
     "mangled_component_name":"_ZN7android8hardware8graphics8composer4V2_118BpHwComposerClient12getDebugInfoENSt3__18functionIFvRKNS_4hidl4base4V1_09DebugInfoEEEE"
    },
    {
     "mangled_component_name":"_ZN7android8hardware8graphics8composer4V2_118BpHwComposerClient21notifySyspropsChangedEv"
    },
    {
     "mangled_component_name":"_ZN7android8hardware8graphics8composer4V2_118BpHwComposerClient13unlinkToDeathERKNS_2spINS0_20hidl_death_recipientEEE"
    },
    {
     "kind":"complete_dtor_pointer",
     "mangled_component_name":"_ZN7android8hardware8graphics8composer4V2_118BpHwComposerClientD1Ev"
    },
    {
     "kind":"deleting_dtor_pointer",
     "mangled_component_name":"_ZN7android8hardware8graphics8composer4V2_118BpHwComposerClientD0Ev"
    },
    {
     "mangled_component_name":"_ZN7android8hardware8graphics8composer4V2_118BpHwComposerClient16registerCallbackERKNS_2spINS3_17IComposerCallbackEEE"
    },
    {
     "mangled_component_name":"_ZN7android8hardware8graphics8composer4V2_118BpHwComposerClient25getMaxVirtualDisplayCountEv"
    },
    {
     "mangled_component_name":"_ZN7android8hardware8graphics8composer4V2_118BpHwComposerClient20createVirtualDisplayEjjNS1_6common4V1_011PixelFormatEjNSt3__18functionIFvNS3_5ErrorEyS7_EEE"
    },
    {
     "mangled_component_name":"_ZN7android8hardware8graphics8composer4V2_118BpHwComposerClient21destroyVirtualDisplayEy"
    },
    {
     "mangled_component_name":"_ZN7android8hardware8graphics8composer4V2_118BpHwComposerClient11createLayerEyjNSt3__18functionIFvNS3_5ErrorEyEEE"
    },
    {
     "mangled_component_name":"_ZN7android8hardware8graphics8composer4V2_118BpHwComposerClient12destroyLayerEyy"
    },
    {
     "mangled_component_name":"_ZN7android8hardware8graphics8composer4V2_118BpHwComposerClient15getActiveConfigEyNSt3__18functionIFvNS3_5ErrorEjEEE"
    },
    {
     "mangled_component_name":"_ZN7android8hardware8graphics8composer4V2_118BpHwComposerClient22getClientTargetSupportEyjjNS1_6common4V1_011PixelFormatENS6_9DataspaceE"
    },
    {
     "mangled_component_name":"_ZN7android8hardware8graphics8composer4V2_118BpHwComposerClient13getColorModesEyNSt3__18functionIFvNS3_5ErrorERKNS0_8hidl_vecINS1_6common4V1_09ColorModeEEEEEE"
    },
    {
     "mangled_component_name":"_ZN7android8hardware8graphics8composer4V2_118BpHwComposerClient19getDisplayAttributeEyjNS3_15IComposerClient9AttributeENSt3__18functionIFvNS3_5ErrorEiEEE"
    },
    {
     "mangled_component_name":"_ZN7android8hardware8graphics8composer4V2_118BpHwComposerClient17getDisplayConfigsEyNSt3__18functionIFvNS3_5ErrorERKNS0_8hidl_vecIjEEEEE"
    },
    {
     "mangled_component_name":"_ZN7android8hardware8graphics8composer4V2_118BpHwComposerClient14getDisplayNameEyNSt3__18functionIFvNS3_5ErrorERKNS0_11hidl_stringEEEE"
    },
    {
     "mangled_component_name":"_ZN7android8hardware8graphics8composer4V2_118BpHwComposerClient14getDisplayTypeEyNSt3__18functionIFvNS3_5ErrorENS3_15IComposerClient11DisplayTypeEEEE"
    },
    {
     "mangled_component_name":"_ZN7android8hardware8graphics8composer4V2_118BpHwComposerClient14getDozeSupportEyNSt3__18functionIFvNS3_5ErrorEbEEE"
    },
    {
     "mangled_component_name":"_ZN7android8hardware8graphics8composer4V2_118BpHwComposerClient18getHdrCapabilitiesEyNSt3__18functionIFvNS3_5ErrorERKNS0_8hidl_vecINS1_6common4V1_03HdrEEEfffEEE"
    },
    {
     "mangled_component_name":"_ZN7android8hardware8graphics8composer4V2_118BpHwComposerClient24setClientTargetSlotCountEyj"
    },
    {
     "mangled_component_name":"_ZN7android8hardware8graphics8composer4V2_118BpHwComposerClient15setActiveConfigEyj"
    },
    {
     "mangled_component_name":"_ZN7android8hardware8graphics8composer4V2_118BpHwComposerClient12setColorModeEyNS1_6common4V1_09ColorModeE"
    },
    {
     "mangled_component_name":"_ZN7android8hardware8graphics8composer4V2_118BpHwComposerClient12setPowerModeEyNS3_15IComposerClient9PowerModeE"
    },
    {
     "mangled_component_name":"_ZN7android8hardware8graphics8composer4V2_118BpHwComposerClient15setVsyncEnabledEyNS3_15IComposerClient5VsyncE"
    },
    {
     "mangled_component_name":"_ZN7android8hardware8graphics8composer4V2_118BpHwComposerClient20setInputCommandQueueERKNS0_12MQDescriptorIjLNS0_8MQFlavorE1EEE"
    },
    {
     "mangled_component_name":"_ZN7android8hardware8graphics8composer4V2_118BpHwComposerClient21getOutputCommandQueueENSt3__18functionIFvNS3_5ErrorERKNS0_12MQDescriptorIjLNS0_8MQFlavorE1EEEEEE"
    },
    {
     "mangled_component_name":"_ZN7android8hardware8graphics8composer4V2_118BpHwComposerClient15executeCommandsEjRKNS0_8hidl_vecINS0_11hidl_handleEEENSt3__18functionIFvNS3_5ErrorEbjS9_EEE"
    },
    {
     "mangled_component_name":"_ZN7android8hardware11BpInterfaceINS0_8graphics8composer4V2_115IComposerClientEE10onAsBinderEv"
    },
    {
     "kind":"vbase_offset",
     "component_value":80
    },
    {
     "kind":"offset_to_top",
     "component_value":-4
    },
    {
     "kind":"rtti",
     "mangled_component_name":"_ZTIN7android8hardware8graphics8composer4V2_118BpHwComposerClientE"
    },
    {
     "kind":"complete_dtor_pointer",
     "mangled_component_name":"_ZThn4_N7android8hardware8graphics8composer4V2_118BpHwComposerClientD1Ev"
    },
    {
     "kind":"deleting_dtor_pointer",
     "mangled_component_name":"_ZThn4_N7android8hardware8graphics8composer4V2_118BpHwComposerClientD0Ev"
    },
    {
     "mangled_component_name":"_ZThn4_N7android8hardware11BpInterfaceINS0_8graphics8composer4V2_115IComposerClientEE10onAsBinderEv"
    },
    {
     "kind":"vbase_offset",
     "component_value":76
    },
    {
     "kind":"offset_to_top",
     "component_value":-8
    },
    {
     "kind":"rtti",
     "mangled_component_name":"_ZTIN7android8hardware8graphics8composer4V2_118BpHwComposerClientE"
    },
    {
     "kind":"complete_dtor_pointer",
     "mangled_component_name":"_ZThn8_N7android8hardware8graphics8composer4V2_118BpHwComposerClientD1Ev"
    },
    {
     "kind":"deleting_dtor_pointer",
     "mangled_component_name":"_ZThn8_N7android8hardware8graphics8composer4V2_118BpHwComposerClientD0Ev"
    },
    {
     "mangled_component_name":"_ZN7android8hardware11BpHwRefBase10onFirstRefEv"
    },
    {
     "mangled_component_name":"_ZN7android8hardware11BpHwRefBase15onLastStrongRefEPKv"
    },
    {
     "mangled_component_name":"_ZN7android8hardware11BpHwRefBase20onIncStrongAttemptedEjPKv"
    },
    {
     "kind":"offset_to_top",
     "component_value":-24
    },
    {
     "kind":"rtti",
     "mangled_component_name":"_ZTIN7android8hardware8graphics8composer4V2_118BpHwComposerClientE"
    },
    {
     "kind":"complete_dtor_pointer",
     "mangled_component_name":"_ZThn24_N7android8hardware8graphics8composer4V2_118BpHwComposerClientD1Ev"
    },
    {
     "kind":"deleting_dtor_pointer",
     "mangled_component_name":"_ZThn24_N7android8hardware8graphics8composer4V2_118BpHwComposerClientD0Ev"
    },
    {
     "kind":"vcall_offset"
    },
    {
     "kind":"vcall_offset",
     "component_value":-76
    },
    {
     "kind":"vcall_offset",
     "component_value":-76
    },
    {
     "kind":"vcall_offset",
     "component_value":-76
    },
    {
     "kind":"vcall_offset",
     "component_value":-84
    },
    {
     "kind":"offset_to_top",
     "component_value":-84
    },
    {
     "kind":"rtti",
     "mangled_component_name":"_ZTIN7android8hardware8graphics8composer4V2_118BpHwComposerClientE"
    },
    {
     "kind":"complete_dtor_pointer",
     "mangled_component_name":"_ZTv0_n12_N7android8hardware8graphics8composer4V2_118BpHwComposerClientD1Ev"
    },
    {
     "kind":"deleting_dtor_pointer",
     "mangled_component_name":"_ZTv0_n12_N7android8hardware8graphics8composer4V2_118BpHwComposerClientD0Ev"
    },
    {
     "mangled_component_name":"_ZTv0_n16_N7android8hardware11BpHwRefBase10onFirstRefEv"
    },
    {
     "mangled_component_name":"_ZTv0_n20_N7android8hardware11BpHwRefBase15onLastStrongRefEPKv"
    },
    {
     "mangled_component_name":"_ZTv0_n24_N7android8hardware11BpHwRefBase20onIncStrongAttemptedEjPKv"
    },
    {
     "mangled_component_name":"_ZN7android7RefBase13onLastWeakRefEPKv"
    }
   ],
   "unique_id":"_ZTSN7android8hardware8graphics8composer4V2_118BpHwComposerClientE"
  },
  {
   "vtable_components":[
    {
     "kind":"vbase_offset",
     "component_value":4
    },
    {
     "kind":"offset_to_top"
    },
    {
     "kind":"rtti",
     "mangled_component_name":"_ZTIN7android8hardware8graphics8composer4V2_19IComposerE"
    },
    {
     "mangled_component_name":"_ZNK7android8hardware8graphics8composer4V2_19IComposer8isRemoteEv"
    },
    {
     "mangled_component_name":"_ZN7android8hardware8graphics8composer4V2_19IComposer14interfaceChainENSt3__18functionIFvRKNS0_8hidl_vecINS0_11hidl_stringEEEEEE"
    },
    {
     "mangled_component_name":"_ZN7android8hardware8graphics8composer4V2_19IComposer5debugERKNS0_11hidl_handleERKNS0_8hidl_vecINS0_11hidl_stringEEE"
    },
    {
     "mangled_component_name":"_ZN7android8hardware8graphics8composer4V2_19IComposer19interfaceDescriptorENSt3__18functionIFvRKNS0_11hidl_stringEEEE"
    },
    {
     "mangled_component_name":"_ZN7android8hardware8graphics8composer4V2_19IComposer12getHashChainENSt3__18functionIFvRKNS0_8hidl_vecINS0_10hidl_arrayIhLj32EJEEEEEEEE"
    },
    {
     "mangled_component_name":"_ZN7android8hardware8graphics8composer4V2_19IComposer21setHALInstrumentationEv"
    },
    {
     "mangled_component_name":"_ZN7android8hardware8graphics8composer4V2_19IComposer11linkToDeathERKNS_2spINS0_20hidl_death_recipientEEEy"
    },
    {
     "mangled_component_name":"_ZN7android8hardware8graphics8composer4V2_19IComposer4pingEv"
    },
    {
     "mangled_component_name":"_ZN7android8hardware8graphics8composer4V2_19IComposer12getDebugInfoENSt3__18functionIFvRKNS_4hidl4base4V1_09DebugInfoEEEE"
    },
    {
     "mangled_component_name":"_ZN7android8hardware8graphics8composer4V2_19IComposer21notifySyspropsChangedEv"
    },
    {
     "mangled_component_name":"_ZN7android8hardware8graphics8composer4V2_19IComposer13unlinkToDeathERKNS_2spINS0_20hidl_death_recipientEEE"
    },
    {
     "kind":"complete_dtor_pointer",
     "mangled_component_name":"_ZN7android8hardware8graphics8composer4V2_19IComposerD1Ev"
    },
    {
     "kind":"deleting_dtor_pointer",
     "mangled_component_name":"_ZN7android8hardware8graphics8composer4V2_19IComposerD0Ev"
    },
    {
     "is_pure":true,
     "mangled_component_name":"_ZN7android8hardware8graphics8composer4V2_19IComposer15getCapabilitiesENSt3__18functionIFvRKNS0_8hidl_vecINS4_10CapabilityEEEEEE"
    },
    {
     "is_pure":true,
     "mangled_component_name":"_ZN7android8hardware8graphics8composer4V2_19IComposer13dumpDebugInfoENSt3__18functionIFvRKNS0_11hidl_stringEEEE"
    },
    {
     "is_pure":true,
     "mangled_component_name":"_ZN7android8hardware8graphics8composer4V2_19IComposer12createClientENSt3__18functionIFvNS3_5ErrorERKNS_2spINS3_15IComposerClientEEEEEE"
    },
    {
     "kind":"vcall_offset"
    },
    {
     "kind":"vcall_offset"
    },
    {
     "kind":"vcall_offset"
    },
    {
     "kind":"vcall_offset"
    },
    {
     "kind":"vcall_offset",
     "component_value":-4
    },
    {
     "kind":"offset_to_top",
     "component_value":-4
    },
    {
     "kind":"rtti",
     "mangled_component_name":"_ZTIN7android8hardware8graphics8composer4V2_19IComposerE"
    },
    {
     "kind":"complete_dtor_pointer",
     "mangled_component_name":"_ZTv0_n12_N7android8hardware8graphics8composer4V2_19IComposerD1Ev"
    },
    {
     "kind":"deleting_dtor_pointer",
     "mangled_component_name":"_ZTv0_n12_N7android8hardware8graphics8composer4V2_19IComposerD0Ev"
    },
    {
     "mangled_component_name":"_ZN7android7RefBase10onFirstRefEv"
    },
    {
     "mangled_component_name":"_ZN7android7RefBase15onLastStrongRefEPKv"
    },
    {
     "mangled_component_name":"_ZN7android7RefBase20onIncStrongAttemptedEjPKv"
    },
    {
     "mangled_component_name":"_ZN7android7RefBase13onLastWeakRefEPKv"
    }
   ],
   "unique_id":"_ZTSN7android8hardware8graphics8composer4V2_19IComposerE"
  },
  {
   "vtable_components":[
    {
     "kind":"vbase_offset",
     "component_value":72
    },
    {
     "kind":"offset_to_top"
    },
    {
     "kind":"rtti",
     "mangled_component_name":"_ZTIN7android8hardware8graphics8composer4V2_112BnHwComposerE"
    },
    {
     "mangled_component_name":"_ZN7android8hardware9BHwBinder8transactEjRKNS0_6ParcelEPS2_jNSt3__18functionIFvRS2_EEE"
    },
    {
     "mangled_component_name":"_ZN7android8hardware9BHwBinder11linkToDeathERKNS_2spINS0_7IBinder14DeathRecipientEEEPvj"
    },
    {
     "mangled_component_name":"_ZN7android8hardware9BHwBinder13unlinkToDeathERKNS_2wpINS0_7IBinder14DeathRecipientEEEPvjPS5_"
    },
    {
     "mangled_component_name":"_ZNK7android8hardware7IBinder13checkSubclassEPKv"
    },
    {
     "mangled_component_name":"_ZN7android8hardware9BHwBinder12attachObjectEPKvPvS4_PFvS3_S4_S4_E"
    },
    {
     "mangled_component_name":"_ZNK7android8hardware9BHwBinder10findObjectEPKv"
    },
    {
     "mangled_component_name":"_ZN7android8hardware9BHwBinder12detachObjectEPKv"
    },
    {
     "mangled_component_name":"_ZN7android8hardware9BHwBinder11localBinderEv"
    },
    {
     "mangled_component_name":"_ZN7android8hardware7IBinder12remoteBinderEv"
    },
    {
     "kind":"complete_dtor_pointer",
     "mangled_component_name":"_ZN7android8hardware8graphics8composer4V2_112BnHwComposerD1Ev"
    },
    {
     "kind":"deleting_dtor_pointer",
     "mangled_component_name":"_ZN7android8hardware8graphics8composer4V2_112BnHwComposerD0Ev"
    },
    {
     "mangled_component_name":"_ZN7android8hardware8graphics8composer4V2_112BnHwComposer10onTransactEjRKNS0_6ParcelEPS5_jNSt3__18functionIFvRS5_EEE"
    },
    {
     "kind":"offset_to_top",
     "component_value":-20
    },
    {
     "kind":"rtti",
     "mangled_component_name":"_ZTIN7android8hardware8graphics8composer4V2_112BnHwComposerE"
    },
    {
     "kind":"complete_dtor_pointer",
     "mangled_component_name":"_ZThn20_N7android8hardware8graphics8composer4V2_112BnHwComposerD1Ev"
    },
    {
     "kind":"deleting_dtor_pointer",
     "mangled_component_name":"_ZThn20_N7android8hardware8graphics8composer4V2_112BnHwComposerD0Ev"
    },
    {
     "kind":"vcall_offset"
    },
    {
     "kind":"vcall_offset"
    },
    {
     "kind":"vcall_offset"
    },
    {
     "kind":"vcall_offset"
    },
    {
     "kind":"vcall_offset",
     "component_value":-72
    },
    {
     "kind":"offset_to_top",
     "component_value":-72
    },
    {
     "kind":"rtti",
     "mangled_component_name":"_ZTIN7android8hardware8graphics8composer4V2_112BnHwComposerE"
    },
    {
     "kind":"complete_dtor_pointer",
     "mangled_component_name":"_ZTv0_n12_N7android8hardware8graphics8composer4V2_112BnHwComposerD1Ev"
    },
    {
     "kind":"deleting_dtor_pointer",
     "mangled_component_name":"_ZTv0_n12_N7android8hardware8graphics8composer4V2_112BnHwComposerD0Ev"
    },
    {
     "mangled_component_name":"_ZN7android7RefBase10onFirstRefEv"
    },
    {
     "mangled_component_name":"_ZN7android7RefBase15onLastStrongRefEPKv"
    },
    {
     "mangled_component_name":"_ZN7android7RefBase20onIncStrongAttemptedEjPKv"
    },
    {
     "mangled_component_name":"_ZN7android7RefBase13onLastWeakRefEPKv"
    }
   ],
   "unique_id":"_ZTSN7android8hardware8graphics8composer4V2_112BnHwComposerE"
  },
  {
   "vtable_components":[
    {
     "kind":"vbase_offset",
     "component_value":72
    },
    {
     "kind":"offset_to_top"
    },
    {
     "kind":"rtti",
     "mangled_component_name":"_ZTIN7android8hardware8graphics8composer4V2_118BnHwComposerClientE"
    },
    {
     "mangled_component_name":"_ZN7android8hardware9BHwBinder8transactEjRKNS0_6ParcelEPS2_jNSt3__18functionIFvRS2_EEE"
    },
    {
     "mangled_component_name":"_ZN7android8hardware9BHwBinder11linkToDeathERKNS_2spINS0_7IBinder14DeathRecipientEEEPvj"
    },
    {
     "mangled_component_name":"_ZN7android8hardware9BHwBinder13unlinkToDeathERKNS_2wpINS0_7IBinder14DeathRecipientEEEPvjPS5_"
    },
    {
     "mangled_component_name":"_ZNK7android8hardware7IBinder13checkSubclassEPKv"
    },
    {
     "mangled_component_name":"_ZN7android8hardware9BHwBinder12attachObjectEPKvPvS4_PFvS3_S4_S4_E"
    },
    {
     "mangled_component_name":"_ZNK7android8hardware9BHwBinder10findObjectEPKv"
    },
    {
     "mangled_component_name":"_ZN7android8hardware9BHwBinder12detachObjectEPKv"
    },
    {
     "mangled_component_name":"_ZN7android8hardware9BHwBinder11localBinderEv"
    },
    {
     "mangled_component_name":"_ZN7android8hardware7IBinder12remoteBinderEv"
    },
    {
     "kind":"complete_dtor_pointer",
     "mangled_component_name":"_ZN7android8hardware8graphics8composer4V2_118BnHwComposerClientD1Ev"
    },
    {
     "kind":"deleting_dtor_pointer",
     "mangled_component_name":"_ZN7android8hardware8graphics8composer4V2_118BnHwComposerClientD0Ev"
    },
    {
     "mangled_component_name":"_ZN7android8hardware8graphics8composer4V2_118BnHwComposerClient10onTransactEjRKNS0_6ParcelEPS5_jNSt3__18functionIFvRS5_EEE"
    },
    {
     "kind":"offset_to_top",
     "component_value":-20
    },
    {
     "kind":"rtti",
     "mangled_component_name":"_ZTIN7android8hardware8graphics8composer4V2_118BnHwComposerClientE"
    },
    {
     "kind":"complete_dtor_pointer",
     "mangled_component_name":"_ZThn20_N7android8hardware8graphics8composer4V2_118BnHwComposerClientD1Ev"
    },
    {
     "kind":"deleting_dtor_pointer",
     "mangled_component_name":"_ZThn20_N7android8hardware8graphics8composer4V2_118BnHwComposerClientD0Ev"
    },
    {
     "kind":"vcall_offset"
    },
    {
     "kind":"vcall_offset"
    },
    {
     "kind":"vcall_offset"
    },
    {
     "kind":"vcall_offset"
    },
    {
     "kind":"vcall_offset",
     "component_value":-72
    },
    {
     "kind":"offset_to_top",
     "component_value":-72
    },
    {
     "kind":"rtti",
     "mangled_component_name":"_ZTIN7android8hardware8graphics8composer4V2_118BnHwComposerClientE"
    },
    {
     "kind":"complete_dtor_pointer",
     "mangled_component_name":"_ZTv0_n12_N7android8hardware8graphics8composer4V2_118BnHwComposerClientD1Ev"
    },
    {
     "kind":"deleting_dtor_pointer",
     "mangled_component_name":"_ZTv0_n12_N7android8hardware8graphics8composer4V2_118BnHwComposerClientD0Ev"
    },
    {
     "mangled_component_name":"_ZN7android7RefBase10onFirstRefEv"
    },
    {
     "mangled_component_name":"_ZN7android7RefBase15onLastStrongRefEPKv"
    },
    {
     "mangled_component_name":"_ZN7android7RefBase20onIncStrongAttemptedEjPKv"
    },
    {
     "mangled_component_name":"_ZN7android7RefBase13onLastWeakRefEPKv"
    }
   ],
   "unique_id":"_ZTSN7android8hardware8graphics8composer4V2_118BnHwComposerClientE"
  },
  {
   "vtable_components":[
    {
     "kind":"vbase_offset",
     "component_value":60
    },
    {
     "kind":"offset_to_top"
    },
    {
     "kind":"rtti",
     "mangled_component_name":"_ZTIN7android8hardware8graphics8composer4V2_116BsComposerClientE"
    },
    {
     "mangled_component_name":"_ZNK7android8hardware8graphics8composer4V2_115IComposerClient8isRemoteEv"
    },
    {
     "mangled_component_name":"_ZN7android8hardware8graphics8composer4V2_116BsComposerClient14interfaceChainENSt3__18functionIFvRKNS0_8hidl_vecINS0_11hidl_stringEEEEEE"
    },
    {
     "mangled_component_name":"_ZN7android8hardware8graphics8composer4V2_116BsComposerClient5debugERKNS0_11hidl_handleERKNS0_8hidl_vecINS0_11hidl_stringEEE"
    },
    {
     "mangled_component_name":"_ZN7android8hardware8graphics8composer4V2_116BsComposerClient19interfaceDescriptorENSt3__18functionIFvRKNS0_11hidl_stringEEEE"
    },
    {
     "mangled_component_name":"_ZN7android8hardware8graphics8composer4V2_116BsComposerClient12getHashChainENSt3__18functionIFvRKNS0_8hidl_vecINS0_10hidl_arrayIhLj32EJEEEEEEEE"
    },
    {
     "mangled_component_name":"_ZN7android8hardware8graphics8composer4V2_116BsComposerClient21setHALInstrumentationEv"
    },
    {
     "mangled_component_name":"_ZN7android8hardware8graphics8composer4V2_116BsComposerClient11linkToDeathERKNS_2spINS0_20hidl_death_recipientEEEy"
    },
    {
     "mangled_component_name":"_ZN7android8hardware8graphics8composer4V2_116BsComposerClient4pingEv"
    },
    {
     "mangled_component_name":"_ZN7android8hardware8graphics8composer4V2_116BsComposerClient12getDebugInfoENSt3__18functionIFvRKNS_4hidl4base4V1_09DebugInfoEEEE"
    },
    {
     "mangled_component_name":"_ZN7android8hardware8graphics8composer4V2_116BsComposerClient21notifySyspropsChangedEv"
    },
    {
     "mangled_component_name":"_ZN7android8hardware8graphics8composer4V2_116BsComposerClient13unlinkToDeathERKNS_2spINS0_20hidl_death_recipientEEE"
    },
    {
     "kind":"complete_dtor_pointer",
     "mangled_component_name":"_ZN7android8hardware8graphics8composer4V2_116BsComposerClientD1Ev"
    },
    {
     "kind":"deleting_dtor_pointer",
     "mangled_component_name":"_ZN7android8hardware8graphics8composer4V2_116BsComposerClientD0Ev"
    },
    {
     "mangled_component_name":"_ZN7android8hardware8graphics8composer4V2_116BsComposerClient16registerCallbackERKNS_2spINS3_17IComposerCallbackEEE"
    },
    {
     "mangled_component_name":"_ZN7android8hardware8graphics8composer4V2_116BsComposerClient25getMaxVirtualDisplayCountEv"
    },
    {
     "mangled_component_name":"_ZN7android8hardware8graphics8composer4V2_116BsComposerClient20createVirtualDisplayEjjNS1_6common4V1_011PixelFormatEjNSt3__18functionIFvNS3_5ErrorEyS7_EEE"
    },
    {
     "mangled_component_name":"_ZN7android8hardware8graphics8composer4V2_116BsComposerClient21destroyVirtualDisplayEy"
    },
    {
     "mangled_component_name":"_ZN7android8hardware8graphics8composer4V2_116BsComposerClient11createLayerEyjNSt3__18functionIFvNS3_5ErrorEyEEE"
    },
    {
     "mangled_component_name":"_ZN7android8hardware8graphics8composer4V2_116BsComposerClient12destroyLayerEyy"
    },
    {
     "mangled_component_name":"_ZN7android8hardware8graphics8composer4V2_116BsComposerClient15getActiveConfigEyNSt3__18functionIFvNS3_5ErrorEjEEE"
    },
    {
     "mangled_component_name":"_ZN7android8hardware8graphics8composer4V2_116BsComposerClient22getClientTargetSupportEyjjNS1_6common4V1_011PixelFormatENS6_9DataspaceE"
    },
    {
     "mangled_component_name":"_ZN7android8hardware8graphics8composer4V2_116BsComposerClient13getColorModesEyNSt3__18functionIFvNS3_5ErrorERKNS0_8hidl_vecINS1_6common4V1_09ColorModeEEEEEE"
    },
    {
     "mangled_component_name":"_ZN7android8hardware8graphics8composer4V2_116BsComposerClient19getDisplayAttributeEyjNS3_15IComposerClient9AttributeENSt3__18functionIFvNS3_5ErrorEiEEE"
    },
    {
     "mangled_component_name":"_ZN7android8hardware8graphics8composer4V2_116BsComposerClient17getDisplayConfigsEyNSt3__18functionIFvNS3_5ErrorERKNS0_8hidl_vecIjEEEEE"
    },
    {
     "mangled_component_name":"_ZN7android8hardware8graphics8composer4V2_116BsComposerClient14getDisplayNameEyNSt3__18functionIFvNS3_5ErrorERKNS0_11hidl_stringEEEE"
    },
    {
     "mangled_component_name":"_ZN7android8hardware8graphics8composer4V2_116BsComposerClient14getDisplayTypeEyNSt3__18functionIFvNS3_5ErrorENS3_15IComposerClient11DisplayTypeEEEE"
    },
    {
     "mangled_component_name":"_ZN7android8hardware8graphics8composer4V2_116BsComposerClient14getDozeSupportEyNSt3__18functionIFvNS3_5ErrorEbEEE"
    },
    {
     "mangled_component_name":"_ZN7android8hardware8graphics8composer4V2_116BsComposerClient18getHdrCapabilitiesEyNSt3__18functionIFvNS3_5ErrorERKNS0_8hidl_vecINS1_6common4V1_03HdrEEEfffEEE"
    },
    {
     "mangled_component_name":"_ZN7android8hardware8graphics8composer4V2_116BsComposerClient24setClientTargetSlotCountEyj"
    },
    {
     "mangled_component_name":"_ZN7android8hardware8graphics8composer4V2_116BsComposerClient15setActiveConfigEyj"
    },
    {
     "mangled_component_name":"_ZN7android8hardware8graphics8composer4V2_116BsComposerClient12setColorModeEyNS1_6common4V1_09ColorModeE"
    },
    {
     "mangled_component_name":"_ZN7android8hardware8graphics8composer4V2_116BsComposerClient12setPowerModeEyNS3_15IComposerClient9PowerModeE"
    },
    {
     "mangled_component_name":"_ZN7android8hardware8graphics8composer4V2_116BsComposerClient15setVsyncEnabledEyNS3_15IComposerClient5VsyncE"
    },
    {
     "mangled_component_name":"_ZN7android8hardware8graphics8composer4V2_116BsComposerClient20setInputCommandQueueERKNS0_12MQDescriptorIjLNS0_8MQFlavorE1EEE"
    },
    {
     "mangled_component_name":"_ZN7android8hardware8graphics8composer4V2_116BsComposerClient21getOutputCommandQueueENSt3__18functionIFvNS3_5ErrorERKNS0_12MQDescriptorIjLNS0_8MQFlavorE1EEEEEE"
    },
    {
     "mangled_component_name":"_ZN7android8hardware8graphics8composer4V2_116BsComposerClient15executeCommandsEjRKNS0_8hidl_vecINS0_11hidl_handleEEENSt3__18functionIFvNS3_5ErrorEbjS9_EEE"
    },
    {
     "kind":"offset_to_top",
     "component_value":-4
    },
    {
     "kind":"rtti",
     "mangled_component_name":"_ZTIN7android8hardware8graphics8composer4V2_116BsComposerClientE"
    },
    {
     "kind":"complete_dtor_pointer",
     "mangled_component_name":"_ZThn4_N7android8hardware8graphics8composer4V2_116BsComposerClientD1Ev"
    },
    {
     "kind":"deleting_dtor_pointer",
     "mangled_component_name":"_ZThn4_N7android8hardware8graphics8composer4V2_116BsComposerClientD0Ev"
    },
    {
     "kind":"vcall_offset"
    },
    {
     "kind":"vcall_offset"
    },
    {
     "kind":"vcall_offset"
    },
    {
     "kind":"vcall_offset"
    },
    {
     "kind":"vcall_offset",
     "component_value":-60
    },
    {
     "kind":"offset_to_top",
     "component_value":-60
    },
    {
     "kind":"rtti",
     "mangled_component_name":"_ZTIN7android8hardware8graphics8composer4V2_116BsComposerClientE"
    },
    {
     "kind":"complete_dtor_pointer",
     "mangled_component_name":"_ZTv0_n12_N7android8hardware8graphics8composer4V2_116BsComposerClientD1Ev"
    },
    {
     "kind":"deleting_dtor_pointer",
     "mangled_component_name":"_ZTv0_n12_N7android8hardware8graphics8composer4V2_116BsComposerClientD0Ev"
    },
    {
     "mangled_component_name":"_ZN7android7RefBase10onFirstRefEv"
    },
    {
     "mangled_component_name":"_ZN7android7RefBase15onLastStrongRefEPKv"
    },
    {
     "mangled_component_name":"_ZN7android7RefBase20onIncStrongAttemptedEjPKv"
    },
    {
     "mangled_component_name":"_ZN7android7RefBase13onLastWeakRefEPKv"
    }
   ],
   "unique_id":"_ZTSN7android8hardware8graphics8composer4V2_116BsComposerClientE"
  },
  {
   "vtable_components":[
    {
     "kind":"vbase_offset",
     "component_value":4
    },
    {
     "kind":"offset_to_top"
    },
    {
     "kind":"rtti",
     "mangled_component_name":"_ZTIN7android8hardware8graphics8composer4V2_115IComposerClientE"
    },
    {
     "mangled_component_name":"_ZNK7android8hardware8graphics8composer4V2_115IComposerClient8isRemoteEv"
    },
    {
     "mangled_component_name":"_ZN7android8hardware8graphics8composer4V2_115IComposerClient14interfaceChainENSt3__18functionIFvRKNS0_8hidl_vecINS0_11hidl_stringEEEEEE"
    },
    {
     "mangled_component_name":"_ZN7android8hardware8graphics8composer4V2_115IComposerClient5debugERKNS0_11hidl_handleERKNS0_8hidl_vecINS0_11hidl_stringEEE"
    },
    {
     "mangled_component_name":"_ZN7android8hardware8graphics8composer4V2_115IComposerClient19interfaceDescriptorENSt3__18functionIFvRKNS0_11hidl_stringEEEE"
    },
    {
     "mangled_component_name":"_ZN7android8hardware8graphics8composer4V2_115IComposerClient12getHashChainENSt3__18functionIFvRKNS0_8hidl_vecINS0_10hidl_arrayIhLj32EJEEEEEEEE"
    },
    {
     "mangled_component_name":"_ZN7android8hardware8graphics8composer4V2_115IComposerClient21setHALInstrumentationEv"
    },
    {
     "mangled_component_name":"_ZN7android8hardware8graphics8composer4V2_115IComposerClient11linkToDeathERKNS_2spINS0_20hidl_death_recipientEEEy"
    },
    {
     "mangled_component_name":"_ZN7android8hardware8graphics8composer4V2_115IComposerClient4pingEv"
    },
    {
     "mangled_component_name":"_ZN7android8hardware8graphics8composer4V2_115IComposerClient12getDebugInfoENSt3__18functionIFvRKNS_4hidl4base4V1_09DebugInfoEEEE"
    },
    {
     "mangled_component_name":"_ZN7android8hardware8graphics8composer4V2_115IComposerClient21notifySyspropsChangedEv"
    },
    {
     "mangled_component_name":"_ZN7android8hardware8graphics8composer4V2_115IComposerClient13unlinkToDeathERKNS_2spINS0_20hidl_death_recipientEEE"
    },
    {
     "kind":"complete_dtor_pointer",
     "mangled_component_name":"_ZN7android8hardware8graphics8composer4V2_115IComposerClientD1Ev"
    },
    {
     "kind":"deleting_dtor_pointer",
     "mangled_component_name":"_ZN7android8hardware8graphics8composer4V2_115IComposerClientD0Ev"
    },
    {
     "is_pure":true,
     "mangled_component_name":"_ZN7android8hardware8graphics8composer4V2_115IComposerClient16registerCallbackERKNS_2spINS3_17IComposerCallbackEEE"
    },
    {
     "is_pure":true,
     "mangled_component_name":"_ZN7android8hardware8graphics8composer4V2_115IComposerClient25getMaxVirtualDisplayCountEv"
    },
    {
     "is_pure":true,
     "mangled_component_name":"_ZN7android8hardware8graphics8composer4V2_115IComposerClient20createVirtualDisplayEjjNS1_6common4V1_011PixelFormatEjNSt3__18functionIFvNS3_5ErrorEyS7_EEE"
    },
    {
     "is_pure":true,
     "mangled_component_name":"_ZN7android8hardware8graphics8composer4V2_115IComposerClient21destroyVirtualDisplayEy"
    },
    {
     "is_pure":true,
     "mangled_component_name":"_ZN7android8hardware8graphics8composer4V2_115IComposerClient11createLayerEyjNSt3__18functionIFvNS3_5ErrorEyEEE"
    },
    {
     "is_pure":true,
     "mangled_component_name":"_ZN7android8hardware8graphics8composer4V2_115IComposerClient12destroyLayerEyy"
    },
    {
     "is_pure":true,
     "mangled_component_name":"_ZN7android8hardware8graphics8composer4V2_115IComposerClient15getActiveConfigEyNSt3__18functionIFvNS3_5ErrorEjEEE"
    },
    {
     "is_pure":true,
     "mangled_component_name":"_ZN7android8hardware8graphics8composer4V2_115IComposerClient22getClientTargetSupportEyjjNS1_6common4V1_011PixelFormatENS6_9DataspaceE"
    },
    {
     "is_pure":true,
     "mangled_component_name":"_ZN7android8hardware8graphics8composer4V2_115IComposerClient13getColorModesEyNSt3__18functionIFvNS3_5ErrorERKNS0_8hidl_vecINS1_6common4V1_09ColorModeEEEEEE"
    },
    {
     "is_pure":true,
     "mangled_component_name":"_ZN7android8hardware8graphics8composer4V2_115IComposerClient19getDisplayAttributeEyjNS4_9AttributeENSt3__18functionIFvNS3_5ErrorEiEEE"
    },
    {
     "is_pure":true,
     "mangled_component_name":"_ZN7android8hardware8graphics8composer4V2_115IComposerClient17getDisplayConfigsEyNSt3__18functionIFvNS3_5ErrorERKNS0_8hidl_vecIjEEEEE"
    },
    {
     "is_pure":true,
     "mangled_component_name":"_ZN7android8hardware8graphics8composer4V2_115IComposerClient14getDisplayNameEyNSt3__18functionIFvNS3_5ErrorERKNS0_11hidl_stringEEEE"
    },
    {
     "is_pure":true,
     "mangled_component_name":"_ZN7android8hardware8graphics8composer4V2_115IComposerClient14getDisplayTypeEyNSt3__18functionIFvNS3_5ErrorENS4_11DisplayTypeEEEE"
    },
    {
     "is_pure":true,
     "mangled_component_name":"_ZN7android8hardware8graphics8composer4V2_115IComposerClient14getDozeSupportEyNSt3__18functionIFvNS3_5ErrorEbEEE"
    },
    {
     "is_pure":true,
     "mangled_component_name":"_ZN7android8hardware8graphics8composer4V2_115IComposerClient18getHdrCapabilitiesEyNSt3__18functionIFvNS3_5ErrorERKNS0_8hidl_vecINS1_6common4V1_03HdrEEEfffEEE"
    },
    {
     "is_pure":true,
     "mangled_component_name":"_ZN7android8hardware8graphics8composer4V2_115IComposerClient24setClientTargetSlotCountEyj"
    },
    {
     "is_pure":true,
     "mangled_component_name":"_ZN7android8hardware8graphics8composer4V2_115IComposerClient15setActiveConfigEyj"
    },
    {
     "is_pure":true,
     "mangled_component_name":"_ZN7android8hardware8graphics8composer4V2_115IComposerClient12setColorModeEyNS1_6common4V1_09ColorModeE"
    },
    {
     "is_pure":true,
     "mangled_component_name":"_ZN7android8hardware8graphics8composer4V2_115IComposerClient12setPowerModeEyNS4_9PowerModeE"
    },
    {
     "is_pure":true,
     "mangled_component_name":"_ZN7android8hardware8graphics8composer4V2_115IComposerClient15setVsyncEnabledEyNS4_5VsyncE"
    },
    {
     "is_pure":true,
     "mangled_component_name":"_ZN7android8hardware8graphics8composer4V2_115IComposerClient20setInputCommandQueueERKNS0_12MQDescriptorIjLNS0_8MQFlavorE1EEE"
    },
    {
     "is_pure":true,
     "mangled_component_name":"_ZN7android8hardware8graphics8composer4V2_115IComposerClient21getOutputCommandQueueENSt3__18functionIFvNS3_5ErrorERKNS0_12MQDescriptorIjLNS0_8MQFlavorE1EEEEEE"
    },
    {
     "is_pure":true,
     "mangled_component_name":"_ZN7android8hardware8graphics8composer4V2_115IComposerClient15executeCommandsEjRKNS0_8hidl_vecINS0_11hidl_handleEEENSt3__18functionIFvNS3_5ErrorEbjS9_EEE"
    },
    {
     "kind":"vcall_offset"
    },
    {
     "kind":"vcall_offset"
    },
    {
     "kind":"vcall_offset"
    },
    {
     "kind":"vcall_offset"
    },
    {
     "kind":"vcall_offset",
     "component_value":-4
    },
    {
     "kind":"offset_to_top",
     "component_value":-4
    },
    {
     "kind":"rtti",
     "mangled_component_name":"_ZTIN7android8hardware8graphics8composer4V2_115IComposerClientE"
    },
    {
     "kind":"complete_dtor_pointer",
     "mangled_component_name":"_ZTv0_n12_N7android8hardware8graphics8composer4V2_115IComposerClientD1Ev"
    },
    {
     "kind":"deleting_dtor_pointer",
     "mangled_component_name":"_ZTv0_n12_N7android8hardware8graphics8composer4V2_115IComposerClientD0Ev"
    },
    {
     "mangled_component_name":"_ZN7android7RefBase10onFirstRefEv"
    },
    {
     "mangled_component_name":"_ZN7android7RefBase15onLastStrongRefEPKv"
    },
    {
     "mangled_component_name":"_ZN7android7RefBase20onIncStrongAttemptedEjPKv"
    },
    {
     "mangled_component_name":"_ZN7android7RefBase13onLastWeakRefEPKv"
    }
   ],
   "unique_id":"_ZTSN7android8hardware8graphics8composer4V2_115IComposerClientE"
  },
  {
   "vtable_components":[
    {
     "kind":"vbase_offset",
     "component_value":72
    },
    {
     "kind":"offset_to_top"
    },
    {
     "kind":"rtti",
     "mangled_component_name":"_ZTIN7android8hardware8graphics8composer4V2_120BnHwComposerCallbackE"
    },
    {
     "mangled_component_name":"_ZN7android8hardware9BHwBinder8transactEjRKNS0_6ParcelEPS2_jNSt3__18functionIFvRS2_EEE"
    },
    {
     "mangled_component_name":"_ZN7android8hardware9BHwBinder11linkToDeathERKNS_2spINS0_7IBinder14DeathRecipientEEEPvj"
    },
    {
     "mangled_component_name":"_ZN7android8hardware9BHwBinder13unlinkToDeathERKNS_2wpINS0_7IBinder14DeathRecipientEEEPvjPS5_"
    },
    {
     "mangled_component_name":"_ZNK7android8hardware7IBinder13checkSubclassEPKv"
    },
    {
     "mangled_component_name":"_ZN7android8hardware9BHwBinder12attachObjectEPKvPvS4_PFvS3_S4_S4_E"
    },
    {
     "mangled_component_name":"_ZNK7android8hardware9BHwBinder10findObjectEPKv"
    },
    {
     "mangled_component_name":"_ZN7android8hardware9BHwBinder12detachObjectEPKv"
    },
    {
     "mangled_component_name":"_ZN7android8hardware9BHwBinder11localBinderEv"
    },
    {
     "mangled_component_name":"_ZN7android8hardware7IBinder12remoteBinderEv"
    },
    {
     "kind":"complete_dtor_pointer",
     "mangled_component_name":"_ZN7android8hardware8graphics8composer4V2_120BnHwComposerCallbackD1Ev"
    },
    {
     "kind":"deleting_dtor_pointer",
     "mangled_component_name":"_ZN7android8hardware8graphics8composer4V2_120BnHwComposerCallbackD0Ev"
    },
    {
     "mangled_component_name":"_ZN7android8hardware8graphics8composer4V2_120BnHwComposerCallback10onTransactEjRKNS0_6ParcelEPS5_jNSt3__18functionIFvRS5_EEE"
    },
    {
     "kind":"offset_to_top",
     "component_value":-20
    },
    {
     "kind":"rtti",
     "mangled_component_name":"_ZTIN7android8hardware8graphics8composer4V2_120BnHwComposerCallbackE"
    },
    {
     "kind":"complete_dtor_pointer",
     "mangled_component_name":"_ZThn20_N7android8hardware8graphics8composer4V2_120BnHwComposerCallbackD1Ev"
    },
    {
     "kind":"deleting_dtor_pointer",
     "mangled_component_name":"_ZThn20_N7android8hardware8graphics8composer4V2_120BnHwComposerCallbackD0Ev"
    },
    {
     "kind":"vcall_offset"
    },
    {
     "kind":"vcall_offset"
    },
    {
     "kind":"vcall_offset"
    },
    {
     "kind":"vcall_offset"
    },
    {
     "kind":"vcall_offset",
     "component_value":-72
    },
    {
     "kind":"offset_to_top",
     "component_value":-72
    },
    {
     "kind":"rtti",
     "mangled_component_name":"_ZTIN7android8hardware8graphics8composer4V2_120BnHwComposerCallbackE"
    },
    {
     "kind":"complete_dtor_pointer",
     "mangled_component_name":"_ZTv0_n12_N7android8hardware8graphics8composer4V2_120BnHwComposerCallbackD1Ev"
    },
    {
     "kind":"deleting_dtor_pointer",
     "mangled_component_name":"_ZTv0_n12_N7android8hardware8graphics8composer4V2_120BnHwComposerCallbackD0Ev"
    },
    {
     "mangled_component_name":"_ZN7android7RefBase10onFirstRefEv"
    },
    {
     "mangled_component_name":"_ZN7android7RefBase15onLastStrongRefEPKv"
    },
    {
     "mangled_component_name":"_ZN7android7RefBase20onIncStrongAttemptedEjPKv"
    },
    {
     "mangled_component_name":"_ZN7android7RefBase13onLastWeakRefEPKv"
    }
   ],
   "unique_id":"_ZTSN7android8hardware8graphics8composer4V2_120BnHwComposerCallbackE"
  },
  {
   "vtable_components":[
    {
     "kind":"vbase_offset",
     "component_value":84
    },
    {
     "kind":"offset_to_top"
    },
    {
     "kind":"rtti",
     "mangled_component_name":"_ZTIN7android8hardware8graphics8composer4V2_120BpHwComposerCallbackE"
    },
    {
     "mangled_component_name":"_ZNK7android8hardware8graphics8composer4V2_120BpHwComposerCallback8isRemoteEv"
    },
    {
     "mangled_component_name":"_ZN7android8hardware8graphics8composer4V2_120BpHwComposerCallback14interfaceChainENSt3__18functionIFvRKNS0_8hidl_vecINS0_11hidl_stringEEEEEE"
    },
    {
     "mangled_component_name":"_ZN7android8hardware8graphics8composer4V2_120BpHwComposerCallback5debugERKNS0_11hidl_handleERKNS0_8hidl_vecINS0_11hidl_stringEEE"
    },
    {
     "mangled_component_name":"_ZN7android8hardware8graphics8composer4V2_120BpHwComposerCallback19interfaceDescriptorENSt3__18functionIFvRKNS0_11hidl_stringEEEE"
    },
    {
     "mangled_component_name":"_ZN7android8hardware8graphics8composer4V2_120BpHwComposerCallback12getHashChainENSt3__18functionIFvRKNS0_8hidl_vecINS0_10hidl_arrayIhLj32EJEEEEEEEE"
    },
    {
     "mangled_component_name":"_ZN7android8hardware8graphics8composer4V2_120BpHwComposerCallback21setHALInstrumentationEv"
    },
    {
     "mangled_component_name":"_ZN7android8hardware8graphics8composer4V2_120BpHwComposerCallback11linkToDeathERKNS_2spINS0_20hidl_death_recipientEEEy"
    },
    {
     "mangled_component_name":"_ZN7android8hardware8graphics8composer4V2_120BpHwComposerCallback4pingEv"
    },
    {
     "mangled_component_name":"_ZN7android8hardware8graphics8composer4V2_120BpHwComposerCallback12getDebugInfoENSt3__18functionIFvRKNS_4hidl4base4V1_09DebugInfoEEEE"
    },
    {
     "mangled_component_name":"_ZN7android8hardware8graphics8composer4V2_120BpHwComposerCallback21notifySyspropsChangedEv"
    },
    {
     "mangled_component_name":"_ZN7android8hardware8graphics8composer4V2_120BpHwComposerCallback13unlinkToDeathERKNS_2spINS0_20hidl_death_recipientEEE"
    },
    {
     "kind":"complete_dtor_pointer",
     "mangled_component_name":"_ZN7android8hardware8graphics8composer4V2_120BpHwComposerCallbackD1Ev"
    },
    {
     "kind":"deleting_dtor_pointer",
     "mangled_component_name":"_ZN7android8hardware8graphics8composer4V2_120BpHwComposerCallbackD0Ev"
    },
    {
     "mangled_component_name":"_ZN7android8hardware8graphics8composer4V2_120BpHwComposerCallback9onHotplugEyNS3_17IComposerCallback10ConnectionE"
    },
    {
     "mangled_component_name":"_ZN7android8hardware8graphics8composer4V2_120BpHwComposerCallback9onRefreshEy"
    },
    {
     "mangled_component_name":"_ZN7android8hardware8graphics8composer4V2_120BpHwComposerCallback7onVsyncEyx"
    },
    {
     "mangled_component_name":"_ZN7android8hardware11BpInterfaceINS0_8graphics8composer4V2_117IComposerCallbackEE10onAsBinderEv"
    },
    {
     "kind":"vbase_offset",
     "component_value":80
    },
    {
     "kind":"offset_to_top",
     "component_value":-4
    },
    {
     "kind":"rtti",
     "mangled_component_name":"_ZTIN7android8hardware8graphics8composer4V2_120BpHwComposerCallbackE"
    },
    {
     "kind":"complete_dtor_pointer",
     "mangled_component_name":"_ZThn4_N7android8hardware8graphics8composer4V2_120BpHwComposerCallbackD1Ev"
    },
    {
     "kind":"deleting_dtor_pointer",
     "mangled_component_name":"_ZThn4_N7android8hardware8graphics8composer4V2_120BpHwComposerCallbackD0Ev"
    },
    {
     "mangled_component_name":"_ZThn4_N7android8hardware11BpInterfaceINS0_8graphics8composer4V2_117IComposerCallbackEE10onAsBinderEv"
    },
    {
     "kind":"vbase_offset",
     "component_value":76
    },
    {
     "kind":"offset_to_top",
     "component_value":-8
    },
    {
     "kind":"rtti",
     "mangled_component_name":"_ZTIN7android8hardware8graphics8composer4V2_120BpHwComposerCallbackE"
    },
    {
     "kind":"complete_dtor_pointer",
     "mangled_component_name":"_ZThn8_N7android8hardware8graphics8composer4V2_120BpHwComposerCallbackD1Ev"
    },
    {
     "kind":"deleting_dtor_pointer",
     "mangled_component_name":"_ZThn8_N7android8hardware8graphics8composer4V2_120BpHwComposerCallbackD0Ev"
    },
    {
     "mangled_component_name":"_ZN7android8hardware11BpHwRefBase10onFirstRefEv"
    },
    {
     "mangled_component_name":"_ZN7android8hardware11BpHwRefBase15onLastStrongRefEPKv"
    },
    {
     "mangled_component_name":"_ZN7android8hardware11BpHwRefBase20onIncStrongAttemptedEjPKv"
    },
    {
     "kind":"offset_to_top",
     "component_value":-24
    },
    {
     "kind":"rtti",
     "mangled_component_name":"_ZTIN7android8hardware8graphics8composer4V2_120BpHwComposerCallbackE"
    },
    {
     "kind":"complete_dtor_pointer",
     "mangled_component_name":"_ZThn24_N7android8hardware8graphics8composer4V2_120BpHwComposerCallbackD1Ev"
    },
    {
     "kind":"deleting_dtor_pointer",
     "mangled_component_name":"_ZThn24_N7android8hardware8graphics8composer4V2_120BpHwComposerCallbackD0Ev"
    },
    {
     "kind":"vcall_offset"
    },
    {
     "kind":"vcall_offset",
     "component_value":-76
    },
    {
     "kind":"vcall_offset",
     "component_value":-76
    },
    {
     "kind":"vcall_offset",
     "component_value":-76
    },
    {
     "kind":"vcall_offset",
     "component_value":-84
    },
    {
     "kind":"offset_to_top",
     "component_value":-84
    },
    {
     "kind":"rtti",
     "mangled_component_name":"_ZTIN7android8hardware8graphics8composer4V2_120BpHwComposerCallbackE"
    },
    {
     "kind":"complete_dtor_pointer",
     "mangled_component_name":"_ZTv0_n12_N7android8hardware8graphics8composer4V2_120BpHwComposerCallbackD1Ev"
    },
    {
     "kind":"deleting_dtor_pointer",
     "mangled_component_name":"_ZTv0_n12_N7android8hardware8graphics8composer4V2_120BpHwComposerCallbackD0Ev"
    },
    {
     "mangled_component_name":"_ZTv0_n16_N7android8hardware11BpHwRefBase10onFirstRefEv"
    },
    {
     "mangled_component_name":"_ZTv0_n20_N7android8hardware11BpHwRefBase15onLastStrongRefEPKv"
    },
    {
     "mangled_component_name":"_ZTv0_n24_N7android8hardware11BpHwRefBase20onIncStrongAttemptedEjPKv"
    },
    {
     "mangled_component_name":"_ZN7android7RefBase13onLastWeakRefEPKv"
    }
   ],
   "unique_id":"_ZTSN7android8hardware8graphics8composer4V2_120BpHwComposerCallbackE"
  },
  {
   "vtable_components":[
    {
     "kind":"vbase_offset",
     "component_value":60
    },
    {
     "kind":"offset_to_top"
    },
    {
     "kind":"rtti",
     "mangled_component_name":"_ZTIN7android8hardware8graphics8composer4V2_110BsComposerE"
    },
    {
     "mangled_component_name":"_ZNK7android8hardware8graphics8composer4V2_19IComposer8isRemoteEv"
    },
    {
     "mangled_component_name":"_ZN7android8hardware8graphics8composer4V2_110BsComposer14interfaceChainENSt3__18functionIFvRKNS0_8hidl_vecINS0_11hidl_stringEEEEEE"
    },
    {
     "mangled_component_name":"_ZN7android8hardware8graphics8composer4V2_110BsComposer5debugERKNS0_11hidl_handleERKNS0_8hidl_vecINS0_11hidl_stringEEE"
    },
    {
     "mangled_component_name":"_ZN7android8hardware8graphics8composer4V2_110BsComposer19interfaceDescriptorENSt3__18functionIFvRKNS0_11hidl_stringEEEE"
    },
    {
     "mangled_component_name":"_ZN7android8hardware8graphics8composer4V2_110BsComposer12getHashChainENSt3__18functionIFvRKNS0_8hidl_vecINS0_10hidl_arrayIhLj32EJEEEEEEEE"
    },
    {
     "mangled_component_name":"_ZN7android8hardware8graphics8composer4V2_110BsComposer21setHALInstrumentationEv"
    },
    {
     "mangled_component_name":"_ZN7android8hardware8graphics8composer4V2_110BsComposer11linkToDeathERKNS_2spINS0_20hidl_death_recipientEEEy"
    },
    {
     "mangled_component_name":"_ZN7android8hardware8graphics8composer4V2_110BsComposer4pingEv"
    },
    {
     "mangled_component_name":"_ZN7android8hardware8graphics8composer4V2_110BsComposer12getDebugInfoENSt3__18functionIFvRKNS_4hidl4base4V1_09DebugInfoEEEE"
    },
    {
     "mangled_component_name":"_ZN7android8hardware8graphics8composer4V2_110BsComposer21notifySyspropsChangedEv"
    },
    {
     "mangled_component_name":"_ZN7android8hardware8graphics8composer4V2_110BsComposer13unlinkToDeathERKNS_2spINS0_20hidl_death_recipientEEE"
    },
    {
     "kind":"complete_dtor_pointer",
     "mangled_component_name":"_ZN7android8hardware8graphics8composer4V2_110BsComposerD1Ev"
    },
    {
     "kind":"deleting_dtor_pointer",
     "mangled_component_name":"_ZN7android8hardware8graphics8composer4V2_110BsComposerD0Ev"
    },
    {
     "mangled_component_name":"_ZN7android8hardware8graphics8composer4V2_110BsComposer15getCapabilitiesENSt3__18functionIFvRKNS0_8hidl_vecINS3_9IComposer10CapabilityEEEEEE"
    },
    {
     "mangled_component_name":"_ZN7android8hardware8graphics8composer4V2_110BsComposer13dumpDebugInfoENSt3__18functionIFvRKNS0_11hidl_stringEEEE"
    },
    {
     "mangled_component_name":"_ZN7android8hardware8graphics8composer4V2_110BsComposer12createClientENSt3__18functionIFvNS3_5ErrorERKNS_2spINS3_15IComposerClientEEEEEE"
    },
    {
     "kind":"offset_to_top",
     "component_value":-4
    },
    {
     "kind":"rtti",
     "mangled_component_name":"_ZTIN7android8hardware8graphics8composer4V2_110BsComposerE"
    },
    {
     "kind":"complete_dtor_pointer",
     "mangled_component_name":"_ZThn4_N7android8hardware8graphics8composer4V2_110BsComposerD1Ev"
    },
    {
     "kind":"deleting_dtor_pointer",
     "mangled_component_name":"_ZThn4_N7android8hardware8graphics8composer4V2_110BsComposerD0Ev"
    },
    {
     "kind":"vcall_offset"
    },
    {
     "kind":"vcall_offset"
    },
    {
     "kind":"vcall_offset"
    },
    {
     "kind":"vcall_offset"
    },
    {
     "kind":"vcall_offset",
     "component_value":-60
    },
    {
     "kind":"offset_to_top",
     "component_value":-60
    },
    {
     "kind":"rtti",
     "mangled_component_name":"_ZTIN7android8hardware8graphics8composer4V2_110BsComposerE"
    },
    {
     "kind":"complete_dtor_pointer",
     "mangled_component_name":"_ZTv0_n12_N7android8hardware8graphics8composer4V2_110BsComposerD1Ev"
    },
    {
     "kind":"deleting_dtor_pointer",
     "mangled_component_name":"_ZTv0_n12_N7android8hardware8graphics8composer4V2_110BsComposerD0Ev"
    },
    {
     "mangled_component_name":"_ZN7android7RefBase10onFirstRefEv"
    },
    {
     "mangled_component_name":"_ZN7android7RefBase15onLastStrongRefEPKv"
    },
    {
     "mangled_component_name":"_ZN7android7RefBase20onIncStrongAttemptedEjPKv"
    },
    {
     "mangled_component_name":"_ZN7android7RefBase13onLastWeakRefEPKv"
    }
   ],
   "unique_id":"_ZTSN7android8hardware8graphics8composer4V2_110BsComposerE"
  },
  {
   "vtable_components":[
    {
     "kind":"vbase_offset",
     "component_value":84
    },
    {
     "kind":"offset_to_top"
    },
    {
     "kind":"rtti",
     "mangled_component_name":"_ZTIN7android8hardware8graphics8composer4V2_112BpHwComposerE"
    },
    {
     "mangled_component_name":"_ZNK7android8hardware8graphics8composer4V2_112BpHwComposer8isRemoteEv"
    },
    {
     "mangled_component_name":"_ZN7android8hardware8graphics8composer4V2_112BpHwComposer14interfaceChainENSt3__18functionIFvRKNS0_8hidl_vecINS0_11hidl_stringEEEEEE"
    },
    {
     "mangled_component_name":"_ZN7android8hardware8graphics8composer4V2_112BpHwComposer5debugERKNS0_11hidl_handleERKNS0_8hidl_vecINS0_11hidl_stringEEE"
    },
    {
     "mangled_component_name":"_ZN7android8hardware8graphics8composer4V2_112BpHwComposer19interfaceDescriptorENSt3__18functionIFvRKNS0_11hidl_stringEEEE"
    },
    {
     "mangled_component_name":"_ZN7android8hardware8graphics8composer4V2_112BpHwComposer12getHashChainENSt3__18functionIFvRKNS0_8hidl_vecINS0_10hidl_arrayIhLj32EJEEEEEEEE"
    },
    {
     "mangled_component_name":"_ZN7android8hardware8graphics8composer4V2_112BpHwComposer21setHALInstrumentationEv"
    },
    {
     "mangled_component_name":"_ZN7android8hardware8graphics8composer4V2_112BpHwComposer11linkToDeathERKNS_2spINS0_20hidl_death_recipientEEEy"
    },
    {
     "mangled_component_name":"_ZN7android8hardware8graphics8composer4V2_112BpHwComposer4pingEv"
    },
    {
     "mangled_component_name":"_ZN7android8hardware8graphics8composer4V2_112BpHwComposer12getDebugInfoENSt3__18functionIFvRKNS_4hidl4base4V1_09DebugInfoEEEE"
    },
    {
     "mangled_component_name":"_ZN7android8hardware8graphics8composer4V2_112BpHwComposer21notifySyspropsChangedEv"
    },
    {
     "mangled_component_name":"_ZN7android8hardware8graphics8composer4V2_112BpHwComposer13unlinkToDeathERKNS_2spINS0_20hidl_death_recipientEEE"
    },
    {
     "kind":"complete_dtor_pointer",
     "mangled_component_name":"_ZN7android8hardware8graphics8composer4V2_112BpHwComposerD1Ev"
    },
    {
     "kind":"deleting_dtor_pointer",
     "mangled_component_name":"_ZN7android8hardware8graphics8composer4V2_112BpHwComposerD0Ev"
    },
    {
     "mangled_component_name":"_ZN7android8hardware8graphics8composer4V2_112BpHwComposer15getCapabilitiesENSt3__18functionIFvRKNS0_8hidl_vecINS3_9IComposer10CapabilityEEEEEE"
    },
    {
     "mangled_component_name":"_ZN7android8hardware8graphics8composer4V2_112BpHwComposer13dumpDebugInfoENSt3__18functionIFvRKNS0_11hidl_stringEEEE"
    },
    {
     "mangled_component_name":"_ZN7android8hardware8graphics8composer4V2_112BpHwComposer12createClientENSt3__18functionIFvNS3_5ErrorERKNS_2spINS3_15IComposerClientEEEEEE"
    },
    {
     "mangled_component_name":"_ZN7android8hardware11BpInterfaceINS0_8graphics8composer4V2_19IComposerEE10onAsBinderEv"
    },
    {
     "kind":"vbase_offset",
     "component_value":80
    },
    {
     "kind":"offset_to_top",
     "component_value":-4
    },
    {
     "kind":"rtti",
     "mangled_component_name":"_ZTIN7android8hardware8graphics8composer4V2_112BpHwComposerE"
    },
    {
     "kind":"complete_dtor_pointer",
     "mangled_component_name":"_ZThn4_N7android8hardware8graphics8composer4V2_112BpHwComposerD1Ev"
    },
    {
     "kind":"deleting_dtor_pointer",
     "mangled_component_name":"_ZThn4_N7android8hardware8graphics8composer4V2_112BpHwComposerD0Ev"
    },
    {
     "mangled_component_name":"_ZThn4_N7android8hardware11BpInterfaceINS0_8graphics8composer4V2_19IComposerEE10onAsBinderEv"
    },
    {
     "kind":"vbase_offset",
     "component_value":76
    },
    {
     "kind":"offset_to_top",
     "component_value":-8
    },
    {
     "kind":"rtti",
     "mangled_component_name":"_ZTIN7android8hardware8graphics8composer4V2_112BpHwComposerE"
    },
    {
     "kind":"complete_dtor_pointer",
     "mangled_component_name":"_ZThn8_N7android8hardware8graphics8composer4V2_112BpHwComposerD1Ev"
    },
    {
     "kind":"deleting_dtor_pointer",
     "mangled_component_name":"_ZThn8_N7android8hardware8graphics8composer4V2_112BpHwComposerD0Ev"
    },
    {
     "mangled_component_name":"_ZN7android8hardware11BpHwRefBase10onFirstRefEv"
    },
    {
     "mangled_component_name":"_ZN7android8hardware11BpHwRefBase15onLastStrongRefEPKv"
    },
    {
     "mangled_component_name":"_ZN7android8hardware11BpHwRefBase20onIncStrongAttemptedEjPKv"
    },
    {
     "kind":"offset_to_top",
     "component_value":-24
    },
    {
     "kind":"rtti",
     "mangled_component_name":"_ZTIN7android8hardware8graphics8composer4V2_112BpHwComposerE"
    },
    {
     "kind":"complete_dtor_pointer",
     "mangled_component_name":"_ZThn24_N7android8hardware8graphics8composer4V2_112BpHwComposerD1Ev"
    },
    {
     "kind":"deleting_dtor_pointer",
     "mangled_component_name":"_ZThn24_N7android8hardware8graphics8composer4V2_112BpHwComposerD0Ev"
    },
    {
     "kind":"vcall_offset"
    },
    {
     "kind":"vcall_offset",
     "component_value":-76
    },
    {
     "kind":"vcall_offset",
     "component_value":-76
    },
    {
     "kind":"vcall_offset",
     "component_value":-76
    },
    {
     "kind":"vcall_offset",
     "component_value":-84
    },
    {
     "kind":"offset_to_top",
     "component_value":-84
    },
    {
     "kind":"rtti",
     "mangled_component_name":"_ZTIN7android8hardware8graphics8composer4V2_112BpHwComposerE"
    },
    {
     "kind":"complete_dtor_pointer",
     "mangled_component_name":"_ZTv0_n12_N7android8hardware8graphics8composer4V2_112BpHwComposerD1Ev"
    },
    {
     "kind":"deleting_dtor_pointer",
     "mangled_component_name":"_ZTv0_n12_N7android8hardware8graphics8composer4V2_112BpHwComposerD0Ev"
    },
    {
     "mangled_component_name":"_ZTv0_n16_N7android8hardware11BpHwRefBase10onFirstRefEv"
    },
    {
     "mangled_component_name":"_ZTv0_n20_N7android8hardware11BpHwRefBase15onLastStrongRefEPKv"
    },
    {
     "mangled_component_name":"_ZTv0_n24_N7android8hardware11BpHwRefBase20onIncStrongAttemptedEjPKv"
    },
    {
     "mangled_component_name":"_ZN7android7RefBase13onLastWeakRefEPKv"
    }
   ],
   "unique_id":"_ZTSN7android8hardware8graphics8composer4V2_112BpHwComposerE"
  },
  {
   "vtable_components":[
    {
     "kind":"vbase_offset",
     "component_value":60
    },
    {
     "kind":"offset_to_top"
    },
    {
     "kind":"rtti",
     "mangled_component_name":"_ZTIN7android8hardware8graphics8composer4V2_118BsComposerCallbackE"
    },
    {
     "mangled_component_name":"_ZNK7android8hardware8graphics8composer4V2_117IComposerCallback8isRemoteEv"
    },
    {
     "mangled_component_name":"_ZN7android8hardware8graphics8composer4V2_118BsComposerCallback14interfaceChainENSt3__18functionIFvRKNS0_8hidl_vecINS0_11hidl_stringEEEEEE"
    },
    {
     "mangled_component_name":"_ZN7android8hardware8graphics8composer4V2_118BsComposerCallback5debugERKNS0_11hidl_handleERKNS0_8hidl_vecINS0_11hidl_stringEEE"
    },
    {
     "mangled_component_name":"_ZN7android8hardware8graphics8composer4V2_118BsComposerCallback19interfaceDescriptorENSt3__18functionIFvRKNS0_11hidl_stringEEEE"
    },
    {
     "mangled_component_name":"_ZN7android8hardware8graphics8composer4V2_118BsComposerCallback12getHashChainENSt3__18functionIFvRKNS0_8hidl_vecINS0_10hidl_arrayIhLj32EJEEEEEEEE"
    },
    {
     "mangled_component_name":"_ZN7android8hardware8graphics8composer4V2_118BsComposerCallback21setHALInstrumentationEv"
    },
    {
     "mangled_component_name":"_ZN7android8hardware8graphics8composer4V2_118BsComposerCallback11linkToDeathERKNS_2spINS0_20hidl_death_recipientEEEy"
    },
    {
     "mangled_component_name":"_ZN7android8hardware8graphics8composer4V2_118BsComposerCallback4pingEv"
    },
    {
     "mangled_component_name":"_ZN7android8hardware8graphics8composer4V2_118BsComposerCallback12getDebugInfoENSt3__18functionIFvRKNS_4hidl4base4V1_09DebugInfoEEEE"
    },
    {
     "mangled_component_name":"_ZN7android8hardware8graphics8composer4V2_118BsComposerCallback21notifySyspropsChangedEv"
    },
    {
     "mangled_component_name":"_ZN7android8hardware8graphics8composer4V2_118BsComposerCallback13unlinkToDeathERKNS_2spINS0_20hidl_death_recipientEEE"
    },
    {
     "kind":"complete_dtor_pointer",
     "mangled_component_name":"_ZN7android8hardware8graphics8composer4V2_118BsComposerCallbackD1Ev"
    },
    {
     "kind":"deleting_dtor_pointer",
     "mangled_component_name":"_ZN7android8hardware8graphics8composer4V2_118BsComposerCallbackD0Ev"
    },
    {
     "mangled_component_name":"_ZN7android8hardware8graphics8composer4V2_118BsComposerCallback9onHotplugEyNS3_17IComposerCallback10ConnectionE"
    },
    {
     "mangled_component_name":"_ZN7android8hardware8graphics8composer4V2_118BsComposerCallback9onRefreshEy"
    },
    {
     "mangled_component_name":"_ZN7android8hardware8graphics8composer4V2_118BsComposerCallback7onVsyncEyx"
    },
    {
     "kind":"offset_to_top",
     "component_value":-4
    },
    {
     "kind":"rtti",
     "mangled_component_name":"_ZTIN7android8hardware8graphics8composer4V2_118BsComposerCallbackE"
    },
    {
     "kind":"complete_dtor_pointer",
     "mangled_component_name":"_ZThn4_N7android8hardware8graphics8composer4V2_118BsComposerCallbackD1Ev"
    },
    {
     "kind":"deleting_dtor_pointer",
     "mangled_component_name":"_ZThn4_N7android8hardware8graphics8composer4V2_118BsComposerCallbackD0Ev"
    },
    {
     "kind":"vcall_offset"
    },
    {
     "kind":"vcall_offset"
    },
    {
     "kind":"vcall_offset"
    },
    {
     "kind":"vcall_offset"
    },
    {
     "kind":"vcall_offset",
     "component_value":-60
    },
    {
     "kind":"offset_to_top",
     "component_value":-60
    },
    {
     "kind":"rtti",
     "mangled_component_name":"_ZTIN7android8hardware8graphics8composer4V2_118BsComposerCallbackE"
    },
    {
     "kind":"complete_dtor_pointer",
     "mangled_component_name":"_ZTv0_n12_N7android8hardware8graphics8composer4V2_118BsComposerCallbackD1Ev"
    },
    {
     "kind":"deleting_dtor_pointer",
     "mangled_component_name":"_ZTv0_n12_N7android8hardware8graphics8composer4V2_118BsComposerCallbackD0Ev"
    },
    {
     "mangled_component_name":"_ZN7android7RefBase10onFirstRefEv"
    },
    {
     "mangled_component_name":"_ZN7android7RefBase15onLastStrongRefEPKv"
    },
    {
     "mangled_component_name":"_ZN7android7RefBase20onIncStrongAttemptedEjPKv"
    },
    {
     "mangled_component_name":"_ZN7android7RefBase13onLastWeakRefEPKv"
    }
   ],
   "unique_id":"_ZTSN7android8hardware8graphics8composer4V2_118BsComposerCallbackE"
  }
 ],
 "elf_functions":[
  {
   "binding":"weak",
   "name":"_ZN7android8hardware10fromBinderINS0_8graphics8composer4V2_115IComposerClientENS4_18BpHwComposerClientENS4_18BnHwComposerClientEEENS_2spIT_EERKNS8_INS0_7IBinderEEE"
  },
  {
   "binding":"weak",
   "name":"_ZN7android8hardware10fromBinderINS0_8graphics8composer4V2_117IComposerCallbackENS4_20BpHwComposerCallbackENS4_20BnHwComposerCallbackEEENS_2spIT_EERKNS8_INS0_7IBinderEEE"
  },
  {
   "binding":"weak",
   "name":"_ZN7android8hardware7details13castInterfaceINS0_8graphics8composer4V2_115IComposerClientENS_4hidl4base4V1_05IBaseENS5_18BpHwComposerClientEEENS0_6ReturnINS_2spIT_EEEENSD_IT0_EEPKcb"
  },
  {
   "binding":"weak",
   "name":"_ZN7android8hardware7details13castInterfaceINS0_8graphics8composer4V2_117IComposerCallbackENS_4hidl4base4V1_05IBaseENS5_20BpHwComposerCallbackEEENS0_6ReturnINS_2spIT_EEEENSD_IT0_EEPKcb"
  },
  {
   "binding":"weak",
   "name":"_ZN7android8hardware7details13castInterfaceINS0_8graphics8composer4V2_19IComposerENS_4hidl4base4V1_05IBaseENS5_12BpHwComposerEEENS0_6ReturnINS_2spIT_EEEENSD_IT0_EEPKcb"
  },
  {
   "binding":"weak",
   "name":"_ZN7android8hardware7details15wrapPassthroughINS0_8graphics8composer4V2_115IComposerClientEvEENS_2spIT_EES9_"
  },
  {
   "binding":"weak",
   "name":"_ZN7android8hardware7details15wrapPassthroughINS0_8graphics8composer4V2_117IComposerCallbackEvEENS_2spIT_EES9_"
  },
  {
   "binding":"weak",
   "name":"_ZN7android8hardware7details18getServiceInternalINS0_8graphics8composer4V2_112BpHwComposerENS5_9IComposerEvvEENS_2spIT0_EERKNSt3__112basic_stringIcNSB_11char_traitsIcEENSB_9allocatorIcEEEEbb"
  },
  {
   "binding":"weak",
   "name":"_ZN7android8hardware7details18getServiceInternalINS0_8graphics8composer4V2_118BpHwComposerClientENS5_15IComposerClientEvvEENS_2spIT0_EERKNSt3__112basic_stringIcNSB_11char_traitsIcEENSB_9allocatorIcEEEEbb"
  },
  {
   "binding":"weak",
   "name":"_ZN7android8hardware7details18getServiceInternalINS0_8graphics8composer4V2_120BpHwComposerCallbackENS5_17IComposerCallbackEvvEENS_2spIT0_EERKNSt3__112basic_stringIcNSB_11char_traitsIcEENSB_9allocatorIcEEEEbb"
  },
  {
   "name":"_ZN7android8hardware8graphics8composer4V2_110BsComposer13addOnewayTaskENSt3__18functionIFvvEEE"
  },
  {
   "name":"_ZN7android8hardware8graphics8composer4V2_110BsComposerC1ENS_2spINS3_9IComposerEEE"
  },
  {
   "name":"_ZN7android8hardware8graphics8composer4V2_110BsComposerC2ENS_2spINS3_9IComposerEEE"
  },
  {
   "name":"_ZN7android8hardware8graphics8composer4V2_112BnHwComposer10onTransactEjRKNS0_6ParcelEPS5_jNSt3__18functionIFvRS5_EEE"
  },
  {
   "name":"_ZN7android8hardware8graphics8composer4V2_112BnHwComposer12getDebugInfoENSt3__18functionIFvRKNS_4hidl4base4V1_09DebugInfoEEEE"
  },
  {
   "name":"_ZN7android8hardware8graphics8composer4V2_112BnHwComposer18_hidl_createClientEPNS_4hidl4base4V1_08BnHwBaseERKNS0_6ParcelEPSA_NSt3__18functionIFvRSA_EEE"
  },
  {
   "name":"_ZN7android8hardware8graphics8composer4V2_112BnHwComposer19_hidl_dumpDebugInfoEPNS_4hidl4base4V1_08BnHwBaseERKNS0_6ParcelEPSA_NSt3__18functionIFvRSA_EEE"
  },
  {
   "name":"_ZN7android8hardware8graphics8composer4V2_112BnHwComposer21_hidl_getCapabilitiesEPNS_4hidl4base4V1_08BnHwBaseERKNS0_6ParcelEPSA_NSt3__18functionIFvRSA_EEE"
  },
  {
   "name":"_ZN7android8hardware8graphics8composer4V2_112BnHwComposer4pingEv"
  },
  {
   "name":"_ZN7android8hardware8graphics8composer4V2_112BnHwComposerC1ERKNS_2spINS3_9IComposerEEE"
  },
  {
   "name":"_ZN7android8hardware8graphics8composer4V2_112BnHwComposerC2ERKNS_2spINS3_9IComposerEEE"
  },
  {
   "name":"_ZN7android8hardware8graphics8composer4V2_112BnHwComposerD0Ev"
  },
  {
   "name":"_ZN7android8hardware8graphics8composer4V2_112BnHwComposerD1Ev"
  },
  {
   "name":"_ZN7android8hardware8graphics8composer4V2_112BnHwComposerD2Ev"
  },
  {
   "name":"_ZN7android8hardware8graphics8composer4V2_112BpHwComposer11linkToDeathERKNS_2spINS0_20hidl_death_recipientEEEy"
  },
  {
   "name":"_ZN7android8hardware8graphics8composer4V2_112BpHwComposer12createClientENSt3__18functionIFvNS3_5ErrorERKNS_2spINS3_15IComposerClientEEEEEE"
  },
  {
   "name":"_ZN7android8hardware8graphics8composer4V2_112BpHwComposer12getDebugInfoENSt3__18functionIFvRKNS_4hidl4base4V1_09DebugInfoEEEE"
  },
  {
   "name":"_ZN7android8hardware8graphics8composer4V2_112BpHwComposer12getHashChainENSt3__18functionIFvRKNS0_8hidl_vecINS0_10hidl_arrayIhLj32EJEEEEEEEE"
  },
  {
   "name":"_ZN7android8hardware8graphics8composer4V2_112BpHwComposer13dumpDebugInfoENSt3__18functionIFvRKNS0_11hidl_stringEEEE"
  },
  {
   "name":"_ZN7android8hardware8graphics8composer4V2_112BpHwComposer13unlinkToDeathERKNS_2spINS0_20hidl_death_recipientEEE"
  },
  {
   "name":"_ZN7android8hardware8graphics8composer4V2_112BpHwComposer14interfaceChainENSt3__18functionIFvRKNS0_8hidl_vecINS0_11hidl_stringEEEEEE"
  },
  {
   "name":"_ZN7android8hardware8graphics8composer4V2_112BpHwComposer15getCapabilitiesENSt3__18functionIFvRKNS0_8hidl_vecINS3_9IComposer10CapabilityEEEEEE"
  },
  {
   "name":"_ZN7android8hardware8graphics8composer4V2_112BpHwComposer18_hidl_createClientEPNS0_10IInterfaceEPNS0_7details16HidlInstrumentorENSt3__18functionIFvNS3_5ErrorERKNS_2spINS3_15IComposerClientEEEEEE"
  },
  {
   "name":"_ZN7android8hardware8graphics8composer4V2_112BpHwComposer19_hidl_dumpDebugInfoEPNS0_10IInterfaceEPNS0_7details16HidlInstrumentorENSt3__18functionIFvRKNS0_11hidl_stringEEEE"
  },
  {
   "name":"_ZN7android8hardware8graphics8composer4V2_112BpHwComposer19interfaceDescriptorENSt3__18functionIFvRKNS0_11hidl_stringEEEE"
  },
  {
   "name":"_ZN7android8hardware8graphics8composer4V2_112BpHwComposer21_hidl_getCapabilitiesEPNS0_10IInterfaceEPNS0_7details16HidlInstrumentorENSt3__18functionIFvRKNS0_8hidl_vecINS3_9IComposer10CapabilityEEEEEE"
  },
  {
   "name":"_ZN7android8hardware8graphics8composer4V2_112BpHwComposer21notifySyspropsChangedEv"
  },
  {
   "name":"_ZN7android8hardware8graphics8composer4V2_112BpHwComposer21setHALInstrumentationEv"
  },
  {
   "name":"_ZN7android8hardware8graphics8composer4V2_112BpHwComposer4pingEv"
  },
  {
   "name":"_ZN7android8hardware8graphics8composer4V2_112BpHwComposer5debugERKNS0_11hidl_handleERKNS0_8hidl_vecINS0_11hidl_stringEEE"
  },
  {
   "name":"_ZN7android8hardware8graphics8composer4V2_112BpHwComposerC1ERKNS_2spINS0_7IBinderEEE"
  },
  {
   "name":"_ZN7android8hardware8graphics8composer4V2_112BpHwComposerC2ERKNS_2spINS0_7IBinderEEE"
  },
  {
   "name":"_ZN7android8hardware8graphics8composer4V2_115IComposerClient10getServiceERKNSt3__112basic_stringIcNS5_11char_traitsIcEENS5_9allocatorIcEEEEb"
  },
  {
   "name":"_ZN7android8hardware8graphics8composer4V2_115IComposerClient11linkToDeathERKNS_2spINS0_20hidl_death_recipientEEEy"
  },
  {
   "name":"_ZN7android8hardware8graphics8composer4V2_115IComposerClient12getDebugInfoENSt3__18functionIFvRKNS_4hidl4base4V1_09DebugInfoEEEE"
  },
  {
   "name":"_ZN7android8hardware8graphics8composer4V2_115IComposerClient12getHashChainENSt3__18functionIFvRKNS0_8hidl_vecINS0_10hidl_arrayIhLj32EJEEEEEEEE"
  },
  {
   "name":"_ZN7android8hardware8graphics8composer4V2_115IComposerClient13tryGetServiceERKNSt3__112basic_stringIcNS5_11char_traitsIcEENS5_9allocatorIcEEEEb"
  },
  {
   "name":"_ZN7android8hardware8graphics8composer4V2_115IComposerClient13unlinkToDeathERKNS_2spINS0_20hidl_death_recipientEEE"
  },
  {
   "name":"_ZN7android8hardware8graphics8composer4V2_115IComposerClient14interfaceChainENSt3__18functionIFvRKNS0_8hidl_vecINS0_11hidl_stringEEEEEE"
  },
  {
   "name":"_ZN7android8hardware8graphics8composer4V2_115IComposerClient17registerAsServiceERKNSt3__112basic_stringIcNS5_11char_traitsIcEENS5_9allocatorIcEEEE"
  },
  {
   "name":"_ZN7android8hardware8graphics8composer4V2_115IComposerClient19interfaceDescriptorENSt3__18functionIFvRKNS0_11hidl_stringEEEE"
  },
  {
   "name":"_ZN7android8hardware8graphics8composer4V2_115IComposerClient21notifySyspropsChangedEv"
  },
  {
   "name":"_ZN7android8hardware8graphics8composer4V2_115IComposerClient21setHALInstrumentationEv"
  },
  {
   "name":"_ZN7android8hardware8graphics8composer4V2_115IComposerClient24registerForNotificationsERKNSt3__112basic_stringIcNS5_11char_traitsIcEENS5_9allocatorIcEEEERKNS_2spINS_4hidl7manager4V1_020IServiceNotificationEEE"
  },
  {
   "name":"_ZN7android8hardware8graphics8composer4V2_115IComposerClient4pingEv"
  },
  {
   "name":"_ZN7android8hardware8graphics8composer4V2_115IComposerClient5debugERKNS0_11hidl_handleERKNS0_8hidl_vecINS0_11hidl_stringEEE"
  },
  {
   "name":"_ZN7android8hardware8graphics8composer4V2_115IComposerClient8castFromERKNS_2spINS_4hidl4base4V1_05IBaseEEEb"
  },
  {
   "name":"_ZN7android8hardware8graphics8composer4V2_115IComposerClient8castFromERKNS_2spIS4_EEb"
  },
  {
   "name":"_ZN7android8hardware8graphics8composer4V2_116BsComposerClient13addOnewayTaskENSt3__18functionIFvvEEE"
  },
  {
   "name":"_ZN7android8hardware8graphics8composer4V2_116BsComposerClientC1ENS_2spINS3_15IComposerClientEEE"
  },
  {
   "name":"_ZN7android8hardware8graphics8composer4V2_116BsComposerClientC2ENS_2spINS3_15IComposerClientEEE"
  },
  {
   "name":"_ZN7android8hardware8graphics8composer4V2_117IComposerCallback10getServiceERKNSt3__112basic_stringIcNS5_11char_traitsIcEENS5_9allocatorIcEEEEb"
  },
  {
   "name":"_ZN7android8hardware8graphics8composer4V2_117IComposerCallback11linkToDeathERKNS_2spINS0_20hidl_death_recipientEEEy"
  },
  {
   "name":"_ZN7android8hardware8graphics8composer4V2_117IComposerCallback12getDebugInfoENSt3__18functionIFvRKNS_4hidl4base4V1_09DebugInfoEEEE"
  },
  {
   "name":"_ZN7android8hardware8graphics8composer4V2_117IComposerCallback12getHashChainENSt3__18functionIFvRKNS0_8hidl_vecINS0_10hidl_arrayIhLj32EJEEEEEEEE"
  },
  {
   "name":"_ZN7android8hardware8graphics8composer4V2_117IComposerCallback13tryGetServiceERKNSt3__112basic_stringIcNS5_11char_traitsIcEENS5_9allocatorIcEEEEb"
  },
  {
   "name":"_ZN7android8hardware8graphics8composer4V2_117IComposerCallback13unlinkToDeathERKNS_2spINS0_20hidl_death_recipientEEE"
  },
  {
   "name":"_ZN7android8hardware8graphics8composer4V2_117IComposerCallback14interfaceChainENSt3__18functionIFvRKNS0_8hidl_vecINS0_11hidl_stringEEEEEE"
  },
  {
   "name":"_ZN7android8hardware8graphics8composer4V2_117IComposerCallback17registerAsServiceERKNSt3__112basic_stringIcNS5_11char_traitsIcEENS5_9allocatorIcEEEE"
  },
  {
   "name":"_ZN7android8hardware8graphics8composer4V2_117IComposerCallback19interfaceDescriptorENSt3__18functionIFvRKNS0_11hidl_stringEEEE"
  },
  {
   "name":"_ZN7android8hardware8graphics8composer4V2_117IComposerCallback21notifySyspropsChangedEv"
  },
  {
   "name":"_ZN7android8hardware8graphics8composer4V2_117IComposerCallback21setHALInstrumentationEv"
  },
  {
   "name":"_ZN7android8hardware8graphics8composer4V2_117IComposerCallback24registerForNotificationsERKNSt3__112basic_stringIcNS5_11char_traitsIcEENS5_9allocatorIcEEEERKNS_2spINS_4hidl7manager4V1_020IServiceNotificationEEE"
  },
  {
   "name":"_ZN7android8hardware8graphics8composer4V2_117IComposerCallback4pingEv"
  },
  {
   "name":"_ZN7android8hardware8graphics8composer4V2_117IComposerCallback5debugERKNS0_11hidl_handleERKNS0_8hidl_vecINS0_11hidl_stringEEE"
  },
  {
   "name":"_ZN7android8hardware8graphics8composer4V2_117IComposerCallback8castFromERKNS_2spINS_4hidl4base4V1_05IBaseEEEb"
  },
  {
   "name":"_ZN7android8hardware8graphics8composer4V2_117IComposerCallback8castFromERKNS_2spIS4_EEb"
  },
  {
   "name":"_ZN7android8hardware8graphics8composer4V2_118BnHwComposerClient10onTransactEjRKNS0_6ParcelEPS5_jNSt3__18functionIFvRS5_EEE"
  },
  {
   "name":"_ZN7android8hardware8graphics8composer4V2_118BnHwComposerClient12getDebugInfoENSt3__18functionIFvRKNS_4hidl4base4V1_09DebugInfoEEEE"
  },
  {
   "name":"_ZN7android8hardware8graphics8composer4V2_118BnHwComposerClient17_hidl_createLayerEPNS_4hidl4base4V1_08BnHwBaseERKNS0_6ParcelEPSA_NSt3__18functionIFvRSA_EEE"
  },
  {
   "name":"_ZN7android8hardware8graphics8composer4V2_118BnHwComposerClient18_hidl_destroyLayerEPNS_4hidl4base4V1_08BnHwBaseERKNS0_6ParcelEPSA_NSt3__18functionIFvRSA_EEE"
  },
  {
   "name":"_ZN7android8hardware8graphics8composer4V2_118BnHwComposerClient18_hidl_setColorModeEPNS_4hidl4base4V1_08BnHwBaseERKNS0_6ParcelEPSA_NSt3__18functionIFvRSA_EEE"
  },
  {
   "name":"_ZN7android8hardware8graphics8composer4V2_118BnHwComposerClient18_hidl_setPowerModeEPNS_4hidl4base4V1_08BnHwBaseERKNS0_6ParcelEPSA_NSt3__18functionIFvRSA_EEE"
  },
  {
   "name":"_ZN7android8hardware8graphics8composer4V2_118BnHwComposerClient19_hidl_getColorModesEPNS_4hidl4base4V1_08BnHwBaseERKNS0_6ParcelEPSA_NSt3__18functionIFvRSA_EEE"
  },
  {
   "name":"_ZN7android8hardware8graphics8composer4V2_118BnHwComposerClient20_hidl_getDisplayNameEPNS_4hidl4base4V1_08BnHwBaseERKNS0_6ParcelEPSA_NSt3__18functionIFvRSA_EEE"
  },
  {
   "name":"_ZN7android8hardware8graphics8composer4V2_118BnHwComposerClient20_hidl_getDisplayTypeEPNS_4hidl4base4V1_08BnHwBaseERKNS0_6ParcelEPSA_NSt3__18functionIFvRSA_EEE"
  },
  {
   "name":"_ZN7android8hardware8graphics8composer4V2_118BnHwComposerClient20_hidl_getDozeSupportEPNS_4hidl4base4V1_08BnHwBaseERKNS0_6ParcelEPSA_NSt3__18functionIFvRSA_EEE"
  },
  {
   "name":"_ZN7android8hardware8graphics8composer4V2_118BnHwComposerClient21_hidl_executeCommandsEPNS_4hidl4base4V1_08BnHwBaseERKNS0_6ParcelEPSA_NSt3__18functionIFvRSA_EEE"
  },
  {
   "name":"_ZN7android8hardware8graphics8composer4V2_118BnHwComposerClient21_hidl_getActiveConfigEPNS_4hidl4base4V1_08BnHwBaseERKNS0_6ParcelEPSA_NSt3__18functionIFvRSA_EEE"
  },
  {
   "name":"_ZN7android8hardware8graphics8composer4V2_118BnHwComposerClient21_hidl_setActiveConfigEPNS_4hidl4base4V1_08BnHwBaseERKNS0_6ParcelEPSA_NSt3__18functionIFvRSA_EEE"
  },
  {
   "name":"_ZN7android8hardware8graphics8composer4V2_118BnHwComposerClient21_hidl_setVsyncEnabledEPNS_4hidl4base4V1_08BnHwBaseERKNS0_6ParcelEPSA_NSt3__18functionIFvRSA_EEE"
  },
  {
   "name":"_ZN7android8hardware8graphics8composer4V2_118BnHwComposerClient22_hidl_registerCallbackEPNS_4hidl4base4V1_08BnHwBaseERKNS0_6ParcelEPSA_NSt3__18functionIFvRSA_EEE"
  },
  {
   "name":"_ZN7android8hardware8graphics8composer4V2_118BnHwComposerClient23_hidl_getDisplayConfigsEPNS_4hidl4base4V1_08BnHwBaseERKNS0_6ParcelEPSA_NSt3__18functionIFvRSA_EEE"
  },
  {
   "name":"_ZN7android8hardware8graphics8composer4V2_118BnHwComposerClient24_hidl_getHdrCapabilitiesEPNS_4hidl4base4V1_08BnHwBaseERKNS0_6ParcelEPSA_NSt3__18functionIFvRSA_EEE"
  },
  {
   "name":"_ZN7android8hardware8graphics8composer4V2_118BnHwComposerClient25_hidl_getDisplayAttributeEPNS_4hidl4base4V1_08BnHwBaseERKNS0_6ParcelEPSA_NSt3__18functionIFvRSA_EEE"
  },
  {
   "name":"_ZN7android8hardware8graphics8composer4V2_118BnHwComposerClient26_hidl_createVirtualDisplayEPNS_4hidl4base4V1_08BnHwBaseERKNS0_6ParcelEPSA_NSt3__18functionIFvRSA_EEE"
  },
  {
   "name":"_ZN7android8hardware8graphics8composer4V2_118BnHwComposerClient26_hidl_setInputCommandQueueEPNS_4hidl4base4V1_08BnHwBaseERKNS0_6ParcelEPSA_NSt3__18functionIFvRSA_EEE"
  },
  {
   "name":"_ZN7android8hardware8graphics8composer4V2_118BnHwComposerClient27_hidl_destroyVirtualDisplayEPNS_4hidl4base4V1_08BnHwBaseERKNS0_6ParcelEPSA_NSt3__18functionIFvRSA_EEE"
  },
  {
   "name":"_ZN7android8hardware8graphics8composer4V2_118BnHwComposerClient27_hidl_getOutputCommandQueueEPNS_4hidl4base4V1_08BnHwBaseERKNS0_6ParcelEPSA_NSt3__18functionIFvRSA_EEE"
  },
  {
   "name":"_ZN7android8hardware8graphics8composer4V2_118BnHwComposerClient28_hidl_getClientTargetSupportEPNS_4hidl4base4V1_08BnHwBaseERKNS0_6ParcelEPSA_NSt3__18functionIFvRSA_EEE"
  },
  {
   "name":"_ZN7android8hardware8graphics8composer4V2_118BnHwComposerClient30_hidl_setClientTargetSlotCountEPNS_4hidl4base4V1_08BnHwBaseERKNS0_6ParcelEPSA_NSt3__18functionIFvRSA_EEE"
  },
  {
   "name":"_ZN7android8hardware8graphics8composer4V2_118BnHwComposerClient31_hidl_getMaxVirtualDisplayCountEPNS_4hidl4base4V1_08BnHwBaseERKNS0_6ParcelEPSA_NSt3__18functionIFvRSA_EEE"
  },
  {
   "name":"_ZN7android8hardware8graphics8composer4V2_118BnHwComposerClient4pingEv"
  },
  {
   "name":"_ZN7android8hardware8graphics8composer4V2_118BnHwComposerClientC1ERKNS_2spINS3_15IComposerClientEEE"
  },
  {
   "name":"_ZN7android8hardware8graphics8composer4V2_118BnHwComposerClientC2ERKNS_2spINS3_15IComposerClientEEE"
  },
  {
   "name":"_ZN7android8hardware8graphics8composer4V2_118BnHwComposerClientD0Ev"
  },
  {
   "name":"_ZN7android8hardware8graphics8composer4V2_118BnHwComposerClientD1Ev"
  },
  {
   "name":"_ZN7android8hardware8graphics8composer4V2_118BnHwComposerClientD2Ev"
  },
  {
   "name":"_ZN7android8hardware8graphics8composer4V2_118BpHwComposerClient11createLayerEyjNSt3__18functionIFvNS3_5ErrorEyEEE"
  },
  {
   "name":"_ZN7android8hardware8graphics8composer4V2_118BpHwComposerClient11linkToDeathERKNS_2spINS0_20hidl_death_recipientEEEy"
  },
  {
   "name":"_ZN7android8hardware8graphics8composer4V2_118BpHwComposerClient12destroyLayerEyy"
  },
  {
   "name":"_ZN7android8hardware8graphics8composer4V2_118BpHwComposerClient12getDebugInfoENSt3__18functionIFvRKNS_4hidl4base4V1_09DebugInfoEEEE"
  },
  {
   "name":"_ZN7android8hardware8graphics8composer4V2_118BpHwComposerClient12getHashChainENSt3__18functionIFvRKNS0_8hidl_vecINS0_10hidl_arrayIhLj32EJEEEEEEEE"
  },
  {
   "name":"_ZN7android8hardware8graphics8composer4V2_118BpHwComposerClient12setColorModeEyNS1_6common4V1_09ColorModeE"
  },
  {
   "name":"_ZN7android8hardware8graphics8composer4V2_118BpHwComposerClient12setPowerModeEyNS3_15IComposerClient9PowerModeE"
  },
  {
   "name":"_ZN7android8hardware8graphics8composer4V2_118BpHwComposerClient13getColorModesEyNSt3__18functionIFvNS3_5ErrorERKNS0_8hidl_vecINS1_6common4V1_09ColorModeEEEEEE"
  },
  {
   "name":"_ZN7android8hardware8graphics8composer4V2_118BpHwComposerClient13unlinkToDeathERKNS_2spINS0_20hidl_death_recipientEEE"
  },
  {
   "name":"_ZN7android8hardware8graphics8composer4V2_118BpHwComposerClient14getDisplayNameEyNSt3__18functionIFvNS3_5ErrorERKNS0_11hidl_stringEEEE"
  },
  {
   "name":"_ZN7android8hardware8graphics8composer4V2_118BpHwComposerClient14getDisplayTypeEyNSt3__18functionIFvNS3_5ErrorENS3_15IComposerClient11DisplayTypeEEEE"
  },
  {
   "name":"_ZN7android8hardware8graphics8composer4V2_118BpHwComposerClient14getDozeSupportEyNSt3__18functionIFvNS3_5ErrorEbEEE"
  },
  {
   "name":"_ZN7android8hardware8graphics8composer4V2_118BpHwComposerClient14interfaceChainENSt3__18functionIFvRKNS0_8hidl_vecINS0_11hidl_stringEEEEEE"
  },
  {
   "name":"_ZN7android8hardware8graphics8composer4V2_118BpHwComposerClient15executeCommandsEjRKNS0_8hidl_vecINS0_11hidl_handleEEENSt3__18functionIFvNS3_5ErrorEbjS9_EEE"
  },
  {
   "name":"_ZN7android8hardware8graphics8composer4V2_118BpHwComposerClient15getActiveConfigEyNSt3__18functionIFvNS3_5ErrorEjEEE"
  },
  {
   "name":"_ZN7android8hardware8graphics8composer4V2_118BpHwComposerClient15setActiveConfigEyj"
  },
  {
   "name":"_ZN7android8hardware8graphics8composer4V2_118BpHwComposerClient15setVsyncEnabledEyNS3_15IComposerClient5VsyncE"
  },
  {
   "name":"_ZN7android8hardware8graphics8composer4V2_118BpHwComposerClient16registerCallbackERKNS_2spINS3_17IComposerCallbackEEE"
  },
  {
   "name":"_ZN7android8hardware8graphics8composer4V2_118BpHwComposerClient17_hidl_createLayerEPNS0_10IInterfaceEPNS0_7details16HidlInstrumentorEyjNSt3__18functionIFvNS3_5ErrorEyEEE"
  },
  {
   "name":"_ZN7android8hardware8graphics8composer4V2_118BpHwComposerClient17getDisplayConfigsEyNSt3__18functionIFvNS3_5ErrorERKNS0_8hidl_vecIjEEEEE"
  },
  {
   "name":"_ZN7android8hardware8graphics8composer4V2_118BpHwComposerClient18_hidl_destroyLayerEPNS0_10IInterfaceEPNS0_7details16HidlInstrumentorEyy"
  },
  {
   "name":"_ZN7android8hardware8graphics8composer4V2_118BpHwComposerClient18_hidl_setColorModeEPNS0_10IInterfaceEPNS0_7details16HidlInstrumentorEyNS1_6common4V1_09ColorModeE"
  },
  {
   "name":"_ZN7android8hardware8graphics8composer4V2_118BpHwComposerClient18_hidl_setPowerModeEPNS0_10IInterfaceEPNS0_7details16HidlInstrumentorEyNS3_15IComposerClient9PowerModeE"
  },
  {
   "name":"_ZN7android8hardware8graphics8composer4V2_118BpHwComposerClient18getHdrCapabilitiesEyNSt3__18functionIFvNS3_5ErrorERKNS0_8hidl_vecINS1_6common4V1_03HdrEEEfffEEE"
  },
  {
   "name":"_ZN7android8hardware8graphics8composer4V2_118BpHwComposerClient19_hidl_getColorModesEPNS0_10IInterfaceEPNS0_7details16HidlInstrumentorEyNSt3__18functionIFvNS3_5ErrorERKNS0_8hidl_vecINS1_6common4V1_09ColorModeEEEEEE"
  },
  {
   "name":"_ZN7android8hardware8graphics8composer4V2_118BpHwComposerClient19getDisplayAttributeEyjNS3_15IComposerClient9AttributeENSt3__18functionIFvNS3_5ErrorEiEEE"
  },
  {
   "name":"_ZN7android8hardware8graphics8composer4V2_118BpHwComposerClient19interfaceDescriptorENSt3__18functionIFvRKNS0_11hidl_stringEEEE"
  },
  {
   "name":"_ZN7android8hardware8graphics8composer4V2_118BpHwComposerClient20_hidl_getDisplayNameEPNS0_10IInterfaceEPNS0_7details16HidlInstrumentorEyNSt3__18functionIFvNS3_5ErrorERKNS0_11hidl_stringEEEE"
  },
  {
   "name":"_ZN7android8hardware8graphics8composer4V2_118BpHwComposerClient20_hidl_getDisplayTypeEPNS0_10IInterfaceEPNS0_7details16HidlInstrumentorEyNSt3__18functionIFvNS3_5ErrorENS3_15IComposerClient11DisplayTypeEEEE"
  },
  {
   "name":"_ZN7android8hardware8graphics8composer4V2_118BpHwComposerClient20_hidl_getDozeSupportEPNS0_10IInterfaceEPNS0_7details16HidlInstrumentorEyNSt3__18functionIFvNS3_5ErrorEbEEE"
  },
  {
   "name":"_ZN7android8hardware8graphics8composer4V2_118BpHwComposerClient20createVirtualDisplayEjjNS1_6common4V1_011PixelFormatEjNSt3__18functionIFvNS3_5ErrorEyS7_EEE"
  },
  {
   "name":"_ZN7android8hardware8graphics8composer4V2_118BpHwComposerClient20setInputCommandQueueERKNS0_12MQDescriptorIjLNS0_8MQFlavorE1EEE"
  },
  {
   "name":"_ZN7android8hardware8graphics8composer4V2_118BpHwComposerClient21_hidl_executeCommandsEPNS0_10IInterfaceEPNS0_7details16HidlInstrumentorEjRKNS0_8hidl_vecINS0_11hidl_handleEEENSt3__18functionIFvNS3_5ErrorEbjSE_EEE"
  },
  {
   "name":"_ZN7android8hardware8graphics8composer4V2_118BpHwComposerClient21_hidl_getActiveConfigEPNS0_10IInterfaceEPNS0_7details16HidlInstrumentorEyNSt3__18functionIFvNS3_5ErrorEjEEE"
  },
  {
   "name":"_ZN7android8hardware8graphics8composer4V2_118BpHwComposerClient21_hidl_setActiveConfigEPNS0_10IInterfaceEPNS0_7details16HidlInstrumentorEyj"
  },
  {
   "name":"_ZN7android8hardware8graphics8composer4V2_118BpHwComposerClient21_hidl_setVsyncEnabledEPNS0_10IInterfaceEPNS0_7details16HidlInstrumentorEyNS3_15IComposerClient5VsyncE"
  },
  {
   "name":"_ZN7android8hardware8graphics8composer4V2_118BpHwComposerClient21destroyVirtualDisplayEy"
  },
  {
   "name":"_ZN7android8hardware8graphics8composer4V2_118BpHwComposerClient21getOutputCommandQueueENSt3__18functionIFvNS3_5ErrorERKNS0_12MQDescriptorIjLNS0_8MQFlavorE1EEEEEE"
  },
  {
   "name":"_ZN7android8hardware8graphics8composer4V2_118BpHwComposerClient21notifySyspropsChangedEv"
  },
  {
   "name":"_ZN7android8hardware8graphics8composer4V2_118BpHwComposerClient21setHALInstrumentationEv"
  },
  {
   "name":"_ZN7android8hardware8graphics8composer4V2_118BpHwComposerClient22_hidl_registerCallbackEPNS0_10IInterfaceEPNS0_7details16HidlInstrumentorERKNS_2spINS3_17IComposerCallbackEEE"
  },
  {
   "name":"_ZN7android8hardware8graphics8composer4V2_118BpHwComposerClient22getClientTargetSupportEyjjNS1_6common4V1_011PixelFormatENS6_9DataspaceE"
  },
  {
   "name":"_ZN7android8hardware8graphics8composer4V2_118BpHwComposerClient23_hidl_getDisplayConfigsEPNS0_10IInterfaceEPNS0_7details16HidlInstrumentorEyNSt3__18functionIFvNS3_5ErrorERKNS0_8hidl_vecIjEEEEE"
  },
  {
   "name":"_ZN7android8hardware8graphics8composer4V2_118BpHwComposerClient24_hidl_getHdrCapabilitiesEPNS0_10IInterfaceEPNS0_7details16HidlInstrumentorEyNSt3__18functionIFvNS3_5ErrorERKNS0_8hidl_vecINS1_6common4V1_03HdrEEEfffEEE"
  },
  {
   "name":"_ZN7android8hardware8graphics8composer4V2_118BpHwComposerClient24setClientTargetSlotCountEyj"
  },
  {
   "name":"_ZN7android8hardware8graphics8composer4V2_118BpHwComposerClient25_hidl_getDisplayAttributeEPNS0_10IInterfaceEPNS0_7details16HidlInstrumentorEyjNS3_15IComposerClient9AttributeENSt3__18functionIFvNS3_5ErrorEiEEE"
  },
  {
   "name":"_ZN7android8hardware8graphics8composer4V2_118BpHwComposerClient25getMaxVirtualDisplayCountEv"
  },
  {
   "name":"_ZN7android8hardware8graphics8composer4V2_118BpHwComposerClient26_hidl_createVirtualDisplayEPNS0_10IInterfaceEPNS0_7details16HidlInstrumentorEjjNS1_6common4V1_011PixelFormatEjNSt3__18functionIFvNS3_5ErrorEySC_EEE"
  },
  {
   "name":"_ZN7android8hardware8graphics8composer4V2_118BpHwComposerClient26_hidl_setInputCommandQueueEPNS0_10IInterfaceEPNS0_7details16HidlInstrumentorERKNS0_12MQDescriptorIjLNS0_8MQFlavorE1EEE"
  },
  {
   "name":"_ZN7android8hardware8graphics8composer4V2_118BpHwComposerClient27_hidl_destroyVirtualDisplayEPNS0_10IInterfaceEPNS0_7details16HidlInstrumentorEy"
  },
  {
   "name":"_ZN7android8hardware8graphics8composer4V2_118BpHwComposerClient27_hidl_getOutputCommandQueueEPNS0_10IInterfaceEPNS0_7details16HidlInstrumentorENSt3__18functionIFvNS3_5ErrorERKNS0_12MQDescriptorIjLNS0_8MQFlavorE1EEEEEE"
  },
  {
   "name":"_ZN7android8hardware8graphics8composer4V2_118BpHwComposerClient28_hidl_getClientTargetSupportEPNS0_10IInterfaceEPNS0_7details16HidlInstrumentorEyjjNS1_6common4V1_011PixelFormatENSB_9DataspaceE"
  },
  {
   "name":"_ZN7android8hardware8graphics8composer4V2_118BpHwComposerClient30_hidl_setClientTargetSlotCountEPNS0_10IInterfaceEPNS0_7details16HidlInstrumentorEyj"
  },
  {
   "name":"_ZN7android8hardware8graphics8composer4V2_118BpHwComposerClient31_hidl_getMaxVirtualDisplayCountEPNS0_10IInterfaceEPNS0_7details16HidlInstrumentorE"
  },
  {
   "name":"_ZN7android8hardware8graphics8composer4V2_118BpHwComposerClient4pingEv"
  },
  {
   "name":"_ZN7android8hardware8graphics8composer4V2_118BpHwComposerClient5debugERKNS0_11hidl_handleERKNS0_8hidl_vecINS0_11hidl_stringEEE"
  },
  {
   "name":"_ZN7android8hardware8graphics8composer4V2_118BpHwComposerClientC1ERKNS_2spINS0_7IBinderEEE"
  },
  {
   "name":"_ZN7android8hardware8graphics8composer4V2_118BpHwComposerClientC2ERKNS_2spINS0_7IBinderEEE"
  },
  {
   "name":"_ZN7android8hardware8graphics8composer4V2_118BsComposerCallback13addOnewayTaskENSt3__18functionIFvvEEE"
  },
  {
   "name":"_ZN7android8hardware8graphics8composer4V2_118BsComposerCallbackC1ENS_2spINS3_17IComposerCallbackEEE"
  },
  {
   "name":"_ZN7android8hardware8graphics8composer4V2_118BsComposerCallbackC2ENS_2spINS3_17IComposerCallbackEEE"
  },
  {
   "name":"_ZN7android8hardware8graphics8composer4V2_120BnHwComposerCallback10onTransactEjRKNS0_6ParcelEPS5_jNSt3__18functionIFvRS5_EEE"
  },
  {
   "name":"_ZN7android8hardware8graphics8composer4V2_120BnHwComposerCallback12getDebugInfoENSt3__18functionIFvRKNS_4hidl4base4V1_09DebugInfoEEEE"
  },
  {
   "name":"_ZN7android8hardware8graphics8composer4V2_120BnHwComposerCallback13_hidl_onVsyncEPNS_4hidl4base4V1_08BnHwBaseERKNS0_6ParcelEPSA_NSt3__18functionIFvRSA_EEE"
  },
  {
   "name":"_ZN7android8hardware8graphics8composer4V2_120BnHwComposerCallback15_hidl_onHotplugEPNS_4hidl4base4V1_08BnHwBaseERKNS0_6ParcelEPSA_NSt3__18functionIFvRSA_EEE"
  },
  {
   "name":"_ZN7android8hardware8graphics8composer4V2_120BnHwComposerCallback15_hidl_onRefreshEPNS_4hidl4base4V1_08BnHwBaseERKNS0_6ParcelEPSA_NSt3__18functionIFvRSA_EEE"
  },
  {
   "name":"_ZN7android8hardware8graphics8composer4V2_120BnHwComposerCallback4pingEv"
  },
  {
   "name":"_ZN7android8hardware8graphics8composer4V2_120BnHwComposerCallbackC1ERKNS_2spINS3_17IComposerCallbackEEE"
  },
  {
   "name":"_ZN7android8hardware8graphics8composer4V2_120BnHwComposerCallbackC2ERKNS_2spINS3_17IComposerCallbackEEE"
  },
  {
   "name":"_ZN7android8hardware8graphics8composer4V2_120BnHwComposerCallbackD0Ev"
  },
  {
   "name":"_ZN7android8hardware8graphics8composer4V2_120BnHwComposerCallbackD1Ev"
  },
  {
   "name":"_ZN7android8hardware8graphics8composer4V2_120BnHwComposerCallbackD2Ev"
  },
  {
   "name":"_ZN7android8hardware8graphics8composer4V2_120BpHwComposerCallback11linkToDeathERKNS_2spINS0_20hidl_death_recipientEEEy"
  },
  {
   "name":"_ZN7android8hardware8graphics8composer4V2_120BpHwComposerCallback12getDebugInfoENSt3__18functionIFvRKNS_4hidl4base4V1_09DebugInfoEEEE"
  },
  {
   "name":"_ZN7android8hardware8graphics8composer4V2_120BpHwComposerCallback12getHashChainENSt3__18functionIFvRKNS0_8hidl_vecINS0_10hidl_arrayIhLj32EJEEEEEEEE"
  },
  {
   "name":"_ZN7android8hardware8graphics8composer4V2_120BpHwComposerCallback13_hidl_onVsyncEPNS0_10IInterfaceEPNS0_7details16HidlInstrumentorEyx"
  },
  {
   "name":"_ZN7android8hardware8graphics8composer4V2_120BpHwComposerCallback13unlinkToDeathERKNS_2spINS0_20hidl_death_recipientEEE"
  },
  {
   "name":"_ZN7android8hardware8graphics8composer4V2_120BpHwComposerCallback14interfaceChainENSt3__18functionIFvRKNS0_8hidl_vecINS0_11hidl_stringEEEEEE"
  },
  {
   "name":"_ZN7android8hardware8graphics8composer4V2_120BpHwComposerCallback15_hidl_onHotplugEPNS0_10IInterfaceEPNS0_7details16HidlInstrumentorEyNS3_17IComposerCallback10ConnectionE"
  },
  {
   "name":"_ZN7android8hardware8graphics8composer4V2_120BpHwComposerCallback15_hidl_onRefreshEPNS0_10IInterfaceEPNS0_7details16HidlInstrumentorEy"
  },
  {
   "name":"_ZN7android8hardware8graphics8composer4V2_120BpHwComposerCallback19interfaceDescriptorENSt3__18functionIFvRKNS0_11hidl_stringEEEE"
  },
  {
   "name":"_ZN7android8hardware8graphics8composer4V2_120BpHwComposerCallback21notifySyspropsChangedEv"
  },
  {
   "name":"_ZN7android8hardware8graphics8composer4V2_120BpHwComposerCallback21setHALInstrumentationEv"
  },
  {
   "name":"_ZN7android8hardware8graphics8composer4V2_120BpHwComposerCallback4pingEv"
  },
  {
   "name":"_ZN7android8hardware8graphics8composer4V2_120BpHwComposerCallback5debugERKNS0_11hidl_handleERKNS0_8hidl_vecINS0_11hidl_stringEEE"
  },
  {
   "name":"_ZN7android8hardware8graphics8composer4V2_120BpHwComposerCallback7onVsyncEyx"
  },
  {
   "name":"_ZN7android8hardware8graphics8composer4V2_120BpHwComposerCallback9onHotplugEyNS3_17IComposerCallback10ConnectionE"
  },
  {
   "name":"_ZN7android8hardware8graphics8composer4V2_120BpHwComposerCallback9onRefreshEy"
  },
  {
   "name":"_ZN7android8hardware8graphics8composer4V2_120BpHwComposerCallbackC1ERKNS_2spINS0_7IBinderEEE"
  },
  {
   "name":"_ZN7android8hardware8graphics8composer4V2_120BpHwComposerCallbackC2ERKNS_2spINS0_7IBinderEEE"
  },
  {
   "name":"_ZN7android8hardware8graphics8composer4V2_19IComposer10getServiceERKNSt3__112basic_stringIcNS5_11char_traitsIcEENS5_9allocatorIcEEEEb"
  },
  {
   "name":"_ZN7android8hardware8graphics8composer4V2_19IComposer11linkToDeathERKNS_2spINS0_20hidl_death_recipientEEEy"
  },
  {
   "name":"_ZN7android8hardware8graphics8composer4V2_19IComposer12getDebugInfoENSt3__18functionIFvRKNS_4hidl4base4V1_09DebugInfoEEEE"
  },
  {
   "name":"_ZN7android8hardware8graphics8composer4V2_19IComposer12getHashChainENSt3__18functionIFvRKNS0_8hidl_vecINS0_10hidl_arrayIhLj32EJEEEEEEEE"
  },
  {
   "name":"_ZN7android8hardware8graphics8composer4V2_19IComposer13tryGetServiceERKNSt3__112basic_stringIcNS5_11char_traitsIcEENS5_9allocatorIcEEEEb"
  },
  {
   "name":"_ZN7android8hardware8graphics8composer4V2_19IComposer13unlinkToDeathERKNS_2spINS0_20hidl_death_recipientEEE"
  },
  {
   "name":"_ZN7android8hardware8graphics8composer4V2_19IComposer14interfaceChainENSt3__18functionIFvRKNS0_8hidl_vecINS0_11hidl_stringEEEEEE"
  },
  {
   "name":"_ZN7android8hardware8graphics8composer4V2_19IComposer17registerAsServiceERKNSt3__112basic_stringIcNS5_11char_traitsIcEENS5_9allocatorIcEEEE"
  },
  {
   "name":"_ZN7android8hardware8graphics8composer4V2_19IComposer19interfaceDescriptorENSt3__18functionIFvRKNS0_11hidl_stringEEEE"
  },
  {
   "name":"_ZN7android8hardware8graphics8composer4V2_19IComposer21notifySyspropsChangedEv"
  },
  {
   "name":"_ZN7android8hardware8graphics8composer4V2_19IComposer21setHALInstrumentationEv"
  },
  {
   "name":"_ZN7android8hardware8graphics8composer4V2_19IComposer24registerForNotificationsERKNSt3__112basic_stringIcNS5_11char_traitsIcEENS5_9allocatorIcEEEERKNS_2spINS_4hidl7manager4V1_020IServiceNotificationEEE"
  },
  {
   "name":"_ZN7android8hardware8graphics8composer4V2_19IComposer4pingEv"
  },
  {
   "name":"_ZN7android8hardware8graphics8composer4V2_19IComposer5debugERKNS0_11hidl_handleERKNS0_8hidl_vecINS0_11hidl_stringEEE"
  },
  {
   "name":"_ZN7android8hardware8graphics8composer4V2_19IComposer8castFromERKNS_2spINS_4hidl4base4V1_05IBaseEEEb"
  },
  {
   "name":"_ZN7android8hardware8graphics8composer4V2_19IComposer8castFromERKNS_2spIS4_EEb"
  },
  {
   "binding":"weak",
   "name":"_ZN7android8hardware8toBinderINS0_8graphics8composer4V2_115IComposerClientEvEENS_2spINS0_7IBinderEEENS6_IT_EE"
  },
  {
   "binding":"weak",
   "name":"_ZN7android8hardware8toBinderINS0_8graphics8composer4V2_117IComposerCallbackEvEENS_2spINS0_7IBinderEEENS6_IT_EE"
  },
  {
   "binding":"weak",
   "name":"_ZN7android8hardware8toBinderINS_4hidl4base4V1_05IBaseEvEENS_2spINS0_7IBinderEEENS6_IT_EE"
  },
  {
   "name":"_ZThn20_N7android8hardware8graphics8composer4V2_112BnHwComposerD0Ev"
  },
  {
   "name":"_ZThn20_N7android8hardware8graphics8composer4V2_112BnHwComposerD1Ev"
  },
  {
   "name":"_ZThn20_N7android8hardware8graphics8composer4V2_118BnHwComposerClientD0Ev"
  },
  {
   "name":"_ZThn20_N7android8hardware8graphics8composer4V2_118BnHwComposerClientD1Ev"
  },
  {
   "name":"_ZThn20_N7android8hardware8graphics8composer4V2_120BnHwComposerCallbackD0Ev"
  },
  {
   "name":"_ZThn20_N7android8hardware8graphics8composer4V2_120BnHwComposerCallbackD1Ev"
  },
  {
   "name":"_ZTv0_n12_N7android8hardware8graphics8composer4V2_112BnHwComposerD0Ev"
  },
  {
   "name":"_ZTv0_n12_N7android8hardware8graphics8composer4V2_112BnHwComposerD1Ev"
  },
  {
   "name":"_ZTv0_n12_N7android8hardware8graphics8composer4V2_118BnHwComposerClientD0Ev"
  },
  {
   "name":"_ZTv0_n12_N7android8hardware8graphics8composer4V2_118BnHwComposerClientD1Ev"
  },
  {
   "name":"_ZTv0_n12_N7android8hardware8graphics8composer4V2_120BnHwComposerCallbackD0Ev"
  },
  {
   "name":"_ZTv0_n12_N7android8hardware8graphics8composer4V2_120BnHwComposerCallbackD1Ev"
  }
 ],
 "elf_objects":[
  {
   "name":"_ZN7android8hardware8graphics8composer4V2_115IComposerClient10descriptorE"
  },
  {
   "name":"_ZN7android8hardware8graphics8composer4V2_117IComposerCallback10descriptorE"
  },
  {
   "name":"_ZN7android8hardware8graphics8composer4V2_19IComposer10descriptorE"
  },
  {
   "name":"_ZTTN7android8hardware8graphics8composer4V2_112BnHwComposerE"
  },
  {
   "name":"_ZTTN7android8hardware8graphics8composer4V2_112BpHwComposerE"
  },
  {
   "name":"_ZTTN7android8hardware8graphics8composer4V2_115IComposerClientE"
  },
  {
   "name":"_ZTTN7android8hardware8graphics8composer4V2_117IComposerCallbackE"
  },
  {
   "name":"_ZTTN7android8hardware8graphics8composer4V2_118BnHwComposerClientE"
  },
  {
   "name":"_ZTTN7android8hardware8graphics8composer4V2_118BpHwComposerClientE"
  },
  {
   "name":"_ZTTN7android8hardware8graphics8composer4V2_120BnHwComposerCallbackE"
  },
  {
   "name":"_ZTTN7android8hardware8graphics8composer4V2_120BpHwComposerCallbackE"
  },
  {
   "name":"_ZTTN7android8hardware8graphics8composer4V2_19IComposerE"
  },
  {
   "binding":"weak",
   "name":"_ZTVN7android8hardware8graphics8composer4V2_110BsComposerE"
  },
  {
   "name":"_ZTVN7android8hardware8graphics8composer4V2_112BnHwComposerE"
  },
  {
   "name":"_ZTVN7android8hardware8graphics8composer4V2_112BpHwComposerE"
  },
  {
   "name":"_ZTVN7android8hardware8graphics8composer4V2_115IComposerClientE"
  },
  {
   "binding":"weak",
   "name":"_ZTVN7android8hardware8graphics8composer4V2_116BsComposerClientE"
  },
  {
   "name":"_ZTVN7android8hardware8graphics8composer4V2_117IComposerCallbackE"
  },
  {
   "name":"_ZTVN7android8hardware8graphics8composer4V2_118BnHwComposerClientE"
  },
  {
   "name":"_ZTVN7android8hardware8graphics8composer4V2_118BpHwComposerClientE"
  },
  {
   "binding":"weak",
   "name":"_ZTVN7android8hardware8graphics8composer4V2_118BsComposerCallbackE"
  },
  {
   "name":"_ZTVN7android8hardware8graphics8composer4V2_120BnHwComposerCallbackE"
  },
  {
   "name":"_ZTVN7android8hardware8graphics8composer4V2_120BpHwComposerCallbackE"
  },
  {
   "name":"_ZTVN7android8hardware8graphics8composer4V2_19IComposerE"
  }
 ]
}