{
 "record_types":[
  {
   "vtable_components":[
    {
     "kind":"vbase_offset",
     "component_value":4
    },
    {
     "kind":"offset_to_top"
    },
    {
     "kind":"rtti",
     "mangled_component_name":"_ZTIN7android4hidl6memory4V1_07IMemoryE"
    },
    {
     "mangled_component_name":"_ZNK7android4hidl6memory4V1_07IMemory8isRemoteEv"
    },
    {
     "mangled_component_name":"_ZN7android4hidl6memory4V1_07IMemory14interfaceChainENSt3__18functionIFvRKNS_8hardware8hidl_vecINS6_11hidl_stringEEEEEE"
    },
    {
     "mangled_component_name":"_ZN7android4hidl6memory4V1_07IMemory5debugERKNS_8hardware11hidl_handleERKNS4_8hidl_vecINS4_11hidl_stringEEE"
    },
    {
     "mangled_component_name":"_ZN7android4hidl6memory4V1_07IMemory19interfaceDescriptorENSt3__18functionIFvRKNS_8hardware11hidl_stringEEEE"
    },
    {
     "mangled_component_name":"_ZN7android4hidl6memory4V1_07IMemory12getHashChainENSt3__18functionIFvRKNS_8hardware8hidl_vecINS6_10hidl_arrayIhLj32EJEEEEEEEE"
    },
    {
     "mangled_component_name":"_ZN7android4hidl6memory4V1_07IMemory21setHALInstrumentationEv"
    },
    {
     "mangled_component_name":"_ZN7android4hidl6memory4V1_07IMemory11linkToDeathERKNS_2spINS_8hardware20hidl_death_recipientEEEy"
    },
    {
     "mangled_component_name":"_ZN7android4hidl6memory4V1_07IMemory4pingEv"
    },
    {
     "mangled_component_name":"_ZN7android4hidl6memory4V1_07IMemory12getDebugInfoENSt3__18functionIFvRKNS0_4base4V1_09DebugInfoEEEE"
    },
    {
     "mangled_component_name":"_ZN7android4hidl6memory4V1_07IMemory21notifySyspropsChangedEv"
    },
    {
     "mangled_component_name":"_ZN7android4hidl6memory4V1_07IMemory13unlinkToDeathERKNS_2spINS_8hardware20hidl_death_recipientEEE"
    },
    {
     "kind":"complete_dtor_pointer",
     "mangled_component_name":"_ZN7android4hidl6memory4V1_07IMemoryD1Ev"
    },
    {
     "kind":"deleting_dtor_pointer",
     "mangled_component_name":"_ZN7android4hidl6memory4V1_07IMemoryD0Ev"
    },
    {
     "is_pure":true,
     "mangled_component_name":"_ZN7android4hidl6memory4V1_07IMemory6updateEv"
    },
    {
     "is_pure":true,
     "mangled_component_name":"_ZN7android4hidl6memory4V1_07IMemory11updateRangeEyy"
    },
    {
     "is_pure":true,
     "mangled_component_name":"_ZN7android4hidl6memory4V1_07IMemory4readEv"
    },
    {
     "is_pure":true,
     "mangled_component_name":"_ZN7android4hidl6memory4V1_07IMemory9readRangeEyy"
    },
    {
     "is_pure":true,
     "mangled_component_name":"_ZN7android4hidl6memory4V1_07IMemory6commitEv"
    },
    {
     "is_pure":true,
     "mangled_component_name":"_ZN7android4hidl6memory4V1_07IMemory10getPointerEv"
    },
    {
     "is_pure":true,
     "mangled_component_name":"_ZN7android4hidl6memory4V1_07IMemory7getSizeEv"
    },
    {
     "kind":"vcall_offset"
    },
    {
     "kind":"vcall_offset"
    },
    {
     "kind":"vcall_offset"
    },
    {
     "kind":"vcall_offset"
    },
    {
     "kind":"vcall_offset",
     "component_value":-4
    },
    {
     "kind":"offset_to_top",
     "component_value":-4
    },
    {
     "kind":"rtti",
     "mangled_component_name":"_ZTIN7android4hidl6memory4V1_07IMemoryE"
    },
    {
     "kind":"complete_dtor_pointer",
     "mangled_component_name":"_ZTv0_n12_N7android4hidl6memory4V1_07IMemoryD1Ev"
    },
    {
     "kind":"deleting_dtor_pointer",
     "mangled_component_name":"_ZTv0_n12_N7android4hidl6memory4V1_07IMemoryD0Ev"
    },
    {
     "mangled_component_name":"_ZN7android7RefBase10onFirstRefEv"
    },
    {
     "mangled_component_name":"_ZN7android7RefBase15onLastStrongRefEPKv"
    },
    {
     "mangled_component_name":"_ZN7android7RefBase20onIncStrongAttemptedEjPKv"
    },
    {
     "mangled_component_name":"_ZN7android7RefBase13onLastWeakRefEPKv"
    }
   ],
   "unique_id":"_ZTSN7android4hidl6memory4V1_07IMemoryE"
  },
  {
   "vtable_components":[
    {
     "kind":"vbase_offset",
     "component_value":84
    },
    {
     "kind":"offset_to_top"
    },
    {
     "kind":"rtti",
     "mangled_component_name":"_ZTIN7android4hidl6memory4V1_010BpHwMemoryE"
    },
    {
     "mangled_component_name":"_ZNK7android4hidl6memory4V1_010BpHwMemory8isRemoteEv"
    },
    {
     "mangled_component_name":"_ZN7android4hidl6memory4V1_010BpHwMemory14interfaceChainENSt3__18functionIFvRKNS_8hardware8hidl_vecINS6_11hidl_stringEEEEEE"
    },
    {
     "mangled_component_name":"_ZN7android4hidl6memory4V1_010BpHwMemory5debugERKNS_8hardware11hidl_handleERKNS4_8hidl_vecINS4_11hidl_stringEEE"
    },
    {
     "mangled_component_name":"_ZN7android4hidl6memory4V1_010BpHwMemory19interfaceDescriptorENSt3__18functionIFvRKNS_8hardware11hidl_stringEEEE"
    },
    {
     "mangled_component_name":"_ZN7android4hidl6memory4V1_010BpHwMemory12getHashChainENSt3__18functionIFvRKNS_8hardware8hidl_vecINS6_10hidl_arrayIhLj32EJEEEEEEEE"
    },
    {
     "mangled_component_name":"_ZN7android4hidl6memory4V1_010BpHwMemory21setHALInstrumentationEv"
    },
    {
     "mangled_component_name":"_ZN7android4hidl6memory4V1_010BpHwMemory11linkToDeathERKNS_2spINS_8hardware20hidl_death_recipientEEEy"
    },
    {
     "mangled_component_name":"_ZN7android4hidl6memory4V1_010BpHwMemory4pingEv"
    },
    {
     "mangled_component_name":"_ZN7android4hidl6memory4V1_010BpHwMemory12getDebugInfoENSt3__18functionIFvRKNS0_4base4V1_09DebugInfoEEEE"
    },
    {
     "mangled_component_name":"_ZN7android4hidl6memory4V1_010BpHwMemory21notifySyspropsChangedEv"
    },
    {
     "mangled_component_name":"_ZN7android4hidl6memory4V1_010BpHwMemory13unlinkToDeathERKNS_2spINS_8hardware20hidl_death_recipientEEE"
    },
    {
     "kind":"complete_dtor_pointer",
     "mangled_component_name":"_ZN7android4hidl6memory4V1_010BpHwMemoryD1Ev"
    },
    {
     "kind":"deleting_dtor_pointer",
     "mangled_component_name":"_ZN7android4hidl6memory4V1_010BpHwMemoryD0Ev"
    },
    {
     "mangled_component_name":"_ZN7android4hidl6memory4V1_010BpHwMemory6updateEv"
    },
    {
     "mangled_component_name":"_ZN7android4hidl6memory4V1_010BpHwMemory11updateRangeEyy"
    },
    {
     "mangled_component_name":"_ZN7android4hidl6memory4V1_010BpHwMemory4readEv"
    },
    {
     "mangled_component_name":"_ZN7android4hidl6memory4V1_010BpHwMemory9readRangeEyy"
    },
    {
     "mangled_component_name":"_ZN7android4hidl6memory4V1_010BpHwMemory6commitEv"
    },
    {
     "mangled_component_name":"_ZN7android4hidl6memory4V1_010BpHwMemory10getPointerEv"
    },
    {
     "mangled_component_name":"_ZN7android4hidl6memory4V1_010BpHwMemory7getSizeEv"
    },
    {
     "mangled_component_name":"_ZN7android8hardware11BpInterfaceINS_4hidl6memory4V1_07IMemoryEE10onAsBinderEv"
    },
    {
     "kind":"vbase_offset",
     "component_value":80
    },
    {
     "kind":"offset_to_top",
     "component_value":-4
    },
    {
     "kind":"rtti",
     "mangled_component_name":"_ZTIN7android4hidl6memory4V1_010BpHwMemoryE"
    },
    {
     "kind":"complete_dtor_pointer",
     "mangled_component_name":"_ZThn4_N7android4hidl6memory4V1_010BpHwMemoryD1Ev"
    },
    {
     "kind":"deleting_dtor_pointer",
     "mangled_component_name":"_ZThn4_N7android4hidl6memory4V1_010BpHwMemoryD0Ev"
    },
    {
     "mangled_component_name":"_ZThn4_N7android8hardware11BpInterfaceINS_4hidl6memory4V1_07IMemoryEE10onAsBinderEv"
    },
    {
     "kind":"vbase_offset",
     "component_value":76
    },
    {
     "kind":"offset_to_top",
     "component_value":-8
    },
    {
     "kind":"rtti",
     "mangled_component_name":"_ZTIN7android4hidl6memory4V1_010BpHwMemoryE"
    },
    {
     "kind":"complete_dtor_pointer",
     "mangled_component_name":"_ZThn8_N7android4hidl6memory4V1_010BpHwMemoryD1Ev"
    },
    {
     "kind":"deleting_dtor_pointer",
     "mangled_component_name":"_ZThn8_N7android4hidl6memory4V1_010BpHwMemoryD0Ev"
    },
    {
     "mangled_component_name":"_ZN7android8hardware11BpHwRefBase10onFirstRefEv"
    },
    {
     "mangled_component_name":"_ZN7android8hardware11BpHwRefBase15onLastStrongRefEPKv"
    },
    {
     "mangled_component_name":"_ZN7android8hardware11BpHwRefBase20onIncStrongAttemptedEjPKv"
    },
    {
     "kind":"offset_to_top",
     "component_value":-24
    },
    {
     "kind":"rtti",
     "mangled_component_name":"_ZTIN7android4hidl6memory4V1_010BpHwMemoryE"
    },
    {
     "kind":"complete_dtor_pointer",
     "mangled_component_name":"_ZThn24_N7android4hidl6memory4V1_010BpHwMemoryD1Ev"
    },
    {
     "kind":"deleting_dtor_pointer",
     "mangled_component_name":"_ZThn24_N7android4hidl6memory4V1_010BpHwMemoryD0Ev"
    },
    {
     "kind":"vcall_offset"
    },
    {
     "kind":"vcall_offset",
     "component_value":-76
    },
    {
     "kind":"vcall_offset",
     "component_value":-76
    },
    {
     "kind":"vcall_offset",
     "component_value":-76
    },
    {
     "kind":"vcall_offset",
     "component_value":-84
    },
    {
     "kind":"offset_to_top",
     "component_value":-84
    },
    {
     "kind":"rtti",
     "mangled_component_name":"_ZTIN7android4hidl6memory4V1_010BpHwMemoryE"
    },
    {
     "kind":"complete_dtor_pointer",
     "mangled_component_name":"_ZTv0_n12_N7android4hidl6memory4V1_010BpHwMemoryD1Ev"
    },
    {
     "kind":"deleting_dtor_pointer",
     "mangled_component_name":"_ZTv0_n12_N7android4hidl6memory4V1_010BpHwMemoryD0Ev"
    },
    {
     "mangled_component_name":"_ZTv0_n16_N7android8hardware11BpHwRefBase10onFirstRefEv"
    },
    {
     "mangled_component_name":"_ZTv0_n20_N7android8hardware11BpHwRefBase15onLastStrongRefEPKv"
    },
    {
     "mangled_component_name":"_ZTv0_n24_N7android8hardware11BpHwRefBase20onIncStrongAttemptedEjPKv"
    },
    {
     "mangled_component_name":"_ZN7android7RefBase13onLastWeakRefEPKv"
    }
   ],
   "unique_id":"_ZTSN7android4hidl6memory4V1_010BpHwMemoryE"
  },
  {
   "vtable_components":[
    {
     "kind":"vbase_offset",
     "component_value":4
    },
    {
     "kind":"offset_to_top"
    },
    {
     "kind":"rtti",
     "mangled_component_name":"_ZTIN7android4hidl6memory4V1_07IMapperE"
    },
    {
     "mangled_component_name":"_ZNK7android4hidl6memory4V1_07IMapper8isRemoteEv"
    },
    {
     "mangled_component_name":"_ZN7android4hidl6memory4V1_07IMapper14interfaceChainENSt3__18functionIFvRKNS_8hardware8hidl_vecINS6_11hidl_stringEEEEEE"
    },
    {
     "mangled_component_name":"_ZN7android4hidl6memory4V1_07IMapper5debugERKNS_8hardware11hidl_handleERKNS4_8hidl_vecINS4_11hidl_stringEEE"
    },
    {
     "mangled_component_name":"_ZN7android4hidl6memory4V1_07IMapper19interfaceDescriptorENSt3__18functionIFvRKNS_8hardware11hidl_stringEEEE"
    },
    {
     "mangled_component_name":"_ZN7android4hidl6memory4V1_07IMapper12getHashChainENSt3__18functionIFvRKNS_8hardware8hidl_vecINS6_10hidl_arrayIhLj32EJEEEEEEEE"
    },
    {
     "mangled_component_name":"_ZN7android4hidl6memory4V1_07IMapper21setHALInstrumentationEv"
    },
    {
     "mangled_component_name":"_ZN7android4hidl6memory4V1_07IMapper11linkToDeathERKNS_2spINS_8hardware20hidl_death_recipientEEEy"
    },
    {
     "mangled_component_name":"_ZN7android4hidl6memory4V1_07IMapper4pingEv"
    },
    {
     "mangled_component_name":"_ZN7android4hidl6memory4V1_07IMapper12getDebugInfoENSt3__18functionIFvRKNS0_4base4V1_09DebugInfoEEEE"
    },
    {
     "mangled_component_name":"_ZN7android4hidl6memory4V1_07IMapper21notifySyspropsChangedEv"
    },
    {
     "mangled_component_name":"_ZN7android4hidl6memory4V1_07IMapper13unlinkToDeathERKNS_2spINS_8hardware20hidl_death_recipientEEE"
    },
    {
     "kind":"complete_dtor_pointer",
     "mangled_component_name":"_ZN7android4hidl6memory4V1_07IMapperD1Ev"
    },
    {
     "kind":"deleting_dtor_pointer",
     "mangled_component_name":"_ZN7android4hidl6memory4V1_07IMapperD0Ev"
    },
    {
     "is_pure":true,
     "mangled_component_name":"_ZN7android4hidl6memory4V1_07IMapper9mapMemoryERKNS_8hardware11hidl_memoryE"
    },
    {
     "kind":"vcall_offset"
    },
    {
     "kind":"vcall_offset"
    },
    {
     "kind":"vcall_offset"
    },
    {
     "kind":"vcall_offset"
    },
    {
     "kind":"vcall_offset",
     "component_value":-4
    },
    {
     "kind":"offset_to_top",
     "component_value":-4
    },
    {
     "kind":"rtti",
     "mangled_component_name":"_ZTIN7android4hidl6memory4V1_07IMapperE"
    },
    {
     "kind":"complete_dtor_pointer",
     "mangled_component_name":"_ZTv0_n12_N7android4hidl6memory4V1_07IMapperD1Ev"
    },
    {
     "kind":"deleting_dtor_pointer",
     "mangled_component_name":"_ZTv0_n12_N7android4hidl6memory4V1_07IMapperD0Ev"
    },
    {
     "mangled_component_name":"_ZN7android7RefBase10onFirstRefEv"
    },
    {
     "mangled_component_name":"_ZN7android7RefBase15onLastStrongRefEPKv"
    },
    {
     "mangled_component_name":"_ZN7android7RefBase20onIncStrongAttemptedEjPKv"
    },
    {
     "mangled_component_name":"_ZN7android7RefBase13onLastWeakRefEPKv"
    }
   ],
   "unique_id":"_ZTSN7android4hidl6memory4V1_07IMapperE"
  },
  {
   "vtable_components":[
    {
     "kind":"vbase_offset",
     "component_value":72
    },
    {
     "kind":"offset_to_top"
    },
    {
     "kind":"rtti",
     "mangled_component_name":"_ZTIN7android4hidl6memory4V1_010BnHwMapperE"
    },
    {
     "mangled_component_name":"_ZN7android8hardware9BHwBinder8transactEjRKNS0_6ParcelEPS2_jNSt3__18functionIFvRS2_EEE"
    },
    {
     "mangled_component_name":"_ZN7android8hardware9BHwBinder11linkToDeathERKNS_2spINS0_7IBinder14DeathRecipientEEEPvj"
    },
    {
     "mangled_component_name":"_ZN7android8hardware9BHwBinder13unlinkToDeathERKNS_2wpINS0_7IBinder14DeathRecipientEEEPvjPS5_"
    },
    {
     "mangled_component_name":"_ZNK7android8hardware7IBinder13checkSubclassEPKv"
    },
    {
     "mangled_component_name":"_ZN7android8hardware9BHwBinder12attachObjectEPKvPvS4_PFvS3_S4_S4_E"
    },
    {
     "mangled_component_name":"_ZNK7android8hardware9BHwBinder10findObjectEPKv"
    },
    {
     "mangled_component_name":"_ZN7android8hardware9BHwBinder12detachObjectEPKv"
    },
    {
     "mangled_component_name":"_ZN7android8hardware9BHwBinder11localBinderEv"
    },
    {
     "mangled_component_name":"_ZN7android8hardware7IBinder12remoteBinderEv"
    },
    {
     "kind":"complete_dtor_pointer",
     "mangled_component_name":"_ZN7android4hidl6memory4V1_010BnHwMapperD1Ev"
    },
    {
     "kind":"deleting_dtor_pointer",
     "mangled_component_name":"_ZN7android4hidl6memory4V1_010BnHwMapperD0Ev"
    },
    {
     "mangled_component_name":"_ZN7android4hidl6memory4V1_010BnHwMapper10onTransactEjRKNS_8hardware6ParcelEPS5_jNSt3__18functionIFvRS5_EEE"
    },
    {
     "kind":"offset_to_top",
     "component_value":-20
    },
    {
     "kind":"rtti",
     "mangled_component_name":"_ZTIN7android4hidl6memory4V1_010BnHwMapperE"
    },
    {
     "kind":"complete_dtor_pointer",
     "mangled_component_name":"_ZThn20_N7android4hidl6memory4V1_010BnHwMapperD1Ev"
    },
    {
     "kind":"deleting_dtor_pointer",
     "mangled_component_name":"_ZThn20_N7android4hidl6memory4V1_010BnHwMapperD0Ev"
    },
    {
     "kind":"vcall_offset"
    },
    {
     "kind":"vcall_offset"
    },
    {
     "kind":"vcall_offset"
    },
    {
     "kind":"vcall_offset"
    },
    {
     "kind":"vcall_offset",
     "component_value":-72
    },
    {
     "kind":"offset_to_top",
     "component_value":-72
    },
    {
     "kind":"rtti",
     "mangled_component_name":"_ZTIN7android4hidl6memory4V1_010BnHwMapperE"
    },
    {
     "kind":"complete_dtor_pointer",
     "mangled_component_name":"_ZTv0_n12_N7android4hidl6memory4V1_010BnHwMapperD1Ev"
    },
    {
     "kind":"deleting_dtor_pointer",
     "mangled_component_name":"_ZTv0_n12_N7android4hidl6memory4V1_010BnHwMapperD0Ev"
    },
    {
     "mangled_component_name":"_ZN7android7RefBase10onFirstRefEv"
    },
    {
     "mangled_component_name":"_ZN7android7RefBase15onLastStrongRefEPKv"
    },
    {
     "mangled_component_name":"_ZN7android7RefBase20onIncStrongAttemptedEjPKv"
    },
    {
     "mangled_component_name":"_ZN7android7RefBase13onLastWeakRefEPKv"
    }
   ],
   "unique_id":"_ZTSN7android4hidl6memory4V1_010BnHwMapperE"
  },
  {
   "vtable_components":[
    {
     "kind":"vbase_offset",
     "component_value":72
    },
    {
     "kind":"offset_to_top"
    },
    {
     "kind":"rtti",
     "mangled_component_name":"_ZTIN7android4hidl6memory4V1_010BnHwMemoryE"
    },
    {
     "mangled_component_name":"_ZN7android8hardware9BHwBinder8transactEjRKNS0_6ParcelEPS2_jNSt3__18functionIFvRS2_EEE"
    },
    {
     "mangled_component_name":"_ZN7android8hardware9BHwBinder11linkToDeathERKNS_2spINS0_7IBinder14DeathRecipientEEEPvj"
    },
    {
     "mangled_component_name":"_ZN7android8hardware9BHwBinder13unlinkToDeathERKNS_2wpINS0_7IBinder14DeathRecipientEEEPvjPS5_"
    },
    {
     "mangled_component_name":"_ZNK7android8hardware7IBinder13checkSubclassEPKv"
    },
    {
     "mangled_component_name":"_ZN7android8hardware9BHwBinder12attachObjectEPKvPvS4_PFvS3_S4_S4_E"
    },
    {
     "mangled_component_name":"_ZNK7android8hardware9BHwBinder10findObjectEPKv"
    },
    {
     "mangled_component_name":"_ZN7android8hardware9BHwBinder12detachObjectEPKv"
    },
    {
     "mangled_component_name":"_ZN7android8hardware9BHwBinder11localBinderEv"
    },
    {
     "mangled_component_name":"_ZN7android8hardware7IBinder12remoteBinderEv"
    },
    {
     "kind":"complete_dtor_pointer",
     "mangled_component_name":"_ZN7android4hidl6memory4V1_010BnHwMemoryD1Ev"
    },
    {
     "kind":"deleting_dtor_pointer",
     "mangled_component_name":"_ZN7android4hidl6memory4V1_010BnHwMemoryD0Ev"
    },
    {
     "mangled_component_name":"_ZN7android4hidl6memory4V1_010BnHwMemory10onTransactEjRKNS_8hardware6ParcelEPS5_jNSt3__18functionIFvRS5_EEE"
    },
    {
     "kind":"offset_to_top",
     "component_value":-20
    },
    {
     "kind":"rtti",
     "mangled_component_name":"_ZTIN7android4hidl6memory4V1_010BnHwMemoryE"
    },
    {
     "kind":"complete_dtor_pointer",
     "mangled_component_name":"_ZThn20_N7android4hidl6memory4V1_010BnHwMemoryD1Ev"
    },
    {
     "kind":"deleting_dtor_pointer",
     "mangled_component_name":"_ZThn20_N7android4hidl6memory4V1_010BnHwMemoryD0Ev"
    },
    {
     "kind":"vcall_offset"
    },
    {
     "kind":"vcall_offset"
    },
    {
     "kind":"vcall_offset"
    },
    {
     "kind":"vcall_offset"
    },
    {
     "kind":"vcall_offset",
     "component_value":-72
    },
    {
     "kind":"offset_to_top",
     "component_value":-72
    },
    {
     "kind":"rtti",
     "mangled_component_name":"_ZTIN7android4hidl6memory4V1_010BnHwMemoryE"
    },
    {
     "kind":"complete_dtor_pointer",
     "mangled_component_name":"_ZTv0_n12_N7android4hidl6memory4V1_010BnHwMemoryD1Ev"
    },
    {
     "kind":"deleting_dtor_pointer",
     "mangled_component_name":"_ZTv0_n12_N7android4hidl6memory4V1_010BnHwMemoryD0Ev"
    },
    {
     "mangled_component_name":"_ZN7android7RefBase10onFirstRefEv"
    },
    {
     "mangled_component_name":"_ZN7android7RefBase15onLastStrongRefEPKv"
    },
    {
     "mangled_component_name":"_ZN7android7RefBase20onIncStrongAttemptedEjPKv"
    },
    {
     "mangled_component_name":"_ZN7android7RefBase13onLastWeakRefEPKv"
    }
   ],
   "unique_id":"_ZTSN7android4hidl6memory4V1_010BnHwMemoryE"
  },
  {
   "vtable_components":[
    {
     "kind":"vbase_offset",
     "component_value":60
    },
    {
     "kind":"offset_to_top"
    },
    {
     "kind":"rtti",
     "mangled_component_name":"_ZTIN7android4hidl6memory4V1_08BsMapperE"
    },
    {
     "mangled_component_name":"_ZNK7android4hidl6memory4V1_07IMapper8isRemoteEv"
    },
    {
     "mangled_component_name":"_ZN7android4hidl6memory4V1_08BsMapper14interfaceChainENSt3__18functionIFvRKNS_8hardware8hidl_vecINS6_11hidl_stringEEEEEE"
    },
    {
     "mangled_component_name":"_ZN7android4hidl6memory4V1_08BsMapper5debugERKNS_8hardware11hidl_handleERKNS4_8hidl_vecINS4_11hidl_stringEEE"
    },
    {
     "mangled_component_name":"_ZN7android4hidl6memory4V1_08BsMapper19interfaceDescriptorENSt3__18functionIFvRKNS_8hardware11hidl_stringEEEE"
    },
    {
     "mangled_component_name":"_ZN7android4hidl6memory4V1_08BsMapper12getHashChainENSt3__18functionIFvRKNS_8hardware8hidl_vecINS6_10hidl_arrayIhLj32EJEEEEEEEE"
    },
    {
     "mangled_component_name":"_ZN7android4hidl6memory4V1_08BsMapper21setHALInstrumentationEv"
    },
    {
     "mangled_component_name":"_ZN7android4hidl6memory4V1_08BsMapper11linkToDeathERKNS_2spINS_8hardware20hidl_death_recipientEEEy"
    },
    {
     "mangled_component_name":"_ZN7android4hidl6memory4V1_08BsMapper4pingEv"
    },
    {
     "mangled_component_name":"_ZN7android4hidl6memory4V1_08BsMapper12getDebugInfoENSt3__18functionIFvRKNS0_4base4V1_09DebugInfoEEEE"
    },
    {
     "mangled_component_name":"_ZN7android4hidl6memory4V1_08BsMapper21notifySyspropsChangedEv"
    },
    {
     "mangled_component_name":"_ZN7android4hidl6memory4V1_08BsMapper13unlinkToDeathERKNS_2spINS_8hardware20hidl_death_recipientEEE"
    },
    {
     "kind":"complete_dtor_pointer",
     "mangled_component_name":"_ZN7android4hidl6memory4V1_08BsMapperD1Ev"
    },
    {
     "kind":"deleting_dtor_pointer",
     "mangled_component_name":"_ZN7android4hidl6memory4V1_08BsMapperD0Ev"
    },
    {
     "mangled_component_name":"_ZN7android4hidl6memory4V1_08BsMapper9mapMemoryERKNS_8hardware11hidl_memoryE"
    },
    {
     "kind":"offset_to_top",
     "component_value":-4
    },
    {
     "kind":"rtti",
     "mangled_component_name":"_ZTIN7android4hidl6memory4V1_08BsMapperE"
    },
    {
     "kind":"complete_dtor_pointer",
     "mangled_component_name":"_ZThn4_N7android4hidl6memory4V1_08BsMapperD1Ev"
    },
    {
     "kind":"deleting_dtor_pointer",
     "mangled_component_name":"_ZThn4_N7android4hidl6memory4V1_08BsMapperD0Ev"
    },
    {
     "kind":"vcall_offset"
    },
    {
     "kind":"vcall_offset"
    },
    {
     "kind":"vcall_offset"
    },
    {
     "kind":"vcall_offset"
    },
    {
     "kind":"vcall_offset",
     "component_value":-60
    },
    {
     "kind":"offset_to_top",
     "component_value":-60
    },
    {
     "kind":"rtti",
     "mangled_component_name":"_ZTIN7android4hidl6memory4V1_08BsMapperE"
    },
    {
     "kind":"complete_dtor_pointer",
     "mangled_component_name":"_ZTv0_n12_N7android4hidl6memory4V1_08BsMapperD1Ev"
    },
    {
     "kind":"deleting_dtor_pointer",
     "mangled_component_name":"_ZTv0_n12_N7android4hidl6memory4V1_08BsMapperD0Ev"
    },
    {
     "mangled_component_name":"_ZN7android7RefBase10onFirstRefEv"
    },
    {
     "mangled_component_name":"_ZN7android7RefBase15onLastStrongRefEPKv"
    },
    {
     "mangled_component_name":"_ZN7android7RefBase20onIncStrongAttemptedEjPKv"
    },
    {
     "mangled_component_name":"_ZN7android7RefBase13onLastWeakRefEPKv"
    }
   ],
   "unique_id":"_ZTSN7android4hidl6memory4V1_08BsMapperE"
  },
  {
   "vtable_components":[
    {
     "kind":"vbase_offset",
     "component_value":84
    },
    {
     "kind":"offset_to_top"
    },
    {
     "kind":"rtti",
     "mangled_component_name":"_ZTIN7android4hidl6memory4V1_010BpHwMapperE"
    },
    {
     "mangled_component_name":"_ZNK7android4hidl6memory4V1_010BpHwMapper8isRemoteEv"
    },
    {
     "mangled_component_name":"_ZN7android4hidl6memory4V1_010BpHwMapper14interfaceChainENSt3__18functionIFvRKNS_8hardware8hidl_vecINS6_11hidl_stringEEEEEE"
    },
    {
     "mangled_component_name":"_ZN7android4hidl6memory4V1_010BpHwMapper5debugERKNS_8hardware11hidl_handleERKNS4_8hidl_vecINS4_11hidl_stringEEE"
    },
    {
     "mangled_component_name":"_ZN7android4hidl6memory4V1_010BpHwMapper19interfaceDescriptorENSt3__18functionIFvRKNS_8hardware11hidl_stringEEEE"
    },
    {
     "mangled_component_name":"_ZN7android4hidl6memory4V1_010BpHwMapper12getHashChainENSt3__18functionIFvRKNS_8hardware8hidl_vecINS6_10hidl_arrayIhLj32EJEEEEEEEE"
    },
    {
     "mangled_component_name":"_ZN7android4hidl6memory4V1_010BpHwMapper21setHALInstrumentationEv"
    },
    {
     "mangled_component_name":"_ZN7android4hidl6memory4V1_010BpHwMapper11linkToDeathERKNS_2spINS_8hardware20hidl_death_recipientEEEy"
    },
    {
     "mangled_component_name":"_ZN7android4hidl6memory4V1_010BpHwMapper4pingEv"
    },
    {
     "mangled_component_name":"_ZN7android4hidl6memory4V1_010BpHwMapper12getDebugInfoENSt3__18functionIFvRKNS0_4base4V1_09DebugInfoEEEE"
    },
    {
     "mangled_component_name":"_ZN7android4hidl6memory4V1_010BpHwMapper21notifySyspropsChangedEv"
    },
    {
     "mangled_component_name":"_ZN7android4hidl6memory4V1_010BpHwMapper13unlinkToDeathERKNS_2spINS_8hardware20hidl_death_recipientEEE"
    },
    {
     "kind":"complete_dtor_pointer",
     "mangled_component_name":"_ZN7android4hidl6memory4V1_010BpHwMapperD1Ev"
    },
    {
     "kind":"deleting_dtor_pointer",
     "mangled_component_name":"_ZN7android4hidl6memory4V1_010BpHwMapperD0Ev"
    },
    {
     "mangled_component_name":"_ZN7android4hidl6memory4V1_010BpHwMapper9mapMemoryERKNS_8hardware11hidl_memoryE"
    },
    {
     "mangled_component_name":"_ZN7android8hardware11BpInterfaceINS_4hidl6memory4V1_07IMapperEE10onAsBinderEv"
    },
    {
     "kind":"vbase_offset",
     "component_value":80
    },
    {
     "kind":"offset_to_top",
     "component_value":-4
    },
    {
     "kind":"rtti",
     "mangled_component_name":"_ZTIN7android4hidl6memory4V1_010BpHwMapperE"
    },
    {
     "kind":"complete_dtor_pointer",
     "mangled_component_name":"_ZThn4_N7android4hidl6memory4V1_010BpHwMapperD1Ev"
    },
    {
     "kind":"deleting_dtor_pointer",
     "mangled_component_name":"_ZThn4_N7android4hidl6memory4V1_010BpHwMapperD0Ev"
    },
    {
     "mangled_component_name":"_ZThn4_N7android8hardware11BpInterfaceINS_4hidl6memory4V1_07IMapperEE10onAsBinderEv"
    },
    {
     "kind":"vbase_offset",
     "component_value":76
    },
    {
     "kind":"offset_to_top",
     "component_value":-8
    },
    {
     "kind":"rtti",
     "mangled_component_name":"_ZTIN7android4hidl6memory4V1_010BpHwMapperE"
    },
    {
     "kind":"complete_dtor_pointer",
     "mangled_component_name":"_ZThn8_N7android4hidl6memory4V1_010BpHwMapperD1Ev"
    },
    {
     "kind":"deleting_dtor_pointer",
     "mangled_component_name":"_ZThn8_N7android4hidl6memory4V1_010BpHwMapperD0Ev"
    },
    {
     "mangled_component_name":"_ZN7android8hardware11BpHwRefBase10onFirstRefEv"
    },
    {
     "mangled_component_name":"_ZN7android8hardware11BpHwRefBase15onLastStrongRefEPKv"
    },
    {
     "mangled_component_name":"_ZN7android8hardware11BpHwRefBase20onIncStrongAttemptedEjPKv"
    },
    {
     "kind":"offset_to_top",
     "component_value":-24
    },
    {
     "kind":"rtti",
     "mangled_component_name":"_ZTIN7android4hidl6memory4V1_010BpHwMapperE"
    },
    {
     "kind":"complete_dtor_pointer",
     "mangled_component_name":"_ZThn24_N7android4hidl6memory4V1_010BpHwMapperD1Ev"
    },
    {
     "kind":"deleting_dtor_pointer",
     "mangled_component_name":"_ZThn24_N7android4hidl6memory4V1_010BpHwMapperD0Ev"
    },
    {
     "kind":"vcall_offset"
    },
    {
     "kind":"vcall_offset",
     "component_value":-76
    },
    {
     "kind":"vcall_offset",
     "component_value":-76
    },
    {
     "kind":"vcall_offset",
     "component_value":-76
    },
    {
     "kind":"vcall_offset",
     "component_value":-84
    },
    {
     "kind":"offset_to_top",
     "component_value":-84
    },
    {
     "kind":"rtti",
     "mangled_component_name":"_ZTIN7android4hidl6memory4V1_010BpHwMapperE"
    },
    {
     "kind":"complete_dtor_pointer",
     "mangled_component_name":"_ZTv0_n12_N7android4hidl6memory4V1_010BpHwMapperD1Ev"
    },
    {
     "kind":"deleting_dtor_pointer",
     "mangled_component_name":"_ZTv0_n12_N7android4hidl6memory4V1_010BpHwMapperD0Ev"
    },
    {
     "mangled_component_name":"_ZTv0_n16_N7android8hardware11BpHwRefBase10onFirstRefEv"
    },
    {
     "mangled_component_name":"_ZTv0_n20_N7android8hardware11BpHwRefBase15onLastStrongRefEPKv"
    },
    {
     "mangled_component_name":"_ZTv0_n24_N7android8hardware11BpHwRefBase20onIncStrongAttemptedEjPKv"
    },
    {
     "mangled_component_name":"_ZN7android7RefBase13onLastWeakRefEPKv"
    }
   ],
   "unique_id":"_ZTSN7android4hidl6memory4V1_010BpHwMapperE"
  },
  {
   "vtable_components":[
    {
     "kind":"vbase_offset",
     "component_value":60
    },
    {
     "kind":"offset_to_top"
    },
    {
     "kind":"rtti",
     "mangled_component_name":"_ZTIN7android4hidl6memory4V1_08BsMemoryE"
    },
    {
     "mangled_component_name":"_ZNK7android4hidl6memory4V1_07IMemory8isRemoteEv"
    },
    {
     "mangled_component_name":"_ZN7android4hidl6memory4V1_08BsMemory14interfaceChainENSt3__18functionIFvRKNS_8hardware8hidl_vecINS6_11hidl_stringEEEEEE"
    },
    {
     "mangled_component_name":"_ZN7android4hidl6memory4V1_08BsMemory5debugERKNS_8hardware11hidl_handleERKNS4_8hidl_vecINS4_11hidl_stringEEE"
    },
    {
     "mangled_component_name":"_ZN7android4hidl6memory4V1_08BsMemory19interfaceDescriptorENSt3__18functionIFvRKNS_8hardware11hidl_stringEEEE"
    },
    {
     "mangled_component_name":"_ZN7android4hidl6memory4V1_08BsMemory12getHashChainENSt3__18functionIFvRKNS_8hardware8hidl_vecINS6_10hidl_arrayIhLj32EJEEEEEEEE"
    },
    {
     "mangled_component_name":"_ZN7android4hidl6memory4V1_08BsMemory21setHALInstrumentationEv"
    },
    {
     "mangled_component_name":"_ZN7android4hidl6memory4V1_08BsMemory11linkToDeathERKNS_2spINS_8hardware20hidl_death_recipientEEEy"
    },
    {
     "mangled_component_name":"_ZN7android4hidl6memory4V1_08BsMemory4pingEv"
    },
    {
     "mangled_component_name":"_ZN7android4hidl6memory4V1_08BsMemory12getDebugInfoENSt3__18functionIFvRKNS0_4base4V1_09DebugInfoEEEE"
    },
    {
     "mangled_component_name":"_ZN7android4hidl6memory4V1_08BsMemory21notifySyspropsChangedEv"
    },
    {
     "mangled_component_name":"_ZN7android4hidl6memory4V1_08BsMemory13unlinkToDeathERKNS_2spINS_8hardware20hidl_death_recipientEEE"
    },
    {
     "kind":"complete_dtor_pointer",
     "mangled_component_name":"_ZN7android4hidl6memory4V1_08BsMemoryD1Ev"
    },
    {
     "kind":"deleting_dtor_pointer",
     "mangled_component_name":"_ZN7android4hidl6memory4V1_08BsMemoryD0Ev"
    },
    {
     "mangled_component_name":"_ZN7android4hidl6memory4V1_08BsMemory6updateEv"
    },
    {
     "mangled_component_name":"_ZN7android4hidl6memory4V1_08BsMemory11updateRangeEyy"
    },
    {
     "mangled_component_name":"_ZN7android4hidl6memory4V1_08BsMemory4readEv"
    },
    {
     "mangled_component_name":"_ZN7android4hidl6memory4V1_08BsMemory9readRangeEyy"
    },
    {
     "mangled_component_name":"_ZN7android4hidl6memory4V1_08BsMemory6commitEv"
    },
    {
     "mangled_component_name":"_ZN7android4hidl6memory4V1_08BsMemory10getPointerEv"
    },
    {
     "mangled_component_name":"_ZN7android4hidl6memory4V1_08BsMemory7getSizeEv"
    },
    {
     "kind":"offset_to_top",
     "component_value":-4
    },
    {
     "kind":"rtti",
     "mangled_component_name":"_ZTIN7android4hidl6memory4V1_08BsMemoryE"
    },
    {
     "kind":"complete_dtor_pointer",
     "mangled_component_name":"_ZThn4_N7android4hidl6memory4V1_08BsMemoryD1Ev"
    },
    {
     "kind":"deleting_dtor_pointer",
     "mangled_component_name":"_ZThn4_N7android4hidl6memory4V1_08BsMemoryD0Ev"
    },
    {
     "kind":"vcall_offset"
    },
    {
     "kind":"vcall_offset"
    },
    {
     "kind":"vcall_offset"
    },
    {
     "kind":"vcall_offset"
    },
    {
     "kind":"vcall_offset",
     "component_value":-60
    },
    {
     "kind":"offset_to_top",
     "component_value":-60
    },
    {
     "kind":"rtti",
     "mangled_component_name":"_ZTIN7android4hidl6memory4V1_08BsMemoryE"
    },
    {
     "kind":"complete_dtor_pointer",
     "mangled_component_name":"_ZTv0_n12_N7android4hidl6memory4V1_08BsMemoryD1Ev"
    },
    {
     "kind":"deleting_dtor_pointer",
     "mangled_component_name":"_ZTv0_n12_N7android4hidl6memory4V1_08BsMemoryD0Ev"
    },
    {
     "mangled_component_name":"_ZN7android7RefBase10onFirstRefEv"
    },
    {
     "mangled_component_name":"_ZN7android7RefBase15onLastStrongRefEPKv"
    },
    {
     "mangled_component_name":"_ZN7android7RefBase20onIncStrongAttemptedEjPKv"
    },
    {
     "mangled_component_name":"_ZN7android7RefBase13onLastWeakRefEPKv"
    }
   ],
   "unique_id":"_ZTSN7android4hidl6memory4V1_08BsMemoryE"
  }
 ],
 "elf_functions":[
  {
   "binding":"weak",
   "name":"_ZN7android2spINS_4hidl4base4V1_05IBaseEED2Ev"
  },
  {
   "name":"_ZN7android4hidl6memory4V1_010BnHwMapper10onTransactEjRKNS_8hardware6ParcelEPS5_jNSt3__18functionIFvRS5_EEE"
  },
  {
   "name":"_ZN7android4hidl6memory4V1_010BnHwMapper12getDebugInfoENSt3__18functionIFvRKNS0_4base4V1_09DebugInfoEEEE"
  },
  {
   "name":"_ZN7android4hidl6memory4V1_010BnHwMapper15_hidl_mapMemoryEPNS0_4base4V1_08BnHwBaseERKNS_8hardware6ParcelEPS9_NSt3__18functionIFvRS9_EEE"
  },
  {
   "name":"_ZN7android4hidl6memory4V1_010BnHwMapper4pingEv"
  },
  {
   "name":"_ZN7android4hidl6memory4V1_010BnHwMapperC1ERKNS_2spINS2_7IMapperEEE"
  },
  {
   "name":"_ZN7android4hidl6memory4V1_010BnHwMapperC2ERKNS_2spINS2_7IMapperEEE"
  },
  {
   "name":"_ZN7android4hidl6memory4V1_010BnHwMapperD0Ev"
  },
  {
   "name":"_ZN7android4hidl6memory4V1_010BnHwMapperD1Ev"
  },
  {
   "name":"_ZN7android4hidl6memory4V1_010BnHwMapperD2Ev"
  },
  {
   "name":"_ZN7android4hidl6memory4V1_010BnHwMemory10_hidl_readEPNS0_4base4V1_08BnHwBaseERKNS_8hardware6ParcelEPS9_NSt3__18functionIFvRS9_EEE"
  },
  {
   "name":"_ZN7android4hidl6memory4V1_010BnHwMemory10onTransactEjRKNS_8hardware6ParcelEPS5_jNSt3__18functionIFvRS5_EEE"
  },
  {
   "name":"_ZN7android4hidl6memory4V1_010BnHwMemory12_hidl_commitEPNS0_4base4V1_08BnHwBaseERKNS_8hardware6ParcelEPS9_NSt3__18functionIFvRS9_EEE"
  },
  {
   "name":"_ZN7android4hidl6memory4V1_010BnHwMemory12_hidl_updateEPNS0_4base4V1_08BnHwBaseERKNS_8hardware6ParcelEPS9_NSt3__18functionIFvRS9_EEE"
  },
  {
   "name":"_ZN7android4hidl6memory4V1_010BnHwMemory12getDebugInfoENSt3__18functionIFvRKNS0_4base4V1_09DebugInfoEEEE"
  },
  {
   "name":"_ZN7android4hidl6memory4V1_010BnHwMemory13_hidl_getSizeEPNS0_4base4V1_08BnHwBaseERKNS_8hardware6ParcelEPS9_NSt3__18functionIFvRS9_EEE"
  },
  {
   "name":"_ZN7android4hidl6memory4V1_010BnHwMemory15_hidl_readRangeEPNS0_4base4V1_08BnHwBaseERKNS_8hardware6ParcelEPS9_NSt3__18functionIFvRS9_EEE"
  },
  {
   "name":"_ZN7android4hidl6memory4V1_010BnHwMemory16_hidl_getPointerEPNS0_4base4V1_08BnHwBaseERKNS_8hardware6ParcelEPS9_NSt3__18functionIFvRS9_EEE"
  },
  {
   "name":"_ZN7android4hidl6memory4V1_010BnHwMemory17_hidl_updateRangeEPNS0_4base4V1_08BnHwBaseERKNS_8hardware6ParcelEPS9_NSt3__18functionIFvRS9_EEE"
  },
  {
   "name":"_ZN7android4hidl6memory4V1_010BnHwMemory4pingEv"
  },
  {
   "name":"_ZN7android4hidl6memory4V1_010BnHwMemoryC1ERKNS_2spINS2_7IMemoryEEE"
  },
  {
   "name":"_ZN7android4hidl6memory4V1_010BnHwMemoryC2ERKNS_2spINS2_7IMemoryEEE"
  },
  {
   "name":"_ZN7android4hidl6memory4V1_010BnHwMemoryD0Ev"
  },
  {
   "name":"_ZN7android4hidl6memory4V1_010BnHwMemoryD1Ev"
  },
  {
   "name":"_ZN7android4hidl6memory4V1_010BnHwMemoryD2Ev"
  },
  {
   "name":"_ZN7android4hidl6memory4V1_010BpHwMapper11linkToDeathERKNS_2spINS_8hardware20hidl_death_recipientEEEy"
  },
  {
   "name":"_ZN7android4hidl6memory4V1_010BpHwMapper12getDebugInfoENSt3__18functionIFvRKNS0_4base4V1_09DebugInfoEEEE"
  },
  {
   "name":"_ZN7android4hidl6memory4V1_010BpHwMapper12getHashChainENSt3__18functionIFvRKNS_8hardware8hidl_vecINS6_10hidl_arrayIhLj32EJEEEEEEEE"
  },
  {
   "name":"_ZN7android4hidl6memory4V1_010BpHwMapper13unlinkToDeathERKNS_2spINS_8hardware20hidl_death_recipientEEE"
  },
  {
   "name":"_ZN7android4hidl6memory4V1_010BpHwMapper14interfaceChainENSt3__18functionIFvRKNS_8hardware8hidl_vecINS6_11hidl_stringEEEEEE"
  },
  {
   "name":"_ZN7android4hidl6memory4V1_010BpHwMapper15_hidl_mapMemoryEPNS_8hardware10IInterfaceEPNS4_7details16HidlInstrumentorERKNS4_11hidl_memoryE"
  },
  {
   "name":"_ZN7android4hidl6memory4V1_010BpHwMapper19interfaceDescriptorENSt3__18functionIFvRKNS_8hardware11hidl_stringEEEE"
  },
  {
   "name":"_ZN7android4hidl6memory4V1_010BpHwMapper21notifySyspropsChangedEv"
  },
  {
   "name":"_ZN7android4hidl6memory4V1_010BpHwMapper21setHALInstrumentationEv"
  },
  {
   "name":"_ZN7android4hidl6memory4V1_010BpHwMapper4pingEv"
  },
  {
   "name":"_ZN7android4hidl6memory4V1_010BpHwMapper5debugERKNS_8hardware11hidl_handleERKNS4_8hidl_vecINS4_11hidl_stringEEE"
  },
  {
   "name":"_ZN7android4hidl6memory4V1_010BpHwMapper9mapMemoryERKNS_8hardware11hidl_memoryE"
  },
  {
   "name":"_ZN7android4hidl6memory4V1_010BpHwMapperC1ERKNS_2spINS_8hardware7IBinderEEE"
  },
  {
   "name":"_ZN7android4hidl6memory4V1_010BpHwMapperC2ERKNS_2spINS_8hardware7IBinderEEE"
  },
  {
   "name":"_ZN7android4hidl6memory4V1_010BpHwMemory10_hidl_readEPNS_8hardware10IInterfaceEPNS4_7details16HidlInstrumentorE"
  },
  {
   "name":"_ZN7android4hidl6memory4V1_010BpHwMemory10getPointerEv"
  },
  {
   "name":"_ZN7android4hidl6memory4V1_010BpHwMemory11linkToDeathERKNS_2spINS_8hardware20hidl_death_recipientEEEy"
  },
  {
   "name":"_ZN7android4hidl6memory4V1_010BpHwMemory11updateRangeEyy"
  },
  {
   "name":"_ZN7android4hidl6memory4V1_010BpHwMemory12_hidl_commitEPNS_8hardware10IInterfaceEPNS4_7details16HidlInstrumentorE"
  },
  {
   "name":"_ZN7android4hidl6memory4V1_010BpHwMemory12_hidl_updateEPNS_8hardware10IInterfaceEPNS4_7details16HidlInstrumentorE"
  },
  {
   "name":"_ZN7android4hidl6memory4V1_010BpHwMemory12getDebugInfoENSt3__18functionIFvRKNS0_4base4V1_09DebugInfoEEEE"
  },
  {
   "name":"_ZN7android4hidl6memory4V1_010BpHwMemory12getHashChainENSt3__18functionIFvRKNS_8hardware8hidl_vecINS6_10hidl_arrayIhLj32EJEEEEEEEE"
  },
  {
   "name":"_ZN7android4hidl6memory4V1_010BpHwMemory13_hidl_getSizeEPNS_8hardware10IInterfaceEPNS4_7details16HidlInstrumentorE"
  },
  {
   "name":"_ZN7android4hidl6memory4V1_010BpHwMemory13unlinkToDeathERKNS_2spINS_8hardware20hidl_death_recipientEEE"
  },
  {
   "name":"_ZN7android4hidl6memory4V1_010BpHwMemory14interfaceChainENSt3__18functionIFvRKNS_8hardware8hidl_vecINS6_11hidl_stringEEEEEE"
  },
  {
   "name":"_ZN7android4hidl6memory4V1_010BpHwMemory15_hidl_readRangeEPNS_8hardware10IInterfaceEPNS4_7details16HidlInstrumentorEyy"
  },
  {
   "name":"_ZN7android4hidl6memory4V1_010BpHwMemory16_hidl_getPointerEPNS_8hardware10IInterfaceEPNS4_7details16HidlInstrumentorE"
  },
  {
   "name":"_ZN7android4hidl6memory4V1_010BpHwMemory17_hidl_updateRangeEPNS_8hardware10IInterfaceEPNS4_7details16HidlInstrumentorEyy"
  },
  {
   "name":"_ZN7android4hidl6memory4V1_010BpHwMemory19interfaceDescriptorENSt3__18functionIFvRKNS_8hardware11hidl_stringEEEE"
  },
  {
   "name":"_ZN7android4hidl6memory4V1_010BpHwMemory21notifySyspropsChangedEv"
  },
  {
   "name":"_ZN7android4hidl6memory4V1_010BpHwMemory21setHALInstrumentationEv"
  },
  {
   "name":"_ZN7android4hidl6memory4V1_010BpHwMemory4pingEv"
  },
  {
   "name":"_ZN7android4hidl6memory4V1_010BpHwMemory4readEv"
  },
  {
   "name":"_ZN7android4hidl6memory4V1_010BpHwMemory5debugERKNS_8hardware11hidl_handleERKNS4_8hidl_vecINS4_11hidl_stringEEE"
  },
  {
   "name":"_ZN7android4hidl6memory4V1_010BpHwMemory6commitEv"
  },
  {
   "name":"_ZN7android4hidl6memory4V1_010BpHwMemory6updateEv"
  },
  {
   "name":"_ZN7android4hidl6memory4V1_010BpHwMemory7getSizeEv"
  },
  {
   "name":"_ZN7android4hidl6memory4V1_010BpHwMemory9readRangeEyy"
  },
  {
   "name":"_ZN7android4hidl6memory4V1_010BpHwMemoryC1ERKNS_2spINS_8hardware7IBinderEEE"
  },
  {
   "name":"_ZN7android4hidl6memory4V1_010BpHwMemoryC2ERKNS_2spINS_8hardware7IBinderEEE"
  },
  {
   "name":"_ZN7android4hidl6memory4V1_07IMapper10getServiceERKNSt3__112basic_stringIcNS4_11char_traitsIcEENS4_9allocatorIcEEEEb"
  },
  {
   "name":"_ZN7android4hidl6memory4V1_07IMapper11linkToDeathERKNS_2spINS_8hardware20hidl_death_recipientEEEy"
  },
  {
   "name":"_ZN7android4hidl6memory4V1_07IMapper12getDebugInfoENSt3__18functionIFvRKNS0_4base4V1_09DebugInfoEEEE"
  },
  {
   "name":"_ZN7android4hidl6memory4V1_07IMapper12getHashChainENSt3__18functionIFvRKNS_8hardware8hidl_vecINS6_10hidl_arrayIhLj32EJEEEEEEEE"
  },
  {
   "name":"_ZN7android4hidl6memory4V1_07IMapper13tryGetServiceERKNSt3__112basic_stringIcNS4_11char_traitsIcEENS4_9allocatorIcEEEEb"
  },
  {
   "name":"_ZN7android4hidl6memory4V1_07IMapper13unlinkToDeathERKNS_2spINS_8hardware20hidl_death_recipientEEE"
  },
  {
   "name":"_ZN7android4hidl6memory4V1_07IMapper14interfaceChainENSt3__18functionIFvRKNS_8hardware8hidl_vecINS6_11hidl_stringEEEEEE"
  },
  {
   "name":"_ZN7android4hidl6memory4V1_07IMapper17registerAsServiceERKNSt3__112basic_stringIcNS4_11char_traitsIcEENS4_9allocatorIcEEEE"
  },
  {
   "name":"_ZN7android4hidl6memory4V1_07IMapper19interfaceDescriptorENSt3__18functionIFvRKNS_8hardware11hidl_stringEEEE"
  },
  {
   "name":"_ZN7android4hidl6memory4V1_07IMapper21notifySyspropsChangedEv"
  },
  {
   "name":"_ZN7android4hidl6memory4V1_07IMapper21setHALInstrumentationEv"
  },
  {
   "name":"_ZN7android4hidl6memory4V1_07IMapper24registerForNotificationsERKNSt3__112basic_stringIcNS4_11char_traitsIcEENS4_9allocatorIcEEEERKNS_2spINS0_7manager4V1_020IServiceNotificationEEE"
  },
  {
   "name":"_ZN7android4hidl6memory4V1_07IMapper4pingEv"
  },
  {
   "name":"_ZN7android4hidl6memory4V1_07IMapper5debugERKNS_8hardware11hidl_handleERKNS4_8hidl_vecINS4_11hidl_stringEEE"
  },
  {
   "name":"_ZN7android4hidl6memory4V1_07IMapper8castFromERKNS_2spINS0_4base4V1_05IBaseEEEb"
  },
  {
   "name":"_ZN7android4hidl6memory4V1_07IMapper8castFromERKNS_2spIS3_EEb"
  },
  {
   "name":"_ZN7android4hidl6memory4V1_07IMemory10getServiceERKNSt3__112basic_stringIcNS4_11char_traitsIcEENS4_9allocatorIcEEEEb"
  },
  {
   "name":"_ZN7android4hidl6memory4V1_07IMemory11linkToDeathERKNS_2spINS_8hardware20hidl_death_recipientEEEy"
  },
  {
   "name":"_ZN7android4hidl6memory4V1_07IMemory12getDebugInfoENSt3__18functionIFvRKNS0_4base4V1_09DebugInfoEEEE"
  },
  {
   "name":"_ZN7android4hidl6memory4V1_07IMemory12getHashChainENSt3__18functionIFvRKNS_8hardware8hidl_vecINS6_10hidl_arrayIhLj32EJEEEEEEEE"
  },
  {
   "name":"_ZN7android4hidl6memory4V1_07IMemory13tryGetServiceERKNSt3__112basic_stringIcNS4_11char_traitsIcEENS4_9allocatorIcEEEEb"
  },
  {
   "name":"_ZN7android4hidl6memory4V1_07IMemory13unlinkToDeathERKNS_2spINS_8hardware20hidl_death_recipientEEE"
  },
  {
   "name":"_ZN7android4hidl6memory4V1_07IMemory14interfaceChainENSt3__18functionIFvRKNS_8hardware8hidl_vecINS6_11hidl_stringEEEEEE"
  },
  {
   "name":"_ZN7android4hidl6memory4V1_07IMemory17registerAsServiceERKNSt3__112basic_stringIcNS4_11char_traitsIcEENS4_9allocatorIcEEEE"
  },
  {
   "name":"_ZN7android4hidl6memory4V1_07IMemory19interfaceDescriptorENSt3__18functionIFvRKNS_8hardware11hidl_stringEEEE"
  },
  {
   "name":"_ZN7android4hidl6memory4V1_07IMemory21notifySyspropsChangedEv"
  },
  {
   "name":"_ZN7android4hidl6memory4V1_07IMemory21setHALInstrumentationEv"
  },
  {
   "name":"_ZN7android4hidl6memory4V1_07IMemory24registerForNotificationsERKNSt3__112basic_stringIcNS4_11char_traitsIcEENS4_9allocatorIcEEEERKNS_2spINS0_7manager4V1_020IServiceNotificationEEE"
  },
  {
   "name":"_ZN7android4hidl6memory4V1_07IMemory4pingEv"
  },
  {
   "name":"_ZN7android4hidl6memory4V1_07IMemory5debugERKNS_8hardware11hidl_handleERKNS4_8hidl_vecINS4_11hidl_stringEEE"
  },
  {
   "name":"_ZN7android4hidl6memory4V1_07IMemory8castFromERKNS_2spINS0_4base4V1_05IBaseEEEb"
  },
  {
   "name":"_ZN7android4hidl6memory4V1_07IMemory8castFromERKNS_2spIS3_EEb"
  },
  {
   "name":"_ZN7android4hidl6memory4V1_08BsMapper13addOnewayTaskENSt3__18functionIFvvEEE"
  },
  {
   "name":"_ZN7android4hidl6memory4V1_08BsMapperC1ENS_2spINS2_7IMapperEEE"
  },
  {
   "name":"_ZN7android4hidl6memory4V1_08BsMapperC2ENS_2spINS2_7IMapperEEE"
  },
  {
   "name":"_ZN7android4hidl6memory4V1_08BsMemory13addOnewayTaskENSt3__18functionIFvvEEE"
  },
  {
   "name":"_ZN7android4hidl6memory4V1_08BsMemoryC1ENS_2spINS2_7IMemoryEEE"
  },
  {
   "name":"_ZN7android4hidl6memory4V1_08BsMemoryC2ENS_2spINS2_7IMemoryEEE"
  },
  {
   "binding":"weak",
   "name":"_ZN7android8hardware10fromBinderINS_4hidl6memory4V1_07IMemoryENS4_10BpHwMemoryENS4_10BnHwMemoryEEENS_2spIT_EERKNS8_INS0_7IBinderEEE"
  },
  {
   "binding":"weak",
   "name":"_ZN7android8hardware7details13castInterfaceINS_4hidl6memory4V1_07IMapperENS3_4base4V1_05IBaseENS5_10BpHwMapperEEENS0_6ReturnINS_2spIT_EEEENSC_IT0_EEPKcb"
  },
  {
   "binding":"weak",
   "name":"_ZN7android8hardware7details13castInterfaceINS_4hidl6memory4V1_07IMemoryENS3_4base4V1_05IBaseENS5_10BpHwMemoryEEENS0_6ReturnINS_2spIT_EEEENSC_IT0_EEPKcb"
  },
  {
   "binding":"weak",
   "name":"_ZN7android8hardware7details18getServiceInternalINS_4hidl6memory4V1_010BpHwMapperENS5_7IMapperEvvEENS_2spIT0_EERKNSt3__112basic_stringIcNSB_11char_traitsIcEENSB_9allocatorIcEEEEbb"
  },
  {
   "binding":"weak",
   "name":"_ZN7android8hardware7details18getServiceInternalINS_4hidl6memory4V1_010BpHwMemoryENS5_7IMemoryEvvEENS_2spIT0_EERKNSt3__112basic_stringIcNSB_11char_traitsIcEENSB_9allocatorIcEEEEbb"
  },
  {
   "binding":"weak",
   "name":"_ZN7android8hardware8toBinderINS_4hidl4base4V1_05IBaseEvEENS_2spINS0_7IBinderEEENS6_IT_EE"
  },
  {
   "binding":"weak",
   "name":"_ZN7android8hardware8toBinderINS_4hidl6memory4V1_07IMemoryEvEENS_2spINS0_7IBinderEEENS6_IT_EE"
  },
  {
   "name":"_ZThn20_N7android4hidl6memory4V1_010BnHwMapperD0Ev"
  },
  {
   "name":"_ZThn20_N7android4hidl6memory4V1_010BnHwMapperD1Ev"
  },
  {
   "name":"_ZThn20_N7android4hidl6memory4V1_010BnHwMemoryD0Ev"
  },
  {
   "name":"_ZThn20_N7android4hidl6memory4V1_010BnHwMemoryD1Ev"
  },
  {
   "name":"_ZTv0_n12_N7android4hidl6memory4V1_010BnHwMapperD0Ev"
  },
  {
   "name":"_ZTv0_n12_N7android4hidl6memory4V1_010BnHwMapperD1Ev"
  },
  {
   "name":"_ZTv0_n12_N7android4hidl6memory4V1_010BnHwMemoryD0Ev"
  },
  {
   "name":"_ZTv0_n12_N7android4hidl6memory4V1_010BnHwMemoryD1Ev"
  }
 ],
 "elf_objects":[
  {
   "name":"_ZN7android4hidl6memory4V1_07IMapper10descriptorE"
  },
  {
   "name":"_ZN7android4hidl6memory4V1_07IMemory10descriptorE"
  },
  {
   "name":"_ZTTN7android4hidl6memory4V1_010BnHwMapperE"
  },
  {
   "name":"_ZTTN7android4hidl6memory4V1_010BnHwMemoryE"
  },
  {
   "name":"_ZTTN7android4hidl6memory4V1_010BpHwMapperE"
  },
  {
   "name":"_ZTTN7android4hidl6memory4V1_010BpHwMemoryE"
  },
  {
   "name":"_ZTTN7android4hidl6memory4V1_07IMapperE"
  },
  {
   "name":"_ZTTN7android4hidl6memory4V1_07IMemoryE"
  },
  {
   "name":"_ZTVN7android4hidl6memory4V1_010BnHwMapperE"
  },
  {
   "name":"_ZTVN7android4hidl6memory4V1_010BnHwMemoryE"
  },
  {
   "name":"_ZTVN7android4hidl6memory4V1_010BpHwMapperE"
  },
  {
   "name":"_ZTVN7android4hidl6memory4V1_010BpHwMemoryE"
  },
  {
   "name":"_ZTVN7android4hidl6memory4V1_07IMapperE"
  },
  {
   "name":"_ZTVN7android4hidl6memory4V1_07IMemoryE"
  },
  {
   "binding":"weak",
   "name":"_ZTVN7android4hidl6memory4V1_08BsMapperE"
  },
  {
   "binding":"weak",
   "name":"_ZTVN7android4hidl6memory4V1_08BsMemoryE"
  }
 ]
}