{
 "record_types":[
  {
   "vtable_components":[
    {
     "kind":"vbase_offset",
     "component_value":4
    },
    {
     "kind":"offset_to_top"
    },
    {
     "kind":"rtti",
     "mangled_component_name":"_ZTIN7android8hardware14secure_element4V1_025ISecureElementHalCallbackE"
    },
    {
     "mangled_component_name":"_ZNK7android8hardware14secure_element4V1_025ISecureElementHalCallback8isRemoteEv"
    },
    {
     "mangled_component_name":"_ZN7android8hardware14secure_element4V1_025ISecureElementHalCallback14interfaceChainENSt3__18functionIFvRKNS0_8hidl_vecINS0_11hidl_stringEEEEEE"
    },
    {
     "mangled_component_name":"_ZN7android8hardware14secure_element4V1_025ISecureElementHalCallback5debugERKNS0_11hidl_handleERKNS0_8hidl_vecINS0_11hidl_stringEEE"
    },
    {
     "mangled_component_name":"_ZN7android8hardware14secure_element4V1_025ISecureElementHalCallback19interfaceDescriptorENSt3__18functionIFvRKNS0_11hidl_stringEEEE"
    },
    {
     "mangled_component_name":"_ZN7android8hardware14secure_element4V1_025ISecureElementHalCallback12getHashChainENSt3__18functionIFvRKNS0_8hidl_vecINS0_10hidl_arrayIhLj32EJEEEEEEEE"
    },
    {
     "mangled_component_name":"_ZN7android8hardware14secure_element4V1_025ISecureElementHalCallback21setHALInstrumentationEv"
    },
    {
     "mangled_component_name":"_ZN7android8hardware14secure_element4V1_025ISecureElementHalCallback11linkToDeathERKNS_2spINS0_20hidl_death_recipientEEEy"
    },
    {
     "mangled_component_name":"_ZN7android8hardware14secure_element4V1_025ISecureElementHalCallback4pingEv"
    },
    {
     "mangled_component_name":"_ZN7android8hardware14secure_element4V1_025ISecureElementHalCallback12getDebugInfoENSt3__18functionIFvRKNS_4hidl4base4V1_09DebugInfoEEEE"
    },
    {
     "mangled_component_name":"_ZN7android8hardware14secure_element4V1_025ISecureElementHalCallback21notifySyspropsChangedEv"
    },
    {
     "mangled_component_name":"_ZN7android8hardware14secure_element4V1_025ISecureElementHalCallback13unlinkToDeathERKNS_2spINS0_20hidl_death_recipientEEE"
    },
    {
     "kind":"complete_dtor_pointer",
     "mangled_component_name":"_ZN7android8hardware14secure_element4V1_025ISecureElementHalCallbackD1Ev"
    },
    {
     "kind":"deleting_dtor_pointer",
     "mangled_component_name":"_ZN7android8hardware14secure_element4V1_025ISecureElementHalCallbackD0Ev"
    },
    {
     "is_pure":true,
     "mangled_component_name":"_ZN7android8hardware14secure_element4V1_025ISecureElementHalCallback13onStateChangeEb"
    },
    {
     "kind":"vcall_offset"
    },
    {
     "kind":"vcall_offset"
    },
    {
     "kind":"vcall_offset"
    },
    {
     "kind":"vcall_offset"
    },
    {
     "kind":"vcall_offset",
     "component_value":-4
    },
    {
     "kind":"offset_to_top",
     "component_value":-4
    },
    {
     "kind":"rtti",
     "mangled_component_name":"_ZTIN7android8hardware14secure_element4V1_025ISecureElementHalCallbackE"
    },
    {
     "kind":"complete_dtor_pointer",
     "mangled_component_name":"_ZTv0_n12_N7android8hardware14secure_element4V1_025ISecureElementHalCallbackD1Ev"
    },
    {
     "kind":"deleting_dtor_pointer",
     "mangled_component_name":"_ZTv0_n12_N7android8hardware14secure_element4V1_025ISecureElementHalCallbackD0Ev"
    },
    {
     "mangled_component_name":"_ZN7android7RefBase10onFirstRefEv"
    },
    {
     "mangled_component_name":"_ZN7android7RefBase15onLastStrongRefEPKv"
    },
    {
     "mangled_component_name":"_ZN7android7RefBase20onIncStrongAttemptedEjPKv"
    },
    {
     "mangled_component_name":"_ZN7android7RefBase13onLastWeakRefEPKv"
    }
   ],
   "unique_id":"_ZTSN7android8hardware14secure_element4V1_025ISecureElementHalCallbackE"
  },
  {
   "vtable_components":[
    {
     "kind":"vbase_offset",
     "component_value":84
    },
    {
     "kind":"offset_to_top"
    },
    {
     "kind":"rtti",
     "mangled_component_name":"_ZTIN7android8hardware14secure_element4V1_028BpHwSecureElementHalCallbackE"
    },
    {
     "mangled_component_name":"_ZNK7android8hardware14secure_element4V1_028BpHwSecureElementHalCallback8isRemoteEv"
    },
    {
     "mangled_component_name":"_ZN7android8hardware14secure_element4V1_028BpHwSecureElementHalCallback14interfaceChainENSt3__18functionIFvRKNS0_8hidl_vecINS0_11hidl_stringEEEEEE"
    },
    {
     "mangled_component_name":"_ZN7android8hardware14secure_element4V1_028BpHwSecureElementHalCallback5debugERKNS0_11hidl_handleERKNS0_8hidl_vecINS0_11hidl_stringEEE"
    },
    {
     "mangled_component_name":"_ZN7android8hardware14secure_element4V1_028BpHwSecureElementHalCallback19interfaceDescriptorENSt3__18functionIFvRKNS0_11hidl_stringEEEE"
    },
    {
     "mangled_component_name":"_ZN7android8hardware14secure_element4V1_028BpHwSecureElementHalCallback12getHashChainENSt3__18functionIFvRKNS0_8hidl_vecINS0_10hidl_arrayIhLj32EJEEEEEEEE"
    },
    {
     "mangled_component_name":"_ZN7android8hardware14secure_element4V1_028BpHwSecureElementHalCallback21setHALInstrumentationEv"
    },
    {
     "mangled_component_name":"_ZN7android8hardware14secure_element4V1_028BpHwSecureElementHalCallback11linkToDeathERKNS_2spINS0_20hidl_death_recipientEEEy"
    },
    {
     "mangled_component_name":"_ZN7android8hardware14secure_element4V1_028BpHwSecureElementHalCallback4pingEv"
    },
    {
     "mangled_component_name":"_ZN7android8hardware14secure_element4V1_028BpHwSecureElementHalCallback12getDebugInfoENSt3__18functionIFvRKNS_4hidl4base4V1_09DebugInfoEEEE"
    },
    {
     "mangled_component_name":"_ZN7android8hardware14secure_element4V1_028BpHwSecureElementHalCallback21notifySyspropsChangedEv"
    },
    {
     "mangled_component_name":"_ZN7android8hardware14secure_element4V1_028BpHwSecureElementHalCallback13unlinkToDeathERKNS_2spINS0_20hidl_death_recipientEEE"
    },
    {
     "kind":"complete_dtor_pointer",
     "mangled_component_name":"_ZN7android8hardware14secure_element4V1_028BpHwSecureElementHalCallbackD1Ev"
    },
    {
     "kind":"deleting_dtor_pointer",
     "mangled_component_name":"_ZN7android8hardware14secure_element4V1_028BpHwSecureElementHalCallbackD0Ev"
    },
    {
     "mangled_component_name":"_ZN7android8hardware14secure_element4V1_028BpHwSecureElementHalCallback13onStateChangeEb"
    },
    {
     "mangled_component_name":"_ZN7android8hardware11BpInterfaceINS0_14secure_element4V1_025ISecureElementHalCallbackEE10onAsBinderEv"
    },
    {
     "kind":"vbase_offset",
     "component_value":80
    },
    {
     "kind":"offset_to_top",
     "component_value":-4
    },
    {
     "kind":"rtti",
     "mangled_component_name":"_ZTIN7android8hardware14secure_element4V1_028BpHwSecureElementHalCallbackE"
    },
    {
     "kind":"complete_dtor_pointer",
     "mangled_component_name":"_ZThn4_N7android8hardware14secure_element4V1_028BpHwSecureElementHalCallbackD1Ev"
    },
    {
     "kind":"deleting_dtor_pointer",
     "mangled_component_name":"_ZThn4_N7android8hardware14secure_element4V1_028BpHwSecureElementHalCallbackD0Ev"
    },
    {
     "mangled_component_name":"_ZThn4_N7android8hardware11BpInterfaceINS0_14secure_element4V1_025ISecureElementHalCallbackEE10onAsBinderEv"
    },
    {
     "kind":"vbase_offset",
     "component_value":76
    },
    {
     "kind":"offset_to_top",
     "component_value":-8
    },
    {
     "kind":"rtti",
     "mangled_component_name":"_ZTIN7android8hardware14secure_element4V1_028BpHwSecureElementHalCallbackE"
    },
    {
     "kind":"complete_dtor_pointer",
     "mangled_component_name":"_ZThn8_N7android8hardware14secure_element4V1_028BpHwSecureElementHalCallbackD1Ev"
    },
    {
     "kind":"deleting_dtor_pointer",
     "mangled_component_name":"_ZThn8_N7android8hardware14secure_element4V1_028BpHwSecureElementHalCallbackD0Ev"
    },
    {
     "mangled_component_name":"_ZN7android8hardware11BpHwRefBase10onFirstRefEv"
    },
    {
     "mangled_component_name":"_ZN7android8hardware11BpHwRefBase15onLastStrongRefEPKv"
    },
    {
     "mangled_component_name":"_ZN7android8hardware11BpHwRefBase20onIncStrongAttemptedEjPKv"
    },
    {
     "kind":"offset_to_top",
     "component_value":-24
    },
    {
     "kind":"rtti",
     "mangled_component_name":"_ZTIN7android8hardware14secure_element4V1_028BpHwSecureElementHalCallbackE"
    },
    {
     "kind":"complete_dtor_pointer",
     "mangled_component_name":"_ZThn24_N7android8hardware14secure_element4V1_028BpHwSecureElementHalCallbackD1Ev"
    },
    {
     "kind":"deleting_dtor_pointer",
     "mangled_component_name":"_ZThn24_N7android8hardware14secure_element4V1_028BpHwSecureElementHalCallbackD0Ev"
    },
    {
     "kind":"vcall_offset"
    },
    {
     "kind":"vcall_offset",
     "component_value":-76
    },
    {
     "kind":"vcall_offset",
     "component_value":-76
    },
    {
     "kind":"vcall_offset",
     "component_value":-76
    },
    {
     "kind":"vcall_offset",
     "component_value":-84
    },
    {
     "kind":"offset_to_top",
     "component_value":-84
    },
    {
     "kind":"rtti",
     "mangled_component_name":"_ZTIN7android8hardware14secure_element4V1_028BpHwSecureElementHalCallbackE"
    },
    {
     "kind":"complete_dtor_pointer",
     "mangled_component_name":"_ZTv0_n12_N7android8hardware14secure_element4V1_028BpHwSecureElementHalCallbackD1Ev"
    },
    {
     "kind":"deleting_dtor_pointer",
     "mangled_component_name":"_ZTv0_n12_N7android8hardware14secure_element4V1_028BpHwSecureElementHalCallbackD0Ev"
    },
    {
     "mangled_component_name":"_ZTv0_n16_N7android8hardware11BpHwRefBase10onFirstRefEv"
    },
    {
     "mangled_component_name":"_ZTv0_n20_N7android8hardware11BpHwRefBase15onLastStrongRefEPKv"
    },
    {
     "mangled_component_name":"_ZTv0_n24_N7android8hardware11BpHwRefBase20onIncStrongAttemptedEjPKv"
    },
    {
     "mangled_component_name":"_ZN7android7RefBase13onLastWeakRefEPKv"
    }
   ],
   "unique_id":"_ZTSN7android8hardware14secure_element4V1_028BpHwSecureElementHalCallbackE"
  },
  {
   "vtable_components":[
    {
     "kind":"vbase_offset",
     "component_value":4
    },
    {
     "kind":"offset_to_top"
    },
    {
     "kind":"rtti",
     "mangled_component_name":"_ZTIN7android8hardware14secure_element4V1_014ISecureElementE"
    },
    {
     "mangled_component_name":"_ZNK7android8hardware14secure_element4V1_014ISecureElement8isRemoteEv"
    },
    {
     "mangled_component_name":"_ZN7android8hardware14secure_element4V1_014ISecureElement14interfaceChainENSt3__18functionIFvRKNS0_8hidl_vecINS0_11hidl_stringEEEEEE"
    },
    {
     "mangled_component_name":"_ZN7android8hardware14secure_element4V1_014ISecureElement5debugERKNS0_11hidl_handleERKNS0_8hidl_vecINS0_11hidl_stringEEE"
    },
    {
     "mangled_component_name":"_ZN7android8hardware14secure_element4V1_014ISecureElement19interfaceDescriptorENSt3__18functionIFvRKNS0_11hidl_stringEEEE"
    },
    {
     "mangled_component_name":"_ZN7android8hardware14secure_element4V1_014ISecureElement12getHashChainENSt3__18functionIFvRKNS0_8hidl_vecINS0_10hidl_arrayIhLj32EJEEEEEEEE"
    },
    {
     "mangled_component_name":"_ZN7android8hardware14secure_element4V1_014ISecureElement21setHALInstrumentationEv"
    },
    {
     "mangled_component_name":"_ZN7android8hardware14secure_element4V1_014ISecureElement11linkToDeathERKNS_2spINS0_20hidl_death_recipientEEEy"
    },
    {
     "mangled_component_name":"_ZN7android8hardware14secure_element4V1_014ISecureElement4pingEv"
    },
    {
     "mangled_component_name":"_ZN7android8hardware14secure_element4V1_014ISecureElement12getDebugInfoENSt3__18functionIFvRKNS_4hidl4base4V1_09DebugInfoEEEE"
    },
    {
     "mangled_component_name":"_ZN7android8hardware14secure_element4V1_014ISecureElement21notifySyspropsChangedEv"
    },
    {
     "mangled_component_name":"_ZN7android8hardware14secure_element4V1_014ISecureElement13unlinkToDeathERKNS_2spINS0_20hidl_death_recipientEEE"
    },
    {
     "kind":"complete_dtor_pointer",
     "mangled_component_name":"_ZN7android8hardware14secure_element4V1_014ISecureElementD1Ev"
    },
    {
     "kind":"deleting_dtor_pointer",
     "mangled_component_name":"_ZN7android8hardware14secure_element4V1_014ISecureElementD0Ev"
    },
    {
     "is_pure":true,
     "mangled_component_name":"_ZN7android8hardware14secure_element4V1_014ISecureElement4initERKNS_2spINS2_25ISecureElementHalCallbackEEE"
    },
    {
     "is_pure":true,
     "mangled_component_name":"_ZN7android8hardware14secure_element4V1_014ISecureElement6getAtrENSt3__18functionIFvRKNS0_8hidl_vecIhEEEEE"
    },
    {
     "is_pure":true,
     "mangled_component_name":"_ZN7android8hardware14secure_element4V1_014ISecureElement13isCardPresentEv"
    },
    {
     "is_pure":true,
     "mangled_component_name":"_ZN7android8hardware14secure_element4V1_014ISecureElement8transmitERKNS0_8hidl_vecIhEENSt3__18functionIFvS7_EEE"
    },
    {
     "is_pure":true,
     "mangled_component_name":"_ZN7android8hardware14secure_element4V1_014ISecureElement18openLogicalChannelERKNS0_8hidl_vecIhEEhNSt3__18functionIFvRKNS2_22LogicalChannelResponseENS2_19SecureElementStatusEEEE"
    },
    {
     "is_pure":true,
     "mangled_component_name":"_ZN7android8hardware14secure_element4V1_014ISecureElement16openBasicChannelERKNS0_8hidl_vecIhEEhNSt3__18functionIFvS7_NS2_19SecureElementStatusEEEE"
    },
    {
     "is_pure":true,
     "mangled_component_name":"_ZN7android8hardware14secure_element4V1_014ISecureElement12closeChannelEh"
    },
    {
     "kind":"vcall_offset"
    },
    {
     "kind":"vcall_offset"
    },
    {
     "kind":"vcall_offset"
    },
    {
     "kind":"vcall_offset"
    },
    {
     "kind":"vcall_offset",
     "component_value":-4
    },
    {
     "kind":"offset_to_top",
     "component_value":-4
    },
    {
     "kind":"rtti",
     "mangled_component_name":"_ZTIN7android8hardware14secure_element4V1_014ISecureElementE"
    },
    {
     "kind":"complete_dtor_pointer",
     "mangled_component_name":"_ZTv0_n12_N7android8hardware14secure_element4V1_014ISecureElementD1Ev"
    },
    {
     "kind":"deleting_dtor_pointer",
     "mangled_component_name":"_ZTv0_n12_N7android8hardware14secure_element4V1_014ISecureElementD0Ev"
    },
    {
     "mangled_component_name":"_ZN7android7RefBase10onFirstRefEv"
    },
    {
     "mangled_component_name":"_ZN7android7RefBase15onLastStrongRefEPKv"
    },
    {
     "mangled_component_name":"_ZN7android7RefBase20onIncStrongAttemptedEjPKv"
    },
    {
     "mangled_component_name":"_ZN7android7RefBase13onLastWeakRefEPKv"
    }
   ],
   "unique_id":"_ZTSN7android8hardware14secure_element4V1_014ISecureElementE"
  },
  {
   "vtable_components":[
    {
     "kind":"vbase_offset",
     "component_value":72
    },
    {
     "kind":"offset_to_top"
    },
    {
     "kind":"rtti",
     "mangled_component_name":"_ZTIN7android8hardware14secure_element4V1_017BnHwSecureElementE"
    },
    {
     "mangled_component_name":"_ZN7android8hardware9BHwBinder8transactEjRKNS0_6ParcelEPS2_jNSt3__18functionIFvRS2_EEE"
    },
    {
     "mangled_component_name":"_ZN7android8hardware9BHwBinder11linkToDeathERKNS_2spINS0_7IBinder14DeathRecipientEEEPvj"
    },
    {
     "mangled_component_name":"_ZN7android8hardware9BHwBinder13unlinkToDeathERKNS_2wpINS0_7IBinder14DeathRecipientEEEPvjPS5_"
    },
    {
     "mangled_component_name":"_ZNK7android8hardware7IBinder13checkSubclassEPKv"
    },
    {
     "mangled_component_name":"_ZN7android8hardware9BHwBinder12attachObjectEPKvPvS4_PFvS3_S4_S4_E"
    },
    {
     "mangled_component_name":"_ZNK7android8hardware9BHwBinder10findObjectEPKv"
    },
    {
     "mangled_component_name":"_ZN7android8hardware9BHwBinder12detachObjectEPKv"
    },
    {
     "mangled_component_name":"_ZN7android8hardware9BHwBinder11localBinderEv"
    },
    {
     "mangled_component_name":"_ZN7android8hardware7IBinder12remoteBinderEv"
    },
    {
     "kind":"complete_dtor_pointer",
     "mangled_component_name":"_ZN7android8hardware14secure_element4V1_017BnHwSecureElementD1Ev"
    },
    {
     "kind":"deleting_dtor_pointer",
     "mangled_component_name":"_ZN7android8hardware14secure_element4V1_017BnHwSecureElementD0Ev"
    },
    {
     "mangled_component_name":"_ZN7android8hardware14secure_element4V1_017BnHwSecureElement10onTransactEjRKNS0_6ParcelEPS4_jNSt3__18functionIFvRS4_EEE"
    },
    {
     "kind":"offset_to_top",
     "component_value":-20
    },
    {
     "kind":"rtti",
     "mangled_component_name":"_ZTIN7android8hardware14secure_element4V1_017BnHwSecureElementE"
    },
    {
     "kind":"complete_dtor_pointer",
     "mangled_component_name":"_ZThn20_N7android8hardware14secure_element4V1_017BnHwSecureElementD1Ev"
    },
    {
     "kind":"deleting_dtor_pointer",
     "mangled_component_name":"_ZThn20_N7android8hardware14secure_element4V1_017BnHwSecureElementD0Ev"
    },
    {
     "kind":"vcall_offset"
    },
    {
     "kind":"vcall_offset"
    },
    {
     "kind":"vcall_offset"
    },
    {
     "kind":"vcall_offset"
    },
    {
     "kind":"vcall_offset",
     "component_value":-72
    },
    {
     "kind":"offset_to_top",
     "component_value":-72
    },
    {
     "kind":"rtti",
     "mangled_component_name":"_ZTIN7android8hardware14secure_element4V1_017BnHwSecureElementE"
    },
    {
     "kind":"complete_dtor_pointer",
     "mangled_component_name":"_ZTv0_n12_N7android8hardware14secure_element4V1_017BnHwSecureElementD1Ev"
    },
    {
     "kind":"deleting_dtor_pointer",
     "mangled_component_name":"_ZTv0_n12_N7android8hardware14secure_element4V1_017BnHwSecureElementD0Ev"
    },
    {
     "mangled_component_name":"_ZN7android7RefBase10onFirstRefEv"
    },
    {
     "mangled_component_name":"_ZN7android7RefBase15onLastStrongRefEPKv"
    },
    {
     "mangled_component_name":"_ZN7android7RefBase20onIncStrongAttemptedEjPKv"
    },
    {
     "mangled_component_name":"_ZN7android7RefBase13onLastWeakRefEPKv"
    }
   ],
   "unique_id":"_ZTSN7android8hardware14secure_element4V1_017BnHwSecureElementE"
  },
  {
   "vtable_components":[
    {
     "kind":"vbase_offset",
     "component_value":72
    },
    {
     "kind":"offset_to_top"
    },
    {
     "kind":"rtti",
     "mangled_component_name":"_ZTIN7android8hardware14secure_element4V1_028BnHwSecureElementHalCallbackE"
    },
    {
     "mangled_component_name":"_ZN7android8hardware9BHwBinder8transactEjRKNS0_6ParcelEPS2_jNSt3__18functionIFvRS2_EEE"
    },
    {
     "mangled_component_name":"_ZN7android8hardware9BHwBinder11linkToDeathERKNS_2spINS0_7IBinder14DeathRecipientEEEPvj"
    },
    {
     "mangled_component_name":"_ZN7android8hardware9BHwBinder13unlinkToDeathERKNS_2wpINS0_7IBinder14DeathRecipientEEEPvjPS5_"
    },
    {
     "mangled_component_name":"_ZNK7android8hardware7IBinder13checkSubclassEPKv"
    },
    {
     "mangled_component_name":"_ZN7android8hardware9BHwBinder12attachObjectEPKvPvS4_PFvS3_S4_S4_E"
    },
    {
     "mangled_component_name":"_ZNK7android8hardware9BHwBinder10findObjectEPKv"
    },
    {
     "mangled_component_name":"_ZN7android8hardware9BHwBinder12detachObjectEPKv"
    },
    {
     "mangled_component_name":"_ZN7android8hardware9BHwBinder11localBinderEv"
    },
    {
     "mangled_component_name":"_ZN7android8hardware7IBinder12remoteBinderEv"
    },
    {
     "kind":"complete_dtor_pointer",
     "mangled_component_name":"_ZN7android8hardware14secure_element4V1_028BnHwSecureElementHalCallbackD1Ev"
    },
    {
     "kind":"deleting_dtor_pointer",
     "mangled_component_name":"_ZN7android8hardware14secure_element4V1_028BnHwSecureElementHalCallbackD0Ev"
    },
    {
     "mangled_component_name":"_ZN7android8hardware14secure_element4V1_028BnHwSecureElementHalCallback10onTransactEjRKNS0_6ParcelEPS4_jNSt3__18functionIFvRS4_EEE"
    },
    {
     "kind":"offset_to_top",
     "component_value":-20
    },
    {
     "kind":"rtti",
     "mangled_component_name":"_ZTIN7android8hardware14secure_element4V1_028BnHwSecureElementHalCallbackE"
    },
    {
     "kind":"complete_dtor_pointer",
     "mangled_component_name":"_ZThn20_N7android8hardware14secure_element4V1_028BnHwSecureElementHalCallbackD1Ev"
    },
    {
     "kind":"deleting_dtor_pointer",
     "mangled_component_name":"_ZThn20_N7android8hardware14secure_element4V1_028BnHwSecureElementHalCallbackD0Ev"
    },
    {
     "kind":"vcall_offset"
    },
    {
     "kind":"vcall_offset"
    },
    {
     "kind":"vcall_offset"
    },
    {
     "kind":"vcall_offset"
    },
    {
     "kind":"vcall_offset",
     "component_value":-72
    },
    {
     "kind":"offset_to_top",
     "component_value":-72
    },
    {
     "kind":"rtti",
     "mangled_component_name":"_ZTIN7android8hardware14secure_element4V1_028BnHwSecureElementHalCallbackE"
    },
    {
     "kind":"complete_dtor_pointer",
     "mangled_component_name":"_ZTv0_n12_N7android8hardware14secure_element4V1_028BnHwSecureElementHalCallbackD1Ev"
    },
    {
     "kind":"deleting_dtor_pointer",
     "mangled_component_name":"_ZTv0_n12_N7android8hardware14secure_element4V1_028BnHwSecureElementHalCallbackD0Ev"
    },
    {
     "mangled_component_name":"_ZN7android7RefBase10onFirstRefEv"
    },
    {
     "mangled_component_name":"_ZN7android7RefBase15onLastStrongRefEPKv"
    },
    {
     "mangled_component_name":"_ZN7android7RefBase20onIncStrongAttemptedEjPKv"
    },
    {
     "mangled_component_name":"_ZN7android7RefBase13onLastWeakRefEPKv"
    }
   ],
   "unique_id":"_ZTSN7android8hardware14secure_element4V1_028BnHwSecureElementHalCallbackE"
  },
  {
   "vtable_components":[
    {
     "kind":"vbase_offset",
     "component_value":84
    },
    {
     "kind":"offset_to_top"
    },
    {
     "kind":"rtti",
     "mangled_component_name":"_ZTIN7android8hardware14secure_element4V1_017BpHwSecureElementE"
    },
    {
     "mangled_component_name":"_ZNK7android8hardware14secure_element4V1_017BpHwSecureElement8isRemoteEv"
    },
    {
     "mangled_component_name":"_ZN7android8hardware14secure_element4V1_017BpHwSecureElement14interfaceChainENSt3__18functionIFvRKNS0_8hidl_vecINS0_11hidl_stringEEEEEE"
    },
    {
     "mangled_component_name":"_ZN7android8hardware14secure_element4V1_017BpHwSecureElement5debugERKNS0_11hidl_handleERKNS0_8hidl_vecINS0_11hidl_stringEEE"
    },
    {
     "mangled_component_name":"_ZN7android8hardware14secure_element4V1_017BpHwSecureElement19interfaceDescriptorENSt3__18functionIFvRKNS0_11hidl_stringEEEE"
    },
    {
     "mangled_component_name":"_ZN7android8hardware14secure_element4V1_017BpHwSecureElement12getHashChainENSt3__18functionIFvRKNS0_8hidl_vecINS0_10hidl_arrayIhLj32EJEEEEEEEE"
    },
    {
     "mangled_component_name":"_ZN7android8hardware14secure_element4V1_017BpHwSecureElement21setHALInstrumentationEv"
    },
    {
     "mangled_component_name":"_ZN7android8hardware14secure_element4V1_017BpHwSecureElement11linkToDeathERKNS_2spINS0_20hidl_death_recipientEEEy"
    },
    {
     "mangled_component_name":"_ZN7android8hardware14secure_element4V1_017BpHwSecureElement4pingEv"
    },
    {
     "mangled_component_name":"_ZN7android8hardware14secure_element4V1_017BpHwSecureElement12getDebugInfoENSt3__18functionIFvRKNS_4hidl4base4V1_09DebugInfoEEEE"
    },
    {
     "mangled_component_name":"_ZN7android8hardware14secure_element4V1_017BpHwSecureElement21notifySyspropsChangedEv"
    },
    {
     "mangled_component_name":"_ZN7android8hardware14secure_element4V1_017BpHwSecureElement13unlinkToDeathERKNS_2spINS0_20hidl_death_recipientEEE"
    },
    {
     "kind":"complete_dtor_pointer",
     "mangled_component_name":"_ZN7android8hardware14secure_element4V1_017BpHwSecureElementD1Ev"
    },
    {
     "kind":"deleting_dtor_pointer",
     "mangled_component_name":"_ZN7android8hardware14secure_element4V1_017BpHwSecureElementD0Ev"
    },
    {
     "mangled_component_name":"_ZN7android8hardware14secure_element4V1_017BpHwSecureElement4initERKNS_2spINS2_25ISecureElementHalCallbackEEE"
    },
    {
     "mangled_component_name":"_ZN7android8hardware14secure_element4V1_017BpHwSecureElement6getAtrENSt3__18functionIFvRKNS0_8hidl_vecIhEEEEE"
    },
    {
     "mangled_component_name":"_ZN7android8hardware14secure_element4V1_017BpHwSecureElement13isCardPresentEv"
    },
    {
     "mangled_component_name":"_ZN7android8hardware14secure_element4V1_017BpHwSecureElement8transmitERKNS0_8hidl_vecIhEENSt3__18functionIFvS7_EEE"
    },
    {
     "mangled_component_name":"_ZN7android8hardware14secure_element4V1_017BpHwSecureElement18openLogicalChannelERKNS0_8hidl_vecIhEEhNSt3__18functionIFvRKNS2_22LogicalChannelResponseENS2_19SecureElementStatusEEEE"
    },
    {
     "mangled_component_name":"_ZN7android8hardware14secure_element4V1_017BpHwSecureElement16openBasicChannelERKNS0_8hidl_vecIhEEhNSt3__18functionIFvS7_NS2_19SecureElementStatusEEEE"
    },
    {
     "mangled_component_name":"_ZN7android8hardware14secure_element4V1_017BpHwSecureElement12closeChannelEh"
    },
    {
     "mangled_component_name":"_ZN7android8hardware11BpInterfaceINS0_14secure_element4V1_014ISecureElementEE10onAsBinderEv"
    },
    {
     "kind":"vbase_offset",
     "component_value":80
    },
    {
     "kind":"offset_to_top",
     "component_value":-4
    },
    {
     "kind":"rtti",
     "mangled_component_name":"_ZTIN7android8hardware14secure_element4V1_017BpHwSecureElementE"
    },
    {
     "kind":"complete_dtor_pointer",
     "mangled_component_name":"_ZThn4_N7android8hardware14secure_element4V1_017BpHwSecureElementD1Ev"
    },
    {
     "kind":"deleting_dtor_pointer",
     "mangled_component_name":"_ZThn4_N7android8hardware14secure_element4V1_017BpHwSecureElementD0Ev"
    },
    {
     "mangled_component_name":"_ZThn4_N7android8hardware11BpInterfaceINS0_14secure_element4V1_014ISecureElementEE10onAsBinderEv"
    },
    {
     "kind":"vbase_offset",
     "component_value":76
    },
    {
     "kind":"offset_to_top",
     "component_value":-8
    },
    {
     "kind":"rtti",
     "mangled_component_name":"_ZTIN7android8hardware14secure_element4V1_017BpHwSecureElementE"
    },
    {
     "kind":"complete_dtor_pointer",
     "mangled_component_name":"_ZThn8_N7android8hardware14secure_element4V1_017BpHwSecureElementD1Ev"
    },
    {
     "kind":"deleting_dtor_pointer",
     "mangled_component_name":"_ZThn8_N7android8hardware14secure_element4V1_017BpHwSecureElementD0Ev"
    },
    {
     "mangled_component_name":"_ZN7android8hardware11BpHwRefBase10onFirstRefEv"
    },
    {
     "mangled_component_name":"_ZN7android8hardware11BpHwRefBase15onLastStrongRefEPKv"
    },
    {
     "mangled_component_name":"_ZN7android8hardware11BpHwRefBase20onIncStrongAttemptedEjPKv"
    },
    {
     "kind":"offset_to_top",
     "component_value":-24
    },
    {
     "kind":"rtti",
     "mangled_component_name":"_ZTIN7android8hardware14secure_element4V1_017BpHwSecureElementE"
    },
    {
     "kind":"complete_dtor_pointer",
     "mangled_component_name":"_ZThn24_N7android8hardware14secure_element4V1_017BpHwSecureElementD1Ev"
    },
    {
     "kind":"deleting_dtor_pointer",
     "mangled_component_name":"_ZThn24_N7android8hardware14secure_element4V1_017BpHwSecureElementD0Ev"
    },
    {
     "kind":"vcall_offset"
    },
    {
     "kind":"vcall_offset",
     "component_value":-76
    },
    {
     "kind":"vcall_offset",
     "component_value":-76
    },
    {
     "kind":"vcall_offset",
     "component_value":-76
    },
    {
     "kind":"vcall_offset",
     "component_value":-84
    },
    {
     "kind":"offset_to_top",
     "component_value":-84
    },
    {
     "kind":"rtti",
     "mangled_component_name":"_ZTIN7android8hardware14secure_element4V1_017BpHwSecureElementE"
    },
    {
     "kind":"complete_dtor_pointer",
     "mangled_component_name":"_ZTv0_n12_N7android8hardware14secure_element4V1_017BpHwSecureElementD1Ev"
    },
    {
     "kind":"deleting_dtor_pointer",
     "mangled_component_name":"_ZTv0_n12_N7android8hardware14secure_element4V1_017BpHwSecureElementD0Ev"
    },
    {
     "mangled_component_name":"_ZTv0_n16_N7android8hardware11BpHwRefBase10onFirstRefEv"
    },
    {
     "mangled_component_name":"_ZTv0_n20_N7android8hardware11BpHwRefBase15onLastStrongRefEPKv"
    },
    {
     "mangled_component_name":"_ZTv0_n24_N7android8hardware11BpHwRefBase20onIncStrongAttemptedEjPKv"
    },
    {
     "mangled_component_name":"_ZN7android7RefBase13onLastWeakRefEPKv"
    }
   ],
   "unique_id":"_ZTSN7android8hardware14secure_element4V1_017BpHwSecureElementE"
  },
  {
   "vtable_components":[
    {
     "kind":"vbase_offset",
     "component_value":60
    },
    {
     "kind":"offset_to_top"
    },
    {
     "kind":"rtti",
     "mangled_component_name":"_ZTIN7android8hardware14secure_element4V1_026BsSecureElementHalCallbackE"
    },
    {
     "mangled_component_name":"_ZNK7android8hardware14secure_element4V1_025ISecureElementHalCallback8isRemoteEv"
    },
    {
     "mangled_component_name":"_ZN7android8hardware14secure_element4V1_026BsSecureElementHalCallback14interfaceChainENSt3__18functionIFvRKNS0_8hidl_vecINS0_11hidl_stringEEEEEE"
    },
    {
     "mangled_component_name":"_ZN7android8hardware14secure_element4V1_026BsSecureElementHalCallback5debugERKNS0_11hidl_handleERKNS0_8hidl_vecINS0_11hidl_stringEEE"
    },
    {
     "mangled_component_name":"_ZN7android8hardware14secure_element4V1_026BsSecureElementHalCallback19interfaceDescriptorENSt3__18functionIFvRKNS0_11hidl_stringEEEE"
    },
    {
     "mangled_component_name":"_ZN7android8hardware14secure_element4V1_026BsSecureElementHalCallback12getHashChainENSt3__18functionIFvRKNS0_8hidl_vecINS0_10hidl_arrayIhLj32EJEEEEEEEE"
    },
    {
     "mangled_component_name":"_ZN7android8hardware14secure_element4V1_026BsSecureElementHalCallback21setHALInstrumentationEv"
    },
    {
     "mangled_component_name":"_ZN7android8hardware14secure_element4V1_026BsSecureElementHalCallback11linkToDeathERKNS_2spINS0_20hidl_death_recipientEEEy"
    },
    {
     "mangled_component_name":"_ZN7android8hardware14secure_element4V1_026BsSecureElementHalCallback4pingEv"
    },
    {
     "mangled_component_name":"_ZN7android8hardware14secure_element4V1_026BsSecureElementHalCallback12getDebugInfoENSt3__18functionIFvRKNS_4hidl4base4V1_09DebugInfoEEEE"
    },
    {
     "mangled_component_name":"_ZN7android8hardware14secure_element4V1_026BsSecureElementHalCallback21notifySyspropsChangedEv"
    },
    {
     "mangled_component_name":"_ZN7android8hardware14secure_element4V1_026BsSecureElementHalCallback13unlinkToDeathERKNS_2spINS0_20hidl_death_recipientEEE"
    },
    {
     "kind":"complete_dtor_pointer",
     "mangled_component_name":"_ZN7android8hardware14secure_element4V1_026BsSecureElementHalCallbackD1Ev"
    },
    {
     "kind":"deleting_dtor_pointer",
     "mangled_component_name":"_ZN7android8hardware14secure_element4V1_026BsSecureElementHalCallbackD0Ev"
    },
    {
     "mangled_component_name":"_ZN7android8hardware14secure_element4V1_026BsSecureElementHalCallback13onStateChangeEb"
    },
    {
     "kind":"offset_to_top",
     "component_value":-4
    },
    {
     "kind":"rtti",
     "mangled_component_name":"_ZTIN7android8hardware14secure_element4V1_026BsSecureElementHalCallbackE"
    },
    {
     "kind":"complete_dtor_pointer",
     "mangled_component_name":"_ZThn4_N7android8hardware14secure_element4V1_026BsSecureElementHalCallbackD1Ev"
    },
    {
     "kind":"deleting_dtor_pointer",
     "mangled_component_name":"_ZThn4_N7android8hardware14secure_element4V1_026BsSecureElementHalCallbackD0Ev"
    },
    {
     "kind":"vcall_offset"
    },
    {
     "kind":"vcall_offset"
    },
    {
     "kind":"vcall_offset"
    },
    {
     "kind":"vcall_offset"
    },
    {
     "kind":"vcall_offset",
     "component_value":-60
    },
    {
     "kind":"offset_to_top",
     "component_value":-60
    },
    {
     "kind":"rtti",
     "mangled_component_name":"_ZTIN7android8hardware14secure_element4V1_026BsSecureElementHalCallbackE"
    },
    {
     "kind":"complete_dtor_pointer",
     "mangled_component_name":"_ZTv0_n12_N7android8hardware14secure_element4V1_026BsSecureElementHalCallbackD1Ev"
    },
    {
     "kind":"deleting_dtor_pointer",
     "mangled_component_name":"_ZTv0_n12_N7android8hardware14secure_element4V1_026BsSecureElementHalCallbackD0Ev"
    },
    {
     "mangled_component_name":"_ZN7android7RefBase10onFirstRefEv"
    },
    {
     "mangled_component_name":"_ZN7android7RefBase15onLastStrongRefEPKv"
    },
    {
     "mangled_component_name":"_ZN7android7RefBase20onIncStrongAttemptedEjPKv"
    },
    {
     "mangled_component_name":"_ZN7android7RefBase13onLastWeakRefEPKv"
    }
   ],
   "unique_id":"_ZTSN7android8hardware14secure_element4V1_026BsSecureElementHalCallbackE"
  },
  {
   "vtable_components":[
    {
     "kind":"vbase_offset",
     "component_value":60
    },
    {
     "kind":"offset_to_top"
    },
    {
     "kind":"rtti",
     "mangled_component_name":"_ZTIN7android8hardware14secure_element4V1_015BsSecureElementE"
    },
    {
     "mangled_component_name":"_ZNK7android8hardware14secure_element4V1_014ISecureElement8isRemoteEv"
    },
    {
     "mangled_component_name":"_ZN7android8hardware14secure_element4V1_015BsSecureElement14interfaceChainENSt3__18functionIFvRKNS0_8hidl_vecINS0_11hidl_stringEEEEEE"
    },
    {
     "mangled_component_name":"_ZN7android8hardware14secure_element4V1_015BsSecureElement5debugERKNS0_11hidl_handleERKNS0_8hidl_vecINS0_11hidl_stringEEE"
    },
    {
     "mangled_component_name":"_ZN7android8hardware14secure_element4V1_015BsSecureElement19interfaceDescriptorENSt3__18functionIFvRKNS0_11hidl_stringEEEE"
    },
    {
     "mangled_component_name":"_ZN7android8hardware14secure_element4V1_015BsSecureElement12getHashChainENSt3__18functionIFvRKNS0_8hidl_vecINS0_10hidl_arrayIhLj32EJEEEEEEEE"
    },
    {
     "mangled_component_name":"_ZN7android8hardware14secure_element4V1_015BsSecureElement21setHALInstrumentationEv"
    },
    {
     "mangled_component_name":"_ZN7android8hardware14secure_element4V1_015BsSecureElement11linkToDeathERKNS_2spINS0_20hidl_death_recipientEEEy"
    },
    {
     "mangled_component_name":"_ZN7android8hardware14secure_element4V1_015BsSecureElement4pingEv"
    },
    {
     "mangled_component_name":"_ZN7android8hardware14secure_element4V1_015BsSecureElement12getDebugInfoENSt3__18functionIFvRKNS_4hidl4base4V1_09DebugInfoEEEE"
    },
    {
     "mangled_component_name":"_ZN7android8hardware14secure_element4V1_015BsSecureElement21notifySyspropsChangedEv"
    },
    {
     "mangled_component_name":"_ZN7android8hardware14secure_element4V1_015BsSecureElement13unlinkToDeathERKNS_2spINS0_20hidl_death_recipientEEE"
    },
    {
     "kind":"complete_dtor_pointer",
     "mangled_component_name":"_ZN7android8hardware14secure_element4V1_015BsSecureElementD1Ev"
    },
    {
     "kind":"deleting_dtor_pointer",
     "mangled_component_name":"_ZN7android8hardware14secure_element4V1_015BsSecureElementD0Ev"
    },
    {
     "mangled_component_name":"_ZN7android8hardware14secure_element4V1_015BsSecureElement4initERKNS_2spINS2_25ISecureElementHalCallbackEEE"
    },
    {
     "mangled_component_name":"_ZN7android8hardware14secure_element4V1_015BsSecureElement6getAtrENSt3__18functionIFvRKNS0_8hidl_vecIhEEEEE"
    },
    {
     "mangled_component_name":"_ZN7android8hardware14secure_element4V1_015BsSecureElement13isCardPresentEv"
    },
    {
     "mangled_component_name":"_ZN7android8hardware14secure_element4V1_015BsSecureElement8transmitERKNS0_8hidl_vecIhEENSt3__18functionIFvS7_EEE"
    },
    {
     "mangled_component_name":"_ZN7android8hardware14secure_element4V1_015BsSecureElement18openLogicalChannelERKNS0_8hidl_vecIhEEhNSt3__18functionIFvRKNS2_22LogicalChannelResponseENS2_19SecureElementStatusEEEE"
    },
    {
     "mangled_component_name":"_ZN7android8hardware14secure_element4V1_015BsSecureElement16openBasicChannelERKNS0_8hidl_vecIhEEhNSt3__18functionIFvS7_NS2_19SecureElementStatusEEEE"
    },
    {
     "mangled_component_name":"_ZN7android8hardware14secure_element4V1_015BsSecureElement12closeChannelEh"
    },
    {
     "kind":"offset_to_top",
     "component_value":-4
    },
    {
     "kind":"rtti",
     "mangled_component_name":"_ZTIN7android8hardware14secure_element4V1_015BsSecureElementE"
    },
    {
     "kind":"complete_dtor_pointer",
     "mangled_component_name":"_ZThn4_N7android8hardware14secure_element4V1_015BsSecureElementD1Ev"
    },
    {
     "kind":"deleting_dtor_pointer",
     "mangled_component_name":"_ZThn4_N7android8hardware14secure_element4V1_015BsSecureElementD0Ev"
    },
    {
     "kind":"vcall_offset"
    },
    {
     "kind":"vcall_offset"
    },
    {
     "kind":"vcall_offset"
    },
    {
     "kind":"vcall_offset"
    },
    {
     "kind":"vcall_offset",
     "component_value":-60
    },
    {
     "kind":"offset_to_top",
     "component_value":-60
    },
    {
     "kind":"rtti",
     "mangled_component_name":"_ZTIN7android8hardware14secure_element4V1_015BsSecureElementE"
    },
    {
     "kind":"complete_dtor_pointer",
     "mangled_component_name":"_ZTv0_n12_N7android8hardware14secure_element4V1_015BsSecureElementD1Ev"
    },
    {
     "kind":"deleting_dtor_pointer",
     "mangled_component_name":"_ZTv0_n12_N7android8hardware14secure_element4V1_015BsSecureElementD0Ev"
    },
    {
     "mangled_component_name":"_ZN7android7RefBase10onFirstRefEv"
    },
    {
     "mangled_component_name":"_ZN7android7RefBase15onLastStrongRefEPKv"
    },
    {
     "mangled_component_name":"_ZN7android7RefBase20onIncStrongAttemptedEjPKv"
    },
    {
     "mangled_component_name":"_ZN7android7RefBase13onLastWeakRefEPKv"
    }
   ],
   "unique_id":"_ZTSN7android8hardware14secure_element4V1_015BsSecureElementE"
  }
 ],
 "elf_functions":[
  {
   "binding":"weak",
   "name":"_ZN7android8hardware10fromBinderINS0_14secure_element4V1_025ISecureElementHalCallbackENS3_28BpHwSecureElementHalCallbackENS3_28BnHwSecureElementHalCallbackEEENS_2spIT_EERKNS7_INS0_7IBinderEEE"
  },
  {
   "name":"_ZN7android8hardware14secure_element4V1_014ISecureElement10getServiceERKNSt3__112basic_stringIcNS4_11char_traitsIcEENS4_9allocatorIcEEEEb"
  },
  {
   "name":"_ZN7android8hardware14secure_element4V1_014ISecureElement11linkToDeathERKNS_2spINS0_20hidl_death_recipientEEEy"
  },
  {
   "name":"_ZN7android8hardware14secure_element4V1_014ISecureElement12getDebugInfoENSt3__18functionIFvRKNS_4hidl4base4V1_09DebugInfoEEEE"
  },
  {
   "name":"_ZN7android8hardware14secure_element4V1_014ISecureElement12getHashChainENSt3__18functionIFvRKNS0_8hidl_vecINS0_10hidl_arrayIhLj32EJEEEEEEEE"
  },
  {
   "name":"_ZN7android8hardware14secure_element4V1_014ISecureElement13tryGetServiceERKNSt3__112basic_stringIcNS4_11char_traitsIcEENS4_9allocatorIcEEEEb"
  },
  {
   "name":"_ZN7android8hardware14secure_element4V1_014ISecureElement13unlinkToDeathERKNS_2spINS0_20hidl_death_recipientEEE"
  },
  {
   "name":"_ZN7android8hardware14secure_element4V1_014ISecureElement14interfaceChainENSt3__18functionIFvRKNS0_8hidl_vecINS0_11hidl_stringEEEEEE"
  },
  {
   "name":"_ZN7android8hardware14secure_element4V1_014ISecureElement17registerAsServiceERKNSt3__112basic_stringIcNS4_11char_traitsIcEENS4_9allocatorIcEEEE"
  },
  {
   "name":"_ZN7android8hardware14secure_element4V1_014ISecureElement19interfaceDescriptorENSt3__18functionIFvRKNS0_11hidl_stringEEEE"
  },
  {
   "name":"_ZN7android8hardware14secure_element4V1_014ISecureElement21notifySyspropsChangedEv"
  },
  {
   "name":"_ZN7android8hardware14secure_element4V1_014ISecureElement21setHALInstrumentationEv"
  },
  {
   "name":"_ZN7android8hardware14secure_element4V1_014ISecureElement24registerForNotificationsERKNSt3__112basic_stringIcNS4_11char_traitsIcEENS4_9allocatorIcEEEERKNS_2spINS_4hidl7manager4V1_020IServiceNotificationEEE"
  },
  {
   "name":"_ZN7android8hardware14secure_element4V1_014ISecureElement4pingEv"
  },
  {
   "name":"_ZN7android8hardware14secure_element4V1_014ISecureElement5debugERKNS0_11hidl_handleERKNS0_8hidl_vecINS0_11hidl_stringEEE"
  },
  {
   "name":"_ZN7android8hardware14secure_element4V1_014ISecureElement8castFromERKNS_2spINS_4hidl4base4V1_05IBaseEEEb"
  },
  {
   "name":"_ZN7android8hardware14secure_element4V1_014ISecureElement8castFromERKNS_2spIS3_EEb"
  },
  {
   "name":"_ZN7android8hardware14secure_element4V1_015BsSecureElement13addOnewayTaskENSt3__18functionIFvvEEE"
  },
  {
   "name":"_ZN7android8hardware14secure_element4V1_015BsSecureElementC1ENS_2spINS2_14ISecureElementEEE"
  },
  {
   "name":"_ZN7android8hardware14secure_element4V1_015BsSecureElementC2ENS_2spINS2_14ISecureElementEEE"
  },
  {
   "name":"_ZN7android8hardware14secure_element4V1_017BnHwSecureElement10_hidl_initEPNS_4hidl4base4V1_08BnHwBaseERKNS0_6ParcelEPS9_NSt3__18functionIFvRS9_EEE"
  },
  {
   "name":"_ZN7android8hardware14secure_element4V1_017BnHwSecureElement10onTransactEjRKNS0_6ParcelEPS4_jNSt3__18functionIFvRS4_EEE"
  },
  {
   "name":"_ZN7android8hardware14secure_element4V1_017BnHwSecureElement12_hidl_getAtrEPNS_4hidl4base4V1_08BnHwBaseERKNS0_6ParcelEPS9_NSt3__18functionIFvRS9_EEE"
  },
  {
   "name":"_ZN7android8hardware14secure_element4V1_017BnHwSecureElement12getDebugInfoENSt3__18functionIFvRKNS_4hidl4base4V1_09DebugInfoEEEE"
  },
  {
   "name":"_ZN7android8hardware14secure_element4V1_017BnHwSecureElement14_hidl_transmitEPNS_4hidl4base4V1_08BnHwBaseERKNS0_6ParcelEPS9_NSt3__18functionIFvRS9_EEE"
  },
  {
   "name":"_ZN7android8hardware14secure_element4V1_017BnHwSecureElement18_hidl_closeChannelEPNS_4hidl4base4V1_08BnHwBaseERKNS0_6ParcelEPS9_NSt3__18functionIFvRS9_EEE"
  },
  {
   "name":"_ZN7android8hardware14secure_element4V1_017BnHwSecureElement19_hidl_isCardPresentEPNS_4hidl4base4V1_08BnHwBaseERKNS0_6ParcelEPS9_NSt3__18functionIFvRS9_EEE"
  },
  {
   "name":"_ZN7android8hardware14secure_element4V1_017BnHwSecureElement22_hidl_openBasicChannelEPNS_4hidl4base4V1_08BnHwBaseERKNS0_6ParcelEPS9_NSt3__18functionIFvRS9_EEE"
  },
  {
   "name":"_ZN7android8hardware14secure_element4V1_017BnHwSecureElement24_hidl_openLogicalChannelEPNS_4hidl4base4V1_08BnHwBaseERKNS0_6ParcelEPS9_NSt3__18functionIFvRS9_EEE"
  },
  {
   "name":"_ZN7android8hardware14secure_element4V1_017BnHwSecureElement4pingEv"
  },
  {
   "name":"_ZN7android8hardware14secure_element4V1_017BnHwSecureElementC1ERKNS_2spINS2_14ISecureElementEEE"
  },
  {
   "name":"_ZN7android8hardware14secure_element4V1_017BnHwSecureElementC2ERKNS_2spINS2_14ISecureElementEEE"
  },
  {
   "name":"_ZN7android8hardware14secure_element4V1_017BnHwSecureElementD0Ev"
  },
  {
   "name":"_ZN7android8hardware14secure_element4V1_017BnHwSecureElementD1Ev"
  },
  {
   "name":"_ZN7android8hardware14secure_element4V1_017BnHwSecureElementD2Ev"
  },
  {
   "name":"_ZN7android8hardware14secure_element4V1_017BpHwSecureElement10_hidl_initEPNS0_10IInterfaceEPNS0_7details16HidlInstrumentorERKNS_2spINS2_25ISecureElementHalCallbackEEE"
  },
  {
   "name":"_ZN7android8hardware14secure_element4V1_017BpHwSecureElement11linkToDeathERKNS_2spINS0_20hidl_death_recipientEEEy"
  },
  {
   "name":"_ZN7android8hardware14secure_element4V1_017BpHwSecureElement12_hidl_getAtrEPNS0_10IInterfaceEPNS0_7details16HidlInstrumentorENSt3__18functionIFvRKNS0_8hidl_vecIhEEEEE"
  },
  {
   "name":"_ZN7android8hardware14secure_element4V1_017BpHwSecureElement12closeChannelEh"
  },
  {
   "name":"_ZN7android8hardware14secure_element4V1_017BpHwSecureElement12getDebugInfoENSt3__18functionIFvRKNS_4hidl4base4V1_09DebugInfoEEEE"
  },
  {
   "name":"_ZN7android8hardware14secure_element4V1_017BpHwSecureElement12getHashChainENSt3__18functionIFvRKNS0_8hidl_vecINS0_10hidl_arrayIhLj32EJEEEEEEEE"
  },
  {
   "name":"_ZN7android8hardware14secure_element4V1_017BpHwSecureElement13isCardPresentEv"
  },
  {
   "name":"_ZN7android8hardware14secure_element4V1_017BpHwSecureElement13unlinkToDeathERKNS_2spINS0_20hidl_death_recipientEEE"
  },
  {
   "name":"_ZN7android8hardware14secure_element4V1_017BpHwSecureElement14_hidl_transmitEPNS0_10IInterfaceEPNS0_7details16HidlInstrumentorERKNS0_8hidl_vecIhEENSt3__18functionIFvSC_EEE"
  },
  {
   "name":"_ZN7android8hardware14secure_element4V1_017BpHwSecureElement14interfaceChainENSt3__18functionIFvRKNS0_8hidl_vecINS0_11hidl_stringEEEEEE"
  },
  {
   "name":"_ZN7android8hardware14secure_element4V1_017BpHwSecureElement16openBasicChannelERKNS0_8hidl_vecIhEEhNSt3__18functionIFvS7_NS2_19SecureElementStatusEEEE"
  },
  {
   "name":"_ZN7android8hardware14secure_element4V1_017BpHwSecureElement18_hidl_closeChannelEPNS0_10IInterfaceEPNS0_7details16HidlInstrumentorEh"
  },
  {
   "name":"_ZN7android8hardware14secure_element4V1_017BpHwSecureElement18openLogicalChannelERKNS0_8hidl_vecIhEEhNSt3__18functionIFvRKNS2_22LogicalChannelResponseENS2_19SecureElementStatusEEEE"
  },
  {
   "name":"_ZN7android8hardware14secure_element4V1_017BpHwSecureElement19_hidl_isCardPresentEPNS0_10IInterfaceEPNS0_7details16HidlInstrumentorE"
  },
  {
   "name":"_ZN7android8hardware14secure_element4V1_017BpHwSecureElement19interfaceDescriptorENSt3__18functionIFvRKNS0_11hidl_stringEEEE"
  },
  {
   "name":"_ZN7android8hardware14secure_element4V1_017BpHwSecureElement21notifySyspropsChangedEv"
  },
  {
   "name":"_ZN7android8hardware14secure_element4V1_017BpHwSecureElement21setHALInstrumentationEv"
  },
  {
   "name":"_ZN7android8hardware14secure_element4V1_017BpHwSecureElement22_hidl_openBasicChannelEPNS0_10IInterfaceEPNS0_7details16HidlInstrumentorERKNS0_8hidl_vecIhEEhNSt3__18functionIFvSC_NS2_19SecureElementStatusEEEE"
  },
  {
   "name":"_ZN7android8hardware14secure_element4V1_017BpHwSecureElement24_hidl_openLogicalChannelEPNS0_10IInterfaceEPNS0_7details16HidlInstrumentorERKNS0_8hidl_vecIhEEhNSt3__18functionIFvRKNS2_22LogicalChannelResponseENS2_19SecureElementStatusEEEE"
  },
  {
   "name":"_ZN7android8hardware14secure_element4V1_017BpHwSecureElement4initERKNS_2spINS2_25ISecureElementHalCallbackEEE"
  },
  {
   "name":"_ZN7android8hardware14secure_element4V1_017BpHwSecureElement4pingEv"
  },
  {
   "name":"_ZN7android8hardware14secure_element4V1_017BpHwSecureElement5debugERKNS0_11hidl_handleERKNS0_8hidl_vecINS0_11hidl_stringEEE"
  },
  {
   "name":"_ZN7android8hardware14secure_element4V1_017BpHwSecureElement6getAtrENSt3__18functionIFvRKNS0_8hidl_vecIhEEEEE"
  },
  {
   "name":"_ZN7android8hardware14secure_element4V1_017BpHwSecureElement8transmitERKNS0_8hidl_vecIhEENSt3__18functionIFvS7_EEE"
  },
  {
   "name":"_ZN7android8hardware14secure_element4V1_017BpHwSecureElementC1ERKNS_2spINS0_7IBinderEEE"
  },
  {
   "name":"_ZN7android8hardware14secure_element4V1_017BpHwSecureElementC2ERKNS_2spINS0_7IBinderEEE"
  },
  {
   "name":"_ZN7android8hardware14secure_element4V1_021writeEmbeddedToParcelERKNS2_22LogicalChannelResponseEPNS0_6ParcelEjj"
  },
  {
   "name":"_ZN7android8hardware14secure_element4V1_022readEmbeddedFromParcelERKNS2_22LogicalChannelResponseERKNS0_6ParcelEjj"
  },
  {
   "name":"_ZN7android8hardware14secure_element4V1_025ISecureElementHalCallback10getServiceERKNSt3__112basic_stringIcNS4_11char_traitsIcEENS4_9allocatorIcEEEEb"
  },
  {
   "name":"_ZN7android8hardware14secure_element4V1_025ISecureElementHalCallback11linkToDeathERKNS_2spINS0_20hidl_death_recipientEEEy"
  },
  {
   "name":"_ZN7android8hardware14secure_element4V1_025ISecureElementHalCallback12getDebugInfoENSt3__18functionIFvRKNS_4hidl4base4V1_09DebugInfoEEEE"
  },
  {
   "name":"_ZN7android8hardware14secure_element4V1_025ISecureElementHalCallback12getHashChainENSt3__18functionIFvRKNS0_8hidl_vecINS0_10hidl_arrayIhLj32EJEEEEEEEE"
  },
  {
   "name":"_ZN7android8hardware14secure_element4V1_025ISecureElementHalCallback13tryGetServiceERKNSt3__112basic_stringIcNS4_11char_traitsIcEENS4_9allocatorIcEEEEb"
  },
  {
   "name":"_ZN7android8hardware14secure_element4V1_025ISecureElementHalCallback13unlinkToDeathERKNS_2spINS0_20hidl_death_recipientEEE"
  },
  {
   "name":"_ZN7android8hardware14secure_element4V1_025ISecureElementHalCallback14interfaceChainENSt3__18functionIFvRKNS0_8hidl_vecINS0_11hidl_stringEEEEEE"
  },
  {
   "name":"_ZN7android8hardware14secure_element4V1_025ISecureElementHalCallback17registerAsServiceERKNSt3__112basic_stringIcNS4_11char_traitsIcEENS4_9allocatorIcEEEE"
  },
  {
   "name":"_ZN7android8hardware14secure_element4V1_025ISecureElementHalCallback19interfaceDescriptorENSt3__18functionIFvRKNS0_11hidl_stringEEEE"
  },
  {
   "name":"_ZN7android8hardware14secure_element4V1_025ISecureElementHalCallback21notifySyspropsChangedEv"
  },
  {
   "name":"_ZN7android8hardware14secure_element4V1_025ISecureElementHalCallback21setHALInstrumentationEv"
  },
  {
   "name":"_ZN7android8hardware14secure_element4V1_025ISecureElementHalCallback24registerForNotificationsERKNSt3__112basic_stringIcNS4_11char_traitsIcEENS4_9allocatorIcEEEERKNS_2spINS_4hidl7manager4V1_020IServiceNotificationEEE"
  },
  {
   "name":"_ZN7android8hardware14secure_element4V1_025ISecureElementHalCallback4pingEv"
  },
  {
   "name":"_ZN7android8hardware14secure_element4V1_025ISecureElementHalCallback5debugERKNS0_11hidl_handleERKNS0_8hidl_vecINS0_11hidl_stringEEE"
  },
  {
   "name":"_ZN7android8hardware14secure_element4V1_025ISecureElementHalCallback8castFromERKNS_2spINS_4hidl4base4V1_05IBaseEEEb"
  },
  {
   "name":"_ZN7android8hardware14secure_element4V1_025ISecureElementHalCallback8castFromERKNS_2spIS3_EEb"
  },
  {
   "name":"_ZN7android8hardware14secure_element4V1_026BsSecureElementHalCallback13addOnewayTaskENSt3__18functionIFvvEEE"
  },
  {
   "name":"_ZN7android8hardware14secure_element4V1_026BsSecureElementHalCallbackC1ENS_2spINS2_25ISecureElementHalCallbackEEE"
  },
  {
   "name":"_ZN7android8hardware14secure_element4V1_026BsSecureElementHalCallbackC2ENS_2spINS2_25ISecureElementHalCallbackEEE"
  },
  {
   "name":"_ZN7android8hardware14secure_element4V1_028BnHwSecureElementHalCallback10onTransactEjRKNS0_6ParcelEPS4_jNSt3__18functionIFvRS4_EEE"
  },
  {
   "name":"_ZN7android8hardware14secure_element4V1_028BnHwSecureElementHalCallback12getDebugInfoENSt3__18functionIFvRKNS_4hidl4base4V1_09DebugInfoEEEE"
  },
  {
   "name":"_ZN7android8hardware14secure_element4V1_028BnHwSecureElementHalCallback19_hidl_onStateChangeEPNS_4hidl4base4V1_08BnHwBaseERKNS0_6ParcelEPS9_NSt3__18functionIFvRS9_EEE"
  },
  {
   "name":"_ZN7android8hardware14secure_element4V1_028BnHwSecureElementHalCallback4pingEv"
  },
  {
   "name":"_ZN7android8hardware14secure_element4V1_028BnHwSecureElementHalCallbackC1ERKNS_2spINS2_25ISecureElementHalCallbackEEE"
  },
  {
   "name":"_ZN7android8hardware14secure_element4V1_028BnHwSecureElementHalCallbackC2ERKNS_2spINS2_25ISecureElementHalCallbackEEE"
  },
  {
   "name":"_ZN7android8hardware14secure_element4V1_028BnHwSecureElementHalCallbackD0Ev"
  },
  {
   "name":"_ZN7android8hardware14secure_element4V1_028BnHwSecureElementHalCallbackD1Ev"
  },
  {
   "name":"_ZN7android8hardware14secure_element4V1_028BnHwSecureElementHalCallbackD2Ev"
  },
  {
   "name":"_ZN7android8hardware14secure_element4V1_028BpHwSecureElementHalCallback11linkToDeathERKNS_2spINS0_20hidl_death_recipientEEEy"
  },
  {
   "name":"_ZN7android8hardware14secure_element4V1_028BpHwSecureElementHalCallback12getDebugInfoENSt3__18functionIFvRKNS_4hidl4base4V1_09DebugInfoEEEE"
  },
  {
   "name":"_ZN7android8hardware14secure_element4V1_028BpHwSecureElementHalCallback12getHashChainENSt3__18functionIFvRKNS0_8hidl_vecINS0_10hidl_arrayIhLj32EJEEEEEEEE"
  },
  {
   "name":"_ZN7android8hardware14secure_element4V1_028BpHwSecureElementHalCallback13onStateChangeEb"
  },
  {
   "name":"_ZN7android8hardware14secure_element4V1_028BpHwSecureElementHalCallback13unlinkToDeathERKNS_2spINS0_20hidl_death_recipientEEE"
  },
  {
   "name":"_ZN7android8hardware14secure_element4V1_028BpHwSecureElementHalCallback14interfaceChainENSt3__18functionIFvRKNS0_8hidl_vecINS0_11hidl_stringEEEEEE"
  },
  {
   "name":"_ZN7android8hardware14secure_element4V1_028BpHwSecureElementHalCallback19_hidl_onStateChangeEPNS0_10IInterfaceEPNS0_7details16HidlInstrumentorEb"
  },
  {
   "name":"_ZN7android8hardware14secure_element4V1_028BpHwSecureElementHalCallback19interfaceDescriptorENSt3__18functionIFvRKNS0_11hidl_stringEEEE"
  },
  {
   "name":"_ZN7android8hardware14secure_element4V1_028BpHwSecureElementHalCallback21notifySyspropsChangedEv"
  },
  {
   "name":"_ZN7android8hardware14secure_element4V1_028BpHwSecureElementHalCallback21setHALInstrumentationEv"
  },
  {
   "name":"_ZN7android8hardware14secure_element4V1_028BpHwSecureElementHalCallback4pingEv"
  },
  {
   "name":"_ZN7android8hardware14secure_element4V1_028BpHwSecureElementHalCallback5debugERKNS0_11hidl_handleERKNS0_8hidl_vecINS0_11hidl_stringEEE"
  },
  {
   "name":"_ZN7android8hardware14secure_element4V1_028BpHwSecureElementHalCallbackC1ERKNS_2spINS0_7IBinderEEE"
  },
  {
   "name":"_ZN7android8hardware14secure_element4V1_028BpHwSecureElementHalCallbackC2ERKNS_2spINS0_7IBinderEEE"
  },
  {
   "binding":"weak",
   "name":"_ZN7android8hardware7details13castInterfaceINS0_14secure_element4V1_014ISecureElementENS_4hidl4base4V1_05IBaseENS4_17BpHwSecureElementEEENS0_6ReturnINS_2spIT_EEEENSC_IT0_EEPKcb"
  },
  {
   "binding":"weak",
   "name":"_ZN7android8hardware7details13castInterfaceINS0_14secure_element4V1_025ISecureElementHalCallbackENS_4hidl4base4V1_05IBaseENS4_28BpHwSecureElementHalCallbackEEENS0_6ReturnINS_2spIT_EEEENSC_IT0_EEPKcb"
  },
  {
   "binding":"weak",
   "name":"_ZN7android8hardware7details15wrapPassthroughINS0_14secure_element4V1_025ISecureElementHalCallbackEvEENS_2spIT_EES8_"
  },
  {
   "binding":"weak",
   "name":"_ZN7android8hardware7details18getServiceInternalINS0_14secure_element4V1_017BpHwSecureElementENS4_14ISecureElementEvvEENS_2spIT0_EERKNSt3__112basic_stringIcNSA_11char_traitsIcEENSA_9allocatorIcEEEEbb"
  },
  {
   "binding":"weak",
   "name":"_ZN7android8hardware7details18getServiceInternalINS0_14secure_element4V1_028BpHwSecureElementHalCallbackENS4_25ISecureElementHalCallbackEvvEENS_2spIT0_EERKNSt3__112basic_stringIcNSA_11char_traitsIcEENSA_9allocatorIcEEEEbb"
  },
  {
   "binding":"weak",
   "name":"_ZN7android8hardware8toBinderINS0_14secure_element4V1_025ISecureElementHalCallbackEvEENS_2spINS0_7IBinderEEENS5_IT_EE"
  },
  {
   "binding":"weak",
   "name":"_ZN7android8hardware8toBinderINS_4hidl4base4V1_05IBaseEvEENS_2spINS0_7IBinderEEENS6_IT_EE"
  },
  {
   "name":"_ZThn20_N7android8hardware14secure_element4V1_017BnHwSecureElementD0Ev"
  },
  {
   "name":"_ZThn20_N7android8hardware14secure_element4V1_017BnHwSecureElementD1Ev"
  },
  {
   "name":"_ZThn20_N7android8hardware14secure_element4V1_028BnHwSecureElementHalCallbackD0Ev"
  },
  {
   "name":"_ZThn20_N7android8hardware14secure_element4V1_028BnHwSecureElementHalCallbackD1Ev"
  },
  {
   "name":"_ZTv0_n12_N7android8hardware14secure_element4V1_017BnHwSecureElementD0Ev"
  },
  {
   "name":"_ZTv0_n12_N7android8hardware14secure_element4V1_017BnHwSecureElementD1Ev"
  },
  {
   "name":"_ZTv0_n12_N7android8hardware14secure_element4V1_028BnHwSecureElementHalCallbackD0Ev"
  },
  {
   "name":"_ZTv0_n12_N7android8hardware14secure_element4V1_028BnHwSecureElementHalCallbackD1Ev"
  }
 ],
 "elf_objects":[
  {
   "name":"_ZN7android8hardware14secure_element4V1_014ISecureElement10descriptorE"
  },
  {
   "name":"_ZN7android8hardware14secure_element4V1_025ISecureElementHalCallback10descriptorE"
  },
  {
   "name":"_ZTTN7android8hardware14secure_element4V1_014ISecureElementE"
  },
  {
   "name":"_ZTTN7android8hardware14secure_element4V1_017BnHwSecureElementE"
  },
  {
   "name":"_ZTTN7android8hardware14secure_element4V1_017BpHwSecureElementE"
  },
  {
   "name":"_ZTTN7android8hardware14secure_element4V1_025ISecureElementHalCallbackE"
  },
  {
   "name":"_ZTTN7android8hardware14secure_element4V1_028BnHwSecureElementHalCallbackE"
  },
  {
   "name":"_ZTTN7android8hardware14secure_element4V1_028BpHwSecureElementHalCallbackE"
  },
  {
   "name":"_ZTVN7android8hardware14secure_element4V1_014ISecureElementE"
  },
  {
   "binding":"weak",
   "name":"_ZTVN7android8hardware14secure_element4V1_015BsSecureElementE"
  },
  {
   "name":"_ZTVN7android8hardware14secure_element4V1_017BnHwSecureElementE"
  },
  {
   "name":"_ZTVN7android8hardware14secure_element4V1_017BpHwSecureElementE"
  },
  {
   "name":"_ZTVN7android8hardware14secure_element4V1_025ISecureElementHalCallbackE"
  },
  {
   "binding":"weak",
   "name":"_ZTVN7android8hardware14secure_element4V1_026BsSecureElementHalCallbackE"
  },
  {
   "name":"_ZTVN7android8hardware14secure_element4V1_028BnHwSecureElementHalCallbackE"
  },
  {
   "name":"_ZTVN7android8hardware14secure_element4V1_028BpHwSecureElementHalCallbackE"
  }
 ]
}