{
 "record_types":[
  {
   "vtable_components":[
    {
     "kind":"vbase_offset",
     "component_value":72
    },
    {
     "kind":"offset_to_top"
    },
    {
     "kind":"rtti",
     "mangled_component_name":"_ZTIN7android8hardware6camera6device4V3_423BnHwCameraDeviceSessionE"
    },
    {
     "mangled_component_name":"_ZN7android8hardware9BHwBinder8transactEjRKNS0_6ParcelEPS2_jNSt3__18functionIFvRS2_EEE"
    },
    {
     "mangled_component_name":"_ZN7android8hardware9BHwBinder11linkToDeathERKNS_2spINS0_7IBinder14DeathRecipientEEEPvj"
    },
    {
     "mangled_component_name":"_ZN7android8hardware9BHwBinder13unlinkToDeathERKNS_2wpINS0_7IBinder14DeathRecipientEEEPvjPS5_"
    },
    {
     "mangled_component_name":"_ZNK7android8hardware7IBinder13checkSubclassEPKv"
    },
    {
     "mangled_component_name":"_ZN7android8hardware9BHwBinder12attachObjectEPKvPvS4_PFvS3_S4_S4_E"
    },
    {
     "mangled_component_name":"_ZNK7android8hardware9BHwBinder10findObjectEPKv"
    },
    {
     "mangled_component_name":"_ZN7android8hardware9BHwBinder12detachObjectEPKv"
    },
    {
     "mangled_component_name":"_ZN7android8hardware9BHwBinder11localBinderEv"
    },
    {
     "mangled_component_name":"_ZN7android8hardware7IBinder12remoteBinderEv"
    },
    {
     "kind":"complete_dtor_pointer",
     "mangled_component_name":"_ZN7android8hardware6camera6device4V3_423BnHwCameraDeviceSessionD1Ev"
    },
    {
     "kind":"deleting_dtor_pointer",
     "mangled_component_name":"_ZN7android8hardware6camera6device4V3_423BnHwCameraDeviceSessionD0Ev"
    },
    {
     "mangled_component_name":"_ZN7android8hardware6camera6device4V3_423BnHwCameraDeviceSession10onTransactEjRKNS0_6ParcelEPS5_jNSt3__18functionIFvRS5_EEE"
    },
    {
     "kind":"offset_to_top",
     "component_value":-20
    },
    {
     "kind":"rtti",
     "mangled_component_name":"_ZTIN7android8hardware6camera6device4V3_423BnHwCameraDeviceSessionE"
    },
    {
     "kind":"complete_dtor_pointer",
     "mangled_component_name":"_ZThn20_N7android8hardware6camera6device4V3_423BnHwCameraDeviceSessionD1Ev"
    },
    {
     "kind":"deleting_dtor_pointer",
     "mangled_component_name":"_ZThn20_N7android8hardware6camera6device4V3_423BnHwCameraDeviceSessionD0Ev"
    },
    {
     "kind":"vcall_offset"
    },
    {
     "kind":"vcall_offset"
    },
    {
     "kind":"vcall_offset"
    },
    {
     "kind":"vcall_offset"
    },
    {
     "kind":"vcall_offset",
     "component_value":-72
    },
    {
     "kind":"offset_to_top",
     "component_value":-72
    },
    {
     "kind":"rtti",
     "mangled_component_name":"_ZTIN7android8hardware6camera6device4V3_423BnHwCameraDeviceSessionE"
    },
    {
     "kind":"complete_dtor_pointer",
     "mangled_component_name":"_ZTv0_n12_N7android8hardware6camera6device4V3_423BnHwCameraDeviceSessionD1Ev"
    },
    {
     "kind":"deleting_dtor_pointer",
     "mangled_component_name":"_ZTv0_n12_N7android8hardware6camera6device4V3_423BnHwCameraDeviceSessionD0Ev"
    },
    {
     "mangled_component_name":"_ZN7android7RefBase10onFirstRefEv"
    },
    {
     "mangled_component_name":"_ZN7android7RefBase15onLastStrongRefEPKv"
    },
    {
     "mangled_component_name":"_ZN7android7RefBase20onIncStrongAttemptedEjPKv"
    },
    {
     "mangled_component_name":"_ZN7android7RefBase13onLastWeakRefEPKv"
    }
   ],
   "unique_id":"_ZTSN7android8hardware6camera6device4V3_423BnHwCameraDeviceSessionE"
  },
  {
   "vtable_components":[
    {
     "kind":"vbase_offset",
     "component_value":60
    },
    {
     "kind":"offset_to_top"
    },
    {
     "kind":"rtti",
     "mangled_component_name":"_ZTIN7android8hardware6camera6device4V3_421BsCameraDeviceSessionE"
    },
    {
     "mangled_component_name":"_ZNK7android8hardware6camera6device4V3_420ICameraDeviceSession8isRemoteEv"
    },
    {
     "mangled_component_name":"_ZN7android8hardware6camera6device4V3_421BsCameraDeviceSession14interfaceChainENSt3__18functionIFvRKNS0_8hidl_vecINS0_11hidl_stringEEEEEE"
    },
    {
     "mangled_component_name":"_ZN7android8hardware6camera6device4V3_421BsCameraDeviceSession5debugERKNS0_11hidl_handleERKNS0_8hidl_vecINS0_11hidl_stringEEE"
    },
    {
     "mangled_component_name":"_ZN7android8hardware6camera6device4V3_421BsCameraDeviceSession19interfaceDescriptorENSt3__18functionIFvRKNS0_11hidl_stringEEEE"
    },
    {
     "mangled_component_name":"_ZN7android8hardware6camera6device4V3_421BsCameraDeviceSession12getHashChainENSt3__18functionIFvRKNS0_8hidl_vecINS0_10hidl_arrayIhLj32EJEEEEEEEE"
    },
    {
     "mangled_component_name":"_ZN7android8hardware6camera6device4V3_421BsCameraDeviceSession21setHALInstrumentationEv"
    },
    {
     "mangled_component_name":"_ZN7android8hardware6camera6device4V3_421BsCameraDeviceSession11linkToDeathERKNS_2spINS0_20hidl_death_recipientEEEy"
    },
    {
     "mangled_component_name":"_ZN7android8hardware6camera6device4V3_421BsCameraDeviceSession4pingEv"
    },
    {
     "mangled_component_name":"_ZN7android8hardware6camera6device4V3_421BsCameraDeviceSession12getDebugInfoENSt3__18functionIFvRKNS_4hidl4base4V1_09DebugInfoEEEE"
    },
    {
     "mangled_component_name":"_ZN7android8hardware6camera6device4V3_421BsCameraDeviceSession21notifySyspropsChangedEv"
    },
    {
     "mangled_component_name":"_ZN7android8hardware6camera6device4V3_421BsCameraDeviceSession13unlinkToDeathERKNS_2spINS0_20hidl_death_recipientEEE"
    },
    {
     "kind":"complete_dtor_pointer",
     "mangled_component_name":"_ZN7android8hardware6camera6device4V3_421BsCameraDeviceSessionD1Ev"
    },
    {
     "kind":"deleting_dtor_pointer",
     "mangled_component_name":"_ZN7android8hardware6camera6device4V3_421BsCameraDeviceSessionD0Ev"
    },
    {
     "mangled_component_name":"_ZN7android8hardware6camera6device4V3_421BsCameraDeviceSession31constructDefaultRequestSettingsENS2_4V3_215RequestTemplateENSt3__18functionIFvNS1_6common4V1_06StatusERKNS0_8hidl_vecIhEEEEE"
    },
    {
     "mangled_component_name":"_ZN7android8hardware6camera6device4V3_421BsCameraDeviceSession16configureStreamsERKNS2_4V3_219StreamConfigurationENSt3__18functionIFvNS1_6common4V1_06StatusERKNS5_22HalStreamConfigurationEEEE"
    },
    {
     "mangled_component_name":"_ZN7android8hardware6camera6device4V3_421BsCameraDeviceSession21processCaptureRequestERKNS0_8hidl_vecINS2_4V3_214CaptureRequestEEERKNS5_INS6_11BufferCacheEEENSt3__18functionIFvNS1_6common4V1_06StatusEjEEE"
    },
    {
     "mangled_component_name":"_ZN7android8hardware6camera6device4V3_421BsCameraDeviceSession30getCaptureRequestMetadataQueueENSt3__18functionIFvRKNS0_12MQDescriptorIhLNS0_8MQFlavorE1EEEEEE"
    },
    {
     "mangled_component_name":"_ZN7android8hardware6camera6device4V3_421BsCameraDeviceSession29getCaptureResultMetadataQueueENSt3__18functionIFvRKNS0_12MQDescriptorIhLNS0_8MQFlavorE1EEEEEE"
    },
    {
     "mangled_component_name":"_ZN7android8hardware6camera6device4V3_421BsCameraDeviceSession5flushEv"
    },
    {
     "mangled_component_name":"_ZN7android8hardware6camera6device4V3_421BsCameraDeviceSession5closeEv"
    },
    {
     "mangled_component_name":"_ZN7android8hardware6camera6device4V3_421BsCameraDeviceSession20configureStreams_3_3ERKNS2_4V3_219StreamConfigurationENSt3__18functionIFvNS1_6common4V1_06StatusERKNS2_4V3_322HalStreamConfigurationEEEE"
    },
    {
     "mangled_component_name":"_ZN7android8hardware6camera6device4V3_421BsCameraDeviceSession20configureStreams_3_4ERKNS3_19StreamConfigurationENSt3__18functionIFvNS1_6common4V1_06StatusERKNS3_22HalStreamConfigurationEEEE"
    },
    {
     "mangled_component_name":"_ZN7android8hardware6camera6device4V3_421BsCameraDeviceSession25processCaptureRequest_3_4ERKNS0_8hidl_vecINS3_14CaptureRequestEEERKNS5_INS2_4V3_211BufferCacheEEENSt3__18functionIFvNS1_6common4V1_06StatusEjEEE"
    },
    {
     "kind":"offset_to_top",
     "component_value":-4
    },
    {
     "kind":"rtti",
     "mangled_component_name":"_ZTIN7android8hardware6camera6device4V3_421BsCameraDeviceSessionE"
    },
    {
     "kind":"complete_dtor_pointer",
     "mangled_component_name":"_ZThn4_N7android8hardware6camera6device4V3_421BsCameraDeviceSessionD1Ev"
    },
    {
     "kind":"deleting_dtor_pointer",
     "mangled_component_name":"_ZThn4_N7android8hardware6camera6device4V3_421BsCameraDeviceSessionD0Ev"
    },
    {
     "kind":"vcall_offset"
    },
    {
     "kind":"vcall_offset"
    },
    {
     "kind":"vcall_offset"
    },
    {
     "kind":"vcall_offset"
    },
    {
     "kind":"vcall_offset",
     "component_value":-60
    },
    {
     "kind":"offset_to_top",
     "component_value":-60
    },
    {
     "kind":"rtti",
     "mangled_component_name":"_ZTIN7android8hardware6camera6device4V3_421BsCameraDeviceSessionE"
    },
    {
     "kind":"complete_dtor_pointer",
     "mangled_component_name":"_ZTv0_n12_N7android8hardware6camera6device4V3_421BsCameraDeviceSessionD1Ev"
    },
    {
     "kind":"deleting_dtor_pointer",
     "mangled_component_name":"_ZTv0_n12_N7android8hardware6camera6device4V3_421BsCameraDeviceSessionD0Ev"
    },
    {
     "mangled_component_name":"_ZN7android7RefBase10onFirstRefEv"
    },
    {
     "mangled_component_name":"_ZN7android7RefBase15onLastStrongRefEPKv"
    },
    {
     "mangled_component_name":"_ZN7android7RefBase20onIncStrongAttemptedEjPKv"
    },
    {
     "mangled_component_name":"_ZN7android7RefBase13onLastWeakRefEPKv"
    }
   ],
   "unique_id":"_ZTSN7android8hardware6camera6device4V3_421BsCameraDeviceSessionE"
  },
  {
   "vtable_components":[
    {
     "kind":"vbase_offset",
     "component_value":72
    },
    {
     "kind":"offset_to_top"
    },
    {
     "kind":"rtti",
     "mangled_component_name":"_ZTIN7android8hardware6camera6device4V3_424BnHwCameraDeviceCallbackE"
    },
    {
     "mangled_component_name":"_ZN7android8hardware9BHwBinder8transactEjRKNS0_6ParcelEPS2_jNSt3__18functionIFvRS2_EEE"
    },
    {
     "mangled_component_name":"_ZN7android8hardware9BHwBinder11linkToDeathERKNS_2spINS0_7IBinder14DeathRecipientEEEPvj"
    },
    {
     "mangled_component_name":"_ZN7android8hardware9BHwBinder13unlinkToDeathERKNS_2wpINS0_7IBinder14DeathRecipientEEEPvjPS5_"
    },
    {
     "mangled_component_name":"_ZNK7android8hardware7IBinder13checkSubclassEPKv"
    },
    {
     "mangled_component_name":"_ZN7android8hardware9BHwBinder12attachObjectEPKvPvS4_PFvS3_S4_S4_E"
    },
    {
     "mangled_component_name":"_ZNK7android8hardware9BHwBinder10findObjectEPKv"
    },
    {
     "mangled_component_name":"_ZN7android8hardware9BHwBinder12detachObjectEPKv"
    },
    {
     "mangled_component_name":"_ZN7android8hardware9BHwBinder11localBinderEv"
    },
    {
     "mangled_component_name":"_ZN7android8hardware7IBinder12remoteBinderEv"
    },
    {
     "kind":"complete_dtor_pointer",
     "mangled_component_name":"_ZN7android8hardware6camera6device4V3_424BnHwCameraDeviceCallbackD1Ev"
    },
    {
     "kind":"deleting_dtor_pointer",
     "mangled_component_name":"_ZN7android8hardware6camera6device4V3_424BnHwCameraDeviceCallbackD0Ev"
    },
    {
     "mangled_component_name":"_ZN7android8hardware6camera6device4V3_424BnHwCameraDeviceCallback10onTransactEjRKNS0_6ParcelEPS5_jNSt3__18functionIFvRS5_EEE"
    },
    {
     "kind":"offset_to_top",
     "component_value":-20
    },
    {
     "kind":"rtti",
     "mangled_component_name":"_ZTIN7android8hardware6camera6device4V3_424BnHwCameraDeviceCallbackE"
    },
    {
     "kind":"complete_dtor_pointer",
     "mangled_component_name":"_ZThn20_N7android8hardware6camera6device4V3_424BnHwCameraDeviceCallbackD1Ev"
    },
    {
     "kind":"deleting_dtor_pointer",
     "mangled_component_name":"_ZThn20_N7android8hardware6camera6device4V3_424BnHwCameraDeviceCallbackD0Ev"
    },
    {
     "kind":"vcall_offset"
    },
    {
     "kind":"vcall_offset"
    },
    {
     "kind":"vcall_offset"
    },
    {
     "kind":"vcall_offset"
    },
    {
     "kind":"vcall_offset",
     "component_value":-72
    },
    {
     "kind":"offset_to_top",
     "component_value":-72
    },
    {
     "kind":"rtti",
     "mangled_component_name":"_ZTIN7android8hardware6camera6device4V3_424BnHwCameraDeviceCallbackE"
    },
    {
     "kind":"complete_dtor_pointer",
     "mangled_component_name":"_ZTv0_n12_N7android8hardware6camera6device4V3_424BnHwCameraDeviceCallbackD1Ev"
    },
    {
     "kind":"deleting_dtor_pointer",
     "mangled_component_name":"_ZTv0_n12_N7android8hardware6camera6device4V3_424BnHwCameraDeviceCallbackD0Ev"
    },
    {
     "mangled_component_name":"_ZN7android7RefBase10onFirstRefEv"
    },
    {
     "mangled_component_name":"_ZN7android7RefBase15onLastStrongRefEPKv"
    },
    {
     "mangled_component_name":"_ZN7android7RefBase20onIncStrongAttemptedEjPKv"
    },
    {
     "mangled_component_name":"_ZN7android7RefBase13onLastWeakRefEPKv"
    }
   ],
   "unique_id":"_ZTSN7android8hardware6camera6device4V3_424BnHwCameraDeviceCallbackE"
  },
  {
   "vtable_components":[
    {
     "kind":"vbase_offset",
     "component_value":84
    },
    {
     "kind":"offset_to_top"
    },
    {
     "kind":"rtti",
     "mangled_component_name":"_ZTIN7android8hardware6camera6device4V3_423BpHwCameraDeviceSessionE"
    },
    {
     "mangled_component_name":"_ZNK7android8hardware6camera6device4V3_423BpHwCameraDeviceSession8isRemoteEv"
    },
    {
     "mangled_component_name":"_ZN7android8hardware6camera6device4V3_423BpHwCameraDeviceSession14interfaceChainENSt3__18functionIFvRKNS0_8hidl_vecINS0_11hidl_stringEEEEEE"
    },
    {
     "mangled_component_name":"_ZN7android8hardware6camera6device4V3_423BpHwCameraDeviceSession5debugERKNS0_11hidl_handleERKNS0_8hidl_vecINS0_11hidl_stringEEE"
    },
    {
     "mangled_component_name":"_ZN7android8hardware6camera6device4V3_423BpHwCameraDeviceSession19interfaceDescriptorENSt3__18functionIFvRKNS0_11hidl_stringEEEE"
    },
    {
     "mangled_component_name":"_ZN7android8hardware6camera6device4V3_423BpHwCameraDeviceSession12getHashChainENSt3__18functionIFvRKNS0_8hidl_vecINS0_10hidl_arrayIhLj32EJEEEEEEEE"
    },
    {
     "mangled_component_name":"_ZN7android8hardware6camera6device4V3_423BpHwCameraDeviceSession21setHALInstrumentationEv"
    },
    {
     "mangled_component_name":"_ZN7android8hardware6camera6device4V3_423BpHwCameraDeviceSession11linkToDeathERKNS_2spINS0_20hidl_death_recipientEEEy"
    },
    {
     "mangled_component_name":"_ZN7android8hardware6camera6device4V3_423BpHwCameraDeviceSession4pingEv"
    },
    {
     "mangled_component_name":"_ZN7android8hardware6camera6device4V3_423BpHwCameraDeviceSession12getDebugInfoENSt3__18functionIFvRKNS_4hidl4base4V1_09DebugInfoEEEE"
    },
    {
     "mangled_component_name":"_ZN7android8hardware6camera6device4V3_423BpHwCameraDeviceSession21notifySyspropsChangedEv"
    },
    {
     "mangled_component_name":"_ZN7android8hardware6camera6device4V3_423BpHwCameraDeviceSession13unlinkToDeathERKNS_2spINS0_20hidl_death_recipientEEE"
    },
    {
     "kind":"complete_dtor_pointer",
     "mangled_component_name":"_ZN7android8hardware6camera6device4V3_423BpHwCameraDeviceSessionD1Ev"
    },
    {
     "kind":"deleting_dtor_pointer",
     "mangled_component_name":"_ZN7android8hardware6camera6device4V3_423BpHwCameraDeviceSessionD0Ev"
    },
    {
     "mangled_component_name":"_ZN7android8hardware6camera6device4V3_423BpHwCameraDeviceSession31constructDefaultRequestSettingsENS2_4V3_215RequestTemplateENSt3__18functionIFvNS1_6common4V1_06StatusERKNS0_8hidl_vecIhEEEEE"
    },
    {
     "mangled_component_name":"_ZN7android8hardware6camera6device4V3_423BpHwCameraDeviceSession16configureStreamsERKNS2_4V3_219StreamConfigurationENSt3__18functionIFvNS1_6common4V1_06StatusERKNS5_22HalStreamConfigurationEEEE"
    },
    {
     "mangled_component_name":"_ZN7android8hardware6camera6device4V3_423BpHwCameraDeviceSession21processCaptureRequestERKNS0_8hidl_vecINS2_4V3_214CaptureRequestEEERKNS5_INS6_11BufferCacheEEENSt3__18functionIFvNS1_6common4V1_06StatusEjEEE"
    },
    {
     "mangled_component_name":"_ZN7android8hardware6camera6device4V3_423BpHwCameraDeviceSession30getCaptureRequestMetadataQueueENSt3__18functionIFvRKNS0_12MQDescriptorIhLNS0_8MQFlavorE1EEEEEE"
    },
    {
     "mangled_component_name":"_ZN7android8hardware6camera6device4V3_423BpHwCameraDeviceSession29getCaptureResultMetadataQueueENSt3__18functionIFvRKNS0_12MQDescriptorIhLNS0_8MQFlavorE1EEEEEE"
    },
    {
     "mangled_component_name":"_ZN7android8hardware6camera6device4V3_423BpHwCameraDeviceSession5flushEv"
    },
    {
     "mangled_component_name":"_ZN7android8hardware6camera6device4V3_423BpHwCameraDeviceSession5closeEv"
    },
    {
     "mangled_component_name":"_ZN7android8hardware6camera6device4V3_423BpHwCameraDeviceSession20configureStreams_3_3ERKNS2_4V3_219StreamConfigurationENSt3__18functionIFvNS1_6common4V1_06StatusERKNS2_4V3_322HalStreamConfigurationEEEE"
    },
    {
     "mangled_component_name":"_ZN7android8hardware6camera6device4V3_423BpHwCameraDeviceSession20configureStreams_3_4ERKNS3_19StreamConfigurationENSt3__18functionIFvNS1_6common4V1_06StatusERKNS3_22HalStreamConfigurationEEEE"
    },
    {
     "mangled_component_name":"_ZN7android8hardware6camera6device4V3_423BpHwCameraDeviceSession25processCaptureRequest_3_4ERKNS0_8hidl_vecINS3_14CaptureRequestEEERKNS5_INS2_4V3_211BufferCacheEEENSt3__18functionIFvNS1_6common4V1_06StatusEjEEE"
    },
    {
     "mangled_component_name":"_ZN7android8hardware11BpInterfaceINS0_6camera6device4V3_420ICameraDeviceSessionEE10onAsBinderEv"
    },
    {
     "kind":"vbase_offset",
     "component_value":80
    },
    {
     "kind":"offset_to_top",
     "component_value":-4
    },
    {
     "kind":"rtti",
     "mangled_component_name":"_ZTIN7android8hardware6camera6device4V3_423BpHwCameraDeviceSessionE"
    },
    {
     "kind":"complete_dtor_pointer",
     "mangled_component_name":"_ZThn4_N7android8hardware6camera6device4V3_423BpHwCameraDeviceSessionD1Ev"
    },
    {
     "kind":"deleting_dtor_pointer",
     "mangled_component_name":"_ZThn4_N7android8hardware6camera6device4V3_423BpHwCameraDeviceSessionD0Ev"
    },
    {
     "mangled_component_name":"_ZThn4_N7android8hardware11BpInterfaceINS0_6camera6device4V3_420ICameraDeviceSessionEE10onAsBinderEv"
    },
    {
     "kind":"vbase_offset",
     "component_value":76
    },
    {
     "kind":"offset_to_top",
     "component_value":-8
    },
    {
     "kind":"rtti",
     "mangled_component_name":"_ZTIN7android8hardware6camera6device4V3_423BpHwCameraDeviceSessionE"
    },
    {
     "kind":"complete_dtor_pointer",
     "mangled_component_name":"_ZThn8_N7android8hardware6camera6device4V3_423BpHwCameraDeviceSessionD1Ev"
    },
    {
     "kind":"deleting_dtor_pointer",
     "mangled_component_name":"_ZThn8_N7android8hardware6camera6device4V3_423BpHwCameraDeviceSessionD0Ev"
    },
    {
     "mangled_component_name":"_ZN7android8hardware11BpHwRefBase10onFirstRefEv"
    },
    {
     "mangled_component_name":"_ZN7android8hardware11BpHwRefBase15onLastStrongRefEPKv"
    },
    {
     "mangled_component_name":"_ZN7android8hardware11BpHwRefBase20onIncStrongAttemptedEjPKv"
    },
    {
     "kind":"offset_to_top",
     "component_value":-24
    },
    {
     "kind":"rtti",
     "mangled_component_name":"_ZTIN7android8hardware6camera6device4V3_423BpHwCameraDeviceSessionE"
    },
    {
     "kind":"complete_dtor_pointer",
     "mangled_component_name":"_ZThn24_N7android8hardware6camera6device4V3_423BpHwCameraDeviceSessionD1Ev"
    },
    {
     "kind":"deleting_dtor_pointer",
     "mangled_component_name":"_ZThn24_N7android8hardware6camera6device4V3_423BpHwCameraDeviceSessionD0Ev"
    },
    {
     "kind":"vcall_offset"
    },
    {
     "kind":"vcall_offset",
     "component_value":-76
    },
    {
     "kind":"vcall_offset",
     "component_value":-76
    },
    {
     "kind":"vcall_offset",
     "component_value":-76
    },
    {
     "kind":"vcall_offset",
     "component_value":-84
    },
    {
     "kind":"offset_to_top",
     "component_value":-84
    },
    {
     "kind":"rtti",
     "mangled_component_name":"_ZTIN7android8hardware6camera6device4V3_423BpHwCameraDeviceSessionE"
    },
    {
     "kind":"complete_dtor_pointer",
     "mangled_component_name":"_ZTv0_n12_N7android8hardware6camera6device4V3_423BpHwCameraDeviceSessionD1Ev"
    },
    {
     "kind":"deleting_dtor_pointer",
     "mangled_component_name":"_ZTv0_n12_N7android8hardware6camera6device4V3_423BpHwCameraDeviceSessionD0Ev"
    },
    {
     "mangled_component_name":"_ZTv0_n16_N7android8hardware11BpHwRefBase10onFirstRefEv"
    },
    {
     "mangled_component_name":"_ZTv0_n20_N7android8hardware11BpHwRefBase15onLastStrongRefEPKv"
    },
    {
     "mangled_component_name":"_ZTv0_n24_N7android8hardware11BpHwRefBase20onIncStrongAttemptedEjPKv"
    },
    {
     "mangled_component_name":"_ZN7android7RefBase13onLastWeakRefEPKv"
    }
   ],
   "unique_id":"_ZTSN7android8hardware6camera6device4V3_423BpHwCameraDeviceSessionE"
  },
  {
   "vtable_components":[
    {
     "kind":"vbase_offset",
     "component_value":60
    },
    {
     "kind":"offset_to_top"
    },
    {
     "kind":"rtti",
     "mangled_component_name":"_ZTIN7android8hardware6camera6device4V3_422BsCameraDeviceCallbackE"
    },
    {
     "mangled_component_name":"_ZNK7android8hardware6camera6device4V3_421ICameraDeviceCallback8isRemoteEv"
    },
    {
     "mangled_component_name":"_ZN7android8hardware6camera6device4V3_422BsCameraDeviceCallback14interfaceChainENSt3__18functionIFvRKNS0_8hidl_vecINS0_11hidl_stringEEEEEE"
    },
    {
     "mangled_component_name":"_ZN7android8hardware6camera6device4V3_422BsCameraDeviceCallback5debugERKNS0_11hidl_handleERKNS0_8hidl_vecINS0_11hidl_stringEEE"
    },
    {
     "mangled_component_name":"_ZN7android8hardware6camera6device4V3_422BsCameraDeviceCallback19interfaceDescriptorENSt3__18functionIFvRKNS0_11hidl_stringEEEE"
    },
    {
     "mangled_component_name":"_ZN7android8hardware6camera6device4V3_422BsCameraDeviceCallback12getHashChainENSt3__18functionIFvRKNS0_8hidl_vecINS0_10hidl_arrayIhLj32EJEEEEEEEE"
    },
    {
     "mangled_component_name":"_ZN7android8hardware6camera6device4V3_422BsCameraDeviceCallback21setHALInstrumentationEv"
    },
    {
     "mangled_component_name":"_ZN7android8hardware6camera6device4V3_422BsCameraDeviceCallback11linkToDeathERKNS_2spINS0_20hidl_death_recipientEEEy"
    },
    {
     "mangled_component_name":"_ZN7android8hardware6camera6device4V3_422BsCameraDeviceCallback4pingEv"
    },
    {
     "mangled_component_name":"_ZN7android8hardware6camera6device4V3_422BsCameraDeviceCallback12getDebugInfoENSt3__18functionIFvRKNS_4hidl4base4V1_09DebugInfoEEEE"
    },
    {
     "mangled_component_name":"_ZN7android8hardware6camera6device4V3_422BsCameraDeviceCallback21notifySyspropsChangedEv"
    },
    {
     "mangled_component_name":"_ZN7android8hardware6camera6device4V3_422BsCameraDeviceCallback13unlinkToDeathERKNS_2spINS0_20hidl_death_recipientEEE"
    },
    {
     "kind":"complete_dtor_pointer",
     "mangled_component_name":"_ZN7android8hardware6camera6device4V3_422BsCameraDeviceCallbackD1Ev"
    },
    {
     "kind":"deleting_dtor_pointer",
     "mangled_component_name":"_ZN7android8hardware6camera6device4V3_422BsCameraDeviceCallbackD0Ev"
    },
    {
     "mangled_component_name":"_ZN7android8hardware6camera6device4V3_422BsCameraDeviceCallback20processCaptureResultERKNS0_8hidl_vecINS2_4V3_213CaptureResultEEE"
    },
    {
     "mangled_component_name":"_ZN7android8hardware6camera6device4V3_422BsCameraDeviceCallback6notifyERKNS0_8hidl_vecINS2_4V3_29NotifyMsgEEE"
    },
    {
     "mangled_component_name":"_ZN7android8hardware6camera6device4V3_422BsCameraDeviceCallback24processCaptureResult_3_4ERKNS0_8hidl_vecINS3_13CaptureResultEEE"
    },
    {
     "kind":"offset_to_top",
     "component_value":-4
    },
    {
     "kind":"rtti",
     "mangled_component_name":"_ZTIN7android8hardware6camera6device4V3_422BsCameraDeviceCallbackE"
    },
    {
     "kind":"complete_dtor_pointer",
     "mangled_component_name":"_ZThn4_N7android8hardware6camera6device4V3_422BsCameraDeviceCallbackD1Ev"
    },
    {
     "kind":"deleting_dtor_pointer",
     "mangled_component_name":"_ZThn4_N7android8hardware6camera6device4V3_422BsCameraDeviceCallbackD0Ev"
    },
    {
     "kind":"vcall_offset"
    },
    {
     "kind":"vcall_offset"
    },
    {
     "kind":"vcall_offset"
    },
    {
     "kind":"vcall_offset"
    },
    {
     "kind":"vcall_offset",
     "component_value":-60
    },
    {
     "kind":"offset_to_top",
     "component_value":-60
    },
    {
     "kind":"rtti",
     "mangled_component_name":"_ZTIN7android8hardware6camera6device4V3_422BsCameraDeviceCallbackE"
    },
    {
     "kind":"complete_dtor_pointer",
     "mangled_component_name":"_ZTv0_n12_N7android8hardware6camera6device4V3_422BsCameraDeviceCallbackD1Ev"
    },
    {
     "kind":"deleting_dtor_pointer",
     "mangled_component_name":"_ZTv0_n12_N7android8hardware6camera6device4V3_422BsCameraDeviceCallbackD0Ev"
    },
    {
     "mangled_component_name":"_ZN7android7RefBase10onFirstRefEv"
    },
    {
     "mangled_component_name":"_ZN7android7RefBase15onLastStrongRefEPKv"
    },
    {
     "mangled_component_name":"_ZN7android7RefBase20onIncStrongAttemptedEjPKv"
    },
    {
     "mangled_component_name":"_ZN7android7RefBase13onLastWeakRefEPKv"
    }
   ],
   "unique_id":"_ZTSN7android8hardware6camera6device4V3_422BsCameraDeviceCallbackE"
  },
  {
   "vtable_components":[
    {
     "kind":"vbase_offset",
     "component_value":84
    },
    {
     "kind":"offset_to_top"
    },
    {
     "kind":"rtti",
     "mangled_component_name":"_ZTIN7android8hardware6camera6device4V3_424BpHwCameraDeviceCallbackE"
    },
    {
     "mangled_component_name":"_ZNK7android8hardware6camera6device4V3_424BpHwCameraDeviceCallback8isRemoteEv"
    },
    {
     "mangled_component_name":"_ZN7android8hardware6camera6device4V3_424BpHwCameraDeviceCallback14interfaceChainENSt3__18functionIFvRKNS0_8hidl_vecINS0_11hidl_stringEEEEEE"
    },
    {
     "mangled_component_name":"_ZN7android8hardware6camera6device4V3_424BpHwCameraDeviceCallback5debugERKNS0_11hidl_handleERKNS0_8hidl_vecINS0_11hidl_stringEEE"
    },
    {
     "mangled_component_name":"_ZN7android8hardware6camera6device4V3_424BpHwCameraDeviceCallback19interfaceDescriptorENSt3__18functionIFvRKNS0_11hidl_stringEEEE"
    },
    {
     "mangled_component_name":"_ZN7android8hardware6camera6device4V3_424BpHwCameraDeviceCallback12getHashChainENSt3__18functionIFvRKNS0_8hidl_vecINS0_10hidl_arrayIhLj32EJEEEEEEEE"
    },
    {
     "mangled_component_name":"_ZN7android8hardware6camera6device4V3_424BpHwCameraDeviceCallback21setHALInstrumentationEv"
    },
    {
     "mangled_component_name":"_ZN7android8hardware6camera6device4V3_424BpHwCameraDeviceCallback11linkToDeathERKNS_2spINS0_20hidl_death_recipientEEEy"
    },
    {
     "mangled_component_name":"_ZN7android8hardware6camera6device4V3_424BpHwCameraDeviceCallback4pingEv"
    },
    {
     "mangled_component_name":"_ZN7android8hardware6camera6device4V3_424BpHwCameraDeviceCallback12getDebugInfoENSt3__18functionIFvRKNS_4hidl4base4V1_09DebugInfoEEEE"
    },
    {
     "mangled_component_name":"_ZN7android8hardware6camera6device4V3_424BpHwCameraDeviceCallback21notifySyspropsChangedEv"
    },
    {
     "mangled_component_name":"_ZN7android8hardware6camera6device4V3_424BpHwCameraDeviceCallback13unlinkToDeathERKNS_2spINS0_20hidl_death_recipientEEE"
    },
    {
     "kind":"complete_dtor_pointer",
     "mangled_component_name":"_ZN7android8hardware6camera6device4V3_424BpHwCameraDeviceCallbackD1Ev"
    },
    {
     "kind":"deleting_dtor_pointer",
     "mangled_component_name":"_ZN7android8hardware6camera6device4V3_424BpHwCameraDeviceCallbackD0Ev"
    },
    {
     "mangled_component_name":"_ZN7android8hardware6camera6device4V3_424BpHwCameraDeviceCallback20processCaptureResultERKNS0_8hidl_vecINS2_4V3_213CaptureResultEEE"
    },
    {
     "mangled_component_name":"_ZN7android8hardware6camera6device4V3_424BpHwCameraDeviceCallback6notifyERKNS0_8hidl_vecINS2_4V3_29NotifyMsgEEE"
    },
    {
     "mangled_component_name":"_ZN7android8hardware6camera6device4V3_424BpHwCameraDeviceCallback24processCaptureResult_3_4ERKNS0_8hidl_vecINS3_13CaptureResultEEE"
    },
    {
     "mangled_component_name":"_ZN7android8hardware11BpInterfaceINS0_6camera6device4V3_421ICameraDeviceCallbackEE10onAsBinderEv"
    },
    {
     "kind":"vbase_offset",
     "component_value":80
    },
    {
     "kind":"offset_to_top",
     "component_value":-4
    },
    {
     "kind":"rtti",
     "mangled_component_name":"_ZTIN7android8hardware6camera6device4V3_424BpHwCameraDeviceCallbackE"
    },
    {
     "kind":"complete_dtor_pointer",
     "mangled_component_name":"_ZThn4_N7android8hardware6camera6device4V3_424BpHwCameraDeviceCallbackD1Ev"
    },
    {
     "kind":"deleting_dtor_pointer",
     "mangled_component_name":"_ZThn4_N7android8hardware6camera6device4V3_424BpHwCameraDeviceCallbackD0Ev"
    },
    {
     "mangled_component_name":"_ZThn4_N7android8hardware11BpInterfaceINS0_6camera6device4V3_421ICameraDeviceCallbackEE10onAsBinderEv"
    },
    {
     "kind":"vbase_offset",
     "component_value":76
    },
    {
     "kind":"offset_to_top",
     "component_value":-8
    },
    {
     "kind":"rtti",
     "mangled_component_name":"_ZTIN7android8hardware6camera6device4V3_424BpHwCameraDeviceCallbackE"
    },
    {
     "kind":"complete_dtor_pointer",
     "mangled_component_name":"_ZThn8_N7android8hardware6camera6device4V3_424BpHwCameraDeviceCallbackD1Ev"
    },
    {
     "kind":"deleting_dtor_pointer",
     "mangled_component_name":"_ZThn8_N7android8hardware6camera6device4V3_424BpHwCameraDeviceCallbackD0Ev"
    },
    {
     "mangled_component_name":"_ZN7android8hardware11BpHwRefBase10onFirstRefEv"
    },
    {
     "mangled_component_name":"_ZN7android8hardware11BpHwRefBase15onLastStrongRefEPKv"
    },
    {
     "mangled_component_name":"_ZN7android8hardware11BpHwRefBase20onIncStrongAttemptedEjPKv"
    },
    {
     "kind":"offset_to_top",
     "component_value":-24
    },
    {
     "kind":"rtti",
     "mangled_component_name":"_ZTIN7android8hardware6camera6device4V3_424BpHwCameraDeviceCallbackE"
    },
    {
     "kind":"complete_dtor_pointer",
     "mangled_component_name":"_ZThn24_N7android8hardware6camera6device4V3_424BpHwCameraDeviceCallbackD1Ev"
    },
    {
     "kind":"deleting_dtor_pointer",
     "mangled_component_name":"_ZThn24_N7android8hardware6camera6device4V3_424BpHwCameraDeviceCallbackD0Ev"
    },
    {
     "kind":"vcall_offset"
    },
    {
     "kind":"vcall_offset",
     "component_value":-76
    },
    {
     "kind":"vcall_offset",
     "component_value":-76
    },
    {
     "kind":"vcall_offset",
     "component_value":-76
    },
    {
     "kind":"vcall_offset",
     "component_value":-84
    },
    {
     "kind":"offset_to_top",
     "component_value":-84
    },
    {
     "kind":"rtti",
     "mangled_component_name":"_ZTIN7android8hardware6camera6device4V3_424BpHwCameraDeviceCallbackE"
    },
    {
     "kind":"complete_dtor_pointer",
     "mangled_component_name":"_ZTv0_n12_N7android8hardware6camera6device4V3_424BpHwCameraDeviceCallbackD1Ev"
    },
    {
     "kind":"deleting_dtor_pointer",
     "mangled_component_name":"_ZTv0_n12_N7android8hardware6camera6device4V3_424BpHwCameraDeviceCallbackD0Ev"
    },
    {
     "mangled_component_name":"_ZTv0_n16_N7android8hardware11BpHwRefBase10onFirstRefEv"
    },
    {
     "mangled_component_name":"_ZTv0_n20_N7android8hardware11BpHwRefBase15onLastStrongRefEPKv"
    },
    {
     "mangled_component_name":"_ZTv0_n24_N7android8hardware11BpHwRefBase20onIncStrongAttemptedEjPKv"
    },
    {
     "mangled_component_name":"_ZN7android7RefBase13onLastWeakRefEPKv"
    }
   ],
   "unique_id":"_ZTSN7android8hardware6camera6device4V3_424BpHwCameraDeviceCallbackE"
  },
  {
   "vtable_components":[
    {
     "kind":"vbase_offset",
     "component_value":4
    },
    {
     "kind":"offset_to_top"
    },
    {
     "kind":"rtti",
     "mangled_component_name":"_ZTIN7android8hardware6camera6device4V3_421ICameraDeviceCallbackE"
    },
    {
     "mangled_component_name":"_ZNK7android8hardware6camera6device4V3_421ICameraDeviceCallback8isRemoteEv"
    },
    {
     "mangled_component_name":"_ZN7android8hardware6camera6device4V3_421ICameraDeviceCallback14interfaceChainENSt3__18functionIFvRKNS0_8hidl_vecINS0_11hidl_stringEEEEEE"
    },
    {
     "mangled_component_name":"_ZN7android8hardware6camera6device4V3_421ICameraDeviceCallback5debugERKNS0_11hidl_handleERKNS0_8hidl_vecINS0_11hidl_stringEEE"
    },
    {
     "mangled_component_name":"_ZN7android8hardware6camera6device4V3_421ICameraDeviceCallback19interfaceDescriptorENSt3__18functionIFvRKNS0_11hidl_stringEEEE"
    },
    {
     "mangled_component_name":"_ZN7android8hardware6camera6device4V3_421ICameraDeviceCallback12getHashChainENSt3__18functionIFvRKNS0_8hidl_vecINS0_10hidl_arrayIhLj32EJEEEEEEEE"
    },
    {
     "mangled_component_name":"_ZN7android8hardware6camera6device4V3_421ICameraDeviceCallback21setHALInstrumentationEv"
    },
    {
     "mangled_component_name":"_ZN7android8hardware6camera6device4V3_421ICameraDeviceCallback11linkToDeathERKNS_2spINS0_20hidl_death_recipientEEEy"
    },
    {
     "mangled_component_name":"_ZN7android8hardware6camera6device4V3_421ICameraDeviceCallback4pingEv"
    },
    {
     "mangled_component_name":"_ZN7android8hardware6camera6device4V3_421ICameraDeviceCallback12getDebugInfoENSt3__18functionIFvRKNS_4hidl4base4V1_09DebugInfoEEEE"
    },
    {
     "mangled_component_name":"_ZN7android8hardware6camera6device4V3_421ICameraDeviceCallback21notifySyspropsChangedEv"
    },
    {
     "mangled_component_name":"_ZN7android8hardware6camera6device4V3_421ICameraDeviceCallback13unlinkToDeathERKNS_2spINS0_20hidl_death_recipientEEE"
    },
    {
     "kind":"complete_dtor_pointer",
     "mangled_component_name":"_ZN7android8hardware6camera6device4V3_421ICameraDeviceCallbackD1Ev"
    },
    {
     "kind":"deleting_dtor_pointer",
     "mangled_component_name":"_ZN7android8hardware6camera6device4V3_421ICameraDeviceCallbackD0Ev"
    },
    {
     "is_pure":true,
     "mangled_component_name":"_ZN7android8hardware6camera6device4V3_421ICameraDeviceCallback20processCaptureResultERKNS0_8hidl_vecINS2_4V3_213CaptureResultEEE"
    },
    {
     "is_pure":true,
     "mangled_component_name":"_ZN7android8hardware6camera6device4V3_421ICameraDeviceCallback6notifyERKNS0_8hidl_vecINS2_4V3_29NotifyMsgEEE"
    },
    {
     "is_pure":true,
     "mangled_component_name":"_ZN7android8hardware6camera6device4V3_421ICameraDeviceCallback24processCaptureResult_3_4ERKNS0_8hidl_vecINS3_13CaptureResultEEE"
    },
    {
     "kind":"vcall_offset"
    },
    {
     "kind":"vcall_offset"
    },
    {
     "kind":"vcall_offset"
    },
    {
     "kind":"vcall_offset"
    },
    {
     "kind":"vcall_offset",
     "component_value":-4
    },
    {
     "kind":"offset_to_top",
     "component_value":-4
    },
    {
     "kind":"rtti",
     "mangled_component_name":"_ZTIN7android8hardware6camera6device4V3_421ICameraDeviceCallbackE"
    },
    {
     "kind":"complete_dtor_pointer",
     "mangled_component_name":"_ZTv0_n12_N7android8hardware6camera6device4V3_421ICameraDeviceCallbackD1Ev"
    },
    {
     "kind":"deleting_dtor_pointer",
     "mangled_component_name":"_ZTv0_n12_N7android8hardware6camera6device4V3_421ICameraDeviceCallbackD0Ev"
    },
    {
     "mangled_component_name":"_ZN7android7RefBase10onFirstRefEv"
    },
    {
     "mangled_component_name":"_ZN7android7RefBase15onLastStrongRefEPKv"
    },
    {
     "mangled_component_name":"_ZN7android7RefBase20onIncStrongAttemptedEjPKv"
    },
    {
     "mangled_component_name":"_ZN7android7RefBase13onLastWeakRefEPKv"
    }
   ],
   "unique_id":"_ZTSN7android8hardware6camera6device4V3_421ICameraDeviceCallbackE"
  },
  {
   "vtable_components":[
    {
     "kind":"vbase_offset",
     "component_value":4
    },
    {
     "kind":"offset_to_top"
    },
    {
     "kind":"rtti",
     "mangled_component_name":"_ZTIN7android8hardware6camera6device4V3_420ICameraDeviceSessionE"
    },
    {
     "mangled_component_name":"_ZNK7android8hardware6camera6device4V3_420ICameraDeviceSession8isRemoteEv"
    },
    {
     "mangled_component_name":"_ZN7android8hardware6camera6device4V3_420ICameraDeviceSession14interfaceChainENSt3__18functionIFvRKNS0_8hidl_vecINS0_11hidl_stringEEEEEE"
    },
    {
     "mangled_component_name":"_ZN7android8hardware6camera6device4V3_420ICameraDeviceSession5debugERKNS0_11hidl_handleERKNS0_8hidl_vecINS0_11hidl_stringEEE"
    },
    {
     "mangled_component_name":"_ZN7android8hardware6camera6device4V3_420ICameraDeviceSession19interfaceDescriptorENSt3__18functionIFvRKNS0_11hidl_stringEEEE"
    },
    {
     "mangled_component_name":"_ZN7android8hardware6camera6device4V3_420ICameraDeviceSession12getHashChainENSt3__18functionIFvRKNS0_8hidl_vecINS0_10hidl_arrayIhLj32EJEEEEEEEE"
    },
    {
     "mangled_component_name":"_ZN7android8hardware6camera6device4V3_420ICameraDeviceSession21setHALInstrumentationEv"
    },
    {
     "mangled_component_name":"_ZN7android8hardware6camera6device4V3_420ICameraDeviceSession11linkToDeathERKNS_2spINS0_20hidl_death_recipientEEEy"
    },
    {
     "mangled_component_name":"_ZN7android8hardware6camera6device4V3_420ICameraDeviceSession4pingEv"
    },
    {
     "mangled_component_name":"_ZN7android8hardware6camera6device4V3_420ICameraDeviceSession12getDebugInfoENSt3__18functionIFvRKNS_4hidl4base4V1_09DebugInfoEEEE"
    },
    {
     "mangled_component_name":"_ZN7android8hardware6camera6device4V3_420ICameraDeviceSession21notifySyspropsChangedEv"
    },
    {
     "mangled_component_name":"_ZN7android8hardware6camera6device4V3_420ICameraDeviceSession13unlinkToDeathERKNS_2spINS0_20hidl_death_recipientEEE"
    },
    {
     "kind":"complete_dtor_pointer",
     "mangled_component_name":"_ZN7android8hardware6camera6device4V3_420ICameraDeviceSessionD1Ev"
    },
    {
     "kind":"deleting_dtor_pointer",
     "mangled_component_name":"_ZN7android8hardware6camera6device4V3_420ICameraDeviceSessionD0Ev"
    },
    {
     "is_pure":true,
     "mangled_component_name":"_ZN7android8hardware6camera6device4V3_420ICameraDeviceSession31constructDefaultRequestSettingsENS2_4V3_215RequestTemplateENSt3__18functionIFvNS1_6common4V1_06StatusERKNS0_8hidl_vecIhEEEEE"
    },
    {
     "is_pure":true,
     "mangled_component_name":"_ZN7android8hardware6camera6device4V3_420ICameraDeviceSession16configureStreamsERKNS2_4V3_219StreamConfigurationENSt3__18functionIFvNS1_6common4V1_06StatusERKNS5_22HalStreamConfigurationEEEE"
    },
    {
     "is_pure":true,
     "mangled_component_name":"_ZN7android8hardware6camera6device4V3_420ICameraDeviceSession21processCaptureRequestERKNS0_8hidl_vecINS2_4V3_214CaptureRequestEEERKNS5_INS6_11BufferCacheEEENSt3__18functionIFvNS1_6common4V1_06StatusEjEEE"
    },
    {
     "is_pure":true,
     "mangled_component_name":"_ZN7android8hardware6camera6device4V3_420ICameraDeviceSession30getCaptureRequestMetadataQueueENSt3__18functionIFvRKNS0_12MQDescriptorIhLNS0_8MQFlavorE1EEEEEE"
    },
    {
     "is_pure":true,
     "mangled_component_name":"_ZN7android8hardware6camera6device4V3_420ICameraDeviceSession29getCaptureResultMetadataQueueENSt3__18functionIFvRKNS0_12MQDescriptorIhLNS0_8MQFlavorE1EEEEEE"
    },
    {
     "is_pure":true,
     "mangled_component_name":"_ZN7android8hardware6camera6device4V3_420ICameraDeviceSession5flushEv"
    },
    {
     "is_pure":true,
     "mangled_component_name":"_ZN7android8hardware6camera6device4V3_420ICameraDeviceSession5closeEv"
    },
    {
     "is_pure":true,
     "mangled_component_name":"_ZN7android8hardware6camera6device4V3_420ICameraDeviceSession20configureStreams_3_3ERKNS2_4V3_219StreamConfigurationENSt3__18functionIFvNS1_6common4V1_06StatusERKNS2_4V3_322HalStreamConfigurationEEEE"
    },
    {
     "is_pure":true,
     "mangled_component_name":"_ZN7android8hardware6camera6device4V3_420ICameraDeviceSession20configureStreams_3_4ERKNS3_19StreamConfigurationENSt3__18functionIFvNS1_6common4V1_06StatusERKNS3_22HalStreamConfigurationEEEE"
    },
    {
     "is_pure":true,
     "mangled_component_name":"_ZN7android8hardware6camera6device4V3_420ICameraDeviceSession25processCaptureRequest_3_4ERKNS0_8hidl_vecINS3_14CaptureRequestEEERKNS5_INS2_4V3_211BufferCacheEEENSt3__18functionIFvNS1_6common4V1_06StatusEjEEE"
    },
    {
     "kind":"vcall_offset"
    },
    {
     "kind":"vcall_offset"
    },
    {
     "kind":"vcall_offset"
    },
    {
     "kind":"vcall_offset"
    },
    {
     "kind":"vcall_offset",
     "component_value":-4
    },
    {
     "kind":"offset_to_top",
     "component_value":-4
    },
    {
     "kind":"rtti",
     "mangled_component_name":"_ZTIN7android8hardware6camera6device4V3_420ICameraDeviceSessionE"
    },
    {
     "kind":"complete_dtor_pointer",
     "mangled_component_name":"_ZTv0_n12_N7android8hardware6camera6device4V3_420ICameraDeviceSessionD1Ev"
    },
    {
     "kind":"deleting_dtor_pointer",
     "mangled_component_name":"_ZTv0_n12_N7android8hardware6camera6device4V3_420ICameraDeviceSessionD0Ev"
    },
    {
     "mangled_component_name":"_ZN7android7RefBase10onFirstRefEv"
    },
    {
     "mangled_component_name":"_ZN7android7RefBase15onLastStrongRefEPKv"
    },
    {
     "mangled_component_name":"_ZN7android7RefBase20onIncStrongAttemptedEjPKv"
    },
    {
     "mangled_component_name":"_ZN7android7RefBase13onLastWeakRefEPKv"
    }
   ],
   "unique_id":"_ZTSN7android8hardware6camera6device4V3_420ICameraDeviceSessionE"
  }
 ],
 "elf_functions":[
  {
   "name":"_ZN7android8hardware6camera6device4V3_420ICameraDeviceSession10getServiceERKNSt3__112basic_stringIcNS5_11char_traitsIcEENS5_9allocatorIcEEEEb"
  },
  {
   "name":"_ZN7android8hardware6camera6device4V3_420ICameraDeviceSession11linkToDeathERKNS_2spINS0_20hidl_death_recipientEEEy"
  },
  {
   "name":"_ZN7android8hardware6camera6device4V3_420ICameraDeviceSession12getDebugInfoENSt3__18functionIFvRKNS_4hidl4base4V1_09DebugInfoEEEE"
  },
  {
   "name":"_ZN7android8hardware6camera6device4V3_420ICameraDeviceSession12getHashChainENSt3__18functionIFvRKNS0_8hidl_vecINS0_10hidl_arrayIhLj32EJEEEEEEEE"
  },
  {
   "name":"_ZN7android8hardware6camera6device4V3_420ICameraDeviceSession13tryGetServiceERKNSt3__112basic_stringIcNS5_11char_traitsIcEENS5_9allocatorIcEEEEb"
  },
  {
   "name":"_ZN7android8hardware6camera6device4V3_420ICameraDeviceSession13unlinkToDeathERKNS_2spINS0_20hidl_death_recipientEEE"
  },
  {
   "name":"_ZN7android8hardware6camera6device4V3_420ICameraDeviceSession14interfaceChainENSt3__18functionIFvRKNS0_8hidl_vecINS0_11hidl_stringEEEEEE"
  },
  {
   "name":"_ZN7android8hardware6camera6device4V3_420ICameraDeviceSession17registerAsServiceERKNSt3__112basic_stringIcNS5_11char_traitsIcEENS5_9allocatorIcEEEE"
  },
  {
   "name":"_ZN7android8hardware6camera6device4V3_420ICameraDeviceSession19interfaceDescriptorENSt3__18functionIFvRKNS0_11hidl_stringEEEE"
  },
  {
   "name":"_ZN7android8hardware6camera6device4V3_420ICameraDeviceSession21notifySyspropsChangedEv"
  },
  {
   "name":"_ZN7android8hardware6camera6device4V3_420ICameraDeviceSession21setHALInstrumentationEv"
  },
  {
   "name":"_ZN7android8hardware6camera6device4V3_420ICameraDeviceSession24registerForNotificationsERKNSt3__112basic_stringIcNS5_11char_traitsIcEENS5_9allocatorIcEEEERKNS_2spINS_4hidl7manager4V1_020IServiceNotificationEEE"
  },
  {
   "name":"_ZN7android8hardware6camera6device4V3_420ICameraDeviceSession4pingEv"
  },
  {
   "name":"_ZN7android8hardware6camera6device4V3_420ICameraDeviceSession5debugERKNS0_11hidl_handleERKNS0_8hidl_vecINS0_11hidl_stringEEE"
  },
  {
   "name":"_ZN7android8hardware6camera6device4V3_420ICameraDeviceSession8castFromERKNS_2spINS2_4V3_220ICameraDeviceSessionEEEb"
  },
  {
   "name":"_ZN7android8hardware6camera6device4V3_420ICameraDeviceSession8castFromERKNS_2spINS2_4V3_320ICameraDeviceSessionEEEb"
  },
  {
   "name":"_ZN7android8hardware6camera6device4V3_420ICameraDeviceSession8castFromERKNS_2spINS_4hidl4base4V1_05IBaseEEEb"
  },
  {
   "name":"_ZN7android8hardware6camera6device4V3_420ICameraDeviceSession8castFromERKNS_2spIS4_EEb"
  },
  {
   "name":"_ZN7android8hardware6camera6device4V3_421BsCameraDeviceSession13addOnewayTaskENSt3__18functionIFvvEEE"
  },
  {
   "name":"_ZN7android8hardware6camera6device4V3_421BsCameraDeviceSessionC1ENS_2spINS3_20ICameraDeviceSessionEEE"
  },
  {
   "name":"_ZN7android8hardware6camera6device4V3_421BsCameraDeviceSessionC2ENS_2spINS3_20ICameraDeviceSessionEEE"
  },
  {
   "name":"_ZN7android8hardware6camera6device4V3_421ICameraDeviceCallback10getServiceERKNSt3__112basic_stringIcNS5_11char_traitsIcEENS5_9allocatorIcEEEEb"
  },
  {
   "name":"_ZN7android8hardware6camera6device4V3_421ICameraDeviceCallback11linkToDeathERKNS_2spINS0_20hidl_death_recipientEEEy"
  },
  {
   "name":"_ZN7android8hardware6camera6device4V3_421ICameraDeviceCallback12getDebugInfoENSt3__18functionIFvRKNS_4hidl4base4V1_09DebugInfoEEEE"
  },
  {
   "name":"_ZN7android8hardware6camera6device4V3_421ICameraDeviceCallback12getHashChainENSt3__18functionIFvRKNS0_8hidl_vecINS0_10hidl_arrayIhLj32EJEEEEEEEE"
  },
  {
   "name":"_ZN7android8hardware6camera6device4V3_421ICameraDeviceCallback13tryGetServiceERKNSt3__112basic_stringIcNS5_11char_traitsIcEENS5_9allocatorIcEEEEb"
  },
  {
   "name":"_ZN7android8hardware6camera6device4V3_421ICameraDeviceCallback13unlinkToDeathERKNS_2spINS0_20hidl_death_recipientEEE"
  },
  {
   "name":"_ZN7android8hardware6camera6device4V3_421ICameraDeviceCallback14interfaceChainENSt3__18functionIFvRKNS0_8hidl_vecINS0_11hidl_stringEEEEEE"
  },
  {
   "name":"_ZN7android8hardware6camera6device4V3_421ICameraDeviceCallback17registerAsServiceERKNSt3__112basic_stringIcNS5_11char_traitsIcEENS5_9allocatorIcEEEE"
  },
  {
   "name":"_ZN7android8hardware6camera6device4V3_421ICameraDeviceCallback19interfaceDescriptorENSt3__18functionIFvRKNS0_11hidl_stringEEEE"
  },
  {
   "name":"_ZN7android8hardware6camera6device4V3_421ICameraDeviceCallback21notifySyspropsChangedEv"
  },
  {
   "name":"_ZN7android8hardware6camera6device4V3_421ICameraDeviceCallback21setHALInstrumentationEv"
  },
  {
   "name":"_ZN7android8hardware6camera6device4V3_421ICameraDeviceCallback24registerForNotificationsERKNSt3__112basic_stringIcNS5_11char_traitsIcEENS5_9allocatorIcEEEERKNS_2spINS_4hidl7manager4V1_020IServiceNotificationEEE"
  },
  {
   "name":"_ZN7android8hardware6camera6device4V3_421ICameraDeviceCallback4pingEv"
  },
  {
   "name":"_ZN7android8hardware6camera6device4V3_421ICameraDeviceCallback5debugERKNS0_11hidl_handleERKNS0_8hidl_vecINS0_11hidl_stringEEE"
  },
  {
   "name":"_ZN7android8hardware6camera6device4V3_421ICameraDeviceCallback8castFromERKNS_2spINS2_4V3_221ICameraDeviceCallbackEEEb"
  },
  {
   "name":"_ZN7android8hardware6camera6device4V3_421ICameraDeviceCallback8castFromERKNS_2spINS_4hidl4base4V1_05IBaseEEEb"
  },
  {
   "name":"_ZN7android8hardware6camera6device4V3_421ICameraDeviceCallback8castFromERKNS_2spIS4_EEb"
  },
  {
   "name":"_ZN7android8hardware6camera6device4V3_421writeEmbeddedToParcelERKNS3_13CaptureResultEPNS0_6ParcelEjj"
  },
  {
   "name":"_ZN7android8hardware6camera6device4V3_421writeEmbeddedToParcelERKNS3_14CaptureRequestEPNS0_6ParcelEjj"
  },
  {
   "name":"_ZN7android8hardware6camera6device4V3_421writeEmbeddedToParcelERKNS3_19StreamConfigurationEPNS0_6ParcelEjj"
  },
  {
   "name":"_ZN7android8hardware6camera6device4V3_421writeEmbeddedToParcelERKNS3_21PhysicalCameraSettingEPNS0_6ParcelEjj"
  },
  {
   "name":"_ZN7android8hardware6camera6device4V3_421writeEmbeddedToParcelERKNS3_22HalStreamConfigurationEPNS0_6ParcelEjj"
  },
  {
   "name":"_ZN7android8hardware6camera6device4V3_421writeEmbeddedToParcelERKNS3_22PhysicalCameraMetadataEPNS0_6ParcelEjj"
  },
  {
   "name":"_ZN7android8hardware6camera6device4V3_421writeEmbeddedToParcelERKNS3_6StreamEPNS0_6ParcelEjj"
  },
  {
   "name":"_ZN7android8hardware6camera6device4V3_421writeEmbeddedToParcelERKNS3_9HalStreamEPNS0_6ParcelEjj"
  },
  {
   "name":"_ZN7android8hardware6camera6device4V3_422BsCameraDeviceCallback13addOnewayTaskENSt3__18functionIFvvEEE"
  },
  {
   "name":"_ZN7android8hardware6camera6device4V3_422BsCameraDeviceCallbackC1ENS_2spINS3_21ICameraDeviceCallbackEEE"
  },
  {
   "name":"_ZN7android8hardware6camera6device4V3_422BsCameraDeviceCallbackC2ENS_2spINS3_21ICameraDeviceCallbackEEE"
  },
  {
   "name":"_ZN7android8hardware6camera6device4V3_422readEmbeddedFromParcelERKNS3_13CaptureResultERKNS0_6ParcelEjj"
  },
  {
   "name":"_ZN7android8hardware6camera6device4V3_422readEmbeddedFromParcelERKNS3_14CaptureRequestERKNS0_6ParcelEjj"
  },
  {
   "name":"_ZN7android8hardware6camera6device4V3_422readEmbeddedFromParcelERKNS3_19StreamConfigurationERKNS0_6ParcelEjj"
  },
  {
   "name":"_ZN7android8hardware6camera6device4V3_422readEmbeddedFromParcelERKNS3_21PhysicalCameraSettingERKNS0_6ParcelEjj"
  },
  {
   "name":"_ZN7android8hardware6camera6device4V3_422readEmbeddedFromParcelERKNS3_22HalStreamConfigurationERKNS0_6ParcelEjj"
  },
  {
   "name":"_ZN7android8hardware6camera6device4V3_422readEmbeddedFromParcelERKNS3_22PhysicalCameraMetadataERKNS0_6ParcelEjj"
  },
  {
   "name":"_ZN7android8hardware6camera6device4V3_422readEmbeddedFromParcelERKNS3_6StreamERKNS0_6ParcelEjj"
  },
  {
   "name":"_ZN7android8hardware6camera6device4V3_422readEmbeddedFromParcelERKNS3_9HalStreamERKNS0_6ParcelEjj"
  },
  {
   "name":"_ZN7android8hardware6camera6device4V3_423BnHwCameraDeviceSession10onTransactEjRKNS0_6ParcelEPS5_jNSt3__18functionIFvRS5_EEE"
  },
  {
   "name":"_ZN7android8hardware6camera6device4V3_423BnHwCameraDeviceSession12getDebugInfoENSt3__18functionIFvRKNS_4hidl4base4V1_09DebugInfoEEEE"
  },
  {
   "name":"_ZN7android8hardware6camera6device4V3_423BnHwCameraDeviceSession26_hidl_configureStreams_3_4EPNS_4hidl4base4V1_08BnHwBaseERKNS0_6ParcelEPSA_NSt3__18functionIFvRSA_EEE"
  },
  {
   "name":"_ZN7android8hardware6camera6device4V3_423BnHwCameraDeviceSession31_hidl_processCaptureRequest_3_4EPNS_4hidl4base4V1_08BnHwBaseERKNS0_6ParcelEPSA_NSt3__18functionIFvRSA_EEE"
  },
  {
   "name":"_ZN7android8hardware6camera6device4V3_423BnHwCameraDeviceSession4pingEv"
  },
  {
   "name":"_ZN7android8hardware6camera6device4V3_423BnHwCameraDeviceSessionC1ERKNS_2spINS3_20ICameraDeviceSessionEEE"
  },
  {
   "name":"_ZN7android8hardware6camera6device4V3_423BnHwCameraDeviceSessionC2ERKNS_2spINS3_20ICameraDeviceSessionEEE"
  },
  {
   "name":"_ZN7android8hardware6camera6device4V3_423BnHwCameraDeviceSessionD0Ev"
  },
  {
   "name":"_ZN7android8hardware6camera6device4V3_423BnHwCameraDeviceSessionD1Ev"
  },
  {
   "name":"_ZN7android8hardware6camera6device4V3_423BnHwCameraDeviceSessionD2Ev"
  },
  {
   "name":"_ZN7android8hardware6camera6device4V3_423BpHwCameraDeviceSession11linkToDeathERKNS_2spINS0_20hidl_death_recipientEEEy"
  },
  {
   "name":"_ZN7android8hardware6camera6device4V3_423BpHwCameraDeviceSession12getDebugInfoENSt3__18functionIFvRKNS_4hidl4base4V1_09DebugInfoEEEE"
  },
  {
   "name":"_ZN7android8hardware6camera6device4V3_423BpHwCameraDeviceSession12getHashChainENSt3__18functionIFvRKNS0_8hidl_vecINS0_10hidl_arrayIhLj32EJEEEEEEEE"
  },
  {
   "name":"_ZN7android8hardware6camera6device4V3_423BpHwCameraDeviceSession13unlinkToDeathERKNS_2spINS0_20hidl_death_recipientEEE"
  },
  {
   "name":"_ZN7android8hardware6camera6device4V3_423BpHwCameraDeviceSession14interfaceChainENSt3__18functionIFvRKNS0_8hidl_vecINS0_11hidl_stringEEEEEE"
  },
  {
   "name":"_ZN7android8hardware6camera6device4V3_423BpHwCameraDeviceSession16configureStreamsERKNS2_4V3_219StreamConfigurationENSt3__18functionIFvNS1_6common4V1_06StatusERKNS5_22HalStreamConfigurationEEEE"
  },
  {
   "name":"_ZN7android8hardware6camera6device4V3_423BpHwCameraDeviceSession19interfaceDescriptorENSt3__18functionIFvRKNS0_11hidl_stringEEEE"
  },
  {
   "name":"_ZN7android8hardware6camera6device4V3_423BpHwCameraDeviceSession20configureStreams_3_3ERKNS2_4V3_219StreamConfigurationENSt3__18functionIFvNS1_6common4V1_06StatusERKNS2_4V3_322HalStreamConfigurationEEEE"
  },
  {
   "name":"_ZN7android8hardware6camera6device4V3_423BpHwCameraDeviceSession20configureStreams_3_4ERKNS3_19StreamConfigurationENSt3__18functionIFvNS1_6common4V1_06StatusERKNS3_22HalStreamConfigurationEEEE"
  },
  {
   "name":"_ZN7android8hardware6camera6device4V3_423BpHwCameraDeviceSession21notifySyspropsChangedEv"
  },
  {
   "name":"_ZN7android8hardware6camera6device4V3_423BpHwCameraDeviceSession21processCaptureRequestERKNS0_8hidl_vecINS2_4V3_214CaptureRequestEEERKNS5_INS6_11BufferCacheEEENSt3__18functionIFvNS1_6common4V1_06StatusEjEEE"
  },
  {
   "name":"_ZN7android8hardware6camera6device4V3_423BpHwCameraDeviceSession21setHALInstrumentationEv"
  },
  {
   "name":"_ZN7android8hardware6camera6device4V3_423BpHwCameraDeviceSession25processCaptureRequest_3_4ERKNS0_8hidl_vecINS3_14CaptureRequestEEERKNS5_INS2_4V3_211BufferCacheEEENSt3__18functionIFvNS1_6common4V1_06StatusEjEEE"
  },
  {
   "name":"_ZN7android8hardware6camera6device4V3_423BpHwCameraDeviceSession26_hidl_configureStreams_3_4EPNS0_10IInterfaceEPNS0_7details16HidlInstrumentorERKNS3_19StreamConfigurationENSt3__18functionIFvNS1_6common4V1_06StatusERKNS3_22HalStreamConfigurationEEEE"
  },
  {
   "name":"_ZN7android8hardware6camera6device4V3_423BpHwCameraDeviceSession29getCaptureResultMetadataQueueENSt3__18functionIFvRKNS0_12MQDescriptorIhLNS0_8MQFlavorE1EEEEEE"
  },
  {
   "name":"_ZN7android8hardware6camera6device4V3_423BpHwCameraDeviceSession30getCaptureRequestMetadataQueueENSt3__18functionIFvRKNS0_12MQDescriptorIhLNS0_8MQFlavorE1EEEEEE"
  },
  {
   "name":"_ZN7android8hardware6camera6device4V3_423BpHwCameraDeviceSession31_hidl_processCaptureRequest_3_4EPNS0_10IInterfaceEPNS0_7details16HidlInstrumentorERKNS0_8hidl_vecINS3_14CaptureRequestEEERKNSA_INS2_4V3_211BufferCacheEEENSt3__18functionIFvNS1_6common4V1_06StatusEjEEE"
  },
  {
   "name":"_ZN7android8hardware6camera6device4V3_423BpHwCameraDeviceSession31constructDefaultRequestSettingsENS2_4V3_215RequestTemplateENSt3__18functionIFvNS1_6common4V1_06StatusERKNS0_8hidl_vecIhEEEEE"
  },
  {
   "name":"_ZN7android8hardware6camera6device4V3_423BpHwCameraDeviceSession4pingEv"
  },
  {
   "name":"_ZN7android8hardware6camera6device4V3_423BpHwCameraDeviceSession5closeEv"
  },
  {
   "name":"_ZN7android8hardware6camera6device4V3_423BpHwCameraDeviceSession5debugERKNS0_11hidl_handleERKNS0_8hidl_vecINS0_11hidl_stringEEE"
  },
  {
   "name":"_ZN7android8hardware6camera6device4V3_423BpHwCameraDeviceSession5flushEv"
  },
  {
   "name":"_ZN7android8hardware6camera6device4V3_423BpHwCameraDeviceSessionC1ERKNS_2spINS0_7IBinderEEE"
  },
  {
   "name":"_ZN7android8hardware6camera6device4V3_423BpHwCameraDeviceSessionC2ERKNS_2spINS0_7IBinderEEE"
  },
  {
   "name":"_ZN7android8hardware6camera6device4V3_424BnHwCameraDeviceCallback10onTransactEjRKNS0_6ParcelEPS5_jNSt3__18functionIFvRS5_EEE"
  },
  {
   "name":"_ZN7android8hardware6camera6device4V3_424BnHwCameraDeviceCallback12getDebugInfoENSt3__18functionIFvRKNS_4hidl4base4V1_09DebugInfoEEEE"
  },
  {
   "name":"_ZN7android8hardware6camera6device4V3_424BnHwCameraDeviceCallback30_hidl_processCaptureResult_3_4EPNS_4hidl4base4V1_08BnHwBaseERKNS0_6ParcelEPSA_NSt3__18functionIFvRSA_EEE"
  },
  {
   "name":"_ZN7android8hardware6camera6device4V3_424BnHwCameraDeviceCallback4pingEv"
  },
  {
   "name":"_ZN7android8hardware6camera6device4V3_424BnHwCameraDeviceCallbackC1ERKNS_2spINS3_21ICameraDeviceCallbackEEE"
  },
  {
   "name":"_ZN7android8hardware6camera6device4V3_424BnHwCameraDeviceCallbackC2ERKNS_2spINS3_21ICameraDeviceCallbackEEE"
  },
  {
   "name":"_ZN7android8hardware6camera6device4V3_424BnHwCameraDeviceCallbackD0Ev"
  },
  {
   "name":"_ZN7android8hardware6camera6device4V3_424BnHwCameraDeviceCallbackD1Ev"
  },
  {
   "name":"_ZN7android8hardware6camera6device4V3_424BnHwCameraDeviceCallbackD2Ev"
  },
  {
   "name":"_ZN7android8hardware6camera6device4V3_424BpHwCameraDeviceCallback11linkToDeathERKNS_2spINS0_20hidl_death_recipientEEEy"
  },
  {
   "name":"_ZN7android8hardware6camera6device4V3_424BpHwCameraDeviceCallback12getDebugInfoENSt3__18functionIFvRKNS_4hidl4base4V1_09DebugInfoEEEE"
  },
  {
   "name":"_ZN7android8hardware6camera6device4V3_424BpHwCameraDeviceCallback12getHashChainENSt3__18functionIFvRKNS0_8hidl_vecINS0_10hidl_arrayIhLj32EJEEEEEEEE"
  },
  {
   "name":"_ZN7android8hardware6camera6device4V3_424BpHwCameraDeviceCallback13unlinkToDeathERKNS_2spINS0_20hidl_death_recipientEEE"
  },
  {
   "name":"_ZN7android8hardware6camera6device4V3_424BpHwCameraDeviceCallback14interfaceChainENSt3__18functionIFvRKNS0_8hidl_vecINS0_11hidl_stringEEEEEE"
  },
  {
   "name":"_ZN7android8hardware6camera6device4V3_424BpHwCameraDeviceCallback19interfaceDescriptorENSt3__18functionIFvRKNS0_11hidl_stringEEEE"
  },
  {
   "name":"_ZN7android8hardware6camera6device4V3_424BpHwCameraDeviceCallback20processCaptureResultERKNS0_8hidl_vecINS2_4V3_213CaptureResultEEE"
  },
  {
   "name":"_ZN7android8hardware6camera6device4V3_424BpHwCameraDeviceCallback21notifySyspropsChangedEv"
  },
  {
   "name":"_ZN7android8hardware6camera6device4V3_424BpHwCameraDeviceCallback21setHALInstrumentationEv"
  },
  {
   "name":"_ZN7android8hardware6camera6device4V3_424BpHwCameraDeviceCallback24processCaptureResult_3_4ERKNS0_8hidl_vecINS3_13CaptureResultEEE"
  },
  {
   "name":"_ZN7android8hardware6camera6device4V3_424BpHwCameraDeviceCallback30_hidl_processCaptureResult_3_4EPNS0_10IInterfaceEPNS0_7details16HidlInstrumentorERKNS0_8hidl_vecINS3_13CaptureResultEEE"
  },
  {
   "name":"_ZN7android8hardware6camera6device4V3_424BpHwCameraDeviceCallback4pingEv"
  },
  {
   "name":"_ZN7android8hardware6camera6device4V3_424BpHwCameraDeviceCallback5debugERKNS0_11hidl_handleERKNS0_8hidl_vecINS0_11hidl_stringEEE"
  },
  {
   "name":"_ZN7android8hardware6camera6device4V3_424BpHwCameraDeviceCallback6notifyERKNS0_8hidl_vecINS2_4V3_29NotifyMsgEEE"
  },
  {
   "name":"_ZN7android8hardware6camera6device4V3_424BpHwCameraDeviceCallbackC1ERKNS_2spINS0_7IBinderEEE"
  },
  {
   "name":"_ZN7android8hardware6camera6device4V3_424BpHwCameraDeviceCallbackC2ERKNS_2spINS0_7IBinderEEE"
  },
  {
   "binding":"weak",
   "name":"_ZN7android8hardware7details13castInterfaceINS0_6camera6device4V3_420ICameraDeviceSessionENS4_4V3_220ICameraDeviceSessionENS5_23BpHwCameraDeviceSessionEEENS0_6ReturnINS_2spIT_EEEENSB_IT0_EEPKcb"
  },
  {
   "binding":"weak",
   "name":"_ZN7android8hardware7details13castInterfaceINS0_6camera6device4V3_420ICameraDeviceSessionENS4_4V3_320ICameraDeviceSessionENS5_23BpHwCameraDeviceSessionEEENS0_6ReturnINS_2spIT_EEEENSB_IT0_EEPKcb"
  },
  {
   "binding":"weak",
   "name":"_ZN7android8hardware7details13castInterfaceINS0_6camera6device4V3_420ICameraDeviceSessionENS_4hidl4base4V1_05IBaseENS5_23BpHwCameraDeviceSessionEEENS0_6ReturnINS_2spIT_EEEENSD_IT0_EEPKcb"
  },
  {
   "binding":"weak",
   "name":"_ZN7android8hardware7details13castInterfaceINS0_6camera6device4V3_421ICameraDeviceCallbackENS4_4V3_221ICameraDeviceCallbackENS5_24BpHwCameraDeviceCallbackEEENS0_6ReturnINS_2spIT_EEEENSB_IT0_EEPKcb"
  },
  {
   "binding":"weak",
   "name":"_ZN7android8hardware7details13castInterfaceINS0_6camera6device4V3_421ICameraDeviceCallbackENS_4hidl4base4V1_05IBaseENS5_24BpHwCameraDeviceCallbackEEENS0_6ReturnINS_2spIT_EEEENSD_IT0_EEPKcb"
  },
  {
   "binding":"weak",
   "name":"_ZN7android8hardware7details18getServiceInternalINS0_6camera6device4V3_423BpHwCameraDeviceSessionENS5_20ICameraDeviceSessionEvvEENS_2spIT0_EERKNSt3__112basic_stringIcNSB_11char_traitsIcEENSB_9allocatorIcEEEEbb"
  },
  {
   "binding":"weak",
   "name":"_ZN7android8hardware7details18getServiceInternalINS0_6camera6device4V3_424BpHwCameraDeviceCallbackENS5_21ICameraDeviceCallbackEvvEENS_2spIT0_EERKNSt3__112basic_stringIcNSB_11char_traitsIcEENSB_9allocatorIcEEEEbb"
  },
  {
   "binding":"weak",
   "name":"_ZN7android8hardware8toBinderINS0_6camera6device4V3_220ICameraDeviceSessionEvEENS_2spINS0_7IBinderEEENS6_IT_EE"
  },
  {
   "binding":"weak",
   "name":"_ZN7android8hardware8toBinderINS0_6camera6device4V3_221ICameraDeviceCallbackEvEENS_2spINS0_7IBinderEEENS6_IT_EE"
  },
  {
   "binding":"weak",
   "name":"_ZN7android8hardware8toBinderINS0_6camera6device4V3_320ICameraDeviceSessionEvEENS_2spINS0_7IBinderEEENS6_IT_EE"
  },
  {
   "binding":"weak",
   "name":"_ZN7android8hardware8toBinderINS_4hidl4base4V1_05IBaseEvEENS_2spINS0_7IBinderEEENS6_IT_EE"
  },
  {
   "name":"_ZThn20_N7android8hardware6camera6device4V3_423BnHwCameraDeviceSessionD0Ev"
  },
  {
   "name":"_ZThn20_N7android8hardware6camera6device4V3_423BnHwCameraDeviceSessionD1Ev"
  },
  {
   "name":"_ZThn20_N7android8hardware6camera6device4V3_424BnHwCameraDeviceCallbackD0Ev"
  },
  {
   "name":"_ZThn20_N7android8hardware6camera6device4V3_424BnHwCameraDeviceCallbackD1Ev"
  },
  {
   "name":"_ZTv0_n12_N7android8hardware6camera6device4V3_423BnHwCameraDeviceSessionD0Ev"
  },
  {
   "name":"_ZTv0_n12_N7android8hardware6camera6device4V3_423BnHwCameraDeviceSessionD1Ev"
  },
  {
   "name":"_ZTv0_n12_N7android8hardware6camera6device4V3_424BnHwCameraDeviceCallbackD0Ev"
  },
  {
   "name":"_ZTv0_n12_N7android8hardware6camera6device4V3_424BnHwCameraDeviceCallbackD1Ev"
  }
 ],
 "elf_objects":[
  {
   "name":"_ZN7android8hardware6camera6device4V3_420ICameraDeviceSession10descriptorE"
  },
  {
   "name":"_ZN7android8hardware6camera6device4V3_421ICameraDeviceCallback10descriptorE"
  },
  {
   "name":"_ZTTN7android8hardware6camera6device4V3_420ICameraDeviceSessionE"
  },
  {
   "name":"_ZTTN7android8hardware6camera6device4V3_421ICameraDeviceCallbackE"
  },
  {
   "name":"_ZTTN7android8hardware6camera6device4V3_423BnHwCameraDeviceSessionE"
  },
  {
   "name":"_ZTTN7android8hardware6camera6device4V3_423BpHwCameraDeviceSessionE"
  },
  {
   "name":"_ZTTN7android8hardware6camera6device4V3_424BnHwCameraDeviceCallbackE"
  },
  {
   "name":"_ZTTN7android8hardware6camera6device4V3_424BpHwCameraDeviceCallbackE"
  },
  {
   "name":"_ZTVN7android8hardware6camera6device4V3_420ICameraDeviceSessionE"
  },
  {
   "binding":"weak",
   "name":"_ZTVN7android8hardware6camera6device4V3_421BsCameraDeviceSessionE"
  },
  {
   "name":"_ZTVN7android8hardware6camera6device4V3_421ICameraDeviceCallbackE"
  },
  {
   "binding":"weak",
   "name":"_ZTVN7android8hardware6camera6device4V3_422BsCameraDeviceCallbackE"
  },
  {
   "name":"_ZTVN7android8hardware6camera6device4V3_423BnHwCameraDeviceSessionE"
  },
  {
   "name":"_ZTVN7android8hardware6camera6device4V3_423BpHwCameraDeviceSessionE"
  },
  {
   "name":"_ZTVN7android8hardware6camera6device4V3_424BnHwCameraDeviceCallbackE"
  },
  {
   "name":"_ZTVN7android8hardware6camera6device4V3_424BpHwCameraDeviceCallbackE"
  }
 ]
}