{
 "record_types":[
  {
   "vtable_components":[
    {
     "kind":"vbase_offset",
     "component_value":4
    },
    {
     "kind":"offset_to_top"
    },
    {
     "kind":"rtti",
     "mangled_component_name":"_ZTIN7android8hardware8graphics6mapper4V2_07IMapperE"
    },
    {
     "mangled_component_name":"_ZNK7android8hardware8graphics6mapper4V2_07IMapper8isRemoteEv"
    },
    {
     "mangled_component_name":"_ZN7android8hardware8graphics6mapper4V2_07IMapper14interfaceChainENSt3__18functionIFvRKNS0_8hidl_vecINS0_11hidl_stringEEEEEE"
    },
    {
     "mangled_component_name":"_ZN7android8hardware8graphics6mapper4V2_07IMapper5debugERKNS0_11hidl_handleERKNS0_8hidl_vecINS0_11hidl_stringEEE"
    },
    {
     "mangled_component_name":"_ZN7android8hardware8graphics6mapper4V2_07IMapper19interfaceDescriptorENSt3__18functionIFvRKNS0_11hidl_stringEEEE"
    },
    {
     "mangled_component_name":"_ZN7android8hardware8graphics6mapper4V2_07IMapper12getHashChainENSt3__18functionIFvRKNS0_8hidl_vecINS0_10hidl_arrayIhLj32EJEEEEEEEE"
    },
    {
     "mangled_component_name":"_ZN7android8hardware8graphics6mapper4V2_07IMapper21setHALInstrumentationEv"
    },
    {
     "mangled_component_name":"_ZN7android8hardware8graphics6mapper4V2_07IMapper11linkToDeathERKNS_2spINS0_20hidl_death_recipientEEEy"
    },
    {
     "mangled_component_name":"_ZN7android8hardware8graphics6mapper4V2_07IMapper4pingEv"
    },
    {
     "mangled_component_name":"_ZN7android8hardware8graphics6mapper4V2_07IMapper12getDebugInfoENSt3__18functionIFvRKNS_4hidl4base4V1_09DebugInfoEEEE"
    },
    {
     "mangled_component_name":"_ZN7android8hardware8graphics6mapper4V2_07IMapper21notifySyspropsChangedEv"
    },
    {
     "mangled_component_name":"_ZN7android8hardware8graphics6mapper4V2_07IMapper13unlinkToDeathERKNS_2spINS0_20hidl_death_recipientEEE"
    },
    {
     "kind":"complete_dtor_pointer",
     "mangled_component_name":"_ZN7android8hardware8graphics6mapper4V2_07IMapperD1Ev"
    },
    {
     "kind":"deleting_dtor_pointer",
     "mangled_component_name":"_ZN7android8hardware8graphics6mapper4V2_07IMapperD0Ev"
    },
    {
     "is_pure":true,
     "mangled_component_name":"_ZN7android8hardware8graphics6mapper4V2_07IMapper16createDescriptorERKNS4_20BufferDescriptorInfoENSt3__18functionIFvNS3_5ErrorERKNS0_8hidl_vecIjEEEEE"
    },
    {
     "is_pure":true,
     "mangled_component_name":"_ZN7android8hardware8graphics6mapper4V2_07IMapper12importBufferERKNS0_11hidl_handleENSt3__18functionIFvNS3_5ErrorEPvEEE"
    },
    {
     "is_pure":true,
     "mangled_component_name":"_ZN7android8hardware8graphics6mapper4V2_07IMapper10freeBufferEPv"
    },
    {
     "is_pure":true,
     "mangled_component_name":"_ZN7android8hardware8graphics6mapper4V2_07IMapper4lockEPvyRKNS4_4RectERKNS0_11hidl_handleENSt3__18functionIFvNS3_5ErrorES5_EEE"
    },
    {
     "is_pure":true,
     "mangled_component_name":"_ZN7android8hardware8graphics6mapper4V2_07IMapper9lockYCbCrEPvyRKNS4_4RectERKNS0_11hidl_handleENSt3__18functionIFvNS3_5ErrorERKNS3_11YCbCrLayoutEEEE"
    },
    {
     "is_pure":true,
     "mangled_component_name":"_ZN7android8hardware8graphics6mapper4V2_07IMapper6unlockEPvNSt3__18functionIFvNS3_5ErrorERKNS0_11hidl_handleEEEE"
    },
    {
     "kind":"vcall_offset"
    },
    {
     "kind":"vcall_offset"
    },
    {
     "kind":"vcall_offset"
    },
    {
     "kind":"vcall_offset"
    },
    {
     "kind":"vcall_offset",
     "component_value":-4
    },
    {
     "kind":"offset_to_top",
     "component_value":-4
    },
    {
     "kind":"rtti",
     "mangled_component_name":"_ZTIN7android8hardware8graphics6mapper4V2_07IMapperE"
    },
    {
     "kind":"complete_dtor_pointer",
     "mangled_component_name":"_ZTv0_n12_N7android8hardware8graphics6mapper4V2_07IMapperD1Ev"
    },
    {
     "kind":"deleting_dtor_pointer",
     "mangled_component_name":"_ZTv0_n12_N7android8hardware8graphics6mapper4V2_07IMapperD0Ev"
    },
    {
     "mangled_component_name":"_ZN7android7RefBase10onFirstRefEv"
    },
    {
     "mangled_component_name":"_ZN7android7RefBase15onLastStrongRefEPKv"
    },
    {
     "mangled_component_name":"_ZN7android7RefBase20onIncStrongAttemptedEjPKv"
    },
    {
     "mangled_component_name":"_ZN7android7RefBase13onLastWeakRefEPKv"
    }
   ],
   "unique_id":"_ZTSN7android8hardware8graphics6mapper4V2_07IMapperE"
  },
  {
   "vtable_components":[
    {
     "kind":"vbase_offset",
     "component_value":72
    },
    {
     "kind":"offset_to_top"
    },
    {
     "kind":"rtti",
     "mangled_component_name":"_ZTIN7android8hardware8graphics6mapper4V2_010BnHwMapperE"
    },
    {
     "mangled_component_name":"_ZN7android8hardware9BHwBinder8transactEjRKNS0_6ParcelEPS2_jNSt3__18functionIFvRS2_EEE"
    },
    {
     "mangled_component_name":"_ZN7android8hardware9BHwBinder11linkToDeathERKNS_2spINS0_7IBinder14DeathRecipientEEEPvj"
    },
    {
     "mangled_component_name":"_ZN7android8hardware9BHwBinder13unlinkToDeathERKNS_2wpINS0_7IBinder14DeathRecipientEEEPvjPS5_"
    },
    {
     "mangled_component_name":"_ZNK7android8hardware7IBinder13checkSubclassEPKv"
    },
    {
     "mangled_component_name":"_ZN7android8hardware9BHwBinder12attachObjectEPKvPvS4_PFvS3_S4_S4_E"
    },
    {
     "mangled_component_name":"_ZNK7android8hardware9BHwBinder10findObjectEPKv"
    },
    {
     "mangled_component_name":"_ZN7android8hardware9BHwBinder12detachObjectEPKv"
    },
    {
     "mangled_component_name":"_ZN7android8hardware9BHwBinder11localBinderEv"
    },
    {
     "mangled_component_name":"_ZN7android8hardware7IBinder12remoteBinderEv"
    },
    {
     "kind":"complete_dtor_pointer",
     "mangled_component_name":"_ZN7android8hardware8graphics6mapper4V2_010BnHwMapperD1Ev"
    },
    {
     "kind":"deleting_dtor_pointer",
     "mangled_component_name":"_ZN7android8hardware8graphics6mapper4V2_010BnHwMapperD0Ev"
    },
    {
     "mangled_component_name":"_ZN7android8hardware8graphics6mapper4V2_010BnHwMapper10onTransactEjRKNS0_6ParcelEPS5_jNSt3__18functionIFvRS5_EEE"
    },
    {
     "kind":"offset_to_top",
     "component_value":-20
    },
    {
     "kind":"rtti",
     "mangled_component_name":"_ZTIN7android8hardware8graphics6mapper4V2_010BnHwMapperE"
    },
    {
     "kind":"complete_dtor_pointer",
     "mangled_component_name":"_ZThn20_N7android8hardware8graphics6mapper4V2_010BnHwMapperD1Ev"
    },
    {
     "kind":"deleting_dtor_pointer",
     "mangled_component_name":"_ZThn20_N7android8hardware8graphics6mapper4V2_010BnHwMapperD0Ev"
    },
    {
     "kind":"vcall_offset"
    },
    {
     "kind":"vcall_offset"
    },
    {
     "kind":"vcall_offset"
    },
    {
     "kind":"vcall_offset"
    },
    {
     "kind":"vcall_offset",
     "component_value":-72
    },
    {
     "kind":"offset_to_top",
     "component_value":-72
    },
    {
     "kind":"rtti",
     "mangled_component_name":"_ZTIN7android8hardware8graphics6mapper4V2_010BnHwMapperE"
    },
    {
     "kind":"complete_dtor_pointer",
     "mangled_component_name":"_ZTv0_n12_N7android8hardware8graphics6mapper4V2_010BnHwMapperD1Ev"
    },
    {
     "kind":"deleting_dtor_pointer",
     "mangled_component_name":"_ZTv0_n12_N7android8hardware8graphics6mapper4V2_010BnHwMapperD0Ev"
    },
    {
     "mangled_component_name":"_ZN7android7RefBase10onFirstRefEv"
    },
    {
     "mangled_component_name":"_ZN7android7RefBase15onLastStrongRefEPKv"
    },
    {
     "mangled_component_name":"_ZN7android7RefBase20onIncStrongAttemptedEjPKv"
    },
    {
     "mangled_component_name":"_ZN7android7RefBase13onLastWeakRefEPKv"
    }
   ],
   "unique_id":"_ZTSN7android8hardware8graphics6mapper4V2_010BnHwMapperE"
  },
  {
   "vtable_components":[
    {
     "kind":"vbase_offset",
     "component_value":60
    },
    {
     "kind":"offset_to_top"
    },
    {
     "kind":"rtti",
     "mangled_component_name":"_ZTIN7android8hardware8graphics6mapper4V2_08BsMapperE"
    },
    {
     "mangled_component_name":"_ZNK7android8hardware8graphics6mapper4V2_07IMapper8isRemoteEv"
    },
    {
     "mangled_component_name":"_ZN7android8hardware8graphics6mapper4V2_08BsMapper14interfaceChainENSt3__18functionIFvRKNS0_8hidl_vecINS0_11hidl_stringEEEEEE"
    },
    {
     "mangled_component_name":"_ZN7android8hardware8graphics6mapper4V2_08BsMapper5debugERKNS0_11hidl_handleERKNS0_8hidl_vecINS0_11hidl_stringEEE"
    },
    {
     "mangled_component_name":"_ZN7android8hardware8graphics6mapper4V2_08BsMapper19interfaceDescriptorENSt3__18functionIFvRKNS0_11hidl_stringEEEE"
    },
    {
     "mangled_component_name":"_ZN7android8hardware8graphics6mapper4V2_08BsMapper12getHashChainENSt3__18functionIFvRKNS0_8hidl_vecINS0_10hidl_arrayIhLj32EJEEEEEEEE"
    },
    {
     "mangled_component_name":"_ZN7android8hardware8graphics6mapper4V2_08BsMapper21setHALInstrumentationEv"
    },
    {
     "mangled_component_name":"_ZN7android8hardware8graphics6mapper4V2_08BsMapper11linkToDeathERKNS_2spINS0_20hidl_death_recipientEEEy"
    },
    {
     "mangled_component_name":"_ZN7android8hardware8graphics6mapper4V2_08BsMapper4pingEv"
    },
    {
     "mangled_component_name":"_ZN7android8hardware8graphics6mapper4V2_08BsMapper12getDebugInfoENSt3__18functionIFvRKNS_4hidl4base4V1_09DebugInfoEEEE"
    },
    {
     "mangled_component_name":"_ZN7android8hardware8graphics6mapper4V2_08BsMapper21notifySyspropsChangedEv"
    },
    {
     "mangled_component_name":"_ZN7android8hardware8graphics6mapper4V2_08BsMapper13unlinkToDeathERKNS_2spINS0_20hidl_death_recipientEEE"
    },
    {
     "kind":"complete_dtor_pointer",
     "mangled_component_name":"_ZN7android8hardware8graphics6mapper4V2_08BsMapperD1Ev"
    },
    {
     "kind":"deleting_dtor_pointer",
     "mangled_component_name":"_ZN7android8hardware8graphics6mapper4V2_08BsMapperD0Ev"
    },
    {
     "mangled_component_name":"_ZN7android8hardware8graphics6mapper4V2_08BsMapper16createDescriptorERKNS3_7IMapper20BufferDescriptorInfoENSt3__18functionIFvNS3_5ErrorERKNS0_8hidl_vecIjEEEEE"
    },
    {
     "mangled_component_name":"_ZN7android8hardware8graphics6mapper4V2_08BsMapper12importBufferERKNS0_11hidl_handleENSt3__18functionIFvNS3_5ErrorEPvEEE"
    },
    {
     "mangled_component_name":"_ZN7android8hardware8graphics6mapper4V2_08BsMapper10freeBufferEPv"
    },
    {
     "mangled_component_name":"_ZN7android8hardware8graphics6mapper4V2_08BsMapper4lockEPvyRKNS3_7IMapper4RectERKNS0_11hidl_handleENSt3__18functionIFvNS3_5ErrorES5_EEE"
    },
    {
     "mangled_component_name":"_ZN7android8hardware8graphics6mapper4V2_08BsMapper9lockYCbCrEPvyRKNS3_7IMapper4RectERKNS0_11hidl_handleENSt3__18functionIFvNS3_5ErrorERKNS3_11YCbCrLayoutEEEE"
    },
    {
     "mangled_component_name":"_ZN7android8hardware8graphics6mapper4V2_08BsMapper6unlockEPvNSt3__18functionIFvNS3_5ErrorERKNS0_11hidl_handleEEEE"
    },
    {
     "kind":"offset_to_top",
     "component_value":-4
    },
    {
     "kind":"rtti",
     "mangled_component_name":"_ZTIN7android8hardware8graphics6mapper4V2_08BsMapperE"
    },
    {
     "kind":"complete_dtor_pointer",
     "mangled_component_name":"_ZThn4_N7android8hardware8graphics6mapper4V2_08BsMapperD1Ev"
    },
    {
     "kind":"deleting_dtor_pointer",
     "mangled_component_name":"_ZThn4_N7android8hardware8graphics6mapper4V2_08BsMapperD0Ev"
    },
    {
     "kind":"vcall_offset"
    },
    {
     "kind":"vcall_offset"
    },
    {
     "kind":"vcall_offset"
    },
    {
     "kind":"vcall_offset"
    },
    {
     "kind":"vcall_offset",
     "component_value":-60
    },
    {
     "kind":"offset_to_top",
     "component_value":-60
    },
    {
     "kind":"rtti",
     "mangled_component_name":"_ZTIN7android8hardware8graphics6mapper4V2_08BsMapperE"
    },
    {
     "kind":"complete_dtor_pointer",
     "mangled_component_name":"_ZTv0_n12_N7android8hardware8graphics6mapper4V2_08BsMapperD1Ev"
    },
    {
     "kind":"deleting_dtor_pointer",
     "mangled_component_name":"_ZTv0_n12_N7android8hardware8graphics6mapper4V2_08BsMapperD0Ev"
    },
    {
     "mangled_component_name":"_ZN7android7RefBase10onFirstRefEv"
    },
    {
     "mangled_component_name":"_ZN7android7RefBase15onLastStrongRefEPKv"
    },
    {
     "mangled_component_name":"_ZN7android7RefBase20onIncStrongAttemptedEjPKv"
    },
    {
     "mangled_component_name":"_ZN7android7RefBase13onLastWeakRefEPKv"
    }
   ],
   "unique_id":"_ZTSN7android8hardware8graphics6mapper4V2_08BsMapperE"
  },
  {
   "vtable_components":[
    {
     "kind":"vbase_offset",
     "component_value":84
    },
    {
     "kind":"offset_to_top"
    },
    {
     "kind":"rtti",
     "mangled_component_name":"_ZTIN7android8hardware8graphics6mapper4V2_010BpHwMapperE"
    },
    {
     "mangled_component_name":"_ZNK7android8hardware8graphics6mapper4V2_010BpHwMapper8isRemoteEv"
    },
    {
     "mangled_component_name":"_ZN7android8hardware8graphics6mapper4V2_010BpHwMapper14interfaceChainENSt3__18functionIFvRKNS0_8hidl_vecINS0_11hidl_stringEEEEEE"
    },
    {
     "mangled_component_name":"_ZN7android8hardware8graphics6mapper4V2_010BpHwMapper5debugERKNS0_11hidl_handleERKNS0_8hidl_vecINS0_11hidl_stringEEE"
    },
    {
     "mangled_component_name":"_ZN7android8hardware8graphics6mapper4V2_010BpHwMapper19interfaceDescriptorENSt3__18functionIFvRKNS0_11hidl_stringEEEE"
    },
    {
     "mangled_component_name":"_ZN7android8hardware8graphics6mapper4V2_010BpHwMapper12getHashChainENSt3__18functionIFvRKNS0_8hidl_vecINS0_10hidl_arrayIhLj32EJEEEEEEEE"
    },
    {
     "mangled_component_name":"_ZN7android8hardware8graphics6mapper4V2_010BpHwMapper21setHALInstrumentationEv"
    },
    {
     "mangled_component_name":"_ZN7android8hardware8graphics6mapper4V2_010BpHwMapper11linkToDeathERKNS_2spINS0_20hidl_death_recipientEEEy"
    },
    {
     "mangled_component_name":"_ZN7android8hardware8graphics6mapper4V2_010BpHwMapper4pingEv"
    },
    {
     "mangled_component_name":"_ZN7android8hardware8graphics6mapper4V2_010BpHwMapper12getDebugInfoENSt3__18functionIFvRKNS_4hidl4base4V1_09DebugInfoEEEE"
    },
    {
     "mangled_component_name":"_ZN7android8hardware8graphics6mapper4V2_010BpHwMapper21notifySyspropsChangedEv"
    },
    {
     "mangled_component_name":"_ZN7android8hardware8graphics6mapper4V2_010BpHwMapper13unlinkToDeathERKNS_2spINS0_20hidl_death_recipientEEE"
    },
    {
     "kind":"complete_dtor_pointer",
     "mangled_component_name":"_ZN7android8hardware8graphics6mapper4V2_010BpHwMapperD1Ev"
    },
    {
     "kind":"deleting_dtor_pointer",
     "mangled_component_name":"_ZN7android8hardware8graphics6mapper4V2_010BpHwMapperD0Ev"
    },
    {
     "mangled_component_name":"_ZN7android8hardware8graphics6mapper4V2_010BpHwMapper16createDescriptorERKNS3_7IMapper20BufferDescriptorInfoENSt3__18functionIFvNS3_5ErrorERKNS0_8hidl_vecIjEEEEE"
    },
    {
     "mangled_component_name":"_ZN7android8hardware8graphics6mapper4V2_010BpHwMapper12importBufferERKNS0_11hidl_handleENSt3__18functionIFvNS3_5ErrorEPvEEE"
    },
    {
     "mangled_component_name":"_ZN7android8hardware8graphics6mapper4V2_010BpHwMapper10freeBufferEPv"
    },
    {
     "mangled_component_name":"_ZN7android8hardware8graphics6mapper4V2_010BpHwMapper4lockEPvyRKNS3_7IMapper4RectERKNS0_11hidl_handleENSt3__18functionIFvNS3_5ErrorES5_EEE"
    },
    {
     "mangled_component_name":"_ZN7android8hardware8graphics6mapper4V2_010BpHwMapper9lockYCbCrEPvyRKNS3_7IMapper4RectERKNS0_11hidl_handleENSt3__18functionIFvNS3_5ErrorERKNS3_11YCbCrLayoutEEEE"
    },
    {
     "mangled_component_name":"_ZN7android8hardware8graphics6mapper4V2_010BpHwMapper6unlockEPvNSt3__18functionIFvNS3_5ErrorERKNS0_11hidl_handleEEEE"
    },
    {
     "mangled_component_name":"_ZN7android8hardware11BpInterfaceINS0_8graphics6mapper4V2_07IMapperEE10onAsBinderEv"
    },
    {
     "kind":"vbase_offset",
     "component_value":80
    },
    {
     "kind":"offset_to_top",
     "component_value":-4
    },
    {
     "kind":"rtti",
     "mangled_component_name":"_ZTIN7android8hardware8graphics6mapper4V2_010BpHwMapperE"
    },
    {
     "kind":"complete_dtor_pointer",
     "mangled_component_name":"_ZThn4_N7android8hardware8graphics6mapper4V2_010BpHwMapperD1Ev"
    },
    {
     "kind":"deleting_dtor_pointer",
     "mangled_component_name":"_ZThn4_N7android8hardware8graphics6mapper4V2_010BpHwMapperD0Ev"
    },
    {
     "mangled_component_name":"_ZThn4_N7android8hardware11BpInterfaceINS0_8graphics6mapper4V2_07IMapperEE10onAsBinderEv"
    },
    {
     "kind":"vbase_offset",
     "component_value":76
    },
    {
     "kind":"offset_to_top",
     "component_value":-8
    },
    {
     "kind":"rtti",
     "mangled_component_name":"_ZTIN7android8hardware8graphics6mapper4V2_010BpHwMapperE"
    },
    {
     "kind":"complete_dtor_pointer",
     "mangled_component_name":"_ZThn8_N7android8hardware8graphics6mapper4V2_010BpHwMapperD1Ev"
    },
    {
     "kind":"deleting_dtor_pointer",
     "mangled_component_name":"_ZThn8_N7android8hardware8graphics6mapper4V2_010BpHwMapperD0Ev"
    },
    {
     "mangled_component_name":"_ZN7android8hardware11BpHwRefBase10onFirstRefEv"
    },
    {
     "mangled_component_name":"_ZN7android8hardware11BpHwRefBase15onLastStrongRefEPKv"
    },
    {
     "mangled_component_name":"_ZN7android8hardware11BpHwRefBase20onIncStrongAttemptedEjPKv"
    },
    {
     "kind":"offset_to_top",
     "component_value":-24
    },
    {
     "kind":"rtti",
     "mangled_component_name":"_ZTIN7android8hardware8graphics6mapper4V2_010BpHwMapperE"
    },
    {
     "kind":"complete_dtor_pointer",
     "mangled_component_name":"_ZThn24_N7android8hardware8graphics6mapper4V2_010BpHwMapperD1Ev"
    },
    {
     "kind":"deleting_dtor_pointer",
     "mangled_component_name":"_ZThn24_N7android8hardware8graphics6mapper4V2_010BpHwMapperD0Ev"
    },
    {
     "kind":"vcall_offset"
    },
    {
     "kind":"vcall_offset",
     "component_value":-76
    },
    {
     "kind":"vcall_offset",
     "component_value":-76
    },
    {
     "kind":"vcall_offset",
     "component_value":-76
    },
    {
     "kind":"vcall_offset",
     "component_value":-84
    },
    {
     "kind":"offset_to_top",
     "component_value":-84
    },
    {
     "kind":"rtti",
     "mangled_component_name":"_ZTIN7android8hardware8graphics6mapper4V2_010BpHwMapperE"
    },
    {
     "kind":"complete_dtor_pointer",
     "mangled_component_name":"_ZTv0_n12_N7android8hardware8graphics6mapper4V2_010BpHwMapperD1Ev"
    },
    {
     "kind":"deleting_dtor_pointer",
     "mangled_component_name":"_ZTv0_n12_N7android8hardware8graphics6mapper4V2_010BpHwMapperD0Ev"
    },
    {
     "mangled_component_name":"_ZTv0_n16_N7android8hardware11BpHwRefBase10onFirstRefEv"
    },
    {
     "mangled_component_name":"_ZTv0_n20_N7android8hardware11BpHwRefBase15onLastStrongRefEPKv"
    },
    {
     "mangled_component_name":"_ZTv0_n24_N7android8hardware11BpHwRefBase20onIncStrongAttemptedEjPKv"
    },
    {
     "mangled_component_name":"_ZN7android7RefBase13onLastWeakRefEPKv"
    }
   ],
   "unique_id":"_ZTSN7android8hardware8graphics6mapper4V2_010BpHwMapperE"
  }
 ],
 "elf_functions":[
  {
   "binding":"weak",
   "name":"_ZN7android8hardware7details13castInterfaceINS0_8graphics6mapper4V2_07IMapperENS_4hidl4base4V1_05IBaseENS5_10BpHwMapperEEENS0_6ReturnINS_2spIT_EEEENSD_IT0_EEPKcb"
  },
  {
   "binding":"weak",
   "name":"_ZN7android8hardware7details18getServiceInternalINS0_8graphics6mapper4V2_010BpHwMapperENS5_7IMapperEvvEENS_2spIT0_EERKNSt3__112basic_stringIcNSB_11char_traitsIcEENSB_9allocatorIcEEEEbb"
  },
  {
   "name":"_ZN7android8hardware8graphics6mapper4V2_010BnHwMapper10_hidl_lockEPNS_4hidl4base4V1_08BnHwBaseERKNS0_6ParcelEPSA_NSt3__18functionIFvRSA_EEE"
  },
  {
   "name":"_ZN7android8hardware8graphics6mapper4V2_010BnHwMapper10onTransactEjRKNS0_6ParcelEPS5_jNSt3__18functionIFvRS5_EEE"
  },
  {
   "name":"_ZN7android8hardware8graphics6mapper4V2_010BnHwMapper12_hidl_unlockEPNS_4hidl4base4V1_08BnHwBaseERKNS0_6ParcelEPSA_NSt3__18functionIFvRSA_EEE"
  },
  {
   "name":"_ZN7android8hardware8graphics6mapper4V2_010BnHwMapper12getDebugInfoENSt3__18functionIFvRKNS_4hidl4base4V1_09DebugInfoEEEE"
  },
  {
   "name":"_ZN7android8hardware8graphics6mapper4V2_010BnHwMapper15_hidl_lockYCbCrEPNS_4hidl4base4V1_08BnHwBaseERKNS0_6ParcelEPSA_NSt3__18functionIFvRSA_EEE"
  },
  {
   "name":"_ZN7android8hardware8graphics6mapper4V2_010BnHwMapper16_hidl_freeBufferEPNS_4hidl4base4V1_08BnHwBaseERKNS0_6ParcelEPSA_NSt3__18functionIFvRSA_EEE"
  },
  {
   "name":"_ZN7android8hardware8graphics6mapper4V2_010BnHwMapper18_hidl_importBufferEPNS_4hidl4base4V1_08BnHwBaseERKNS0_6ParcelEPSA_NSt3__18functionIFvRSA_EEE"
  },
  {
   "name":"_ZN7android8hardware8graphics6mapper4V2_010BnHwMapper22_hidl_createDescriptorEPNS_4hidl4base4V1_08BnHwBaseERKNS0_6ParcelEPSA_NSt3__18functionIFvRSA_EEE"
  },
  {
   "name":"_ZN7android8hardware8graphics6mapper4V2_010BnHwMapper4pingEv"
  },
  {
   "name":"_ZN7android8hardware8graphics6mapper4V2_010BnHwMapperC1ERKNS_2spINS3_7IMapperEEE"
  },
  {
   "name":"_ZN7android8hardware8graphics6mapper4V2_010BnHwMapperC2ERKNS_2spINS3_7IMapperEEE"
  },
  {
   "name":"_ZN7android8hardware8graphics6mapper4V2_010BnHwMapperD0Ev"
  },
  {
   "name":"_ZN7android8hardware8graphics6mapper4V2_010BnHwMapperD1Ev"
  },
  {
   "name":"_ZN7android8hardware8graphics6mapper4V2_010BnHwMapperD2Ev"
  },
  {
   "name":"_ZN7android8hardware8graphics6mapper4V2_010BpHwMapper10_hidl_lockEPNS0_10IInterfaceEPNS0_7details16HidlInstrumentorEPvyRKNS3_7IMapper4RectERKNS0_11hidl_handleENSt3__18functionIFvNS3_5ErrorESA_EEE"
  },
  {
   "name":"_ZN7android8hardware8graphics6mapper4V2_010BpHwMapper10freeBufferEPv"
  },
  {
   "name":"_ZN7android8hardware8graphics6mapper4V2_010BpHwMapper11linkToDeathERKNS_2spINS0_20hidl_death_recipientEEEy"
  },
  {
   "name":"_ZN7android8hardware8graphics6mapper4V2_010BpHwMapper12_hidl_unlockEPNS0_10IInterfaceEPNS0_7details16HidlInstrumentorEPvNSt3__18functionIFvNS3_5ErrorERKNS0_11hidl_handleEEEE"
  },
  {
   "name":"_ZN7android8hardware8graphics6mapper4V2_010BpHwMapper12getDebugInfoENSt3__18functionIFvRKNS_4hidl4base4V1_09DebugInfoEEEE"
  },
  {
   "name":"_ZN7android8hardware8graphics6mapper4V2_010BpHwMapper12getHashChainENSt3__18functionIFvRKNS0_8hidl_vecINS0_10hidl_arrayIhLj32EJEEEEEEEE"
  },
  {
   "name":"_ZN7android8hardware8graphics6mapper4V2_010BpHwMapper12importBufferERKNS0_11hidl_handleENSt3__18functionIFvNS3_5ErrorEPvEEE"
  },
  {
   "name":"_ZN7android8hardware8graphics6mapper4V2_010BpHwMapper13unlinkToDeathERKNS_2spINS0_20hidl_death_recipientEEE"
  },
  {
   "name":"_ZN7android8hardware8graphics6mapper4V2_010BpHwMapper14interfaceChainENSt3__18functionIFvRKNS0_8hidl_vecINS0_11hidl_stringEEEEEE"
  },
  {
   "name":"_ZN7android8hardware8graphics6mapper4V2_010BpHwMapper15_hidl_lockYCbCrEPNS0_10IInterfaceEPNS0_7details16HidlInstrumentorEPvyRKNS3_7IMapper4RectERKNS0_11hidl_handleENSt3__18functionIFvNS3_5ErrorERKNS3_11YCbCrLayoutEEEE"
  },
  {
   "name":"_ZN7android8hardware8graphics6mapper4V2_010BpHwMapper16_hidl_freeBufferEPNS0_10IInterfaceEPNS0_7details16HidlInstrumentorEPv"
  },
  {
   "name":"_ZN7android8hardware8graphics6mapper4V2_010BpHwMapper16createDescriptorERKNS3_7IMapper20BufferDescriptorInfoENSt3__18functionIFvNS3_5ErrorERKNS0_8hidl_vecIjEEEEE"
  },
  {
   "name":"_ZN7android8hardware8graphics6mapper4V2_010BpHwMapper18_hidl_importBufferEPNS0_10IInterfaceEPNS0_7details16HidlInstrumentorERKNS0_11hidl_handleENSt3__18functionIFvNS3_5ErrorEPvEEE"
  },
  {
   "name":"_ZN7android8hardware8graphics6mapper4V2_010BpHwMapper19interfaceDescriptorENSt3__18functionIFvRKNS0_11hidl_stringEEEE"
  },
  {
   "name":"_ZN7android8hardware8graphics6mapper4V2_010BpHwMapper21notifySyspropsChangedEv"
  },
  {
   "name":"_ZN7android8hardware8graphics6mapper4V2_010BpHwMapper21setHALInstrumentationEv"
  },
  {
   "name":"_ZN7android8hardware8graphics6mapper4V2_010BpHwMapper22_hidl_createDescriptorEPNS0_10IInterfaceEPNS0_7details16HidlInstrumentorERKNS3_7IMapper20BufferDescriptorInfoENSt3__18functionIFvNS3_5ErrorERKNS0_8hidl_vecIjEEEEE"
  },
  {
   "name":"_ZN7android8hardware8graphics6mapper4V2_010BpHwMapper4lockEPvyRKNS3_7IMapper4RectERKNS0_11hidl_handleENSt3__18functionIFvNS3_5ErrorES5_EEE"
  },
  {
   "name":"_ZN7android8hardware8graphics6mapper4V2_010BpHwMapper4pingEv"
  },
  {
   "name":"_ZN7android8hardware8graphics6mapper4V2_010BpHwMapper5debugERKNS0_11hidl_handleERKNS0_8hidl_vecINS0_11hidl_stringEEE"
  },
  {
   "name":"_ZN7android8hardware8graphics6mapper4V2_010BpHwMapper6unlockEPvNSt3__18functionIFvNS3_5ErrorERKNS0_11hidl_handleEEEE"
  },
  {
   "name":"_ZN7android8hardware8graphics6mapper4V2_010BpHwMapper9lockYCbCrEPvyRKNS3_7IMapper4RectERKNS0_11hidl_handleENSt3__18functionIFvNS3_5ErrorERKNS3_11YCbCrLayoutEEEE"
  },
  {
   "name":"_ZN7android8hardware8graphics6mapper4V2_010BpHwMapperC1ERKNS_2spINS0_7IBinderEEE"
  },
  {
   "name":"_ZN7android8hardware8graphics6mapper4V2_010BpHwMapperC2ERKNS_2spINS0_7IBinderEEE"
  },
  {
   "name":"_ZN7android8hardware8graphics6mapper4V2_07IMapper10getServiceERKNSt3__112basic_stringIcNS5_11char_traitsIcEENS5_9allocatorIcEEEEb"
  },
  {
   "name":"_ZN7android8hardware8graphics6mapper4V2_07IMapper11linkToDeathERKNS_2spINS0_20hidl_death_recipientEEEy"
  },
  {
   "name":"_ZN7android8hardware8graphics6mapper4V2_07IMapper12getDebugInfoENSt3__18functionIFvRKNS_4hidl4base4V1_09DebugInfoEEEE"
  },
  {
   "name":"_ZN7android8hardware8graphics6mapper4V2_07IMapper12getHashChainENSt3__18functionIFvRKNS0_8hidl_vecINS0_10hidl_arrayIhLj32EJEEEEEEEE"
  },
  {
   "name":"_ZN7android8hardware8graphics6mapper4V2_07IMapper13tryGetServiceERKNSt3__112basic_stringIcNS5_11char_traitsIcEENS5_9allocatorIcEEEEb"
  },
  {
   "name":"_ZN7android8hardware8graphics6mapper4V2_07IMapper13unlinkToDeathERKNS_2spINS0_20hidl_death_recipientEEE"
  },
  {
   "name":"_ZN7android8hardware8graphics6mapper4V2_07IMapper14interfaceChainENSt3__18functionIFvRKNS0_8hidl_vecINS0_11hidl_stringEEEEEE"
  },
  {
   "name":"_ZN7android8hardware8graphics6mapper4V2_07IMapper17registerAsServiceERKNSt3__112basic_stringIcNS5_11char_traitsIcEENS5_9allocatorIcEEEE"
  },
  {
   "name":"_ZN7android8hardware8graphics6mapper4V2_07IMapper19interfaceDescriptorENSt3__18functionIFvRKNS0_11hidl_stringEEEE"
  },
  {
   "name":"_ZN7android8hardware8graphics6mapper4V2_07IMapper21notifySyspropsChangedEv"
  },
  {
   "name":"_ZN7android8hardware8graphics6mapper4V2_07IMapper21setHALInstrumentationEv"
  },
  {
   "name":"_ZN7android8hardware8graphics6mapper4V2_07IMapper24registerForNotificationsERKNSt3__112basic_stringIcNS5_11char_traitsIcEENS5_9allocatorIcEEEERKNS_2spINS_4hidl7manager4V1_020IServiceNotificationEEE"
  },
  {
   "name":"_ZN7android8hardware8graphics6mapper4V2_07IMapper4pingEv"
  },
  {
   "name":"_ZN7android8hardware8graphics6mapper4V2_07IMapper5debugERKNS0_11hidl_handleERKNS0_8hidl_vecINS0_11hidl_stringEEE"
  },
  {
   "name":"_ZN7android8hardware8graphics6mapper4V2_07IMapper8castFromERKNS_2spINS_4hidl4base4V1_05IBaseEEEb"
  },
  {
   "name":"_ZN7android8hardware8graphics6mapper4V2_07IMapper8castFromERKNS_2spIS4_EEb"
  },
  {
   "name":"_ZN7android8hardware8graphics6mapper4V2_08BsMapper13addOnewayTaskENSt3__18functionIFvvEEE"
  },
  {
   "name":"_ZN7android8hardware8graphics6mapper4V2_08BsMapperC1ENS_2spINS3_7IMapperEEE"
  },
  {
   "name":"_ZN7android8hardware8graphics6mapper4V2_08BsMapperC2ENS_2spINS3_7IMapperEEE"
  },
  {
   "binding":"weak",
   "name":"_ZN7android8hardware8toBinderINS_4hidl4base4V1_05IBaseEvEENS_2spINS0_7IBinderEEENS6_IT_EE"
  },
  {
   "name":"_ZThn20_N7android8hardware8graphics6mapper4V2_010BnHwMapperD0Ev"
  },
  {
   "name":"_ZThn20_N7android8hardware8graphics6mapper4V2_010BnHwMapperD1Ev"
  },
  {
   "name":"_ZTv0_n12_N7android8hardware8graphics6mapper4V2_010BnHwMapperD0Ev"
  },
  {
   "name":"_ZTv0_n12_N7android8hardware8graphics6mapper4V2_010BnHwMapperD1Ev"
  }
 ],
 "elf_objects":[
  {
   "name":"_ZN7android8hardware8graphics6mapper4V2_07IMapper10descriptorE"
  },
  {
   "name":"_ZTTN7android8hardware8graphics6mapper4V2_010BnHwMapperE"
  },
  {
   "name":"_ZTTN7android8hardware8graphics6mapper4V2_010BpHwMapperE"
  },
  {
   "name":"_ZTTN7android8hardware8graphics6mapper4V2_07IMapperE"
  },
  {
   "name":"_ZTVN7android8hardware8graphics6mapper4V2_010BnHwMapperE"
  },
  {
   "name":"_ZTVN7android8hardware8graphics6mapper4V2_010BpHwMapperE"
  },
  {
   "name":"_ZTVN7android8hardware8graphics6mapper4V2_07IMapperE"
  },
  {
   "binding":"weak",
   "name":"_ZTVN7android8hardware8graphics6mapper4V2_08BsMapperE"
  }
 ]
}