{
 "record_types":[
  {
   "vtable_components":[
    {
     "kind":"vbase_offset",
     "component_value":60
    },
    {
     "kind":"offset_to_top"
    },
    {
     "kind":"rtti",
     "mangled_component_name":"_ZTIN7android8hardware6camera8provider4V2_424BsCameraProviderCallbackE"
    },
    {
     "mangled_component_name":"_ZNK7android8hardware6camera8provider4V2_423ICameraProviderCallback8isRemoteEv"
    },
    {
     "mangled_component_name":"_ZN7android8hardware6camera8provider4V2_424BsCameraProviderCallback14interfaceChainENSt3__18functionIFvRKNS0_8hidl_vecINS0_11hidl_stringEEEEEE"
    },
    {
     "mangled_component_name":"_ZN7android8hardware6camera8provider4V2_424BsCameraProviderCallback5debugERKNS0_11hidl_handleERKNS0_8hidl_vecINS0_11hidl_stringEEE"
    },
    {
     "mangled_component_name":"_ZN7android8hardware6camera8provider4V2_424BsCameraProviderCallback19interfaceDescriptorENSt3__18functionIFvRKNS0_11hidl_stringEEEE"
    },
    {
     "mangled_component_name":"_ZN7android8hardware6camera8provider4V2_424BsCameraProviderCallback12getHashChainENSt3__18functionIFvRKNS0_8hidl_vecINS0_10hidl_arrayIhLj32EJEEEEEEEE"
    },
    {
     "mangled_component_name":"_ZN7android8hardware6camera8provider4V2_424BsCameraProviderCallback21setHALInstrumentationEv"
    },
    {
     "mangled_component_name":"_ZN7android8hardware6camera8provider4V2_424BsCameraProviderCallback11linkToDeathERKNS_2spINS0_20hidl_death_recipientEEEy"
    },
    {
     "mangled_component_name":"_ZN7android8hardware6camera8provider4V2_424BsCameraProviderCallback4pingEv"
    },
    {
     "mangled_component_name":"_ZN7android8hardware6camera8provider4V2_424BsCameraProviderCallback12getDebugInfoENSt3__18functionIFvRKNS_4hidl4base4V1_09DebugInfoEEEE"
    },
    {
     "mangled_component_name":"_ZN7android8hardware6camera8provider4V2_424BsCameraProviderCallback21notifySyspropsChangedEv"
    },
    {
     "mangled_component_name":"_ZN7android8hardware6camera8provider4V2_424BsCameraProviderCallback13unlinkToDeathERKNS_2spINS0_20hidl_death_recipientEEE"
    },
    {
     "kind":"complete_dtor_pointer",
     "mangled_component_name":"_ZN7android8hardware6camera8provider4V2_424BsCameraProviderCallbackD1Ev"
    },
    {
     "kind":"deleting_dtor_pointer",
     "mangled_component_name":"_ZN7android8hardware6camera8provider4V2_424BsCameraProviderCallbackD0Ev"
    },
    {
     "mangled_component_name":"_ZN7android8hardware6camera8provider4V2_424BsCameraProviderCallback24cameraDeviceStatusChangeERKNS0_11hidl_stringENS1_6common4V1_018CameraDeviceStatusE"
    },
    {
     "mangled_component_name":"_ZN7android8hardware6camera8provider4V2_424BsCameraProviderCallback21torchModeStatusChangeERKNS0_11hidl_stringENS1_6common4V1_015TorchModeStatusE"
    },
    {
     "kind":"offset_to_top",
     "component_value":-4
    },
    {
     "kind":"rtti",
     "mangled_component_name":"_ZTIN7android8hardware6camera8provider4V2_424BsCameraProviderCallbackE"
    },
    {
     "kind":"complete_dtor_pointer",
     "mangled_component_name":"_ZThn4_N7android8hardware6camera8provider4V2_424BsCameraProviderCallbackD1Ev"
    },
    {
     "kind":"deleting_dtor_pointer",
     "mangled_component_name":"_ZThn4_N7android8hardware6camera8provider4V2_424BsCameraProviderCallbackD0Ev"
    },
    {
     "kind":"vcall_offset"
    },
    {
     "kind":"vcall_offset"
    },
    {
     "kind":"vcall_offset"
    },
    {
     "kind":"vcall_offset"
    },
    {
     "kind":"vcall_offset",
     "component_value":-60
    },
    {
     "kind":"offset_to_top",
     "component_value":-60
    },
    {
     "kind":"rtti",
     "mangled_component_name":"_ZTIN7android8hardware6camera8provider4V2_424BsCameraProviderCallbackE"
    },
    {
     "kind":"complete_dtor_pointer",
     "mangled_component_name":"_ZTv0_n12_N7android8hardware6camera8provider4V2_424BsCameraProviderCallbackD1Ev"
    },
    {
     "kind":"deleting_dtor_pointer",
     "mangled_component_name":"_ZTv0_n12_N7android8hardware6camera8provider4V2_424BsCameraProviderCallbackD0Ev"
    },
    {
     "mangled_component_name":"_ZN7android7RefBase10onFirstRefEv"
    },
    {
     "mangled_component_name":"_ZN7android7RefBase15onLastStrongRefEPKv"
    },
    {
     "mangled_component_name":"_ZN7android7RefBase20onIncStrongAttemptedEjPKv"
    },
    {
     "mangled_component_name":"_ZN7android7RefBase13onLastWeakRefEPKv"
    }
   ],
   "unique_id":"_ZTSN7android8hardware6camera8provider4V2_424BsCameraProviderCallbackE"
  },
  {
   "vtable_components":[
    {
     "kind":"vbase_offset",
     "component_value":60
    },
    {
     "kind":"offset_to_top"
    },
    {
     "kind":"rtti",
     "mangled_component_name":"_ZTIN7android8hardware6camera8provider4V2_416BsCameraProviderE"
    },
    {
     "mangled_component_name":"_ZNK7android8hardware6camera8provider4V2_415ICameraProvider8isRemoteEv"
    },
    {
     "mangled_component_name":"_ZN7android8hardware6camera8provider4V2_416BsCameraProvider14interfaceChainENSt3__18functionIFvRKNS0_8hidl_vecINS0_11hidl_stringEEEEEE"
    },
    {
     "mangled_component_name":"_ZN7android8hardware6camera8provider4V2_416BsCameraProvider5debugERKNS0_11hidl_handleERKNS0_8hidl_vecINS0_11hidl_stringEEE"
    },
    {
     "mangled_component_name":"_ZN7android8hardware6camera8provider4V2_416BsCameraProvider19interfaceDescriptorENSt3__18functionIFvRKNS0_11hidl_stringEEEE"
    },
    {
     "mangled_component_name":"_ZN7android8hardware6camera8provider4V2_416BsCameraProvider12getHashChainENSt3__18functionIFvRKNS0_8hidl_vecINS0_10hidl_arrayIhLj32EJEEEEEEEE"
    },
    {
     "mangled_component_name":"_ZN7android8hardware6camera8provider4V2_416BsCameraProvider21setHALInstrumentationEv"
    },
    {
     "mangled_component_name":"_ZN7android8hardware6camera8provider4V2_416BsCameraProvider11linkToDeathERKNS_2spINS0_20hidl_death_recipientEEEy"
    },
    {
     "mangled_component_name":"_ZN7android8hardware6camera8provider4V2_416BsCameraProvider4pingEv"
    },
    {
     "mangled_component_name":"_ZN7android8hardware6camera8provider4V2_416BsCameraProvider12getDebugInfoENSt3__18functionIFvRKNS_4hidl4base4V1_09DebugInfoEEEE"
    },
    {
     "mangled_component_name":"_ZN7android8hardware6camera8provider4V2_416BsCameraProvider21notifySyspropsChangedEv"
    },
    {
     "mangled_component_name":"_ZN7android8hardware6camera8provider4V2_416BsCameraProvider13unlinkToDeathERKNS_2spINS0_20hidl_death_recipientEEE"
    },
    {
     "kind":"complete_dtor_pointer",
     "mangled_component_name":"_ZN7android8hardware6camera8provider4V2_416BsCameraProviderD1Ev"
    },
    {
     "kind":"deleting_dtor_pointer",
     "mangled_component_name":"_ZN7android8hardware6camera8provider4V2_416BsCameraProviderD0Ev"
    },
    {
     "mangled_component_name":"_ZN7android8hardware6camera8provider4V2_416BsCameraProvider11setCallbackERKNS_2spINS3_23ICameraProviderCallbackEEE"
    },
    {
     "mangled_component_name":"_ZN7android8hardware6camera8provider4V2_416BsCameraProvider13getVendorTagsENSt3__18functionIFvNS1_6common4V1_06StatusERKNS0_8hidl_vecINS8_16VendorTagSectionEEEEEE"
    },
    {
     "mangled_component_name":"_ZN7android8hardware6camera8provider4V2_416BsCameraProvider15getCameraIdListENSt3__18functionIFvNS1_6common4V1_06StatusERKNS0_8hidl_vecINS0_11hidl_stringEEEEEE"
    },
    {
     "mangled_component_name":"_ZN7android8hardware6camera8provider4V2_416BsCameraProvider23isSetTorchModeSupportedENSt3__18functionIFvNS1_6common4V1_06StatusEbEEE"
    },
    {
     "mangled_component_name":"_ZN7android8hardware6camera8provider4V2_416BsCameraProvider29getCameraDeviceInterface_V1_xERKNS0_11hidl_stringENSt3__18functionIFvNS1_6common4V1_06StatusERKNS_2spINS1_6device4V1_013ICameraDeviceEEEEEE"
    },
    {
     "mangled_component_name":"_ZN7android8hardware6camera8provider4V2_416BsCameraProvider29getCameraDeviceInterface_V3_xERKNS0_11hidl_stringENSt3__18functionIFvNS1_6common4V1_06StatusERKNS_2spINS1_6device4V3_213ICameraDeviceEEEEEE"
    },
    {
     "kind":"offset_to_top",
     "component_value":-4
    },
    {
     "kind":"rtti",
     "mangled_component_name":"_ZTIN7android8hardware6camera8provider4V2_416BsCameraProviderE"
    },
    {
     "kind":"complete_dtor_pointer",
     "mangled_component_name":"_ZThn4_N7android8hardware6camera8provider4V2_416BsCameraProviderD1Ev"
    },
    {
     "kind":"deleting_dtor_pointer",
     "mangled_component_name":"_ZThn4_N7android8hardware6camera8provider4V2_416BsCameraProviderD0Ev"
    },
    {
     "kind":"vcall_offset"
    },
    {
     "kind":"vcall_offset"
    },
    {
     "kind":"vcall_offset"
    },
    {
     "kind":"vcall_offset"
    },
    {
     "kind":"vcall_offset",
     "component_value":-60
    },
    {
     "kind":"offset_to_top",
     "component_value":-60
    },
    {
     "kind":"rtti",
     "mangled_component_name":"_ZTIN7android8hardware6camera8provider4V2_416BsCameraProviderE"
    },
    {
     "kind":"complete_dtor_pointer",
     "mangled_component_name":"_ZTv0_n12_N7android8hardware6camera8provider4V2_416BsCameraProviderD1Ev"
    },
    {
     "kind":"deleting_dtor_pointer",
     "mangled_component_name":"_ZTv0_n12_N7android8hardware6camera8provider4V2_416BsCameraProviderD0Ev"
    },
    {
     "mangled_component_name":"_ZN7android7RefBase10onFirstRefEv"
    },
    {
     "mangled_component_name":"_ZN7android7RefBase15onLastStrongRefEPKv"
    },
    {
     "mangled_component_name":"_ZN7android7RefBase20onIncStrongAttemptedEjPKv"
    },
    {
     "mangled_component_name":"_ZN7android7RefBase13onLastWeakRefEPKv"
    }
   ],
   "unique_id":"_ZTSN7android8hardware6camera8provider4V2_416BsCameraProviderE"
  },
  {
   "vtable_components":[
    {
     "kind":"vbase_offset",
     "component_value":72
    },
    {
     "kind":"offset_to_top"
    },
    {
     "kind":"rtti",
     "mangled_component_name":"_ZTIN7android8hardware6camera8provider4V2_426BnHwCameraProviderCallbackE"
    },
    {
     "mangled_component_name":"_ZN7android8hardware9BHwBinder8transactEjRKNS0_6ParcelEPS2_jNSt3__18functionIFvRS2_EEE"
    },
    {
     "mangled_component_name":"_ZN7android8hardware9BHwBinder11linkToDeathERKNS_2spINS0_7IBinder14DeathRecipientEEEPvj"
    },
    {
     "mangled_component_name":"_ZN7android8hardware9BHwBinder13unlinkToDeathERKNS_2wpINS0_7IBinder14DeathRecipientEEEPvjPS5_"
    },
    {
     "mangled_component_name":"_ZNK7android8hardware7IBinder13checkSubclassEPKv"
    },
    {
     "mangled_component_name":"_ZN7android8hardware9BHwBinder12attachObjectEPKvPvS4_PFvS3_S4_S4_E"
    },
    {
     "mangled_component_name":"_ZNK7android8hardware9BHwBinder10findObjectEPKv"
    },
    {
     "mangled_component_name":"_ZN7android8hardware9BHwBinder12detachObjectEPKv"
    },
    {
     "mangled_component_name":"_ZN7android8hardware9BHwBinder11localBinderEv"
    },
    {
     "mangled_component_name":"_ZN7android8hardware7IBinder12remoteBinderEv"
    },
    {
     "kind":"complete_dtor_pointer",
     "mangled_component_name":"_ZN7android8hardware6camera8provider4V2_426BnHwCameraProviderCallbackD1Ev"
    },
    {
     "kind":"deleting_dtor_pointer",
     "mangled_component_name":"_ZN7android8hardware6camera8provider4V2_426BnHwCameraProviderCallbackD0Ev"
    },
    {
     "mangled_component_name":"_ZN7android8hardware6camera8provider4V2_426BnHwCameraProviderCallback10onTransactEjRKNS0_6ParcelEPS5_jNSt3__18functionIFvRS5_EEE"
    },
    {
     "kind":"offset_to_top",
     "component_value":-20
    },
    {
     "kind":"rtti",
     "mangled_component_name":"_ZTIN7android8hardware6camera8provider4V2_426BnHwCameraProviderCallbackE"
    },
    {
     "kind":"complete_dtor_pointer",
     "mangled_component_name":"_ZThn20_N7android8hardware6camera8provider4V2_426BnHwCameraProviderCallbackD1Ev"
    },
    {
     "kind":"deleting_dtor_pointer",
     "mangled_component_name":"_ZThn20_N7android8hardware6camera8provider4V2_426BnHwCameraProviderCallbackD0Ev"
    },
    {
     "kind":"vcall_offset"
    },
    {
     "kind":"vcall_offset"
    },
    {
     "kind":"vcall_offset"
    },
    {
     "kind":"vcall_offset"
    },
    {
     "kind":"vcall_offset",
     "component_value":-72
    },
    {
     "kind":"offset_to_top",
     "component_value":-72
    },
    {
     "kind":"rtti",
     "mangled_component_name":"_ZTIN7android8hardware6camera8provider4V2_426BnHwCameraProviderCallbackE"
    },
    {
     "kind":"complete_dtor_pointer",
     "mangled_component_name":"_ZTv0_n12_N7android8hardware6camera8provider4V2_426BnHwCameraProviderCallbackD1Ev"
    },
    {
     "kind":"deleting_dtor_pointer",
     "mangled_component_name":"_ZTv0_n12_N7android8hardware6camera8provider4V2_426BnHwCameraProviderCallbackD0Ev"
    },
    {
     "mangled_component_name":"_ZN7android7RefBase10onFirstRefEv"
    },
    {
     "mangled_component_name":"_ZN7android7RefBase15onLastStrongRefEPKv"
    },
    {
     "mangled_component_name":"_ZN7android7RefBase20onIncStrongAttemptedEjPKv"
    },
    {
     "mangled_component_name":"_ZN7android7RefBase13onLastWeakRefEPKv"
    }
   ],
   "unique_id":"_ZTSN7android8hardware6camera8provider4V2_426BnHwCameraProviderCallbackE"
  },
  {
   "vtable_components":[
    {
     "kind":"vbase_offset",
     "component_value":4
    },
    {
     "kind":"offset_to_top"
    },
    {
     "kind":"rtti",
     "mangled_component_name":"_ZTIN7android8hardware6camera8provider4V2_423ICameraProviderCallbackE"
    },
    {
     "mangled_component_name":"_ZNK7android8hardware6camera8provider4V2_423ICameraProviderCallback8isRemoteEv"
    },
    {
     "mangled_component_name":"_ZN7android8hardware6camera8provider4V2_423ICameraProviderCallback14interfaceChainENSt3__18functionIFvRKNS0_8hidl_vecINS0_11hidl_stringEEEEEE"
    },
    {
     "mangled_component_name":"_ZN7android8hardware6camera8provider4V2_423ICameraProviderCallback5debugERKNS0_11hidl_handleERKNS0_8hidl_vecINS0_11hidl_stringEEE"
    },
    {
     "mangled_component_name":"_ZN7android8hardware6camera8provider4V2_423ICameraProviderCallback19interfaceDescriptorENSt3__18functionIFvRKNS0_11hidl_stringEEEE"
    },
    {
     "mangled_component_name":"_ZN7android8hardware6camera8provider4V2_423ICameraProviderCallback12getHashChainENSt3__18functionIFvRKNS0_8hidl_vecINS0_10hidl_arrayIhLj32EJEEEEEEEE"
    },
    {
     "mangled_component_name":"_ZN7android8hardware6camera8provider4V2_423ICameraProviderCallback21setHALInstrumentationEv"
    },
    {
     "mangled_component_name":"_ZN7android8hardware6camera8provider4V2_423ICameraProviderCallback11linkToDeathERKNS_2spINS0_20hidl_death_recipientEEEy"
    },
    {
     "mangled_component_name":"_ZN7android8hardware6camera8provider4V2_423ICameraProviderCallback4pingEv"
    },
    {
     "mangled_component_name":"_ZN7android8hardware6camera8provider4V2_423ICameraProviderCallback12getDebugInfoENSt3__18functionIFvRKNS_4hidl4base4V1_09DebugInfoEEEE"
    },
    {
     "mangled_component_name":"_ZN7android8hardware6camera8provider4V2_423ICameraProviderCallback21notifySyspropsChangedEv"
    },
    {
     "mangled_component_name":"_ZN7android8hardware6camera8provider4V2_423ICameraProviderCallback13unlinkToDeathERKNS_2spINS0_20hidl_death_recipientEEE"
    },
    {
     "kind":"complete_dtor_pointer",
     "mangled_component_name":"_ZN7android8hardware6camera8provider4V2_423ICameraProviderCallbackD1Ev"
    },
    {
     "kind":"deleting_dtor_pointer",
     "mangled_component_name":"_ZN7android8hardware6camera8provider4V2_423ICameraProviderCallbackD0Ev"
    },
    {
     "is_pure":true,
     "mangled_component_name":"_ZN7android8hardware6camera8provider4V2_423ICameraProviderCallback24cameraDeviceStatusChangeERKNS0_11hidl_stringENS1_6common4V1_018CameraDeviceStatusE"
    },
    {
     "is_pure":true,
     "mangled_component_name":"_ZN7android8hardware6camera8provider4V2_423ICameraProviderCallback21torchModeStatusChangeERKNS0_11hidl_stringENS1_6common4V1_015TorchModeStatusE"
    },
    {
     "kind":"vcall_offset"
    },
    {
     "kind":"vcall_offset"
    },
    {
     "kind":"vcall_offset"
    },
    {
     "kind":"vcall_offset"
    },
    {
     "kind":"vcall_offset",
     "component_value":-4
    },
    {
     "kind":"offset_to_top",
     "component_value":-4
    },
    {
     "kind":"rtti",
     "mangled_component_name":"_ZTIN7android8hardware6camera8provider4V2_423ICameraProviderCallbackE"
    },
    {
     "kind":"complete_dtor_pointer",
     "mangled_component_name":"_ZTv0_n12_N7android8hardware6camera8provider4V2_423ICameraProviderCallbackD1Ev"
    },
    {
     "kind":"deleting_dtor_pointer",
     "mangled_component_name":"_ZTv0_n12_N7android8hardware6camera8provider4V2_423ICameraProviderCallbackD0Ev"
    },
    {
     "mangled_component_name":"_ZN7android7RefBase10onFirstRefEv"
    },
    {
     "mangled_component_name":"_ZN7android7RefBase15onLastStrongRefEPKv"
    },
    {
     "mangled_component_name":"_ZN7android7RefBase20onIncStrongAttemptedEjPKv"
    },
    {
     "mangled_component_name":"_ZN7android7RefBase13onLastWeakRefEPKv"
    }
   ],
   "unique_id":"_ZTSN7android8hardware6camera8provider4V2_423ICameraProviderCallbackE"
  },
  {
   "vtable_components":[
    {
     "kind":"vbase_offset",
     "component_value":84
    },
    {
     "kind":"offset_to_top"
    },
    {
     "kind":"rtti",
     "mangled_component_name":"_ZTIN7android8hardware6camera8provider4V2_426BpHwCameraProviderCallbackE"
    },
    {
     "mangled_component_name":"_ZNK7android8hardware6camera8provider4V2_426BpHwCameraProviderCallback8isRemoteEv"
    },
    {
     "mangled_component_name":"_ZN7android8hardware6camera8provider4V2_426BpHwCameraProviderCallback14interfaceChainENSt3__18functionIFvRKNS0_8hidl_vecINS0_11hidl_stringEEEEEE"
    },
    {
     "mangled_component_name":"_ZN7android8hardware6camera8provider4V2_426BpHwCameraProviderCallback5debugERKNS0_11hidl_handleERKNS0_8hidl_vecINS0_11hidl_stringEEE"
    },
    {
     "mangled_component_name":"_ZN7android8hardware6camera8provider4V2_426BpHwCameraProviderCallback19interfaceDescriptorENSt3__18functionIFvRKNS0_11hidl_stringEEEE"
    },
    {
     "mangled_component_name":"_ZN7android8hardware6camera8provider4V2_426BpHwCameraProviderCallback12getHashChainENSt3__18functionIFvRKNS0_8hidl_vecINS0_10hidl_arrayIhLj32EJEEEEEEEE"
    },
    {
     "mangled_component_name":"_ZN7android8hardware6camera8provider4V2_426BpHwCameraProviderCallback21setHALInstrumentationEv"
    },
    {
     "mangled_component_name":"_ZN7android8hardware6camera8provider4V2_426BpHwCameraProviderCallback11linkToDeathERKNS_2spINS0_20hidl_death_recipientEEEy"
    },
    {
     "mangled_component_name":"_ZN7android8hardware6camera8provider4V2_426BpHwCameraProviderCallback4pingEv"
    },
    {
     "mangled_component_name":"_ZN7android8hardware6camera8provider4V2_426BpHwCameraProviderCallback12getDebugInfoENSt3__18functionIFvRKNS_4hidl4base4V1_09DebugInfoEEEE"
    },
    {
     "mangled_component_name":"_ZN7android8hardware6camera8provider4V2_426BpHwCameraProviderCallback21notifySyspropsChangedEv"
    },
    {
     "mangled_component_name":"_ZN7android8hardware6camera8provider4V2_426BpHwCameraProviderCallback13unlinkToDeathERKNS_2spINS0_20hidl_death_recipientEEE"
    },
    {
     "kind":"complete_dtor_pointer",
     "mangled_component_name":"_ZN7android8hardware6camera8provider4V2_426BpHwCameraProviderCallbackD1Ev"
    },
    {
     "kind":"deleting_dtor_pointer",
     "mangled_component_name":"_ZN7android8hardware6camera8provider4V2_426BpHwCameraProviderCallbackD0Ev"
    },
    {
     "mangled_component_name":"_ZN7android8hardware6camera8provider4V2_426BpHwCameraProviderCallback24cameraDeviceStatusChangeERKNS0_11hidl_stringENS1_6common4V1_018CameraDeviceStatusE"
    },
    {
     "mangled_component_name":"_ZN7android8hardware6camera8provider4V2_426BpHwCameraProviderCallback21torchModeStatusChangeERKNS0_11hidl_stringENS1_6common4V1_015TorchModeStatusE"
    },
    {
     "mangled_component_name":"_ZN7android8hardware11BpInterfaceINS0_6camera8provider4V2_423ICameraProviderCallbackEE10onAsBinderEv"
    },
    {
     "kind":"vbase_offset",
     "component_value":80
    },
    {
     "kind":"offset_to_top",
     "component_value":-4
    },
    {
     "kind":"rtti",
     "mangled_component_name":"_ZTIN7android8hardware6camera8provider4V2_426BpHwCameraProviderCallbackE"
    },
    {
     "kind":"complete_dtor_pointer",
     "mangled_component_name":"_ZThn4_N7android8hardware6camera8provider4V2_426BpHwCameraProviderCallbackD1Ev"
    },
    {
     "kind":"deleting_dtor_pointer",
     "mangled_component_name":"_ZThn4_N7android8hardware6camera8provider4V2_426BpHwCameraProviderCallbackD0Ev"
    },
    {
     "mangled_component_name":"_ZThn4_N7android8hardware11BpInterfaceINS0_6camera8provider4V2_423ICameraProviderCallbackEE10onAsBinderEv"
    },
    {
     "kind":"vbase_offset",
     "component_value":76
    },
    {
     "kind":"offset_to_top",
     "component_value":-8
    },
    {
     "kind":"rtti",
     "mangled_component_name":"_ZTIN7android8hardware6camera8provider4V2_426BpHwCameraProviderCallbackE"
    },
    {
     "kind":"complete_dtor_pointer",
     "mangled_component_name":"_ZThn8_N7android8hardware6camera8provider4V2_426BpHwCameraProviderCallbackD1Ev"
    },
    {
     "kind":"deleting_dtor_pointer",
     "mangled_component_name":"_ZThn8_N7android8hardware6camera8provider4V2_426BpHwCameraProviderCallbackD0Ev"
    },
    {
     "mangled_component_name":"_ZN7android8hardware11BpHwRefBase10onFirstRefEv"
    },
    {
     "mangled_component_name":"_ZN7android8hardware11BpHwRefBase15onLastStrongRefEPKv"
    },
    {
     "mangled_component_name":"_ZN7android8hardware11BpHwRefBase20onIncStrongAttemptedEjPKv"
    },
    {
     "kind":"offset_to_top",
     "component_value":-24
    },
    {
     "kind":"rtti",
     "mangled_component_name":"_ZTIN7android8hardware6camera8provider4V2_426BpHwCameraProviderCallbackE"
    },
    {
     "kind":"complete_dtor_pointer",
     "mangled_component_name":"_ZThn24_N7android8hardware6camera8provider4V2_426BpHwCameraProviderCallbackD1Ev"
    },
    {
     "kind":"deleting_dtor_pointer",
     "mangled_component_name":"_ZThn24_N7android8hardware6camera8provider4V2_426BpHwCameraProviderCallbackD0Ev"
    },
    {
     "kind":"vcall_offset"
    },
    {
     "kind":"vcall_offset",
     "component_value":-76
    },
    {
     "kind":"vcall_offset",
     "component_value":-76
    },
    {
     "kind":"vcall_offset",
     "component_value":-76
    },
    {
     "kind":"vcall_offset",
     "component_value":-84
    },
    {
     "kind":"offset_to_top",
     "component_value":-84
    },
    {
     "kind":"rtti",
     "mangled_component_name":"_ZTIN7android8hardware6camera8provider4V2_426BpHwCameraProviderCallbackE"
    },
    {
     "kind":"complete_dtor_pointer",
     "mangled_component_name":"_ZTv0_n12_N7android8hardware6camera8provider4V2_426BpHwCameraProviderCallbackD1Ev"
    },
    {
     "kind":"deleting_dtor_pointer",
     "mangled_component_name":"_ZTv0_n12_N7android8hardware6camera8provider4V2_426BpHwCameraProviderCallbackD0Ev"
    },
    {
     "mangled_component_name":"_ZTv0_n16_N7android8hardware11BpHwRefBase10onFirstRefEv"
    },
    {
     "mangled_component_name":"_ZTv0_n20_N7android8hardware11BpHwRefBase15onLastStrongRefEPKv"
    },
    {
     "mangled_component_name":"_ZTv0_n24_N7android8hardware11BpHwRefBase20onIncStrongAttemptedEjPKv"
    },
    {
     "mangled_component_name":"_ZN7android7RefBase13onLastWeakRefEPKv"
    }
   ],
   "unique_id":"_ZTSN7android8hardware6camera8provider4V2_426BpHwCameraProviderCallbackE"
  },
  {
   "vtable_components":[
    {
     "kind":"vbase_offset",
     "component_value":84
    },
    {
     "kind":"offset_to_top"
    },
    {
     "kind":"rtti",
     "mangled_component_name":"_ZTIN7android8hardware6camera8provider4V2_418BpHwCameraProviderE"
    },
    {
     "mangled_component_name":"_ZNK7android8hardware6camera8provider4V2_418BpHwCameraProvider8isRemoteEv"
    },
    {
     "mangled_component_name":"_ZN7android8hardware6camera8provider4V2_418BpHwCameraProvider14interfaceChainENSt3__18functionIFvRKNS0_8hidl_vecINS0_11hidl_stringEEEEEE"
    },
    {
     "mangled_component_name":"_ZN7android8hardware6camera8provider4V2_418BpHwCameraProvider5debugERKNS0_11hidl_handleERKNS0_8hidl_vecINS0_11hidl_stringEEE"
    },
    {
     "mangled_component_name":"_ZN7android8hardware6camera8provider4V2_418BpHwCameraProvider19interfaceDescriptorENSt3__18functionIFvRKNS0_11hidl_stringEEEE"
    },
    {
     "mangled_component_name":"_ZN7android8hardware6camera8provider4V2_418BpHwCameraProvider12getHashChainENSt3__18functionIFvRKNS0_8hidl_vecINS0_10hidl_arrayIhLj32EJEEEEEEEE"
    },
    {
     "mangled_component_name":"_ZN7android8hardware6camera8provider4V2_418BpHwCameraProvider21setHALInstrumentationEv"
    },
    {
     "mangled_component_name":"_ZN7android8hardware6camera8provider4V2_418BpHwCameraProvider11linkToDeathERKNS_2spINS0_20hidl_death_recipientEEEy"
    },
    {
     "mangled_component_name":"_ZN7android8hardware6camera8provider4V2_418BpHwCameraProvider4pingEv"
    },
    {
     "mangled_component_name":"_ZN7android8hardware6camera8provider4V2_418BpHwCameraProvider12getDebugInfoENSt3__18functionIFvRKNS_4hidl4base4V1_09DebugInfoEEEE"
    },
    {
     "mangled_component_name":"_ZN7android8hardware6camera8provider4V2_418BpHwCameraProvider21notifySyspropsChangedEv"
    },
    {
     "mangled_component_name":"_ZN7android8hardware6camera8provider4V2_418BpHwCameraProvider13unlinkToDeathERKNS_2spINS0_20hidl_death_recipientEEE"
    },
    {
     "kind":"complete_dtor_pointer",
     "mangled_component_name":"_ZN7android8hardware6camera8provider4V2_418BpHwCameraProviderD1Ev"
    },
    {
     "kind":"deleting_dtor_pointer",
     "mangled_component_name":"_ZN7android8hardware6camera8provider4V2_418BpHwCameraProviderD0Ev"
    },
    {
     "mangled_component_name":"_ZN7android8hardware6camera8provider4V2_418BpHwCameraProvider11setCallbackERKNS_2spINS3_23ICameraProviderCallbackEEE"
    },
    {
     "mangled_component_name":"_ZN7android8hardware6camera8provider4V2_418BpHwCameraProvider13getVendorTagsENSt3__18functionIFvNS1_6common4V1_06StatusERKNS0_8hidl_vecINS8_16VendorTagSectionEEEEEE"
    },
    {
     "mangled_component_name":"_ZN7android8hardware6camera8provider4V2_418BpHwCameraProvider15getCameraIdListENSt3__18functionIFvNS1_6common4V1_06StatusERKNS0_8hidl_vecINS0_11hidl_stringEEEEEE"
    },
    {
     "mangled_component_name":"_ZN7android8hardware6camera8provider4V2_418BpHwCameraProvider23isSetTorchModeSupportedENSt3__18functionIFvNS1_6common4V1_06StatusEbEEE"
    },
    {
     "mangled_component_name":"_ZN7android8hardware6camera8provider4V2_418BpHwCameraProvider29getCameraDeviceInterface_V1_xERKNS0_11hidl_stringENSt3__18functionIFvNS1_6common4V1_06StatusERKNS_2spINS1_6device4V1_013ICameraDeviceEEEEEE"
    },
    {
     "mangled_component_name":"_ZN7android8hardware6camera8provider4V2_418BpHwCameraProvider29getCameraDeviceInterface_V3_xERKNS0_11hidl_stringENSt3__18functionIFvNS1_6common4V1_06StatusERKNS_2spINS1_6device4V3_213ICameraDeviceEEEEEE"
    },
    {
     "mangled_component_name":"_ZN7android8hardware11BpInterfaceINS0_6camera8provider4V2_415ICameraProviderEE10onAsBinderEv"
    },
    {
     "kind":"vbase_offset",
     "component_value":80
    },
    {
     "kind":"offset_to_top",
     "component_value":-4
    },
    {
     "kind":"rtti",
     "mangled_component_name":"_ZTIN7android8hardware6camera8provider4V2_418BpHwCameraProviderE"
    },
    {
     "kind":"complete_dtor_pointer",
     "mangled_component_name":"_ZThn4_N7android8hardware6camera8provider4V2_418BpHwCameraProviderD1Ev"
    },
    {
     "kind":"deleting_dtor_pointer",
     "mangled_component_name":"_ZThn4_N7android8hardware6camera8provider4V2_418BpHwCameraProviderD0Ev"
    },
    {
     "mangled_component_name":"_ZThn4_N7android8hardware11BpInterfaceINS0_6camera8provider4V2_415ICameraProviderEE10onAsBinderEv"
    },
    {
     "kind":"vbase_offset",
     "component_value":76
    },
    {
     "kind":"offset_to_top",
     "component_value":-8
    },
    {
     "kind":"rtti",
     "mangled_component_name":"_ZTIN7android8hardware6camera8provider4V2_418BpHwCameraProviderE"
    },
    {
     "kind":"complete_dtor_pointer",
     "mangled_component_name":"_ZThn8_N7android8hardware6camera8provider4V2_418BpHwCameraProviderD1Ev"
    },
    {
     "kind":"deleting_dtor_pointer",
     "mangled_component_name":"_ZThn8_N7android8hardware6camera8provider4V2_418BpHwCameraProviderD0Ev"
    },
    {
     "mangled_component_name":"_ZN7android8hardware11BpHwRefBase10onFirstRefEv"
    },
    {
     "mangled_component_name":"_ZN7android8hardware11BpHwRefBase15onLastStrongRefEPKv"
    },
    {
     "mangled_component_name":"_ZN7android8hardware11BpHwRefBase20onIncStrongAttemptedEjPKv"
    },
    {
     "kind":"offset_to_top",
     "component_value":-24
    },
    {
     "kind":"rtti",
     "mangled_component_name":"_ZTIN7android8hardware6camera8provider4V2_418BpHwCameraProviderE"
    },
    {
     "kind":"complete_dtor_pointer",
     "mangled_component_name":"_ZThn24_N7android8hardware6camera8provider4V2_418BpHwCameraProviderD1Ev"
    },
    {
     "kind":"deleting_dtor_pointer",
     "mangled_component_name":"_ZThn24_N7android8hardware6camera8provider4V2_418BpHwCameraProviderD0Ev"
    },
    {
     "kind":"vcall_offset"
    },
    {
     "kind":"vcall_offset",
     "component_value":-76
    },
    {
     "kind":"vcall_offset",
     "component_value":-76
    },
    {
     "kind":"vcall_offset",
     "component_value":-76
    },
    {
     "kind":"vcall_offset",
     "component_value":-84
    },
    {
     "kind":"offset_to_top",
     "component_value":-84
    },
    {
     "kind":"rtti",
     "mangled_component_name":"_ZTIN7android8hardware6camera8provider4V2_418BpHwCameraProviderE"
    },
    {
     "kind":"complete_dtor_pointer",
     "mangled_component_name":"_ZTv0_n12_N7android8hardware6camera8provider4V2_418BpHwCameraProviderD1Ev"
    },
    {
     "kind":"deleting_dtor_pointer",
     "mangled_component_name":"_ZTv0_n12_N7android8hardware6camera8provider4V2_418BpHwCameraProviderD0Ev"
    },
    {
     "mangled_component_name":"_ZTv0_n16_N7android8hardware11BpHwRefBase10onFirstRefEv"
    },
    {
     "mangled_component_name":"_ZTv0_n20_N7android8hardware11BpHwRefBase15onLastStrongRefEPKv"
    },
    {
     "mangled_component_name":"_ZTv0_n24_N7android8hardware11BpHwRefBase20onIncStrongAttemptedEjPKv"
    },
    {
     "mangled_component_name":"_ZN7android7RefBase13onLastWeakRefEPKv"
    }
   ],
   "unique_id":"_ZTSN7android8hardware6camera8provider4V2_418BpHwCameraProviderE"
  },
  {
   "vtable_components":[
    {
     "kind":"vbase_offset",
     "component_value":4
    },
    {
     "kind":"offset_to_top"
    },
    {
     "kind":"rtti",
     "mangled_component_name":"_ZTIN7android8hardware6camera8provider4V2_415ICameraProviderE"
    },
    {
     "mangled_component_name":"_ZNK7android8hardware6camera8provider4V2_415ICameraProvider8isRemoteEv"
    },
    {
     "mangled_component_name":"_ZN7android8hardware6camera8provider4V2_415ICameraProvider14interfaceChainENSt3__18functionIFvRKNS0_8hidl_vecINS0_11hidl_stringEEEEEE"
    },
    {
     "mangled_component_name":"_ZN7android8hardware6camera8provider4V2_415ICameraProvider5debugERKNS0_11hidl_handleERKNS0_8hidl_vecINS0_11hidl_stringEEE"
    },
    {
     "mangled_component_name":"_ZN7android8hardware6camera8provider4V2_415ICameraProvider19interfaceDescriptorENSt3__18functionIFvRKNS0_11hidl_stringEEEE"
    },
    {
     "mangled_component_name":"_ZN7android8hardware6camera8provider4V2_415ICameraProvider12getHashChainENSt3__18functionIFvRKNS0_8hidl_vecINS0_10hidl_arrayIhLj32EJEEEEEEEE"
    },
    {
     "mangled_component_name":"_ZN7android8hardware6camera8provider4V2_415ICameraProvider21setHALInstrumentationEv"
    },
    {
     "mangled_component_name":"_ZN7android8hardware6camera8provider4V2_415ICameraProvider11linkToDeathERKNS_2spINS0_20hidl_death_recipientEEEy"
    },
    {
     "mangled_component_name":"_ZN7android8hardware6camera8provider4V2_415ICameraProvider4pingEv"
    },
    {
     "mangled_component_name":"_ZN7android8hardware6camera8provider4V2_415ICameraProvider12getDebugInfoENSt3__18functionIFvRKNS_4hidl4base4V1_09DebugInfoEEEE"
    },
    {
     "mangled_component_name":"_ZN7android8hardware6camera8provider4V2_415ICameraProvider21notifySyspropsChangedEv"
    },
    {
     "mangled_component_name":"_ZN7android8hardware6camera8provider4V2_415ICameraProvider13unlinkToDeathERKNS_2spINS0_20hidl_death_recipientEEE"
    },
    {
     "kind":"complete_dtor_pointer",
     "mangled_component_name":"_ZN7android8hardware6camera8provider4V2_415ICameraProviderD1Ev"
    },
    {
     "kind":"deleting_dtor_pointer",
     "mangled_component_name":"_ZN7android8hardware6camera8provider4V2_415ICameraProviderD0Ev"
    },
    {
     "is_pure":true,
     "mangled_component_name":"_ZN7android8hardware6camera8provider4V2_415ICameraProvider11setCallbackERKNS_2spINS3_23ICameraProviderCallbackEEE"
    },
    {
     "is_pure":true,
     "mangled_component_name":"_ZN7android8hardware6camera8provider4V2_415ICameraProvider13getVendorTagsENSt3__18functionIFvNS1_6common4V1_06StatusERKNS0_8hidl_vecINS8_16VendorTagSectionEEEEEE"
    },
    {
     "is_pure":true,
     "mangled_component_name":"_ZN7android8hardware6camera8provider4V2_415ICameraProvider15getCameraIdListENSt3__18functionIFvNS1_6common4V1_06StatusERKNS0_8hidl_vecINS0_11hidl_stringEEEEEE"
    },
    {
     "is_pure":true,
     "mangled_component_name":"_ZN7android8hardware6camera8provider4V2_415ICameraProvider23isSetTorchModeSupportedENSt3__18functionIFvNS1_6common4V1_06StatusEbEEE"
    },
    {
     "is_pure":true,
     "mangled_component_name":"_ZN7android8hardware6camera8provider4V2_415ICameraProvider29getCameraDeviceInterface_V1_xERKNS0_11hidl_stringENSt3__18functionIFvNS1_6common4V1_06StatusERKNS_2spINS1_6device4V1_013ICameraDeviceEEEEEE"
    },
    {
     "is_pure":true,
     "mangled_component_name":"_ZN7android8hardware6camera8provider4V2_415ICameraProvider29getCameraDeviceInterface_V3_xERKNS0_11hidl_stringENSt3__18functionIFvNS1_6common4V1_06StatusERKNS_2spINS1_6device4V3_213ICameraDeviceEEEEEE"
    },
    {
     "kind":"vcall_offset"
    },
    {
     "kind":"vcall_offset"
    },
    {
     "kind":"vcall_offset"
    },
    {
     "kind":"vcall_offset"
    },
    {
     "kind":"vcall_offset",
     "component_value":-4
    },
    {
     "kind":"offset_to_top",
     "component_value":-4
    },
    {
     "kind":"rtti",
     "mangled_component_name":"_ZTIN7android8hardware6camera8provider4V2_415ICameraProviderE"
    },
    {
     "kind":"complete_dtor_pointer",
     "mangled_component_name":"_ZTv0_n12_N7android8hardware6camera8provider4V2_415ICameraProviderD1Ev"
    },
    {
     "kind":"deleting_dtor_pointer",
     "mangled_component_name":"_ZTv0_n12_N7android8hardware6camera8provider4V2_415ICameraProviderD0Ev"
    },
    {
     "mangled_component_name":"_ZN7android7RefBase10onFirstRefEv"
    },
    {
     "mangled_component_name":"_ZN7android7RefBase15onLastStrongRefEPKv"
    },
    {
     "mangled_component_name":"_ZN7android7RefBase20onIncStrongAttemptedEjPKv"
    },
    {
     "mangled_component_name":"_ZN7android7RefBase13onLastWeakRefEPKv"
    }
   ],
   "unique_id":"_ZTSN7android8hardware6camera8provider4V2_415ICameraProviderE"
  },
  {
   "vtable_components":[
    {
     "kind":"vbase_offset",
     "component_value":72
    },
    {
     "kind":"offset_to_top"
    },
    {
     "kind":"rtti",
     "mangled_component_name":"_ZTIN7android8hardware6camera8provider4V2_418BnHwCameraProviderE"
    },
    {
     "mangled_component_name":"_ZN7android8hardware9BHwBinder8transactEjRKNS0_6ParcelEPS2_jNSt3__18functionIFvRS2_EEE"
    },
    {
     "mangled_component_name":"_ZN7android8hardware9BHwBinder11linkToDeathERKNS_2spINS0_7IBinder14DeathRecipientEEEPvj"
    },
    {
     "mangled_component_name":"_ZN7android8hardware9BHwBinder13unlinkToDeathERKNS_2wpINS0_7IBinder14DeathRecipientEEEPvjPS5_"
    },
    {
     "mangled_component_name":"_ZNK7android8hardware7IBinder13checkSubclassEPKv"
    },
    {
     "mangled_component_name":"_ZN7android8hardware9BHwBinder12attachObjectEPKvPvS4_PFvS3_S4_S4_E"
    },
    {
     "mangled_component_name":"_ZNK7android8hardware9BHwBinder10findObjectEPKv"
    },
    {
     "mangled_component_name":"_ZN7android8hardware9BHwBinder12detachObjectEPKv"
    },
    {
     "mangled_component_name":"_ZN7android8hardware9BHwBinder11localBinderEv"
    },
    {
     "mangled_component_name":"_ZN7android8hardware7IBinder12remoteBinderEv"
    },
    {
     "kind":"complete_dtor_pointer",
     "mangled_component_name":"_ZN7android8hardware6camera8provider4V2_418BnHwCameraProviderD1Ev"
    },
    {
     "kind":"deleting_dtor_pointer",
     "mangled_component_name":"_ZN7android8hardware6camera8provider4V2_418BnHwCameraProviderD0Ev"
    },
    {
     "mangled_component_name":"_ZN7android8hardware6camera8provider4V2_418BnHwCameraProvider10onTransactEjRKNS0_6ParcelEPS5_jNSt3__18functionIFvRS5_EEE"
    },
    {
     "kind":"offset_to_top",
     "component_value":-20
    },
    {
     "kind":"rtti",
     "mangled_component_name":"_ZTIN7android8hardware6camera8provider4V2_418BnHwCameraProviderE"
    },
    {
     "kind":"complete_dtor_pointer",
     "mangled_component_name":"_ZThn20_N7android8hardware6camera8provider4V2_418BnHwCameraProviderD1Ev"
    },
    {
     "kind":"deleting_dtor_pointer",
     "mangled_component_name":"_ZThn20_N7android8hardware6camera8provider4V2_418BnHwCameraProviderD0Ev"
    },
    {
     "kind":"vcall_offset"
    },
    {
     "kind":"vcall_offset"
    },
    {
     "kind":"vcall_offset"
    },
    {
     "kind":"vcall_offset"
    },
    {
     "kind":"vcall_offset",
     "component_value":-72
    },
    {
     "kind":"offset_to_top",
     "component_value":-72
    },
    {
     "kind":"rtti",
     "mangled_component_name":"_ZTIN7android8hardware6camera8provider4V2_418BnHwCameraProviderE"
    },
    {
     "kind":"complete_dtor_pointer",
     "mangled_component_name":"_ZTv0_n12_N7android8hardware6camera8provider4V2_418BnHwCameraProviderD1Ev"
    },
    {
     "kind":"deleting_dtor_pointer",
     "mangled_component_name":"_ZTv0_n12_N7android8hardware6camera8provider4V2_418BnHwCameraProviderD0Ev"
    },
    {
     "mangled_component_name":"_ZN7android7RefBase10onFirstRefEv"
    },
    {
     "mangled_component_name":"_ZN7android7RefBase15onLastStrongRefEPKv"
    },
    {
     "mangled_component_name":"_ZN7android7RefBase20onIncStrongAttemptedEjPKv"
    },
    {
     "mangled_component_name":"_ZN7android7RefBase13onLastWeakRefEPKv"
    }
   ],
   "unique_id":"_ZTSN7android8hardware6camera8provider4V2_418BnHwCameraProviderE"
  }
 ],
 "elf_functions":[
  {
   "binding":"weak",
   "name":"_ZN7android8hardware10fromBinderINS0_6camera6device4V1_013ICameraDeviceENS4_16BpHwCameraDeviceENS4_16BnHwCameraDeviceEEENS_2spIT_EERKNS8_INS0_7IBinderEEE"
  },
  {
   "binding":"weak",
   "name":"_ZN7android8hardware10fromBinderINS0_6camera6device4V3_213ICameraDeviceENS4_16BpHwCameraDeviceENS4_16BnHwCameraDeviceEEENS_2spIT_EERKNS8_INS0_7IBinderEEE"
  },
  {
   "binding":"weak",
   "name":"_ZN7android8hardware10fromBinderINS0_6camera8provider4V2_423ICameraProviderCallbackENS4_26BpHwCameraProviderCallbackENS4_26BnHwCameraProviderCallbackEEENS_2spIT_EERKNS8_INS0_7IBinderEEE"
  },
  {
   "name":"_ZN7android8hardware6camera8provider4V2_415ICameraProvider10getServiceERKNSt3__112basic_stringIcNS5_11char_traitsIcEENS5_9allocatorIcEEEEb"
  },
  {
   "name":"_ZN7android8hardware6camera8provider4V2_415ICameraProvider11linkToDeathERKNS_2spINS0_20hidl_death_recipientEEEy"
  },
  {
   "name":"_ZN7android8hardware6camera8provider4V2_415ICameraProvider12getDebugInfoENSt3__18functionIFvRKNS_4hidl4base4V1_09DebugInfoEEEE"
  },
  {
   "name":"_ZN7android8hardware6camera8provider4V2_415ICameraProvider12getHashChainENSt3__18functionIFvRKNS0_8hidl_vecINS0_10hidl_arrayIhLj32EJEEEEEEEE"
  },
  {
   "name":"_ZN7android8hardware6camera8provider4V2_415ICameraProvider13tryGetServiceERKNSt3__112basic_stringIcNS5_11char_traitsIcEENS5_9allocatorIcEEEEb"
  },
  {
   "name":"_ZN7android8hardware6camera8provider4V2_415ICameraProvider13unlinkToDeathERKNS_2spINS0_20hidl_death_recipientEEE"
  },
  {
   "name":"_ZN7android8hardware6camera8provider4V2_415ICameraProvider14interfaceChainENSt3__18functionIFvRKNS0_8hidl_vecINS0_11hidl_stringEEEEEE"
  },
  {
   "name":"_ZN7android8hardware6camera8provider4V2_415ICameraProvider17registerAsServiceERKNSt3__112basic_stringIcNS5_11char_traitsIcEENS5_9allocatorIcEEEE"
  },
  {
   "name":"_ZN7android8hardware6camera8provider4V2_415ICameraProvider19interfaceDescriptorENSt3__18functionIFvRKNS0_11hidl_stringEEEE"
  },
  {
   "name":"_ZN7android8hardware6camera8provider4V2_415ICameraProvider21notifySyspropsChangedEv"
  },
  {
   "name":"_ZN7android8hardware6camera8provider4V2_415ICameraProvider21setHALInstrumentationEv"
  },
  {
   "name":"_ZN7android8hardware6camera8provider4V2_415ICameraProvider24registerForNotificationsERKNSt3__112basic_stringIcNS5_11char_traitsIcEENS5_9allocatorIcEEEERKNS_2spINS_4hidl7manager4V1_020IServiceNotificationEEE"
  },
  {
   "name":"_ZN7android8hardware6camera8provider4V2_415ICameraProvider4pingEv"
  },
  {
   "name":"_ZN7android8hardware6camera8provider4V2_415ICameraProvider5debugERKNS0_11hidl_handleERKNS0_8hidl_vecINS0_11hidl_stringEEE"
  },
  {
   "name":"_ZN7android8hardware6camera8provider4V2_415ICameraProvider8castFromERKNS_2spINS_4hidl4base4V1_05IBaseEEEb"
  },
  {
   "name":"_ZN7android8hardware6camera8provider4V2_415ICameraProvider8castFromERKNS_2spIS4_EEb"
  },
  {
   "name":"_ZN7android8hardware6camera8provider4V2_416BsCameraProvider13addOnewayTaskENSt3__18functionIFvvEEE"
  },
  {
   "name":"_ZN7android8hardware6camera8provider4V2_416BsCameraProviderC1ENS_2spINS3_15ICameraProviderEEE"
  },
  {
   "name":"_ZN7android8hardware6camera8provider4V2_416BsCameraProviderC2ENS_2spINS3_15ICameraProviderEEE"
  },
  {
   "name":"_ZN7android8hardware6camera8provider4V2_418BnHwCameraProvider10onTransactEjRKNS0_6ParcelEPS5_jNSt3__18functionIFvRS5_EEE"
  },
  {
   "name":"_ZN7android8hardware6camera8provider4V2_418BnHwCameraProvider12getDebugInfoENSt3__18functionIFvRKNS_4hidl4base4V1_09DebugInfoEEEE"
  },
  {
   "name":"_ZN7android8hardware6camera8provider4V2_418BnHwCameraProvider17_hidl_setCallbackEPNS_4hidl4base4V1_08BnHwBaseERKNS0_6ParcelEPSA_NSt3__18functionIFvRSA_EEE"
  },
  {
   "name":"_ZN7android8hardware6camera8provider4V2_418BnHwCameraProvider19_hidl_getVendorTagsEPNS_4hidl4base4V1_08BnHwBaseERKNS0_6ParcelEPSA_NSt3__18functionIFvRSA_EEE"
  },
  {
   "name":"_ZN7android8hardware6camera8provider4V2_418BnHwCameraProvider21_hidl_getCameraIdListEPNS_4hidl4base4V1_08BnHwBaseERKNS0_6ParcelEPSA_NSt3__18functionIFvRSA_EEE"
  },
  {
   "name":"_ZN7android8hardware6camera8provider4V2_418BnHwCameraProvider29_hidl_isSetTorchModeSupportedEPNS_4hidl4base4V1_08BnHwBaseERKNS0_6ParcelEPSA_NSt3__18functionIFvRSA_EEE"
  },
  {
   "name":"_ZN7android8hardware6camera8provider4V2_418BnHwCameraProvider35_hidl_getCameraDeviceInterface_V1_xEPNS_4hidl4base4V1_08BnHwBaseERKNS0_6ParcelEPSA_NSt3__18functionIFvRSA_EEE"
  },
  {
   "name":"_ZN7android8hardware6camera8provider4V2_418BnHwCameraProvider35_hidl_getCameraDeviceInterface_V3_xEPNS_4hidl4base4V1_08BnHwBaseERKNS0_6ParcelEPSA_NSt3__18functionIFvRSA_EEE"
  },
  {
   "name":"_ZN7android8hardware6camera8provider4V2_418BnHwCameraProvider4pingEv"
  },
  {
   "name":"_ZN7android8hardware6camera8provider4V2_418BnHwCameraProviderC1ERKNS_2spINS3_15ICameraProviderEEE"
  },
  {
   "name":"_ZN7android8hardware6camera8provider4V2_418BnHwCameraProviderC2ERKNS_2spINS3_15ICameraProviderEEE"
  },
  {
   "name":"_ZN7android8hardware6camera8provider4V2_418BnHwCameraProviderD0Ev"
  },
  {
   "name":"_ZN7android8hardware6camera8provider4V2_418BnHwCameraProviderD1Ev"
  },
  {
   "name":"_ZN7android8hardware6camera8provider4V2_418BnHwCameraProviderD2Ev"
  },
  {
   "name":"_ZN7android8hardware6camera8provider4V2_418BpHwCameraProvider11linkToDeathERKNS_2spINS0_20hidl_death_recipientEEEy"
  },
  {
   "name":"_ZN7android8hardware6camera8provider4V2_418BpHwCameraProvider11setCallbackERKNS_2spINS3_23ICameraProviderCallbackEEE"
  },
  {
   "name":"_ZN7android8hardware6camera8provider4V2_418BpHwCameraProvider12getDebugInfoENSt3__18functionIFvRKNS_4hidl4base4V1_09DebugInfoEEEE"
  },
  {
   "name":"_ZN7android8hardware6camera8provider4V2_418BpHwCameraProvider12getHashChainENSt3__18functionIFvRKNS0_8hidl_vecINS0_10hidl_arrayIhLj32EJEEEEEEEE"
  },
  {
   "name":"_ZN7android8hardware6camera8provider4V2_418BpHwCameraProvider13getVendorTagsENSt3__18functionIFvNS1_6common4V1_06StatusERKNS0_8hidl_vecINS8_16VendorTagSectionEEEEEE"
  },
  {
   "name":"_ZN7android8hardware6camera8provider4V2_418BpHwCameraProvider13unlinkToDeathERKNS_2spINS0_20hidl_death_recipientEEE"
  },
  {
   "name":"_ZN7android8hardware6camera8provider4V2_418BpHwCameraProvider14interfaceChainENSt3__18functionIFvRKNS0_8hidl_vecINS0_11hidl_stringEEEEEE"
  },
  {
   "name":"_ZN7android8hardware6camera8provider4V2_418BpHwCameraProvider15getCameraIdListENSt3__18functionIFvNS1_6common4V1_06StatusERKNS0_8hidl_vecINS0_11hidl_stringEEEEEE"
  },
  {
   "name":"_ZN7android8hardware6camera8provider4V2_418BpHwCameraProvider17_hidl_setCallbackEPNS0_10IInterfaceEPNS0_7details16HidlInstrumentorERKNS_2spINS3_23ICameraProviderCallbackEEE"
  },
  {
   "name":"_ZN7android8hardware6camera8provider4V2_418BpHwCameraProvider19_hidl_getVendorTagsEPNS0_10IInterfaceEPNS0_7details16HidlInstrumentorENSt3__18functionIFvNS1_6common4V1_06StatusERKNS0_8hidl_vecINSD_16VendorTagSectionEEEEEE"
  },
  {
   "name":"_ZN7android8hardware6camera8provider4V2_418BpHwCameraProvider19interfaceDescriptorENSt3__18functionIFvRKNS0_11hidl_stringEEEE"
  },
  {
   "name":"_ZN7android8hardware6camera8provider4V2_418BpHwCameraProvider21_hidl_getCameraIdListEPNS0_10IInterfaceEPNS0_7details16HidlInstrumentorENSt3__18functionIFvNS1_6common4V1_06StatusERKNS0_8hidl_vecINS0_11hidl_stringEEEEEE"
  },
  {
   "name":"_ZN7android8hardware6camera8provider4V2_418BpHwCameraProvider21notifySyspropsChangedEv"
  },
  {
   "name":"_ZN7android8hardware6camera8provider4V2_418BpHwCameraProvider21setHALInstrumentationEv"
  },
  {
   "name":"_ZN7android8hardware6camera8provider4V2_418BpHwCameraProvider23isSetTorchModeSupportedENSt3__18functionIFvNS1_6common4V1_06StatusEbEEE"
  },
  {
   "name":"_ZN7android8hardware6camera8provider4V2_418BpHwCameraProvider29_hidl_isSetTorchModeSupportedEPNS0_10IInterfaceEPNS0_7details16HidlInstrumentorENSt3__18functionIFvNS1_6common4V1_06StatusEbEEE"
  },
  {
   "name":"_ZN7android8hardware6camera8provider4V2_418BpHwCameraProvider29getCameraDeviceInterface_V1_xERKNS0_11hidl_stringENSt3__18functionIFvNS1_6common4V1_06StatusERKNS_2spINS1_6device4V1_013ICameraDeviceEEEEEE"
  },
  {
   "name":"_ZN7android8hardware6camera8provider4V2_418BpHwCameraProvider29getCameraDeviceInterface_V3_xERKNS0_11hidl_stringENSt3__18functionIFvNS1_6common4V1_06StatusERKNS_2spINS1_6device4V3_213ICameraDeviceEEEEEE"
  },
  {
   "name":"_ZN7android8hardware6camera8provider4V2_418BpHwCameraProvider35_hidl_getCameraDeviceInterface_V1_xEPNS0_10IInterfaceEPNS0_7details16HidlInstrumentorERKNS0_11hidl_stringENSt3__18functionIFvNS1_6common4V1_06StatusERKNS_2spINS1_6device4V1_013ICameraDeviceEEEEEE"
  },
  {
   "name":"_ZN7android8hardware6camera8provider4V2_418BpHwCameraProvider35_hidl_getCameraDeviceInterface_V3_xEPNS0_10IInterfaceEPNS0_7details16HidlInstrumentorERKNS0_11hidl_stringENSt3__18functionIFvNS1_6common4V1_06StatusERKNS_2spINS1_6device4V3_213ICameraDeviceEEEEEE"
  },
  {
   "name":"_ZN7android8hardware6camera8provider4V2_418BpHwCameraProvider4pingEv"
  },
  {
   "name":"_ZN7android8hardware6camera8provider4V2_418BpHwCameraProvider5debugERKNS0_11hidl_handleERKNS0_8hidl_vecINS0_11hidl_stringEEE"
  },
  {
   "name":"_ZN7android8hardware6camera8provider4V2_418BpHwCameraProviderC1ERKNS_2spINS0_7IBinderEEE"
  },
  {
   "name":"_ZN7android8hardware6camera8provider4V2_418BpHwCameraProviderC2ERKNS_2spINS0_7IBinderEEE"
  },
  {
   "name":"_ZN7android8hardware6camera8provider4V2_423ICameraProviderCallback10getServiceERKNSt3__112basic_stringIcNS5_11char_traitsIcEENS5_9allocatorIcEEEEb"
  },
  {
   "name":"_ZN7android8hardware6camera8provider4V2_423ICameraProviderCallback11linkToDeathERKNS_2spINS0_20hidl_death_recipientEEEy"
  },
  {
   "name":"_ZN7android8hardware6camera8provider4V2_423ICameraProviderCallback12getDebugInfoENSt3__18functionIFvRKNS_4hidl4base4V1_09DebugInfoEEEE"
  },
  {
   "name":"_ZN7android8hardware6camera8provider4V2_423ICameraProviderCallback12getHashChainENSt3__18functionIFvRKNS0_8hidl_vecINS0_10hidl_arrayIhLj32EJEEEEEEEE"
  },
  {
   "name":"_ZN7android8hardware6camera8provider4V2_423ICameraProviderCallback13tryGetServiceERKNSt3__112basic_stringIcNS5_11char_traitsIcEENS5_9allocatorIcEEEEb"
  },
  {
   "name":"_ZN7android8hardware6camera8provider4V2_423ICameraProviderCallback13unlinkToDeathERKNS_2spINS0_20hidl_death_recipientEEE"
  },
  {
   "name":"_ZN7android8hardware6camera8provider4V2_423ICameraProviderCallback14interfaceChainENSt3__18functionIFvRKNS0_8hidl_vecINS0_11hidl_stringEEEEEE"
  },
  {
   "name":"_ZN7android8hardware6camera8provider4V2_423ICameraProviderCallback17registerAsServiceERKNSt3__112basic_stringIcNS5_11char_traitsIcEENS5_9allocatorIcEEEE"
  },
  {
   "name":"_ZN7android8hardware6camera8provider4V2_423ICameraProviderCallback19interfaceDescriptorENSt3__18functionIFvRKNS0_11hidl_stringEEEE"
  },
  {
   "name":"_ZN7android8hardware6camera8provider4V2_423ICameraProviderCallback21notifySyspropsChangedEv"
  },
  {
   "name":"_ZN7android8hardware6camera8provider4V2_423ICameraProviderCallback21setHALInstrumentationEv"
  },
  {
   "name":"_ZN7android8hardware6camera8provider4V2_423ICameraProviderCallback24registerForNotificationsERKNSt3__112basic_stringIcNS5_11char_traitsIcEENS5_9allocatorIcEEEERKNS_2spINS_4hidl7manager4V1_020IServiceNotificationEEE"
  },
  {
   "name":"_ZN7android8hardware6camera8provider4V2_423ICameraProviderCallback4pingEv"
  },
  {
   "name":"_ZN7android8hardware6camera8provider4V2_423ICameraProviderCallback5debugERKNS0_11hidl_handleERKNS0_8hidl_vecINS0_11hidl_stringEEE"
  },
  {
   "name":"_ZN7android8hardware6camera8provider4V2_423ICameraProviderCallback8castFromERKNS_2spINS_4hidl4base4V1_05IBaseEEEb"
  },
  {
   "name":"_ZN7android8hardware6camera8provider4V2_423ICameraProviderCallback8castFromERKNS_2spIS4_EEb"
  },
  {
   "name":"_ZN7android8hardware6camera8provider4V2_424BsCameraProviderCallback13addOnewayTaskENSt3__18functionIFvvEEE"
  },
  {
   "name":"_ZN7android8hardware6camera8provider4V2_424BsCameraProviderCallbackC1ENS_2spINS3_23ICameraProviderCallbackEEE"
  },
  {
   "name":"_ZN7android8hardware6camera8provider4V2_424BsCameraProviderCallbackC2ENS_2spINS3_23ICameraProviderCallbackEEE"
  },
  {
   "name":"_ZN7android8hardware6camera8provider4V2_426BnHwCameraProviderCallback10onTransactEjRKNS0_6ParcelEPS5_jNSt3__18functionIFvRS5_EEE"
  },
  {
   "name":"_ZN7android8hardware6camera8provider4V2_426BnHwCameraProviderCallback12getDebugInfoENSt3__18functionIFvRKNS_4hidl4base4V1_09DebugInfoEEEE"
  },
  {
   "name":"_ZN7android8hardware6camera8provider4V2_426BnHwCameraProviderCallback27_hidl_torchModeStatusChangeEPNS_4hidl4base4V1_08BnHwBaseERKNS0_6ParcelEPSA_NSt3__18functionIFvRSA_EEE"
  },
  {
   "name":"_ZN7android8hardware6camera8provider4V2_426BnHwCameraProviderCallback30_hidl_cameraDeviceStatusChangeEPNS_4hidl4base4V1_08BnHwBaseERKNS0_6ParcelEPSA_NSt3__18functionIFvRSA_EEE"
  },
  {
   "name":"_ZN7android8hardware6camera8provider4V2_426BnHwCameraProviderCallback4pingEv"
  },
  {
   "name":"_ZN7android8hardware6camera8provider4V2_426BnHwCameraProviderCallbackC1ERKNS_2spINS3_23ICameraProviderCallbackEEE"
  },
  {
   "name":"_ZN7android8hardware6camera8provider4V2_426BnHwCameraProviderCallbackC2ERKNS_2spINS3_23ICameraProviderCallbackEEE"
  },
  {
   "name":"_ZN7android8hardware6camera8provider4V2_426BnHwCameraProviderCallbackD0Ev"
  },
  {
   "name":"_ZN7android8hardware6camera8provider4V2_426BnHwCameraProviderCallbackD1Ev"
  },
  {
   "name":"_ZN7android8hardware6camera8provider4V2_426BnHwCameraProviderCallbackD2Ev"
  },
  {
   "name":"_ZN7android8hardware6camera8provider4V2_426BpHwCameraProviderCallback11linkToDeathERKNS_2spINS0_20hidl_death_recipientEEEy"
  },
  {
   "name":"_ZN7android8hardware6camera8provider4V2_426BpHwCameraProviderCallback12getDebugInfoENSt3__18functionIFvRKNS_4hidl4base4V1_09DebugInfoEEEE"
  },
  {
   "name":"_ZN7android8hardware6camera8provider4V2_426BpHwCameraProviderCallback12getHashChainENSt3__18functionIFvRKNS0_8hidl_vecINS0_10hidl_arrayIhLj32EJEEEEEEEE"
  },
  {
   "name":"_ZN7android8hardware6camera8provider4V2_426BpHwCameraProviderCallback13unlinkToDeathERKNS_2spINS0_20hidl_death_recipientEEE"
  },
  {
   "name":"_ZN7android8hardware6camera8provider4V2_426BpHwCameraProviderCallback14interfaceChainENSt3__18functionIFvRKNS0_8hidl_vecINS0_11hidl_stringEEEEEE"
  },
  {
   "name":"_ZN7android8hardware6camera8provider4V2_426BpHwCameraProviderCallback19interfaceDescriptorENSt3__18functionIFvRKNS0_11hidl_stringEEEE"
  },
  {
   "name":"_ZN7android8hardware6camera8provider4V2_426BpHwCameraProviderCallback21notifySyspropsChangedEv"
  },
  {
   "name":"_ZN7android8hardware6camera8provider4V2_426BpHwCameraProviderCallback21setHALInstrumentationEv"
  },
  {
   "name":"_ZN7android8hardware6camera8provider4V2_426BpHwCameraProviderCallback21torchModeStatusChangeERKNS0_11hidl_stringENS1_6common4V1_015TorchModeStatusE"
  },
  {
   "name":"_ZN7android8hardware6camera8provider4V2_426BpHwCameraProviderCallback24cameraDeviceStatusChangeERKNS0_11hidl_stringENS1_6common4V1_018CameraDeviceStatusE"
  },
  {
   "name":"_ZN7android8hardware6camera8provider4V2_426BpHwCameraProviderCallback27_hidl_torchModeStatusChangeEPNS0_10IInterfaceEPNS0_7details16HidlInstrumentorERKNS0_11hidl_stringENS1_6common4V1_015TorchModeStatusE"
  },
  {
   "name":"_ZN7android8hardware6camera8provider4V2_426BpHwCameraProviderCallback30_hidl_cameraDeviceStatusChangeEPNS0_10IInterfaceEPNS0_7details16HidlInstrumentorERKNS0_11hidl_stringENS1_6common4V1_018CameraDeviceStatusE"
  },
  {
   "name":"_ZN7android8hardware6camera8provider4V2_426BpHwCameraProviderCallback4pingEv"
  },
  {
   "name":"_ZN7android8hardware6camera8provider4V2_426BpHwCameraProviderCallback5debugERKNS0_11hidl_handleERKNS0_8hidl_vecINS0_11hidl_stringEEE"
  },
  {
   "name":"_ZN7android8hardware6camera8provider4V2_426BpHwCameraProviderCallbackC1ERKNS_2spINS0_7IBinderEEE"
  },
  {
   "name":"_ZN7android8hardware6camera8provider4V2_426BpHwCameraProviderCallbackC2ERKNS_2spINS0_7IBinderEEE"
  },
  {
   "binding":"weak",
   "name":"_ZN7android8hardware7details13castInterfaceINS0_6camera8provider4V2_415ICameraProviderENS_4hidl4base4V1_05IBaseENS5_18BpHwCameraProviderEEENS0_6ReturnINS_2spIT_EEEENSD_IT0_EEPKcb"
  },
  {
   "binding":"weak",
   "name":"_ZN7android8hardware7details13castInterfaceINS0_6camera8provider4V2_423ICameraProviderCallbackENS_4hidl4base4V1_05IBaseENS5_26BpHwCameraProviderCallbackEEENS0_6ReturnINS_2spIT_EEEENSD_IT0_EEPKcb"
  },
  {
   "binding":"weak",
   "name":"_ZN7android8hardware7details15wrapPassthroughINS0_6camera6device4V1_013ICameraDeviceEvEENS_2spIT_EES9_"
  },
  {
   "binding":"weak",
   "name":"_ZN7android8hardware7details15wrapPassthroughINS0_6camera6device4V3_213ICameraDeviceEvEENS_2spIT_EES9_"
  },
  {
   "binding":"weak",
   "name":"_ZN7android8hardware7details15wrapPassthroughINS0_6camera8provider4V2_423ICameraProviderCallbackEvEENS_2spIT_EES9_"
  },
  {
   "binding":"weak",
   "name":"_ZN7android8hardware7details18getServiceInternalINS0_6camera8provider4V2_418BpHwCameraProviderENS5_15ICameraProviderEvvEENS_2spIT0_EERKNSt3__112basic_stringIcNSB_11char_traitsIcEENSB_9allocatorIcEEEEbb"
  },
  {
   "binding":"weak",
   "name":"_ZN7android8hardware7details18getServiceInternalINS0_6camera8provider4V2_426BpHwCameraProviderCallbackENS5_23ICameraProviderCallbackEvvEENS_2spIT0_EERKNSt3__112basic_stringIcNSB_11char_traitsIcEENSB_9allocatorIcEEEEbb"
  },
  {
   "binding":"weak",
   "name":"_ZN7android8hardware8toBinderINS0_6camera6device4V1_013ICameraDeviceEvEENS_2spINS0_7IBinderEEENS6_IT_EE"
  },
  {
   "binding":"weak",
   "name":"_ZN7android8hardware8toBinderINS0_6camera6device4V3_213ICameraDeviceEvEENS_2spINS0_7IBinderEEENS6_IT_EE"
  },
  {
   "binding":"weak",
   "name":"_ZN7android8hardware8toBinderINS0_6camera8provider4V2_423ICameraProviderCallbackEvEENS_2spINS0_7IBinderEEENS6_IT_EE"
  },
  {
   "binding":"weak",
   "name":"_ZN7android8hardware8toBinderINS_4hidl4base4V1_05IBaseEvEENS_2spINS0_7IBinderEEENS6_IT_EE"
  },
  {
   "name":"_ZThn20_N7android8hardware6camera8provider4V2_418BnHwCameraProviderD0Ev"
  },
  {
   "name":"_ZThn20_N7android8hardware6camera8provider4V2_418BnHwCameraProviderD1Ev"
  },
  {
   "name":"_ZThn20_N7android8hardware6camera8provider4V2_426BnHwCameraProviderCallbackD0Ev"
  },
  {
   "name":"_ZThn20_N7android8hardware6camera8provider4V2_426BnHwCameraProviderCallbackD1Ev"
  },
  {
   "name":"_ZTv0_n12_N7android8hardware6camera8provider4V2_418BnHwCameraProviderD0Ev"
  },
  {
   "name":"_ZTv0_n12_N7android8hardware6camera8provider4V2_418BnHwCameraProviderD1Ev"
  },
  {
   "name":"_ZTv0_n12_N7android8hardware6camera8provider4V2_426BnHwCameraProviderCallbackD0Ev"
  },
  {
   "name":"_ZTv0_n12_N7android8hardware6camera8provider4V2_426BnHwCameraProviderCallbackD1Ev"
  }
 ],
 "elf_objects":[
  {
   "name":"_ZN7android8hardware6camera8provider4V2_415ICameraProvider10descriptorE"
  },
  {
   "name":"_ZN7android8hardware6camera8provider4V2_423ICameraProviderCallback10descriptorE"
  },
  {
   "name":"_ZTTN7android8hardware6camera8provider4V2_415ICameraProviderE"
  },
  {
   "name":"_ZTTN7android8hardware6camera8provider4V2_418BnHwCameraProviderE"
  },
  {
   "name":"_ZTTN7android8hardware6camera8provider4V2_418BpHwCameraProviderE"
  },
  {
   "name":"_ZTTN7android8hardware6camera8provider4V2_423ICameraProviderCallbackE"
  },
  {
   "name":"_ZTTN7android8hardware6camera8provider4V2_426BnHwCameraProviderCallbackE"
  },
  {
   "name":"_ZTTN7android8hardware6camera8provider4V2_426BpHwCameraProviderCallbackE"
  },
  {
   "name":"_ZTVN7android8hardware6camera8provider4V2_415ICameraProviderE"
  },
  {
   "binding":"weak",
   "name":"_ZTVN7android8hardware6camera8provider4V2_416BsCameraProviderE"
  },
  {
   "name":"_ZTVN7android8hardware6camera8provider4V2_418BnHwCameraProviderE"
  },
  {
   "name":"_ZTVN7android8hardware6camera8provider4V2_418BpHwCameraProviderE"
  },
  {
   "name":"_ZTVN7android8hardware6camera8provider4V2_423ICameraProviderCallbackE"
  },
  {
   "binding":"weak",
   "name":"_ZTVN7android8hardware6camera8provider4V2_424BsCameraProviderCallbackE"
  },
  {
   "name":"_ZTVN7android8hardware6camera8provider4V2_426BnHwCameraProviderCallbackE"
  },
  {
   "name":"_ZTVN7android8hardware6camera8provider4V2_426BpHwCameraProviderCallbackE"
  }
 ]
}