{
 "record_types":[
  {
   "vtable_components":[
    {
     "kind":"vbase_offset",
     "component_value":4
    },
    {
     "kind":"offset_to_top"
    },
    {
     "kind":"rtti",
     "mangled_component_name":"_ZTIN7android8hardware7IBinderE"
    },
    {
     "is_pure":true,
     "mangled_component_name":"_ZN7android8hardware7IBinder8transactEjRKNS0_6ParcelEPS2_jNSt3__18functionIFvRS2_EEE"
    },
    {
     "is_pure":true,
     "mangled_component_name":"_ZN7android8hardware7IBinder11linkToDeathERKNS_2spINS1_14DeathRecipientEEEPvj"
    },
    {
     "is_pure":true,
     "mangled_component_name":"_ZN7android8hardware7IBinder13unlinkToDeathERKNS_2wpINS1_14DeathRecipientEEEPvjPS4_"
    },
    {
     "mangled_component_name":"_ZNK7android8hardware7IBinder13checkSubclassEPKv"
    },
    {
     "is_pure":true,
     "mangled_component_name":"_ZN7android8hardware7IBinder12attachObjectEPKvPvS4_PFvS3_S4_S4_E"
    },
    {
     "is_pure":true,
     "mangled_component_name":"_ZNK7android8hardware7IBinder10findObjectEPKv"
    },
    {
     "is_pure":true,
     "mangled_component_name":"_ZN7android8hardware7IBinder12detachObjectEPKv"
    },
    {
     "mangled_component_name":"_ZN7android8hardware7IBinder11localBinderEv"
    },
    {
     "mangled_component_name":"_ZN7android8hardware7IBinder12remoteBinderEv"
    },
    {
     "kind":"complete_dtor_pointer",
     "mangled_component_name":"_ZN7android8hardware7IBinderD1Ev"
    },
    {
     "kind":"deleting_dtor_pointer",
     "mangled_component_name":"_ZN7android8hardware7IBinderD0Ev"
    },
    {
     "kind":"vcall_offset"
    },
    {
     "kind":"vcall_offset"
    },
    {
     "kind":"vcall_offset"
    },
    {
     "kind":"vcall_offset"
    },
    {
     "kind":"vcall_offset",
     "component_value":-4
    },
    {
     "kind":"offset_to_top",
     "component_value":-4
    },
    {
     "kind":"rtti",
     "mangled_component_name":"_ZTIN7android8hardware7IBinderE"
    },
    {
     "kind":"complete_dtor_pointer",
     "mangled_component_name":"_ZTv0_n12_N7android8hardware7IBinderD1Ev"
    },
    {
     "kind":"deleting_dtor_pointer",
     "mangled_component_name":"_ZTv0_n12_N7android8hardware7IBinderD0Ev"
    },
    {
     "mangled_component_name":"_ZN7android7RefBase10onFirstRefEv"
    },
    {
     "mangled_component_name":"_ZN7android7RefBase15onLastStrongRefEPKv"
    },
    {
     "mangled_component_name":"_ZN7android7RefBase20onIncStrongAttemptedEjPKv"
    },
    {
     "mangled_component_name":"_ZN7android7RefBase13onLastWeakRefEPKv"
    }
   ],
   "unique_id":"_ZTSN7android8hardware7IBinderE"
  },
  {
   "vtable_components":[
    {
     "kind":"vbase_offset",
     "component_value":20
    },
    {
     "kind":"offset_to_top"
    },
    {
     "kind":"rtti",
     "mangled_component_name":"_ZTIN7android8hardware9BHwBinderE"
    },
    {
     "mangled_component_name":"_ZN7android8hardware9BHwBinder8transactEjRKNS0_6ParcelEPS2_jNSt3__18functionIFvRS2_EEE"
    },
    {
     "mangled_component_name":"_ZN7android8hardware9BHwBinder11linkToDeathERKNS_2spINS0_7IBinder14DeathRecipientEEEPvj"
    },
    {
     "mangled_component_name":"_ZN7android8hardware9BHwBinder13unlinkToDeathERKNS_2wpINS0_7IBinder14DeathRecipientEEEPvjPS5_"
    },
    {
     "mangled_component_name":"_ZNK7android8hardware7IBinder13checkSubclassEPKv"
    },
    {
     "mangled_component_name":"_ZN7android8hardware9BHwBinder12attachObjectEPKvPvS4_PFvS3_S4_S4_E"
    },
    {
     "mangled_component_name":"_ZNK7android8hardware9BHwBinder10findObjectEPKv"
    },
    {
     "mangled_component_name":"_ZN7android8hardware9BHwBinder12detachObjectEPKv"
    },
    {
     "mangled_component_name":"_ZN7android8hardware9BHwBinder11localBinderEv"
    },
    {
     "mangled_component_name":"_ZN7android8hardware7IBinder12remoteBinderEv"
    },
    {
     "kind":"complete_dtor_pointer",
     "mangled_component_name":"_ZN7android8hardware9BHwBinderD1Ev"
    },
    {
     "kind":"deleting_dtor_pointer",
     "mangled_component_name":"_ZN7android8hardware9BHwBinderD0Ev"
    },
    {
     "mangled_component_name":"_ZN7android8hardware9BHwBinder10onTransactEjRKNS0_6ParcelEPS2_jNSt3__18functionIFvRS2_EEE"
    },
    {
     "kind":"vcall_offset"
    },
    {
     "kind":"vcall_offset"
    },
    {
     "kind":"vcall_offset"
    },
    {
     "kind":"vcall_offset"
    },
    {
     "kind":"vcall_offset",
     "component_value":-20
    },
    {
     "kind":"offset_to_top",
     "component_value":-20
    },
    {
     "kind":"rtti",
     "mangled_component_name":"_ZTIN7android8hardware9BHwBinderE"
    },
    {
     "kind":"complete_dtor_pointer",
     "mangled_component_name":"_ZTv0_n12_N7android8hardware9BHwBinderD1Ev"
    },
    {
     "kind":"deleting_dtor_pointer",
     "mangled_component_name":"_ZTv0_n12_N7android8hardware9BHwBinderD0Ev"
    },
    {
     "mangled_component_name":"_ZN7android7RefBase10onFirstRefEv"
    },
    {
     "mangled_component_name":"_ZN7android7RefBase15onLastStrongRefEPKv"
    },
    {
     "mangled_component_name":"_ZN7android7RefBase20onIncStrongAttemptedEjPKv"
    },
    {
     "mangled_component_name":"_ZN7android7RefBase13onLastWeakRefEPKv"
    }
   ],
   "unique_id":"_ZTSN7android8hardware9BHwBinderE"
  },
  {
   "vtable_components":[
    {
     "kind":"vbase_offset",
     "component_value":16
    },
    {
     "kind":"offset_to_top"
    },
    {
     "kind":"rtti",
     "mangled_component_name":"_ZTIN7android8hardware11BpHwRefBaseE"
    },
    {
     "kind":"complete_dtor_pointer",
     "mangled_component_name":"_ZN7android8hardware11BpHwRefBaseD1Ev"
    },
    {
     "kind":"deleting_dtor_pointer",
     "mangled_component_name":"_ZN7android8hardware11BpHwRefBaseD0Ev"
    },
    {
     "mangled_component_name":"_ZN7android8hardware11BpHwRefBase10onFirstRefEv"
    },
    {
     "mangled_component_name":"_ZN7android8hardware11BpHwRefBase15onLastStrongRefEPKv"
    },
    {
     "mangled_component_name":"_ZN7android8hardware11BpHwRefBase20onIncStrongAttemptedEjPKv"
    },
    {
     "kind":"vcall_offset"
    },
    {
     "kind":"vcall_offset",
     "component_value":-16
    },
    {
     "kind":"vcall_offset",
     "component_value":-16
    },
    {
     "kind":"vcall_offset",
     "component_value":-16
    },
    {
     "kind":"vcall_offset",
     "component_value":-16
    },
    {
     "kind":"offset_to_top",
     "component_value":-16
    },
    {
     "kind":"rtti",
     "mangled_component_name":"_ZTIN7android8hardware11BpHwRefBaseE"
    },
    {
     "kind":"complete_dtor_pointer",
     "mangled_component_name":"_ZTv0_n12_N7android8hardware11BpHwRefBaseD1Ev"
    },
    {
     "kind":"deleting_dtor_pointer",
     "mangled_component_name":"_ZTv0_n12_N7android8hardware11BpHwRefBaseD0Ev"
    },
    {
     "mangled_component_name":"_ZTv0_n16_N7android8hardware11BpHwRefBase10onFirstRefEv"
    },
    {
     "mangled_component_name":"_ZTv0_n20_N7android8hardware11BpHwRefBase15onLastStrongRefEPKv"
    },
    {
     "mangled_component_name":"_ZTv0_n24_N7android8hardware11BpHwRefBase20onIncStrongAttemptedEjPKv"
    },
    {
     "mangled_component_name":"_ZN7android7RefBase13onLastWeakRefEPKv"
    }
   ],
   "unique_id":"_ZTSN7android8hardware11BpHwRefBaseE"
  },
  {
   "vtable_components":[
    {
     "kind":"vbase_offset",
     "component_value":112
    },
    {
     "kind":"offset_to_top"
    },
    {
     "kind":"rtti",
     "mangled_component_name":"_ZTIN7android8hardware12ProcessStateE"
    },
    {
     "kind":"complete_dtor_pointer",
     "mangled_component_name":"_ZN7android8hardware12ProcessStateD1Ev"
    },
    {
     "kind":"deleting_dtor_pointer",
     "mangled_component_name":"_ZN7android8hardware12ProcessStateD0Ev"
    },
    {
     "kind":"vcall_offset"
    },
    {
     "kind":"vcall_offset"
    },
    {
     "kind":"vcall_offset"
    },
    {
     "kind":"vcall_offset"
    },
    {
     "kind":"vcall_offset",
     "component_value":-112
    },
    {
     "kind":"offset_to_top",
     "component_value":-112
    },
    {
     "kind":"rtti",
     "mangled_component_name":"_ZTIN7android8hardware12ProcessStateE"
    },
    {
     "kind":"complete_dtor_pointer",
     "mangled_component_name":"_ZTv0_n12_N7android8hardware12ProcessStateD1Ev"
    },
    {
     "kind":"deleting_dtor_pointer",
     "mangled_component_name":"_ZTv0_n12_N7android8hardware12ProcessStateD0Ev"
    },
    {
     "mangled_component_name":"_ZN7android7RefBase10onFirstRefEv"
    },
    {
     "mangled_component_name":"_ZN7android7RefBase15onLastStrongRefEPKv"
    },
    {
     "mangled_component_name":"_ZN7android7RefBase20onIncStrongAttemptedEjPKv"
    },
    {
     "mangled_component_name":"_ZN7android7RefBase13onLastWeakRefEPKv"
    }
   ],
   "unique_id":"_ZTSN7android8hardware12ProcessStateE"
  },
  {
   "vtable_components":[
    {
     "kind":"offset_to_top"
    },
    {
     "kind":"rtti",
     "mangled_component_name":"_ZTIN7android6VectorINS_8hardware12ProcessState12handle_entryEEE"
    },
    {
     "kind":"complete_dtor_pointer",
     "mangled_component_name":"_ZN7android6VectorINS_8hardware12ProcessState12handle_entryEED1Ev"
    },
    {
     "kind":"deleting_dtor_pointer",
     "mangled_component_name":"_ZN7android6VectorINS_8hardware12ProcessState12handle_entryEED0Ev"
    },
    {
     "mangled_component_name":"_ZNK7android6VectorINS_8hardware12ProcessState12handle_entryEE12do_constructEPvj"
    },
    {
     "mangled_component_name":"_ZNK7android6VectorINS_8hardware12ProcessState12handle_entryEE10do_destroyEPvj"
    },
    {
     "mangled_component_name":"_ZNK7android6VectorINS_8hardware12ProcessState12handle_entryEE7do_copyEPvPKvj"
    },
    {
     "mangled_component_name":"_ZNK7android6VectorINS_8hardware12ProcessState12handle_entryEE8do_splatEPvPKvj"
    },
    {
     "mangled_component_name":"_ZNK7android6VectorINS_8hardware12ProcessState12handle_entryEE15do_move_forwardEPvPKvj"
    },
    {
     "mangled_component_name":"_ZNK7android6VectorINS_8hardware12ProcessState12handle_entryEE16do_move_backwardEPvPKvj"
    }
   ],
   "unique_id":"_ZTSN7android6VectorINS_8hardware12ProcessState12handle_entryEEE"
  },
  {
   "vtable_components":[
    {
     "kind":"offset_to_top"
    },
    {
     "kind":"rtti",
     "mangled_component_name":"_ZTIN7android12SortedVectorINS_16key_value_pair_tINS_8String16ENS_2spINS_8hardware7IBinderEEEEEEE"
    },
    {
     "kind":"complete_dtor_pointer",
     "mangled_component_name":"_ZN7android12SortedVectorINS_16key_value_pair_tINS_8String16ENS_2spINS_8hardware7IBinderEEEEEED1Ev"
    },
    {
     "kind":"deleting_dtor_pointer",
     "mangled_component_name":"_ZN7android12SortedVectorINS_16key_value_pair_tINS_8String16ENS_2spINS_8hardware7IBinderEEEEEED0Ev"
    },
    {
     "mangled_component_name":"_ZNK7android12SortedVectorINS_16key_value_pair_tINS_8String16ENS_2spINS_8hardware7IBinderEEEEEE12do_constructEPvj"
    },
    {
     "mangled_component_name":"_ZNK7android12SortedVectorINS_16key_value_pair_tINS_8String16ENS_2spINS_8hardware7IBinderEEEEEE10do_destroyEPvj"
    },
    {
     "mangled_component_name":"_ZNK7android12SortedVectorINS_16key_value_pair_tINS_8String16ENS_2spINS_8hardware7IBinderEEEEEE7do_copyEPvPKvj"
    },
    {
     "mangled_component_name":"_ZNK7android12SortedVectorINS_16key_value_pair_tINS_8String16ENS_2spINS_8hardware7IBinderEEEEEE8do_splatEPvPKvj"
    },
    {
     "mangled_component_name":"_ZNK7android12SortedVectorINS_16key_value_pair_tINS_8String16ENS_2spINS_8hardware7IBinderEEEEEE15do_move_forwardEPvPKvj"
    },
    {
     "mangled_component_name":"_ZNK7android12SortedVectorINS_16key_value_pair_tINS_8String16ENS_2spINS_8hardware7IBinderEEEEEE16do_move_backwardEPvPKvj"
    },
    {
     "mangled_component_name":"_ZNK7android12SortedVectorINS_16key_value_pair_tINS_8String16ENS_2spINS_8hardware7IBinderEEEEEE10do_compareEPKvSA_"
    }
   ],
   "unique_id":"_ZTSN7android12SortedVectorINS_16key_value_pair_tINS_8String16ENS_2spINS_8hardware7IBinderEEEEEEE"
  },
  {
   "vtable_components":[
    {
     "kind":"offset_to_top"
    },
    {
     "kind":"rtti",
     "mangled_component_name":"_ZTIN7android8hardware10TextOutputE"
    },
    {
     "kind":"complete_dtor_pointer",
     "mangled_component_name":"_ZN7android8hardware10TextOutputD1Ev"
    },
    {
     "kind":"deleting_dtor_pointer",
     "mangled_component_name":"_ZN7android8hardware10TextOutputD0Ev"
    },
    {
     "is_pure":true,
     "mangled_component_name":"_ZN7android8hardware10TextOutput5printEPKcj"
    },
    {
     "is_pure":true,
     "mangled_component_name":"_ZN7android8hardware10TextOutput10moveIndentEi"
    },
    {
     "is_pure":true,
     "mangled_component_name":"_ZN7android8hardware10TextOutput10pushBundleEv"
    },
    {
     "is_pure":true,
     "mangled_component_name":"_ZN7android8hardware10TextOutput9popBundleEv"
    }
   ],
   "unique_id":"_ZTSN7android8hardware10TextOutputE"
  },
  {
   "vtable_components":[
    {
     "kind":"vbase_offset",
     "component_value":52
    },
    {
     "kind":"offset_to_top"
    },
    {
     "kind":"rtti",
     "mangled_component_name":"_ZTIN7android8hardware10BpHwBinderE"
    },
    {
     "mangled_component_name":"_ZN7android8hardware10BpHwBinder8transactEjRKNS0_6ParcelEPS2_jNSt3__18functionIFvRS2_EEE"
    },
    {
     "mangled_component_name":"_ZN7android8hardware10BpHwBinder11linkToDeathERKNS_2spINS0_7IBinder14DeathRecipientEEEPvj"
    },
    {
     "mangled_component_name":"_ZN7android8hardware10BpHwBinder13unlinkToDeathERKNS_2wpINS0_7IBinder14DeathRecipientEEEPvjPS5_"
    },
    {
     "mangled_component_name":"_ZNK7android8hardware7IBinder13checkSubclassEPKv"
    },
    {
     "mangled_component_name":"_ZN7android8hardware10BpHwBinder12attachObjectEPKvPvS4_PFvS3_S4_S4_E"
    },
    {
     "mangled_component_name":"_ZNK7android8hardware10BpHwBinder10findObjectEPKv"
    },
    {
     "mangled_component_name":"_ZN7android8hardware10BpHwBinder12detachObjectEPKv"
    },
    {
     "mangled_component_name":"_ZN7android8hardware7IBinder11localBinderEv"
    },
    {
     "mangled_component_name":"_ZN7android8hardware10BpHwBinder12remoteBinderEv"
    },
    {
     "kind":"complete_dtor_pointer",
     "mangled_component_name":"_ZN7android8hardware10BpHwBinderD1Ev"
    },
    {
     "kind":"deleting_dtor_pointer",
     "mangled_component_name":"_ZN7android8hardware10BpHwBinderD0Ev"
    },
    {
     "mangled_component_name":"_ZN7android8hardware10BpHwBinder10onFirstRefEv"
    },
    {
     "mangled_component_name":"_ZN7android8hardware10BpHwBinder15onLastStrongRefEPKv"
    },
    {
     "mangled_component_name":"_ZN7android8hardware10BpHwBinder20onIncStrongAttemptedEjPKv"
    },
    {
     "kind":"vcall_offset"
    },
    {
     "kind":"vcall_offset",
     "component_value":-52
    },
    {
     "kind":"vcall_offset",
     "component_value":-52
    },
    {
     "kind":"vcall_offset",
     "component_value":-52
    },
    {
     "kind":"vcall_offset",
     "component_value":-52
    },
    {
     "kind":"offset_to_top",
     "component_value":-52
    },
    {
     "kind":"rtti",
     "mangled_component_name":"_ZTIN7android8hardware10BpHwBinderE"
    },
    {
     "kind":"complete_dtor_pointer",
     "mangled_component_name":"_ZTv0_n12_N7android8hardware10BpHwBinderD1Ev"
    },
    {
     "kind":"deleting_dtor_pointer",
     "mangled_component_name":"_ZTv0_n12_N7android8hardware10BpHwBinderD0Ev"
    },
    {
     "mangled_component_name":"_ZTv0_n16_N7android8hardware10BpHwBinder10onFirstRefEv"
    },
    {
     "mangled_component_name":"_ZTv0_n20_N7android8hardware10BpHwBinder15onLastStrongRefEPKv"
    },
    {
     "mangled_component_name":"_ZTv0_n24_N7android8hardware10BpHwBinder20onIncStrongAttemptedEjPKv"
    },
    {
     "mangled_component_name":"_ZN7android7RefBase13onLastWeakRefEPKv"
    }
   ],
   "unique_id":"_ZTSN7android8hardware10BpHwBinderE"
  },
  {
   "vtable_components":[
    {
     "kind":"offset_to_top"
    },
    {
     "kind":"rtti",
     "mangled_component_name":"_ZTIN7android12SortedVectorINS_16key_value_pair_tIPKvNS_8hardware10BpHwBinder13ObjectManager7entry_tEEEEE"
    },
    {
     "kind":"complete_dtor_pointer",
     "mangled_component_name":"_ZN7android12SortedVectorINS_16key_value_pair_tIPKvNS_8hardware10BpHwBinder13ObjectManager7entry_tEEEED1Ev"
    },
    {
     "kind":"deleting_dtor_pointer",
     "mangled_component_name":"_ZN7android12SortedVectorINS_16key_value_pair_tIPKvNS_8hardware10BpHwBinder13ObjectManager7entry_tEEEED0Ev"
    },
    {
     "mangled_component_name":"_ZNK7android12SortedVectorINS_16key_value_pair_tIPKvNS_8hardware10BpHwBinder13ObjectManager7entry_tEEEE12do_constructEPvj"
    },
    {
     "mangled_component_name":"_ZNK7android12SortedVectorINS_16key_value_pair_tIPKvNS_8hardware10BpHwBinder13ObjectManager7entry_tEEEE10do_destroyEPvj"
    },
    {
     "mangled_component_name":"_ZNK7android12SortedVectorINS_16key_value_pair_tIPKvNS_8hardware10BpHwBinder13ObjectManager7entry_tEEEE7do_copyEPvS3_j"
    },
    {
     "mangled_component_name":"_ZNK7android12SortedVectorINS_16key_value_pair_tIPKvNS_8hardware10BpHwBinder13ObjectManager7entry_tEEEE8do_splatEPvS3_j"
    },
    {
     "mangled_component_name":"_ZNK7android12SortedVectorINS_16key_value_pair_tIPKvNS_8hardware10BpHwBinder13ObjectManager7entry_tEEEE15do_move_forwardEPvS3_j"
    },
    {
     "mangled_component_name":"_ZNK7android12SortedVectorINS_16key_value_pair_tIPKvNS_8hardware10BpHwBinder13ObjectManager7entry_tEEEE16do_move_backwardEPvS3_j"
    },
    {
     "mangled_component_name":"_ZNK7android12SortedVectorINS_16key_value_pair_tIPKvNS_8hardware10BpHwBinder13ObjectManager7entry_tEEEE10do_compareES3_S3_"
    }
   ],
   "unique_id":"_ZTSN7android12SortedVectorINS_16key_value_pair_tIPKvNS_8hardware10BpHwBinder13ObjectManager7entry_tEEEEE"
  },
  {
   "vtable_components":[
    {
     "kind":"vbase_offset",
     "component_value":4
    },
    {
     "kind":"offset_to_top"
    },
    {
     "kind":"rtti",
     "mangled_component_name":"_ZTIN7android8hardware10IInterfaceE"
    },
    {
     "kind":"complete_dtor_pointer",
     "mangled_component_name":"_ZN7android8hardware10IInterfaceD1Ev"
    },
    {
     "kind":"deleting_dtor_pointer",
     "mangled_component_name":"_ZN7android8hardware10IInterfaceD0Ev"
    },
    {
     "is_pure":true,
     "mangled_component_name":"_ZN7android8hardware10IInterface10onAsBinderEv"
    },
    {
     "kind":"vcall_offset"
    },
    {
     "kind":"vcall_offset"
    },
    {
     "kind":"vcall_offset"
    },
    {
     "kind":"vcall_offset"
    },
    {
     "kind":"vcall_offset",
     "component_value":-4
    },
    {
     "kind":"offset_to_top",
     "component_value":-4
    },
    {
     "kind":"rtti",
     "mangled_component_name":"_ZTIN7android8hardware10IInterfaceE"
    },
    {
     "kind":"complete_dtor_pointer",
     "mangled_component_name":"_ZTv0_n12_N7android8hardware10IInterfaceD1Ev"
    },
    {
     "kind":"deleting_dtor_pointer",
     "mangled_component_name":"_ZTv0_n12_N7android8hardware10IInterfaceD0Ev"
    },
    {
     "mangled_component_name":"_ZN7android7RefBase10onFirstRefEv"
    },
    {
     "mangled_component_name":"_ZN7android7RefBase15onLastStrongRefEPKv"
    },
    {
     "mangled_component_name":"_ZN7android7RefBase20onIncStrongAttemptedEjPKv"
    },
    {
     "mangled_component_name":"_ZN7android7RefBase13onLastWeakRefEPKv"
    }
   ],
   "unique_id":"_ZTSN7android8hardware10IInterfaceE"
  },
  {
   "vtable_components":[
    {
     "kind":"offset_to_top"
    },
    {
     "kind":"rtti",
     "mangled_component_name":"_ZTIN7android6VectorINS_8hardware10BpHwBinder8ObituaryEEE"
    },
    {
     "kind":"complete_dtor_pointer",
     "mangled_component_name":"_ZN7android6VectorINS_8hardware10BpHwBinder8ObituaryEED1Ev"
    },
    {
     "kind":"deleting_dtor_pointer",
     "mangled_component_name":"_ZN7android6VectorINS_8hardware10BpHwBinder8ObituaryEED0Ev"
    },
    {
     "mangled_component_name":"_ZNK7android6VectorINS_8hardware10BpHwBinder8ObituaryEE12do_constructEPvj"
    },
    {
     "mangled_component_name":"_ZNK7android6VectorINS_8hardware10BpHwBinder8ObituaryEE10do_destroyEPvj"
    },
    {
     "mangled_component_name":"_ZNK7android6VectorINS_8hardware10BpHwBinder8ObituaryEE7do_copyEPvPKvj"
    },
    {
     "mangled_component_name":"_ZNK7android6VectorINS_8hardware10BpHwBinder8ObituaryEE8do_splatEPvPKvj"
    },
    {
     "mangled_component_name":"_ZNK7android6VectorINS_8hardware10BpHwBinder8ObituaryEE15do_move_forwardEPvPKvj"
    },
    {
     "mangled_component_name":"_ZNK7android6VectorINS_8hardware10BpHwBinder8ObituaryEE16do_move_backwardEPvPKvj"
    }
   ],
   "unique_id":"_ZTSN7android6VectorINS_8hardware10BpHwBinder8ObituaryEEE"
  },
  {
   "vtable_components":[
    {
     "kind":"offset_to_top"
    },
    {
     "kind":"rtti",
     "mangled_component_name":"_ZTIN7android6VectorIPNS_8hardware9BHwBinderEEE"
    },
    {
     "kind":"complete_dtor_pointer",
     "mangled_component_name":"_ZN7android6VectorIPNS_8hardware9BHwBinderEED1Ev"
    },
    {
     "kind":"deleting_dtor_pointer",
     "mangled_component_name":"_ZN7android6VectorIPNS_8hardware9BHwBinderEED0Ev"
    },
    {
     "mangled_component_name":"_ZNK7android6VectorIPNS_8hardware9BHwBinderEE12do_constructEPvj"
    },
    {
     "mangled_component_name":"_ZNK7android6VectorIPNS_8hardware9BHwBinderEE10do_destroyEPvj"
    },
    {
     "mangled_component_name":"_ZNK7android6VectorIPNS_8hardware9BHwBinderEE7do_copyEPvPKvj"
    },
    {
     "mangled_component_name":"_ZNK7android6VectorIPNS_8hardware9BHwBinderEE8do_splatEPvPKvj"
    },
    {
     "mangled_component_name":"_ZNK7android6VectorIPNS_8hardware9BHwBinderEE15do_move_forwardEPvPKvj"
    },
    {
     "mangled_component_name":"_ZNK7android6VectorIPNS_8hardware9BHwBinderEE16do_move_backwardEPvPKvj"
    }
   ],
   "unique_id":"_ZTSN7android6VectorIPNS_8hardware9BHwBinderEEE"
  },
  {
   "vtable_components":[
    {
     "kind":"offset_to_top"
    },
    {
     "kind":"rtti",
     "mangled_component_name":"_ZTIN7android6VectorIPNS_7RefBase12weakref_typeEEE"
    },
    {
     "kind":"complete_dtor_pointer",
     "mangled_component_name":"_ZN7android6VectorIPNS_7RefBase12weakref_typeEED1Ev"
    },
    {
     "kind":"deleting_dtor_pointer",
     "mangled_component_name":"_ZN7android6VectorIPNS_7RefBase12weakref_typeEED0Ev"
    },
    {
     "mangled_component_name":"_ZNK7android6VectorIPNS_7RefBase12weakref_typeEE12do_constructEPvj"
    },
    {
     "mangled_component_name":"_ZNK7android6VectorIPNS_7RefBase12weakref_typeEE10do_destroyEPvj"
    },
    {
     "mangled_component_name":"_ZNK7android6VectorIPNS_7RefBase12weakref_typeEE7do_copyEPvPKvj"
    },
    {
     "mangled_component_name":"_ZNK7android6VectorIPNS_7RefBase12weakref_typeEE8do_splatEPvPKvj"
    },
    {
     "mangled_component_name":"_ZNK7android6VectorIPNS_7RefBase12weakref_typeEE15do_move_forwardEPvPKvj"
    },
    {
     "mangled_component_name":"_ZNK7android6VectorIPNS_7RefBase12weakref_typeEE16do_move_backwardEPvPKvj"
    }
   ],
   "unique_id":"_ZTSN7android6VectorIPNS_7RefBase12weakref_typeEEE"
  },
  {
   "vtable_components":[
    {
     "kind":"offset_to_top"
    },
    {
     "kind":"rtti",
     "mangled_component_name":"_ZTIN7android6VectorIPNS_7RefBaseEEE"
    },
    {
     "kind":"complete_dtor_pointer",
     "mangled_component_name":"_ZN7android6VectorIPNS_7RefBaseEED1Ev"
    },
    {
     "kind":"deleting_dtor_pointer",
     "mangled_component_name":"_ZN7android6VectorIPNS_7RefBaseEED0Ev"
    },
    {
     "mangled_component_name":"_ZNK7android6VectorIPNS_7RefBaseEE12do_constructEPvj"
    },
    {
     "mangled_component_name":"_ZNK7android6VectorIPNS_7RefBaseEE10do_destroyEPvj"
    },
    {
     "mangled_component_name":"_ZNK7android6VectorIPNS_7RefBaseEE7do_copyEPvPKvj"
    },
    {
     "mangled_component_name":"_ZNK7android6VectorIPNS_7RefBaseEE8do_splatEPvPKvj"
    },
    {
     "mangled_component_name":"_ZNK7android6VectorIPNS_7RefBaseEE15do_move_forwardEPvPKvj"
    },
    {
     "mangled_component_name":"_ZNK7android6VectorIPNS_7RefBaseEE16do_move_backwardEPvPKvj"
    }
   ],
   "unique_id":"_ZTSN7android6VectorIPNS_7RefBaseEEE"
  },
  {
   "vtable_components":[
    {
     "kind":"offset_to_top"
    },
    {
     "kind":"rtti",
     "mangled_component_name":"_ZTIN7android8hardware18BufferedTextOutputE"
    },
    {
     "kind":"complete_dtor_pointer",
     "mangled_component_name":"_ZN7android8hardware18BufferedTextOutputD1Ev"
    },
    {
     "kind":"deleting_dtor_pointer",
     "mangled_component_name":"_ZN7android8hardware18BufferedTextOutputD0Ev"
    },
    {
     "mangled_component_name":"_ZN7android8hardware18BufferedTextOutput5printEPKcj"
    },
    {
     "mangled_component_name":"_ZN7android8hardware18BufferedTextOutput10moveIndentEi"
    },
    {
     "mangled_component_name":"_ZN7android8hardware18BufferedTextOutput10pushBundleEv"
    },
    {
     "mangled_component_name":"_ZN7android8hardware18BufferedTextOutput9popBundleEv"
    },
    {
     "is_pure":true,
     "mangled_component_name":"_ZN7android8hardware18BufferedTextOutput10writeLinesERK5iovecj"
    }
   ],
   "unique_id":"_ZTSN7android8hardware18BufferedTextOutputE"
  },
  {
   "vtable_components":[
    {
     "kind":"offset_to_top"
    },
    {
     "kind":"rtti",
     "mangled_component_name":"_ZTIN7android6VectorIiEE"
    },
    {
     "kind":"complete_dtor_pointer",
     "mangled_component_name":"_ZN7android6VectorIiED1Ev"
    },
    {
     "kind":"deleting_dtor_pointer",
     "mangled_component_name":"_ZN7android6VectorIiED0Ev"
    },
    {
     "mangled_component_name":"_ZNK7android6VectorIiE12do_constructEPvj"
    },
    {
     "mangled_component_name":"_ZNK7android6VectorIiE10do_destroyEPvj"
    },
    {
     "mangled_component_name":"_ZNK7android6VectorIiE7do_copyEPvPKvj"
    },
    {
     "mangled_component_name":"_ZNK7android6VectorIiE8do_splatEPvPKvj"
    },
    {
     "mangled_component_name":"_ZNK7android6VectorIiE15do_move_forwardEPvPKvj"
    },
    {
     "mangled_component_name":"_ZNK7android6VectorIiE16do_move_backwardEPvPKvj"
    }
   ],
   "unique_id":"_ZTSN7android6VectorIiEE"
  },
  {
   "vtable_components":[
    {
     "kind":"offset_to_top"
    },
    {
     "kind":"rtti",
     "mangled_component_name":"_ZTIN7android6VectorINS_2spINS_8hardware18BufferedTextOutput11BufferStateEEEEE"
    },
    {
     "kind":"complete_dtor_pointer",
     "mangled_component_name":"_ZN7android6VectorINS_2spINS_8hardware18BufferedTextOutput11BufferStateEEEED1Ev"
    },
    {
     "kind":"deleting_dtor_pointer",
     "mangled_component_name":"_ZN7android6VectorINS_2spINS_8hardware18BufferedTextOutput11BufferStateEEEED0Ev"
    },
    {
     "mangled_component_name":"_ZNK7android6VectorINS_2spINS_8hardware18BufferedTextOutput11BufferStateEEEE12do_constructEPvj"
    },
    {
     "mangled_component_name":"_ZNK7android6VectorINS_2spINS_8hardware18BufferedTextOutput11BufferStateEEEE10do_destroyEPvj"
    },
    {
     "mangled_component_name":"_ZNK7android6VectorINS_2spINS_8hardware18BufferedTextOutput11BufferStateEEEE7do_copyEPvPKvj"
    },
    {
     "mangled_component_name":"_ZNK7android6VectorINS_2spINS_8hardware18BufferedTextOutput11BufferStateEEEE8do_splatEPvPKvj"
    },
    {
     "mangled_component_name":"_ZNK7android6VectorINS_2spINS_8hardware18BufferedTextOutput11BufferStateEEEE15do_move_forwardEPvPKvj"
    },
    {
     "mangled_component_name":"_ZNK7android6VectorINS_2spINS_8hardware18BufferedTextOutput11BufferStateEEEE16do_move_backwardEPvPKvj"
    }
   ],
   "unique_id":"_ZTSN7android6VectorINS_2spINS_8hardware18BufferedTextOutput11BufferStateEEEEE"
  }
 ],
 "elf_functions":[
  {
   "binding":"weak",
   "name":"_ZN7android2spINS_8hardware12ProcessStateEED2Ev"
  },
  {
   "name":"_ZN7android8hardware10BpHwBinder10onFirstRefEv"
  },
  {
   "name":"_ZN7android8hardware10BpHwBinder11linkToDeathERKNS_2spINS0_7IBinder14DeathRecipientEEEPvj"
  },
  {
   "name":"_ZN7android8hardware10BpHwBinder12attachObjectEPKvPvS4_PFvS3_S4_S4_E"
  },
  {
   "name":"_ZN7android8hardware10BpHwBinder12detachObjectEPKv"
  },
  {
   "name":"_ZN7android8hardware10BpHwBinder12remoteBinderEv"
  },
  {
   "name":"_ZN7android8hardware10BpHwBinder12sendObituaryEv"
  },
  {
   "name":"_ZN7android8hardware10BpHwBinder13ObjectManager4killEv"
  },
  {
   "name":"_ZN7android8hardware10BpHwBinder13ObjectManager6attachEPKvPvS5_PFvS4_S5_S5_E"
  },
  {
   "name":"_ZN7android8hardware10BpHwBinder13ObjectManager6detachEPKv"
  },
  {
   "name":"_ZN7android8hardware10BpHwBinder13ObjectManagerC1Ev"
  },
  {
   "name":"_ZN7android8hardware10BpHwBinder13ObjectManagerC2Ev"
  },
  {
   "name":"_ZN7android8hardware10BpHwBinder13ObjectManagerD1Ev"
  },
  {
   "name":"_ZN7android8hardware10BpHwBinder13ObjectManagerD2Ev"
  },
  {
   "name":"_ZN7android8hardware10BpHwBinder13unlinkToDeathERKNS_2wpINS0_7IBinder14DeathRecipientEEEPvjPS5_"
  },
  {
   "name":"_ZN7android8hardware10BpHwBinder14reportOneDeathERKNS1_8ObituaryE"
  },
  {
   "name":"_ZN7android8hardware10BpHwBinder15onLastStrongRefEPKv"
  },
  {
   "name":"_ZN7android8hardware10BpHwBinder20onIncStrongAttemptedEjPKv"
  },
  {
   "name":"_ZN7android8hardware10BpHwBinder8transactEjRKNS0_6ParcelEPS2_jNSt3__18functionIFvRS2_EEE"
  },
  {
   "name":"_ZN7android8hardware10BpHwBinderC1Ei"
  },
  {
   "name":"_ZN7android8hardware10BpHwBinderC2Ei"
  },
  {
   "name":"_ZN7android8hardware10BpHwBinderD0Ev"
  },
  {
   "name":"_ZN7android8hardware10BpHwBinderD1Ev"
  },
  {
   "name":"_ZN7android8hardware10BpHwBinderD2Ev"
  },
  {
   "name":"_ZN7android8hardware10IInterface8asBinderEPKS1_"
  },
  {
   "name":"_ZN7android8hardware10IInterface8asBinderERKNS_2spIS1_EE"
  },
  {
   "name":"_ZN7android8hardware10IInterfaceC2Ev"
  },
  {
   "name":"_ZN7android8hardware10IInterfaceD0Ev"
  },
  {
   "name":"_ZN7android8hardware10IInterfaceD1Ev"
  },
  {
   "name":"_ZN7android8hardware10IInterfaceD2Ev"
  },
  {
   "name":"_ZN7android8hardware10TextOutputC2Ev"
  },
  {
   "name":"_ZN7android8hardware10TextOutputD0Ev"
  },
  {
   "name":"_ZN7android8hardware10TextOutputD1Ev"
  },
  {
   "name":"_ZN7android8hardware10TextOutputD2Ev"
  },
  {
   "name":"_ZN7android8hardware11BpHwRefBase10onFirstRefEv"
  },
  {
   "name":"_ZN7android8hardware11BpHwRefBase15onLastStrongRefEPKv"
  },
  {
   "name":"_ZN7android8hardware11BpHwRefBase20onIncStrongAttemptedEjPKv"
  },
  {
   "name":"_ZN7android8hardware11BpHwRefBaseC1ERKNS_2spINS0_7IBinderEEE"
  },
  {
   "name":"_ZN7android8hardware11BpHwRefBaseC2ERKNS_2spINS0_7IBinderEEE"
  },
  {
   "name":"_ZN7android8hardware11BpHwRefBaseD0Ev"
  },
  {
   "name":"_ZN7android8hardware11BpHwRefBaseD1Ev"
  },
  {
   "name":"_ZN7android8hardware11BpHwRefBaseD2Ev"
  },
  {
   "name":"_ZN7android8hardware12ProcessState10selfOrNullEv"
  },
  {
   "name":"_ZN7android8hardware12ProcessState11getMmapSizeEv"
  },
  {
   "name":"_ZN7android8hardware12ProcessState13expungeHandleEiPNS0_7IBinderE"
  },
  {
   "name":"_ZN7android8hardware12ProcessState13getMaxThreadsEv"
  },
  {
   "name":"_ZN7android8hardware12ProcessState15startThreadPoolEv"
  },
  {
   "name":"_ZN7android8hardware12ProcessState16getContextObjectERKNS_2spINS0_7IBinderEEE"
  },
  {
   "name":"_ZN7android8hardware12ProcessState16getContextObjectERKNS_8String16ERKNS_2spINS0_7IBinderEEE"
  },
  {
   "name":"_ZN7android8hardware12ProcessState16initWithMmapSizeEj"
  },
  {
   "name":"_ZN7android8hardware12ProcessState16setContextObjectERKNS_2spINS0_7IBinderEEE"
  },
  {
   "name":"_ZN7android8hardware12ProcessState16setContextObjectERKNS_2spINS0_7IBinderEEERKNS_8String16E"
  },
  {
   "name":"_ZN7android8hardware12ProcessState17spawnPooledThreadEb"
  },
  {
   "name":"_ZN7android8hardware12ProcessState18giveThreadPoolNameEv"
  },
  {
   "name":"_ZN7android8hardware12ProcessState18lookupHandleLockedEi"
  },
  {
   "name":"_ZN7android8hardware12ProcessState19getKernelReferencesEjPj"
  },
  {
   "name":"_ZN7android8hardware12ProcessState20becomeContextManagerEPFbRKNS_8String16ERKNS_2spINS0_7IBinderEEEPvESA_"
  },
  {
   "name":"_ZN7android8hardware12ProcessState20makeBinderThreadNameEv"
  },
  {
   "name":"_ZN7android8hardware12ProcessState21getWeakProxyForHandleEi"
  },
  {
   "name":"_ZN7android8hardware12ProcessState23getStrongProxyForHandleEi"
  },
  {
   "name":"_ZN7android8hardware12ProcessState26setThreadPoolConfigurationEjb"
  },
  {
   "name":"_ZN7android8hardware12ProcessState4selfEv"
  },
  {
   "name":"_ZN7android8hardware12ProcessStateC1Ej"
  },
  {
   "name":"_ZN7android8hardware12ProcessStateC2Ej"
  },
  {
   "name":"_ZN7android8hardware12ProcessStateD0Ev"
  },
  {
   "name":"_ZN7android8hardware12ProcessStateD1Ev"
  },
  {
   "name":"_ZN7android8hardware12ProcessStateD2Ev"
  },
  {
   "name":"_ZN7android8hardware14IPCThreadState10freeBufferEPNS0_6ParcelEPKhjPKjjPv"
  },
  {
   "name":"_ZN7android8hardware14IPCThreadState10selfOrNullEv"
  },
  {
   "name":"_ZN7android8hardware14IPCThreadState11clearCallerEv"
  },
  {
   "name":"_ZN7android8hardware14IPCThreadState11stopProcessEb"
  },
  {
   "name":"_ZN7android8hardware14IPCThreadState12setupPollingEPi"
  },
  {
   "name":"_ZN7android8hardware14IPCThreadState13decWeakHandleEi"
  },
  {
   "name":"_ZN7android8hardware14IPCThreadState13expungeHandleEiPNS0_7IBinderE"
  },
  {
   "name":"_ZN7android8hardware14IPCThreadState13flushCommandsEv"
  },
  {
   "name":"_ZN7android8hardware14IPCThreadState13incWeakHandleEiPNS0_10BpHwBinderE"
  },
  {
   "name":"_ZN7android8hardware14IPCThreadState14clearLastErrorEv"
  },
  {
   "name":"_ZN7android8hardware14IPCThreadState14executeCommandEi"
  },
  {
   "name":"_ZN7android8hardware14IPCThreadState14isLooperThreadEv"
  },
  {
   "name":"_ZN7android8hardware14IPCThreadState14joinThreadPoolEb"
  },
  {
   "name":"_ZN7android8hardware14IPCThreadState14talkWithDriverEb"
  },
  {
   "name":"_ZN7android8hardware14IPCThreadState15decStrongHandleEi"
  },
  {
   "name":"_ZN7android8hardware14IPCThreadState15incStrongHandleEiPNS0_10BpHwBinderE"
  },
  {
   "name":"_ZN7android8hardware14IPCThreadState15waitForResponseEPNS0_6ParcelEPi"
  },
  {
   "name":"_ZN7android8hardware14IPCThreadState16threadDestructorEPv"
  },
  {
   "name":"_ZN7android8hardware14IPCThreadState18isOnlyBinderThreadEv"
  },
  {
   "name":"_ZN7android8hardware14IPCThreadState19setStrictModePolicyEi"
  },
  {
   "name":"_ZN7android8hardware14IPCThreadState19setTheContextObjectENS_2spINS0_9BHwBinderEEE"
  },
  {
   "name":"_ZN7android8hardware14IPCThreadState20clearCallingIdentityEv"
  },
  {
   "name":"_ZN7android8hardware14IPCThreadState20getAndExecuteCommandEv"
  },
  {
   "name":"_ZN7android8hardware14IPCThreadState20handlePolledCommandsEv"
  },
  {
   "name":"_ZN7android8hardware14IPCThreadState20processPendingDerefsEv"
  },
  {
   "name":"_ZN7android8hardware14IPCThreadState20writeTransactionDataEijijRKNS0_6ParcelEPi"
  },
  {
   "name":"_ZN7android8hardware14IPCThreadState22attemptIncStrongHandleEi"
  },
  {
   "name":"_ZN7android8hardware14IPCThreadState22clearDeathNotificationEiPNS0_10BpHwBinderE"
  },
  {
   "name":"_ZN7android8hardware14IPCThreadState22processPostWriteDerefsEv"
  },
  {
   "name":"_ZN7android8hardware14IPCThreadState22restoreCallingIdentityEx"
  },
  {
   "name":"_ZN7android8hardware14IPCThreadState24requestDeathNotificationEiPNS0_10BpHwBinderE"
  },
  {
   "name":"_ZN7android8hardware14IPCThreadState25blockUntilThreadAvailableEv"
  },
  {
   "name":"_ZN7android8hardware14IPCThreadState27disableBackgroundSchedulingEb"
  },
  {
   "name":"_ZN7android8hardware14IPCThreadState29setLastTransactionBinderFlagsEi"
  },
  {
   "name":"_ZN7android8hardware14IPCThreadState4selfEv"
  },
  {
   "name":"_ZN7android8hardware14IPCThreadState7processEv"
  },
  {
   "name":"_ZN7android8hardware14IPCThreadState8shutdownEv"
  },
  {
   "name":"_ZN7android8hardware14IPCThreadState8transactEijRKNS0_6ParcelEPS2_j"
  },
  {
   "name":"_ZN7android8hardware14IPCThreadState9sendReplyERKNS0_6ParcelEj"
  },
  {
   "name":"_ZN7android8hardware14IPCThreadStateC1Ev"
  },
  {
   "name":"_ZN7android8hardware14IPCThreadStateC2Ev"
  },
  {
   "name":"_ZN7android8hardware14IPCThreadStateD1Ev"
  },
  {
   "name":"_ZN7android8hardware14IPCThreadStateD2Ev"
  },
  {
   "name":"_ZN7android8hardware14release_objectERKNS_2spINS0_12ProcessStateEEERK18flat_binder_objectPKv"
  },
  {
   "name":"_ZN7android8hardware18BufferedTextOutput10moveIndentEi"
  },
  {
   "name":"_ZN7android8hardware18BufferedTextOutput10pushBundleEv"
  },
  {
   "name":"_ZN7android8hardware18BufferedTextOutput14getThreadStateEv"
  },
  {
   "name":"_ZN7android8hardware18BufferedTextOutput16threadDestructorEPv"
  },
  {
   "name":"_ZN7android8hardware18BufferedTextOutput5printEPKcj"
  },
  {
   "name":"_ZN7android8hardware18BufferedTextOutput9popBundleEv"
  },
  {
   "name":"_ZN7android8hardware18BufferedTextOutputC2Ej"
  },
  {
   "name":"_ZN7android8hardware18BufferedTextOutputD0Ev"
  },
  {
   "name":"_ZN7android8hardware18BufferedTextOutputD1Ev"
  },
  {
   "name":"_ZN7android8hardware18BufferedTextOutputD2Ev"
  },
  {
   "name":"_ZN7android8hardware6Parcel10writeFloatEf"
  },
  {
   "name":"_ZN7android8hardware6Parcel10writeInt16Es"
  },
  {
   "name":"_ZN7android8hardware6Parcel10writeInt32Ei"
  },
  {
   "name":"_ZN7android8hardware6Parcel10writeInt64Ex"
  },
  {
   "name":"_ZN7android8hardware6Parcel10writeUint8Eh"
  },
  {
   "name":"_ZN7android8hardware6Parcel11finishWriteEj"
  },
  {
   "name":"_ZN7android8hardware6Parcel11setDataSizeEj"
  },
  {
   "name":"_ZN7android8hardware6Parcel11writeBufferEPKvjPj"
  },
  {
   "name":"_ZN7android8hardware6Parcel11writeDoubleEd"
  },
  {
   "binding":"weak",
   "name":"_ZN7android8hardware6Parcel11writeObjectI18flat_binder_objectEEiRKT_"
  },
  {
   "name":"_ZN7android8hardware6Parcel11writeUint16Et"
  },
  {
   "name":"_ZN7android8hardware6Parcel11writeUint32Ej"
  },
  {
   "name":"_ZN7android8hardware6Parcel11writeUint64Ey"
  },
  {
   "name":"_ZN7android8hardware6Parcel12restartWriteEj"
  },
  {
   "binding":"weak",
   "name":"_ZN7android8hardware6Parcel12writeAlignedIdEEiT_"
  },
  {
   "binding":"weak",
   "name":"_ZN7android8hardware6Parcel12writeAlignedIfEEiT_"
  },
  {
   "binding":"weak",
   "name":"_ZN7android8hardware6Parcel12writeAlignedIiEEiT_"
  },
  {
   "binding":"weak",
   "name":"_ZN7android8hardware6Parcel12writeAlignedIjEEiT_"
  },
  {
   "binding":"weak",
   "name":"_ZN7android8hardware6Parcel12writeAlignedIxEEiT_"
  },
  {
   "binding":"weak",
   "name":"_ZN7android8hardware6Parcel12writeAlignedIyEEiT_"
  },
  {
   "name":"_ZN7android8hardware6Parcel12writeCStringEPKc"
  },
  {
   "name":"_ZN7android8hardware6Parcel12writeInplaceEj"
  },
  {
   "name":"_ZN7android8hardware6Parcel12writePointerEj"
  },
  {
   "name":"_ZN7android8hardware6Parcel13continueWriteEj"
  },
  {
   "name":"_ZN7android8hardware6Parcel13writeString16EPKDsj"
  },
  {
   "name":"_ZN7android8hardware6Parcel13writeString16ERKNS_8String16E"
  },
  {
   "name":"_ZN7android8hardware6Parcel13writeString16ERKNSt3__110unique_ptrINS_8String16ENS2_14default_deleteIS4_EEEE"
  },
  {
   "name":"_ZN7android8hardware6Parcel13writeUnpaddedEPKvj"
  },
  {
   "name":"_ZN7android8hardware6Parcel14acquireObjectsEv"
  },
  {
   "name":"_ZN7android8hardware6Parcel14freeDataNoInitEv"
  },
  {
   "name":"_ZN7android8hardware6Parcel14releaseObjectsEv"
  },
  {
   "name":"_ZN7android8hardware6Parcel14writeReferenceEPjjj"
  },
  {
   "name":"_ZN7android8hardware6Parcel15setDataCapacityEj"
  },
  {
   "name":"_ZN7android8hardware6Parcel15writeWeakBinderERKNS_2wpINS0_7IBinderEEE"
  },
  {
   "name":"_ZN7android8hardware6Parcel17writeStrongBinderERKNS_2spINS0_7IBinderEEE"
  },
  {
   "name":"_ZN7android8hardware6Parcel18getGlobalAllocSizeEv"
  },
  {
   "name":"_ZN7android8hardware6Parcel18writeNullReferenceEPj"
  },
  {
   "name":"_ZN7android8hardware6Parcel19getGlobalAllocCountEv"
  },
  {
   "name":"_ZN7android8hardware6Parcel19ipcSetDataReferenceEPKhjPKjjPFvPS1_S3_jS5_jPvES7_"
  },
  {
   "name":"_ZN7android8hardware6Parcel19writeEmbeddedBufferEPKvjPjjj"
  },
  {
   "name":"_ZN7android8hardware6Parcel19writeInterfaceTokenEPKc"
  },
  {
   "name":"_ZN7android8hardware6Parcel20closeFileDescriptorsEv"
  },
  {
   "name":"_ZN7android8hardware6Parcel22incrementNumReferencesEv"
  },
  {
   "name":"_ZN7android8hardware6Parcel22writeEmbeddedReferenceEPjjjjj"
  },
  {
   "name":"_ZN7android8hardware6Parcel22writeNativeHandleNoDupEPK13native_handle"
  },
  {
   "name":"_ZN7android8hardware6Parcel22writeNativeHandleNoDupEPK13native_handlebjj"
  },
  {
   "name":"_ZN7android8hardware6Parcel25writeEmbeddedNativeHandleEPK13native_handlejj"
  },
  {
   "name":"_ZN7android8hardware6Parcel26writeEmbeddedNullReferenceEPjjj"
  },
  {
   "name":"_ZN7android8hardware6Parcel5writeEPKvj"
  },
  {
   "name":"_ZN7android8hardware6Parcel6removeEjj"
  },
  {
   "name":"_ZN7android8hardware6Parcel7setDataEPKhj"
  },
  {
   "name":"_ZN7android8hardware6Parcel8freeDataEv"
  },
  {
   "name":"_ZN7android8hardware6Parcel8growDataEj"
  },
  {
   "name":"_ZN7android8hardware6Parcel8setErrorEi"
  },
  {
   "name":"_ZN7android8hardware6Parcel9initStateEv"
  },
  {
   "name":"_ZN7android8hardware6Parcel9writeBoolEb"
  },
  {
   "name":"_ZN7android8hardware6Parcel9writeInt8Ea"
  },
  {
   "name":"_ZN7android8hardware6ParcelC1Ev"
  },
  {
   "name":"_ZN7android8hardware6ParcelC2Ev"
  },
  {
   "name":"_ZN7android8hardware6ParcelD1Ev"
  },
  {
   "name":"_ZN7android8hardware6ParcelD2Ev"
  },
  {
   "name":"_ZN7android8hardware7HexDumpC1EPKvjj"
  },
  {
   "name":"_ZN7android8hardware7HexDumpC2EPKvjj"
  },
  {
   "name":"_ZN7android8hardware7IBinder11localBinderEv"
  },
  {
   "name":"_ZN7android8hardware7IBinder12remoteBinderEv"
  },
  {
   "name":"_ZN7android8hardware7IBinderC2Ev"
  },
  {
   "name":"_ZN7android8hardware7IBinderD0Ev"
  },
  {
   "name":"_ZN7android8hardware7IBinderD1Ev"
  },
  {
   "name":"_ZN7android8hardware7IBinderD2Ev"
  },
  {
   "name":"_ZN7android8hardware9BHwBinder10onTransactEjRKNS0_6ParcelEPS2_jNSt3__18functionIFvRS2_EEE"
  },
  {
   "name":"_ZN7android8hardware9BHwBinder11linkToDeathERKNS_2spINS0_7IBinder14DeathRecipientEEEPvj"
  },
  {
   "name":"_ZN7android8hardware9BHwBinder11localBinderEv"
  },
  {
   "name":"_ZN7android8hardware9BHwBinder12attachObjectEPKvPvS4_PFvS3_S4_S4_E"
  },
  {
   "name":"_ZN7android8hardware9BHwBinder12detachObjectEPKv"
  },
  {
   "name":"_ZN7android8hardware9BHwBinder13unlinkToDeathERKNS_2wpINS0_7IBinder14DeathRecipientEEEPvjPS5_"
  },
  {
   "name":"_ZN7android8hardware9BHwBinder15isRequestingSidEv"
  },
  {
   "name":"_ZN7android8hardware9BHwBinder16setRequestingSidEb"
  },
  {
   "name":"_ZN7android8hardware9BHwBinder17getOrCreateExtrasEv"
  },
  {
   "name":"_ZN7android8hardware9BHwBinder22getMinSchedulingPolicyEv"
  },
  {
   "name":"_ZN7android8hardware9BHwBinder24getMinSchedulingPriorityEv"
  },
  {
   "name":"_ZN7android8hardware9BHwBinder8transactEjRKNS0_6ParcelEPS2_jNSt3__18functionIFvRS2_EEE"
  },
  {
   "name":"_ZN7android8hardware9BHwBinderC1Ev"
  },
  {
   "name":"_ZN7android8hardware9BHwBinderC2Ev"
  },
  {
   "name":"_ZN7android8hardware9BHwBinderD0Ev"
  },
  {
   "name":"_ZN7android8hardware9BHwBinderD1Ev"
  },
  {
   "name":"_ZN7android8hardware9BHwBinderD2Ev"
  },
  {
   "name":"_ZN7android8hardwarelsERNS0_10TextOutputERKNS0_7HexDumpE"
  },
  {
   "name":"_ZN7android8hardwarelsERNS0_10TextOutputERKNS0_8TypeCodeE"
  },
  {
   "binding":"weak",
   "name":"_ZN7android8hardwarelsIA15_cEERNS0_10TextOutputES4_RKT_"
  },
  {
   "binding":"weak",
   "name":"_ZN7android8hardwarelsIA2_cEERNS0_10TextOutputES4_RKT_"
  },
  {
   "binding":"weak",
   "name":"_ZN7android8hardwarelsIA3_cEERNS0_10TextOutputES4_RKT_"
  },
  {
   "binding":"weak",
   "name":"_ZN7android8hardwarelsIA4_cEERNS0_10TextOutputES4_RKT_"
  },
  {
   "binding":"weak",
   "name":"_ZN7android8hardwarelsIA5_cEERNS0_10TextOutputES4_RKT_"
  },
  {
   "binding":"weak",
   "name":"_ZN7android8hardwarelsIA8_cEERNS0_10TextOutputES4_RKT_"
  },
  {
   "binding":"weak",
   "name":"_ZN7android8hardwarelsIA9_cEERNS0_10TextOutputES4_RKT_"
  },
  {
   "binding":"weak",
   "name":"_ZN7android8hardwarelsIPcEERNS0_10TextOutputES4_RKT_"
  },
  {
   "binding":"weak",
   "name":"_ZN7android8hardwarelsIPvEERNS0_10TextOutputES4_RKT_"
  },
  {
   "binding":"weak",
   "name":"_ZN7android8hardwarelsIjEERNS0_10TextOutputES3_RKT_"
  },
  {
   "binding":"weak",
   "name":"_ZNK7android12SortedVectorINS_16key_value_pair_tINS_8String16ENS_2spINS_8hardware7IBinderEEEEEE10do_compareEPKvSA_"
  },
  {
   "binding":"weak",
   "name":"_ZNK7android12SortedVectorINS_16key_value_pair_tINS_8String16ENS_2spINS_8hardware7IBinderEEEEEE10do_destroyEPvj"
  },
  {
   "binding":"weak",
   "name":"_ZNK7android12SortedVectorINS_16key_value_pair_tINS_8String16ENS_2spINS_8hardware7IBinderEEEEEE12do_constructEPvj"
  },
  {
   "binding":"weak",
   "name":"_ZNK7android12SortedVectorINS_16key_value_pair_tINS_8String16ENS_2spINS_8hardware7IBinderEEEEEE15do_move_forwardEPvPKvj"
  },
  {
   "binding":"weak",
   "name":"_ZNK7android12SortedVectorINS_16key_value_pair_tINS_8String16ENS_2spINS_8hardware7IBinderEEEEEE16do_move_backwardEPvPKvj"
  },
  {
   "binding":"weak",
   "name":"_ZNK7android12SortedVectorINS_16key_value_pair_tINS_8String16ENS_2spINS_8hardware7IBinderEEEEEE7do_copyEPvPKvj"
  },
  {
   "binding":"weak",
   "name":"_ZNK7android12SortedVectorINS_16key_value_pair_tINS_8String16ENS_2spINS_8hardware7IBinderEEEEEE8do_splatEPvPKvj"
  },
  {
   "binding":"weak",
   "name":"_ZNK7android12SortedVectorINS_16key_value_pair_tIPKvNS_8hardware10BpHwBinder13ObjectManager7entry_tEEEE10do_compareES3_S3_"
  },
  {
   "binding":"weak",
   "name":"_ZNK7android12SortedVectorINS_16key_value_pair_tIPKvNS_8hardware10BpHwBinder13ObjectManager7entry_tEEEE10do_destroyEPvj"
  },
  {
   "binding":"weak",
   "name":"_ZNK7android12SortedVectorINS_16key_value_pair_tIPKvNS_8hardware10BpHwBinder13ObjectManager7entry_tEEEE12do_constructEPvj"
  },
  {
   "binding":"weak",
   "name":"_ZNK7android12SortedVectorINS_16key_value_pair_tIPKvNS_8hardware10BpHwBinder13ObjectManager7entry_tEEEE15do_move_forwardEPvS3_j"
  },
  {
   "binding":"weak",
   "name":"_ZNK7android12SortedVectorINS_16key_value_pair_tIPKvNS_8hardware10BpHwBinder13ObjectManager7entry_tEEEE16do_move_backwardEPvS3_j"
  },
  {
   "binding":"weak",
   "name":"_ZNK7android12SortedVectorINS_16key_value_pair_tIPKvNS_8hardware10BpHwBinder13ObjectManager7entry_tEEEE7do_copyEPvS3_j"
  },
  {
   "binding":"weak",
   "name":"_ZNK7android12SortedVectorINS_16key_value_pair_tIPKvNS_8hardware10BpHwBinder13ObjectManager7entry_tEEEE8do_splatEPvS3_j"
  },
  {
   "binding":"weak",
   "name":"_ZNK7android6VectorINS_2spINS_8hardware18BufferedTextOutput11BufferStateEEEE10do_destroyEPvj"
  },
  {
   "binding":"weak",
   "name":"_ZNK7android6VectorINS_2spINS_8hardware18BufferedTextOutput11BufferStateEEEE12do_constructEPvj"
  },
  {
   "binding":"weak",
   "name":"_ZNK7android6VectorINS_2spINS_8hardware18BufferedTextOutput11BufferStateEEEE15do_move_forwardEPvPKvj"
  },
  {
   "binding":"weak",
   "name":"_ZNK7android6VectorINS_2spINS_8hardware18BufferedTextOutput11BufferStateEEEE16do_move_backwardEPvPKvj"
  },
  {
   "binding":"weak",
   "name":"_ZNK7android6VectorINS_2spINS_8hardware18BufferedTextOutput11BufferStateEEEE7do_copyEPvPKvj"
  },
  {
   "binding":"weak",
   "name":"_ZNK7android6VectorINS_2spINS_8hardware18BufferedTextOutput11BufferStateEEEE8do_splatEPvPKvj"
  },
  {
   "binding":"weak",
   "name":"_ZNK7android6VectorINS_8hardware10BpHwBinder8ObituaryEE10do_destroyEPvj"
  },
  {
   "binding":"weak",
   "name":"_ZNK7android6VectorINS_8hardware10BpHwBinder8ObituaryEE12do_constructEPvj"
  },
  {
   "binding":"weak",
   "name":"_ZNK7android6VectorINS_8hardware10BpHwBinder8ObituaryEE15do_move_forwardEPvPKvj"
  },
  {
   "binding":"weak",
   "name":"_ZNK7android6VectorINS_8hardware10BpHwBinder8ObituaryEE16do_move_backwardEPvPKvj"
  },
  {
   "binding":"weak",
   "name":"_ZNK7android6VectorINS_8hardware10BpHwBinder8ObituaryEE7do_copyEPvPKvj"
  },
  {
   "binding":"weak",
   "name":"_ZNK7android6VectorINS_8hardware10BpHwBinder8ObituaryEE8do_splatEPvPKvj"
  },
  {
   "binding":"weak",
   "name":"_ZNK7android6VectorINS_8hardware12ProcessState12handle_entryEE10do_destroyEPvj"
  },
  {
   "binding":"weak",
   "name":"_ZNK7android6VectorINS_8hardware12ProcessState12handle_entryEE12do_constructEPvj"
  },
  {
   "binding":"weak",
   "name":"_ZNK7android6VectorINS_8hardware12ProcessState12handle_entryEE15do_move_forwardEPvPKvj"
  },
  {
   "binding":"weak",
   "name":"_ZNK7android6VectorINS_8hardware12ProcessState12handle_entryEE16do_move_backwardEPvPKvj"
  },
  {
   "binding":"weak",
   "name":"_ZNK7android6VectorINS_8hardware12ProcessState12handle_entryEE7do_copyEPvPKvj"
  },
  {
   "binding":"weak",
   "name":"_ZNK7android6VectorINS_8hardware12ProcessState12handle_entryEE8do_splatEPvPKvj"
  },
  {
   "binding":"weak",
   "name":"_ZNK7android6VectorIPNS_7RefBase12weakref_typeEE10do_destroyEPvj"
  },
  {
   "binding":"weak",
   "name":"_ZNK7android6VectorIPNS_7RefBase12weakref_typeEE12do_constructEPvj"
  },
  {
   "binding":"weak",
   "name":"_ZNK7android6VectorIPNS_7RefBase12weakref_typeEE15do_move_forwardEPvPKvj"
  },
  {
   "binding":"weak",
   "name":"_ZNK7android6VectorIPNS_7RefBase12weakref_typeEE16do_move_backwardEPvPKvj"
  },
  {
   "binding":"weak",
   "name":"_ZNK7android6VectorIPNS_7RefBase12weakref_typeEE7do_copyEPvPKvj"
  },
  {
   "binding":"weak",
   "name":"_ZNK7android6VectorIPNS_7RefBase12weakref_typeEE8do_splatEPvPKvj"
  },
  {
   "binding":"weak",
   "name":"_ZNK7android6VectorIPNS_7RefBaseEE10do_destroyEPvj"
  },
  {
   "binding":"weak",
   "name":"_ZNK7android6VectorIPNS_7RefBaseEE12do_constructEPvj"
  },
  {
   "binding":"weak",
   "name":"_ZNK7android6VectorIPNS_7RefBaseEE15do_move_forwardEPvPKvj"
  },
  {
   "binding":"weak",
   "name":"_ZNK7android6VectorIPNS_7RefBaseEE16do_move_backwardEPvPKvj"
  },
  {
   "binding":"weak",
   "name":"_ZNK7android6VectorIPNS_7RefBaseEE7do_copyEPvPKvj"
  },
  {
   "binding":"weak",
   "name":"_ZNK7android6VectorIPNS_7RefBaseEE8do_splatEPvPKvj"
  },
  {
   "binding":"weak",
   "name":"_ZNK7android6VectorIPNS_8hardware9BHwBinderEE10do_destroyEPvj"
  },
  {
   "binding":"weak",
   "name":"_ZNK7android6VectorIPNS_8hardware9BHwBinderEE12do_constructEPvj"
  },
  {
   "binding":"weak",
   "name":"_ZNK7android6VectorIPNS_8hardware9BHwBinderEE15do_move_forwardEPvPKvj"
  },
  {
   "binding":"weak",
   "name":"_ZNK7android6VectorIPNS_8hardware9BHwBinderEE16do_move_backwardEPvPKvj"
  },
  {
   "binding":"weak",
   "name":"_ZNK7android6VectorIPNS_8hardware9BHwBinderEE7do_copyEPvPKvj"
  },
  {
   "binding":"weak",
   "name":"_ZNK7android6VectorIPNS_8hardware9BHwBinderEE8do_splatEPvPKvj"
  },
  {
   "binding":"weak",
   "name":"_ZNK7android6VectorIiE10do_destroyEPvj"
  },
  {
   "binding":"weak",
   "name":"_ZNK7android6VectorIiE12do_constructEPvj"
  },
  {
   "binding":"weak",
   "name":"_ZNK7android6VectorIiE15do_move_forwardEPvPKvj"
  },
  {
   "binding":"weak",
   "name":"_ZNK7android6VectorIiE16do_move_backwardEPvPKvj"
  },
  {
   "binding":"weak",
   "name":"_ZNK7android6VectorIiE7do_copyEPvPKvj"
  },
  {
   "binding":"weak",
   "name":"_ZNK7android6VectorIiE8do_splatEPvPKvj"
  },
  {
   "name":"_ZNK7android8hardware10BpHwBinder10findObjectEPKv"
  },
  {
   "name":"_ZNK7android8hardware10BpHwBinder13ObjectManager4findEPKv"
  },
  {
   "name":"_ZNK7android8hardware12ProcessState16isContextManagerEv"
  },
  {
   "name":"_ZNK7android8hardware14IPCThreadState13getCallingPidEv"
  },
  {
   "name":"_ZNK7android8hardware14IPCThreadState13getCallingSidEv"
  },
  {
   "name":"_ZNK7android8hardware14IPCThreadState13getCallingUidEv"
  },
  {
   "name":"_ZNK7android8hardware14IPCThreadState19getStrictModePolicyEv"
  },
  {
   "name":"_ZNK7android8hardware14IPCThreadState29getLastTransactionBinderFlagsEv"
  },
  {
   "name":"_ZNK7android8hardware18BufferedTextOutput9getBufferEv"
  },
  {
   "name":"_ZNK7android8hardware6Parcel10clearCacheEv"
  },
  {
   "name":"_ZNK7android8hardware6Parcel10errorCheckEv"
  },
  {
   "name":"_ZNK7android8hardware6Parcel10findBufferEPKvjPbPjS5_"
  },
  {
   "name":"_ZNK7android8hardware6Parcel10ipcObjectsEv"
  },
  {
   "name":"_ZNK7android8hardware6Parcel10readBufferEjPjPPKv"
  },
  {
   "name":"_ZNK7android8hardware6Parcel10readBufferEjPjjjjPPKv"
  },
  {
   "name":"_ZNK7android8hardware6Parcel10readDoubleEPd"
  },
  {
   "name":"_ZNK7android8hardware6Parcel10readDoubleEv"
  },
  {
   "binding":"weak",
   "name":"_ZNK7android8hardware6Parcel10readObjectI18flat_binder_objectEEPKT_Pj"
  },
  {
   "name":"_ZNK7android8hardware6Parcel10readUint16EPt"
  },
  {
   "name":"_ZNK7android8hardware6Parcel10readUint32EPj"
  },
  {
   "name":"_ZNK7android8hardware6Parcel10readUint32Ev"
  },
  {
   "name":"_ZNK7android8hardware6Parcel10readUint64EPy"
  },
  {
   "name":"_ZNK7android8hardware6Parcel10readUint64Ev"
  },
  {
   "name":"_ZNK7android8hardware6Parcel10scanForFdsEv"
  },
  {
   "name":"_ZNK7android8hardware6Parcel11ipcDataSizeEv"
  },
  {
   "name":"_ZNK7android8hardware6Parcel11readCStringEv"
  },
  {
   "name":"_ZNK7android8hardware6Parcel11readInplaceEj"
  },
  {
   "name":"_ZNK7android8hardware6Parcel11readPointerEPj"
  },
  {
   "name":"_ZNK7android8hardware6Parcel11readPointerEv"
  },
  {
   "name":"_ZNK7android8hardware6Parcel11updateCacheEv"
  },
  {
   "name":"_ZNK7android8hardware6Parcel12dataCapacityEv"
  },
  {
   "name":"_ZNK7android8hardware6Parcel12dataPositionEv"
  },
  {
   "name":"_ZNK7android8hardware6Parcel12objectsCountEv"
  },
  {
   "name":"_ZNK7android8hardware6Parcel12readString16EPNS_8String16E"
  },
  {
   "name":"_ZNK7android8hardware6Parcel12readString16EPNSt3__110unique_ptrINS_8String16ENS2_14default_deleteIS4_EEEE"
  },
  {
   "name":"_ZNK7android8hardware6Parcel12readString16Ev"
  },
  {
   "name":"_ZNK7android8hardware6Parcel13ipcBufferSizeEv"
  },
  {
   "name":"_ZNK7android8hardware6Parcel13readReferenceEPPKvPjPb"
  },
  {
   "name":"_ZNK7android8hardware6Parcel14readWeakBinderEv"
  },
  {
   "name":"_ZNK7android8hardware6Parcel15ipcObjectsCountEv"
  },
  {
   "name":"_ZNK7android8hardware6Parcel15quickFindBufferEPKvPj"
  },
  {
   "name":"_ZNK7android8hardware6Parcel15setDataPositionEj"
  },
  {
   "name":"_ZNK7android8hardware6Parcel16enforceInterfaceEPKc"
  },
  {
   "name":"_ZNK7android8hardware6Parcel16readStrongBinderEPNS_2spINS0_7IBinderEEE"
  },
  {
   "name":"_ZNK7android8hardware6Parcel16readStrongBinderEv"
  },
  {
   "name":"_ZNK7android8hardware6Parcel18readEmbeddedBufferEjPjjjPPKv"
  },
  {
   "name":"_ZNK7android8hardware6Parcel18readNullableBufferEjPjPPKv"
  },
  {
   "name":"_ZNK7android8hardware6Parcel18verifyBufferObjectEPK20binder_buffer_objectjjjj"
  },
  {
   "name":"_ZNK7android8hardware6Parcel19readString16InplaceEPj"
  },
  {
   "name":"_ZNK7android8hardware6Parcel19validateBufferChildEjj"
  },
  {
   "name":"_ZNK7android8hardware6Parcel20validateBufferParentEjj"
  },
  {
   "name":"_ZNK7android8hardware6Parcel21readEmbeddedReferenceEPPKvPjjjPb"
  },
  {
   "name":"_ZNK7android8hardware6Parcel21readNativeHandleNoDupEPPK13native_handle"
  },
  {
   "name":"_ZNK7android8hardware6Parcel24readEmbeddedNativeHandleEjjPPK13native_handle"
  },
  {
   "name":"_ZNK7android8hardware6Parcel24readNullableStrongBinderEPNS_2spINS0_7IBinderEEE"
  },
  {
   "name":"_ZNK7android8hardware6Parcel26readNullableEmbeddedBufferEjPjjjPPKv"
  },
  {
   "name":"_ZNK7android8hardware6Parcel29readNullableNativeHandleNoDupEPPK13native_handle"
  },
  {
   "name":"_ZNK7android8hardware6Parcel29readNullableNativeHandleNoDupEPPK13native_handlebjj"
  },
  {
   "name":"_ZNK7android8hardware6Parcel32readNullableEmbeddedNativeHandleEjjPPK13native_handle"
  },
  {
   "name":"_ZNK7android8hardware6Parcel4dataEv"
  },
  {
   "name":"_ZNK7android8hardware6Parcel4readEPvj"
  },
  {
   "name":"_ZNK7android8hardware6Parcel5printERNS0_10TextOutputEj"
  },
  {
   "name":"_ZNK7android8hardware6Parcel7ipcDataEv"
  },
  {
   "name":"_ZNK7android8hardware6Parcel7objectsEv"
  },
  {
   "name":"_ZNK7android8hardware6Parcel8dataSizeEv"
  },
  {
   "name":"_ZNK7android8hardware6Parcel8readBoolEPb"
  },
  {
   "name":"_ZNK7android8hardware6Parcel8readBoolEv"
  },
  {
   "name":"_ZNK7android8hardware6Parcel8readInt8EPa"
  },
  {
   "name":"_ZNK7android8hardware6Parcel9dataAvailEv"
  },
  {
   "name":"_ZNK7android8hardware6Parcel9readFloatEPf"
  },
  {
   "name":"_ZNK7android8hardware6Parcel9readFloatEv"
  },
  {
   "name":"_ZNK7android8hardware6Parcel9readInt16EPs"
  },
  {
   "name":"_ZNK7android8hardware6Parcel9readInt32EPi"
  },
  {
   "name":"_ZNK7android8hardware6Parcel9readInt32Ev"
  },
  {
   "name":"_ZNK7android8hardware6Parcel9readInt64EPx"
  },
  {
   "name":"_ZNK7android8hardware6Parcel9readInt64Ev"
  },
  {
   "name":"_ZNK7android8hardware6Parcel9readUint8EPh"
  },
  {
   "name":"_ZNK7android8hardware7IBinder13checkSubclassEPKv"
  },
  {
   "name":"_ZNK7android8hardware9BHwBinder10findObjectEPKv"
  },
  {
   "name":"_ZTv0_n12_N7android8hardware10BpHwBinderD0Ev"
  },
  {
   "name":"_ZTv0_n12_N7android8hardware10BpHwBinderD1Ev"
  },
  {
   "name":"_ZTv0_n12_N7android8hardware10IInterfaceD0Ev"
  },
  {
   "name":"_ZTv0_n12_N7android8hardware10IInterfaceD1Ev"
  },
  {
   "name":"_ZTv0_n12_N7android8hardware11BpHwRefBaseD0Ev"
  },
  {
   "name":"_ZTv0_n12_N7android8hardware11BpHwRefBaseD1Ev"
  },
  {
   "name":"_ZTv0_n12_N7android8hardware12ProcessStateD0Ev"
  },
  {
   "name":"_ZTv0_n12_N7android8hardware12ProcessStateD1Ev"
  },
  {
   "name":"_ZTv0_n12_N7android8hardware7IBinderD0Ev"
  },
  {
   "name":"_ZTv0_n12_N7android8hardware7IBinderD1Ev"
  },
  {
   "name":"_ZTv0_n12_N7android8hardware9BHwBinderD0Ev"
  },
  {
   "name":"_ZTv0_n12_N7android8hardware9BHwBinderD1Ev"
  },
  {
   "name":"_ZTv0_n16_N7android8hardware10BpHwBinder10onFirstRefEv"
  },
  {
   "name":"_ZTv0_n16_N7android8hardware11BpHwRefBase10onFirstRefEv"
  },
  {
   "name":"_ZTv0_n20_N7android8hardware10BpHwBinder15onLastStrongRefEPKv"
  },
  {
   "name":"_ZTv0_n20_N7android8hardware11BpHwRefBase15onLastStrongRefEPKv"
  },
  {
   "name":"_ZTv0_n24_N7android8hardware10BpHwBinder20onIncStrongAttemptedEjPKv"
  },
  {
   "name":"_ZTv0_n24_N7android8hardware11BpHwRefBase20onIncStrongAttemptedEjPKv"
  },
  {
   "name":"getHWBinderKernelReferences"
  },
  {
   "name":"printHexData"
  },
  {
   "name":"printTypeCode"
  },
  {
   "name":"stringForIndent"
  }
 ],
 "elf_objects":[
  {
   "name":"_ZN7android8hardware12gTextBuffersE"
  },
  {
   "name":"_ZN7android8hardware13gProcessMutexE"
  },
  {
   "name":"_ZN7android8hardware4aerrE"
  },
  {
   "name":"_ZN7android8hardware4alogE"
  },
  {
   "name":"_ZN7android8hardware4aoutE"
  },
  {
   "name":"_ZN7android8hardware8gProcessE"
  },
  {
   "name":"_ZTTN7android8hardware10BpHwBinderE"
  },
  {
   "name":"_ZTTN7android8hardware10IInterfaceE"
  },
  {
   "name":"_ZTTN7android8hardware11BpHwRefBaseE"
  },
  {
   "name":"_ZTTN7android8hardware12ProcessStateE"
  },
  {
   "name":"_ZTTN7android8hardware7IBinderE"
  },
  {
   "name":"_ZTTN7android8hardware9BHwBinderE"
  },
  {
   "binding":"weak",
   "name":"_ZTVN7android12SortedVectorINS_16key_value_pair_tINS_8String16ENS_2spINS_8hardware7IBinderEEEEEEE"
  },
  {
   "binding":"weak",
   "name":"_ZTVN7android12SortedVectorINS_16key_value_pair_tIPKvNS_8hardware10BpHwBinder13ObjectManager7entry_tEEEEE"
  },
  {
   "binding":"weak",
   "name":"_ZTVN7android6VectorINS_2spINS_8hardware18BufferedTextOutput11BufferStateEEEEE"
  },
  {
   "binding":"weak",
   "name":"_ZTVN7android6VectorINS_8hardware10BpHwBinder8ObituaryEEE"
  },
  {
   "binding":"weak",
   "name":"_ZTVN7android6VectorINS_8hardware12ProcessState12handle_entryEEE"
  },
  {
   "binding":"weak",
   "name":"_ZTVN7android6VectorIPNS_7RefBase12weakref_typeEEE"
  },
  {
   "binding":"weak",
   "name":"_ZTVN7android6VectorIPNS_7RefBaseEEE"
  },
  {
   "binding":"weak",
   "name":"_ZTVN7android6VectorIPNS_8hardware9BHwBinderEEE"
  },
  {
   "binding":"weak",
   "name":"_ZTVN7android6VectorIiEE"
  },
  {
   "name":"_ZTVN7android8hardware10BpHwBinderE"
  },
  {
   "name":"_ZTVN7android8hardware10IInterfaceE"
  },
  {
   "name":"_ZTVN7android8hardware10TextOutputE"
  },
  {
   "name":"_ZTVN7android8hardware11BpHwRefBaseE"
  },
  {
   "name":"_ZTVN7android8hardware12ProcessStateE"
  },
  {
   "name":"_ZTVN7android8hardware18BufferedTextOutputE"
  },
  {
   "name":"_ZTVN7android8hardware7IBinderE"
  },
  {
   "name":"_ZTVN7android8hardware9BHwBinderE"
  }
 ]
}