{
 "record_types":[],
 "elf_functions":[
  {
   "name":"_ZN7android20MediaCodecsXmlParser10addFeatureEPPKc"
  },
  {
   "name":"_ZN7android20MediaCodecsXmlParser12parseXMLFileEPKc"
  },
  {
   "name":"_ZN7android20MediaCodecsXmlParser14includeXMLFileEPPKc"
  },
  {
   "name":"_ZN7android20MediaCodecsXmlParser17endElementHandlerEPKc"
  },
  {
   "name":"_ZN7android20MediaCodecsXmlParser19startElementHandlerEPKcPS2_"
  },
  {
   "name":"_ZN7android20MediaCodecsXmlParser20parseTopLevelXMLFileEPKcb"
  },
  {
   "name":"_ZN7android20MediaCodecsXmlParser21addTypeFromAttributesEPPKcb"
  },
  {
   "name":"_ZN7android20MediaCodecsXmlParser24EndElementHandlerWrapperEPvPKc"
  },
  {
   "name":"_ZN7android20MediaCodecsXmlParser24addSettingFromAttributesEPPKc"
  },
  {
   "name":"_ZN7android20MediaCodecsXmlParser26StartElementHandlerWrapperEPvPKcPS3_"
  },
  {
   "name":"_ZN7android20MediaCodecsXmlParser27addMediaCodecFromAttributesEbPPKc"
  },
  {
   "name":"_ZN7android20MediaCodecsXmlParser8addLimitEPPKc"
  },
  {
   "name":"_ZN7android20MediaCodecsXmlParser8addQuirkEPPKc"
  },
  {
   "name":"_ZN7android20MediaCodecsXmlParserC1EPKPKcS2_S2_S2_"
  },
  {
   "name":"_ZN7android20MediaCodecsXmlParserC2EPKPKcS2_S2_S2_"
  },
  {
   "name":"_ZN7android20MediaCodecsXmlParserD1Ev"
  },
  {
   "name":"_ZN7android20MediaCodecsXmlParserD2Ev"
  },
  {
   "name":"_ZNK7android20MediaCodecsXmlParser10getRoleMapEv"
  },
  {
   "name":"_ZNK7android20MediaCodecsXmlParser11getCodecMapEv"
  },
  {
   "name":"_ZNK7android20MediaCodecsXmlParser15generateRoleMapEv"
  },
  {
   "name":"_ZNK7android20MediaCodecsXmlParser15getCommonPrefixEv"
  },
  {
   "name":"_ZNK7android20MediaCodecsXmlParser16getParsingStatusEv"
  },
  {
   "name":"_ZNK7android20MediaCodecsXmlParser20generateCommonPrefixEv"
  },
  {
   "name":"_ZNK7android20MediaCodecsXmlParser22getServiceAttributeMapEv"
  }
 ],
 "elf_objects":[
  {
   "name":"_ZN7android20MediaCodecsXmlParser17defaultSearchDirsE"
  },
  {
   "name":"_ZN7android20MediaCodecsXmlParser18defaultMainXmlNameE"
  },
  {
   "name":"_ZN7android20MediaCodecsXmlParser25defaultPerformanceXmlNameE"
  },
  {
   "name":"_ZN7android20MediaCodecsXmlParser30defaultProfilingResultsXmlPathE"
  }
 ]
}