{
 "record_types":[
  {
   "vtable_components":[
    {
     "kind":"offset_to_top"
    },
    {
     "kind":"rtti",
     "mangled_component_name":"_ZTIN7android12SortedVectorINS_16key_value_pair_tIPK13native_handleNS_22GraphicBufferAllocator11alloc_rec_tEEEEE"
    },
    {
     "kind":"complete_dtor_pointer",
     "mangled_component_name":"_ZN7android12SortedVectorINS_16key_value_pair_tIPK13native_handleNS_22GraphicBufferAllocator11alloc_rec_tEEEED1Ev"
    },
    {
     "kind":"deleting_dtor_pointer",
     "mangled_component_name":"_ZN7android12SortedVectorINS_16key_value_pair_tIPK13native_handleNS_22GraphicBufferAllocator11alloc_rec_tEEEED0Ev"
    },
    {
     "mangled_component_name":"_ZNK7android12SortedVectorINS_16key_value_pair_tIPK13native_handleNS_22GraphicBufferAllocator11alloc_rec_tEEEE12do_constructEPvj"
    },
    {
     "mangled_component_name":"_ZNK7android12SortedVectorINS_16key_value_pair_tIPK13native_handleNS_22GraphicBufferAllocator11alloc_rec_tEEEE10do_destroyEPvj"
    },
    {
     "mangled_component_name":"_ZNK7android12SortedVectorINS_16key_value_pair_tIPK13native_handleNS_22GraphicBufferAllocator11alloc_rec_tEEEE7do_copyEPvPKvj"
    },
    {
     "mangled_component_name":"_ZNK7android12SortedVectorINS_16key_value_pair_tIPK13native_handleNS_22GraphicBufferAllocator11alloc_rec_tEEEE8do_splatEPvPKvj"
    },
    {
     "mangled_component_name":"_ZNK7android12SortedVectorINS_16key_value_pair_tIPK13native_handleNS_22GraphicBufferAllocator11alloc_rec_tEEEE15do_move_forwardEPvPKvj"
    },
    {
     "mangled_component_name":"_ZNK7android12SortedVectorINS_16key_value_pair_tIPK13native_handleNS_22GraphicBufferAllocator11alloc_rec_tEEEE16do_move_backwardEPvPKvj"
    },
    {
     "mangled_component_name":"_ZNK7android12SortedVectorINS_16key_value_pair_tIPK13native_handleNS_22GraphicBufferAllocator11alloc_rec_tEEEE10do_compareEPKvSA_"
    }
   ],
   "unique_id":"_ZTSN7android12SortedVectorINS_16key_value_pair_tIPK13native_handleNS_22GraphicBufferAllocator11alloc_rec_tEEEEE"
  },
  {
   "vtable_components":[
    {
     "kind":"offset_to_top"
    },
    {
     "kind":"rtti",
     "mangled_component_name":"_ZTIN7android6VectorINS_4RectEEE"
    },
    {
     "kind":"complete_dtor_pointer",
     "mangled_component_name":"_ZN7android6VectorINS_4RectEED1Ev"
    },
    {
     "kind":"deleting_dtor_pointer",
     "mangled_component_name":"_ZN7android6VectorINS_4RectEED0Ev"
    },
    {
     "mangled_component_name":"_ZNK7android6VectorINS_4RectEE12do_constructEPvj"
    },
    {
     "mangled_component_name":"_ZNK7android6VectorINS_4RectEE10do_destroyEPvj"
    },
    {
     "mangled_component_name":"_ZNK7android6VectorINS_4RectEE7do_copyEPvPKvj"
    },
    {
     "mangled_component_name":"_ZNK7android6VectorINS_4RectEE8do_splatEPvPKvj"
    },
    {
     "mangled_component_name":"_ZNK7android6VectorINS_4RectEE15do_move_forwardEPvPKvj"
    },
    {
     "mangled_component_name":"_ZNK7android6VectorINS_4RectEE16do_move_backwardEPvPKvj"
    }
   ],
   "unique_id":"_ZTSN7android6VectorINS_4RectEEE"
  },
  {
   "vtable_components":[
    {
     "kind":"offset_to_top"
    },
    {
     "kind":"rtti",
     "mangled_component_name":"_ZTIN7android13GraphicBufferE"
    },
    {
     "kind":"complete_dtor_pointer",
     "mangled_component_name":"_ZN7android13GraphicBufferD1Ev"
    },
    {
     "kind":"deleting_dtor_pointer",
     "mangled_component_name":"_ZN7android13GraphicBufferD0Ev"
    },
    {
     "mangled_component_name":"_ZN7android7RefBase10onFirstRefEv"
    },
    {
     "mangled_component_name":"_ZN7android7RefBase15onLastStrongRefEPKv"
    },
    {
     "mangled_component_name":"_ZN7android7RefBase20onIncStrongAttemptedEjPKv"
    },
    {
     "mangled_component_name":"_ZN7android7RefBase13onLastWeakRefEPKv"
    }
   ],
   "unique_id":"_ZTSN7android13GraphicBufferE"
  }
 ],
 "elf_functions":[
  {
   "name":"_Z11decodeRange19android_dataspace_t"
  },
  {
   "name":"_Z14decodeStandard19android_dataspace_t"
  },
  {
   "name":"_Z14decodeTransfer19android_dataspace_t"
  },
  {
   "name":"_Z15decodeColorModeN7android8hardware8graphics6common4V1_19ColorModeE"
  },
  {
   "name":"_Z16dataspaceDetails19android_dataspace_t"
  },
  {
   "name":"_Z17decodePixelFormati"
  },
  {
   "name":"_Z18decodeRenderIntentN7android8hardware8graphics6common4V1_112RenderIntentE"
  },
  {
   "name":"_Z20decodeColorTransform25android_color_transform_t"
  },
  {
   "name":"_Z9to_stringRKN7android4RectE"
  },
  {
   "name":"_ZN7android10ColorSpace10linearSRGBEv"
  },
  {
   "name":"_ZN7android10ColorSpace11ProPhotoRGBEv"
  },
  {
   "name":"_ZN7android10ColorSpace12extendedSRGBEv"
  },
  {
   "name":"_ZN7android10ColorSpace18linearExtendedSRGBEv"
  },
  {
   "name":"_ZN7android10ColorSpace4ACESEv"
  },
  {
   "name":"_ZN7android10ColorSpace4NTSCEv"
  },
  {
   "name":"_ZN7android10ColorSpace4sRGBEv"
  },
  {
   "name":"_ZN7android10ColorSpace5BT709Ev"
  },
  {
   "name":"_ZN7android10ColorSpace5DCIP3Ev"
  },
  {
   "name":"_ZN7android10ColorSpace6ACEScgEv"
  },
  {
   "name":"_ZN7android10ColorSpace6BT2020Ev"
  },
  {
   "name":"_ZN7android10ColorSpace8AdobeRGBEv"
  },
  {
   "name":"_ZN7android10ColorSpace9DisplayP3Ev"
  },
  {
   "name":"_ZN7android10ColorSpace9createLUTEjRKS0_S2_"
  },
  {
   "name":"_ZN7android10ColorSpaceC1ERKNSt3__112basic_stringIcNS1_11char_traitsIcEENS1_9allocatorIcEEEERKNS1_5arrayINS_7details5TVec2IfEELj3EEERKSD_NS0_18TransferParametersENS1_8functionIFffEEE"
  },
  {
   "name":"_ZN7android10ColorSpaceC1ERKNSt3__112basic_stringIcNS1_11char_traitsIcEENS1_9allocatorIcEEEERKNS1_5arrayINS_7details5TVec2IfEELj3EEERKSD_NS1_8functionIFffEEESL_SL_"
  },
  {
   "name":"_ZN7android10ColorSpaceC1ERKNSt3__112basic_stringIcNS1_11char_traitsIcEENS1_9allocatorIcEEEERKNS1_5arrayINS_7details5TVec2IfEELj3EEERKSD_fNS1_8functionIFffEEE"
  },
  {
   "name":"_ZN7android10ColorSpaceC1ERKNSt3__112basic_stringIcNS1_11char_traitsIcEENS1_9allocatorIcEEEERKNS_7details6TMat33IfEENS0_18TransferParametersENS1_8functionIFffEEE"
  },
  {
   "name":"_ZN7android10ColorSpaceC1ERKNSt3__112basic_stringIcNS1_11char_traitsIcEENS1_9allocatorIcEEEERKNS_7details6TMat33IfEENS1_8functionIFffEEESH_SH_"
  },
  {
   "name":"_ZN7android10ColorSpaceC1ERKNSt3__112basic_stringIcNS1_11char_traitsIcEENS1_9allocatorIcEEEERKNS_7details6TMat33IfEEfNS1_8functionIFffEEE"
  },
  {
   "name":"_ZN7android10ColorSpaceC2ERKNSt3__112basic_stringIcNS1_11char_traitsIcEENS1_9allocatorIcEEEERKNS1_5arrayINS_7details5TVec2IfEELj3EEERKSD_NS0_18TransferParametersENS1_8functionIFffEEE"
  },
  {
   "name":"_ZN7android10ColorSpaceC2ERKNSt3__112basic_stringIcNS1_11char_traitsIcEENS1_9allocatorIcEEEERKNS1_5arrayINS_7details5TVec2IfEELj3EEERKSD_NS1_8functionIFffEEESL_SL_"
  },
  {
   "name":"_ZN7android10ColorSpaceC2ERKNSt3__112basic_stringIcNS1_11char_traitsIcEENS1_9allocatorIcEEEERKNS1_5arrayINS_7details5TVec2IfEELj3EEERKSD_fNS1_8functionIFffEEE"
  },
  {
   "name":"_ZN7android10ColorSpaceC2ERKNSt3__112basic_stringIcNS1_11char_traitsIcEENS1_9allocatorIcEEEERKNS_7details6TMat33IfEENS0_18TransferParametersENS1_8functionIFffEEE"
  },
  {
   "name":"_ZN7android10ColorSpaceC2ERKNSt3__112basic_stringIcNS1_11char_traitsIcEENS1_9allocatorIcEEEERKNS_7details6TMat33IfEENS1_8functionIFffEEESH_SH_"
  },
  {
   "name":"_ZN7android10ColorSpaceC2ERKNSt3__112basic_stringIcNS1_11char_traitsIcEENS1_9allocatorIcEEEERKNS_7details6TMat33IfEEfNS1_8functionIFffEEE"
  },
  {
   "name":"_ZN7android10FrameStats9unflattenEPKvj"
  },
  {
   "name":"_ZN7android12bitsPerPixelEi"
  },
  {
   "name":"_ZN7android13FenceTimeline17updateSignalTimesEv"
  },
  {
   "name":"_ZN7android13FenceTimeline4pushERKNSt3__110shared_ptrINS_9FenceTimeEEE"
  },
  {
   "name":"_ZN7android13GraphicBuffer10reallocateEjjijy"
  },
  {
   "name":"_ZN7android13GraphicBuffer11free_handleEv"
  },
  {
   "name":"_ZN7android13GraphicBuffer11unlockAsyncEPi"
  },
  {
   "name":"_ZN7android13GraphicBuffer12initWithSizeEjjijyNSt3__112basic_stringIcNS1_11char_traitsIcEENS1_9allocatorIcEEEE"
  },
  {
   "name":"_ZN7android13GraphicBuffer14initWithHandleEPK13native_handleNS0_16HandleWrapMethodEjjijyj"
  },
  {
   "name":"_ZN7android13GraphicBuffer14lockAsyncYCbCrEjP13android_ycbcri"
  },
  {
   "name":"_ZN7android13GraphicBuffer14lockAsyncYCbCrEjRKNS_4RectEP13android_ycbcri"
  },
  {
   "name":"_ZN7android13GraphicBuffer17needsReallocationEjjijy"
  },
  {
   "name":"_ZN7android13GraphicBuffer23setDetachedBufferHandleENSt3__110unique_ptrINS_20DetachedBufferHandleENS1_14default_deleteIS3_EEEE"
  },
  {
   "name":"_ZN7android13GraphicBuffer24takeDetachedBufferHandleEv"
  },
  {
   "name":"_ZN7android13GraphicBuffer26dumpAllocationsToSystemLogEv"
  },
  {
   "name":"_ZN7android13GraphicBuffer4fromEP19ANativeWindowBuffer"
  },
  {
   "name":"_ZN7android13GraphicBuffer4lockEjPPv"
  },
  {
   "name":"_ZN7android13GraphicBuffer4lockEjRKNS_4RectEPPv"
  },
  {
   "name":"_ZN7android13GraphicBuffer6unlockEv"
  },
  {
   "name":"_ZN7android13GraphicBuffer9lockAsyncEjPPvi"
  },
  {
   "name":"_ZN7android13GraphicBuffer9lockAsyncEjRKNS_4RectEPPvi"
  },
  {
   "name":"_ZN7android13GraphicBuffer9lockAsyncEyyRKNS_4RectEPPvi"
  },
  {
   "name":"_ZN7android13GraphicBuffer9lockYCbCrEjP13android_ycbcr"
  },
  {
   "name":"_ZN7android13GraphicBuffer9lockYCbCrEjRKNS_4RectEP13android_ycbcr"
  },
  {
   "name":"_ZN7android13GraphicBuffer9unflattenERPKvRjRPKiS4_"
  },
  {
   "name":"_ZN7android13GraphicBufferC1EPK13native_handleNS0_16HandleWrapMethodEjjijyj"
  },
  {
   "name":"_ZN7android13GraphicBufferC1EjjijNSt3__112basic_stringIcNS1_11char_traitsIcEENS1_9allocatorIcEEEE"
  },
  {
   "name":"_ZN7android13GraphicBufferC1EjjijjjP13native_handleb"
  },
  {
   "name":"_ZN7android13GraphicBufferC1EjjijyNSt3__112basic_stringIcNS1_11char_traitsIcEENS1_9allocatorIcEEEE"
  },
  {
   "name":"_ZN7android13GraphicBufferC1Ev"
  },
  {
   "name":"_ZN7android13GraphicBufferC2EPK13native_handleNS0_16HandleWrapMethodEjjijyj"
  },
  {
   "name":"_ZN7android13GraphicBufferC2EjjijNSt3__112basic_stringIcNS1_11char_traitsIcEENS1_9allocatorIcEEEE"
  },
  {
   "name":"_ZN7android13GraphicBufferC2EjjijjjP13native_handleb"
  },
  {
   "name":"_ZN7android13GraphicBufferC2EjjijyNSt3__112basic_stringIcNS1_11char_traitsIcEENS1_9allocatorIcEEEE"
  },
  {
   "name":"_ZN7android13GraphicBufferC2Ev"
  },
  {
   "name":"_ZN7android13GraphicBufferD0Ev"
  },
  {
   "name":"_ZN7android13GraphicBufferD1Ev"
  },
  {
   "name":"_ZN7android13GraphicBufferD2Ev"
  },
  {
   "name":"_ZN7android13bytesPerPixelEi"
  },
  {
   "name":"_ZN7android15HdrCapabilities9unflattenEPKvj"
  },
  {
   "name":"_ZN7android15HdrCapabilitiesC1EOS0_"
  },
  {
   "name":"_ZN7android15HdrCapabilitiesC2EOS0_"
  },
  {
   "name":"_ZN7android15HdrCapabilitiesD1Ev"
  },
  {
   "name":"_ZN7android15HdrCapabilitiesD2Ev"
  },
  {
   "name":"_ZN7android15HdrCapabilitiesaSEOS0_"
  },
  {
   "name":"_ZN7android19ColorSpaceConnectorC1ERKNS_10ColorSpaceES3_"
  },
  {
   "name":"_ZN7android19ColorSpaceConnectorC2ERKNS_10ColorSpaceES3_"
  },
  {
   "name":"_ZN7android19FenceToFenceTimeMap16signalAllForTestERKNS_2spINS_5FenceEEEx"
  },
  {
   "name":"_ZN7android19FenceToFenceTimeMap20garbageCollectLockedEv"
  },
  {
   "name":"_ZN7android19FenceToFenceTimeMap22createFenceTimeForTestERKNS_2spINS_5FenceEEE"
  },
  {
   "name":"_ZN7android19GraphicBufferMapper10freeBufferEPK13native_handle"
  },
  {
   "name":"_ZN7android19GraphicBufferMapper10preloadHalEv"
  },
  {
   "name":"_ZN7android19GraphicBufferMapper11unlockAsyncEPK13native_handlePi"
  },
  {
   "name":"_ZN7android19GraphicBufferMapper12importBufferEPK13native_handlejjjiyjPS3_"
  },
  {
   "name":"_ZN7android19GraphicBufferMapper14lockAsyncYCbCrEPK13native_handlejRKNS_4RectEP13android_ycbcri"
  },
  {
   "name":"_ZN7android19GraphicBufferMapper16getTransportSizeEPK13native_handlePjS4_"
  },
  {
   "name":"_ZN7android19GraphicBufferMapper4lockEPK13native_handlejRKNS_4RectEPPv"
  },
  {
   "name":"_ZN7android19GraphicBufferMapper6unlockEPK13native_handle"
  },
  {
   "name":"_ZN7android19GraphicBufferMapper9lockAsyncEPK13native_handlejRKNS_4RectEPPvi"
  },
  {
   "name":"_ZN7android19GraphicBufferMapper9lockAsyncEPK13native_handleyyRKNS_4RectEPPvi"
  },
  {
   "name":"_ZN7android19GraphicBufferMapper9lockYCbCrEPK13native_handlejRKNS_4RectEP13android_ycbcr"
  },
  {
   "name":"_ZN7android19GraphicBufferMapperC1Ev"
  },
  {
   "name":"_ZN7android19GraphicBufferMapperC2Ev"
  },
  {
   "name":"_ZN7android20appendUiConfigStringERNS_7String8E"
  },
  {
   "name":"_ZN7android22GraphicBufferAllocator15dumpToSystemLogEv"
  },
  {
   "name":"_ZN7android22GraphicBufferAllocator4freeEPK13native_handle"
  },
  {
   "name":"_ZN7android22GraphicBufferAllocator8allocateEjjijyPPK13native_handlePjyNSt3__112basic_stringIcNS6_11char_traitsIcEENS6_9allocatorIcEEEE"
  },
  {
   "name":"_ZN7android22GraphicBufferAllocatorC1Ev"
  },
  {
   "name":"_ZN7android22GraphicBufferAllocatorC2Ev"
  },
  {
   "name":"_ZN7android22GraphicBufferAllocatorD1Ev"
  },
  {
   "name":"_ZN7android22GraphicBufferAllocatorD2Ev"
  },
  {
   "binding":"weak",
   "name":"_ZN7android2spINS_5FenceEED2Ev"
  },
  {
   "name":"_ZN7android4Rect11makeInvalidEv"
  },
  {
   "name":"_ZN7android4Rect8offsetByEii"
  },
  {
   "name":"_ZN7android4Rect8offsetToEii"
  },
  {
   "name":"_ZN7android5Fence11waitForeverEPKc"
  },
  {
   "name":"_ZN7android5Fence4waitEi"
  },
  {
   "name":"_ZN7android5Fence5mergeEPKcRKNS_2spIS0_EES6_"
  },
  {
   "name":"_ZN7android5Fence5mergeERKNS_7String8ERKNS_2spIS0_EES7_"
  },
  {
   "name":"_ZN7android5Fence9unflattenERPKvRjRPKiS4_"
  },
  {
   "name":"_ZN7android5FenceC1ENS_4base14unique_fd_implINS1_13DefaultCloserEEE"
  },
  {
   "name":"_ZN7android5FenceC1Ei"
  },
  {
   "name":"_ZN7android5FenceC2ENS_4base14unique_fd_implINS1_13DefaultCloserEEE"
  },
  {
   "name":"_ZN7android5FenceC2Ei"
  },
  {
   "name":"_ZN7android6Region12subtractSelfERKNS_4RectE"
  },
  {
   "name":"_ZN7android6Region12subtractSelfERKS0_"
  },
  {
   "name":"_ZN7android6Region12subtractSelfERKS0_ii"
  },
  {
   "name":"_ZN7android6Region13operationSelfERKNS_4RectEj"
  },
  {
   "name":"_ZN7android6Region13operationSelfERKS0_iij"
  },
  {
   "name":"_ZN7android6Region13operationSelfERKS0_j"
  },
  {
   "name":"_ZN7android6Region13translateSelfEii"
  },
  {
   "name":"_ZN7android6Region14makeBoundsSelfEv"
  },
  {
   "name":"_ZN7android6Region16addRectUncheckedEiiii"
  },
  {
   "name":"_ZN7android6Region17boolean_operationEjRS0_RKS0_RKNS_4RectE"
  },
  {
   "name":"_ZN7android6Region17boolean_operationEjRS0_RKS0_RKNS_4RectEii"
  },
  {
   "name":"_ZN7android6Region17boolean_operationEjRS0_RKS0_S3_"
  },
  {
   "name":"_ZN7android6Region17boolean_operationEjRS0_RKS0_S3_ii"
  },
  {
   "name":"_ZN7android6Region25createTJunctionFreeRegionERKS0_"
  },
  {
   "name":"_ZN7android6Region3setERKNS_4RectE"
  },
  {
   "name":"_ZN7android6Region3setEii"
  },
  {
   "name":"_ZN7android6Region3setEjj"
  },
  {
   "name":"_ZN7android6Region5clearEv"
  },
  {
   "name":"_ZN7android6Region6orSelfERKNS_4RectE"
  },
  {
   "name":"_ZN7android6Region6orSelfERKS0_"
  },
  {
   "name":"_ZN7android6Region6orSelfERKS0_ii"
  },
  {
   "name":"_ZN7android6Region7andSelfERKNS_4RectE"
  },
  {
   "name":"_ZN7android6Region7andSelfERKS0_"
  },
  {
   "name":"_ZN7android6Region7andSelfERKS0_ii"
  },
  {
   "name":"_ZN7android6Region7xorSelfERKNS_4RectE"
  },
  {
   "name":"_ZN7android6Region7xorSelfERKS0_"
  },
  {
   "name":"_ZN7android6Region7xorSelfERKS0_ii"
  },
  {
   "name":"_ZN7android6Region8validateERKS0_PKcb"
  },
  {
   "name":"_ZN7android6Region9translateERS0_RKS0_ii"
  },
  {
   "name":"_ZN7android6Region9translateERS0_ii"
  },
  {
   "name":"_ZN7android6Region9unflattenEPKvj"
  },
  {
   "name":"_ZN7android6RegionC1ERKNS_4RectE"
  },
  {
   "name":"_ZN7android6RegionC1ERKS0_"
  },
  {
   "name":"_ZN7android6RegionC1Ev"
  },
  {
   "name":"_ZN7android6RegionC2ERKNS_4RectE"
  },
  {
   "name":"_ZN7android6RegionC2ERKS0_"
  },
  {
   "name":"_ZN7android6RegionC2Ev"
  },
  {
   "name":"_ZN7android6RegionD1Ev"
  },
  {
   "name":"_ZN7android6RegionD2Ev"
  },
  {
   "name":"_ZN7android6RegionaSERKS0_"
  },
  {
   "name":"_ZN7android8Gralloc26Mapper7preloadEv"
  },
  {
   "name":"_ZN7android8Gralloc26MapperC1Ev"
  },
  {
   "name":"_ZN7android8Gralloc26MapperC2Ev"
  },
  {
   "name":"_ZN7android8Gralloc29AllocatorC1ERKNS0_6MapperE"
  },
  {
   "name":"_ZN7android8Gralloc29AllocatorC2ERKNS0_6MapperE"
  },
  {
   "name":"_ZN7android9FenceTime13getSignalTimeEv"
  },
  {
   "name":"_ZN7android9FenceTime13signalForTestEx"
  },
  {
   "name":"_ZN7android9FenceTime20applyTrustedSnapshotERKNS0_8SnapshotE"
  },
  {
   "name":"_ZN7android9FenceTime8Snapshot9unflattenERPKvRjRPKiS5_"
  },
  {
   "name":"_ZN7android9FenceTime8SnapshotC1ERKNS_2spINS_5FenceEEE"
  },
  {
   "name":"_ZN7android9FenceTime8SnapshotC1Ex"
  },
  {
   "name":"_ZN7android9FenceTime8SnapshotC2ERKNS_2spINS_5FenceEEE"
  },
  {
   "name":"_ZN7android9FenceTime8SnapshotC2Ex"
  },
  {
   "name":"_ZN7android9FenceTimeC1EONS_2spINS_5FenceEEE"
  },
  {
   "name":"_ZN7android9FenceTimeC1ERKNS_2spINS_5FenceEEE"
  },
  {
   "name":"_ZN7android9FenceTimeC1ERKNS_2spINS_5FenceEEEb"
  },
  {
   "name":"_ZN7android9FenceTimeC1Ex"
  },
  {
   "name":"_ZN7android9FenceTimeC2EONS_2spINS_5FenceEEE"
  },
  {
   "name":"_ZN7android9FenceTimeC2ERKNS_2spINS_5FenceEEE"
  },
  {
   "name":"_ZN7android9FenceTimeC2ERKNS_2spINS_5FenceEEEb"
  },
  {
   "name":"_ZN7android9FenceTimeC2Ex"
  },
  {
   "name":"_ZN7android9FenceTimedlEPv"
  },
  {
   "name":"_ZN7android9FenceTimenwEj"
  },
  {
   "binding":"weak",
   "name":"_ZN7android9SingletonINS_19GraphicBufferMapperEE11getInstanceEv"
  },
  {
   "binding":"weak",
   "name":"_ZN7android9SingletonINS_22GraphicBufferAllocatorEE11getInstanceEv"
  },
  {
   "name":"_ZNK7android10FrameStats11isFixedSizeEv"
  },
  {
   "name":"_ZNK7android10FrameStats16getFlattenedSizeEv"
  },
  {
   "name":"_ZNK7android10FrameStats7flattenEPvj"
  },
  {
   "binding":"weak",
   "name":"_ZNK7android12SortedVectorINS_16key_value_pair_tIPK13native_handleNS_22GraphicBufferAllocator11alloc_rec_tEEEE10do_compareEPKvSA_"
  },
  {
   "binding":"weak",
   "name":"_ZNK7android12SortedVectorINS_16key_value_pair_tIPK13native_handleNS_22GraphicBufferAllocator11alloc_rec_tEEEE10do_destroyEPvj"
  },
  {
   "binding":"weak",
   "name":"_ZNK7android12SortedVectorINS_16key_value_pair_tIPK13native_handleNS_22GraphicBufferAllocator11alloc_rec_tEEEE12do_constructEPvj"
  },
  {
   "binding":"weak",
   "name":"_ZNK7android12SortedVectorINS_16key_value_pair_tIPK13native_handleNS_22GraphicBufferAllocator11alloc_rec_tEEEE15do_move_forwardEPvPKvj"
  },
  {
   "binding":"weak",
   "name":"_ZNK7android12SortedVectorINS_16key_value_pair_tIPK13native_handleNS_22GraphicBufferAllocator11alloc_rec_tEEEE16do_move_backwardEPvPKvj"
  },
  {
   "binding":"weak",
   "name":"_ZNK7android12SortedVectorINS_16key_value_pair_tIPK13native_handleNS_22GraphicBufferAllocator11alloc_rec_tEEEE7do_copyEPvPKvj"
  },
  {
   "binding":"weak",
   "name":"_ZNK7android12SortedVectorINS_16key_value_pair_tIPK13native_handleNS_22GraphicBufferAllocator11alloc_rec_tEEEE8do_splatEPvPKvj"
  },
  {
   "name":"_ZNK7android13GraphicBuffer10getFdCountEv"
  },
  {
   "name":"_ZNK7android13GraphicBuffer15getNativeBufferEv"
  },
  {
   "name":"_ZNK7android13GraphicBuffer16getFlattenedSizeEv"
  },
  {
   "name":"_ZNK7android13GraphicBuffer16isDetachedBufferEv"
  },
  {
   "name":"_ZNK7android13GraphicBuffer7flattenERPvRjRPiS3_"
  },
  {
   "name":"_ZNK7android13GraphicBuffer9initCheckEv"
  },
  {
   "name":"_ZNK7android15HdrCapabilities16getFlattenedSizeEv"
  },
  {
   "name":"_ZNK7android15HdrCapabilities7flattenEPvj"
  },
  {
   "name":"_ZNK7android22GraphicBufferAllocator4dumpERNS_7String8E"
  },
  {
   "name":"_ZNK7android4Rect6reduceERKS0_"
  },
  {
   "name":"_ZNK7android4Rect9intersectERKS0_PS0_"
  },
  {
   "name":"_ZNK7android4Rect9transformEjii"
  },
  {
   "name":"_ZNK7android4RectltERKS0_"
  },
  {
   "name":"_ZNK7android4RectmiERKNS_5PointE"
  },
  {
   "name":"_ZNK7android4RectplERKNS_5PointE"
  },
  {
   "name":"_ZNK7android5Fence10getFdCountEv"
  },
  {
   "name":"_ZNK7android5Fence13getSignalTimeEv"
  },
  {
   "name":"_ZNK7android5Fence16getFlattenedSizeEv"
  },
  {
   "name":"_ZNK7android5Fence3dupEv"
  },
  {
   "name":"_ZNK7android5Fence7flattenERPvRjRPiS3_"
  },
  {
   "name":"_ZNK7android6Region14mergeExclusiveERKNS_4RectE"
  },
  {
   "name":"_ZNK7android6Region14mergeExclusiveERKS0_"
  },
  {
   "name":"_ZNK7android6Region14mergeExclusiveERKS0_ii"
  },
  {
   "name":"_ZNK7android6Region16getFlattenedSizeEv"
  },
  {
   "name":"_ZNK7android6Region16isTriviallyEqualERKS0_"
  },
  {
   "name":"_ZNK7android6Region3endEv"
  },
  {
   "name":"_ZNK7android6Region4dumpEPKcj"
  },
  {
   "name":"_ZNK7android6Region4dumpERNS_7String8EPKcj"
  },
  {
   "name":"_ZNK7android6Region5beginEv"
  },
  {
   "name":"_ZNK7android6Region5mergeERKNS_4RectE"
  },
  {
   "name":"_ZNK7android6Region5mergeERKS0_"
  },
  {
   "name":"_ZNK7android6Region5mergeERKS0_ii"
  },
  {
   "name":"_ZNK7android6Region7flattenEPvj"
  },
  {
   "name":"_ZNK7android6Region8containsERKNS_5PointE"
  },
  {
   "name":"_ZNK7android6Region8containsEii"
  },
  {
   "name":"_ZNK7android6Region8getArrayEPj"
  },
  {
   "name":"_ZNK7android6Region8subtractERKNS_4RectE"
  },
  {
   "name":"_ZNK7android6Region8subtractERKS0_"
  },
  {
   "name":"_ZNK7android6Region8subtractERKS0_ii"
  },
  {
   "name":"_ZNK7android6Region9intersectERKNS_4RectE"
  },
  {
   "name":"_ZNK7android6Region9intersectERKS0_"
  },
  {
   "name":"_ZNK7android6Region9intersectERKS0_ii"
  },
  {
   "name":"_ZNK7android6Region9operationERKNS_4RectEj"
  },
  {
   "name":"_ZNK7android6Region9operationERKS0_iij"
  },
  {
   "name":"_ZNK7android6Region9operationERKS0_j"
  },
  {
   "name":"_ZNK7android6Region9translateEii"
  },
  {
   "binding":"weak",
   "name":"_ZNK7android6VectorINS_4RectEE10do_destroyEPvj"
  },
  {
   "binding":"weak",
   "name":"_ZNK7android6VectorINS_4RectEE12do_constructEPvj"
  },
  {
   "binding":"weak",
   "name":"_ZNK7android6VectorINS_4RectEE15do_move_forwardEPvPKvj"
  },
  {
   "binding":"weak",
   "name":"_ZNK7android6VectorINS_4RectEE16do_move_backwardEPvPKvj"
  },
  {
   "binding":"weak",
   "name":"_ZNK7android6VectorINS_4RectEE7do_copyEPvPKvj"
  },
  {
   "binding":"weak",
   "name":"_ZNK7android6VectorINS_4RectEE8do_splatEPvPKvj"
  },
  {
   "name":"_ZNK7android8Gralloc26Mapper10freeBufferEPK13native_handle"
  },
  {
   "name":"_ZNK7android8Gralloc26Mapper12importBufferERKNS_8hardware11hidl_handleEPPK13native_handle"
  },
  {
   "name":"_ZNK7android8Gralloc26Mapper16createDescriptorERKNS_8hardware8graphics6mapper4V2_17IMapper20BufferDescriptorInfoEPNS2_8hidl_vecIjEE"
  },
  {
   "name":"_ZNK7android8Gralloc26Mapper16getTransportSizeEPK13native_handlePjS5_"
  },
  {
   "name":"_ZNK7android8Gralloc26Mapper18validateBufferSizeEPK13native_handleRKNS_8hardware8graphics6mapper4V2_17IMapper20BufferDescriptorInfoEj"
  },
  {
   "name":"_ZNK7android8Gralloc26Mapper28validateBufferDescriptorInfoERKNS_8hardware8graphics6mapper4V2_17IMapper20BufferDescriptorInfoE"
  },
  {
   "name":"_ZNK7android8Gralloc26Mapper4lockEPK13native_handleyRKNS_8hardware8graphics6mapper4V2_07IMapper4RectEiPNS8_11YCbCrLayoutE"
  },
  {
   "name":"_ZNK7android8Gralloc26Mapper4lockEPK13native_handleyRKNS_8hardware8graphics6mapper4V2_07IMapper4RectEiPPv"
  },
  {
   "name":"_ZNK7android8Gralloc26Mapper6unlockEPK13native_handle"
  },
  {
   "name":"_ZNK7android8Gralloc29Allocator13dumpDebugInfoEv"
  },
  {
   "name":"_ZNK7android8Gralloc29Allocator8allocateENS_8hardware8hidl_vecIjEEjPjPPK13native_handle"
  },
  {
   "name":"_ZNK7android9FenceTime11getSnapshotEv"
  },
  {
   "name":"_ZNK7android9FenceTime19getCachedSignalTimeEv"
  },
  {
   "name":"_ZNK7android9FenceTime7isValidEv"
  },
  {
   "name":"_ZNK7android9FenceTime8Snapshot10getFdCountEv"
  },
  {
   "name":"_ZNK7android9FenceTime8Snapshot16getFlattenedSizeEv"
  },
  {
   "name":"_ZNK7android9FenceTime8Snapshot7flattenERPvRjRPiS4_"
  }
 ],
 "elf_objects":[
  {
   "name":"_ZN7android22GraphicBufferAllocator10sAllocListE"
  },
  {
   "name":"_ZN7android22GraphicBufferAllocator5sLockE"
  },
  {
   "name":"_ZN7android4Rect10EMPTY_RECTE"
  },
  {
   "name":"_ZN7android4Rect12INVALID_RECTE"
  },
  {
   "name":"_ZN7android5Fence8NO_FENCEE"
  },
  {
   "name":"_ZN7android6Region14INVALID_REGIONE"
  },
  {
   "name":"_ZN7android9FenceTime8NO_FENCEE"
  },
  {
   "name":"_ZN7android9SingletonINS_19GraphicBufferMapperEE5sLockE"
  },
  {
   "name":"_ZN7android9SingletonINS_19GraphicBufferMapperEE9sInstanceE"
  },
  {
   "name":"_ZN7android9SingletonINS_22GraphicBufferAllocatorEE5sLockE"
  },
  {
   "name":"_ZN7android9SingletonINS_22GraphicBufferAllocatorEE9sInstanceE"
  },
  {
   "binding":"weak",
   "name":"_ZTVN7android12SortedVectorINS_16key_value_pair_tIPK13native_handleNS_22GraphicBufferAllocator11alloc_rec_tEEEEE"
  },
  {
   "name":"_ZTVN7android13GraphicBufferE"
  },
  {
   "binding":"weak",
   "name":"_ZTVN7android6VectorINS_4RectEEE"
  }
 ]
}